Archive member included to satisfy reference by file (symbol)

external/rtt/librtt_nrf52840_xxAA.a(SEGGER_RTT.c.obj)
                              examples/beaconing/CMakeFiles/beaconing_nrf52840_xxAA_s140_6.0.0.dir/__/__/mesh/core/src/log.c.obj (SEGGER_RTT_Write)
external/rtt/librtt_nrf52840_xxAA.a(SEGGER_RTT_printf.c.obj)
                              examples/beaconing/CMakeFiles/beaconing_nrf52840_xxAA_s140_6.0.0.dir/__/__/mesh/core/src/log.c.obj (SEGGER_RTT_vprintf)
external/micro-ecc/libuECC_nrf52840_xxAA.a(uECC.c.obj)
                              examples/beaconing/CMakeFiles/beaconing_nrf52840_xxAA_s140_6.0.0.dir/__/__/mesh/prov/src/prov_utils.c.obj (uECC_secp256r1)
c:/mesh/arm_gcc/bin/../lib/gcc/arm-none-eabi/6.3.1/thumb/v7e-m/fpv4-sp/hard\libgcc.a(_aeabi_uldivmod.o)
                              examples/beaconing/CMakeFiles/beaconing_nrf52840_xxAA_s140_6.0.0.dir/__/common/src/simple_hal.c.obj (__aeabi_uldivmod)
c:/mesh/arm_gcc/bin/../lib/gcc/arm-none-eabi/6.3.1/thumb/v7e-m/fpv4-sp/hard\libgcc.a(_udivmoddi4.o)
                              c:/mesh/arm_gcc/bin/../lib/gcc/arm-none-eabi/6.3.1/thumb/v7e-m/fpv4-sp/hard\libgcc.a(_aeabi_uldivmod.o) (__udivmoddi4)
c:/mesh/arm_gcc/bin/../lib/gcc/arm-none-eabi/6.3.1/thumb/v7e-m/fpv4-sp/hard\libgcc.a(_dvmd_tls.o)
                              c:/mesh/arm_gcc/bin/../lib/gcc/arm-none-eabi/6.3.1/thumb/v7e-m/fpv4-sp/hard\libgcc.a(_aeabi_uldivmod.o) (__aeabi_ldiv0)
c:/mesh/arm_gcc/bin/../lib/gcc/arm-none-eabi/6.3.1/../../../../arm-none-eabi/lib/thumb/v7e-m/fpv4-sp/hard\libg_nano.a(lib_a-exit.o)
                              c:/mesh/arm_gcc/bin/../lib/gcc/arm-none-eabi/6.3.1/../../../../arm-none-eabi/lib/thumb/v7e-m/fpv4-sp/hard/crt0.o (exit)
c:/mesh/arm_gcc/bin/../lib/gcc/arm-none-eabi/6.3.1/../../../../arm-none-eabi/lib/thumb/v7e-m/fpv4-sp/hard\libg_nano.a(lib_a-impure.o)
                              c:/mesh/arm_gcc/bin/../lib/gcc/arm-none-eabi/6.3.1/../../../../arm-none-eabi/lib/thumb/v7e-m/fpv4-sp/hard\libg_nano.a(lib_a-exit.o) (_global_impure_ptr)
c:/mesh/arm_gcc/bin/../lib/gcc/arm-none-eabi/6.3.1/../../../../arm-none-eabi/lib/thumb/v7e-m/fpv4-sp/hard\libg_nano.a(lib_a-init.o)
                              c:/mesh/arm_gcc/bin/../lib/gcc/arm-none-eabi/6.3.1/../../../../arm-none-eabi/lib/thumb/v7e-m/fpv4-sp/hard/crt0.o (__libc_init_array)
c:/mesh/arm_gcc/bin/../lib/gcc/arm-none-eabi/6.3.1/../../../../arm-none-eabi/lib/thumb/v7e-m/fpv4-sp/hard\libg_nano.a(lib_a-malloc.o)
                              examples/beaconing/CMakeFiles/beaconing_nrf52840_xxAA_s140_6.0.0.dir/__/__/mesh/access/src/access_loopback.c.obj (malloc)
c:/mesh/arm_gcc/bin/../lib/gcc/arm-none-eabi/6.3.1/../../../../arm-none-eabi/lib/thumb/v7e-m/fpv4-sp/hard\libg_nano.a(lib_a-memcmp.o)
                              examples/beaconing/CMakeFiles/beaconing_nrf52840_xxAA_s140_6.0.0.dir/__/__/mesh/access/src/device_state_manager.c.obj (memcmp)
c:/mesh/arm_gcc/bin/../lib/gcc/arm-none-eabi/6.3.1/../../../../arm-none-eabi/lib/thumb/v7e-m/fpv4-sp/hard\libg_nano.a(lib_a-memcpy-stub.o)
                              examples/beaconing/CMakeFiles/beaconing_nrf52840_xxAA_s140_6.0.0.dir/src/main.c.obj (memcpy)
c:/mesh/arm_gcc/bin/../lib/gcc/arm-none-eabi/6.3.1/../../../../arm-none-eabi/lib/thumb/v7e-m/fpv4-sp/hard\libg_nano.a(lib_a-memset.o)
                              c:/mesh/arm_gcc/bin/../lib/gcc/arm-none-eabi/6.3.1/../../../../arm-none-eabi/lib/thumb/v7e-m/fpv4-sp/hard/crt0.o (memset)
c:/mesh/arm_gcc/bin/../lib/gcc/arm-none-eabi/6.3.1/../../../../arm-none-eabi/lib/thumb/v7e-m/fpv4-sp/hard\libg_nano.a(lib_a-nano-freer.o)
                              c:/mesh/arm_gcc/bin/../lib/gcc/arm-none-eabi/6.3.1/../../../../arm-none-eabi/lib/thumb/v7e-m/fpv4-sp/hard\libg_nano.a(lib_a-malloc.o) (_free_r)
c:/mesh/arm_gcc/bin/../lib/gcc/arm-none-eabi/6.3.1/../../../../arm-none-eabi/lib/thumb/v7e-m/fpv4-sp/hard\libg_nano.a(lib_a-nano-mallocr.o)
                              c:/mesh/arm_gcc/bin/../lib/gcc/arm-none-eabi/6.3.1/../../../../arm-none-eabi/lib/thumb/v7e-m/fpv4-sp/hard\libg_nano.a(lib_a-malloc.o) (_malloc_r)
c:/mesh/arm_gcc/bin/../lib/gcc/arm-none-eabi/6.3.1/../../../../arm-none-eabi/lib/thumb/v7e-m/fpv4-sp/hard\libg_nano.a(lib_a-sbrkr.o)
                              c:/mesh/arm_gcc/bin/../lib/gcc/arm-none-eabi/6.3.1/../../../../arm-none-eabi/lib/thumb/v7e-m/fpv4-sp/hard\libg_nano.a(lib_a-nano-mallocr.o) (_sbrk_r)
c:/mesh/arm_gcc/bin/../lib/gcc/arm-none-eabi/6.3.1/../../../../arm-none-eabi/lib/thumb/v7e-m/fpv4-sp/hard\libg_nano.a(lib_a-sprintf.o)
                              examples/beaconing/CMakeFiles/beaconing_nrf52840_xxAA_s140_6.0.0.dir/src/main.c.obj (sprintf)
c:/mesh/arm_gcc/bin/../lib/gcc/arm-none-eabi/6.3.1/../../../../arm-none-eabi/lib/thumb/v7e-m/fpv4-sp/hard\libg_nano.a(lib_a-strcpy.o)
                              external/rtt/librtt_nrf52840_xxAA.a(SEGGER_RTT.c.obj) (strcpy)
c:/mesh/arm_gcc/bin/../lib/gcc/arm-none-eabi/6.3.1/../../../../arm-none-eabi/lib/thumb/v7e-m/fpv4-sp/hard\libg_nano.a(lib_a-strlen.o)
                              examples/beaconing/CMakeFiles/beaconing_nrf52840_xxAA_s140_6.0.0.dir/__/__/mesh/prov/src/prov_beacon.c.obj (strlen)
c:/mesh/arm_gcc/bin/../lib/gcc/arm-none-eabi/6.3.1/../../../../arm-none-eabi/lib/thumb/v7e-m/fpv4-sp/hard\libg_nano.a(lib_a-strrchr.o)
                              examples/beaconing/CMakeFiles/beaconing_nrf52840_xxAA_s140_6.0.0.dir/src/main.c.obj (strrchr)
c:/mesh/arm_gcc/bin/../lib/gcc/arm-none-eabi/6.3.1/../../../../arm-none-eabi/lib/thumb/v7e-m/fpv4-sp/hard\libg_nano.a(lib_a-mlock.o)
                              c:/mesh/arm_gcc/bin/../lib/gcc/arm-none-eabi/6.3.1/../../../../arm-none-eabi/lib/thumb/v7e-m/fpv4-sp/hard\libg_nano.a(lib_a-nano-freer.o) (__malloc_lock)
c:/mesh/arm_gcc/bin/../lib/gcc/arm-none-eabi/6.3.1/../../../../arm-none-eabi/lib/thumb/v7e-m/fpv4-sp/hard\libg_nano.a(lib_a-nano-svfprintf.o)
                              c:/mesh/arm_gcc/bin/../lib/gcc/arm-none-eabi/6.3.1/../../../../arm-none-eabi/lib/thumb/v7e-m/fpv4-sp/hard\libg_nano.a(lib_a-sprintf.o) (_svfprintf_r)
c:/mesh/arm_gcc/bin/../lib/gcc/arm-none-eabi/6.3.1/../../../../arm-none-eabi/lib/thumb/v7e-m/fpv4-sp/hard\libg_nano.a(lib_a-nano-vfprintf_i.o)
                              c:/mesh/arm_gcc/bin/../lib/gcc/arm-none-eabi/6.3.1/../../../../arm-none-eabi/lib/thumb/v7e-m/fpv4-sp/hard\libg_nano.a(lib_a-nano-svfprintf.o) (_printf_i)
c:/mesh/arm_gcc/bin/../lib/gcc/arm-none-eabi/6.3.1/../../../../arm-none-eabi/lib/thumb/v7e-m/fpv4-sp/hard\libg_nano.a(lib_a-reent.o)
                              c:/mesh/arm_gcc/bin/../lib/gcc/arm-none-eabi/6.3.1/../../../../arm-none-eabi/lib/thumb/v7e-m/fpv4-sp/hard\libg_nano.a(lib_a-sbrkr.o) (errno)
c:/mesh/arm_gcc/bin/../lib/gcc/arm-none-eabi/6.3.1/../../../../arm-none-eabi/lib/thumb/v7e-m/fpv4-sp/hard\libg_nano.a(lib_a-strchr.o)
                              c:/mesh/arm_gcc/bin/../lib/gcc/arm-none-eabi/6.3.1/../../../../arm-none-eabi/lib/thumb/v7e-m/fpv4-sp/hard\libg_nano.a(lib_a-strrchr.o) (strchr)
c:/mesh/arm_gcc/bin/../lib/gcc/arm-none-eabi/6.3.1/../../../../arm-none-eabi/lib/thumb/v7e-m/fpv4-sp/hard\libg_nano.a(lib_a-memchr.o)
                              c:/mesh/arm_gcc/bin/../lib/gcc/arm-none-eabi/6.3.1/../../../../arm-none-eabi/lib/thumb/v7e-m/fpv4-sp/hard\libg_nano.a(lib_a-nano-svfprintf.o) (memchr)
c:/mesh/arm_gcc/bin/../lib/gcc/arm-none-eabi/6.3.1/../../../../arm-none-eabi/lib/thumb/v7e-m/fpv4-sp/hard\libg_nano.a(lib_a-memmove.o)
                              c:/mesh/arm_gcc/bin/../lib/gcc/arm-none-eabi/6.3.1/../../../../arm-none-eabi/lib/thumb/v7e-m/fpv4-sp/hard\libg_nano.a(lib_a-nano-svfprintf.o) (memmove)
c:/mesh/arm_gcc/bin/../lib/gcc/arm-none-eabi/6.3.1/../../../../arm-none-eabi/lib/thumb/v7e-m/fpv4-sp/hard\libg_nano.a(lib_a-nano-reallocr.o)
                              c:/mesh/arm_gcc/bin/../lib/gcc/arm-none-eabi/6.3.1/../../../../arm-none-eabi/lib/thumb/v7e-m/fpv4-sp/hard\libg_nano.a(lib_a-nano-svfprintf.o) (_realloc_r)
c:/mesh/arm_gcc/bin/../lib/gcc/arm-none-eabi/6.3.1/../../../../arm-none-eabi/lib/thumb/v7e-m/fpv4-sp/hard\libg_nano.a(lib_a-nano-msizer.o)
                              c:/mesh/arm_gcc/bin/../lib/gcc/arm-none-eabi/6.3.1/../../../../arm-none-eabi/lib/thumb/v7e-m/fpv4-sp/hard\libg_nano.a(lib_a-nano-reallocr.o) (_malloc_usable_size_r)
c:/mesh/arm_gcc/bin/../lib/gcc/arm-none-eabi/6.3.1/../../../../arm-none-eabi/lib/thumb/v7e-m/fpv4-sp/hard\libnosys.a(sbrk.o)
                              c:/mesh/arm_gcc/bin/../lib/gcc/arm-none-eabi/6.3.1/../../../../arm-none-eabi/lib/thumb/v7e-m/fpv4-sp/hard\libg_nano.a(lib_a-sbrkr.o) (_sbrk)
c:/mesh/arm_gcc/bin/../lib/gcc/arm-none-eabi/6.3.1/../../../../arm-none-eabi/lib/thumb/v7e-m/fpv4-sp/hard\libnosys.a(_exit.o)
                              c:/mesh/arm_gcc/bin/../lib/gcc/arm-none-eabi/6.3.1/../../../../arm-none-eabi/lib/thumb/v7e-m/fpv4-sp/hard\libg_nano.a(lib_a-exit.o) (_exit)

Allocating common symbols
Common symbol       size              file

nrf_nvic_state      0xc               examples/beaconing/CMakeFiles/beaconing_nrf52840_xxAA_s140_6.0.0.dir/C_/b/nRF5_SDK_15.0.0_a53641a/components/libraries/util/app_util_platform.c.obj
m_packet            0x24              examples/beaconing/CMakeFiles/beaconing_nrf52840_xxAA_s140_6.0.0.dir/__/__/mesh/core/src/core_tx.c.obj
errno               0x4               c:/mesh/arm_gcc/bin/../lib/gcc/arm-none-eabi/6.3.1/../../../../arm-none-eabi/lib/thumb/v7e-m/fpv4-sp/hard\libg_nano.a(lib_a-reent.o)
_SEGGER_RTT         0x78              external/rtt/librtt_nrf52840_xxAA.a(SEGGER_RTT.c.obj)

Discarded input sections

 .text          0x00000000        0x0 c:/mesh/arm_gcc/bin/../lib/gcc/arm-none-eabi/6.3.1/thumb/v7e-m/fpv4-sp/hard/crti.o
 .data          0x00000000        0x0 c:/mesh/arm_gcc/bin/../lib/gcc/arm-none-eabi/6.3.1/thumb/v7e-m/fpv4-sp/hard/crti.o
 .bss           0x00000000        0x0 c:/mesh/arm_gcc/bin/../lib/gcc/arm-none-eabi/6.3.1/thumb/v7e-m/fpv4-sp/hard/crti.o
 .data          0x00000000        0x4 c:/mesh/arm_gcc/bin/../lib/gcc/arm-none-eabi/6.3.1/thumb/v7e-m/fpv4-sp/hard/crtbegin.o
 .data          0x00000000        0x0 c:/mesh/arm_gcc/bin/../lib/gcc/arm-none-eabi/6.3.1/../../../../arm-none-eabi/lib/thumb/v7e-m/fpv4-sp/hard/crt0.o
 .bss           0x00000000        0x0 c:/mesh/arm_gcc/bin/../lib/gcc/arm-none-eabi/6.3.1/../../../../arm-none-eabi/lib/thumb/v7e-m/fpv4-sp/hard/crt0.o
 .ARM.extab     0x00000000        0x0 c:/mesh/arm_gcc/bin/../lib/gcc/arm-none-eabi/6.3.1/../../../../arm-none-eabi/lib/thumb/v7e-m/fpv4-sp/hard/crt0.o
 .text          0x00000000        0x0 examples/beaconing/CMakeFiles/beaconing_nrf52840_xxAA_s140_6.0.0.dir/src/main.c.obj
 .data          0x00000000        0x0 examples/beaconing/CMakeFiles/beaconing_nrf52840_xxAA_s140_6.0.0.dir/src/main.c.obj
 .bss           0x00000000        0x0 examples/beaconing/CMakeFiles/beaconing_nrf52840_xxAA_s140_6.0.0.dir/src/main.c.obj
 .text          0x00000000        0x0 examples/beaconing/CMakeFiles/beaconing_nrf52840_xxAA_s140_6.0.0.dir/__/__/mesh/stack/src/mesh_stack.c.obj
 .data          0x00000000        0x0 examples/beaconing/CMakeFiles/beaconing_nrf52840_xxAA_s140_6.0.0.dir/__/__/mesh/stack/src/mesh_stack.c.obj
 .bss           0x00000000        0x0 examples/beaconing/CMakeFiles/beaconing_nrf52840_xxAA_s140_6.0.0.dir/__/__/mesh/stack/src/mesh_stack.c.obj
 .text          0x00000000        0x0 examples/beaconing/CMakeFiles/beaconing_nrf52840_xxAA_s140_6.0.0.dir/__/common/src/mesh_softdevice_init.c.obj
 .data          0x00000000        0x0 examples/beaconing/CMakeFiles/beaconing_nrf52840_xxAA_s140_6.0.0.dir/__/common/src/mesh_softdevice_init.c.obj
 .bss           0x00000000        0x0 examples/beaconing/CMakeFiles/beaconing_nrf52840_xxAA_s140_6.0.0.dir/__/common/src/mesh_softdevice_init.c.obj
 .text          0x00000000        0x0 examples/beaconing/CMakeFiles/beaconing_nrf52840_xxAA_s140_6.0.0.dir/__/common/src/mesh_provisionee.c.obj
 .data          0x00000000        0x0 examples/beaconing/CMakeFiles/beaconing_nrf52840_xxAA_s140_6.0.0.dir/__/common/src/mesh_provisionee.c.obj
 .bss           0x00000000        0x0 examples/beaconing/CMakeFiles/beaconing_nrf52840_xxAA_s140_6.0.0.dir/__/common/src/mesh_provisionee.c.obj
 .text          0x00000000        0x0 examples/beaconing/CMakeFiles/beaconing_nrf52840_xxAA_s140_6.0.0.dir/__/common/src/simple_hal.c.obj
 .data          0x00000000        0x0 examples/beaconing/CMakeFiles/beaconing_nrf52840_xxAA_s140_6.0.0.dir/__/common/src/simple_hal.c.obj
 .bss           0x00000000        0x0 examples/beaconing/CMakeFiles/beaconing_nrf52840_xxAA_s140_6.0.0.dir/__/common/src/simple_hal.c.obj
 .text.hal_led_pin_get
                0x00000000       0x18 examples/beaconing/CMakeFiles/beaconing_nrf52840_xxAA_s140_6.0.0.dir/__/common/src/simple_hal.c.obj
 .text.hal_led_pin_set
                0x00000000       0x16 examples/beaconing/CMakeFiles/beaconing_nrf52840_xxAA_s140_6.0.0.dir/__/common/src/simple_hal.c.obj
 .text.hal_buttons_init
                0x00000000       0x50 examples/beaconing/CMakeFiles/beaconing_nrf52840_xxAA_s140_6.0.0.dir/__/common/src/simple_hal.c.obj
 .text          0x00000000        0x0 examples/beaconing/CMakeFiles/beaconing_nrf52840_xxAA_s140_6.0.0.dir/__/__/mesh/access/src/access_publish.c.obj
 .data          0x00000000        0x0 examples/beaconing/CMakeFiles/beaconing_nrf52840_xxAA_s140_6.0.0.dir/__/__/mesh/access/src/access_publish.c.obj
 .bss           0x00000000        0x0 examples/beaconing/CMakeFiles/beaconing_nrf52840_xxAA_s140_6.0.0.dir/__/__/mesh/access/src/access_publish.c.obj
 .text          0x00000000        0x0 examples/beaconing/CMakeFiles/beaconing_nrf52840_xxAA_s140_6.0.0.dir/__/__/mesh/access/src/access.c.obj
 .data          0x00000000        0x0 examples/beaconing/CMakeFiles/beaconing_nrf52840_xxAA_s140_6.0.0.dir/__/__/mesh/access/src/access.c.obj
 .bss           0x00000000        0x0 examples/beaconing/CMakeFiles/beaconing_nrf52840_xxAA_s140_6.0.0.dir/__/__/mesh/access/src/access.c.obj
 .text.access_model_subscription_list_alloc
                0x00000000       0x50 examples/beaconing/CMakeFiles/beaconing_nrf52840_xxAA_s140_6.0.0.dir/__/__/mesh/access/src/access.c.obj
 .text.access_model_subscription_lists_share
                0x00000000       0x4c examples/beaconing/CMakeFiles/beaconing_nrf52840_xxAA_s140_6.0.0.dir/__/__/mesh/access/src/access.c.obj
 .text.access_element_location_set
                0x00000000       0x20 examples/beaconing/CMakeFiles/beaconing_nrf52840_xxAA_s140_6.0.0.dir/__/__/mesh/access/src/access.c.obj
 .text          0x00000000        0x0 examples/beaconing/CMakeFiles/beaconing_nrf52840_xxAA_s140_6.0.0.dir/__/__/mesh/access/src/access_reliable.c.obj
 .data          0x00000000        0x0 examples/beaconing/CMakeFiles/beaconing_nrf52840_xxAA_s140_6.0.0.dir/__/__/mesh/access/src/access_reliable.c.obj
 .bss           0x00000000        0x0 examples/beaconing/CMakeFiles/beaconing_nrf52840_xxAA_s140_6.0.0.dir/__/__/mesh/access/src/access_reliable.c.obj
 .text.access_model_reliable_publish
                0x00000000      0x1bc examples/beaconing/CMakeFiles/beaconing_nrf52840_xxAA_s140_6.0.0.dir/__/__/mesh/access/src/access_reliable.c.obj
 .text          0x00000000        0x0 examples/beaconing/CMakeFiles/beaconing_nrf52840_xxAA_s140_6.0.0.dir/__/__/mesh/access/src/access_loopback.c.obj
 .data          0x00000000        0x0 examples/beaconing/CMakeFiles/beaconing_nrf52840_xxAA_s140_6.0.0.dir/__/__/mesh/access/src/access_loopback.c.obj
 .bss           0x00000000        0x0 examples/beaconing/CMakeFiles/beaconing_nrf52840_xxAA_s140_6.0.0.dir/__/__/mesh/access/src/access_loopback.c.obj
 .text          0x00000000        0x0 examples/beaconing/CMakeFiles/beaconing_nrf52840_xxAA_s140_6.0.0.dir/__/__/mesh/access/src/device_state_manager.c.obj
 .data          0x00000000        0x0 examples/beaconing/CMakeFiles/beaconing_nrf52840_xxAA_s140_6.0.0.dir/__/__/mesh/access/src/device_state_manager.c.obj
 .bss           0x00000000        0x0 examples/beaconing/CMakeFiles/beaconing_nrf52840_xxAA_s140_6.0.0.dir/__/__/mesh/access/src/device_state_manager.c.obj
 .text.dsm_has_unflashed_data
                0x00000000       0x24 examples/beaconing/CMakeFiles/beaconing_nrf52840_xxAA_s140_6.0.0.dir/__/__/mesh/access/src/device_state_manager.c.obj
 .text.dsm_address_subscription_get
                0x00000000       0x34 examples/beaconing/CMakeFiles/beaconing_nrf52840_xxAA_s140_6.0.0.dir/__/__/mesh/access/src/device_state_manager.c.obj
 .text.dsm_address_subscription_count_get
                0x00000000       0x58 examples/beaconing/CMakeFiles/beaconing_nrf52840_xxAA_s140_6.0.0.dir/__/__/mesh/access/src/device_state_manager.c.obj
 .text.dsm_address_get_all
                0x00000000       0x74 examples/beaconing/CMakeFiles/beaconing_nrf52840_xxAA_s140_6.0.0.dir/__/__/mesh/access/src/device_state_manager.c.obj
 .text.dsm_subnet_handle_to_netkey_index
                0x00000000       0x34 examples/beaconing/CMakeFiles/beaconing_nrf52840_xxAA_s140_6.0.0.dir/__/__/mesh/access/src/device_state_manager.c.obj
 .text.dsm_subnet_key_get
                0x00000000       0x4c examples/beaconing/CMakeFiles/beaconing_nrf52840_xxAA_s140_6.0.0.dir/__/__/mesh/access/src/device_state_manager.c.obj
 .text.dsm_devkey_delete
                0x00000000       0x38 examples/beaconing/CMakeFiles/beaconing_nrf52840_xxAA_s140_6.0.0.dir/__/__/mesh/access/src/device_state_manager.c.obj
 .text.dsm_devkey_handle_get
                0x00000000       0x34 examples/beaconing/CMakeFiles/beaconing_nrf52840_xxAA_s140_6.0.0.dir/__/__/mesh/access/src/device_state_manager.c.obj
 .text.dsm_beacon_info_get
                0x00000000       0x38 examples/beaconing/CMakeFiles/beaconing_nrf52840_xxAA_s140_6.0.0.dir/__/__/mesh/access/src/device_state_manager.c.obj
 .text          0x00000000        0x0 examples/beaconing/CMakeFiles/beaconing_nrf52840_xxAA_s140_6.0.0.dir/__/nrf_mesh_weak.c.obj
 .data          0x00000000        0x0 examples/beaconing/CMakeFiles/beaconing_nrf52840_xxAA_s140_6.0.0.dir/__/nrf_mesh_weak.c.obj
 .bss           0x00000000        0x0 examples/beaconing/CMakeFiles/beaconing_nrf52840_xxAA_s140_6.0.0.dir/__/nrf_mesh_weak.c.obj
 .text._weak_handler_ptr
                0x00000000        0x4 examples/beaconing/CMakeFiles/beaconing_nrf52840_xxAA_s140_6.0.0.dir/__/nrf_mesh_weak.c.obj
 .text          0x00000000        0x0 examples/beaconing/CMakeFiles/beaconing_nrf52840_xxAA_s140_6.0.0.dir/__/common/src/app_error_weak.c.obj
 .data          0x00000000        0x0 examples/beaconing/CMakeFiles/beaconing_nrf52840_xxAA_s140_6.0.0.dir/__/common/src/app_error_weak.c.obj
 .bss           0x00000000        0x0 examples/beaconing/CMakeFiles/beaconing_nrf52840_xxAA_s140_6.0.0.dir/__/common/src/app_error_weak.c.obj
 .text          0x00000000        0x0 examples/beaconing/CMakeFiles/beaconing_nrf52840_xxAA_s140_6.0.0.dir/__/common/src/assertion_handler_weak.c.obj
 .data          0x00000000        0x0 examples/beaconing/CMakeFiles/beaconing_nrf52840_xxAA_s140_6.0.0.dir/__/common/src/assertion_handler_weak.c.obj
 .bss           0x00000000        0x0 examples/beaconing/CMakeFiles/beaconing_nrf52840_xxAA_s140_6.0.0.dir/__/common/src/assertion_handler_weak.c.obj
 .text          0x00000000        0x0 examples/beaconing/CMakeFiles/beaconing_nrf52840_xxAA_s140_6.0.0.dir/__/__/models/config/src/composition_data.c.obj
 .data          0x00000000        0x0 examples/beaconing/CMakeFiles/beaconing_nrf52840_xxAA_s140_6.0.0.dir/__/__/models/config/src/composition_data.c.obj
 .bss           0x00000000        0x0 examples/beaconing/CMakeFiles/beaconing_nrf52840_xxAA_s140_6.0.0.dir/__/__/models/config/src/composition_data.c.obj
 .text          0x00000000        0x0 examples/beaconing/CMakeFiles/beaconing_nrf52840_xxAA_s140_6.0.0.dir/__/__/models/config/src/config_server.c.obj
 .data          0x00000000        0x0 examples/beaconing/CMakeFiles/beaconing_nrf52840_xxAA_s140_6.0.0.dir/__/__/models/config/src/config_server.c.obj
 .bss           0x00000000        0x0 examples/beaconing/CMakeFiles/beaconing_nrf52840_xxAA_s140_6.0.0.dir/__/__/models/config/src/config_server.c.obj
 .text          0x00000000        0x0 examples/beaconing/CMakeFiles/beaconing_nrf52840_xxAA_s140_6.0.0.dir/__/__/models/config/src/packed_index_list.c.obj
 .data          0x00000000        0x0 examples/beaconing/CMakeFiles/beaconing_nrf52840_xxAA_s140_6.0.0.dir/__/__/models/config/src/packed_index_list.c.obj
 .bss           0x00000000        0x0 examples/beaconing/CMakeFiles/beaconing_nrf52840_xxAA_s140_6.0.0.dir/__/__/models/config/src/packed_index_list.c.obj
 .text          0x00000000        0x0 examples/beaconing/CMakeFiles/beaconing_nrf52840_xxAA_s140_6.0.0.dir/__/__/models/health/src/health_server.c.obj
 .data          0x00000000        0x0 examples/beaconing/CMakeFiles/beaconing_nrf52840_xxAA_s140_6.0.0.dir/__/__/models/health/src/health_server.c.obj
 .bss           0x00000000        0x0 examples/beaconing/CMakeFiles/beaconing_nrf52840_xxAA_s140_6.0.0.dir/__/__/models/health/src/health_server.c.obj
 .text.health_server_fault_is_set
                0x00000000       0x1c examples/beaconing/CMakeFiles/beaconing_nrf52840_xxAA_s140_6.0.0.dir/__/__/models/health/src/health_server.c.obj
 .text.health_server_fault_count_get
                0x00000000        0xc examples/beaconing/CMakeFiles/beaconing_nrf52840_xxAA_s140_6.0.0.dir/__/__/models/health/src/health_server.c.obj
 .text.health_server_fault_register
                0x00000000       0xca examples/beaconing/CMakeFiles/beaconing_nrf52840_xxAA_s140_6.0.0.dir/__/__/models/health/src/health_server.c.obj
 .text.health_server_fault_clear
                0x00000000       0x48 examples/beaconing/CMakeFiles/beaconing_nrf52840_xxAA_s140_6.0.0.dir/__/__/models/health/src/health_server.c.obj
 .text.health_server_attention_get
                0x00000000        0x6 examples/beaconing/CMakeFiles/beaconing_nrf52840_xxAA_s140_6.0.0.dir/__/__/models/health/src/health_server.c.obj
 .text.health_server_attention_set
                0x00000000        0x4 examples/beaconing/CMakeFiles/beaconing_nrf52840_xxAA_s140_6.0.0.dir/__/__/models/health/src/health_server.c.obj
 .text          0x00000000        0x0 examples/beaconing/CMakeFiles/beaconing_nrf52840_xxAA_s140_6.0.0.dir/__/__/mesh/prov/src/prov_provisionee.c.obj
 .data          0x00000000        0x0 examples/beaconing/CMakeFiles/beaconing_nrf52840_xxAA_s140_6.0.0.dir/__/__/mesh/prov/src/prov_provisionee.c.obj
 .bss           0x00000000        0x0 examples/beaconing/CMakeFiles/beaconing_nrf52840_xxAA_s140_6.0.0.dir/__/__/mesh/prov/src/prov_provisionee.c.obj
 .text.prov_provisionee_shared_secret
                0x00000000       0x28 examples/beaconing/CMakeFiles/beaconing_nrf52840_xxAA_s140_6.0.0.dir/__/__/mesh/prov/src/prov_provisionee.c.obj
 .text          0x00000000        0x0 examples/beaconing/CMakeFiles/beaconing_nrf52840_xxAA_s140_6.0.0.dir/__/__/mesh/prov/src/nrf_mesh_prov.c.obj
 .data          0x00000000        0x0 examples/beaconing/CMakeFiles/beaconing_nrf52840_xxAA_s140_6.0.0.dir/__/__/mesh/prov/src/nrf_mesh_prov.c.obj
 .bss           0x00000000        0x0 examples/beaconing/CMakeFiles/beaconing_nrf52840_xxAA_s140_6.0.0.dir/__/__/mesh/prov/src/nrf_mesh_prov.c.obj
 .text.nrf_mesh_prov_provision
                0x00000000       0x4e examples/beaconing/CMakeFiles/beaconing_nrf52840_xxAA_s140_6.0.0.dir/__/__/mesh/prov/src/nrf_mesh_prov.c.obj
 .text.nrf_mesh_prov_oob_use
                0x00000000       0x18 examples/beaconing/CMakeFiles/beaconing_nrf52840_xxAA_s140_6.0.0.dir/__/__/mesh/prov/src/nrf_mesh_prov.c.obj
 .text.nrf_mesh_prov_shared_secret_provide
                0x00000000        0xe examples/beaconing/CMakeFiles/beaconing_nrf52840_xxAA_s140_6.0.0.dir/__/__/mesh/prov/src/nrf_mesh_prov.c.obj
 .text.nrf_mesh_prov_pubkey_provide
                0x00000000       0x10 examples/beaconing/CMakeFiles/beaconing_nrf52840_xxAA_s140_6.0.0.dir/__/__/mesh/prov/src/nrf_mesh_prov.c.obj
 .text.nrf_mesh_prov_scan_start
                0x00000000       0x10 examples/beaconing/CMakeFiles/beaconing_nrf52840_xxAA_s140_6.0.0.dir/__/__/mesh/prov/src/nrf_mesh_prov.c.obj
 .text.nrf_mesh_prov_scan_stop
                0x00000000        0x4 examples/beaconing/CMakeFiles/beaconing_nrf52840_xxAA_s140_6.0.0.dir/__/__/mesh/prov/src/nrf_mesh_prov.c.obj
 .text          0x00000000        0x0 examples/beaconing/CMakeFiles/beaconing_nrf52840_xxAA_s140_6.0.0.dir/__/__/mesh/prov/src/provisioning.c.obj
 .data          0x00000000        0x0 examples/beaconing/CMakeFiles/beaconing_nrf52840_xxAA_s140_6.0.0.dir/__/__/mesh/prov/src/provisioning.c.obj
 .bss           0x00000000        0x0 examples/beaconing/CMakeFiles/beaconing_nrf52840_xxAA_s140_6.0.0.dir/__/__/mesh/prov/src/provisioning.c.obj
 .text.prov_tx_invite
                0x00000000       0x28 examples/beaconing/CMakeFiles/beaconing_nrf52840_xxAA_s140_6.0.0.dir/__/__/mesh/prov/src/provisioning.c.obj
 .text.prov_tx_start
                0x00000000       0x20 examples/beaconing/CMakeFiles/beaconing_nrf52840_xxAA_s140_6.0.0.dir/__/__/mesh/prov/src/provisioning.c.obj
 .text.prov_tx_data
                0x00000000        0x6 examples/beaconing/CMakeFiles/beaconing_nrf52840_xxAA_s140_6.0.0.dir/__/__/mesh/prov/src/provisioning.c.obj
 .text.prov_tx  0x00000000        0x4 examples/beaconing/CMakeFiles/beaconing_nrf52840_xxAA_s140_6.0.0.dir/__/__/mesh/prov/src/provisioning.c.obj
 .text          0x00000000        0x0 examples/beaconing/CMakeFiles/beaconing_nrf52840_xxAA_s140_6.0.0.dir/__/__/mesh/prov/src/prov_beacon.c.obj
 .data          0x00000000        0x0 examples/beaconing/CMakeFiles/beaconing_nrf52840_xxAA_s140_6.0.0.dir/__/__/mesh/prov/src/prov_beacon.c.obj
 .bss           0x00000000        0x0 examples/beaconing/CMakeFiles/beaconing_nrf52840_xxAA_s140_6.0.0.dir/__/__/mesh/prov/src/prov_beacon.c.obj
 .text.prov_beacon_scan_start
                0x00000000       0x18 examples/beaconing/CMakeFiles/beaconing_nrf52840_xxAA_s140_6.0.0.dir/__/__/mesh/prov/src/prov_beacon.c.obj
 .text.prov_beacon_scan_stop
                0x00000000        0xc examples/beaconing/CMakeFiles/beaconing_nrf52840_xxAA_s140_6.0.0.dir/__/__/mesh/prov/src/prov_beacon.c.obj
 .text          0x00000000        0x0 examples/beaconing/CMakeFiles/beaconing_nrf52840_xxAA_s140_6.0.0.dir/__/__/mesh/prov/src/prov_utils.c.obj
 .data          0x00000000        0x0 examples/beaconing/CMakeFiles/beaconing_nrf52840_xxAA_s140_6.0.0.dir/__/__/mesh/prov/src/prov_utils.c.obj
 .bss           0x00000000        0x0 examples/beaconing/CMakeFiles/beaconing_nrf52840_xxAA_s140_6.0.0.dir/__/__/mesh/prov/src/prov_utils.c.obj
 .text          0x00000000        0x0 examples/beaconing/CMakeFiles/beaconing_nrf52840_xxAA_s140_6.0.0.dir/__/__/mesh/prov/src/prov_bearer_adv.c.obj
 .data          0x00000000        0x0 examples/beaconing/CMakeFiles/beaconing_nrf52840_xxAA_s140_6.0.0.dir/__/__/mesh/prov/src/prov_bearer_adv.c.obj
 .bss           0x00000000        0x0 examples/beaconing/CMakeFiles/beaconing_nrf52840_xxAA_s140_6.0.0.dir/__/__/mesh/prov/src/prov_bearer_adv.c.obj
 .text          0x00000000        0x0 examples/beaconing/CMakeFiles/beaconing_nrf52840_xxAA_s140_6.0.0.dir/__/__/mesh/core/src/internal_event.c.obj
 .data          0x00000000        0x0 examples/beaconing/CMakeFiles/beaconing_nrf52840_xxAA_s140_6.0.0.dir/__/__/mesh/core/src/internal_event.c.obj
 .bss           0x00000000        0x0 examples/beaconing/CMakeFiles/beaconing_nrf52840_xxAA_s140_6.0.0.dir/__/__/mesh/core/src/internal_event.c.obj
 .debug_info    0x00000000      0x8f2 examples/beaconing/CMakeFiles/beaconing_nrf52840_xxAA_s140_6.0.0.dir/__/__/mesh/core/src/internal_event.c.obj
 .debug_abbrev  0x00000000      0x192 examples/beaconing/CMakeFiles/beaconing_nrf52840_xxAA_s140_6.0.0.dir/__/__/mesh/core/src/internal_event.c.obj
 .debug_aranges
                0x00000000       0x18 examples/beaconing/CMakeFiles/beaconing_nrf52840_xxAA_s140_6.0.0.dir/__/__/mesh/core/src/internal_event.c.obj
 .debug_line    0x00000000      0x1a6 examples/beaconing/CMakeFiles/beaconing_nrf52840_xxAA_s140_6.0.0.dir/__/__/mesh/core/src/internal_event.c.obj
 .debug_str     0x00000000      0x602 examples/beaconing/CMakeFiles/beaconing_nrf52840_xxAA_s140_6.0.0.dir/__/__/mesh/core/src/internal_event.c.obj
 .comment       0x00000000       0x80 examples/beaconing/CMakeFiles/beaconing_nrf52840_xxAA_s140_6.0.0.dir/__/__/mesh/core/src/internal_event.c.obj
 .ARM.attributes
                0x00000000       0x39 examples/beaconing/CMakeFiles/beaconing_nrf52840_xxAA_s140_6.0.0.dir/__/__/mesh/core/src/internal_event.c.obj
 .text          0x00000000        0x0 examples/beaconing/CMakeFiles/beaconing_nrf52840_xxAA_s140_6.0.0.dir/__/__/mesh/core/src/nrf_mesh_configure.c.obj
 .data          0x00000000        0x0 examples/beaconing/CMakeFiles/beaconing_nrf52840_xxAA_s140_6.0.0.dir/__/__/mesh/core/src/nrf_mesh_configure.c.obj
 .bss           0x00000000        0x0 examples/beaconing/CMakeFiles/beaconing_nrf52840_xxAA_s140_6.0.0.dir/__/__/mesh/core/src/nrf_mesh_configure.c.obj
 .text          0x00000000        0x0 examples/beaconing/CMakeFiles/beaconing_nrf52840_xxAA_s140_6.0.0.dir/__/__/mesh/core/src/aes.c.obj
 .data          0x00000000        0x0 examples/beaconing/CMakeFiles/beaconing_nrf52840_xxAA_s140_6.0.0.dir/__/__/mesh/core/src/aes.c.obj
 .bss           0x00000000        0x0 examples/beaconing/CMakeFiles/beaconing_nrf52840_xxAA_s140_6.0.0.dir/__/__/mesh/core/src/aes.c.obj
 .debug_info    0x00000000       0xb3 examples/beaconing/CMakeFiles/beaconing_nrf52840_xxAA_s140_6.0.0.dir/__/__/mesh/core/src/aes.c.obj
 .debug_abbrev  0x00000000       0x5c examples/beaconing/CMakeFiles/beaconing_nrf52840_xxAA_s140_6.0.0.dir/__/__/mesh/core/src/aes.c.obj
 .debug_aranges
                0x00000000       0x18 examples/beaconing/CMakeFiles/beaconing_nrf52840_xxAA_s140_6.0.0.dir/__/__/mesh/core/src/aes.c.obj
 .debug_line    0x00000000      0x127 examples/beaconing/CMakeFiles/beaconing_nrf52840_xxAA_s140_6.0.0.dir/__/__/mesh/core/src/aes.c.obj
 .debug_str     0x00000000      0x1f4 examples/beaconing/CMakeFiles/beaconing_nrf52840_xxAA_s140_6.0.0.dir/__/__/mesh/core/src/aes.c.obj
 .comment       0x00000000       0x80 examples/beaconing/CMakeFiles/beaconing_nrf52840_xxAA_s140_6.0.0.dir/__/__/mesh/core/src/aes.c.obj
 .ARM.attributes
                0x00000000       0x39 examples/beaconing/CMakeFiles/beaconing_nrf52840_xxAA_s140_6.0.0.dir/__/__/mesh/core/src/aes.c.obj
 .text          0x00000000        0x0 examples/beaconing/CMakeFiles/beaconing_nrf52840_xxAA_s140_6.0.0.dir/__/__/mesh/core/src/msg_cache.c.obj
 .data          0x00000000        0x0 examples/beaconing/CMakeFiles/beaconing_nrf52840_xxAA_s140_6.0.0.dir/__/__/mesh/core/src/msg_cache.c.obj
 .bss           0x00000000        0x0 examples/beaconing/CMakeFiles/beaconing_nrf52840_xxAA_s140_6.0.0.dir/__/__/mesh/core/src/msg_cache.c.obj
 .text.msg_cache_clear
                0x00000000       0x18 examples/beaconing/CMakeFiles/beaconing_nrf52840_xxAA_s140_6.0.0.dir/__/__/mesh/core/src/msg_cache.c.obj
 .text          0x00000000        0x0 examples/beaconing/CMakeFiles/beaconing_nrf52840_xxAA_s140_6.0.0.dir/__/__/mesh/core/src/transport.c.obj
 .data          0x00000000        0x0 examples/beaconing/CMakeFiles/beaconing_nrf52840_xxAA_s140_6.0.0.dir/__/__/mesh/core/src/transport.c.obj
 .bss           0x00000000        0x0 examples/beaconing/CMakeFiles/beaconing_nrf52840_xxAA_s140_6.0.0.dir/__/__/mesh/core/src/transport.c.obj
 .text.transport_sar_mem_funcs_set
                0x00000000       0x44 examples/beaconing/CMakeFiles/beaconing_nrf52840_xxAA_s140_6.0.0.dir/__/__/mesh/core/src/transport.c.obj
 .text          0x00000000        0x0 examples/beaconing/CMakeFiles/beaconing_nrf52840_xxAA_s140_6.0.0.dir/__/__/mesh/core/src/event.c.obj
 .data          0x00000000        0x0 examples/beaconing/CMakeFiles/beaconing_nrf52840_xxAA_s140_6.0.0.dir/__/__/mesh/core/src/event.c.obj
 .bss           0x00000000        0x0 examples/beaconing/CMakeFiles/beaconing_nrf52840_xxAA_s140_6.0.0.dir/__/__/mesh/core/src/event.c.obj
 .text          0x00000000        0x0 examples/beaconing/CMakeFiles/beaconing_nrf52840_xxAA_s140_6.0.0.dir/__/__/mesh/core/src/packet_buffer.c.obj
 .data          0x00000000        0x0 examples/beaconing/CMakeFiles/beaconing_nrf52840_xxAA_s140_6.0.0.dir/__/__/mesh/core/src/packet_buffer.c.obj
 .bss           0x00000000        0x0 examples/beaconing/CMakeFiles/beaconing_nrf52840_xxAA_s140_6.0.0.dir/__/__/mesh/core/src/packet_buffer.c.obj
 .text.packet_buffer_max_packet_len_get
                0x00000000       0x20 examples/beaconing/CMakeFiles/beaconing_nrf52840_xxAA_s140_6.0.0.dir/__/__/mesh/core/src/packet_buffer.c.obj
 .text          0x00000000        0x0 examples/beaconing/CMakeFiles/beaconing_nrf52840_xxAA_s140_6.0.0.dir/__/__/mesh/core/src/flash_manager_defrag.c.obj
 .data          0x00000000        0x0 examples/beaconing/CMakeFiles/beaconing_nrf52840_xxAA_s140_6.0.0.dir/__/__/mesh/core/src/flash_manager_defrag.c.obj
 .bss           0x00000000        0x0 examples/beaconing/CMakeFiles/beaconing_nrf52840_xxAA_s140_6.0.0.dir/__/__/mesh/core/src/flash_manager_defrag.c.obj
 .text.flash_manager_defragging
                0x00000000       0x38 examples/beaconing/CMakeFiles/beaconing_nrf52840_xxAA_s140_6.0.0.dir/__/__/mesh/core/src/flash_manager_defrag.c.obj
 .text          0x00000000        0x0 examples/beaconing/CMakeFiles/beaconing_nrf52840_xxAA_s140_6.0.0.dir/__/__/mesh/core/src/fifo.c.obj
 .data          0x00000000        0x0 examples/beaconing/CMakeFiles/beaconing_nrf52840_xxAA_s140_6.0.0.dir/__/__/mesh/core/src/fifo.c.obj
 .bss           0x00000000        0x0 examples/beaconing/CMakeFiles/beaconing_nrf52840_xxAA_s140_6.0.0.dir/__/__/mesh/core/src/fifo.c.obj
 .text.fifo_peek_at
                0x00000000       0x50 examples/beaconing/CMakeFiles/beaconing_nrf52840_xxAA_s140_6.0.0.dir/__/__/mesh/core/src/fifo.c.obj
 .text.fifo_peek
                0x00000000        0x6 examples/beaconing/CMakeFiles/beaconing_nrf52840_xxAA_s140_6.0.0.dir/__/__/mesh/core/src/fifo.c.obj
 .text.fifo_flush
                0x00000000        0x6 examples/beaconing/CMakeFiles/beaconing_nrf52840_xxAA_s140_6.0.0.dir/__/__/mesh/core/src/fifo.c.obj
 .text.fifo_get_len
                0x00000000        0x8 examples/beaconing/CMakeFiles/beaconing_nrf52840_xxAA_s140_6.0.0.dir/__/__/mesh/core/src/fifo.c.obj
 .text.fifo_is_full
                0x00000000       0x10 examples/beaconing/CMakeFiles/beaconing_nrf52840_xxAA_s140_6.0.0.dir/__/__/mesh/core/src/fifo.c.obj
 .text.fifo_is_empty
                0x00000000        0xc examples/beaconing/CMakeFiles/beaconing_nrf52840_xxAA_s140_6.0.0.dir/__/__/mesh/core/src/fifo.c.obj
 .text          0x00000000        0x0 examples/beaconing/CMakeFiles/beaconing_nrf52840_xxAA_s140_6.0.0.dir/__/__/mesh/core/src/nrf_flash.c.obj
 .data          0x00000000        0x0 examples/beaconing/CMakeFiles/beaconing_nrf52840_xxAA_s140_6.0.0.dir/__/__/mesh/core/src/nrf_flash.c.obj
 .bss           0x00000000        0x0 examples/beaconing/CMakeFiles/beaconing_nrf52840_xxAA_s140_6.0.0.dir/__/__/mesh/core/src/nrf_flash.c.obj
 .text          0x00000000        0x0 examples/beaconing/CMakeFiles/beaconing_nrf52840_xxAA_s140_6.0.0.dir/__/__/mesh/core/src/packet_mgr.c.obj
 .data          0x00000000        0x0 examples/beaconing/CMakeFiles/beaconing_nrf52840_xxAA_s140_6.0.0.dir/__/__/mesh/core/src/packet_mgr.c.obj
 .bss           0x00000000        0x0 examples/beaconing/CMakeFiles/beaconing_nrf52840_xxAA_s140_6.0.0.dir/__/__/mesh/core/src/packet_mgr.c.obj
 .text.packet_mgr_alloc
                0x00000000      0x17c examples/beaconing/CMakeFiles/beaconing_nrf52840_xxAA_s140_6.0.0.dir/__/__/mesh/core/src/packet_mgr.c.obj
 .text.packet_mgr_free
                0x00000000       0x58 examples/beaconing/CMakeFiles/beaconing_nrf52840_xxAA_s140_6.0.0.dir/__/__/mesh/core/src/packet_mgr.c.obj
 .text.packet_mgr_get_free_space
                0x00000000       0x1c examples/beaconing/CMakeFiles/beaconing_nrf52840_xxAA_s140_6.0.0.dir/__/__/mesh/core/src/packet_mgr.c.obj
 .text.packet_mgr_refcount_get
                0x00000000        0x6 examples/beaconing/CMakeFiles/beaconing_nrf52840_xxAA_s140_6.0.0.dir/__/__/mesh/core/src/packet_mgr.c.obj
 .text.packet_mgr_size_get
                0x00000000        0x6 examples/beaconing/CMakeFiles/beaconing_nrf52840_xxAA_s140_6.0.0.dir/__/__/mesh/core/src/packet_mgr.c.obj
 .text          0x00000000        0x0 examples/beaconing/CMakeFiles/beaconing_nrf52840_xxAA_s140_6.0.0.dir/__/__/mesh/core/src/net_state.c.obj
 .data          0x00000000        0x0 examples/beaconing/CMakeFiles/beaconing_nrf52840_xxAA_s140_6.0.0.dir/__/__/mesh/core/src/net_state.c.obj
 .bss           0x00000000        0x0 examples/beaconing/CMakeFiles/beaconing_nrf52840_xxAA_s140_6.0.0.dir/__/__/mesh/core/src/net_state.c.obj
 .text.net_state_iv_update_test_mode_set
                0x00000000        0xc examples/beaconing/CMakeFiles/beaconing_nrf52840_xxAA_s140_6.0.0.dir/__/__/mesh/core/src/net_state.c.obj
 .text.net_state_test_mode_transition_run
                0x00000000       0x2c examples/beaconing/CMakeFiles/beaconing_nrf52840_xxAA_s140_6.0.0.dir/__/__/mesh/core/src/net_state.c.obj
 .text          0x00000000        0x0 examples/beaconing/CMakeFiles/beaconing_nrf52840_xxAA_s140_6.0.0.dir/__/__/mesh/core/src/mesh_flash.c.obj
 .data          0x00000000        0x0 examples/beaconing/CMakeFiles/beaconing_nrf52840_xxAA_s140_6.0.0.dir/__/__/mesh/core/src/mesh_flash.c.obj
 .bss           0x00000000        0x0 examples/beaconing/CMakeFiles/beaconing_nrf52840_xxAA_s140_6.0.0.dir/__/__/mesh/core/src/mesh_flash.c.obj
 .text.mesh_flash_op_available_slots
                0x00000000       0x2c examples/beaconing/CMakeFiles/beaconing_nrf52840_xxAA_s140_6.0.0.dir/__/__/mesh/core/src/mesh_flash.c.obj
 .text.mesh_flash_in_progress
                0x00000000       0x34 examples/beaconing/CMakeFiles/beaconing_nrf52840_xxAA_s140_6.0.0.dir/__/__/mesh/core/src/mesh_flash.c.obj
 .text.mesh_flash_set_suspended
                0x00000000       0x74 examples/beaconing/CMakeFiles/beaconing_nrf52840_xxAA_s140_6.0.0.dir/__/__/mesh/core/src/mesh_flash.c.obj
 .bss.suspend_count.10421
                0x00000000        0x4 examples/beaconing/CMakeFiles/beaconing_nrf52840_xxAA_s140_6.0.0.dir/__/__/mesh/core/src/mesh_flash.c.obj
 .text          0x00000000        0x0 examples/beaconing/CMakeFiles/beaconing_nrf52840_xxAA_s140_6.0.0.dir/__/__/mesh/core/src/nrf_mesh_utils.c.obj
 .data          0x00000000        0x0 examples/beaconing/CMakeFiles/beaconing_nrf52840_xxAA_s140_6.0.0.dir/__/__/mesh/core/src/nrf_mesh_utils.c.obj
 .bss           0x00000000        0x0 examples/beaconing/CMakeFiles/beaconing_nrf52840_xxAA_s140_6.0.0.dir/__/__/mesh/core/src/nrf_mesh_utils.c.obj
 .text.nrf_mesh_rand_get
                0x00000000       0x10 examples/beaconing/CMakeFiles/beaconing_nrf52840_xxAA_s140_6.0.0.dir/__/__/mesh/core/src/nrf_mesh_utils.c.obj
 .text.nrf_mesh_gap_address_type_get
                0x00000000       0x30 examples/beaconing/CMakeFiles/beaconing_nrf52840_xxAA_s140_6.0.0.dir/__/__/mesh/core/src/nrf_mesh_utils.c.obj
 .text          0x00000000        0x0 examples/beaconing/CMakeFiles/beaconing_nrf52840_xxAA_s140_6.0.0.dir/__/__/mesh/core/src/nrf_mesh.c.obj
 .data          0x00000000        0x0 examples/beaconing/CMakeFiles/beaconing_nrf52840_xxAA_s140_6.0.0.dir/__/__/mesh/core/src/nrf_mesh.c.obj
 .bss           0x00000000        0x0 examples/beaconing/CMakeFiles/beaconing_nrf52840_xxAA_s140_6.0.0.dir/__/__/mesh/core/src/nrf_mesh.c.obj
 .text.nrf_mesh_disable
                0x00000000       0x28 examples/beaconing/CMakeFiles/beaconing_nrf52840_xxAA_s140_6.0.0.dir/__/__/mesh/core/src/nrf_mesh.c.obj
 .text.nrf_mesh_process
                0x00000000        0x4 examples/beaconing/CMakeFiles/beaconing_nrf52840_xxAA_s140_6.0.0.dir/__/__/mesh/core/src/nrf_mesh.c.obj
 .text.nrf_mesh_evt_handler_remove
                0x00000000        0x4 examples/beaconing/CMakeFiles/beaconing_nrf52840_xxAA_s140_6.0.0.dir/__/__/mesh/core/src/nrf_mesh.c.obj
 .text.nrf_mesh_rx_cb_clear
                0x00000000        0xc examples/beaconing/CMakeFiles/beaconing_nrf52840_xxAA_s140_6.0.0.dir/__/__/mesh/core/src/nrf_mesh.c.obj
 .text          0x00000000        0x0 examples/beaconing/CMakeFiles/beaconing_nrf52840_xxAA_s140_6.0.0.dir/__/__/mesh/core/src/queue.c.obj
 .data          0x00000000        0x0 examples/beaconing/CMakeFiles/beaconing_nrf52840_xxAA_s140_6.0.0.dir/__/__/mesh/core/src/queue.c.obj
 .bss           0x00000000        0x0 examples/beaconing/CMakeFiles/beaconing_nrf52840_xxAA_s140_6.0.0.dir/__/__/mesh/core/src/queue.c.obj
 .text          0x00000000        0x0 examples/beaconing/CMakeFiles/beaconing_nrf52840_xxAA_s140_6.0.0.dir/__/__/mesh/core/src/hal.c.obj
 .data          0x00000000        0x0 examples/beaconing/CMakeFiles/beaconing_nrf52840_xxAA_s140_6.0.0.dir/__/__/mesh/core/src/hal.c.obj
 .bss           0x00000000        0x0 examples/beaconing/CMakeFiles/beaconing_nrf52840_xxAA_s140_6.0.0.dir/__/__/mesh/core/src/hal.c.obj
 .text          0x00000000        0x0 examples/beaconing/CMakeFiles/beaconing_nrf52840_xxAA_s140_6.0.0.dir/__/__/mesh/core/src/aes_cmac.c.obj
 .data          0x00000000        0x0 examples/beaconing/CMakeFiles/beaconing_nrf52840_xxAA_s140_6.0.0.dir/__/__/mesh/core/src/aes_cmac.c.obj
 .bss           0x00000000        0x0 examples/beaconing/CMakeFiles/beaconing_nrf52840_xxAA_s140_6.0.0.dir/__/__/mesh/core/src/aes_cmac.c.obj
 .text          0x00000000        0x0 examples/beaconing/CMakeFiles/beaconing_nrf52840_xxAA_s140_6.0.0.dir/__/__/mesh/core/src/timer_scheduler.c.obj
 .data          0x00000000        0x0 examples/beaconing/CMakeFiles/beaconing_nrf52840_xxAA_s140_6.0.0.dir/__/__/mesh/core/src/timer_scheduler.c.obj
 .bss           0x00000000        0x0 examples/beaconing/CMakeFiles/beaconing_nrf52840_xxAA_s140_6.0.0.dir/__/__/mesh/core/src/timer_scheduler.c.obj
 .text          0x00000000        0x0 examples/beaconing/CMakeFiles/beaconing_nrf52840_xxAA_s140_6.0.0.dir/__/__/mesh/core/src/timer.c.obj
 .data          0x00000000        0x0 examples/beaconing/CMakeFiles/beaconing_nrf52840_xxAA_s140_6.0.0.dir/__/__/mesh/core/src/timer.c.obj
 .bss           0x00000000        0x0 examples/beaconing/CMakeFiles/beaconing_nrf52840_xxAA_s140_6.0.0.dir/__/__/mesh/core/src/timer.c.obj
 .text.timer_order_cb_ppi
                0x00000000       0xc4 examples/beaconing/CMakeFiles/beaconing_nrf52840_xxAA_s140_6.0.0.dir/__/__/mesh/core/src/timer.c.obj
 .text.timer_order_ppi
                0x00000000       0xc0 examples/beaconing/CMakeFiles/beaconing_nrf52840_xxAA_s140_6.0.0.dir/__/__/mesh/core/src/timer.c.obj
 .text.timer_abort
                0x00000000       0x78 examples/beaconing/CMakeFiles/beaconing_nrf52840_xxAA_s140_6.0.0.dir/__/__/mesh/core/src/timer.c.obj
 .text          0x00000000        0x0 examples/beaconing/CMakeFiles/beaconing_nrf52840_xxAA_s140_6.0.0.dir/__/__/mesh/core/src/ticker.c.obj
 .data          0x00000000        0x0 examples/beaconing/CMakeFiles/beaconing_nrf52840_xxAA_s140_6.0.0.dir/__/__/mesh/core/src/ticker.c.obj
 .bss           0x00000000        0x0 examples/beaconing/CMakeFiles/beaconing_nrf52840_xxAA_s140_6.0.0.dir/__/__/mesh/core/src/ticker.c.obj
 .text.ticker_get
                0x00000000        0xc examples/beaconing/CMakeFiles/beaconing_nrf52840_xxAA_s140_6.0.0.dir/__/__/mesh/core/src/ticker.c.obj
 .text          0x00000000        0x0 examples/beaconing/CMakeFiles/beaconing_nrf52840_xxAA_s140_6.0.0.dir/__/__/mesh/core/src/rand.c.obj
 .data          0x00000000        0x0 examples/beaconing/CMakeFiles/beaconing_nrf52840_xxAA_s140_6.0.0.dir/__/__/mesh/core/src/rand.c.obj
 .bss           0x00000000        0x0 examples/beaconing/CMakeFiles/beaconing_nrf52840_xxAA_s140_6.0.0.dir/__/__/mesh/core/src/rand.c.obj
 .text          0x00000000        0x0 examples/beaconing/CMakeFiles/beaconing_nrf52840_xxAA_s140_6.0.0.dir/__/__/mesh/core/src/nrf_mesh_opt.c.obj
 .data          0x00000000        0x0 examples/beaconing/CMakeFiles/beaconing_nrf52840_xxAA_s140_6.0.0.dir/__/__/mesh/core/src/nrf_mesh_opt.c.obj
 .bss           0x00000000        0x0 examples/beaconing/CMakeFiles/beaconing_nrf52840_xxAA_s140_6.0.0.dir/__/__/mesh/core/src/nrf_mesh_opt.c.obj
 .text          0x00000000        0x0 examples/beaconing/CMakeFiles/beaconing_nrf52840_xxAA_s140_6.0.0.dir/__/__/mesh/core/src/timeslot.c.obj
 .data          0x00000000        0x0 examples/beaconing/CMakeFiles/beaconing_nrf52840_xxAA_s140_6.0.0.dir/__/__/mesh/core/src/timeslot.c.obj
 .bss           0x00000000        0x0 examples/beaconing/CMakeFiles/beaconing_nrf52840_xxAA_s140_6.0.0.dir/__/__/mesh/core/src/timeslot.c.obj
 .text.timeslot_end_time_get
                0x00000000       0x10 examples/beaconing/CMakeFiles/beaconing_nrf52840_xxAA_s140_6.0.0.dir/__/__/mesh/core/src/timeslot.c.obj
 .text.timeslot_is_in_ts
                0x00000000        0xc examples/beaconing/CMakeFiles/beaconing_nrf52840_xxAA_s140_6.0.0.dir/__/__/mesh/core/src/timeslot.c.obj
 .text.timeslot_restart
                0x00000000       0x10 examples/beaconing/CMakeFiles/beaconing_nrf52840_xxAA_s140_6.0.0.dir/__/__/mesh/core/src/timeslot.c.obj
 .text          0x00000000        0x0 examples/beaconing/CMakeFiles/beaconing_nrf52840_xxAA_s140_6.0.0.dir/__/__/mesh/core/src/bearer_event.c.obj
 .data          0x00000000        0x0 examples/beaconing/CMakeFiles/beaconing_nrf52840_xxAA_s140_6.0.0.dir/__/__/mesh/core/src/bearer_event.c.obj
 .bss           0x00000000        0x0 examples/beaconing/CMakeFiles/beaconing_nrf52840_xxAA_s140_6.0.0.dir/__/__/mesh/core/src/bearer_event.c.obj
 .text.bearer_event_generic_post
                0x00000000       0x24 examples/beaconing/CMakeFiles/beaconing_nrf52840_xxAA_s140_6.0.0.dir/__/__/mesh/core/src/bearer_event.c.obj
 .text.bearer_event_timer_sch_post
                0x00000000       0x26 examples/beaconing/CMakeFiles/beaconing_nrf52840_xxAA_s140_6.0.0.dir/__/__/mesh/core/src/bearer_event.c.obj
 .text.bearer_event_in_correct_irq_priority
                0x00000000       0x48 examples/beaconing/CMakeFiles/beaconing_nrf52840_xxAA_s140_6.0.0.dir/__/__/mesh/core/src/bearer_event.c.obj
 .text          0x00000000        0x0 examples/beaconing/CMakeFiles/beaconing_nrf52840_xxAA_s140_6.0.0.dir/__/__/mesh/core/src/enc.c.obj
 .data          0x00000000        0x0 examples/beaconing/CMakeFiles/beaconing_nrf52840_xxAA_s140_6.0.0.dir/__/__/mesh/core/src/enc.c.obj
 .bss           0x00000000        0x0 examples/beaconing/CMakeFiles/beaconing_nrf52840_xxAA_s140_6.0.0.dir/__/__/mesh/core/src/enc.c.obj
 .text.enc_key_generate
                0x00000000        0x6 examples/beaconing/CMakeFiles/beaconing_nrf52840_xxAA_s140_6.0.0.dir/__/__/mesh/core/src/enc.c.obj
 .text          0x00000000        0x0 examples/beaconing/CMakeFiles/beaconing_nrf52840_xxAA_s140_6.0.0.dir/__/__/mesh/core/src/network.c.obj
 .data          0x00000000        0x0 examples/beaconing/CMakeFiles/beaconing_nrf52840_xxAA_s140_6.0.0.dir/__/__/mesh/core/src/network.c.obj
 .bss           0x00000000        0x0 examples/beaconing/CMakeFiles/beaconing_nrf52840_xxAA_s140_6.0.0.dir/__/__/mesh/core/src/network.c.obj
 .text.network_packet_discard
                0x00000000       0x1e examples/beaconing/CMakeFiles/beaconing_nrf52840_xxAA_s140_6.0.0.dir/__/__/mesh/core/src/network.c.obj
 .text          0x00000000        0x0 examples/beaconing/CMakeFiles/beaconing_nrf52840_xxAA_s140_6.0.0.dir/__/__/mesh/core/src/net_packet.c.obj
 .data          0x00000000        0x0 examples/beaconing/CMakeFiles/beaconing_nrf52840_xxAA_s140_6.0.0.dir/__/__/mesh/core/src/net_packet.c.obj
 .bss           0x00000000        0x0 examples/beaconing/CMakeFiles/beaconing_nrf52840_xxAA_s140_6.0.0.dir/__/__/mesh/core/src/net_packet.c.obj
 .text.net_packet_enc_start_get
                0x00000000        0x4 examples/beaconing/CMakeFiles/beaconing_nrf52840_xxAA_s140_6.0.0.dir/__/__/mesh/core/src/net_packet.c.obj
 .text.net_packet_payload_get
                0x00000000        0x4 examples/beaconing/CMakeFiles/beaconing_nrf52840_xxAA_s140_6.0.0.dir/__/__/mesh/core/src/net_packet.c.obj
 .text          0x00000000        0x0 examples/beaconing/CMakeFiles/beaconing_nrf52840_xxAA_s140_6.0.0.dir/__/__/mesh/core/src/msqueue.c.obj
 .data          0x00000000        0x0 examples/beaconing/CMakeFiles/beaconing_nrf52840_xxAA_s140_6.0.0.dir/__/__/mesh/core/src/msqueue.c.obj
 .bss           0x00000000        0x0 examples/beaconing/CMakeFiles/beaconing_nrf52840_xxAA_s140_6.0.0.dir/__/__/mesh/core/src/msqueue.c.obj
 .text          0x00000000        0x0 examples/beaconing/CMakeFiles/beaconing_nrf52840_xxAA_s140_6.0.0.dir/__/__/mesh/core/src/nrf_mesh_keygen.c.obj
 .data          0x00000000        0x0 examples/beaconing/CMakeFiles/beaconing_nrf52840_xxAA_s140_6.0.0.dir/__/__/mesh/core/src/nrf_mesh_keygen.c.obj
 .bss           0x00000000        0x0 examples/beaconing/CMakeFiles/beaconing_nrf52840_xxAA_s140_6.0.0.dir/__/__/mesh/core/src/nrf_mesh_keygen.c.obj
 .text.nrf_mesh_keygen_identitykey
                0x00000000       0x4c examples/beaconing/CMakeFiles/beaconing_nrf52840_xxAA_s140_6.0.0.dir/__/__/mesh/core/src/nrf_mesh_keygen.c.obj
 .text          0x00000000        0x0 examples/beaconing/CMakeFiles/beaconing_nrf52840_xxAA_s140_6.0.0.dir/__/__/mesh/core/src/cache.c.obj
 .data          0x00000000        0x0 examples/beaconing/CMakeFiles/beaconing_nrf52840_xxAA_s140_6.0.0.dir/__/__/mesh/core/src/cache.c.obj
 .bss           0x00000000        0x0 examples/beaconing/CMakeFiles/beaconing_nrf52840_xxAA_s140_6.0.0.dir/__/__/mesh/core/src/cache.c.obj
 .text.erase_at
                0x00000000       0x1c examples/beaconing/CMakeFiles/beaconing_nrf52840_xxAA_s140_6.0.0.dir/__/__/mesh/core/src/cache.c.obj
 .text.cache_init
                0x00000000       0x1e examples/beaconing/CMakeFiles/beaconing_nrf52840_xxAA_s140_6.0.0.dir/__/__/mesh/core/src/cache.c.obj
 .text.cache_has_elem
                0x00000000       0x3e examples/beaconing/CMakeFiles/beaconing_nrf52840_xxAA_s140_6.0.0.dir/__/__/mesh/core/src/cache.c.obj
 .text.cache_put
                0x00000000       0x2a examples/beaconing/CMakeFiles/beaconing_nrf52840_xxAA_s140_6.0.0.dir/__/__/mesh/core/src/cache.c.obj
 .text.cache_erase_elem
                0x00000000       0x4c examples/beaconing/CMakeFiles/beaconing_nrf52840_xxAA_s140_6.0.0.dir/__/__/mesh/core/src/cache.c.obj
 .debug_info    0x00000000      0xbe1 examples/beaconing/CMakeFiles/beaconing_nrf52840_xxAA_s140_6.0.0.dir/__/__/mesh/core/src/cache.c.obj
 .debug_abbrev  0x00000000      0x2a3 examples/beaconing/CMakeFiles/beaconing_nrf52840_xxAA_s140_6.0.0.dir/__/__/mesh/core/src/cache.c.obj
 .debug_loc     0x00000000      0x29b examples/beaconing/CMakeFiles/beaconing_nrf52840_xxAA_s140_6.0.0.dir/__/__/mesh/core/src/cache.c.obj
 .debug_aranges
                0x00000000       0x40 examples/beaconing/CMakeFiles/beaconing_nrf52840_xxAA_s140_6.0.0.dir/__/__/mesh/core/src/cache.c.obj
 .debug_ranges  0x00000000       0x80 examples/beaconing/CMakeFiles/beaconing_nrf52840_xxAA_s140_6.0.0.dir/__/__/mesh/core/src/cache.c.obj
 .debug_line    0x00000000      0x21e examples/beaconing/CMakeFiles/beaconing_nrf52840_xxAA_s140_6.0.0.dir/__/__/mesh/core/src/cache.c.obj
 .debug_str     0x00000000      0x6af examples/beaconing/CMakeFiles/beaconing_nrf52840_xxAA_s140_6.0.0.dir/__/__/mesh/core/src/cache.c.obj
 .comment       0x00000000       0x80 examples/beaconing/CMakeFiles/beaconing_nrf52840_xxAA_s140_6.0.0.dir/__/__/mesh/core/src/cache.c.obj
 .debug_frame   0x00000000       0xb0 examples/beaconing/CMakeFiles/beaconing_nrf52840_xxAA_s140_6.0.0.dir/__/__/mesh/core/src/cache.c.obj
 .ARM.attributes
                0x00000000       0x39 examples/beaconing/CMakeFiles/beaconing_nrf52840_xxAA_s140_6.0.0.dir/__/__/mesh/core/src/cache.c.obj
 .text          0x00000000        0x0 examples/beaconing/CMakeFiles/beaconing_nrf52840_xxAA_s140_6.0.0.dir/__/__/mesh/core/src/list.c.obj
 .data          0x00000000        0x0 examples/beaconing/CMakeFiles/beaconing_nrf52840_xxAA_s140_6.0.0.dir/__/__/mesh/core/src/list.c.obj
 .bss           0x00000000        0x0 examples/beaconing/CMakeFiles/beaconing_nrf52840_xxAA_s140_6.0.0.dir/__/__/mesh/core/src/list.c.obj
 .text.list_size_get
                0x00000000       0x12 examples/beaconing/CMakeFiles/beaconing_nrf52840_xxAA_s140_6.0.0.dir/__/__/mesh/core/src/list.c.obj
 .text.list_sorted_add
                0x00000000       0x6c examples/beaconing/CMakeFiles/beaconing_nrf52840_xxAA_s140_6.0.0.dir/__/__/mesh/core/src/list.c.obj
 .text          0x00000000        0x0 examples/beaconing/CMakeFiles/beaconing_nrf52840_xxAA_s140_6.0.0.dir/__/__/mesh/core/src/log.c.obj
 .data          0x00000000        0x0 examples/beaconing/CMakeFiles/beaconing_nrf52840_xxAA_s140_6.0.0.dir/__/__/mesh/core/src/log.c.obj
 .bss           0x00000000        0x0 examples/beaconing/CMakeFiles/beaconing_nrf52840_xxAA_s140_6.0.0.dir/__/__/mesh/core/src/log.c.obj
 .text.log_callback_logview
                0x00000000       0x38 examples/beaconing/CMakeFiles/beaconing_nrf52840_xxAA_s140_6.0.0.dir/__/__/mesh/core/src/log.c.obj
 .text.log_set_callback
                0x00000000        0xc examples/beaconing/CMakeFiles/beaconing_nrf52840_xxAA_s140_6.0.0.dir/__/__/mesh/core/src/log.c.obj
 .rodata.log_callback_logview.str1.1
                0x00000000        0xf examples/beaconing/CMakeFiles/beaconing_nrf52840_xxAA_s140_6.0.0.dir/__/__/mesh/core/src/log.c.obj
 .text          0x00000000        0x0 examples/beaconing/CMakeFiles/beaconing_nrf52840_xxAA_s140_6.0.0.dir/__/__/mesh/core/src/flash_manager.c.obj
 .data          0x00000000        0x0 examples/beaconing/CMakeFiles/beaconing_nrf52840_xxAA_s140_6.0.0.dir/__/__/mesh/core/src/flash_manager.c.obj
 .bss           0x00000000        0x0 examples/beaconing/CMakeFiles/beaconing_nrf52840_xxAA_s140_6.0.0.dir/__/__/mesh/core/src/flash_manager.c.obj
 .text.flash_manager_entry_count_get
                0x00000000       0x50 examples/beaconing/CMakeFiles/beaconing_nrf52840_xxAA_s140_6.0.0.dir/__/__/mesh/core/src/flash_manager.c.obj
 .text.flash_manager_entry_release
                0x00000000       0x2c examples/beaconing/CMakeFiles/beaconing_nrf52840_xxAA_s140_6.0.0.dir/__/__/mesh/core/src/flash_manager.c.obj
 .text          0x00000000        0x0 examples/beaconing/CMakeFiles/beaconing_nrf52840_xxAA_s140_6.0.0.dir/__/__/mesh/core/src/ccm_soft.c.obj
 .data          0x00000000        0x0 examples/beaconing/CMakeFiles/beaconing_nrf52840_xxAA_s140_6.0.0.dir/__/__/mesh/core/src/ccm_soft.c.obj
 .bss           0x00000000        0x0 examples/beaconing/CMakeFiles/beaconing_nrf52840_xxAA_s140_6.0.0.dir/__/__/mesh/core/src/ccm_soft.c.obj
 .text          0x00000000        0x0 examples/beaconing/CMakeFiles/beaconing_nrf52840_xxAA_s140_6.0.0.dir/__/__/mesh/core/src/toolchain.c.obj
 .data          0x00000000        0x0 examples/beaconing/CMakeFiles/beaconing_nrf52840_xxAA_s140_6.0.0.dir/__/__/mesh/core/src/toolchain.c.obj
 .bss           0x00000000        0x0 examples/beaconing/CMakeFiles/beaconing_nrf52840_xxAA_s140_6.0.0.dir/__/__/mesh/core/src/toolchain.c.obj
 .debug_info    0x00000000       0xb3 examples/beaconing/CMakeFiles/beaconing_nrf52840_xxAA_s140_6.0.0.dir/__/__/mesh/core/src/toolchain.c.obj
 .debug_abbrev  0x00000000       0x5c examples/beaconing/CMakeFiles/beaconing_nrf52840_xxAA_s140_6.0.0.dir/__/__/mesh/core/src/toolchain.c.obj
 .debug_aranges
                0x00000000       0x18 examples/beaconing/CMakeFiles/beaconing_nrf52840_xxAA_s140_6.0.0.dir/__/__/mesh/core/src/toolchain.c.obj
 .debug_line    0x00000000      0x127 examples/beaconing/CMakeFiles/beaconing_nrf52840_xxAA_s140_6.0.0.dir/__/__/mesh/core/src/toolchain.c.obj
 .debug_str     0x00000000      0x1fa examples/beaconing/CMakeFiles/beaconing_nrf52840_xxAA_s140_6.0.0.dir/__/__/mesh/core/src/toolchain.c.obj
 .comment       0x00000000       0x80 examples/beaconing/CMakeFiles/beaconing_nrf52840_xxAA_s140_6.0.0.dir/__/__/mesh/core/src/toolchain.c.obj
 .ARM.attributes
                0x00000000       0x39 examples/beaconing/CMakeFiles/beaconing_nrf52840_xxAA_s140_6.0.0.dir/__/__/mesh/core/src/toolchain.c.obj
 .text          0x00000000        0x0 examples/beaconing/CMakeFiles/beaconing_nrf52840_xxAA_s140_6.0.0.dir/__/__/mesh/core/src/replay_cache.c.obj
 .data          0x00000000        0x0 examples/beaconing/CMakeFiles/beaconing_nrf52840_xxAA_s140_6.0.0.dir/__/__/mesh/core/src/replay_cache.c.obj
 .bss           0x00000000        0x0 examples/beaconing/CMakeFiles/beaconing_nrf52840_xxAA_s140_6.0.0.dir/__/__/mesh/core/src/replay_cache.c.obj
 .text.replay_cache_on_iv_update
                0x00000000       0x24 examples/beaconing/CMakeFiles/beaconing_nrf52840_xxAA_s140_6.0.0.dir/__/__/mesh/core/src/replay_cache.c.obj
 .text          0x00000000        0x0 examples/beaconing/CMakeFiles/beaconing_nrf52840_xxAA_s140_6.0.0.dir/__/__/mesh/core/src/beacon.c.obj
 .data          0x00000000        0x0 examples/beaconing/CMakeFiles/beaconing_nrf52840_xxAA_s140_6.0.0.dir/__/__/mesh/core/src/beacon.c.obj
 .bss           0x00000000        0x0 examples/beaconing/CMakeFiles/beaconing_nrf52840_xxAA_s140_6.0.0.dir/__/__/mesh/core/src/beacon.c.obj
 .text          0x00000000        0x0 examples/beaconing/CMakeFiles/beaconing_nrf52840_xxAA_s140_6.0.0.dir/__/__/mesh/core/src/flash_manager_internal.c.obj
 .data          0x00000000        0x0 examples/beaconing/CMakeFiles/beaconing_nrf52840_xxAA_s140_6.0.0.dir/__/__/mesh/core/src/flash_manager_internal.c.obj
 .bss           0x00000000        0x0 examples/beaconing/CMakeFiles/beaconing_nrf52840_xxAA_s140_6.0.0.dir/__/__/mesh/core/src/flash_manager_internal.c.obj
 .text          0x00000000        0x0 examples/beaconing/CMakeFiles/beaconing_nrf52840_xxAA_s140_6.0.0.dir/__/__/mesh/core/src/core_tx.c.obj
 .data          0x00000000        0x0 examples/beaconing/CMakeFiles/beaconing_nrf52840_xxAA_s140_6.0.0.dir/__/__/mesh/core/src/core_tx.c.obj
 .bss           0x00000000        0x0 examples/beaconing/CMakeFiles/beaconing_nrf52840_xxAA_s140_6.0.0.dir/__/__/mesh/core/src/core_tx.c.obj
 .text.core_tx_bearer_type_get
                0x00000000       0x1c examples/beaconing/CMakeFiles/beaconing_nrf52840_xxAA_s140_6.0.0.dir/__/__/mesh/core/src/core_tx.c.obj
 .text.core_tx_bearer_count_get
                0x00000000        0xc examples/beaconing/CMakeFiles/beaconing_nrf52840_xxAA_s140_6.0.0.dir/__/__/mesh/core/src/core_tx.c.obj
 .text          0x00000000        0x0 examples/beaconing/CMakeFiles/beaconing_nrf52840_xxAA_s140_6.0.0.dir/__/__/mesh/core/src/heartbeat.c.obj
 .data          0x00000000        0x0 examples/beaconing/CMakeFiles/beaconing_nrf52840_xxAA_s140_6.0.0.dir/__/__/mesh/core/src/heartbeat.c.obj
 .bss           0x00000000        0x0 examples/beaconing/CMakeFiles/beaconing_nrf52840_xxAA_s140_6.0.0.dir/__/__/mesh/core/src/heartbeat.c.obj
 .text          0x00000000        0x0 examples/beaconing/CMakeFiles/beaconing_nrf52840_xxAA_s140_6.0.0.dir/__/__/mesh/core/src/net_beacon.c.obj
 .data          0x00000000        0x0 examples/beaconing/CMakeFiles/beaconing_nrf52840_xxAA_s140_6.0.0.dir/__/__/mesh/core/src/net_beacon.c.obj
 .bss           0x00000000        0x0 examples/beaconing/CMakeFiles/beaconing_nrf52840_xxAA_s140_6.0.0.dir/__/__/mesh/core/src/net_beacon.c.obj
 .text.net_beacon_build
                0x00000000       0x24 examples/beaconing/CMakeFiles/beaconing_nrf52840_xxAA_s140_6.0.0.dir/__/__/mesh/core/src/net_beacon.c.obj
 .text          0x00000000        0x0 examples/beaconing/CMakeFiles/beaconing_nrf52840_xxAA_s140_6.0.0.dir/__/__/mesh/core/src/fsm.c.obj
 .data          0x00000000        0x0 examples/beaconing/CMakeFiles/beaconing_nrf52840_xxAA_s140_6.0.0.dir/__/__/mesh/core/src/fsm.c.obj
 .bss           0x00000000        0x0 examples/beaconing/CMakeFiles/beaconing_nrf52840_xxAA_s140_6.0.0.dir/__/__/mesh/core/src/fsm.c.obj
 .text.fsm_event_post_try
                0x00000000      0x1ec examples/beaconing/CMakeFiles/beaconing_nrf52840_xxAA_s140_6.0.0.dir/__/__/mesh/core/src/fsm.c.obj
 .text.fsm_init
                0x00000000       0xcc examples/beaconing/CMakeFiles/beaconing_nrf52840_xxAA_s140_6.0.0.dir/__/__/mesh/core/src/fsm.c.obj
 .text.fsm_event_post
                0x00000000       0xac examples/beaconing/CMakeFiles/beaconing_nrf52840_xxAA_s140_6.0.0.dir/__/__/mesh/core/src/fsm.c.obj
 .text.fsm_is_processing
                0x00000000        0xa examples/beaconing/CMakeFiles/beaconing_nrf52840_xxAA_s140_6.0.0.dir/__/__/mesh/core/src/fsm.c.obj
 .rodata.fsm_event_post.str1.1
                0x00000000        0xb examples/beaconing/CMakeFiles/beaconing_nrf52840_xxAA_s140_6.0.0.dir/__/__/mesh/core/src/fsm.c.obj
 .rodata.fsm_event_post_try.str1.1
                0x00000000       0x41 examples/beaconing/CMakeFiles/beaconing_nrf52840_xxAA_s140_6.0.0.dir/__/__/mesh/core/src/fsm.c.obj
 .rodata.fsm_init.str1.1
                0x00000000        0xa examples/beaconing/CMakeFiles/beaconing_nrf52840_xxAA_s140_6.0.0.dir/__/__/mesh/core/src/fsm.c.obj
 .debug_info    0x00000000     0x132d examples/beaconing/CMakeFiles/beaconing_nrf52840_xxAA_s140_6.0.0.dir/__/__/mesh/core/src/fsm.c.obj
 .debug_abbrev  0x00000000      0x345 examples/beaconing/CMakeFiles/beaconing_nrf52840_xxAA_s140_6.0.0.dir/__/__/mesh/core/src/fsm.c.obj
 .debug_loc     0x00000000      0x3fd examples/beaconing/CMakeFiles/beaconing_nrf52840_xxAA_s140_6.0.0.dir/__/__/mesh/core/src/fsm.c.obj
 .debug_aranges
                0x00000000       0x38 examples/beaconing/CMakeFiles/beaconing_nrf52840_xxAA_s140_6.0.0.dir/__/__/mesh/core/src/fsm.c.obj
 .debug_ranges  0x00000000       0xe0 examples/beaconing/CMakeFiles/beaconing_nrf52840_xxAA_s140_6.0.0.dir/__/__/mesh/core/src/fsm.c.obj
 .debug_line    0x00000000      0x3dc examples/beaconing/CMakeFiles/beaconing_nrf52840_xxAA_s140_6.0.0.dir/__/__/mesh/core/src/fsm.c.obj
 .debug_str     0x00000000      0x984 examples/beaconing/CMakeFiles/beaconing_nrf52840_xxAA_s140_6.0.0.dir/__/__/mesh/core/src/fsm.c.obj
 .comment       0x00000000       0x80 examples/beaconing/CMakeFiles/beaconing_nrf52840_xxAA_s140_6.0.0.dir/__/__/mesh/core/src/fsm.c.obj
 .debug_frame   0x00000000       0x9c examples/beaconing/CMakeFiles/beaconing_nrf52840_xxAA_s140_6.0.0.dir/__/__/mesh/core/src/fsm.c.obj
 .ARM.attributes
                0x00000000       0x39 examples/beaconing/CMakeFiles/beaconing_nrf52840_xxAA_s140_6.0.0.dir/__/__/mesh/core/src/fsm.c.obj
 .text          0x00000000        0x0 examples/beaconing/CMakeFiles/beaconing_nrf52840_xxAA_s140_6.0.0.dir/__/__/mesh/core/src/core_tx_adv.c.obj
 .data          0x00000000        0x0 examples/beaconing/CMakeFiles/beaconing_nrf52840_xxAA_s140_6.0.0.dir/__/__/mesh/core/src/core_tx_adv.c.obj
 .bss           0x00000000        0x0 examples/beaconing/CMakeFiles/beaconing_nrf52840_xxAA_s140_6.0.0.dir/__/__/mesh/core/src/core_tx_adv.c.obj
 .text.core_tx_adv_address_set
                0x00000000       0x28 examples/beaconing/CMakeFiles/beaconing_nrf52840_xxAA_s140_6.0.0.dir/__/__/mesh/core/src/core_tx_adv.c.obj
 .text          0x00000000        0x0 examples/beaconing/CMakeFiles/beaconing_nrf52840_xxAA_s140_6.0.0.dir/__/__/mesh/bearer/src/ad_listener.c.obj
 .data          0x00000000        0x0 examples/beaconing/CMakeFiles/beaconing_nrf52840_xxAA_s140_6.0.0.dir/__/__/mesh/bearer/src/ad_listener.c.obj
 .bss           0x00000000        0x0 examples/beaconing/CMakeFiles/beaconing_nrf52840_xxAA_s140_6.0.0.dir/__/__/mesh/bearer/src/ad_listener.c.obj
 .text.ad_listener_unsubscribe
                0x00000000       0x6c examples/beaconing/CMakeFiles/beaconing_nrf52840_xxAA_s140_6.0.0.dir/__/__/mesh/bearer/src/ad_listener.c.obj
 .text          0x00000000        0x0 examples/beaconing/CMakeFiles/beaconing_nrf52840_xxAA_s140_6.0.0.dir/__/__/mesh/bearer/src/ad_type_filter.c.obj
 .data          0x00000000        0x0 examples/beaconing/CMakeFiles/beaconing_nrf52840_xxAA_s140_6.0.0.dir/__/__/mesh/bearer/src/ad_type_filter.c.obj
 .bss           0x00000000        0x0 examples/beaconing/CMakeFiles/beaconing_nrf52840_xxAA_s140_6.0.0.dir/__/__/mesh/bearer/src/ad_type_filter.c.obj
 .text.bearer_adtype_remove
                0x00000000       0x20 examples/beaconing/CMakeFiles/beaconing_nrf52840_xxAA_s140_6.0.0.dir/__/__/mesh/bearer/src/ad_type_filter.c.obj
 .text.bearer_adtype_clear
                0x00000000       0x10 examples/beaconing/CMakeFiles/beaconing_nrf52840_xxAA_s140_6.0.0.dir/__/__/mesh/bearer/src/ad_type_filter.c.obj
 .text.bearer_invalid_length_amount_get
                0x00000000        0xc examples/beaconing/CMakeFiles/beaconing_nrf52840_xxAA_s140_6.0.0.dir/__/__/mesh/bearer/src/ad_type_filter.c.obj
 .text.bearer_adtype_filtered_amount_get
                0x00000000        0xc examples/beaconing/CMakeFiles/beaconing_nrf52840_xxAA_s140_6.0.0.dir/__/__/mesh/bearer/src/ad_type_filter.c.obj
 .text          0x00000000        0x0 examples/beaconing/CMakeFiles/beaconing_nrf52840_xxAA_s140_6.0.0.dir/__/__/mesh/bearer/src/adv_packet_filter.c.obj
 .data          0x00000000        0x0 examples/beaconing/CMakeFiles/beaconing_nrf52840_xxAA_s140_6.0.0.dir/__/__/mesh/bearer/src/adv_packet_filter.c.obj
 .bss           0x00000000        0x0 examples/beaconing/CMakeFiles/beaconing_nrf52840_xxAA_s140_6.0.0.dir/__/__/mesh/bearer/src/adv_packet_filter.c.obj
 .text.adv_filter_handle
                0x00000000       0x3c examples/beaconing/CMakeFiles/beaconing_nrf52840_xxAA_s140_6.0.0.dir/__/__/mesh/bearer/src/adv_packet_filter.c.obj
 .text.bearer_adv_packet_filtering_set
                0x00000000       0x1c examples/beaconing/CMakeFiles/beaconing_nrf52840_xxAA_s140_6.0.0.dir/__/__/mesh/bearer/src/adv_packet_filter.c.obj
 .text.bearer_adv_packet_remove
                0x00000000       0x18 examples/beaconing/CMakeFiles/beaconing_nrf52840_xxAA_s140_6.0.0.dir/__/__/mesh/bearer/src/adv_packet_filter.c.obj
 .text.bearer_adv_packet_add
                0x00000000       0x14 examples/beaconing/CMakeFiles/beaconing_nrf52840_xxAA_s140_6.0.0.dir/__/__/mesh/bearer/src/adv_packet_filter.c.obj
 .text.bearer_adv_packet_clear
                0x00000000        0xc examples/beaconing/CMakeFiles/beaconing_nrf52840_xxAA_s140_6.0.0.dir/__/__/mesh/bearer/src/adv_packet_filter.c.obj
 .text.bearer_adv_packet_filter_mode_set
                0x00000000       0x18 examples/beaconing/CMakeFiles/beaconing_nrf52840_xxAA_s140_6.0.0.dir/__/__/mesh/bearer/src/adv_packet_filter.c.obj
 .text.bearer_adv_packet_filtered_amount_get
                0x00000000        0xc examples/beaconing/CMakeFiles/beaconing_nrf52840_xxAA_s140_6.0.0.dir/__/__/mesh/bearer/src/adv_packet_filter.c.obj
 .bss.m_adv_packet_filter
                0x00000000       0x14 examples/beaconing/CMakeFiles/beaconing_nrf52840_xxAA_s140_6.0.0.dir/__/__/mesh/bearer/src/adv_packet_filter.c.obj
 .debug_info    0x00000000      0xd97 examples/beaconing/CMakeFiles/beaconing_nrf52840_xxAA_s140_6.0.0.dir/__/__/mesh/bearer/src/adv_packet_filter.c.obj
 .debug_abbrev  0x00000000      0x2c9 examples/beaconing/CMakeFiles/beaconing_nrf52840_xxAA_s140_6.0.0.dir/__/__/mesh/bearer/src/adv_packet_filter.c.obj
 .debug_loc     0x00000000      0x1c0 examples/beaconing/CMakeFiles/beaconing_nrf52840_xxAA_s140_6.0.0.dir/__/__/mesh/bearer/src/adv_packet_filter.c.obj
 .debug_aranges
                0x00000000       0x50 examples/beaconing/CMakeFiles/beaconing_nrf52840_xxAA_s140_6.0.0.dir/__/__/mesh/bearer/src/adv_packet_filter.c.obj
 .debug_ranges  0x00000000       0x40 examples/beaconing/CMakeFiles/beaconing_nrf52840_xxAA_s140_6.0.0.dir/__/__/mesh/bearer/src/adv_packet_filter.c.obj
 .debug_line    0x00000000      0x35e examples/beaconing/CMakeFiles/beaconing_nrf52840_xxAA_s140_6.0.0.dir/__/__/mesh/bearer/src/adv_packet_filter.c.obj
 .debug_str     0x00000000      0xa28 examples/beaconing/CMakeFiles/beaconing_nrf52840_xxAA_s140_6.0.0.dir/__/__/mesh/bearer/src/adv_packet_filter.c.obj
 .comment       0x00000000       0x80 examples/beaconing/CMakeFiles/beaconing_nrf52840_xxAA_s140_6.0.0.dir/__/__/mesh/bearer/src/adv_packet_filter.c.obj
 .debug_frame   0x00000000       0x88 examples/beaconing/CMakeFiles/beaconing_nrf52840_xxAA_s140_6.0.0.dir/__/__/mesh/bearer/src/adv_packet_filter.c.obj
 .ARM.attributes
                0x00000000       0x39 examples/beaconing/CMakeFiles/beaconing_nrf52840_xxAA_s140_6.0.0.dir/__/__/mesh/bearer/src/adv_packet_filter.c.obj
 .text          0x00000000        0x0 examples/beaconing/CMakeFiles/beaconing_nrf52840_xxAA_s140_6.0.0.dir/__/__/mesh/bearer/src/advertiser.c.obj
 .data          0x00000000        0x0 examples/beaconing/CMakeFiles/beaconing_nrf52840_xxAA_s140_6.0.0.dir/__/__/mesh/bearer/src/advertiser.c.obj
 .bss           0x00000000        0x0 examples/beaconing/CMakeFiles/beaconing_nrf52840_xxAA_s140_6.0.0.dir/__/__/mesh/bearer/src/advertiser.c.obj
 .text.advertiser_disable
                0x00000000        0xa examples/beaconing/CMakeFiles/beaconing_nrf52840_xxAA_s140_6.0.0.dir/__/__/mesh/bearer/src/advertiser.c.obj
 .text.advertiser_channels_set
                0x00000000       0x60 examples/beaconing/CMakeFiles/beaconing_nrf52840_xxAA_s140_6.0.0.dir/__/__/mesh/bearer/src/advertiser.c.obj
 .text.advertiser_address_set
                0x00000000       0x3c examples/beaconing/CMakeFiles/beaconing_nrf52840_xxAA_s140_6.0.0.dir/__/__/mesh/bearer/src/advertiser.c.obj
 .text.advertiser_config_set
                0x00000000       0x36 examples/beaconing/CMakeFiles/beaconing_nrf52840_xxAA_s140_6.0.0.dir/__/__/mesh/bearer/src/advertiser.c.obj
 .text.advertiser_config_get
                0x00000000       0x20 examples/beaconing/CMakeFiles/beaconing_nrf52840_xxAA_s140_6.0.0.dir/__/__/mesh/bearer/src/advertiser.c.obj
 .text          0x00000000        0x0 examples/beaconing/CMakeFiles/beaconing_nrf52840_xxAA_s140_6.0.0.dir/__/__/mesh/bearer/src/bearer_handler.c.obj
 .data          0x00000000        0x0 examples/beaconing/CMakeFiles/beaconing_nrf52840_xxAA_s140_6.0.0.dir/__/__/mesh/bearer/src/bearer_handler.c.obj
 .bss           0x00000000        0x0 examples/beaconing/CMakeFiles/beaconing_nrf52840_xxAA_s140_6.0.0.dir/__/__/mesh/bearer/src/bearer_handler.c.obj
 .text.bearer_handler_stop
                0x00000000       0x20 examples/beaconing/CMakeFiles/beaconing_nrf52840_xxAA_s140_6.0.0.dir/__/__/mesh/bearer/src/bearer_handler.c.obj
 .text.bearer_handler_action_fire
                0x00000000       0x9c examples/beaconing/CMakeFiles/beaconing_nrf52840_xxAA_s140_6.0.0.dir/__/__/mesh/bearer/src/bearer_handler.c.obj
 .text          0x00000000        0x0 examples/beaconing/CMakeFiles/beaconing_nrf52840_xxAA_s140_6.0.0.dir/__/__/mesh/bearer/src/broadcast.c.obj
 .data          0x00000000        0x0 examples/beaconing/CMakeFiles/beaconing_nrf52840_xxAA_s140_6.0.0.dir/__/__/mesh/bearer/src/broadcast.c.obj
 .bss           0x00000000        0x0 examples/beaconing/CMakeFiles/beaconing_nrf52840_xxAA_s140_6.0.0.dir/__/__/mesh/bearer/src/broadcast.c.obj
 .text          0x00000000        0x0 examples/beaconing/CMakeFiles/beaconing_nrf52840_xxAA_s140_6.0.0.dir/__/__/mesh/bearer/src/filter_engine.c.obj
 .data          0x00000000        0x0 examples/beaconing/CMakeFiles/beaconing_nrf52840_xxAA_s140_6.0.0.dir/__/__/mesh/bearer/src/filter_engine.c.obj
 .bss           0x00000000        0x0 examples/beaconing/CMakeFiles/beaconing_nrf52840_xxAA_s140_6.0.0.dir/__/__/mesh/bearer/src/filter_engine.c.obj
 .text.fen_accepted_amount_get
                0x00000000        0xc examples/beaconing/CMakeFiles/beaconing_nrf52840_xxAA_s140_6.0.0.dir/__/__/mesh/bearer/src/filter_engine.c.obj
 .text          0x00000000        0x0 examples/beaconing/CMakeFiles/beaconing_nrf52840_xxAA_s140_6.0.0.dir/__/__/mesh/bearer/src/gap_address_filter.c.obj
 .data          0x00000000        0x0 examples/beaconing/CMakeFiles/beaconing_nrf52840_xxAA_s140_6.0.0.dir/__/__/mesh/bearer/src/gap_address_filter.c.obj
 .bss           0x00000000        0x0 examples/beaconing/CMakeFiles/beaconing_nrf52840_xxAA_s140_6.0.0.dir/__/__/mesh/bearer/src/gap_address_filter.c.obj
 .text.gap_address_filter_handle
                0x00000000       0xa6 examples/beaconing/CMakeFiles/beaconing_nrf52840_xxAA_s140_6.0.0.dir/__/__/mesh/bearer/src/gap_address_filter.c.obj
 .text.gap_addr_filter_set
                0x00000000       0x40 examples/beaconing/CMakeFiles/beaconing_nrf52840_xxAA_s140_6.0.0.dir/__/__/mesh/bearer/src/gap_address_filter.c.obj
 .text.bearer_filter_gap_addr_whitelist_set
                0x00000000        0x6 examples/beaconing/CMakeFiles/beaconing_nrf52840_xxAA_s140_6.0.0.dir/__/__/mesh/bearer/src/gap_address_filter.c.obj
 .text.bearer_filter_gap_addr_blacklist_set
                0x00000000        0x6 examples/beaconing/CMakeFiles/beaconing_nrf52840_xxAA_s140_6.0.0.dir/__/__/mesh/bearer/src/gap_address_filter.c.obj
 .text.bearer_filter_gap_addr_range_set
                0x00000000       0x38 examples/beaconing/CMakeFiles/beaconing_nrf52840_xxAA_s140_6.0.0.dir/__/__/mesh/bearer/src/gap_address_filter.c.obj
 .text.bearer_filter_gap_addr_clear
                0x00000000       0x20 examples/beaconing/CMakeFiles/beaconing_nrf52840_xxAA_s140_6.0.0.dir/__/__/mesh/bearer/src/gap_address_filter.c.obj
 .text.bearer_gap_addr_filtered_amount_get
                0x00000000        0xc examples/beaconing/CMakeFiles/beaconing_nrf52840_xxAA_s140_6.0.0.dir/__/__/mesh/bearer/src/gap_address_filter.c.obj
 .bss.m_addr_filter
                0x00000000       0x18 examples/beaconing/CMakeFiles/beaconing_nrf52840_xxAA_s140_6.0.0.dir/__/__/mesh/bearer/src/gap_address_filter.c.obj
 .debug_info    0x00000000      0xebb examples/beaconing/CMakeFiles/beaconing_nrf52840_xxAA_s140_6.0.0.dir/__/__/mesh/bearer/src/gap_address_filter.c.obj
 .debug_abbrev  0x00000000      0x2f4 examples/beaconing/CMakeFiles/beaconing_nrf52840_xxAA_s140_6.0.0.dir/__/__/mesh/bearer/src/gap_address_filter.c.obj
 .debug_loc     0x00000000      0x3e8 examples/beaconing/CMakeFiles/beaconing_nrf52840_xxAA_s140_6.0.0.dir/__/__/mesh/bearer/src/gap_address_filter.c.obj
 .debug_aranges
                0x00000000       0x50 examples/beaconing/CMakeFiles/beaconing_nrf52840_xxAA_s140_6.0.0.dir/__/__/mesh/bearer/src/gap_address_filter.c.obj
 .debug_ranges  0x00000000       0x58 examples/beaconing/CMakeFiles/beaconing_nrf52840_xxAA_s140_6.0.0.dir/__/__/mesh/bearer/src/gap_address_filter.c.obj
 .debug_line    0x00000000      0x3b6 examples/beaconing/CMakeFiles/beaconing_nrf52840_xxAA_s140_6.0.0.dir/__/__/mesh/bearer/src/gap_address_filter.c.obj
 .debug_str     0x00000000      0x982 examples/beaconing/CMakeFiles/beaconing_nrf52840_xxAA_s140_6.0.0.dir/__/__/mesh/bearer/src/gap_address_filter.c.obj
 .comment       0x00000000       0x80 examples/beaconing/CMakeFiles/beaconing_nrf52840_xxAA_s140_6.0.0.dir/__/__/mesh/bearer/src/gap_address_filter.c.obj
 .debug_frame   0x00000000       0xb4 examples/beaconing/CMakeFiles/beaconing_nrf52840_xxAA_s140_6.0.0.dir/__/__/mesh/bearer/src/gap_address_filter.c.obj
 .ARM.attributes
                0x00000000       0x39 examples/beaconing/CMakeFiles/beaconing_nrf52840_xxAA_s140_6.0.0.dir/__/__/mesh/bearer/src/gap_address_filter.c.obj
 .text          0x00000000        0x0 examples/beaconing/CMakeFiles/beaconing_nrf52840_xxAA_s140_6.0.0.dir/__/__/mesh/bearer/src/radio_config.c.obj
 .data          0x00000000        0x0 examples/beaconing/CMakeFiles/beaconing_nrf52840_xxAA_s140_6.0.0.dir/__/__/mesh/bearer/src/radio_config.c.obj
 .bss           0x00000000        0x0 examples/beaconing/CMakeFiles/beaconing_nrf52840_xxAA_s140_6.0.0.dir/__/__/mesh/bearer/src/radio_config.c.obj
 .text.radio_config_access_addr_get
                0x00000000       0x4c examples/beaconing/CMakeFiles/beaconing_nrf52840_xxAA_s140_6.0.0.dir/__/__/mesh/bearer/src/radio_config.c.obj
 .text          0x00000000        0x0 examples/beaconing/CMakeFiles/beaconing_nrf52840_xxAA_s140_6.0.0.dir/__/__/mesh/bearer/src/rssi_filter.c.obj
 .data          0x00000000        0x0 examples/beaconing/CMakeFiles/beaconing_nrf52840_xxAA_s140_6.0.0.dir/__/__/mesh/bearer/src/rssi_filter.c.obj
 .bss           0x00000000        0x0 examples/beaconing/CMakeFiles/beaconing_nrf52840_xxAA_s140_6.0.0.dir/__/__/mesh/bearer/src/rssi_filter.c.obj
 .text.rssi_filter_handle
                0x00000000       0x20 examples/beaconing/CMakeFiles/beaconing_nrf52840_xxAA_s140_6.0.0.dir/__/__/mesh/bearer/src/rssi_filter.c.obj
 .text.bearer_rssi_filtering_set
                0x00000000       0x34 examples/beaconing/CMakeFiles/beaconing_nrf52840_xxAA_s140_6.0.0.dir/__/__/mesh/bearer/src/rssi_filter.c.obj
 .text.bearer_rssi_filtered_amount_get
                0x00000000        0xc examples/beaconing/CMakeFiles/beaconing_nrf52840_xxAA_s140_6.0.0.dir/__/__/mesh/bearer/src/rssi_filter.c.obj
 .bss.m_rssi_filter
                0x00000000       0x18 examples/beaconing/CMakeFiles/beaconing_nrf52840_xxAA_s140_6.0.0.dir/__/__/mesh/bearer/src/rssi_filter.c.obj
 .debug_info    0x00000000      0xc73 examples/beaconing/CMakeFiles/beaconing_nrf52840_xxAA_s140_6.0.0.dir/__/__/mesh/bearer/src/rssi_filter.c.obj
 .debug_abbrev  0x00000000      0x28e examples/beaconing/CMakeFiles/beaconing_nrf52840_xxAA_s140_6.0.0.dir/__/__/mesh/bearer/src/rssi_filter.c.obj
 .debug_loc     0x00000000       0xb3 examples/beaconing/CMakeFiles/beaconing_nrf52840_xxAA_s140_6.0.0.dir/__/__/mesh/bearer/src/rssi_filter.c.obj
 .debug_aranges
                0x00000000       0x30 examples/beaconing/CMakeFiles/beaconing_nrf52840_xxAA_s140_6.0.0.dir/__/__/mesh/bearer/src/rssi_filter.c.obj
 .debug_ranges  0x00000000       0x20 examples/beaconing/CMakeFiles/beaconing_nrf52840_xxAA_s140_6.0.0.dir/__/__/mesh/bearer/src/rssi_filter.c.obj
 .debug_line    0x00000000      0x2d3 examples/beaconing/CMakeFiles/beaconing_nrf52840_xxAA_s140_6.0.0.dir/__/__/mesh/bearer/src/rssi_filter.c.obj
 .debug_str     0x00000000      0x83d examples/beaconing/CMakeFiles/beaconing_nrf52840_xxAA_s140_6.0.0.dir/__/__/mesh/bearer/src/rssi_filter.c.obj
 .comment       0x00000000       0x80 examples/beaconing/CMakeFiles/beaconing_nrf52840_xxAA_s140_6.0.0.dir/__/__/mesh/bearer/src/rssi_filter.c.obj
 .debug_frame   0x00000000       0x54 examples/beaconing/CMakeFiles/beaconing_nrf52840_xxAA_s140_6.0.0.dir/__/__/mesh/bearer/src/rssi_filter.c.obj
 .ARM.attributes
                0x00000000       0x39 examples/beaconing/CMakeFiles/beaconing_nrf52840_xxAA_s140_6.0.0.dir/__/__/mesh/bearer/src/rssi_filter.c.obj
 .text          0x00000000        0x0 examples/beaconing/CMakeFiles/beaconing_nrf52840_xxAA_s140_6.0.0.dir/__/__/mesh/bearer/src/scanner.c.obj
 .data          0x00000000        0x0 examples/beaconing/CMakeFiles/beaconing_nrf52840_xxAA_s140_6.0.0.dir/__/__/mesh/bearer/src/scanner.c.obj
 .bss           0x00000000        0x0 examples/beaconing/CMakeFiles/beaconing_nrf52840_xxAA_s140_6.0.0.dir/__/__/mesh/bearer/src/scanner.c.obj
 .text.scanner_rx_callback_set
                0x00000000       0x20 examples/beaconing/CMakeFiles/beaconing_nrf52840_xxAA_s140_6.0.0.dir/__/__/mesh/bearer/src/scanner.c.obj
 .text.scanner_disable
                0x00000000       0x3c examples/beaconing/CMakeFiles/beaconing_nrf52840_xxAA_s140_6.0.0.dir/__/__/mesh/bearer/src/scanner.c.obj
 .text.scanner_is_enabled
                0x00000000       0x10 examples/beaconing/CMakeFiles/beaconing_nrf52840_xxAA_s140_6.0.0.dir/__/__/mesh/bearer/src/scanner.c.obj
 .text.scanner_stats_get
                0x00000000        0x8 examples/beaconing/CMakeFiles/beaconing_nrf52840_xxAA_s140_6.0.0.dir/__/__/mesh/bearer/src/scanner.c.obj
 .text.scanner_config_radio_mode_set
                0x00000000       0x10 examples/beaconing/CMakeFiles/beaconing_nrf52840_xxAA_s140_6.0.0.dir/__/__/mesh/bearer/src/scanner.c.obj
 .text          0x00000000        0x0 examples/beaconing/CMakeFiles/beaconing_nrf52840_xxAA_s140_6.0.0.dir/__/__/mesh/bearer/src/mesh_pa_lna.c.obj
 .data          0x00000000        0x0 examples/beaconing/CMakeFiles/beaconing_nrf52840_xxAA_s140_6.0.0.dir/__/__/mesh/bearer/src/mesh_pa_lna.c.obj
 .bss           0x00000000        0x0 examples/beaconing/CMakeFiles/beaconing_nrf52840_xxAA_s140_6.0.0.dir/__/__/mesh/bearer/src/mesh_pa_lna.c.obj
 .text.unlikely.pin_init
                0x00000000       0x32 examples/beaconing/CMakeFiles/beaconing_nrf52840_xxAA_s140_6.0.0.dir/__/__/mesh/bearer/src/mesh_pa_lna.c.obj
 .text.mesh_pa_lna_gpiote_enable
                0x00000000       0x68 examples/beaconing/CMakeFiles/beaconing_nrf52840_xxAA_s140_6.0.0.dir/__/__/mesh/bearer/src/mesh_pa_lna.c.obj
 .text.mesh_pa_lna_gpiote_params_get
                0x00000000       0x10 examples/beaconing/CMakeFiles/beaconing_nrf52840_xxAA_s140_6.0.0.dir/__/__/mesh/bearer/src/mesh_pa_lna.c.obj
 .text.mesh_pa_lna_gpiote_disable
                0x00000000       0x20 examples/beaconing/CMakeFiles/beaconing_nrf52840_xxAA_s140_6.0.0.dir/__/__/mesh/bearer/src/mesh_pa_lna.c.obj
 .text          0x00000000        0x0 examples/beaconing/CMakeFiles/beaconing_nrf52840_xxAA_s140_6.0.0.dir/C_/b/nRF5_SDK_15.0.0_a53641a/modules/nrfx/mdk/system_nrf52840.c.obj
 .data          0x00000000        0x0 examples/beaconing/CMakeFiles/beaconing_nrf52840_xxAA_s140_6.0.0.dir/C_/b/nRF5_SDK_15.0.0_a53641a/modules/nrfx/mdk/system_nrf52840.c.obj
 .bss           0x00000000        0x0 examples/beaconing/CMakeFiles/beaconing_nrf52840_xxAA_s140_6.0.0.dir/C_/b/nRF5_SDK_15.0.0_a53641a/modules/nrfx/mdk/system_nrf52840.c.obj
 .text.SystemCoreClockUpdate
                0x00000000       0x10 examples/beaconing/CMakeFiles/beaconing_nrf52840_xxAA_s140_6.0.0.dir/C_/b/nRF5_SDK_15.0.0_a53641a/modules/nrfx/mdk/system_nrf52840.c.obj
 .data          0x00000000        0x0 examples/beaconing/CMakeFiles/beaconing_nrf52840_xxAA_s140_6.0.0.dir/C_/b/nRF5_SDK_15.0.0_a53641a/modules/nrfx/mdk/gcc_startup_nrf52840.S.obj
 .bss           0x00000000        0x0 examples/beaconing/CMakeFiles/beaconing_nrf52840_xxAA_s140_6.0.0.dir/C_/b/nRF5_SDK_15.0.0_a53641a/modules/nrfx/mdk/gcc_startup_nrf52840.S.obj
 .text          0x00000000        0x0 examples/beaconing/CMakeFiles/beaconing_nrf52840_xxAA_s140_6.0.0.dir/C_/b/nRF5_SDK_15.0.0_a53641a/components/libraries/util/app_error.c.obj
 .data          0x00000000        0x0 examples/beaconing/CMakeFiles/beaconing_nrf52840_xxAA_s140_6.0.0.dir/C_/b/nRF5_SDK_15.0.0_a53641a/components/libraries/util/app_error.c.obj
 .bss           0x00000000        0x0 examples/beaconing/CMakeFiles/beaconing_nrf52840_xxAA_s140_6.0.0.dir/C_/b/nRF5_SDK_15.0.0_a53641a/components/libraries/util/app_error.c.obj
 .text.app_error_save_and_stop
                0x00000000       0x58 examples/beaconing/CMakeFiles/beaconing_nrf52840_xxAA_s140_6.0.0.dir/C_/b/nRF5_SDK_15.0.0_a53641a/components/libraries/util/app_error.c.obj
 .bss.m_error_data.8119
                0x00000000       0x20 examples/beaconing/CMakeFiles/beaconing_nrf52840_xxAA_s140_6.0.0.dir/C_/b/nRF5_SDK_15.0.0_a53641a/components/libraries/util/app_error.c.obj
 .text          0x00000000        0x0 examples/beaconing/CMakeFiles/beaconing_nrf52840_xxAA_s140_6.0.0.dir/C_/b/nRF5_SDK_15.0.0_a53641a/components/libraries/util/app_util_platform.c.obj
 .data          0x00000000        0x0 examples/beaconing/CMakeFiles/beaconing_nrf52840_xxAA_s140_6.0.0.dir/C_/b/nRF5_SDK_15.0.0_a53641a/components/libraries/util/app_util_platform.c.obj
 .bss           0x00000000        0x0 examples/beaconing/CMakeFiles/beaconing_nrf52840_xxAA_s140_6.0.0.dir/C_/b/nRF5_SDK_15.0.0_a53641a/components/libraries/util/app_util_platform.c.obj
 .text.app_util_disable_irq
                0x00000000       0x10 examples/beaconing/CMakeFiles/beaconing_nrf52840_xxAA_s140_6.0.0.dir/C_/b/nRF5_SDK_15.0.0_a53641a/components/libraries/util/app_util_platform.c.obj
 .text.app_util_enable_irq
                0x00000000       0x14 examples/beaconing/CMakeFiles/beaconing_nrf52840_xxAA_s140_6.0.0.dir/C_/b/nRF5_SDK_15.0.0_a53641a/components/libraries/util/app_util_platform.c.obj
 .text.privilege_level_get
                0x00000000       0x1a examples/beaconing/CMakeFiles/beaconing_nrf52840_xxAA_s140_6.0.0.dir/C_/b/nRF5_SDK_15.0.0_a53641a/components/libraries/util/app_util_platform.c.obj
 .text.current_int_priority_get
                0x00000000       0x38 examples/beaconing/CMakeFiles/beaconing_nrf52840_xxAA_s140_6.0.0.dir/C_/b/nRF5_SDK_15.0.0_a53641a/components/libraries/util/app_util_platform.c.obj
 .bss.m_in_critical_region
                0x00000000        0x4 examples/beaconing/CMakeFiles/beaconing_nrf52840_xxAA_s140_6.0.0.dir/C_/b/nRF5_SDK_15.0.0_a53641a/components/libraries/util/app_util_platform.c.obj
 .text          0x00000000        0x0 examples/beaconing/CMakeFiles/beaconing_nrf52840_xxAA_s140_6.0.0.dir/C_/b/nRF5_SDK_15.0.0_a53641a/components/libraries/timer/app_timer.c.obj
 .data          0x00000000        0x0 examples/beaconing/CMakeFiles/beaconing_nrf52840_xxAA_s140_6.0.0.dir/C_/b/nRF5_SDK_15.0.0_a53641a/components/libraries/timer/app_timer.c.obj
 .bss           0x00000000        0x0 examples/beaconing/CMakeFiles/beaconing_nrf52840_xxAA_s140_6.0.0.dir/C_/b/nRF5_SDK_15.0.0_a53641a/components/libraries/timer/app_timer.c.obj
 .text.app_timer_stop_all
                0x00000000       0x18 examples/beaconing/CMakeFiles/beaconing_nrf52840_xxAA_s140_6.0.0.dir/C_/b/nRF5_SDK_15.0.0_a53641a/components/libraries/timer/app_timer.c.obj
 .text.app_timer_cnt_get
                0x00000000        0xc examples/beaconing/CMakeFiles/beaconing_nrf52840_xxAA_s140_6.0.0.dir/C_/b/nRF5_SDK_15.0.0_a53641a/components/libraries/timer/app_timer.c.obj
 .text.app_timer_cnt_diff_compute
                0x00000000        0x8 examples/beaconing/CMakeFiles/beaconing_nrf52840_xxAA_s140_6.0.0.dir/C_/b/nRF5_SDK_15.0.0_a53641a/components/libraries/timer/app_timer.c.obj
 .text.app_timer_pause
                0x00000000        0xc examples/beaconing/CMakeFiles/beaconing_nrf52840_xxAA_s140_6.0.0.dir/C_/b/nRF5_SDK_15.0.0_a53641a/components/libraries/timer/app_timer.c.obj
 .text.app_timer_resume
                0x00000000        0xc examples/beaconing/CMakeFiles/beaconing_nrf52840_xxAA_s140_6.0.0.dir/C_/b/nRF5_SDK_15.0.0_a53641a/components/libraries/timer/app_timer.c.obj
 .text          0x00000000        0x0 examples/beaconing/CMakeFiles/beaconing_nrf52840_xxAA_s140_6.0.0.dir/C_/b/nRF5_SDK_15.0.0_a53641a/components/libraries/util/app_error_handler_gcc.c.obj
 .data          0x00000000        0x0 examples/beaconing/CMakeFiles/beaconing_nrf52840_xxAA_s140_6.0.0.dir/C_/b/nRF5_SDK_15.0.0_a53641a/components/libraries/util/app_error_handler_gcc.c.obj
 .bss           0x00000000        0x0 examples/beaconing/CMakeFiles/beaconing_nrf52840_xxAA_s140_6.0.0.dir/C_/b/nRF5_SDK_15.0.0_a53641a/components/libraries/util/app_error_handler_gcc.c.obj
 .text          0x00000000        0x0 external/rtt/librtt_nrf52840_xxAA.a(SEGGER_RTT.c.obj)
 .data          0x00000000        0x0 external/rtt/librtt_nrf52840_xxAA.a(SEGGER_RTT.c.obj)
 .bss           0x00000000        0x0 external/rtt/librtt_nrf52840_xxAA.a(SEGGER_RTT.c.obj)
 .text._PostTerminalSwitch.constprop.0
                0x00000000       0x28 external/rtt/librtt_nrf52840_xxAA.a(SEGGER_RTT.c.obj)
 .text.SEGGER_RTT_ReadNoLock
                0x00000000       0x88 external/rtt/librtt_nrf52840_xxAA.a(SEGGER_RTT.c.obj)
 .text.SEGGER_RTT_Read
                0x00000000       0x1c external/rtt/librtt_nrf52840_xxAA.a(SEGGER_RTT.c.obj)
 .text.SEGGER_RTT_WriteSkipNoLock
                0x00000000       0xb4 external/rtt/librtt_nrf52840_xxAA.a(SEGGER_RTT.c.obj)
 .text.SEGGER_RTT_WriteString
                0x00000000       0x1a external/rtt/librtt_nrf52840_xxAA.a(SEGGER_RTT.c.obj)
 .text.SEGGER_RTT_GetKey
                0x00000000       0x20 external/rtt/librtt_nrf52840_xxAA.a(SEGGER_RTT.c.obj)
 .text.SEGGER_RTT_WaitKey
                0x00000000        0xc external/rtt/librtt_nrf52840_xxAA.a(SEGGER_RTT.c.obj)
 .text.SEGGER_RTT_HasKey
                0x00000000       0x1c external/rtt/librtt_nrf52840_xxAA.a(SEGGER_RTT.c.obj)
 .text.SEGGER_RTT_HasData
                0x00000000       0x14 external/rtt/librtt_nrf52840_xxAA.a(SEGGER_RTT.c.obj)
 .text.SEGGER_RTT_AllocDownBuffer
                0x00000000       0x68 external/rtt/librtt_nrf52840_xxAA.a(SEGGER_RTT.c.obj)
 .text.SEGGER_RTT_AllocUpBuffer
                0x00000000       0x70 external/rtt/librtt_nrf52840_xxAA.a(SEGGER_RTT.c.obj)
 .text.SEGGER_RTT_ConfigUpBuffer
                0x00000000       0x68 external/rtt/librtt_nrf52840_xxAA.a(SEGGER_RTT.c.obj)
 .text.SEGGER_RTT_ConfigDownBuffer
                0x00000000       0x60 external/rtt/librtt_nrf52840_xxAA.a(SEGGER_RTT.c.obj)
 .text.SEGGER_RTT_SetNameUpBuffer
                0x00000000       0x3c external/rtt/librtt_nrf52840_xxAA.a(SEGGER_RTT.c.obj)
 .text.SEGGER_RTT_SetNameDownBuffer
                0x00000000       0x3c external/rtt/librtt_nrf52840_xxAA.a(SEGGER_RTT.c.obj)
 .text.SEGGER_RTT_Init
                0x00000000       0x10 external/rtt/librtt_nrf52840_xxAA.a(SEGGER_RTT.c.obj)
 .text.SEGGER_RTT_SetTerminal
                0x00000000       0x84 external/rtt/librtt_nrf52840_xxAA.a(SEGGER_RTT.c.obj)
 .text.SEGGER_RTT_TerminalOut
                0x00000000       0xa0 external/rtt/librtt_nrf52840_xxAA.a(SEGGER_RTT.c.obj)
 .bss._ActiveTerminal
                0x00000000        0x1 external/rtt/librtt_nrf52840_xxAA.a(SEGGER_RTT.c.obj)
 .rodata._aTerminalId
                0x00000000       0x10 external/rtt/librtt_nrf52840_xxAA.a(SEGGER_RTT.c.obj)
 .text          0x00000000        0x0 external/rtt/librtt_nrf52840_xxAA.a(SEGGER_RTT_printf.c.obj)
 .data          0x00000000        0x0 external/rtt/librtt_nrf52840_xxAA.a(SEGGER_RTT_printf.c.obj)
 .bss           0x00000000        0x0 external/rtt/librtt_nrf52840_xxAA.a(SEGGER_RTT_printf.c.obj)
 .text          0x00000000        0x0 external/micro-ecc/libuECC_nrf52840_xxAA.a(uECC.c.obj)
 .data          0x00000000        0x0 external/micro-ecc/libuECC_nrf52840_xxAA.a(uECC.c.obj)
 .bss           0x00000000        0x0 external/micro-ecc/libuECC_nrf52840_xxAA.a(uECC.c.obj)
 .text.uECC_vli_modMult
                0x00000000      0x148 external/micro-ecc/libuECC_nrf52840_xxAA.a(uECC.c.obj)
 .text.HMAC_init
                0x00000000       0x46 external/micro-ecc/libuECC_nrf52840_xxAA.a(uECC.c.obj)
 .text.HMAC_update
                0x00000000        0x4 external/micro-ecc/libuECC_nrf52840_xxAA.a(uECC.c.obj)
 .text.HMAC_finish
                0x00000000       0x62 external/micro-ecc/libuECC_nrf52840_xxAA.a(uECC.c.obj)
 .text.update_V
                0x00000000       0x24 external/micro-ecc/libuECC_nrf52840_xxAA.a(uECC.c.obj)
 .text.bits2int
                0x00000000       0x88 external/micro-ecc/libuECC_nrf52840_xxAA.a(uECC.c.obj)
 .text.uECC_sign_with_k
                0x00000000      0x17c external/micro-ecc/libuECC_nrf52840_xxAA.a(uECC.c.obj)
 .text.uECC_set_rng
                0x00000000        0xc external/micro-ecc/libuECC_nrf52840_xxAA.a(uECC.c.obj)
 .text.uECC_get_rng
                0x00000000        0xc external/micro-ecc/libuECC_nrf52840_xxAA.a(uECC.c.obj)
 .text.uECC_curve_private_key_size
                0x00000000        0xe external/micro-ecc/libuECC_nrf52840_xxAA.a(uECC.c.obj)
 .text.uECC_curve_public_key_size
                0x00000000        0x8 external/micro-ecc/libuECC_nrf52840_xxAA.a(uECC.c.obj)
 .text.uECC_compute_public_key
                0x00000000       0x7e external/micro-ecc/libuECC_nrf52840_xxAA.a(uECC.c.obj)
 .text.uECC_sign
                0x00000000       0x56 external/micro-ecc/libuECC_nrf52840_xxAA.a(uECC.c.obj)
 .text.uECC_sign_deterministic
                0x00000000      0x192 external/micro-ecc/libuECC_nrf52840_xxAA.a(uECC.c.obj)
 .text.uECC_verify
                0x00000000      0x2f0 external/micro-ecc/libuECC_nrf52840_xxAA.a(uECC.c.obj)
 .data          0x00000000        0x0 c:/mesh/arm_gcc/bin/../lib/gcc/arm-none-eabi/6.3.1/thumb/v7e-m/fpv4-sp/hard\libgcc.a(_aeabi_uldivmod.o)
 .bss           0x00000000        0x0 c:/mesh/arm_gcc/bin/../lib/gcc/arm-none-eabi/6.3.1/thumb/v7e-m/fpv4-sp/hard\libgcc.a(_aeabi_uldivmod.o)
 .data          0x00000000        0x0 c:/mesh/arm_gcc/bin/../lib/gcc/arm-none-eabi/6.3.1/thumb/v7e-m/fpv4-sp/hard\libgcc.a(_udivmoddi4.o)
 .bss           0x00000000        0x0 c:/mesh/arm_gcc/bin/../lib/gcc/arm-none-eabi/6.3.1/thumb/v7e-m/fpv4-sp/hard\libgcc.a(_udivmoddi4.o)
 .ARM.extab     0x00000000        0x0 c:/mesh/arm_gcc/bin/../lib/gcc/arm-none-eabi/6.3.1/thumb/v7e-m/fpv4-sp/hard\libgcc.a(_udivmoddi4.o)
 .data          0x00000000        0x0 c:/mesh/arm_gcc/bin/../lib/gcc/arm-none-eabi/6.3.1/thumb/v7e-m/fpv4-sp/hard\libgcc.a(_dvmd_tls.o)
 .bss           0x00000000        0x0 c:/mesh/arm_gcc/bin/../lib/gcc/arm-none-eabi/6.3.1/thumb/v7e-m/fpv4-sp/hard\libgcc.a(_dvmd_tls.o)
 .text          0x00000000        0x0 c:/mesh/arm_gcc/bin/../lib/gcc/arm-none-eabi/6.3.1/../../../../arm-none-eabi/lib/thumb/v7e-m/fpv4-sp/hard\libg_nano.a(lib_a-exit.o)
 .data          0x00000000        0x0 c:/mesh/arm_gcc/bin/../lib/gcc/arm-none-eabi/6.3.1/../../../../arm-none-eabi/lib/thumb/v7e-m/fpv4-sp/hard\libg_nano.a(lib_a-exit.o)
 .bss           0x00000000        0x0 c:/mesh/arm_gcc/bin/../lib/gcc/arm-none-eabi/6.3.1/../../../../arm-none-eabi/lib/thumb/v7e-m/fpv4-sp/hard\libg_nano.a(lib_a-exit.o)
 .text          0x00000000        0x0 c:/mesh/arm_gcc/bin/../lib/gcc/arm-none-eabi/6.3.1/../../../../arm-none-eabi/lib/thumb/v7e-m/fpv4-sp/hard\libg_nano.a(lib_a-impure.o)
 .data          0x00000000        0x0 c:/mesh/arm_gcc/bin/../lib/gcc/arm-none-eabi/6.3.1/../../../../arm-none-eabi/lib/thumb/v7e-m/fpv4-sp/hard\libg_nano.a(lib_a-impure.o)
 .bss           0x00000000        0x0 c:/mesh/arm_gcc/bin/../lib/gcc/arm-none-eabi/6.3.1/../../../../arm-none-eabi/lib/thumb/v7e-m/fpv4-sp/hard\libg_nano.a(lib_a-impure.o)
 .text          0x00000000        0x0 c:/mesh/arm_gcc/bin/../lib/gcc/arm-none-eabi/6.3.1/../../../../arm-none-eabi/lib/thumb/v7e-m/fpv4-sp/hard\libg_nano.a(lib_a-init.o)
 .data          0x00000000        0x0 c:/mesh/arm_gcc/bin/../lib/gcc/arm-none-eabi/6.3.1/../../../../arm-none-eabi/lib/thumb/v7e-m/fpv4-sp/hard\libg_nano.a(lib_a-init.o)
 .bss           0x00000000        0x0 c:/mesh/arm_gcc/bin/../lib/gcc/arm-none-eabi/6.3.1/../../../../arm-none-eabi/lib/thumb/v7e-m/fpv4-sp/hard\libg_nano.a(lib_a-init.o)
 .text          0x00000000        0x0 c:/mesh/arm_gcc/bin/../lib/gcc/arm-none-eabi/6.3.1/../../../../arm-none-eabi/lib/thumb/v7e-m/fpv4-sp/hard\libg_nano.a(lib_a-malloc.o)
 .data          0x00000000        0x0 c:/mesh/arm_gcc/bin/../lib/gcc/arm-none-eabi/6.3.1/../../../../arm-none-eabi/lib/thumb/v7e-m/fpv4-sp/hard\libg_nano.a(lib_a-malloc.o)
 .bss           0x00000000        0x0 c:/mesh/arm_gcc/bin/../lib/gcc/arm-none-eabi/6.3.1/../../../../arm-none-eabi/lib/thumb/v7e-m/fpv4-sp/hard\libg_nano.a(lib_a-malloc.o)
 .text          0x00000000        0x0 c:/mesh/arm_gcc/bin/../lib/gcc/arm-none-eabi/6.3.1/../../../../arm-none-eabi/lib/thumb/v7e-m/fpv4-sp/hard\libg_nano.a(lib_a-memcmp.o)
 .data          0x00000000        0x0 c:/mesh/arm_gcc/bin/../lib/gcc/arm-none-eabi/6.3.1/../../../../arm-none-eabi/lib/thumb/v7e-m/fpv4-sp/hard\libg_nano.a(lib_a-memcmp.o)
 .bss           0x00000000        0x0 c:/mesh/arm_gcc/bin/../lib/gcc/arm-none-eabi/6.3.1/../../../../arm-none-eabi/lib/thumb/v7e-m/fpv4-sp/hard\libg_nano.a(lib_a-memcmp.o)
 .text          0x00000000        0x0 c:/mesh/arm_gcc/bin/../lib/gcc/arm-none-eabi/6.3.1/../../../../arm-none-eabi/lib/thumb/v7e-m/fpv4-sp/hard\libg_nano.a(lib_a-memcpy-stub.o)
 .data          0x00000000        0x0 c:/mesh/arm_gcc/bin/../lib/gcc/arm-none-eabi/6.3.1/../../../../arm-none-eabi/lib/thumb/v7e-m/fpv4-sp/hard\libg_nano.a(lib_a-memcpy-stub.o)
 .bss           0x00000000        0x0 c:/mesh/arm_gcc/bin/../lib/gcc/arm-none-eabi/6.3.1/../../../../arm-none-eabi/lib/thumb/v7e-m/fpv4-sp/hard\libg_nano.a(lib_a-memcpy-stub.o)
 .text          0x00000000        0x0 c:/mesh/arm_gcc/bin/../lib/gcc/arm-none-eabi/6.3.1/../../../../arm-none-eabi/lib/thumb/v7e-m/fpv4-sp/hard\libg_nano.a(lib_a-memset.o)
 .data          0x00000000        0x0 c:/mesh/arm_gcc/bin/../lib/gcc/arm-none-eabi/6.3.1/../../../../arm-none-eabi/lib/thumb/v7e-m/fpv4-sp/hard\libg_nano.a(lib_a-memset.o)
 .bss           0x00000000        0x0 c:/mesh/arm_gcc/bin/../lib/gcc/arm-none-eabi/6.3.1/../../../../arm-none-eabi/lib/thumb/v7e-m/fpv4-sp/hard\libg_nano.a(lib_a-memset.o)
 .text          0x00000000        0x0 c:/mesh/arm_gcc/bin/../lib/gcc/arm-none-eabi/6.3.1/../../../../arm-none-eabi/lib/thumb/v7e-m/fpv4-sp/hard\libg_nano.a(lib_a-nano-freer.o)
 .data          0x00000000        0x0 c:/mesh/arm_gcc/bin/../lib/gcc/arm-none-eabi/6.3.1/../../../../arm-none-eabi/lib/thumb/v7e-m/fpv4-sp/hard\libg_nano.a(lib_a-nano-freer.o)
 .bss           0x00000000        0x0 c:/mesh/arm_gcc/bin/../lib/gcc/arm-none-eabi/6.3.1/../../../../arm-none-eabi/lib/thumb/v7e-m/fpv4-sp/hard\libg_nano.a(lib_a-nano-freer.o)
 .text          0x00000000        0x0 c:/mesh/arm_gcc/bin/../lib/gcc/arm-none-eabi/6.3.1/../../../../arm-none-eabi/lib/thumb/v7e-m/fpv4-sp/hard\libg_nano.a(lib_a-nano-mallocr.o)
 .data          0x00000000        0x0 c:/mesh/arm_gcc/bin/../lib/gcc/arm-none-eabi/6.3.1/../../../../arm-none-eabi/lib/thumb/v7e-m/fpv4-sp/hard\libg_nano.a(lib_a-nano-mallocr.o)
 .bss           0x00000000        0x0 c:/mesh/arm_gcc/bin/../lib/gcc/arm-none-eabi/6.3.1/../../../../arm-none-eabi/lib/thumb/v7e-m/fpv4-sp/hard\libg_nano.a(lib_a-nano-mallocr.o)
 .text          0x00000000        0x0 c:/mesh/arm_gcc/bin/../lib/gcc/arm-none-eabi/6.3.1/../../../../arm-none-eabi/lib/thumb/v7e-m/fpv4-sp/hard\libg_nano.a(lib_a-sbrkr.o)
 .data          0x00000000        0x0 c:/mesh/arm_gcc/bin/../lib/gcc/arm-none-eabi/6.3.1/../../../../arm-none-eabi/lib/thumb/v7e-m/fpv4-sp/hard\libg_nano.a(lib_a-sbrkr.o)
 .bss           0x00000000        0x0 c:/mesh/arm_gcc/bin/../lib/gcc/arm-none-eabi/6.3.1/../../../../arm-none-eabi/lib/thumb/v7e-m/fpv4-sp/hard\libg_nano.a(lib_a-sbrkr.o)
 .text          0x00000000        0x0 c:/mesh/arm_gcc/bin/../lib/gcc/arm-none-eabi/6.3.1/../../../../arm-none-eabi/lib/thumb/v7e-m/fpv4-sp/hard\libg_nano.a(lib_a-sprintf.o)
 .data          0x00000000        0x0 c:/mesh/arm_gcc/bin/../lib/gcc/arm-none-eabi/6.3.1/../../../../arm-none-eabi/lib/thumb/v7e-m/fpv4-sp/hard\libg_nano.a(lib_a-sprintf.o)
 .bss           0x00000000        0x0 c:/mesh/arm_gcc/bin/../lib/gcc/arm-none-eabi/6.3.1/../../../../arm-none-eabi/lib/thumb/v7e-m/fpv4-sp/hard\libg_nano.a(lib_a-sprintf.o)
 .text._sprintf_r
                0x00000000       0x40 c:/mesh/arm_gcc/bin/../lib/gcc/arm-none-eabi/6.3.1/../../../../arm-none-eabi/lib/thumb/v7e-m/fpv4-sp/hard\libg_nano.a(lib_a-sprintf.o)
 .text          0x00000000        0x0 c:/mesh/arm_gcc/bin/../lib/gcc/arm-none-eabi/6.3.1/../../../../arm-none-eabi/lib/thumb/v7e-m/fpv4-sp/hard\libg_nano.a(lib_a-strcpy.o)
 .data          0x00000000        0x0 c:/mesh/arm_gcc/bin/../lib/gcc/arm-none-eabi/6.3.1/../../../../arm-none-eabi/lib/thumb/v7e-m/fpv4-sp/hard\libg_nano.a(lib_a-strcpy.o)
 .bss           0x00000000        0x0 c:/mesh/arm_gcc/bin/../lib/gcc/arm-none-eabi/6.3.1/../../../../arm-none-eabi/lib/thumb/v7e-m/fpv4-sp/hard\libg_nano.a(lib_a-strcpy.o)
 .data          0x00000000        0x0 c:/mesh/arm_gcc/bin/../lib/gcc/arm-none-eabi/6.3.1/../../../../arm-none-eabi/lib/thumb/v7e-m/fpv4-sp/hard\libg_nano.a(lib_a-strlen.o)
 .bss           0x00000000        0x0 c:/mesh/arm_gcc/bin/../lib/gcc/arm-none-eabi/6.3.1/../../../../arm-none-eabi/lib/thumb/v7e-m/fpv4-sp/hard\libg_nano.a(lib_a-strlen.o)
 .text          0x00000000        0x0 c:/mesh/arm_gcc/bin/../lib/gcc/arm-none-eabi/6.3.1/../../../../arm-none-eabi/lib/thumb/v7e-m/fpv4-sp/hard\libg_nano.a(lib_a-strrchr.o)
 .data          0x00000000        0x0 c:/mesh/arm_gcc/bin/../lib/gcc/arm-none-eabi/6.3.1/../../../../arm-none-eabi/lib/thumb/v7e-m/fpv4-sp/hard\libg_nano.a(lib_a-strrchr.o)
 .bss           0x00000000        0x0 c:/mesh/arm_gcc/bin/../lib/gcc/arm-none-eabi/6.3.1/../../../../arm-none-eabi/lib/thumb/v7e-m/fpv4-sp/hard\libg_nano.a(lib_a-strrchr.o)
 .text          0x00000000        0x0 c:/mesh/arm_gcc/bin/../lib/gcc/arm-none-eabi/6.3.1/../../../../arm-none-eabi/lib/thumb/v7e-m/fpv4-sp/hard\libg_nano.a(lib_a-mlock.o)
 .data          0x00000000        0x0 c:/mesh/arm_gcc/bin/../lib/gcc/arm-none-eabi/6.3.1/../../../../arm-none-eabi/lib/thumb/v7e-m/fpv4-sp/hard\libg_nano.a(lib_a-mlock.o)
 .bss           0x00000000        0x0 c:/mesh/arm_gcc/bin/../lib/gcc/arm-none-eabi/6.3.1/../../../../arm-none-eabi/lib/thumb/v7e-m/fpv4-sp/hard\libg_nano.a(lib_a-mlock.o)
 .text          0x00000000        0x0 c:/mesh/arm_gcc/bin/../lib/gcc/arm-none-eabi/6.3.1/../../../../arm-none-eabi/lib/thumb/v7e-m/fpv4-sp/hard\libg_nano.a(lib_a-nano-svfprintf.o)
 .data          0x00000000        0x0 c:/mesh/arm_gcc/bin/../lib/gcc/arm-none-eabi/6.3.1/../../../../arm-none-eabi/lib/thumb/v7e-m/fpv4-sp/hard\libg_nano.a(lib_a-nano-svfprintf.o)
 .bss           0x00000000        0x0 c:/mesh/arm_gcc/bin/../lib/gcc/arm-none-eabi/6.3.1/../../../../arm-none-eabi/lib/thumb/v7e-m/fpv4-sp/hard\libg_nano.a(lib_a-nano-svfprintf.o)
 .text.__ssprint_r
                0x00000000       0xf4 c:/mesh/arm_gcc/bin/../lib/gcc/arm-none-eabi/6.3.1/../../../../arm-none-eabi/lib/thumb/v7e-m/fpv4-sp/hard\libg_nano.a(lib_a-nano-svfprintf.o)
 .text          0x00000000        0x0 c:/mesh/arm_gcc/bin/../lib/gcc/arm-none-eabi/6.3.1/../../../../arm-none-eabi/lib/thumb/v7e-m/fpv4-sp/hard\libg_nano.a(lib_a-nano-vfprintf_i.o)
 .data          0x00000000        0x0 c:/mesh/arm_gcc/bin/../lib/gcc/arm-none-eabi/6.3.1/../../../../arm-none-eabi/lib/thumb/v7e-m/fpv4-sp/hard\libg_nano.a(lib_a-nano-vfprintf_i.o)
 .bss           0x00000000        0x0 c:/mesh/arm_gcc/bin/../lib/gcc/arm-none-eabi/6.3.1/../../../../arm-none-eabi/lib/thumb/v7e-m/fpv4-sp/hard\libg_nano.a(lib_a-nano-vfprintf_i.o)
 .text          0x00000000        0x0 c:/mesh/arm_gcc/bin/../lib/gcc/arm-none-eabi/6.3.1/../../../../arm-none-eabi/lib/thumb/v7e-m/fpv4-sp/hard\libg_nano.a(lib_a-reent.o)
 .data          0x00000000        0x0 c:/mesh/arm_gcc/bin/../lib/gcc/arm-none-eabi/6.3.1/../../../../arm-none-eabi/lib/thumb/v7e-m/fpv4-sp/hard\libg_nano.a(lib_a-reent.o)
 .bss           0x00000000        0x0 c:/mesh/arm_gcc/bin/../lib/gcc/arm-none-eabi/6.3.1/../../../../arm-none-eabi/lib/thumb/v7e-m/fpv4-sp/hard\libg_nano.a(lib_a-reent.o)
 .text.cleanup_glue
                0x00000000       0x1a c:/mesh/arm_gcc/bin/../lib/gcc/arm-none-eabi/6.3.1/../../../../arm-none-eabi/lib/thumb/v7e-m/fpv4-sp/hard\libg_nano.a(lib_a-reent.o)
 .text._reclaim_reent
                0x00000000       0xb8 c:/mesh/arm_gcc/bin/../lib/gcc/arm-none-eabi/6.3.1/../../../../arm-none-eabi/lib/thumb/v7e-m/fpv4-sp/hard\libg_nano.a(lib_a-reent.o)
 .text          0x00000000        0x0 c:/mesh/arm_gcc/bin/../lib/gcc/arm-none-eabi/6.3.1/../../../../arm-none-eabi/lib/thumb/v7e-m/fpv4-sp/hard\libg_nano.a(lib_a-strchr.o)
 .data          0x00000000        0x0 c:/mesh/arm_gcc/bin/../lib/gcc/arm-none-eabi/6.3.1/../../../../arm-none-eabi/lib/thumb/v7e-m/fpv4-sp/hard\libg_nano.a(lib_a-strchr.o)
 .bss           0x00000000        0x0 c:/mesh/arm_gcc/bin/../lib/gcc/arm-none-eabi/6.3.1/../../../../arm-none-eabi/lib/thumb/v7e-m/fpv4-sp/hard\libg_nano.a(lib_a-strchr.o)
 .data          0x00000000        0x0 c:/mesh/arm_gcc/bin/../lib/gcc/arm-none-eabi/6.3.1/../../../../arm-none-eabi/lib/thumb/v7e-m/fpv4-sp/hard\libg_nano.a(lib_a-memchr.o)
 .bss           0x00000000        0x0 c:/mesh/arm_gcc/bin/../lib/gcc/arm-none-eabi/6.3.1/../../../../arm-none-eabi/lib/thumb/v7e-m/fpv4-sp/hard\libg_nano.a(lib_a-memchr.o)
 .text          0x00000000        0x0 c:/mesh/arm_gcc/bin/../lib/gcc/arm-none-eabi/6.3.1/../../../../arm-none-eabi/lib/thumb/v7e-m/fpv4-sp/hard\libg_nano.a(lib_a-memmove.o)
 .data          0x00000000        0x0 c:/mesh/arm_gcc/bin/../lib/gcc/arm-none-eabi/6.3.1/../../../../arm-none-eabi/lib/thumb/v7e-m/fpv4-sp/hard\libg_nano.a(lib_a-memmove.o)
 .bss           0x00000000        0x0 c:/mesh/arm_gcc/bin/../lib/gcc/arm-none-eabi/6.3.1/../../../../arm-none-eabi/lib/thumb/v7e-m/fpv4-sp/hard\libg_nano.a(lib_a-memmove.o)
 .text          0x00000000        0x0 c:/mesh/arm_gcc/bin/../lib/gcc/arm-none-eabi/6.3.1/../../../../arm-none-eabi/lib/thumb/v7e-m/fpv4-sp/hard\libg_nano.a(lib_a-nano-reallocr.o)
 .data          0x00000000        0x0 c:/mesh/arm_gcc/bin/../lib/gcc/arm-none-eabi/6.3.1/../../../../arm-none-eabi/lib/thumb/v7e-m/fpv4-sp/hard\libg_nano.a(lib_a-nano-reallocr.o)
 .bss           0x00000000        0x0 c:/mesh/arm_gcc/bin/../lib/gcc/arm-none-eabi/6.3.1/../../../../arm-none-eabi/lib/thumb/v7e-m/fpv4-sp/hard\libg_nano.a(lib_a-nano-reallocr.o)
 .text          0x00000000        0x0 c:/mesh/arm_gcc/bin/../lib/gcc/arm-none-eabi/6.3.1/../../../../arm-none-eabi/lib/thumb/v7e-m/fpv4-sp/hard\libg_nano.a(lib_a-nano-msizer.o)
 .data          0x00000000        0x0 c:/mesh/arm_gcc/bin/../lib/gcc/arm-none-eabi/6.3.1/../../../../arm-none-eabi/lib/thumb/v7e-m/fpv4-sp/hard\libg_nano.a(lib_a-nano-msizer.o)
 .bss           0x00000000        0x0 c:/mesh/arm_gcc/bin/../lib/gcc/arm-none-eabi/6.3.1/../../../../arm-none-eabi/lib/thumb/v7e-m/fpv4-sp/hard\libg_nano.a(lib_a-nano-msizer.o)
 .text          0x00000000        0x0 c:/mesh/arm_gcc/bin/../lib/gcc/arm-none-eabi/6.3.1/thumb/v7e-m/fpv4-sp/hard/crtend.o
 .data          0x00000000        0x0 c:/mesh/arm_gcc/bin/../lib/gcc/arm-none-eabi/6.3.1/thumb/v7e-m/fpv4-sp/hard/crtend.o
 .bss           0x00000000        0x0 c:/mesh/arm_gcc/bin/../lib/gcc/arm-none-eabi/6.3.1/thumb/v7e-m/fpv4-sp/hard/crtend.o
 .text          0x00000000        0x0 c:/mesh/arm_gcc/bin/../lib/gcc/arm-none-eabi/6.3.1/thumb/v7e-m/fpv4-sp/hard/crtn.o
 .data          0x00000000        0x0 c:/mesh/arm_gcc/bin/../lib/gcc/arm-none-eabi/6.3.1/thumb/v7e-m/fpv4-sp/hard/crtn.o
 .bss           0x00000000        0x0 c:/mesh/arm_gcc/bin/../lib/gcc/arm-none-eabi/6.3.1/thumb/v7e-m/fpv4-sp/hard/crtn.o
 .text          0x00000000        0x0 c:/mesh/arm_gcc/bin/../lib/gcc/arm-none-eabi/6.3.1/../../../../arm-none-eabi/lib/thumb/v7e-m/fpv4-sp/hard\libnosys.a(sbrk.o)
 .data          0x00000000        0x0 c:/mesh/arm_gcc/bin/../lib/gcc/arm-none-eabi/6.3.1/../../../../arm-none-eabi/lib/thumb/v7e-m/fpv4-sp/hard\libnosys.a(sbrk.o)
 .bss           0x00000000        0x0 c:/mesh/arm_gcc/bin/../lib/gcc/arm-none-eabi/6.3.1/../../../../arm-none-eabi/lib/thumb/v7e-m/fpv4-sp/hard\libnosys.a(sbrk.o)
 .text          0x00000000        0x0 c:/mesh/arm_gcc/bin/../lib/gcc/arm-none-eabi/6.3.1/../../../../arm-none-eabi/lib/thumb/v7e-m/fpv4-sp/hard\libnosys.a(_exit.o)
 .data          0x00000000        0x0 c:/mesh/arm_gcc/bin/../lib/gcc/arm-none-eabi/6.3.1/../../../../arm-none-eabi/lib/thumb/v7e-m/fpv4-sp/hard\libnosys.a(_exit.o)
 .bss           0x00000000        0x0 c:/mesh/arm_gcc/bin/../lib/gcc/arm-none-eabi/6.3.1/../../../../arm-none-eabi/lib/thumb/v7e-m/fpv4-sp/hard\libnosys.a(_exit.o)

Memory Configuration

Name             Origin             Length             Attributes
FLASH            0x00026000         0x000d1000         xr
RAM              0x20002da0         0x0003cf60         xrw
*default*        0x00000000         0xffffffff

Linker script and memory map


.text           0x00026000    0x14038
 *(.isr_vector)
 .isr_vector    0x00026000      0x200 examples/beaconing/CMakeFiles/beaconing_nrf52840_xxAA_s140_6.0.0.dir/C_/b/nRF5_SDK_15.0.0_a53641a/modules/nrfx/mdk/gcc_startup_nrf52840.S.obj
                0x00026000                __isr_vector
 *(.text*)
 .text          0x00026200       0x6c c:/mesh/arm_gcc/bin/../lib/gcc/arm-none-eabi/6.3.1/thumb/v7e-m/fpv4-sp/hard/crtbegin.o
 .text          0x0002626c       0x74 c:/mesh/arm_gcc/bin/../lib/gcc/arm-none-eabi/6.3.1/../../../../arm-none-eabi/lib/thumb/v7e-m/fpv4-sp/hard/crt0.o
                0x0002626c                _start
                0x0002626c                _mainCRTStartup
 .text.sd_app_evt_wait
                0x000262e0        0x4 examples/beaconing/CMakeFiles/beaconing_nrf52840_xxAA_s140_6.0.0.dir/src/main.c.obj
 .text.provisioning_complete_cb
                0x000262e4       0xd0 examples/beaconing/CMakeFiles/beaconing_nrf52840_xxAA_s140_6.0.0.dir/src/main.c.obj
 .text.rx_cb    0x000263b4      0x120 examples/beaconing/CMakeFiles/beaconing_nrf52840_xxAA_s140_6.0.0.dir/src/main.c.obj
 .text.config_server_evt_cb
                0x000264d4       0x80 examples/beaconing/CMakeFiles/beaconing_nrf52840_xxAA_s140_6.0.0.dir/src/main.c.obj
 .text.startup.main
                0x00026554      0x278 examples/beaconing/CMakeFiles/beaconing_nrf52840_xxAA_s140_6.0.0.dir/src/main.c.obj
                0x00026554                main
 .text.mesh_evt_handler
                0x000267cc        0xe examples/beaconing/CMakeFiles/beaconing_nrf52840_xxAA_s140_6.0.0.dir/__/__/mesh/stack/src/mesh_stack.c.obj
 .text.mesh_stack_start
                0x000267da        0x4 examples/beaconing/CMakeFiles/beaconing_nrf52840_xxAA_s140_6.0.0.dir/__/__/mesh/stack/src/mesh_stack.c.obj
                0x000267da                mesh_stack_start
 .text.mesh_stack_provisioning_data_store
                0x000267de       0x6c examples/beaconing/CMakeFiles/beaconing_nrf52840_xxAA_s140_6.0.0.dir/__/__/mesh/stack/src/mesh_stack.c.obj
                0x000267de                mesh_stack_provisioning_data_store
 .text.mesh_stack_config_clear
                0x0002684a       0x12 examples/beaconing/CMakeFiles/beaconing_nrf52840_xxAA_s140_6.0.0.dir/__/__/mesh/stack/src/mesh_stack.c.obj
                0x0002684a                mesh_stack_config_clear
 .text.mesh_stack_is_device_provisioned
                0x0002685c       0x18 examples/beaconing/CMakeFiles/beaconing_nrf52840_xxAA_s140_6.0.0.dir/__/__/mesh/stack/src/mesh_stack.c.obj
                0x0002685c                mesh_stack_is_device_provisioned
 .text.mesh_stack_init
                0x00026874       0x60 examples/beaconing/CMakeFiles/beaconing_nrf52840_xxAA_s140_6.0.0.dir/__/__/mesh/stack/src/mesh_stack.c.obj
                0x00026874                mesh_stack_init
 .text.mesh_stack_device_reset
                0x000268d4       0x20 examples/beaconing/CMakeFiles/beaconing_nrf52840_xxAA_s140_6.0.0.dir/__/__/mesh/stack/src/mesh_stack.c.obj
                0x000268d4                mesh_stack_device_reset
 .text.sd_evt_get
                0x000268f4        0x4 examples/beaconing/CMakeFiles/beaconing_nrf52840_xxAA_s140_6.0.0.dir/__/common/src/mesh_softdevice_init.c.obj
 .text.sd_softdevice_enable
                0x000268f8        0x4 examples/beaconing/CMakeFiles/beaconing_nrf52840_xxAA_s140_6.0.0.dir/__/common/src/mesh_softdevice_init.c.obj
 .text.sd_ble_enable
                0x000268fc        0x4 examples/beaconing/CMakeFiles/beaconing_nrf52840_xxAA_s140_6.0.0.dir/__/common/src/mesh_softdevice_init.c.obj
 .text.sd_ble_cfg_set
                0x00026900        0x4 examples/beaconing/CMakeFiles/beaconing_nrf52840_xxAA_s140_6.0.0.dir/__/common/src/mesh_softdevice_init.c.obj
 .text.SWI2_EGU2_IRQHandler
                0x00026904       0x18 examples/beaconing/CMakeFiles/beaconing_nrf52840_xxAA_s140_6.0.0.dir/__/common/src/mesh_softdevice_init.c.obj
                0x00026904                SWI2_EGU2_IRQHandler
 .text.mesh_softdevice_init
                0x0002691c      0x1ac examples/beaconing/CMakeFiles/beaconing_nrf52840_xxAA_s140_6.0.0.dir/__/common/src/mesh_softdevice_init.c.obj
                0x0002691c                mesh_softdevice_init
 .text.provisionee_start
                0x00026ac8       0x18 examples/beaconing/CMakeFiles/beaconing_nrf52840_xxAA_s140_6.0.0.dir/__/common/src/mesh_provisionee.c.obj
 .text.prov_evt_handler
                0x00026ae0       0x64 examples/beaconing/CMakeFiles/beaconing_nrf52840_xxAA_s140_6.0.0.dir/__/common/src/mesh_provisionee.c.obj
 .text.mesh_provisionee_prov_start
                0x00026b44       0x78 examples/beaconing/CMakeFiles/beaconing_nrf52840_xxAA_s140_6.0.0.dir/__/common/src/mesh_provisionee.c.obj
                0x00026b44                mesh_provisionee_prov_start
 .text.led_timeout_handler
                0x00026bbc       0x40 examples/beaconing/CMakeFiles/beaconing_nrf52840_xxAA_s140_6.0.0.dir/__/common/src/simple_hal.c.obj
 .text.hal_led_mask_set
                0x00026bfc       0x12 examples/beaconing/CMakeFiles/beaconing_nrf52840_xxAA_s140_6.0.0.dir/__/common/src/simple_hal.c.obj
                0x00026bfc                hal_led_mask_set
 *fill*         0x00026c0e        0x2 
 .text.hal_led_blink_ms
                0x00026c10       0x5c examples/beaconing/CMakeFiles/beaconing_nrf52840_xxAA_s140_6.0.0.dir/__/common/src/simple_hal.c.obj
                0x00026c10                hal_led_blink_ms
 .text.hal_leds_init
                0x00026c6c       0x58 examples/beaconing/CMakeFiles/beaconing_nrf52840_xxAA_s140_6.0.0.dir/__/common/src/simple_hal.c.obj
                0x00026c6c                hal_leds_init
 .text.GPIOTE_IRQHandler
                0x00026cc4       0x60 examples/beaconing/CMakeFiles/beaconing_nrf52840_xxAA_s140_6.0.0.dir/__/common/src/simple_hal.c.obj
                0x00026cc4                GPIOTE_IRQHandler
 .text.add_to_publication_list
                0x00026d24       0x78 examples/beaconing/CMakeFiles/beaconing_nrf52840_xxAA_s140_6.0.0.dir/__/__/mesh/access/src/access_publish.c.obj
 .text.step_resolution_to_us
                0x00026d9c       0x38 examples/beaconing/CMakeFiles/beaconing_nrf52840_xxAA_s140_6.0.0.dir/__/__/mesh/access/src/access_publish.c.obj
 .text.schedule_publication_timer
                0x00026dd4      0x184 examples/beaconing/CMakeFiles/beaconing_nrf52840_xxAA_s140_6.0.0.dir/__/__/mesh/access/src/access_publish.c.obj
 .text.publish_timer_tick
                0x00026f58       0xa8 examples/beaconing/CMakeFiles/beaconing_nrf52840_xxAA_s140_6.0.0.dir/__/__/mesh/access/src/access_publish.c.obj
 .text.access_publish_init
                0x00027000       0x38 examples/beaconing/CMakeFiles/beaconing_nrf52840_xxAA_s140_6.0.0.dir/__/__/mesh/access/src/access_publish.c.obj
                0x00027000                access_publish_init
 .text.access_publish_period_set
                0x00027038       0x60 examples/beaconing/CMakeFiles/beaconing_nrf52840_xxAA_s140_6.0.0.dir/__/__/mesh/access/src/access_publish.c.obj
                0x00027038                access_publish_period_set
 .text.access_publish_period_get
                0x00027098       0x22 examples/beaconing/CMakeFiles/beaconing_nrf52840_xxAA_s140_6.0.0.dir/__/__/mesh/access/src/access_publish.c.obj
                0x00027098                access_publish_period_get
 .text.bitfield_get
                0x000270ba       0x1a examples/beaconing/CMakeFiles/beaconing_nrf52840_xxAA_s140_6.0.0.dir/__/__/mesh/access/src/access.c.obj
 .text.is_valid_opcode
                0x000270d4       0x42 examples/beaconing/CMakeFiles/beaconing_nrf52840_xxAA_s140_6.0.0.dir/__/__/mesh/access/src/access.c.obj
 *fill*         0x00027116        0x2 
 .text.model_handle_valid_and_allocated
                0x00027118       0x20 examples/beaconing/CMakeFiles/beaconing_nrf52840_xxAA_s140_6.0.0.dir/__/__/mesh/access/src/access.c.obj
 .text.flash_manager_mem_available
                0x00027138        0x2 examples/beaconing/CMakeFiles/beaconing_nrf52840_xxAA_s140_6.0.0.dir/__/__/mesh/access/src/access.c.obj
 *fill*         0x0002713a        0x2 
 .text.restore_acquired_subscription
                0x0002713c       0x30 examples/beaconing/CMakeFiles/beaconing_nrf52840_xxAA_s140_6.0.0.dir/__/__/mesh/access/src/access.c.obj
 .text.restore_acquired_element
                0x0002716c       0x1c examples/beaconing/CMakeFiles/beaconing_nrf52840_xxAA_s140_6.0.0.dir/__/__/mesh/access/src/access.c.obj
 .text.restore_flash_data
                0x00027188       0x50 examples/beaconing/CMakeFiles/beaconing_nrf52840_xxAA_s140_6.0.0.dir/__/__/mesh/access/src/access.c.obj
 .text.flash_invalidate_complete
                0x000271d8        0x6 examples/beaconing/CMakeFiles/beaconing_nrf52840_xxAA_s140_6.0.0.dir/__/__/mesh/access/src/access.c.obj
 *fill*         0x000271de        0x2 
 .text.access_flash_config_clear
                0x000271e0       0x28 examples/beaconing/CMakeFiles/beaconing_nrf52840_xxAA_s140_6.0.0.dir/__/__/mesh/access/src/access.c.obj
 .text.access_flash_config_store
                0x00027208      0x14c examples/beaconing/CMakeFiles/beaconing_nrf52840_xxAA_s140_6.0.0.dir/__/__/mesh/access/src/access.c.obj
                0x00027208                access_flash_config_store
 .text.access_state_clear
                0x00027354       0x4c examples/beaconing/CMakeFiles/beaconing_nrf52840_xxAA_s140_6.0.0.dir/__/__/mesh/access/src/access.c.obj
 .text.add_flash_manager
                0x000273a0       0x58 examples/beaconing/CMakeFiles/beaconing_nrf52840_xxAA_s140_6.0.0.dir/__/__/mesh/access/src/access.c.obj
 .text.flash_remove_complete
                0x000273f8       0x5c examples/beaconing/CMakeFiles/beaconing_nrf52840_xxAA_s140_6.0.0.dir/__/__/mesh/access/src/access.c.obj
 .text.flash_write_complete
                0x00027454       0x46 examples/beaconing/CMakeFiles/beaconing_nrf52840_xxAA_s140_6.0.0.dir/__/__/mesh/access/src/access.c.obj
 *fill*         0x0002749a        0x2 
 .text.unlikely.bitfield_next_get.part.0.constprop.5
                0x0002749c       0x34 examples/beaconing/CMakeFiles/beaconing_nrf52840_xxAA_s140_6.0.0.dir/__/__/mesh/access/src/access.c.obj
 .text.packet_tx
                0x000274d0      0x31c examples/beaconing/CMakeFiles/beaconing_nrf52840_xxAA_s140_6.0.0.dir/__/__/mesh/access/src/access.c.obj
 .text.restore_acquired_model
                0x000277ec       0x94 examples/beaconing/CMakeFiles/beaconing_nrf52840_xxAA_s140_6.0.0.dir/__/__/mesh/access/src/access.c.obj
 .text.access_flash_config_load
                0x00027880      0x118 examples/beaconing/CMakeFiles/beaconing_nrf52840_xxAA_s140_6.0.0.dir/__/__/mesh/access/src/access.c.obj
                0x00027880                access_flash_config_load
 .text.access_incoming_handle
                0x00027998      0x104 examples/beaconing/CMakeFiles/beaconing_nrf52840_xxAA_s140_6.0.0.dir/__/__/mesh/access/src/access.c.obj
                0x00027998                access_incoming_handle
 .text.mesh_evt_cb
                0x00027a9c      0x134 examples/beaconing/CMakeFiles/beaconing_nrf52840_xxAA_s140_6.0.0.dir/__/__/mesh/access/src/access.c.obj
 .text.access_clear
                0x00027bd0       0x12 examples/beaconing/CMakeFiles/beaconing_nrf52840_xxAA_s140_6.0.0.dir/__/__/mesh/access/src/access.c.obj
                0x00027bd0                access_clear
 *fill*         0x00027be2        0x2 
 .text.access_init
                0x00027be4       0x2c examples/beaconing/CMakeFiles/beaconing_nrf52840_xxAA_s140_6.0.0.dir/__/__/mesh/access/src/access.c.obj
                0x00027be4                access_init
 .text.access_model_add
                0x00027c10      0x1b4 examples/beaconing/CMakeFiles/beaconing_nrf52840_xxAA_s140_6.0.0.dir/__/__/mesh/access/src/access.c.obj
                0x00027c10                access_model_add
 .text.access_model_publish
                0x00027dc4        0xc examples/beaconing/CMakeFiles/beaconing_nrf52840_xxAA_s140_6.0.0.dir/__/__/mesh/access/src/access.c.obj
                0x00027dc4                access_model_publish
 .text.access_model_reply
                0x00027dd0       0x12 examples/beaconing/CMakeFiles/beaconing_nrf52840_xxAA_s140_6.0.0.dir/__/__/mesh/access/src/access.c.obj
                0x00027dd0                access_model_reply
 *fill*         0x00027de2        0x2 
 .text.access_model_publish_address_set
                0x00027de4       0x3c examples/beaconing/CMakeFiles/beaconing_nrf52840_xxAA_s140_6.0.0.dir/__/__/mesh/access/src/access.c.obj
                0x00027de4                access_model_publish_address_set
 .text.access_model_publish_address_get
                0x00027e20       0x28 examples/beaconing/CMakeFiles/beaconing_nrf52840_xxAA_s140_6.0.0.dir/__/__/mesh/access/src/access.c.obj
                0x00027e20                access_model_publish_address_get
 .text.access_model_publish_retransmit_set
                0x00027e48       0x4c examples/beaconing/CMakeFiles/beaconing_nrf52840_xxAA_s140_6.0.0.dir/__/__/mesh/access/src/access.c.obj
                0x00027e48                access_model_publish_retransmit_set
 .text.access_model_publish_retransmit_get
                0x00027e94       0x2c examples/beaconing/CMakeFiles/beaconing_nrf52840_xxAA_s140_6.0.0.dir/__/__/mesh/access/src/access.c.obj
                0x00027e94                access_model_publish_retransmit_get
 .text.access_model_publish_period_set
                0x00027ec0       0x6c examples/beaconing/CMakeFiles/beaconing_nrf52840_xxAA_s140_6.0.0.dir/__/__/mesh/access/src/access.c.obj
                0x00027ec0                access_model_publish_period_set
 .text.access_model_publish_period_get
                0x00027f2c       0x3c examples/beaconing/CMakeFiles/beaconing_nrf52840_xxAA_s140_6.0.0.dir/__/__/mesh/access/src/access.c.obj
                0x00027f2c                access_model_publish_period_get
 .text.access_model_subscription_add
                0x00027f68       0x60 examples/beaconing/CMakeFiles/beaconing_nrf52840_xxAA_s140_6.0.0.dir/__/__/mesh/access/src/access.c.obj
                0x00027f68                access_model_subscription_add
 .text.access_model_subscription_remove
                0x00027fc8       0x60 examples/beaconing/CMakeFiles/beaconing_nrf52840_xxAA_s140_6.0.0.dir/__/__/mesh/access/src/access.c.obj
                0x00027fc8                access_model_subscription_remove
 .text.access_model_subscriptions_get
                0x00028028       0x80 examples/beaconing/CMakeFiles/beaconing_nrf52840_xxAA_s140_6.0.0.dir/__/__/mesh/access/src/access.c.obj
                0x00028028                access_model_subscriptions_get
 .text.access_model_application_bind
                0x000280a8       0x50 examples/beaconing/CMakeFiles/beaconing_nrf52840_xxAA_s140_6.0.0.dir/__/__/mesh/access/src/access.c.obj
                0x000280a8                access_model_application_bind
 .text.access_model_application_unbind
                0x000280f8       0x50 examples/beaconing/CMakeFiles/beaconing_nrf52840_xxAA_s140_6.0.0.dir/__/__/mesh/access/src/access.c.obj
                0x000280f8                access_model_application_unbind
 .text.access_model_applications_get
                0x00028148       0x64 examples/beaconing/CMakeFiles/beaconing_nrf52840_xxAA_s140_6.0.0.dir/__/__/mesh/access/src/access.c.obj
                0x00028148                access_model_applications_get
 .text.access_model_publish_application_set
                0x000281ac       0x3c examples/beaconing/CMakeFiles/beaconing_nrf52840_xxAA_s140_6.0.0.dir/__/__/mesh/access/src/access.c.obj
                0x000281ac                access_model_publish_application_set
 .text.access_model_publish_application_get
                0x000281e8       0x28 examples/beaconing/CMakeFiles/beaconing_nrf52840_xxAA_s140_6.0.0.dir/__/__/mesh/access/src/access.c.obj
                0x000281e8                access_model_publish_application_get
 .text.access_default_ttl_set
                0x00028210       0x18 examples/beaconing/CMakeFiles/beaconing_nrf52840_xxAA_s140_6.0.0.dir/__/__/mesh/access/src/access.c.obj
                0x00028210                access_default_ttl_set
 .text.access_default_ttl_get
                0x00028228        0xc examples/beaconing/CMakeFiles/beaconing_nrf52840_xxAA_s140_6.0.0.dir/__/__/mesh/access/src/access.c.obj
                0x00028228                access_default_ttl_get
 .text.access_model_publish_ttl_set
                0x00028234       0x40 examples/beaconing/CMakeFiles/beaconing_nrf52840_xxAA_s140_6.0.0.dir/__/__/mesh/access/src/access.c.obj
                0x00028234                access_model_publish_ttl_set
 .text.access_model_publish_ttl_get
                0x00028274       0x28 examples/beaconing/CMakeFiles/beaconing_nrf52840_xxAA_s140_6.0.0.dir/__/__/mesh/access/src/access.c.obj
                0x00028274                access_model_publish_ttl_get
 .text.access_element_location_get
                0x0002829c       0x18 examples/beaconing/CMakeFiles/beaconing_nrf52840_xxAA_s140_6.0.0.dir/__/__/mesh/access/src/access.c.obj
                0x0002829c                access_element_location_get
 .text.access_element_sig_model_count_get
                0x000282b4       0x18 examples/beaconing/CMakeFiles/beaconing_nrf52840_xxAA_s140_6.0.0.dir/__/__/mesh/access/src/access.c.obj
                0x000282b4                access_element_sig_model_count_get
 .text.access_element_vendor_model_count_get
                0x000282cc       0x18 examples/beaconing/CMakeFiles/beaconing_nrf52840_xxAA_s140_6.0.0.dir/__/__/mesh/access/src/access.c.obj
                0x000282cc                access_element_vendor_model_count_get
 .text.access_model_id_get
                0x000282e4       0x2c examples/beaconing/CMakeFiles/beaconing_nrf52840_xxAA_s140_6.0.0.dir/__/__/mesh/access/src/access.c.obj
                0x000282e4                access_model_id_get
 .text.access_handle_get
                0x00028310       0x54 examples/beaconing/CMakeFiles/beaconing_nrf52840_xxAA_s140_6.0.0.dir/__/__/mesh/access/src/access.c.obj
                0x00028310                access_handle_get
 .text.access_element_models_get
                0x00028364       0x48 examples/beaconing/CMakeFiles/beaconing_nrf52840_xxAA_s140_6.0.0.dir/__/__/mesh/access/src/access.c.obj
                0x00028364                access_element_models_get
 .text.access_model_p_args_get
                0x000283ac       0x28 examples/beaconing/CMakeFiles/beaconing_nrf52840_xxAA_s140_6.0.0.dir/__/__/mesh/access/src/access.c.obj
                0x000283ac                access_model_p_args_get
 .text.access_model_publication_stop
                0x000283d4       0x70 examples/beaconing/CMakeFiles/beaconing_nrf52840_xxAA_s140_6.0.0.dir/__/__/mesh/access/src/access.c.obj
                0x000283d4                access_model_publication_stop
 .text.access_model_publication_by_appkey_stop
                0x00028444       0x36 examples/beaconing/CMakeFiles/beaconing_nrf52840_xxAA_s140_6.0.0.dir/__/__/mesh/access/src/access.c.obj
                0x00028444                access_model_publication_by_appkey_stop
 *fill*         0x0002847a        0x2 
 .text.reliable_timer_cb
                0x0002847c      0x11c examples/beaconing/CMakeFiles/beaconing_nrf52840_xxAA_s140_6.0.0.dir/__/__/mesh/access/src/access_reliable.c.obj
 .text.remove_and_reschedule
                0x00028598       0xb8 examples/beaconing/CMakeFiles/beaconing_nrf52840_xxAA_s140_6.0.0.dir/__/__/mesh/access/src/access_reliable.c.obj
 .text.access_reliable_message_rx_cb
                0x00028650       0x68 examples/beaconing/CMakeFiles/beaconing_nrf52840_xxAA_s140_6.0.0.dir/__/__/mesh/access/src/access_reliable.c.obj
                0x00028650                access_reliable_message_rx_cb
 .text.access_reliable_init
                0x000286b8       0x1c examples/beaconing/CMakeFiles/beaconing_nrf52840_xxAA_s140_6.0.0.dir/__/__/mesh/access/src/access_reliable.c.obj
                0x000286b8                access_reliable_init
 .text.access_reliable_cancel_all
                0x000286d4       0x60 examples/beaconing/CMakeFiles/beaconing_nrf52840_xxAA_s140_6.0.0.dir/__/__/mesh/access/src/access_reliable.c.obj
                0x000286d4                access_reliable_cancel_all
 .text.access_model_reliable_cancel
                0x00028734       0x6c examples/beaconing/CMakeFiles/beaconing_nrf52840_xxAA_s140_6.0.0.dir/__/__/mesh/access/src/access_reliable.c.obj
                0x00028734                access_model_reliable_cancel
 .text.access_loopback_process
                0x000287a0       0x28 examples/beaconing/CMakeFiles/beaconing_nrf52840_xxAA_s140_6.0.0.dir/__/__/mesh/access/src/access_loopback.c.obj
 .text.is_access_loopback
                0x000287c8        0x4 examples/beaconing/CMakeFiles/beaconing_nrf52840_xxAA_s140_6.0.0.dir/__/__/mesh/access/src/access_loopback.c.obj
                0x000287c8                is_access_loopback
 .text.access_loopback_init
                0x000287cc       0x18 examples/beaconing/CMakeFiles/beaconing_nrf52840_xxAA_s140_6.0.0.dir/__/__/mesh/access/src/access_loopback.c.obj
                0x000287cc                access_loopback_init
 .text.access_loopback_handle
                0x000287e4       0x80 examples/beaconing/CMakeFiles/beaconing_nrf52840_xxAA_s140_6.0.0.dir/__/__/mesh/access/src/access_loopback.c.obj
                0x000287e4                access_loopback_handle
 .text.bitfield_get
                0x00028864       0x1a examples/beaconing/CMakeFiles/beaconing_nrf52840_xxAA_s140_6.0.0.dir/__/__/mesh/access/src/device_state_manager.c.obj
 .text.bitfield_set
                0x0002887e       0x18 examples/beaconing/CMakeFiles/beaconing_nrf52840_xxAA_s140_6.0.0.dir/__/__/mesh/access/src/device_state_manager.c.obj
 .text.bitfield_clear
                0x00028896       0x1a examples/beaconing/CMakeFiles/beaconing_nrf52840_xxAA_s140_6.0.0.dir/__/__/mesh/access/src/device_state_manager.c.obj
 .text.bitfield_is_all_clear
                0x000288b0       0x3c examples/beaconing/CMakeFiles/beaconing_nrf52840_xxAA_s140_6.0.0.dir/__/__/mesh/access/src/device_state_manager.c.obj
 .text.address_handle_virtual_valid
                0x000288ec       0x18 examples/beaconing/CMakeFiles/beaconing_nrf52840_xxAA_s140_6.0.0.dir/__/__/mesh/access/src/device_state_manager.c.obj
 .text.net_key_handle_get
                0x00028904       0x58 examples/beaconing/CMakeFiles/beaconing_nrf52840_xxAA_s140_6.0.0.dir/__/__/mesh/access/src/device_state_manager.c.obj
 .text.dev_key_handle_get
                0x0002895c       0x30 examples/beaconing/CMakeFiles/beaconing_nrf52840_xxAA_s140_6.0.0.dir/__/__/mesh/access/src/device_state_manager.c.obj
 .text.app_key_handle_get
                0x0002898c       0x58 examples/beaconing/CMakeFiles/beaconing_nrf52840_xxAA_s140_6.0.0.dir/__/__/mesh/access/src/device_state_manager.c.obj
 .text.addr_nonvirtual_to_flash_entry
                0x000289e4       0x10 examples/beaconing/CMakeFiles/beaconing_nrf52840_xxAA_s140_6.0.0.dir/__/__/mesh/access/src/device_state_manager.c.obj
 .text.devkey_set
                0x000289f4       0x50 examples/beaconing/CMakeFiles/beaconing_nrf52840_xxAA_s140_6.0.0.dir/__/__/mesh/access/src/device_state_manager.c.obj
 .text.devkey_to_dsm_entry
                0x00028a44       0x18 examples/beaconing/CMakeFiles/beaconing_nrf52840_xxAA_s140_6.0.0.dir/__/__/mesh/access/src/device_state_manager.c.obj
 .text.devkey_to_flash_entry
                0x00028a5c       0x28 examples/beaconing/CMakeFiles/beaconing_nrf52840_xxAA_s140_6.0.0.dir/__/__/mesh/access/src/device_state_manager.c.obj
 .text.addr_virtual_to_flash_entry
                0x00028a84       0x18 examples/beaconing/CMakeFiles/beaconing_nrf52840_xxAA_s140_6.0.0.dir/__/__/mesh/access/src/device_state_manager.c.obj
 .text.addr_unicast_to_dsm_entry
                0x00028a9c        0xc examples/beaconing/CMakeFiles/beaconing_nrf52840_xxAA_s140_6.0.0.dir/__/__/mesh/access/src/device_state_manager.c.obj
 .text.addr_unicast_to_flash_entry
                0x00028aa8       0x10 examples/beaconing/CMakeFiles/beaconing_nrf52840_xxAA_s140_6.0.0.dir/__/__/mesh/access/src/device_state_manager.c.obj
 .text.flash_mem_listener_callback
                0x00028ab8       0x14 examples/beaconing/CMakeFiles/beaconing_nrf52840_xxAA_s140_6.0.0.dir/__/__/mesh/access/src/device_state_manager.c.obj
 .text.get_subnet_handle
                0x00028acc       0x40 examples/beaconing/CMakeFiles/beaconing_nrf52840_xxAA_s140_6.0.0.dir/__/__/mesh/access/src/device_state_manager.c.obj
 .text.appkey_set
                0x00028b0c       0x70 examples/beaconing/CMakeFiles/beaconing_nrf52840_xxAA_s140_6.0.0.dir/__/__/mesh/access/src/device_state_manager.c.obj
 .text.appkey_to_flash_entry
                0x00028b7c       0x54 examples/beaconing/CMakeFiles/beaconing_nrf52840_xxAA_s140_6.0.0.dir/__/__/mesh/access/src/device_state_manager.c.obj
 .text.subnet_to_flash_entry
                0x00028bd0       0x60 examples/beaconing/CMakeFiles/beaconing_nrf52840_xxAA_s140_6.0.0.dir/__/__/mesh/access/src/device_state_manager.c.obj
 .text.bitfield_clear_all
                0x00028c30        0xe examples/beaconing/CMakeFiles/beaconing_nrf52840_xxAA_s140_6.0.0.dir/__/__/mesh/access/src/device_state_manager.c.obj
 *fill*         0x00028c3e        0x2 
 .text.subnet_set
                0x00028c40       0x98 examples/beaconing/CMakeFiles/beaconing_nrf52840_xxAA_s140_6.0.0.dir/__/__/mesh/access/src/device_state_manager.c.obj
 .text.virtual_address_set
                0x00028cd8       0x4c examples/beaconing/CMakeFiles/beaconing_nrf52840_xxAA_s140_6.0.0.dir/__/__/mesh/access/src/device_state_manager.c.obj
 .text.addr_virtual_to_dsm_entry
                0x00028d24        0xe examples/beaconing/CMakeFiles/beaconing_nrf52840_xxAA_s140_6.0.0.dir/__/__/mesh/access/src/device_state_manager.c.obj
 *fill*         0x00028d32        0x2 
 .text.reset_flash_area
                0x00028d34       0x28 examples/beaconing/CMakeFiles/beaconing_nrf52840_xxAA_s140_6.0.0.dir/__/__/mesh/access/src/device_state_manager.c.obj
 .text.flash_save
                0x00028d5c       0x7c examples/beaconing/CMakeFiles/beaconing_nrf52840_xxAA_s140_6.0.0.dir/__/__/mesh/access/src/device_state_manager.c.obj
 .text.flash_invalidate
                0x00028dd8       0x64 examples/beaconing/CMakeFiles/beaconing_nrf52840_xxAA_s140_6.0.0.dir/__/__/mesh/access/src/device_state_manager.c.obj
 .text.flash_update_all
                0x00028e3c       0x6c examples/beaconing/CMakeFiles/beaconing_nrf52840_xxAA_s140_6.0.0.dir/__/__/mesh/access/src/device_state_manager.c.obj
 .text.virtual_address_uuid_index_get
                0x00028ea8       0x60 examples/beaconing/CMakeFiles/beaconing_nrf52840_xxAA_s140_6.0.0.dir/__/__/mesh/access/src/device_state_manager.c.obj
 .text.add_address_virtual
                0x00028f08       0x74 examples/beaconing/CMakeFiles/beaconing_nrf52840_xxAA_s140_6.0.0.dir/__/__/mesh/access/src/device_state_manager.c.obj
 .text.get_subnet_handle_by_beacon_info
                0x00028f7c       0x30 examples/beaconing/CMakeFiles/beaconing_nrf52840_xxAA_s140_6.0.0.dir/__/__/mesh/access/src/device_state_manager.c.obj
 .text.get_app_handle
                0x00028fac       0x44 examples/beaconing/CMakeFiles/beaconing_nrf52840_xxAA_s140_6.0.0.dir/__/__/mesh/access/src/device_state_manager.c.obj
 .text.appkey_to_dsm_entry
                0x00028ff0       0x68 examples/beaconing/CMakeFiles/beaconing_nrf52840_xxAA_s140_6.0.0.dir/__/__/mesh/access/src/device_state_manager.c.obj
 .text.subnet_to_dsm_entry
                0x00029058       0x68 examples/beaconing/CMakeFiles/beaconing_nrf52840_xxAA_s140_6.0.0.dir/__/__/mesh/access/src/device_state_manager.c.obj
 .text.flash_operation_complete
                0x000290c0       0x4c examples/beaconing/CMakeFiles/beaconing_nrf52840_xxAA_s140_6.0.0.dir/__/__/mesh/access/src/device_state_manager.c.obj
 .text.flash_invalidate_complete
                0x0002910c        0x8 examples/beaconing/CMakeFiles/beaconing_nrf52840_xxAA_s140_6.0.0.dir/__/__/mesh/access/src/device_state_manager.c.obj
 .text.flash_write_complete
                0x00029114        0x8 examples/beaconing/CMakeFiles/beaconing_nrf52840_xxAA_s140_6.0.0.dir/__/__/mesh/access/src/device_state_manager.c.obj
 .text.add_address.part.8
                0x0002911c      0x164 examples/beaconing/CMakeFiles/beaconing_nrf52840_xxAA_s140_6.0.0.dir/__/__/mesh/access/src/device_state_manager.c.obj
 .text.bitfield_next_get.part.0.constprop.17
                0x00029280       0x3c examples/beaconing/CMakeFiles/beaconing_nrf52840_xxAA_s140_6.0.0.dir/__/__/mesh/access/src/device_state_manager.c.obj
 .text.address_handle_valid
                0x000292bc       0x28 examples/beaconing/CMakeFiles/beaconing_nrf52840_xxAA_s140_6.0.0.dir/__/__/mesh/access/src/device_state_manager.c.obj
 .text.address_handle_nonvirtual_valid
                0x000292e4       0x14 examples/beaconing/CMakeFiles/beaconing_nrf52840_xxAA_s140_6.0.0.dir/__/__/mesh/access/src/device_state_manager.c.obj
 .text.address_delete_if_unused
                0x000292f8       0x78 examples/beaconing/CMakeFiles/beaconing_nrf52840_xxAA_s140_6.0.0.dir/__/__/mesh/access/src/device_state_manager.c.obj
 .text.addr_nonvirtual_to_dsm_entry
                0x00029370       0x38 examples/beaconing/CMakeFiles/beaconing_nrf52840_xxAA_s140_6.0.0.dir/__/__/mesh/access/src/device_state_manager.c.obj
 .text.dsm_flash_config_load
                0x000293a8      0x120 examples/beaconing/CMakeFiles/beaconing_nrf52840_xxAA_s140_6.0.0.dir/__/__/mesh/access/src/device_state_manager.c.obj
                0x000293a8                dsm_flash_config_load
 .text.dsm_flash_area_get
                0x000294c8        0xc examples/beaconing/CMakeFiles/beaconing_nrf52840_xxAA_s140_6.0.0.dir/__/__/mesh/access/src/device_state_manager.c.obj
                0x000294c8                dsm_flash_area_get
 .text.build_flash_area
                0x000294d4       0x8c examples/beaconing/CMakeFiles/beaconing_nrf52840_xxAA_s140_6.0.0.dir/__/__/mesh/access/src/device_state_manager.c.obj
 .text.flash_remove_complete
                0x00029560        0x4 examples/beaconing/CMakeFiles/beaconing_nrf52840_xxAA_s140_6.0.0.dir/__/__/mesh/access/src/device_state_manager.c.obj
 .text.dsm_clear
                0x00029564       0xb4 examples/beaconing/CMakeFiles/beaconing_nrf52840_xxAA_s140_6.0.0.dir/__/__/mesh/access/src/device_state_manager.c.obj
                0x00029564                dsm_clear
 .text.dsm_init
                0x00029618       0x3c examples/beaconing/CMakeFiles/beaconing_nrf52840_xxAA_s140_6.0.0.dir/__/__/mesh/access/src/device_state_manager.c.obj
                0x00029618                dsm_init
 .text.dsm_local_unicast_addresses_set
                0x00029654       0x78 examples/beaconing/CMakeFiles/beaconing_nrf52840_xxAA_s140_6.0.0.dir/__/__/mesh/access/src/device_state_manager.c.obj
                0x00029654                dsm_local_unicast_addresses_set
 .text.dsm_local_unicast_addresses_get
                0x000296cc       0x20 examples/beaconing/CMakeFiles/beaconing_nrf52840_xxAA_s140_6.0.0.dir/__/__/mesh/access/src/device_state_manager.c.obj
                0x000296cc                dsm_local_unicast_addresses_get
 .text.dsm_address_publish_add
                0x000296ec        0xc examples/beaconing/CMakeFiles/beaconing_nrf52840_xxAA_s140_6.0.0.dir/__/__/mesh/access/src/device_state_manager.c.obj
                0x000296ec                dsm_address_publish_add
 .text.dsm_address_publish_add_handle
                0x000296f8       0x38 examples/beaconing/CMakeFiles/beaconing_nrf52840_xxAA_s140_6.0.0.dir/__/__/mesh/access/src/device_state_manager.c.obj
                0x000296f8                dsm_address_publish_add_handle
 .text.dsm_address_publish_virtual_add
                0x00029730        0x6 examples/beaconing/CMakeFiles/beaconing_nrf52840_xxAA_s140_6.0.0.dir/__/__/mesh/access/src/device_state_manager.c.obj
                0x00029730                dsm_address_publish_virtual_add
 *fill*         0x00029736        0x2 
 .text.dsm_address_publish_remove
                0x00029738       0x44 examples/beaconing/CMakeFiles/beaconing_nrf52840_xxAA_s140_6.0.0.dir/__/__/mesh/access/src/device_state_manager.c.obj
                0x00029738                dsm_address_publish_remove
 .text.dsm_address_subscription_add
                0x0002977c        0xc examples/beaconing/CMakeFiles/beaconing_nrf52840_xxAA_s140_6.0.0.dir/__/__/mesh/access/src/device_state_manager.c.obj
                0x0002977c                dsm_address_subscription_add
 .text.dsm_address_subscription_virtual_add
                0x00029788        0x6 examples/beaconing/CMakeFiles/beaconing_nrf52840_xxAA_s140_6.0.0.dir/__/__/mesh/access/src/device_state_manager.c.obj
                0x00029788                dsm_address_subscription_virtual_add
 *fill*         0x0002978e        0x2 
 .text.dsm_address_subscription_add_handle
                0x00029790       0x38 examples/beaconing/CMakeFiles/beaconing_nrf52840_xxAA_s140_6.0.0.dir/__/__/mesh/access/src/device_state_manager.c.obj
                0x00029790                dsm_address_subscription_add_handle
 .text.dsm_address_get
                0x000297c8       0x5c examples/beaconing/CMakeFiles/beaconing_nrf52840_xxAA_s140_6.0.0.dir/__/__/mesh/access/src/device_state_manager.c.obj
                0x000297c8                dsm_address_get
 .text.dsm_address_subscription_remove
                0x00029824       0x5c examples/beaconing/CMakeFiles/beaconing_nrf52840_xxAA_s140_6.0.0.dir/__/__/mesh/access/src/device_state_manager.c.obj
                0x00029824                dsm_address_subscription_remove
 .text.dsm_address_handle_get
                0x00029880       0x98 examples/beaconing/CMakeFiles/beaconing_nrf52840_xxAA_s140_6.0.0.dir/__/__/mesh/access/src/device_state_manager.c.obj
                0x00029880                dsm_address_handle_get
 .text.dsm_net_key_index_to_subnet_handle
                0x00029918       0x1c examples/beaconing/CMakeFiles/beaconing_nrf52840_xxAA_s140_6.0.0.dir/__/__/mesh/access/src/device_state_manager.c.obj
                0x00029918                dsm_net_key_index_to_subnet_handle
 .text.dsm_subnet_handle_get
                0x00029934        0xc examples/beaconing/CMakeFiles/beaconing_nrf52840_xxAA_s140_6.0.0.dir/__/__/mesh/access/src/device_state_manager.c.obj
                0x00029934                dsm_subnet_handle_get
 .text.dsm_appkey_index_to_appkey_handle
                0x00029940       0x1c examples/beaconing/CMakeFiles/beaconing_nrf52840_xxAA_s140_6.0.0.dir/__/__/mesh/access/src/device_state_manager.c.obj
                0x00029940                dsm_appkey_index_to_appkey_handle
 .text.dsm_appkey_handle_get
                0x0002995c        0xc examples/beaconing/CMakeFiles/beaconing_nrf52840_xxAA_s140_6.0.0.dir/__/__/mesh/access/src/device_state_manager.c.obj
                0x0002995c                dsm_appkey_handle_get
 .text.dsm_appkey_handle_to_appkey_index
                0x00029968       0x34 examples/beaconing/CMakeFiles/beaconing_nrf52840_xxAA_s140_6.0.0.dir/__/__/mesh/access/src/device_state_manager.c.obj
                0x00029968                dsm_appkey_handle_to_appkey_index
 .text.dsm_appkey_handle_to_subnet_handle
                0x0002999c       0xa0 examples/beaconing/CMakeFiles/beaconing_nrf52840_xxAA_s140_6.0.0.dir/__/__/mesh/access/src/device_state_manager.c.obj
                0x0002999c                dsm_appkey_handle_to_subnet_handle
 .text.dsm_subnet_add
                0x00029a3c       0x78 examples/beaconing/CMakeFiles/beaconing_nrf52840_xxAA_s140_6.0.0.dir/__/__/mesh/access/src/device_state_manager.c.obj
                0x00029a3c                dsm_subnet_add
 .text.dsm_subnet_kr_phase_get
                0x00029ab4       0x34 examples/beaconing/CMakeFiles/beaconing_nrf52840_xxAA_s140_6.0.0.dir/__/__/mesh/access/src/device_state_manager.c.obj
                0x00029ab4                dsm_subnet_kr_phase_get
 .text.dsm_subnet_update
                0x00029ae8       0xc8 examples/beaconing/CMakeFiles/beaconing_nrf52840_xxAA_s140_6.0.0.dir/__/__/mesh/access/src/device_state_manager.c.obj
                0x00029ae8                dsm_subnet_update
 .text.dsm_subnet_update_swap_keys
                0x00029bb0       0x5c examples/beaconing/CMakeFiles/beaconing_nrf52840_xxAA_s140_6.0.0.dir/__/__/mesh/access/src/device_state_manager.c.obj
                0x00029bb0                dsm_subnet_update_swap_keys
 .text.dsm_subnet_update_commit
                0x00029c0c       0xf4 examples/beaconing/CMakeFiles/beaconing_nrf52840_xxAA_s140_6.0.0.dir/__/__/mesh/access/src/device_state_manager.c.obj
                0x00029c0c                dsm_subnet_update_commit
 .text.mesh_evt_handler
                0x00029d00       0x4c examples/beaconing/CMakeFiles/beaconing_nrf52840_xxAA_s140_6.0.0.dir/__/__/mesh/access/src/device_state_manager.c.obj
 .text.dsm_subnet_get_all
                0x00029d4c       0x60 examples/beaconing/CMakeFiles/beaconing_nrf52840_xxAA_s140_6.0.0.dir/__/__/mesh/access/src/device_state_manager.c.obj
                0x00029d4c                dsm_subnet_get_all
 .text.dsm_devkey_add
                0x00029dac       0x7c examples/beaconing/CMakeFiles/beaconing_nrf52840_xxAA_s140_6.0.0.dir/__/__/mesh/access/src/device_state_manager.c.obj
                0x00029dac                dsm_devkey_add
 .text.dsm_appkey_add
                0x00029e28       0x90 examples/beaconing/CMakeFiles/beaconing_nrf52840_xxAA_s140_6.0.0.dir/__/__/mesh/access/src/device_state_manager.c.obj
                0x00029e28                dsm_appkey_add
 .text.dsm_appkey_update
                0x00029eb8       0xa4 examples/beaconing/CMakeFiles/beaconing_nrf52840_xxAA_s140_6.0.0.dir/__/__/mesh/access/src/device_state_manager.c.obj
                0x00029eb8                dsm_appkey_update
 .text.dsm_appkey_delete
                0x00029f5c       0x30 examples/beaconing/CMakeFiles/beaconing_nrf52840_xxAA_s140_6.0.0.dir/__/__/mesh/access/src/device_state_manager.c.obj
                0x00029f5c                dsm_appkey_delete
 .text.dsm_subnet_delete
                0x00029f8c       0xac examples/beaconing/CMakeFiles/beaconing_nrf52840_xxAA_s140_6.0.0.dir/__/__/mesh/access/src/device_state_manager.c.obj
                0x00029f8c                dsm_subnet_delete
 .text.dsm_appkey_get_all
                0x0002a038       0x88 examples/beaconing/CMakeFiles/beaconing_nrf52840_xxAA_s140_6.0.0.dir/__/__/mesh/access/src/device_state_manager.c.obj
                0x0002a038                dsm_appkey_get_all
 .text.dsm_tx_secmat_get
                0x0002a0c0       0xc4 examples/beaconing/CMakeFiles/beaconing_nrf52840_xxAA_s140_6.0.0.dir/__/__/mesh/access/src/device_state_manager.c.obj
                0x0002a0c0                dsm_tx_secmat_get
 .text.dsm_net_secmat_from_keyindex_get
                0x0002a184       0x3c examples/beaconing/CMakeFiles/beaconing_nrf52840_xxAA_s140_6.0.0.dir/__/__/mesh/access/src/device_state_manager.c.obj
                0x0002a184                dsm_net_secmat_from_keyindex_get
 .text.nrf_mesh_net_secmat_next_get
                0x0002a1c0       0xb4 examples/beaconing/CMakeFiles/beaconing_nrf52840_xxAA_s140_6.0.0.dir/__/__/mesh/access/src/device_state_manager.c.obj
                0x0002a1c0                nrf_mesh_net_secmat_next_get
 .text.nrf_mesh_app_secmat_next_get
                0x0002a274       0x88 examples/beaconing/CMakeFiles/beaconing_nrf52840_xxAA_s140_6.0.0.dir/__/__/mesh/access/src/device_state_manager.c.obj
                0x0002a274                nrf_mesh_app_secmat_next_get
 .text.nrf_mesh_devkey_secmat_get
                0x0002a2fc       0x28 examples/beaconing/CMakeFiles/beaconing_nrf52840_xxAA_s140_6.0.0.dir/__/__/mesh/access/src/device_state_manager.c.obj
                0x0002a2fc                nrf_mesh_devkey_secmat_get
 .text.nrf_mesh_beacon_info_next_get
                0x0002a324       0xd4 examples/beaconing/CMakeFiles/beaconing_nrf52840_xxAA_s140_6.0.0.dir/__/__/mesh/access/src/device_state_manager.c.obj
                0x0002a324                nrf_mesh_beacon_info_next_get
 .text.nrf_mesh_rx_address_get
                0x0002a3f8      0x14c examples/beaconing/CMakeFiles/beaconing_nrf52840_xxAA_s140_6.0.0.dir/__/__/mesh/access/src/device_state_manager.c.obj
                0x0002a3f8                nrf_mesh_rx_address_get
 .text.dsm_address_is_rx
                0x0002a544       0x48 examples/beaconing/CMakeFiles/beaconing_nrf52840_xxAA_s140_6.0.0.dir/__/__/mesh/access/src/device_state_manager.c.obj
                0x0002a544                dsm_address_is_rx
 .text.nrf_mesh_unicast_address_get
                0x0002a58c       0x20 examples/beaconing/CMakeFiles/beaconing_nrf52840_xxAA_s140_6.0.0.dir/__/__/mesh/access/src/device_state_manager.c.obj
                0x0002a58c                nrf_mesh_unicast_address_get
 .text._weak_handler
                0x0002a5ac        0x4 examples/beaconing/CMakeFiles/beaconing_nrf52840_xxAA_s140_6.0.0.dir/__/nrf_mesh_weak.c.obj
                0x0002a5ac                nrf_mesh_dfu_init
                0x0002a5ac                nrf_mesh_dfu_jump_to_bootloader
                0x0002a5ac                nrf_mesh_dfu_rx
                0x0002a5ac                prov_provisioner_provision
                0x0002a5ac                nrf_mesh_dfu_bank_info_get
                0x0002a5ac                prov_provisioner_oob_pubkey
                0x0002a5ac                nrf_mesh_dfu_request
                0x0002a5ac                nrf_mesh_dfu_bank_flash
                0x0002a5ac                _weak_handler
                0x0002a5ac                nrf_mesh_dfu_relay
                0x0002a5ac                nrf_mesh_dfu_abort
                0x0002a5ac                mesh_flash_op_execute
                0x0002a5ac                prov_provisionee_init
                0x0002a5ac                nrf_mesh_dfu_state_get
                0x0002a5ac                prov_provisioner_shared_secret
                0x0002a5ac                prov_provisioner_auth_data
                0x0002a5ac                prov_provisioner_oob_use
 .text.app_error_fault_handler
                0x0002a5b0      0x204 examples/beaconing/CMakeFiles/beaconing_nrf52840_xxAA_s140_6.0.0.dir/__/common/src/app_error_weak.c.obj
                0x0002a5b0                app_error_fault_handler
 .text.mesh_assertion_handler
                0x0002a7b4       0x24 examples/beaconing/CMakeFiles/beaconing_nrf52840_xxAA_s140_6.0.0.dir/__/common/src/assertion_handler_weak.c.obj
                0x0002a7b4                mesh_assertion_handler
 .text.config_composition_data_get
                0x0002a7d8      0x186 examples/beaconing/CMakeFiles/beaconing_nrf52840_xxAA_s140_6.0.0.dir/__/__/models/config/src/composition_data.c.obj
                0x0002a7d8                config_composition_data_get
 *fill*         0x0002a95e        0x2 
 .text.app_evt_send
                0x0002a960       0x10 examples/beaconing/CMakeFiles/beaconing_nrf52840_xxAA_s140_6.0.0.dir/__/__/models/config/src/config_server.c.obj
 .text.config_server_heartbeat_publication_count_decrement
                0x0002a970       0x1c examples/beaconing/CMakeFiles/beaconing_nrf52840_xxAA_s140_6.0.0.dir/__/__/models/config/src/config_server.c.obj
 .text.get_element_index
                0x0002a98c       0x26 examples/beaconing/CMakeFiles/beaconing_nrf52840_xxAA_s140_6.0.0.dir/__/__/models/config/src/config_server.c.obj
 *fill*         0x0002a9b2        0x2 
 .text.config_server_heartbeat_publication_params_get
                0x0002a9b4       0x34 examples/beaconing/CMakeFiles/beaconing_nrf52840_xxAA_s140_6.0.0.dir/__/__/models/config/src/config_server.c.obj
 .text.send_reply
                0x0002a9e8       0x34 examples/beaconing/CMakeFiles/beaconing_nrf52840_xxAA_s140_6.0.0.dir/__/__/models/config/src/config_server.c.obj
 .text.send_network_transmit_status
                0x0002aa1c       0x76 examples/beaconing/CMakeFiles/beaconing_nrf52840_xxAA_s140_6.0.0.dir/__/__/models/config/src/config_server.c.obj
 .text.handle_config_network_transmit_set
                0x0002aa92       0x82 examples/beaconing/CMakeFiles/beaconing_nrf52840_xxAA_s140_6.0.0.dir/__/__/models/config/src/config_server.c.obj
 .text.handle_config_network_transmit_get
                0x0002ab14        0xa examples/beaconing/CMakeFiles/beaconing_nrf52840_xxAA_s140_6.0.0.dir/__/__/models/config/src/config_server.c.obj
 *fill*         0x0002ab1e        0x2 
 .text.handle_node_reset
                0x0002ab20       0x34 examples/beaconing/CMakeFiles/beaconing_nrf52840_xxAA_s140_6.0.0.dir/__/__/models/config/src/config_server.c.obj
 .text.send_netkey_status
                0x0002ab54       0x2c examples/beaconing/CMakeFiles/beaconing_nrf52840_xxAA_s140_6.0.0.dir/__/__/models/config/src/config_server.c.obj
 .text.send_relay_status
                0x0002ab80       0xa8 examples/beaconing/CMakeFiles/beaconing_nrf52840_xxAA_s140_6.0.0.dir/__/__/models/config/src/config_server.c.obj
 .text.handle_config_relay_set
                0x0002ac28       0xb6 examples/beaconing/CMakeFiles/beaconing_nrf52840_xxAA_s140_6.0.0.dir/__/__/models/config/src/config_server.c.obj
 .text.handle_config_relay_get
                0x0002acde        0xa examples/beaconing/CMakeFiles/beaconing_nrf52840_xxAA_s140_6.0.0.dir/__/__/models/config/src/config_server.c.obj
 .text.send_subscription_status
                0x0002ace8       0x42 examples/beaconing/CMakeFiles/beaconing_nrf52840_xxAA_s140_6.0.0.dir/__/__/models/config/src/config_server.c.obj
 .text.send_appkey_status
                0x0002ad2a       0x3a examples/beaconing/CMakeFiles/beaconing_nrf52840_xxAA_s140_6.0.0.dir/__/__/models/config/src/config_server.c.obj
 .text.handle_netkey_get
                0x0002ad64       0x50 examples/beaconing/CMakeFiles/beaconing_nrf52840_xxAA_s140_6.0.0.dir/__/__/models/config/src/config_server.c.obj
 .text.handle_netkey_delete
                0x0002adb4       0xbc examples/beaconing/CMakeFiles/beaconing_nrf52840_xxAA_s140_6.0.0.dir/__/__/models/config/src/config_server.c.obj
 .text.handle_netkey_add_update
                0x0002ae70       0x78 examples/beaconing/CMakeFiles/beaconing_nrf52840_xxAA_s140_6.0.0.dir/__/__/models/config/src/config_server.c.obj
 .text.status_error_sub_send
                0x0002aee8      0x124 examples/beaconing/CMakeFiles/beaconing_nrf52840_xxAA_s140_6.0.0.dir/__/__/models/config/src/config_server.c.obj
 .text.delete_all_subscriptions
                0x0002b00c       0x66 examples/beaconing/CMakeFiles/beaconing_nrf52840_xxAA_s140_6.0.0.dir/__/__/models/config/src/config_server.c.obj
 .text.send_publication_status
                0x0002b072      0x170 examples/beaconing/CMakeFiles/beaconing_nrf52840_xxAA_s140_6.0.0.dir/__/__/models/config/src/config_server.c.obj
 .text.handle_config_key_refresh_phase_set
                0x0002b1e2       0xc8 examples/beaconing/CMakeFiles/beaconing_nrf52840_xxAA_s140_6.0.0.dir/__/__/models/config/src/config_server.c.obj
 .text.handle_config_default_ttl_set
                0x0002b2aa       0x50 examples/beaconing/CMakeFiles/beaconing_nrf52840_xxAA_s140_6.0.0.dir/__/__/models/config/src/config_server.c.obj
 .text.send_net_beacon_state
                0x0002b2fa       0x2c examples/beaconing/CMakeFiles/beaconing_nrf52840_xxAA_s140_6.0.0.dir/__/__/models/config/src/config_server.c.obj
 .text.handle_config_beacon_get
                0x0002b326        0xa examples/beaconing/CMakeFiles/beaconing_nrf52840_xxAA_s140_6.0.0.dir/__/__/models/config/src/config_server.c.obj
 .text.handle_heartbeat_publication_set
                0x0002b330      0x12c examples/beaconing/CMakeFiles/beaconing_nrf52840_xxAA_s140_6.0.0.dir/__/__/models/config/src/config_server.c.obj
 .text.mesh_event_cb
                0x0002b45c       0x70 examples/beaconing/CMakeFiles/beaconing_nrf52840_xxAA_s140_6.0.0.dir/__/__/models/config/src/config_server.c.obj
 .text.handle_node_identity_set
                0x0002b4cc       0x3e examples/beaconing/CMakeFiles/beaconing_nrf52840_xxAA_s140_6.0.0.dir/__/__/models/config/src/config_server.c.obj
 .text.handle_node_identity_get
                0x0002b50a       0x3c examples/beaconing/CMakeFiles/beaconing_nrf52840_xxAA_s140_6.0.0.dir/__/__/models/config/src/config_server.c.obj
 .text.handle_config_gatt_proxy_get.part.9
                0x0002b546       0x2a examples/beaconing/CMakeFiles/beaconing_nrf52840_xxAA_s140_6.0.0.dir/__/__/models/config/src/config_server.c.obj
 .text.handle_config_gatt_proxy_set
                0x0002b570       0x14 examples/beaconing/CMakeFiles/beaconing_nrf52840_xxAA_s140_6.0.0.dir/__/__/models/config/src/config_server.c.obj
 .text.handle_config_gatt_proxy_get
                0x0002b584        0xa examples/beaconing/CMakeFiles/beaconing_nrf52840_xxAA_s140_6.0.0.dir/__/__/models/config/src/config_server.c.obj
 .text.handle_config_friend_get.part.11
                0x0002b58e       0x2a examples/beaconing/CMakeFiles/beaconing_nrf52840_xxAA_s140_6.0.0.dir/__/__/models/config/src/config_server.c.obj
 .text.handle_config_friend_set
                0x0002b5b8       0x14 examples/beaconing/CMakeFiles/beaconing_nrf52840_xxAA_s140_6.0.0.dir/__/__/models/config/src/config_server.c.obj
 .text.handle_config_friend_get
                0x0002b5cc        0xa examples/beaconing/CMakeFiles/beaconing_nrf52840_xxAA_s140_6.0.0.dir/__/__/models/config/src/config_server.c.obj
 .text.status_error_pub_send
                0x0002b5d6       0x9c examples/beaconing/CMakeFiles/beaconing_nrf52840_xxAA_s140_6.0.0.dir/__/__/models/config/src/config_server.c.obj
 .text.handle_config_key_refresh_phase_get
                0x0002b672       0x58 examples/beaconing/CMakeFiles/beaconing_nrf52840_xxAA_s140_6.0.0.dir/__/__/models/config/src/config_server.c.obj
 .text.handle_config_default_ttl_get
                0x0002b6ca       0x30 examples/beaconing/CMakeFiles/beaconing_nrf52840_xxAA_s140_6.0.0.dir/__/__/models/config/src/config_server.c.obj
 .text.handle_config_beacon_set
                0x0002b6fa       0x42 examples/beaconing/CMakeFiles/beaconing_nrf52840_xxAA_s140_6.0.0.dir/__/__/models/config/src/config_server.c.obj
 .text.handle_composition_data_get
                0x0002b73c       0x50 examples/beaconing/CMakeFiles/beaconing_nrf52840_xxAA_s140_6.0.0.dir/__/__/models/config/src/config_server.c.obj
 .text.handle_appkey_delete
                0x0002b78c       0xc2 examples/beaconing/CMakeFiles/beaconing_nrf52840_xxAA_s140_6.0.0.dir/__/__/models/config/src/config_server.c.obj
 .text.get_subscription_list.constprop.25
                0x0002b84e       0x50 examples/beaconing/CMakeFiles/beaconing_nrf52840_xxAA_s140_6.0.0.dir/__/__/models/config/src/config_server.c.obj
 .text.handle_appkey_get
                0x0002b89e       0xb8 examples/beaconing/CMakeFiles/beaconing_nrf52840_xxAA_s140_6.0.0.dir/__/__/models/config/src/config_server.c.obj
 .text.heartbeat_subscription_count_encode
                0x0002b956       0x26 examples/beaconing/CMakeFiles/beaconing_nrf52840_xxAA_s140_6.0.0.dir/__/__/models/config/src/config_server.c.obj
 .text.handle_appkey_add
                0x0002b97c       0xba examples/beaconing/CMakeFiles/beaconing_nrf52840_xxAA_s140_6.0.0.dir/__/__/models/config/src/config_server.c.obj
 .text.handle_appkey_update
                0x0002ba36       0xbc examples/beaconing/CMakeFiles/beaconing_nrf52840_xxAA_s140_6.0.0.dir/__/__/models/config/src/config_server.c.obj
 .text.heartbeat_pubsub_period_encode
                0x0002baf2       0x26 examples/beaconing/CMakeFiles/beaconing_nrf52840_xxAA_s140_6.0.0.dir/__/__/models/config/src/config_server.c.obj
 .text.handle_heartbeat_publication_get
                0x0002bb18       0x80 examples/beaconing/CMakeFiles/beaconing_nrf52840_xxAA_s140_6.0.0.dir/__/__/models/config/src/config_server.c.obj
 .text.handle_heartbeat_subscription_get
                0x0002bb98       0x84 examples/beaconing/CMakeFiles/beaconing_nrf52840_xxAA_s140_6.0.0.dir/__/__/models/config/src/config_server.c.obj
 .text.handle_heartbeat_subscription_set
                0x0002bc1c       0xa8 examples/beaconing/CMakeFiles/beaconing_nrf52840_xxAA_s140_6.0.0.dir/__/__/models/config/src/config_server.c.obj
 .text.handle_config_model_publication_get
                0x0002bcc4       0x94 examples/beaconing/CMakeFiles/beaconing_nrf52840_xxAA_s140_6.0.0.dir/__/__/models/config/src/config_server.c.obj
 .text.handle_config_model_subscription_delete_all
                0x0002bd58       0xca examples/beaconing/CMakeFiles/beaconing_nrf52840_xxAA_s140_6.0.0.dir/__/__/models/config/src/config_server.c.obj
 .text.handle_config_sig_model_subscription_get
                0x0002be22       0xbe examples/beaconing/CMakeFiles/beaconing_nrf52840_xxAA_s140_6.0.0.dir/__/__/models/config/src/config_server.c.obj
 .text.handle_config_vendor_model_subscription_get
                0x0002bee0      0x100 examples/beaconing/CMakeFiles/beaconing_nrf52840_xxAA_s140_6.0.0.dir/__/__/models/config/src/config_server.c.obj
 .text.handle_config_model_subscription_virtual_address_delete
                0x0002bfe0      0x110 examples/beaconing/CMakeFiles/beaconing_nrf52840_xxAA_s140_6.0.0.dir/__/__/models/config/src/config_server.c.obj
 .text.handle_config_model_subscription_virtual_address_add
                0x0002c0f0      0x10e examples/beaconing/CMakeFiles/beaconing_nrf52840_xxAA_s140_6.0.0.dir/__/__/models/config/src/config_server.c.obj
 .text.handle_config_model_subscription_delete
                0x0002c1fe      0x116 examples/beaconing/CMakeFiles/beaconing_nrf52840_xxAA_s140_6.0.0.dir/__/__/models/config/src/config_server.c.obj
 .text.handle_config_model_subscription_add
                0x0002c314      0x114 examples/beaconing/CMakeFiles/beaconing_nrf52840_xxAA_s140_6.0.0.dir/__/__/models/config/src/config_server.c.obj
 .text.handle_config_model_subscription_virtual_address_overwrite
                0x0002c428      0x128 examples/beaconing/CMakeFiles/beaconing_nrf52840_xxAA_s140_6.0.0.dir/__/__/models/config/src/config_server.c.obj
 .text.handle_model_app_get
                0x0002c550      0x1a4 examples/beaconing/CMakeFiles/beaconing_nrf52840_xxAA_s140_6.0.0.dir/__/__/models/config/src/config_server.c.obj
 .text.handle_config_model_subscription_overwrite
                0x0002c6f4      0x122 examples/beaconing/CMakeFiles/beaconing_nrf52840_xxAA_s140_6.0.0.dir/__/__/models/config/src/config_server.c.obj
 .text.handle_model_app_bind_unbind
                0x0002c816      0x17a examples/beaconing/CMakeFiles/beaconing_nrf52840_xxAA_s140_6.0.0.dir/__/__/models/config/src/config_server.c.obj
 .text.handle_config_model_publication_set
                0x0002c990      0x2ce examples/beaconing/CMakeFiles/beaconing_nrf52840_xxAA_s140_6.0.0.dir/__/__/models/config/src/config_server.c.obj
 *fill*         0x0002cc5e        0x2 
 .text.config_server_init
                0x0002cc60       0x64 examples/beaconing/CMakeFiles/beaconing_nrf52840_xxAA_s140_6.0.0.dir/__/__/models/config/src/config_server.c.obj
                0x0002cc60                config_server_init
 .text.config_server_bind
                0x0002ccc4       0x10 examples/beaconing/CMakeFiles/beaconing_nrf52840_xxAA_s140_6.0.0.dir/__/__/models/config/src/config_server.c.obj
                0x0002ccc4                config_server_bind
 .text.packed_index_list_create
                0x0002ccd4       0x32 examples/beaconing/CMakeFiles/beaconing_nrf52840_xxAA_s140_6.0.0.dir/__/__/models/config/src/packed_index_list.c.obj
                0x0002ccd4                packed_index_list_create
 *fill*         0x0002cd06        0x2 
 .text.attention_timer_set
                0x0002cd08       0x8c examples/beaconing/CMakeFiles/beaconing_nrf52840_xxAA_s140_6.0.0.dir/__/__/models/health/src/health_server.c.obj
 .text.attention_timer_handler
                0x0002cd94       0x5c examples/beaconing/CMakeFiles/beaconing_nrf52840_xxAA_s140_6.0.0.dir/__/__/models/health/src/health_server.c.obj
 .text.send_attention_status
                0x0002cdf0       0x4a examples/beaconing/CMakeFiles/beaconing_nrf52840_xxAA_s140_6.0.0.dir/__/__/models/health/src/health_server.c.obj
 .text.handle_attention_get
                0x0002ce3a        0xc examples/beaconing/CMakeFiles/beaconing_nrf52840_xxAA_s140_6.0.0.dir/__/__/models/health/src/health_server.c.obj
 .text.send_period_status
                0x0002ce46       0x48 examples/beaconing/CMakeFiles/beaconing_nrf52840_xxAA_s140_6.0.0.dir/__/__/models/health/src/health_server.c.obj
 .text.handle_period_get
                0x0002ce8e        0xc examples/beaconing/CMakeFiles/beaconing_nrf52840_xxAA_s140_6.0.0.dir/__/__/models/health/src/health_server.c.obj
 .text.handle_attention_set
                0x0002ce9a       0x2e examples/beaconing/CMakeFiles/beaconing_nrf52840_xxAA_s140_6.0.0.dir/__/__/models/health/src/health_server.c.obj
 .text.handle_period_set
                0x0002cec8       0x22 examples/beaconing/CMakeFiles/beaconing_nrf52840_xxAA_s140_6.0.0.dir/__/__/models/health/src/health_server.c.obj
 *fill*         0x0002ceea        0x2 
 .text.bitfield_next_get.part.0.constprop.9
                0x0002ceec       0x44 examples/beaconing/CMakeFiles/beaconing_nrf52840_xxAA_s140_6.0.0.dir/__/__/models/health/src/health_server.c.obj
 .text.bitfield_popcount.constprop.7
                0x0002cf30       0x28 examples/beaconing/CMakeFiles/beaconing_nrf52840_xxAA_s140_6.0.0.dir/__/__/models/health/src/health_server.c.obj
 .text.send_fault_status
                0x0002cf58       0xa8 examples/beaconing/CMakeFiles/beaconing_nrf52840_xxAA_s140_6.0.0.dir/__/__/models/health/src/health_server.c.obj
 .text.health_publish_timeout_handler
                0x0002d000        0xa examples/beaconing/CMakeFiles/beaconing_nrf52840_xxAA_s140_6.0.0.dir/__/__/models/health/src/health_server.c.obj
 .text.handle_fault_test
                0x0002d00a       0x68 examples/beaconing/CMakeFiles/beaconing_nrf52840_xxAA_s140_6.0.0.dir/__/__/models/health/src/health_server.c.obj
 .text.handle_fault_get
                0x0002d072       0x32 examples/beaconing/CMakeFiles/beaconing_nrf52840_xxAA_s140_6.0.0.dir/__/__/models/health/src/health_server.c.obj
 .text.handle_fault_clear
                0x0002d0a4       0x48 examples/beaconing/CMakeFiles/beaconing_nrf52840_xxAA_s140_6.0.0.dir/__/__/models/health/src/health_server.c.obj
 .text.health_server_init
                0x0002d0ec       0x6c examples/beaconing/CMakeFiles/beaconing_nrf52840_xxAA_s140_6.0.0.dir/__/__/models/health/src/health_server.c.obj
                0x0002d0ec                health_server_init
 .text.complete_provisioning
                0x0002d158       0x24 examples/beaconing/CMakeFiles/beaconing_nrf52840_xxAA_s140_6.0.0.dir/__/__/mesh/prov/src/prov_provisionee.c.obj
 .text.prov_provisionee_cb_link_established
                0x0002d17c       0x36 examples/beaconing/CMakeFiles/beaconing_nrf52840_xxAA_s140_6.0.0.dir/__/__/mesh/prov/src/prov_provisionee.c.obj
 .text.prov_provisionee_cb_link_closed
                0x0002d1b2       0x34 examples/beaconing/CMakeFiles/beaconing_nrf52840_xxAA_s140_6.0.0.dir/__/__/mesh/prov/src/prov_provisionee.c.obj
 .text.request_authentication
                0x0002d1e6       0x8a examples/beaconing/CMakeFiles/beaconing_nrf52840_xxAA_s140_6.0.0.dir/__/__/mesh/prov/src/prov_provisionee.c.obj
 .text.send_failed
                0x0002d270       0x3a examples/beaconing/CMakeFiles/beaconing_nrf52840_xxAA_s140_6.0.0.dir/__/__/mesh/prov/src/prov_provisionee.c.obj
 .text.start_authentication
                0x0002d2aa       0x52 examples/beaconing/CMakeFiles/beaconing_nrf52840_xxAA_s140_6.0.0.dir/__/__/mesh/prov/src/prov_provisionee.c.obj
 .text.prov_provisionee_cb_ack_received
                0x0002d2fc       0xc8 examples/beaconing/CMakeFiles/beaconing_nrf52840_xxAA_s140_6.0.0.dir/__/__/mesh/prov/src/prov_provisionee.c.obj
 .text.prov_provisionee_pkt_in
                0x0002d3c4      0x2f0 examples/beaconing/CMakeFiles/beaconing_nrf52840_xxAA_s140_6.0.0.dir/__/__/mesh/prov/src/prov_provisionee.c.obj
 .text.prov_provisionee_listen
                0x0002d6b4       0x30 examples/beaconing/CMakeFiles/beaconing_nrf52840_xxAA_s140_6.0.0.dir/__/__/mesh/prov/src/prov_provisionee.c.obj
                0x0002d6b4                prov_provisionee_listen
 .text.prov_provisionee_auth_data
                0x0002d6e4       0x98 examples/beaconing/CMakeFiles/beaconing_nrf52840_xxAA_s140_6.0.0.dir/__/__/mesh/prov/src/prov_provisionee.c.obj
                0x0002d6e4                prov_provisionee_auth_data
 .text.bearer_compare_callback
                0x0002d77c        0xc examples/beaconing/CMakeFiles/beaconing_nrf52840_xxAA_s140_6.0.0.dir/__/__/mesh/prov/src/nrf_mesh_prov.c.obj
 .text.bitfield_next_get.part.0.constprop.4
                0x0002d788       0x34 examples/beaconing/CMakeFiles/beaconing_nrf52840_xxAA_s140_6.0.0.dir/__/__/mesh/prov/src/nrf_mesh_prov.c.obj
 .text.nrf_mesh_prov_init
                0x0002d7bc       0x32 examples/beaconing/CMakeFiles/beaconing_nrf52840_xxAA_s140_6.0.0.dir/__/__/mesh/prov/src/nrf_mesh_prov.c.obj
                0x0002d7bc                nrf_mesh_prov_init
 *fill*         0x0002d7ee        0x2 
 .text.nrf_mesh_prov_bearer_add
                0x0002d7f0       0x28 examples/beaconing/CMakeFiles/beaconing_nrf52840_xxAA_s140_6.0.0.dir/__/__/mesh/prov/src/nrf_mesh_prov.c.obj
                0x0002d7f0                nrf_mesh_prov_bearer_add
 .text.nrf_mesh_prov_generate_keys
                0x0002d818        0x4 examples/beaconing/CMakeFiles/beaconing_nrf52840_xxAA_s140_6.0.0.dir/__/__/mesh/prov/src/nrf_mesh_prov.c.obj
                0x0002d818                nrf_mesh_prov_generate_keys
 .text.nrf_mesh_prov_listen_stop
                0x0002d81c       0x2e examples/beaconing/CMakeFiles/beaconing_nrf52840_xxAA_s140_6.0.0.dir/__/__/mesh/prov/src/nrf_mesh_prov.c.obj
                0x0002d81c                nrf_mesh_prov_listen_stop
 .text.nrf_mesh_prov_listen
                0x0002d84a       0x88 examples/beaconing/CMakeFiles/beaconing_nrf52840_xxAA_s140_6.0.0.dir/__/__/mesh/prov/src/nrf_mesh_prov.c.obj
                0x0002d84a                nrf_mesh_prov_listen
 .text.nrf_mesh_prov_auth_data_provide
                0x0002d8d2        0xe examples/beaconing/CMakeFiles/beaconing_nrf52840_xxAA_s140_6.0.0.dir/__/__/mesh/prov/src/nrf_mesh_prov.c.obj
                0x0002d8d2                nrf_mesh_prov_auth_data_provide
 .text.send_data
                0x0002d8e0       0x28 examples/beaconing/CMakeFiles/beaconing_nrf52840_xxAA_s140_6.0.0.dir/__/__/mesh/prov/src/provisioning.c.obj
 .text.prov_packet_length_valid
                0x0002d908       0x1c examples/beaconing/CMakeFiles/beaconing_nrf52840_xxAA_s140_6.0.0.dir/__/__/mesh/prov/src/provisioning.c.obj
                0x0002d908                prov_packet_length_valid
 .text.prov_tx_capabilities
                0x0002d924       0x1e examples/beaconing/CMakeFiles/beaconing_nrf52840_xxAA_s140_6.0.0.dir/__/__/mesh/prov/src/provisioning.c.obj
                0x0002d924                prov_tx_capabilities
 .text.prov_tx_public_key
                0x0002d942       0x26 examples/beaconing/CMakeFiles/beaconing_nrf52840_xxAA_s140_6.0.0.dir/__/__/mesh/prov/src/provisioning.c.obj
                0x0002d942                prov_tx_public_key
 .text.prov_tx_input_complete
                0x0002d968       0x16 examples/beaconing/CMakeFiles/beaconing_nrf52840_xxAA_s140_6.0.0.dir/__/__/mesh/prov/src/provisioning.c.obj
                0x0002d968                prov_tx_input_complete
 .text.prov_tx_confirmation
                0x0002d97e       0x26 examples/beaconing/CMakeFiles/beaconing_nrf52840_xxAA_s140_6.0.0.dir/__/__/mesh/prov/src/provisioning.c.obj
                0x0002d97e                prov_tx_confirmation
 .text.prov_tx_random
                0x0002d9a4       0x26 examples/beaconing/CMakeFiles/beaconing_nrf52840_xxAA_s140_6.0.0.dir/__/__/mesh/prov/src/provisioning.c.obj
                0x0002d9a4                prov_tx_random
 .text.prov_tx_complete
                0x0002d9ca       0x16 examples/beaconing/CMakeFiles/beaconing_nrf52840_xxAA_s140_6.0.0.dir/__/__/mesh/prov/src/provisioning.c.obj
                0x0002d9ca                prov_tx_complete
 .text.prov_tx_failed
                0x0002d9e0       0x1a examples/beaconing/CMakeFiles/beaconing_nrf52840_xxAA_s140_6.0.0.dir/__/__/mesh/prov/src/provisioning.c.obj
                0x0002d9e0                prov_tx_failed
 .text.prov_beacon_unprov_build
                0x0002d9fa       0x54 examples/beaconing/CMakeFiles/beaconing_nrf52840_xxAA_s140_6.0.0.dir/__/__/mesh/prov/src/prov_beacon.c.obj
                0x0002d9fa                prov_beacon_unprov_build
 *fill*         0x0002da4e        0x2 
 .text.prov_beacon_unprov_packet_in
                0x0002da50       0x88 examples/beaconing/CMakeFiles/beaconing_nrf52840_xxAA_s140_6.0.0.dir/__/__/mesh/prov/src/prov_beacon.c.obj
                0x0002da50                prov_beacon_unprov_packet_in
 .text.oob_gen_alphanumeric
                0x0002dad8       0x34 examples/beaconing/CMakeFiles/beaconing_nrf52840_xxAA_s140_6.0.0.dir/__/__/mesh/prov/src/prov_utils.c.obj
 .text.oob_gen_numeric
                0x0002db0c       0x3c examples/beaconing/CMakeFiles/beaconing_nrf52840_xxAA_s140_6.0.0.dir/__/__/mesh/prov/src/prov_utils.c.obj
 .text.prov_utils_opt_set
                0x0002db48       0x20 examples/beaconing/CMakeFiles/beaconing_nrf52840_xxAA_s140_6.0.0.dir/__/__/mesh/prov/src/prov_utils.c.obj
                0x0002db48                prov_utils_opt_set
 .text.prov_utils_opt_get
                0x0002db68       0x1c examples/beaconing/CMakeFiles/beaconing_nrf52840_xxAA_s140_6.0.0.dir/__/__/mesh/prov/src/prov_utils.c.obj
                0x0002db68                prov_utils_opt_get
 .text.prov_utils_use_ecdh_offloading
                0x0002db84        0xc examples/beaconing/CMakeFiles/beaconing_nrf52840_xxAA_s140_6.0.0.dir/__/__/mesh/prov/src/prov_utils.c.obj
                0x0002db84                prov_utils_use_ecdh_offloading
 .text.prov_utils_authentication_values_derive
                0x0002db90       0xa0 examples/beaconing/CMakeFiles/beaconing_nrf52840_xxAA_s140_6.0.0.dir/__/__/mesh/prov/src/prov_utils.c.obj
                0x0002db90                prov_utils_authentication_values_derive
 .text.prov_utils_keys_generate
                0x0002dc30       0x1e examples/beaconing/CMakeFiles/beaconing_nrf52840_xxAA_s140_6.0.0.dir/__/__/mesh/prov/src/prov_utils.c.obj
                0x0002dc30                prov_utils_keys_generate
 *fill*         0x0002dc4e        0x2 
 .text.prov_utils_derive_keys
                0x0002dc50       0xac examples/beaconing/CMakeFiles/beaconing_nrf52840_xxAA_s140_6.0.0.dir/__/__/mesh/prov/src/prov_utils.c.obj
                0x0002dc50                prov_utils_derive_keys
 .text.prov_utils_calculate_shared_secret
                0x0002dcfc       0x36 examples/beaconing/CMakeFiles/beaconing_nrf52840_xxAA_s140_6.0.0.dir/__/__/mesh/prov/src/prov_utils.c.obj
                0x0002dcfc                prov_utils_calculate_shared_secret
 .text.prov_utils_generate_oob_data
                0x0002dd32       0x8a examples/beaconing/CMakeFiles/beaconing_nrf52840_xxAA_s140_6.0.0.dir/__/__/mesh/prov/src/prov_utils.c.obj
                0x0002dd32                prov_utils_generate_oob_data
 .text.prov_utils_confirmation_check
                0x0002ddbc       0x5c examples/beaconing/CMakeFiles/beaconing_nrf52840_xxAA_s140_6.0.0.dir/__/__/mesh/prov/src/prov_utils.c.obj
                0x0002ddbc                prov_utils_confirmation_check
 .text.link_timeout_cb
                0x0002de18       0x10 examples/beaconing/CMakeFiles/beaconing_nrf52840_xxAA_s140_6.0.0.dir/__/__/mesh/prov/src/prov_bearer_adv.c.obj
 .text.remove_active_bearer
                0x0002de28       0x4c examples/beaconing/CMakeFiles/beaconing_nrf52840_xxAA_s140_6.0.0.dir/__/__/mesh/prov/src/prov_bearer_adv.c.obj
 .text.close_link
                0x0002de74       0x58 examples/beaconing/CMakeFiles/beaconing_nrf52840_xxAA_s140_6.0.0.dir/__/__/mesh/prov/src/prov_bearer_adv.c.obj
 .text.prov_bearer_adv_listen_stop
                0x0002decc       0x30 examples/beaconing/CMakeFiles/beaconing_nrf52840_xxAA_s140_6.0.0.dir/__/__/mesh/prov/src/prov_bearer_adv.c.obj
 .text.send_packet
                0x0002defc       0x5e examples/beaconing/CMakeFiles/beaconing_nrf52840_xxAA_s140_6.0.0.dir/__/__/mesh/prov/src/prov_bearer_adv.c.obj
 .text.prov_buffer_tx
                0x0002df5a      0x134 examples/beaconing/CMakeFiles/beaconing_nrf52840_xxAA_s140_6.0.0.dir/__/__/mesh/prov/src/prov_bearer_adv.c.obj
 .text.send_link_close
                0x0002e08e       0x38 examples/beaconing/CMakeFiles/beaconing_nrf52840_xxAA_s140_6.0.0.dir/__/__/mesh/prov/src/prov_bearer_adv.c.obj
 .text.prov_bearer_adv_link_close
                0x0002e0c6       0x56 examples/beaconing/CMakeFiles/beaconing_nrf52840_xxAA_s140_6.0.0.dir/__/__/mesh/prov/src/prov_bearer_adv.c.obj
 .text.send_transaction_ack
                0x0002e11c       0x24 examples/beaconing/CMakeFiles/beaconing_nrf52840_xxAA_s140_6.0.0.dir/__/__/mesh/prov/src/prov_bearer_adv.c.obj
 .text.send_link_ack
                0x0002e140       0x32 examples/beaconing/CMakeFiles/beaconing_nrf52840_xxAA_s140_6.0.0.dir/__/__/mesh/prov/src/prov_bearer_adv.c.obj
 .text.reset_timeout_timer
                0x0002e172       0x1a examples/beaconing/CMakeFiles/beaconing_nrf52840_xxAA_s140_6.0.0.dir/__/__/mesh/prov/src/prov_bearer_adv.c.obj
 .text.tx_complete_cb
                0x0002e18c       0x1c examples/beaconing/CMakeFiles/beaconing_nrf52840_xxAA_s140_6.0.0.dir/__/__/mesh/prov/src/prov_bearer_adv.c.obj
 .text.tx_retry_cb
                0x0002e1a8       0xcc examples/beaconing/CMakeFiles/beaconing_nrf52840_xxAA_s140_6.0.0.dir/__/__/mesh/prov/src/prov_bearer_adv.c.obj
 .text.add_active_bearer
                0x0002e274       0x80 examples/beaconing/CMakeFiles/beaconing_nrf52840_xxAA_s140_6.0.0.dir/__/__/mesh/prov/src/prov_bearer_adv.c.obj
 .text.prov_bearer_adv_link_open
                0x0002e2f4       0xec examples/beaconing/CMakeFiles/beaconing_nrf52840_xxAA_s140_6.0.0.dir/__/__/mesh/prov/src/prov_bearer_adv.c.obj
 .text.async_process
                0x0002e3e0       0x50 examples/beaconing/CMakeFiles/beaconing_nrf52840_xxAA_s140_6.0.0.dir/__/__/mesh/prov/src/prov_bearer_adv.c.obj
 .text.prov_bearer_adv_listen
                0x0002e430       0xd8 examples/beaconing/CMakeFiles/beaconing_nrf52840_xxAA_s140_6.0.0.dir/__/__/mesh/prov/src/prov_bearer_adv.c.obj
 .text.calculate_3GPP_CRC
                0x0002e508       0x24 examples/beaconing/CMakeFiles/beaconing_nrf52840_xxAA_s140_6.0.0.dir/__/__/mesh/prov/src/prov_bearer_adv.c.obj
                0x0002e508                calculate_3GPP_CRC
 .text.prov_bearer_adv_tx
                0x0002e52c       0xb4 examples/beaconing/CMakeFiles/beaconing_nrf52840_xxAA_s140_6.0.0.dir/__/__/mesh/prov/src/prov_bearer_adv.c.obj
 .text.prov_buffer_rx
                0x0002e5e0       0x6e examples/beaconing/CMakeFiles/beaconing_nrf52840_xxAA_s140_6.0.0.dir/__/__/mesh/prov/src/prov_bearer_adv.c.obj
 *fill*         0x0002e64e        0x2 
 .text.nrf_mesh_prov_bearer_adv_interface_get
                0x0002e650       0x3c examples/beaconing/CMakeFiles/beaconing_nrf52840_xxAA_s140_6.0.0.dir/__/__/mesh/prov/src/prov_bearer_adv.c.obj
                0x0002e650                nrf_mesh_prov_bearer_adv_interface_get
 .text.prov_bearer_adv_packet_in
                0x0002e68c      0x7f8 examples/beaconing/CMakeFiles/beaconing_nrf52840_xxAA_s140_6.0.0.dir/__/__/mesh/prov/src/prov_bearer_adv.c.obj
                0x0002e68c                prov_bearer_adv_packet_in
 .text.nrf_mesh_configure_device_uuid_set
                0x0002ee84       0x10 examples/beaconing/CMakeFiles/beaconing_nrf52840_xxAA_s140_6.0.0.dir/__/__/mesh/core/src/nrf_mesh_configure.c.obj
                0x0002ee84                nrf_mesh_configure_device_uuid_set
 .text.nrf_mesh_configure_device_uuid_reset
                0x0002ee94       0x28 examples/beaconing/CMakeFiles/beaconing_nrf52840_xxAA_s140_6.0.0.dir/__/__/mesh/core/src/nrf_mesh_configure.c.obj
                0x0002ee94                nrf_mesh_configure_device_uuid_reset
 .text.nrf_mesh_configure_device_uuid_get
                0x0002eebc        0x8 examples/beaconing/CMakeFiles/beaconing_nrf52840_xxAA_s140_6.0.0.dir/__/__/mesh/core/src/nrf_mesh_configure.c.obj
                0x0002eebc                nrf_mesh_configure_device_uuid_get
 .text.msg_cache_init
                0x0002eec4       0x24 examples/beaconing/CMakeFiles/beaconing_nrf52840_xxAA_s140_6.0.0.dir/__/__/mesh/core/src/msg_cache.c.obj
                0x0002eec4                msg_cache_init
 .text.msg_cache_entry_exists
                0x0002eee8       0x3c examples/beaconing/CMakeFiles/beaconing_nrf52840_xxAA_s140_6.0.0.dir/__/__/mesh/core/src/msg_cache.c.obj
                0x0002eee8                msg_cache_entry_exists
 .text.msg_cache_entry_add
                0x0002ef24       0x2c examples/beaconing/CMakeFiles/beaconing_nrf52840_xxAA_s140_6.0.0.dir/__/__/mesh/core/src/msg_cache.c.obj
                0x0002ef24                msg_cache_entry_add
 .text.seqauth_sequence_number_get
                0x0002ef50       0x12 examples/beaconing/CMakeFiles/beaconing_nrf52840_xxAA_s140_6.0.0.dir/__/__/mesh/core/src/transport.c.obj
 *fill*         0x0002ef62        0x2 
 .text.control_packet_callback_get
                0x0002ef64       0x44 examples/beaconing/CMakeFiles/beaconing_nrf52840_xxAA_s140_6.0.0.dir/__/__/mesh/core/src/transport.c.obj
 .text.tx_complete
                0x0002efa8       0x2c examples/beaconing/CMakeFiles/beaconing_nrf52840_xxAA_s140_6.0.0.dir/__/__/mesh/core/src/transport.c.obj
 .text.block_ack_full
                0x0002efd4       0x1a examples/beaconing/CMakeFiles/beaconing_nrf52840_xxAA_s140_6.0.0.dir/__/__/mesh/core/src/transport.c.obj
 *fill*         0x0002efee        0x2 
 .text.sar_rx_session_mark_as_handled
                0x0002eff0       0x48 examples/beaconing/CMakeFiles/beaconing_nrf52840_xxAA_s140_6.0.0.dir/__/__/mesh/core/src/transport.c.obj
 .text.upper_trs_packet_encrypt
                0x0002f038       0x90 examples/beaconing/CMakeFiles/beaconing_nrf52840_xxAA_s140_6.0.0.dir/__/__/mesh/core/src/transport.c.obj
 .text.sar_ctx_free
                0x0002f0c8       0x3c examples/beaconing/CMakeFiles/beaconing_nrf52840_xxAA_s140_6.0.0.dir/__/__/mesh/core/src/transport.c.obj
 .text.sar_ctx_tx_complete
                0x0002f104       0x2e examples/beaconing/CMakeFiles/beaconing_nrf52840_xxAA_s140_6.0.0.dir/__/__/mesh/core/src/transport.c.obj
 *fill*         0x0002f132        0x2 
 .text.sar_ctx_alloc
                0x0002f134       0xa8 examples/beaconing/CMakeFiles/beaconing_nrf52840_xxAA_s140_6.0.0.dir/__/__/mesh/core/src/transport.c.obj
 .text.test_transport_decrypt
                0x0002f1dc       0x88 examples/beaconing/CMakeFiles/beaconing_nrf52840_xxAA_s140_6.0.0.dir/__/__/mesh/core/src/transport.c.obj
 .text.upper_transport_access_packet_in
                0x0002f264      0x19c examples/beaconing/CMakeFiles/beaconing_nrf52840_xxAA_s140_6.0.0.dir/__/__/mesh/core/src/transport.c.obj
 .text.trs_packet_header_build
                0x0002f400       0xa6 examples/beaconing/CMakeFiles/beaconing_nrf52840_xxAA_s140_6.0.0.dir/__/__/mesh/core/src/transport.c.obj
 *fill*         0x0002f4a6        0x2 
 .text.tx_retry_timer_reset
                0x0002f4a8       0x44 examples/beaconing/CMakeFiles/beaconing_nrf52840_xxAA_s140_6.0.0.dir/__/__/mesh/core/src/transport.c.obj
 .text.sar_ctx_cancel
                0x0002f4ec       0xa8 examples/beaconing/CMakeFiles/beaconing_nrf52840_xxAA_s140_6.0.0.dir/__/__/mesh/core/src/transport.c.obj
 .text.abort_timeout
                0x0002f594        0x8 examples/beaconing/CMakeFiles/beaconing_nrf52840_xxAA_s140_6.0.0.dir/__/__/mesh/core/src/transport.c.obj
 .text.trs_sar_packet_out
                0x0002f59c       0xda examples/beaconing/CMakeFiles/beaconing_nrf52840_xxAA_s140_6.0.0.dir/__/__/mesh/core/src/transport.c.obj
 .text.retry_timeout
                0x0002f676       0x46 examples/beaconing/CMakeFiles/beaconing_nrf52840_xxAA_s140_6.0.0.dir/__/__/mesh/core/src/transport.c.obj
 .text.upper_transport_packet_in
                0x0002f6bc      0x150 examples/beaconing/CMakeFiles/beaconing_nrf52840_xxAA_s140_6.0.0.dir/__/__/mesh/core/src/transport.c.obj
 .text.upper_transport_tx
                0x0002f80c      0x1e4 examples/beaconing/CMakeFiles/beaconing_nrf52840_xxAA_s140_6.0.0.dir/__/__/mesh/core/src/transport.c.obj
 .text.transport_sar_mem_funcs_reset
                0x0002f9f0       0x28 examples/beaconing/CMakeFiles/beaconing_nrf52840_xxAA_s140_6.0.0.dir/__/__/mesh/core/src/transport.c.obj
                0x0002f9f0                transport_sar_mem_funcs_reset
 .text.transport_init
                0x0002fa18       0x8c examples/beaconing/CMakeFiles/beaconing_nrf52840_xxAA_s140_6.0.0.dir/__/__/mesh/core/src/transport.c.obj
                0x0002fa18                transport_init
 .text.transport_tx
                0x0002faa4       0xb4 examples/beaconing/CMakeFiles/beaconing_nrf52840_xxAA_s140_6.0.0.dir/__/__/mesh/core/src/transport.c.obj
                0x0002faa4                transport_tx
 .text.transport_control_tx
                0x0002fb58       0x8e examples/beaconing/CMakeFiles/beaconing_nrf52840_xxAA_s140_6.0.0.dir/__/__/mesh/core/src/transport.c.obj
                0x0002fb58                transport_control_tx
 *fill*         0x0002fbe6        0x2 
 .text.sar_ack_send
                0x0002fbe8       0xa0 examples/beaconing/CMakeFiles/beaconing_nrf52840_xxAA_s140_6.0.0.dir/__/__/mesh/core/src/transport.c.obj
 .text.transport_sar_process
                0x0002fc88       0x74 examples/beaconing/CMakeFiles/beaconing_nrf52840_xxAA_s140_6.0.0.dir/__/__/mesh/core/src/transport.c.obj
 .text.transport_packet_in
                0x0002fcfc      0x434 examples/beaconing/CMakeFiles/beaconing_nrf52840_xxAA_s140_6.0.0.dir/__/__/mesh/core/src/transport.c.obj
                0x0002fcfc                transport_packet_in
 .text.ack_timeout
                0x00030130       0x28 examples/beaconing/CMakeFiles/beaconing_nrf52840_xxAA_s140_6.0.0.dir/__/__/mesh/core/src/transport.c.obj
 .text.transport_opt_set
                0x00030158       0xd0 examples/beaconing/CMakeFiles/beaconing_nrf52840_xxAA_s140_6.0.0.dir/__/__/mesh/core/src/transport.c.obj
                0x00030158                transport_opt_set
 .text.transport_opt_get
                0x00030228       0x68 examples/beaconing/CMakeFiles/beaconing_nrf52840_xxAA_s140_6.0.0.dir/__/__/mesh/core/src/transport.c.obj
                0x00030228                transport_opt_get
 .text.transport_control_packet_consumer_add
                0x00030290       0x5c examples/beaconing/CMakeFiles/beaconing_nrf52840_xxAA_s140_6.0.0.dir/__/__/mesh/core/src/transport.c.obj
                0x00030290                transport_control_packet_consumer_add
 .text.event_handle
                0x000302ec       0x54 examples/beaconing/CMakeFiles/beaconing_nrf52840_xxAA_s140_6.0.0.dir/__/__/mesh/core/src/event.c.obj
                0x000302ec                event_handle
 .text.event_handler_add
                0x00030340       0x20 examples/beaconing/CMakeFiles/beaconing_nrf52840_xxAA_s140_6.0.0.dir/__/__/mesh/core/src/event.c.obj
                0x00030340                event_handler_add
 .text.event_handler_remove
                0x00030360       0x34 examples/beaconing/CMakeFiles/beaconing_nrf52840_xxAA_s140_6.0.0.dir/__/__/mesh/core/src/event.c.obj
                0x00030360                event_handler_remove
 .text.m_index_increment
                0x00030394       0x1e examples/beaconing/CMakeFiles/beaconing_nrf52840_xxAA_s140_6.0.0.dir/__/__/mesh/core/src/packet_buffer.c.obj
 .text.packet_buffer_init
                0x000303b2       0xac examples/beaconing/CMakeFiles/beaconing_nrf52840_xxAA_s140_6.0.0.dir/__/__/mesh/core/src/packet_buffer.c.obj
                0x000303b2                packet_buffer_init
 .text.packet_buffer_flush
                0x0003045e       0x60 examples/beaconing/CMakeFiles/beaconing_nrf52840_xxAA_s140_6.0.0.dir/__/__/mesh/core/src/packet_buffer.c.obj
                0x0003045e                packet_buffer_flush
 .text.packet_buffer_reserve
                0x000304be       0x96 examples/beaconing/CMakeFiles/beaconing_nrf52840_xxAA_s140_6.0.0.dir/__/__/mesh/core/src/packet_buffer.c.obj
                0x000304be                packet_buffer_reserve
 .text.packet_buffer_commit
                0x00030554       0x58 examples/beaconing/CMakeFiles/beaconing_nrf52840_xxAA_s140_6.0.0.dir/__/__/mesh/core/src/packet_buffer.c.obj
                0x00030554                packet_buffer_commit
 .text.packet_buffer_pop
                0x000305ac       0x3c examples/beaconing/CMakeFiles/beaconing_nrf52840_xxAA_s140_6.0.0.dir/__/__/mesh/core/src/packet_buffer.c.obj
                0x000305ac                packet_buffer_pop
 .text.packet_buffer_can_pop
                0x000305e8       0x1c examples/beaconing/CMakeFiles/beaconing_nrf52840_xxAA_s140_6.0.0.dir/__/__/mesh/core/src/packet_buffer.c.obj
                0x000305e8                packet_buffer_can_pop
 .text.packet_buffer_packets_ready_to_pop
                0x00030604       0x3a examples/beaconing/CMakeFiles/beaconing_nrf52840_xxAA_s140_6.0.0.dir/__/__/mesh/core/src/packet_buffer.c.obj
                0x00030604                packet_buffer_packets_ready_to_pop
 .text.packet_buffer_free
                0x0003063e       0x6e examples/beaconing/CMakeFiles/beaconing_nrf52840_xxAA_s140_6.0.0.dir/__/__/mesh/core/src/packet_buffer.c.obj
                0x0003063e                packet_buffer_free
 .text.get_last_page
                0x000306ac       0x14 examples/beaconing/CMakeFiles/beaconing_nrf52840_xxAA_s140_6.0.0.dir/__/__/mesh/core/src/flash_manager_defrag.c.obj
 .text.defrag_on_end
                0x000306c0       0x1c examples/beaconing/CMakeFiles/beaconing_nrf52840_xxAA_s140_6.0.0.dir/__/__/mesh/core/src/flash_manager_defrag.c.obj
 .text.execute_procedure_step
                0x000306dc       0x7c examples/beaconing/CMakeFiles/beaconing_nrf52840_xxAA_s140_6.0.0.dir/__/__/mesh/core/src/flash_manager_defrag.c.obj
 .text.get_next_entry
                0x00030758       0x34 examples/beaconing/CMakeFiles/beaconing_nrf52840_xxAA_s140_6.0.0.dir/__/__/mesh/core/src/flash_manager_defrag.c.obj
 .text.get_next_data_entry
                0x0003078c       0x26 examples/beaconing/CMakeFiles/beaconing_nrf52840_xxAA_s140_6.0.0.dir/__/__/mesh/core/src/flash_manager_defrag.c.obj
 *fill*         0x000307b2        0x2 
 .text.on_flash_op_end
                0x000307b4       0x30 examples/beaconing/CMakeFiles/beaconing_nrf52840_xxAA_s140_6.0.0.dir/__/__/mesh/core/src/flash_manager_defrag.c.obj
 .text.check_for_invalid_entries
                0x000307e4       0x38 examples/beaconing/CMakeFiles/beaconing_nrf52840_xxAA_s140_6.0.0.dir/__/__/mesh/core/src/flash_manager_defrag.c.obj
 .text.erase_recovery_area
                0x0003081c       0x34 examples/beaconing/CMakeFiles/beaconing_nrf52840_xxAA_s140_6.0.0.dir/__/__/mesh/core/src/flash_manager_defrag.c.obj
 .text.flash.constprop.6
                0x00030850       0x24 examples/beaconing/CMakeFiles/beaconing_nrf52840_xxAA_s140_6.0.0.dir/__/__/mesh/core/src/flash_manager_defrag.c.obj
 .text.seal_storage_page
                0x00030874       0x50 examples/beaconing/CMakeFiles/beaconing_nrf52840_xxAA_s140_6.0.0.dir/__/__/mesh/core/src/flash_manager_defrag.c.obj
 .text.invalidate_duplicate_entries
                0x000308c4       0x9c examples/beaconing/CMakeFiles/beaconing_nrf52840_xxAA_s140_6.0.0.dir/__/__/mesh/core/src/flash_manager_defrag.c.obj
 .text.copy_metadata
                0x00030960       0x3c examples/beaconing/CMakeFiles/beaconing_nrf52840_xxAA_s140_6.0.0.dir/__/__/mesh/core/src/flash_manager_defrag.c.obj
 .text.write_defrag_start_pointer
                0x0003099c       0x20 examples/beaconing/CMakeFiles/beaconing_nrf52840_xxAA_s140_6.0.0.dir/__/__/mesh/core/src/flash_manager_defrag.c.obj
 .text.write_back
                0x000309bc       0x28 examples/beaconing/CMakeFiles/beaconing_nrf52840_xxAA_s140_6.0.0.dir/__/__/mesh/core/src/flash_manager_defrag.c.obj
 .text.post_process
                0x000309e4       0x40 examples/beaconing/CMakeFiles/beaconing_nrf52840_xxAA_s140_6.0.0.dir/__/__/mesh/core/src/flash_manager_defrag.c.obj
 .text.backup_entries
                0x00030a24       0xf8 examples/beaconing/CMakeFiles/beaconing_nrf52840_xxAA_s140_6.0.0.dir/__/__/mesh/core/src/flash_manager_defrag.c.obj
 .text.erase_source
                0x00030b1c       0x34 examples/beaconing/CMakeFiles/beaconing_nrf52840_xxAA_s140_6.0.0.dir/__/__/mesh/core/src/flash_manager_defrag.c.obj
 .text.flash_manager_defrag_init
                0x00030b50       0x8c examples/beaconing/CMakeFiles/beaconing_nrf52840_xxAA_s140_6.0.0.dir/__/__/mesh/core/src/flash_manager_defrag.c.obj
                0x00030b50                flash_manager_defrag_init
 .text.flash_manager_defrag_is_running
                0x00030bdc       0x10 examples/beaconing/CMakeFiles/beaconing_nrf52840_xxAA_s140_6.0.0.dir/__/__/mesh/core/src/flash_manager_defrag.c.obj
                0x00030bdc                flash_manager_defrag_is_running
 .text.flash_manager_defrag
                0x00030bec       0x44 examples/beaconing/CMakeFiles/beaconing_nrf52840_xxAA_s140_6.0.0.dir/__/__/mesh/core/src/flash_manager_defrag.c.obj
                0x00030bec                flash_manager_defrag
 .text.flash_manager_defrag_recovery_page_get
                0x00030c30        0xc examples/beaconing/CMakeFiles/beaconing_nrf52840_xxAA_s140_6.0.0.dir/__/__/mesh/core/src/flash_manager_defrag.c.obj
                0x00030c30                flash_manager_defrag_recovery_page_get
 .text.fifo_init
                0x00030c3c       0x34 examples/beaconing/CMakeFiles/beaconing_nrf52840_xxAA_s140_6.0.0.dir/__/__/mesh/core/src/fifo.c.obj
                0x00030c3c                fifo_init
 .text.fifo_push
                0x00030c70       0x50 examples/beaconing/CMakeFiles/beaconing_nrf52840_xxAA_s140_6.0.0.dir/__/__/mesh/core/src/fifo.c.obj
                0x00030c70                fifo_push
 .text.fifo_pop
                0x00030cc0       0x52 examples/beaconing/CMakeFiles/beaconing_nrf52840_xxAA_s140_6.0.0.dir/__/__/mesh/core/src/fifo.c.obj
                0x00030cc0                fifo_pop
 *fill*         0x00030d12        0x2 
 .text.wait_for_ready
                0x00030d14       0x10 examples/beaconing/CMakeFiles/beaconing_nrf52840_xxAA_s140_6.0.0.dir/__/__/mesh/core/src/nrf_flash.c.obj
 .text.nrf_flash_erase
                0x00030d24       0x50 examples/beaconing/CMakeFiles/beaconing_nrf52840_xxAA_s140_6.0.0.dir/__/__/mesh/core/src/nrf_flash.c.obj
                0x00030d24                nrf_flash_erase
 .text.nrf_flash_write
                0x00030d74       0x50 examples/beaconing/CMakeFiles/beaconing_nrf52840_xxAA_s140_6.0.0.dir/__/__/mesh/core/src/nrf_flash.c.obj
                0x00030d74                nrf_flash_write
 .text.packet_mgr_init
                0x00030dc4       0x4c examples/beaconing/CMakeFiles/beaconing_nrf52840_xxAA_s140_6.0.0.dir/__/__/mesh/core/src/packet_mgr.c.obj
                0x00030dc4                packet_mgr_init
 .text.flash_store_iv_index
                0x00030e10       0x38 examples/beaconing/CMakeFiles/beaconing_nrf52840_xxAA_s140_6.0.0.dir/__/__/mesh/core/src/net_state.c.obj
 .text.flash_mem_available
                0x00030e48       0x14 examples/beaconing/CMakeFiles/beaconing_nrf52840_xxAA_s140_6.0.0.dir/__/__/mesh/core/src/net_state.c.obj
 .text.seqnum_block_allocate
                0x00030e5c       0x4c examples/beaconing/CMakeFiles/beaconing_nrf52840_xxAA_s140_6.0.0.dir/__/__/mesh/core/src/net_state.c.obj
 .text.net_state_reset
                0x00030ea8       0x3c examples/beaconing/CMakeFiles/beaconing_nrf52840_xxAA_s140_6.0.0.dir/__/__/mesh/core/src/net_state.c.obj
                0x00030ea8                net_state_reset
 .text.flash_write_complete
                0x00030ee4       0x64 examples/beaconing/CMakeFiles/beaconing_nrf52840_xxAA_s140_6.0.0.dir/__/__/mesh/core/src/net_state.c.obj
 .text.net_state_recover_from_flash
                0x00030f48       0x8c examples/beaconing/CMakeFiles/beaconing_nrf52840_xxAA_s140_6.0.0.dir/__/__/mesh/core/src/net_state.c.obj
                0x00030f48                net_state_recover_from_flash
 .text.net_state_flash_area_get
                0x00030fd4        0xc examples/beaconing/CMakeFiles/beaconing_nrf52840_xxAA_s140_6.0.0.dir/__/__/mesh/core/src/net_state.c.obj
                0x00030fd4                net_state_flash_area_get
 .text.init_flash_storage
                0x00030fe0       0x40 examples/beaconing/CMakeFiles/beaconing_nrf52840_xxAA_s140_6.0.0.dir/__/__/mesh/core/src/net_state.c.obj
 .text.net_state_init
                0x00031020       0x5c examples/beaconing/CMakeFiles/beaconing_nrf52840_xxAA_s140_6.0.0.dir/__/__/mesh/core/src/net_state.c.obj
                0x00031020                net_state_init
 .text.net_state_iv_update_start
                0x0003107c       0x68 examples/beaconing/CMakeFiles/beaconing_nrf52840_xxAA_s140_6.0.0.dir/__/__/mesh/core/src/net_state.c.obj
                0x0003107c                net_state_iv_update_start
 .text.iv_update_trigger_if_pending
                0x000310e4       0x80 examples/beaconing/CMakeFiles/beaconing_nrf52840_xxAA_s140_6.0.0.dir/__/__/mesh/core/src/net_state.c.obj
 .text.mesh_evt_handler
                0x00031164       0xa0 examples/beaconing/CMakeFiles/beaconing_nrf52840_xxAA_s140_6.0.0.dir/__/__/mesh/core/src/net_state.c.obj
 .text.iv_update_timer_handler
                0x00031204       0x68 examples/beaconing/CMakeFiles/beaconing_nrf52840_xxAA_s140_6.0.0.dir/__/__/mesh/core/src/net_state.c.obj
 .text.net_state_seqnum_alloc
                0x0003126c       0x68 examples/beaconing/CMakeFiles/beaconing_nrf52840_xxAA_s140_6.0.0.dir/__/__/mesh/core/src/net_state.c.obj
                0x0003126c                net_state_seqnum_alloc
 .text.net_state_iv_index_lock
                0x000312d4       0x3c examples/beaconing/CMakeFiles/beaconing_nrf52840_xxAA_s140_6.0.0.dir/__/__/mesh/core/src/net_state.c.obj
                0x000312d4                net_state_iv_index_lock
 .text.net_state_key_refresh_phase_changed
                0x00031310       0x20 examples/beaconing/CMakeFiles/beaconing_nrf52840_xxAA_s140_6.0.0.dir/__/__/mesh/core/src/net_state.c.obj
                0x00031310                net_state_key_refresh_phase_changed
 .text.net_state_beacon_iv_index_get
                0x00031330        0xc examples/beaconing/CMakeFiles/beaconing_nrf52840_xxAA_s140_6.0.0.dir/__/__/mesh/core/src/net_state.c.obj
                0x00031330                net_state_beacon_iv_index_get
 .text.net_state_tx_iv_index_get
                0x0003133c       0x14 examples/beaconing/CMakeFiles/beaconing_nrf52840_xxAA_s140_6.0.0.dir/__/__/mesh/core/src/net_state.c.obj
                0x0003133c                net_state_tx_iv_index_get
 .text.net_state_rx_iv_index_get
                0x00031350       0x18 examples/beaconing/CMakeFiles/beaconing_nrf52840_xxAA_s140_6.0.0.dir/__/__/mesh/core/src/net_state.c.obj
                0x00031350                net_state_rx_iv_index_get
 .text.net_state_iv_update_get
                0x00031368        0xc examples/beaconing/CMakeFiles/beaconing_nrf52840_xxAA_s140_6.0.0.dir/__/__/mesh/core/src/net_state.c.obj
                0x00031368                net_state_iv_update_get
 .text.net_state_iv_index_set
                0x00031374       0x30 examples/beaconing/CMakeFiles/beaconing_nrf52840_xxAA_s140_6.0.0.dir/__/__/mesh/core/src/net_state.c.obj
                0x00031374                net_state_iv_index_set
 .text.send_end_events
                0x000313a4       0x84 examples/beaconing/CMakeFiles/beaconing_nrf52840_xxAA_s140_6.0.0.dir/__/__/mesh/core/src/mesh_flash.c.obj
 .text.flash_op_schedule
                0x00031428       0x88 examples/beaconing/CMakeFiles/beaconing_nrf52840_xxAA_s140_6.0.0.dir/__/__/mesh/core/src/mesh_flash.c.obj
 .text.flash_op_start
                0x000314b0      0x13c examples/beaconing/CMakeFiles/beaconing_nrf52840_xxAA_s140_6.0.0.dir/__/__/mesh/core/src/mesh_flash.c.obj
 .text.mesh_flash_init
                0x000315ec       0x88 examples/beaconing/CMakeFiles/beaconing_nrf52840_xxAA_s140_6.0.0.dir/__/__/mesh/core/src/mesh_flash.c.obj
                0x000315ec                mesh_flash_init
 .text.mesh_flash_user_callback_set
                0x00031674       0x20 examples/beaconing/CMakeFiles/beaconing_nrf52840_xxAA_s140_6.0.0.dir/__/__/mesh/core/src/mesh_flash.c.obj
                0x00031674                mesh_flash_user_callback_set
 .text.mesh_flash_op_push
                0x00031694       0xe4 examples/beaconing/CMakeFiles/beaconing_nrf52840_xxAA_s140_6.0.0.dir/__/__/mesh/core/src/mesh_flash.c.obj
                0x00031694                mesh_flash_op_push
 .text.nrf_mesh_address_type_get
                0x00031778       0x10 examples/beaconing/CMakeFiles/beaconing_nrf52840_xxAA_s140_6.0.0.dir/__/__/mesh/core/src/nrf_mesh_utils.c.obj
                0x00031778                nrf_mesh_address_type_get
 .text.sd_softdevice_is_enabled
                0x00031788        0x4 examples/beaconing/CMakeFiles/beaconing_nrf52840_xxAA_s140_6.0.0.dir/__/__/mesh/core/src/nrf_mesh.c.obj
 .text.nrf_mesh_listen
                0x0003178c      0x138 examples/beaconing/CMakeFiles/beaconing_nrf52840_xxAA_s140_6.0.0.dir/__/__/mesh/core/src/nrf_mesh.c.obj
 .text.flash_stable_cb
                0x000318c4       0x20 examples/beaconing/CMakeFiles/beaconing_nrf52840_xxAA_s140_6.0.0.dir/__/__/mesh/core/src/nrf_mesh.c.obj
 .text.scanner_packet_process_cb
                0x000318e4       0x8c examples/beaconing/CMakeFiles/beaconing_nrf52840_xxAA_s140_6.0.0.dir/__/__/mesh/core/src/nrf_mesh.c.obj
 .text.nrf_mesh_init
                0x00031970       0xd8 examples/beaconing/CMakeFiles/beaconing_nrf52840_xxAA_s140_6.0.0.dir/__/__/mesh/core/src/nrf_mesh.c.obj
                0x00031970                nrf_mesh_init
 .text.nrf_mesh_enable
                0x00031a48       0x3c examples/beaconing/CMakeFiles/beaconing_nrf52840_xxAA_s140_6.0.0.dir/__/__/mesh/core/src/nrf_mesh.c.obj
                0x00031a48                nrf_mesh_enable
 .text.nrf_mesh_packet_send
                0x00031a84       0x7c examples/beaconing/CMakeFiles/beaconing_nrf52840_xxAA_s140_6.0.0.dir/__/__/mesh/core/src/nrf_mesh.c.obj
                0x00031a84                nrf_mesh_packet_send
 .text.nrf_mesh_evt_handler_add
                0x00031b00        0x4 examples/beaconing/CMakeFiles/beaconing_nrf52840_xxAA_s140_6.0.0.dir/__/__/mesh/core/src/nrf_mesh.c.obj
                0x00031b00                nrf_mesh_evt_handler_add
 .text.nrf_mesh_on_sd_evt
                0x00031b04        0xa examples/beaconing/CMakeFiles/beaconing_nrf52840_xxAA_s140_6.0.0.dir/__/__/mesh/core/src/nrf_mesh.c.obj
                0x00031b04                nrf_mesh_on_sd_evt
 *fill*         0x00031b0e        0x2 
 .text.nrf_mesh_rx_cb_set
                0x00031b10        0xc examples/beaconing/CMakeFiles/beaconing_nrf52840_xxAA_s140_6.0.0.dir/__/__/mesh/core/src/nrf_mesh.c.obj
                0x00031b10                nrf_mesh_rx_cb_set
 .text.nrf_mesh_subnet_added
                0x00031b1c        0x2 examples/beaconing/CMakeFiles/beaconing_nrf52840_xxAA_s140_6.0.0.dir/__/__/mesh/core/src/nrf_mesh.c.obj
                0x00031b1c                nrf_mesh_subnet_added
 *fill*         0x00031b1e        0x2 
 .text.nrf_mesh_unique_token_get
                0x00031b20       0x18 examples/beaconing/CMakeFiles/beaconing_nrf52840_xxAA_s140_6.0.0.dir/__/__/mesh/core/src/nrf_mesh.c.obj
                0x00031b20                nrf_mesh_unique_token_get
 .text.queue_init
                0x00031b38       0x14 examples/beaconing/CMakeFiles/beaconing_nrf52840_xxAA_s140_6.0.0.dir/__/__/mesh/core/src/queue.c.obj
                0x00031b38                queue_init
 .text.queue_push
                0x00031b4c       0x34 examples/beaconing/CMakeFiles/beaconing_nrf52840_xxAA_s140_6.0.0.dir/__/__/mesh/core/src/queue.c.obj
                0x00031b4c                queue_push
 .text.queue_pop
                0x00031b80       0x26 examples/beaconing/CMakeFiles/beaconing_nrf52840_xxAA_s140_6.0.0.dir/__/__/mesh/core/src/queue.c.obj
                0x00031b80                queue_pop
 .text.queue_peek
                0x00031ba6       0x10 examples/beaconing/CMakeFiles/beaconing_nrf52840_xxAA_s140_6.0.0.dir/__/__/mesh/core/src/queue.c.obj
                0x00031ba6                queue_peek
 .text.sd_power_reset_reason_clr
                0x00031bb6        0x4 examples/beaconing/CMakeFiles/beaconing_nrf52840_xxAA_s140_6.0.0.dir/__/__/mesh/core/src/hal.c.obj
 *fill*         0x00031bba        0x2 
 .text.hal_device_reset
                0x00031bbc       0x2c examples/beaconing/CMakeFiles/beaconing_nrf52840_xxAA_s140_6.0.0.dir/__/__/mesh/core/src/hal.c.obj
                0x00031bbc                hal_device_reset
 .text.hal_lfclk_ppm_get
                0x00031be8       0x14 examples/beaconing/CMakeFiles/beaconing_nrf52840_xxAA_s140_6.0.0.dir/__/__/mesh/core/src/hal.c.obj
                0x00031be8                hal_lfclk_ppm_get
 .text.sd_ecb_block_encrypt
                0x00031bfc        0x4 examples/beaconing/CMakeFiles/beaconing_nrf52840_xxAA_s140_6.0.0.dir/__/__/mesh/core/src/aes_cmac.c.obj
 .text.utils_xor.constprop.1
                0x00031c00       0x20 examples/beaconing/CMakeFiles/beaconing_nrf52840_xxAA_s140_6.0.0.dir/__/__/mesh/core/src/aes_cmac.c.obj
 .text.aes_cmac
                0x00031c20      0x112 examples/beaconing/CMakeFiles/beaconing_nrf52840_xxAA_s140_6.0.0.dir/__/__/mesh/core/src/aes_cmac.c.obj
                0x00031c20                aes_cmac
 *fill*         0x00031d32        0x2 
 .text.add_to_add_list
                0x00031d34       0x30 examples/beaconing/CMakeFiles/beaconing_nrf52840_xxAA_s140_6.0.0.dir/__/__/mesh/core/src/timer_scheduler.c.obj
 .text.process_dirty_events
                0x00031d64       0x5c examples/beaconing/CMakeFiles/beaconing_nrf52840_xxAA_s140_6.0.0.dir/__/__/mesh/core/src/timer_scheduler.c.obj
 .text.timer_cb
                0x00031dc0        0xc examples/beaconing/CMakeFiles/beaconing_nrf52840_xxAA_s140_6.0.0.dir/__/__/mesh/core/src/timer_scheduler.c.obj
 .text.add_evt.constprop.1
                0x00031dcc       0x58 examples/beaconing/CMakeFiles/beaconing_nrf52840_xxAA_s140_6.0.0.dir/__/__/mesh/core/src/timer_scheduler.c.obj
 .text.process_add_list
                0x00031e24       0x3c examples/beaconing/CMakeFiles/beaconing_nrf52840_xxAA_s140_6.0.0.dir/__/__/mesh/core/src/timer_scheduler.c.obj
 .text.flag_event_cb
                0x00031e60       0xd8 examples/beaconing/CMakeFiles/beaconing_nrf52840_xxAA_s140_6.0.0.dir/__/__/mesh/core/src/timer_scheduler.c.obj
 .text.timer_sch_init
                0x00031f38       0x24 examples/beaconing/CMakeFiles/beaconing_nrf52840_xxAA_s140_6.0.0.dir/__/__/mesh/core/src/timer_scheduler.c.obj
                0x00031f38                timer_sch_init
 .text.timer_sch_schedule
                0x00031f5c       0x3c examples/beaconing/CMakeFiles/beaconing_nrf52840_xxAA_s140_6.0.0.dir/__/__/mesh/core/src/timer_scheduler.c.obj
                0x00031f5c                timer_sch_schedule
 .text.timer_sch_abort
                0x00031f98       0x58 examples/beaconing/CMakeFiles/beaconing_nrf52840_xxAA_s140_6.0.0.dir/__/__/mesh/core/src/timer_scheduler.c.obj
                0x00031f98                timer_sch_abort
 .text.timer_sch_reschedule
                0x00031ff0       0x64 examples/beaconing/CMakeFiles/beaconing_nrf52840_xxAA_s140_6.0.0.dir/__/__/mesh/core/src/timer_scheduler.c.obj
                0x00031ff0                timer_sch_reschedule
 .text.timer_mut_unlock
                0x00032054       0x10 examples/beaconing/CMakeFiles/beaconing_nrf52840_xxAA_s140_6.0.0.dir/__/__/mesh/core/src/timer.c.obj
 .text.timer_order_cb
                0x00032064       0x94 examples/beaconing/CMakeFiles/beaconing_nrf52840_xxAA_s140_6.0.0.dir/__/__/mesh/core/src/timer.c.obj
                0x00032064                timer_order_cb
 .text.timer_now
                0x000320f8       0x48 examples/beaconing/CMakeFiles/beaconing_nrf52840_xxAA_s140_6.0.0.dir/__/__/mesh/core/src/timer.c.obj
                0x000320f8                timer_now
 .text.timer_event_handler
                0x00032140       0x84 examples/beaconing/CMakeFiles/beaconing_nrf52840_xxAA_s140_6.0.0.dir/__/__/mesh/core/src/timer.c.obj
                0x00032140                timer_event_handler
 .text.timer_on_ts_begin
                0x000321c4       0xf4 examples/beaconing/CMakeFiles/beaconing_nrf52840_xxAA_s140_6.0.0.dir/__/__/mesh/core/src/timer.c.obj
                0x000321c4                timer_on_ts_begin
 .text.timer_on_ts_end
                0x000322b8       0x60 examples/beaconing/CMakeFiles/beaconing_nrf52840_xxAA_s140_6.0.0.dir/__/__/mesh/core/src/timer.c.obj
                0x000322b8                timer_on_ts_end
 .text.timer_cb
                0x00032318       0x10 examples/beaconing/CMakeFiles/beaconing_nrf52840_xxAA_s140_6.0.0.dir/__/__/mesh/core/src/ticker.c.obj
 .text.ticker_init
                0x00032328       0x3c examples/beaconing/CMakeFiles/beaconing_nrf52840_xxAA_s140_6.0.0.dir/__/__/mesh/core/src/ticker.c.obj
                0x00032328                ticker_init
 .text.sd_rand_application_bytes_available_get
                0x00032364        0x4 examples/beaconing/CMakeFiles/beaconing_nrf52840_xxAA_s140_6.0.0.dir/__/__/mesh/core/src/rand.c.obj
 .text.sd_rand_application_vector_get
                0x00032368        0x4 examples/beaconing/CMakeFiles/beaconing_nrf52840_xxAA_s140_6.0.0.dir/__/__/mesh/core/src/rand.c.obj
 .text.rand_prng_get
                0x0003236c       0x22 examples/beaconing/CMakeFiles/beaconing_nrf52840_xxAA_s140_6.0.0.dir/__/__/mesh/core/src/rand.c.obj
                0x0003236c                rand_prng_get
 .text.rand_hw_rng_get
                0x0003238e       0x44 examples/beaconing/CMakeFiles/beaconing_nrf52840_xxAA_s140_6.0.0.dir/__/__/mesh/core/src/rand.c.obj
                0x0003238e                rand_hw_rng_get
 *fill*         0x000323d2        0x2 
 .text.rand_prng_seed
                0x000323d4       0x34 examples/beaconing/CMakeFiles/beaconing_nrf52840_xxAA_s140_6.0.0.dir/__/__/mesh/core/src/rand.c.obj
                0x000323d4                rand_prng_seed
 .text.nrf_mesh_opt_set
                0x00032408       0x26 examples/beaconing/CMakeFiles/beaconing_nrf52840_xxAA_s140_6.0.0.dir/__/__/mesh/core/src/nrf_mesh_opt.c.obj
                0x00032408                nrf_mesh_opt_set
 .text.nrf_mesh_opt_get
                0x0003242e       0x26 examples/beaconing/CMakeFiles/beaconing_nrf52840_xxAA_s140_6.0.0.dir/__/__/mesh/core/src/nrf_mesh_opt.c.obj
                0x0003242e                nrf_mesh_opt_get
 .text.sd_radio_session_open
                0x00032454        0x4 examples/beaconing/CMakeFiles/beaconing_nrf52840_xxAA_s140_6.0.0.dir/__/__/mesh/core/src/timeslot.c.obj
 .text.sd_radio_session_close
                0x00032458        0x4 examples/beaconing/CMakeFiles/beaconing_nrf52840_xxAA_s140_6.0.0.dir/__/__/mesh/core/src/timeslot.c.obj
 .text.sd_radio_request
                0x0003245c        0x4 examples/beaconing/CMakeFiles/beaconing_nrf52840_xxAA_s140_6.0.0.dir/__/__/mesh/core/src/timeslot.c.obj
 .text.end_timer_handler
                0x00032460       0x24 examples/beaconing/CMakeFiles/beaconing_nrf52840_xxAA_s140_6.0.0.dir/__/__/mesh/core/src/timeslot.c.obj
 .text.get_end_time.constprop.10
                0x00032484       0x28 examples/beaconing/CMakeFiles/beaconing_nrf52840_xxAA_s140_6.0.0.dir/__/__/mesh/core/src/timeslot.c.obj
 .text.handle_extend_end.constprop.3
                0x000324ac       0xb4 examples/beaconing/CMakeFiles/beaconing_nrf52840_xxAA_s140_6.0.0.dir/__/__/mesh/core/src/timeslot.c.obj
 .text.radio_signal_callback
                0x00032560      0x138 examples/beaconing/CMakeFiles/beaconing_nrf52840_xxAA_s140_6.0.0.dir/__/__/mesh/core/src/timeslot.c.obj
 .text.timeslot_sd_event_handler
                0x00032698       0x38 examples/beaconing/CMakeFiles/beaconing_nrf52840_xxAA_s140_6.0.0.dir/__/__/mesh/core/src/timeslot.c.obj
                0x00032698                timeslot_sd_event_handler
 .text.timeslot_init
                0x000326d0       0x48 examples/beaconing/CMakeFiles/beaconing_nrf52840_xxAA_s140_6.0.0.dir/__/__/mesh/core/src/timeslot.c.obj
                0x000326d0                timeslot_init
 .text.timeslot_start
                0x00032718       0x20 examples/beaconing/CMakeFiles/beaconing_nrf52840_xxAA_s140_6.0.0.dir/__/__/mesh/core/src/timeslot.c.obj
                0x00032718                timeslot_start
 .text.timeslot_end_is_pending
                0x00032738       0x24 examples/beaconing/CMakeFiles/beaconing_nrf52840_xxAA_s140_6.0.0.dir/__/__/mesh/core/src/timeslot.c.obj
                0x00032738                timeslot_end_is_pending
 .text.timeslot_start_time_get
                0x0003275c        0xc examples/beaconing/CMakeFiles/beaconing_nrf52840_xxAA_s140_6.0.0.dir/__/__/mesh/core/src/timeslot.c.obj
                0x0003275c                timeslot_start_time_get
 .text.timeslot_remaining_time_get
                0x00032768       0x20 examples/beaconing/CMakeFiles/beaconing_nrf52840_xxAA_s140_6.0.0.dir/__/__/mesh/core/src/timeslot.c.obj
                0x00032768                timeslot_remaining_time_get
 .text.timeslot_is_in_cb
                0x00032788        0xc examples/beaconing/CMakeFiles/beaconing_nrf52840_xxAA_s140_6.0.0.dir/__/__/mesh/core/src/timeslot.c.obj
                0x00032788                timeslot_is_in_cb
 .text.timeslot_trigger
                0x00032794       0x24 examples/beaconing/CMakeFiles/beaconing_nrf52840_xxAA_s140_6.0.0.dir/__/__/mesh/core/src/timeslot.c.obj
                0x00032794                timeslot_trigger
 .text.timeslot_stop
                0x000327b8       0x10 examples/beaconing/CMakeFiles/beaconing_nrf52840_xxAA_s140_6.0.0.dir/__/__/mesh/core/src/timeslot.c.obj
                0x000327b8                timeslot_stop
 .text.timeslot_state_lock
                0x000327c8       0x28 examples/beaconing/CMakeFiles/beaconing_nrf52840_xxAA_s140_6.0.0.dir/__/__/mesh/core/src/timeslot.c.obj
                0x000327c8                timeslot_state_lock
 .text.trigger_event_handler
                0x000327f0       0x1c examples/beaconing/CMakeFiles/beaconing_nrf52840_xxAA_s140_6.0.0.dir/__/__/mesh/core/src/bearer_event.c.obj
 .text.evt_push
                0x0003280c       0x1c examples/beaconing/CMakeFiles/beaconing_nrf52840_xxAA_s140_6.0.0.dir/__/__/mesh/core/src/bearer_event.c.obj
 .text.bearer_event_init
                0x00032828       0x48 examples/beaconing/CMakeFiles/beaconing_nrf52840_xxAA_s140_6.0.0.dir/__/__/mesh/core/src/bearer_event.c.obj
                0x00032828                bearer_event_init
 .text.bearer_event_timer_post
                0x00032870       0x24 examples/beaconing/CMakeFiles/beaconing_nrf52840_xxAA_s140_6.0.0.dir/__/__/mesh/core/src/bearer_event.c.obj
                0x00032870                bearer_event_timer_post
 .text.bearer_event_critical_section_begin
                0x00032894       0x44 examples/beaconing/CMakeFiles/beaconing_nrf52840_xxAA_s140_6.0.0.dir/__/__/mesh/core/src/bearer_event.c.obj
                0x00032894                bearer_event_critical_section_begin
 .text.bearer_event_critical_section_end
                0x000328d8       0x40 examples/beaconing/CMakeFiles/beaconing_nrf52840_xxAA_s140_6.0.0.dir/__/__/mesh/core/src/bearer_event.c.obj
                0x000328d8                bearer_event_critical_section_end
 .text.bearer_event_flag_add
                0x00032918       0x3c examples/beaconing/CMakeFiles/beaconing_nrf52840_xxAA_s140_6.0.0.dir/__/__/mesh/core/src/bearer_event.c.obj
                0x00032918                bearer_event_flag_add
 .text.bearer_event_flag_set
                0x00032954       0x44 examples/beaconing/CMakeFiles/beaconing_nrf52840_xxAA_s140_6.0.0.dir/__/__/mesh/core/src/bearer_event.c.obj
                0x00032954                bearer_event_flag_set
 .text.bearer_event_sequential_add
                0x00032998       0x2e examples/beaconing/CMakeFiles/beaconing_nrf52840_xxAA_s140_6.0.0.dir/__/__/mesh/core/src/bearer_event.c.obj
                0x00032998                bearer_event_sequential_add
 *fill*         0x000329c6        0x2 
 .text.bearer_event_sequential_post
                0x000329c8       0x44 examples/beaconing/CMakeFiles/beaconing_nrf52840_xxAA_s140_6.0.0.dir/__/__/mesh/core/src/bearer_event.c.obj
                0x000329c8                bearer_event_sequential_post
 .text.bearer_event_sequential_pending
                0x00032a0c       0x10 examples/beaconing/CMakeFiles/beaconing_nrf52840_xxAA_s140_6.0.0.dir/__/__/mesh/core/src/bearer_event.c.obj
                0x00032a0c                bearer_event_sequential_pending
 .text.bearer_event_handler
                0x00032a1c       0xe8 examples/beaconing/CMakeFiles/beaconing_nrf52840_xxAA_s140_6.0.0.dir/__/__/mesh/core/src/bearer_event.c.obj
                0x00032a1c                bearer_event_handler
 .text.QDEC_IRQHandler
                0x00032b04        0x4 examples/beaconing/CMakeFiles/beaconing_nrf52840_xxAA_s140_6.0.0.dir/__/__/mesh/core/src/bearer_event.c.obj
                0x00032b04                QDEC_IRQHandler
 .text.sd_ecb_block_encrypt
                0x00032b08        0x4 examples/beaconing/CMakeFiles/beaconing_nrf52840_xxAA_s140_6.0.0.dir/__/__/mesh/core/src/enc.c.obj
 .text.enc_aes_encrypt
                0x00032b0c       0x32 examples/beaconing/CMakeFiles/beaconing_nrf52840_xxAA_s140_6.0.0.dir/__/__/mesh/core/src/enc.c.obj
                0x00032b0c                enc_aes_encrypt
 .text.enc_aes_cmac
                0x00032b3e        0x4 examples/beaconing/CMakeFiles/beaconing_nrf52840_xxAA_s140_6.0.0.dir/__/__/mesh/core/src/enc.c.obj
                0x00032b3e                enc_aes_cmac
 .text.enc_aes_ccm_encrypt
                0x00032b42        0x4 examples/beaconing/CMakeFiles/beaconing_nrf52840_xxAA_s140_6.0.0.dir/__/__/mesh/core/src/enc.c.obj
                0x00032b42                enc_aes_ccm_encrypt
 .text.enc_aes_ccm_decrypt
                0x00032b46        0x4 examples/beaconing/CMakeFiles/beaconing_nrf52840_xxAA_s140_6.0.0.dir/__/__/mesh/core/src/enc.c.obj
                0x00032b46                enc_aes_ccm_decrypt
 .text.enc_nonce_generate
                0x00032b4a       0xbc examples/beaconing/CMakeFiles/beaconing_nrf52840_xxAA_s140_6.0.0.dir/__/__/mesh/core/src/enc.c.obj
                0x00032b4a                enc_nonce_generate
 .text.enc_s1   0x00032c06       0x2c examples/beaconing/CMakeFiles/beaconing_nrf52840_xxAA_s140_6.0.0.dir/__/__/mesh/core/src/enc.c.obj
                0x00032c06                enc_s1
 .text.enc_k1   0x00032c32       0x3c examples/beaconing/CMakeFiles/beaconing_nrf52840_xxAA_s140_6.0.0.dir/__/__/mesh/core/src/enc.c.obj
                0x00032c32                enc_k1
 *fill*         0x00032c6e        0x2 
 .text.enc_k2   0x00032c70       0xc8 examples/beaconing/CMakeFiles/beaconing_nrf52840_xxAA_s140_6.0.0.dir/__/__/mesh/core/src/enc.c.obj
                0x00032c70                enc_k2
 .text.enc_k3   0x00032d38       0x5c examples/beaconing/CMakeFiles/beaconing_nrf52840_xxAA_s140_6.0.0.dir/__/__/mesh/core/src/enc.c.obj
                0x00032d38                enc_k3
 .text.enc_k4   0x00032d94       0x54 examples/beaconing/CMakeFiles/beaconing_nrf52840_xxAA_s140_6.0.0.dir/__/__/mesh/core/src/enc.c.obj
                0x00032d94                enc_k4
 .text.allocate_packet
                0x00032de8       0x6a examples/beaconing/CMakeFiles/beaconing_nrf52840_xxAA_s140_6.0.0.dir/__/__/mesh/core/src/network.c.obj
 *fill*         0x00032e52        0x2 
 .text.network_init
                0x00032e54       0x2c examples/beaconing/CMakeFiles/beaconing_nrf52840_xxAA_s140_6.0.0.dir/__/__/mesh/core/src/network.c.obj
                0x00032e54                network_init
 .text.network_opt_set
                0x00032e80       0x84 examples/beaconing/CMakeFiles/beaconing_nrf52840_xxAA_s140_6.0.0.dir/__/__/mesh/core/src/network.c.obj
                0x00032e80                network_opt_set
 .text.network_opt_get
                0x00032f04       0x4c examples/beaconing/CMakeFiles/beaconing_nrf52840_xxAA_s140_6.0.0.dir/__/__/mesh/core/src/network.c.obj
                0x00032f04                network_opt_get
 .text.network_packet_alloc
                0x00032f50       0x30 examples/beaconing/CMakeFiles/beaconing_nrf52840_xxAA_s140_6.0.0.dir/__/__/mesh/core/src/network.c.obj
                0x00032f50                network_packet_alloc
 .text.network_packet_send
                0x00032f80       0x46 examples/beaconing/CMakeFiles/beaconing_nrf52840_xxAA_s140_6.0.0.dir/__/__/mesh/core/src/network.c.obj
                0x00032f80                network_packet_send
 *fill*         0x00032fc6        0x2 
 .text.network_packet_in
                0x00032fc8      0x168 examples/beaconing/CMakeFiles/beaconing_nrf52840_xxAA_s140_6.0.0.dir/__/__/mesh/core/src/network.c.obj
                0x00032fc8                network_packet_in
 .text.nonce_type_get
                0x00033130       0x16 examples/beaconing/CMakeFiles/beaconing_nrf52840_xxAA_s140_6.0.0.dir/__/__/mesh/core/src/net_packet.c.obj
 .text.header_transfuscate
                0x00033146       0x54 examples/beaconing/CMakeFiles/beaconing_nrf52840_xxAA_s140_6.0.0.dir/__/__/mesh/core/src/net_packet.c.obj
 *fill*         0x0003319a        0x2 
 .text.net_packet_decrypt
                0x0003319c      0x224 examples/beaconing/CMakeFiles/beaconing_nrf52840_xxAA_s140_6.0.0.dir/__/__/mesh/core/src/net_packet.c.obj
                0x0003319c                net_packet_decrypt
 .text.net_packet_encrypt
                0x000333c0       0x7e examples/beaconing/CMakeFiles/beaconing_nrf52840_xxAA_s140_6.0.0.dir/__/__/mesh/core/src/net_packet.c.obj
                0x000333c0                net_packet_encrypt
 .text.net_packet_header_set
                0x0003343e       0xaa examples/beaconing/CMakeFiles/beaconing_nrf52840_xxAA_s140_6.0.0.dir/__/__/mesh/core/src/net_packet.c.obj
                0x0003343e                net_packet_header_set
 .text.net_packet_payload_len_get
                0x000334e8       0x10 examples/beaconing/CMakeFiles/beaconing_nrf52840_xxAA_s140_6.0.0.dir/__/__/mesh/core/src/net_packet.c.obj
                0x000334e8                net_packet_payload_len_get
 .text.net_packet_from_payload
                0x000334f8        0x4 examples/beaconing/CMakeFiles/beaconing_nrf52840_xxAA_s140_6.0.0.dir/__/__/mesh/core/src/net_packet.c.obj
                0x000334f8                net_packet_from_payload
 .text.net_packet_obfuscation_start_get
                0x000334fc        0x4 examples/beaconing/CMakeFiles/beaconing_nrf52840_xxAA_s140_6.0.0.dir/__/__/mesh/core/src/net_packet.c.obj
                0x000334fc                net_packet_obfuscation_start_get
 .text.stage_get_available
                0x00033500       0x24 examples/beaconing/CMakeFiles/beaconing_nrf52840_xxAA_s140_6.0.0.dir/__/__/mesh/core/src/msqueue.c.obj
 .text.msq_get  0x00033524       0x38 examples/beaconing/CMakeFiles/beaconing_nrf52840_xxAA_s140_6.0.0.dir/__/__/mesh/core/src/msqueue.c.obj
                0x00033524                msq_get
 .text.msq_move
                0x0003355c       0x2e examples/beaconing/CMakeFiles/beaconing_nrf52840_xxAA_s140_6.0.0.dir/__/__/mesh/core/src/msqueue.c.obj
                0x0003355c                msq_move
 .text.msq_reset
                0x0003358a       0x20 examples/beaconing/CMakeFiles/beaconing_nrf52840_xxAA_s140_6.0.0.dir/__/__/mesh/core/src/msqueue.c.obj
                0x0003358a                msq_reset
 .text.msq_init
                0x000335aa       0x4a examples/beaconing/CMakeFiles/beaconing_nrf52840_xxAA_s140_6.0.0.dir/__/__/mesh/core/src/msqueue.c.obj
                0x000335aa                msq_init
 .text.msq_available
                0x000335f4       0x26 examples/beaconing/CMakeFiles/beaconing_nrf52840_xxAA_s140_6.0.0.dir/__/__/mesh/core/src/msqueue.c.obj
                0x000335f4                msq_available
 .text.nrf_mesh_keygen_aid
                0x0003361a       0x12 examples/beaconing/CMakeFiles/beaconing_nrf52840_xxAA_s140_6.0.0.dir/__/__/mesh/core/src/nrf_mesh_keygen.c.obj
                0x0003361a                nrf_mesh_keygen_aid
 .text.nrf_mesh_keygen_network_secmat
                0x0003362c       0x20 examples/beaconing/CMakeFiles/beaconing_nrf52840_xxAA_s140_6.0.0.dir/__/__/mesh/core/src/nrf_mesh_keygen.c.obj
                0x0003362c                nrf_mesh_keygen_network_secmat
 .text.nrf_mesh_keygen_beacon_secmat
                0x0003364c       0x50 examples/beaconing/CMakeFiles/beaconing_nrf52840_xxAA_s140_6.0.0.dir/__/__/mesh/core/src/nrf_mesh_keygen.c.obj
                0x0003364c                nrf_mesh_keygen_beacon_secmat
 .text.nrf_mesh_keygen_virtual_address
                0x0003369c       0x50 examples/beaconing/CMakeFiles/beaconing_nrf52840_xxAA_s140_6.0.0.dir/__/__/mesh/core/src/nrf_mesh_keygen.c.obj
                0x0003369c                nrf_mesh_keygen_virtual_address
 .text.list_insert
                0x000336ec       0x1c examples/beaconing/CMakeFiles/beaconing_nrf52840_xxAA_s140_6.0.0.dir/__/__/mesh/core/src/list.c.obj
 .text.list_add
                0x00033708       0x42 examples/beaconing/CMakeFiles/beaconing_nrf52840_xxAA_s140_6.0.0.dir/__/__/mesh/core/src/list.c.obj
                0x00033708                list_add
 .text.list_remove
                0x0003374a       0x3a examples/beaconing/CMakeFiles/beaconing_nrf52840_xxAA_s140_6.0.0.dir/__/__/mesh/core/src/list.c.obj
                0x0003374a                list_remove
 .text.list_compare_add
                0x00033784       0x56 examples/beaconing/CMakeFiles/beaconing_nrf52840_xxAA_s140_6.0.0.dir/__/__/mesh/core/src/list.c.obj
                0x00033784                list_compare_add
 *fill*         0x000337da        0x2 
 .text.log_callback_rtt
                0x000337dc       0x2c examples/beaconing/CMakeFiles/beaconing_nrf52840_xxAA_s140_6.0.0.dir/__/__/mesh/core/src/log.c.obj
                0x000337dc                log_callback_rtt
 .text.log_init
                0x00033808       0x1c examples/beaconing/CMakeFiles/beaconing_nrf52840_xxAA_s140_6.0.0.dir/__/__/mesh/core/src/log.c.obj
                0x00033808                log_init
 .text.log_vprintf
                0x00033824       0x18 examples/beaconing/CMakeFiles/beaconing_nrf52840_xxAA_s140_6.0.0.dir/__/__/mesh/core/src/log.c.obj
                0x00033824                log_vprintf
 .text.log_printf
                0x0003383c       0x18 examples/beaconing/CMakeFiles/beaconing_nrf52840_xxAA_s140_6.0.0.dir/__/__/mesh/core/src/log.c.obj
                0x0003383c                log_printf
 .text.get_area_end
                0x00033854        0xc examples/beaconing/CMakeFiles/beaconing_nrf52840_xxAA_s140_6.0.0.dir/__/__/mesh/core/src/flash_manager.c.obj
 .text.handle_matches_filter
                0x00033860       0x26 examples/beaconing/CMakeFiles/beaconing_nrf52840_xxAA_s140_6.0.0.dir/__/__/mesh/core/src/flash_manager.c.obj
 .text.flash_area_is_blank
                0x00033886       0x34 examples/beaconing/CMakeFiles/beaconing_nrf52840_xxAA_s140_6.0.0.dir/__/__/mesh/core/src/flash_manager.c.obj
 *fill*         0x000338ba        0x2 
 .text.get_packet_buffer
                0x000338bc       0x20 examples/beaconing/CMakeFiles/beaconing_nrf52840_xxAA_s140_6.0.0.dir/__/__/mesh/core/src/flash_manager.c.obj
 .text.flash    0x000338dc       0x1c examples/beaconing/CMakeFiles/beaconing_nrf52840_xxAA_s140_6.0.0.dir/__/__/mesh/core/src/flash_manager.c.obj
 .text.free_packet_buffer
                0x000338f8       0x3c examples/beaconing/CMakeFiles/beaconing_nrf52840_xxAA_s140_6.0.0.dir/__/__/mesh/core/src/flash_manager.c.obj
 .text.reserve_action_buffer
                0x00033934       0x24 examples/beaconing/CMakeFiles/beaconing_nrf52840_xxAA_s140_6.0.0.dir/__/__/mesh/core/src/flash_manager.c.obj
 .text.commit_action_buffer
                0x00033958       0x18 examples/beaconing/CMakeFiles/beaconing_nrf52840_xxAA_s140_6.0.0.dir/__/__/mesh/core/src/flash_manager.c.obj
 .text.schedule_processing
                0x00033970        0xc examples/beaconing/CMakeFiles/beaconing_nrf52840_xxAA_s140_6.0.0.dir/__/__/mesh/core/src/flash_manager.c.obj
 .text.get_next_entry
                0x0003397c       0x34 examples/beaconing/CMakeFiles/beaconing_nrf52840_xxAA_s140_6.0.0.dir/__/__/mesh/core/src/flash_manager.c.obj
 .text.get_last_entry.isra.1
                0x000339b0       0x30 examples/beaconing/CMakeFiles/beaconing_nrf52840_xxAA_s140_6.0.0.dir/__/__/mesh/core/src/flash_manager.c.obj
 .text.process_action_queue
                0x000339e0      0x3b0 examples/beaconing/CMakeFiles/beaconing_nrf52840_xxAA_s140_6.0.0.dir/__/__/mesh/core/src/flash_manager.c.obj
 .text.flash_op_ended_callback
                0x00033d90       0x24 examples/beaconing/CMakeFiles/beaconing_nrf52840_xxAA_s140_6.0.0.dir/__/__/mesh/core/src/flash_manager.c.obj
 .text.flash_manager_init
                0x00033db4       0x68 examples/beaconing/CMakeFiles/beaconing_nrf52840_xxAA_s140_6.0.0.dir/__/__/mesh/core/src/flash_manager.c.obj
                0x00033db4                flash_manager_init
 .text.flash_manager_remove
                0x00033e1c       0x24 examples/beaconing/CMakeFiles/beaconing_nrf52840_xxAA_s140_6.0.0.dir/__/__/mesh/core/src/flash_manager.c.obj
                0x00033e1c                flash_manager_remove
 .text.flash_manager_entry_get
                0x00033e40       0x3c examples/beaconing/CMakeFiles/beaconing_nrf52840_xxAA_s140_6.0.0.dir/__/__/mesh/core/src/flash_manager.c.obj
                0x00033e40                flash_manager_entry_get
 .text.flash_manager_entry_next_get
                0x00033e7c       0x60 examples/beaconing/CMakeFiles/beaconing_nrf52840_xxAA_s140_6.0.0.dir/__/__/mesh/core/src/flash_manager.c.obj
                0x00033e7c                flash_manager_entry_next_get
 .text.flash_manager_entry_alloc
                0x00033edc       0x5c examples/beaconing/CMakeFiles/beaconing_nrf52840_xxAA_s140_6.0.0.dir/__/__/mesh/core/src/flash_manager.c.obj
                0x00033edc                flash_manager_entry_alloc
 .text.flash_manager_entry_commit
                0x00033f38       0x2c examples/beaconing/CMakeFiles/beaconing_nrf52840_xxAA_s140_6.0.0.dir/__/__/mesh/core/src/flash_manager.c.obj
                0x00033f38                flash_manager_entry_commit
 .text.flash_manager_entry_invalidate
                0x00033f64       0x4e examples/beaconing/CMakeFiles/beaconing_nrf52840_xxAA_s140_6.0.0.dir/__/__/mesh/core/src/flash_manager.c.obj
                0x00033f64                flash_manager_entry_invalidate
 .text.flash_manager_add
                0x00033fb2      0x1f6 examples/beaconing/CMakeFiles/beaconing_nrf52840_xxAA_s140_6.0.0.dir/__/__/mesh/core/src/flash_manager.c.obj
                0x00033fb2                flash_manager_add
 .text.flash_manager_mem_listener_register
                0x000341a8       0x30 examples/beaconing/CMakeFiles/beaconing_nrf52840_xxAA_s140_6.0.0.dir/__/__/mesh/core/src/flash_manager.c.obj
                0x000341a8                flash_manager_mem_listener_register
 .text.flash_manager_is_stable
                0x000341d8       0x24 examples/beaconing/CMakeFiles/beaconing_nrf52840_xxAA_s140_6.0.0.dir/__/__/mesh/core/src/flash_manager.c.obj
                0x000341d8                flash_manager_is_stable
 .text.flash_manager_on_defrag_end
                0x000341fc       0x4c examples/beaconing/CMakeFiles/beaconing_nrf52840_xxAA_s140_6.0.0.dir/__/__/mesh/core/src/flash_manager.c.obj
                0x000341fc                flash_manager_on_defrag_end
 .text.flash_manager_recovery_page_get
                0x00034248        0x4 examples/beaconing/CMakeFiles/beaconing_nrf52840_xxAA_s140_6.0.0.dir/__/__/mesh/core/src/flash_manager.c.obj
                0x00034248                flash_manager_recovery_page_get
 .text.flash_manager_action_queue_empty_cb_set
                0x0003424c       0x1c examples/beaconing/CMakeFiles/beaconing_nrf52840_xxAA_s140_6.0.0.dir/__/__/mesh/core/src/flash_manager.c.obj
                0x0003424c                flash_manager_action_queue_empty_cb_set
 .text.utils_xor
                0x00034268       0x14 examples/beaconing/CMakeFiles/beaconing_nrf52840_xxAA_s140_6.0.0.dir/__/__/mesh/core/src/ccm_soft.c.obj
 .text.sd_ecb_block_encrypt
                0x0003427c        0x4 examples/beaconing/CMakeFiles/beaconing_nrf52840_xxAA_s140_6.0.0.dir/__/__/mesh/core/src/ccm_soft.c.obj
 .text.ccm_soft_crypt
                0x00034280       0x4c examples/beaconing/CMakeFiles/beaconing_nrf52840_xxAA_s140_6.0.0.dir/__/__/mesh/core/src/ccm_soft.c.obj
 .text.ccm_soft_authenticate_blocks
                0x000342cc       0x6c examples/beaconing/CMakeFiles/beaconing_nrf52840_xxAA_s140_6.0.0.dir/__/__/mesh/core/src/ccm_soft.c.obj
 .text.ccm_soft_authenticate
                0x00034338       0x94 examples/beaconing/CMakeFiles/beaconing_nrf52840_xxAA_s140_6.0.0.dir/__/__/mesh/core/src/ccm_soft.c.obj
 .text.ccm_soft_encrypt
                0x000343cc       0x54 examples/beaconing/CMakeFiles/beaconing_nrf52840_xxAA_s140_6.0.0.dir/__/__/mesh/core/src/ccm_soft.c.obj
                0x000343cc                ccm_soft_encrypt
 .text.ccm_soft_decrypt
                0x00034420       0x98 examples/beaconing/CMakeFiles/beaconing_nrf52840_xxAA_s140_6.0.0.dir/__/__/mesh/core/src/ccm_soft.c.obj
                0x00034420                ccm_soft_decrypt
 .text.replay_cache_add
                0x000344b8       0x50 examples/beaconing/CMakeFiles/beaconing_nrf52840_xxAA_s140_6.0.0.dir/__/__/mesh/core/src/replay_cache.c.obj
                0x000344b8                replay_cache_add
 .text.replay_cache_has_elem
                0x00034508       0x38 examples/beaconing/CMakeFiles/beaconing_nrf52840_xxAA_s140_6.0.0.dir/__/__/mesh/core/src/replay_cache.c.obj
                0x00034508                replay_cache_has_elem
 .text.replay_cache_clear
                0x00034540       0x20 examples/beaconing/CMakeFiles/beaconing_nrf52840_xxAA_s140_6.0.0.dir/__/__/mesh/core/src/replay_cache.c.obj
                0x00034540                replay_cache_clear
 .text.replay_cache_init
                0x00034560        0x4 examples/beaconing/CMakeFiles/beaconing_nrf52840_xxAA_s140_6.0.0.dir/__/__/mesh/core/src/replay_cache.c.obj
                0x00034560                replay_cache_init
 .text.beacon_create
                0x00034564       0x46 examples/beaconing/CMakeFiles/beaconing_nrf52840_xxAA_s140_6.0.0.dir/__/__/mesh/core/src/beacon.c.obj
                0x00034564                beacon_create
 *fill*         0x000345aa        0x2 
 .text.beacon_packet_in
                0x000345ac      0x154 examples/beaconing/CMakeFiles/beaconing_nrf52840_xxAA_s140_6.0.0.dir/__/__/mesh/core/src/beacon.c.obj
                0x000345ac                beacon_packet_in
 .text.entry_get
                0x00034700       0x78 examples/beaconing/CMakeFiles/beaconing_nrf52840_xxAA_s140_6.0.0.dir/__/__/mesh/core/src/flash_manager_internal.c.obj
                0x00034700                entry_get
 .text.core_tx_complete_cb_set
                0x00034778        0xc examples/beaconing/CMakeFiles/beaconing_nrf52840_xxAA_s140_6.0.0.dir/__/__/mesh/core/src/core_tx.c.obj
                0x00034778                core_tx_complete_cb_set
 .text.core_tx_packet_alloc
                0x00034784       0x98 examples/beaconing/CMakeFiles/beaconing_nrf52840_xxAA_s140_6.0.0.dir/__/__/mesh/core/src/core_tx.c.obj
                0x00034784                core_tx_packet_alloc
 .text.core_tx_packet_send
                0x0003481c       0x4c examples/beaconing/CMakeFiles/beaconing_nrf52840_xxAA_s140_6.0.0.dir/__/__/mesh/core/src/core_tx.c.obj
                0x0003481c                core_tx_packet_send
 .text.core_tx_packet_discard
                0x00034868       0x40 examples/beaconing/CMakeFiles/beaconing_nrf52840_xxAA_s140_6.0.0.dir/__/__/mesh/core/src/core_tx.c.obj
                0x00034868                core_tx_packet_discard
 .text.core_tx_complete
                0x000348a8       0x34 examples/beaconing/CMakeFiles/beaconing_nrf52840_xxAA_s140_6.0.0.dir/__/__/mesh/core/src/core_tx.c.obj
                0x000348a8                core_tx_complete
 .text.core_tx_bearer_add
                0x000348dc       0x70 examples/beaconing/CMakeFiles/beaconing_nrf52840_xxAA_s140_6.0.0.dir/__/__/mesh/core/src/core_tx.c.obj
                0x000348dc                core_tx_bearer_add
 .text.heartbeat_subscription_timer_cb
                0x0003494c       0x1c examples/beaconing/CMakeFiles/beaconing_nrf52840_xxAA_s140_6.0.0.dir/__/__/mesh/core/src/heartbeat.c.obj
 .text.heartbeat_opcode_handle
                0x00034968       0x88 examples/beaconing/CMakeFiles/beaconing_nrf52840_xxAA_s140_6.0.0.dir/__/__/mesh/core/src/heartbeat.c.obj
 .text.heartbeat_send
                0x000349f0       0xb2 examples/beaconing/CMakeFiles/beaconing_nrf52840_xxAA_s140_6.0.0.dir/__/__/mesh/core/src/heartbeat.c.obj
 *fill*         0x00034aa2        0x2 
 .text.heartbeat_publication_timer_cb
                0x00034aa4       0xa8 examples/beaconing/CMakeFiles/beaconing_nrf52840_xxAA_s140_6.0.0.dir/__/__/mesh/core/src/heartbeat.c.obj
 .text.heartbeat_core_evt_cb
                0x00034b4c       0x7c examples/beaconing/CMakeFiles/beaconing_nrf52840_xxAA_s140_6.0.0.dir/__/__/mesh/core/src/heartbeat.c.obj
 .text.heartbeat_on_feature_change_trigger
                0x00034bc8       0x44 examples/beaconing/CMakeFiles/beaconing_nrf52840_xxAA_s140_6.0.0.dir/__/__/mesh/core/src/heartbeat.c.obj
                0x00034bc8                heartbeat_on_feature_change_trigger
 .text.heartbeat_init
                0x00034c0c       0x78 examples/beaconing/CMakeFiles/beaconing_nrf52840_xxAA_s140_6.0.0.dir/__/__/mesh/core/src/heartbeat.c.obj
                0x00034c0c                heartbeat_init
 .text.heartbeat_subscription_set
                0x00034c84       0xa4 examples/beaconing/CMakeFiles/beaconing_nrf52840_xxAA_s140_6.0.0.dir/__/__/mesh/core/src/heartbeat.c.obj
                0x00034c84                heartbeat_subscription_set
 .text.heartbeat_subscription_get
                0x00034d28        0x8 examples/beaconing/CMakeFiles/beaconing_nrf52840_xxAA_s140_6.0.0.dir/__/__/mesh/core/src/heartbeat.c.obj
                0x00034d28                heartbeat_subscription_get
 .text.heartbeat_config_server_cb_set
                0x00034d30       0x28 examples/beaconing/CMakeFiles/beaconing_nrf52840_xxAA_s140_6.0.0.dir/__/__/mesh/core/src/heartbeat.c.obj
                0x00034d30                heartbeat_config_server_cb_set
 .text.heartbeat_publication_state_updated
                0x00034d58       0x74 examples/beaconing/CMakeFiles/beaconing_nrf52840_xxAA_s140_6.0.0.dir/__/__/mesh/core/src/heartbeat.c.obj
                0x00034d58                heartbeat_publication_state_updated
 .text.make_network_beacon_packet
                0x00034dcc       0x50 examples/beaconing/CMakeFiles/beaconing_nrf52840_xxAA_s140_6.0.0.dir/__/__/mesh/core/src/net_beacon.c.obj
 .text.beacon_tx
                0x00034e1c      0x12c examples/beaconing/CMakeFiles/beaconing_nrf52840_xxAA_s140_6.0.0.dir/__/__/mesh/core/src/net_beacon.c.obj
 .text.tx_complete_cb
                0x00034f48        0xe examples/beaconing/CMakeFiles/beaconing_nrf52840_xxAA_s140_6.0.0.dir/__/__/mesh/core/src/net_beacon.c.obj
 .text.beacon_tx_timeout
                0x00034f56        0x4 examples/beaconing/CMakeFiles/beaconing_nrf52840_xxAA_s140_6.0.0.dir/__/__/mesh/core/src/net_beacon.c.obj
 .text.is_valid_beacon_pkt.part.0
                0x00034f5a       0x30 examples/beaconing/CMakeFiles/beaconing_nrf52840_xxAA_s140_6.0.0.dir/__/__/mesh/core/src/net_beacon.c.obj
 *fill*         0x00034f8a        0x2 
 .text.net_beacon_init
                0x00034f8c       0x94 examples/beaconing/CMakeFiles/beaconing_nrf52840_xxAA_s140_6.0.0.dir/__/__/mesh/core/src/net_beacon.c.obj
                0x00034f8c                net_beacon_init
 .text.net_beacon_state_set
                0x00035020       0x34 examples/beaconing/CMakeFiles/beaconing_nrf52840_xxAA_s140_6.0.0.dir/__/__/mesh/core/src/net_beacon.c.obj
                0x00035020                net_beacon_state_set
 .text.net_beacon_state_get
                0x00035054        0xc examples/beaconing/CMakeFiles/beaconing_nrf52840_xxAA_s140_6.0.0.dir/__/__/mesh/core/src/net_beacon.c.obj
                0x00035054                net_beacon_state_get
 .text.net_beacon_packet_in
                0x00035060       0xf2 examples/beaconing/CMakeFiles/beaconing_nrf52840_xxAA_s140_6.0.0.dir/__/__/mesh/core/src/net_beacon.c.obj
                0x00035060                net_beacon_packet_in
 *fill*         0x00035152        0x2 
 .text.packet_discard
                0x00035154       0x40 examples/beaconing/CMakeFiles/beaconing_nrf52840_xxAA_s140_6.0.0.dir/__/__/mesh/core/src/core_tx_adv.c.obj
 .text.packet_send
                0x00035194       0x58 examples/beaconing/CMakeFiles/beaconing_nrf52840_xxAA_s140_6.0.0.dir/__/__/mesh/core/src/core_tx_adv.c.obj
 .text.packet_alloc
                0x000351ec       0x58 examples/beaconing/CMakeFiles/beaconing_nrf52840_xxAA_s140_6.0.0.dir/__/__/mesh/core/src/core_tx_adv.c.obj
 .text.adv_tx_complete_callback
                0x00035244       0x20 examples/beaconing/CMakeFiles/beaconing_nrf52840_xxAA_s140_6.0.0.dir/__/__/mesh/core/src/core_tx_adv.c.obj
 .text.core_tx_adv_init
                0x00035264       0x60 examples/beaconing/CMakeFiles/beaconing_nrf52840_xxAA_s140_6.0.0.dir/__/__/mesh/core/src/core_tx_adv.c.obj
                0x00035264                core_tx_adv_init
 .text.core_tx_adv_count_set
                0x000352c4       0x28 examples/beaconing/CMakeFiles/beaconing_nrf52840_xxAA_s140_6.0.0.dir/__/__/mesh/core/src/core_tx_adv.c.obj
                0x000352c4                core_tx_adv_count_set
 .text.core_tx_adv_count_get
                0x000352ec       0x1c examples/beaconing/CMakeFiles/beaconing_nrf52840_xxAA_s140_6.0.0.dir/__/__/mesh/core/src/core_tx_adv.c.obj
                0x000352ec                core_tx_adv_count_get
 .text.core_tx_adv_interval_set
                0x00035308       0x28 examples/beaconing/CMakeFiles/beaconing_nrf52840_xxAA_s140_6.0.0.dir/__/__/mesh/core/src/core_tx_adv.c.obj
                0x00035308                core_tx_adv_interval_set
 .text.core_tx_adv_interval_get
                0x00035330       0x28 examples/beaconing/CMakeFiles/beaconing_nrf52840_xxAA_s140_6.0.0.dir/__/__/mesh/core/src/core_tx_adv.c.obj
                0x00035330                core_tx_adv_interval_get
 .text.core_tx_adv_tx_power_set
                0x00035358       0x28 examples/beaconing/CMakeFiles/beaconing_nrf52840_xxAA_s140_6.0.0.dir/__/__/mesh/core/src/core_tx_adv.c.obj
                0x00035358                core_tx_adv_tx_power_set
 .text.ad_listener_subscribe
                0x00035380       0x5c examples/beaconing/CMakeFiles/beaconing_nrf52840_xxAA_s140_6.0.0.dir/__/__/mesh/bearer/src/ad_listener.c.obj
                0x00035380                ad_listener_subscribe
 .text.ad_listener_process
                0x000353dc       0x64 examples/beaconing/CMakeFiles/beaconing_nrf52840_xxAA_s140_6.0.0.dir/__/__/mesh/bearer/src/ad_listener.c.obj
                0x000353dc                ad_listener_process
 .text.adtype_filter_handle
                0x00035440       0x64 examples/beaconing/CMakeFiles/beaconing_nrf52840_xxAA_s140_6.0.0.dir/__/__/mesh/bearer/src/ad_type_filter.c.obj
 .text.bearer_adtype_filtering_set
                0x000354a4       0x1c examples/beaconing/CMakeFiles/beaconing_nrf52840_xxAA_s140_6.0.0.dir/__/__/mesh/bearer/src/ad_type_filter.c.obj
                0x000354a4                bearer_adtype_filtering_set
 .text.bearer_adtype_add
                0x000354c0       0x20 examples/beaconing/CMakeFiles/beaconing_nrf52840_xxAA_s140_6.0.0.dir/__/__/mesh/bearer/src/ad_type_filter.c.obj
                0x000354c0                bearer_adtype_add
 .text.bearer_adtype_mode_set
                0x000354e0       0x18 examples/beaconing/CMakeFiles/beaconing_nrf52840_xxAA_s140_6.0.0.dir/__/__/mesh/bearer/src/ad_type_filter.c.obj
                0x000354e0                bearer_adtype_mode_set
 .text.tx_complete_event_callback
                0x000354f8       0x28 examples/beaconing/CMakeFiles/beaconing_nrf52840_xxAA_s140_6.0.0.dir/__/__/mesh/bearer/src/advertiser.c.obj
 .text.set_gap_addr_type
                0x00035520       0x26 examples/beaconing/CMakeFiles/beaconing_nrf52840_xxAA_s140_6.0.0.dir/__/__/mesh/bearer/src/advertiser.c.obj
 .text.broadcast_complete_cb
                0x00035546       0x46 examples/beaconing/CMakeFiles/beaconing_nrf52840_xxAA_s140_6.0.0.dir/__/__/mesh/bearer/src/advertiser.c.obj
 .text.schedule_first_time
                0x0003558c       0x28 examples/beaconing/CMakeFiles/beaconing_nrf52840_xxAA_s140_6.0.0.dir/__/__/mesh/bearer/src/advertiser.c.obj
 .text.timeout_event
                0x000355b4      0x10c examples/beaconing/CMakeFiles/beaconing_nrf52840_xxAA_s140_6.0.0.dir/__/__/mesh/bearer/src/advertiser.c.obj
 .text.advertiser_init
                0x000356c0        0xc examples/beaconing/CMakeFiles/beaconing_nrf52840_xxAA_s140_6.0.0.dir/__/__/mesh/bearer/src/advertiser.c.obj
                0x000356c0                advertiser_init
 .text.advertiser_enable
                0x000356cc       0x2a examples/beaconing/CMakeFiles/beaconing_nrf52840_xxAA_s140_6.0.0.dir/__/__/mesh/bearer/src/advertiser.c.obj
                0x000356cc                advertiser_enable
 .text.advertiser_packet_alloc
                0x000356f6       0x76 examples/beaconing/CMakeFiles/beaconing_nrf52840_xxAA_s140_6.0.0.dir/__/__/mesh/bearer/src/advertiser.c.obj
                0x000356f6                advertiser_packet_alloc
 .text.advertiser_packet_send
                0x0003576c       0x62 examples/beaconing/CMakeFiles/beaconing_nrf52840_xxAA_s140_6.0.0.dir/__/__/mesh/bearer/src/advertiser.c.obj
                0x0003576c                advertiser_packet_send
 .text.advertiser_packet_discard
                0x000357ce       0x1e examples/beaconing/CMakeFiles/beaconing_nrf52840_xxAA_s140_6.0.0.dir/__/__/mesh/bearer/src/advertiser.c.obj
                0x000357ce                advertiser_packet_discard
 .text.advertiser_interval_set
                0x000357ec       0x54 examples/beaconing/CMakeFiles/beaconing_nrf52840_xxAA_s140_6.0.0.dir/__/__/mesh/bearer/src/advertiser.c.obj
                0x000357ec                advertiser_interval_set
 .text.advertiser_tx_power_set
                0x00035840       0x14 examples/beaconing/CMakeFiles/beaconing_nrf52840_xxAA_s140_6.0.0.dir/__/__/mesh/bearer/src/advertiser.c.obj
                0x00035840                advertiser_tx_power_set
 .text.advertiser_flush
                0x00035854       0x1e examples/beaconing/CMakeFiles/beaconing_nrf52840_xxAA_s140_6.0.0.dir/__/__/mesh/bearer/src/advertiser.c.obj
                0x00035854                advertiser_flush
 *fill*         0x00035872        0x2 
 .text.advertiser_address_default_get
                0x00035874       0x38 examples/beaconing/CMakeFiles/beaconing_nrf52840_xxAA_s140_6.0.0.dir/__/__/mesh/bearer/src/advertiser.c.obj
                0x00035874                advertiser_address_default_get
 .text.advertiser_instance_init
                0x000358ac       0xa4 examples/beaconing/CMakeFiles/beaconing_nrf52840_xxAA_s140_6.0.0.dir/__/__/mesh/bearer/src/advertiser.c.obj
                0x000358ac                advertiser_instance_init
 .text.action_timer_start
                0x00035950       0x90 examples/beaconing/CMakeFiles/beaconing_nrf52840_xxAA_s140_6.0.0.dir/__/__/mesh/bearer/src/bearer_handler.c.obj
 .text.action_switch
                0x000359e0       0xe8 examples/beaconing/CMakeFiles/beaconing_nrf52840_xxAA_s140_6.0.0.dir/__/__/mesh/bearer/src/bearer_handler.c.obj
 .text.end_handle
                0x00035ac8       0x44 examples/beaconing/CMakeFiles/beaconing_nrf52840_xxAA_s140_6.0.0.dir/__/__/mesh/bearer/src/bearer_handler.c.obj
 .text.TIMER2_IRQHandler
                0x00035b0c       0x58 examples/beaconing/CMakeFiles/beaconing_nrf52840_xxAA_s140_6.0.0.dir/__/__/mesh/bearer/src/bearer_handler.c.obj
                0x00035b0c                TIMER2_IRQHandler
 .text.bearer_handler_init
                0x00035b64       0x44 examples/beaconing/CMakeFiles/beaconing_nrf52840_xxAA_s140_6.0.0.dir/__/__/mesh/bearer/src/bearer_handler.c.obj
                0x00035b64                bearer_handler_init
 .text.bearer_handler_start
                0x00035ba8       0x1c examples/beaconing/CMakeFiles/beaconing_nrf52840_xxAA_s140_6.0.0.dir/__/__/mesh/bearer/src/bearer_handler.c.obj
                0x00035ba8                bearer_handler_start
 .text.bearer_handler_action_enqueue
                0x00035bc4       0x6c examples/beaconing/CMakeFiles/beaconing_nrf52840_xxAA_s140_6.0.0.dir/__/__/mesh/bearer/src/bearer_handler.c.obj
                0x00035bc4                bearer_handler_action_enqueue
 .text.bearer_handler_action_end
                0x00035c30       0x48 examples/beaconing/CMakeFiles/beaconing_nrf52840_xxAA_s140_6.0.0.dir/__/__/mesh/bearer/src/bearer_handler.c.obj
                0x00035c30                bearer_handler_action_end
 .text.bearer_handler_radio_irq_handler
                0x00035c78       0x64 examples/beaconing/CMakeFiles/beaconing_nrf52840_xxAA_s140_6.0.0.dir/__/__/mesh/bearer/src/bearer_handler.c.obj
                0x00035c78                bearer_handler_radio_irq_handler
 .text.bearer_handler_timer_irq_handler
                0x00035cdc       0x24 examples/beaconing/CMakeFiles/beaconing_nrf52840_xxAA_s140_6.0.0.dir/__/__/mesh/bearer/src/bearer_handler.c.obj
                0x00035cdc                bearer_handler_timer_irq_handler
 .text.bearer_handler_on_ts_begin
                0x00035d00       0x38 examples/beaconing/CMakeFiles/beaconing_nrf52840_xxAA_s140_6.0.0.dir/__/__/mesh/bearer/src/bearer_handler.c.obj
                0x00035d00                bearer_handler_on_ts_begin
 .text.bearer_handler_on_ts_end
                0x00035d38       0x70 examples/beaconing/CMakeFiles/beaconing_nrf52840_xxAA_s140_6.0.0.dir/__/__/mesh/bearer/src/bearer_handler.c.obj
                0x00035d38                bearer_handler_on_ts_end
 .text.broadcast_start
                0x00035da8       0xac examples/beaconing/CMakeFiles/beaconing_nrf52840_xxAA_s140_6.0.0.dir/__/__/mesh/bearer/src/broadcast.c.obj
 .text.radio_irq_handler
                0x00035e54       0xa4 examples/beaconing/CMakeFiles/beaconing_nrf52840_xxAA_s140_6.0.0.dir/__/__/mesh/bearer/src/broadcast.c.obj
 .text.broadcast_send
                0x00035ef8       0x6c examples/beaconing/CMakeFiles/beaconing_nrf52840_xxAA_s140_6.0.0.dir/__/__/mesh/bearer/src/broadcast.c.obj
                0x00035ef8                broadcast_send
 .text.fen_filter_start
                0x00035f64       0x28 examples/beaconing/CMakeFiles/beaconing_nrf52840_xxAA_s140_6.0.0.dir/__/__/mesh/bearer/src/filter_engine.c.obj
                0x00035f64                fen_filter_start
 .text.fen_filter_stop
                0x00035f8c       0x20 examples/beaconing/CMakeFiles/beaconing_nrf52840_xxAA_s140_6.0.0.dir/__/__/mesh/bearer/src/filter_engine.c.obj
                0x00035f8c                fen_filter_stop
 .text.fen_filters_apply
                0x00035fac       0x34 examples/beaconing/CMakeFiles/beaconing_nrf52840_xxAA_s140_6.0.0.dir/__/__/mesh/bearer/src/filter_engine.c.obj
                0x00035fac                fen_filters_apply
 .text.radio_config_reset
                0x00035fe0       0x40 examples/beaconing/CMakeFiles/beaconing_nrf52840_xxAA_s140_6.0.0.dir/__/__/mesh/bearer/src/radio_config.c.obj
                0x00035fe0                radio_config_reset
 .text.radio_config_channel_set
                0x00036020       0x28 examples/beaconing/CMakeFiles/beaconing_nrf52840_xxAA_s140_6.0.0.dir/__/__/mesh/bearer/src/radio_config.c.obj
                0x00036020                radio_config_channel_set
 .text.radio_config_config
                0x00036048       0x90 examples/beaconing/CMakeFiles/beaconing_nrf52840_xxAA_s140_6.0.0.dir/__/__/mesh/bearer/src/radio_config.c.obj
                0x00036048                radio_config_config
 .text.radio_config_access_addr_set
                0x000360d8       0x50 examples/beaconing/CMakeFiles/beaconing_nrf52840_xxAA_s140_6.0.0.dir/__/__/mesh/bearer/src/radio_config.c.obj
                0x000360d8                radio_config_access_addr_set
 .text.radio_trigger
                0x00036128       0x24 examples/beaconing/CMakeFiles/beaconing_nrf52840_xxAA_s140_6.0.0.dir/__/__/mesh/bearer/src/scanner.c.obj
 .text.scan_window_end
                0x0003614c       0x10 examples/beaconing/CMakeFiles/beaconing_nrf52840_xxAA_s140_6.0.0.dir/__/__/mesh/bearer/src/scanner.c.obj
 .text.scan_window_start
                0x0003615c       0x24 examples/beaconing/CMakeFiles/beaconing_nrf52840_xxAA_s140_6.0.0.dir/__/__/mesh/bearer/src/scanner.c.obj
 .text.radio_configure
                0x00036180       0x78 examples/beaconing/CMakeFiles/beaconing_nrf52840_xxAA_s140_6.0.0.dir/__/__/mesh/bearer/src/scanner.c.obj
 .text.radio_set_packet
                0x000361f8       0x4c examples/beaconing/CMakeFiles/beaconing_nrf52840_xxAA_s140_6.0.0.dir/__/__/mesh/bearer/src/scanner.c.obj
 .text.radio_start
                0x00036244       0x78 examples/beaconing/CMakeFiles/beaconing_nrf52840_xxAA_s140_6.0.0.dir/__/__/mesh/bearer/src/scanner.c.obj
 .text.radio_stop
                0x000362bc       0x38 examples/beaconing/CMakeFiles/beaconing_nrf52840_xxAA_s140_6.0.0.dir/__/__/mesh/bearer/src/scanner.c.obj
 .text.schedule_timers
                0x000362f4       0x38 examples/beaconing/CMakeFiles/beaconing_nrf52840_xxAA_s140_6.0.0.dir/__/__/mesh/bearer/src/scanner.c.obj
 .text.scanner_radio_start
                0x0003632c       0x2c examples/beaconing/CMakeFiles/beaconing_nrf52840_xxAA_s140_6.0.0.dir/__/__/mesh/bearer/src/scanner.c.obj
                0x0003632c                scanner_radio_start
 .text.scanner_radio_stop
                0x00036358       0x10 examples/beaconing/CMakeFiles/beaconing_nrf52840_xxAA_s140_6.0.0.dir/__/__/mesh/bearer/src/scanner.c.obj
                0x00036358                scanner_radio_stop
 .text.scanner_radio_irq_handler
                0x00036368      0x13c examples/beaconing/CMakeFiles/beaconing_nrf52840_xxAA_s140_6.0.0.dir/__/__/mesh/bearer/src/scanner.c.obj
                0x00036368                scanner_radio_irq_handler
 .text.scanner_timer_irq_handler
                0x000364a4       0x30 examples/beaconing/CMakeFiles/beaconing_nrf52840_xxAA_s140_6.0.0.dir/__/__/mesh/bearer/src/scanner.c.obj
                0x000364a4                scanner_timer_irq_handler
 .text.scanner_enable
                0x000364d4       0x24 examples/beaconing/CMakeFiles/beaconing_nrf52840_xxAA_s140_6.0.0.dir/__/__/mesh/bearer/src/scanner.c.obj
                0x000364d4                scanner_enable
 .text.scanner_packet_release
                0x000364f8       0x2c examples/beaconing/CMakeFiles/beaconing_nrf52840_xxAA_s140_6.0.0.dir/__/__/mesh/bearer/src/scanner.c.obj
                0x000364f8                scanner_packet_release
 .text.scanner_rx
                0x00036524       0x30 examples/beaconing/CMakeFiles/beaconing_nrf52840_xxAA_s140_6.0.0.dir/__/__/mesh/bearer/src/scanner.c.obj
                0x00036524                scanner_rx
 .text.scanner_rx_pending
                0x00036554        0xc examples/beaconing/CMakeFiles/beaconing_nrf52840_xxAA_s140_6.0.0.dir/__/__/mesh/bearer/src/scanner.c.obj
                0x00036554                scanner_rx_pending
 .text.scanner_config_scan_time_set
                0x00036560       0x4c examples/beaconing/CMakeFiles/beaconing_nrf52840_xxAA_s140_6.0.0.dir/__/__/mesh/bearer/src/scanner.c.obj
                0x00036560                scanner_config_scan_time_set
 .text.scanner_config_channels_set
                0x000365ac       0x50 examples/beaconing/CMakeFiles/beaconing_nrf52840_xxAA_s140_6.0.0.dir/__/__/mesh/bearer/src/scanner.c.obj
                0x000365ac                scanner_config_channels_set
 .text.scanner_config_access_addresses_set
                0x000365fc       0x38 examples/beaconing/CMakeFiles/beaconing_nrf52840_xxAA_s140_6.0.0.dir/__/__/mesh/bearer/src/scanner.c.obj
                0x000365fc                scanner_config_access_addresses_set
 .text.scanner_config_reset
                0x00036634       0x50 examples/beaconing/CMakeFiles/beaconing_nrf52840_xxAA_s140_6.0.0.dir/__/__/mesh/bearer/src/scanner.c.obj
                0x00036634                scanner_config_reset
 .text.scanner_init
                0x00036684       0x54 examples/beaconing/CMakeFiles/beaconing_nrf52840_xxAA_s140_6.0.0.dir/__/__/mesh/bearer/src/scanner.c.obj
                0x00036684                scanner_init
 .text.pin_clear
                0x000366d8       0x26 examples/beaconing/CMakeFiles/beaconing_nrf52840_xxAA_s140_6.0.0.dir/__/__/mesh/bearer/src/mesh_pa_lna.c.obj
 *fill*         0x000366fe        0x2 
 .text.ppi_setup.isra.0
                0x00036700       0x3c examples/beaconing/CMakeFiles/beaconing_nrf52840_xxAA_s140_6.0.0.dir/__/__/mesh/bearer/src/mesh_pa_lna.c.obj
 .text.mesh_pa_setup_start
                0x0003673c       0x5c examples/beaconing/CMakeFiles/beaconing_nrf52840_xxAA_s140_6.0.0.dir/__/__/mesh/bearer/src/mesh_pa_lna.c.obj
                0x0003673c                mesh_pa_setup_start
 .text.mesh_lna_setup_start
                0x00036798       0x5c examples/beaconing/CMakeFiles/beaconing_nrf52840_xxAA_s140_6.0.0.dir/__/__/mesh/bearer/src/mesh_pa_lna.c.obj
                0x00036798                mesh_lna_setup_start
 .text.mesh_pa_lna_disable_start
                0x000367f4       0x1c examples/beaconing/CMakeFiles/beaconing_nrf52840_xxAA_s140_6.0.0.dir/__/__/mesh/bearer/src/mesh_pa_lna.c.obj
                0x000367f4                mesh_pa_lna_disable_start
 .text.mesh_pa_lna_setup_stop
                0x00036810       0x4c examples/beaconing/CMakeFiles/beaconing_nrf52840_xxAA_s140_6.0.0.dir/__/__/mesh/bearer/src/mesh_pa_lna.c.obj
                0x00036810                mesh_pa_lna_setup_stop
 .text.mesh_pa_lna_cleanup
                0x0003685c       0x48 examples/beaconing/CMakeFiles/beaconing_nrf52840_xxAA_s140_6.0.0.dir/__/__/mesh/bearer/src/mesh_pa_lna.c.obj
                0x0003685c                mesh_pa_lna_cleanup
 .text.errata_120
                0x000368a4       0x20 examples/beaconing/CMakeFiles/beaconing_nrf52840_xxAA_s140_6.0.0.dir/C_/b/nRF5_SDK_15.0.0_a53641a/modules/nrfx/mdk/system_nrf52840.c.obj
 .text.SystemInit
                0x000368c4      0x1b8 examples/beaconing/CMakeFiles/beaconing_nrf52840_xxAA_s140_6.0.0.dir/C_/b/nRF5_SDK_15.0.0_a53641a/modules/nrfx/mdk/system_nrf52840.c.obj
                0x000368c4                SystemInit
 .text          0x00036a7c       0x3c examples/beaconing/CMakeFiles/beaconing_nrf52840_xxAA_s140_6.0.0.dir/C_/b/nRF5_SDK_15.0.0_a53641a/modules/nrfx/mdk/gcc_startup_nrf52840.S.obj
                0x00036a7c                Reset_Handler
                0x00036aa4                NMI_Handler
                0x00036aa6                HardFault_Handler
                0x00036aa8                MemoryManagement_Handler
                0x00036aaa                BusFault_Handler
                0x00036aac                UsageFault_Handler
                0x00036aae                SVC_Handler
                0x00036ab0                DebugMon_Handler
                0x00036ab2                PendSV_Handler
                0x00036ab4                SysTick_Handler
                0x00036ab6                TEMP_IRQHandler
                0x00036ab6                TIMER3_IRQHandler
                0x00036ab6                PWM3_IRQHandler
                0x00036ab6                FPU_IRQHandler
                0x00036ab6                USBD_IRQHandler
                0x00036ab6                SPIM0_SPIS0_TWIM0_TWIS0_SPI0_TWI0_IRQHandler
                0x00036ab6                PDM_IRQHandler
                0x00036ab6                UARTE0_UART0_IRQHandler
                0x00036ab6                TIMER4_IRQHandler
                0x00036ab6                CRYPTOCELL_IRQHandler
                0x00036ab6                I2S_IRQHandler
                0x00036ab6                SWI4_EGU4_IRQHandler
                0x00036ab6                TIMER0_IRQHandler
                0x00036ab6                RTC0_IRQHandler
                0x00036ab6                POWER_CLOCK_IRQHandler
                0x00036ab6                TIMER1_IRQHandler
                0x00036ab6                SPIM3_IRQHandler
                0x00036ab6                PWM2_IRQHandler
                0x00036ab6                ECB_IRQHandler
                0x00036ab6                SPIM1_SPIS1_TWIM1_TWIS1_SPI1_TWI1_IRQHandler
                0x00036ab6                Default_Handler
                0x00036ab6                SAADC_IRQHandler
                0x00036ab6                CCM_AAR_IRQHandler
                0x00036ab6                WDT_IRQHandler
                0x00036ab6                RADIO_IRQHandler
                0x00036ab6                SWI5_EGU5_IRQHandler
                0x00036ab6                RNG_IRQHandler
                0x00036ab6                RTC2_IRQHandler
                0x00036ab6                PWM0_IRQHandler
                0x00036ab6                SWI3_EGU3_IRQHandler
                0x00036ab6                SWI1_EGU1_IRQHandler
                0x00036ab6                SPIM2_SPIS2_SPI2_IRQHandler
                0x00036ab6                NFCT_IRQHandler
                0x00036ab6                UARTE1_IRQHandler
                0x00036ab6                MWU_IRQHandler
                0x00036ab6                PWM1_IRQHandler
                0x00036ab6                QSPI_IRQHandler
                0x00036ab6                COMP_LPCOMP_IRQHandler
 .text.app_error_handler_bare
                0x00036ab8       0x1a examples/beaconing/CMakeFiles/beaconing_nrf52840_xxAA_s140_6.0.0.dir/C_/b/nRF5_SDK_15.0.0_a53641a/components/libraries/util/app_error.c.obj
                0x00036ab8                app_error_handler_bare
 *fill*         0x00036ad2        0x2 
 .text.app_util_critical_region_enter
                0x00036ad4       0x48 examples/beaconing/CMakeFiles/beaconing_nrf52840_xxAA_s140_6.0.0.dir/C_/b/nRF5_SDK_15.0.0_a53641a/components/libraries/util/app_util_platform.c.obj
                0x00036ad4                app_util_critical_region_enter
 .text.app_util_critical_region_exit
                0x00036b1c       0x2c examples/beaconing/CMakeFiles/beaconing_nrf52840_xxAA_s140_6.0.0.dir/C_/b/nRF5_SDK_15.0.0_a53641a/components/libraries/util/app_util_platform.c.obj
                0x00036b1c                app_util_critical_region_exit
 .text.user_op_alloc
                0x00036b48       0x2c examples/beaconing/CMakeFiles/beaconing_nrf52840_xxAA_s140_6.0.0.dir/C_/b/nRF5_SDK_15.0.0_a53641a/components/libraries/timer/app_timer.c.obj
 .text.timer_stop_op_schedule
                0x00036b74       0x50 examples/beaconing/CMakeFiles/beaconing_nrf52840_xxAA_s140_6.0.0.dir/C_/b/nRF5_SDK_15.0.0_a53641a/components/libraries/timer/app_timer.c.obj
 .text.nrfx_coredep_delay_us.part.0.constprop.4
                0x00036bc4       0x10 examples/beaconing/CMakeFiles/beaconing_nrf52840_xxAA_s140_6.0.0.dir/C_/b/nRF5_SDK_15.0.0_a53641a/components/libraries/timer/app_timer.c.obj
 .text.rtc1_stop
                0x00036bd4       0x44 examples/beaconing/CMakeFiles/beaconing_nrf52840_xxAA_s140_6.0.0.dir/C_/b/nRF5_SDK_15.0.0_a53641a/components/libraries/timer/app_timer.c.obj
 .text.RTC1_IRQHandler
                0x00036c18       0x9c examples/beaconing/CMakeFiles/beaconing_nrf52840_xxAA_s140_6.0.0.dir/C_/b/nRF5_SDK_15.0.0_a53641a/components/libraries/timer/app_timer.c.obj
                0x00036c18                RTC1_IRQHandler
 .text.SWI0_EGU0_IRQHandler
                0x00036cb4      0x2a4 examples/beaconing/CMakeFiles/beaconing_nrf52840_xxAA_s140_6.0.0.dir/C_/b/nRF5_SDK_15.0.0_a53641a/components/libraries/timer/app_timer.c.obj
                0x00036cb4                SWI0_EGU0_IRQHandler
 .text.app_timer_init
                0x00036f58       0x64 examples/beaconing/CMakeFiles/beaconing_nrf52840_xxAA_s140_6.0.0.dir/C_/b/nRF5_SDK_15.0.0_a53641a/components/libraries/timer/app_timer.c.obj
                0x00036f58                app_timer_init
 .text.app_timer_create
                0x00036fbc       0x24 examples/beaconing/CMakeFiles/beaconing_nrf52840_xxAA_s140_6.0.0.dir/C_/b/nRF5_SDK_15.0.0_a53641a/components/libraries/timer/app_timer.c.obj
                0x00036fbc                app_timer_create
 .text.app_timer_start
                0x00036fe0       0x8c examples/beaconing/CMakeFiles/beaconing_nrf52840_xxAA_s140_6.0.0.dir/C_/b/nRF5_SDK_15.0.0_a53641a/components/libraries/timer/app_timer.c.obj
                0x00036fe0                app_timer_start
 .text.app_timer_stop
                0x0003706c       0x20 examples/beaconing/CMakeFiles/beaconing_nrf52840_xxAA_s140_6.0.0.dir/C_/b/nRF5_SDK_15.0.0_a53641a/components/libraries/timer/app_timer.c.obj
                0x0003706c                app_timer_stop
 .text.app_error_handler
                0x0003708c       0x1a examples/beaconing/CMakeFiles/beaconing_nrf52840_xxAA_s140_6.0.0.dir/C_/b/nRF5_SDK_15.0.0_a53641a/components/libraries/util/app_error_handler_gcc.c.obj
                0x0003708c                app_error_handler
 .text._GetAvailWriteSpace
                0x000370a6       0x1c external/rtt/librtt_nrf52840_xxAA.a(SEGGER_RTT.c.obj)
 .text._WriteNoCheck
                0x000370c2       0x3c external/rtt/librtt_nrf52840_xxAA.a(SEGGER_RTT.c.obj)
 .text._WriteBlocking
                0x000370fe       0x52 external/rtt/librtt_nrf52840_xxAA.a(SEGGER_RTT.c.obj)
 .text._DoInit  0x00037150       0x60 external/rtt/librtt_nrf52840_xxAA.a(SEGGER_RTT.c.obj)
 .text.SEGGER_RTT_WriteNoLock
                0x000371b0       0x68 external/rtt/librtt_nrf52840_xxAA.a(SEGGER_RTT.c.obj)
                0x000371b0                SEGGER_RTT_WriteNoLock
 .text.SEGGER_RTT_Write
                0x00037218       0x34 external/rtt/librtt_nrf52840_xxAA.a(SEGGER_RTT.c.obj)
                0x00037218                SEGGER_RTT_Write
 .text._StoreChar
                0x0003724c       0x3e external/rtt/librtt_nrf52840_xxAA.a(SEGGER_RTT_printf.c.obj)
 *fill*         0x0003728a        0x2 
 .text._PrintUnsigned
                0x0003728c       0xd0 external/rtt/librtt_nrf52840_xxAA.a(SEGGER_RTT_printf.c.obj)
 .text.SEGGER_RTT_vprintf
                0x0003735c      0x246 external/rtt/librtt_nrf52840_xxAA.a(SEGGER_RTT_printf.c.obj)
                0x0003735c                SEGGER_RTT_vprintf
 .text.SEGGER_RTT_printf
                0x000375a2       0x1e external/rtt/librtt_nrf52840_xxAA.a(SEGGER_RTT_printf.c.obj)
                0x000375a2                SEGGER_RTT_printf
 .text.uECC_vli_mult
                0x000375c0       0x64 external/micro-ecc/libuECC_nrf52840_xxAA.a(uECC.c.obj)
 .text.uECC_vli_clear
                0x00037624       0x16 external/micro-ecc/libuECC_nrf52840_xxAA.a(uECC.c.obj)
 .text.uECC_vli_isZero
                0x0003763a       0x1e external/micro-ecc/libuECC_nrf52840_xxAA.a(uECC.c.obj)
 .text.uECC_vli_testBit
                0x00037658       0x14 external/micro-ecc/libuECC_nrf52840_xxAA.a(uECC.c.obj)
 .text.uECC_vli_numBits
                0x0003766c       0x3a external/micro-ecc/libuECC_nrf52840_xxAA.a(uECC.c.obj)
 .text.uECC_vli_set
                0x000376a6       0x18 external/micro-ecc/libuECC_nrf52840_xxAA.a(uECC.c.obj)
 .text.uECC_vli_cmp_unsafe
                0x000376be       0x28 external/micro-ecc/libuECC_nrf52840_xxAA.a(uECC.c.obj)
 .text.uECC_vli_rshift1
                0x000376e6       0x1c external/micro-ecc/libuECC_nrf52840_xxAA.a(uECC.c.obj)
 .text.uECC_vli_modMult_fast
                0x00037702       0x20 external/micro-ecc/libuECC_nrf52840_xxAA.a(uECC.c.obj)
 .text.uECC_vli_modSquare_fast
                0x00037722        0x8 external/micro-ecc/libuECC_nrf52840_xxAA.a(uECC.c.obj)
 .text.apply_z  0x0003772a       0x3e external/micro-ecc/libuECC_nrf52840_xxAA.a(uECC.c.obj)
 .text.uECC_vli_nativeToBytes
                0x00037768       0x28 external/micro-ecc/libuECC_nrf52840_xxAA.a(uECC.c.obj)
 .text.uECC_vli_bytesToNative
                0x00037790       0x40 external/micro-ecc/libuECC_nrf52840_xxAA.a(uECC.c.obj)
 .text.default_RNG
                0x000377d0        0xc external/micro-ecc/libuECC_nrf52840_xxAA.a(uECC.c.obj)
 .text.uECC_vli_add.isra.0
                0x000377dc       0x4a external/micro-ecc/libuECC_nrf52840_xxAA.a(uECC.c.obj)
 .text.regularize_k
                0x00037826       0x50 external/micro-ecc/libuECC_nrf52840_xxAA.a(uECC.c.obj)
 .text.uECC_vli_sub.isra.1
                0x00037876       0x4e external/micro-ecc/libuECC_nrf52840_xxAA.a(uECC.c.obj)
 .text.uECC_vli_cmp
                0x000378c4       0x30 external/micro-ecc/libuECC_nrf52840_xxAA.a(uECC.c.obj)
 .text.uECC_generate_random_int
                0x000378f4       0x78 external/micro-ecc/libuECC_nrf52840_xxAA.a(uECC.c.obj)
 .text.uECC_vli_modAdd
                0x0003796c       0x2e external/micro-ecc/libuECC_nrf52840_xxAA.a(uECC.c.obj)
 *fill*         0x0003799a        0x2 
 .text.vli_mmod_fast_secp256r1
                0x0003799c      0x194 external/micro-ecc/libuECC_nrf52840_xxAA.a(uECC.c.obj)
 .text.uECC_vli_modSub.isra.2
                0x00037b30       0x1c external/micro-ecc/libuECC_nrf52840_xxAA.a(uECC.c.obj)
 .text.double_jacobian_default
                0x00037b4c      0x14a external/micro-ecc/libuECC_nrf52840_xxAA.a(uECC.c.obj)
 .text.x_side_default
                0x00037c96       0x5a external/micro-ecc/libuECC_nrf52840_xxAA.a(uECC.c.obj)
 .text.XYcZ_add
                0x00037cf0       0xbc external/micro-ecc/libuECC_nrf52840_xxAA.a(uECC.c.obj)
 .text.XYcZ_addC
                0x00037dac      0x10a external/micro-ecc/libuECC_nrf52840_xxAA.a(uECC.c.obj)
 .text.vli_modInv_update
                0x00037eb6       0x36 external/micro-ecc/libuECC_nrf52840_xxAA.a(uECC.c.obj)
 .text.uECC_vli_modInv
                0x00037eec      0x102 external/micro-ecc/libuECC_nrf52840_xxAA.a(uECC.c.obj)
 .text.EccPoint_mult
                0x00037fee      0x19e external/micro-ecc/libuECC_nrf52840_xxAA.a(uECC.c.obj)
 .text.EccPoint_compute_public_key
                0x0003818c       0x54 external/micro-ecc/libuECC_nrf52840_xxAA.a(uECC.c.obj)
 .text.uECC_secp256r1
                0x000381e0        0x8 external/micro-ecc/libuECC_nrf52840_xxAA.a(uECC.c.obj)
                0x000381e0                uECC_secp256r1
 .text.uECC_make_key
                0x000381e8       0x7e external/micro-ecc/libuECC_nrf52840_xxAA.a(uECC.c.obj)
                0x000381e8                uECC_make_key
 *fill*         0x00038266        0x2 
 .text.uECC_shared_secret
                0x00038268       0xbc external/micro-ecc/libuECC_nrf52840_xxAA.a(uECC.c.obj)
                0x00038268                uECC_shared_secret
 .text.uECC_valid_point
                0x00038324       0x86 external/micro-ecc/libuECC_nrf52840_xxAA.a(uECC.c.obj)
                0x00038324                uECC_valid_point
 .text.uECC_valid_public_key
                0x000383aa       0x32 external/micro-ecc/libuECC_nrf52840_xxAA.a(uECC.c.obj)
                0x000383aa                uECC_valid_public_key
 .text          0x000383dc       0x30 c:/mesh/arm_gcc/bin/../lib/gcc/arm-none-eabi/6.3.1/thumb/v7e-m/fpv4-sp/hard\libgcc.a(_aeabi_uldivmod.o)
                0x000383dc                __aeabi_uldivmod
 .text          0x0003840c      0x2dc c:/mesh/arm_gcc/bin/../lib/gcc/arm-none-eabi/6.3.1/thumb/v7e-m/fpv4-sp/hard\libgcc.a(_udivmoddi4.o)
                0x0003840c                __udivmoddi4
 .text          0x000386e8        0x4 c:/mesh/arm_gcc/bin/../lib/gcc/arm-none-eabi/6.3.1/thumb/v7e-m/fpv4-sp/hard\libgcc.a(_dvmd_tls.o)
                0x000386e8                __aeabi_idiv0
                0x000386e8                __aeabi_ldiv0
 .text.exit     0x000386ec       0x28 c:/mesh/arm_gcc/bin/../lib/gcc/arm-none-eabi/6.3.1/../../../../arm-none-eabi/lib/thumb/v7e-m/fpv4-sp/hard\libg_nano.a(lib_a-exit.o)
                0x000386ec                exit
 .text.__libc_init_array
                0x00038714       0x48 c:/mesh/arm_gcc/bin/../lib/gcc/arm-none-eabi/6.3.1/../../../../arm-none-eabi/lib/thumb/v7e-m/fpv4-sp/hard\libg_nano.a(lib_a-init.o)
                0x00038714                __libc_init_array
 .text.malloc   0x0003875c       0x10 c:/mesh/arm_gcc/bin/../lib/gcc/arm-none-eabi/6.3.1/../../../../arm-none-eabi/lib/thumb/v7e-m/fpv4-sp/hard\libg_nano.a(lib_a-malloc.o)
                0x0003875c                malloc
 .text.free     0x0003876c       0x10 c:/mesh/arm_gcc/bin/../lib/gcc/arm-none-eabi/6.3.1/../../../../arm-none-eabi/lib/thumb/v7e-m/fpv4-sp/hard\libg_nano.a(lib_a-malloc.o)
                0x0003876c                free
 .text.memcmp   0x0003877c       0x1e c:/mesh/arm_gcc/bin/../lib/gcc/arm-none-eabi/6.3.1/../../../../arm-none-eabi/lib/thumb/v7e-m/fpv4-sp/hard\libg_nano.a(lib_a-memcmp.o)
                0x0003877c                memcmp
 .text.memcpy   0x0003879a       0x16 c:/mesh/arm_gcc/bin/../lib/gcc/arm-none-eabi/6.3.1/../../../../arm-none-eabi/lib/thumb/v7e-m/fpv4-sp/hard\libg_nano.a(lib_a-memcpy-stub.o)
                0x0003879a                memcpy
 .text.memset   0x000387b0       0x10 c:/mesh/arm_gcc/bin/../lib/gcc/arm-none-eabi/6.3.1/../../../../arm-none-eabi/lib/thumb/v7e-m/fpv4-sp/hard\libg_nano.a(lib_a-memset.o)
                0x000387b0                memset
 .text._free_r  0x000387c0       0x9c c:/mesh/arm_gcc/bin/../lib/gcc/arm-none-eabi/6.3.1/../../../../arm-none-eabi/lib/thumb/v7e-m/fpv4-sp/hard\libg_nano.a(lib_a-nano-freer.o)
                0x000387c0                _free_r
 .text._malloc_r
                0x0003885c       0xbc c:/mesh/arm_gcc/bin/../lib/gcc/arm-none-eabi/6.3.1/../../../../arm-none-eabi/lib/thumb/v7e-m/fpv4-sp/hard\libg_nano.a(lib_a-nano-mallocr.o)
                0x0003885c                _malloc_r
 .text._sbrk_r  0x00038918       0x20 c:/mesh/arm_gcc/bin/../lib/gcc/arm-none-eabi/6.3.1/../../../../arm-none-eabi/lib/thumb/v7e-m/fpv4-sp/hard\libg_nano.a(lib_a-sbrkr.o)
                0x00038918                _sbrk_r
 .text.sprintf  0x00038938       0x48 c:/mesh/arm_gcc/bin/../lib/gcc/arm-none-eabi/6.3.1/../../../../arm-none-eabi/lib/thumb/v7e-m/fpv4-sp/hard\libg_nano.a(lib_a-sprintf.o)
                0x00038938                siprintf
                0x00038938                sprintf
 .text.strcpy   0x00038980       0x10 c:/mesh/arm_gcc/bin/../lib/gcc/arm-none-eabi/6.3.1/../../../../arm-none-eabi/lib/thumb/v7e-m/fpv4-sp/hard\libg_nano.a(lib_a-strcpy.o)
                0x00038980                strcpy
 .text          0x00038990       0x10 c:/mesh/arm_gcc/bin/../lib/gcc/arm-none-eabi/6.3.1/../../../../arm-none-eabi/lib/thumb/v7e-m/fpv4-sp/hard\libg_nano.a(lib_a-strlen.o)
                0x00038990                strlen
 .text.strrchr  0x000389a0       0x26 c:/mesh/arm_gcc/bin/../lib/gcc/arm-none-eabi/6.3.1/../../../../arm-none-eabi/lib/thumb/v7e-m/fpv4-sp/hard\libg_nano.a(lib_a-strrchr.o)
                0x000389a0                strrchr
 .text.__malloc_lock
                0x000389c6        0x2 c:/mesh/arm_gcc/bin/../lib/gcc/arm-none-eabi/6.3.1/../../../../arm-none-eabi/lib/thumb/v7e-m/fpv4-sp/hard\libg_nano.a(lib_a-mlock.o)
                0x000389c6                __malloc_lock
 .text.__malloc_unlock
                0x000389c8        0x2 c:/mesh/arm_gcc/bin/../lib/gcc/arm-none-eabi/6.3.1/../../../../arm-none-eabi/lib/thumb/v7e-m/fpv4-sp/hard\libg_nano.a(lib_a-mlock.o)
                0x000389c8                __malloc_unlock
 .text.__ssputs_r
                0x000389ca       0xb6 c:/mesh/arm_gcc/bin/../lib/gcc/arm-none-eabi/6.3.1/../../../../arm-none-eabi/lib/thumb/v7e-m/fpv4-sp/hard\libg_nano.a(lib_a-nano-svfprintf.o)
                0x000389ca                __ssputs_r
 .text._svfprintf_r
                0x00038a80      0x1e8 c:/mesh/arm_gcc/bin/../lib/gcc/arm-none-eabi/6.3.1/../../../../arm-none-eabi/lib/thumb/v7e-m/fpv4-sp/hard\libg_nano.a(lib_a-nano-svfprintf.o)
                0x00038a80                _svfiprintf_r
                0x00038a80                _svfprintf_r
 .text._printf_common
                0x00038c68       0xec c:/mesh/arm_gcc/bin/../lib/gcc/arm-none-eabi/6.3.1/../../../../arm-none-eabi/lib/thumb/v7e-m/fpv4-sp/hard\libg_nano.a(lib_a-nano-vfprintf_i.o)
                0x00038c68                _printf_common
 .text._printf_i
                0x00038d54      0x240 c:/mesh/arm_gcc/bin/../lib/gcc/arm-none-eabi/6.3.1/../../../../arm-none-eabi/lib/thumb/v7e-m/fpv4-sp/hard\libg_nano.a(lib_a-nano-vfprintf_i.o)
                0x00038d54                _printf_i
 .text.strchr   0x00038f94       0x1c c:/mesh/arm_gcc/bin/../lib/gcc/arm-none-eabi/6.3.1/../../../../arm-none-eabi/lib/thumb/v7e-m/fpv4-sp/hard\libg_nano.a(lib_a-strchr.o)
                0x00038f94                strchr
 .text          0x00038fb0       0xa0 c:/mesh/arm_gcc/bin/../lib/gcc/arm-none-eabi/6.3.1/../../../../arm-none-eabi/lib/thumb/v7e-m/fpv4-sp/hard\libg_nano.a(lib_a-memchr.o)
                0x00038fb0                memchr
 .text.memmove  0x00039050       0x34 c:/mesh/arm_gcc/bin/../lib/gcc/arm-none-eabi/6.3.1/../../../../arm-none-eabi/lib/thumb/v7e-m/fpv4-sp/hard\libg_nano.a(lib_a-memmove.o)
                0x00039050                memmove
 .text._realloc_r
                0x00039084       0x4c c:/mesh/arm_gcc/bin/../lib/gcc/arm-none-eabi/6.3.1/../../../../arm-none-eabi/lib/thumb/v7e-m/fpv4-sp/hard\libg_nano.a(lib_a-nano-reallocr.o)
                0x00039084                _realloc_r
 .text._malloc_usable_size_r
                0x000390d0       0x12 c:/mesh/arm_gcc/bin/../lib/gcc/arm-none-eabi/6.3.1/../../../../arm-none-eabi/lib/thumb/v7e-m/fpv4-sp/hard\libg_nano.a(lib_a-nano-msizer.o)
                0x000390d0                _malloc_usable_size_r
 *fill*         0x000390e2        0x2 
 .text._sbrk    0x000390e4       0x1c c:/mesh/arm_gcc/bin/../lib/gcc/arm-none-eabi/6.3.1/../../../../arm-none-eabi/lib/thumb/v7e-m/fpv4-sp/hard\libnosys.a(sbrk.o)
                0x000390e4                _sbrk
 .text._exit    0x00039100        0x4 c:/mesh/arm_gcc/bin/../lib/gcc/arm-none-eabi/6.3.1/../../../../arm-none-eabi/lib/thumb/v7e-m/fpv4-sp/hard\libnosys.a(_exit.o)
                0x00039100                _exit
 *(.init)
 .init          0x00039104        0x4 c:/mesh/arm_gcc/bin/../lib/gcc/arm-none-eabi/6.3.1/thumb/v7e-m/fpv4-sp/hard/crti.o
                0x00039104                _init
 .init          0x00039108        0x8 c:/mesh/arm_gcc/bin/../lib/gcc/arm-none-eabi/6.3.1/thumb/v7e-m/fpv4-sp/hard/crtn.o
 *(.fini)
 .fini          0x00039110        0x4 c:/mesh/arm_gcc/bin/../lib/gcc/arm-none-eabi/6.3.1/thumb/v7e-m/fpv4-sp/hard/crti.o
                0x00039110                _fini
 .fini          0x00039114        0x8 c:/mesh/arm_gcc/bin/../lib/gcc/arm-none-eabi/6.3.1/thumb/v7e-m/fpv4-sp/hard/crtn.o
 *crtbegin.o(.ctors)
 *crtbegin?.o(.ctors)
 *(EXCLUDE_FILE(*crtend.o *crtend?.o) .ctors)
 *(SORT(.ctors.*))
 *(.ctors)
 *crtbegin.o(.dtors)
 *crtbegin?.o(.dtors)
 *(EXCLUDE_FILE(*crtend.o *crtend?.o) .dtors)
 *(SORT(.dtors.*))
 *(.dtors)
 *(.rodata*)
 .rodata        0x0003911c        0xc examples/beaconing/CMakeFiles/beaconing_nrf52840_xxAA_s140_6.0.0.dir/src/main.c.obj
 .rodata.adv_data.12460
                0x00039128       0x12 examples/beaconing/CMakeFiles/beaconing_nrf52840_xxAA_s140_6.0.0.dir/src/main.c.obj
 .rodata.config_server_evt_cb.str1.1
                0x0003913a       0x19 examples/beaconing/CMakeFiles/beaconing_nrf52840_xxAA_s140_6.0.0.dir/src/main.c.obj
 .rodata.main.str1.1
                0x00039153       0x6d examples/beaconing/CMakeFiles/beaconing_nrf52840_xxAA_s140_6.0.0.dir/src/main.c.obj
 .rodata.provisioning_complete_cb.str1.1
                0x000391c0       0x52 examples/beaconing/CMakeFiles/beaconing_nrf52840_xxAA_s140_6.0.0.dir/src/main.c.obj
 .rodata.rx_cb.str1.1
                0x00039212       0x4f examples/beaconing/CMakeFiles/beaconing_nrf52840_xxAA_s140_6.0.0.dir/src/main.c.obj
 .rodata.static_auth_data.12487
                0x00039261       0x10 examples/beaconing/CMakeFiles/beaconing_nrf52840_xxAA_s140_6.0.0.dir/src/main.c.obj
 .rodata.mesh_softdevice_init.str1.1
                0x00039271       0x94 examples/beaconing/CMakeFiles/beaconing_nrf52840_xxAA_s140_6.0.0.dir/__/common/src/mesh_softdevice_init.c.obj
 .rodata        0x00039305        0xb examples/beaconing/CMakeFiles/beaconing_nrf52840_xxAA_s140_6.0.0.dir/__/common/src/mesh_provisionee.c.obj
 .rodata.m_blink_timer
                0x00039310        0x4 examples/beaconing/CMakeFiles/beaconing_nrf52840_xxAA_s140_6.0.0.dir/__/common/src/simple_hal.c.obj
 .rodata.m_buttons_list
                0x00039314        0x4 examples/beaconing/CMakeFiles/beaconing_nrf52840_xxAA_s140_6.0.0.dir/__/common/src/simple_hal.c.obj
 .rodata.mesh_evt_cb.str1.1
                0x00039318       0x13 examples/beaconing/CMakeFiles/beaconing_nrf52840_xxAA_s140_6.0.0.dir/__/__/mesh/access/src/access.c.obj
 .rodata.multiply_de_bruijn_bit_position.9560
                0x0003932b       0x20 examples/beaconing/CMakeFiles/beaconing_nrf52840_xxAA_s140_6.0.0.dir/__/__/mesh/access/src/access.c.obj
 .rodata.packet_tx.str1.1
                0x0003934b       0x38 examples/beaconing/CMakeFiles/beaconing_nrf52840_xxAA_s140_6.0.0.dir/__/__/mesh/access/src/access.c.obj
                                 0x40 (size before relaxing)
 *fill*         0x00039383        0x1 
 .rodata.m_flash_groups
                0x00039384       0xa8 examples/beaconing/CMakeFiles/beaconing_nrf52840_xxAA_s140_6.0.0.dir/__/__/mesh/access/src/device_state_manager.c.obj
 .rodata.multiply_de_bruijn_bit_position.9666
                0x0003942c       0x20 examples/beaconing/CMakeFiles/beaconing_nrf52840_xxAA_s140_6.0.0.dir/__/__/mesh/access/src/device_state_manager.c.obj
 .rodata.app_error_fault_handler.str1.1
                0x0003944c       0xbd examples/beaconing/CMakeFiles/beaconing_nrf52840_xxAA_s140_6.0.0.dir/__/common/src/app_error_weak.c.obj
 .rodata.mesh_assertion_handler.str1.1
                0x00039509       0xbd examples/beaconing/CMakeFiles/beaconing_nrf52840_xxAA_s140_6.0.0.dir/__/common/src/assertion_handler_weak.c.obj
                                  0x1 (size before relaxing)
 *fill*         0x00039509        0x3 
 .rodata        0x0003950c        0x8 examples/beaconing/CMakeFiles/beaconing_nrf52840_xxAA_s140_6.0.0.dir/__/__/models/config/src/config_server.c.obj
 .rodata.CSWTCH.123
                0x00039514       0x10 examples/beaconing/CMakeFiles/beaconing_nrf52840_xxAA_s140_6.0.0.dir/__/__/models/config/src/config_server.c.obj
 .rodata.opcode_handlers
                0x00039524      0x170 examples/beaconing/CMakeFiles/beaconing_nrf52840_xxAA_s140_6.0.0.dir/__/__/models/config/src/config_server.c.obj
 .rodata.m_opcode_handlers
                0x00039694       0x58 examples/beaconing/CMakeFiles/beaconing_nrf52840_xxAA_s140_6.0.0.dir/__/__/models/health/src/health_server.c.obj
 .rodata.multiply_de_bruijn_bit_position.9604
                0x000396ec       0x20 examples/beaconing/CMakeFiles/beaconing_nrf52840_xxAA_s140_6.0.0.dir/__/__/models/health/src/health_server.c.obj
 .rodata.m_prov_callbacks
                0x0003970c       0x10 examples/beaconing/CMakeFiles/beaconing_nrf52840_xxAA_s140_6.0.0.dir/__/__/mesh/prov/src/prov_provisionee.c.obj
 .rodata.prov_provisionee_cb_ack_received.str1.1
                0x0003971c       0x53 examples/beaconing/CMakeFiles/beaconing_nrf52840_xxAA_s140_6.0.0.dir/__/__/mesh/prov/src/prov_provisionee.c.obj
 .rodata.multiply_de_bruijn_bit_position.9608
                0x0003976f       0x20 examples/beaconing/CMakeFiles/beaconing_nrf52840_xxAA_s140_6.0.0.dir/__/__/mesh/prov/src/nrf_mesh_prov.c.obj
 .rodata.pdu_sizes.11546
                0x0003978f        0xa examples/beaconing/CMakeFiles/beaconing_nrf52840_xxAA_s140_6.0.0.dir/__/__/mesh/prov/src/provisioning.c.obj
 .rodata.alphanumeric.11651
                0x00039799       0x25 examples/beaconing/CMakeFiles/beaconing_nrf52840_xxAA_s140_6.0.0.dir/__/__/mesh/prov/src/prov_utils.c.obj
 *fill*         0x000397be        0x2 
 .rodata.numeric_max.11645
                0x000397c0       0x24 examples/beaconing/CMakeFiles/beaconing_nrf52840_xxAA_s140_6.0.0.dir/__/__/mesh/prov/src/prov_utils.c.obj
 .rodata.prov_utils_authentication_values_derive.str1.1
                0x000397e4        0x5 examples/beaconing/CMakeFiles/beaconing_nrf52840_xxAA_s140_6.0.0.dir/__/__/mesh/prov/src/prov_utils.c.obj
 .rodata.prov_utils_derive_keys.str1.1
                0x000397e9        0xf examples/beaconing/CMakeFiles/beaconing_nrf52840_xxAA_s140_6.0.0.dir/__/__/mesh/prov/src/prov_utils.c.obj
 .rodata.add_active_bearer.str1.1
                0x000397f8       0x2c examples/beaconing/CMakeFiles/beaconing_nrf52840_xxAA_s140_6.0.0.dir/__/__/mesh/prov/src/prov_bearer_adv.c.obj
 .rodata.crctable.11278
                0x00039824      0x100 examples/beaconing/CMakeFiles/beaconing_nrf52840_xxAA_s140_6.0.0.dir/__/__/mesh/prov/src/prov_bearer_adv.c.obj
 .rodata.interface.11508
                0x00039924       0x14 examples/beaconing/CMakeFiles/beaconing_nrf52840_xxAA_s140_6.0.0.dir/__/__/mesh/prov/src/prov_bearer_adv.c.obj
 .rodata.prov_bearer_adv_packet_in.str1.1
                0x00039938      0x26e examples/beaconing/CMakeFiles/beaconing_nrf52840_xxAA_s140_6.0.0.dir/__/__/mesh/prov/src/prov_bearer_adv.c.obj
 .rodata.tx_retry_cb.str1.1
                0x00039ba6       0x37 examples/beaconing/CMakeFiles/beaconing_nrf52840_xxAA_s140_6.0.0.dir/__/__/mesh/prov/src/prov_bearer_adv.c.obj
 .rodata.sar_ctx_cancel.str1.1
                0x00039bdd       0x23 examples/beaconing/CMakeFiles/beaconing_nrf52840_xxAA_s140_6.0.0.dir/__/__/mesh/core/src/transport.c.obj
 .rodata.test_transport_decrypt.str1.1
                0x00039c00       0x30 examples/beaconing/CMakeFiles/beaconing_nrf52840_xxAA_s140_6.0.0.dir/__/__/mesh/core/src/transport.c.obj
 .rodata.transport_packet_in.str1.1
                0x00039c30       0x24 examples/beaconing/CMakeFiles/beaconing_nrf52840_xxAA_s140_6.0.0.dir/__/__/mesh/core/src/transport.c.obj
 .rodata.upper_transport_access_packet_in.str1.1
                0x00039c54       0x29 examples/beaconing/CMakeFiles/beaconing_nrf52840_xxAA_s140_6.0.0.dir/__/__/mesh/core/src/transport.c.obj
 .rodata.upper_transport_packet_in.str1.1
                0x00039c7d       0x2e examples/beaconing/CMakeFiles/beaconing_nrf52840_xxAA_s140_6.0.0.dir/__/__/mesh/core/src/transport.c.obj
 .rodata.upper_transport_tx.str1.1
                0x00039cab        0xe examples/beaconing/CMakeFiles/beaconing_nrf52840_xxAA_s140_6.0.0.dir/__/__/mesh/core/src/transport.c.obj
                                 0x16 (size before relaxing)
 *fill*         0x00039cb9        0x3 
 .rodata.m_procedure_steps
                0x00039cbc       0x28 examples/beaconing/CMakeFiles/beaconing_nrf52840_xxAA_s140_6.0.0.dir/__/__/mesh/core/src/flash_manager_defrag.c.obj
 .rodata.m_all_operations
                0x00039ce4       0x10 examples/beaconing/CMakeFiles/beaconing_nrf52840_xxAA_s140_6.0.0.dir/__/__/mesh/core/src/mesh_flash.c.obj
 .rodata.types_lookup.9354
                0x00039cf4        0x4 examples/beaconing/CMakeFiles/beaconing_nrf52840_xxAA_s140_6.0.0.dir/__/__/mesh/core/src/nrf_mesh_utils.c.obj
 .rodata.__func__.11852
                0x00039cf8       0x15 examples/beaconing/CMakeFiles/beaconing_nrf52840_xxAA_s140_6.0.0.dir/__/__/mesh/core/src/nrf_mesh.c.obj
 .rodata.nrf_mesh_listen.str1.1
                0x00039d0d       0x70 examples/beaconing/CMakeFiles/beaconing_nrf52840_xxAA_s140_6.0.0.dir/__/__/mesh/core/src/nrf_mesh.c.obj
 .rodata.nrf_mesh_packet_send.str1.1
                0x00039d7d       0x70 examples/beaconing/CMakeFiles/beaconing_nrf52840_xxAA_s140_6.0.0.dir/__/__/mesh/core/src/nrf_mesh.c.obj
                                  0x4 (size before relaxing)
 *fill*         0x00039d7d        0x1 
 .rodata.CSWTCH.7
                0x00039d7e       0x10 examples/beaconing/CMakeFiles/beaconing_nrf52840_xxAA_s140_6.0.0.dir/__/__/mesh/core/src/hal.c.obj
 .rodata        0x00039d8e       0x15 examples/beaconing/CMakeFiles/beaconing_nrf52840_xxAA_s140_6.0.0.dir/__/__/mesh/core/src/enc.c.obj
 .rodata.network_packet_in.str1.1
                0x00039da3       0x48 examples/beaconing/CMakeFiles/beaconing_nrf52840_xxAA_s140_6.0.0.dir/__/__/mesh/core/src/network.c.obj
 .rodata.net_packet_decrypt.str1.1
                0x00039deb       0x31 examples/beaconing/CMakeFiles/beaconing_nrf52840_xxAA_s140_6.0.0.dir/__/__/mesh/core/src/net_packet.c.obj
                                 0x39 (size before relaxing)
 .rodata        0x00039e1c        0x7 examples/beaconing/CMakeFiles/beaconing_nrf52840_xxAA_s140_6.0.0.dir/__/__/mesh/core/src/nrf_mesh_keygen.c.obj
 .rodata.log_callback_rtt.str1.1
                0x00039e23       0x15 examples/beaconing/CMakeFiles/beaconing_nrf52840_xxAA_s140_6.0.0.dir/__/__/mesh/core/src/log.c.obj
 .rodata.str1.1
                0x00039e38       0x11 examples/beaconing/CMakeFiles/beaconing_nrf52840_xxAA_s140_6.0.0.dir/__/__/mesh/core/src/log.c.obj
 *fill*         0x00039e49        0x3 
 .rodata.INVALID_HEADER
                0x00039e4c        0x4 examples/beaconing/CMakeFiles/beaconing_nrf52840_xxAA_s140_6.0.0.dir/__/__/mesh/core/src/flash_manager.c.obj
                0x00039e4c                INVALID_HEADER
 .rodata.PADDING_HEADER
                0x00039e50        0x4 examples/beaconing/CMakeFiles/beaconing_nrf52840_xxAA_s140_6.0.0.dir/__/__/mesh/core/src/flash_manager.c.obj
                0x00039e50                PADDING_HEADER
 .rodata.SEAL_HEADER
                0x00039e54        0x4 examples/beaconing/CMakeFiles/beaconing_nrf52840_xxAA_s140_6.0.0.dir/__/__/mesh/core/src/flash_manager.c.obj
                0x00039e54                SEAL_HEADER
 .rodata.beacon_packet_in.str1.1
                0x00039e58       0x51 examples/beaconing/CMakeFiles/beaconing_nrf52840_xxAA_s140_6.0.0.dir/__/__/mesh/core/src/beacon.c.obj
                                 0x59 (size before relaxing)
 *fill*         0x00039ea9        0x3 
 .rodata.cp_handler
                0x00039eac        0x8 examples/beaconing/CMakeFiles/beaconing_nrf52840_xxAA_s140_6.0.0.dir/__/__/mesh/core/src/heartbeat.c.obj
 .rodata.beacon_tx.str1.1
                0x00039eb4       0x35 examples/beaconing/CMakeFiles/beaconing_nrf52840_xxAA_s140_6.0.0.dir/__/__/mesh/core/src/net_beacon.c.obj
 .rodata.net_beacon_init.str1.1
                0x00039ee9        0x5 examples/beaconing/CMakeFiles/beaconing_nrf52840_xxAA_s140_6.0.0.dir/__/__/mesh/core/src/net_beacon.c.obj
 *fill*         0x00039eee        0x2 
 .rodata.m_interface
                0x00039ef0        0xc examples/beaconing/CMakeFiles/beaconing_nrf52840_xxAA_s140_6.0.0.dir/__/__/mesh/core/src/core_tx_adv.c.obj
 .rodata.radio_mode_to_us_per_byte.9768
                0x00039efc        0x6 examples/beaconing/CMakeFiles/beaconing_nrf52840_xxAA_s140_6.0.0.dir/__/__/mesh/bearer/src/broadcast.c.obj
 .rodata.channel_rf_offsets.8993
                0x00039f02       0x28 examples/beaconing/CMakeFiles/beaconing_nrf52840_xxAA_s140_6.0.0.dir/__/__/mesh/bearer/src/radio_config.c.obj
 .rodata        0x00039f2a        0x3 examples/beaconing/CMakeFiles/beaconing_nrf52840_xxAA_s140_6.0.0.dir/__/__/mesh/bearer/src/scanner.c.obj
 *fill*         0x00039f2d        0x3 
 .rodata.delay_bytecode.9306
                0x00039f30        0x6 examples/beaconing/CMakeFiles/beaconing_nrf52840_xxAA_s140_6.0.0.dir/C_/b/nRF5_SDK_15.0.0_a53641a/components/libraries/timer/app_timer.c.obj
 .rodata._DoInit.str1.1
                0x00039f36       0x14 external/rtt/librtt_nrf52840_xxAA.a(SEGGER_RTT.c.obj)
 .rodata._aV2C.5497
                0x00039f4a       0x10 external/rtt/librtt_nrf52840_xxAA.a(SEGGER_RTT_printf.c.obj)
 *fill*         0x00039f5a        0x2 
 .rodata.curve_secp256r1
                0x00039f5c       0xb0 external/micro-ecc/libuECC_nrf52840_xxAA.a(uECC.c.obj)
 .rodata._global_impure_ptr
                0x0003a00c        0x4 c:/mesh/arm_gcc/bin/../lib/gcc/arm-none-eabi/6.3.1/../../../../arm-none-eabi/lib/thumb/v7e-m/fpv4-sp/hard\libg_nano.a(lib_a-impure.o)
                0x0003a00c                _global_impure_ptr
 .rodata._svfprintf_r.str1.1
                0x0003a010       0x11 c:/mesh/arm_gcc/bin/../lib/gcc/arm-none-eabi/6.3.1/../../../../arm-none-eabi/lib/thumb/v7e-m/fpv4-sp/hard\libg_nano.a(lib_a-nano-svfprintf.o)
 .rodata._printf_i.str1.1
                0x0003a021       0x11 c:/mesh/arm_gcc/bin/../lib/gcc/arm-none-eabi/6.3.1/../../../../arm-none-eabi/lib/thumb/v7e-m/fpv4-sp/hard\libg_nano.a(lib_a-nano-vfprintf_i.o)
                                 0x22 (size before relaxing)
 *(.eh_frame*)
 *fill*         0x0003a032        0x2 
 .eh_frame      0x0003a034        0x0 c:/mesh/arm_gcc/bin/../lib/gcc/arm-none-eabi/6.3.1/thumb/v7e-m/fpv4-sp/hard/crtbegin.o
 .eh_frame      0x0003a034        0x4 c:/mesh/arm_gcc/bin/../lib/gcc/arm-none-eabi/6.3.1/thumb/v7e-m/fpv4-sp/hard/crtend.o

.glue_7         0x0003a038        0x0
 .glue_7        0x0003a038        0x0 linker stubs

.glue_7t        0x0003a038        0x0
 .glue_7t       0x0003a038        0x0 linker stubs

.vfp11_veneer   0x0003a038        0x0
 .vfp11_veneer  0x0003a038        0x0 linker stubs

.v4_bx          0x0003a038        0x0
 .v4_bx         0x0003a038        0x0 linker stubs

.iplt           0x0003a038        0x0
 .iplt          0x0003a038        0x0 c:/mesh/arm_gcc/bin/../lib/gcc/arm-none-eabi/6.3.1/thumb/v7e-m/fpv4-sp/hard/crtbegin.o

.pwr_mgmt_data  0x0003a038        0x0
                [!provide]                PROVIDE (__start_pwr_mgmt_data, .)
 *(SORT(.pwr_mgmt_data*))
                [!provide]                PROVIDE (__stop_pwr_mgmt_data, .)

.log_const_data
                0x0003a038        0x0
                [!provide]                PROVIDE (__start_log_const_data, .)
 *(.log_const_data)
                [!provide]                PROVIDE (__stop_log_const_data, .)

.cli_command    0x0003a038        0x0
                [!provide]                PROVIDE (__start_cli_command, .)
 *(.cli_command)
                [!provide]                PROVIDE (__stop_cli_command, .)

.sdh_stack_observers
                0x0003a038        0x0
                [!provide]                PROVIDE (__start_sdh_stack_observers, .)
 *(SORT(.sdh_stack_observers*))
                [!provide]                PROVIDE (__stop_sdh_stack_observers, .)

.sdh_req_observers
                0x0003a038        0x0
                [!provide]                PROVIDE (__start_sdh_req_observers, .)
 *(SORT(.sdh_req_observers*))
                [!provide]                PROVIDE (__stop_sdh_req_observers, .)

.sdh_state_observers
                0x0003a038        0x0
                [!provide]                PROVIDE (__start_sdh_state_observers, .)
 *(SORT(.sdh_state_observers*))
                [!provide]                PROVIDE (__stop_sdh_state_observers, .)

.sdh_ant_observers
                0x0003a038        0x0
                [!provide]                PROVIDE (__start_sdh_ant_observers, .)
 *(SORT(.sdh_ant_observers*))
                [!provide]                PROVIDE (__stop_sdh_ant_observers, .)

.sdh_ble_observers
                0x0003a038        0x0
                [!provide]                PROVIDE (__start_sdh_ble_observers, .)
 *(SORT(.sdh_ble_observers*))
                [!provide]                PROVIDE (__stop_sdh_ble_observers, .)

.sdh_soc_observers
                0x0003a038        0x0
                [!provide]                PROVIDE (__start_sdh_soc_observers, .)
 *(SORT(.sdh_soc_observers*))
                [!provide]                PROVIDE (__stop_sdh_soc_observers, .)

.ARM.extab
 *(.ARM.extab* .gnu.linkonce.armextab.*)
                0x0003a038                __exidx_start = .

.ARM.exidx      0x0003a038        0x8
 *(.ARM.exidx* .gnu.linkonce.armexidx.*)
 .ARM.exidx     0x0003a038        0x8 c:/mesh/arm_gcc/bin/../lib/gcc/arm-none-eabi/6.3.1/../../../../arm-none-eabi/lib/thumb/v7e-m/fpv4-sp/hard/crt0.o
 .ARM.exidx     0x0003a040        0x0 c:/mesh/arm_gcc/bin/../lib/gcc/arm-none-eabi/6.3.1/thumb/v7e-m/fpv4-sp/hard\libgcc.a(_udivmoddi4.o)
                                  0x8 (size before relaxing)
                0x0003a040                __exidx_end = .
                0x0003a040                __etext = .

.rel.dyn        0x0003a040        0x0
 .rel.iplt      0x0003a040        0x0 c:/mesh/arm_gcc/bin/../lib/gcc/arm-none-eabi/6.3.1/thumb/v7e-m/fpv4-sp/hard/crtbegin.o

.data           0x20002da0      0x148 load address 0x0003a040
                0x20002da0                __data_start__ = .
 *(vtable)
 *(.data*)
 .data.s_evt_handler.11357
                0x20002da0        0xc examples/beaconing/CMakeFiles/beaconing_nrf52840_xxAA_s140_6.0.0.dir/__/__/mesh/stack/src/mesh_stack.c.obj
 .data.flash_add_mem_available_struct.10707
                0x20002dac       0x10 examples/beaconing/CMakeFiles/beaconing_nrf52840_xxAA_s140_6.0.0.dir/__/__/mesh/access/src/access.c.obj
 .data.flash_clear_mem_available_struct.10796
                0x20002dbc       0x10 examples/beaconing/CMakeFiles/beaconing_nrf52840_xxAA_s140_6.0.0.dir/__/__/mesh/access/src/access.c.obj
 .data.flash_store_mem_available_struct.10820
                0x20002dcc       0x10 examples/beaconing/CMakeFiles/beaconing_nrf52840_xxAA_s140_6.0.0.dir/__/__/mesh/access/src/access.c.obj
 .data.m_default_ttl
                0x20002ddc        0x1 examples/beaconing/CMakeFiles/beaconing_nrf52840_xxAA_s140_6.0.0.dir/__/__/mesh/access/src/access.c.obj
 *fill*         0x20002ddd        0x3 
 .data.mem_listener.11060
                0x20002de0       0x10 examples/beaconing/CMakeFiles/beaconing_nrf52840_xxAA_s140_6.0.0.dir/__/__/mesh/access/src/device_state_manager.c.obj
 .data.mem_listener.11086
                0x20002df0       0x10 examples/beaconing/CMakeFiles/beaconing_nrf52840_xxAA_s140_6.0.0.dir/__/__/mesh/access/src/device_state_manager.c.obj
 .data.wait.9229
                0x20002e00        0x1 examples/beaconing/CMakeFiles/beaconing_nrf52840_xxAA_s140_6.0.0.dir/__/common/src/app_error_weak.c.obj
 *fill*         0x20002e01        0x1 
 .data.m_config_server_handle
                0x20002e02        0x2 examples/beaconing/CMakeFiles/beaconing_nrf52840_xxAA_s140_6.0.0.dir/__/__/models/config/src/config_server.c.obj
 .data.m_mesh_evt_handler
                0x20002e04        0xc examples/beaconing/CMakeFiles/beaconing_nrf52840_xxAA_s140_6.0.0.dir/__/__/models/config/src/config_server.c.obj
 .data.m_async_process_flag
                0x20002e10        0x4 examples/beaconing/CMakeFiles/beaconing_nrf52840_xxAA_s140_6.0.0.dir/__/__/mesh/prov/src/prov_bearer_adv.c.obj
 .data.mem_listener.10133
                0x20002e14       0x10 examples/beaconing/CMakeFiles/beaconing_nrf52840_xxAA_s140_6.0.0.dir/__/__/mesh/core/src/net_state.c.obj
 .data.mem_listener.10138
                0x20002e24       0x10 examples/beaconing/CMakeFiles/beaconing_nrf52840_xxAA_s140_6.0.0.dir/__/__/mesh/core/src/net_state.c.obj
 .data.mem_listener.10152
                0x20002e34       0x10 examples/beaconing/CMakeFiles/beaconing_nrf52840_xxAA_s140_6.0.0.dir/__/__/mesh/core/src/net_state.c.obj
 .data.mem_listener.10169
                0x20002e44       0x10 examples/beaconing/CMakeFiles/beaconing_nrf52840_xxAA_s140_6.0.0.dir/__/__/mesh/core/src/net_state.c.obj
 .data.m_nrf_mesh_listener
                0x20002e54        0xc examples/beaconing/CMakeFiles/beaconing_nrf52840_xxAA_s140_6.0.0.dir/__/__/mesh/core/src/nrf_mesh.c.obj
 .data.g_log_dbg_lvl
                0x20002e60        0x4 examples/beaconing/CMakeFiles/beaconing_nrf52840_xxAA_s140_6.0.0.dir/__/__/mesh/core/src/log.c.obj
                0x20002e60                g_log_dbg_lvl
 .data.g_log_dbg_msk
                0x20002e64        0x4 examples/beaconing/CMakeFiles/beaconing_nrf52840_xxAA_s140_6.0.0.dir/__/__/mesh/core/src/log.c.obj
                0x20002e64                g_log_dbg_msk
 .data.g_log_hex_digits
                0x20002e68        0x4 examples/beaconing/CMakeFiles/beaconing_nrf52840_xxAA_s140_6.0.0.dir/__/__/mesh/core/src/log.c.obj
                0x20002e68                g_log_hex_digits
 .data.m_log_callback
                0x20002e6c        0x4 examples/beaconing/CMakeFiles/beaconing_nrf52840_xxAA_s140_6.0.0.dir/__/__/mesh/core/src/log.c.obj
                0x20002e6c                m_log_callback
 .data.SystemCoreClock
                0x20002e70        0x4 examples/beaconing/CMakeFiles/beaconing_nrf52840_xxAA_s140_6.0.0.dir/C_/b/nRF5_SDK_15.0.0_a53641a/modules/nrfx/mdk/system_nrf52840.c.obj
                0x20002e70                SystemCoreClock
 .data.g_rng_function
                0x20002e74        0x4 external/micro-ecc/libuECC_nrf52840_xxAA.a(uECC.c.obj)
 .data._impure_ptr
                0x20002e78        0x4 c:/mesh/arm_gcc/bin/../lib/gcc/arm-none-eabi/6.3.1/../../../../arm-none-eabi/lib/thumb/v7e-m/fpv4-sp/hard\libg_nano.a(lib_a-impure.o)
                0x20002e78                _impure_ptr
 .data.impure_data
                0x20002e7c       0x60 c:/mesh/arm_gcc/bin/../lib/gcc/arm-none-eabi/6.3.1/../../../../arm-none-eabi/lib/thumb/v7e-m/fpv4-sp/hard\libg_nano.a(lib_a-impure.o)
                0x20002edc                . = ALIGN (0x4)
                0x20002edc                PROVIDE (__preinit_array_start, .)
 *(.preinit_array)
                0x20002edc                PROVIDE (__preinit_array_end, .)
                0x20002edc                . = ALIGN (0x4)
                0x20002edc                PROVIDE (__init_array_start, .)
 *(SORT(.init_array.*))
 *(.init_array)
 .init_array    0x20002edc        0x4 c:/mesh/arm_gcc/bin/../lib/gcc/arm-none-eabi/6.3.1/thumb/v7e-m/fpv4-sp/hard/crtbegin.o
                0x20002ee0                PROVIDE (__init_array_end, .)
                0x20002ee0                . = ALIGN (0x4)
                [!provide]                PROVIDE (__fini_array_start, .)
 *(SORT(.fini_array.*))
 *(.fini_array)
 .fini_array    0x20002ee0        0x4 c:/mesh/arm_gcc/bin/../lib/gcc/arm-none-eabi/6.3.1/thumb/v7e-m/fpv4-sp/hard/crtbegin.o
                [!provide]                PROVIDE (__fini_array_end, .)
 *(.jcr*)
 .jcr           0x20002ee4        0x0 c:/mesh/arm_gcc/bin/../lib/gcc/arm-none-eabi/6.3.1/thumb/v7e-m/fpv4-sp/hard/crtbegin.o
 .jcr           0x20002ee4        0x4 c:/mesh/arm_gcc/bin/../lib/gcc/arm-none-eabi/6.3.1/thumb/v7e-m/fpv4-sp/hard/crtend.o
                0x20002ee8                . = ALIGN (0x4)
                0x20002ee8                __data_end__ = .
LOAD c:/mesh/arm_gcc/bin/../lib/gcc/arm-none-eabi/6.3.1/thumb/v7e-m/fpv4-sp/hard/crti.o
LOAD c:/mesh/arm_gcc/bin/../lib/gcc/arm-none-eabi/6.3.1/thumb/v7e-m/fpv4-sp/hard/crtbegin.o
LOAD c:/mesh/arm_gcc/bin/../lib/gcc/arm-none-eabi/6.3.1/../../../../arm-none-eabi/lib/thumb/v7e-m/fpv4-sp/hard/crt0.o
LOAD examples/beaconing/CMakeFiles/beaconing_nrf52840_xxAA_s140_6.0.0.dir/src/main.c.obj
LOAD examples/beaconing/CMakeFiles/beaconing_nrf52840_xxAA_s140_6.0.0.dir/__/__/mesh/stack/src/mesh_stack.c.obj
LOAD examples/beaconing/CMakeFiles/beaconing_nrf52840_xxAA_s140_6.0.0.dir/__/common/src/mesh_softdevice_init.c.obj
LOAD examples/beaconing/CMakeFiles/beaconing_nrf52840_xxAA_s140_6.0.0.dir/__/common/src/mesh_provisionee.c.obj
LOAD examples/beaconing/CMakeFiles/beaconing_nrf52840_xxAA_s140_6.0.0.dir/__/common/src/simple_hal.c.obj
LOAD examples/beaconing/CMakeFiles/beaconing_nrf52840_xxAA_s140_6.0.0.dir/__/__/mesh/access/src/access_publish.c.obj
LOAD examples/beaconing/CMakeFiles/beaconing_nrf52840_xxAA_s140_6.0.0.dir/__/__/mesh/access/src/access.c.obj
LOAD examples/beaconing/CMakeFiles/beaconing_nrf52840_xxAA_s140_6.0.0.dir/__/__/mesh/access/src/access_reliable.c.obj
LOAD examples/beaconing/CMakeFiles/beaconing_nrf52840_xxAA_s140_6.0.0.dir/__/__/mesh/access/src/access_loopback.c.obj
LOAD examples/beaconing/CMakeFiles/beaconing_nrf52840_xxAA_s140_6.0.0.dir/__/__/mesh/access/src/device_state_manager.c.obj
LOAD examples/beaconing/CMakeFiles/beaconing_nrf52840_xxAA_s140_6.0.0.dir/__/nrf_mesh_weak.c.obj
LOAD examples/beaconing/CMakeFiles/beaconing_nrf52840_xxAA_s140_6.0.0.dir/__/common/src/app_error_weak.c.obj
LOAD examples/beaconing/CMakeFiles/beaconing_nrf52840_xxAA_s140_6.0.0.dir/__/common/src/assertion_handler_weak.c.obj
LOAD examples/beaconing/CMakeFiles/beaconing_nrf52840_xxAA_s140_6.0.0.dir/__/__/models/config/src/composition_data.c.obj
LOAD examples/beaconing/CMakeFiles/beaconing_nrf52840_xxAA_s140_6.0.0.dir/__/__/models/config/src/config_server.c.obj
LOAD examples/beaconing/CMakeFiles/beaconing_nrf52840_xxAA_s140_6.0.0.dir/__/__/models/config/src/packed_index_list.c.obj
LOAD examples/beaconing/CMakeFiles/beaconing_nrf52840_xxAA_s140_6.0.0.dir/__/__/models/health/src/health_server.c.obj
LOAD examples/beaconing/CMakeFiles/beaconing_nrf52840_xxAA_s140_6.0.0.dir/__/__/mesh/prov/src/prov_provisionee.c.obj
LOAD examples/beaconing/CMakeFiles/beaconing_nrf52840_xxAA_s140_6.0.0.dir/__/__/mesh/prov/src/nrf_mesh_prov.c.obj
LOAD examples/beaconing/CMakeFiles/beaconing_nrf52840_xxAA_s140_6.0.0.dir/__/__/mesh/prov/src/provisioning.c.obj
LOAD examples/beaconing/CMakeFiles/beaconing_nrf52840_xxAA_s140_6.0.0.dir/__/__/mesh/prov/src/prov_beacon.c.obj
LOAD examples/beaconing/CMakeFiles/beaconing_nrf52840_xxAA_s140_6.0.0.dir/__/__/mesh/prov/src/prov_utils.c.obj
LOAD examples/beaconing/CMakeFiles/beaconing_nrf52840_xxAA_s140_6.0.0.dir/__/__/mesh/prov/src/prov_bearer_adv.c.obj
LOAD examples/beaconing/CMakeFiles/beaconing_nrf52840_xxAA_s140_6.0.0.dir/__/__/mesh/core/src/internal_event.c.obj
LOAD examples/beaconing/CMakeFiles/beaconing_nrf52840_xxAA_s140_6.0.0.dir/__/__/mesh/core/src/nrf_mesh_configure.c.obj
LOAD examples/beaconing/CMakeFiles/beaconing_nrf52840_xxAA_s140_6.0.0.dir/__/__/mesh/core/src/aes.c.obj
LOAD examples/beaconing/CMakeFiles/beaconing_nrf52840_xxAA_s140_6.0.0.dir/__/__/mesh/core/src/msg_cache.c.obj
LOAD examples/beaconing/CMakeFiles/beaconing_nrf52840_xxAA_s140_6.0.0.dir/__/__/mesh/core/src/transport.c.obj
LOAD examples/beaconing/CMakeFiles/beaconing_nrf52840_xxAA_s140_6.0.0.dir/__/__/mesh/core/src/event.c.obj
LOAD examples/beaconing/CMakeFiles/beaconing_nrf52840_xxAA_s140_6.0.0.dir/__/__/mesh/core/src/packet_buffer.c.obj
LOAD examples/beaconing/CMakeFiles/beaconing_nrf52840_xxAA_s140_6.0.0.dir/__/__/mesh/core/src/flash_manager_defrag.c.obj
LOAD examples/beaconing/CMakeFiles/beaconing_nrf52840_xxAA_s140_6.0.0.dir/__/__/mesh/core/src/fifo.c.obj
LOAD examples/beaconing/CMakeFiles/beaconing_nrf52840_xxAA_s140_6.0.0.dir/__/__/mesh/core/src/nrf_flash.c.obj
LOAD examples/beaconing/CMakeFiles/beaconing_nrf52840_xxAA_s140_6.0.0.dir/__/__/mesh/core/src/packet_mgr.c.obj
LOAD examples/beaconing/CMakeFiles/beaconing_nrf52840_xxAA_s140_6.0.0.dir/__/__/mesh/core/src/net_state.c.obj
LOAD examples/beaconing/CMakeFiles/beaconing_nrf52840_xxAA_s140_6.0.0.dir/__/__/mesh/core/src/mesh_flash.c.obj
LOAD examples/beaconing/CMakeFiles/beaconing_nrf52840_xxAA_s140_6.0.0.dir/__/__/mesh/core/src/nrf_mesh_utils.c.obj
LOAD examples/beaconing/CMakeFiles/beaconing_nrf52840_xxAA_s140_6.0.0.dir/__/__/mesh/core/src/nrf_mesh.c.obj
LOAD examples/beaconing/CMakeFiles/beaconing_nrf52840_xxAA_s140_6.0.0.dir/__/__/mesh/core/src/queue.c.obj
LOAD examples/beaconing/CMakeFiles/beaconing_nrf52840_xxAA_s140_6.0.0.dir/__/__/mesh/core/src/hal.c.obj
LOAD examples/beaconing/CMakeFiles/beaconing_nrf52840_xxAA_s140_6.0.0.dir/__/__/mesh/core/src/aes_cmac.c.obj
LOAD examples/beaconing/CMakeFiles/beaconing_nrf52840_xxAA_s140_6.0.0.dir/__/__/mesh/core/src/timer_scheduler.c.obj
LOAD examples/beaconing/CMakeFiles/beaconing_nrf52840_xxAA_s140_6.0.0.dir/__/__/mesh/core/src/timer.c.obj
LOAD examples/beaconing/CMakeFiles/beaconing_nrf52840_xxAA_s140_6.0.0.dir/__/__/mesh/core/src/ticker.c.obj
LOAD examples/beaconing/CMakeFiles/beaconing_nrf52840_xxAA_s140_6.0.0.dir/__/__/mesh/core/src/rand.c.obj
LOAD examples/beaconing/CMakeFiles/beaconing_nrf52840_xxAA_s140_6.0.0.dir/__/__/mesh/core/src/nrf_mesh_opt.c.obj
LOAD examples/beaconing/CMakeFiles/beaconing_nrf52840_xxAA_s140_6.0.0.dir/__/__/mesh/core/src/timeslot.c.obj
LOAD examples/beaconing/CMakeFiles/beaconing_nrf52840_xxAA_s140_6.0.0.dir/__/__/mesh/core/src/bearer_event.c.obj
LOAD examples/beaconing/CMakeFiles/beaconing_nrf52840_xxAA_s140_6.0.0.dir/__/__/mesh/core/src/enc.c.obj
LOAD examples/beaconing/CMakeFiles/beaconing_nrf52840_xxAA_s140_6.0.0.dir/__/__/mesh/core/src/network.c.obj
LOAD examples/beaconing/CMakeFiles/beaconing_nrf52840_xxAA_s140_6.0.0.dir/__/__/mesh/core/src/net_packet.c.obj
LOAD examples/beaconing/CMakeFiles/beaconing_nrf52840_xxAA_s140_6.0.0.dir/__/__/mesh/core/src/msqueue.c.obj
LOAD examples/beaconing/CMakeFiles/beaconing_nrf52840_xxAA_s140_6.0.0.dir/__/__/mesh/core/src/nrf_mesh_keygen.c.obj
LOAD examples/beaconing/CMakeFiles/beaconing_nrf52840_xxAA_s140_6.0.0.dir/__/__/mesh/core/src/cache.c.obj
LOAD examples/beaconing/CMakeFiles/beaconing_nrf52840_xxAA_s140_6.0.0.dir/__/__/mesh/core/src/list.c.obj
LOAD examples/beaconing/CMakeFiles/beaconing_nrf52840_xxAA_s140_6.0.0.dir/__/__/mesh/core/src/log.c.obj
LOAD examples/beaconing/CMakeFiles/beaconing_nrf52840_xxAA_s140_6.0.0.dir/__/__/mesh/core/src/flash_manager.c.obj
LOAD examples/beaconing/CMakeFiles/beaconing_nrf52840_xxAA_s140_6.0.0.dir/__/__/mesh/core/src/ccm_soft.c.obj
LOAD examples/beaconing/CMakeFiles/beaconing_nrf52840_xxAA_s140_6.0.0.dir/__/__/mesh/core/src/toolchain.c.obj
LOAD examples/beaconing/CMakeFiles/beaconing_nrf52840_xxAA_s140_6.0.0.dir/__/__/mesh/core/src/replay_cache.c.obj
LOAD examples/beaconing/CMakeFiles/beaconing_nrf52840_xxAA_s140_6.0.0.dir/__/__/mesh/core/src/beacon.c.obj
LOAD examples/beaconing/CMakeFiles/beaconing_nrf52840_xxAA_s140_6.0.0.dir/__/__/mesh/core/src/flash_manager_internal.c.obj
LOAD examples/beaconing/CMakeFiles/beaconing_nrf52840_xxAA_s140_6.0.0.dir/__/__/mesh/core/src/core_tx.c.obj
LOAD examples/beaconing/CMakeFiles/beaconing_nrf52840_xxAA_s140_6.0.0.dir/__/__/mesh/core/src/heartbeat.c.obj
LOAD examples/beaconing/CMakeFiles/beaconing_nrf52840_xxAA_s140_6.0.0.dir/__/__/mesh/core/src/net_beacon.c.obj
LOAD examples/beaconing/CMakeFiles/beaconing_nrf52840_xxAA_s140_6.0.0.dir/__/__/mesh/core/src/fsm.c.obj
LOAD examples/beaconing/CMakeFiles/beaconing_nrf52840_xxAA_s140_6.0.0.dir/__/__/mesh/core/src/core_tx_adv.c.obj
LOAD examples/beaconing/CMakeFiles/beaconing_nrf52840_xxAA_s140_6.0.0.dir/__/__/mesh/bearer/src/ad_listener.c.obj
LOAD examples/beaconing/CMakeFiles/beaconing_nrf52840_xxAA_s140_6.0.0.dir/__/__/mesh/bearer/src/ad_type_filter.c.obj
LOAD examples/beaconing/CMakeFiles/beaconing_nrf52840_xxAA_s140_6.0.0.dir/__/__/mesh/bearer/src/adv_packet_filter.c.obj
LOAD examples/beaconing/CMakeFiles/beaconing_nrf52840_xxAA_s140_6.0.0.dir/__/__/mesh/bearer/src/advertiser.c.obj
LOAD examples/beaconing/CMakeFiles/beaconing_nrf52840_xxAA_s140_6.0.0.dir/__/__/mesh/bearer/src/bearer_handler.c.obj
LOAD examples/beaconing/CMakeFiles/beaconing_nrf52840_xxAA_s140_6.0.0.dir/__/__/mesh/bearer/src/broadcast.c.obj
LOAD examples/beaconing/CMakeFiles/beaconing_nrf52840_xxAA_s140_6.0.0.dir/__/__/mesh/bearer/src/filter_engine.c.obj
LOAD examples/beaconing/CMakeFiles/beaconing_nrf52840_xxAA_s140_6.0.0.dir/__/__/mesh/bearer/src/gap_address_filter.c.obj
LOAD examples/beaconing/CMakeFiles/beaconing_nrf52840_xxAA_s140_6.0.0.dir/__/__/mesh/bearer/src/radio_config.c.obj
LOAD examples/beaconing/CMakeFiles/beaconing_nrf52840_xxAA_s140_6.0.0.dir/__/__/mesh/bearer/src/rssi_filter.c.obj
LOAD examples/beaconing/CMakeFiles/beaconing_nrf52840_xxAA_s140_6.0.0.dir/__/__/mesh/bearer/src/scanner.c.obj
LOAD examples/beaconing/CMakeFiles/beaconing_nrf52840_xxAA_s140_6.0.0.dir/__/__/mesh/bearer/src/mesh_pa_lna.c.obj
LOAD examples/beaconing/CMakeFiles/beaconing_nrf52840_xxAA_s140_6.0.0.dir/C_/b/nRF5_SDK_15.0.0_a53641a/modules/nrfx/mdk/system_nrf52840.c.obj
LOAD examples/beaconing/CMakeFiles/beaconing_nrf52840_xxAA_s140_6.0.0.dir/C_/b/nRF5_SDK_15.0.0_a53641a/modules/nrfx/mdk/gcc_startup_nrf52840.S.obj
LOAD examples/beaconing/CMakeFiles/beaconing_nrf52840_xxAA_s140_6.0.0.dir/C_/b/nRF5_SDK_15.0.0_a53641a/components/libraries/util/app_error.c.obj
LOAD examples/beaconing/CMakeFiles/beaconing_nrf52840_xxAA_s140_6.0.0.dir/C_/b/nRF5_SDK_15.0.0_a53641a/components/libraries/util/app_util_platform.c.obj
LOAD examples/beaconing/CMakeFiles/beaconing_nrf52840_xxAA_s140_6.0.0.dir/C_/b/nRF5_SDK_15.0.0_a53641a/components/libraries/timer/app_timer.c.obj
LOAD examples/beaconing/CMakeFiles/beaconing_nrf52840_xxAA_s140_6.0.0.dir/C_/b/nRF5_SDK_15.0.0_a53641a/components/libraries/util/app_error_handler_gcc.c.obj
LOAD external/rtt/librtt_nrf52840_xxAA.a
LOAD external/micro-ecc/libuECC_nrf52840_xxAA.a
START GROUP
LOAD c:/mesh/arm_gcc/bin/../lib/gcc/arm-none-eabi/6.3.1/thumb/v7e-m/fpv4-sp/hard\libgcc.a
LOAD c:/mesh/arm_gcc/bin/../lib/gcc/arm-none-eabi/6.3.1/../../../../arm-none-eabi/lib/thumb/v7e-m/fpv4-sp/hard\libg_nano.a
LOAD c:/mesh/arm_gcc/bin/../lib/gcc/arm-none-eabi/6.3.1/../../../../arm-none-eabi/lib/thumb/v7e-m/fpv4-sp/hard\libc_nano.a
END GROUP
START GROUP
LOAD c:/mesh/arm_gcc/bin/../lib/gcc/arm-none-eabi/6.3.1/thumb/v7e-m/fpv4-sp/hard\libgcc.a
LOAD c:/mesh/arm_gcc/bin/../lib/gcc/arm-none-eabi/6.3.1/../../../../arm-none-eabi/lib/thumb/v7e-m/fpv4-sp/hard\libc_nano.a
END GROUP
LOAD c:/mesh/arm_gcc/bin/../lib/gcc/arm-none-eabi/6.3.1/thumb/v7e-m/fpv4-sp/hard/crtend.o
LOAD c:/mesh/arm_gcc/bin/../lib/gcc/arm-none-eabi/6.3.1/thumb/v7e-m/fpv4-sp/hard/crtn.o
START GROUP
LOAD c:/mesh/arm_gcc/bin/../lib/gcc/arm-none-eabi/6.3.1/thumb/v7e-m/fpv4-sp/hard\libgcc.a
LOAD c:/mesh/arm_gcc/bin/../lib/gcc/arm-none-eabi/6.3.1/../../../../arm-none-eabi/lib/thumb/v7e-m/fpv4-sp/hard\libc.a
LOAD c:/mesh/arm_gcc/bin/../lib/gcc/arm-none-eabi/6.3.1/../../../../arm-none-eabi/lib/thumb/v7e-m/fpv4-sp/hard\libnosys.a
END GROUP

.igot.plt       0x20002ee8        0x0 load address 0x0003a188
 .igot.plt      0x20002ee8        0x0 c:/mesh/arm_gcc/bin/../lib/gcc/arm-none-eabi/6.3.1/thumb/v7e-m/fpv4-sp/hard/crtbegin.o
                0x20002ee8                . = ALIGN (0x4)

.svc_data       0x20002ee8        0x0
                [!provide]                PROVIDE (__start_svc_data, .)
 *(.svc_data)
                [!provide]                PROVIDE (__stop_svc_data, .)

.fs_data        0x20002ee8        0x0
                [!provide]                PROVIDE (__start_fs_data, .)
 *(.fs_data)
                [!provide]                PROVIDE (__stop_fs_data, .)

.log_dynamic_data
                0x20002ee8        0x0
                [!provide]                PROVIDE (__start_log_dynamic_data, .)
 *(.log_dynamic_data)
                [!provide]                PROVIDE (__stop_log_dynamic_data, .)

.cli_sorted_cmd_ptrs
                0x20002ee8        0x0
                [!provide]                PROVIDE (__start_cli_sorted_cmd_ptrs, .)
 *(.cli_sorted_cmd_ptrs)
                [!provide]                PROVIDE (__stop_cli_sorted_cmd_ptrs, .)

.bss            0x20002ee8     0x34e8 load address 0x0003a188
                0x20002ee8                . = ALIGN (0x4)
                0x20002ee8                __bss_start__ = .
 *(.bss*)
 .bss           0x20002ee8       0x1c c:/mesh/arm_gcc/bin/../lib/gcc/arm-none-eabi/6.3.1/thumb/v7e-m/fpv4-sp/hard/crtbegin.o
 .bss.m_adv_buffer
                0x20002f04       0x40 examples/beaconing/CMakeFiles/beaconing_nrf52840_xxAA_s140_6.0.0.dir/src/main.c.obj
 .bss.m_advertiser
                0x20002f44       0x9c examples/beaconing/CMakeFiles/beaconing_nrf52840_xxAA_s140_6.0.0.dir/src/main.c.obj
 .bss.m_device_provisioned
                0x20002fe0        0x1 examples/beaconing/CMakeFiles/beaconing_nrf52840_xxAA_s140_6.0.0.dir/src/main.c.obj
 *fill*         0x20002fe1        0x3 
 .bss.m_health_server
                0x20002fe4       0x5c examples/beaconing/CMakeFiles/beaconing_nrf52840_xxAA_s140_6.0.0.dir/__/__/mesh/stack/src/mesh_stack.c.obj
 .bss.m_device_provisioned
                0x20003040        0x1 examples/beaconing/CMakeFiles/beaconing_nrf52840_xxAA_s140_6.0.0.dir/__/common/src/mesh_provisionee.c.obj
 *fill*         0x20003041        0x3 
 .bss.m_params  0x20003044        0xc examples/beaconing/CMakeFiles/beaconing_nrf52840_xxAA_s140_6.0.0.dir/__/common/src/mesh_provisionee.c.obj
 .bss.m_private_key
                0x20003050       0x20 examples/beaconing/CMakeFiles/beaconing_nrf52840_xxAA_s140_6.0.0.dir/__/common/src/mesh_provisionee.c.obj
 .bss.m_prov_bearer_adv
                0x20003070      0x1c8 examples/beaconing/CMakeFiles/beaconing_nrf52840_xxAA_s140_6.0.0.dir/__/common/src/mesh_provisionee.c.obj
 .bss.m_prov_ctx
                0x20003238      0x134 examples/beaconing/CMakeFiles/beaconing_nrf52840_xxAA_s140_6.0.0.dir/__/common/src/mesh_provisionee.c.obj
 .bss.m_public_key
                0x2000336c       0x40 examples/beaconing/CMakeFiles/beaconing_nrf52840_xxAA_s140_6.0.0.dir/__/common/src/mesh_provisionee.c.obj
 .bss.m_blink_count
                0x200033ac        0x4 examples/beaconing/CMakeFiles/beaconing_nrf52840_xxAA_s140_6.0.0.dir/__/common/src/simple_hal.c.obj
 .bss.m_blink_mask
                0x200033b0        0x4 examples/beaconing/CMakeFiles/beaconing_nrf52840_xxAA_s140_6.0.0.dir/__/common/src/simple_hal.c.obj
 .bss.m_blink_timer_data
                0x200033b4       0x20 examples/beaconing/CMakeFiles/beaconing_nrf52840_xxAA_s140_6.0.0.dir/__/common/src/simple_hal.c.obj
 .bss.m_button_handler_cb
                0x200033d4        0x4 examples/beaconing/CMakeFiles/beaconing_nrf52840_xxAA_s140_6.0.0.dir/__/common/src/simple_hal.c.obj
 .bss.m_last_button_press
                0x200033d8        0x4 examples/beaconing/CMakeFiles/beaconing_nrf52840_xxAA_s140_6.0.0.dir/__/common/src/simple_hal.c.obj
 .bss.m_publish_timer
                0x200033dc       0x18 examples/beaconing/CMakeFiles/beaconing_nrf52840_xxAA_s140_6.0.0.dir/__/__/mesh/access/src/access_publish.c.obj
 .bss.m_publish_timer_counter
                0x200033f4        0x4 examples/beaconing/CMakeFiles/beaconing_nrf52840_xxAA_s140_6.0.0.dir/__/__/mesh/access/src/access_publish.c.obj
 .bss.m_publish_timer_running
                0x200033f8        0x1 examples/beaconing/CMakeFiles/beaconing_nrf52840_xxAA_s140_6.0.0.dir/__/__/mesh/access/src/access_publish.c.obj
 .bss.m_timer_resolution
                0x200033f9        0x1 examples/beaconing/CMakeFiles/beaconing_nrf52840_xxAA_s140_6.0.0.dir/__/__/mesh/access/src/access_publish.c.obj
 *fill*         0x200033fa        0x2 
 .bss.mp_publication_list
                0x200033fc        0x4 examples/beaconing/CMakeFiles/beaconing_nrf52840_xxAA_s140_6.0.0.dir/__/__/mesh/access/src/access_publish.c.obj
 .bss.m_element_pool
                0x20003400        0x6 examples/beaconing/CMakeFiles/beaconing_nrf52840_xxAA_s140_6.0.0.dir/__/__/mesh/access/src/access.c.obj
 *fill*         0x20003406        0x2 
 .bss.m_evt_handler
                0x20003408        0xc examples/beaconing/CMakeFiles/beaconing_nrf52840_xxAA_s140_6.0.0.dir/__/__/mesh/access/src/access.c.obj
 .bss.m_flash_manager
                0x20003414       0x24 examples/beaconing/CMakeFiles/beaconing_nrf52840_xxAA_s140_6.0.0.dir/__/__/mesh/access/src/access.c.obj
 .bss.m_flash_not_ready
                0x20003438        0x1 examples/beaconing/CMakeFiles/beaconing_nrf52840_xxAA_s140_6.0.0.dir/__/__/mesh/access/src/access.c.obj
 .bss.m_metadata_stored
                0x20003439        0x1 examples/beaconing/CMakeFiles/beaconing_nrf52840_xxAA_s140_6.0.0.dir/__/__/mesh/access/src/access.c.obj
 *fill*         0x2000343a        0x2 
 .bss.m_model_pool
                0x2000343c       0x68 examples/beaconing/CMakeFiles/beaconing_nrf52840_xxAA_s140_6.0.0.dir/__/__/mesh/access/src/access.c.obj
 .bss.m_subscription_list_pool
                0x200034a4       0x10 examples/beaconing/CMakeFiles/beaconing_nrf52840_xxAA_s140_6.0.0.dir/__/__/mesh/access/src/access.c.obj
 .bss.m_reliable
                0x200034b4       0x74 examples/beaconing/CMakeFiles/beaconing_nrf52840_xxAA_s140_6.0.0.dir/__/__/mesh/access/src/access_reliable.c.obj
 .bss.m_access_loopback_flag
                0x20003528        0x4 examples/beaconing/CMakeFiles/beaconing_nrf52840_xxAA_s140_6.0.0.dir/__/__/mesh/access/src/access_loopback.c.obj
 .bss.mp_loopback_list_head
                0x2000352c        0x4 examples/beaconing/CMakeFiles/beaconing_nrf52840_xxAA_s140_6.0.0.dir/__/__/mesh/access/src/access_loopback.c.obj
 .bss.m_addr_nonvirtual_allocated
                0x20003530        0x4 examples/beaconing/CMakeFiles/beaconing_nrf52840_xxAA_s140_6.0.0.dir/__/__/mesh/access/src/device_state_manager.c.obj
 .bss.m_addr_nonvirtual_needs_flashing
                0x20003534        0x4 examples/beaconing/CMakeFiles/beaconing_nrf52840_xxAA_s140_6.0.0.dir/__/__/mesh/access/src/device_state_manager.c.obj
 .bss.m_addr_unicast_allocated
                0x20003538        0x4 examples/beaconing/CMakeFiles/beaconing_nrf52840_xxAA_s140_6.0.0.dir/__/__/mesh/access/src/device_state_manager.c.obj
 .bss.m_addr_unicast_needs_flashing
                0x2000353c        0x4 examples/beaconing/CMakeFiles/beaconing_nrf52840_xxAA_s140_6.0.0.dir/__/__/mesh/access/src/device_state_manager.c.obj
 .bss.m_addr_virtual_allocated
                0x20003540        0x4 examples/beaconing/CMakeFiles/beaconing_nrf52840_xxAA_s140_6.0.0.dir/__/__/mesh/access/src/device_state_manager.c.obj
 .bss.m_addr_virtual_needs_flashing
                0x20003544        0x4 examples/beaconing/CMakeFiles/beaconing_nrf52840_xxAA_s140_6.0.0.dir/__/__/mesh/access/src/device_state_manager.c.obj
 .bss.m_addresses
                0x20003548       0x40 examples/beaconing/CMakeFiles/beaconing_nrf52840_xxAA_s140_6.0.0.dir/__/__/mesh/access/src/device_state_manager.c.obj
 .bss.m_appkey_allocated
                0x20003588        0x4 examples/beaconing/CMakeFiles/beaconing_nrf52840_xxAA_s140_6.0.0.dir/__/__/mesh/access/src/device_state_manager.c.obj
 .bss.m_appkey_needs_flashing
                0x2000358c        0x4 examples/beaconing/CMakeFiles/beaconing_nrf52840_xxAA_s140_6.0.0.dir/__/__/mesh/access/src/device_state_manager.c.obj
 .bss.m_appkeys
                0x20003590      0x150 examples/beaconing/CMakeFiles/beaconing_nrf52840_xxAA_s140_6.0.0.dir/__/__/mesh/access/src/device_state_manager.c.obj
 .bss.m_devkey_allocated
                0x200036e0        0x4 examples/beaconing/CMakeFiles/beaconing_nrf52840_xxAA_s140_6.0.0.dir/__/__/mesh/access/src/device_state_manager.c.obj
 .bss.m_devkey_needs_flashing
                0x200036e4        0x4 examples/beaconing/CMakeFiles/beaconing_nrf52840_xxAA_s140_6.0.0.dir/__/__/mesh/access/src/device_state_manager.c.obj
 .bss.m_devkeys
                0x200036e8       0x16 examples/beaconing/CMakeFiles/beaconing_nrf52840_xxAA_s140_6.0.0.dir/__/__/mesh/access/src/device_state_manager.c.obj
 .bss.m_flash_is_available
                0x200036fe        0x1 examples/beaconing/CMakeFiles/beaconing_nrf52840_xxAA_s140_6.0.0.dir/__/__/mesh/access/src/device_state_manager.c.obj
 *fill*         0x200036ff        0x1 
 .bss.m_flash_manager
                0x20003700       0x24 examples/beaconing/CMakeFiles/beaconing_nrf52840_xxAA_s140_6.0.0.dir/__/__/mesh/access/src/device_state_manager.c.obj
 .bss.m_flash_mem_listener_update_all
                0x20003724       0x10 examples/beaconing/CMakeFiles/beaconing_nrf52840_xxAA_s140_6.0.0.dir/__/__/mesh/access/src/device_state_manager.c.obj
 .bss.m_has_primary_subnet
                0x20003734        0x1 examples/beaconing/CMakeFiles/beaconing_nrf52840_xxAA_s140_6.0.0.dir/__/__/mesh/access/src/device_state_manager.c.obj
 *fill*         0x20003735        0x1 
 .bss.m_local_unicast_addr
                0x20003736        0x4 examples/beaconing/CMakeFiles/beaconing_nrf52840_xxAA_s140_6.0.0.dir/__/__/mesh/access/src/device_state_manager.c.obj
 *fill*         0x2000373a        0x2 
 .bss.m_mesh_evt_handler
                0x2000373c        0xc examples/beaconing/CMakeFiles/beaconing_nrf52840_xxAA_s140_6.0.0.dir/__/__/mesh/access/src/device_state_manager.c.obj
 .bss.m_subnet_allocated
                0x20003748        0x4 examples/beaconing/CMakeFiles/beaconing_nrf52840_xxAA_s140_6.0.0.dir/__/__/mesh/access/src/device_state_manager.c.obj
 .bss.m_subnet_needs_flashing
                0x2000374c        0x4 examples/beaconing/CMakeFiles/beaconing_nrf52840_xxAA_s140_6.0.0.dir/__/__/mesh/access/src/device_state_manager.c.obj
 .bss.m_subnets
                0x20003750      0x2a0 examples/beaconing/CMakeFiles/beaconing_nrf52840_xxAA_s140_6.0.0.dir/__/__/mesh/access/src/device_state_manager.c.obj
 .bss.m_virtual_addresses
                0x200039f0       0xa0 examples/beaconing/CMakeFiles/beaconing_nrf52840_xxAA_s140_6.0.0.dir/__/__/mesh/access/src/device_state_manager.c.obj
 .bss.m_evt_cb  0x20003a90        0x4 examples/beaconing/CMakeFiles/beaconing_nrf52840_xxAA_s140_6.0.0.dir/__/__/models/config/src/config_server.c.obj
 .bss.m_heartbeat_publication
                0x20003a94       0x14 examples/beaconing/CMakeFiles/beaconing_nrf52840_xxAA_s140_6.0.0.dir/__/__/models/config/src/config_server.c.obj
 .bss.m_node_reset_pending
                0x20003aa8        0x1 examples/beaconing/CMakeFiles/beaconing_nrf52840_xxAA_s140_6.0.0.dir/__/__/models/config/src/config_server.c.obj
 *fill*         0x20003aa9        0x3 
 .bss.m_reset_token
                0x20003aac        0x4 examples/beaconing/CMakeFiles/beaconing_nrf52840_xxAA_s140_6.0.0.dir/__/__/models/config/src/config_server.c.obj
 .bss.m_attention_timer
                0x20003ab0       0x18 examples/beaconing/CMakeFiles/beaconing_nrf52840_xxAA_s140_6.0.0.dir/__/__/models/health/src/health_server.c.obj
 .bss.mp_attention_list
                0x20003ac8        0x4 examples/beaconing/CMakeFiles/beaconing_nrf52840_xxAA_s140_6.0.0.dir/__/__/models/health/src/health_server.c.obj
 .bss.m_event_handler
                0x20003acc        0x4 examples/beaconing/CMakeFiles/beaconing_nrf52840_xxAA_s140_6.0.0.dir/__/__/mesh/prov/src/prov_beacon.c.obj
 .bss.m_offload_ecdh
                0x20003ad0        0x1 examples/beaconing/CMakeFiles/beaconing_nrf52840_xxAA_s140_6.0.0.dir/__/__/mesh/prov/src/prov_utils.c.obj
 *fill*         0x20003ad1        0x3 
 .bss.mp_bearer_head
                0x20003ad4        0x4 examples/beaconing/CMakeFiles/beaconing_nrf52840_xxAA_s140_6.0.0.dir/__/__/mesh/prov/src/prov_bearer_adv.c.obj
 .bss.m_uuid    0x20003ad8       0x10 examples/beaconing/CMakeFiles/beaconing_nrf52840_xxAA_s140_6.0.0.dir/__/__/mesh/core/src/nrf_mesh_configure.c.obj
 .bss.m_msg_cache
                0x20003ae8      0x100 examples/beaconing/CMakeFiles/beaconing_nrf52840_xxAA_s140_6.0.0.dir/__/__/mesh/core/src/msg_cache.c.obj
 .bss.m_msg_cache_head
                0x20003be8        0x4 examples/beaconing/CMakeFiles/beaconing_nrf52840_xxAA_s140_6.0.0.dir/__/__/mesh/core/src/msg_cache.c.obj
 .bss.m_control_packet_consumer_count
                0x20003bec        0x4 examples/beaconing/CMakeFiles/beaconing_nrf52840_xxAA_s140_6.0.0.dir/__/__/mesh/core/src/transport.c.obj
 .bss.m_control_packet_consumers
                0x20003bf0        0x8 examples/beaconing/CMakeFiles/beaconing_nrf52840_xxAA_s140_6.0.0.dir/__/__/mesh/core/src/transport.c.obj
 .bss.m_sar_alloc
                0x20003bf8        0x4 examples/beaconing/CMakeFiles/beaconing_nrf52840_xxAA_s140_6.0.0.dir/__/__/mesh/core/src/transport.c.obj
 .bss.m_sar_process_flag
                0x20003bfc        0x4 examples/beaconing/CMakeFiles/beaconing_nrf52840_xxAA_s140_6.0.0.dir/__/__/mesh/core/src/transport.c.obj
 .bss.m_sar_release
                0x20003c00        0x4 examples/beaconing/CMakeFiles/beaconing_nrf52840_xxAA_s140_6.0.0.dir/__/__/mesh/core/src/transport.c.obj
 .bss.m_sar_session_cache
                0x20003c04       0x40 examples/beaconing/CMakeFiles/beaconing_nrf52840_xxAA_s140_6.0.0.dir/__/__/mesh/core/src/transport.c.obj
 .bss.m_sar_session_cache_head
                0x20003c44        0x4 examples/beaconing/CMakeFiles/beaconing_nrf52840_xxAA_s140_6.0.0.dir/__/__/mesh/core/src/transport.c.obj
 .bss.m_trs_config
                0x20003c48       0x18 examples/beaconing/CMakeFiles/beaconing_nrf52840_xxAA_s140_6.0.0.dir/__/__/mesh/core/src/transport.c.obj
 .bss.m_trs_sar_sessions
                0x20003c60      0x1b0 examples/beaconing/CMakeFiles/beaconing_nrf52840_xxAA_s140_6.0.0.dir/__/__/mesh/core/src/transport.c.obj
 .bss.m_event_handler_state
                0x20003e10        0x1 examples/beaconing/CMakeFiles/beaconing_nrf52840_xxAA_s140_6.0.0.dir/__/__/mesh/core/src/event.c.obj
 *fill*         0x20003e11        0x3 
 .bss.mp_evt_handlers_head
                0x20003e14        0x4 examples/beaconing/CMakeFiles/beaconing_nrf52840_xxAA_s140_6.0.0.dir/__/__/mesh/core/src/event.c.obj
 .bss.m_defrag  0x20003e18       0x1c examples/beaconing/CMakeFiles/beaconing_nrf52840_xxAA_s140_6.0.0.dir/__/__/mesh/core/src/flash_manager_defrag.c.obj
 .bss.m_token   0x20003e34        0x2 examples/beaconing/CMakeFiles/beaconing_nrf52840_xxAA_s140_6.0.0.dir/__/__/mesh/core/src/flash_manager_defrag.c.obj
 *fill*         0x20003e36        0x2 
 .bss.mp_recovery_area
                0x20003e38        0x4 examples/beaconing/CMakeFiles/beaconing_nrf52840_xxAA_s140_6.0.0.dir/__/__/mesh/core/src/flash_manager_defrag.c.obj
 .bss.p_null_ptr.10537
                0x20003e3c        0x4 examples/beaconing/CMakeFiles/beaconing_nrf52840_xxAA_s140_6.0.0.dir/__/__/mesh/core/src/flash_manager_defrag.c.obj
 .bss.m_pool    0x20003e40     0x1000 examples/beaconing/CMakeFiles/beaconing_nrf52840_xxAA_s140_6.0.0.dir/__/__/mesh/core/src/packet_mgr.c.obj
 .bss.mp_free_head
                0x20004e40        0x4 examples/beaconing/CMakeFiles/beaconing_nrf52840_xxAA_s140_6.0.0.dir/__/__/mesh/core/src/packet_mgr.c.obj
 .bss.iv_state_set.10219
                0x20004e44        0x1 examples/beaconing/CMakeFiles/beaconing_nrf52840_xxAA_s140_6.0.0.dir/__/__/mesh/core/src/net_state.c.obj
 *fill*         0x20004e45        0x3 
 .bss.lock_count.10195
                0x20004e48        0x4 examples/beaconing/CMakeFiles/beaconing_nrf52840_xxAA_s140_6.0.0.dir/__/__/mesh/core/src/net_state.c.obj
 .bss.m_flash_manager
                0x20004e4c       0x24 examples/beaconing/CMakeFiles/beaconing_nrf52840_xxAA_s140_6.0.0.dir/__/__/mesh/core/src/net_state.c.obj
 .bss.m_iv_update_timer
                0x20004e70       0x18 examples/beaconing/CMakeFiles/beaconing_nrf52840_xxAA_s140_6.0.0.dir/__/__/mesh/core/src/net_state.c.obj
 .bss.m_mesh_evt_handler
                0x20004e88        0xc examples/beaconing/CMakeFiles/beaconing_nrf52840_xxAA_s140_6.0.0.dir/__/__/mesh/core/src/net_state.c.obj
 .bss.m_net_state
                0x20004e94       0x14 examples/beaconing/CMakeFiles/beaconing_nrf52840_xxAA_s140_6.0.0.dir/__/__/mesh/core/src/net_state.c.obj
 .bss.m_seqnum_allocation_in_progress
                0x20004ea8        0x1 examples/beaconing/CMakeFiles/beaconing_nrf52840_xxAA_s140_6.0.0.dir/__/__/mesh/core/src/net_state.c.obj
 .bss.m_test_mode
                0x20004ea9        0x1 examples/beaconing/CMakeFiles/beaconing_nrf52840_xxAA_s140_6.0.0.dir/__/__/mesh/core/src/net_state.c.obj
 *fill*         0x20004eaa        0x2 
 .bss.m_event_flag
                0x20004eac        0x4 examples/beaconing/CMakeFiles/beaconing_nrf52840_xxAA_s140_6.0.0.dir/__/__/mesh/core/src/mesh_flash.c.obj
 .bss.m_suspended
                0x20004eb0        0x1 examples/beaconing/CMakeFiles/beaconing_nrf52840_xxAA_s140_6.0.0.dir/__/__/mesh/core/src/mesh_flash.c.obj
 *fill*         0x20004eb1        0x3 
 .bss.m_users   0x20004eb4      0x234 examples/beaconing/CMakeFiles/beaconing_nrf52840_xxAA_s140_6.0.0.dir/__/__/mesh/core/src/mesh_flash.c.obj
 .bss.m_is_enabled
                0x200050e8        0x1 examples/beaconing/CMakeFiles/beaconing_nrf52840_xxAA_s140_6.0.0.dir/__/__/mesh/core/src/nrf_mesh.c.obj
 .bss.m_is_initialized
                0x200050e9        0x1 examples/beaconing/CMakeFiles/beaconing_nrf52840_xxAA_s140_6.0.0.dir/__/__/mesh/core/src/nrf_mesh.c.obj
 *fill*         0x200050ea        0x2 
 .bss.m_rx_cb   0x200050ec        0x4 examples/beaconing/CMakeFiles/beaconing_nrf52840_xxAA_s140_6.0.0.dir/__/__/mesh/core/src/nrf_mesh.c.obj
 .bss.m_tx_token
                0x200050f0        0x4 examples/beaconing/CMakeFiles/beaconing_nrf52840_xxAA_s140_6.0.0.dir/__/__/mesh/core/src/nrf_mesh.c.obj
 .bss.m_event_flag
                0x200050f4        0x4 examples/beaconing/CMakeFiles/beaconing_nrf52840_xxAA_s140_6.0.0.dir/__/__/mesh/core/src/timer_scheduler.c.obj
 .bss.m_scheduler
                0x200050f8       0x10 examples/beaconing/CMakeFiles/beaconing_nrf52840_xxAA_s140_6.0.0.dir/__/__/mesh/core/src/timer_scheduler.c.obj
 .bss.m_attributes
                0x20005108        0x3 examples/beaconing/CMakeFiles/beaconing_nrf52840_xxAA_s140_6.0.0.dir/__/__/mesh/core/src/timer.c.obj
 *fill*         0x2000510b        0x1 
 .bss.m_callbacks
                0x2000510c        0xc examples/beaconing/CMakeFiles/beaconing_nrf52840_xxAA_s140_6.0.0.dir/__/__/mesh/core/src/timer.c.obj
 .bss.m_is_in_ts
                0x20005118        0x1 examples/beaconing/CMakeFiles/beaconing_nrf52840_xxAA_s140_6.0.0.dir/__/__/mesh/core/src/timer.c.obj
 *fill*         0x20005119        0x3 
 .bss.m_reference_time
                0x2000511c        0x4 examples/beaconing/CMakeFiles/beaconing_nrf52840_xxAA_s140_6.0.0.dir/__/__/mesh/core/src/timer.c.obj
 .bss.m_timeouts
                0x20005120        0xc examples/beaconing/CMakeFiles/beaconing_nrf52840_xxAA_s140_6.0.0.dir/__/__/mesh/core/src/timer.c.obj
 .bss.m_timer_mut
                0x2000512c        0x4 examples/beaconing/CMakeFiles/beaconing_nrf52840_xxAA_s140_6.0.0.dir/__/__/mesh/core/src/timer.c.obj
 .bss.m_ts_end_time
                0x20005130        0x4 examples/beaconing/CMakeFiles/beaconing_nrf52840_xxAA_s140_6.0.0.dir/__/__/mesh/core/src/timer.c.obj
 .bss.mp_ppi_tasks
                0x20005134        0xc examples/beaconing/CMakeFiles/beaconing_nrf52840_xxAA_s140_6.0.0.dir/__/__/mesh/core/src/timer.c.obj
 .bss.m_current_time
                0x20005140        0x4 examples/beaconing/CMakeFiles/beaconing_nrf52840_xxAA_s140_6.0.0.dir/__/__/mesh/core/src/ticker.c.obj
 .bss.m_timer   0x20005144       0x18 examples/beaconing/CMakeFiles/beaconing_nrf52840_xxAA_s140_6.0.0.dir/__/__/mesh/core/src/ticker.c.obj
 .bss.m_current_timeslot
                0x2000515c       0x1c examples/beaconing/CMakeFiles/beaconing_nrf52840_xxAA_s140_6.0.0.dir/__/__/mesh/core/src/timeslot.c.obj
 .bss.m_lfclk_ppm
                0x20005178        0x4 examples/beaconing/CMakeFiles/beaconing_nrf52840_xxAA_s140_6.0.0.dir/__/__/mesh/core/src/timeslot.c.obj
 .bss.m_radio_request_earliest
                0x2000517c       0x10 examples/beaconing/CMakeFiles/beaconing_nrf52840_xxAA_s140_6.0.0.dir/__/__/mesh/core/src/timeslot.c.obj
 .bss.m_state_lock
                0x2000518c        0x1 examples/beaconing/CMakeFiles/beaconing_nrf52840_xxAA_s140_6.0.0.dir/__/__/mesh/core/src/timeslot.c.obj
 .bss.m_timeslot_forced_command
                0x2000518d        0x1 examples/beaconing/CMakeFiles/beaconing_nrf52840_xxAA_s140_6.0.0.dir/__/__/mesh/core/src/timeslot.c.obj
 *fill*         0x2000518e        0x2 
 .bss.s_last_rtc_value.9597
                0x20005190        0x8 examples/beaconing/CMakeFiles/beaconing_nrf52840_xxAA_s140_6.0.0.dir/__/__/mesh/core/src/timeslot.c.obj
 .bss.m_bearer_event_fifo
                0x20005198       0x14 examples/beaconing/CMakeFiles/beaconing_nrf52840_xxAA_s140_6.0.0.dir/__/__/mesh/core/src/bearer_event.c.obj
 .bss.m_bearer_event_fifo_buffer
                0x200051ac      0x100 examples/beaconing/CMakeFiles/beaconing_nrf52840_xxAA_s140_6.0.0.dir/__/__/mesh/core/src/bearer_event.c.obj
 .bss.m_critical
                0x200052ac        0x4 examples/beaconing/CMakeFiles/beaconing_nrf52840_xxAA_s140_6.0.0.dir/__/__/mesh/core/src/bearer_event.c.obj
 .bss.m_flag_count
                0x200052b0        0x4 examples/beaconing/CMakeFiles/beaconing_nrf52840_xxAA_s140_6.0.0.dir/__/__/mesh/core/src/bearer_event.c.obj
 .bss.m_flag_event_callbacks
                0x200052b4       0x24 examples/beaconing/CMakeFiles/beaconing_nrf52840_xxAA_s140_6.0.0.dir/__/__/mesh/core/src/bearer_event.c.obj
 .bss.m_flags   0x200052d8        0x4 examples/beaconing/CMakeFiles/beaconing_nrf52840_xxAA_s140_6.0.0.dir/__/__/mesh/core/src/bearer_event.c.obj
 .bss.m_irq_priority
                0x200052dc        0x1 examples/beaconing/CMakeFiles/beaconing_nrf52840_xxAA_s140_6.0.0.dir/__/__/mesh/core/src/bearer_event.c.obj
 *fill*         0x200052dd        0x3 
 .bss.m_sequential_event_queue
                0x200052e0        0x8 examples/beaconing/CMakeFiles/beaconing_nrf52840_xxAA_s140_6.0.0.dir/__/__/mesh/core/src/bearer_event.c.obj
 .bss.s_recursion_guard.9725
                0x200052e8        0x1 examples/beaconing/CMakeFiles/beaconing_nrf52840_xxAA_s140_6.0.0.dir/__/__/mesh/core/src/bearer_event.c.obj
 *fill*         0x200052e9        0x3 
 .bss.m_relay_check_cb
                0x200052ec        0x4 examples/beaconing/CMakeFiles/beaconing_nrf52840_xxAA_s140_6.0.0.dir/__/__/mesh/core/src/network.c.obj
 .bss.m_relay_enable
                0x200052f0        0x1 examples/beaconing/CMakeFiles/beaconing_nrf52840_xxAA_s140_6.0.0.dir/__/__/mesh/core/src/network.c.obj
 *fill*         0x200052f1        0x3 
 .bss.m_action_queue
                0x200052f4        0xc examples/beaconing/CMakeFiles/beaconing_nrf52840_xxAA_s140_6.0.0.dir/__/__/mesh/core/src/flash_manager.c.obj
 .bss.m_action_queue_buffer
                0x20005300      0x104 examples/beaconing/CMakeFiles/beaconing_nrf52840_xxAA_s140_6.0.0.dir/__/__/mesh/core/src/flash_manager.c.obj
 .bss.m_action_state
                0x20005404        0x1 examples/beaconing/CMakeFiles/beaconing_nrf52840_xxAA_s140_6.0.0.dir/__/__/mesh/core/src/flash_manager.c.obj
 *fill*         0x20005405        0x3 
 .bss.m_memory_listener_queue
                0x20005408        0x8 examples/beaconing/CMakeFiles/beaconing_nrf52840_xxAA_s140_6.0.0.dir/__/__/mesh/core/src/flash_manager.c.obj
 .bss.m_processing_flag
                0x20005410        0x4 examples/beaconing/CMakeFiles/beaconing_nrf52840_xxAA_s140_6.0.0.dir/__/__/mesh/core/src/flash_manager.c.obj
 .bss.m_queue_empty_cb
                0x20005414        0x4 examples/beaconing/CMakeFiles/beaconing_nrf52840_xxAA_s140_6.0.0.dir/__/__/mesh/core/src/flash_manager.c.obj
 .bss.m_state   0x20005418        0x1 examples/beaconing/CMakeFiles/beaconing_nrf52840_xxAA_s140_6.0.0.dir/__/__/mesh/core/src/flash_manager.c.obj
 *fill*         0x20005419        0x1 
 .bss.m_token   0x2000541a        0x2 examples/beaconing/CMakeFiles/beaconing_nrf52840_xxAA_s140_6.0.0.dir/__/__/mesh/core/src/flash_manager.c.obj
 .bss.p_current.11445
                0x2000541c        0x4 examples/beaconing/CMakeFiles/beaconing_nrf52840_xxAA_s140_6.0.0.dir/__/__/mesh/core/src/flash_manager.c.obj
 .bss.result.11446
                0x20005420        0x1 examples/beaconing/CMakeFiles/beaconing_nrf52840_xxAA_s140_6.0.0.dir/__/__/mesh/core/src/flash_manager.c.obj
 .bss.m_cache_index
                0x20005421        0x1 examples/beaconing/CMakeFiles/beaconing_nrf52840_xxAA_s140_6.0.0.dir/__/__/mesh/core/src/replay_cache.c.obj
 *fill*         0x20005422        0x2 
 .bss.m_replay_cache
                0x20005424      0x200 examples/beaconing/CMakeFiles/beaconing_nrf52840_xxAA_s140_6.0.0.dir/__/__/mesh/core/src/replay_cache.c.obj
 .bss.m_bearer_count
                0x20005624        0x1 examples/beaconing/CMakeFiles/beaconing_nrf52840_xxAA_s140_6.0.0.dir/__/__/mesh/core/src/core_tx.c.obj
 *fill*         0x20005625        0x3 
 .bss.m_tx_complete_callback
                0x20005628        0x4 examples/beaconing/CMakeFiles/beaconing_nrf52840_xxAA_s140_6.0.0.dir/__/__/mesh/core/src/core_tx.c.obj
 .bss.mp_bearers
                0x2000562c        0x4 examples/beaconing/CMakeFiles/beaconing_nrf52840_xxAA_s140_6.0.0.dir/__/__/mesh/core/src/core_tx.c.obj
 .bss.m_hb_core_evt_handler
                0x20005630        0xc examples/beaconing/CMakeFiles/beaconing_nrf52840_xxAA_s140_6.0.0.dir/__/__/mesh/core/src/heartbeat.c.obj
 .bss.m_hb_pending_feat_msg
                0x2000563c        0x1 examples/beaconing/CMakeFiles/beaconing_nrf52840_xxAA_s140_6.0.0.dir/__/__/mesh/core/src/heartbeat.c.obj
 .bss.m_hb_pending_pub_msg
                0x2000563d        0x1 examples/beaconing/CMakeFiles/beaconing_nrf52840_xxAA_s140_6.0.0.dir/__/__/mesh/core/src/heartbeat.c.obj
 .bss.m_heartbeat_init_done
                0x2000563e        0x1 examples/beaconing/CMakeFiles/beaconing_nrf52840_xxAA_s140_6.0.0.dir/__/__/mesh/core/src/heartbeat.c.obj
 *fill*         0x2000563f        0x1 
 .bss.m_heartbeat_subscription
                0x20005640       0x10 examples/beaconing/CMakeFiles/beaconing_nrf52840_xxAA_s140_6.0.0.dir/__/__/mesh/core/src/heartbeat.c.obj
 .bss.m_publication_count_decrement_cb
                0x20005650        0x4 examples/beaconing/CMakeFiles/beaconing_nrf52840_xxAA_s140_6.0.0.dir/__/__/mesh/core/src/heartbeat.c.obj
 .bss.m_publication_get_cb
                0x20005654        0x4 examples/beaconing/CMakeFiles/beaconing_nrf52840_xxAA_s140_6.0.0.dir/__/__/mesh/core/src/heartbeat.c.obj
 .bss.m_publication_timer
                0x20005658       0x1c examples/beaconing/CMakeFiles/beaconing_nrf52840_xxAA_s140_6.0.0.dir/__/__/mesh/core/src/heartbeat.c.obj
 .bss.m_subscription_timer
                0x20005674       0x18 examples/beaconing/CMakeFiles/beaconing_nrf52840_xxAA_s140_6.0.0.dir/__/__/mesh/core/src/heartbeat.c.obj
 .bss.m_adv     0x2000568c       0x9c examples/beaconing/CMakeFiles/beaconing_nrf52840_xxAA_s140_6.0.0.dir/__/__/mesh/core/src/net_beacon.c.obj
 .bss.m_adv_buf
                0x20005728       0x34 examples/beaconing/CMakeFiles/beaconing_nrf52840_xxAA_s140_6.0.0.dir/__/__/mesh/core/src/net_beacon.c.obj
 .bss.m_beacon_salt
                0x2000575c       0x10 examples/beaconing/CMakeFiles/beaconing_nrf52840_xxAA_s140_6.0.0.dir/__/__/mesh/core/src/net_beacon.c.obj
 .bss.m_enabled
                0x2000576c        0x1 examples/beaconing/CMakeFiles/beaconing_nrf52840_xxAA_s140_6.0.0.dir/__/__/mesh/core/src/net_beacon.c.obj
 *fill*         0x2000576d        0x3 
 .bss.m_tx_timer
                0x20005770       0x18 examples/beaconing/CMakeFiles/beaconing_nrf52840_xxAA_s140_6.0.0.dir/__/__/mesh/core/src/net_beacon.c.obj
 .bss.mp_beacon_info
                0x20005788        0x4 examples/beaconing/CMakeFiles/beaconing_nrf52840_xxAA_s140_6.0.0.dir/__/__/mesh/core/src/net_beacon.c.obj
 .bss.m_bearer  0x2000578c        0xc examples/beaconing/CMakeFiles/beaconing_nrf52840_xxAA_s140_6.0.0.dir/__/__/mesh/core/src/core_tx_adv.c.obj
 .bss.m_bearer_roles
                0x20005798      0x140 examples/beaconing/CMakeFiles/beaconing_nrf52840_xxAA_s140_6.0.0.dir/__/__/mesh/core/src/core_tx_adv.c.obj
 .bss.m_current_alloc
                0x200058d8        0x8 examples/beaconing/CMakeFiles/beaconing_nrf52840_xxAA_s140_6.0.0.dir/__/__/mesh/core/src/core_tx_adv.c.obj
 .bss.m_originator_adv_packet_buffer
                0x200058e0      0x100 examples/beaconing/CMakeFiles/beaconing_nrf52840_xxAA_s140_6.0.0.dir/__/__/mesh/core/src/core_tx_adv.c.obj
 .bss.m_relay_adv_packet_buffer
                0x200059e0       0x80 examples/beaconing/CMakeFiles/beaconing_nrf52840_xxAA_s140_6.0.0.dir/__/__/mesh/core/src/core_tx_adv.c.obj
 .bss.m_subscribers
                0x20005a60        0x4 examples/beaconing/CMakeFiles/beaconing_nrf52840_xxAA_s140_6.0.0.dir/__/__/mesh/bearer/src/ad_listener.c.obj
 .bss.m_adtype_filter
                0x20005a64       0x38 examples/beaconing/CMakeFiles/beaconing_nrf52840_xxAA_s140_6.0.0.dir/__/__/mesh/bearer/src/ad_type_filter.c.obj
 .bss.m_adv_prng
                0x20005a9c       0x10 examples/beaconing/CMakeFiles/beaconing_nrf52840_xxAA_s140_6.0.0.dir/__/__/mesh/bearer/src/advertiser.c.obj
 .bss.m_action_ended
                0x20005aac        0x1 examples/beaconing/CMakeFiles/beaconing_nrf52840_xxAA_s140_6.0.0.dir/__/__/mesh/bearer/src/bearer_handler.c.obj
 *fill*         0x20005aad        0x3 
 .bss.m_action_queue
                0x20005ab0        0x8 examples/beaconing/CMakeFiles/beaconing_nrf52840_xxAA_s140_6.0.0.dir/__/__/mesh/bearer/src/bearer_handler.c.obj
 .bss.m_end_time
                0x20005ab8        0x4 examples/beaconing/CMakeFiles/beaconing_nrf52840_xxAA_s140_6.0.0.dir/__/__/mesh/bearer/src/bearer_handler.c.obj
 .bss.m_in_callback
                0x20005abc        0x1 examples/beaconing/CMakeFiles/beaconing_nrf52840_xxAA_s140_6.0.0.dir/__/__/mesh/bearer/src/bearer_handler.c.obj
 .bss.m_scanner_is_active
                0x20005abd        0x1 examples/beaconing/CMakeFiles/beaconing_nrf52840_xxAA_s140_6.0.0.dir/__/__/mesh/bearer/src/bearer_handler.c.obj
 .bss.m_stopped
                0x20005abe        0x1 examples/beaconing/CMakeFiles/beaconing_nrf52840_xxAA_s140_6.0.0.dir/__/__/mesh/bearer/src/bearer_handler.c.obj
 *fill*         0x20005abf        0x1 
 .bss.mp_action
                0x20005ac0        0x4 examples/beaconing/CMakeFiles/beaconing_nrf52840_xxAA_s140_6.0.0.dir/__/__/mesh/bearer/src/bearer_handler.c.obj
 .bss.m_action_start_time
                0x20005ac4        0x4 examples/beaconing/CMakeFiles/beaconing_nrf52840_xxAA_s140_6.0.0.dir/__/__/mesh/bearer/src/broadcast.c.obj
 .bss.m_next_channel_index
                0x20005ac8        0x1 examples/beaconing/CMakeFiles/beaconing_nrf52840_xxAA_s140_6.0.0.dir/__/__/mesh/bearer/src/broadcast.c.obj
 *fill*         0x20005ac9        0x3 
 .bss.m_accepted_amount
                0x20005acc        0x4 examples/beaconing/CMakeFiles/beaconing_nrf52840_xxAA_s140_6.0.0.dir/__/__/mesh/bearer/src/filter_engine.c.obj
 .bss.m_filter_list_head
                0x20005ad0        0x4 examples/beaconing/CMakeFiles/beaconing_nrf52840_xxAA_s140_6.0.0.dir/__/__/mesh/bearer/src/filter_engine.c.obj
 .bss.m_scanner
                0x20005ad4      0x298 examples/beaconing/CMakeFiles/beaconing_nrf52840_xxAA_s140_6.0.0.dir/__/__/mesh/bearer/src/scanner.c.obj
 .bss.m_gpiote  0x20005d6c        0x6 examples/beaconing/CMakeFiles/beaconing_nrf52840_xxAA_s140_6.0.0.dir/__/__/mesh/bearer/src/mesh_pa_lna.c.obj
 *fill*         0x20005d72        0x2 
 .bss.m_op_queue
                0x20005d74      0x10c examples/beaconing/CMakeFiles/beaconing_nrf52840_xxAA_s140_6.0.0.dir/C_/b/nRF5_SDK_15.0.0_a53641a/components/libraries/timer/app_timer.c.obj
 .bss.m_rtc1_reset
                0x20005e80        0x1 examples/beaconing/CMakeFiles/beaconing_nrf52840_xxAA_s140_6.0.0.dir/C_/b/nRF5_SDK_15.0.0_a53641a/components/libraries/timer/app_timer.c.obj
 .bss.m_rtc1_running
                0x20005e81        0x1 examples/beaconing/CMakeFiles/beaconing_nrf52840_xxAA_s140_6.0.0.dir/C_/b/nRF5_SDK_15.0.0_a53641a/components/libraries/timer/app_timer.c.obj
 *fill*         0x20005e82        0x2 
 .bss.m_ticks_elapsed
                0x20005e84        0x8 examples/beaconing/CMakeFiles/beaconing_nrf52840_xxAA_s140_6.0.0.dir/C_/b/nRF5_SDK_15.0.0_a53641a/components/libraries/timer/app_timer.c.obj
 .bss.m_ticks_elapsed_q_read_ind
                0x20005e8c        0x1 examples/beaconing/CMakeFiles/beaconing_nrf52840_xxAA_s140_6.0.0.dir/C_/b/nRF5_SDK_15.0.0_a53641a/components/libraries/timer/app_timer.c.obj
 .bss.m_ticks_elapsed_q_write_ind
                0x20005e8d        0x1 examples/beaconing/CMakeFiles/beaconing_nrf52840_xxAA_s140_6.0.0.dir/C_/b/nRF5_SDK_15.0.0_a53641a/components/libraries/timer/app_timer.c.obj
 *fill*         0x20005e8e        0x2 
 .bss.m_ticks_latest
                0x20005e90        0x4 examples/beaconing/CMakeFiles/beaconing_nrf52840_xxAA_s140_6.0.0.dir/C_/b/nRF5_SDK_15.0.0_a53641a/components/libraries/timer/app_timer.c.obj
 .bss.mp_timer_id_head
                0x20005e94        0x4 examples/beaconing/CMakeFiles/beaconing_nrf52840_xxAA_s140_6.0.0.dir/C_/b/nRF5_SDK_15.0.0_a53641a/components/libraries/timer/app_timer.c.obj
 .bss._acDownBuffer
                0x20005e98       0x80 external/rtt/librtt_nrf52840_xxAA.a(SEGGER_RTT.c.obj)
 .bss._acUpBuffer
                0x20005f18      0x400 external/rtt/librtt_nrf52840_xxAA.a(SEGGER_RTT.c.obj)
 .bss.__malloc_free_list
                0x20006318        0x4 c:/mesh/arm_gcc/bin/../lib/gcc/arm-none-eabi/6.3.1/../../../../arm-none-eabi/lib/thumb/v7e-m/fpv4-sp/hard\libg_nano.a(lib_a-nano-mallocr.o)
                0x20006318                __malloc_free_list
 .bss.__malloc_sbrk_start
                0x2000631c        0x4 c:/mesh/arm_gcc/bin/../lib/gcc/arm-none-eabi/6.3.1/../../../../arm-none-eabi/lib/thumb/v7e-m/fpv4-sp/hard\libg_nano.a(lib_a-nano-mallocr.o)
                0x2000631c                __malloc_sbrk_start
 .bss.heap_end.5239
                0x20006320        0x4 c:/mesh/arm_gcc/bin/../lib/gcc/arm-none-eabi/6.3.1/../../../../arm-none-eabi/lib/thumb/v7e-m/fpv4-sp/hard\libnosys.a(sbrk.o)
 *(COMMON)
 COMMON         0x20006324       0x24 examples/beaconing/CMakeFiles/beaconing_nrf52840_xxAA_s140_6.0.0.dir/__/__/mesh/core/src/core_tx.c.obj
                0x20006324                m_packet
 COMMON         0x20006348        0xc examples/beaconing/CMakeFiles/beaconing_nrf52840_xxAA_s140_6.0.0.dir/C_/b/nRF5_SDK_15.0.0_a53641a/components/libraries/util/app_util_platform.c.obj
                0x20006348                nrf_nvic_state
 COMMON         0x20006354       0x78 external/rtt/librtt_nrf52840_xxAA.a(SEGGER_RTT.c.obj)
                0x20006354                _SEGGER_RTT
 COMMON         0x200063cc        0x4 c:/mesh/arm_gcc/bin/../lib/gcc/arm-none-eabi/6.3.1/../../../../arm-none-eabi/lib/thumb/v7e-m/fpv4-sp/hard\libg_nano.a(lib_a-reent.o)
                0x200063cc                errno
                0x200063d0                . = ALIGN (0x4)
                0x200063d0                __bss_end__ = .

.heap           0x200063d0     0x2000
                0x200063d0                __HeapBase = .
                0x200063d0                __end__ = .
                0x200063d0                PROVIDE (end, .)
 *(.heap*)
 .heap          0x200063d0     0x2000 examples/beaconing/CMakeFiles/beaconing_nrf52840_xxAA_s140_6.0.0.dir/C_/b/nRF5_SDK_15.0.0_a53641a/modules/nrfx/mdk/gcc_startup_nrf52840.S.obj
                0x200083d0                __HeapLimit = .

.stack_dummy    0x200063d0     0x2000
 *(.stack*)
 .stack         0x200063d0     0x2000 examples/beaconing/CMakeFiles/beaconing_nrf52840_xxAA_s140_6.0.0.dir/C_/b/nRF5_SDK_15.0.0_a53641a/modules/nrfx/mdk/gcc_startup_nrf52840.S.obj
                0x2003fd00                __StackTop = (ORIGIN (RAM) + LENGTH (RAM))
                0x2003dd00                __StackLimit = (__StackTop - SIZEOF (.stack_dummy))
                0x2003fd00                PROVIDE (__stack, __StackTop)
                0x00000001                ASSERT ((__StackLimit >= __HeapLimit), region RAM overflowed with stack)
                0x00000148                DataInitFlashUsed = (__bss_start__ - __data_start__)
                0x00014040                CodeFlashUsed = (__etext - ORIGIN (FLASH))
                0x00014188                TotalFlashUsed = (CodeFlashUsed + DataInitFlashUsed)
                0x00000001                ASSERT ((TotalFlashUsed <= LENGTH (FLASH)), region FLASH overflowed with .data and user data)
OUTPUT(examples\beaconing\beaconing_nrf52840_xxAA_s140_6.0.0.elf elf32-littlearm)

.ARM.attributes
                0x00000000       0x30
 .ARM.attributes
                0x00000000       0x22 c:/mesh/arm_gcc/bin/../lib/gcc/arm-none-eabi/6.3.1/thumb/v7e-m/fpv4-sp/hard/crti.o
 .ARM.attributes
                0x00000022       0x34 c:/mesh/arm_gcc/bin/../lib/gcc/arm-none-eabi/6.3.1/thumb/v7e-m/fpv4-sp/hard/crtbegin.o
 .ARM.attributes
                0x00000056       0x20 c:/mesh/arm_gcc/bin/../lib/gcc/arm-none-eabi/6.3.1/../../../../arm-none-eabi/lib/thumb/v7e-m/fpv4-sp/hard/crt0.o
 .ARM.attributes
                0x00000076       0x39 examples/beaconing/CMakeFiles/beaconing_nrf52840_xxAA_s140_6.0.0.dir/src/main.c.obj
 .ARM.attributes
                0x000000af       0x39 examples/beaconing/CMakeFiles/beaconing_nrf52840_xxAA_s140_6.0.0.dir/__/__/mesh/stack/src/mesh_stack.c.obj
 .ARM.attributes
                0x000000e8       0x39 examples/beaconing/CMakeFiles/beaconing_nrf52840_xxAA_s140_6.0.0.dir/__/common/src/mesh_softdevice_init.c.obj
 .ARM.attributes
                0x00000121       0x39 examples/beaconing/CMakeFiles/beaconing_nrf52840_xxAA_s140_6.0.0.dir/__/common/src/mesh_provisionee.c.obj
 .ARM.attributes
                0x0000015a       0x39 examples/beaconing/CMakeFiles/beaconing_nrf52840_xxAA_s140_6.0.0.dir/__/common/src/simple_hal.c.obj
 .ARM.attributes
                0x00000193       0x39 examples/beaconing/CMakeFiles/beaconing_nrf52840_xxAA_s140_6.0.0.dir/__/__/mesh/access/src/access_publish.c.obj
 .ARM.attributes
                0x000001cc       0x39 examples/beaconing/CMakeFiles/beaconing_nrf52840_xxAA_s140_6.0.0.dir/__/__/mesh/access/src/access.c.obj
 .ARM.attributes
                0x00000205       0x39 examples/beaconing/CMakeFiles/beaconing_nrf52840_xxAA_s140_6.0.0.dir/__/__/mesh/access/src/access_reliable.c.obj
 .ARM.attributes
                0x0000023e       0x39 examples/beaconing/CMakeFiles/beaconing_nrf52840_xxAA_s140_6.0.0.dir/__/__/mesh/access/src/access_loopback.c.obj
 .ARM.attributes
                0x00000277       0x39 examples/beaconing/CMakeFiles/beaconing_nrf52840_xxAA_s140_6.0.0.dir/__/__/mesh/access/src/device_state_manager.c.obj
 .ARM.attributes
                0x000002b0       0x39 examples/beaconing/CMakeFiles/beaconing_nrf52840_xxAA_s140_6.0.0.dir/__/nrf_mesh_weak.c.obj
 .ARM.attributes
                0x000002e9       0x39 examples/beaconing/CMakeFiles/beaconing_nrf52840_xxAA_s140_6.0.0.dir/__/common/src/app_error_weak.c.obj
 .ARM.attributes
                0x00000322       0x39 examples/beaconing/CMakeFiles/beaconing_nrf52840_xxAA_s140_6.0.0.dir/__/common/src/assertion_handler_weak.c.obj
 .ARM.attributes
                0x0000035b       0x39 examples/beaconing/CMakeFiles/beaconing_nrf52840_xxAA_s140_6.0.0.dir/__/__/models/config/src/composition_data.c.obj
 .ARM.attributes
                0x00000394       0x39 examples/beaconing/CMakeFiles/beaconing_nrf52840_xxAA_s140_6.0.0.dir/__/__/models/config/src/config_server.c.obj
 .ARM.attributes
                0x000003cd       0x39 examples/beaconing/CMakeFiles/beaconing_nrf52840_xxAA_s140_6.0.0.dir/__/__/models/config/src/packed_index_list.c.obj
 .ARM.attributes
                0x00000406       0x39 examples/beaconing/CMakeFiles/beaconing_nrf52840_xxAA_s140_6.0.0.dir/__/__/models/health/src/health_server.c.obj
 .ARM.attributes
                0x0000043f       0x39 examples/beaconing/CMakeFiles/beaconing_nrf52840_xxAA_s140_6.0.0.dir/__/__/mesh/prov/src/prov_provisionee.c.obj
 .ARM.attributes
                0x00000478       0x39 examples/beaconing/CMakeFiles/beaconing_nrf52840_xxAA_s140_6.0.0.dir/__/__/mesh/prov/src/nrf_mesh_prov.c.obj
 .ARM.attributes
                0x000004b1       0x39 examples/beaconing/CMakeFiles/beaconing_nrf52840_xxAA_s140_6.0.0.dir/__/__/mesh/prov/src/provisioning.c.obj
 .ARM.attributes
                0x000004ea       0x39 examples/beaconing/CMakeFiles/beaconing_nrf52840_xxAA_s140_6.0.0.dir/__/__/mesh/prov/src/prov_beacon.c.obj
 .ARM.attributes
                0x00000523       0x39 examples/beaconing/CMakeFiles/beaconing_nrf52840_xxAA_s140_6.0.0.dir/__/__/mesh/prov/src/prov_utils.c.obj
 .ARM.attributes
                0x0000055c       0x39 examples/beaconing/CMakeFiles/beaconing_nrf52840_xxAA_s140_6.0.0.dir/__/__/mesh/prov/src/prov_bearer_adv.c.obj
 .ARM.attributes
                0x00000595       0x39 examples/beaconing/CMakeFiles/beaconing_nrf52840_xxAA_s140_6.0.0.dir/__/__/mesh/core/src/nrf_mesh_configure.c.obj
 .ARM.attributes
                0x000005ce       0x39 examples/beaconing/CMakeFiles/beaconing_nrf52840_xxAA_s140_6.0.0.dir/__/__/mesh/core/src/msg_cache.c.obj
 .ARM.attributes
                0x00000607       0x39 examples/beaconing/CMakeFiles/beaconing_nrf52840_xxAA_s140_6.0.0.dir/__/__/mesh/core/src/transport.c.obj
 .ARM.attributes
                0x00000640       0x39 examples/beaconing/CMakeFiles/beaconing_nrf52840_xxAA_s140_6.0.0.dir/__/__/mesh/core/src/event.c.obj
 .ARM.attributes
                0x00000679       0x39 examples/beaconing/CMakeFiles/beaconing_nrf52840_xxAA_s140_6.0.0.dir/__/__/mesh/core/src/packet_buffer.c.obj
 .ARM.attributes
                0x000006b2       0x39 examples/beaconing/CMakeFiles/beaconing_nrf52840_xxAA_s140_6.0.0.dir/__/__/mesh/core/src/flash_manager_defrag.c.obj
 .ARM.attributes
                0x000006eb       0x39 examples/beaconing/CMakeFiles/beaconing_nrf52840_xxAA_s140_6.0.0.dir/__/__/mesh/core/src/fifo.c.obj
 .ARM.attributes
                0x00000724       0x39 examples/beaconing/CMakeFiles/beaconing_nrf52840_xxAA_s140_6.0.0.dir/__/__/mesh/core/src/nrf_flash.c.obj
 .ARM.attributes
                0x0000075d       0x39 examples/beaconing/CMakeFiles/beaconing_nrf52840_xxAA_s140_6.0.0.dir/__/__/mesh/core/src/packet_mgr.c.obj
 .ARM.attributes
                0x00000796       0x39 examples/beaconing/CMakeFiles/beaconing_nrf52840_xxAA_s140_6.0.0.dir/__/__/mesh/core/src/net_state.c.obj
 .ARM.attributes
                0x000007cf       0x39 examples/beaconing/CMakeFiles/beaconing_nrf52840_xxAA_s140_6.0.0.dir/__/__/mesh/core/src/mesh_flash.c.obj
 .ARM.attributes
                0x00000808       0x39 examples/beaconing/CMakeFiles/beaconing_nrf52840_xxAA_s140_6.0.0.dir/__/__/mesh/core/src/nrf_mesh_utils.c.obj
 .ARM.attributes
                0x00000841       0x39 examples/beaconing/CMakeFiles/beaconing_nrf52840_xxAA_s140_6.0.0.dir/__/__/mesh/core/src/nrf_mesh.c.obj
 .ARM.attributes
                0x0000087a       0x39 examples/beaconing/CMakeFiles/beaconing_nrf52840_xxAA_s140_6.0.0.dir/__/__/mesh/core/src/queue.c.obj
 .ARM.attributes
                0x000008b3       0x39 examples/beaconing/CMakeFiles/beaconing_nrf52840_xxAA_s140_6.0.0.dir/__/__/mesh/core/src/hal.c.obj
 .ARM.attributes
                0x000008ec       0x39 examples/beaconing/CMakeFiles/beaconing_nrf52840_xxAA_s140_6.0.0.dir/__/__/mesh/core/src/aes_cmac.c.obj
 .ARM.attributes
                0x00000925       0x39 examples/beaconing/CMakeFiles/beaconing_nrf52840_xxAA_s140_6.0.0.dir/__/__/mesh/core/src/timer_scheduler.c.obj
 .ARM.attributes
                0x0000095e       0x39 examples/beaconing/CMakeFiles/beaconing_nrf52840_xxAA_s140_6.0.0.dir/__/__/mesh/core/src/timer.c.obj
 .ARM.attributes
                0x00000997       0x39 examples/beaconing/CMakeFiles/beaconing_nrf52840_xxAA_s140_6.0.0.dir/__/__/mesh/core/src/ticker.c.obj
 .ARM.attributes
                0x000009d0       0x39 examples/beaconing/CMakeFiles/beaconing_nrf52840_xxAA_s140_6.0.0.dir/__/__/mesh/core/src/rand.c.obj
 .ARM.attributes
                0x00000a09       0x39 examples/beaconing/CMakeFiles/beaconing_nrf52840_xxAA_s140_6.0.0.dir/__/__/mesh/core/src/nrf_mesh_opt.c.obj
 .ARM.attributes
                0x00000a42       0x39 examples/beaconing/CMakeFiles/beaconing_nrf52840_xxAA_s140_6.0.0.dir/__/__/mesh/core/src/timeslot.c.obj
 .ARM.attributes
                0x00000a7b       0x39 examples/beaconing/CMakeFiles/beaconing_nrf52840_xxAA_s140_6.0.0.dir/__/__/mesh/core/src/bearer_event.c.obj
 .ARM.attributes
                0x00000ab4       0x39 examples/beaconing/CMakeFiles/beaconing_nrf52840_xxAA_s140_6.0.0.dir/__/__/mesh/core/src/enc.c.obj
 .ARM.attributes
                0x00000aed       0x39 examples/beaconing/CMakeFiles/beaconing_nrf52840_xxAA_s140_6.0.0.dir/__/__/mesh/core/src/network.c.obj
 .ARM.attributes
                0x00000b26       0x39 examples/beaconing/CMakeFiles/beaconing_nrf52840_xxAA_s140_6.0.0.dir/__/__/mesh/core/src/net_packet.c.obj
 .ARM.attributes
                0x00000b5f       0x39 examples/beaconing/CMakeFiles/beaconing_nrf52840_xxAA_s140_6.0.0.dir/__/__/mesh/core/src/msqueue.c.obj
 .ARM.attributes
                0x00000b98       0x39 examples/beaconing/CMakeFiles/beaconing_nrf52840_xxAA_s140_6.0.0.dir/__/__/mesh/core/src/nrf_mesh_keygen.c.obj
 .ARM.attributes
                0x00000bd1       0x39 examples/beaconing/CMakeFiles/beaconing_nrf52840_xxAA_s140_6.0.0.dir/__/__/mesh/core/src/list.c.obj
 .ARM.attributes
                0x00000c0a       0x39 examples/beaconing/CMakeFiles/beaconing_nrf52840_xxAA_s140_6.0.0.dir/__/__/mesh/core/src/log.c.obj
 .ARM.attributes
                0x00000c43       0x39 examples/beaconing/CMakeFiles/beaconing_nrf52840_xxAA_s140_6.0.0.dir/__/__/mesh/core/src/flash_manager.c.obj
 .ARM.attributes
                0x00000c7c       0x39 examples/beaconing/CMakeFiles/beaconing_nrf52840_xxAA_s140_6.0.0.dir/__/__/mesh/core/src/ccm_soft.c.obj
 .ARM.attributes
                0x00000cb5       0x39 examples/beaconing/CMakeFiles/beaconing_nrf52840_xxAA_s140_6.0.0.dir/__/__/mesh/core/src/replay_cache.c.obj
 .ARM.attributes
                0x00000cee       0x39 examples/beaconing/CMakeFiles/beaconing_nrf52840_xxAA_s140_6.0.0.dir/__/__/mesh/core/src/beacon.c.obj
 .ARM.attributes
                0x00000d27       0x39 examples/beaconing/CMakeFiles/beaconing_nrf52840_xxAA_s140_6.0.0.dir/__/__/mesh/core/src/flash_manager_internal.c.obj
 .ARM.attributes
                0x00000d60       0x39 examples/beaconing/CMakeFiles/beaconing_nrf52840_xxAA_s140_6.0.0.dir/__/__/mesh/core/src/core_tx.c.obj
 .ARM.attributes
                0x00000d99       0x39 examples/beaconing/CMakeFiles/beaconing_nrf52840_xxAA_s140_6.0.0.dir/__/__/mesh/core/src/heartbeat.c.obj
 .ARM.attributes
                0x00000dd2       0x39 examples/beaconing/CMakeFiles/beaconing_nrf52840_xxAA_s140_6.0.0.dir/__/__/mesh/core/src/net_beacon.c.obj
 .ARM.attributes
                0x00000e0b       0x39 examples/beaconing/CMakeFiles/beaconing_nrf52840_xxAA_s140_6.0.0.dir/__/__/mesh/core/src/core_tx_adv.c.obj
 .ARM.attributes
                0x00000e44       0x39 examples/beaconing/CMakeFiles/beaconing_nrf52840_xxAA_s140_6.0.0.dir/__/__/mesh/bearer/src/ad_listener.c.obj
 .ARM.attributes
                0x00000e7d       0x39 examples/beaconing/CMakeFiles/beaconing_nrf52840_xxAA_s140_6.0.0.dir/__/__/mesh/bearer/src/ad_type_filter.c.obj
 .ARM.attributes
                0x00000eb6       0x39 examples/beaconing/CMakeFiles/beaconing_nrf52840_xxAA_s140_6.0.0.dir/__/__/mesh/bearer/src/advertiser.c.obj
 .ARM.attributes
                0x00000eef       0x39 examples/beaconing/CMakeFiles/beaconing_nrf52840_xxAA_s140_6.0.0.dir/__/__/mesh/bearer/src/bearer_handler.c.obj
 .ARM.attributes
                0x00000f28       0x39 examples/beaconing/CMakeFiles/beaconing_nrf52840_xxAA_s140_6.0.0.dir/__/__/mesh/bearer/src/broadcast.c.obj
 .ARM.attributes
                0x00000f61       0x39 examples/beaconing/CMakeFiles/beaconing_nrf52840_xxAA_s140_6.0.0.dir/__/__/mesh/bearer/src/filter_engine.c.obj
 .ARM.attributes
                0x00000f9a       0x39 examples/beaconing/CMakeFiles/beaconing_nrf52840_xxAA_s140_6.0.0.dir/__/__/mesh/bearer/src/radio_config.c.obj
 .ARM.attributes
                0x00000fd3       0x39 examples/beaconing/CMakeFiles/beaconing_nrf52840_xxAA_s140_6.0.0.dir/__/__/mesh/bearer/src/scanner.c.obj
 .ARM.attributes
                0x0000100c       0x39 examples/beaconing/CMakeFiles/beaconing_nrf52840_xxAA_s140_6.0.0.dir/__/__/mesh/bearer/src/mesh_pa_lna.c.obj
 .ARM.attributes
                0x00001045       0x39 examples/beaconing/CMakeFiles/beaconing_nrf52840_xxAA_s140_6.0.0.dir/C_/b/nRF5_SDK_15.0.0_a53641a/modules/nrfx/mdk/system_nrf52840.c.obj
 .ARM.attributes
                0x0000107e       0x20 examples/beaconing/CMakeFiles/beaconing_nrf52840_xxAA_s140_6.0.0.dir/C_/b/nRF5_SDK_15.0.0_a53641a/modules/nrfx/mdk/gcc_startup_nrf52840.S.obj
 .ARM.attributes
                0x0000109e       0x39 examples/beaconing/CMakeFiles/beaconing_nrf52840_xxAA_s140_6.0.0.dir/C_/b/nRF5_SDK_15.0.0_a53641a/components/libraries/util/app_error.c.obj
 .ARM.attributes
                0x000010d7       0x39 examples/beaconing/CMakeFiles/beaconing_nrf52840_xxAA_s140_6.0.0.dir/C_/b/nRF5_SDK_15.0.0_a53641a/components/libraries/util/app_util_platform.c.obj
 .ARM.attributes
                0x00001110       0x39 examples/beaconing/CMakeFiles/beaconing_nrf52840_xxAA_s140_6.0.0.dir/C_/b/nRF5_SDK_15.0.0_a53641a/components/libraries/timer/app_timer.c.obj
 .ARM.attributes
                0x00001149       0x39 examples/beaconing/CMakeFiles/beaconing_nrf52840_xxAA_s140_6.0.0.dir/C_/b/nRF5_SDK_15.0.0_a53641a/components/libraries/util/app_error_handler_gcc.c.obj
 .ARM.attributes
                0x00001182       0x39 external/rtt/librtt_nrf52840_xxAA.a(SEGGER_RTT.c.obj)
 .ARM.attributes
                0x000011bb       0x39 external/rtt/librtt_nrf52840_xxAA.a(SEGGER_RTT_printf.c.obj)
 .ARM.attributes
                0x000011f4       0x39 external/micro-ecc/libuECC_nrf52840_xxAA.a(uECC.c.obj)
 .ARM.attributes
                0x0000122d       0x22 c:/mesh/arm_gcc/bin/../lib/gcc/arm-none-eabi/6.3.1/thumb/v7e-m/fpv4-sp/hard\libgcc.a(_aeabi_uldivmod.o)
 .ARM.attributes
                0x0000124f       0x34 c:/mesh/arm_gcc/bin/../lib/gcc/arm-none-eabi/6.3.1/thumb/v7e-m/fpv4-sp/hard\libgcc.a(_udivmoddi4.o)
 .ARM.attributes
                0x00001283       0x22 c:/mesh/arm_gcc/bin/../lib/gcc/arm-none-eabi/6.3.1/thumb/v7e-m/fpv4-sp/hard\libgcc.a(_dvmd_tls.o)
 .ARM.attributes
                0x000012a5       0x34 c:/mesh/arm_gcc/bin/../lib/gcc/arm-none-eabi/6.3.1/../../../../arm-none-eabi/lib/thumb/v7e-m/fpv4-sp/hard\libg_nano.a(lib_a-exit.o)
 .ARM.attributes
                0x000012d9       0x34 c:/mesh/arm_gcc/bin/../lib/gcc/arm-none-eabi/6.3.1/../../../../arm-none-eabi/lib/thumb/v7e-m/fpv4-sp/hard\libg_nano.a(lib_a-impure.o)
 .ARM.attributes
                0x0000130d       0x34 c:/mesh/arm_gcc/bin/../lib/gcc/arm-none-eabi/6.3.1/../../../../arm-none-eabi/lib/thumb/v7e-m/fpv4-sp/hard\libg_nano.a(lib_a-init.o)
 .ARM.attributes
                0x00001341       0x34 c:/mesh/arm_gcc/bin/../lib/gcc/arm-none-eabi/6.3.1/../../../../arm-none-eabi/lib/thumb/v7e-m/fpv4-sp/hard\libg_nano.a(lib_a-malloc.o)
 .ARM.attributes
                0x00001375       0x34 c:/mesh/arm_gcc/bin/../lib/gcc/arm-none-eabi/6.3.1/../../../../arm-none-eabi/lib/thumb/v7e-m/fpv4-sp/hard\libg_nano.a(lib_a-memcmp.o)
 .ARM.attributes
                0x000013a9       0x34 c:/mesh/arm_gcc/bin/../lib/gcc/arm-none-eabi/6.3.1/../../../../arm-none-eabi/lib/thumb/v7e-m/fpv4-sp/hard\libg_nano.a(lib_a-memcpy-stub.o)
 .ARM.attributes
                0x000013dd       0x34 c:/mesh/arm_gcc/bin/../lib/gcc/arm-none-eabi/6.3.1/../../../../arm-none-eabi/lib/thumb/v7e-m/fpv4-sp/hard\libg_nano.a(lib_a-memset.o)
 .ARM.attributes
                0x00001411       0x34 c:/mesh/arm_gcc/bin/../lib/gcc/arm-none-eabi/6.3.1/../../../../arm-none-eabi/lib/thumb/v7e-m/fpv4-sp/hard\libg_nano.a(lib_a-nano-freer.o)
 .ARM.attributes
                0x00001445       0x34 c:/mesh/arm_gcc/bin/../lib/gcc/arm-none-eabi/6.3.1/../../../../arm-none-eabi/lib/thumb/v7e-m/fpv4-sp/hard\libg_nano.a(lib_a-nano-mallocr.o)
 .ARM.attributes
                0x00001479       0x34 c:/mesh/arm_gcc/bin/../lib/gcc/arm-none-eabi/6.3.1/../../../../arm-none-eabi/lib/thumb/v7e-m/fpv4-sp/hard\libg_nano.a(lib_a-sbrkr.o)
 .ARM.attributes
                0x000014ad       0x34 c:/mesh/arm_gcc/bin/../lib/gcc/arm-none-eabi/6.3.1/../../../../arm-none-eabi/lib/thumb/v7e-m/fpv4-sp/hard\libg_nano.a(lib_a-sprintf.o)
 .ARM.attributes
                0x000014e1       0x34 c:/mesh/arm_gcc/bin/../lib/gcc/arm-none-eabi/6.3.1/../../../../arm-none-eabi/lib/thumb/v7e-m/fpv4-sp/hard\libg_nano.a(lib_a-strcpy.o)
 .ARM.attributes
                0x00001515       0x1b c:/mesh/arm_gcc/bin/../lib/gcc/arm-none-eabi/6.3.1/../../../../arm-none-eabi/lib/thumb/v7e-m/fpv4-sp/hard\libg_nano.a(lib_a-strlen.o)
 .ARM.attributes
                0x00001530       0x34 c:/mesh/arm_gcc/bin/../lib/gcc/arm-none-eabi/6.3.1/../../../../arm-none-eabi/lib/thumb/v7e-m/fpv4-sp/hard\libg_nano.a(lib_a-strrchr.o)
 .ARM.attributes
                0x00001564       0x34 c:/mesh/arm_gcc/bin/../lib/gcc/arm-none-eabi/6.3.1/../../../../arm-none-eabi/lib/thumb/v7e-m/fpv4-sp/hard\libg_nano.a(lib_a-mlock.o)
 .ARM.attributes
                0x00001598       0x34 c:/mesh/arm_gcc/bin/../lib/gcc/arm-none-eabi/6.3.1/../../../../arm-none-eabi/lib/thumb/v7e-m/fpv4-sp/hard\libg_nano.a(lib_a-nano-svfprintf.o)
 .ARM.attributes
                0x000015cc       0x34 c:/mesh/arm_gcc/bin/../lib/gcc/arm-none-eabi/6.3.1/../../../../arm-none-eabi/lib/thumb/v7e-m/fpv4-sp/hard\libg_nano.a(lib_a-nano-vfprintf_i.o)
 .ARM.attributes
                0x00001600       0x34 c:/mesh/arm_gcc/bin/../lib/gcc/arm-none-eabi/6.3.1/../../../../arm-none-eabi/lib/thumb/v7e-m/fpv4-sp/hard\libg_nano.a(lib_a-reent.o)
 .ARM.attributes
                0x00001634       0x34 c:/mesh/arm_gcc/bin/../lib/gcc/arm-none-eabi/6.3.1/../../../../arm-none-eabi/lib/thumb/v7e-m/fpv4-sp/hard\libg_nano.a(lib_a-strchr.o)
 .ARM.attributes
                0x00001668       0x20 c:/mesh/arm_gcc/bin/../lib/gcc/arm-none-eabi/6.3.1/../../../../arm-none-eabi/lib/thumb/v7e-m/fpv4-sp/hard\libg_nano.a(lib_a-memchr.o)
 .ARM.attributes
                0x00001688       0x34 c:/mesh/arm_gcc/bin/../lib/gcc/arm-none-eabi/6.3.1/../../../../arm-none-eabi/lib/thumb/v7e-m/fpv4-sp/hard\libg_nano.a(lib_a-memmove.o)
 .ARM.attributes
                0x000016bc       0x34 c:/mesh/arm_gcc/bin/../lib/gcc/arm-none-eabi/6.3.1/../../../../arm-none-eabi/lib/thumb/v7e-m/fpv4-sp/hard\libg_nano.a(lib_a-nano-reallocr.o)
 .ARM.attributes
                0x000016f0       0x34 c:/mesh/arm_gcc/bin/../lib/gcc/arm-none-eabi/6.3.1/../../../../arm-none-eabi/lib/thumb/v7e-m/fpv4-sp/hard\libg_nano.a(lib_a-nano-msizer.o)
 .ARM.attributes
                0x00001724       0x34 c:/mesh/arm_gcc/bin/../lib/gcc/arm-none-eabi/6.3.1/thumb/v7e-m/fpv4-sp/hard/crtend.o
 .ARM.attributes
                0x00001758       0x22 c:/mesh/arm_gcc/bin/../lib/gcc/arm-none-eabi/6.3.1/thumb/v7e-m/fpv4-sp/hard/crtn.o
 .ARM.attributes
                0x0000177a       0x34 c:/mesh/arm_gcc/bin/../lib/gcc/arm-none-eabi/6.3.1/../../../../arm-none-eabi/lib/thumb/v7e-m/fpv4-sp/hard\libnosys.a(sbrk.o)
 .ARM.attributes
                0x000017ae       0x34 c:/mesh/arm_gcc/bin/../lib/gcc/arm-none-eabi/6.3.1/../../../../arm-none-eabi/lib/thumb/v7e-m/fpv4-sp/hard\libnosys.a(_exit.o)

.comment        0x00000000       0x7f
 .comment       0x00000000       0x7f examples/beaconing/CMakeFiles/beaconing_nrf52840_xxAA_s140_6.0.0.dir/src/main.c.obj
                                 0x80 (size before relaxing)
 .comment       0x0000007f       0x80 examples/beaconing/CMakeFiles/beaconing_nrf52840_xxAA_s140_6.0.0.dir/__/__/mesh/stack/src/mesh_stack.c.obj
 .comment       0x0000007f       0x80 examples/beaconing/CMakeFiles/beaconing_nrf52840_xxAA_s140_6.0.0.dir/__/common/src/mesh_softdevice_init.c.obj
 .comment       0x0000007f       0x80 examples/beaconing/CMakeFiles/beaconing_nrf52840_xxAA_s140_6.0.0.dir/__/common/src/mesh_provisionee.c.obj
 .comment       0x0000007f       0x80 examples/beaconing/CMakeFiles/beaconing_nrf52840_xxAA_s140_6.0.0.dir/__/common/src/simple_hal.c.obj
 .comment       0x0000007f       0x80 examples/beaconing/CMakeFiles/beaconing_nrf52840_xxAA_s140_6.0.0.dir/__/__/mesh/access/src/access_publish.c.obj
 .comment       0x0000007f       0x80 examples/beaconing/CMakeFiles/beaconing_nrf52840_xxAA_s140_6.0.0.dir/__/__/mesh/access/src/access.c.obj
 .comment       0x0000007f       0x80 examples/beaconing/CMakeFiles/beaconing_nrf52840_xxAA_s140_6.0.0.dir/__/__/mesh/access/src/access_reliable.c.obj
 .comment       0x0000007f       0x80 examples/beaconing/CMakeFiles/beaconing_nrf52840_xxAA_s140_6.0.0.dir/__/__/mesh/access/src/access_loopback.c.obj
 .comment       0x0000007f       0x80 examples/beaconing/CMakeFiles/beaconing_nrf52840_xxAA_s140_6.0.0.dir/__/__/mesh/access/src/device_state_manager.c.obj
 .comment       0x0000007f       0x80 examples/beaconing/CMakeFiles/beaconing_nrf52840_xxAA_s140_6.0.0.dir/__/nrf_mesh_weak.c.obj
 .comment       0x0000007f       0x80 examples/beaconing/CMakeFiles/beaconing_nrf52840_xxAA_s140_6.0.0.dir/__/common/src/app_error_weak.c.obj
 .comment       0x0000007f       0x80 examples/beaconing/CMakeFiles/beaconing_nrf52840_xxAA_s140_6.0.0.dir/__/common/src/assertion_handler_weak.c.obj
 .comment       0x0000007f       0x80 examples/beaconing/CMakeFiles/beaconing_nrf52840_xxAA_s140_6.0.0.dir/__/__/models/config/src/composition_data.c.obj
 .comment       0x0000007f       0x80 examples/beaconing/CMakeFiles/beaconing_nrf52840_xxAA_s140_6.0.0.dir/__/__/models/config/src/config_server.c.obj
 .comment       0x0000007f       0x80 examples/beaconing/CMakeFiles/beaconing_nrf52840_xxAA_s140_6.0.0.dir/__/__/models/config/src/packed_index_list.c.obj
 .comment       0x0000007f       0x80 examples/beaconing/CMakeFiles/beaconing_nrf52840_xxAA_s140_6.0.0.dir/__/__/models/health/src/health_server.c.obj
 .comment       0x0000007f       0x80 examples/beaconing/CMakeFiles/beaconing_nrf52840_xxAA_s140_6.0.0.dir/__/__/mesh/prov/src/prov_provisionee.c.obj
 .comment       0x0000007f       0x80 examples/beaconing/CMakeFiles/beaconing_nrf52840_xxAA_s140_6.0.0.dir/__/__/mesh/prov/src/nrf_mesh_prov.c.obj
 .comment       0x0000007f       0x80 examples/beaconing/CMakeFiles/beaconing_nrf52840_xxAA_s140_6.0.0.dir/__/__/mesh/prov/src/provisioning.c.obj
 .comment       0x0000007f       0x80 examples/beaconing/CMakeFiles/beaconing_nrf52840_xxAA_s140_6.0.0.dir/__/__/mesh/prov/src/prov_beacon.c.obj
 .comment       0x0000007f       0x80 examples/beaconing/CMakeFiles/beaconing_nrf52840_xxAA_s140_6.0.0.dir/__/__/mesh/prov/src/prov_utils.c.obj
 .comment       0x0000007f       0x80 examples/beaconing/CMakeFiles/beaconing_nrf52840_xxAA_s140_6.0.0.dir/__/__/mesh/prov/src/prov_bearer_adv.c.obj
 .comment       0x0000007f       0x80 examples/beaconing/CMakeFiles/beaconing_nrf52840_xxAA_s140_6.0.0.dir/__/__/mesh/core/src/nrf_mesh_configure.c.obj
 .comment       0x0000007f       0x80 examples/beaconing/CMakeFiles/beaconing_nrf52840_xxAA_s140_6.0.0.dir/__/__/mesh/core/src/msg_cache.c.obj
 .comment       0x0000007f       0x80 examples/beaconing/CMakeFiles/beaconing_nrf52840_xxAA_s140_6.0.0.dir/__/__/mesh/core/src/transport.c.obj
 .comment       0x0000007f       0x80 examples/beaconing/CMakeFiles/beaconing_nrf52840_xxAA_s140_6.0.0.dir/__/__/mesh/core/src/event.c.obj
 .comment       0x0000007f       0x80 examples/beaconing/CMakeFiles/beaconing_nrf52840_xxAA_s140_6.0.0.dir/__/__/mesh/core/src/packet_buffer.c.obj
 .comment       0x0000007f       0x80 examples/beaconing/CMakeFiles/beaconing_nrf52840_xxAA_s140_6.0.0.dir/__/__/mesh/core/src/flash_manager_defrag.c.obj
 .comment       0x0000007f       0x80 examples/beaconing/CMakeFiles/beaconing_nrf52840_xxAA_s140_6.0.0.dir/__/__/mesh/core/src/fifo.c.obj
 .comment       0x0000007f       0x80 examples/beaconing/CMakeFiles/beaconing_nrf52840_xxAA_s140_6.0.0.dir/__/__/mesh/core/src/nrf_flash.c.obj
 .comment       0x0000007f       0x80 examples/beaconing/CMakeFiles/beaconing_nrf52840_xxAA_s140_6.0.0.dir/__/__/mesh/core/src/packet_mgr.c.obj
 .comment       0x0000007f       0x80 examples/beaconing/CMakeFiles/beaconing_nrf52840_xxAA_s140_6.0.0.dir/__/__/mesh/core/src/net_state.c.obj
 .comment       0x0000007f       0x80 examples/beaconing/CMakeFiles/beaconing_nrf52840_xxAA_s140_6.0.0.dir/__/__/mesh/core/src/mesh_flash.c.obj
 .comment       0x0000007f       0x80 examples/beaconing/CMakeFiles/beaconing_nrf52840_xxAA_s140_6.0.0.dir/__/__/mesh/core/src/nrf_mesh_utils.c.obj
 .comment       0x0000007f       0x80 examples/beaconing/CMakeFiles/beaconing_nrf52840_xxAA_s140_6.0.0.dir/__/__/mesh/core/src/nrf_mesh.c.obj
 .comment       0x0000007f       0x80 examples/beaconing/CMakeFiles/beaconing_nrf52840_xxAA_s140_6.0.0.dir/__/__/mesh/core/src/queue.c.obj
 .comment       0x0000007f       0x80 examples/beaconing/CMakeFiles/beaconing_nrf52840_xxAA_s140_6.0.0.dir/__/__/mesh/core/src/hal.c.obj
 .comment       0x0000007f       0x80 examples/beaconing/CMakeFiles/beaconing_nrf52840_xxAA_s140_6.0.0.dir/__/__/mesh/core/src/aes_cmac.c.obj
 .comment       0x0000007f       0x80 examples/beaconing/CMakeFiles/beaconing_nrf52840_xxAA_s140_6.0.0.dir/__/__/mesh/core/src/timer_scheduler.c.obj
 .comment       0x0000007f       0x80 examples/beaconing/CMakeFiles/beaconing_nrf52840_xxAA_s140_6.0.0.dir/__/__/mesh/core/src/timer.c.obj
 .comment       0x0000007f       0x80 examples/beaconing/CMakeFiles/beaconing_nrf52840_xxAA_s140_6.0.0.dir/__/__/mesh/core/src/ticker.c.obj
 .comment       0x0000007f       0x80 examples/beaconing/CMakeFiles/beaconing_nrf52840_xxAA_s140_6.0.0.dir/__/__/mesh/core/src/rand.c.obj
 .comment       0x0000007f       0x80 examples/beaconing/CMakeFiles/beaconing_nrf52840_xxAA_s140_6.0.0.dir/__/__/mesh/core/src/nrf_mesh_opt.c.obj
 .comment       0x0000007f       0x80 examples/beaconing/CMakeFiles/beaconing_nrf52840_xxAA_s140_6.0.0.dir/__/__/mesh/core/src/timeslot.c.obj
 .comment       0x0000007f       0x80 examples/beaconing/CMakeFiles/beaconing_nrf52840_xxAA_s140_6.0.0.dir/__/__/mesh/core/src/bearer_event.c.obj
 .comment       0x0000007f       0x80 examples/beaconing/CMakeFiles/beaconing_nrf52840_xxAA_s140_6.0.0.dir/__/__/mesh/core/src/enc.c.obj
 .comment       0x0000007f       0x80 examples/beaconing/CMakeFiles/beaconing_nrf52840_xxAA_s140_6.0.0.dir/__/__/mesh/core/src/network.c.obj
 .comment       0x0000007f       0x80 examples/beaconing/CMakeFiles/beaconing_nrf52840_xxAA_s140_6.0.0.dir/__/__/mesh/core/src/net_packet.c.obj
 .comment       0x0000007f       0x80 examples/beaconing/CMakeFiles/beaconing_nrf52840_xxAA_s140_6.0.0.dir/__/__/mesh/core/src/msqueue.c.obj
 .comment       0x0000007f       0x80 examples/beaconing/CMakeFiles/beaconing_nrf52840_xxAA_s140_6.0.0.dir/__/__/mesh/core/src/nrf_mesh_keygen.c.obj
 .comment       0x0000007f       0x80 examples/beaconing/CMakeFiles/beaconing_nrf52840_xxAA_s140_6.0.0.dir/__/__/mesh/core/src/list.c.obj
 .comment       0x0000007f       0x80 examples/beaconing/CMakeFiles/beaconing_nrf52840_xxAA_s140_6.0.0.dir/__/__/mesh/core/src/log.c.obj
 .comment       0x0000007f       0x80 examples/beaconing/CMakeFiles/beaconing_nrf52840_xxAA_s140_6.0.0.dir/__/__/mesh/core/src/flash_manager.c.obj
 .comment       0x0000007f       0x80 examples/beaconing/CMakeFiles/beaconing_nrf52840_xxAA_s140_6.0.0.dir/__/__/mesh/core/src/ccm_soft.c.obj
 .comment       0x0000007f       0x80 examples/beaconing/CMakeFiles/beaconing_nrf52840_xxAA_s140_6.0.0.dir/__/__/mesh/core/src/replay_cache.c.obj
 .comment       0x0000007f       0x80 examples/beaconing/CMakeFiles/beaconing_nrf52840_xxAA_s140_6.0.0.dir/__/__/mesh/core/src/beacon.c.obj
 .comment       0x0000007f       0x80 examples/beaconing/CMakeFiles/beaconing_nrf52840_xxAA_s140_6.0.0.dir/__/__/mesh/core/src/flash_manager_internal.c.obj
 .comment       0x0000007f       0x80 examples/beaconing/CMakeFiles/beaconing_nrf52840_xxAA_s140_6.0.0.dir/__/__/mesh/core/src/core_tx.c.obj
 .comment       0x0000007f       0x80 examples/beaconing/CMakeFiles/beaconing_nrf52840_xxAA_s140_6.0.0.dir/__/__/mesh/core/src/heartbeat.c.obj
 .comment       0x0000007f       0x80 examples/beaconing/CMakeFiles/beaconing_nrf52840_xxAA_s140_6.0.0.dir/__/__/mesh/core/src/net_beacon.c.obj
 .comment       0x0000007f       0x80 examples/beaconing/CMakeFiles/beaconing_nrf52840_xxAA_s140_6.0.0.dir/__/__/mesh/core/src/core_tx_adv.c.obj
 .comment       0x0000007f       0x80 examples/beaconing/CMakeFiles/beaconing_nrf52840_xxAA_s140_6.0.0.dir/__/__/mesh/bearer/src/ad_listener.c.obj
 .comment       0x0000007f       0x80 examples/beaconing/CMakeFiles/beaconing_nrf52840_xxAA_s140_6.0.0.dir/__/__/mesh/bearer/src/ad_type_filter.c.obj
 .comment       0x0000007f       0x80 examples/beaconing/CMakeFiles/beaconing_nrf52840_xxAA_s140_6.0.0.dir/__/__/mesh/bearer/src/advertiser.c.obj
 .comment       0x0000007f       0x80 examples/beaconing/CMakeFiles/beaconing_nrf52840_xxAA_s140_6.0.0.dir/__/__/mesh/bearer/src/bearer_handler.c.obj
 .comment       0x0000007f       0x80 examples/beaconing/CMakeFiles/beaconing_nrf52840_xxAA_s140_6.0.0.dir/__/__/mesh/bearer/src/broadcast.c.obj
 .comment       0x0000007f       0x80 examples/beaconing/CMakeFiles/beaconing_nrf52840_xxAA_s140_6.0.0.dir/__/__/mesh/bearer/src/filter_engine.c.obj
 .comment       0x0000007f       0x80 examples/beaconing/CMakeFiles/beaconing_nrf52840_xxAA_s140_6.0.0.dir/__/__/mesh/bearer/src/radio_config.c.obj
 .comment       0x0000007f       0x80 examples/beaconing/CMakeFiles/beaconing_nrf52840_xxAA_s140_6.0.0.dir/__/__/mesh/bearer/src/scanner.c.obj
 .comment       0x0000007f       0x80 examples/beaconing/CMakeFiles/beaconing_nrf52840_xxAA_s140_6.0.0.dir/__/__/mesh/bearer/src/mesh_pa_lna.c.obj
 .comment       0x0000007f       0x80 examples/beaconing/CMakeFiles/beaconing_nrf52840_xxAA_s140_6.0.0.dir/C_/b/nRF5_SDK_15.0.0_a53641a/modules/nrfx/mdk/system_nrf52840.c.obj
 .comment       0x0000007f       0x80 examples/beaconing/CMakeFiles/beaconing_nrf52840_xxAA_s140_6.0.0.dir/C_/b/nRF5_SDK_15.0.0_a53641a/components/libraries/util/app_error.c.obj
 .comment       0x0000007f       0x80 examples/beaconing/CMakeFiles/beaconing_nrf52840_xxAA_s140_6.0.0.dir/C_/b/nRF5_SDK_15.0.0_a53641a/components/libraries/util/app_util_platform.c.obj
 .comment       0x0000007f       0x80 examples/beaconing/CMakeFiles/beaconing_nrf52840_xxAA_s140_6.0.0.dir/C_/b/nRF5_SDK_15.0.0_a53641a/components/libraries/timer/app_timer.c.obj
 .comment       0x0000007f       0x80 examples/beaconing/CMakeFiles/beaconing_nrf52840_xxAA_s140_6.0.0.dir/C_/b/nRF5_SDK_15.0.0_a53641a/components/libraries/util/app_error_handler_gcc.c.obj
 .comment       0x0000007f       0x80 external/rtt/librtt_nrf52840_xxAA.a(SEGGER_RTT.c.obj)
 .comment       0x0000007f       0x80 external/rtt/librtt_nrf52840_xxAA.a(SEGGER_RTT_printf.c.obj)
 .comment       0x0000007f       0x80 external/micro-ecc/libuECC_nrf52840_xxAA.a(uECC.c.obj)

.debug_info     0x00000000    0x8294f
 .debug_info    0x00000000     0x2fed examples/beaconing/CMakeFiles/beaconing_nrf52840_xxAA_s140_6.0.0.dir/src/main.c.obj
 .debug_info    0x00002fed     0x2332 examples/beaconing/CMakeFiles/beaconing_nrf52840_xxAA_s140_6.0.0.dir/__/__/mesh/stack/src/mesh_stack.c.obj
 .debug_info    0x0000531f     0x1bac examples/beaconing/CMakeFiles/beaconing_nrf52840_xxAA_s140_6.0.0.dir/__/common/src/mesh_softdevice_init.c.obj
 .debug_info    0x00006ecb     0x21a6 examples/beaconing/CMakeFiles/beaconing_nrf52840_xxAA_s140_6.0.0.dir/__/common/src/mesh_provisionee.c.obj
 .debug_info    0x00009071     0x1623 examples/beaconing/CMakeFiles/beaconing_nrf52840_xxAA_s140_6.0.0.dir/__/common/src/simple_hal.c.obj
 .debug_info    0x0000a694     0x1155 examples/beaconing/CMakeFiles/beaconing_nrf52840_xxAA_s140_6.0.0.dir/__/__/mesh/access/src/access_publish.c.obj
 .debug_info    0x0000b7e9     0x4aa1 examples/beaconing/CMakeFiles/beaconing_nrf52840_xxAA_s140_6.0.0.dir/__/__/mesh/access/src/access.c.obj
 .debug_info    0x0001028a     0x19d3 examples/beaconing/CMakeFiles/beaconing_nrf52840_xxAA_s140_6.0.0.dir/__/__/mesh/access/src/access_reliable.c.obj
 .debug_info    0x00011c5d      0xfbf examples/beaconing/CMakeFiles/beaconing_nrf52840_xxAA_s140_6.0.0.dir/__/__/mesh/access/src/access_loopback.c.obj
 .debug_info    0x00012c1c     0x6847 examples/beaconing/CMakeFiles/beaconing_nrf52840_xxAA_s140_6.0.0.dir/__/__/mesh/access/src/device_state_manager.c.obj
 .debug_info    0x00019463      0x924 examples/beaconing/CMakeFiles/beaconing_nrf52840_xxAA_s140_6.0.0.dir/__/nrf_mesh_weak.c.obj
 .debug_info    0x00019d87     0x106b examples/beaconing/CMakeFiles/beaconing_nrf52840_xxAA_s140_6.0.0.dir/__/common/src/app_error_weak.c.obj
 .debug_info    0x0001adf2      0x99b examples/beaconing/CMakeFiles/beaconing_nrf52840_xxAA_s140_6.0.0.dir/__/common/src/assertion_handler_weak.c.obj
 .debug_info    0x0001b78d      0xece examples/beaconing/CMakeFiles/beaconing_nrf52840_xxAA_s140_6.0.0.dir/__/__/models/config/src/composition_data.c.obj
 .debug_info    0x0001c65b     0x8bcc examples/beaconing/CMakeFiles/beaconing_nrf52840_xxAA_s140_6.0.0.dir/__/__/models/config/src/config_server.c.obj
 .debug_info    0x00025227      0x126 examples/beaconing/CMakeFiles/beaconing_nrf52840_xxAA_s140_6.0.0.dir/__/__/models/config/src/packed_index_list.c.obj
 .debug_info    0x0002534d     0x2629 examples/beaconing/CMakeFiles/beaconing_nrf52840_xxAA_s140_6.0.0.dir/__/__/models/health/src/health_server.c.obj
 .debug_info    0x00027976     0x2823 examples/beaconing/CMakeFiles/beaconing_nrf52840_xxAA_s140_6.0.0.dir/__/__/mesh/prov/src/prov_provisionee.c.obj
 .debug_info    0x0002a199     0x1ed2 examples/beaconing/CMakeFiles/beaconing_nrf52840_xxAA_s140_6.0.0.dir/__/__/mesh/prov/src/nrf_mesh_prov.c.obj
 .debug_info    0x0002c06b     0x1586 examples/beaconing/CMakeFiles/beaconing_nrf52840_xxAA_s140_6.0.0.dir/__/__/mesh/prov/src/provisioning.c.obj
 .debug_info    0x0002d5f1     0x1a7d examples/beaconing/CMakeFiles/beaconing_nrf52840_xxAA_s140_6.0.0.dir/__/__/mesh/prov/src/prov_beacon.c.obj
 .debug_info    0x0002f06e     0x205e examples/beaconing/CMakeFiles/beaconing_nrf52840_xxAA_s140_6.0.0.dir/__/__/mesh/prov/src/prov_utils.c.obj
 .debug_info    0x000310cc     0x3ae7 examples/beaconing/CMakeFiles/beaconing_nrf52840_xxAA_s140_6.0.0.dir/__/__/mesh/prov/src/prov_bearer_adv.c.obj
 .debug_info    0x00034bb3      0xdff examples/beaconing/CMakeFiles/beaconing_nrf52840_xxAA_s140_6.0.0.dir/__/__/mesh/core/src/nrf_mesh_configure.c.obj
 .debug_info    0x000359b2      0xa5a examples/beaconing/CMakeFiles/beaconing_nrf52840_xxAA_s140_6.0.0.dir/__/__/mesh/core/src/msg_cache.c.obj
 .debug_info    0x0003640c     0x5091 examples/beaconing/CMakeFiles/beaconing_nrf52840_xxAA_s140_6.0.0.dir/__/__/mesh/core/src/transport.c.obj
 .debug_info    0x0003b49d     0x17e1 examples/beaconing/CMakeFiles/beaconing_nrf52840_xxAA_s140_6.0.0.dir/__/__/mesh/core/src/event.c.obj
 .debug_info    0x0003cc7e     0x1a22 examples/beaconing/CMakeFiles/beaconing_nrf52840_xxAA_s140_6.0.0.dir/__/__/mesh/core/src/packet_buffer.c.obj
 .debug_info    0x0003e6a0     0x212b examples/beaconing/CMakeFiles/beaconing_nrf52840_xxAA_s140_6.0.0.dir/__/__/mesh/core/src/flash_manager_defrag.c.obj
 .debug_info    0x000407cb      0xd19 examples/beaconing/CMakeFiles/beaconing_nrf52840_xxAA_s140_6.0.0.dir/__/__/mesh/core/src/fifo.c.obj
 .debug_info    0x000414e4      0xb58 examples/beaconing/CMakeFiles/beaconing_nrf52840_xxAA_s140_6.0.0.dir/__/__/mesh/core/src/nrf_flash.c.obj
 .debug_info    0x0004203c     0x118d examples/beaconing/CMakeFiles/beaconing_nrf52840_xxAA_s140_6.0.0.dir/__/__/mesh/core/src/packet_mgr.c.obj
 .debug_info    0x000431c9     0x2825 examples/beaconing/CMakeFiles/beaconing_nrf52840_xxAA_s140_6.0.0.dir/__/__/mesh/core/src/net_state.c.obj
 .debug_info    0x000459ee     0x1948 examples/beaconing/CMakeFiles/beaconing_nrf52840_xxAA_s140_6.0.0.dir/__/__/mesh/core/src/mesh_flash.c.obj
 .debug_info    0x00047336      0xa78 examples/beaconing/CMakeFiles/beaconing_nrf52840_xxAA_s140_6.0.0.dir/__/__/mesh/core/src/nrf_mesh_utils.c.obj
 .debug_info    0x00047dae     0x25db examples/beaconing/CMakeFiles/beaconing_nrf52840_xxAA_s140_6.0.0.dir/__/__/mesh/core/src/nrf_mesh.c.obj
 .debug_info    0x0004a389      0xb11 examples/beaconing/CMakeFiles/beaconing_nrf52840_xxAA_s140_6.0.0.dir/__/__/mesh/core/src/queue.c.obj
 .debug_info    0x0004ae9a      0x51a examples/beaconing/CMakeFiles/beaconing_nrf52840_xxAA_s140_6.0.0.dir/__/__/mesh/core/src/hal.c.obj
 .debug_info    0x0004b3b4      0xf6a examples/beaconing/CMakeFiles/beaconing_nrf52840_xxAA_s140_6.0.0.dir/__/__/mesh/core/src/aes_cmac.c.obj
 .debug_info    0x0004c31e     0x10e0 examples/beaconing/CMakeFiles/beaconing_nrf52840_xxAA_s140_6.0.0.dir/__/__/mesh/core/src/timer_scheduler.c.obj
 .debug_info    0x0004d3fe      0xdb4 examples/beaconing/CMakeFiles/beaconing_nrf52840_xxAA_s140_6.0.0.dir/__/__/mesh/core/src/timer.c.obj
 .debug_info    0x0004e1b2      0x20b examples/beaconing/CMakeFiles/beaconing_nrf52840_xxAA_s140_6.0.0.dir/__/__/mesh/core/src/ticker.c.obj
 .debug_info    0x0004e3bd      0x426 examples/beaconing/CMakeFiles/beaconing_nrf52840_xxAA_s140_6.0.0.dir/__/__/mesh/core/src/rand.c.obj
 .debug_info    0x0004e7e3      0xb03 examples/beaconing/CMakeFiles/beaconing_nrf52840_xxAA_s140_6.0.0.dir/__/__/mesh/core/src/nrf_mesh_opt.c.obj
 .debug_info    0x0004f2e6     0x1a71 examples/beaconing/CMakeFiles/beaconing_nrf52840_xxAA_s140_6.0.0.dir/__/__/mesh/core/src/timeslot.c.obj
 .debug_info    0x00050d57     0x1a9c examples/beaconing/CMakeFiles/beaconing_nrf52840_xxAA_s140_6.0.0.dir/__/__/mesh/core/src/bearer_event.c.obj
 .debug_info    0x000527f3     0x1929 examples/beaconing/CMakeFiles/beaconing_nrf52840_xxAA_s140_6.0.0.dir/__/__/mesh/core/src/enc.c.obj
 .debug_info    0x0005411c     0x1b5f examples/beaconing/CMakeFiles/beaconing_nrf52840_xxAA_s140_6.0.0.dir/__/__/mesh/core/src/network.c.obj
 .debug_info    0x00055c7b     0x1cad examples/beaconing/CMakeFiles/beaconing_nrf52840_xxAA_s140_6.0.0.dir/__/__/mesh/core/src/net_packet.c.obj
 .debug_info    0x00057928      0xd86 examples/beaconing/CMakeFiles/beaconing_nrf52840_xxAA_s140_6.0.0.dir/__/__/mesh/core/src/msqueue.c.obj
 .debug_info    0x000586ae      0x4c8 examples/beaconing/CMakeFiles/beaconing_nrf52840_xxAA_s140_6.0.0.dir/__/__/mesh/core/src/nrf_mesh_keygen.c.obj
 .debug_info    0x00058b76      0x506 examples/beaconing/CMakeFiles/beaconing_nrf52840_xxAA_s140_6.0.0.dir/__/__/mesh/core/src/list.c.obj
 .debug_info    0x0005907c      0xe28 examples/beaconing/CMakeFiles/beaconing_nrf52840_xxAA_s140_6.0.0.dir/__/__/mesh/core/src/log.c.obj
 .debug_info    0x00059ea4     0x3024 examples/beaconing/CMakeFiles/beaconing_nrf52840_xxAA_s140_6.0.0.dir/__/__/mesh/core/src/flash_manager.c.obj
 .debug_info    0x0005cec8     0x12e6 examples/beaconing/CMakeFiles/beaconing_nrf52840_xxAA_s140_6.0.0.dir/__/__/mesh/core/src/ccm_soft.c.obj
 .debug_info    0x0005e1ae      0xa93 examples/beaconing/CMakeFiles/beaconing_nrf52840_xxAA_s140_6.0.0.dir/__/__/mesh/core/src/replay_cache.c.obj
 .debug_info    0x0005ec41     0x17b4 examples/beaconing/CMakeFiles/beaconing_nrf52840_xxAA_s140_6.0.0.dir/__/__/mesh/core/src/beacon.c.obj
 .debug_info    0x000603f5      0xb9b examples/beaconing/CMakeFiles/beaconing_nrf52840_xxAA_s140_6.0.0.dir/__/__/mesh/core/src/flash_manager_internal.c.obj
 .debug_info    0x00060f90     0x126f examples/beaconing/CMakeFiles/beaconing_nrf52840_xxAA_s140_6.0.0.dir/__/__/mesh/core/src/core_tx.c.obj
 .debug_info    0x000621ff     0x2520 examples/beaconing/CMakeFiles/beaconing_nrf52840_xxAA_s140_6.0.0.dir/__/__/mesh/core/src/heartbeat.c.obj
 .debug_info    0x0006471f     0x28e2 examples/beaconing/CMakeFiles/beaconing_nrf52840_xxAA_s140_6.0.0.dir/__/__/mesh/core/src/net_beacon.c.obj
 .debug_info    0x00067001     0x1a1f examples/beaconing/CMakeFiles/beaconing_nrf52840_xxAA_s140_6.0.0.dir/__/__/mesh/core/src/core_tx_adv.c.obj
 .debug_info    0x00068a20     0x115d examples/beaconing/CMakeFiles/beaconing_nrf52840_xxAA_s140_6.0.0.dir/__/__/mesh/bearer/src/ad_listener.c.obj
 .debug_info    0x00069b7d      0xfbe examples/beaconing/CMakeFiles/beaconing_nrf52840_xxAA_s140_6.0.0.dir/__/__/mesh/bearer/src/ad_type_filter.c.obj
 .debug_info    0x0006ab3b     0x270e examples/beaconing/CMakeFiles/beaconing_nrf52840_xxAA_s140_6.0.0.dir/__/__/mesh/bearer/src/advertiser.c.obj
 .debug_info    0x0006d249     0x231a examples/beaconing/CMakeFiles/beaconing_nrf52840_xxAA_s140_6.0.0.dir/__/__/mesh/bearer/src/bearer_handler.c.obj
 .debug_info    0x0006f563     0x1b92 examples/beaconing/CMakeFiles/beaconing_nrf52840_xxAA_s140_6.0.0.dir/__/__/mesh/bearer/src/broadcast.c.obj
 .debug_info    0x000710f5      0xcff examples/beaconing/CMakeFiles/beaconing_nrf52840_xxAA_s140_6.0.0.dir/__/__/mesh/bearer/src/filter_engine.c.obj
 .debug_info    0x00071df4      0xa53 examples/beaconing/CMakeFiles/beaconing_nrf52840_xxAA_s140_6.0.0.dir/__/__/mesh/bearer/src/radio_config.c.obj
 .debug_info    0x00072847     0x28e3 examples/beaconing/CMakeFiles/beaconing_nrf52840_xxAA_s140_6.0.0.dir/__/__/mesh/bearer/src/scanner.c.obj
 .debug_info    0x0007512a     0x107c examples/beaconing/CMakeFiles/beaconing_nrf52840_xxAA_s140_6.0.0.dir/__/__/mesh/bearer/src/mesh_pa_lna.c.obj
 .debug_info    0x000761a6     0x139f examples/beaconing/CMakeFiles/beaconing_nrf52840_xxAA_s140_6.0.0.dir/C_/b/nRF5_SDK_15.0.0_a53641a/modules/nrfx/mdk/system_nrf52840.c.obj
 .debug_info    0x00077545      0xaee examples/beaconing/CMakeFiles/beaconing_nrf52840_xxAA_s140_6.0.0.dir/C_/b/nRF5_SDK_15.0.0_a53641a/components/libraries/util/app_error.c.obj
 .debug_info    0x00078033     0x11bd examples/beaconing/CMakeFiles/beaconing_nrf52840_xxAA_s140_6.0.0.dir/C_/b/nRF5_SDK_15.0.0_a53641a/components/libraries/util/app_util_platform.c.obj
 .debug_info    0x000791f0     0x2201 examples/beaconing/CMakeFiles/beaconing_nrf52840_xxAA_s140_6.0.0.dir/C_/b/nRF5_SDK_15.0.0_a53641a/components/libraries/timer/app_timer.c.obj
 .debug_info    0x0007b3f1      0x974 examples/beaconing/CMakeFiles/beaconing_nrf52840_xxAA_s140_6.0.0.dir/C_/b/nRF5_SDK_15.0.0_a53641a/components/libraries/util/app_error_handler_gcc.c.obj
 .debug_info    0x0007bd65     0x1818 external/rtt/librtt_nrf52840_xxAA.a(SEGGER_RTT.c.obj)
 .debug_info    0x0007d57d      0xec1 external/rtt/librtt_nrf52840_xxAA.a(SEGGER_RTT_printf.c.obj)
 .debug_info    0x0007e43e     0x4511 external/micro-ecc/libuECC_nrf52840_xxAA.a(uECC.c.obj)

.debug_abbrev   0x00000000    0x1117d
 .debug_abbrev  0x00000000      0x4ca examples/beaconing/CMakeFiles/beaconing_nrf52840_xxAA_s140_6.0.0.dir/src/main.c.obj
 .debug_abbrev  0x000004ca      0x36b examples/beaconing/CMakeFiles/beaconing_nrf52840_xxAA_s140_6.0.0.dir/__/__/mesh/stack/src/mesh_stack.c.obj
 .debug_abbrev  0x00000835      0x432 examples/beaconing/CMakeFiles/beaconing_nrf52840_xxAA_s140_6.0.0.dir/__/common/src/mesh_softdevice_init.c.obj
 .debug_abbrev  0x00000c67      0x312 examples/beaconing/CMakeFiles/beaconing_nrf52840_xxAA_s140_6.0.0.dir/__/common/src/mesh_provisionee.c.obj
 .debug_abbrev  0x00000f79      0x3a3 examples/beaconing/CMakeFiles/beaconing_nrf52840_xxAA_s140_6.0.0.dir/__/common/src/simple_hal.c.obj
 .debug_abbrev  0x0000131c      0x434 examples/beaconing/CMakeFiles/beaconing_nrf52840_xxAA_s140_6.0.0.dir/__/__/mesh/access/src/access_publish.c.obj
 .debug_abbrev  0x00001750      0x61f examples/beaconing/CMakeFiles/beaconing_nrf52840_xxAA_s140_6.0.0.dir/__/__/mesh/access/src/access.c.obj
 .debug_abbrev  0x00001d6f      0x43b examples/beaconing/CMakeFiles/beaconing_nrf52840_xxAA_s140_6.0.0.dir/__/__/mesh/access/src/access_reliable.c.obj
 .debug_abbrev  0x000021aa      0x2be examples/beaconing/CMakeFiles/beaconing_nrf52840_xxAA_s140_6.0.0.dir/__/__/mesh/access/src/access_loopback.c.obj
 .debug_abbrev  0x00002468      0x60d examples/beaconing/CMakeFiles/beaconing_nrf52840_xxAA_s140_6.0.0.dir/__/__/mesh/access/src/device_state_manager.c.obj
 .debug_abbrev  0x00002a75      0x1ae examples/beaconing/CMakeFiles/beaconing_nrf52840_xxAA_s140_6.0.0.dir/__/nrf_mesh_weak.c.obj
 .debug_abbrev  0x00002c23      0x2de examples/beaconing/CMakeFiles/beaconing_nrf52840_xxAA_s140_6.0.0.dir/__/common/src/app_error_weak.c.obj
 .debug_abbrev  0x00002f01      0x1f6 examples/beaconing/CMakeFiles/beaconing_nrf52840_xxAA_s140_6.0.0.dir/__/common/src/assertion_handler_weak.c.obj
 .debug_abbrev  0x000030f7      0x2db examples/beaconing/CMakeFiles/beaconing_nrf52840_xxAA_s140_6.0.0.dir/__/__/models/config/src/composition_data.c.obj
 .debug_abbrev  0x000033d2      0x55a examples/beaconing/CMakeFiles/beaconing_nrf52840_xxAA_s140_6.0.0.dir/__/__/models/config/src/config_server.c.obj
 .debug_abbrev  0x0000392c       0x95 examples/beaconing/CMakeFiles/beaconing_nrf52840_xxAA_s140_6.0.0.dir/__/__/models/config/src/packed_index_list.c.obj
 .debug_abbrev  0x000039c1      0x4cf examples/beaconing/CMakeFiles/beaconing_nrf52840_xxAA_s140_6.0.0.dir/__/__/models/health/src/health_server.c.obj
 .debug_abbrev  0x00003e90      0x491 examples/beaconing/CMakeFiles/beaconing_nrf52840_xxAA_s140_6.0.0.dir/__/__/mesh/prov/src/prov_provisionee.c.obj
 .debug_abbrev  0x00004321      0x434 examples/beaconing/CMakeFiles/beaconing_nrf52840_xxAA_s140_6.0.0.dir/__/__/mesh/prov/src/nrf_mesh_prov.c.obj
 .debug_abbrev  0x00004755      0x2a9 examples/beaconing/CMakeFiles/beaconing_nrf52840_xxAA_s140_6.0.0.dir/__/__/mesh/prov/src/provisioning.c.obj
 .debug_abbrev  0x000049fe      0x2c8 examples/beaconing/CMakeFiles/beaconing_nrf52840_xxAA_s140_6.0.0.dir/__/__/mesh/prov/src/prov_beacon.c.obj
 .debug_abbrev  0x00004cc6      0x3c1 examples/beaconing/CMakeFiles/beaconing_nrf52840_xxAA_s140_6.0.0.dir/__/__/mesh/prov/src/prov_utils.c.obj
 .debug_abbrev  0x00005087      0x4eb examples/beaconing/CMakeFiles/beaconing_nrf52840_xxAA_s140_6.0.0.dir/__/__/mesh/prov/src/prov_bearer_adv.c.obj
 .debug_abbrev  0x00005572      0x254 examples/beaconing/CMakeFiles/beaconing_nrf52840_xxAA_s140_6.0.0.dir/__/__/mesh/core/src/nrf_mesh_configure.c.obj
 .debug_abbrev  0x000057c6      0x25d examples/beaconing/CMakeFiles/beaconing_nrf52840_xxAA_s140_6.0.0.dir/__/__/mesh/core/src/msg_cache.c.obj
 .debug_abbrev  0x00005a23      0x5f5 examples/beaconing/CMakeFiles/beaconing_nrf52840_xxAA_s140_6.0.0.dir/__/__/mesh/core/src/transport.c.obj
 .debug_abbrev  0x00006018      0x314 examples/beaconing/CMakeFiles/beaconing_nrf52840_xxAA_s140_6.0.0.dir/__/__/mesh/core/src/event.c.obj
 .debug_abbrev  0x0000632c      0x468 examples/beaconing/CMakeFiles/beaconing_nrf52840_xxAA_s140_6.0.0.dir/__/__/mesh/core/src/packet_buffer.c.obj
 .debug_abbrev  0x00006794      0x50e examples/beaconing/CMakeFiles/beaconing_nrf52840_xxAA_s140_6.0.0.dir/__/__/mesh/core/src/flash_manager_defrag.c.obj
 .debug_abbrev  0x00006ca2      0x2f2 examples/beaconing/CMakeFiles/beaconing_nrf52840_xxAA_s140_6.0.0.dir/__/__/mesh/core/src/fifo.c.obj
 .debug_abbrev  0x00006f94      0x21f examples/beaconing/CMakeFiles/beaconing_nrf52840_xxAA_s140_6.0.0.dir/__/__/mesh/core/src/nrf_flash.c.obj
 .debug_abbrev  0x000071b3      0x3b1 examples/beaconing/CMakeFiles/beaconing_nrf52840_xxAA_s140_6.0.0.dir/__/__/mesh/core/src/packet_mgr.c.obj
 .debug_abbrev  0x00007564      0x552 examples/beaconing/CMakeFiles/beaconing_nrf52840_xxAA_s140_6.0.0.dir/__/__/mesh/core/src/net_state.c.obj
 .debug_abbrev  0x00007ab6      0x453 examples/beaconing/CMakeFiles/beaconing_nrf52840_xxAA_s140_6.0.0.dir/__/__/mesh/core/src/mesh_flash.c.obj
 .debug_abbrev  0x00007f09      0x242 examples/beaconing/CMakeFiles/beaconing_nrf52840_xxAA_s140_6.0.0.dir/__/__/mesh/core/src/nrf_mesh_utils.c.obj
 .debug_abbrev  0x0000814b      0x490 examples/beaconing/CMakeFiles/beaconing_nrf52840_xxAA_s140_6.0.0.dir/__/__/mesh/core/src/nrf_mesh.c.obj
 .debug_abbrev  0x000085db      0x247 examples/beaconing/CMakeFiles/beaconing_nrf52840_xxAA_s140_6.0.0.dir/__/__/mesh/core/src/queue.c.obj
 .debug_abbrev  0x00008822      0x1cf examples/beaconing/CMakeFiles/beaconing_nrf52840_xxAA_s140_6.0.0.dir/__/__/mesh/core/src/hal.c.obj
 .debug_abbrev  0x000089f1      0x341 examples/beaconing/CMakeFiles/beaconing_nrf52840_xxAA_s140_6.0.0.dir/__/__/mesh/core/src/aes_cmac.c.obj
 .debug_abbrev  0x00008d32      0x3bc examples/beaconing/CMakeFiles/beaconing_nrf52840_xxAA_s140_6.0.0.dir/__/__/mesh/core/src/timer_scheduler.c.obj
 .debug_abbrev  0x000090ee      0x337 examples/beaconing/CMakeFiles/beaconing_nrf52840_xxAA_s140_6.0.0.dir/__/__/mesh/core/src/timer.c.obj
 .debug_abbrev  0x00009425      0x152 examples/beaconing/CMakeFiles/beaconing_nrf52840_xxAA_s140_6.0.0.dir/__/__/mesh/core/src/ticker.c.obj
 .debug_abbrev  0x00009577      0x194 examples/beaconing/CMakeFiles/beaconing_nrf52840_xxAA_s140_6.0.0.dir/__/__/mesh/core/src/rand.c.obj
 .debug_abbrev  0x0000970b      0x24a examples/beaconing/CMakeFiles/beaconing_nrf52840_xxAA_s140_6.0.0.dir/__/__/mesh/core/src/nrf_mesh_opt.c.obj
 .debug_abbrev  0x00009955      0x4a4 examples/beaconing/CMakeFiles/beaconing_nrf52840_xxAA_s140_6.0.0.dir/__/__/mesh/core/src/timeslot.c.obj
 .debug_abbrev  0x00009df9      0x4b5 examples/beaconing/CMakeFiles/beaconing_nrf52840_xxAA_s140_6.0.0.dir/__/__/mesh/core/src/bearer_event.c.obj
 .debug_abbrev  0x0000a2ae      0x3be examples/beaconing/CMakeFiles/beaconing_nrf52840_xxAA_s140_6.0.0.dir/__/__/mesh/core/src/enc.c.obj
 .debug_abbrev  0x0000a66c      0x496 examples/beaconing/CMakeFiles/beaconing_nrf52840_xxAA_s140_6.0.0.dir/__/__/mesh/core/src/network.c.obj
 .debug_abbrev  0x0000ab02      0x4a1 examples/beaconing/CMakeFiles/beaconing_nrf52840_xxAA_s140_6.0.0.dir/__/__/mesh/core/src/net_packet.c.obj
 .debug_abbrev  0x0000afa3      0x2c0 examples/beaconing/CMakeFiles/beaconing_nrf52840_xxAA_s140_6.0.0.dir/__/__/mesh/core/src/msqueue.c.obj
 .debug_abbrev  0x0000b263      0x163 examples/beaconing/CMakeFiles/beaconing_nrf52840_xxAA_s140_6.0.0.dir/__/__/mesh/core/src/nrf_mesh_keygen.c.obj
 .debug_abbrev  0x0000b3c6      0x1a4 examples/beaconing/CMakeFiles/beaconing_nrf52840_xxAA_s140_6.0.0.dir/__/__/mesh/core/src/list.c.obj
 .debug_abbrev  0x0000b56a      0x24e examples/beaconing/CMakeFiles/beaconing_nrf52840_xxAA_s140_6.0.0.dir/__/__/mesh/core/src/log.c.obj
 .debug_abbrev  0x0000b7b8      0x524 examples/beaconing/CMakeFiles/beaconing_nrf52840_xxAA_s140_6.0.0.dir/__/__/mesh/core/src/flash_manager.c.obj
 .debug_abbrev  0x0000bcdc      0x38c examples/beaconing/CMakeFiles/beaconing_nrf52840_xxAA_s140_6.0.0.dir/__/__/mesh/core/src/ccm_soft.c.obj
 .debug_abbrev  0x0000c068      0x270 examples/beaconing/CMakeFiles/beaconing_nrf52840_xxAA_s140_6.0.0.dir/__/__/mesh/core/src/replay_cache.c.obj
 .debug_abbrev  0x0000c2d8      0x2c4 examples/beaconing/CMakeFiles/beaconing_nrf52840_xxAA_s140_6.0.0.dir/__/__/mesh/core/src/beacon.c.obj
 .debug_abbrev  0x0000c59c      0x288 examples/beaconing/CMakeFiles/beaconing_nrf52840_xxAA_s140_6.0.0.dir/__/__/mesh/core/src/flash_manager_internal.c.obj
 .debug_abbrev  0x0000c824      0x2ed examples/beaconing/CMakeFiles/beaconing_nrf52840_xxAA_s140_6.0.0.dir/__/__/mesh/core/src/core_tx.c.obj
 .debug_abbrev  0x0000cb11      0x4af examples/beaconing/CMakeFiles/beaconing_nrf52840_xxAA_s140_6.0.0.dir/__/__/mesh/core/src/heartbeat.c.obj
 .debug_abbrev  0x0000cfc0      0x4ac examples/beaconing/CMakeFiles/beaconing_nrf52840_xxAA_s140_6.0.0.dir/__/__/mesh/core/src/net_beacon.c.obj
 .debug_abbrev  0x0000d46c      0x308 examples/beaconing/CMakeFiles/beaconing_nrf52840_xxAA_s140_6.0.0.dir/__/__/mesh/core/src/core_tx_adv.c.obj
 .debug_abbrev  0x0000d774      0x341 examples/beaconing/CMakeFiles/beaconing_nrf52840_xxAA_s140_6.0.0.dir/__/__/mesh/bearer/src/ad_listener.c.obj
 .debug_abbrev  0x0000dab5      0x368 examples/beaconing/CMakeFiles/beaconing_nrf52840_xxAA_s140_6.0.0.dir/__/__/mesh/bearer/src/ad_type_filter.c.obj
 .debug_abbrev  0x0000de1d      0x4ed examples/beaconing/CMakeFiles/beaconing_nrf52840_xxAA_s140_6.0.0.dir/__/__/mesh/bearer/src/advertiser.c.obj
 .debug_abbrev  0x0000e30a      0x476 examples/beaconing/CMakeFiles/beaconing_nrf52840_xxAA_s140_6.0.0.dir/__/__/mesh/bearer/src/bearer_handler.c.obj
 .debug_abbrev  0x0000e780      0x3b9 examples/beaconing/CMakeFiles/beaconing_nrf52840_xxAA_s140_6.0.0.dir/__/__/mesh/bearer/src/broadcast.c.obj
 .debug_abbrev  0x0000eb39      0x2a6 examples/beaconing/CMakeFiles/beaconing_nrf52840_xxAA_s140_6.0.0.dir/__/__/mesh/bearer/src/filter_engine.c.obj
 .debug_abbrev  0x0000eddf      0x1d5 examples/beaconing/CMakeFiles/beaconing_nrf52840_xxAA_s140_6.0.0.dir/__/__/mesh/bearer/src/radio_config.c.obj
 .debug_abbrev  0x0000efb4      0x52a examples/beaconing/CMakeFiles/beaconing_nrf52840_xxAA_s140_6.0.0.dir/__/__/mesh/bearer/src/scanner.c.obj
 .debug_abbrev  0x0000f4de      0x2bd examples/beaconing/CMakeFiles/beaconing_nrf52840_xxAA_s140_6.0.0.dir/__/__/mesh/bearer/src/mesh_pa_lna.c.obj
 .debug_abbrev  0x0000f79b      0x20b examples/beaconing/CMakeFiles/beaconing_nrf52840_xxAA_s140_6.0.0.dir/C_/b/nRF5_SDK_15.0.0_a53641a/modules/nrfx/mdk/system_nrf52840.c.obj
 .debug_abbrev  0x0000f9a6      0x232 examples/beaconing/CMakeFiles/beaconing_nrf52840_xxAA_s140_6.0.0.dir/C_/b/nRF5_SDK_15.0.0_a53641a/components/libraries/util/app_error.c.obj
 .debug_abbrev  0x0000fbd8      0x35b examples/beaconing/CMakeFiles/beaconing_nrf52840_xxAA_s140_6.0.0.dir/C_/b/nRF5_SDK_15.0.0_a53641a/components/libraries/util/app_util_platform.c.obj
 .debug_abbrev  0x0000ff33      0x502 examples/beaconing/CMakeFiles/beaconing_nrf52840_xxAA_s140_6.0.0.dir/C_/b/nRF5_SDK_15.0.0_a53641a/components/libraries/timer/app_timer.c.obj
 .debug_abbrev  0x00010435      0x1bd examples/beaconing/CMakeFiles/beaconing_nrf52840_xxAA_s140_6.0.0.dir/C_/b/nRF5_SDK_15.0.0_a53641a/components/libraries/util/app_error_handler_gcc.c.obj
 .debug_abbrev  0x000105f2      0x3a9 external/rtt/librtt_nrf52840_xxAA.a(SEGGER_RTT.c.obj)
 .debug_abbrev  0x0001099b      0x32e external/rtt/librtt_nrf52840_xxAA.a(SEGGER_RTT_printf.c.obj)
 .debug_abbrev  0x00010cc9      0x4b4 external/micro-ecc/libuECC_nrf52840_xxAA.a(uECC.c.obj)

.debug_loc      0x00000000    0x244af
 .debug_loc     0x00000000      0x20b examples/beaconing/CMakeFiles/beaconing_nrf52840_xxAA_s140_6.0.0.dir/src/main.c.obj
 .debug_loc     0x0000020b      0x175 examples/beaconing/CMakeFiles/beaconing_nrf52840_xxAA_s140_6.0.0.dir/__/__/mesh/stack/src/mesh_stack.c.obj
 .debug_loc     0x00000380      0x21b examples/beaconing/CMakeFiles/beaconing_nrf52840_xxAA_s140_6.0.0.dir/__/common/src/mesh_softdevice_init.c.obj
 .debug_loc     0x0000059b      0x10a examples/beaconing/CMakeFiles/beaconing_nrf52840_xxAA_s140_6.0.0.dir/__/common/src/mesh_provisionee.c.obj
 .debug_loc     0x000006a5      0x243 examples/beaconing/CMakeFiles/beaconing_nrf52840_xxAA_s140_6.0.0.dir/__/common/src/simple_hal.c.obj
 .debug_loc     0x000008e8      0x4d4 examples/beaconing/CMakeFiles/beaconing_nrf52840_xxAA_s140_6.0.0.dir/__/__/mesh/access/src/access_publish.c.obj
 .debug_loc     0x00000dbc     0x22e0 examples/beaconing/CMakeFiles/beaconing_nrf52840_xxAA_s140_6.0.0.dir/__/__/mesh/access/src/access.c.obj
 .debug_loc     0x0000309c      0x886 examples/beaconing/CMakeFiles/beaconing_nrf52840_xxAA_s140_6.0.0.dir/__/__/mesh/access/src/access_reliable.c.obj
 .debug_loc     0x00003922       0x81 examples/beaconing/CMakeFiles/beaconing_nrf52840_xxAA_s140_6.0.0.dir/__/__/mesh/access/src/access_loopback.c.obj
 .debug_loc     0x000039a3     0x3b4b examples/beaconing/CMakeFiles/beaconing_nrf52840_xxAA_s140_6.0.0.dir/__/__/mesh/access/src/device_state_manager.c.obj
 .debug_loc     0x000074ee      0x18c examples/beaconing/CMakeFiles/beaconing_nrf52840_xxAA_s140_6.0.0.dir/__/common/src/app_error_weak.c.obj
 .debug_loc     0x0000767a       0x2c examples/beaconing/CMakeFiles/beaconing_nrf52840_xxAA_s140_6.0.0.dir/__/common/src/assertion_handler_weak.c.obj
 .debug_loc     0x000076a6      0x26f examples/beaconing/CMakeFiles/beaconing_nrf52840_xxAA_s140_6.0.0.dir/__/__/models/config/src/composition_data.c.obj
 .debug_loc     0x00007915     0x4d91 examples/beaconing/CMakeFiles/beaconing_nrf52840_xxAA_s140_6.0.0.dir/__/__/models/config/src/config_server.c.obj
 .debug_loc     0x0000c6a6       0x89 examples/beaconing/CMakeFiles/beaconing_nrf52840_xxAA_s140_6.0.0.dir/__/__/models/config/src/packed_index_list.c.obj
 .debug_loc     0x0000c72f     0x1373 examples/beaconing/CMakeFiles/beaconing_nrf52840_xxAA_s140_6.0.0.dir/__/__/models/health/src/health_server.c.obj
 .debug_loc     0x0000daa2      0x766 examples/beaconing/CMakeFiles/beaconing_nrf52840_xxAA_s140_6.0.0.dir/__/__/mesh/prov/src/prov_provisionee.c.obj
 .debug_loc     0x0000e208      0xa4b examples/beaconing/CMakeFiles/beaconing_nrf52840_xxAA_s140_6.0.0.dir/__/__/mesh/prov/src/nrf_mesh_prov.c.obj
 .debug_loc     0x0000ec53      0x490 examples/beaconing/CMakeFiles/beaconing_nrf52840_xxAA_s140_6.0.0.dir/__/__/mesh/prov/src/provisioning.c.obj
 .debug_loc     0x0000f0e3      0x18c examples/beaconing/CMakeFiles/beaconing_nrf52840_xxAA_s140_6.0.0.dir/__/__/mesh/prov/src/prov_beacon.c.obj
 .debug_loc     0x0000f26f      0x40b examples/beaconing/CMakeFiles/beaconing_nrf52840_xxAA_s140_6.0.0.dir/__/__/mesh/prov/src/prov_utils.c.obj
 .debug_loc     0x0000f67a     0x1457 examples/beaconing/CMakeFiles/beaconing_nrf52840_xxAA_s140_6.0.0.dir/__/__/mesh/prov/src/prov_bearer_adv.c.obj
 .debug_loc     0x00010ad1       0x2c examples/beaconing/CMakeFiles/beaconing_nrf52840_xxAA_s140_6.0.0.dir/__/__/mesh/core/src/nrf_mesh_configure.c.obj
 .debug_loc     0x00010afd      0x10d examples/beaconing/CMakeFiles/beaconing_nrf52840_xxAA_s140_6.0.0.dir/__/__/mesh/core/src/msg_cache.c.obj
 .debug_loc     0x00010c0a     0x259a examples/beaconing/CMakeFiles/beaconing_nrf52840_xxAA_s140_6.0.0.dir/__/__/mesh/core/src/transport.c.obj
 .debug_loc     0x000131a4      0x124 examples/beaconing/CMakeFiles/beaconing_nrf52840_xxAA_s140_6.0.0.dir/__/__/mesh/core/src/event.c.obj
 .debug_loc     0x000132c8      0x816 examples/beaconing/CMakeFiles/beaconing_nrf52840_xxAA_s140_6.0.0.dir/__/__/mesh/core/src/packet_buffer.c.obj
 .debug_loc     0x00013ade      0x7fe examples/beaconing/CMakeFiles/beaconing_nrf52840_xxAA_s140_6.0.0.dir/__/__/mesh/core/src/flash_manager_defrag.c.obj
 .debug_loc     0x000142dc      0x4f6 examples/beaconing/CMakeFiles/beaconing_nrf52840_xxAA_s140_6.0.0.dir/__/__/mesh/core/src/fifo.c.obj
 .debug_loc     0x000147d2      0x17a examples/beaconing/CMakeFiles/beaconing_nrf52840_xxAA_s140_6.0.0.dir/__/__/mesh/core/src/nrf_flash.c.obj
 .debug_loc     0x0001494c      0x6c1 examples/beaconing/CMakeFiles/beaconing_nrf52840_xxAA_s140_6.0.0.dir/__/__/mesh/core/src/packet_mgr.c.obj
 .debug_loc     0x0001500d      0x936 examples/beaconing/CMakeFiles/beaconing_nrf52840_xxAA_s140_6.0.0.dir/__/__/mesh/core/src/net_state.c.obj
 .debug_loc     0x00015943      0x8be examples/beaconing/CMakeFiles/beaconing_nrf52840_xxAA_s140_6.0.0.dir/__/__/mesh/core/src/mesh_flash.c.obj
 .debug_loc     0x00016201       0xf8 examples/beaconing/CMakeFiles/beaconing_nrf52840_xxAA_s140_6.0.0.dir/__/__/mesh/core/src/nrf_mesh_utils.c.obj
 .debug_loc     0x000162f9      0x4de examples/beaconing/CMakeFiles/beaconing_nrf52840_xxAA_s140_6.0.0.dir/__/__/mesh/core/src/nrf_mesh.c.obj
 .debug_loc     0x000167d7       0xf5 examples/beaconing/CMakeFiles/beaconing_nrf52840_xxAA_s140_6.0.0.dir/__/__/mesh/core/src/queue.c.obj
 .debug_loc     0x000168cc       0x63 examples/beaconing/CMakeFiles/beaconing_nrf52840_xxAA_s140_6.0.0.dir/__/__/mesh/core/src/hal.c.obj
 .debug_loc     0x0001692f      0x3d8 examples/beaconing/CMakeFiles/beaconing_nrf52840_xxAA_s140_6.0.0.dir/__/__/mesh/core/src/aes_cmac.c.obj
 .debug_loc     0x00016d07      0x2d1 examples/beaconing/CMakeFiles/beaconing_nrf52840_xxAA_s140_6.0.0.dir/__/__/mesh/core/src/timer_scheduler.c.obj
 .debug_loc     0x00016fd8      0x5f9 examples/beaconing/CMakeFiles/beaconing_nrf52840_xxAA_s140_6.0.0.dir/__/__/mesh/core/src/timer.c.obj
 .debug_loc     0x000175d1      0x14e examples/beaconing/CMakeFiles/beaconing_nrf52840_xxAA_s140_6.0.0.dir/__/__/mesh/core/src/rand.c.obj
 .debug_loc     0x0001771f      0x194 examples/beaconing/CMakeFiles/beaconing_nrf52840_xxAA_s140_6.0.0.dir/__/__/mesh/core/src/nrf_mesh_opt.c.obj
 .debug_loc     0x000178b3      0x344 examples/beaconing/CMakeFiles/beaconing_nrf52840_xxAA_s140_6.0.0.dir/__/__/mesh/core/src/timeslot.c.obj
 .debug_loc     0x00017bf7      0x526 examples/beaconing/CMakeFiles/beaconing_nrf52840_xxAA_s140_6.0.0.dir/__/__/mesh/core/src/bearer_event.c.obj
 .debug_loc     0x0001811d      0x8e7 examples/beaconing/CMakeFiles/beaconing_nrf52840_xxAA_s140_6.0.0.dir/__/__/mesh/core/src/enc.c.obj
 .debug_loc     0x00018a04      0x60c examples/beaconing/CMakeFiles/beaconing_nrf52840_xxAA_s140_6.0.0.dir/__/__/mesh/core/src/network.c.obj
 .debug_loc     0x00019010      0x817 examples/beaconing/CMakeFiles/beaconing_nrf52840_xxAA_s140_6.0.0.dir/__/__/mesh/core/src/net_packet.c.obj
 .debug_loc     0x00019827      0x2ed examples/beaconing/CMakeFiles/beaconing_nrf52840_xxAA_s140_6.0.0.dir/__/__/mesh/core/src/msqueue.c.obj
 .debug_loc     0x00019b14      0x1ee examples/beaconing/CMakeFiles/beaconing_nrf52840_xxAA_s140_6.0.0.dir/__/__/mesh/core/src/nrf_mesh_keygen.c.obj
 .debug_loc     0x00019d02      0x3bf examples/beaconing/CMakeFiles/beaconing_nrf52840_xxAA_s140_6.0.0.dir/__/__/mesh/core/src/list.c.obj
 .debug_loc     0x0001a0c1      0x348 examples/beaconing/CMakeFiles/beaconing_nrf52840_xxAA_s140_6.0.0.dir/__/__/mesh/core/src/log.c.obj
 .debug_loc     0x0001a409     0x1439 examples/beaconing/CMakeFiles/beaconing_nrf52840_xxAA_s140_6.0.0.dir/__/__/mesh/core/src/flash_manager.c.obj
 .debug_loc     0x0001b842      0x4b6 examples/beaconing/CMakeFiles/beaconing_nrf52840_xxAA_s140_6.0.0.dir/__/__/mesh/core/src/ccm_soft.c.obj
 .debug_loc     0x0001bcf8      0x141 examples/beaconing/CMakeFiles/beaconing_nrf52840_xxAA_s140_6.0.0.dir/__/__/mesh/core/src/replay_cache.c.obj
 .debug_loc     0x0001be39      0x30d examples/beaconing/CMakeFiles/beaconing_nrf52840_xxAA_s140_6.0.0.dir/__/__/mesh/core/src/beacon.c.obj
 .debug_loc     0x0001c146       0xe3 examples/beaconing/CMakeFiles/beaconing_nrf52840_xxAA_s140_6.0.0.dir/__/__/mesh/core/src/flash_manager_internal.c.obj
 .debug_loc     0x0001c229      0x3c5 examples/beaconing/CMakeFiles/beaconing_nrf52840_xxAA_s140_6.0.0.dir/__/__/mesh/core/src/core_tx.c.obj
 .debug_loc     0x0001c5ee      0x57b examples/beaconing/CMakeFiles/beaconing_nrf52840_xxAA_s140_6.0.0.dir/__/__/mesh/core/src/heartbeat.c.obj
 .debug_loc     0x0001cb69      0x5f5 examples/beaconing/CMakeFiles/beaconing_nrf52840_xxAA_s140_6.0.0.dir/__/__/mesh/core/src/net_beacon.c.obj
 .debug_loc     0x0001d15e      0x41f examples/beaconing/CMakeFiles/beaconing_nrf52840_xxAA_s140_6.0.0.dir/__/__/mesh/core/src/core_tx_adv.c.obj
 .debug_loc     0x0001d57d      0x40d examples/beaconing/CMakeFiles/beaconing_nrf52840_xxAA_s140_6.0.0.dir/__/__/mesh/bearer/src/ad_listener.c.obj
 .debug_loc     0x0001d98a      0x3ae examples/beaconing/CMakeFiles/beaconing_nrf52840_xxAA_s140_6.0.0.dir/__/__/mesh/bearer/src/ad_type_filter.c.obj
 .debug_loc     0x0001dd38      0xcff examples/beaconing/CMakeFiles/beaconing_nrf52840_xxAA_s140_6.0.0.dir/__/__/mesh/bearer/src/advertiser.c.obj
 .debug_loc     0x0001ea37      0x438 examples/beaconing/CMakeFiles/beaconing_nrf52840_xxAA_s140_6.0.0.dir/__/__/mesh/bearer/src/bearer_handler.c.obj
 .debug_loc     0x0001ee6f      0x320 examples/beaconing/CMakeFiles/beaconing_nrf52840_xxAA_s140_6.0.0.dir/__/__/mesh/bearer/src/broadcast.c.obj
 .debug_loc     0x0001f18f       0xde examples/beaconing/CMakeFiles/beaconing_nrf52840_xxAA_s140_6.0.0.dir/__/__/mesh/bearer/src/filter_engine.c.obj
 .debug_loc     0x0001f26d      0x232 examples/beaconing/CMakeFiles/beaconing_nrf52840_xxAA_s140_6.0.0.dir/__/__/mesh/bearer/src/radio_config.c.obj
 .debug_loc     0x0001f49f      0x48a examples/beaconing/CMakeFiles/beaconing_nrf52840_xxAA_s140_6.0.0.dir/__/__/mesh/bearer/src/scanner.c.obj
 .debug_loc     0x0001f929      0x1d6 examples/beaconing/CMakeFiles/beaconing_nrf52840_xxAA_s140_6.0.0.dir/__/__/mesh/bearer/src/mesh_pa_lna.c.obj
 .debug_loc     0x0001faff       0xb5 examples/beaconing/CMakeFiles/beaconing_nrf52840_xxAA_s140_6.0.0.dir/C_/b/nRF5_SDK_15.0.0_a53641a/components/libraries/util/app_error.c.obj
 .debug_loc     0x0001fbb4       0xc1 examples/beaconing/CMakeFiles/beaconing_nrf52840_xxAA_s140_6.0.0.dir/C_/b/nRF5_SDK_15.0.0_a53641a/components/libraries/util/app_util_platform.c.obj
 .debug_loc     0x0001fc75      0xa5d examples/beaconing/CMakeFiles/beaconing_nrf52840_xxAA_s140_6.0.0.dir/C_/b/nRF5_SDK_15.0.0_a53641a/components/libraries/timer/app_timer.c.obj
 .debug_loc     0x000206d2       0x63 examples/beaconing/CMakeFiles/beaconing_nrf52840_xxAA_s140_6.0.0.dir/C_/b/nRF5_SDK_15.0.0_a53641a/components/libraries/util/app_error_handler_gcc.c.obj
 .debug_loc     0x00020735     0x1222 external/rtt/librtt_nrf52840_xxAA.a(SEGGER_RTT.c.obj)
 .debug_loc     0x00021957      0x70f external/rtt/librtt_nrf52840_xxAA.a(SEGGER_RTT_printf.c.obj)
 .debug_loc     0x00022066     0x2449 external/micro-ecc/libuECC_nrf52840_xxAA.a(uECC.c.obj)

.debug_aranges  0x00000000     0x2428
 .debug_aranges
                0x00000000       0x40 examples/beaconing/CMakeFiles/beaconing_nrf52840_xxAA_s140_6.0.0.dir/src/main.c.obj
 .debug_aranges
                0x00000040       0x50 examples/beaconing/CMakeFiles/beaconing_nrf52840_xxAA_s140_6.0.0.dir/__/__/mesh/stack/src/mesh_stack.c.obj
 .debug_aranges
                0x00000090       0x48 examples/beaconing/CMakeFiles/beaconing_nrf52840_xxAA_s140_6.0.0.dir/__/common/src/mesh_softdevice_init.c.obj
 .debug_aranges
                0x000000d8       0x30 examples/beaconing/CMakeFiles/beaconing_nrf52840_xxAA_s140_6.0.0.dir/__/common/src/mesh_provisionee.c.obj
 .debug_aranges
                0x00000108       0x58 examples/beaconing/CMakeFiles/beaconing_nrf52840_xxAA_s140_6.0.0.dir/__/common/src/simple_hal.c.obj
 .debug_aranges
                0x00000160       0x50 examples/beaconing/CMakeFiles/beaconing_nrf52840_xxAA_s140_6.0.0.dir/__/__/mesh/access/src/access_publish.c.obj
 .debug_aranges
                0x000001b0      0x1d0 examples/beaconing/CMakeFiles/beaconing_nrf52840_xxAA_s140_6.0.0.dir/__/__/mesh/access/src/access.c.obj
 .debug_aranges
                0x00000380       0x50 examples/beaconing/CMakeFiles/beaconing_nrf52840_xxAA_s140_6.0.0.dir/__/__/mesh/access/src/access_reliable.c.obj
 .debug_aranges
                0x000003d0       0x38 examples/beaconing/CMakeFiles/beaconing_nrf52840_xxAA_s140_6.0.0.dir/__/__/mesh/access/src/access_loopback.c.obj
 .debug_aranges
                0x00000408      0x328 examples/beaconing/CMakeFiles/beaconing_nrf52840_xxAA_s140_6.0.0.dir/__/__/mesh/access/src/device_state_manager.c.obj
 .debug_aranges
                0x00000730       0x28 examples/beaconing/CMakeFiles/beaconing_nrf52840_xxAA_s140_6.0.0.dir/__/nrf_mesh_weak.c.obj
 .debug_aranges
                0x00000758       0x20 examples/beaconing/CMakeFiles/beaconing_nrf52840_xxAA_s140_6.0.0.dir/__/common/src/app_error_weak.c.obj
 .debug_aranges
                0x00000778       0x20 examples/beaconing/CMakeFiles/beaconing_nrf52840_xxAA_s140_6.0.0.dir/__/common/src/assertion_handler_weak.c.obj
 .debug_aranges
                0x00000798       0x20 examples/beaconing/CMakeFiles/beaconing_nrf52840_xxAA_s140_6.0.0.dir/__/__/models/config/src/composition_data.c.obj
 .debug_aranges
                0x000007b8      0x220 examples/beaconing/CMakeFiles/beaconing_nrf52840_xxAA_s140_6.0.0.dir/__/__/models/config/src/config_server.c.obj
 .debug_aranges
                0x000009d8       0x20 examples/beaconing/CMakeFiles/beaconing_nrf52840_xxAA_s140_6.0.0.dir/__/__/models/config/src/packed_index_list.c.obj
 .debug_aranges
                0x000009f8       0xc8 examples/beaconing/CMakeFiles/beaconing_nrf52840_xxAA_s140_6.0.0.dir/__/__/models/health/src/health_server.c.obj
 .debug_aranges
                0x00000ac0       0x70 examples/beaconing/CMakeFiles/beaconing_nrf52840_xxAA_s140_6.0.0.dir/__/__/mesh/prov/src/prov_provisionee.c.obj
 .debug_aranges
                0x00000b30       0x88 examples/beaconing/CMakeFiles/beaconing_nrf52840_xxAA_s140_6.0.0.dir/__/__/mesh/prov/src/nrf_mesh_prov.c.obj
 .debug_aranges
                0x00000bb8       0x80 examples/beaconing/CMakeFiles/beaconing_nrf52840_xxAA_s140_6.0.0.dir/__/__/mesh/prov/src/provisioning.c.obj
 .debug_aranges
                0x00000c38       0x38 examples/beaconing/CMakeFiles/beaconing_nrf52840_xxAA_s140_6.0.0.dir/__/__/mesh/prov/src/prov_beacon.c.obj
 .debug_aranges
                0x00000c70       0x70 examples/beaconing/CMakeFiles/beaconing_nrf52840_xxAA_s140_6.0.0.dir/__/__/mesh/prov/src/prov_utils.c.obj
 .debug_aranges
                0x00000ce0       0xc8 examples/beaconing/CMakeFiles/beaconing_nrf52840_xxAA_s140_6.0.0.dir/__/__/mesh/prov/src/prov_bearer_adv.c.obj
 .debug_aranges
                0x00000da8       0x30 examples/beaconing/CMakeFiles/beaconing_nrf52840_xxAA_s140_6.0.0.dir/__/__/mesh/core/src/nrf_mesh_configure.c.obj
 .debug_aranges
                0x00000dd8       0x38 examples/beaconing/CMakeFiles/beaconing_nrf52840_xxAA_s140_6.0.0.dir/__/__/mesh/core/src/msg_cache.c.obj
 .debug_aranges
                0x00000e10      0x110 examples/beaconing/CMakeFiles/beaconing_nrf52840_xxAA_s140_6.0.0.dir/__/__/mesh/core/src/transport.c.obj
 .debug_aranges
                0x00000f20       0x30 examples/beaconing/CMakeFiles/beaconing_nrf52840_xxAA_s140_6.0.0.dir/__/__/mesh/core/src/event.c.obj
 .debug_aranges
                0x00000f50       0x68 examples/beaconing/CMakeFiles/beaconing_nrf52840_xxAA_s140_6.0.0.dir/__/__/mesh/core/src/packet_buffer.c.obj
 .debug_aranges
                0x00000fb8       0xc8 examples/beaconing/CMakeFiles/beaconing_nrf52840_xxAA_s140_6.0.0.dir/__/__/mesh/core/src/flash_manager_defrag.c.obj
 .debug_aranges
                0x00001080       0x60 examples/beaconing/CMakeFiles/beaconing_nrf52840_xxAA_s140_6.0.0.dir/__/__/mesh/core/src/fifo.c.obj
 .debug_aranges
                0x000010e0       0x30 examples/beaconing/CMakeFiles/beaconing_nrf52840_xxAA_s140_6.0.0.dir/__/__/mesh/core/src/nrf_flash.c.obj
 .debug_aranges
                0x00001110       0x48 examples/beaconing/CMakeFiles/beaconing_nrf52840_xxAA_s140_6.0.0.dir/__/__/mesh/core/src/packet_mgr.c.obj
 .debug_aranges
                0x00001158       0xd0 examples/beaconing/CMakeFiles/beaconing_nrf52840_xxAA_s140_6.0.0.dir/__/__/mesh/core/src/net_state.c.obj
 .debug_aranges
                0x00001228       0x60 examples/beaconing/CMakeFiles/beaconing_nrf52840_xxAA_s140_6.0.0.dir/__/__/mesh/core/src/mesh_flash.c.obj
 .debug_aranges
                0x00001288       0x30 examples/beaconing/CMakeFiles/beaconing_nrf52840_xxAA_s140_6.0.0.dir/__/__/mesh/core/src/nrf_mesh_utils.c.obj
 .debug_aranges
                0x000012b8       0x98 examples/beaconing/CMakeFiles/beaconing_nrf52840_xxAA_s140_6.0.0.dir/__/__/mesh/core/src/nrf_mesh.c.obj
 .debug_aranges
                0x00001350       0x38 examples/beaconing/CMakeFiles/beaconing_nrf52840_xxAA_s140_6.0.0.dir/__/__/mesh/core/src/queue.c.obj
 .debug_aranges
                0x00001388       0x30 examples/beaconing/CMakeFiles/beaconing_nrf52840_xxAA_s140_6.0.0.dir/__/__/mesh/core/src/hal.c.obj
 .debug_aranges
                0x000013b8       0x30 examples/beaconing/CMakeFiles/beaconing_nrf52840_xxAA_s140_6.0.0.dir/__/__/mesh/core/src/aes_cmac.c.obj
 .debug_aranges
                0x000013e8       0x68 examples/beaconing/CMakeFiles/beaconing_nrf52840_xxAA_s140_6.0.0.dir/__/__/mesh/core/src/timer_scheduler.c.obj
 .debug_aranges
                0x00001450       0x60 examples/beaconing/CMakeFiles/beaconing_nrf52840_xxAA_s140_6.0.0.dir/__/__/mesh/core/src/timer.c.obj
 .debug_aranges
                0x000014b0       0x30 examples/beaconing/CMakeFiles/beaconing_nrf52840_xxAA_s140_6.0.0.dir/__/__/mesh/core/src/ticker.c.obj
 .debug_aranges
                0x000014e0       0x40 examples/beaconing/CMakeFiles/beaconing_nrf52840_xxAA_s140_6.0.0.dir/__/__/mesh/core/src/rand.c.obj
 .debug_aranges
                0x00001520       0x28 examples/beaconing/CMakeFiles/beaconing_nrf52840_xxAA_s140_6.0.0.dir/__/__/mesh/core/src/nrf_mesh_opt.c.obj
 .debug_aranges
                0x00001548       0xb8 examples/beaconing/CMakeFiles/beaconing_nrf52840_xxAA_s140_6.0.0.dir/__/__/mesh/core/src/timeslot.c.obj
 .debug_aranges
                0x00001600       0x98 examples/beaconing/CMakeFiles/beaconing_nrf52840_xxAA_s140_6.0.0.dir/__/__/mesh/core/src/bearer_event.c.obj
 .debug_aranges
                0x00001698       0x78 examples/beaconing/CMakeFiles/beaconing_nrf52840_xxAA_s140_6.0.0.dir/__/__/mesh/core/src/enc.c.obj
 .debug_aranges
                0x00001710       0x58 examples/beaconing/CMakeFiles/beaconing_nrf52840_xxAA_s140_6.0.0.dir/__/__/mesh/core/src/network.c.obj
 .debug_aranges
                0x00001768       0x68 examples/beaconing/CMakeFiles/beaconing_nrf52840_xxAA_s140_6.0.0.dir/__/__/mesh/core/src/net_packet.c.obj
 .debug_aranges
                0x000017d0       0x48 examples/beaconing/CMakeFiles/beaconing_nrf52840_xxAA_s140_6.0.0.dir/__/__/mesh/core/src/msqueue.c.obj
 .debug_aranges
                0x00001818       0x40 examples/beaconing/CMakeFiles/beaconing_nrf52840_xxAA_s140_6.0.0.dir/__/__/mesh/core/src/nrf_mesh_keygen.c.obj
 .debug_aranges
                0x00001858       0x48 examples/beaconing/CMakeFiles/beaconing_nrf52840_xxAA_s140_6.0.0.dir/__/__/mesh/core/src/list.c.obj
 .debug_aranges
                0x000018a0       0x48 examples/beaconing/CMakeFiles/beaconing_nrf52840_xxAA_s140_6.0.0.dir/__/__/mesh/core/src/log.c.obj
 .debug_aranges
                0x000018e8       0xf8 examples/beaconing/CMakeFiles/beaconing_nrf52840_xxAA_s140_6.0.0.dir/__/__/mesh/core/src/flash_manager.c.obj
 .debug_aranges
                0x000019e0       0x50 examples/beaconing/CMakeFiles/beaconing_nrf52840_xxAA_s140_6.0.0.dir/__/__/mesh/core/src/ccm_soft.c.obj
 .debug_aranges
                0x00001a30       0x40 examples/beaconing/CMakeFiles/beaconing_nrf52840_xxAA_s140_6.0.0.dir/__/__/mesh/core/src/replay_cache.c.obj
 .debug_aranges
                0x00001a70       0x28 examples/beaconing/CMakeFiles/beaconing_nrf52840_xxAA_s140_6.0.0.dir/__/__/mesh/core/src/beacon.c.obj
 .debug_aranges
                0x00001a98       0x20 examples/beaconing/CMakeFiles/beaconing_nrf52840_xxAA_s140_6.0.0.dir/__/__/mesh/core/src/flash_manager_internal.c.obj
 .debug_aranges
                0x00001ab8       0x58 examples/beaconing/CMakeFiles/beaconing_nrf52840_xxAA_s140_6.0.0.dir/__/__/mesh/core/src/core_tx.c.obj
 .debug_aranges
                0x00001b10       0x70 examples/beaconing/CMakeFiles/beaconing_nrf52840_xxAA_s140_6.0.0.dir/__/__/mesh/core/src/heartbeat.c.obj
 .debug_aranges
                0x00001b80       0x68 examples/beaconing/CMakeFiles/beaconing_nrf52840_xxAA_s140_6.0.0.dir/__/__/mesh/core/src/net_beacon.c.obj
 .debug_aranges
                0x00001be8       0x70 examples/beaconing/CMakeFiles/beaconing_nrf52840_xxAA_s140_6.0.0.dir/__/__/mesh/core/src/core_tx_adv.c.obj
 .debug_aranges
                0x00001c58       0x30 examples/beaconing/CMakeFiles/beaconing_nrf52840_xxAA_s140_6.0.0.dir/__/__/mesh/bearer/src/ad_listener.c.obj
 .debug_aranges
                0x00001c88       0x58 examples/beaconing/CMakeFiles/beaconing_nrf52840_xxAA_s140_6.0.0.dir/__/__/mesh/bearer/src/ad_type_filter.c.obj
 .debug_aranges
                0x00001ce0       0xb8 examples/beaconing/CMakeFiles/beaconing_nrf52840_xxAA_s140_6.0.0.dir/__/__/mesh/bearer/src/advertiser.c.obj
 .debug_aranges
                0x00001d98       0x88 examples/beaconing/CMakeFiles/beaconing_nrf52840_xxAA_s140_6.0.0.dir/__/__/mesh/bearer/src/bearer_handler.c.obj
 .debug_aranges
                0x00001e20       0x30 examples/beaconing/CMakeFiles/beaconing_nrf52840_xxAA_s140_6.0.0.dir/__/__/mesh/bearer/src/broadcast.c.obj
 .debug_aranges
                0x00001e50       0x38 examples/beaconing/CMakeFiles/beaconing_nrf52840_xxAA_s140_6.0.0.dir/__/__/mesh/bearer/src/filter_engine.c.obj
 .debug_aranges
                0x00001e88       0x40 examples/beaconing/CMakeFiles/beaconing_nrf52840_xxAA_s140_6.0.0.dir/__/__/mesh/bearer/src/radio_config.c.obj
 .debug_aranges
                0x00001ec8       0xe8 examples/beaconing/CMakeFiles/beaconing_nrf52840_xxAA_s140_6.0.0.dir/__/__/mesh/bearer/src/scanner.c.obj
 .debug_aranges
                0x00001fb0       0x70 examples/beaconing/CMakeFiles/beaconing_nrf52840_xxAA_s140_6.0.0.dir/__/__/mesh/bearer/src/mesh_pa_lna.c.obj
 .debug_aranges
                0x00002020       0x30 examples/beaconing/CMakeFiles/beaconing_nrf52840_xxAA_s140_6.0.0.dir/C_/b/nRF5_SDK_15.0.0_a53641a/modules/nrfx/mdk/system_nrf52840.c.obj
 .debug_aranges
                0x00002050       0x28 examples/beaconing/CMakeFiles/beaconing_nrf52840_xxAA_s140_6.0.0.dir/C_/b/nRF5_SDK_15.0.0_a53641a/components/libraries/util/app_error.c.obj
 .debug_aranges
                0x00002078       0x48 examples/beaconing/CMakeFiles/beaconing_nrf52840_xxAA_s140_6.0.0.dir/C_/b/nRF5_SDK_15.0.0_a53641a/components/libraries/util/app_util_platform.c.obj
 .debug_aranges
                0x000020c0       0x90 examples/beaconing/CMakeFiles/beaconing_nrf52840_xxAA_s140_6.0.0.dir/C_/b/nRF5_SDK_15.0.0_a53641a/components/libraries/timer/app_timer.c.obj
 .debug_aranges
                0x00002150       0x20 examples/beaconing/CMakeFiles/beaconing_nrf52840_xxAA_s140_6.0.0.dir/C_/b/nRF5_SDK_15.0.0_a53641a/components/libraries/util/app_error_handler_gcc.c.obj
 .debug_aranges
                0x00002170       0xd8 external/rtt/librtt_nrf52840_xxAA.a(SEGGER_RTT.c.obj)
 .debug_aranges
                0x00002248       0x38 external/rtt/librtt_nrf52840_xxAA.a(SEGGER_RTT_printf.c.obj)
 .debug_aranges
                0x00002280      0x1a8 external/micro-ecc/libuECC_nrf52840_xxAA.a(uECC.c.obj)

.debug_ranges   0x00000000     0x5eb0
 .debug_ranges  0x00000000      0x1a8 examples/beaconing/CMakeFiles/beaconing_nrf52840_xxAA_s140_6.0.0.dir/src/main.c.obj
 .debug_ranges  0x000001a8       0x70 examples/beaconing/CMakeFiles/beaconing_nrf52840_xxAA_s140_6.0.0.dir/__/__/mesh/stack/src/mesh_stack.c.obj
 .debug_ranges  0x00000218       0xe8 examples/beaconing/CMakeFiles/beaconing_nrf52840_xxAA_s140_6.0.0.dir/__/common/src/mesh_softdevice_init.c.obj
 .debug_ranges  0x00000300       0x50 examples/beaconing/CMakeFiles/beaconing_nrf52840_xxAA_s140_6.0.0.dir/__/common/src/mesh_provisionee.c.obj
 .debug_ranges  0x00000350       0x98 examples/beaconing/CMakeFiles/beaconing_nrf52840_xxAA_s140_6.0.0.dir/__/common/src/simple_hal.c.obj
 .debug_ranges  0x000003e8      0x118 examples/beaconing/CMakeFiles/beaconing_nrf52840_xxAA_s140_6.0.0.dir/__/__/mesh/access/src/access_publish.c.obj
 .debug_ranges  0x00000500      0x710 examples/beaconing/CMakeFiles/beaconing_nrf52840_xxAA_s140_6.0.0.dir/__/__/mesh/access/src/access.c.obj
 .debug_ranges  0x00000c10      0x198 examples/beaconing/CMakeFiles/beaconing_nrf52840_xxAA_s140_6.0.0.dir/__/__/mesh/access/src/access_reliable.c.obj
 .debug_ranges  0x00000da8       0x28 examples/beaconing/CMakeFiles/beaconing_nrf52840_xxAA_s140_6.0.0.dir/__/__/mesh/access/src/access_loopback.c.obj
 .debug_ranges  0x00000dd0      0x848 examples/beaconing/CMakeFiles/beaconing_nrf52840_xxAA_s140_6.0.0.dir/__/__/mesh/access/src/device_state_manager.c.obj
 .debug_ranges  0x00001618       0x18 examples/beaconing/CMakeFiles/beaconing_nrf52840_xxAA_s140_6.0.0.dir/__/nrf_mesh_weak.c.obj
 .debug_ranges  0x00001630       0xb8 examples/beaconing/CMakeFiles/beaconing_nrf52840_xxAA_s140_6.0.0.dir/__/common/src/app_error_weak.c.obj
 .debug_ranges  0x000016e8       0x10 examples/beaconing/CMakeFiles/beaconing_nrf52840_xxAA_s140_6.0.0.dir/__/common/src/assertion_handler_weak.c.obj
 .debug_ranges  0x000016f8       0xa8 examples/beaconing/CMakeFiles/beaconing_nrf52840_xxAA_s140_6.0.0.dir/__/__/models/config/src/composition_data.c.obj
 .debug_ranges  0x000017a0      0x790 examples/beaconing/CMakeFiles/beaconing_nrf52840_xxAA_s140_6.0.0.dir/__/__/models/config/src/config_server.c.obj
 .debug_ranges  0x00001f30       0x10 examples/beaconing/CMakeFiles/beaconing_nrf52840_xxAA_s140_6.0.0.dir/__/__/models/config/src/packed_index_list.c.obj
 .debug_ranges  0x00001f40      0x260 examples/beaconing/CMakeFiles/beaconing_nrf52840_xxAA_s140_6.0.0.dir/__/__/models/health/src/health_server.c.obj
 .debug_ranges  0x000021a0      0x148 examples/beaconing/CMakeFiles/beaconing_nrf52840_xxAA_s140_6.0.0.dir/__/__/mesh/prov/src/prov_provisionee.c.obj
 .debug_ranges  0x000022e8      0x130 examples/beaconing/CMakeFiles/beaconing_nrf52840_xxAA_s140_6.0.0.dir/__/__/mesh/prov/src/nrf_mesh_prov.c.obj
 .debug_ranges  0x00002418       0x70 examples/beaconing/CMakeFiles/beaconing_nrf52840_xxAA_s140_6.0.0.dir/__/__/mesh/prov/src/provisioning.c.obj
 .debug_ranges  0x00002488       0x40 examples/beaconing/CMakeFiles/beaconing_nrf52840_xxAA_s140_6.0.0.dir/__/__/mesh/prov/src/prov_beacon.c.obj
 .debug_ranges  0x000024c8       0xb8 examples/beaconing/CMakeFiles/beaconing_nrf52840_xxAA_s140_6.0.0.dir/__/__/mesh/prov/src/prov_utils.c.obj
 .debug_ranges  0x00002580      0x498 examples/beaconing/CMakeFiles/beaconing_nrf52840_xxAA_s140_6.0.0.dir/__/__/mesh/prov/src/prov_bearer_adv.c.obj
 .debug_ranges  0x00002a18       0x20 examples/beaconing/CMakeFiles/beaconing_nrf52840_xxAA_s140_6.0.0.dir/__/__/mesh/core/src/nrf_mesh_configure.c.obj
 .debug_ranges  0x00002a38       0x48 examples/beaconing/CMakeFiles/beaconing_nrf52840_xxAA_s140_6.0.0.dir/__/__/mesh/core/src/msg_cache.c.obj
 .debug_ranges  0x00002a80      0x5d0 examples/beaconing/CMakeFiles/beaconing_nrf52840_xxAA_s140_6.0.0.dir/__/__/mesh/core/src/transport.c.obj
 .debug_ranges  0x00003050       0x50 examples/beaconing/CMakeFiles/beaconing_nrf52840_xxAA_s140_6.0.0.dir/__/__/mesh/core/src/event.c.obj
 .debug_ranges  0x000030a0      0x128 examples/beaconing/CMakeFiles/beaconing_nrf52840_xxAA_s140_6.0.0.dir/__/__/mesh/core/src/packet_buffer.c.obj
 .debug_ranges  0x000031c8      0x230 examples/beaconing/CMakeFiles/beaconing_nrf52840_xxAA_s140_6.0.0.dir/__/__/mesh/core/src/flash_manager_defrag.c.obj
 .debug_ranges  0x000033f8       0x68 examples/beaconing/CMakeFiles/beaconing_nrf52840_xxAA_s140_6.0.0.dir/__/__/mesh/core/src/fifo.c.obj
 .debug_ranges  0x00003460       0x38 examples/beaconing/CMakeFiles/beaconing_nrf52840_xxAA_s140_6.0.0.dir/__/__/mesh/core/src/nrf_flash.c.obj
 .debug_ranges  0x00003498       0xe0 examples/beaconing/CMakeFiles/beaconing_nrf52840_xxAA_s140_6.0.0.dir/__/__/mesh/core/src/packet_mgr.c.obj
 .debug_ranges  0x00003578      0x1f8 examples/beaconing/CMakeFiles/beaconing_nrf52840_xxAA_s140_6.0.0.dir/__/__/mesh/core/src/net_state.c.obj
 .debug_ranges  0x00003770      0x1c8 examples/beaconing/CMakeFiles/beaconing_nrf52840_xxAA_s140_6.0.0.dir/__/__/mesh/core/src/mesh_flash.c.obj
 .debug_ranges  0x00003938       0x20 examples/beaconing/CMakeFiles/beaconing_nrf52840_xxAA_s140_6.0.0.dir/__/__/mesh/core/src/nrf_mesh_utils.c.obj
 .debug_ranges  0x00003958       0xe8 examples/beaconing/CMakeFiles/beaconing_nrf52840_xxAA_s140_6.0.0.dir/__/__/mesh/core/src/nrf_mesh.c.obj
 .debug_ranges  0x00003a40       0x28 examples/beaconing/CMakeFiles/beaconing_nrf52840_xxAA_s140_6.0.0.dir/__/__/mesh/core/src/queue.c.obj
 .debug_ranges  0x00003a68       0x20 examples/beaconing/CMakeFiles/beaconing_nrf52840_xxAA_s140_6.0.0.dir/__/__/mesh/core/src/hal.c.obj
 .debug_ranges  0x00003a88      0x120 examples/beaconing/CMakeFiles/beaconing_nrf52840_xxAA_s140_6.0.0.dir/__/__/mesh/core/src/aes_cmac.c.obj
 .debug_ranges  0x00003ba8       0xf0 examples/beaconing/CMakeFiles/beaconing_nrf52840_xxAA_s140_6.0.0.dir/__/__/mesh/core/src/timer_scheduler.c.obj
 .debug_ranges  0x00003c98       0xd8 examples/beaconing/CMakeFiles/beaconing_nrf52840_xxAA_s140_6.0.0.dir/__/__/mesh/core/src/timer.c.obj
 .debug_ranges  0x00003d70       0x20 examples/beaconing/CMakeFiles/beaconing_nrf52840_xxAA_s140_6.0.0.dir/__/__/mesh/core/src/ticker.c.obj
 .debug_ranges  0x00003d90       0x30 examples/beaconing/CMakeFiles/beaconing_nrf52840_xxAA_s140_6.0.0.dir/__/__/mesh/core/src/rand.c.obj
 .debug_ranges  0x00003dc0       0x18 examples/beaconing/CMakeFiles/beaconing_nrf52840_xxAA_s140_6.0.0.dir/__/__/mesh/core/src/nrf_mesh_opt.c.obj
 .debug_ranges  0x00003dd8      0x168 examples/beaconing/CMakeFiles/beaconing_nrf52840_xxAA_s140_6.0.0.dir/__/__/mesh/core/src/timeslot.c.obj
 .debug_ranges  0x00003f40       0xf8 examples/beaconing/CMakeFiles/beaconing_nrf52840_xxAA_s140_6.0.0.dir/__/__/mesh/core/src/bearer_event.c.obj
 .debug_ranges  0x00004038       0xb8 examples/beaconing/CMakeFiles/beaconing_nrf52840_xxAA_s140_6.0.0.dir/__/__/mesh/core/src/enc.c.obj
 .debug_ranges  0x000040f0       0xe8 examples/beaconing/CMakeFiles/beaconing_nrf52840_xxAA_s140_6.0.0.dir/__/__/mesh/core/src/network.c.obj
 .debug_ranges  0x000041d8      0x160 examples/beaconing/CMakeFiles/beaconing_nrf52840_xxAA_s140_6.0.0.dir/__/__/mesh/core/src/net_packet.c.obj
 .debug_ranges  0x00004338       0x50 examples/beaconing/CMakeFiles/beaconing_nrf52840_xxAA_s140_6.0.0.dir/__/__/mesh/core/src/msqueue.c.obj
 .debug_ranges  0x00004388       0x30 examples/beaconing/CMakeFiles/beaconing_nrf52840_xxAA_s140_6.0.0.dir/__/__/mesh/core/src/nrf_mesh_keygen.c.obj
 .debug_ranges  0x000043b8       0x78 examples/beaconing/CMakeFiles/beaconing_nrf52840_xxAA_s140_6.0.0.dir/__/__/mesh/core/src/list.c.obj
 .debug_ranges  0x00004430       0x38 examples/beaconing/CMakeFiles/beaconing_nrf52840_xxAA_s140_6.0.0.dir/__/__/mesh/core/src/log.c.obj
 .debug_ranges  0x00004468      0x388 examples/beaconing/CMakeFiles/beaconing_nrf52840_xxAA_s140_6.0.0.dir/__/__/mesh/core/src/flash_manager.c.obj
 .debug_ranges  0x000047f0       0xa0 examples/beaconing/CMakeFiles/beaconing_nrf52840_xxAA_s140_6.0.0.dir/__/__/mesh/core/src/ccm_soft.c.obj
 .debug_ranges  0x00004890       0x30 examples/beaconing/CMakeFiles/beaconing_nrf52840_xxAA_s140_6.0.0.dir/__/__/mesh/core/src/replay_cache.c.obj
 .debug_ranges  0x000048c0       0x90 examples/beaconing/CMakeFiles/beaconing_nrf52840_xxAA_s140_6.0.0.dir/__/__/mesh/core/src/beacon.c.obj
 .debug_ranges  0x00004950       0x10 examples/beaconing/CMakeFiles/beaconing_nrf52840_xxAA_s140_6.0.0.dir/__/__/mesh/core/src/flash_manager_internal.c.obj
 .debug_ranges  0x00004960       0xf8 examples/beaconing/CMakeFiles/beaconing_nrf52840_xxAA_s140_6.0.0.dir/__/__/mesh/core/src/core_tx.c.obj
 .debug_ranges  0x00004a58       0xc0 examples/beaconing/CMakeFiles/beaconing_nrf52840_xxAA_s140_6.0.0.dir/__/__/mesh/core/src/heartbeat.c.obj
 .debug_ranges  0x00004b18      0x170 examples/beaconing/CMakeFiles/beaconing_nrf52840_xxAA_s140_6.0.0.dir/__/__/mesh/core/src/net_beacon.c.obj
 .debug_ranges  0x00004c88       0x60 examples/beaconing/CMakeFiles/beaconing_nrf52840_xxAA_s140_6.0.0.dir/__/__/mesh/core/src/core_tx_adv.c.obj
 .debug_ranges  0x00004ce8      0x110 examples/beaconing/CMakeFiles/beaconing_nrf52840_xxAA_s140_6.0.0.dir/__/__/mesh/bearer/src/ad_listener.c.obj
 .debug_ranges  0x00004df8       0xd0 examples/beaconing/CMakeFiles/beaconing_nrf52840_xxAA_s140_6.0.0.dir/__/__/mesh/bearer/src/ad_type_filter.c.obj
 .debug_ranges  0x00004ec8      0x248 examples/beaconing/CMakeFiles/beaconing_nrf52840_xxAA_s140_6.0.0.dir/__/__/mesh/bearer/src/advertiser.c.obj
 .debug_ranges  0x00005110      0x180 examples/beaconing/CMakeFiles/beaconing_nrf52840_xxAA_s140_6.0.0.dir/__/__/mesh/bearer/src/bearer_handler.c.obj
 .debug_ranges  0x00005290       0xc0 examples/beaconing/CMakeFiles/beaconing_nrf52840_xxAA_s140_6.0.0.dir/__/__/mesh/bearer/src/broadcast.c.obj
 .debug_ranges  0x00005350       0x48 examples/beaconing/CMakeFiles/beaconing_nrf52840_xxAA_s140_6.0.0.dir/__/__/mesh/bearer/src/filter_engine.c.obj
 .debug_ranges  0x00005398       0x48 examples/beaconing/CMakeFiles/beaconing_nrf52840_xxAA_s140_6.0.0.dir/__/__/mesh/bearer/src/radio_config.c.obj
 .debug_ranges  0x000053e0      0x1a8 examples/beaconing/CMakeFiles/beaconing_nrf52840_xxAA_s140_6.0.0.dir/__/__/mesh/bearer/src/scanner.c.obj
 .debug_ranges  0x00005588       0xb8 examples/beaconing/CMakeFiles/beaconing_nrf52840_xxAA_s140_6.0.0.dir/__/__/mesh/bearer/src/mesh_pa_lna.c.obj
 .debug_ranges  0x00005640       0x20 examples/beaconing/CMakeFiles/beaconing_nrf52840_xxAA_s140_6.0.0.dir/C_/b/nRF5_SDK_15.0.0_a53641a/modules/nrfx/mdk/system_nrf52840.c.obj
 .debug_ranges  0x00005660       0x18 examples/beaconing/CMakeFiles/beaconing_nrf52840_xxAA_s140_6.0.0.dir/C_/b/nRF5_SDK_15.0.0_a53641a/components/libraries/util/app_error.c.obj
 .debug_ranges  0x00005678       0x38 examples/beaconing/CMakeFiles/beaconing_nrf52840_xxAA_s140_6.0.0.dir/C_/b/nRF5_SDK_15.0.0_a53641a/components/libraries/util/app_util_platform.c.obj
 .debug_ranges  0x000056b0      0x390 examples/beaconing/CMakeFiles/beaconing_nrf52840_xxAA_s140_6.0.0.dir/C_/b/nRF5_SDK_15.0.0_a53641a/components/libraries/timer/app_timer.c.obj
 .debug_ranges  0x00005a40       0x10 examples/beaconing/CMakeFiles/beaconing_nrf52840_xxAA_s140_6.0.0.dir/C_/b/nRF5_SDK_15.0.0_a53641a/components/libraries/util/app_error_handler_gcc.c.obj
 .debug_ranges  0x00005a50      0x130 external/rtt/librtt_nrf52840_xxAA.a(SEGGER_RTT.c.obj)
 .debug_ranges  0x00005b80       0x48 external/rtt/librtt_nrf52840_xxAA.a(SEGGER_RTT_printf.c.obj)
 .debug_ranges  0x00005bc8      0x2e8 external/micro-ecc/libuECC_nrf52840_xxAA.a(uECC.c.obj)

.debug_line     0x00000000    0x17c33
 .debug_line    0x00000000      0x785 examples/beaconing/CMakeFiles/beaconing_nrf52840_xxAA_s140_6.0.0.dir/src/main.c.obj
 .debug_line    0x00000785      0x4a0 examples/beaconing/CMakeFiles/beaconing_nrf52840_xxAA_s140_6.0.0.dir/__/__/mesh/stack/src/mesh_stack.c.obj
 .debug_line    0x00000c25      0x42e examples/beaconing/CMakeFiles/beaconing_nrf52840_xxAA_s140_6.0.0.dir/__/common/src/mesh_softdevice_init.c.obj
 .debug_line    0x00001053      0x4df examples/beaconing/CMakeFiles/beaconing_nrf52840_xxAA_s140_6.0.0.dir/__/common/src/mesh_provisionee.c.obj
 .debug_line    0x00001532      0x43d examples/beaconing/CMakeFiles/beaconing_nrf52840_xxAA_s140_6.0.0.dir/__/common/src/simple_hal.c.obj
 .debug_line    0x0000196f      0x411 examples/beaconing/CMakeFiles/beaconing_nrf52840_xxAA_s140_6.0.0.dir/__/__/mesh/access/src/access_publish.c.obj
 .debug_line    0x00001d80      0xee9 examples/beaconing/CMakeFiles/beaconing_nrf52840_xxAA_s140_6.0.0.dir/__/__/mesh/access/src/access.c.obj
 .debug_line    0x00002c69      0x519 examples/beaconing/CMakeFiles/beaconing_nrf52840_xxAA_s140_6.0.0.dir/__/__/mesh/access/src/access_reliable.c.obj
 .debug_line    0x00003182      0x364 examples/beaconing/CMakeFiles/beaconing_nrf52840_xxAA_s140_6.0.0.dir/__/__/mesh/access/src/access_loopback.c.obj
 .debug_line    0x000034e6     0x1449 examples/beaconing/CMakeFiles/beaconing_nrf52840_xxAA_s140_6.0.0.dir/__/__/mesh/access/src/device_state_manager.c.obj
 .debug_line    0x0000492f      0x1e5 examples/beaconing/CMakeFiles/beaconing_nrf52840_xxAA_s140_6.0.0.dir/__/nrf_mesh_weak.c.obj
 .debug_line    0x00004b14      0x473 examples/beaconing/CMakeFiles/beaconing_nrf52840_xxAA_s140_6.0.0.dir/__/common/src/app_error_weak.c.obj
 .debug_line    0x00004f87      0x22b examples/beaconing/CMakeFiles/beaconing_nrf52840_xxAA_s140_6.0.0.dir/__/common/src/assertion_handler_weak.c.obj
 .debug_line    0x000051b2      0x2ed examples/beaconing/CMakeFiles/beaconing_nrf52840_xxAA_s140_6.0.0.dir/__/__/models/config/src/composition_data.c.obj
 .debug_line    0x0000549f     0x1371 examples/beaconing/CMakeFiles/beaconing_nrf52840_xxAA_s140_6.0.0.dir/__/__/models/config/src/config_server.c.obj
 .debug_line    0x00006810       0xef examples/beaconing/CMakeFiles/beaconing_nrf52840_xxAA_s140_6.0.0.dir/__/__/models/config/src/packed_index_list.c.obj
 .debug_line    0x000068ff      0x67d examples/beaconing/CMakeFiles/beaconing_nrf52840_xxAA_s140_6.0.0.dir/__/__/models/health/src/health_server.c.obj
 .debug_line    0x00006f7c      0x621 examples/beaconing/CMakeFiles/beaconing_nrf52840_xxAA_s140_6.0.0.dir/__/__/mesh/prov/src/prov_provisionee.c.obj
 .debug_line    0x0000759d      0x551 examples/beaconing/CMakeFiles/beaconing_nrf52840_xxAA_s140_6.0.0.dir/__/__/mesh/prov/src/nrf_mesh_prov.c.obj
 .debug_line    0x00007aee      0x3b1 examples/beaconing/CMakeFiles/beaconing_nrf52840_xxAA_s140_6.0.0.dir/__/__/mesh/prov/src/provisioning.c.obj
 .debug_line    0x00007e9f      0x451 examples/beaconing/CMakeFiles/beaconing_nrf52840_xxAA_s140_6.0.0.dir/__/__/mesh/prov/src/prov_beacon.c.obj
 .debug_line    0x000082f0      0x496 examples/beaconing/CMakeFiles/beaconing_nrf52840_xxAA_s140_6.0.0.dir/__/__/mesh/prov/src/prov_utils.c.obj
 .debug_line    0x00008786      0xb1b examples/beaconing/CMakeFiles/beaconing_nrf52840_xxAA_s140_6.0.0.dir/__/__/mesh/prov/src/prov_bearer_adv.c.obj
 .debug_line    0x000092a1      0x225 examples/beaconing/CMakeFiles/beaconing_nrf52840_xxAA_s140_6.0.0.dir/__/__/mesh/core/src/nrf_mesh_configure.c.obj
 .debug_line    0x000094c6      0x258 examples/beaconing/CMakeFiles/beaconing_nrf52840_xxAA_s140_6.0.0.dir/__/__/mesh/core/src/msg_cache.c.obj
 .debug_line    0x0000971e      0xcb5 examples/beaconing/CMakeFiles/beaconing_nrf52840_xxAA_s140_6.0.0.dir/__/__/mesh/core/src/transport.c.obj
 .debug_line    0x0000a3d3      0x2f6 examples/beaconing/CMakeFiles/beaconing_nrf52840_xxAA_s140_6.0.0.dir/__/__/mesh/core/src/event.c.obj
 .debug_line    0x0000a6c9      0x4af examples/beaconing/CMakeFiles/beaconing_nrf52840_xxAA_s140_6.0.0.dir/__/__/mesh/core/src/packet_buffer.c.obj
 .debug_line    0x0000ab78      0x6d1 examples/beaconing/CMakeFiles/beaconing_nrf52840_xxAA_s140_6.0.0.dir/__/__/mesh/core/src/flash_manager_defrag.c.obj
 .debug_line    0x0000b249      0x36f examples/beaconing/CMakeFiles/beaconing_nrf52840_xxAA_s140_6.0.0.dir/__/__/mesh/core/src/fifo.c.obj
 .debug_line    0x0000b5b8      0x236 examples/beaconing/CMakeFiles/beaconing_nrf52840_xxAA_s140_6.0.0.dir/__/__/mesh/core/src/nrf_flash.c.obj
 .debug_line    0x0000b7ee      0x40e examples/beaconing/CMakeFiles/beaconing_nrf52840_xxAA_s140_6.0.0.dir/__/__/mesh/core/src/packet_mgr.c.obj
 .debug_line    0x0000bbfc      0x6b7 examples/beaconing/CMakeFiles/beaconing_nrf52840_xxAA_s140_6.0.0.dir/__/__/mesh/core/src/net_state.c.obj
 .debug_line    0x0000c2b3      0x50b examples/beaconing/CMakeFiles/beaconing_nrf52840_xxAA_s140_6.0.0.dir/__/__/mesh/core/src/mesh_flash.c.obj
 .debug_line    0x0000c7be      0x24c examples/beaconing/CMakeFiles/beaconing_nrf52840_xxAA_s140_6.0.0.dir/__/__/mesh/core/src/nrf_mesh_utils.c.obj
 .debug_line    0x0000ca0a      0x75e examples/beaconing/CMakeFiles/beaconing_nrf52840_xxAA_s140_6.0.0.dir/__/__/mesh/core/src/nrf_mesh.c.obj
 .debug_line    0x0000d168      0x284 examples/beaconing/CMakeFiles/beaconing_nrf52840_xxAA_s140_6.0.0.dir/__/__/mesh/core/src/queue.c.obj
 .debug_line    0x0000d3ec      0x1fd examples/beaconing/CMakeFiles/beaconing_nrf52840_xxAA_s140_6.0.0.dir/__/__/mesh/core/src/hal.c.obj
 .debug_line    0x0000d5e9      0x30a examples/beaconing/CMakeFiles/beaconing_nrf52840_xxAA_s140_6.0.0.dir/__/__/mesh/core/src/aes_cmac.c.obj
 .debug_line    0x0000d8f3      0x422 examples/beaconing/CMakeFiles/beaconing_nrf52840_xxAA_s140_6.0.0.dir/__/__/mesh/core/src/timer_scheduler.c.obj
 .debug_line    0x0000dd15      0x3a5 examples/beaconing/CMakeFiles/beaconing_nrf52840_xxAA_s140_6.0.0.dir/__/__/mesh/core/src/timer.c.obj
 .debug_line    0x0000e0ba      0x124 examples/beaconing/CMakeFiles/beaconing_nrf52840_xxAA_s140_6.0.0.dir/__/__/mesh/core/src/ticker.c.obj
 .debug_line    0x0000e1de      0x269 examples/beaconing/CMakeFiles/beaconing_nrf52840_xxAA_s140_6.0.0.dir/__/__/mesh/core/src/rand.c.obj
 .debug_line    0x0000e447      0x25a examples/beaconing/CMakeFiles/beaconing_nrf52840_xxAA_s140_6.0.0.dir/__/__/mesh/core/src/nrf_mesh_opt.c.obj
 .debug_line    0x0000e6a1      0x54e examples/beaconing/CMakeFiles/beaconing_nrf52840_xxAA_s140_6.0.0.dir/__/__/mesh/core/src/timeslot.c.obj
 .debug_line    0x0000ebef      0x50d examples/beaconing/CMakeFiles/beaconing_nrf52840_xxAA_s140_6.0.0.dir/__/__/mesh/core/src/bearer_event.c.obj
 .debug_line    0x0000f0fc      0x48a examples/beaconing/CMakeFiles/beaconing_nrf52840_xxAA_s140_6.0.0.dir/__/__/mesh/core/src/enc.c.obj
 .debug_line    0x0000f586      0x558 examples/beaconing/CMakeFiles/beaconing_nrf52840_xxAA_s140_6.0.0.dir/__/__/mesh/core/src/network.c.obj
 .debug_line    0x0000fade      0x554 examples/beaconing/CMakeFiles/beaconing_nrf52840_xxAA_s140_6.0.0.dir/__/__/mesh/core/src/net_packet.c.obj
 .debug_line    0x00010032      0x2f3 examples/beaconing/CMakeFiles/beaconing_nrf52840_xxAA_s140_6.0.0.dir/__/__/mesh/core/src/msqueue.c.obj
 .debug_line    0x00010325      0x229 examples/beaconing/CMakeFiles/beaconing_nrf52840_xxAA_s140_6.0.0.dir/__/__/mesh/core/src/nrf_mesh_keygen.c.obj
 .debug_line    0x0001054e      0x2d3 examples/beaconing/CMakeFiles/beaconing_nrf52840_xxAA_s140_6.0.0.dir/__/__/mesh/core/src/list.c.obj
 .debug_line    0x00010821      0x278 examples/beaconing/CMakeFiles/beaconing_nrf52840_xxAA_s140_6.0.0.dir/__/__/mesh/core/src/log.c.obj
 .debug_line    0x00010a99      0x8f9 examples/beaconing/CMakeFiles/beaconing_nrf52840_xxAA_s140_6.0.0.dir/__/__/mesh/core/src/flash_manager.c.obj
 .debug_line    0x00011392      0x3a5 examples/beaconing/CMakeFiles/beaconing_nrf52840_xxAA_s140_6.0.0.dir/__/__/mesh/core/src/ccm_soft.c.obj
 .debug_line    0x00011737      0x1cd examples/beaconing/CMakeFiles/beaconing_nrf52840_xxAA_s140_6.0.0.dir/__/__/mesh/core/src/replay_cache.c.obj
 .debug_line    0x00011904      0x484 examples/beaconing/CMakeFiles/beaconing_nrf52840_xxAA_s140_6.0.0.dir/__/__/mesh/core/src/beacon.c.obj
 .debug_line    0x00011d88      0x26c examples/beaconing/CMakeFiles/beaconing_nrf52840_xxAA_s140_6.0.0.dir/__/__/mesh/core/src/flash_manager_internal.c.obj
 .debug_line    0x00011ff4      0x399 examples/beaconing/CMakeFiles/beaconing_nrf52840_xxAA_s140_6.0.0.dir/__/__/mesh/core/src/core_tx.c.obj
 .debug_line    0x0001238d      0x5ae examples/beaconing/CMakeFiles/beaconing_nrf52840_xxAA_s140_6.0.0.dir/__/__/mesh/core/src/heartbeat.c.obj
 .debug_line    0x0001293b      0x5ee examples/beaconing/CMakeFiles/beaconing_nrf52840_xxAA_s140_6.0.0.dir/__/__/mesh/core/src/net_beacon.c.obj
 .debug_line    0x00012f29      0x4d1 examples/beaconing/CMakeFiles/beaconing_nrf52840_xxAA_s140_6.0.0.dir/__/__/mesh/core/src/core_tx_adv.c.obj
 .debug_line    0x000133fa      0x32e examples/beaconing/CMakeFiles/beaconing_nrf52840_xxAA_s140_6.0.0.dir/__/__/mesh/bearer/src/ad_listener.c.obj
 .debug_line    0x00013728      0x3df examples/beaconing/CMakeFiles/beaconing_nrf52840_xxAA_s140_6.0.0.dir/__/__/mesh/bearer/src/ad_type_filter.c.obj
 .debug_line    0x00013b07      0x6e7 examples/beaconing/CMakeFiles/beaconing_nrf52840_xxAA_s140_6.0.0.dir/__/__/mesh/bearer/src/advertiser.c.obj
 .debug_line    0x000141ee      0x59f examples/beaconing/CMakeFiles/beaconing_nrf52840_xxAA_s140_6.0.0.dir/__/__/mesh/bearer/src/bearer_handler.c.obj
 .debug_line    0x0001478d      0x370 examples/beaconing/CMakeFiles/beaconing_nrf52840_xxAA_s140_6.0.0.dir/__/__/mesh/bearer/src/broadcast.c.obj
 .debug_line    0x00014afd      0x31d examples/beaconing/CMakeFiles/beaconing_nrf52840_xxAA_s140_6.0.0.dir/__/__/mesh/bearer/src/filter_engine.c.obj
 .debug_line    0x00014e1a      0x28d examples/beaconing/CMakeFiles/beaconing_nrf52840_xxAA_s140_6.0.0.dir/__/__/mesh/bearer/src/radio_config.c.obj
 .debug_line    0x000150a7      0x6ce examples/beaconing/CMakeFiles/beaconing_nrf52840_xxAA_s140_6.0.0.dir/__/__/mesh/bearer/src/scanner.c.obj
 .debug_line    0x00015775      0x31a examples/beaconing/CMakeFiles/beaconing_nrf52840_xxAA_s140_6.0.0.dir/__/__/mesh/bearer/src/mesh_pa_lna.c.obj
 .debug_line    0x00015a8f      0x1ff examples/beaconing/CMakeFiles/beaconing_nrf52840_xxAA_s140_6.0.0.dir/C_/b/nRF5_SDK_15.0.0_a53641a/modules/nrfx/mdk/system_nrf52840.c.obj
 .debug_line    0x00015c8e      0x263 examples/beaconing/CMakeFiles/beaconing_nrf52840_xxAA_s140_6.0.0.dir/C_/b/nRF5_SDK_15.0.0_a53641a/components/libraries/util/app_error.c.obj
 .debug_line    0x00015ef1      0x33a examples/beaconing/CMakeFiles/beaconing_nrf52840_xxAA_s140_6.0.0.dir/C_/b/nRF5_SDK_15.0.0_a53641a/components/libraries/util/app_util_platform.c.obj
 .debug_line    0x0001622b      0x6bb examples/beaconing/CMakeFiles/beaconing_nrf52840_xxAA_s140_6.0.0.dir/C_/b/nRF5_SDK_15.0.0_a53641a/components/libraries/timer/app_timer.c.obj
 .debug_line    0x000168e6      0x208 examples/beaconing/CMakeFiles/beaconing_nrf52840_xxAA_s140_6.0.0.dir/C_/b/nRF5_SDK_15.0.0_a53641a/components/libraries/util/app_error_handler_gcc.c.obj
 .debug_line    0x00016aee      0x4c3 external/rtt/librtt_nrf52840_xxAA.a(SEGGER_RTT.c.obj)
 .debug_line    0x00016fb1      0x285 external/rtt/librtt_nrf52840_xxAA.a(SEGGER_RTT_printf.c.obj)
 .debug_line    0x00017236      0x9fd external/micro-ecc/libuECC_nrf52840_xxAA.a(uECC.c.obj)

.debug_str      0x00000000    0x1419d
 .debug_str     0x00000000     0x268d examples/beaconing/CMakeFiles/beaconing_nrf52840_xxAA_s140_6.0.0.dir/src/main.c.obj
                               0x2b5b (size before relaxing)
 .debug_str     0x0000268d      0xeef examples/beaconing/CMakeFiles/beaconing_nrf52840_xxAA_s140_6.0.0.dir/__/__/mesh/stack/src/mesh_stack.c.obj
                               0x2746 (size before relaxing)
 .debug_str     0x0000357c      0x6b8 examples/beaconing/CMakeFiles/beaconing_nrf52840_xxAA_s140_6.0.0.dir/__/common/src/mesh_softdevice_init.c.obj
                               0x1632 (size before relaxing)
 .debug_str     0x00003c34     0x12f8 examples/beaconing/CMakeFiles/beaconing_nrf52840_xxAA_s140_6.0.0.dir/__/common/src/mesh_provisionee.c.obj
                               0x24e6 (size before relaxing)
 .debug_str     0x00004f2c      0x24e examples/beaconing/CMakeFiles/beaconing_nrf52840_xxAA_s140_6.0.0.dir/__/common/src/simple_hal.c.obj
                                0xdd0 (size before relaxing)
 .debug_str     0x0000517a      0x365 examples/beaconing/CMakeFiles/beaconing_nrf52840_xxAA_s140_6.0.0.dir/__/__/mesh/access/src/access_publish.c.obj
                                0xbcc (size before relaxing)
 .debug_str     0x000054df     0x1368 examples/beaconing/CMakeFiles/beaconing_nrf52840_xxAA_s140_6.0.0.dir/__/__/mesh/access/src/access.c.obj
                               0x300a (size before relaxing)
 .debug_str     0x00006847      0x212 examples/beaconing/CMakeFiles/beaconing_nrf52840_xxAA_s140_6.0.0.dir/__/__/mesh/access/src/access_reliable.c.obj
                               0x1006 (size before relaxing)
 .debug_str     0x00006a59       0xe8 examples/beaconing/CMakeFiles/beaconing_nrf52840_xxAA_s140_6.0.0.dir/__/__/mesh/access/src/access_loopback.c.obj
                                0xb88 (size before relaxing)
 .debug_str     0x00006b41     0x1404 examples/beaconing/CMakeFiles/beaconing_nrf52840_xxAA_s140_6.0.0.dir/__/__/mesh/access/src/device_state_manager.c.obj
                               0x3354 (size before relaxing)
 .debug_str     0x00007f45       0x3c examples/beaconing/CMakeFiles/beaconing_nrf52840_xxAA_s140_6.0.0.dir/__/nrf_mesh_weak.c.obj
                                0x61c (size before relaxing)
 .debug_str     0x00007f81       0xa0 examples/beaconing/CMakeFiles/beaconing_nrf52840_xxAA_s140_6.0.0.dir/__/common/src/app_error_weak.c.obj
                                0x85d (size before relaxing)
 .debug_str     0x00008021       0x30 examples/beaconing/CMakeFiles/beaconing_nrf52840_xxAA_s140_6.0.0.dir/__/common/src/assertion_handler_weak.c.obj
                                0x672 (size before relaxing)
 .debug_str     0x00008051      0x198 examples/beaconing/CMakeFiles/beaconing_nrf52840_xxAA_s140_6.0.0.dir/__/__/models/config/src/composition_data.c.obj
                                0x8dd (size before relaxing)
 .debug_str     0x000081e9     0x222e examples/beaconing/CMakeFiles/beaconing_nrf52840_xxAA_s140_6.0.0.dir/__/__/models/config/src/config_server.c.obj
                               0x50df (size before relaxing)
 .debug_str     0x0000a417       0x69 examples/beaconing/CMakeFiles/beaconing_nrf52840_xxAA_s140_6.0.0.dir/__/__/models/config/src/packed_index_list.c.obj
                                0x24d (size before relaxing)
 .debug_str     0x0000a480      0x5cd examples/beaconing/CMakeFiles/beaconing_nrf52840_xxAA_s140_6.0.0.dir/__/__/models/health/src/health_server.c.obj
                               0x16b9 (size before relaxing)
 .debug_str     0x0000aa4d      0x61c examples/beaconing/CMakeFiles/beaconing_nrf52840_xxAA_s140_6.0.0.dir/__/__/mesh/prov/src/prov_provisionee.c.obj
                               0x21d9 (size before relaxing)
 .debug_str     0x0000b069      0x258 examples/beaconing/CMakeFiles/beaconing_nrf52840_xxAA_s140_6.0.0.dir/__/__/mesh/prov/src/nrf_mesh_prov.c.obj
                               0x1dda (size before relaxing)
 .debug_str     0x0000b2c1       0xed examples/beaconing/CMakeFiles/beaconing_nrf52840_xxAA_s140_6.0.0.dir/__/__/mesh/prov/src/provisioning.c.obj
                                0xf29 (size before relaxing)
 .debug_str     0x0000b3ae      0x113 examples/beaconing/CMakeFiles/beaconing_nrf52840_xxAA_s140_6.0.0.dir/__/__/mesh/prov/src/prov_beacon.c.obj
                               0x1a01 (size before relaxing)
 .debug_str     0x0000b4c1      0x200 examples/beaconing/CMakeFiles/beaconing_nrf52840_xxAA_s140_6.0.0.dir/__/__/mesh/prov/src/prov_utils.c.obj
                               0x1f46 (size before relaxing)
 .debug_str     0x0000b6c1      0x4a4 examples/beaconing/CMakeFiles/beaconing_nrf52840_xxAA_s140_6.0.0.dir/__/__/mesh/prov/src/prov_bearer_adv.c.obj
                               0x1c65 (size before relaxing)
 .debug_str     0x0000bb65      0x1a5 examples/beaconing/CMakeFiles/beaconing_nrf52840_xxAA_s140_6.0.0.dir/__/__/mesh/core/src/nrf_mesh_configure.c.obj
                                0x7ed (size before relaxing)
 .debug_str     0x0000bd0a       0xbb examples/beaconing/CMakeFiles/beaconing_nrf52840_xxAA_s140_6.0.0.dir/__/__/mesh/core/src/msg_cache.c.obj
                                0x6b9 (size before relaxing)
 .debug_str     0x0000bdc5     0x11a0 examples/beaconing/CMakeFiles/beaconing_nrf52840_xxAA_s140_6.0.0.dir/__/__/mesh/core/src/transport.c.obj
                               0x3148 (size before relaxing)
 .debug_str     0x0000cf65       0xf6 examples/beaconing/CMakeFiles/beaconing_nrf52840_xxAA_s140_6.0.0.dir/__/__/mesh/core/src/event.c.obj
                               0x1753 (size before relaxing)
 .debug_str     0x0000d05b      0x305 examples/beaconing/CMakeFiles/beaconing_nrf52840_xxAA_s140_6.0.0.dir/__/__/mesh/core/src/packet_buffer.c.obj
                                0xb1b (size before relaxing)
 .debug_str     0x0000d360      0x652 examples/beaconing/CMakeFiles/beaconing_nrf52840_xxAA_s140_6.0.0.dir/__/__/mesh/core/src/flash_manager_defrag.c.obj
                               0x118d (size before relaxing)
 .debug_str     0x0000d9b2       0x9e examples/beaconing/CMakeFiles/beaconing_nrf52840_xxAA_s140_6.0.0.dir/__/__/mesh/core/src/fifo.c.obj
                                0x6db (size before relaxing)
 .debug_str     0x0000da50       0xd9 examples/beaconing/CMakeFiles/beaconing_nrf52840_xxAA_s140_6.0.0.dir/__/__/mesh/core/src/nrf_flash.c.obj
                                0x6f4 (size before relaxing)
 .debug_str     0x0000db29      0x276 examples/beaconing/CMakeFiles/beaconing_nrf52840_xxAA_s140_6.0.0.dir/__/__/mesh/core/src/packet_mgr.c.obj
                                0x9a5 (size before relaxing)
 .debug_str     0x0000dd9f      0x3cf examples/beaconing/CMakeFiles/beaconing_nrf52840_xxAA_s140_6.0.0.dir/__/__/mesh/core/src/net_state.c.obj
                               0x216e (size before relaxing)
 .debug_str     0x0000e16e      0x387 examples/beaconing/CMakeFiles/beaconing_nrf52840_xxAA_s140_6.0.0.dir/__/__/mesh/core/src/mesh_flash.c.obj
                                0xd09 (size before relaxing)
 .debug_str     0x0000e4f5       0x84 examples/beaconing/CMakeFiles/beaconing_nrf52840_xxAA_s140_6.0.0.dir/__/__/mesh/core/src/nrf_mesh_utils.c.obj
                                0x751 (size before relaxing)
 .debug_str     0x0000e579      0x563 examples/beaconing/CMakeFiles/beaconing_nrf52840_xxAA_s140_6.0.0.dir/__/__/mesh/core/src/nrf_mesh.c.obj
                               0x2167 (size before relaxing)
 .debug_str     0x0000eadc       0x53 examples/beaconing/CMakeFiles/beaconing_nrf52840_xxAA_s140_6.0.0.dir/__/__/mesh/core/src/queue.c.obj
                                0x683 (size before relaxing)
 .debug_str     0x0000eb2f       0x86 examples/beaconing/CMakeFiles/beaconing_nrf52840_xxAA_s140_6.0.0.dir/__/__/mesh/core/src/hal.c.obj
                                0x7ab (size before relaxing)
 .debug_str     0x0000ebb5      0x16e examples/beaconing/CMakeFiles/beaconing_nrf52840_xxAA_s140_6.0.0.dir/__/__/mesh/core/src/aes_cmac.c.obj
                                0xc0f (size before relaxing)
 .debug_str     0x0000ed23      0x13d examples/beaconing/CMakeFiles/beaconing_nrf52840_xxAA_s140_6.0.0.dir/__/__/mesh/core/src/timer_scheduler.c.obj
                                0x934 (size before relaxing)
 .debug_str     0x0000ee60      0x222 examples/beaconing/CMakeFiles/beaconing_nrf52840_xxAA_s140_6.0.0.dir/__/__/mesh/core/src/timer.c.obj
                                0x8ae (size before relaxing)
 .debug_str     0x0000f082       0x3c examples/beaconing/CMakeFiles/beaconing_nrf52840_xxAA_s140_6.0.0.dir/__/__/mesh/core/src/ticker.c.obj
                                0x34c (size before relaxing)
 .debug_str     0x0000f0be       0xac examples/beaconing/CMakeFiles/beaconing_nrf52840_xxAA_s140_6.0.0.dir/__/__/mesh/core/src/rand.c.obj
                                0x76e (size before relaxing)
 .debug_str     0x0000f16a       0x40 examples/beaconing/CMakeFiles/beaconing_nrf52840_xxAA_s140_6.0.0.dir/__/__/mesh/core/src/nrf_mesh_opt.c.obj
                                0x932 (size before relaxing)
 .debug_str     0x0000f1aa      0x8f6 examples/beaconing/CMakeFiles/beaconing_nrf52840_xxAA_s140_6.0.0.dir/__/__/mesh/core/src/timeslot.c.obj
                               0x191f (size before relaxing)
 .debug_str     0x0000faa0      0x2a2 examples/beaconing/CMakeFiles/beaconing_nrf52840_xxAA_s140_6.0.0.dir/__/__/mesh/core/src/bearer_event.c.obj
                                0xefe (size before relaxing)
 .debug_str     0x0000fd42      0x153 examples/beaconing/CMakeFiles/beaconing_nrf52840_xxAA_s140_6.0.0.dir/__/__/mesh/core/src/enc.c.obj
                                0xee6 (size before relaxing)
 .debug_str     0x0000fe95      0x312 examples/beaconing/CMakeFiles/beaconing_nrf52840_xxAA_s140_6.0.0.dir/__/__/mesh/core/src/network.c.obj
                               0x14be (size before relaxing)
 .debug_str     0x000101a7      0x2ec examples/beaconing/CMakeFiles/beaconing_nrf52840_xxAA_s140_6.0.0.dir/__/__/mesh/core/src/net_packet.c.obj
                                0xe86 (size before relaxing)
 .debug_str     0x00010493       0x53 examples/beaconing/CMakeFiles/beaconing_nrf52840_xxAA_s140_6.0.0.dir/__/__/mesh/core/src/msqueue.c.obj
                                0x6bf (size before relaxing)
 .debug_str     0x000104e6       0x57 examples/beaconing/CMakeFiles/beaconing_nrf52840_xxAA_s140_6.0.0.dir/__/__/mesh/core/src/nrf_mesh_keygen.c.obj
                                0x397 (size before relaxing)
 .debug_str     0x0001053d       0x59 examples/beaconing/CMakeFiles/beaconing_nrf52840_xxAA_s140_6.0.0.dir/__/__/mesh/core/src/list.c.obj
                                0x2be (size before relaxing)
 .debug_str     0x00010596      0x189 examples/beaconing/CMakeFiles/beaconing_nrf52840_xxAA_s140_6.0.0.dir/__/__/mesh/core/src/log.c.obj
                                0x7d0 (size before relaxing)
 .debug_str     0x0001071f      0x4e4 examples/beaconing/CMakeFiles/beaconing_nrf52840_xxAA_s140_6.0.0.dir/__/__/mesh/core/src/flash_manager.c.obj
                               0x1578 (size before relaxing)
 .debug_str     0x00010c03       0xd2 examples/beaconing/CMakeFiles/beaconing_nrf52840_xxAA_s140_6.0.0.dir/__/__/mesh/core/src/ccm_soft.c.obj
                                0xcef (size before relaxing)
 .debug_str     0x00010cd5       0x92 examples/beaconing/CMakeFiles/beaconing_nrf52840_xxAA_s140_6.0.0.dir/__/__/mesh/core/src/replay_cache.c.obj
                                0x68d (size before relaxing)
 .debug_str     0x00010d67       0x8b examples/beaconing/CMakeFiles/beaconing_nrf52840_xxAA_s140_6.0.0.dir/__/__/mesh/core/src/beacon.c.obj
                               0x11a8 (size before relaxing)
 .debug_str     0x00010df2       0x38 examples/beaconing/CMakeFiles/beaconing_nrf52840_xxAA_s140_6.0.0.dir/__/__/mesh/core/src/flash_manager_internal.c.obj
                                0x7a4 (size before relaxing)
 .debug_str     0x00010e2a      0x2be examples/beaconing/CMakeFiles/beaconing_nrf52840_xxAA_s140_6.0.0.dir/__/__/mesh/core/src/core_tx.c.obj
                                0xbef (size before relaxing)
 .debug_str     0x000110e8      0x360 examples/beaconing/CMakeFiles/beaconing_nrf52840_xxAA_s140_6.0.0.dir/__/__/mesh/core/src/heartbeat.c.obj
                               0x22a8 (size before relaxing)
 .debug_str     0x00011448      0x1ae examples/beaconing/CMakeFiles/beaconing_nrf52840_xxAA_s140_6.0.0.dir/__/__/mesh/core/src/net_beacon.c.obj
                               0x2145 (size before relaxing)
 .debug_str     0x000115f6      0x11f examples/beaconing/CMakeFiles/beaconing_nrf52840_xxAA_s140_6.0.0.dir/__/__/mesh/core/src/core_tx_adv.c.obj
                               0x13af (size before relaxing)
 .debug_str     0x00011715      0x176 examples/beaconing/CMakeFiles/beaconing_nrf52840_xxAA_s140_6.0.0.dir/__/__/mesh/bearer/src/ad_listener.c.obj
                                0xbe1 (size before relaxing)
 .debug_str     0x0001188b      0x14f examples/beaconing/CMakeFiles/beaconing_nrf52840_xxAA_s140_6.0.0.dir/__/__/mesh/bearer/src/ad_type_filter.c.obj
                                0x99f (size before relaxing)
 .debug_str     0x000119da      0x310 examples/beaconing/CMakeFiles/beaconing_nrf52840_xxAA_s140_6.0.0.dir/__/__/mesh/bearer/src/advertiser.c.obj
                               0x161e (size before relaxing)
 .debug_str     0x00011cea      0x4e3 examples/beaconing/CMakeFiles/beaconing_nrf52840_xxAA_s140_6.0.0.dir/__/__/mesh/bearer/src/bearer_handler.c.obj
                               0x12fd (size before relaxing)
 .debug_str     0x000121cd      0x219 examples/beaconing/CMakeFiles/beaconing_nrf52840_xxAA_s140_6.0.0.dir/__/__/mesh/bearer/src/broadcast.c.obj
                               0x115c (size before relaxing)
 .debug_str     0x000123e6       0x72 examples/beaconing/CMakeFiles/beaconing_nrf52840_xxAA_s140_6.0.0.dir/__/__/mesh/bearer/src/filter_engine.c.obj
                                0x80c (size before relaxing)
 .debug_str     0x00012458       0x79 examples/beaconing/CMakeFiles/beaconing_nrf52840_xxAA_s140_6.0.0.dir/__/__/mesh/bearer/src/radio_config.c.obj
                                0x928 (size before relaxing)
 .debug_str     0x000124d1      0x49c examples/beaconing/CMakeFiles/beaconing_nrf52840_xxAA_s140_6.0.0.dir/__/__/mesh/bearer/src/scanner.c.obj
                               0x1b81 (size before relaxing)
 .debug_str     0x0001296d      0x15f examples/beaconing/CMakeFiles/beaconing_nrf52840_xxAA_s140_6.0.0.dir/__/__/mesh/bearer/src/mesh_pa_lna.c.obj
                                0x922 (size before relaxing)
 .debug_str     0x00012acc      0x3bb examples/beaconing/CMakeFiles/beaconing_nrf52840_xxAA_s140_6.0.0.dir/C_/b/nRF5_SDK_15.0.0_a53641a/modules/nrfx/mdk/system_nrf52840.c.obj
                                0x911 (size before relaxing)
 .debug_str     0x00012e87       0x9c examples/beaconing/CMakeFiles/beaconing_nrf52840_xxAA_s140_6.0.0.dir/C_/b/nRF5_SDK_15.0.0_a53641a/components/libraries/util/app_error.c.obj
                                0x724 (size before relaxing)
 .debug_str     0x00012f23      0x1e2 examples/beaconing/CMakeFiles/beaconing_nrf52840_xxAA_s140_6.0.0.dir/C_/b/nRF5_SDK_15.0.0_a53641a/components/libraries/util/app_util_platform.c.obj
                                0xc8d (size before relaxing)
 .debug_str     0x00013105      0x608 examples/beaconing/CMakeFiles/beaconing_nrf52840_xxAA_s140_6.0.0.dir/C_/b/nRF5_SDK_15.0.0_a53641a/components/libraries/timer/app_timer.c.obj
                               0x1295 (size before relaxing)
 .debug_str     0x0001370d       0x4f examples/beaconing/CMakeFiles/beaconing_nrf52840_xxAA_s140_6.0.0.dir/C_/b/nRF5_SDK_15.0.0_a53641a/components/libraries/util/app_error_handler_gcc.c.obj
                                0x689 (size before relaxing)
 .debug_str     0x0001375c      0x2d1 external/rtt/librtt_nrf52840_xxAA.a(SEGGER_RTT.c.obj)
                                0x922 (size before relaxing)
 .debug_str     0x00013a2d       0xdf external/rtt/librtt_nrf52840_xxAA.a(SEGGER_RTT_printf.c.obj)
                                0x792 (size before relaxing)
 .debug_str     0x00013b0c      0x691 external/micro-ecc/libuECC_nrf52840_xxAA.a(uECC.c.obj)
                                0x880 (size before relaxing)

.debug_frame    0x00000000     0x7158
 .debug_frame   0x00000000       0xb0 examples/beaconing/CMakeFiles/beaconing_nrf52840_xxAA_s140_6.0.0.dir/src/main.c.obj
 .debug_frame   0x000000b0       0xcc examples/beaconing/CMakeFiles/beaconing_nrf52840_xxAA_s140_6.0.0.dir/__/__/mesh/stack/src/mesh_stack.c.obj
 .debug_frame   0x0000017c       0x90 examples/beaconing/CMakeFiles/beaconing_nrf52840_xxAA_s140_6.0.0.dir/__/common/src/mesh_softdevice_init.c.obj
 .debug_frame   0x0000020c       0x70 examples/beaconing/CMakeFiles/beaconing_nrf52840_xxAA_s140_6.0.0.dir/__/common/src/mesh_provisionee.c.obj
 .debug_frame   0x0000027c       0xc8 examples/beaconing/CMakeFiles/beaconing_nrf52840_xxAA_s140_6.0.0.dir/__/common/src/simple_hal.c.obj
 .debug_frame   0x00000344      0x114 examples/beaconing/CMakeFiles/beaconing_nrf52840_xxAA_s140_6.0.0.dir/__/__/mesh/access/src/access_publish.c.obj
 .debug_frame   0x00000458      0x5b4 examples/beaconing/CMakeFiles/beaconing_nrf52840_xxAA_s140_6.0.0.dir/__/__/mesh/access/src/access.c.obj
 .debug_frame   0x00000a0c      0x120 examples/beaconing/CMakeFiles/beaconing_nrf52840_xxAA_s140_6.0.0.dir/__/__/mesh/access/src/access_reliable.c.obj
 .debug_frame   0x00000b2c       0x70 examples/beaconing/CMakeFiles/beaconing_nrf52840_xxAA_s140_6.0.0.dir/__/__/mesh/access/src/access_loopback.c.obj
 .debug_frame   0x00000b9c      0xb28 examples/beaconing/CMakeFiles/beaconing_nrf52840_xxAA_s140_6.0.0.dir/__/__/mesh/access/src/device_state_manager.c.obj
 .debug_frame   0x000016c4       0x30 examples/beaconing/CMakeFiles/beaconing_nrf52840_xxAA_s140_6.0.0.dir/__/nrf_mesh_weak.c.obj
 .debug_frame   0x000016f4       0x34 examples/beaconing/CMakeFiles/beaconing_nrf52840_xxAA_s140_6.0.0.dir/__/common/src/app_error_weak.c.obj
 .debug_frame   0x00001728       0x28 examples/beaconing/CMakeFiles/beaconing_nrf52840_xxAA_s140_6.0.0.dir/__/common/src/assertion_handler_weak.c.obj
 .debug_frame   0x00001750       0x40 examples/beaconing/CMakeFiles/beaconing_nrf52840_xxAA_s140_6.0.0.dir/__/__/models/config/src/composition_data.c.obj
 .debug_frame   0x00001790      0x8ec examples/beaconing/CMakeFiles/beaconing_nrf52840_xxAA_s140_6.0.0.dir/__/__/models/config/src/config_server.c.obj
 .debug_frame   0x0000207c       0x2c examples/beaconing/CMakeFiles/beaconing_nrf52840_xxAA_s140_6.0.0.dir/__/__/models/config/src/packed_index_list.c.obj
 .debug_frame   0x000020a8      0x2a0 examples/beaconing/CMakeFiles/beaconing_nrf52840_xxAA_s140_6.0.0.dir/__/__/models/health/src/health_server.c.obj
 .debug_frame   0x00002348      0x198 examples/beaconing/CMakeFiles/beaconing_nrf52840_xxAA_s140_6.0.0.dir/__/__/mesh/prov/src/prov_provisionee.c.obj
 .debug_frame   0x000024e0      0x160 examples/beaconing/CMakeFiles/beaconing_nrf52840_xxAA_s140_6.0.0.dir/__/__/mesh/prov/src/nrf_mesh_prov.c.obj
 .debug_frame   0x00002640      0x170 examples/beaconing/CMakeFiles/beaconing_nrf52840_xxAA_s140_6.0.0.dir/__/__/mesh/prov/src/provisioning.c.obj
 .debug_frame   0x000027b0       0x84 examples/beaconing/CMakeFiles/beaconing_nrf52840_xxAA_s140_6.0.0.dir/__/__/mesh/prov/src/prov_beacon.c.obj
 .debug_frame   0x00002834      0x150 examples/beaconing/CMakeFiles/beaconing_nrf52840_xxAA_s140_6.0.0.dir/__/__/mesh/prov/src/prov_utils.c.obj
 .debug_frame   0x00002984      0x324 examples/beaconing/CMakeFiles/beaconing_nrf52840_xxAA_s140_6.0.0.dir/__/__/mesh/prov/src/prov_bearer_adv.c.obj
 .debug_frame   0x00002ca8       0x4c examples/beaconing/CMakeFiles/beaconing_nrf52840_xxAA_s140_6.0.0.dir/__/__/mesh/core/src/nrf_mesh_configure.c.obj
 .debug_frame   0x00002cf4       0x6c examples/beaconing/CMakeFiles/beaconing_nrf52840_xxAA_s140_6.0.0.dir/__/__/mesh/core/src/msg_cache.c.obj
 .debug_frame   0x00002d60      0x404 examples/beaconing/CMakeFiles/beaconing_nrf52840_xxAA_s140_6.0.0.dir/__/__/mesh/core/src/transport.c.obj
 .debug_frame   0x00003164       0x68 examples/beaconing/CMakeFiles/beaconing_nrf52840_xxAA_s140_6.0.0.dir/__/__/mesh/core/src/event.c.obj
 .debug_frame   0x000031cc      0x128 examples/beaconing/CMakeFiles/beaconing_nrf52840_xxAA_s140_6.0.0.dir/__/__/mesh/core/src/packet_buffer.c.obj
 .debug_frame   0x000032f4      0x24c examples/beaconing/CMakeFiles/beaconing_nrf52840_xxAA_s140_6.0.0.dir/__/__/mesh/core/src/flash_manager_defrag.c.obj
 .debug_frame   0x00003540       0xd0 examples/beaconing/CMakeFiles/beaconing_nrf52840_xxAA_s140_6.0.0.dir/__/__/mesh/core/src/fifo.c.obj
 .debug_frame   0x00003610       0x54 examples/beaconing/CMakeFiles/beaconing_nrf52840_xxAA_s140_6.0.0.dir/__/__/mesh/core/src/nrf_flash.c.obj
 .debug_frame   0x00003664       0xa0 examples/beaconing/CMakeFiles/beaconing_nrf52840_xxAA_s140_6.0.0.dir/__/__/mesh/core/src/packet_mgr.c.obj
 .debug_frame   0x00003704      0x298 examples/beaconing/CMakeFiles/beaconing_nrf52840_xxAA_s140_6.0.0.dir/__/__/mesh/core/src/net_state.c.obj
 .debug_frame   0x0000399c      0x150 examples/beaconing/CMakeFiles/beaconing_nrf52840_xxAA_s140_6.0.0.dir/__/__/mesh/core/src/mesh_flash.c.obj
 .debug_frame   0x00003aec       0x50 examples/beaconing/CMakeFiles/beaconing_nrf52840_xxAA_s140_6.0.0.dir/__/__/mesh/core/src/nrf_mesh_utils.c.obj
 .debug_frame   0x00003b3c      0x1a0 examples/beaconing/CMakeFiles/beaconing_nrf52840_xxAA_s140_6.0.0.dir/__/__/mesh/core/src/nrf_mesh.c.obj
 .debug_frame   0x00003cdc       0x74 examples/beaconing/CMakeFiles/beaconing_nrf52840_xxAA_s140_6.0.0.dir/__/__/mesh/core/src/queue.c.obj
 .debug_frame   0x00003d50       0x48 examples/beaconing/CMakeFiles/beaconing_nrf52840_xxAA_s140_6.0.0.dir/__/__/mesh/core/src/hal.c.obj
 .debug_frame   0x00003d98       0x6c examples/beaconing/CMakeFiles/beaconing_nrf52840_xxAA_s140_6.0.0.dir/__/__/mesh/core/src/aes_cmac.c.obj
 .debug_frame   0x00003e04      0x134 examples/beaconing/CMakeFiles/beaconing_nrf52840_xxAA_s140_6.0.0.dir/__/__/mesh/core/src/timer_scheduler.c.obj
 .debug_frame   0x00003f38      0x10c examples/beaconing/CMakeFiles/beaconing_nrf52840_xxAA_s140_6.0.0.dir/__/__/mesh/core/src/timer.c.obj
 .debug_frame   0x00004044       0x4c examples/beaconing/CMakeFiles/beaconing_nrf52840_xxAA_s140_6.0.0.dir/__/__/mesh/core/src/ticker.c.obj
 .debug_frame   0x00004090       0x84 examples/beaconing/CMakeFiles/beaconing_nrf52840_xxAA_s140_6.0.0.dir/__/__/mesh/core/src/rand.c.obj
 .debug_frame   0x00004114       0x30 examples/beaconing/CMakeFiles/beaconing_nrf52840_xxAA_s140_6.0.0.dir/__/__/mesh/core/src/nrf_mesh_opt.c.obj
 .debug_frame   0x00004144      0x1a0 examples/beaconing/CMakeFiles/beaconing_nrf52840_xxAA_s140_6.0.0.dir/__/__/mesh/core/src/timeslot.c.obj
 .debug_frame   0x000042e4      0x1bc examples/beaconing/CMakeFiles/beaconing_nrf52840_xxAA_s140_6.0.0.dir/__/__/mesh/core/src/bearer_event.c.obj
 .debug_frame   0x000044a0      0x15c examples/beaconing/CMakeFiles/beaconing_nrf52840_xxAA_s140_6.0.0.dir/__/__/mesh/core/src/enc.c.obj
 .debug_frame   0x000045fc      0x100 examples/beaconing/CMakeFiles/beaconing_nrf52840_xxAA_s140_6.0.0.dir/__/__/mesh/core/src/network.c.obj
 .debug_frame   0x000046fc      0x114 examples/beaconing/CMakeFiles/beaconing_nrf52840_xxAA_s140_6.0.0.dir/__/__/mesh/core/src/net_packet.c.obj
 .debug_frame   0x00004810       0xb4 examples/beaconing/CMakeFiles/beaconing_nrf52840_xxAA_s140_6.0.0.dir/__/__/mesh/core/src/msqueue.c.obj
 .debug_frame   0x000048c4       0xb4 examples/beaconing/CMakeFiles/beaconing_nrf52840_xxAA_s140_6.0.0.dir/__/__/mesh/core/src/nrf_mesh_keygen.c.obj
 .debug_frame   0x00004978       0xc8 examples/beaconing/CMakeFiles/beaconing_nrf52840_xxAA_s140_6.0.0.dir/__/__/mesh/core/src/list.c.obj
 .debug_frame   0x00004a40       0xb0 examples/beaconing/CMakeFiles/beaconing_nrf52840_xxAA_s140_6.0.0.dir/__/__/mesh/core/src/log.c.obj
 .debug_frame   0x00004af0      0x320 examples/beaconing/CMakeFiles/beaconing_nrf52840_xxAA_s140_6.0.0.dir/__/__/mesh/core/src/flash_manager.c.obj
 .debug_frame   0x00004e10       0xf4 examples/beaconing/CMakeFiles/beaconing_nrf52840_xxAA_s140_6.0.0.dir/__/__/mesh/core/src/ccm_soft.c.obj
 .debug_frame   0x00004f04       0x80 examples/beaconing/CMakeFiles/beaconing_nrf52840_xxAA_s140_6.0.0.dir/__/__/mesh/core/src/replay_cache.c.obj
 .debug_frame   0x00004f84       0x60 examples/beaconing/CMakeFiles/beaconing_nrf52840_xxAA_s140_6.0.0.dir/__/__/mesh/core/src/beacon.c.obj
 .debug_frame   0x00004fe4       0x34 examples/beaconing/CMakeFiles/beaconing_nrf52840_xxAA_s140_6.0.0.dir/__/__/mesh/core/src/flash_manager_internal.c.obj
 .debug_frame   0x00005018       0xf0 examples/beaconing/CMakeFiles/beaconing_nrf52840_xxAA_s140_6.0.0.dir/__/__/mesh/core/src/core_tx.c.obj
 .debug_frame   0x00005108      0x160 examples/beaconing/CMakeFiles/beaconing_nrf52840_xxAA_s140_6.0.0.dir/__/__/mesh/core/src/heartbeat.c.obj
 .debug_frame   0x00005268      0x138 examples/beaconing/CMakeFiles/beaconing_nrf52840_xxAA_s140_6.0.0.dir/__/__/mesh/core/src/net_beacon.c.obj
 .debug_frame   0x000053a0      0x150 examples/beaconing/CMakeFiles/beaconing_nrf52840_xxAA_s140_6.0.0.dir/__/__/mesh/core/src/core_tx_adv.c.obj
 .debug_frame   0x000054f0       0x6c examples/beaconing/CMakeFiles/beaconing_nrf52840_xxAA_s140_6.0.0.dir/__/__/mesh/bearer/src/ad_listener.c.obj
 .debug_frame   0x0000555c       0xa8 examples/beaconing/CMakeFiles/beaconing_nrf52840_xxAA_s140_6.0.0.dir/__/__/mesh/bearer/src/ad_type_filter.c.obj
 .debug_frame   0x00005604      0x284 examples/beaconing/CMakeFiles/beaconing_nrf52840_xxAA_s140_6.0.0.dir/__/__/mesh/bearer/src/advertiser.c.obj
 .debug_frame   0x00005888      0x1c8 examples/beaconing/CMakeFiles/beaconing_nrf52840_xxAA_s140_6.0.0.dir/__/__/mesh/bearer/src/bearer_handler.c.obj
 .debug_frame   0x00005a50       0x7c examples/beaconing/CMakeFiles/beaconing_nrf52840_xxAA_s140_6.0.0.dir/__/__/mesh/bearer/src/broadcast.c.obj
 .debug_frame   0x00005acc       0x74 examples/beaconing/CMakeFiles/beaconing_nrf52840_xxAA_s140_6.0.0.dir/__/__/mesh/bearer/src/filter_engine.c.obj
 .debug_frame   0x00005b40       0x94 examples/beaconing/CMakeFiles/beaconing_nrf52840_xxAA_s140_6.0.0.dir/__/__/mesh/bearer/src/radio_config.c.obj
 .debug_frame   0x00005bd4      0x2cc examples/beaconing/CMakeFiles/beaconing_nrf52840_xxAA_s140_6.0.0.dir/__/__/mesh/bearer/src/scanner.c.obj
 .debug_frame   0x00005ea0      0x10c examples/beaconing/CMakeFiles/beaconing_nrf52840_xxAA_s140_6.0.0.dir/__/__/mesh/bearer/src/mesh_pa_lna.c.obj
 .debug_frame   0x00005fac       0x48 examples/beaconing/CMakeFiles/beaconing_nrf52840_xxAA_s140_6.0.0.dir/C_/b/nRF5_SDK_15.0.0_a53641a/modules/nrfx/mdk/system_nrf52840.c.obj
 .debug_frame   0x00005ff4       0x44 examples/beaconing/CMakeFiles/beaconing_nrf52840_xxAA_s140_6.0.0.dir/C_/b/nRF5_SDK_15.0.0_a53641a/components/libraries/util/app_error.c.obj
 .debug_frame   0x00006038       0x84 examples/beaconing/CMakeFiles/beaconing_nrf52840_xxAA_s140_6.0.0.dir/C_/b/nRF5_SDK_15.0.0_a53641a/components/libraries/util/app_util_platform.c.obj
 .debug_frame   0x000060bc      0x16c examples/beaconing/CMakeFiles/beaconing_nrf52840_xxAA_s140_6.0.0.dir/C_/b/nRF5_SDK_15.0.0_a53641a/components/libraries/timer/app_timer.c.obj
 .debug_frame   0x00006228       0x20 examples/beaconing/CMakeFiles/beaconing_nrf52840_xxAA_s140_6.0.0.dir/C_/b/nRF5_SDK_15.0.0_a53641a/components/libraries/util/app_error_handler_gcc.c.obj
 .debug_frame   0x00006248      0x2d8 external/rtt/librtt_nrf52840_xxAA.a(SEGGER_RTT.c.obj)
 .debug_frame   0x00006520       0xac external/rtt/librtt_nrf52840_xxAA.a(SEGGER_RTT_printf.c.obj)
 .debug_frame   0x000065cc      0x684 external/micro-ecc/libuECC_nrf52840_xxAA.a(uECC.c.obj)
 .debug_frame   0x00006c50       0x2c c:/mesh/arm_gcc/bin/../lib/gcc/arm-none-eabi/6.3.1/thumb/v7e-m/fpv4-sp/hard\libgcc.a(_aeabi_uldivmod.o)
 .debug_frame   0x00006c7c       0x34 c:/mesh/arm_gcc/bin/../lib/gcc/arm-none-eabi/6.3.1/thumb/v7e-m/fpv4-sp/hard\libgcc.a(_udivmoddi4.o)
 .debug_frame   0x00006cb0       0x28 c:/mesh/arm_gcc/bin/../lib/gcc/arm-none-eabi/6.3.1/../../../../arm-none-eabi/lib/thumb/v7e-m/fpv4-sp/hard\libg_nano.a(lib_a-exit.o)
 .debug_frame   0x00006cd8       0x2c c:/mesh/arm_gcc/bin/../lib/gcc/arm-none-eabi/6.3.1/../../../../arm-none-eabi/lib/thumb/v7e-m/fpv4-sp/hard\libg_nano.a(lib_a-init.o)
 .debug_frame   0x00006d04       0x30 c:/mesh/arm_gcc/bin/../lib/gcc/arm-none-eabi/6.3.1/../../../../arm-none-eabi/lib/thumb/v7e-m/fpv4-sp/hard\libg_nano.a(lib_a-malloc.o)
 .debug_frame   0x00006d34       0x28 c:/mesh/arm_gcc/bin/../lib/gcc/arm-none-eabi/6.3.1/../../../../arm-none-eabi/lib/thumb/v7e-m/fpv4-sp/hard\libg_nano.a(lib_a-memcmp.o)
 .debug_frame   0x00006d5c       0x28 c:/mesh/arm_gcc/bin/../lib/gcc/arm-none-eabi/6.3.1/../../../../arm-none-eabi/lib/thumb/v7e-m/fpv4-sp/hard\libg_nano.a(lib_a-memcpy-stub.o)
 .debug_frame   0x00006d84       0x20 c:/mesh/arm_gcc/bin/../lib/gcc/arm-none-eabi/6.3.1/../../../../arm-none-eabi/lib/thumb/v7e-m/fpv4-sp/hard\libg_nano.a(lib_a-memset.o)
 .debug_frame   0x00006da4       0x38 c:/mesh/arm_gcc/bin/../lib/gcc/arm-none-eabi/6.3.1/../../../../arm-none-eabi/lib/thumb/v7e-m/fpv4-sp/hard\libg_nano.a(lib_a-nano-freer.o)
 .debug_frame   0x00006ddc       0x2c c:/mesh/arm_gcc/bin/../lib/gcc/arm-none-eabi/6.3.1/../../../../arm-none-eabi/lib/thumb/v7e-m/fpv4-sp/hard\libg_nano.a(lib_a-nano-mallocr.o)
 .debug_frame   0x00006e08       0x2c c:/mesh/arm_gcc/bin/../lib/gcc/arm-none-eabi/6.3.1/../../../../arm-none-eabi/lib/thumb/v7e-m/fpv4-sp/hard\libg_nano.a(lib_a-sbrkr.o)
 .debug_frame   0x00006e34       0x70 c:/mesh/arm_gcc/bin/../lib/gcc/arm-none-eabi/6.3.1/../../../../arm-none-eabi/lib/thumb/v7e-m/fpv4-sp/hard\libg_nano.a(lib_a-sprintf.o)
 .debug_frame   0x00006ea4       0x20 c:/mesh/arm_gcc/bin/../lib/gcc/arm-none-eabi/6.3.1/../../../../arm-none-eabi/lib/thumb/v7e-m/fpv4-sp/hard\libg_nano.a(lib_a-strcpy.o)
 .debug_frame   0x00006ec4       0x34 c:/mesh/arm_gcc/bin/../lib/gcc/arm-none-eabi/6.3.1/../../../../arm-none-eabi/lib/thumb/v7e-m/fpv4-sp/hard\libg_nano.a(lib_a-strrchr.o)
 .debug_frame   0x00006ef8       0x30 c:/mesh/arm_gcc/bin/../lib/gcc/arm-none-eabi/6.3.1/../../../../arm-none-eabi/lib/thumb/v7e-m/fpv4-sp/hard\libg_nano.a(lib_a-mlock.o)
 .debug_frame   0x00006f28       0x90 c:/mesh/arm_gcc/bin/../lib/gcc/arm-none-eabi/6.3.1/../../../../arm-none-eabi/lib/thumb/v7e-m/fpv4-sp/hard\libg_nano.a(lib_a-nano-svfprintf.o)
 .debug_frame   0x00006fb8       0x60 c:/mesh/arm_gcc/bin/../lib/gcc/arm-none-eabi/6.3.1/../../../../arm-none-eabi/lib/thumb/v7e-m/fpv4-sp/hard\libg_nano.a(lib_a-nano-vfprintf_i.o)
 .debug_frame   0x00007018       0x5c c:/mesh/arm_gcc/bin/../lib/gcc/arm-none-eabi/6.3.1/../../../../arm-none-eabi/lib/thumb/v7e-m/fpv4-sp/hard\libg_nano.a(lib_a-reent.o)
 .debug_frame   0x00007074       0x20 c:/mesh/arm_gcc/bin/../lib/gcc/arm-none-eabi/6.3.1/../../../../arm-none-eabi/lib/thumb/v7e-m/fpv4-sp/hard\libg_nano.a(lib_a-strchr.o)
 .debug_frame   0x00007094       0x28 c:/mesh/arm_gcc/bin/../lib/gcc/arm-none-eabi/6.3.1/../../../../arm-none-eabi/lib/thumb/v7e-m/fpv4-sp/hard\libg_nano.a(lib_a-memmove.o)
 .debug_frame   0x000070bc       0x3c c:/mesh/arm_gcc/bin/../lib/gcc/arm-none-eabi/6.3.1/../../../../arm-none-eabi/lib/thumb/v7e-m/fpv4-sp/hard\libg_nano.a(lib_a-nano-reallocr.o)
 .debug_frame   0x000070f8       0x20 c:/mesh/arm_gcc/bin/../lib/gcc/arm-none-eabi/6.3.1/../../../../arm-none-eabi/lib/thumb/v7e-m/fpv4-sp/hard\libg_nano.a(lib_a-nano-msizer.o)
 .debug_frame   0x00007118       0x20 c:/mesh/arm_gcc/bin/../lib/gcc/arm-none-eabi/6.3.1/../../../../arm-none-eabi/lib/thumb/v7e-m/fpv4-sp/hard\libnosys.a(sbrk.o)
 .debug_frame   0x00007138       0x20 c:/mesh/arm_gcc/bin/../lib/gcc/arm-none-eabi/6.3.1/../../../../arm-none-eabi/lib/thumb/v7e-m/fpv4-sp/hard\libnosys.a(_exit.o)
