Archive member included to satisfy reference by file (symbol)

external/rtt/librtt_nrf52840_xxAA.a(SEGGER_RTT.c.obj)
                              examples/light_switch/client/CMakeFiles/light_switch_client_nrf52840_xxAA_s140_6.0.0.dir/__/__/__/mesh/core/src/log.c.obj (SEGGER_RTT_Write)
external/rtt/librtt_nrf52840_xxAA.a(SEGGER_RTT_printf.c.obj)
                              examples/light_switch/client/CMakeFiles/light_switch_client_nrf52840_xxAA_s140_6.0.0.dir/__/__/__/mesh/core/src/log.c.obj (SEGGER_RTT_vprintf)
external/micro-ecc/libuECC_nrf52840_xxAA.a(uECC.c.obj)
                              examples/light_switch/client/CMakeFiles/light_switch_client_nrf52840_xxAA_s140_6.0.0.dir/__/__/__/mesh/prov/src/prov_utils.c.obj (uECC_secp256r1)
c:/mesh/arm_gcc/bin/../lib/gcc/arm-none-eabi/6.3.1/thumb/v7e-m/fpv4-sp/hard\libgcc.a(_aeabi_uldivmod.o)
                              examples/light_switch/client/CMakeFiles/light_switch_client_nrf52840_xxAA_s140_6.0.0.dir/__/__/common/src/rtt_input.c.obj (__aeabi_uldivmod)
c:/mesh/arm_gcc/bin/../lib/gcc/arm-none-eabi/6.3.1/thumb/v7e-m/fpv4-sp/hard\libgcc.a(_udivmoddi4.o)
                              c:/mesh/arm_gcc/bin/../lib/gcc/arm-none-eabi/6.3.1/thumb/v7e-m/fpv4-sp/hard\libgcc.a(_aeabi_uldivmod.o) (__udivmoddi4)
c:/mesh/arm_gcc/bin/../lib/gcc/arm-none-eabi/6.3.1/thumb/v7e-m/fpv4-sp/hard\libgcc.a(_dvmd_tls.o)
                              c:/mesh/arm_gcc/bin/../lib/gcc/arm-none-eabi/6.3.1/thumb/v7e-m/fpv4-sp/hard\libgcc.a(_aeabi_uldivmod.o) (__aeabi_ldiv0)
c:/mesh/arm_gcc/bin/../lib/gcc/arm-none-eabi/6.3.1/../../../../arm-none-eabi/lib/thumb/v7e-m/fpv4-sp/hard\libg_nano.a(lib_a-exit.o)
                              c:/mesh/arm_gcc/bin/../lib/gcc/arm-none-eabi/6.3.1/../../../../arm-none-eabi/lib/thumb/v7e-m/fpv4-sp/hard/crt0.o (exit)
c:/mesh/arm_gcc/bin/../lib/gcc/arm-none-eabi/6.3.1/../../../../arm-none-eabi/lib/thumb/v7e-m/fpv4-sp/hard\libg_nano.a(lib_a-impure.o)
                              c:/mesh/arm_gcc/bin/../lib/gcc/arm-none-eabi/6.3.1/../../../../arm-none-eabi/lib/thumb/v7e-m/fpv4-sp/hard\libg_nano.a(lib_a-exit.o) (_global_impure_ptr)
c:/mesh/arm_gcc/bin/../lib/gcc/arm-none-eabi/6.3.1/../../../../arm-none-eabi/lib/thumb/v7e-m/fpv4-sp/hard\libg_nano.a(lib_a-init.o)
                              c:/mesh/arm_gcc/bin/../lib/gcc/arm-none-eabi/6.3.1/../../../../arm-none-eabi/lib/thumb/v7e-m/fpv4-sp/hard/crt0.o (__libc_init_array)
c:/mesh/arm_gcc/bin/../lib/gcc/arm-none-eabi/6.3.1/../../../../arm-none-eabi/lib/thumb/v7e-m/fpv4-sp/hard\libg_nano.a(lib_a-malloc.o)
                              examples/light_switch/client/CMakeFiles/light_switch_client_nrf52840_xxAA_s140_6.0.0.dir/__/__/__/mesh/core/src/transport.c.obj (malloc)
c:/mesh/arm_gcc/bin/../lib/gcc/arm-none-eabi/6.3.1/../../../../arm-none-eabi/lib/thumb/v7e-m/fpv4-sp/hard\libg_nano.a(lib_a-memcmp.o)
                              examples/light_switch/client/CMakeFiles/light_switch_client_nrf52840_xxAA_s140_6.0.0.dir/__/__/__/mesh/core/src/cache.c.obj (memcmp)
c:/mesh/arm_gcc/bin/../lib/gcc/arm-none-eabi/6.3.1/../../../../arm-none-eabi/lib/thumb/v7e-m/fpv4-sp/hard\libg_nano.a(lib_a-memcpy-stub.o)
                              examples/light_switch/client/CMakeFiles/light_switch_client_nrf52840_xxAA_s140_6.0.0.dir/__/__/__/mesh/core/src/nrf_mesh_configure.c.obj (memcpy)
c:/mesh/arm_gcc/bin/../lib/gcc/arm-none-eabi/6.3.1/../../../../arm-none-eabi/lib/thumb/v7e-m/fpv4-sp/hard\libg_nano.a(lib_a-memset.o)
                              c:/mesh/arm_gcc/bin/../lib/gcc/arm-none-eabi/6.3.1/../../../../arm-none-eabi/lib/thumb/v7e-m/fpv4-sp/hard/crt0.o (memset)
c:/mesh/arm_gcc/bin/../lib/gcc/arm-none-eabi/6.3.1/../../../../arm-none-eabi/lib/thumb/v7e-m/fpv4-sp/hard\libg_nano.a(lib_a-nano-freer.o)
                              c:/mesh/arm_gcc/bin/../lib/gcc/arm-none-eabi/6.3.1/../../../../arm-none-eabi/lib/thumb/v7e-m/fpv4-sp/hard\libg_nano.a(lib_a-malloc.o) (_free_r)
c:/mesh/arm_gcc/bin/../lib/gcc/arm-none-eabi/6.3.1/../../../../arm-none-eabi/lib/thumb/v7e-m/fpv4-sp/hard\libg_nano.a(lib_a-nano-mallocr.o)
                              c:/mesh/arm_gcc/bin/../lib/gcc/arm-none-eabi/6.3.1/../../../../arm-none-eabi/lib/thumb/v7e-m/fpv4-sp/hard\libg_nano.a(lib_a-malloc.o) (_malloc_r)
c:/mesh/arm_gcc/bin/../lib/gcc/arm-none-eabi/6.3.1/../../../../arm-none-eabi/lib/thumb/v7e-m/fpv4-sp/hard\libg_nano.a(lib_a-sbrkr.o)
                              c:/mesh/arm_gcc/bin/../lib/gcc/arm-none-eabi/6.3.1/../../../../arm-none-eabi/lib/thumb/v7e-m/fpv4-sp/hard\libg_nano.a(lib_a-nano-mallocr.o) (_sbrk_r)
c:/mesh/arm_gcc/bin/../lib/gcc/arm-none-eabi/6.3.1/../../../../arm-none-eabi/lib/thumb/v7e-m/fpv4-sp/hard\libg_nano.a(lib_a-strcpy.o)
                              external/rtt/librtt_nrf52840_xxAA.a(SEGGER_RTT.c.obj) (strcpy)
c:/mesh/arm_gcc/bin/../lib/gcc/arm-none-eabi/6.3.1/../../../../arm-none-eabi/lib/thumb/v7e-m/fpv4-sp/hard\libg_nano.a(lib_a-strlen.o)
                              examples/light_switch/client/CMakeFiles/light_switch_client_nrf52840_xxAA_s140_6.0.0.dir/__/__/__/mesh/prov/src/prov_beacon.c.obj (strlen)
c:/mesh/arm_gcc/bin/../lib/gcc/arm-none-eabi/6.3.1/../../../../arm-none-eabi/lib/thumb/v7e-m/fpv4-sp/hard\libg_nano.a(lib_a-strrchr.o)
                              examples/light_switch/client/CMakeFiles/light_switch_client_nrf52840_xxAA_s140_6.0.0.dir/src/main.c.obj (strrchr)
c:/mesh/arm_gcc/bin/../lib/gcc/arm-none-eabi/6.3.1/../../../../arm-none-eabi/lib/thumb/v7e-m/fpv4-sp/hard\libg_nano.a(lib_a-mlock.o)
                              c:/mesh/arm_gcc/bin/../lib/gcc/arm-none-eabi/6.3.1/../../../../arm-none-eabi/lib/thumb/v7e-m/fpv4-sp/hard\libg_nano.a(lib_a-nano-freer.o) (__malloc_lock)
c:/mesh/arm_gcc/bin/../lib/gcc/arm-none-eabi/6.3.1/../../../../arm-none-eabi/lib/thumb/v7e-m/fpv4-sp/hard\libg_nano.a(lib_a-reent.o)
                              c:/mesh/arm_gcc/bin/../lib/gcc/arm-none-eabi/6.3.1/../../../../arm-none-eabi/lib/thumb/v7e-m/fpv4-sp/hard\libg_nano.a(lib_a-sbrkr.o) (errno)
c:/mesh/arm_gcc/bin/../lib/gcc/arm-none-eabi/6.3.1/../../../../arm-none-eabi/lib/thumb/v7e-m/fpv4-sp/hard\libg_nano.a(lib_a-strchr.o)
                              c:/mesh/arm_gcc/bin/../lib/gcc/arm-none-eabi/6.3.1/../../../../arm-none-eabi/lib/thumb/v7e-m/fpv4-sp/hard\libg_nano.a(lib_a-strrchr.o) (strchr)
c:/mesh/arm_gcc/bin/../lib/gcc/arm-none-eabi/6.3.1/../../../../arm-none-eabi/lib/thumb/v7e-m/fpv4-sp/hard\libnosys.a(sbrk.o)
                              c:/mesh/arm_gcc/bin/../lib/gcc/arm-none-eabi/6.3.1/../../../../arm-none-eabi/lib/thumb/v7e-m/fpv4-sp/hard\libg_nano.a(lib_a-sbrkr.o) (_sbrk)
c:/mesh/arm_gcc/bin/../lib/gcc/arm-none-eabi/6.3.1/../../../../arm-none-eabi/lib/thumb/v7e-m/fpv4-sp/hard\libnosys.a(_exit.o)
                              c:/mesh/arm_gcc/bin/../lib/gcc/arm-none-eabi/6.3.1/../../../../arm-none-eabi/lib/thumb/v7e-m/fpv4-sp/hard\libg_nano.a(lib_a-exit.o) (_exit)

Allocating common symbols
Common symbol       size              file

nrf_nvic_state      0xc               examples/light_switch/client/CMakeFiles/light_switch_client_nrf52840_xxAA_s140_6.0.0.dir/C_/b/nRF5_SDK_15.0.0_a53641a/components/libraries/util/app_util_platform.c.obj
m_packet            0x24              examples/light_switch/client/CMakeFiles/light_switch_client_nrf52840_xxAA_s140_6.0.0.dir/__/__/__/mesh/core/src/core_tx.c.obj
errno               0x4               c:/mesh/arm_gcc/bin/../lib/gcc/arm-none-eabi/6.3.1/../../../../arm-none-eabi/lib/thumb/v7e-m/fpv4-sp/hard\libg_nano.a(lib_a-reent.o)
_SEGGER_RTT         0x78              external/rtt/librtt_nrf52840_xxAA.a(SEGGER_RTT.c.obj)

Discarded input sections

 .text          0x00000000        0x0 c:/mesh/arm_gcc/bin/../lib/gcc/arm-none-eabi/6.3.1/thumb/v7e-m/fpv4-sp/hard/crti.o
 .data          0x00000000        0x0 c:/mesh/arm_gcc/bin/../lib/gcc/arm-none-eabi/6.3.1/thumb/v7e-m/fpv4-sp/hard/crti.o
 .bss           0x00000000        0x0 c:/mesh/arm_gcc/bin/../lib/gcc/arm-none-eabi/6.3.1/thumb/v7e-m/fpv4-sp/hard/crti.o
 .data          0x00000000        0x4 c:/mesh/arm_gcc/bin/../lib/gcc/arm-none-eabi/6.3.1/thumb/v7e-m/fpv4-sp/hard/crtbegin.o
 .data          0x00000000        0x0 c:/mesh/arm_gcc/bin/../lib/gcc/arm-none-eabi/6.3.1/../../../../arm-none-eabi/lib/thumb/v7e-m/fpv4-sp/hard/crt0.o
 .bss           0x00000000        0x0 c:/mesh/arm_gcc/bin/../lib/gcc/arm-none-eabi/6.3.1/../../../../arm-none-eabi/lib/thumb/v7e-m/fpv4-sp/hard/crt0.o
 .ARM.extab     0x00000000        0x0 c:/mesh/arm_gcc/bin/../lib/gcc/arm-none-eabi/6.3.1/../../../../arm-none-eabi/lib/thumb/v7e-m/fpv4-sp/hard/crt0.o
 .text          0x00000000        0x0 examples/light_switch/client/CMakeFiles/light_switch_client_nrf52840_xxAA_s140_6.0.0.dir/src/main.c.obj
 .data          0x00000000        0x0 examples/light_switch/client/CMakeFiles/light_switch_client_nrf52840_xxAA_s140_6.0.0.dir/src/main.c.obj
 .bss           0x00000000        0x0 examples/light_switch/client/CMakeFiles/light_switch_client_nrf52840_xxAA_s140_6.0.0.dir/src/main.c.obj
 .text          0x00000000        0x0 examples/light_switch/client/CMakeFiles/light_switch_client_nrf52840_xxAA_s140_6.0.0.dir/__/__/__/mesh/stack/src/mesh_stack.c.obj
 .data          0x00000000        0x0 examples/light_switch/client/CMakeFiles/light_switch_client_nrf52840_xxAA_s140_6.0.0.dir/__/__/__/mesh/stack/src/mesh_stack.c.obj
 .bss           0x00000000        0x0 examples/light_switch/client/CMakeFiles/light_switch_client_nrf52840_xxAA_s140_6.0.0.dir/__/__/__/mesh/stack/src/mesh_stack.c.obj
 .text          0x00000000        0x0 examples/light_switch/client/CMakeFiles/light_switch_client_nrf52840_xxAA_s140_6.0.0.dir/__/__/common/src/mesh_softdevice_init.c.obj
 .data          0x00000000        0x0 examples/light_switch/client/CMakeFiles/light_switch_client_nrf52840_xxAA_s140_6.0.0.dir/__/__/common/src/mesh_softdevice_init.c.obj
 .bss           0x00000000        0x0 examples/light_switch/client/CMakeFiles/light_switch_client_nrf52840_xxAA_s140_6.0.0.dir/__/__/common/src/mesh_softdevice_init.c.obj
 .text          0x00000000        0x0 examples/light_switch/client/CMakeFiles/light_switch_client_nrf52840_xxAA_s140_6.0.0.dir/__/__/common/src/mesh_provisionee.c.obj
 .data          0x00000000        0x0 examples/light_switch/client/CMakeFiles/light_switch_client_nrf52840_xxAA_s140_6.0.0.dir/__/__/common/src/mesh_provisionee.c.obj
 .bss           0x00000000        0x0 examples/light_switch/client/CMakeFiles/light_switch_client_nrf52840_xxAA_s140_6.0.0.dir/__/__/common/src/mesh_provisionee.c.obj
 .text          0x00000000        0x0 examples/light_switch/client/CMakeFiles/light_switch_client_nrf52840_xxAA_s140_6.0.0.dir/__/__/common/src/rtt_input.c.obj
 .data          0x00000000        0x0 examples/light_switch/client/CMakeFiles/light_switch_client_nrf52840_xxAA_s140_6.0.0.dir/__/__/common/src/rtt_input.c.obj
 .bss           0x00000000        0x0 examples/light_switch/client/CMakeFiles/light_switch_client_nrf52840_xxAA_s140_6.0.0.dir/__/__/common/src/rtt_input.c.obj
 .text.rtt_input_disable
                0x00000000       0x28 examples/light_switch/client/CMakeFiles/light_switch_client_nrf52840_xxAA_s140_6.0.0.dir/__/__/common/src/rtt_input.c.obj
 .text          0x00000000        0x0 examples/light_switch/client/CMakeFiles/light_switch_client_nrf52840_xxAA_s140_6.0.0.dir/__/__/common/src/simple_hal.c.obj
 .data          0x00000000        0x0 examples/light_switch/client/CMakeFiles/light_switch_client_nrf52840_xxAA_s140_6.0.0.dir/__/__/common/src/simple_hal.c.obj
 .bss           0x00000000        0x0 examples/light_switch/client/CMakeFiles/light_switch_client_nrf52840_xxAA_s140_6.0.0.dir/__/__/common/src/simple_hal.c.obj
 .text          0x00000000        0x0 examples/light_switch/client/CMakeFiles/light_switch_client_nrf52840_xxAA_s140_6.0.0.dir/__/__/nrf_mesh_weak.c.obj
 .data          0x00000000        0x0 examples/light_switch/client/CMakeFiles/light_switch_client_nrf52840_xxAA_s140_6.0.0.dir/__/__/nrf_mesh_weak.c.obj
 .bss           0x00000000        0x0 examples/light_switch/client/CMakeFiles/light_switch_client_nrf52840_xxAA_s140_6.0.0.dir/__/__/nrf_mesh_weak.c.obj
 .text._weak_handler_ptr
                0x00000000        0x4 examples/light_switch/client/CMakeFiles/light_switch_client_nrf52840_xxAA_s140_6.0.0.dir/__/__/nrf_mesh_weak.c.obj
 .text          0x00000000        0x0 examples/light_switch/client/CMakeFiles/light_switch_client_nrf52840_xxAA_s140_6.0.0.dir/__/__/common/src/app_error_weak.c.obj
 .data          0x00000000        0x0 examples/light_switch/client/CMakeFiles/light_switch_client_nrf52840_xxAA_s140_6.0.0.dir/__/__/common/src/app_error_weak.c.obj
 .bss           0x00000000        0x0 examples/light_switch/client/CMakeFiles/light_switch_client_nrf52840_xxAA_s140_6.0.0.dir/__/__/common/src/app_error_weak.c.obj
 .text          0x00000000        0x0 examples/light_switch/client/CMakeFiles/light_switch_client_nrf52840_xxAA_s140_6.0.0.dir/__/__/common/src/assertion_handler_weak.c.obj
 .data          0x00000000        0x0 examples/light_switch/client/CMakeFiles/light_switch_client_nrf52840_xxAA_s140_6.0.0.dir/__/__/common/src/assertion_handler_weak.c.obj
 .bss           0x00000000        0x0 examples/light_switch/client/CMakeFiles/light_switch_client_nrf52840_xxAA_s140_6.0.0.dir/__/__/common/src/assertion_handler_weak.c.obj
 .text          0x00000000        0x0 examples/light_switch/client/CMakeFiles/light_switch_client_nrf52840_xxAA_s140_6.0.0.dir/__/__/__/mesh/core/src/internal_event.c.obj
 .data          0x00000000        0x0 examples/light_switch/client/CMakeFiles/light_switch_client_nrf52840_xxAA_s140_6.0.0.dir/__/__/__/mesh/core/src/internal_event.c.obj
 .bss           0x00000000        0x0 examples/light_switch/client/CMakeFiles/light_switch_client_nrf52840_xxAA_s140_6.0.0.dir/__/__/__/mesh/core/src/internal_event.c.obj
 .debug_info    0x00000000      0x8f2 examples/light_switch/client/CMakeFiles/light_switch_client_nrf52840_xxAA_s140_6.0.0.dir/__/__/__/mesh/core/src/internal_event.c.obj
 .debug_abbrev  0x00000000      0x192 examples/light_switch/client/CMakeFiles/light_switch_client_nrf52840_xxAA_s140_6.0.0.dir/__/__/__/mesh/core/src/internal_event.c.obj
 .debug_aranges
                0x00000000       0x18 examples/light_switch/client/CMakeFiles/light_switch_client_nrf52840_xxAA_s140_6.0.0.dir/__/__/__/mesh/core/src/internal_event.c.obj
 .debug_line    0x00000000      0x1a6 examples/light_switch/client/CMakeFiles/light_switch_client_nrf52840_xxAA_s140_6.0.0.dir/__/__/__/mesh/core/src/internal_event.c.obj
 .debug_str     0x00000000      0x602 examples/light_switch/client/CMakeFiles/light_switch_client_nrf52840_xxAA_s140_6.0.0.dir/__/__/__/mesh/core/src/internal_event.c.obj
 .comment       0x00000000       0x80 examples/light_switch/client/CMakeFiles/light_switch_client_nrf52840_xxAA_s140_6.0.0.dir/__/__/__/mesh/core/src/internal_event.c.obj
 .ARM.attributes
                0x00000000       0x39 examples/light_switch/client/CMakeFiles/light_switch_client_nrf52840_xxAA_s140_6.0.0.dir/__/__/__/mesh/core/src/internal_event.c.obj
 .text          0x00000000        0x0 examples/light_switch/client/CMakeFiles/light_switch_client_nrf52840_xxAA_s140_6.0.0.dir/__/__/__/mesh/core/src/nrf_mesh_configure.c.obj
 .data          0x00000000        0x0 examples/light_switch/client/CMakeFiles/light_switch_client_nrf52840_xxAA_s140_6.0.0.dir/__/__/__/mesh/core/src/nrf_mesh_configure.c.obj
 .bss           0x00000000        0x0 examples/light_switch/client/CMakeFiles/light_switch_client_nrf52840_xxAA_s140_6.0.0.dir/__/__/__/mesh/core/src/nrf_mesh_configure.c.obj
 .text          0x00000000        0x0 examples/light_switch/client/CMakeFiles/light_switch_client_nrf52840_xxAA_s140_6.0.0.dir/__/__/__/mesh/core/src/aes.c.obj
 .data          0x00000000        0x0 examples/light_switch/client/CMakeFiles/light_switch_client_nrf52840_xxAA_s140_6.0.0.dir/__/__/__/mesh/core/src/aes.c.obj
 .bss           0x00000000        0x0 examples/light_switch/client/CMakeFiles/light_switch_client_nrf52840_xxAA_s140_6.0.0.dir/__/__/__/mesh/core/src/aes.c.obj
 .debug_info    0x00000000       0xb3 examples/light_switch/client/CMakeFiles/light_switch_client_nrf52840_xxAA_s140_6.0.0.dir/__/__/__/mesh/core/src/aes.c.obj
 .debug_abbrev  0x00000000       0x5c examples/light_switch/client/CMakeFiles/light_switch_client_nrf52840_xxAA_s140_6.0.0.dir/__/__/__/mesh/core/src/aes.c.obj
 .debug_aranges
                0x00000000       0x18 examples/light_switch/client/CMakeFiles/light_switch_client_nrf52840_xxAA_s140_6.0.0.dir/__/__/__/mesh/core/src/aes.c.obj
 .debug_line    0x00000000      0x127 examples/light_switch/client/CMakeFiles/light_switch_client_nrf52840_xxAA_s140_6.0.0.dir/__/__/__/mesh/core/src/aes.c.obj
 .debug_str     0x00000000      0x1f4 examples/light_switch/client/CMakeFiles/light_switch_client_nrf52840_xxAA_s140_6.0.0.dir/__/__/__/mesh/core/src/aes.c.obj
 .comment       0x00000000       0x80 examples/light_switch/client/CMakeFiles/light_switch_client_nrf52840_xxAA_s140_6.0.0.dir/__/__/__/mesh/core/src/aes.c.obj
 .ARM.attributes
                0x00000000       0x39 examples/light_switch/client/CMakeFiles/light_switch_client_nrf52840_xxAA_s140_6.0.0.dir/__/__/__/mesh/core/src/aes.c.obj
 .text          0x00000000        0x0 examples/light_switch/client/CMakeFiles/light_switch_client_nrf52840_xxAA_s140_6.0.0.dir/__/__/__/mesh/core/src/msg_cache.c.obj
 .data          0x00000000        0x0 examples/light_switch/client/CMakeFiles/light_switch_client_nrf52840_xxAA_s140_6.0.0.dir/__/__/__/mesh/core/src/msg_cache.c.obj
 .bss           0x00000000        0x0 examples/light_switch/client/CMakeFiles/light_switch_client_nrf52840_xxAA_s140_6.0.0.dir/__/__/__/mesh/core/src/msg_cache.c.obj
 .text.msg_cache_clear
                0x00000000       0x18 examples/light_switch/client/CMakeFiles/light_switch_client_nrf52840_xxAA_s140_6.0.0.dir/__/__/__/mesh/core/src/msg_cache.c.obj
 .text          0x00000000        0x0 examples/light_switch/client/CMakeFiles/light_switch_client_nrf52840_xxAA_s140_6.0.0.dir/__/__/__/mesh/core/src/transport.c.obj
 .data          0x00000000        0x0 examples/light_switch/client/CMakeFiles/light_switch_client_nrf52840_xxAA_s140_6.0.0.dir/__/__/__/mesh/core/src/transport.c.obj
 .bss           0x00000000        0x0 examples/light_switch/client/CMakeFiles/light_switch_client_nrf52840_xxAA_s140_6.0.0.dir/__/__/__/mesh/core/src/transport.c.obj
 .text.transport_sar_mem_funcs_set
                0x00000000       0x44 examples/light_switch/client/CMakeFiles/light_switch_client_nrf52840_xxAA_s140_6.0.0.dir/__/__/__/mesh/core/src/transport.c.obj
 .text          0x00000000        0x0 examples/light_switch/client/CMakeFiles/light_switch_client_nrf52840_xxAA_s140_6.0.0.dir/__/__/__/mesh/core/src/event.c.obj
 .data          0x00000000        0x0 examples/light_switch/client/CMakeFiles/light_switch_client_nrf52840_xxAA_s140_6.0.0.dir/__/__/__/mesh/core/src/event.c.obj
 .bss           0x00000000        0x0 examples/light_switch/client/CMakeFiles/light_switch_client_nrf52840_xxAA_s140_6.0.0.dir/__/__/__/mesh/core/src/event.c.obj
 .text          0x00000000        0x0 examples/light_switch/client/CMakeFiles/light_switch_client_nrf52840_xxAA_s140_6.0.0.dir/__/__/__/mesh/core/src/packet_buffer.c.obj
 .data          0x00000000        0x0 examples/light_switch/client/CMakeFiles/light_switch_client_nrf52840_xxAA_s140_6.0.0.dir/__/__/__/mesh/core/src/packet_buffer.c.obj
 .bss           0x00000000        0x0 examples/light_switch/client/CMakeFiles/light_switch_client_nrf52840_xxAA_s140_6.0.0.dir/__/__/__/mesh/core/src/packet_buffer.c.obj
 .text.packet_buffer_max_packet_len_get
                0x00000000       0x20 examples/light_switch/client/CMakeFiles/light_switch_client_nrf52840_xxAA_s140_6.0.0.dir/__/__/__/mesh/core/src/packet_buffer.c.obj
 .text          0x00000000        0x0 examples/light_switch/client/CMakeFiles/light_switch_client_nrf52840_xxAA_s140_6.0.0.dir/__/__/__/mesh/core/src/flash_manager_defrag.c.obj
 .data          0x00000000        0x0 examples/light_switch/client/CMakeFiles/light_switch_client_nrf52840_xxAA_s140_6.0.0.dir/__/__/__/mesh/core/src/flash_manager_defrag.c.obj
 .bss           0x00000000        0x0 examples/light_switch/client/CMakeFiles/light_switch_client_nrf52840_xxAA_s140_6.0.0.dir/__/__/__/mesh/core/src/flash_manager_defrag.c.obj
 .text.flash_manager_defragging
                0x00000000       0x38 examples/light_switch/client/CMakeFiles/light_switch_client_nrf52840_xxAA_s140_6.0.0.dir/__/__/__/mesh/core/src/flash_manager_defrag.c.obj
 .text          0x00000000        0x0 examples/light_switch/client/CMakeFiles/light_switch_client_nrf52840_xxAA_s140_6.0.0.dir/__/__/__/mesh/core/src/fifo.c.obj
 .data          0x00000000        0x0 examples/light_switch/client/CMakeFiles/light_switch_client_nrf52840_xxAA_s140_6.0.0.dir/__/__/__/mesh/core/src/fifo.c.obj
 .bss           0x00000000        0x0 examples/light_switch/client/CMakeFiles/light_switch_client_nrf52840_xxAA_s140_6.0.0.dir/__/__/__/mesh/core/src/fifo.c.obj
 .text.fifo_peek_at
                0x00000000       0x50 examples/light_switch/client/CMakeFiles/light_switch_client_nrf52840_xxAA_s140_6.0.0.dir/__/__/__/mesh/core/src/fifo.c.obj
 .text.fifo_peek
                0x00000000        0x6 examples/light_switch/client/CMakeFiles/light_switch_client_nrf52840_xxAA_s140_6.0.0.dir/__/__/__/mesh/core/src/fifo.c.obj
 .text.fifo_flush
                0x00000000        0x6 examples/light_switch/client/CMakeFiles/light_switch_client_nrf52840_xxAA_s140_6.0.0.dir/__/__/__/mesh/core/src/fifo.c.obj
 .text.fifo_get_len
                0x00000000        0x8 examples/light_switch/client/CMakeFiles/light_switch_client_nrf52840_xxAA_s140_6.0.0.dir/__/__/__/mesh/core/src/fifo.c.obj
 .text.fifo_is_full
                0x00000000       0x10 examples/light_switch/client/CMakeFiles/light_switch_client_nrf52840_xxAA_s140_6.0.0.dir/__/__/__/mesh/core/src/fifo.c.obj
 .text.fifo_is_empty
                0x00000000        0xc examples/light_switch/client/CMakeFiles/light_switch_client_nrf52840_xxAA_s140_6.0.0.dir/__/__/__/mesh/core/src/fifo.c.obj
 .text          0x00000000        0x0 examples/light_switch/client/CMakeFiles/light_switch_client_nrf52840_xxAA_s140_6.0.0.dir/__/__/__/mesh/core/src/nrf_flash.c.obj
 .data          0x00000000        0x0 examples/light_switch/client/CMakeFiles/light_switch_client_nrf52840_xxAA_s140_6.0.0.dir/__/__/__/mesh/core/src/nrf_flash.c.obj
 .bss           0x00000000        0x0 examples/light_switch/client/CMakeFiles/light_switch_client_nrf52840_xxAA_s140_6.0.0.dir/__/__/__/mesh/core/src/nrf_flash.c.obj
 .text          0x00000000        0x0 examples/light_switch/client/CMakeFiles/light_switch_client_nrf52840_xxAA_s140_6.0.0.dir/__/__/__/mesh/core/src/packet_mgr.c.obj
 .data          0x00000000        0x0 examples/light_switch/client/CMakeFiles/light_switch_client_nrf52840_xxAA_s140_6.0.0.dir/__/__/__/mesh/core/src/packet_mgr.c.obj
 .bss           0x00000000        0x0 examples/light_switch/client/CMakeFiles/light_switch_client_nrf52840_xxAA_s140_6.0.0.dir/__/__/__/mesh/core/src/packet_mgr.c.obj
 .text.packet_mgr_alloc
                0x00000000      0x17c examples/light_switch/client/CMakeFiles/light_switch_client_nrf52840_xxAA_s140_6.0.0.dir/__/__/__/mesh/core/src/packet_mgr.c.obj
 .text.packet_mgr_free
                0x00000000       0x58 examples/light_switch/client/CMakeFiles/light_switch_client_nrf52840_xxAA_s140_6.0.0.dir/__/__/__/mesh/core/src/packet_mgr.c.obj
 .text.packet_mgr_get_free_space
                0x00000000       0x1c examples/light_switch/client/CMakeFiles/light_switch_client_nrf52840_xxAA_s140_6.0.0.dir/__/__/__/mesh/core/src/packet_mgr.c.obj
 .text.packet_mgr_refcount_get
                0x00000000        0x6 examples/light_switch/client/CMakeFiles/light_switch_client_nrf52840_xxAA_s140_6.0.0.dir/__/__/__/mesh/core/src/packet_mgr.c.obj
 .text.packet_mgr_size_get
                0x00000000        0x6 examples/light_switch/client/CMakeFiles/light_switch_client_nrf52840_xxAA_s140_6.0.0.dir/__/__/__/mesh/core/src/packet_mgr.c.obj
 .text          0x00000000        0x0 examples/light_switch/client/CMakeFiles/light_switch_client_nrf52840_xxAA_s140_6.0.0.dir/__/__/__/mesh/core/src/net_state.c.obj
 .data          0x00000000        0x0 examples/light_switch/client/CMakeFiles/light_switch_client_nrf52840_xxAA_s140_6.0.0.dir/__/__/__/mesh/core/src/net_state.c.obj
 .bss           0x00000000        0x0 examples/light_switch/client/CMakeFiles/light_switch_client_nrf52840_xxAA_s140_6.0.0.dir/__/__/__/mesh/core/src/net_state.c.obj
 .text.net_state_iv_update_test_mode_set
                0x00000000        0xc examples/light_switch/client/CMakeFiles/light_switch_client_nrf52840_xxAA_s140_6.0.0.dir/__/__/__/mesh/core/src/net_state.c.obj
 .text.net_state_test_mode_transition_run
                0x00000000       0x2c examples/light_switch/client/CMakeFiles/light_switch_client_nrf52840_xxAA_s140_6.0.0.dir/__/__/__/mesh/core/src/net_state.c.obj
 .text          0x00000000        0x0 examples/light_switch/client/CMakeFiles/light_switch_client_nrf52840_xxAA_s140_6.0.0.dir/__/__/__/mesh/core/src/mesh_flash.c.obj
 .data          0x00000000        0x0 examples/light_switch/client/CMakeFiles/light_switch_client_nrf52840_xxAA_s140_6.0.0.dir/__/__/__/mesh/core/src/mesh_flash.c.obj
 .bss           0x00000000        0x0 examples/light_switch/client/CMakeFiles/light_switch_client_nrf52840_xxAA_s140_6.0.0.dir/__/__/__/mesh/core/src/mesh_flash.c.obj
 .text.mesh_flash_op_available_slots
                0x00000000       0x2c examples/light_switch/client/CMakeFiles/light_switch_client_nrf52840_xxAA_s140_6.0.0.dir/__/__/__/mesh/core/src/mesh_flash.c.obj
 .text.mesh_flash_in_progress
                0x00000000       0x34 examples/light_switch/client/CMakeFiles/light_switch_client_nrf52840_xxAA_s140_6.0.0.dir/__/__/__/mesh/core/src/mesh_flash.c.obj
 .text.mesh_flash_set_suspended
                0x00000000       0x74 examples/light_switch/client/CMakeFiles/light_switch_client_nrf52840_xxAA_s140_6.0.0.dir/__/__/__/mesh/core/src/mesh_flash.c.obj
 .bss.suspend_count.10421
                0x00000000        0x4 examples/light_switch/client/CMakeFiles/light_switch_client_nrf52840_xxAA_s140_6.0.0.dir/__/__/__/mesh/core/src/mesh_flash.c.obj
 .text          0x00000000        0x0 examples/light_switch/client/CMakeFiles/light_switch_client_nrf52840_xxAA_s140_6.0.0.dir/__/__/__/mesh/core/src/nrf_mesh_utils.c.obj
 .data          0x00000000        0x0 examples/light_switch/client/CMakeFiles/light_switch_client_nrf52840_xxAA_s140_6.0.0.dir/__/__/__/mesh/core/src/nrf_mesh_utils.c.obj
 .bss           0x00000000        0x0 examples/light_switch/client/CMakeFiles/light_switch_client_nrf52840_xxAA_s140_6.0.0.dir/__/__/__/mesh/core/src/nrf_mesh_utils.c.obj
 .text.nrf_mesh_rand_get
                0x00000000       0x10 examples/light_switch/client/CMakeFiles/light_switch_client_nrf52840_xxAA_s140_6.0.0.dir/__/__/__/mesh/core/src/nrf_mesh_utils.c.obj
 .text.nrf_mesh_gap_address_type_get
                0x00000000       0x30 examples/light_switch/client/CMakeFiles/light_switch_client_nrf52840_xxAA_s140_6.0.0.dir/__/__/__/mesh/core/src/nrf_mesh_utils.c.obj
 .text          0x00000000        0x0 examples/light_switch/client/CMakeFiles/light_switch_client_nrf52840_xxAA_s140_6.0.0.dir/__/__/__/mesh/core/src/nrf_mesh.c.obj
 .data          0x00000000        0x0 examples/light_switch/client/CMakeFiles/light_switch_client_nrf52840_xxAA_s140_6.0.0.dir/__/__/__/mesh/core/src/nrf_mesh.c.obj
 .bss           0x00000000        0x0 examples/light_switch/client/CMakeFiles/light_switch_client_nrf52840_xxAA_s140_6.0.0.dir/__/__/__/mesh/core/src/nrf_mesh.c.obj
 .text.nrf_mesh_disable
                0x00000000       0x28 examples/light_switch/client/CMakeFiles/light_switch_client_nrf52840_xxAA_s140_6.0.0.dir/__/__/__/mesh/core/src/nrf_mesh.c.obj
 .text.nrf_mesh_process
                0x00000000        0x4 examples/light_switch/client/CMakeFiles/light_switch_client_nrf52840_xxAA_s140_6.0.0.dir/__/__/__/mesh/core/src/nrf_mesh.c.obj
 .text.nrf_mesh_evt_handler_remove
                0x00000000        0x4 examples/light_switch/client/CMakeFiles/light_switch_client_nrf52840_xxAA_s140_6.0.0.dir/__/__/__/mesh/core/src/nrf_mesh.c.obj
 .text.nrf_mesh_rx_cb_set
                0x00000000        0xc examples/light_switch/client/CMakeFiles/light_switch_client_nrf52840_xxAA_s140_6.0.0.dir/__/__/__/mesh/core/src/nrf_mesh.c.obj
 .text.nrf_mesh_rx_cb_clear
                0x00000000        0xc examples/light_switch/client/CMakeFiles/light_switch_client_nrf52840_xxAA_s140_6.0.0.dir/__/__/__/mesh/core/src/nrf_mesh.c.obj
 .text          0x00000000        0x0 examples/light_switch/client/CMakeFiles/light_switch_client_nrf52840_xxAA_s140_6.0.0.dir/__/__/__/mesh/core/src/queue.c.obj
 .data          0x00000000        0x0 examples/light_switch/client/CMakeFiles/light_switch_client_nrf52840_xxAA_s140_6.0.0.dir/__/__/__/mesh/core/src/queue.c.obj
 .bss           0x00000000        0x0 examples/light_switch/client/CMakeFiles/light_switch_client_nrf52840_xxAA_s140_6.0.0.dir/__/__/__/mesh/core/src/queue.c.obj
 .text          0x00000000        0x0 examples/light_switch/client/CMakeFiles/light_switch_client_nrf52840_xxAA_s140_6.0.0.dir/__/__/__/mesh/core/src/hal.c.obj
 .data          0x00000000        0x0 examples/light_switch/client/CMakeFiles/light_switch_client_nrf52840_xxAA_s140_6.0.0.dir/__/__/__/mesh/core/src/hal.c.obj
 .bss           0x00000000        0x0 examples/light_switch/client/CMakeFiles/light_switch_client_nrf52840_xxAA_s140_6.0.0.dir/__/__/__/mesh/core/src/hal.c.obj
 .text          0x00000000        0x0 examples/light_switch/client/CMakeFiles/light_switch_client_nrf52840_xxAA_s140_6.0.0.dir/__/__/__/mesh/core/src/aes_cmac.c.obj
 .data          0x00000000        0x0 examples/light_switch/client/CMakeFiles/light_switch_client_nrf52840_xxAA_s140_6.0.0.dir/__/__/__/mesh/core/src/aes_cmac.c.obj
 .bss           0x00000000        0x0 examples/light_switch/client/CMakeFiles/light_switch_client_nrf52840_xxAA_s140_6.0.0.dir/__/__/__/mesh/core/src/aes_cmac.c.obj
 .text          0x00000000        0x0 examples/light_switch/client/CMakeFiles/light_switch_client_nrf52840_xxAA_s140_6.0.0.dir/__/__/__/mesh/core/src/timer_scheduler.c.obj
 .data          0x00000000        0x0 examples/light_switch/client/CMakeFiles/light_switch_client_nrf52840_xxAA_s140_6.0.0.dir/__/__/__/mesh/core/src/timer_scheduler.c.obj
 .bss           0x00000000        0x0 examples/light_switch/client/CMakeFiles/light_switch_client_nrf52840_xxAA_s140_6.0.0.dir/__/__/__/mesh/core/src/timer_scheduler.c.obj
 .text          0x00000000        0x0 examples/light_switch/client/CMakeFiles/light_switch_client_nrf52840_xxAA_s140_6.0.0.dir/__/__/__/mesh/core/src/timer.c.obj
 .data          0x00000000        0x0 examples/light_switch/client/CMakeFiles/light_switch_client_nrf52840_xxAA_s140_6.0.0.dir/__/__/__/mesh/core/src/timer.c.obj
 .bss           0x00000000        0x0 examples/light_switch/client/CMakeFiles/light_switch_client_nrf52840_xxAA_s140_6.0.0.dir/__/__/__/mesh/core/src/timer.c.obj
 .text.timer_order_cb_ppi
                0x00000000       0xc4 examples/light_switch/client/CMakeFiles/light_switch_client_nrf52840_xxAA_s140_6.0.0.dir/__/__/__/mesh/core/src/timer.c.obj
 .text.timer_order_ppi
                0x00000000       0xc0 examples/light_switch/client/CMakeFiles/light_switch_client_nrf52840_xxAA_s140_6.0.0.dir/__/__/__/mesh/core/src/timer.c.obj
 .text.timer_abort
                0x00000000       0x78 examples/light_switch/client/CMakeFiles/light_switch_client_nrf52840_xxAA_s140_6.0.0.dir/__/__/__/mesh/core/src/timer.c.obj
 .text          0x00000000        0x0 examples/light_switch/client/CMakeFiles/light_switch_client_nrf52840_xxAA_s140_6.0.0.dir/__/__/__/mesh/core/src/ticker.c.obj
 .data          0x00000000        0x0 examples/light_switch/client/CMakeFiles/light_switch_client_nrf52840_xxAA_s140_6.0.0.dir/__/__/__/mesh/core/src/ticker.c.obj
 .bss           0x00000000        0x0 examples/light_switch/client/CMakeFiles/light_switch_client_nrf52840_xxAA_s140_6.0.0.dir/__/__/__/mesh/core/src/ticker.c.obj
 .text.ticker_get
                0x00000000        0xc examples/light_switch/client/CMakeFiles/light_switch_client_nrf52840_xxAA_s140_6.0.0.dir/__/__/__/mesh/core/src/ticker.c.obj
 .text          0x00000000        0x0 examples/light_switch/client/CMakeFiles/light_switch_client_nrf52840_xxAA_s140_6.0.0.dir/__/__/__/mesh/core/src/rand.c.obj
 .data          0x00000000        0x0 examples/light_switch/client/CMakeFiles/light_switch_client_nrf52840_xxAA_s140_6.0.0.dir/__/__/__/mesh/core/src/rand.c.obj
 .bss           0x00000000        0x0 examples/light_switch/client/CMakeFiles/light_switch_client_nrf52840_xxAA_s140_6.0.0.dir/__/__/__/mesh/core/src/rand.c.obj
 .text          0x00000000        0x0 examples/light_switch/client/CMakeFiles/light_switch_client_nrf52840_xxAA_s140_6.0.0.dir/__/__/__/mesh/core/src/nrf_mesh_opt.c.obj
 .data          0x00000000        0x0 examples/light_switch/client/CMakeFiles/light_switch_client_nrf52840_xxAA_s140_6.0.0.dir/__/__/__/mesh/core/src/nrf_mesh_opt.c.obj
 .bss           0x00000000        0x0 examples/light_switch/client/CMakeFiles/light_switch_client_nrf52840_xxAA_s140_6.0.0.dir/__/__/__/mesh/core/src/nrf_mesh_opt.c.obj
 .text          0x00000000        0x0 examples/light_switch/client/CMakeFiles/light_switch_client_nrf52840_xxAA_s140_6.0.0.dir/__/__/__/mesh/core/src/timeslot.c.obj
 .data          0x00000000        0x0 examples/light_switch/client/CMakeFiles/light_switch_client_nrf52840_xxAA_s140_6.0.0.dir/__/__/__/mesh/core/src/timeslot.c.obj
 .bss           0x00000000        0x0 examples/light_switch/client/CMakeFiles/light_switch_client_nrf52840_xxAA_s140_6.0.0.dir/__/__/__/mesh/core/src/timeslot.c.obj
 .text.timeslot_end_time_get
                0x00000000       0x10 examples/light_switch/client/CMakeFiles/light_switch_client_nrf52840_xxAA_s140_6.0.0.dir/__/__/__/mesh/core/src/timeslot.c.obj
 .text.timeslot_is_in_ts
                0x00000000        0xc examples/light_switch/client/CMakeFiles/light_switch_client_nrf52840_xxAA_s140_6.0.0.dir/__/__/__/mesh/core/src/timeslot.c.obj
 .text.timeslot_restart
                0x00000000       0x10 examples/light_switch/client/CMakeFiles/light_switch_client_nrf52840_xxAA_s140_6.0.0.dir/__/__/__/mesh/core/src/timeslot.c.obj
 .text          0x00000000        0x0 examples/light_switch/client/CMakeFiles/light_switch_client_nrf52840_xxAA_s140_6.0.0.dir/__/__/__/mesh/core/src/bearer_event.c.obj
 .data          0x00000000        0x0 examples/light_switch/client/CMakeFiles/light_switch_client_nrf52840_xxAA_s140_6.0.0.dir/__/__/__/mesh/core/src/bearer_event.c.obj
 .bss           0x00000000        0x0 examples/light_switch/client/CMakeFiles/light_switch_client_nrf52840_xxAA_s140_6.0.0.dir/__/__/__/mesh/core/src/bearer_event.c.obj
 .text.bearer_event_generic_post
                0x00000000       0x24 examples/light_switch/client/CMakeFiles/light_switch_client_nrf52840_xxAA_s140_6.0.0.dir/__/__/__/mesh/core/src/bearer_event.c.obj
 .text.bearer_event_timer_sch_post
                0x00000000       0x26 examples/light_switch/client/CMakeFiles/light_switch_client_nrf52840_xxAA_s140_6.0.0.dir/__/__/__/mesh/core/src/bearer_event.c.obj
 .text.bearer_event_in_correct_irq_priority
                0x00000000       0x48 examples/light_switch/client/CMakeFiles/light_switch_client_nrf52840_xxAA_s140_6.0.0.dir/__/__/__/mesh/core/src/bearer_event.c.obj
 .text          0x00000000        0x0 examples/light_switch/client/CMakeFiles/light_switch_client_nrf52840_xxAA_s140_6.0.0.dir/__/__/__/mesh/core/src/enc.c.obj
 .data          0x00000000        0x0 examples/light_switch/client/CMakeFiles/light_switch_client_nrf52840_xxAA_s140_6.0.0.dir/__/__/__/mesh/core/src/enc.c.obj
 .bss           0x00000000        0x0 examples/light_switch/client/CMakeFiles/light_switch_client_nrf52840_xxAA_s140_6.0.0.dir/__/__/__/mesh/core/src/enc.c.obj
 .text.enc_key_generate
                0x00000000        0x6 examples/light_switch/client/CMakeFiles/light_switch_client_nrf52840_xxAA_s140_6.0.0.dir/__/__/__/mesh/core/src/enc.c.obj
 .text          0x00000000        0x0 examples/light_switch/client/CMakeFiles/light_switch_client_nrf52840_xxAA_s140_6.0.0.dir/__/__/__/mesh/core/src/network.c.obj
 .data          0x00000000        0x0 examples/light_switch/client/CMakeFiles/light_switch_client_nrf52840_xxAA_s140_6.0.0.dir/__/__/__/mesh/core/src/network.c.obj
 .bss           0x00000000        0x0 examples/light_switch/client/CMakeFiles/light_switch_client_nrf52840_xxAA_s140_6.0.0.dir/__/__/__/mesh/core/src/network.c.obj
 .text.network_packet_discard
                0x00000000       0x1e examples/light_switch/client/CMakeFiles/light_switch_client_nrf52840_xxAA_s140_6.0.0.dir/__/__/__/mesh/core/src/network.c.obj
 .text          0x00000000        0x0 examples/light_switch/client/CMakeFiles/light_switch_client_nrf52840_xxAA_s140_6.0.0.dir/__/__/__/mesh/core/src/net_packet.c.obj
 .data          0x00000000        0x0 examples/light_switch/client/CMakeFiles/light_switch_client_nrf52840_xxAA_s140_6.0.0.dir/__/__/__/mesh/core/src/net_packet.c.obj
 .bss           0x00000000        0x0 examples/light_switch/client/CMakeFiles/light_switch_client_nrf52840_xxAA_s140_6.0.0.dir/__/__/__/mesh/core/src/net_packet.c.obj
 .text.net_packet_enc_start_get
                0x00000000        0x4 examples/light_switch/client/CMakeFiles/light_switch_client_nrf52840_xxAA_s140_6.0.0.dir/__/__/__/mesh/core/src/net_packet.c.obj
 .text.net_packet_payload_get
                0x00000000        0x4 examples/light_switch/client/CMakeFiles/light_switch_client_nrf52840_xxAA_s140_6.0.0.dir/__/__/__/mesh/core/src/net_packet.c.obj
 .text          0x00000000        0x0 examples/light_switch/client/CMakeFiles/light_switch_client_nrf52840_xxAA_s140_6.0.0.dir/__/__/__/mesh/core/src/msqueue.c.obj
 .data          0x00000000        0x0 examples/light_switch/client/CMakeFiles/light_switch_client_nrf52840_xxAA_s140_6.0.0.dir/__/__/__/mesh/core/src/msqueue.c.obj
 .bss           0x00000000        0x0 examples/light_switch/client/CMakeFiles/light_switch_client_nrf52840_xxAA_s140_6.0.0.dir/__/__/__/mesh/core/src/msqueue.c.obj
 .text          0x00000000        0x0 examples/light_switch/client/CMakeFiles/light_switch_client_nrf52840_xxAA_s140_6.0.0.dir/__/__/__/mesh/core/src/nrf_mesh_keygen.c.obj
 .data          0x00000000        0x0 examples/light_switch/client/CMakeFiles/light_switch_client_nrf52840_xxAA_s140_6.0.0.dir/__/__/__/mesh/core/src/nrf_mesh_keygen.c.obj
 .bss           0x00000000        0x0 examples/light_switch/client/CMakeFiles/light_switch_client_nrf52840_xxAA_s140_6.0.0.dir/__/__/__/mesh/core/src/nrf_mesh_keygen.c.obj
 .text.nrf_mesh_keygen_identitykey
                0x00000000       0x4c examples/light_switch/client/CMakeFiles/light_switch_client_nrf52840_xxAA_s140_6.0.0.dir/__/__/__/mesh/core/src/nrf_mesh_keygen.c.obj
 .text          0x00000000        0x0 examples/light_switch/client/CMakeFiles/light_switch_client_nrf52840_xxAA_s140_6.0.0.dir/__/__/__/mesh/core/src/cache.c.obj
 .data          0x00000000        0x0 examples/light_switch/client/CMakeFiles/light_switch_client_nrf52840_xxAA_s140_6.0.0.dir/__/__/__/mesh/core/src/cache.c.obj
 .bss           0x00000000        0x0 examples/light_switch/client/CMakeFiles/light_switch_client_nrf52840_xxAA_s140_6.0.0.dir/__/__/__/mesh/core/src/cache.c.obj
 .text.erase_at
                0x00000000       0x1c examples/light_switch/client/CMakeFiles/light_switch_client_nrf52840_xxAA_s140_6.0.0.dir/__/__/__/mesh/core/src/cache.c.obj
 .text.cache_init
                0x00000000       0x1e examples/light_switch/client/CMakeFiles/light_switch_client_nrf52840_xxAA_s140_6.0.0.dir/__/__/__/mesh/core/src/cache.c.obj
 .text.cache_has_elem
                0x00000000       0x3e examples/light_switch/client/CMakeFiles/light_switch_client_nrf52840_xxAA_s140_6.0.0.dir/__/__/__/mesh/core/src/cache.c.obj
 .text.cache_put
                0x00000000       0x2a examples/light_switch/client/CMakeFiles/light_switch_client_nrf52840_xxAA_s140_6.0.0.dir/__/__/__/mesh/core/src/cache.c.obj
 .text.cache_erase_elem
                0x00000000       0x4c examples/light_switch/client/CMakeFiles/light_switch_client_nrf52840_xxAA_s140_6.0.0.dir/__/__/__/mesh/core/src/cache.c.obj
 .debug_info    0x00000000      0xbe1 examples/light_switch/client/CMakeFiles/light_switch_client_nrf52840_xxAA_s140_6.0.0.dir/__/__/__/mesh/core/src/cache.c.obj
 .debug_abbrev  0x00000000      0x2a3 examples/light_switch/client/CMakeFiles/light_switch_client_nrf52840_xxAA_s140_6.0.0.dir/__/__/__/mesh/core/src/cache.c.obj
 .debug_loc     0x00000000      0x29b examples/light_switch/client/CMakeFiles/light_switch_client_nrf52840_xxAA_s140_6.0.0.dir/__/__/__/mesh/core/src/cache.c.obj
 .debug_aranges
                0x00000000       0x40 examples/light_switch/client/CMakeFiles/light_switch_client_nrf52840_xxAA_s140_6.0.0.dir/__/__/__/mesh/core/src/cache.c.obj
 .debug_ranges  0x00000000       0x80 examples/light_switch/client/CMakeFiles/light_switch_client_nrf52840_xxAA_s140_6.0.0.dir/__/__/__/mesh/core/src/cache.c.obj
 .debug_line    0x00000000      0x21e examples/light_switch/client/CMakeFiles/light_switch_client_nrf52840_xxAA_s140_6.0.0.dir/__/__/__/mesh/core/src/cache.c.obj
 .debug_str     0x00000000      0x6af examples/light_switch/client/CMakeFiles/light_switch_client_nrf52840_xxAA_s140_6.0.0.dir/__/__/__/mesh/core/src/cache.c.obj
 .comment       0x00000000       0x80 examples/light_switch/client/CMakeFiles/light_switch_client_nrf52840_xxAA_s140_6.0.0.dir/__/__/__/mesh/core/src/cache.c.obj
 .debug_frame   0x00000000       0xb0 examples/light_switch/client/CMakeFiles/light_switch_client_nrf52840_xxAA_s140_6.0.0.dir/__/__/__/mesh/core/src/cache.c.obj
 .ARM.attributes
                0x00000000       0x39 examples/light_switch/client/CMakeFiles/light_switch_client_nrf52840_xxAA_s140_6.0.0.dir/__/__/__/mesh/core/src/cache.c.obj
 .text          0x00000000        0x0 examples/light_switch/client/CMakeFiles/light_switch_client_nrf52840_xxAA_s140_6.0.0.dir/__/__/__/mesh/core/src/list.c.obj
 .data          0x00000000        0x0 examples/light_switch/client/CMakeFiles/light_switch_client_nrf52840_xxAA_s140_6.0.0.dir/__/__/__/mesh/core/src/list.c.obj
 .bss           0x00000000        0x0 examples/light_switch/client/CMakeFiles/light_switch_client_nrf52840_xxAA_s140_6.0.0.dir/__/__/__/mesh/core/src/list.c.obj
 .text.list_size_get
                0x00000000       0x12 examples/light_switch/client/CMakeFiles/light_switch_client_nrf52840_xxAA_s140_6.0.0.dir/__/__/__/mesh/core/src/list.c.obj
 .text.list_sorted_add
                0x00000000       0x6c examples/light_switch/client/CMakeFiles/light_switch_client_nrf52840_xxAA_s140_6.0.0.dir/__/__/__/mesh/core/src/list.c.obj
 .text          0x00000000        0x0 examples/light_switch/client/CMakeFiles/light_switch_client_nrf52840_xxAA_s140_6.0.0.dir/__/__/__/mesh/core/src/log.c.obj
 .data          0x00000000        0x0 examples/light_switch/client/CMakeFiles/light_switch_client_nrf52840_xxAA_s140_6.0.0.dir/__/__/__/mesh/core/src/log.c.obj
 .bss           0x00000000        0x0 examples/light_switch/client/CMakeFiles/light_switch_client_nrf52840_xxAA_s140_6.0.0.dir/__/__/__/mesh/core/src/log.c.obj
 .text.log_callback_logview
                0x00000000       0x38 examples/light_switch/client/CMakeFiles/light_switch_client_nrf52840_xxAA_s140_6.0.0.dir/__/__/__/mesh/core/src/log.c.obj
 .text.log_set_callback
                0x00000000        0xc examples/light_switch/client/CMakeFiles/light_switch_client_nrf52840_xxAA_s140_6.0.0.dir/__/__/__/mesh/core/src/log.c.obj
 .rodata.log_callback_logview.str1.1
                0x00000000        0xf examples/light_switch/client/CMakeFiles/light_switch_client_nrf52840_xxAA_s140_6.0.0.dir/__/__/__/mesh/core/src/log.c.obj
 .text          0x00000000        0x0 examples/light_switch/client/CMakeFiles/light_switch_client_nrf52840_xxAA_s140_6.0.0.dir/__/__/__/mesh/core/src/flash_manager.c.obj
 .data          0x00000000        0x0 examples/light_switch/client/CMakeFiles/light_switch_client_nrf52840_xxAA_s140_6.0.0.dir/__/__/__/mesh/core/src/flash_manager.c.obj
 .bss           0x00000000        0x0 examples/light_switch/client/CMakeFiles/light_switch_client_nrf52840_xxAA_s140_6.0.0.dir/__/__/__/mesh/core/src/flash_manager.c.obj
 .text.flash_manager_entry_count_get
                0x00000000       0x50 examples/light_switch/client/CMakeFiles/light_switch_client_nrf52840_xxAA_s140_6.0.0.dir/__/__/__/mesh/core/src/flash_manager.c.obj
 .text.flash_manager_entry_release
                0x00000000       0x2c examples/light_switch/client/CMakeFiles/light_switch_client_nrf52840_xxAA_s140_6.0.0.dir/__/__/__/mesh/core/src/flash_manager.c.obj
 .text          0x00000000        0x0 examples/light_switch/client/CMakeFiles/light_switch_client_nrf52840_xxAA_s140_6.0.0.dir/__/__/__/mesh/core/src/ccm_soft.c.obj
 .data          0x00000000        0x0 examples/light_switch/client/CMakeFiles/light_switch_client_nrf52840_xxAA_s140_6.0.0.dir/__/__/__/mesh/core/src/ccm_soft.c.obj
 .bss           0x00000000        0x0 examples/light_switch/client/CMakeFiles/light_switch_client_nrf52840_xxAA_s140_6.0.0.dir/__/__/__/mesh/core/src/ccm_soft.c.obj
 .text          0x00000000        0x0 examples/light_switch/client/CMakeFiles/light_switch_client_nrf52840_xxAA_s140_6.0.0.dir/__/__/__/mesh/core/src/toolchain.c.obj
 .data          0x00000000        0x0 examples/light_switch/client/CMakeFiles/light_switch_client_nrf52840_xxAA_s140_6.0.0.dir/__/__/__/mesh/core/src/toolchain.c.obj
 .bss           0x00000000        0x0 examples/light_switch/client/CMakeFiles/light_switch_client_nrf52840_xxAA_s140_6.0.0.dir/__/__/__/mesh/core/src/toolchain.c.obj
 .debug_info    0x00000000       0xb3 examples/light_switch/client/CMakeFiles/light_switch_client_nrf52840_xxAA_s140_6.0.0.dir/__/__/__/mesh/core/src/toolchain.c.obj
 .debug_abbrev  0x00000000       0x5c examples/light_switch/client/CMakeFiles/light_switch_client_nrf52840_xxAA_s140_6.0.0.dir/__/__/__/mesh/core/src/toolchain.c.obj
 .debug_aranges
                0x00000000       0x18 examples/light_switch/client/CMakeFiles/light_switch_client_nrf52840_xxAA_s140_6.0.0.dir/__/__/__/mesh/core/src/toolchain.c.obj
 .debug_line    0x00000000      0x127 examples/light_switch/client/CMakeFiles/light_switch_client_nrf52840_xxAA_s140_6.0.0.dir/__/__/__/mesh/core/src/toolchain.c.obj
 .debug_str     0x00000000      0x1fa examples/light_switch/client/CMakeFiles/light_switch_client_nrf52840_xxAA_s140_6.0.0.dir/__/__/__/mesh/core/src/toolchain.c.obj
 .comment       0x00000000       0x80 examples/light_switch/client/CMakeFiles/light_switch_client_nrf52840_xxAA_s140_6.0.0.dir/__/__/__/mesh/core/src/toolchain.c.obj
 .ARM.attributes
                0x00000000       0x39 examples/light_switch/client/CMakeFiles/light_switch_client_nrf52840_xxAA_s140_6.0.0.dir/__/__/__/mesh/core/src/toolchain.c.obj
 .text          0x00000000        0x0 examples/light_switch/client/CMakeFiles/light_switch_client_nrf52840_xxAA_s140_6.0.0.dir/__/__/__/mesh/core/src/replay_cache.c.obj
 .data          0x00000000        0x0 examples/light_switch/client/CMakeFiles/light_switch_client_nrf52840_xxAA_s140_6.0.0.dir/__/__/__/mesh/core/src/replay_cache.c.obj
 .bss           0x00000000        0x0 examples/light_switch/client/CMakeFiles/light_switch_client_nrf52840_xxAA_s140_6.0.0.dir/__/__/__/mesh/core/src/replay_cache.c.obj
 .text.replay_cache_on_iv_update
                0x00000000       0x24 examples/light_switch/client/CMakeFiles/light_switch_client_nrf52840_xxAA_s140_6.0.0.dir/__/__/__/mesh/core/src/replay_cache.c.obj
 .text          0x00000000        0x0 examples/light_switch/client/CMakeFiles/light_switch_client_nrf52840_xxAA_s140_6.0.0.dir/__/__/__/mesh/core/src/beacon.c.obj
 .data          0x00000000        0x0 examples/light_switch/client/CMakeFiles/light_switch_client_nrf52840_xxAA_s140_6.0.0.dir/__/__/__/mesh/core/src/beacon.c.obj
 .bss           0x00000000        0x0 examples/light_switch/client/CMakeFiles/light_switch_client_nrf52840_xxAA_s140_6.0.0.dir/__/__/__/mesh/core/src/beacon.c.obj
 .text          0x00000000        0x0 examples/light_switch/client/CMakeFiles/light_switch_client_nrf52840_xxAA_s140_6.0.0.dir/__/__/__/mesh/core/src/flash_manager_internal.c.obj
 .data          0x00000000        0x0 examples/light_switch/client/CMakeFiles/light_switch_client_nrf52840_xxAA_s140_6.0.0.dir/__/__/__/mesh/core/src/flash_manager_internal.c.obj
 .bss           0x00000000        0x0 examples/light_switch/client/CMakeFiles/light_switch_client_nrf52840_xxAA_s140_6.0.0.dir/__/__/__/mesh/core/src/flash_manager_internal.c.obj
 .text          0x00000000        0x0 examples/light_switch/client/CMakeFiles/light_switch_client_nrf52840_xxAA_s140_6.0.0.dir/__/__/__/mesh/core/src/core_tx.c.obj
 .data          0x00000000        0x0 examples/light_switch/client/CMakeFiles/light_switch_client_nrf52840_xxAA_s140_6.0.0.dir/__/__/__/mesh/core/src/core_tx.c.obj
 .bss           0x00000000        0x0 examples/light_switch/client/CMakeFiles/light_switch_client_nrf52840_xxAA_s140_6.0.0.dir/__/__/__/mesh/core/src/core_tx.c.obj
 .text.core_tx_bearer_type_get
                0x00000000       0x1c examples/light_switch/client/CMakeFiles/light_switch_client_nrf52840_xxAA_s140_6.0.0.dir/__/__/__/mesh/core/src/core_tx.c.obj
 .text.core_tx_bearer_count_get
                0x00000000        0xc examples/light_switch/client/CMakeFiles/light_switch_client_nrf52840_xxAA_s140_6.0.0.dir/__/__/__/mesh/core/src/core_tx.c.obj
 .text          0x00000000        0x0 examples/light_switch/client/CMakeFiles/light_switch_client_nrf52840_xxAA_s140_6.0.0.dir/__/__/__/mesh/core/src/heartbeat.c.obj
 .data          0x00000000        0x0 examples/light_switch/client/CMakeFiles/light_switch_client_nrf52840_xxAA_s140_6.0.0.dir/__/__/__/mesh/core/src/heartbeat.c.obj
 .bss           0x00000000        0x0 examples/light_switch/client/CMakeFiles/light_switch_client_nrf52840_xxAA_s140_6.0.0.dir/__/__/__/mesh/core/src/heartbeat.c.obj
 .text          0x00000000        0x0 examples/light_switch/client/CMakeFiles/light_switch_client_nrf52840_xxAA_s140_6.0.0.dir/__/__/__/mesh/core/src/net_beacon.c.obj
 .data          0x00000000        0x0 examples/light_switch/client/CMakeFiles/light_switch_client_nrf52840_xxAA_s140_6.0.0.dir/__/__/__/mesh/core/src/net_beacon.c.obj
 .bss           0x00000000        0x0 examples/light_switch/client/CMakeFiles/light_switch_client_nrf52840_xxAA_s140_6.0.0.dir/__/__/__/mesh/core/src/net_beacon.c.obj
 .text.net_beacon_build
                0x00000000       0x24 examples/light_switch/client/CMakeFiles/light_switch_client_nrf52840_xxAA_s140_6.0.0.dir/__/__/__/mesh/core/src/net_beacon.c.obj
 .text          0x00000000        0x0 examples/light_switch/client/CMakeFiles/light_switch_client_nrf52840_xxAA_s140_6.0.0.dir/__/__/__/mesh/core/src/fsm.c.obj
 .data          0x00000000        0x0 examples/light_switch/client/CMakeFiles/light_switch_client_nrf52840_xxAA_s140_6.0.0.dir/__/__/__/mesh/core/src/fsm.c.obj
 .bss           0x00000000        0x0 examples/light_switch/client/CMakeFiles/light_switch_client_nrf52840_xxAA_s140_6.0.0.dir/__/__/__/mesh/core/src/fsm.c.obj
 .text.fsm_event_post_try
                0x00000000      0x1ec examples/light_switch/client/CMakeFiles/light_switch_client_nrf52840_xxAA_s140_6.0.0.dir/__/__/__/mesh/core/src/fsm.c.obj
 .text.fsm_init
                0x00000000       0xcc examples/light_switch/client/CMakeFiles/light_switch_client_nrf52840_xxAA_s140_6.0.0.dir/__/__/__/mesh/core/src/fsm.c.obj
 .text.fsm_event_post
                0x00000000       0xac examples/light_switch/client/CMakeFiles/light_switch_client_nrf52840_xxAA_s140_6.0.0.dir/__/__/__/mesh/core/src/fsm.c.obj
 .text.fsm_is_processing
                0x00000000        0xa examples/light_switch/client/CMakeFiles/light_switch_client_nrf52840_xxAA_s140_6.0.0.dir/__/__/__/mesh/core/src/fsm.c.obj
 .rodata.fsm_event_post.str1.1
                0x00000000        0xb examples/light_switch/client/CMakeFiles/light_switch_client_nrf52840_xxAA_s140_6.0.0.dir/__/__/__/mesh/core/src/fsm.c.obj
 .rodata.fsm_event_post_try.str1.1
                0x00000000       0x41 examples/light_switch/client/CMakeFiles/light_switch_client_nrf52840_xxAA_s140_6.0.0.dir/__/__/__/mesh/core/src/fsm.c.obj
 .rodata.fsm_init.str1.1
                0x00000000        0xa examples/light_switch/client/CMakeFiles/light_switch_client_nrf52840_xxAA_s140_6.0.0.dir/__/__/__/mesh/core/src/fsm.c.obj
 .debug_info    0x00000000     0x132d examples/light_switch/client/CMakeFiles/light_switch_client_nrf52840_xxAA_s140_6.0.0.dir/__/__/__/mesh/core/src/fsm.c.obj
 .debug_abbrev  0x00000000      0x345 examples/light_switch/client/CMakeFiles/light_switch_client_nrf52840_xxAA_s140_6.0.0.dir/__/__/__/mesh/core/src/fsm.c.obj
 .debug_loc     0x00000000      0x3fd examples/light_switch/client/CMakeFiles/light_switch_client_nrf52840_xxAA_s140_6.0.0.dir/__/__/__/mesh/core/src/fsm.c.obj
 .debug_aranges
                0x00000000       0x38 examples/light_switch/client/CMakeFiles/light_switch_client_nrf52840_xxAA_s140_6.0.0.dir/__/__/__/mesh/core/src/fsm.c.obj
 .debug_ranges  0x00000000       0xe0 examples/light_switch/client/CMakeFiles/light_switch_client_nrf52840_xxAA_s140_6.0.0.dir/__/__/__/mesh/core/src/fsm.c.obj
 .debug_line    0x00000000      0x3dc examples/light_switch/client/CMakeFiles/light_switch_client_nrf52840_xxAA_s140_6.0.0.dir/__/__/__/mesh/core/src/fsm.c.obj
 .debug_str     0x00000000      0x984 examples/light_switch/client/CMakeFiles/light_switch_client_nrf52840_xxAA_s140_6.0.0.dir/__/__/__/mesh/core/src/fsm.c.obj
 .comment       0x00000000       0x80 examples/light_switch/client/CMakeFiles/light_switch_client_nrf52840_xxAA_s140_6.0.0.dir/__/__/__/mesh/core/src/fsm.c.obj
 .debug_frame   0x00000000       0x9c examples/light_switch/client/CMakeFiles/light_switch_client_nrf52840_xxAA_s140_6.0.0.dir/__/__/__/mesh/core/src/fsm.c.obj
 .ARM.attributes
                0x00000000       0x39 examples/light_switch/client/CMakeFiles/light_switch_client_nrf52840_xxAA_s140_6.0.0.dir/__/__/__/mesh/core/src/fsm.c.obj
 .text          0x00000000        0x0 examples/light_switch/client/CMakeFiles/light_switch_client_nrf52840_xxAA_s140_6.0.0.dir/__/__/__/mesh/core/src/core_tx_adv.c.obj
 .data          0x00000000        0x0 examples/light_switch/client/CMakeFiles/light_switch_client_nrf52840_xxAA_s140_6.0.0.dir/__/__/__/mesh/core/src/core_tx_adv.c.obj
 .bss           0x00000000        0x0 examples/light_switch/client/CMakeFiles/light_switch_client_nrf52840_xxAA_s140_6.0.0.dir/__/__/__/mesh/core/src/core_tx_adv.c.obj
 .text.core_tx_adv_address_set
                0x00000000       0x28 examples/light_switch/client/CMakeFiles/light_switch_client_nrf52840_xxAA_s140_6.0.0.dir/__/__/__/mesh/core/src/core_tx_adv.c.obj
 .text          0x00000000        0x0 examples/light_switch/client/CMakeFiles/light_switch_client_nrf52840_xxAA_s140_6.0.0.dir/__/__/__/mesh/bearer/src/ad_listener.c.obj
 .data          0x00000000        0x0 examples/light_switch/client/CMakeFiles/light_switch_client_nrf52840_xxAA_s140_6.0.0.dir/__/__/__/mesh/bearer/src/ad_listener.c.obj
 .bss           0x00000000        0x0 examples/light_switch/client/CMakeFiles/light_switch_client_nrf52840_xxAA_s140_6.0.0.dir/__/__/__/mesh/bearer/src/ad_listener.c.obj
 .text.ad_listener_unsubscribe
                0x00000000       0x6c examples/light_switch/client/CMakeFiles/light_switch_client_nrf52840_xxAA_s140_6.0.0.dir/__/__/__/mesh/bearer/src/ad_listener.c.obj
 .text          0x00000000        0x0 examples/light_switch/client/CMakeFiles/light_switch_client_nrf52840_xxAA_s140_6.0.0.dir/__/__/__/mesh/bearer/src/ad_type_filter.c.obj
 .data          0x00000000        0x0 examples/light_switch/client/CMakeFiles/light_switch_client_nrf52840_xxAA_s140_6.0.0.dir/__/__/__/mesh/bearer/src/ad_type_filter.c.obj
 .bss           0x00000000        0x0 examples/light_switch/client/CMakeFiles/light_switch_client_nrf52840_xxAA_s140_6.0.0.dir/__/__/__/mesh/bearer/src/ad_type_filter.c.obj
 .text.bearer_adtype_remove
                0x00000000       0x20 examples/light_switch/client/CMakeFiles/light_switch_client_nrf52840_xxAA_s140_6.0.0.dir/__/__/__/mesh/bearer/src/ad_type_filter.c.obj
 .text.bearer_adtype_clear
                0x00000000       0x10 examples/light_switch/client/CMakeFiles/light_switch_client_nrf52840_xxAA_s140_6.0.0.dir/__/__/__/mesh/bearer/src/ad_type_filter.c.obj
 .text.bearer_invalid_length_amount_get
                0x00000000        0xc examples/light_switch/client/CMakeFiles/light_switch_client_nrf52840_xxAA_s140_6.0.0.dir/__/__/__/mesh/bearer/src/ad_type_filter.c.obj
 .text.bearer_adtype_filtered_amount_get
                0x00000000        0xc examples/light_switch/client/CMakeFiles/light_switch_client_nrf52840_xxAA_s140_6.0.0.dir/__/__/__/mesh/bearer/src/ad_type_filter.c.obj
 .text          0x00000000        0x0 examples/light_switch/client/CMakeFiles/light_switch_client_nrf52840_xxAA_s140_6.0.0.dir/__/__/__/mesh/bearer/src/adv_packet_filter.c.obj
 .data          0x00000000        0x0 examples/light_switch/client/CMakeFiles/light_switch_client_nrf52840_xxAA_s140_6.0.0.dir/__/__/__/mesh/bearer/src/adv_packet_filter.c.obj
 .bss           0x00000000        0x0 examples/light_switch/client/CMakeFiles/light_switch_client_nrf52840_xxAA_s140_6.0.0.dir/__/__/__/mesh/bearer/src/adv_packet_filter.c.obj
 .text.adv_filter_handle
                0x00000000       0x3c examples/light_switch/client/CMakeFiles/light_switch_client_nrf52840_xxAA_s140_6.0.0.dir/__/__/__/mesh/bearer/src/adv_packet_filter.c.obj
 .text.bearer_adv_packet_filtering_set
                0x00000000       0x1c examples/light_switch/client/CMakeFiles/light_switch_client_nrf52840_xxAA_s140_6.0.0.dir/__/__/__/mesh/bearer/src/adv_packet_filter.c.obj
 .text.bearer_adv_packet_remove
                0x00000000       0x18 examples/light_switch/client/CMakeFiles/light_switch_client_nrf52840_xxAA_s140_6.0.0.dir/__/__/__/mesh/bearer/src/adv_packet_filter.c.obj
 .text.bearer_adv_packet_add
                0x00000000       0x14 examples/light_switch/client/CMakeFiles/light_switch_client_nrf52840_xxAA_s140_6.0.0.dir/__/__/__/mesh/bearer/src/adv_packet_filter.c.obj
 .text.bearer_adv_packet_clear
                0x00000000        0xc examples/light_switch/client/CMakeFiles/light_switch_client_nrf52840_xxAA_s140_6.0.0.dir/__/__/__/mesh/bearer/src/adv_packet_filter.c.obj
 .text.bearer_adv_packet_filter_mode_set
                0x00000000       0x18 examples/light_switch/client/CMakeFiles/light_switch_client_nrf52840_xxAA_s140_6.0.0.dir/__/__/__/mesh/bearer/src/adv_packet_filter.c.obj
 .text.bearer_adv_packet_filtered_amount_get
                0x00000000        0xc examples/light_switch/client/CMakeFiles/light_switch_client_nrf52840_xxAA_s140_6.0.0.dir/__/__/__/mesh/bearer/src/adv_packet_filter.c.obj
 .bss.m_adv_packet_filter
                0x00000000       0x14 examples/light_switch/client/CMakeFiles/light_switch_client_nrf52840_xxAA_s140_6.0.0.dir/__/__/__/mesh/bearer/src/adv_packet_filter.c.obj
 .debug_info    0x00000000      0xd97 examples/light_switch/client/CMakeFiles/light_switch_client_nrf52840_xxAA_s140_6.0.0.dir/__/__/__/mesh/bearer/src/adv_packet_filter.c.obj
 .debug_abbrev  0x00000000      0x2c9 examples/light_switch/client/CMakeFiles/light_switch_client_nrf52840_xxAA_s140_6.0.0.dir/__/__/__/mesh/bearer/src/adv_packet_filter.c.obj
 .debug_loc     0x00000000      0x1c0 examples/light_switch/client/CMakeFiles/light_switch_client_nrf52840_xxAA_s140_6.0.0.dir/__/__/__/mesh/bearer/src/adv_packet_filter.c.obj
 .debug_aranges
                0x00000000       0x50 examples/light_switch/client/CMakeFiles/light_switch_client_nrf52840_xxAA_s140_6.0.0.dir/__/__/__/mesh/bearer/src/adv_packet_filter.c.obj
 .debug_ranges  0x00000000       0x40 examples/light_switch/client/CMakeFiles/light_switch_client_nrf52840_xxAA_s140_6.0.0.dir/__/__/__/mesh/bearer/src/adv_packet_filter.c.obj
 .debug_line    0x00000000      0x35e examples/light_switch/client/CMakeFiles/light_switch_client_nrf52840_xxAA_s140_6.0.0.dir/__/__/__/mesh/bearer/src/adv_packet_filter.c.obj
 .debug_str     0x00000000      0xa28 examples/light_switch/client/CMakeFiles/light_switch_client_nrf52840_xxAA_s140_6.0.0.dir/__/__/__/mesh/bearer/src/adv_packet_filter.c.obj
 .comment       0x00000000       0x80 examples/light_switch/client/CMakeFiles/light_switch_client_nrf52840_xxAA_s140_6.0.0.dir/__/__/__/mesh/bearer/src/adv_packet_filter.c.obj
 .debug_frame   0x00000000       0x88 examples/light_switch/client/CMakeFiles/light_switch_client_nrf52840_xxAA_s140_6.0.0.dir/__/__/__/mesh/bearer/src/adv_packet_filter.c.obj
 .ARM.attributes
                0x00000000       0x39 examples/light_switch/client/CMakeFiles/light_switch_client_nrf52840_xxAA_s140_6.0.0.dir/__/__/__/mesh/bearer/src/adv_packet_filter.c.obj
 .text          0x00000000        0x0 examples/light_switch/client/CMakeFiles/light_switch_client_nrf52840_xxAA_s140_6.0.0.dir/__/__/__/mesh/bearer/src/advertiser.c.obj
 .data          0x00000000        0x0 examples/light_switch/client/CMakeFiles/light_switch_client_nrf52840_xxAA_s140_6.0.0.dir/__/__/__/mesh/bearer/src/advertiser.c.obj
 .bss           0x00000000        0x0 examples/light_switch/client/CMakeFiles/light_switch_client_nrf52840_xxAA_s140_6.0.0.dir/__/__/__/mesh/bearer/src/advertiser.c.obj
 .text.advertiser_disable
                0x00000000        0xa examples/light_switch/client/CMakeFiles/light_switch_client_nrf52840_xxAA_s140_6.0.0.dir/__/__/__/mesh/bearer/src/advertiser.c.obj
 .text.advertiser_channels_set
                0x00000000       0x60 examples/light_switch/client/CMakeFiles/light_switch_client_nrf52840_xxAA_s140_6.0.0.dir/__/__/__/mesh/bearer/src/advertiser.c.obj
 .text.advertiser_address_set
                0x00000000       0x3c examples/light_switch/client/CMakeFiles/light_switch_client_nrf52840_xxAA_s140_6.0.0.dir/__/__/__/mesh/bearer/src/advertiser.c.obj
 .text.advertiser_config_set
                0x00000000       0x36 examples/light_switch/client/CMakeFiles/light_switch_client_nrf52840_xxAA_s140_6.0.0.dir/__/__/__/mesh/bearer/src/advertiser.c.obj
 .text.advertiser_config_get
                0x00000000       0x20 examples/light_switch/client/CMakeFiles/light_switch_client_nrf52840_xxAA_s140_6.0.0.dir/__/__/__/mesh/bearer/src/advertiser.c.obj
 .text          0x00000000        0x0 examples/light_switch/client/CMakeFiles/light_switch_client_nrf52840_xxAA_s140_6.0.0.dir/__/__/__/mesh/bearer/src/bearer_handler.c.obj
 .data          0x00000000        0x0 examples/light_switch/client/CMakeFiles/light_switch_client_nrf52840_xxAA_s140_6.0.0.dir/__/__/__/mesh/bearer/src/bearer_handler.c.obj
 .bss           0x00000000        0x0 examples/light_switch/client/CMakeFiles/light_switch_client_nrf52840_xxAA_s140_6.0.0.dir/__/__/__/mesh/bearer/src/bearer_handler.c.obj
 .text.bearer_handler_stop
                0x00000000       0x20 examples/light_switch/client/CMakeFiles/light_switch_client_nrf52840_xxAA_s140_6.0.0.dir/__/__/__/mesh/bearer/src/bearer_handler.c.obj
 .text.bearer_handler_action_fire
                0x00000000       0x9c examples/light_switch/client/CMakeFiles/light_switch_client_nrf52840_xxAA_s140_6.0.0.dir/__/__/__/mesh/bearer/src/bearer_handler.c.obj
 .text          0x00000000        0x0 examples/light_switch/client/CMakeFiles/light_switch_client_nrf52840_xxAA_s140_6.0.0.dir/__/__/__/mesh/bearer/src/broadcast.c.obj
 .data          0x00000000        0x0 examples/light_switch/client/CMakeFiles/light_switch_client_nrf52840_xxAA_s140_6.0.0.dir/__/__/__/mesh/bearer/src/broadcast.c.obj
 .bss           0x00000000        0x0 examples/light_switch/client/CMakeFiles/light_switch_client_nrf52840_xxAA_s140_6.0.0.dir/__/__/__/mesh/bearer/src/broadcast.c.obj
 .text          0x00000000        0x0 examples/light_switch/client/CMakeFiles/light_switch_client_nrf52840_xxAA_s140_6.0.0.dir/__/__/__/mesh/bearer/src/filter_engine.c.obj
 .data          0x00000000        0x0 examples/light_switch/client/CMakeFiles/light_switch_client_nrf52840_xxAA_s140_6.0.0.dir/__/__/__/mesh/bearer/src/filter_engine.c.obj
 .bss           0x00000000        0x0 examples/light_switch/client/CMakeFiles/light_switch_client_nrf52840_xxAA_s140_6.0.0.dir/__/__/__/mesh/bearer/src/filter_engine.c.obj
 .text.fen_accepted_amount_get
                0x00000000        0xc examples/light_switch/client/CMakeFiles/light_switch_client_nrf52840_xxAA_s140_6.0.0.dir/__/__/__/mesh/bearer/src/filter_engine.c.obj
 .text          0x00000000        0x0 examples/light_switch/client/CMakeFiles/light_switch_client_nrf52840_xxAA_s140_6.0.0.dir/__/__/__/mesh/bearer/src/gap_address_filter.c.obj
 .data          0x00000000        0x0 examples/light_switch/client/CMakeFiles/light_switch_client_nrf52840_xxAA_s140_6.0.0.dir/__/__/__/mesh/bearer/src/gap_address_filter.c.obj
 .bss           0x00000000        0x0 examples/light_switch/client/CMakeFiles/light_switch_client_nrf52840_xxAA_s140_6.0.0.dir/__/__/__/mesh/bearer/src/gap_address_filter.c.obj
 .text.gap_address_filter_handle
                0x00000000       0xa6 examples/light_switch/client/CMakeFiles/light_switch_client_nrf52840_xxAA_s140_6.0.0.dir/__/__/__/mesh/bearer/src/gap_address_filter.c.obj
 .text.gap_addr_filter_set
                0x00000000       0x40 examples/light_switch/client/CMakeFiles/light_switch_client_nrf52840_xxAA_s140_6.0.0.dir/__/__/__/mesh/bearer/src/gap_address_filter.c.obj
 .text.bearer_filter_gap_addr_whitelist_set
                0x00000000        0x6 examples/light_switch/client/CMakeFiles/light_switch_client_nrf52840_xxAA_s140_6.0.0.dir/__/__/__/mesh/bearer/src/gap_address_filter.c.obj
 .text.bearer_filter_gap_addr_blacklist_set
                0x00000000        0x6 examples/light_switch/client/CMakeFiles/light_switch_client_nrf52840_xxAA_s140_6.0.0.dir/__/__/__/mesh/bearer/src/gap_address_filter.c.obj
 .text.bearer_filter_gap_addr_range_set
                0x00000000       0x38 examples/light_switch/client/CMakeFiles/light_switch_client_nrf52840_xxAA_s140_6.0.0.dir/__/__/__/mesh/bearer/src/gap_address_filter.c.obj
 .text.bearer_filter_gap_addr_clear
                0x00000000       0x20 examples/light_switch/client/CMakeFiles/light_switch_client_nrf52840_xxAA_s140_6.0.0.dir/__/__/__/mesh/bearer/src/gap_address_filter.c.obj
 .text.bearer_gap_addr_filtered_amount_get
                0x00000000        0xc examples/light_switch/client/CMakeFiles/light_switch_client_nrf52840_xxAA_s140_6.0.0.dir/__/__/__/mesh/bearer/src/gap_address_filter.c.obj
 .bss.m_addr_filter
                0x00000000       0x18 examples/light_switch/client/CMakeFiles/light_switch_client_nrf52840_xxAA_s140_6.0.0.dir/__/__/__/mesh/bearer/src/gap_address_filter.c.obj
 .debug_info    0x00000000      0xebb examples/light_switch/client/CMakeFiles/light_switch_client_nrf52840_xxAA_s140_6.0.0.dir/__/__/__/mesh/bearer/src/gap_address_filter.c.obj
 .debug_abbrev  0x00000000      0x2f4 examples/light_switch/client/CMakeFiles/light_switch_client_nrf52840_xxAA_s140_6.0.0.dir/__/__/__/mesh/bearer/src/gap_address_filter.c.obj
 .debug_loc     0x00000000      0x3e8 examples/light_switch/client/CMakeFiles/light_switch_client_nrf52840_xxAA_s140_6.0.0.dir/__/__/__/mesh/bearer/src/gap_address_filter.c.obj
 .debug_aranges
                0x00000000       0x50 examples/light_switch/client/CMakeFiles/light_switch_client_nrf52840_xxAA_s140_6.0.0.dir/__/__/__/mesh/bearer/src/gap_address_filter.c.obj
 .debug_ranges  0x00000000       0x58 examples/light_switch/client/CMakeFiles/light_switch_client_nrf52840_xxAA_s140_6.0.0.dir/__/__/__/mesh/bearer/src/gap_address_filter.c.obj
 .debug_line    0x00000000      0x3b6 examples/light_switch/client/CMakeFiles/light_switch_client_nrf52840_xxAA_s140_6.0.0.dir/__/__/__/mesh/bearer/src/gap_address_filter.c.obj
 .debug_str     0x00000000      0x982 examples/light_switch/client/CMakeFiles/light_switch_client_nrf52840_xxAA_s140_6.0.0.dir/__/__/__/mesh/bearer/src/gap_address_filter.c.obj
 .comment       0x00000000       0x80 examples/light_switch/client/CMakeFiles/light_switch_client_nrf52840_xxAA_s140_6.0.0.dir/__/__/__/mesh/bearer/src/gap_address_filter.c.obj
 .debug_frame   0x00000000       0xb4 examples/light_switch/client/CMakeFiles/light_switch_client_nrf52840_xxAA_s140_6.0.0.dir/__/__/__/mesh/bearer/src/gap_address_filter.c.obj
 .ARM.attributes
                0x00000000       0x39 examples/light_switch/client/CMakeFiles/light_switch_client_nrf52840_xxAA_s140_6.0.0.dir/__/__/__/mesh/bearer/src/gap_address_filter.c.obj
 .text          0x00000000        0x0 examples/light_switch/client/CMakeFiles/light_switch_client_nrf52840_xxAA_s140_6.0.0.dir/__/__/__/mesh/bearer/src/radio_config.c.obj
 .data          0x00000000        0x0 examples/light_switch/client/CMakeFiles/light_switch_client_nrf52840_xxAA_s140_6.0.0.dir/__/__/__/mesh/bearer/src/radio_config.c.obj
 .bss           0x00000000        0x0 examples/light_switch/client/CMakeFiles/light_switch_client_nrf52840_xxAA_s140_6.0.0.dir/__/__/__/mesh/bearer/src/radio_config.c.obj
 .text.radio_config_access_addr_get
                0x00000000       0x4c examples/light_switch/client/CMakeFiles/light_switch_client_nrf52840_xxAA_s140_6.0.0.dir/__/__/__/mesh/bearer/src/radio_config.c.obj
 .text          0x00000000        0x0 examples/light_switch/client/CMakeFiles/light_switch_client_nrf52840_xxAA_s140_6.0.0.dir/__/__/__/mesh/bearer/src/rssi_filter.c.obj
 .data          0x00000000        0x0 examples/light_switch/client/CMakeFiles/light_switch_client_nrf52840_xxAA_s140_6.0.0.dir/__/__/__/mesh/bearer/src/rssi_filter.c.obj
 .bss           0x00000000        0x0 examples/light_switch/client/CMakeFiles/light_switch_client_nrf52840_xxAA_s140_6.0.0.dir/__/__/__/mesh/bearer/src/rssi_filter.c.obj
 .text.rssi_filter_handle
                0x00000000       0x20 examples/light_switch/client/CMakeFiles/light_switch_client_nrf52840_xxAA_s140_6.0.0.dir/__/__/__/mesh/bearer/src/rssi_filter.c.obj
 .text.bearer_rssi_filtering_set
                0x00000000       0x34 examples/light_switch/client/CMakeFiles/light_switch_client_nrf52840_xxAA_s140_6.0.0.dir/__/__/__/mesh/bearer/src/rssi_filter.c.obj
 .text.bearer_rssi_filtered_amount_get
                0x00000000        0xc examples/light_switch/client/CMakeFiles/light_switch_client_nrf52840_xxAA_s140_6.0.0.dir/__/__/__/mesh/bearer/src/rssi_filter.c.obj
 .bss.m_rssi_filter
                0x00000000       0x18 examples/light_switch/client/CMakeFiles/light_switch_client_nrf52840_xxAA_s140_6.0.0.dir/__/__/__/mesh/bearer/src/rssi_filter.c.obj
 .debug_info    0x00000000      0xc73 examples/light_switch/client/CMakeFiles/light_switch_client_nrf52840_xxAA_s140_6.0.0.dir/__/__/__/mesh/bearer/src/rssi_filter.c.obj
 .debug_abbrev  0x00000000      0x28e examples/light_switch/client/CMakeFiles/light_switch_client_nrf52840_xxAA_s140_6.0.0.dir/__/__/__/mesh/bearer/src/rssi_filter.c.obj
 .debug_loc     0x00000000       0xb3 examples/light_switch/client/CMakeFiles/light_switch_client_nrf52840_xxAA_s140_6.0.0.dir/__/__/__/mesh/bearer/src/rssi_filter.c.obj
 .debug_aranges
                0x00000000       0x30 examples/light_switch/client/CMakeFiles/light_switch_client_nrf52840_xxAA_s140_6.0.0.dir/__/__/__/mesh/bearer/src/rssi_filter.c.obj
 .debug_ranges  0x00000000       0x20 examples/light_switch/client/CMakeFiles/light_switch_client_nrf52840_xxAA_s140_6.0.0.dir/__/__/__/mesh/bearer/src/rssi_filter.c.obj
 .debug_line    0x00000000      0x2d3 examples/light_switch/client/CMakeFiles/light_switch_client_nrf52840_xxAA_s140_6.0.0.dir/__/__/__/mesh/bearer/src/rssi_filter.c.obj
 .debug_str     0x00000000      0x83d examples/light_switch/client/CMakeFiles/light_switch_client_nrf52840_xxAA_s140_6.0.0.dir/__/__/__/mesh/bearer/src/rssi_filter.c.obj
 .comment       0x00000000       0x80 examples/light_switch/client/CMakeFiles/light_switch_client_nrf52840_xxAA_s140_6.0.0.dir/__/__/__/mesh/bearer/src/rssi_filter.c.obj
 .debug_frame   0x00000000       0x54 examples/light_switch/client/CMakeFiles/light_switch_client_nrf52840_xxAA_s140_6.0.0.dir/__/__/__/mesh/bearer/src/rssi_filter.c.obj
 .ARM.attributes
                0x00000000       0x39 examples/light_switch/client/CMakeFiles/light_switch_client_nrf52840_xxAA_s140_6.0.0.dir/__/__/__/mesh/bearer/src/rssi_filter.c.obj
 .text          0x00000000        0x0 examples/light_switch/client/CMakeFiles/light_switch_client_nrf52840_xxAA_s140_6.0.0.dir/__/__/__/mesh/bearer/src/scanner.c.obj
 .data          0x00000000        0x0 examples/light_switch/client/CMakeFiles/light_switch_client_nrf52840_xxAA_s140_6.0.0.dir/__/__/__/mesh/bearer/src/scanner.c.obj
 .bss           0x00000000        0x0 examples/light_switch/client/CMakeFiles/light_switch_client_nrf52840_xxAA_s140_6.0.0.dir/__/__/__/mesh/bearer/src/scanner.c.obj
 .text.scanner_rx_callback_set
                0x00000000       0x20 examples/light_switch/client/CMakeFiles/light_switch_client_nrf52840_xxAA_s140_6.0.0.dir/__/__/__/mesh/bearer/src/scanner.c.obj
 .text.scanner_disable
                0x00000000       0x3c examples/light_switch/client/CMakeFiles/light_switch_client_nrf52840_xxAA_s140_6.0.0.dir/__/__/__/mesh/bearer/src/scanner.c.obj
 .text.scanner_is_enabled
                0x00000000       0x10 examples/light_switch/client/CMakeFiles/light_switch_client_nrf52840_xxAA_s140_6.0.0.dir/__/__/__/mesh/bearer/src/scanner.c.obj
 .text.scanner_stats_get
                0x00000000        0x8 examples/light_switch/client/CMakeFiles/light_switch_client_nrf52840_xxAA_s140_6.0.0.dir/__/__/__/mesh/bearer/src/scanner.c.obj
 .text.scanner_config_radio_mode_set
                0x00000000       0x10 examples/light_switch/client/CMakeFiles/light_switch_client_nrf52840_xxAA_s140_6.0.0.dir/__/__/__/mesh/bearer/src/scanner.c.obj
 .text          0x00000000        0x0 examples/light_switch/client/CMakeFiles/light_switch_client_nrf52840_xxAA_s140_6.0.0.dir/__/__/__/mesh/bearer/src/mesh_pa_lna.c.obj
 .data          0x00000000        0x0 examples/light_switch/client/CMakeFiles/light_switch_client_nrf52840_xxAA_s140_6.0.0.dir/__/__/__/mesh/bearer/src/mesh_pa_lna.c.obj
 .bss           0x00000000        0x0 examples/light_switch/client/CMakeFiles/light_switch_client_nrf52840_xxAA_s140_6.0.0.dir/__/__/__/mesh/bearer/src/mesh_pa_lna.c.obj
 .text.unlikely.pin_init
                0x00000000       0x32 examples/light_switch/client/CMakeFiles/light_switch_client_nrf52840_xxAA_s140_6.0.0.dir/__/__/__/mesh/bearer/src/mesh_pa_lna.c.obj
 .text.mesh_pa_lna_gpiote_enable
                0x00000000       0x68 examples/light_switch/client/CMakeFiles/light_switch_client_nrf52840_xxAA_s140_6.0.0.dir/__/__/__/mesh/bearer/src/mesh_pa_lna.c.obj
 .text.mesh_pa_lna_gpiote_params_get
                0x00000000       0x10 examples/light_switch/client/CMakeFiles/light_switch_client_nrf52840_xxAA_s140_6.0.0.dir/__/__/__/mesh/bearer/src/mesh_pa_lna.c.obj
 .text.mesh_pa_lna_gpiote_disable
                0x00000000       0x20 examples/light_switch/client/CMakeFiles/light_switch_client_nrf52840_xxAA_s140_6.0.0.dir/__/__/__/mesh/bearer/src/mesh_pa_lna.c.obj
 .text          0x00000000        0x0 examples/light_switch/client/CMakeFiles/light_switch_client_nrf52840_xxAA_s140_6.0.0.dir/__/__/__/models/simple_on_off/src/simple_on_off_client.c.obj
 .data          0x00000000        0x0 examples/light_switch/client/CMakeFiles/light_switch_client_nrf52840_xxAA_s140_6.0.0.dir/__/__/__/models/simple_on_off/src/simple_on_off_client.c.obj
 .bss           0x00000000        0x0 examples/light_switch/client/CMakeFiles/light_switch_client_nrf52840_xxAA_s140_6.0.0.dir/__/__/__/models/simple_on_off/src/simple_on_off_client.c.obj
 .text.simple_on_off_client_get
                0x00000000       0x28 examples/light_switch/client/CMakeFiles/light_switch_client_nrf52840_xxAA_s140_6.0.0.dir/__/__/__/models/simple_on_off/src/simple_on_off_client.c.obj
 .text.simple_on_off_client_pending_msg_cancel
                0x00000000        0x6 examples/light_switch/client/CMakeFiles/light_switch_client_nrf52840_xxAA_s140_6.0.0.dir/__/__/__/models/simple_on_off/src/simple_on_off_client.c.obj
 .text          0x00000000        0x0 examples/light_switch/client/CMakeFiles/light_switch_client_nrf52840_xxAA_s140_6.0.0.dir/__/__/__/models/config/src/composition_data.c.obj
 .data          0x00000000        0x0 examples/light_switch/client/CMakeFiles/light_switch_client_nrf52840_xxAA_s140_6.0.0.dir/__/__/__/models/config/src/composition_data.c.obj
 .bss           0x00000000        0x0 examples/light_switch/client/CMakeFiles/light_switch_client_nrf52840_xxAA_s140_6.0.0.dir/__/__/__/models/config/src/composition_data.c.obj
 .text          0x00000000        0x0 examples/light_switch/client/CMakeFiles/light_switch_client_nrf52840_xxAA_s140_6.0.0.dir/__/__/__/models/config/src/config_server.c.obj
 .data          0x00000000        0x0 examples/light_switch/client/CMakeFiles/light_switch_client_nrf52840_xxAA_s140_6.0.0.dir/__/__/__/models/config/src/config_server.c.obj
 .bss           0x00000000        0x0 examples/light_switch/client/CMakeFiles/light_switch_client_nrf52840_xxAA_s140_6.0.0.dir/__/__/__/models/config/src/config_server.c.obj
 .text          0x00000000        0x0 examples/light_switch/client/CMakeFiles/light_switch_client_nrf52840_xxAA_s140_6.0.0.dir/__/__/__/models/config/src/packed_index_list.c.obj
 .data          0x00000000        0x0 examples/light_switch/client/CMakeFiles/light_switch_client_nrf52840_xxAA_s140_6.0.0.dir/__/__/__/models/config/src/packed_index_list.c.obj
 .bss           0x00000000        0x0 examples/light_switch/client/CMakeFiles/light_switch_client_nrf52840_xxAA_s140_6.0.0.dir/__/__/__/models/config/src/packed_index_list.c.obj
 .text          0x00000000        0x0 examples/light_switch/client/CMakeFiles/light_switch_client_nrf52840_xxAA_s140_6.0.0.dir/__/__/__/models/health/src/health_server.c.obj
 .data          0x00000000        0x0 examples/light_switch/client/CMakeFiles/light_switch_client_nrf52840_xxAA_s140_6.0.0.dir/__/__/__/models/health/src/health_server.c.obj
 .bss           0x00000000        0x0 examples/light_switch/client/CMakeFiles/light_switch_client_nrf52840_xxAA_s140_6.0.0.dir/__/__/__/models/health/src/health_server.c.obj
 .text.health_server_fault_is_set
                0x00000000       0x1c examples/light_switch/client/CMakeFiles/light_switch_client_nrf52840_xxAA_s140_6.0.0.dir/__/__/__/models/health/src/health_server.c.obj
 .text.health_server_fault_count_get
                0x00000000        0xc examples/light_switch/client/CMakeFiles/light_switch_client_nrf52840_xxAA_s140_6.0.0.dir/__/__/__/models/health/src/health_server.c.obj
 .text.health_server_fault_register
                0x00000000       0xca examples/light_switch/client/CMakeFiles/light_switch_client_nrf52840_xxAA_s140_6.0.0.dir/__/__/__/models/health/src/health_server.c.obj
 .text.health_server_fault_clear
                0x00000000       0x48 examples/light_switch/client/CMakeFiles/light_switch_client_nrf52840_xxAA_s140_6.0.0.dir/__/__/__/models/health/src/health_server.c.obj
 .text.health_server_attention_get
                0x00000000        0x6 examples/light_switch/client/CMakeFiles/light_switch_client_nrf52840_xxAA_s140_6.0.0.dir/__/__/__/models/health/src/health_server.c.obj
 .text.health_server_attention_set
                0x00000000        0x4 examples/light_switch/client/CMakeFiles/light_switch_client_nrf52840_xxAA_s140_6.0.0.dir/__/__/__/models/health/src/health_server.c.obj
 .text          0x00000000        0x0 examples/light_switch/client/CMakeFiles/light_switch_client_nrf52840_xxAA_s140_6.0.0.dir/__/__/__/mesh/access/src/access_publish.c.obj
 .data          0x00000000        0x0 examples/light_switch/client/CMakeFiles/light_switch_client_nrf52840_xxAA_s140_6.0.0.dir/__/__/__/mesh/access/src/access_publish.c.obj
 .bss           0x00000000        0x0 examples/light_switch/client/CMakeFiles/light_switch_client_nrf52840_xxAA_s140_6.0.0.dir/__/__/__/mesh/access/src/access_publish.c.obj
 .text          0x00000000        0x0 examples/light_switch/client/CMakeFiles/light_switch_client_nrf52840_xxAA_s140_6.0.0.dir/__/__/__/mesh/access/src/access.c.obj
 .data          0x00000000        0x0 examples/light_switch/client/CMakeFiles/light_switch_client_nrf52840_xxAA_s140_6.0.0.dir/__/__/__/mesh/access/src/access.c.obj
 .bss           0x00000000        0x0 examples/light_switch/client/CMakeFiles/light_switch_client_nrf52840_xxAA_s140_6.0.0.dir/__/__/__/mesh/access/src/access.c.obj
 .text.access_model_subscription_lists_share
                0x00000000       0x4c examples/light_switch/client/CMakeFiles/light_switch_client_nrf52840_xxAA_s140_6.0.0.dir/__/__/__/mesh/access/src/access.c.obj
 .text.access_element_location_set
                0x00000000       0x2c examples/light_switch/client/CMakeFiles/light_switch_client_nrf52840_xxAA_s140_6.0.0.dir/__/__/__/mesh/access/src/access.c.obj
 .text          0x00000000        0x0 examples/light_switch/client/CMakeFiles/light_switch_client_nrf52840_xxAA_s140_6.0.0.dir/__/__/__/mesh/access/src/access_reliable.c.obj
 .data          0x00000000        0x0 examples/light_switch/client/CMakeFiles/light_switch_client_nrf52840_xxAA_s140_6.0.0.dir/__/__/__/mesh/access/src/access_reliable.c.obj
 .bss           0x00000000        0x0 examples/light_switch/client/CMakeFiles/light_switch_client_nrf52840_xxAA_s140_6.0.0.dir/__/__/__/mesh/access/src/access_reliable.c.obj
 .text          0x00000000        0x0 examples/light_switch/client/CMakeFiles/light_switch_client_nrf52840_xxAA_s140_6.0.0.dir/__/__/__/mesh/access/src/access_loopback.c.obj
 .data          0x00000000        0x0 examples/light_switch/client/CMakeFiles/light_switch_client_nrf52840_xxAA_s140_6.0.0.dir/__/__/__/mesh/access/src/access_loopback.c.obj
 .bss           0x00000000        0x0 examples/light_switch/client/CMakeFiles/light_switch_client_nrf52840_xxAA_s140_6.0.0.dir/__/__/__/mesh/access/src/access_loopback.c.obj
 .text          0x00000000        0x0 examples/light_switch/client/CMakeFiles/light_switch_client_nrf52840_xxAA_s140_6.0.0.dir/__/__/__/mesh/access/src/device_state_manager.c.obj
 .data          0x00000000        0x0 examples/light_switch/client/CMakeFiles/light_switch_client_nrf52840_xxAA_s140_6.0.0.dir/__/__/__/mesh/access/src/device_state_manager.c.obj
 .bss           0x00000000        0x0 examples/light_switch/client/CMakeFiles/light_switch_client_nrf52840_xxAA_s140_6.0.0.dir/__/__/__/mesh/access/src/device_state_manager.c.obj
 .text.dsm_has_unflashed_data
                0x00000000       0x24 examples/light_switch/client/CMakeFiles/light_switch_client_nrf52840_xxAA_s140_6.0.0.dir/__/__/__/mesh/access/src/device_state_manager.c.obj
 .text.dsm_address_subscription_get
                0x00000000       0x34 examples/light_switch/client/CMakeFiles/light_switch_client_nrf52840_xxAA_s140_6.0.0.dir/__/__/__/mesh/access/src/device_state_manager.c.obj
 .text.dsm_address_subscription_count_get
                0x00000000       0x58 examples/light_switch/client/CMakeFiles/light_switch_client_nrf52840_xxAA_s140_6.0.0.dir/__/__/__/mesh/access/src/device_state_manager.c.obj
 .text.dsm_address_get_all
                0x00000000       0x64 examples/light_switch/client/CMakeFiles/light_switch_client_nrf52840_xxAA_s140_6.0.0.dir/__/__/__/mesh/access/src/device_state_manager.c.obj
 .text.dsm_subnet_handle_to_netkey_index
                0x00000000       0x30 examples/light_switch/client/CMakeFiles/light_switch_client_nrf52840_xxAA_s140_6.0.0.dir/__/__/__/mesh/access/src/device_state_manager.c.obj
 .text.dsm_subnet_key_get
                0x00000000       0x44 examples/light_switch/client/CMakeFiles/light_switch_client_nrf52840_xxAA_s140_6.0.0.dir/__/__/__/mesh/access/src/device_state_manager.c.obj
 .text.dsm_devkey_delete
                0x00000000       0x38 examples/light_switch/client/CMakeFiles/light_switch_client_nrf52840_xxAA_s140_6.0.0.dir/__/__/__/mesh/access/src/device_state_manager.c.obj
 .text.dsm_devkey_handle_get
                0x00000000       0x34 examples/light_switch/client/CMakeFiles/light_switch_client_nrf52840_xxAA_s140_6.0.0.dir/__/__/__/mesh/access/src/device_state_manager.c.obj
 .text.dsm_beacon_info_get
                0x00000000       0x2c examples/light_switch/client/CMakeFiles/light_switch_client_nrf52840_xxAA_s140_6.0.0.dir/__/__/__/mesh/access/src/device_state_manager.c.obj
 .text          0x00000000        0x0 examples/light_switch/client/CMakeFiles/light_switch_client_nrf52840_xxAA_s140_6.0.0.dir/__/__/__/mesh/prov/src/prov_provisionee.c.obj
 .data          0x00000000        0x0 examples/light_switch/client/CMakeFiles/light_switch_client_nrf52840_xxAA_s140_6.0.0.dir/__/__/__/mesh/prov/src/prov_provisionee.c.obj
 .bss           0x00000000        0x0 examples/light_switch/client/CMakeFiles/light_switch_client_nrf52840_xxAA_s140_6.0.0.dir/__/__/__/mesh/prov/src/prov_provisionee.c.obj
 .text.prov_provisionee_shared_secret
                0x00000000       0x28 examples/light_switch/client/CMakeFiles/light_switch_client_nrf52840_xxAA_s140_6.0.0.dir/__/__/__/mesh/prov/src/prov_provisionee.c.obj
 .text          0x00000000        0x0 examples/light_switch/client/CMakeFiles/light_switch_client_nrf52840_xxAA_s140_6.0.0.dir/__/__/__/mesh/prov/src/nrf_mesh_prov.c.obj
 .data          0x00000000        0x0 examples/light_switch/client/CMakeFiles/light_switch_client_nrf52840_xxAA_s140_6.0.0.dir/__/__/__/mesh/prov/src/nrf_mesh_prov.c.obj
 .bss           0x00000000        0x0 examples/light_switch/client/CMakeFiles/light_switch_client_nrf52840_xxAA_s140_6.0.0.dir/__/__/__/mesh/prov/src/nrf_mesh_prov.c.obj
 .text.nrf_mesh_prov_provision
                0x00000000       0x4e examples/light_switch/client/CMakeFiles/light_switch_client_nrf52840_xxAA_s140_6.0.0.dir/__/__/__/mesh/prov/src/nrf_mesh_prov.c.obj
 .text.nrf_mesh_prov_oob_use
                0x00000000       0x18 examples/light_switch/client/CMakeFiles/light_switch_client_nrf52840_xxAA_s140_6.0.0.dir/__/__/__/mesh/prov/src/nrf_mesh_prov.c.obj
 .text.nrf_mesh_prov_shared_secret_provide
                0x00000000        0xe examples/light_switch/client/CMakeFiles/light_switch_client_nrf52840_xxAA_s140_6.0.0.dir/__/__/__/mesh/prov/src/nrf_mesh_prov.c.obj
 .text.nrf_mesh_prov_pubkey_provide
                0x00000000       0x10 examples/light_switch/client/CMakeFiles/light_switch_client_nrf52840_xxAA_s140_6.0.0.dir/__/__/__/mesh/prov/src/nrf_mesh_prov.c.obj
 .text.nrf_mesh_prov_scan_start
                0x00000000       0x10 examples/light_switch/client/CMakeFiles/light_switch_client_nrf52840_xxAA_s140_6.0.0.dir/__/__/__/mesh/prov/src/nrf_mesh_prov.c.obj
 .text.nrf_mesh_prov_scan_stop
                0x00000000        0x4 examples/light_switch/client/CMakeFiles/light_switch_client_nrf52840_xxAA_s140_6.0.0.dir/__/__/__/mesh/prov/src/nrf_mesh_prov.c.obj
 .text          0x00000000        0x0 examples/light_switch/client/CMakeFiles/light_switch_client_nrf52840_xxAA_s140_6.0.0.dir/__/__/__/mesh/prov/src/provisioning.c.obj
 .data          0x00000000        0x0 examples/light_switch/client/CMakeFiles/light_switch_client_nrf52840_xxAA_s140_6.0.0.dir/__/__/__/mesh/prov/src/provisioning.c.obj
 .bss           0x00000000        0x0 examples/light_switch/client/CMakeFiles/light_switch_client_nrf52840_xxAA_s140_6.0.0.dir/__/__/__/mesh/prov/src/provisioning.c.obj
 .text.prov_tx_invite
                0x00000000       0x28 examples/light_switch/client/CMakeFiles/light_switch_client_nrf52840_xxAA_s140_6.0.0.dir/__/__/__/mesh/prov/src/provisioning.c.obj
 .text.prov_tx_start
                0x00000000       0x20 examples/light_switch/client/CMakeFiles/light_switch_client_nrf52840_xxAA_s140_6.0.0.dir/__/__/__/mesh/prov/src/provisioning.c.obj
 .text.prov_tx_data
                0x00000000        0x6 examples/light_switch/client/CMakeFiles/light_switch_client_nrf52840_xxAA_s140_6.0.0.dir/__/__/__/mesh/prov/src/provisioning.c.obj
 .text.prov_tx  0x00000000        0x4 examples/light_switch/client/CMakeFiles/light_switch_client_nrf52840_xxAA_s140_6.0.0.dir/__/__/__/mesh/prov/src/provisioning.c.obj
 .text          0x00000000        0x0 examples/light_switch/client/CMakeFiles/light_switch_client_nrf52840_xxAA_s140_6.0.0.dir/__/__/__/mesh/prov/src/prov_beacon.c.obj
 .data          0x00000000        0x0 examples/light_switch/client/CMakeFiles/light_switch_client_nrf52840_xxAA_s140_6.0.0.dir/__/__/__/mesh/prov/src/prov_beacon.c.obj
 .bss           0x00000000        0x0 examples/light_switch/client/CMakeFiles/light_switch_client_nrf52840_xxAA_s140_6.0.0.dir/__/__/__/mesh/prov/src/prov_beacon.c.obj
 .text.prov_beacon_scan_start
                0x00000000       0x18 examples/light_switch/client/CMakeFiles/light_switch_client_nrf52840_xxAA_s140_6.0.0.dir/__/__/__/mesh/prov/src/prov_beacon.c.obj
 .text.prov_beacon_scan_stop
                0x00000000        0xc examples/light_switch/client/CMakeFiles/light_switch_client_nrf52840_xxAA_s140_6.0.0.dir/__/__/__/mesh/prov/src/prov_beacon.c.obj
 .text          0x00000000        0x0 examples/light_switch/client/CMakeFiles/light_switch_client_nrf52840_xxAA_s140_6.0.0.dir/__/__/__/mesh/prov/src/prov_utils.c.obj
 .data          0x00000000        0x0 examples/light_switch/client/CMakeFiles/light_switch_client_nrf52840_xxAA_s140_6.0.0.dir/__/__/__/mesh/prov/src/prov_utils.c.obj
 .bss           0x00000000        0x0 examples/light_switch/client/CMakeFiles/light_switch_client_nrf52840_xxAA_s140_6.0.0.dir/__/__/__/mesh/prov/src/prov_utils.c.obj
 .text          0x00000000        0x0 examples/light_switch/client/CMakeFiles/light_switch_client_nrf52840_xxAA_s140_6.0.0.dir/__/__/__/mesh/prov/src/prov_bearer_adv.c.obj
 .data          0x00000000        0x0 examples/light_switch/client/CMakeFiles/light_switch_client_nrf52840_xxAA_s140_6.0.0.dir/__/__/__/mesh/prov/src/prov_bearer_adv.c.obj
 .bss           0x00000000        0x0 examples/light_switch/client/CMakeFiles/light_switch_client_nrf52840_xxAA_s140_6.0.0.dir/__/__/__/mesh/prov/src/prov_bearer_adv.c.obj
 .text          0x00000000        0x0 examples/light_switch/client/CMakeFiles/light_switch_client_nrf52840_xxAA_s140_6.0.0.dir/C_/b/nRF5_SDK_15.0.0_a53641a/modules/nrfx/mdk/system_nrf52840.c.obj
 .data          0x00000000        0x0 examples/light_switch/client/CMakeFiles/light_switch_client_nrf52840_xxAA_s140_6.0.0.dir/C_/b/nRF5_SDK_15.0.0_a53641a/modules/nrfx/mdk/system_nrf52840.c.obj
 .bss           0x00000000        0x0 examples/light_switch/client/CMakeFiles/light_switch_client_nrf52840_xxAA_s140_6.0.0.dir/C_/b/nRF5_SDK_15.0.0_a53641a/modules/nrfx/mdk/system_nrf52840.c.obj
 .text.SystemCoreClockUpdate
                0x00000000       0x10 examples/light_switch/client/CMakeFiles/light_switch_client_nrf52840_xxAA_s140_6.0.0.dir/C_/b/nRF5_SDK_15.0.0_a53641a/modules/nrfx/mdk/system_nrf52840.c.obj
 .data          0x00000000        0x0 examples/light_switch/client/CMakeFiles/light_switch_client_nrf52840_xxAA_s140_6.0.0.dir/C_/b/nRF5_SDK_15.0.0_a53641a/modules/nrfx/mdk/gcc_startup_nrf52840.S.obj
 .bss           0x00000000        0x0 examples/light_switch/client/CMakeFiles/light_switch_client_nrf52840_xxAA_s140_6.0.0.dir/C_/b/nRF5_SDK_15.0.0_a53641a/modules/nrfx/mdk/gcc_startup_nrf52840.S.obj
 .text          0x00000000        0x0 examples/light_switch/client/CMakeFiles/light_switch_client_nrf52840_xxAA_s140_6.0.0.dir/C_/b/nRF5_SDK_15.0.0_a53641a/components/libraries/util/app_error.c.obj
 .data          0x00000000        0x0 examples/light_switch/client/CMakeFiles/light_switch_client_nrf52840_xxAA_s140_6.0.0.dir/C_/b/nRF5_SDK_15.0.0_a53641a/components/libraries/util/app_error.c.obj
 .bss           0x00000000        0x0 examples/light_switch/client/CMakeFiles/light_switch_client_nrf52840_xxAA_s140_6.0.0.dir/C_/b/nRF5_SDK_15.0.0_a53641a/components/libraries/util/app_error.c.obj
 .text.app_error_save_and_stop
                0x00000000       0x58 examples/light_switch/client/CMakeFiles/light_switch_client_nrf52840_xxAA_s140_6.0.0.dir/C_/b/nRF5_SDK_15.0.0_a53641a/components/libraries/util/app_error.c.obj
 .bss.m_error_data.8119
                0x00000000       0x20 examples/light_switch/client/CMakeFiles/light_switch_client_nrf52840_xxAA_s140_6.0.0.dir/C_/b/nRF5_SDK_15.0.0_a53641a/components/libraries/util/app_error.c.obj
 .text          0x00000000        0x0 examples/light_switch/client/CMakeFiles/light_switch_client_nrf52840_xxAA_s140_6.0.0.dir/C_/b/nRF5_SDK_15.0.0_a53641a/components/libraries/util/app_util_platform.c.obj
 .data          0x00000000        0x0 examples/light_switch/client/CMakeFiles/light_switch_client_nrf52840_xxAA_s140_6.0.0.dir/C_/b/nRF5_SDK_15.0.0_a53641a/components/libraries/util/app_util_platform.c.obj
 .bss           0x00000000        0x0 examples/light_switch/client/CMakeFiles/light_switch_client_nrf52840_xxAA_s140_6.0.0.dir/C_/b/nRF5_SDK_15.0.0_a53641a/components/libraries/util/app_util_platform.c.obj
 .text.app_util_disable_irq
                0x00000000       0x10 examples/light_switch/client/CMakeFiles/light_switch_client_nrf52840_xxAA_s140_6.0.0.dir/C_/b/nRF5_SDK_15.0.0_a53641a/components/libraries/util/app_util_platform.c.obj
 .text.app_util_enable_irq
                0x00000000       0x14 examples/light_switch/client/CMakeFiles/light_switch_client_nrf52840_xxAA_s140_6.0.0.dir/C_/b/nRF5_SDK_15.0.0_a53641a/components/libraries/util/app_util_platform.c.obj
 .text.privilege_level_get
                0x00000000       0x1a examples/light_switch/client/CMakeFiles/light_switch_client_nrf52840_xxAA_s140_6.0.0.dir/C_/b/nRF5_SDK_15.0.0_a53641a/components/libraries/util/app_util_platform.c.obj
 .text.current_int_priority_get
                0x00000000       0x38 examples/light_switch/client/CMakeFiles/light_switch_client_nrf52840_xxAA_s140_6.0.0.dir/C_/b/nRF5_SDK_15.0.0_a53641a/components/libraries/util/app_util_platform.c.obj
 .bss.m_in_critical_region
                0x00000000        0x4 examples/light_switch/client/CMakeFiles/light_switch_client_nrf52840_xxAA_s140_6.0.0.dir/C_/b/nRF5_SDK_15.0.0_a53641a/components/libraries/util/app_util_platform.c.obj
 .text          0x00000000        0x0 examples/light_switch/client/CMakeFiles/light_switch_client_nrf52840_xxAA_s140_6.0.0.dir/C_/b/nRF5_SDK_15.0.0_a53641a/components/libraries/timer/app_timer.c.obj
 .data          0x00000000        0x0 examples/light_switch/client/CMakeFiles/light_switch_client_nrf52840_xxAA_s140_6.0.0.dir/C_/b/nRF5_SDK_15.0.0_a53641a/components/libraries/timer/app_timer.c.obj
 .bss           0x00000000        0x0 examples/light_switch/client/CMakeFiles/light_switch_client_nrf52840_xxAA_s140_6.0.0.dir/C_/b/nRF5_SDK_15.0.0_a53641a/components/libraries/timer/app_timer.c.obj
 .text.app_timer_stop_all
                0x00000000       0x18 examples/light_switch/client/CMakeFiles/light_switch_client_nrf52840_xxAA_s140_6.0.0.dir/C_/b/nRF5_SDK_15.0.0_a53641a/components/libraries/timer/app_timer.c.obj
 .text.app_timer_cnt_get
                0x00000000        0xc examples/light_switch/client/CMakeFiles/light_switch_client_nrf52840_xxAA_s140_6.0.0.dir/C_/b/nRF5_SDK_15.0.0_a53641a/components/libraries/timer/app_timer.c.obj
 .text.app_timer_cnt_diff_compute
                0x00000000        0x8 examples/light_switch/client/CMakeFiles/light_switch_client_nrf52840_xxAA_s140_6.0.0.dir/C_/b/nRF5_SDK_15.0.0_a53641a/components/libraries/timer/app_timer.c.obj
 .text.app_timer_pause
                0x00000000        0xc examples/light_switch/client/CMakeFiles/light_switch_client_nrf52840_xxAA_s140_6.0.0.dir/C_/b/nRF5_SDK_15.0.0_a53641a/components/libraries/timer/app_timer.c.obj
 .text.app_timer_resume
                0x00000000        0xc examples/light_switch/client/CMakeFiles/light_switch_client_nrf52840_xxAA_s140_6.0.0.dir/C_/b/nRF5_SDK_15.0.0_a53641a/components/libraries/timer/app_timer.c.obj
 .text          0x00000000        0x0 examples/light_switch/client/CMakeFiles/light_switch_client_nrf52840_xxAA_s140_6.0.0.dir/C_/b/nRF5_SDK_15.0.0_a53641a/components/libraries/util/app_error_handler_gcc.c.obj
 .data          0x00000000        0x0 examples/light_switch/client/CMakeFiles/light_switch_client_nrf52840_xxAA_s140_6.0.0.dir/C_/b/nRF5_SDK_15.0.0_a53641a/components/libraries/util/app_error_handler_gcc.c.obj
 .bss           0x00000000        0x0 examples/light_switch/client/CMakeFiles/light_switch_client_nrf52840_xxAA_s140_6.0.0.dir/C_/b/nRF5_SDK_15.0.0_a53641a/components/libraries/util/app_error_handler_gcc.c.obj
 .text          0x00000000        0x0 external/rtt/librtt_nrf52840_xxAA.a(SEGGER_RTT.c.obj)
 .data          0x00000000        0x0 external/rtt/librtt_nrf52840_xxAA.a(SEGGER_RTT.c.obj)
 .bss           0x00000000        0x0 external/rtt/librtt_nrf52840_xxAA.a(SEGGER_RTT.c.obj)
 .text._PostTerminalSwitch.constprop.0
                0x00000000       0x28 external/rtt/librtt_nrf52840_xxAA.a(SEGGER_RTT.c.obj)
 .text.SEGGER_RTT_WriteSkipNoLock
                0x00000000       0xb4 external/rtt/librtt_nrf52840_xxAA.a(SEGGER_RTT.c.obj)
 .text.SEGGER_RTT_WriteString
                0x00000000       0x1a external/rtt/librtt_nrf52840_xxAA.a(SEGGER_RTT.c.obj)
 .text.SEGGER_RTT_WaitKey
                0x00000000        0xc external/rtt/librtt_nrf52840_xxAA.a(SEGGER_RTT.c.obj)
 .text.SEGGER_RTT_HasKey
                0x00000000       0x1c external/rtt/librtt_nrf52840_xxAA.a(SEGGER_RTT.c.obj)
 .text.SEGGER_RTT_HasData
                0x00000000       0x14 external/rtt/librtt_nrf52840_xxAA.a(SEGGER_RTT.c.obj)
 .text.SEGGER_RTT_AllocDownBuffer
                0x00000000       0x68 external/rtt/librtt_nrf52840_xxAA.a(SEGGER_RTT.c.obj)
 .text.SEGGER_RTT_AllocUpBuffer
                0x00000000       0x70 external/rtt/librtt_nrf52840_xxAA.a(SEGGER_RTT.c.obj)
 .text.SEGGER_RTT_ConfigUpBuffer
                0x00000000       0x68 external/rtt/librtt_nrf52840_xxAA.a(SEGGER_RTT.c.obj)
 .text.SEGGER_RTT_ConfigDownBuffer
                0x00000000       0x60 external/rtt/librtt_nrf52840_xxAA.a(SEGGER_RTT.c.obj)
 .text.SEGGER_RTT_SetNameUpBuffer
                0x00000000       0x3c external/rtt/librtt_nrf52840_xxAA.a(SEGGER_RTT.c.obj)
 .text.SEGGER_RTT_SetNameDownBuffer
                0x00000000       0x3c external/rtt/librtt_nrf52840_xxAA.a(SEGGER_RTT.c.obj)
 .text.SEGGER_RTT_Init
                0x00000000       0x10 external/rtt/librtt_nrf52840_xxAA.a(SEGGER_RTT.c.obj)
 .text.SEGGER_RTT_SetTerminal
                0x00000000       0x84 external/rtt/librtt_nrf52840_xxAA.a(SEGGER_RTT.c.obj)
 .text.SEGGER_RTT_TerminalOut
                0x00000000       0xa0 external/rtt/librtt_nrf52840_xxAA.a(SEGGER_RTT.c.obj)
 .bss._ActiveTerminal
                0x00000000        0x1 external/rtt/librtt_nrf52840_xxAA.a(SEGGER_RTT.c.obj)
 .rodata._aTerminalId
                0x00000000       0x10 external/rtt/librtt_nrf52840_xxAA.a(SEGGER_RTT.c.obj)
 .text          0x00000000        0x0 external/rtt/librtt_nrf52840_xxAA.a(SEGGER_RTT_printf.c.obj)
 .data          0x00000000        0x0 external/rtt/librtt_nrf52840_xxAA.a(SEGGER_RTT_printf.c.obj)
 .bss           0x00000000        0x0 external/rtt/librtt_nrf52840_xxAA.a(SEGGER_RTT_printf.c.obj)
 .text          0x00000000        0x0 external/micro-ecc/libuECC_nrf52840_xxAA.a(uECC.c.obj)
 .data          0x00000000        0x0 external/micro-ecc/libuECC_nrf52840_xxAA.a(uECC.c.obj)
 .bss           0x00000000        0x0 external/micro-ecc/libuECC_nrf52840_xxAA.a(uECC.c.obj)
 .text.uECC_vli_modMult
                0x00000000      0x148 external/micro-ecc/libuECC_nrf52840_xxAA.a(uECC.c.obj)
 .text.HMAC_init
                0x00000000       0x46 external/micro-ecc/libuECC_nrf52840_xxAA.a(uECC.c.obj)
 .text.HMAC_update
                0x00000000        0x4 external/micro-ecc/libuECC_nrf52840_xxAA.a(uECC.c.obj)
 .text.HMAC_finish
                0x00000000       0x62 external/micro-ecc/libuECC_nrf52840_xxAA.a(uECC.c.obj)
 .text.update_V
                0x00000000       0x24 external/micro-ecc/libuECC_nrf52840_xxAA.a(uECC.c.obj)
 .text.bits2int
                0x00000000       0x88 external/micro-ecc/libuECC_nrf52840_xxAA.a(uECC.c.obj)
 .text.uECC_sign_with_k
                0x00000000      0x17c external/micro-ecc/libuECC_nrf52840_xxAA.a(uECC.c.obj)
 .text.uECC_set_rng
                0x00000000        0xc external/micro-ecc/libuECC_nrf52840_xxAA.a(uECC.c.obj)
 .text.uECC_get_rng
                0x00000000        0xc external/micro-ecc/libuECC_nrf52840_xxAA.a(uECC.c.obj)
 .text.uECC_curve_private_key_size
                0x00000000        0xe external/micro-ecc/libuECC_nrf52840_xxAA.a(uECC.c.obj)
 .text.uECC_curve_public_key_size
                0x00000000        0x8 external/micro-ecc/libuECC_nrf52840_xxAA.a(uECC.c.obj)
 .text.uECC_compute_public_key
                0x00000000       0x7e external/micro-ecc/libuECC_nrf52840_xxAA.a(uECC.c.obj)
 .text.uECC_sign
                0x00000000       0x56 external/micro-ecc/libuECC_nrf52840_xxAA.a(uECC.c.obj)
 .text.uECC_sign_deterministic
                0x00000000      0x192 external/micro-ecc/libuECC_nrf52840_xxAA.a(uECC.c.obj)
 .text.uECC_verify
                0x00000000      0x2f0 external/micro-ecc/libuECC_nrf52840_xxAA.a(uECC.c.obj)
 .data          0x00000000        0x0 c:/mesh/arm_gcc/bin/../lib/gcc/arm-none-eabi/6.3.1/thumb/v7e-m/fpv4-sp/hard\libgcc.a(_aeabi_uldivmod.o)
 .bss           0x00000000        0x0 c:/mesh/arm_gcc/bin/../lib/gcc/arm-none-eabi/6.3.1/thumb/v7e-m/fpv4-sp/hard\libgcc.a(_aeabi_uldivmod.o)
 .data          0x00000000        0x0 c:/mesh/arm_gcc/bin/../lib/gcc/arm-none-eabi/6.3.1/thumb/v7e-m/fpv4-sp/hard\libgcc.a(_udivmoddi4.o)
 .bss           0x00000000        0x0 c:/mesh/arm_gcc/bin/../lib/gcc/arm-none-eabi/6.3.1/thumb/v7e-m/fpv4-sp/hard\libgcc.a(_udivmoddi4.o)
 .ARM.extab     0x00000000        0x0 c:/mesh/arm_gcc/bin/../lib/gcc/arm-none-eabi/6.3.1/thumb/v7e-m/fpv4-sp/hard\libgcc.a(_udivmoddi4.o)
 .data          0x00000000        0x0 c:/mesh/arm_gcc/bin/../lib/gcc/arm-none-eabi/6.3.1/thumb/v7e-m/fpv4-sp/hard\libgcc.a(_dvmd_tls.o)
 .bss           0x00000000        0x0 c:/mesh/arm_gcc/bin/../lib/gcc/arm-none-eabi/6.3.1/thumb/v7e-m/fpv4-sp/hard\libgcc.a(_dvmd_tls.o)
 .text          0x00000000        0x0 c:/mesh/arm_gcc/bin/../lib/gcc/arm-none-eabi/6.3.1/../../../../arm-none-eabi/lib/thumb/v7e-m/fpv4-sp/hard\libg_nano.a(lib_a-exit.o)
 .data          0x00000000        0x0 c:/mesh/arm_gcc/bin/../lib/gcc/arm-none-eabi/6.3.1/../../../../arm-none-eabi/lib/thumb/v7e-m/fpv4-sp/hard\libg_nano.a(lib_a-exit.o)
 .bss           0x00000000        0x0 c:/mesh/arm_gcc/bin/../lib/gcc/arm-none-eabi/6.3.1/../../../../arm-none-eabi/lib/thumb/v7e-m/fpv4-sp/hard\libg_nano.a(lib_a-exit.o)
 .text          0x00000000        0x0 c:/mesh/arm_gcc/bin/../lib/gcc/arm-none-eabi/6.3.1/../../../../arm-none-eabi/lib/thumb/v7e-m/fpv4-sp/hard\libg_nano.a(lib_a-impure.o)
 .data          0x00000000        0x0 c:/mesh/arm_gcc/bin/../lib/gcc/arm-none-eabi/6.3.1/../../../../arm-none-eabi/lib/thumb/v7e-m/fpv4-sp/hard\libg_nano.a(lib_a-impure.o)
 .bss           0x00000000        0x0 c:/mesh/arm_gcc/bin/../lib/gcc/arm-none-eabi/6.3.1/../../../../arm-none-eabi/lib/thumb/v7e-m/fpv4-sp/hard\libg_nano.a(lib_a-impure.o)
 .text          0x00000000        0x0 c:/mesh/arm_gcc/bin/../lib/gcc/arm-none-eabi/6.3.1/../../../../arm-none-eabi/lib/thumb/v7e-m/fpv4-sp/hard\libg_nano.a(lib_a-init.o)
 .data          0x00000000        0x0 c:/mesh/arm_gcc/bin/../lib/gcc/arm-none-eabi/6.3.1/../../../../arm-none-eabi/lib/thumb/v7e-m/fpv4-sp/hard\libg_nano.a(lib_a-init.o)
 .bss           0x00000000        0x0 c:/mesh/arm_gcc/bin/../lib/gcc/arm-none-eabi/6.3.1/../../../../arm-none-eabi/lib/thumb/v7e-m/fpv4-sp/hard\libg_nano.a(lib_a-init.o)
 .text          0x00000000        0x0 c:/mesh/arm_gcc/bin/../lib/gcc/arm-none-eabi/6.3.1/../../../../arm-none-eabi/lib/thumb/v7e-m/fpv4-sp/hard\libg_nano.a(lib_a-malloc.o)
 .data          0x00000000        0x0 c:/mesh/arm_gcc/bin/../lib/gcc/arm-none-eabi/6.3.1/../../../../arm-none-eabi/lib/thumb/v7e-m/fpv4-sp/hard\libg_nano.a(lib_a-malloc.o)
 .bss           0x00000000        0x0 c:/mesh/arm_gcc/bin/../lib/gcc/arm-none-eabi/6.3.1/../../../../arm-none-eabi/lib/thumb/v7e-m/fpv4-sp/hard\libg_nano.a(lib_a-malloc.o)
 .text          0x00000000        0x0 c:/mesh/arm_gcc/bin/../lib/gcc/arm-none-eabi/6.3.1/../../../../arm-none-eabi/lib/thumb/v7e-m/fpv4-sp/hard\libg_nano.a(lib_a-memcmp.o)
 .data          0x00000000        0x0 c:/mesh/arm_gcc/bin/../lib/gcc/arm-none-eabi/6.3.1/../../../../arm-none-eabi/lib/thumb/v7e-m/fpv4-sp/hard\libg_nano.a(lib_a-memcmp.o)
 .bss           0x00000000        0x0 c:/mesh/arm_gcc/bin/../lib/gcc/arm-none-eabi/6.3.1/../../../../arm-none-eabi/lib/thumb/v7e-m/fpv4-sp/hard\libg_nano.a(lib_a-memcmp.o)
 .text          0x00000000        0x0 c:/mesh/arm_gcc/bin/../lib/gcc/arm-none-eabi/6.3.1/../../../../arm-none-eabi/lib/thumb/v7e-m/fpv4-sp/hard\libg_nano.a(lib_a-memcpy-stub.o)
 .data          0x00000000        0x0 c:/mesh/arm_gcc/bin/../lib/gcc/arm-none-eabi/6.3.1/../../../../arm-none-eabi/lib/thumb/v7e-m/fpv4-sp/hard\libg_nano.a(lib_a-memcpy-stub.o)
 .bss           0x00000000        0x0 c:/mesh/arm_gcc/bin/../lib/gcc/arm-none-eabi/6.3.1/../../../../arm-none-eabi/lib/thumb/v7e-m/fpv4-sp/hard\libg_nano.a(lib_a-memcpy-stub.o)
 .text          0x00000000        0x0 c:/mesh/arm_gcc/bin/../lib/gcc/arm-none-eabi/6.3.1/../../../../arm-none-eabi/lib/thumb/v7e-m/fpv4-sp/hard\libg_nano.a(lib_a-memset.o)
 .data          0x00000000        0x0 c:/mesh/arm_gcc/bin/../lib/gcc/arm-none-eabi/6.3.1/../../../../arm-none-eabi/lib/thumb/v7e-m/fpv4-sp/hard\libg_nano.a(lib_a-memset.o)
 .bss           0x00000000        0x0 c:/mesh/arm_gcc/bin/../lib/gcc/arm-none-eabi/6.3.1/../../../../arm-none-eabi/lib/thumb/v7e-m/fpv4-sp/hard\libg_nano.a(lib_a-memset.o)
 .text          0x00000000        0x0 c:/mesh/arm_gcc/bin/../lib/gcc/arm-none-eabi/6.3.1/../../../../arm-none-eabi/lib/thumb/v7e-m/fpv4-sp/hard\libg_nano.a(lib_a-nano-freer.o)
 .data          0x00000000        0x0 c:/mesh/arm_gcc/bin/../lib/gcc/arm-none-eabi/6.3.1/../../../../arm-none-eabi/lib/thumb/v7e-m/fpv4-sp/hard\libg_nano.a(lib_a-nano-freer.o)
 .bss           0x00000000        0x0 c:/mesh/arm_gcc/bin/../lib/gcc/arm-none-eabi/6.3.1/../../../../arm-none-eabi/lib/thumb/v7e-m/fpv4-sp/hard\libg_nano.a(lib_a-nano-freer.o)
 .text          0x00000000        0x0 c:/mesh/arm_gcc/bin/../lib/gcc/arm-none-eabi/6.3.1/../../../../arm-none-eabi/lib/thumb/v7e-m/fpv4-sp/hard\libg_nano.a(lib_a-nano-mallocr.o)
 .data          0x00000000        0x0 c:/mesh/arm_gcc/bin/../lib/gcc/arm-none-eabi/6.3.1/../../../../arm-none-eabi/lib/thumb/v7e-m/fpv4-sp/hard\libg_nano.a(lib_a-nano-mallocr.o)
 .bss           0x00000000        0x0 c:/mesh/arm_gcc/bin/../lib/gcc/arm-none-eabi/6.3.1/../../../../arm-none-eabi/lib/thumb/v7e-m/fpv4-sp/hard\libg_nano.a(lib_a-nano-mallocr.o)
 .text          0x00000000        0x0 c:/mesh/arm_gcc/bin/../lib/gcc/arm-none-eabi/6.3.1/../../../../arm-none-eabi/lib/thumb/v7e-m/fpv4-sp/hard\libg_nano.a(lib_a-sbrkr.o)
 .data          0x00000000        0x0 c:/mesh/arm_gcc/bin/../lib/gcc/arm-none-eabi/6.3.1/../../../../arm-none-eabi/lib/thumb/v7e-m/fpv4-sp/hard\libg_nano.a(lib_a-sbrkr.o)
 .bss           0x00000000        0x0 c:/mesh/arm_gcc/bin/../lib/gcc/arm-none-eabi/6.3.1/../../../../arm-none-eabi/lib/thumb/v7e-m/fpv4-sp/hard\libg_nano.a(lib_a-sbrkr.o)
 .text          0x00000000        0x0 c:/mesh/arm_gcc/bin/../lib/gcc/arm-none-eabi/6.3.1/../../../../arm-none-eabi/lib/thumb/v7e-m/fpv4-sp/hard\libg_nano.a(lib_a-strcpy.o)
 .data          0x00000000        0x0 c:/mesh/arm_gcc/bin/../lib/gcc/arm-none-eabi/6.3.1/../../../../arm-none-eabi/lib/thumb/v7e-m/fpv4-sp/hard\libg_nano.a(lib_a-strcpy.o)
 .bss           0x00000000        0x0 c:/mesh/arm_gcc/bin/../lib/gcc/arm-none-eabi/6.3.1/../../../../arm-none-eabi/lib/thumb/v7e-m/fpv4-sp/hard\libg_nano.a(lib_a-strcpy.o)
 .data          0x00000000        0x0 c:/mesh/arm_gcc/bin/../lib/gcc/arm-none-eabi/6.3.1/../../../../arm-none-eabi/lib/thumb/v7e-m/fpv4-sp/hard\libg_nano.a(lib_a-strlen.o)
 .bss           0x00000000        0x0 c:/mesh/arm_gcc/bin/../lib/gcc/arm-none-eabi/6.3.1/../../../../arm-none-eabi/lib/thumb/v7e-m/fpv4-sp/hard\libg_nano.a(lib_a-strlen.o)
 .text          0x00000000        0x0 c:/mesh/arm_gcc/bin/../lib/gcc/arm-none-eabi/6.3.1/../../../../arm-none-eabi/lib/thumb/v7e-m/fpv4-sp/hard\libg_nano.a(lib_a-strrchr.o)
 .data          0x00000000        0x0 c:/mesh/arm_gcc/bin/../lib/gcc/arm-none-eabi/6.3.1/../../../../arm-none-eabi/lib/thumb/v7e-m/fpv4-sp/hard\libg_nano.a(lib_a-strrchr.o)
 .bss           0x00000000        0x0 c:/mesh/arm_gcc/bin/../lib/gcc/arm-none-eabi/6.3.1/../../../../arm-none-eabi/lib/thumb/v7e-m/fpv4-sp/hard\libg_nano.a(lib_a-strrchr.o)
 .text          0x00000000        0x0 c:/mesh/arm_gcc/bin/../lib/gcc/arm-none-eabi/6.3.1/../../../../arm-none-eabi/lib/thumb/v7e-m/fpv4-sp/hard\libg_nano.a(lib_a-mlock.o)
 .data          0x00000000        0x0 c:/mesh/arm_gcc/bin/../lib/gcc/arm-none-eabi/6.3.1/../../../../arm-none-eabi/lib/thumb/v7e-m/fpv4-sp/hard\libg_nano.a(lib_a-mlock.o)
 .bss           0x00000000        0x0 c:/mesh/arm_gcc/bin/../lib/gcc/arm-none-eabi/6.3.1/../../../../arm-none-eabi/lib/thumb/v7e-m/fpv4-sp/hard\libg_nano.a(lib_a-mlock.o)
 .text          0x00000000        0x0 c:/mesh/arm_gcc/bin/../lib/gcc/arm-none-eabi/6.3.1/../../../../arm-none-eabi/lib/thumb/v7e-m/fpv4-sp/hard\libg_nano.a(lib_a-reent.o)
 .data          0x00000000        0x0 c:/mesh/arm_gcc/bin/../lib/gcc/arm-none-eabi/6.3.1/../../../../arm-none-eabi/lib/thumb/v7e-m/fpv4-sp/hard\libg_nano.a(lib_a-reent.o)
 .bss           0x00000000        0x0 c:/mesh/arm_gcc/bin/../lib/gcc/arm-none-eabi/6.3.1/../../../../arm-none-eabi/lib/thumb/v7e-m/fpv4-sp/hard\libg_nano.a(lib_a-reent.o)
 .text.cleanup_glue
                0x00000000       0x1a c:/mesh/arm_gcc/bin/../lib/gcc/arm-none-eabi/6.3.1/../../../../arm-none-eabi/lib/thumb/v7e-m/fpv4-sp/hard\libg_nano.a(lib_a-reent.o)
 .text._reclaim_reent
                0x00000000       0xb8 c:/mesh/arm_gcc/bin/../lib/gcc/arm-none-eabi/6.3.1/../../../../arm-none-eabi/lib/thumb/v7e-m/fpv4-sp/hard\libg_nano.a(lib_a-reent.o)
 .text          0x00000000        0x0 c:/mesh/arm_gcc/bin/../lib/gcc/arm-none-eabi/6.3.1/../../../../arm-none-eabi/lib/thumb/v7e-m/fpv4-sp/hard\libg_nano.a(lib_a-strchr.o)
 .data          0x00000000        0x0 c:/mesh/arm_gcc/bin/../lib/gcc/arm-none-eabi/6.3.1/../../../../arm-none-eabi/lib/thumb/v7e-m/fpv4-sp/hard\libg_nano.a(lib_a-strchr.o)
 .bss           0x00000000        0x0 c:/mesh/arm_gcc/bin/../lib/gcc/arm-none-eabi/6.3.1/../../../../arm-none-eabi/lib/thumb/v7e-m/fpv4-sp/hard\libg_nano.a(lib_a-strchr.o)
 .text          0x00000000        0x0 c:/mesh/arm_gcc/bin/../lib/gcc/arm-none-eabi/6.3.1/thumb/v7e-m/fpv4-sp/hard/crtend.o
 .data          0x00000000        0x0 c:/mesh/arm_gcc/bin/../lib/gcc/arm-none-eabi/6.3.1/thumb/v7e-m/fpv4-sp/hard/crtend.o
 .bss           0x00000000        0x0 c:/mesh/arm_gcc/bin/../lib/gcc/arm-none-eabi/6.3.1/thumb/v7e-m/fpv4-sp/hard/crtend.o
 .text          0x00000000        0x0 c:/mesh/arm_gcc/bin/../lib/gcc/arm-none-eabi/6.3.1/thumb/v7e-m/fpv4-sp/hard/crtn.o
 .data          0x00000000        0x0 c:/mesh/arm_gcc/bin/../lib/gcc/arm-none-eabi/6.3.1/thumb/v7e-m/fpv4-sp/hard/crtn.o
 .bss           0x00000000        0x0 c:/mesh/arm_gcc/bin/../lib/gcc/arm-none-eabi/6.3.1/thumb/v7e-m/fpv4-sp/hard/crtn.o
 .text          0x00000000        0x0 c:/mesh/arm_gcc/bin/../lib/gcc/arm-none-eabi/6.3.1/../../../../arm-none-eabi/lib/thumb/v7e-m/fpv4-sp/hard\libnosys.a(sbrk.o)
 .data          0x00000000        0x0 c:/mesh/arm_gcc/bin/../lib/gcc/arm-none-eabi/6.3.1/../../../../arm-none-eabi/lib/thumb/v7e-m/fpv4-sp/hard\libnosys.a(sbrk.o)
 .bss           0x00000000        0x0 c:/mesh/arm_gcc/bin/../lib/gcc/arm-none-eabi/6.3.1/../../../../arm-none-eabi/lib/thumb/v7e-m/fpv4-sp/hard\libnosys.a(sbrk.o)
 .text          0x00000000        0x0 c:/mesh/arm_gcc/bin/../lib/gcc/arm-none-eabi/6.3.1/../../../../arm-none-eabi/lib/thumb/v7e-m/fpv4-sp/hard\libnosys.a(_exit.o)
 .data          0x00000000        0x0 c:/mesh/arm_gcc/bin/../lib/gcc/arm-none-eabi/6.3.1/../../../../arm-none-eabi/lib/thumb/v7e-m/fpv4-sp/hard\libnosys.a(_exit.o)
 .bss           0x00000000        0x0 c:/mesh/arm_gcc/bin/../lib/gcc/arm-none-eabi/6.3.1/../../../../arm-none-eabi/lib/thumb/v7e-m/fpv4-sp/hard\libnosys.a(_exit.o)

Memory Configuration

Name             Origin             Length             Attributes
FLASH            0x00026000         0x000d1000         xr
RAM              0x20002da0         0x0003cf60         xrw
*default*        0x00000000         0xffffffff

Linker script and memory map


.text           0x00026000    0x13fe4
 *(.isr_vector)
 .isr_vector    0x00026000      0x200 examples/light_switch/client/CMakeFiles/light_switch_client_nrf52840_xxAA_s140_6.0.0.dir/C_/b/nRF5_SDK_15.0.0_a53641a/modules/nrfx/mdk/gcc_startup_nrf52840.S.obj
                0x00026000                __isr_vector
 *(.text*)
 .text          0x00026200       0x6c c:/mesh/arm_gcc/bin/../lib/gcc/arm-none-eabi/6.3.1/thumb/v7e-m/fpv4-sp/hard/crtbegin.o
 .text          0x0002626c       0x74 c:/mesh/arm_gcc/bin/../lib/gcc/arm-none-eabi/6.3.1/../../../../arm-none-eabi/lib/thumb/v7e-m/fpv4-sp/hard/crt0.o
                0x0002626c                _start
                0x0002626c                _mainCRTStartup
 .text.sd_app_evt_wait
                0x000262e0        0x4 examples/light_switch/client/CMakeFiles/light_switch_client_nrf52840_xxAA_s140_6.0.0.dir/src/main.c.obj
 .text.provisioning_complete_cb
                0x000262e4       0xd0 examples/light_switch/client/CMakeFiles/light_switch_client_nrf52840_xxAA_s140_6.0.0.dir/src/main.c.obj
 .text.button_event_handler
                0x000263b4      0x1b4 examples/light_switch/client/CMakeFiles/light_switch_client_nrf52840_xxAA_s140_6.0.0.dir/src/main.c.obj
 .text.rtt_input_handler
                0x00026568        0xc examples/light_switch/client/CMakeFiles/light_switch_client_nrf52840_xxAA_s140_6.0.0.dir/src/main.c.obj
 .text.models_init_cb
                0x00026574       0xb0 examples/light_switch/client/CMakeFiles/light_switch_client_nrf52840_xxAA_s140_6.0.0.dir/src/main.c.obj
 .text.client_status_cb
                0x00026624      0x1d4 examples/light_switch/client/CMakeFiles/light_switch_client_nrf52840_xxAA_s140_6.0.0.dir/src/main.c.obj
 .text.config_server_evt_cb
                0x000267f8       0x80 examples/light_switch/client/CMakeFiles/light_switch_client_nrf52840_xxAA_s140_6.0.0.dir/src/main.c.obj
 .text.client_publish_timeout_cb
                0x00026878       0x64 examples/light_switch/client/CMakeFiles/light_switch_client_nrf52840_xxAA_s140_6.0.0.dir/src/main.c.obj
 .text.startup.main
                0x000268dc      0x25c examples/light_switch/client/CMakeFiles/light_switch_client_nrf52840_xxAA_s140_6.0.0.dir/src/main.c.obj
                0x000268dc                main
 .text.mesh_evt_handler
                0x00026b38        0xe examples/light_switch/client/CMakeFiles/light_switch_client_nrf52840_xxAA_s140_6.0.0.dir/__/__/__/mesh/stack/src/mesh_stack.c.obj
 .text.mesh_stack_start
                0x00026b46        0x4 examples/light_switch/client/CMakeFiles/light_switch_client_nrf52840_xxAA_s140_6.0.0.dir/__/__/__/mesh/stack/src/mesh_stack.c.obj
                0x00026b46                mesh_stack_start
 .text.mesh_stack_provisioning_data_store
                0x00026b4a       0x6c examples/light_switch/client/CMakeFiles/light_switch_client_nrf52840_xxAA_s140_6.0.0.dir/__/__/__/mesh/stack/src/mesh_stack.c.obj
                0x00026b4a                mesh_stack_provisioning_data_store
 .text.mesh_stack_config_clear
                0x00026bb6       0x12 examples/light_switch/client/CMakeFiles/light_switch_client_nrf52840_xxAA_s140_6.0.0.dir/__/__/__/mesh/stack/src/mesh_stack.c.obj
                0x00026bb6                mesh_stack_config_clear
 .text.mesh_stack_is_device_provisioned
                0x00026bc8       0x18 examples/light_switch/client/CMakeFiles/light_switch_client_nrf52840_xxAA_s140_6.0.0.dir/__/__/__/mesh/stack/src/mesh_stack.c.obj
                0x00026bc8                mesh_stack_is_device_provisioned
 .text.mesh_stack_init
                0x00026be0       0x60 examples/light_switch/client/CMakeFiles/light_switch_client_nrf52840_xxAA_s140_6.0.0.dir/__/__/__/mesh/stack/src/mesh_stack.c.obj
                0x00026be0                mesh_stack_init
 .text.mesh_stack_device_reset
                0x00026c40       0x20 examples/light_switch/client/CMakeFiles/light_switch_client_nrf52840_xxAA_s140_6.0.0.dir/__/__/__/mesh/stack/src/mesh_stack.c.obj
                0x00026c40                mesh_stack_device_reset
 .text.sd_evt_get
                0x00026c60        0x4 examples/light_switch/client/CMakeFiles/light_switch_client_nrf52840_xxAA_s140_6.0.0.dir/__/__/common/src/mesh_softdevice_init.c.obj
 .text.sd_softdevice_enable
                0x00026c64        0x4 examples/light_switch/client/CMakeFiles/light_switch_client_nrf52840_xxAA_s140_6.0.0.dir/__/__/common/src/mesh_softdevice_init.c.obj
 .text.sd_ble_enable
                0x00026c68        0x4 examples/light_switch/client/CMakeFiles/light_switch_client_nrf52840_xxAA_s140_6.0.0.dir/__/__/common/src/mesh_softdevice_init.c.obj
 .text.sd_ble_cfg_set
                0x00026c6c        0x4 examples/light_switch/client/CMakeFiles/light_switch_client_nrf52840_xxAA_s140_6.0.0.dir/__/__/common/src/mesh_softdevice_init.c.obj
 .text.SWI2_EGU2_IRQHandler
                0x00026c70       0x18 examples/light_switch/client/CMakeFiles/light_switch_client_nrf52840_xxAA_s140_6.0.0.dir/__/__/common/src/mesh_softdevice_init.c.obj
                0x00026c70                SWI2_EGU2_IRQHandler
 .text.mesh_softdevice_init
                0x00026c88      0x1ac examples/light_switch/client/CMakeFiles/light_switch_client_nrf52840_xxAA_s140_6.0.0.dir/__/__/common/src/mesh_softdevice_init.c.obj
                0x00026c88                mesh_softdevice_init
 .text.provisionee_start
                0x00026e34       0x18 examples/light_switch/client/CMakeFiles/light_switch_client_nrf52840_xxAA_s140_6.0.0.dir/__/__/common/src/mesh_provisionee.c.obj
 .text.prov_evt_handler
                0x00026e4c       0x64 examples/light_switch/client/CMakeFiles/light_switch_client_nrf52840_xxAA_s140_6.0.0.dir/__/__/common/src/mesh_provisionee.c.obj
 .text.mesh_provisionee_prov_start
                0x00026eb0       0x78 examples/light_switch/client/CMakeFiles/light_switch_client_nrf52840_xxAA_s140_6.0.0.dir/__/__/common/src/mesh_provisionee.c.obj
                0x00026eb0                mesh_provisionee_prov_start
 .text.timeout_handler
                0x00026f28       0x1c examples/light_switch/client/CMakeFiles/light_switch_client_nrf52840_xxAA_s140_6.0.0.dir/__/__/common/src/rtt_input.c.obj
                0x00026f28                timeout_handler
 .text.rtt_input_enable
                0x00026f44       0x6c examples/light_switch/client/CMakeFiles/light_switch_client_nrf52840_xxAA_s140_6.0.0.dir/__/__/common/src/rtt_input.c.obj
                0x00026f44                rtt_input_enable
 .text.led_timeout_handler
                0x00026fb0       0x40 examples/light_switch/client/CMakeFiles/light_switch_client_nrf52840_xxAA_s140_6.0.0.dir/__/__/common/src/simple_hal.c.obj
 .text.hal_led_pin_get
                0x00026ff0       0x18 examples/light_switch/client/CMakeFiles/light_switch_client_nrf52840_xxAA_s140_6.0.0.dir/__/__/common/src/simple_hal.c.obj
                0x00026ff0                hal_led_pin_get
 .text.hal_led_pin_set
                0x00027008       0x16 examples/light_switch/client/CMakeFiles/light_switch_client_nrf52840_xxAA_s140_6.0.0.dir/__/__/common/src/simple_hal.c.obj
                0x00027008                hal_led_pin_set
 .text.hal_led_mask_set
                0x0002701e       0x12 examples/light_switch/client/CMakeFiles/light_switch_client_nrf52840_xxAA_s140_6.0.0.dir/__/__/common/src/simple_hal.c.obj
                0x0002701e                hal_led_mask_set
 .text.hal_led_blink_ms
                0x00027030       0x5c examples/light_switch/client/CMakeFiles/light_switch_client_nrf52840_xxAA_s140_6.0.0.dir/__/__/common/src/simple_hal.c.obj
                0x00027030                hal_led_blink_ms
 .text.hal_leds_init
                0x0002708c       0x58 examples/light_switch/client/CMakeFiles/light_switch_client_nrf52840_xxAA_s140_6.0.0.dir/__/__/common/src/simple_hal.c.obj
                0x0002708c                hal_leds_init
 .text.hal_buttons_init
                0x000270e4       0x50 examples/light_switch/client/CMakeFiles/light_switch_client_nrf52840_xxAA_s140_6.0.0.dir/__/__/common/src/simple_hal.c.obj
                0x000270e4                hal_buttons_init
 .text.GPIOTE_IRQHandler
                0x00027134       0x60 examples/light_switch/client/CMakeFiles/light_switch_client_nrf52840_xxAA_s140_6.0.0.dir/__/__/common/src/simple_hal.c.obj
                0x00027134                GPIOTE_IRQHandler
 .text._weak_handler
                0x00027194        0x4 examples/light_switch/client/CMakeFiles/light_switch_client_nrf52840_xxAA_s140_6.0.0.dir/__/__/nrf_mesh_weak.c.obj
                0x00027194                nrf_mesh_dfu_init
                0x00027194                nrf_mesh_dfu_jump_to_bootloader
                0x00027194                nrf_mesh_dfu_rx
                0x00027194                prov_provisioner_provision
                0x00027194                nrf_mesh_dfu_bank_info_get
                0x00027194                prov_provisioner_oob_pubkey
                0x00027194                nrf_mesh_dfu_request
                0x00027194                nrf_mesh_dfu_bank_flash
                0x00027194                _weak_handler
                0x00027194                nrf_mesh_dfu_relay
                0x00027194                nrf_mesh_dfu_abort
                0x00027194                mesh_flash_op_execute
                0x00027194                prov_provisionee_init
                0x00027194                nrf_mesh_dfu_state_get
                0x00027194                prov_provisioner_shared_secret
                0x00027194                prov_provisioner_auth_data
                0x00027194                prov_provisioner_oob_use
 .text.app_error_fault_handler
                0x00027198      0x204 examples/light_switch/client/CMakeFiles/light_switch_client_nrf52840_xxAA_s140_6.0.0.dir/__/__/common/src/app_error_weak.c.obj
                0x00027198                app_error_fault_handler
 .text.mesh_assertion_handler
                0x0002739c       0x24 examples/light_switch/client/CMakeFiles/light_switch_client_nrf52840_xxAA_s140_6.0.0.dir/__/__/common/src/assertion_handler_weak.c.obj
                0x0002739c                mesh_assertion_handler
 .text.nrf_mesh_configure_device_uuid_set
                0x000273c0       0x10 examples/light_switch/client/CMakeFiles/light_switch_client_nrf52840_xxAA_s140_6.0.0.dir/__/__/__/mesh/core/src/nrf_mesh_configure.c.obj
                0x000273c0                nrf_mesh_configure_device_uuid_set
 .text.nrf_mesh_configure_device_uuid_reset
                0x000273d0       0x28 examples/light_switch/client/CMakeFiles/light_switch_client_nrf52840_xxAA_s140_6.0.0.dir/__/__/__/mesh/core/src/nrf_mesh_configure.c.obj
                0x000273d0                nrf_mesh_configure_device_uuid_reset
 .text.nrf_mesh_configure_device_uuid_get
                0x000273f8        0x8 examples/light_switch/client/CMakeFiles/light_switch_client_nrf52840_xxAA_s140_6.0.0.dir/__/__/__/mesh/core/src/nrf_mesh_configure.c.obj
                0x000273f8                nrf_mesh_configure_device_uuid_get
 .text.msg_cache_init
                0x00027400       0x24 examples/light_switch/client/CMakeFiles/light_switch_client_nrf52840_xxAA_s140_6.0.0.dir/__/__/__/mesh/core/src/msg_cache.c.obj
                0x00027400                msg_cache_init
 .text.msg_cache_entry_exists
                0x00027424       0x3c examples/light_switch/client/CMakeFiles/light_switch_client_nrf52840_xxAA_s140_6.0.0.dir/__/__/__/mesh/core/src/msg_cache.c.obj
                0x00027424                msg_cache_entry_exists
 .text.msg_cache_entry_add
                0x00027460       0x2c examples/light_switch/client/CMakeFiles/light_switch_client_nrf52840_xxAA_s140_6.0.0.dir/__/__/__/mesh/core/src/msg_cache.c.obj
                0x00027460                msg_cache_entry_add
 .text.seqauth_sequence_number_get
                0x0002748c       0x12 examples/light_switch/client/CMakeFiles/light_switch_client_nrf52840_xxAA_s140_6.0.0.dir/__/__/__/mesh/core/src/transport.c.obj
 *fill*         0x0002749e        0x2 
 .text.control_packet_callback_get
                0x000274a0       0x44 examples/light_switch/client/CMakeFiles/light_switch_client_nrf52840_xxAA_s140_6.0.0.dir/__/__/__/mesh/core/src/transport.c.obj
 .text.tx_complete
                0x000274e4       0x2c examples/light_switch/client/CMakeFiles/light_switch_client_nrf52840_xxAA_s140_6.0.0.dir/__/__/__/mesh/core/src/transport.c.obj
 .text.block_ack_full
                0x00027510       0x1a examples/light_switch/client/CMakeFiles/light_switch_client_nrf52840_xxAA_s140_6.0.0.dir/__/__/__/mesh/core/src/transport.c.obj
 *fill*         0x0002752a        0x2 
 .text.sar_rx_session_mark_as_handled
                0x0002752c       0x48 examples/light_switch/client/CMakeFiles/light_switch_client_nrf52840_xxAA_s140_6.0.0.dir/__/__/__/mesh/core/src/transport.c.obj
 .text.upper_trs_packet_encrypt
                0x00027574       0x90 examples/light_switch/client/CMakeFiles/light_switch_client_nrf52840_xxAA_s140_6.0.0.dir/__/__/__/mesh/core/src/transport.c.obj
 .text.sar_ctx_free
                0x00027604       0x3c examples/light_switch/client/CMakeFiles/light_switch_client_nrf52840_xxAA_s140_6.0.0.dir/__/__/__/mesh/core/src/transport.c.obj
 .text.sar_ctx_tx_complete
                0x00027640       0x2e examples/light_switch/client/CMakeFiles/light_switch_client_nrf52840_xxAA_s140_6.0.0.dir/__/__/__/mesh/core/src/transport.c.obj
 *fill*         0x0002766e        0x2 
 .text.sar_ctx_alloc
                0x00027670       0xa8 examples/light_switch/client/CMakeFiles/light_switch_client_nrf52840_xxAA_s140_6.0.0.dir/__/__/__/mesh/core/src/transport.c.obj
 .text.test_transport_decrypt
                0x00027718       0x88 examples/light_switch/client/CMakeFiles/light_switch_client_nrf52840_xxAA_s140_6.0.0.dir/__/__/__/mesh/core/src/transport.c.obj
 .text.upper_transport_access_packet_in
                0x000277a0      0x19c examples/light_switch/client/CMakeFiles/light_switch_client_nrf52840_xxAA_s140_6.0.0.dir/__/__/__/mesh/core/src/transport.c.obj
 .text.trs_packet_header_build
                0x0002793c       0xa6 examples/light_switch/client/CMakeFiles/light_switch_client_nrf52840_xxAA_s140_6.0.0.dir/__/__/__/mesh/core/src/transport.c.obj
 *fill*         0x000279e2        0x2 
 .text.tx_retry_timer_reset
                0x000279e4       0x44 examples/light_switch/client/CMakeFiles/light_switch_client_nrf52840_xxAA_s140_6.0.0.dir/__/__/__/mesh/core/src/transport.c.obj
 .text.sar_ctx_cancel
                0x00027a28       0xa8 examples/light_switch/client/CMakeFiles/light_switch_client_nrf52840_xxAA_s140_6.0.0.dir/__/__/__/mesh/core/src/transport.c.obj
 .text.abort_timeout
                0x00027ad0        0x8 examples/light_switch/client/CMakeFiles/light_switch_client_nrf52840_xxAA_s140_6.0.0.dir/__/__/__/mesh/core/src/transport.c.obj
 .text.trs_sar_packet_out
                0x00027ad8       0xda examples/light_switch/client/CMakeFiles/light_switch_client_nrf52840_xxAA_s140_6.0.0.dir/__/__/__/mesh/core/src/transport.c.obj
 .text.retry_timeout
                0x00027bb2       0x46 examples/light_switch/client/CMakeFiles/light_switch_client_nrf52840_xxAA_s140_6.0.0.dir/__/__/__/mesh/core/src/transport.c.obj
 .text.upper_transport_packet_in
                0x00027bf8      0x150 examples/light_switch/client/CMakeFiles/light_switch_client_nrf52840_xxAA_s140_6.0.0.dir/__/__/__/mesh/core/src/transport.c.obj
 .text.upper_transport_tx
                0x00027d48      0x1e4 examples/light_switch/client/CMakeFiles/light_switch_client_nrf52840_xxAA_s140_6.0.0.dir/__/__/__/mesh/core/src/transport.c.obj
 .text.transport_sar_mem_funcs_reset
                0x00027f2c       0x28 examples/light_switch/client/CMakeFiles/light_switch_client_nrf52840_xxAA_s140_6.0.0.dir/__/__/__/mesh/core/src/transport.c.obj
                0x00027f2c                transport_sar_mem_funcs_reset
 .text.transport_init
                0x00027f54       0x8c examples/light_switch/client/CMakeFiles/light_switch_client_nrf52840_xxAA_s140_6.0.0.dir/__/__/__/mesh/core/src/transport.c.obj
                0x00027f54                transport_init
 .text.transport_tx
                0x00027fe0       0xb4 examples/light_switch/client/CMakeFiles/light_switch_client_nrf52840_xxAA_s140_6.0.0.dir/__/__/__/mesh/core/src/transport.c.obj
                0x00027fe0                transport_tx
 .text.transport_control_tx
                0x00028094       0x8e examples/light_switch/client/CMakeFiles/light_switch_client_nrf52840_xxAA_s140_6.0.0.dir/__/__/__/mesh/core/src/transport.c.obj
                0x00028094                transport_control_tx
 *fill*         0x00028122        0x2 
 .text.sar_ack_send
                0x00028124       0xa0 examples/light_switch/client/CMakeFiles/light_switch_client_nrf52840_xxAA_s140_6.0.0.dir/__/__/__/mesh/core/src/transport.c.obj
 .text.transport_sar_process
                0x000281c4       0x74 examples/light_switch/client/CMakeFiles/light_switch_client_nrf52840_xxAA_s140_6.0.0.dir/__/__/__/mesh/core/src/transport.c.obj
 .text.transport_packet_in
                0x00028238      0x434 examples/light_switch/client/CMakeFiles/light_switch_client_nrf52840_xxAA_s140_6.0.0.dir/__/__/__/mesh/core/src/transport.c.obj
                0x00028238                transport_packet_in
 .text.ack_timeout
                0x0002866c       0x28 examples/light_switch/client/CMakeFiles/light_switch_client_nrf52840_xxAA_s140_6.0.0.dir/__/__/__/mesh/core/src/transport.c.obj
 .text.transport_opt_set
                0x00028694       0xd0 examples/light_switch/client/CMakeFiles/light_switch_client_nrf52840_xxAA_s140_6.0.0.dir/__/__/__/mesh/core/src/transport.c.obj
                0x00028694                transport_opt_set
 .text.transport_opt_get
                0x00028764       0x68 examples/light_switch/client/CMakeFiles/light_switch_client_nrf52840_xxAA_s140_6.0.0.dir/__/__/__/mesh/core/src/transport.c.obj
                0x00028764                transport_opt_get
 .text.transport_control_packet_consumer_add
                0x000287cc       0x5c examples/light_switch/client/CMakeFiles/light_switch_client_nrf52840_xxAA_s140_6.0.0.dir/__/__/__/mesh/core/src/transport.c.obj
                0x000287cc                transport_control_packet_consumer_add
 .text.event_handle
                0x00028828       0x54 examples/light_switch/client/CMakeFiles/light_switch_client_nrf52840_xxAA_s140_6.0.0.dir/__/__/__/mesh/core/src/event.c.obj
                0x00028828                event_handle
 .text.event_handler_add
                0x0002887c       0x20 examples/light_switch/client/CMakeFiles/light_switch_client_nrf52840_xxAA_s140_6.0.0.dir/__/__/__/mesh/core/src/event.c.obj
                0x0002887c                event_handler_add
 .text.event_handler_remove
                0x0002889c       0x34 examples/light_switch/client/CMakeFiles/light_switch_client_nrf52840_xxAA_s140_6.0.0.dir/__/__/__/mesh/core/src/event.c.obj
                0x0002889c                event_handler_remove
 .text.m_index_increment
                0x000288d0       0x1e examples/light_switch/client/CMakeFiles/light_switch_client_nrf52840_xxAA_s140_6.0.0.dir/__/__/__/mesh/core/src/packet_buffer.c.obj
 .text.packet_buffer_init
                0x000288ee       0xac examples/light_switch/client/CMakeFiles/light_switch_client_nrf52840_xxAA_s140_6.0.0.dir/__/__/__/mesh/core/src/packet_buffer.c.obj
                0x000288ee                packet_buffer_init
 .text.packet_buffer_flush
                0x0002899a       0x60 examples/light_switch/client/CMakeFiles/light_switch_client_nrf52840_xxAA_s140_6.0.0.dir/__/__/__/mesh/core/src/packet_buffer.c.obj
                0x0002899a                packet_buffer_flush
 .text.packet_buffer_reserve
                0x000289fa       0x96 examples/light_switch/client/CMakeFiles/light_switch_client_nrf52840_xxAA_s140_6.0.0.dir/__/__/__/mesh/core/src/packet_buffer.c.obj
                0x000289fa                packet_buffer_reserve
 .text.packet_buffer_commit
                0x00028a90       0x58 examples/light_switch/client/CMakeFiles/light_switch_client_nrf52840_xxAA_s140_6.0.0.dir/__/__/__/mesh/core/src/packet_buffer.c.obj
                0x00028a90                packet_buffer_commit
 .text.packet_buffer_pop
                0x00028ae8       0x3c examples/light_switch/client/CMakeFiles/light_switch_client_nrf52840_xxAA_s140_6.0.0.dir/__/__/__/mesh/core/src/packet_buffer.c.obj
                0x00028ae8                packet_buffer_pop
 .text.packet_buffer_can_pop
                0x00028b24       0x1c examples/light_switch/client/CMakeFiles/light_switch_client_nrf52840_xxAA_s140_6.0.0.dir/__/__/__/mesh/core/src/packet_buffer.c.obj
                0x00028b24                packet_buffer_can_pop
 .text.packet_buffer_packets_ready_to_pop
                0x00028b40       0x3a examples/light_switch/client/CMakeFiles/light_switch_client_nrf52840_xxAA_s140_6.0.0.dir/__/__/__/mesh/core/src/packet_buffer.c.obj
                0x00028b40                packet_buffer_packets_ready_to_pop
 .text.packet_buffer_free
                0x00028b7a       0x6e examples/light_switch/client/CMakeFiles/light_switch_client_nrf52840_xxAA_s140_6.0.0.dir/__/__/__/mesh/core/src/packet_buffer.c.obj
                0x00028b7a                packet_buffer_free
 .text.get_last_page
                0x00028be8       0x14 examples/light_switch/client/CMakeFiles/light_switch_client_nrf52840_xxAA_s140_6.0.0.dir/__/__/__/mesh/core/src/flash_manager_defrag.c.obj
 .text.defrag_on_end
                0x00028bfc       0x1c examples/light_switch/client/CMakeFiles/light_switch_client_nrf52840_xxAA_s140_6.0.0.dir/__/__/__/mesh/core/src/flash_manager_defrag.c.obj
 .text.execute_procedure_step
                0x00028c18       0x7c examples/light_switch/client/CMakeFiles/light_switch_client_nrf52840_xxAA_s140_6.0.0.dir/__/__/__/mesh/core/src/flash_manager_defrag.c.obj
 .text.get_next_entry
                0x00028c94       0x34 examples/light_switch/client/CMakeFiles/light_switch_client_nrf52840_xxAA_s140_6.0.0.dir/__/__/__/mesh/core/src/flash_manager_defrag.c.obj
 .text.get_next_data_entry
                0x00028cc8       0x26 examples/light_switch/client/CMakeFiles/light_switch_client_nrf52840_xxAA_s140_6.0.0.dir/__/__/__/mesh/core/src/flash_manager_defrag.c.obj
 *fill*         0x00028cee        0x2 
 .text.on_flash_op_end
                0x00028cf0       0x30 examples/light_switch/client/CMakeFiles/light_switch_client_nrf52840_xxAA_s140_6.0.0.dir/__/__/__/mesh/core/src/flash_manager_defrag.c.obj
 .text.check_for_invalid_entries
                0x00028d20       0x38 examples/light_switch/client/CMakeFiles/light_switch_client_nrf52840_xxAA_s140_6.0.0.dir/__/__/__/mesh/core/src/flash_manager_defrag.c.obj
 .text.erase_recovery_area
                0x00028d58       0x34 examples/light_switch/client/CMakeFiles/light_switch_client_nrf52840_xxAA_s140_6.0.0.dir/__/__/__/mesh/core/src/flash_manager_defrag.c.obj
 .text.flash.constprop.6
                0x00028d8c       0x24 examples/light_switch/client/CMakeFiles/light_switch_client_nrf52840_xxAA_s140_6.0.0.dir/__/__/__/mesh/core/src/flash_manager_defrag.c.obj
 .text.seal_storage_page
                0x00028db0       0x50 examples/light_switch/client/CMakeFiles/light_switch_client_nrf52840_xxAA_s140_6.0.0.dir/__/__/__/mesh/core/src/flash_manager_defrag.c.obj
 .text.invalidate_duplicate_entries
                0x00028e00       0x9c examples/light_switch/client/CMakeFiles/light_switch_client_nrf52840_xxAA_s140_6.0.0.dir/__/__/__/mesh/core/src/flash_manager_defrag.c.obj
 .text.copy_metadata
                0x00028e9c       0x3c examples/light_switch/client/CMakeFiles/light_switch_client_nrf52840_xxAA_s140_6.0.0.dir/__/__/__/mesh/core/src/flash_manager_defrag.c.obj
 .text.write_defrag_start_pointer
                0x00028ed8       0x20 examples/light_switch/client/CMakeFiles/light_switch_client_nrf52840_xxAA_s140_6.0.0.dir/__/__/__/mesh/core/src/flash_manager_defrag.c.obj
 .text.write_back
                0x00028ef8       0x28 examples/light_switch/client/CMakeFiles/light_switch_client_nrf52840_xxAA_s140_6.0.0.dir/__/__/__/mesh/core/src/flash_manager_defrag.c.obj
 .text.post_process
                0x00028f20       0x40 examples/light_switch/client/CMakeFiles/light_switch_client_nrf52840_xxAA_s140_6.0.0.dir/__/__/__/mesh/core/src/flash_manager_defrag.c.obj
 .text.backup_entries
                0x00028f60       0xf8 examples/light_switch/client/CMakeFiles/light_switch_client_nrf52840_xxAA_s140_6.0.0.dir/__/__/__/mesh/core/src/flash_manager_defrag.c.obj
 .text.erase_source
                0x00029058       0x34 examples/light_switch/client/CMakeFiles/light_switch_client_nrf52840_xxAA_s140_6.0.0.dir/__/__/__/mesh/core/src/flash_manager_defrag.c.obj
 .text.flash_manager_defrag_init
                0x0002908c       0x8c examples/light_switch/client/CMakeFiles/light_switch_client_nrf52840_xxAA_s140_6.0.0.dir/__/__/__/mesh/core/src/flash_manager_defrag.c.obj
                0x0002908c                flash_manager_defrag_init
 .text.flash_manager_defrag_is_running
                0x00029118       0x10 examples/light_switch/client/CMakeFiles/light_switch_client_nrf52840_xxAA_s140_6.0.0.dir/__/__/__/mesh/core/src/flash_manager_defrag.c.obj
                0x00029118                flash_manager_defrag_is_running
 .text.flash_manager_defrag
                0x00029128       0x44 examples/light_switch/client/CMakeFiles/light_switch_client_nrf52840_xxAA_s140_6.0.0.dir/__/__/__/mesh/core/src/flash_manager_defrag.c.obj
                0x00029128                flash_manager_defrag
 .text.flash_manager_defrag_recovery_page_get
                0x0002916c        0xc examples/light_switch/client/CMakeFiles/light_switch_client_nrf52840_xxAA_s140_6.0.0.dir/__/__/__/mesh/core/src/flash_manager_defrag.c.obj
                0x0002916c                flash_manager_defrag_recovery_page_get
 .text.fifo_init
                0x00029178       0x34 examples/light_switch/client/CMakeFiles/light_switch_client_nrf52840_xxAA_s140_6.0.0.dir/__/__/__/mesh/core/src/fifo.c.obj
                0x00029178                fifo_init
 .text.fifo_push
                0x000291ac       0x50 examples/light_switch/client/CMakeFiles/light_switch_client_nrf52840_xxAA_s140_6.0.0.dir/__/__/__/mesh/core/src/fifo.c.obj
                0x000291ac                fifo_push
 .text.fifo_pop
                0x000291fc       0x52 examples/light_switch/client/CMakeFiles/light_switch_client_nrf52840_xxAA_s140_6.0.0.dir/__/__/__/mesh/core/src/fifo.c.obj
                0x000291fc                fifo_pop
 *fill*         0x0002924e        0x2 
 .text.wait_for_ready
                0x00029250       0x10 examples/light_switch/client/CMakeFiles/light_switch_client_nrf52840_xxAA_s140_6.0.0.dir/__/__/__/mesh/core/src/nrf_flash.c.obj
 .text.nrf_flash_erase
                0x00029260       0x50 examples/light_switch/client/CMakeFiles/light_switch_client_nrf52840_xxAA_s140_6.0.0.dir/__/__/__/mesh/core/src/nrf_flash.c.obj
                0x00029260                nrf_flash_erase
 .text.nrf_flash_write
                0x000292b0       0x50 examples/light_switch/client/CMakeFiles/light_switch_client_nrf52840_xxAA_s140_6.0.0.dir/__/__/__/mesh/core/src/nrf_flash.c.obj
                0x000292b0                nrf_flash_write
 .text.packet_mgr_init
                0x00029300       0x4c examples/light_switch/client/CMakeFiles/light_switch_client_nrf52840_xxAA_s140_6.0.0.dir/__/__/__/mesh/core/src/packet_mgr.c.obj
                0x00029300                packet_mgr_init
 .text.flash_store_iv_index
                0x0002934c       0x38 examples/light_switch/client/CMakeFiles/light_switch_client_nrf52840_xxAA_s140_6.0.0.dir/__/__/__/mesh/core/src/net_state.c.obj
 .text.flash_mem_available
                0x00029384       0x14 examples/light_switch/client/CMakeFiles/light_switch_client_nrf52840_xxAA_s140_6.0.0.dir/__/__/__/mesh/core/src/net_state.c.obj
 .text.seqnum_block_allocate
                0x00029398       0x4c examples/light_switch/client/CMakeFiles/light_switch_client_nrf52840_xxAA_s140_6.0.0.dir/__/__/__/mesh/core/src/net_state.c.obj
 .text.net_state_reset
                0x000293e4       0x3c examples/light_switch/client/CMakeFiles/light_switch_client_nrf52840_xxAA_s140_6.0.0.dir/__/__/__/mesh/core/src/net_state.c.obj
                0x000293e4                net_state_reset
 .text.flash_write_complete
                0x00029420       0x64 examples/light_switch/client/CMakeFiles/light_switch_client_nrf52840_xxAA_s140_6.0.0.dir/__/__/__/mesh/core/src/net_state.c.obj
 .text.net_state_recover_from_flash
                0x00029484       0x8c examples/light_switch/client/CMakeFiles/light_switch_client_nrf52840_xxAA_s140_6.0.0.dir/__/__/__/mesh/core/src/net_state.c.obj
                0x00029484                net_state_recover_from_flash
 .text.net_state_flash_area_get
                0x00029510        0xc examples/light_switch/client/CMakeFiles/light_switch_client_nrf52840_xxAA_s140_6.0.0.dir/__/__/__/mesh/core/src/net_state.c.obj
                0x00029510                net_state_flash_area_get
 .text.init_flash_storage
                0x0002951c       0x40 examples/light_switch/client/CMakeFiles/light_switch_client_nrf52840_xxAA_s140_6.0.0.dir/__/__/__/mesh/core/src/net_state.c.obj
 .text.net_state_init
                0x0002955c       0x5c examples/light_switch/client/CMakeFiles/light_switch_client_nrf52840_xxAA_s140_6.0.0.dir/__/__/__/mesh/core/src/net_state.c.obj
                0x0002955c                net_state_init
 .text.net_state_iv_update_start
                0x000295b8       0x68 examples/light_switch/client/CMakeFiles/light_switch_client_nrf52840_xxAA_s140_6.0.0.dir/__/__/__/mesh/core/src/net_state.c.obj
                0x000295b8                net_state_iv_update_start
 .text.iv_update_trigger_if_pending
                0x00029620       0x80 examples/light_switch/client/CMakeFiles/light_switch_client_nrf52840_xxAA_s140_6.0.0.dir/__/__/__/mesh/core/src/net_state.c.obj
 .text.mesh_evt_handler
                0x000296a0       0xa0 examples/light_switch/client/CMakeFiles/light_switch_client_nrf52840_xxAA_s140_6.0.0.dir/__/__/__/mesh/core/src/net_state.c.obj
 .text.iv_update_timer_handler
                0x00029740       0x68 examples/light_switch/client/CMakeFiles/light_switch_client_nrf52840_xxAA_s140_6.0.0.dir/__/__/__/mesh/core/src/net_state.c.obj
 .text.net_state_seqnum_alloc
                0x000297a8       0x68 examples/light_switch/client/CMakeFiles/light_switch_client_nrf52840_xxAA_s140_6.0.0.dir/__/__/__/mesh/core/src/net_state.c.obj
                0x000297a8                net_state_seqnum_alloc
 .text.net_state_iv_index_lock
                0x00029810       0x3c examples/light_switch/client/CMakeFiles/light_switch_client_nrf52840_xxAA_s140_6.0.0.dir/__/__/__/mesh/core/src/net_state.c.obj
                0x00029810                net_state_iv_index_lock
 .text.net_state_key_refresh_phase_changed
                0x0002984c       0x20 examples/light_switch/client/CMakeFiles/light_switch_client_nrf52840_xxAA_s140_6.0.0.dir/__/__/__/mesh/core/src/net_state.c.obj
                0x0002984c                net_state_key_refresh_phase_changed
 .text.net_state_beacon_iv_index_get
                0x0002986c        0xc examples/light_switch/client/CMakeFiles/light_switch_client_nrf52840_xxAA_s140_6.0.0.dir/__/__/__/mesh/core/src/net_state.c.obj
                0x0002986c                net_state_beacon_iv_index_get
 .text.net_state_tx_iv_index_get
                0x00029878       0x14 examples/light_switch/client/CMakeFiles/light_switch_client_nrf52840_xxAA_s140_6.0.0.dir/__/__/__/mesh/core/src/net_state.c.obj
                0x00029878                net_state_tx_iv_index_get
 .text.net_state_rx_iv_index_get
                0x0002988c       0x18 examples/light_switch/client/CMakeFiles/light_switch_client_nrf52840_xxAA_s140_6.0.0.dir/__/__/__/mesh/core/src/net_state.c.obj
                0x0002988c                net_state_rx_iv_index_get
 .text.net_state_iv_update_get
                0x000298a4        0xc examples/light_switch/client/CMakeFiles/light_switch_client_nrf52840_xxAA_s140_6.0.0.dir/__/__/__/mesh/core/src/net_state.c.obj
                0x000298a4                net_state_iv_update_get
 .text.net_state_iv_index_set
                0x000298b0       0x30 examples/light_switch/client/CMakeFiles/light_switch_client_nrf52840_xxAA_s140_6.0.0.dir/__/__/__/mesh/core/src/net_state.c.obj
                0x000298b0                net_state_iv_index_set
 .text.send_end_events
                0x000298e0       0x84 examples/light_switch/client/CMakeFiles/light_switch_client_nrf52840_xxAA_s140_6.0.0.dir/__/__/__/mesh/core/src/mesh_flash.c.obj
 .text.flash_op_schedule
                0x00029964       0x88 examples/light_switch/client/CMakeFiles/light_switch_client_nrf52840_xxAA_s140_6.0.0.dir/__/__/__/mesh/core/src/mesh_flash.c.obj
 .text.flash_op_start
                0x000299ec      0x13c examples/light_switch/client/CMakeFiles/light_switch_client_nrf52840_xxAA_s140_6.0.0.dir/__/__/__/mesh/core/src/mesh_flash.c.obj
 .text.mesh_flash_init
                0x00029b28       0x88 examples/light_switch/client/CMakeFiles/light_switch_client_nrf52840_xxAA_s140_6.0.0.dir/__/__/__/mesh/core/src/mesh_flash.c.obj
                0x00029b28                mesh_flash_init
 .text.mesh_flash_user_callback_set
                0x00029bb0       0x20 examples/light_switch/client/CMakeFiles/light_switch_client_nrf52840_xxAA_s140_6.0.0.dir/__/__/__/mesh/core/src/mesh_flash.c.obj
                0x00029bb0                mesh_flash_user_callback_set
 .text.mesh_flash_op_push
                0x00029bd0       0xe4 examples/light_switch/client/CMakeFiles/light_switch_client_nrf52840_xxAA_s140_6.0.0.dir/__/__/__/mesh/core/src/mesh_flash.c.obj
                0x00029bd0                mesh_flash_op_push
 .text.nrf_mesh_address_type_get
                0x00029cb4       0x10 examples/light_switch/client/CMakeFiles/light_switch_client_nrf52840_xxAA_s140_6.0.0.dir/__/__/__/mesh/core/src/nrf_mesh_utils.c.obj
                0x00029cb4                nrf_mesh_address_type_get
 .text.sd_softdevice_is_enabled
                0x00029cc4        0x4 examples/light_switch/client/CMakeFiles/light_switch_client_nrf52840_xxAA_s140_6.0.0.dir/__/__/__/mesh/core/src/nrf_mesh.c.obj
 .text.nrf_mesh_listen
                0x00029cc8      0x138 examples/light_switch/client/CMakeFiles/light_switch_client_nrf52840_xxAA_s140_6.0.0.dir/__/__/__/mesh/core/src/nrf_mesh.c.obj
 .text.flash_stable_cb
                0x00029e00       0x20 examples/light_switch/client/CMakeFiles/light_switch_client_nrf52840_xxAA_s140_6.0.0.dir/__/__/__/mesh/core/src/nrf_mesh.c.obj
 .text.scanner_packet_process_cb
                0x00029e20       0x8c examples/light_switch/client/CMakeFiles/light_switch_client_nrf52840_xxAA_s140_6.0.0.dir/__/__/__/mesh/core/src/nrf_mesh.c.obj
 .text.nrf_mesh_init
                0x00029eac       0xd8 examples/light_switch/client/CMakeFiles/light_switch_client_nrf52840_xxAA_s140_6.0.0.dir/__/__/__/mesh/core/src/nrf_mesh.c.obj
                0x00029eac                nrf_mesh_init
 .text.nrf_mesh_enable
                0x00029f84       0x3c examples/light_switch/client/CMakeFiles/light_switch_client_nrf52840_xxAA_s140_6.0.0.dir/__/__/__/mesh/core/src/nrf_mesh.c.obj
                0x00029f84                nrf_mesh_enable
 .text.nrf_mesh_packet_send
                0x00029fc0       0x7c examples/light_switch/client/CMakeFiles/light_switch_client_nrf52840_xxAA_s140_6.0.0.dir/__/__/__/mesh/core/src/nrf_mesh.c.obj
                0x00029fc0                nrf_mesh_packet_send
 .text.nrf_mesh_evt_handler_add
                0x0002a03c        0x4 examples/light_switch/client/CMakeFiles/light_switch_client_nrf52840_xxAA_s140_6.0.0.dir/__/__/__/mesh/core/src/nrf_mesh.c.obj
                0x0002a03c                nrf_mesh_evt_handler_add
 .text.nrf_mesh_on_sd_evt
                0x0002a040        0xa examples/light_switch/client/CMakeFiles/light_switch_client_nrf52840_xxAA_s140_6.0.0.dir/__/__/__/mesh/core/src/nrf_mesh.c.obj
                0x0002a040                nrf_mesh_on_sd_evt
 .text.nrf_mesh_subnet_added
                0x0002a04a        0x2 examples/light_switch/client/CMakeFiles/light_switch_client_nrf52840_xxAA_s140_6.0.0.dir/__/__/__/mesh/core/src/nrf_mesh.c.obj
                0x0002a04a                nrf_mesh_subnet_added
 .text.nrf_mesh_unique_token_get
                0x0002a04c       0x18 examples/light_switch/client/CMakeFiles/light_switch_client_nrf52840_xxAA_s140_6.0.0.dir/__/__/__/mesh/core/src/nrf_mesh.c.obj
                0x0002a04c                nrf_mesh_unique_token_get
 .text.queue_init
                0x0002a064       0x14 examples/light_switch/client/CMakeFiles/light_switch_client_nrf52840_xxAA_s140_6.0.0.dir/__/__/__/mesh/core/src/queue.c.obj
                0x0002a064                queue_init
 .text.queue_push
                0x0002a078       0x34 examples/light_switch/client/CMakeFiles/light_switch_client_nrf52840_xxAA_s140_6.0.0.dir/__/__/__/mesh/core/src/queue.c.obj
                0x0002a078                queue_push
 .text.queue_pop
                0x0002a0ac       0x26 examples/light_switch/client/CMakeFiles/light_switch_client_nrf52840_xxAA_s140_6.0.0.dir/__/__/__/mesh/core/src/queue.c.obj
                0x0002a0ac                queue_pop
 .text.queue_peek
                0x0002a0d2       0x10 examples/light_switch/client/CMakeFiles/light_switch_client_nrf52840_xxAA_s140_6.0.0.dir/__/__/__/mesh/core/src/queue.c.obj
                0x0002a0d2                queue_peek
 .text.sd_power_reset_reason_clr
                0x0002a0e2        0x4 examples/light_switch/client/CMakeFiles/light_switch_client_nrf52840_xxAA_s140_6.0.0.dir/__/__/__/mesh/core/src/hal.c.obj
 *fill*         0x0002a0e6        0x2 
 .text.hal_device_reset
                0x0002a0e8       0x2c examples/light_switch/client/CMakeFiles/light_switch_client_nrf52840_xxAA_s140_6.0.0.dir/__/__/__/mesh/core/src/hal.c.obj
                0x0002a0e8                hal_device_reset
 .text.hal_lfclk_ppm_get
                0x0002a114       0x14 examples/light_switch/client/CMakeFiles/light_switch_client_nrf52840_xxAA_s140_6.0.0.dir/__/__/__/mesh/core/src/hal.c.obj
                0x0002a114                hal_lfclk_ppm_get
 .text.sd_ecb_block_encrypt
                0x0002a128        0x4 examples/light_switch/client/CMakeFiles/light_switch_client_nrf52840_xxAA_s140_6.0.0.dir/__/__/__/mesh/core/src/aes_cmac.c.obj
 .text.utils_xor.constprop.1
                0x0002a12c       0x20 examples/light_switch/client/CMakeFiles/light_switch_client_nrf52840_xxAA_s140_6.0.0.dir/__/__/__/mesh/core/src/aes_cmac.c.obj
 .text.aes_cmac
                0x0002a14c      0x112 examples/light_switch/client/CMakeFiles/light_switch_client_nrf52840_xxAA_s140_6.0.0.dir/__/__/__/mesh/core/src/aes_cmac.c.obj
                0x0002a14c                aes_cmac
 *fill*         0x0002a25e        0x2 
 .text.add_to_add_list
                0x0002a260       0x30 examples/light_switch/client/CMakeFiles/light_switch_client_nrf52840_xxAA_s140_6.0.0.dir/__/__/__/mesh/core/src/timer_scheduler.c.obj
 .text.process_dirty_events
                0x0002a290       0x5c examples/light_switch/client/CMakeFiles/light_switch_client_nrf52840_xxAA_s140_6.0.0.dir/__/__/__/mesh/core/src/timer_scheduler.c.obj
 .text.timer_cb
                0x0002a2ec        0xc examples/light_switch/client/CMakeFiles/light_switch_client_nrf52840_xxAA_s140_6.0.0.dir/__/__/__/mesh/core/src/timer_scheduler.c.obj
 .text.add_evt.constprop.1
                0x0002a2f8       0x58 examples/light_switch/client/CMakeFiles/light_switch_client_nrf52840_xxAA_s140_6.0.0.dir/__/__/__/mesh/core/src/timer_scheduler.c.obj
 .text.process_add_list
                0x0002a350       0x3c examples/light_switch/client/CMakeFiles/light_switch_client_nrf52840_xxAA_s140_6.0.0.dir/__/__/__/mesh/core/src/timer_scheduler.c.obj
 .text.flag_event_cb
                0x0002a38c       0xd8 examples/light_switch/client/CMakeFiles/light_switch_client_nrf52840_xxAA_s140_6.0.0.dir/__/__/__/mesh/core/src/timer_scheduler.c.obj
 .text.timer_sch_init
                0x0002a464       0x24 examples/light_switch/client/CMakeFiles/light_switch_client_nrf52840_xxAA_s140_6.0.0.dir/__/__/__/mesh/core/src/timer_scheduler.c.obj
                0x0002a464                timer_sch_init
 .text.timer_sch_schedule
                0x0002a488       0x3c examples/light_switch/client/CMakeFiles/light_switch_client_nrf52840_xxAA_s140_6.0.0.dir/__/__/__/mesh/core/src/timer_scheduler.c.obj
                0x0002a488                timer_sch_schedule
 .text.timer_sch_abort
                0x0002a4c4       0x58 examples/light_switch/client/CMakeFiles/light_switch_client_nrf52840_xxAA_s140_6.0.0.dir/__/__/__/mesh/core/src/timer_scheduler.c.obj
                0x0002a4c4                timer_sch_abort
 .text.timer_sch_reschedule
                0x0002a51c       0x64 examples/light_switch/client/CMakeFiles/light_switch_client_nrf52840_xxAA_s140_6.0.0.dir/__/__/__/mesh/core/src/timer_scheduler.c.obj
                0x0002a51c                timer_sch_reschedule
 .text.timer_mut_unlock
                0x0002a580       0x10 examples/light_switch/client/CMakeFiles/light_switch_client_nrf52840_xxAA_s140_6.0.0.dir/__/__/__/mesh/core/src/timer.c.obj
 .text.timer_order_cb
                0x0002a590       0x94 examples/light_switch/client/CMakeFiles/light_switch_client_nrf52840_xxAA_s140_6.0.0.dir/__/__/__/mesh/core/src/timer.c.obj
                0x0002a590                timer_order_cb
 .text.timer_now
                0x0002a624       0x48 examples/light_switch/client/CMakeFiles/light_switch_client_nrf52840_xxAA_s140_6.0.0.dir/__/__/__/mesh/core/src/timer.c.obj
                0x0002a624                timer_now
 .text.timer_event_handler
                0x0002a66c       0x84 examples/light_switch/client/CMakeFiles/light_switch_client_nrf52840_xxAA_s140_6.0.0.dir/__/__/__/mesh/core/src/timer.c.obj
                0x0002a66c                timer_event_handler
 .text.timer_on_ts_begin
                0x0002a6f0       0xf4 examples/light_switch/client/CMakeFiles/light_switch_client_nrf52840_xxAA_s140_6.0.0.dir/__/__/__/mesh/core/src/timer.c.obj
                0x0002a6f0                timer_on_ts_begin
 .text.timer_on_ts_end
                0x0002a7e4       0x60 examples/light_switch/client/CMakeFiles/light_switch_client_nrf52840_xxAA_s140_6.0.0.dir/__/__/__/mesh/core/src/timer.c.obj
                0x0002a7e4                timer_on_ts_end
 .text.timer_cb
                0x0002a844       0x10 examples/light_switch/client/CMakeFiles/light_switch_client_nrf52840_xxAA_s140_6.0.0.dir/__/__/__/mesh/core/src/ticker.c.obj
 .text.ticker_init
                0x0002a854       0x3c examples/light_switch/client/CMakeFiles/light_switch_client_nrf52840_xxAA_s140_6.0.0.dir/__/__/__/mesh/core/src/ticker.c.obj
                0x0002a854                ticker_init
 .text.sd_rand_application_bytes_available_get
                0x0002a890        0x4 examples/light_switch/client/CMakeFiles/light_switch_client_nrf52840_xxAA_s140_6.0.0.dir/__/__/__/mesh/core/src/rand.c.obj
 .text.sd_rand_application_vector_get
                0x0002a894        0x4 examples/light_switch/client/CMakeFiles/light_switch_client_nrf52840_xxAA_s140_6.0.0.dir/__/__/__/mesh/core/src/rand.c.obj
 .text.rand_prng_get
                0x0002a898       0x22 examples/light_switch/client/CMakeFiles/light_switch_client_nrf52840_xxAA_s140_6.0.0.dir/__/__/__/mesh/core/src/rand.c.obj
                0x0002a898                rand_prng_get
 .text.rand_hw_rng_get
                0x0002a8ba       0x44 examples/light_switch/client/CMakeFiles/light_switch_client_nrf52840_xxAA_s140_6.0.0.dir/__/__/__/mesh/core/src/rand.c.obj
                0x0002a8ba                rand_hw_rng_get
 *fill*         0x0002a8fe        0x2 
 .text.rand_prng_seed
                0x0002a900       0x34 examples/light_switch/client/CMakeFiles/light_switch_client_nrf52840_xxAA_s140_6.0.0.dir/__/__/__/mesh/core/src/rand.c.obj
                0x0002a900                rand_prng_seed
 .text.nrf_mesh_opt_set
                0x0002a934       0x26 examples/light_switch/client/CMakeFiles/light_switch_client_nrf52840_xxAA_s140_6.0.0.dir/__/__/__/mesh/core/src/nrf_mesh_opt.c.obj
                0x0002a934                nrf_mesh_opt_set
 .text.nrf_mesh_opt_get
                0x0002a95a       0x26 examples/light_switch/client/CMakeFiles/light_switch_client_nrf52840_xxAA_s140_6.0.0.dir/__/__/__/mesh/core/src/nrf_mesh_opt.c.obj
                0x0002a95a                nrf_mesh_opt_get
 .text.sd_radio_session_open
                0x0002a980        0x4 examples/light_switch/client/CMakeFiles/light_switch_client_nrf52840_xxAA_s140_6.0.0.dir/__/__/__/mesh/core/src/timeslot.c.obj
 .text.sd_radio_session_close
                0x0002a984        0x4 examples/light_switch/client/CMakeFiles/light_switch_client_nrf52840_xxAA_s140_6.0.0.dir/__/__/__/mesh/core/src/timeslot.c.obj
 .text.sd_radio_request
                0x0002a988        0x4 examples/light_switch/client/CMakeFiles/light_switch_client_nrf52840_xxAA_s140_6.0.0.dir/__/__/__/mesh/core/src/timeslot.c.obj
 .text.end_timer_handler
                0x0002a98c       0x24 examples/light_switch/client/CMakeFiles/light_switch_client_nrf52840_xxAA_s140_6.0.0.dir/__/__/__/mesh/core/src/timeslot.c.obj
 .text.get_end_time.constprop.10
                0x0002a9b0       0x28 examples/light_switch/client/CMakeFiles/light_switch_client_nrf52840_xxAA_s140_6.0.0.dir/__/__/__/mesh/core/src/timeslot.c.obj
 .text.handle_extend_end.constprop.3
                0x0002a9d8       0xb4 examples/light_switch/client/CMakeFiles/light_switch_client_nrf52840_xxAA_s140_6.0.0.dir/__/__/__/mesh/core/src/timeslot.c.obj
 .text.radio_signal_callback
                0x0002aa8c      0x138 examples/light_switch/client/CMakeFiles/light_switch_client_nrf52840_xxAA_s140_6.0.0.dir/__/__/__/mesh/core/src/timeslot.c.obj
 .text.timeslot_sd_event_handler
                0x0002abc4       0x38 examples/light_switch/client/CMakeFiles/light_switch_client_nrf52840_xxAA_s140_6.0.0.dir/__/__/__/mesh/core/src/timeslot.c.obj
                0x0002abc4                timeslot_sd_event_handler
 .text.timeslot_init
                0x0002abfc       0x48 examples/light_switch/client/CMakeFiles/light_switch_client_nrf52840_xxAA_s140_6.0.0.dir/__/__/__/mesh/core/src/timeslot.c.obj
                0x0002abfc                timeslot_init
 .text.timeslot_start
                0x0002ac44       0x20 examples/light_switch/client/CMakeFiles/light_switch_client_nrf52840_xxAA_s140_6.0.0.dir/__/__/__/mesh/core/src/timeslot.c.obj
                0x0002ac44                timeslot_start
 .text.timeslot_end_is_pending
                0x0002ac64       0x24 examples/light_switch/client/CMakeFiles/light_switch_client_nrf52840_xxAA_s140_6.0.0.dir/__/__/__/mesh/core/src/timeslot.c.obj
                0x0002ac64                timeslot_end_is_pending
 .text.timeslot_start_time_get
                0x0002ac88        0xc examples/light_switch/client/CMakeFiles/light_switch_client_nrf52840_xxAA_s140_6.0.0.dir/__/__/__/mesh/core/src/timeslot.c.obj
                0x0002ac88                timeslot_start_time_get
 .text.timeslot_remaining_time_get
                0x0002ac94       0x20 examples/light_switch/client/CMakeFiles/light_switch_client_nrf52840_xxAA_s140_6.0.0.dir/__/__/__/mesh/core/src/timeslot.c.obj
                0x0002ac94                timeslot_remaining_time_get
 .text.timeslot_is_in_cb
                0x0002acb4        0xc examples/light_switch/client/CMakeFiles/light_switch_client_nrf52840_xxAA_s140_6.0.0.dir/__/__/__/mesh/core/src/timeslot.c.obj
                0x0002acb4                timeslot_is_in_cb
 .text.timeslot_trigger
                0x0002acc0       0x24 examples/light_switch/client/CMakeFiles/light_switch_client_nrf52840_xxAA_s140_6.0.0.dir/__/__/__/mesh/core/src/timeslot.c.obj
                0x0002acc0                timeslot_trigger
 .text.timeslot_stop
                0x0002ace4       0x10 examples/light_switch/client/CMakeFiles/light_switch_client_nrf52840_xxAA_s140_6.0.0.dir/__/__/__/mesh/core/src/timeslot.c.obj
                0x0002ace4                timeslot_stop
 .text.timeslot_state_lock
                0x0002acf4       0x28 examples/light_switch/client/CMakeFiles/light_switch_client_nrf52840_xxAA_s140_6.0.0.dir/__/__/__/mesh/core/src/timeslot.c.obj
                0x0002acf4                timeslot_state_lock
 .text.trigger_event_handler
                0x0002ad1c       0x1c examples/light_switch/client/CMakeFiles/light_switch_client_nrf52840_xxAA_s140_6.0.0.dir/__/__/__/mesh/core/src/bearer_event.c.obj
 .text.evt_push
                0x0002ad38       0x1c examples/light_switch/client/CMakeFiles/light_switch_client_nrf52840_xxAA_s140_6.0.0.dir/__/__/__/mesh/core/src/bearer_event.c.obj
 .text.bearer_event_init
                0x0002ad54       0x48 examples/light_switch/client/CMakeFiles/light_switch_client_nrf52840_xxAA_s140_6.0.0.dir/__/__/__/mesh/core/src/bearer_event.c.obj
                0x0002ad54                bearer_event_init
 .text.bearer_event_timer_post
                0x0002ad9c       0x24 examples/light_switch/client/CMakeFiles/light_switch_client_nrf52840_xxAA_s140_6.0.0.dir/__/__/__/mesh/core/src/bearer_event.c.obj
                0x0002ad9c                bearer_event_timer_post
 .text.bearer_event_critical_section_begin
                0x0002adc0       0x44 examples/light_switch/client/CMakeFiles/light_switch_client_nrf52840_xxAA_s140_6.0.0.dir/__/__/__/mesh/core/src/bearer_event.c.obj
                0x0002adc0                bearer_event_critical_section_begin
 .text.bearer_event_critical_section_end
                0x0002ae04       0x40 examples/light_switch/client/CMakeFiles/light_switch_client_nrf52840_xxAA_s140_6.0.0.dir/__/__/__/mesh/core/src/bearer_event.c.obj
                0x0002ae04                bearer_event_critical_section_end
 .text.bearer_event_flag_add
                0x0002ae44       0x3c examples/light_switch/client/CMakeFiles/light_switch_client_nrf52840_xxAA_s140_6.0.0.dir/__/__/__/mesh/core/src/bearer_event.c.obj
                0x0002ae44                bearer_event_flag_add
 .text.bearer_event_flag_set
                0x0002ae80       0x44 examples/light_switch/client/CMakeFiles/light_switch_client_nrf52840_xxAA_s140_6.0.0.dir/__/__/__/mesh/core/src/bearer_event.c.obj
                0x0002ae80                bearer_event_flag_set
 .text.bearer_event_sequential_add
                0x0002aec4       0x2e examples/light_switch/client/CMakeFiles/light_switch_client_nrf52840_xxAA_s140_6.0.0.dir/__/__/__/mesh/core/src/bearer_event.c.obj
                0x0002aec4                bearer_event_sequential_add
 *fill*         0x0002aef2        0x2 
 .text.bearer_event_sequential_post
                0x0002aef4       0x44 examples/light_switch/client/CMakeFiles/light_switch_client_nrf52840_xxAA_s140_6.0.0.dir/__/__/__/mesh/core/src/bearer_event.c.obj
                0x0002aef4                bearer_event_sequential_post
 .text.bearer_event_sequential_pending
                0x0002af38       0x10 examples/light_switch/client/CMakeFiles/light_switch_client_nrf52840_xxAA_s140_6.0.0.dir/__/__/__/mesh/core/src/bearer_event.c.obj
                0x0002af38                bearer_event_sequential_pending
 .text.bearer_event_handler
                0x0002af48       0xe8 examples/light_switch/client/CMakeFiles/light_switch_client_nrf52840_xxAA_s140_6.0.0.dir/__/__/__/mesh/core/src/bearer_event.c.obj
                0x0002af48                bearer_event_handler
 .text.QDEC_IRQHandler
                0x0002b030        0x4 examples/light_switch/client/CMakeFiles/light_switch_client_nrf52840_xxAA_s140_6.0.0.dir/__/__/__/mesh/core/src/bearer_event.c.obj
                0x0002b030                QDEC_IRQHandler
 .text.sd_ecb_block_encrypt
                0x0002b034        0x4 examples/light_switch/client/CMakeFiles/light_switch_client_nrf52840_xxAA_s140_6.0.0.dir/__/__/__/mesh/core/src/enc.c.obj
 .text.enc_aes_encrypt
                0x0002b038       0x32 examples/light_switch/client/CMakeFiles/light_switch_client_nrf52840_xxAA_s140_6.0.0.dir/__/__/__/mesh/core/src/enc.c.obj
                0x0002b038                enc_aes_encrypt
 .text.enc_aes_cmac
                0x0002b06a        0x4 examples/light_switch/client/CMakeFiles/light_switch_client_nrf52840_xxAA_s140_6.0.0.dir/__/__/__/mesh/core/src/enc.c.obj
                0x0002b06a                enc_aes_cmac
 .text.enc_aes_ccm_encrypt
                0x0002b06e        0x4 examples/light_switch/client/CMakeFiles/light_switch_client_nrf52840_xxAA_s140_6.0.0.dir/__/__/__/mesh/core/src/enc.c.obj
                0x0002b06e                enc_aes_ccm_encrypt
 .text.enc_aes_ccm_decrypt
                0x0002b072        0x4 examples/light_switch/client/CMakeFiles/light_switch_client_nrf52840_xxAA_s140_6.0.0.dir/__/__/__/mesh/core/src/enc.c.obj
                0x0002b072                enc_aes_ccm_decrypt
 .text.enc_nonce_generate
                0x0002b076       0xbc examples/light_switch/client/CMakeFiles/light_switch_client_nrf52840_xxAA_s140_6.0.0.dir/__/__/__/mesh/core/src/enc.c.obj
                0x0002b076                enc_nonce_generate
 .text.enc_s1   0x0002b132       0x2c examples/light_switch/client/CMakeFiles/light_switch_client_nrf52840_xxAA_s140_6.0.0.dir/__/__/__/mesh/core/src/enc.c.obj
                0x0002b132                enc_s1
 .text.enc_k1   0x0002b15e       0x3c examples/light_switch/client/CMakeFiles/light_switch_client_nrf52840_xxAA_s140_6.0.0.dir/__/__/__/mesh/core/src/enc.c.obj
                0x0002b15e                enc_k1
 *fill*         0x0002b19a        0x2 
 .text.enc_k2   0x0002b19c       0xc8 examples/light_switch/client/CMakeFiles/light_switch_client_nrf52840_xxAA_s140_6.0.0.dir/__/__/__/mesh/core/src/enc.c.obj
                0x0002b19c                enc_k2
 .text.enc_k3   0x0002b264       0x5c examples/light_switch/client/CMakeFiles/light_switch_client_nrf52840_xxAA_s140_6.0.0.dir/__/__/__/mesh/core/src/enc.c.obj
                0x0002b264                enc_k3
 .text.enc_k4   0x0002b2c0       0x54 examples/light_switch/client/CMakeFiles/light_switch_client_nrf52840_xxAA_s140_6.0.0.dir/__/__/__/mesh/core/src/enc.c.obj
                0x0002b2c0                enc_k4
 .text.allocate_packet
                0x0002b314       0x6a examples/light_switch/client/CMakeFiles/light_switch_client_nrf52840_xxAA_s140_6.0.0.dir/__/__/__/mesh/core/src/network.c.obj
 *fill*         0x0002b37e        0x2 
 .text.network_init
                0x0002b380       0x2c examples/light_switch/client/CMakeFiles/light_switch_client_nrf52840_xxAA_s140_6.0.0.dir/__/__/__/mesh/core/src/network.c.obj
                0x0002b380                network_init
 .text.network_opt_set
                0x0002b3ac       0x84 examples/light_switch/client/CMakeFiles/light_switch_client_nrf52840_xxAA_s140_6.0.0.dir/__/__/__/mesh/core/src/network.c.obj
                0x0002b3ac                network_opt_set
 .text.network_opt_get
                0x0002b430       0x4c examples/light_switch/client/CMakeFiles/light_switch_client_nrf52840_xxAA_s140_6.0.0.dir/__/__/__/mesh/core/src/network.c.obj
                0x0002b430                network_opt_get
 .text.network_packet_alloc
                0x0002b47c       0x30 examples/light_switch/client/CMakeFiles/light_switch_client_nrf52840_xxAA_s140_6.0.0.dir/__/__/__/mesh/core/src/network.c.obj
                0x0002b47c                network_packet_alloc
 .text.network_packet_send
                0x0002b4ac       0x46 examples/light_switch/client/CMakeFiles/light_switch_client_nrf52840_xxAA_s140_6.0.0.dir/__/__/__/mesh/core/src/network.c.obj
                0x0002b4ac                network_packet_send
 *fill*         0x0002b4f2        0x2 
 .text.network_packet_in
                0x0002b4f4      0x168 examples/light_switch/client/CMakeFiles/light_switch_client_nrf52840_xxAA_s140_6.0.0.dir/__/__/__/mesh/core/src/network.c.obj
                0x0002b4f4                network_packet_in
 .text.nonce_type_get
                0x0002b65c       0x16 examples/light_switch/client/CMakeFiles/light_switch_client_nrf52840_xxAA_s140_6.0.0.dir/__/__/__/mesh/core/src/net_packet.c.obj
 .text.header_transfuscate
                0x0002b672       0x54 examples/light_switch/client/CMakeFiles/light_switch_client_nrf52840_xxAA_s140_6.0.0.dir/__/__/__/mesh/core/src/net_packet.c.obj
 *fill*         0x0002b6c6        0x2 
 .text.net_packet_decrypt
                0x0002b6c8      0x224 examples/light_switch/client/CMakeFiles/light_switch_client_nrf52840_xxAA_s140_6.0.0.dir/__/__/__/mesh/core/src/net_packet.c.obj
                0x0002b6c8                net_packet_decrypt
 .text.net_packet_encrypt
                0x0002b8ec       0x7e examples/light_switch/client/CMakeFiles/light_switch_client_nrf52840_xxAA_s140_6.0.0.dir/__/__/__/mesh/core/src/net_packet.c.obj
                0x0002b8ec                net_packet_encrypt
 .text.net_packet_header_set
                0x0002b96a       0xaa examples/light_switch/client/CMakeFiles/light_switch_client_nrf52840_xxAA_s140_6.0.0.dir/__/__/__/mesh/core/src/net_packet.c.obj
                0x0002b96a                net_packet_header_set
 .text.net_packet_payload_len_get
                0x0002ba14       0x10 examples/light_switch/client/CMakeFiles/light_switch_client_nrf52840_xxAA_s140_6.0.0.dir/__/__/__/mesh/core/src/net_packet.c.obj
                0x0002ba14                net_packet_payload_len_get
 .text.net_packet_from_payload
                0x0002ba24        0x4 examples/light_switch/client/CMakeFiles/light_switch_client_nrf52840_xxAA_s140_6.0.0.dir/__/__/__/mesh/core/src/net_packet.c.obj
                0x0002ba24                net_packet_from_payload
 .text.net_packet_obfuscation_start_get
                0x0002ba28        0x4 examples/light_switch/client/CMakeFiles/light_switch_client_nrf52840_xxAA_s140_6.0.0.dir/__/__/__/mesh/core/src/net_packet.c.obj
                0x0002ba28                net_packet_obfuscation_start_get
 .text.stage_get_available
                0x0002ba2c       0x24 examples/light_switch/client/CMakeFiles/light_switch_client_nrf52840_xxAA_s140_6.0.0.dir/__/__/__/mesh/core/src/msqueue.c.obj
 .text.msq_get  0x0002ba50       0x38 examples/light_switch/client/CMakeFiles/light_switch_client_nrf52840_xxAA_s140_6.0.0.dir/__/__/__/mesh/core/src/msqueue.c.obj
                0x0002ba50                msq_get
 .text.msq_move
                0x0002ba88       0x2e examples/light_switch/client/CMakeFiles/light_switch_client_nrf52840_xxAA_s140_6.0.0.dir/__/__/__/mesh/core/src/msqueue.c.obj
                0x0002ba88                msq_move
 .text.msq_reset
                0x0002bab6       0x20 examples/light_switch/client/CMakeFiles/light_switch_client_nrf52840_xxAA_s140_6.0.0.dir/__/__/__/mesh/core/src/msqueue.c.obj
                0x0002bab6                msq_reset
 .text.msq_init
                0x0002bad6       0x4a examples/light_switch/client/CMakeFiles/light_switch_client_nrf52840_xxAA_s140_6.0.0.dir/__/__/__/mesh/core/src/msqueue.c.obj
                0x0002bad6                msq_init
 .text.msq_available
                0x0002bb20       0x26 examples/light_switch/client/CMakeFiles/light_switch_client_nrf52840_xxAA_s140_6.0.0.dir/__/__/__/mesh/core/src/msqueue.c.obj
                0x0002bb20                msq_available
 .text.nrf_mesh_keygen_aid
                0x0002bb46       0x12 examples/light_switch/client/CMakeFiles/light_switch_client_nrf52840_xxAA_s140_6.0.0.dir/__/__/__/mesh/core/src/nrf_mesh_keygen.c.obj
                0x0002bb46                nrf_mesh_keygen_aid
 .text.nrf_mesh_keygen_network_secmat
                0x0002bb58       0x20 examples/light_switch/client/CMakeFiles/light_switch_client_nrf52840_xxAA_s140_6.0.0.dir/__/__/__/mesh/core/src/nrf_mesh_keygen.c.obj
                0x0002bb58                nrf_mesh_keygen_network_secmat
 .text.nrf_mesh_keygen_beacon_secmat
                0x0002bb78       0x50 examples/light_switch/client/CMakeFiles/light_switch_client_nrf52840_xxAA_s140_6.0.0.dir/__/__/__/mesh/core/src/nrf_mesh_keygen.c.obj
                0x0002bb78                nrf_mesh_keygen_beacon_secmat
 .text.nrf_mesh_keygen_virtual_address
                0x0002bbc8       0x50 examples/light_switch/client/CMakeFiles/light_switch_client_nrf52840_xxAA_s140_6.0.0.dir/__/__/__/mesh/core/src/nrf_mesh_keygen.c.obj
                0x0002bbc8                nrf_mesh_keygen_virtual_address
 .text.list_insert
                0x0002bc18       0x1c examples/light_switch/client/CMakeFiles/light_switch_client_nrf52840_xxAA_s140_6.0.0.dir/__/__/__/mesh/core/src/list.c.obj
 .text.list_add
                0x0002bc34       0x42 examples/light_switch/client/CMakeFiles/light_switch_client_nrf52840_xxAA_s140_6.0.0.dir/__/__/__/mesh/core/src/list.c.obj
                0x0002bc34                list_add
 .text.list_remove
                0x0002bc76       0x3a examples/light_switch/client/CMakeFiles/light_switch_client_nrf52840_xxAA_s140_6.0.0.dir/__/__/__/mesh/core/src/list.c.obj
                0x0002bc76                list_remove
 .text.list_compare_add
                0x0002bcb0       0x56 examples/light_switch/client/CMakeFiles/light_switch_client_nrf52840_xxAA_s140_6.0.0.dir/__/__/__/mesh/core/src/list.c.obj
                0x0002bcb0                list_compare_add
 *fill*         0x0002bd06        0x2 
 .text.log_callback_rtt
                0x0002bd08       0x2c examples/light_switch/client/CMakeFiles/light_switch_client_nrf52840_xxAA_s140_6.0.0.dir/__/__/__/mesh/core/src/log.c.obj
                0x0002bd08                log_callback_rtt
 .text.log_init
                0x0002bd34       0x1c examples/light_switch/client/CMakeFiles/light_switch_client_nrf52840_xxAA_s140_6.0.0.dir/__/__/__/mesh/core/src/log.c.obj
                0x0002bd34                log_init
 .text.log_vprintf
                0x0002bd50       0x18 examples/light_switch/client/CMakeFiles/light_switch_client_nrf52840_xxAA_s140_6.0.0.dir/__/__/__/mesh/core/src/log.c.obj
                0x0002bd50                log_vprintf
 .text.log_printf
                0x0002bd68       0x18 examples/light_switch/client/CMakeFiles/light_switch_client_nrf52840_xxAA_s140_6.0.0.dir/__/__/__/mesh/core/src/log.c.obj
                0x0002bd68                log_printf
 .text.get_area_end
                0x0002bd80        0xc examples/light_switch/client/CMakeFiles/light_switch_client_nrf52840_xxAA_s140_6.0.0.dir/__/__/__/mesh/core/src/flash_manager.c.obj
 .text.handle_matches_filter
                0x0002bd8c       0x26 examples/light_switch/client/CMakeFiles/light_switch_client_nrf52840_xxAA_s140_6.0.0.dir/__/__/__/mesh/core/src/flash_manager.c.obj
 .text.flash_area_is_blank
                0x0002bdb2       0x34 examples/light_switch/client/CMakeFiles/light_switch_client_nrf52840_xxAA_s140_6.0.0.dir/__/__/__/mesh/core/src/flash_manager.c.obj
 *fill*         0x0002bde6        0x2 
 .text.get_packet_buffer
                0x0002bde8       0x20 examples/light_switch/client/CMakeFiles/light_switch_client_nrf52840_xxAA_s140_6.0.0.dir/__/__/__/mesh/core/src/flash_manager.c.obj
 .text.flash    0x0002be08       0x1c examples/light_switch/client/CMakeFiles/light_switch_client_nrf52840_xxAA_s140_6.0.0.dir/__/__/__/mesh/core/src/flash_manager.c.obj
 .text.free_packet_buffer
                0x0002be24       0x3c examples/light_switch/client/CMakeFiles/light_switch_client_nrf52840_xxAA_s140_6.0.0.dir/__/__/__/mesh/core/src/flash_manager.c.obj
 .text.reserve_action_buffer
                0x0002be60       0x24 examples/light_switch/client/CMakeFiles/light_switch_client_nrf52840_xxAA_s140_6.0.0.dir/__/__/__/mesh/core/src/flash_manager.c.obj
 .text.commit_action_buffer
                0x0002be84       0x18 examples/light_switch/client/CMakeFiles/light_switch_client_nrf52840_xxAA_s140_6.0.0.dir/__/__/__/mesh/core/src/flash_manager.c.obj
 .text.schedule_processing
                0x0002be9c        0xc examples/light_switch/client/CMakeFiles/light_switch_client_nrf52840_xxAA_s140_6.0.0.dir/__/__/__/mesh/core/src/flash_manager.c.obj
 .text.get_next_entry
                0x0002bea8       0x34 examples/light_switch/client/CMakeFiles/light_switch_client_nrf52840_xxAA_s140_6.0.0.dir/__/__/__/mesh/core/src/flash_manager.c.obj
 .text.get_last_entry.isra.1
                0x0002bedc       0x30 examples/light_switch/client/CMakeFiles/light_switch_client_nrf52840_xxAA_s140_6.0.0.dir/__/__/__/mesh/core/src/flash_manager.c.obj
 .text.process_action_queue
                0x0002bf0c      0x3b0 examples/light_switch/client/CMakeFiles/light_switch_client_nrf52840_xxAA_s140_6.0.0.dir/__/__/__/mesh/core/src/flash_manager.c.obj
 .text.flash_op_ended_callback
                0x0002c2bc       0x24 examples/light_switch/client/CMakeFiles/light_switch_client_nrf52840_xxAA_s140_6.0.0.dir/__/__/__/mesh/core/src/flash_manager.c.obj
 .text.flash_manager_init
                0x0002c2e0       0x68 examples/light_switch/client/CMakeFiles/light_switch_client_nrf52840_xxAA_s140_6.0.0.dir/__/__/__/mesh/core/src/flash_manager.c.obj
                0x0002c2e0                flash_manager_init
 .text.flash_manager_remove
                0x0002c348       0x24 examples/light_switch/client/CMakeFiles/light_switch_client_nrf52840_xxAA_s140_6.0.0.dir/__/__/__/mesh/core/src/flash_manager.c.obj
                0x0002c348                flash_manager_remove
 .text.flash_manager_entry_get
                0x0002c36c       0x3c examples/light_switch/client/CMakeFiles/light_switch_client_nrf52840_xxAA_s140_6.0.0.dir/__/__/__/mesh/core/src/flash_manager.c.obj
                0x0002c36c                flash_manager_entry_get
 .text.flash_manager_entry_next_get
                0x0002c3a8       0x60 examples/light_switch/client/CMakeFiles/light_switch_client_nrf52840_xxAA_s140_6.0.0.dir/__/__/__/mesh/core/src/flash_manager.c.obj
                0x0002c3a8                flash_manager_entry_next_get
 .text.flash_manager_entry_alloc
                0x0002c408       0x5c examples/light_switch/client/CMakeFiles/light_switch_client_nrf52840_xxAA_s140_6.0.0.dir/__/__/__/mesh/core/src/flash_manager.c.obj
                0x0002c408                flash_manager_entry_alloc
 .text.flash_manager_entry_commit
                0x0002c464       0x2c examples/light_switch/client/CMakeFiles/light_switch_client_nrf52840_xxAA_s140_6.0.0.dir/__/__/__/mesh/core/src/flash_manager.c.obj
                0x0002c464                flash_manager_entry_commit
 .text.flash_manager_entry_invalidate
                0x0002c490       0x4e examples/light_switch/client/CMakeFiles/light_switch_client_nrf52840_xxAA_s140_6.0.0.dir/__/__/__/mesh/core/src/flash_manager.c.obj
                0x0002c490                flash_manager_entry_invalidate
 .text.flash_manager_add
                0x0002c4de      0x1f6 examples/light_switch/client/CMakeFiles/light_switch_client_nrf52840_xxAA_s140_6.0.0.dir/__/__/__/mesh/core/src/flash_manager.c.obj
                0x0002c4de                flash_manager_add
 .text.flash_manager_mem_listener_register
                0x0002c6d4       0x30 examples/light_switch/client/CMakeFiles/light_switch_client_nrf52840_xxAA_s140_6.0.0.dir/__/__/__/mesh/core/src/flash_manager.c.obj
                0x0002c6d4                flash_manager_mem_listener_register
 .text.flash_manager_is_stable
                0x0002c704       0x24 examples/light_switch/client/CMakeFiles/light_switch_client_nrf52840_xxAA_s140_6.0.0.dir/__/__/__/mesh/core/src/flash_manager.c.obj
                0x0002c704                flash_manager_is_stable
 .text.flash_manager_on_defrag_end
                0x0002c728       0x4c examples/light_switch/client/CMakeFiles/light_switch_client_nrf52840_xxAA_s140_6.0.0.dir/__/__/__/mesh/core/src/flash_manager.c.obj
                0x0002c728                flash_manager_on_defrag_end
 .text.flash_manager_recovery_page_get
                0x0002c774        0x4 examples/light_switch/client/CMakeFiles/light_switch_client_nrf52840_xxAA_s140_6.0.0.dir/__/__/__/mesh/core/src/flash_manager.c.obj
                0x0002c774                flash_manager_recovery_page_get
 .text.flash_manager_action_queue_empty_cb_set
                0x0002c778       0x1c examples/light_switch/client/CMakeFiles/light_switch_client_nrf52840_xxAA_s140_6.0.0.dir/__/__/__/mesh/core/src/flash_manager.c.obj
                0x0002c778                flash_manager_action_queue_empty_cb_set
 .text.utils_xor
                0x0002c794       0x14 examples/light_switch/client/CMakeFiles/light_switch_client_nrf52840_xxAA_s140_6.0.0.dir/__/__/__/mesh/core/src/ccm_soft.c.obj
 .text.sd_ecb_block_encrypt
                0x0002c7a8        0x4 examples/light_switch/client/CMakeFiles/light_switch_client_nrf52840_xxAA_s140_6.0.0.dir/__/__/__/mesh/core/src/ccm_soft.c.obj
 .text.ccm_soft_crypt
                0x0002c7ac       0x4c examples/light_switch/client/CMakeFiles/light_switch_client_nrf52840_xxAA_s140_6.0.0.dir/__/__/__/mesh/core/src/ccm_soft.c.obj
 .text.ccm_soft_authenticate_blocks
                0x0002c7f8       0x6c examples/light_switch/client/CMakeFiles/light_switch_client_nrf52840_xxAA_s140_6.0.0.dir/__/__/__/mesh/core/src/ccm_soft.c.obj
 .text.ccm_soft_authenticate
                0x0002c864       0x94 examples/light_switch/client/CMakeFiles/light_switch_client_nrf52840_xxAA_s140_6.0.0.dir/__/__/__/mesh/core/src/ccm_soft.c.obj
 .text.ccm_soft_encrypt
                0x0002c8f8       0x54 examples/light_switch/client/CMakeFiles/light_switch_client_nrf52840_xxAA_s140_6.0.0.dir/__/__/__/mesh/core/src/ccm_soft.c.obj
                0x0002c8f8                ccm_soft_encrypt
 .text.ccm_soft_decrypt
                0x0002c94c       0x98 examples/light_switch/client/CMakeFiles/light_switch_client_nrf52840_xxAA_s140_6.0.0.dir/__/__/__/mesh/core/src/ccm_soft.c.obj
                0x0002c94c                ccm_soft_decrypt
 .text.replay_cache_add
                0x0002c9e4       0x50 examples/light_switch/client/CMakeFiles/light_switch_client_nrf52840_xxAA_s140_6.0.0.dir/__/__/__/mesh/core/src/replay_cache.c.obj
                0x0002c9e4                replay_cache_add
 .text.replay_cache_has_elem
                0x0002ca34       0x38 examples/light_switch/client/CMakeFiles/light_switch_client_nrf52840_xxAA_s140_6.0.0.dir/__/__/__/mesh/core/src/replay_cache.c.obj
                0x0002ca34                replay_cache_has_elem
 .text.replay_cache_clear
                0x0002ca6c       0x20 examples/light_switch/client/CMakeFiles/light_switch_client_nrf52840_xxAA_s140_6.0.0.dir/__/__/__/mesh/core/src/replay_cache.c.obj
                0x0002ca6c                replay_cache_clear
 .text.replay_cache_init
                0x0002ca8c        0x4 examples/light_switch/client/CMakeFiles/light_switch_client_nrf52840_xxAA_s140_6.0.0.dir/__/__/__/mesh/core/src/replay_cache.c.obj
                0x0002ca8c                replay_cache_init
 .text.beacon_create
                0x0002ca90       0x46 examples/light_switch/client/CMakeFiles/light_switch_client_nrf52840_xxAA_s140_6.0.0.dir/__/__/__/mesh/core/src/beacon.c.obj
                0x0002ca90                beacon_create
 *fill*         0x0002cad6        0x2 
 .text.beacon_packet_in
                0x0002cad8      0x154 examples/light_switch/client/CMakeFiles/light_switch_client_nrf52840_xxAA_s140_6.0.0.dir/__/__/__/mesh/core/src/beacon.c.obj
                0x0002cad8                beacon_packet_in
 .text.entry_get
                0x0002cc2c       0x78 examples/light_switch/client/CMakeFiles/light_switch_client_nrf52840_xxAA_s140_6.0.0.dir/__/__/__/mesh/core/src/flash_manager_internal.c.obj
                0x0002cc2c                entry_get
 .text.core_tx_complete_cb_set
                0x0002cca4        0xc examples/light_switch/client/CMakeFiles/light_switch_client_nrf52840_xxAA_s140_6.0.0.dir/__/__/__/mesh/core/src/core_tx.c.obj
                0x0002cca4                core_tx_complete_cb_set
 .text.core_tx_packet_alloc
                0x0002ccb0       0x98 examples/light_switch/client/CMakeFiles/light_switch_client_nrf52840_xxAA_s140_6.0.0.dir/__/__/__/mesh/core/src/core_tx.c.obj
                0x0002ccb0                core_tx_packet_alloc
 .text.core_tx_packet_send
                0x0002cd48       0x4c examples/light_switch/client/CMakeFiles/light_switch_client_nrf52840_xxAA_s140_6.0.0.dir/__/__/__/mesh/core/src/core_tx.c.obj
                0x0002cd48                core_tx_packet_send
 .text.core_tx_packet_discard
                0x0002cd94       0x40 examples/light_switch/client/CMakeFiles/light_switch_client_nrf52840_xxAA_s140_6.0.0.dir/__/__/__/mesh/core/src/core_tx.c.obj
                0x0002cd94                core_tx_packet_discard
 .text.core_tx_complete
                0x0002cdd4       0x34 examples/light_switch/client/CMakeFiles/light_switch_client_nrf52840_xxAA_s140_6.0.0.dir/__/__/__/mesh/core/src/core_tx.c.obj
                0x0002cdd4                core_tx_complete
 .text.core_tx_bearer_add
                0x0002ce08       0x70 examples/light_switch/client/CMakeFiles/light_switch_client_nrf52840_xxAA_s140_6.0.0.dir/__/__/__/mesh/core/src/core_tx.c.obj
                0x0002ce08                core_tx_bearer_add
 .text.heartbeat_subscription_timer_cb
                0x0002ce78       0x1c examples/light_switch/client/CMakeFiles/light_switch_client_nrf52840_xxAA_s140_6.0.0.dir/__/__/__/mesh/core/src/heartbeat.c.obj
 .text.heartbeat_opcode_handle
                0x0002ce94       0x88 examples/light_switch/client/CMakeFiles/light_switch_client_nrf52840_xxAA_s140_6.0.0.dir/__/__/__/mesh/core/src/heartbeat.c.obj
 .text.heartbeat_send
                0x0002cf1c       0xb2 examples/light_switch/client/CMakeFiles/light_switch_client_nrf52840_xxAA_s140_6.0.0.dir/__/__/__/mesh/core/src/heartbeat.c.obj
 *fill*         0x0002cfce        0x2 
 .text.heartbeat_publication_timer_cb
                0x0002cfd0       0xa8 examples/light_switch/client/CMakeFiles/light_switch_client_nrf52840_xxAA_s140_6.0.0.dir/__/__/__/mesh/core/src/heartbeat.c.obj
 .text.heartbeat_core_evt_cb
                0x0002d078       0x7c examples/light_switch/client/CMakeFiles/light_switch_client_nrf52840_xxAA_s140_6.0.0.dir/__/__/__/mesh/core/src/heartbeat.c.obj
 .text.heartbeat_on_feature_change_trigger
                0x0002d0f4       0x44 examples/light_switch/client/CMakeFiles/light_switch_client_nrf52840_xxAA_s140_6.0.0.dir/__/__/__/mesh/core/src/heartbeat.c.obj
                0x0002d0f4                heartbeat_on_feature_change_trigger
 .text.heartbeat_init
                0x0002d138       0x78 examples/light_switch/client/CMakeFiles/light_switch_client_nrf52840_xxAA_s140_6.0.0.dir/__/__/__/mesh/core/src/heartbeat.c.obj
                0x0002d138                heartbeat_init
 .text.heartbeat_subscription_set
                0x0002d1b0       0xa4 examples/light_switch/client/CMakeFiles/light_switch_client_nrf52840_xxAA_s140_6.0.0.dir/__/__/__/mesh/core/src/heartbeat.c.obj
                0x0002d1b0                heartbeat_subscription_set
 .text.heartbeat_subscription_get
                0x0002d254        0x8 examples/light_switch/client/CMakeFiles/light_switch_client_nrf52840_xxAA_s140_6.0.0.dir/__/__/__/mesh/core/src/heartbeat.c.obj
                0x0002d254                heartbeat_subscription_get
 .text.heartbeat_config_server_cb_set
                0x0002d25c       0x28 examples/light_switch/client/CMakeFiles/light_switch_client_nrf52840_xxAA_s140_6.0.0.dir/__/__/__/mesh/core/src/heartbeat.c.obj
                0x0002d25c                heartbeat_config_server_cb_set
 .text.heartbeat_publication_state_updated
                0x0002d284       0x74 examples/light_switch/client/CMakeFiles/light_switch_client_nrf52840_xxAA_s140_6.0.0.dir/__/__/__/mesh/core/src/heartbeat.c.obj
                0x0002d284                heartbeat_publication_state_updated
 .text.make_network_beacon_packet
                0x0002d2f8       0x50 examples/light_switch/client/CMakeFiles/light_switch_client_nrf52840_xxAA_s140_6.0.0.dir/__/__/__/mesh/core/src/net_beacon.c.obj
 .text.beacon_tx
                0x0002d348      0x12c examples/light_switch/client/CMakeFiles/light_switch_client_nrf52840_xxAA_s140_6.0.0.dir/__/__/__/mesh/core/src/net_beacon.c.obj
 .text.tx_complete_cb
                0x0002d474        0xe examples/light_switch/client/CMakeFiles/light_switch_client_nrf52840_xxAA_s140_6.0.0.dir/__/__/__/mesh/core/src/net_beacon.c.obj
 .text.beacon_tx_timeout
                0x0002d482        0x4 examples/light_switch/client/CMakeFiles/light_switch_client_nrf52840_xxAA_s140_6.0.0.dir/__/__/__/mesh/core/src/net_beacon.c.obj
 .text.is_valid_beacon_pkt.part.0
                0x0002d486       0x30 examples/light_switch/client/CMakeFiles/light_switch_client_nrf52840_xxAA_s140_6.0.0.dir/__/__/__/mesh/core/src/net_beacon.c.obj
 *fill*         0x0002d4b6        0x2 
 .text.net_beacon_init
                0x0002d4b8       0x94 examples/light_switch/client/CMakeFiles/light_switch_client_nrf52840_xxAA_s140_6.0.0.dir/__/__/__/mesh/core/src/net_beacon.c.obj
                0x0002d4b8                net_beacon_init
 .text.net_beacon_state_set
                0x0002d54c       0x34 examples/light_switch/client/CMakeFiles/light_switch_client_nrf52840_xxAA_s140_6.0.0.dir/__/__/__/mesh/core/src/net_beacon.c.obj
                0x0002d54c                net_beacon_state_set
 .text.net_beacon_state_get
                0x0002d580        0xc examples/light_switch/client/CMakeFiles/light_switch_client_nrf52840_xxAA_s140_6.0.0.dir/__/__/__/mesh/core/src/net_beacon.c.obj
                0x0002d580                net_beacon_state_get
 .text.net_beacon_packet_in
                0x0002d58c       0xf2 examples/light_switch/client/CMakeFiles/light_switch_client_nrf52840_xxAA_s140_6.0.0.dir/__/__/__/mesh/core/src/net_beacon.c.obj
                0x0002d58c                net_beacon_packet_in
 *fill*         0x0002d67e        0x2 
 .text.packet_discard
                0x0002d680       0x40 examples/light_switch/client/CMakeFiles/light_switch_client_nrf52840_xxAA_s140_6.0.0.dir/__/__/__/mesh/core/src/core_tx_adv.c.obj
 .text.packet_send
                0x0002d6c0       0x58 examples/light_switch/client/CMakeFiles/light_switch_client_nrf52840_xxAA_s140_6.0.0.dir/__/__/__/mesh/core/src/core_tx_adv.c.obj
 .text.packet_alloc
                0x0002d718       0x58 examples/light_switch/client/CMakeFiles/light_switch_client_nrf52840_xxAA_s140_6.0.0.dir/__/__/__/mesh/core/src/core_tx_adv.c.obj
 .text.adv_tx_complete_callback
                0x0002d770       0x20 examples/light_switch/client/CMakeFiles/light_switch_client_nrf52840_xxAA_s140_6.0.0.dir/__/__/__/mesh/core/src/core_tx_adv.c.obj
 .text.core_tx_adv_init
                0x0002d790       0x60 examples/light_switch/client/CMakeFiles/light_switch_client_nrf52840_xxAA_s140_6.0.0.dir/__/__/__/mesh/core/src/core_tx_adv.c.obj
                0x0002d790                core_tx_adv_init
 .text.core_tx_adv_count_set
                0x0002d7f0       0x28 examples/light_switch/client/CMakeFiles/light_switch_client_nrf52840_xxAA_s140_6.0.0.dir/__/__/__/mesh/core/src/core_tx_adv.c.obj
                0x0002d7f0                core_tx_adv_count_set
 .text.core_tx_adv_count_get
                0x0002d818       0x1c examples/light_switch/client/CMakeFiles/light_switch_client_nrf52840_xxAA_s140_6.0.0.dir/__/__/__/mesh/core/src/core_tx_adv.c.obj
                0x0002d818                core_tx_adv_count_get
 .text.core_tx_adv_interval_set
                0x0002d834       0x28 examples/light_switch/client/CMakeFiles/light_switch_client_nrf52840_xxAA_s140_6.0.0.dir/__/__/__/mesh/core/src/core_tx_adv.c.obj
                0x0002d834                core_tx_adv_interval_set
 .text.core_tx_adv_interval_get
                0x0002d85c       0x28 examples/light_switch/client/CMakeFiles/light_switch_client_nrf52840_xxAA_s140_6.0.0.dir/__/__/__/mesh/core/src/core_tx_adv.c.obj
                0x0002d85c                core_tx_adv_interval_get
 .text.core_tx_adv_tx_power_set
                0x0002d884       0x28 examples/light_switch/client/CMakeFiles/light_switch_client_nrf52840_xxAA_s140_6.0.0.dir/__/__/__/mesh/core/src/core_tx_adv.c.obj
                0x0002d884                core_tx_adv_tx_power_set
 .text.ad_listener_subscribe
                0x0002d8ac       0x5c examples/light_switch/client/CMakeFiles/light_switch_client_nrf52840_xxAA_s140_6.0.0.dir/__/__/__/mesh/bearer/src/ad_listener.c.obj
                0x0002d8ac                ad_listener_subscribe
 .text.ad_listener_process
                0x0002d908       0x64 examples/light_switch/client/CMakeFiles/light_switch_client_nrf52840_xxAA_s140_6.0.0.dir/__/__/__/mesh/bearer/src/ad_listener.c.obj
                0x0002d908                ad_listener_process
 .text.adtype_filter_handle
                0x0002d96c       0x64 examples/light_switch/client/CMakeFiles/light_switch_client_nrf52840_xxAA_s140_6.0.0.dir/__/__/__/mesh/bearer/src/ad_type_filter.c.obj
 .text.bearer_adtype_filtering_set
                0x0002d9d0       0x1c examples/light_switch/client/CMakeFiles/light_switch_client_nrf52840_xxAA_s140_6.0.0.dir/__/__/__/mesh/bearer/src/ad_type_filter.c.obj
                0x0002d9d0                bearer_adtype_filtering_set
 .text.bearer_adtype_add
                0x0002d9ec       0x20 examples/light_switch/client/CMakeFiles/light_switch_client_nrf52840_xxAA_s140_6.0.0.dir/__/__/__/mesh/bearer/src/ad_type_filter.c.obj
                0x0002d9ec                bearer_adtype_add
 .text.bearer_adtype_mode_set
                0x0002da0c       0x18 examples/light_switch/client/CMakeFiles/light_switch_client_nrf52840_xxAA_s140_6.0.0.dir/__/__/__/mesh/bearer/src/ad_type_filter.c.obj
                0x0002da0c                bearer_adtype_mode_set
 .text.tx_complete_event_callback
                0x0002da24       0x28 examples/light_switch/client/CMakeFiles/light_switch_client_nrf52840_xxAA_s140_6.0.0.dir/__/__/__/mesh/bearer/src/advertiser.c.obj
 .text.set_gap_addr_type
                0x0002da4c       0x26 examples/light_switch/client/CMakeFiles/light_switch_client_nrf52840_xxAA_s140_6.0.0.dir/__/__/__/mesh/bearer/src/advertiser.c.obj
 .text.broadcast_complete_cb
                0x0002da72       0x46 examples/light_switch/client/CMakeFiles/light_switch_client_nrf52840_xxAA_s140_6.0.0.dir/__/__/__/mesh/bearer/src/advertiser.c.obj
 .text.schedule_first_time
                0x0002dab8       0x28 examples/light_switch/client/CMakeFiles/light_switch_client_nrf52840_xxAA_s140_6.0.0.dir/__/__/__/mesh/bearer/src/advertiser.c.obj
 .text.timeout_event
                0x0002dae0      0x10c examples/light_switch/client/CMakeFiles/light_switch_client_nrf52840_xxAA_s140_6.0.0.dir/__/__/__/mesh/bearer/src/advertiser.c.obj
 .text.advertiser_init
                0x0002dbec        0xc examples/light_switch/client/CMakeFiles/light_switch_client_nrf52840_xxAA_s140_6.0.0.dir/__/__/__/mesh/bearer/src/advertiser.c.obj
                0x0002dbec                advertiser_init
 .text.advertiser_enable
                0x0002dbf8       0x2a examples/light_switch/client/CMakeFiles/light_switch_client_nrf52840_xxAA_s140_6.0.0.dir/__/__/__/mesh/bearer/src/advertiser.c.obj
                0x0002dbf8                advertiser_enable
 .text.advertiser_packet_alloc
                0x0002dc22       0x76 examples/light_switch/client/CMakeFiles/light_switch_client_nrf52840_xxAA_s140_6.0.0.dir/__/__/__/mesh/bearer/src/advertiser.c.obj
                0x0002dc22                advertiser_packet_alloc
 .text.advertiser_packet_send
                0x0002dc98       0x62 examples/light_switch/client/CMakeFiles/light_switch_client_nrf52840_xxAA_s140_6.0.0.dir/__/__/__/mesh/bearer/src/advertiser.c.obj
                0x0002dc98                advertiser_packet_send
 .text.advertiser_packet_discard
                0x0002dcfa       0x1e examples/light_switch/client/CMakeFiles/light_switch_client_nrf52840_xxAA_s140_6.0.0.dir/__/__/__/mesh/bearer/src/advertiser.c.obj
                0x0002dcfa                advertiser_packet_discard
 .text.advertiser_interval_set
                0x0002dd18       0x54 examples/light_switch/client/CMakeFiles/light_switch_client_nrf52840_xxAA_s140_6.0.0.dir/__/__/__/mesh/bearer/src/advertiser.c.obj
                0x0002dd18                advertiser_interval_set
 .text.advertiser_tx_power_set
                0x0002dd6c       0x14 examples/light_switch/client/CMakeFiles/light_switch_client_nrf52840_xxAA_s140_6.0.0.dir/__/__/__/mesh/bearer/src/advertiser.c.obj
                0x0002dd6c                advertiser_tx_power_set
 .text.advertiser_flush
                0x0002dd80       0x1e examples/light_switch/client/CMakeFiles/light_switch_client_nrf52840_xxAA_s140_6.0.0.dir/__/__/__/mesh/bearer/src/advertiser.c.obj
                0x0002dd80                advertiser_flush
 *fill*         0x0002dd9e        0x2 
 .text.advertiser_address_default_get
                0x0002dda0       0x38 examples/light_switch/client/CMakeFiles/light_switch_client_nrf52840_xxAA_s140_6.0.0.dir/__/__/__/mesh/bearer/src/advertiser.c.obj
                0x0002dda0                advertiser_address_default_get
 .text.advertiser_instance_init
                0x0002ddd8       0xa4 examples/light_switch/client/CMakeFiles/light_switch_client_nrf52840_xxAA_s140_6.0.0.dir/__/__/__/mesh/bearer/src/advertiser.c.obj
                0x0002ddd8                advertiser_instance_init
 .text.action_timer_start
                0x0002de7c       0x90 examples/light_switch/client/CMakeFiles/light_switch_client_nrf52840_xxAA_s140_6.0.0.dir/__/__/__/mesh/bearer/src/bearer_handler.c.obj
 .text.action_switch
                0x0002df0c       0xe8 examples/light_switch/client/CMakeFiles/light_switch_client_nrf52840_xxAA_s140_6.0.0.dir/__/__/__/mesh/bearer/src/bearer_handler.c.obj
 .text.end_handle
                0x0002dff4       0x44 examples/light_switch/client/CMakeFiles/light_switch_client_nrf52840_xxAA_s140_6.0.0.dir/__/__/__/mesh/bearer/src/bearer_handler.c.obj
 .text.TIMER2_IRQHandler
                0x0002e038       0x58 examples/light_switch/client/CMakeFiles/light_switch_client_nrf52840_xxAA_s140_6.0.0.dir/__/__/__/mesh/bearer/src/bearer_handler.c.obj
                0x0002e038                TIMER2_IRQHandler
 .text.bearer_handler_init
                0x0002e090       0x44 examples/light_switch/client/CMakeFiles/light_switch_client_nrf52840_xxAA_s140_6.0.0.dir/__/__/__/mesh/bearer/src/bearer_handler.c.obj
                0x0002e090                bearer_handler_init
 .text.bearer_handler_start
                0x0002e0d4       0x1c examples/light_switch/client/CMakeFiles/light_switch_client_nrf52840_xxAA_s140_6.0.0.dir/__/__/__/mesh/bearer/src/bearer_handler.c.obj
                0x0002e0d4                bearer_handler_start
 .text.bearer_handler_action_enqueue
                0x0002e0f0       0x6c examples/light_switch/client/CMakeFiles/light_switch_client_nrf52840_xxAA_s140_6.0.0.dir/__/__/__/mesh/bearer/src/bearer_handler.c.obj
                0x0002e0f0                bearer_handler_action_enqueue
 .text.bearer_handler_action_end
                0x0002e15c       0x48 examples/light_switch/client/CMakeFiles/light_switch_client_nrf52840_xxAA_s140_6.0.0.dir/__/__/__/mesh/bearer/src/bearer_handler.c.obj
                0x0002e15c                bearer_handler_action_end
 .text.bearer_handler_radio_irq_handler
                0x0002e1a4       0x64 examples/light_switch/client/CMakeFiles/light_switch_client_nrf52840_xxAA_s140_6.0.0.dir/__/__/__/mesh/bearer/src/bearer_handler.c.obj
                0x0002e1a4                bearer_handler_radio_irq_handler
 .text.bearer_handler_timer_irq_handler
                0x0002e208       0x24 examples/light_switch/client/CMakeFiles/light_switch_client_nrf52840_xxAA_s140_6.0.0.dir/__/__/__/mesh/bearer/src/bearer_handler.c.obj
                0x0002e208                bearer_handler_timer_irq_handler
 .text.bearer_handler_on_ts_begin
                0x0002e22c       0x38 examples/light_switch/client/CMakeFiles/light_switch_client_nrf52840_xxAA_s140_6.0.0.dir/__/__/__/mesh/bearer/src/bearer_handler.c.obj
                0x0002e22c                bearer_handler_on_ts_begin
 .text.bearer_handler_on_ts_end
                0x0002e264       0x70 examples/light_switch/client/CMakeFiles/light_switch_client_nrf52840_xxAA_s140_6.0.0.dir/__/__/__/mesh/bearer/src/bearer_handler.c.obj
                0x0002e264                bearer_handler_on_ts_end
 .text.broadcast_start
                0x0002e2d4       0xac examples/light_switch/client/CMakeFiles/light_switch_client_nrf52840_xxAA_s140_6.0.0.dir/__/__/__/mesh/bearer/src/broadcast.c.obj
 .text.radio_irq_handler
                0x0002e380       0xa4 examples/light_switch/client/CMakeFiles/light_switch_client_nrf52840_xxAA_s140_6.0.0.dir/__/__/__/mesh/bearer/src/broadcast.c.obj
 .text.broadcast_send
                0x0002e424       0x6c examples/light_switch/client/CMakeFiles/light_switch_client_nrf52840_xxAA_s140_6.0.0.dir/__/__/__/mesh/bearer/src/broadcast.c.obj
                0x0002e424                broadcast_send
 .text.fen_filter_start
                0x0002e490       0x28 examples/light_switch/client/CMakeFiles/light_switch_client_nrf52840_xxAA_s140_6.0.0.dir/__/__/__/mesh/bearer/src/filter_engine.c.obj
                0x0002e490                fen_filter_start
 .text.fen_filter_stop
                0x0002e4b8       0x20 examples/light_switch/client/CMakeFiles/light_switch_client_nrf52840_xxAA_s140_6.0.0.dir/__/__/__/mesh/bearer/src/filter_engine.c.obj
                0x0002e4b8                fen_filter_stop
 .text.fen_filters_apply
                0x0002e4d8       0x34 examples/light_switch/client/CMakeFiles/light_switch_client_nrf52840_xxAA_s140_6.0.0.dir/__/__/__/mesh/bearer/src/filter_engine.c.obj
                0x0002e4d8                fen_filters_apply
 .text.radio_config_reset
                0x0002e50c       0x40 examples/light_switch/client/CMakeFiles/light_switch_client_nrf52840_xxAA_s140_6.0.0.dir/__/__/__/mesh/bearer/src/radio_config.c.obj
                0x0002e50c                radio_config_reset
 .text.radio_config_channel_set
                0x0002e54c       0x28 examples/light_switch/client/CMakeFiles/light_switch_client_nrf52840_xxAA_s140_6.0.0.dir/__/__/__/mesh/bearer/src/radio_config.c.obj
                0x0002e54c                radio_config_channel_set
 .text.radio_config_config
                0x0002e574       0x90 examples/light_switch/client/CMakeFiles/light_switch_client_nrf52840_xxAA_s140_6.0.0.dir/__/__/__/mesh/bearer/src/radio_config.c.obj
                0x0002e574                radio_config_config
 .text.radio_config_access_addr_set
                0x0002e604       0x50 examples/light_switch/client/CMakeFiles/light_switch_client_nrf52840_xxAA_s140_6.0.0.dir/__/__/__/mesh/bearer/src/radio_config.c.obj
                0x0002e604                radio_config_access_addr_set
 .text.radio_trigger
                0x0002e654       0x24 examples/light_switch/client/CMakeFiles/light_switch_client_nrf52840_xxAA_s140_6.0.0.dir/__/__/__/mesh/bearer/src/scanner.c.obj
 .text.scan_window_end
                0x0002e678       0x10 examples/light_switch/client/CMakeFiles/light_switch_client_nrf52840_xxAA_s140_6.0.0.dir/__/__/__/mesh/bearer/src/scanner.c.obj
 .text.scan_window_start
                0x0002e688       0x24 examples/light_switch/client/CMakeFiles/light_switch_client_nrf52840_xxAA_s140_6.0.0.dir/__/__/__/mesh/bearer/src/scanner.c.obj
 .text.radio_configure
                0x0002e6ac       0x78 examples/light_switch/client/CMakeFiles/light_switch_client_nrf52840_xxAA_s140_6.0.0.dir/__/__/__/mesh/bearer/src/scanner.c.obj
 .text.radio_set_packet
                0x0002e724       0x4c examples/light_switch/client/CMakeFiles/light_switch_client_nrf52840_xxAA_s140_6.0.0.dir/__/__/__/mesh/bearer/src/scanner.c.obj
 .text.radio_start
                0x0002e770       0x78 examples/light_switch/client/CMakeFiles/light_switch_client_nrf52840_xxAA_s140_6.0.0.dir/__/__/__/mesh/bearer/src/scanner.c.obj
 .text.radio_stop
                0x0002e7e8       0x38 examples/light_switch/client/CMakeFiles/light_switch_client_nrf52840_xxAA_s140_6.0.0.dir/__/__/__/mesh/bearer/src/scanner.c.obj
 .text.schedule_timers
                0x0002e820       0x38 examples/light_switch/client/CMakeFiles/light_switch_client_nrf52840_xxAA_s140_6.0.0.dir/__/__/__/mesh/bearer/src/scanner.c.obj
 .text.scanner_radio_start
                0x0002e858       0x2c examples/light_switch/client/CMakeFiles/light_switch_client_nrf52840_xxAA_s140_6.0.0.dir/__/__/__/mesh/bearer/src/scanner.c.obj
                0x0002e858                scanner_radio_start
 .text.scanner_radio_stop
                0x0002e884       0x10 examples/light_switch/client/CMakeFiles/light_switch_client_nrf52840_xxAA_s140_6.0.0.dir/__/__/__/mesh/bearer/src/scanner.c.obj
                0x0002e884                scanner_radio_stop
 .text.scanner_radio_irq_handler
                0x0002e894      0x13c examples/light_switch/client/CMakeFiles/light_switch_client_nrf52840_xxAA_s140_6.0.0.dir/__/__/__/mesh/bearer/src/scanner.c.obj
                0x0002e894                scanner_radio_irq_handler
 .text.scanner_timer_irq_handler
                0x0002e9d0       0x30 examples/light_switch/client/CMakeFiles/light_switch_client_nrf52840_xxAA_s140_6.0.0.dir/__/__/__/mesh/bearer/src/scanner.c.obj
                0x0002e9d0                scanner_timer_irq_handler
 .text.scanner_enable
                0x0002ea00       0x24 examples/light_switch/client/CMakeFiles/light_switch_client_nrf52840_xxAA_s140_6.0.0.dir/__/__/__/mesh/bearer/src/scanner.c.obj
                0x0002ea00                scanner_enable
 .text.scanner_packet_release
                0x0002ea24       0x2c examples/light_switch/client/CMakeFiles/light_switch_client_nrf52840_xxAA_s140_6.0.0.dir/__/__/__/mesh/bearer/src/scanner.c.obj
                0x0002ea24                scanner_packet_release
 .text.scanner_rx
                0x0002ea50       0x30 examples/light_switch/client/CMakeFiles/light_switch_client_nrf52840_xxAA_s140_6.0.0.dir/__/__/__/mesh/bearer/src/scanner.c.obj
                0x0002ea50                scanner_rx
 .text.scanner_rx_pending
                0x0002ea80        0xc examples/light_switch/client/CMakeFiles/light_switch_client_nrf52840_xxAA_s140_6.0.0.dir/__/__/__/mesh/bearer/src/scanner.c.obj
                0x0002ea80                scanner_rx_pending
 .text.scanner_config_scan_time_set
                0x0002ea8c       0x4c examples/light_switch/client/CMakeFiles/light_switch_client_nrf52840_xxAA_s140_6.0.0.dir/__/__/__/mesh/bearer/src/scanner.c.obj
                0x0002ea8c                scanner_config_scan_time_set
 .text.scanner_config_channels_set
                0x0002ead8       0x50 examples/light_switch/client/CMakeFiles/light_switch_client_nrf52840_xxAA_s140_6.0.0.dir/__/__/__/mesh/bearer/src/scanner.c.obj
                0x0002ead8                scanner_config_channels_set
 .text.scanner_config_access_addresses_set
                0x0002eb28       0x38 examples/light_switch/client/CMakeFiles/light_switch_client_nrf52840_xxAA_s140_6.0.0.dir/__/__/__/mesh/bearer/src/scanner.c.obj
                0x0002eb28                scanner_config_access_addresses_set
 .text.scanner_config_reset
                0x0002eb60       0x50 examples/light_switch/client/CMakeFiles/light_switch_client_nrf52840_xxAA_s140_6.0.0.dir/__/__/__/mesh/bearer/src/scanner.c.obj
                0x0002eb60                scanner_config_reset
 .text.scanner_init
                0x0002ebb0       0x54 examples/light_switch/client/CMakeFiles/light_switch_client_nrf52840_xxAA_s140_6.0.0.dir/__/__/__/mesh/bearer/src/scanner.c.obj
                0x0002ebb0                scanner_init
 .text.pin_clear
                0x0002ec04       0x26 examples/light_switch/client/CMakeFiles/light_switch_client_nrf52840_xxAA_s140_6.0.0.dir/__/__/__/mesh/bearer/src/mesh_pa_lna.c.obj
 *fill*         0x0002ec2a        0x2 
 .text.ppi_setup.isra.0
                0x0002ec2c       0x3c examples/light_switch/client/CMakeFiles/light_switch_client_nrf52840_xxAA_s140_6.0.0.dir/__/__/__/mesh/bearer/src/mesh_pa_lna.c.obj
 .text.mesh_pa_setup_start
                0x0002ec68       0x5c examples/light_switch/client/CMakeFiles/light_switch_client_nrf52840_xxAA_s140_6.0.0.dir/__/__/__/mesh/bearer/src/mesh_pa_lna.c.obj
                0x0002ec68                mesh_pa_setup_start
 .text.mesh_lna_setup_start
                0x0002ecc4       0x5c examples/light_switch/client/CMakeFiles/light_switch_client_nrf52840_xxAA_s140_6.0.0.dir/__/__/__/mesh/bearer/src/mesh_pa_lna.c.obj
                0x0002ecc4                mesh_lna_setup_start
 .text.mesh_pa_lna_disable_start
                0x0002ed20       0x1c examples/light_switch/client/CMakeFiles/light_switch_client_nrf52840_xxAA_s140_6.0.0.dir/__/__/__/mesh/bearer/src/mesh_pa_lna.c.obj
                0x0002ed20                mesh_pa_lna_disable_start
 .text.mesh_pa_lna_setup_stop
                0x0002ed3c       0x4c examples/light_switch/client/CMakeFiles/light_switch_client_nrf52840_xxAA_s140_6.0.0.dir/__/__/__/mesh/bearer/src/mesh_pa_lna.c.obj
                0x0002ed3c                mesh_pa_lna_setup_stop
 .text.mesh_pa_lna_cleanup
                0x0002ed88       0x48 examples/light_switch/client/CMakeFiles/light_switch_client_nrf52840_xxAA_s140_6.0.0.dir/__/__/__/mesh/bearer/src/mesh_pa_lna.c.obj
                0x0002ed88                mesh_pa_lna_cleanup
 .text.handle_publish_timeout
                0x0002edd0        0x8 examples/light_switch/client/CMakeFiles/light_switch_client_nrf52840_xxAA_s140_6.0.0.dir/__/__/__/models/simple_on_off/src/simple_on_off_client.c.obj
 .text.reliable_status_cb
                0x0002edd8       0x3c examples/light_switch/client/CMakeFiles/light_switch_client_nrf52840_xxAA_s140_6.0.0.dir/__/__/__/models/simple_on_off/src/simple_on_off_client.c.obj
 .text.handle_status_cb
                0x0002ee14       0x50 examples/light_switch/client/CMakeFiles/light_switch_client_nrf52840_xxAA_s140_6.0.0.dir/__/__/__/models/simple_on_off/src/simple_on_off_client.c.obj
 .text.send_reliable_message.isra.3
                0x0002ee64       0x50 examples/light_switch/client/CMakeFiles/light_switch_client_nrf52840_xxAA_s140_6.0.0.dir/__/__/__/models/simple_on_off/src/simple_on_off_client.c.obj
 .text.simple_on_off_client_init
                0x0002eeb4       0x40 examples/light_switch/client/CMakeFiles/light_switch_client_nrf52840_xxAA_s140_6.0.0.dir/__/__/__/models/simple_on_off/src/simple_on_off_client.c.obj
                0x0002eeb4                simple_on_off_client_init
 .text.simple_on_off_client_set
                0x0002eef4       0x3c examples/light_switch/client/CMakeFiles/light_switch_client_nrf52840_xxAA_s140_6.0.0.dir/__/__/__/models/simple_on_off/src/simple_on_off_client.c.obj
                0x0002eef4                simple_on_off_client_set
 .text.simple_on_off_client_set_unreliable
                0x0002ef30       0x5c examples/light_switch/client/CMakeFiles/light_switch_client_nrf52840_xxAA_s140_6.0.0.dir/__/__/__/models/simple_on_off/src/simple_on_off_client.c.obj
                0x0002ef30                simple_on_off_client_set_unreliable
 .text.config_composition_data_get
                0x0002ef8c      0x184 examples/light_switch/client/CMakeFiles/light_switch_client_nrf52840_xxAA_s140_6.0.0.dir/__/__/__/models/config/src/composition_data.c.obj
                0x0002ef8c                config_composition_data_get
 .text.app_evt_send
                0x0002f110       0x10 examples/light_switch/client/CMakeFiles/light_switch_client_nrf52840_xxAA_s140_6.0.0.dir/__/__/__/models/config/src/config_server.c.obj
 .text.config_server_heartbeat_publication_count_decrement
                0x0002f120       0x1c examples/light_switch/client/CMakeFiles/light_switch_client_nrf52840_xxAA_s140_6.0.0.dir/__/__/__/models/config/src/config_server.c.obj
 .text.get_element_index
                0x0002f13c       0x2a examples/light_switch/client/CMakeFiles/light_switch_client_nrf52840_xxAA_s140_6.0.0.dir/__/__/__/models/config/src/config_server.c.obj
 *fill*         0x0002f166        0x2 
 .text.config_server_heartbeat_publication_params_get
                0x0002f168       0x34 examples/light_switch/client/CMakeFiles/light_switch_client_nrf52840_xxAA_s140_6.0.0.dir/__/__/__/models/config/src/config_server.c.obj
 .text.send_reply
                0x0002f19c       0x34 examples/light_switch/client/CMakeFiles/light_switch_client_nrf52840_xxAA_s140_6.0.0.dir/__/__/__/models/config/src/config_server.c.obj
 .text.send_network_transmit_status
                0x0002f1d0       0x76 examples/light_switch/client/CMakeFiles/light_switch_client_nrf52840_xxAA_s140_6.0.0.dir/__/__/__/models/config/src/config_server.c.obj
 .text.handle_config_network_transmit_set
                0x0002f246       0x82 examples/light_switch/client/CMakeFiles/light_switch_client_nrf52840_xxAA_s140_6.0.0.dir/__/__/__/models/config/src/config_server.c.obj
 .text.handle_config_network_transmit_get
                0x0002f2c8        0xa examples/light_switch/client/CMakeFiles/light_switch_client_nrf52840_xxAA_s140_6.0.0.dir/__/__/__/models/config/src/config_server.c.obj
 *fill*         0x0002f2d2        0x2 
 .text.handle_node_reset
                0x0002f2d4       0x34 examples/light_switch/client/CMakeFiles/light_switch_client_nrf52840_xxAA_s140_6.0.0.dir/__/__/__/models/config/src/config_server.c.obj
 .text.send_netkey_status
                0x0002f308       0x2c examples/light_switch/client/CMakeFiles/light_switch_client_nrf52840_xxAA_s140_6.0.0.dir/__/__/__/models/config/src/config_server.c.obj
 .text.send_relay_status
                0x0002f334       0xa8 examples/light_switch/client/CMakeFiles/light_switch_client_nrf52840_xxAA_s140_6.0.0.dir/__/__/__/models/config/src/config_server.c.obj
 .text.handle_config_relay_set
                0x0002f3dc       0xb6 examples/light_switch/client/CMakeFiles/light_switch_client_nrf52840_xxAA_s140_6.0.0.dir/__/__/__/models/config/src/config_server.c.obj
 .text.handle_config_relay_get
                0x0002f492        0xa examples/light_switch/client/CMakeFiles/light_switch_client_nrf52840_xxAA_s140_6.0.0.dir/__/__/__/models/config/src/config_server.c.obj
 .text.send_subscription_status
                0x0002f49c       0x42 examples/light_switch/client/CMakeFiles/light_switch_client_nrf52840_xxAA_s140_6.0.0.dir/__/__/__/models/config/src/config_server.c.obj
 .text.send_appkey_status
                0x0002f4de       0x3a examples/light_switch/client/CMakeFiles/light_switch_client_nrf52840_xxAA_s140_6.0.0.dir/__/__/__/models/config/src/config_server.c.obj
 .text.handle_netkey_get
                0x0002f518       0x50 examples/light_switch/client/CMakeFiles/light_switch_client_nrf52840_xxAA_s140_6.0.0.dir/__/__/__/models/config/src/config_server.c.obj
 .text.handle_netkey_delete
                0x0002f568       0xbc examples/light_switch/client/CMakeFiles/light_switch_client_nrf52840_xxAA_s140_6.0.0.dir/__/__/__/models/config/src/config_server.c.obj
 .text.handle_netkey_add_update
                0x0002f624       0x78 examples/light_switch/client/CMakeFiles/light_switch_client_nrf52840_xxAA_s140_6.0.0.dir/__/__/__/models/config/src/config_server.c.obj
 .text.status_error_sub_send
                0x0002f69c      0x124 examples/light_switch/client/CMakeFiles/light_switch_client_nrf52840_xxAA_s140_6.0.0.dir/__/__/__/models/config/src/config_server.c.obj
 .text.delete_all_subscriptions
                0x0002f7c0       0x66 examples/light_switch/client/CMakeFiles/light_switch_client_nrf52840_xxAA_s140_6.0.0.dir/__/__/__/models/config/src/config_server.c.obj
 .text.send_publication_status
                0x0002f826      0x170 examples/light_switch/client/CMakeFiles/light_switch_client_nrf52840_xxAA_s140_6.0.0.dir/__/__/__/models/config/src/config_server.c.obj
 .text.handle_config_key_refresh_phase_set
                0x0002f996       0xc8 examples/light_switch/client/CMakeFiles/light_switch_client_nrf52840_xxAA_s140_6.0.0.dir/__/__/__/models/config/src/config_server.c.obj
 .text.handle_config_default_ttl_set
                0x0002fa5e       0x50 examples/light_switch/client/CMakeFiles/light_switch_client_nrf52840_xxAA_s140_6.0.0.dir/__/__/__/models/config/src/config_server.c.obj
 .text.send_net_beacon_state
                0x0002faae       0x2c examples/light_switch/client/CMakeFiles/light_switch_client_nrf52840_xxAA_s140_6.0.0.dir/__/__/__/models/config/src/config_server.c.obj
 .text.handle_config_beacon_get
                0x0002fada        0xa examples/light_switch/client/CMakeFiles/light_switch_client_nrf52840_xxAA_s140_6.0.0.dir/__/__/__/models/config/src/config_server.c.obj
 .text.handle_heartbeat_publication_set
                0x0002fae4      0x12c examples/light_switch/client/CMakeFiles/light_switch_client_nrf52840_xxAA_s140_6.0.0.dir/__/__/__/models/config/src/config_server.c.obj
 .text.mesh_event_cb
                0x0002fc10       0x70 examples/light_switch/client/CMakeFiles/light_switch_client_nrf52840_xxAA_s140_6.0.0.dir/__/__/__/models/config/src/config_server.c.obj
 .text.handle_node_identity_set
                0x0002fc80       0x3e examples/light_switch/client/CMakeFiles/light_switch_client_nrf52840_xxAA_s140_6.0.0.dir/__/__/__/models/config/src/config_server.c.obj
 .text.handle_node_identity_get
                0x0002fcbe       0x3c examples/light_switch/client/CMakeFiles/light_switch_client_nrf52840_xxAA_s140_6.0.0.dir/__/__/__/models/config/src/config_server.c.obj
 .text.handle_config_gatt_proxy_get.part.9
                0x0002fcfa       0x2a examples/light_switch/client/CMakeFiles/light_switch_client_nrf52840_xxAA_s140_6.0.0.dir/__/__/__/models/config/src/config_server.c.obj
 .text.handle_config_gatt_proxy_set
                0x0002fd24       0x14 examples/light_switch/client/CMakeFiles/light_switch_client_nrf52840_xxAA_s140_6.0.0.dir/__/__/__/models/config/src/config_server.c.obj
 .text.handle_config_gatt_proxy_get
                0x0002fd38        0xa examples/light_switch/client/CMakeFiles/light_switch_client_nrf52840_xxAA_s140_6.0.0.dir/__/__/__/models/config/src/config_server.c.obj
 .text.handle_config_friend_get.part.11
                0x0002fd42       0x2a examples/light_switch/client/CMakeFiles/light_switch_client_nrf52840_xxAA_s140_6.0.0.dir/__/__/__/models/config/src/config_server.c.obj
 .text.handle_config_friend_set
                0x0002fd6c       0x14 examples/light_switch/client/CMakeFiles/light_switch_client_nrf52840_xxAA_s140_6.0.0.dir/__/__/__/models/config/src/config_server.c.obj
 .text.handle_config_friend_get
                0x0002fd80        0xa examples/light_switch/client/CMakeFiles/light_switch_client_nrf52840_xxAA_s140_6.0.0.dir/__/__/__/models/config/src/config_server.c.obj
 .text.status_error_pub_send
                0x0002fd8a       0x9c examples/light_switch/client/CMakeFiles/light_switch_client_nrf52840_xxAA_s140_6.0.0.dir/__/__/__/models/config/src/config_server.c.obj
 .text.handle_config_key_refresh_phase_get
                0x0002fe26       0x58 examples/light_switch/client/CMakeFiles/light_switch_client_nrf52840_xxAA_s140_6.0.0.dir/__/__/__/models/config/src/config_server.c.obj
 .text.handle_config_default_ttl_get
                0x0002fe7e       0x30 examples/light_switch/client/CMakeFiles/light_switch_client_nrf52840_xxAA_s140_6.0.0.dir/__/__/__/models/config/src/config_server.c.obj
 .text.handle_config_beacon_set
                0x0002feae       0x42 examples/light_switch/client/CMakeFiles/light_switch_client_nrf52840_xxAA_s140_6.0.0.dir/__/__/__/models/config/src/config_server.c.obj
 .text.handle_composition_data_get
                0x0002fef0       0x50 examples/light_switch/client/CMakeFiles/light_switch_client_nrf52840_xxAA_s140_6.0.0.dir/__/__/__/models/config/src/config_server.c.obj
 .text.handle_appkey_delete
                0x0002ff40       0xc2 examples/light_switch/client/CMakeFiles/light_switch_client_nrf52840_xxAA_s140_6.0.0.dir/__/__/__/models/config/src/config_server.c.obj
 .text.get_subscription_list.constprop.25
                0x00030002       0x50 examples/light_switch/client/CMakeFiles/light_switch_client_nrf52840_xxAA_s140_6.0.0.dir/__/__/__/models/config/src/config_server.c.obj
 .text.handle_appkey_get
                0x00030052       0xb8 examples/light_switch/client/CMakeFiles/light_switch_client_nrf52840_xxAA_s140_6.0.0.dir/__/__/__/models/config/src/config_server.c.obj
 .text.heartbeat_subscription_count_encode
                0x0003010a       0x26 examples/light_switch/client/CMakeFiles/light_switch_client_nrf52840_xxAA_s140_6.0.0.dir/__/__/__/models/config/src/config_server.c.obj
 .text.handle_appkey_add
                0x00030130       0xba examples/light_switch/client/CMakeFiles/light_switch_client_nrf52840_xxAA_s140_6.0.0.dir/__/__/__/models/config/src/config_server.c.obj
 .text.handle_appkey_update
                0x000301ea       0xbc examples/light_switch/client/CMakeFiles/light_switch_client_nrf52840_xxAA_s140_6.0.0.dir/__/__/__/models/config/src/config_server.c.obj
 .text.heartbeat_pubsub_period_encode
                0x000302a6       0x26 examples/light_switch/client/CMakeFiles/light_switch_client_nrf52840_xxAA_s140_6.0.0.dir/__/__/__/models/config/src/config_server.c.obj
 .text.handle_heartbeat_publication_get
                0x000302cc       0x80 examples/light_switch/client/CMakeFiles/light_switch_client_nrf52840_xxAA_s140_6.0.0.dir/__/__/__/models/config/src/config_server.c.obj
 .text.handle_heartbeat_subscription_get
                0x0003034c       0x84 examples/light_switch/client/CMakeFiles/light_switch_client_nrf52840_xxAA_s140_6.0.0.dir/__/__/__/models/config/src/config_server.c.obj
 .text.handle_heartbeat_subscription_set
                0x000303d0       0xa8 examples/light_switch/client/CMakeFiles/light_switch_client_nrf52840_xxAA_s140_6.0.0.dir/__/__/__/models/config/src/config_server.c.obj
 .text.handle_config_model_publication_get
                0x00030478       0x94 examples/light_switch/client/CMakeFiles/light_switch_client_nrf52840_xxAA_s140_6.0.0.dir/__/__/__/models/config/src/config_server.c.obj
 .text.handle_config_model_subscription_delete_all
                0x0003050c       0xca examples/light_switch/client/CMakeFiles/light_switch_client_nrf52840_xxAA_s140_6.0.0.dir/__/__/__/models/config/src/config_server.c.obj
 .text.handle_config_sig_model_subscription_get
                0x000305d6       0xbc examples/light_switch/client/CMakeFiles/light_switch_client_nrf52840_xxAA_s140_6.0.0.dir/__/__/__/models/config/src/config_server.c.obj
 .text.handle_config_vendor_model_subscription_get
                0x00030692      0x100 examples/light_switch/client/CMakeFiles/light_switch_client_nrf52840_xxAA_s140_6.0.0.dir/__/__/__/models/config/src/config_server.c.obj
 .text.handle_config_model_subscription_virtual_address_delete
                0x00030792      0x110 examples/light_switch/client/CMakeFiles/light_switch_client_nrf52840_xxAA_s140_6.0.0.dir/__/__/__/models/config/src/config_server.c.obj
 .text.handle_config_model_subscription_virtual_address_add
                0x000308a2      0x10e examples/light_switch/client/CMakeFiles/light_switch_client_nrf52840_xxAA_s140_6.0.0.dir/__/__/__/models/config/src/config_server.c.obj
 .text.handle_config_model_subscription_delete
                0x000309b0      0x116 examples/light_switch/client/CMakeFiles/light_switch_client_nrf52840_xxAA_s140_6.0.0.dir/__/__/__/models/config/src/config_server.c.obj
 .text.handle_config_model_subscription_add
                0x00030ac6      0x114 examples/light_switch/client/CMakeFiles/light_switch_client_nrf52840_xxAA_s140_6.0.0.dir/__/__/__/models/config/src/config_server.c.obj
 .text.handle_config_model_subscription_virtual_address_overwrite
                0x00030bda      0x128 examples/light_switch/client/CMakeFiles/light_switch_client_nrf52840_xxAA_s140_6.0.0.dir/__/__/__/models/config/src/config_server.c.obj
 .text.handle_model_app_get
                0x00030d02      0x1a4 examples/light_switch/client/CMakeFiles/light_switch_client_nrf52840_xxAA_s140_6.0.0.dir/__/__/__/models/config/src/config_server.c.obj
 .text.handle_config_model_subscription_overwrite
                0x00030ea6      0x122 examples/light_switch/client/CMakeFiles/light_switch_client_nrf52840_xxAA_s140_6.0.0.dir/__/__/__/models/config/src/config_server.c.obj
 .text.handle_model_app_bind_unbind
                0x00030fc8      0x17a examples/light_switch/client/CMakeFiles/light_switch_client_nrf52840_xxAA_s140_6.0.0.dir/__/__/__/models/config/src/config_server.c.obj
 .text.handle_config_model_publication_set
                0x00031142      0x2ce examples/light_switch/client/CMakeFiles/light_switch_client_nrf52840_xxAA_s140_6.0.0.dir/__/__/__/models/config/src/config_server.c.obj
 .text.config_server_init
                0x00031410       0x64 examples/light_switch/client/CMakeFiles/light_switch_client_nrf52840_xxAA_s140_6.0.0.dir/__/__/__/models/config/src/config_server.c.obj
                0x00031410                config_server_init
 .text.config_server_bind
                0x00031474       0x10 examples/light_switch/client/CMakeFiles/light_switch_client_nrf52840_xxAA_s140_6.0.0.dir/__/__/__/models/config/src/config_server.c.obj
                0x00031474                config_server_bind
 .text.packed_index_list_create
                0x00031484       0x32 examples/light_switch/client/CMakeFiles/light_switch_client_nrf52840_xxAA_s140_6.0.0.dir/__/__/__/models/config/src/packed_index_list.c.obj
                0x00031484                packed_index_list_create
 *fill*         0x000314b6        0x2 
 .text.attention_timer_set
                0x000314b8       0x8c examples/light_switch/client/CMakeFiles/light_switch_client_nrf52840_xxAA_s140_6.0.0.dir/__/__/__/models/health/src/health_server.c.obj
 .text.attention_timer_handler
                0x00031544       0x5c examples/light_switch/client/CMakeFiles/light_switch_client_nrf52840_xxAA_s140_6.0.0.dir/__/__/__/models/health/src/health_server.c.obj
 .text.send_attention_status
                0x000315a0       0x4a examples/light_switch/client/CMakeFiles/light_switch_client_nrf52840_xxAA_s140_6.0.0.dir/__/__/__/models/health/src/health_server.c.obj
 .text.handle_attention_get
                0x000315ea        0xc examples/light_switch/client/CMakeFiles/light_switch_client_nrf52840_xxAA_s140_6.0.0.dir/__/__/__/models/health/src/health_server.c.obj
 .text.send_period_status
                0x000315f6       0x48 examples/light_switch/client/CMakeFiles/light_switch_client_nrf52840_xxAA_s140_6.0.0.dir/__/__/__/models/health/src/health_server.c.obj
 .text.handle_period_get
                0x0003163e        0xc examples/light_switch/client/CMakeFiles/light_switch_client_nrf52840_xxAA_s140_6.0.0.dir/__/__/__/models/health/src/health_server.c.obj
 .text.handle_attention_set
                0x0003164a       0x2e examples/light_switch/client/CMakeFiles/light_switch_client_nrf52840_xxAA_s140_6.0.0.dir/__/__/__/models/health/src/health_server.c.obj
 .text.handle_period_set
                0x00031678       0x22 examples/light_switch/client/CMakeFiles/light_switch_client_nrf52840_xxAA_s140_6.0.0.dir/__/__/__/models/health/src/health_server.c.obj
 *fill*         0x0003169a        0x2 
 .text.bitfield_next_get.part.0.constprop.9
                0x0003169c       0x44 examples/light_switch/client/CMakeFiles/light_switch_client_nrf52840_xxAA_s140_6.0.0.dir/__/__/__/models/health/src/health_server.c.obj
 .text.bitfield_popcount.constprop.7
                0x000316e0       0x28 examples/light_switch/client/CMakeFiles/light_switch_client_nrf52840_xxAA_s140_6.0.0.dir/__/__/__/models/health/src/health_server.c.obj
 .text.send_fault_status
                0x00031708       0xa8 examples/light_switch/client/CMakeFiles/light_switch_client_nrf52840_xxAA_s140_6.0.0.dir/__/__/__/models/health/src/health_server.c.obj
 .text.health_publish_timeout_handler
                0x000317b0        0xa examples/light_switch/client/CMakeFiles/light_switch_client_nrf52840_xxAA_s140_6.0.0.dir/__/__/__/models/health/src/health_server.c.obj
 .text.handle_fault_test
                0x000317ba       0x68 examples/light_switch/client/CMakeFiles/light_switch_client_nrf52840_xxAA_s140_6.0.0.dir/__/__/__/models/health/src/health_server.c.obj
 .text.handle_fault_get
                0x00031822       0x32 examples/light_switch/client/CMakeFiles/light_switch_client_nrf52840_xxAA_s140_6.0.0.dir/__/__/__/models/health/src/health_server.c.obj
 .text.handle_fault_clear
                0x00031854       0x48 examples/light_switch/client/CMakeFiles/light_switch_client_nrf52840_xxAA_s140_6.0.0.dir/__/__/__/models/health/src/health_server.c.obj
 .text.health_server_init
                0x0003189c       0x6c examples/light_switch/client/CMakeFiles/light_switch_client_nrf52840_xxAA_s140_6.0.0.dir/__/__/__/models/health/src/health_server.c.obj
                0x0003189c                health_server_init
 .text.add_to_publication_list
                0x00031908       0x78 examples/light_switch/client/CMakeFiles/light_switch_client_nrf52840_xxAA_s140_6.0.0.dir/__/__/__/mesh/access/src/access_publish.c.obj
 .text.step_resolution_to_us
                0x00031980       0x38 examples/light_switch/client/CMakeFiles/light_switch_client_nrf52840_xxAA_s140_6.0.0.dir/__/__/__/mesh/access/src/access_publish.c.obj
 .text.schedule_publication_timer
                0x000319b8      0x184 examples/light_switch/client/CMakeFiles/light_switch_client_nrf52840_xxAA_s140_6.0.0.dir/__/__/__/mesh/access/src/access_publish.c.obj
 .text.publish_timer_tick
                0x00031b3c       0xa8 examples/light_switch/client/CMakeFiles/light_switch_client_nrf52840_xxAA_s140_6.0.0.dir/__/__/__/mesh/access/src/access_publish.c.obj
 .text.access_publish_init
                0x00031be4       0x38 examples/light_switch/client/CMakeFiles/light_switch_client_nrf52840_xxAA_s140_6.0.0.dir/__/__/__/mesh/access/src/access_publish.c.obj
                0x00031be4                access_publish_init
 .text.access_publish_period_set
                0x00031c1c       0x60 examples/light_switch/client/CMakeFiles/light_switch_client_nrf52840_xxAA_s140_6.0.0.dir/__/__/__/mesh/access/src/access_publish.c.obj
                0x00031c1c                access_publish_period_set
 .text.access_publish_period_get
                0x00031c7c       0x22 examples/light_switch/client/CMakeFiles/light_switch_client_nrf52840_xxAA_s140_6.0.0.dir/__/__/__/mesh/access/src/access_publish.c.obj
                0x00031c7c                access_publish_period_get
 .text.bitfield_get
                0x00031c9e       0x1a examples/light_switch/client/CMakeFiles/light_switch_client_nrf52840_xxAA_s140_6.0.0.dir/__/__/__/mesh/access/src/access.c.obj
 .text.is_valid_opcode
                0x00031cb8       0x42 examples/light_switch/client/CMakeFiles/light_switch_client_nrf52840_xxAA_s140_6.0.0.dir/__/__/__/mesh/access/src/access.c.obj
 *fill*         0x00031cfa        0x2 
 .text.model_handle_valid_and_allocated
                0x00031cfc       0x20 examples/light_switch/client/CMakeFiles/light_switch_client_nrf52840_xxAA_s140_6.0.0.dir/__/__/__/mesh/access/src/access.c.obj
 .text.flash_manager_mem_available
                0x00031d1c        0x2 examples/light_switch/client/CMakeFiles/light_switch_client_nrf52840_xxAA_s140_6.0.0.dir/__/__/__/mesh/access/src/access.c.obj
 *fill*         0x00031d1e        0x2 
 .text.restore_acquired_subscription
                0x00031d20       0x30 examples/light_switch/client/CMakeFiles/light_switch_client_nrf52840_xxAA_s140_6.0.0.dir/__/__/__/mesh/access/src/access.c.obj
 .text.restore_acquired_element
                0x00031d50       0x20 examples/light_switch/client/CMakeFiles/light_switch_client_nrf52840_xxAA_s140_6.0.0.dir/__/__/__/mesh/access/src/access.c.obj
 .text.restore_flash_data
                0x00031d70       0x50 examples/light_switch/client/CMakeFiles/light_switch_client_nrf52840_xxAA_s140_6.0.0.dir/__/__/__/mesh/access/src/access.c.obj
 .text.flash_invalidate_complete
                0x00031dc0        0x6 examples/light_switch/client/CMakeFiles/light_switch_client_nrf52840_xxAA_s140_6.0.0.dir/__/__/__/mesh/access/src/access.c.obj
 *fill*         0x00031dc6        0x2 
 .text.access_flash_config_clear
                0x00031dc8       0x28 examples/light_switch/client/CMakeFiles/light_switch_client_nrf52840_xxAA_s140_6.0.0.dir/__/__/__/mesh/access/src/access.c.obj
 .text.access_flash_config_store
                0x00031df0      0x150 examples/light_switch/client/CMakeFiles/light_switch_client_nrf52840_xxAA_s140_6.0.0.dir/__/__/__/mesh/access/src/access.c.obj
                0x00031df0                access_flash_config_store
 .text.access_state_clear
                0x00031f40       0x4c examples/light_switch/client/CMakeFiles/light_switch_client_nrf52840_xxAA_s140_6.0.0.dir/__/__/__/mesh/access/src/access.c.obj
 .text.add_flash_manager
                0x00031f8c       0x58 examples/light_switch/client/CMakeFiles/light_switch_client_nrf52840_xxAA_s140_6.0.0.dir/__/__/__/mesh/access/src/access.c.obj
 .text.flash_remove_complete
                0x00031fe4       0x64 examples/light_switch/client/CMakeFiles/light_switch_client_nrf52840_xxAA_s140_6.0.0.dir/__/__/__/mesh/access/src/access.c.obj
 .text.flash_write_complete
                0x00032048       0x46 examples/light_switch/client/CMakeFiles/light_switch_client_nrf52840_xxAA_s140_6.0.0.dir/__/__/__/mesh/access/src/access.c.obj
 *fill*         0x0003208e        0x2 
 .text.unlikely.bitfield_next_get.part.0.constprop.5
                0x00032090       0x34 examples/light_switch/client/CMakeFiles/light_switch_client_nrf52840_xxAA_s140_6.0.0.dir/__/__/__/mesh/access/src/access.c.obj
 .text.packet_tx
                0x000320c4      0x31c examples/light_switch/client/CMakeFiles/light_switch_client_nrf52840_xxAA_s140_6.0.0.dir/__/__/__/mesh/access/src/access.c.obj
 .text.restore_acquired_model
                0x000323e0       0x94 examples/light_switch/client/CMakeFiles/light_switch_client_nrf52840_xxAA_s140_6.0.0.dir/__/__/__/mesh/access/src/access.c.obj
 .text.access_flash_config_load
                0x00032474      0x11c examples/light_switch/client/CMakeFiles/light_switch_client_nrf52840_xxAA_s140_6.0.0.dir/__/__/__/mesh/access/src/access.c.obj
                0x00032474                access_flash_config_load
 .text.access_incoming_handle
                0x00032590      0x104 examples/light_switch/client/CMakeFiles/light_switch_client_nrf52840_xxAA_s140_6.0.0.dir/__/__/__/mesh/access/src/access.c.obj
                0x00032590                access_incoming_handle
 .text.mesh_evt_cb
                0x00032694      0x134 examples/light_switch/client/CMakeFiles/light_switch_client_nrf52840_xxAA_s140_6.0.0.dir/__/__/__/mesh/access/src/access.c.obj
 .text.access_clear
                0x000327c8       0x12 examples/light_switch/client/CMakeFiles/light_switch_client_nrf52840_xxAA_s140_6.0.0.dir/__/__/__/mesh/access/src/access.c.obj
                0x000327c8                access_clear
 *fill*         0x000327da        0x2 
 .text.access_init
                0x000327dc       0x2c examples/light_switch/client/CMakeFiles/light_switch_client_nrf52840_xxAA_s140_6.0.0.dir/__/__/__/mesh/access/src/access.c.obj
                0x000327dc                access_init
 .text.access_model_add
                0x00032808      0x1bc examples/light_switch/client/CMakeFiles/light_switch_client_nrf52840_xxAA_s140_6.0.0.dir/__/__/__/mesh/access/src/access.c.obj
                0x00032808                access_model_add
 .text.access_model_publish
                0x000329c4        0xc examples/light_switch/client/CMakeFiles/light_switch_client_nrf52840_xxAA_s140_6.0.0.dir/__/__/__/mesh/access/src/access.c.obj
                0x000329c4                access_model_publish
 .text.access_model_reply
                0x000329d0       0x12 examples/light_switch/client/CMakeFiles/light_switch_client_nrf52840_xxAA_s140_6.0.0.dir/__/__/__/mesh/access/src/access.c.obj
                0x000329d0                access_model_reply
 *fill*         0x000329e2        0x2 
 .text.access_model_publish_address_set
                0x000329e4       0x3c examples/light_switch/client/CMakeFiles/light_switch_client_nrf52840_xxAA_s140_6.0.0.dir/__/__/__/mesh/access/src/access.c.obj
                0x000329e4                access_model_publish_address_set
 .text.access_model_publish_address_get
                0x00032a20       0x28 examples/light_switch/client/CMakeFiles/light_switch_client_nrf52840_xxAA_s140_6.0.0.dir/__/__/__/mesh/access/src/access.c.obj
                0x00032a20                access_model_publish_address_get
 .text.access_model_publish_retransmit_set
                0x00032a48       0x4c examples/light_switch/client/CMakeFiles/light_switch_client_nrf52840_xxAA_s140_6.0.0.dir/__/__/__/mesh/access/src/access.c.obj
                0x00032a48                access_model_publish_retransmit_set
 .text.access_model_publish_retransmit_get
                0x00032a94       0x2c examples/light_switch/client/CMakeFiles/light_switch_client_nrf52840_xxAA_s140_6.0.0.dir/__/__/__/mesh/access/src/access.c.obj
                0x00032a94                access_model_publish_retransmit_get
 .text.access_model_publish_period_set
                0x00032ac0       0x6c examples/light_switch/client/CMakeFiles/light_switch_client_nrf52840_xxAA_s140_6.0.0.dir/__/__/__/mesh/access/src/access.c.obj
                0x00032ac0                access_model_publish_period_set
 .text.access_model_publish_period_get
                0x00032b2c       0x3c examples/light_switch/client/CMakeFiles/light_switch_client_nrf52840_xxAA_s140_6.0.0.dir/__/__/__/mesh/access/src/access.c.obj
                0x00032b2c                access_model_publish_period_get
 .text.access_model_subscription_list_alloc
                0x00032b68       0x54 examples/light_switch/client/CMakeFiles/light_switch_client_nrf52840_xxAA_s140_6.0.0.dir/__/__/__/mesh/access/src/access.c.obj
                0x00032b68                access_model_subscription_list_alloc
 .text.access_model_subscription_add
                0x00032bbc       0x60 examples/light_switch/client/CMakeFiles/light_switch_client_nrf52840_xxAA_s140_6.0.0.dir/__/__/__/mesh/access/src/access.c.obj
                0x00032bbc                access_model_subscription_add
 .text.access_model_subscription_remove
                0x00032c1c       0x60 examples/light_switch/client/CMakeFiles/light_switch_client_nrf52840_xxAA_s140_6.0.0.dir/__/__/__/mesh/access/src/access.c.obj
                0x00032c1c                access_model_subscription_remove
 .text.access_model_subscriptions_get
                0x00032c7c       0x78 examples/light_switch/client/CMakeFiles/light_switch_client_nrf52840_xxAA_s140_6.0.0.dir/__/__/__/mesh/access/src/access.c.obj
                0x00032c7c                access_model_subscriptions_get
 .text.access_model_application_bind
                0x00032cf4       0x50 examples/light_switch/client/CMakeFiles/light_switch_client_nrf52840_xxAA_s140_6.0.0.dir/__/__/__/mesh/access/src/access.c.obj
                0x00032cf4                access_model_application_bind
 .text.access_model_application_unbind
                0x00032d44       0x50 examples/light_switch/client/CMakeFiles/light_switch_client_nrf52840_xxAA_s140_6.0.0.dir/__/__/__/mesh/access/src/access.c.obj
                0x00032d44                access_model_application_unbind
 .text.access_model_applications_get
                0x00032d94       0x58 examples/light_switch/client/CMakeFiles/light_switch_client_nrf52840_xxAA_s140_6.0.0.dir/__/__/__/mesh/access/src/access.c.obj
                0x00032d94                access_model_applications_get
 .text.access_model_publish_application_set
                0x00032dec       0x3c examples/light_switch/client/CMakeFiles/light_switch_client_nrf52840_xxAA_s140_6.0.0.dir/__/__/__/mesh/access/src/access.c.obj
                0x00032dec                access_model_publish_application_set
 .text.access_model_publish_application_get
                0x00032e28       0x28 examples/light_switch/client/CMakeFiles/light_switch_client_nrf52840_xxAA_s140_6.0.0.dir/__/__/__/mesh/access/src/access.c.obj
                0x00032e28                access_model_publish_application_get
 .text.access_default_ttl_set
                0x00032e50       0x18 examples/light_switch/client/CMakeFiles/light_switch_client_nrf52840_xxAA_s140_6.0.0.dir/__/__/__/mesh/access/src/access.c.obj
                0x00032e50                access_default_ttl_set
 .text.access_default_ttl_get
                0x00032e68        0xc examples/light_switch/client/CMakeFiles/light_switch_client_nrf52840_xxAA_s140_6.0.0.dir/__/__/__/mesh/access/src/access.c.obj
                0x00032e68                access_default_ttl_get
 .text.access_model_publish_ttl_set
                0x00032e74       0x40 examples/light_switch/client/CMakeFiles/light_switch_client_nrf52840_xxAA_s140_6.0.0.dir/__/__/__/mesh/access/src/access.c.obj
                0x00032e74                access_model_publish_ttl_set
 .text.access_model_publish_ttl_get
                0x00032eb4       0x28 examples/light_switch/client/CMakeFiles/light_switch_client_nrf52840_xxAA_s140_6.0.0.dir/__/__/__/mesh/access/src/access.c.obj
                0x00032eb4                access_model_publish_ttl_get
 .text.access_element_location_get
                0x00032edc       0x20 examples/light_switch/client/CMakeFiles/light_switch_client_nrf52840_xxAA_s140_6.0.0.dir/__/__/__/mesh/access/src/access.c.obj
                0x00032edc                access_element_location_get
 .text.access_element_sig_model_count_get
                0x00032efc       0x24 examples/light_switch/client/CMakeFiles/light_switch_client_nrf52840_xxAA_s140_6.0.0.dir/__/__/__/mesh/access/src/access.c.obj
                0x00032efc                access_element_sig_model_count_get
 .text.access_element_vendor_model_count_get
                0x00032f20       0x24 examples/light_switch/client/CMakeFiles/light_switch_client_nrf52840_xxAA_s140_6.0.0.dir/__/__/__/mesh/access/src/access.c.obj
                0x00032f20                access_element_vendor_model_count_get
 .text.access_model_id_get
                0x00032f44       0x2c examples/light_switch/client/CMakeFiles/light_switch_client_nrf52840_xxAA_s140_6.0.0.dir/__/__/__/mesh/access/src/access.c.obj
                0x00032f44                access_model_id_get
 .text.access_handle_get
                0x00032f70       0x50 examples/light_switch/client/CMakeFiles/light_switch_client_nrf52840_xxAA_s140_6.0.0.dir/__/__/__/mesh/access/src/access.c.obj
                0x00032f70                access_handle_get
 .text.access_element_models_get
                0x00032fc0       0x50 examples/light_switch/client/CMakeFiles/light_switch_client_nrf52840_xxAA_s140_6.0.0.dir/__/__/__/mesh/access/src/access.c.obj
                0x00032fc0                access_element_models_get
 .text.access_model_p_args_get
                0x00033010       0x28 examples/light_switch/client/CMakeFiles/light_switch_client_nrf52840_xxAA_s140_6.0.0.dir/__/__/__/mesh/access/src/access.c.obj
                0x00033010                access_model_p_args_get
 .text.access_model_publication_stop
                0x00033038       0x70 examples/light_switch/client/CMakeFiles/light_switch_client_nrf52840_xxAA_s140_6.0.0.dir/__/__/__/mesh/access/src/access.c.obj
                0x00033038                access_model_publication_stop
 .text.access_model_publication_by_appkey_stop
                0x000330a8       0x36 examples/light_switch/client/CMakeFiles/light_switch_client_nrf52840_xxAA_s140_6.0.0.dir/__/__/__/mesh/access/src/access.c.obj
                0x000330a8                access_model_publication_by_appkey_stop
 *fill*         0x000330de        0x2 
 .text.reliable_timer_cb
                0x000330e0      0x11c examples/light_switch/client/CMakeFiles/light_switch_client_nrf52840_xxAA_s140_6.0.0.dir/__/__/__/mesh/access/src/access_reliable.c.obj
 .text.remove_and_reschedule
                0x000331fc       0xac examples/light_switch/client/CMakeFiles/light_switch_client_nrf52840_xxAA_s140_6.0.0.dir/__/__/__/mesh/access/src/access_reliable.c.obj
 .text.access_reliable_message_rx_cb
                0x000332a8       0x68 examples/light_switch/client/CMakeFiles/light_switch_client_nrf52840_xxAA_s140_6.0.0.dir/__/__/__/mesh/access/src/access_reliable.c.obj
                0x000332a8                access_reliable_message_rx_cb
 .text.access_reliable_init
                0x00033310       0x20 examples/light_switch/client/CMakeFiles/light_switch_client_nrf52840_xxAA_s140_6.0.0.dir/__/__/__/mesh/access/src/access_reliable.c.obj
                0x00033310                access_reliable_init
 .text.access_reliable_cancel_all
                0x00033330       0x60 examples/light_switch/client/CMakeFiles/light_switch_client_nrf52840_xxAA_s140_6.0.0.dir/__/__/__/mesh/access/src/access_reliable.c.obj
                0x00033330                access_reliable_cancel_all
 .text.access_model_reliable_cancel
                0x00033390       0x68 examples/light_switch/client/CMakeFiles/light_switch_client_nrf52840_xxAA_s140_6.0.0.dir/__/__/__/mesh/access/src/access_reliable.c.obj
                0x00033390                access_model_reliable_cancel
 .text.access_model_reliable_publish
                0x000333f8      0x1b8 examples/light_switch/client/CMakeFiles/light_switch_client_nrf52840_xxAA_s140_6.0.0.dir/__/__/__/mesh/access/src/access_reliable.c.obj
                0x000333f8                access_model_reliable_publish
 .text.access_loopback_process
                0x000335b0       0x28 examples/light_switch/client/CMakeFiles/light_switch_client_nrf52840_xxAA_s140_6.0.0.dir/__/__/__/mesh/access/src/access_loopback.c.obj
 .text.is_access_loopback
                0x000335d8        0x4 examples/light_switch/client/CMakeFiles/light_switch_client_nrf52840_xxAA_s140_6.0.0.dir/__/__/__/mesh/access/src/access_loopback.c.obj
                0x000335d8                is_access_loopback
 .text.access_loopback_init
                0x000335dc       0x18 examples/light_switch/client/CMakeFiles/light_switch_client_nrf52840_xxAA_s140_6.0.0.dir/__/__/__/mesh/access/src/access_loopback.c.obj
                0x000335dc                access_loopback_init
 .text.access_loopback_handle
                0x000335f4       0x80 examples/light_switch/client/CMakeFiles/light_switch_client_nrf52840_xxAA_s140_6.0.0.dir/__/__/__/mesh/access/src/access_loopback.c.obj
                0x000335f4                access_loopback_handle
 .text.bitfield_get
                0x00033674       0x1a examples/light_switch/client/CMakeFiles/light_switch_client_nrf52840_xxAA_s140_6.0.0.dir/__/__/__/mesh/access/src/device_state_manager.c.obj
 .text.bitfield_set
                0x0003368e       0x18 examples/light_switch/client/CMakeFiles/light_switch_client_nrf52840_xxAA_s140_6.0.0.dir/__/__/__/mesh/access/src/device_state_manager.c.obj
 .text.bitfield_clear
                0x000336a6       0x1a examples/light_switch/client/CMakeFiles/light_switch_client_nrf52840_xxAA_s140_6.0.0.dir/__/__/__/mesh/access/src/device_state_manager.c.obj
 .text.bitfield_is_all_clear
                0x000336c0       0x3c examples/light_switch/client/CMakeFiles/light_switch_client_nrf52840_xxAA_s140_6.0.0.dir/__/__/__/mesh/access/src/device_state_manager.c.obj
 .text.address_handle_virtual_valid
                0x000336fc       0x14 examples/light_switch/client/CMakeFiles/light_switch_client_nrf52840_xxAA_s140_6.0.0.dir/__/__/__/mesh/access/src/device_state_manager.c.obj
 .text.net_key_handle_get
                0x00033710       0x38 examples/light_switch/client/CMakeFiles/light_switch_client_nrf52840_xxAA_s140_6.0.0.dir/__/__/__/mesh/access/src/device_state_manager.c.obj
 .text.dev_key_handle_get
                0x00033748       0x30 examples/light_switch/client/CMakeFiles/light_switch_client_nrf52840_xxAA_s140_6.0.0.dir/__/__/__/mesh/access/src/device_state_manager.c.obj
 .text.app_key_handle_get
                0x00033778       0x38 examples/light_switch/client/CMakeFiles/light_switch_client_nrf52840_xxAA_s140_6.0.0.dir/__/__/__/mesh/access/src/device_state_manager.c.obj
 .text.addr_nonvirtual_to_flash_entry
                0x000337b0       0x10 examples/light_switch/client/CMakeFiles/light_switch_client_nrf52840_xxAA_s140_6.0.0.dir/__/__/__/mesh/access/src/device_state_manager.c.obj
 .text.devkey_set
                0x000337c0       0x4c examples/light_switch/client/CMakeFiles/light_switch_client_nrf52840_xxAA_s140_6.0.0.dir/__/__/__/mesh/access/src/device_state_manager.c.obj
 .text.devkey_to_dsm_entry
                0x0003380c       0x16 examples/light_switch/client/CMakeFiles/light_switch_client_nrf52840_xxAA_s140_6.0.0.dir/__/__/__/mesh/access/src/device_state_manager.c.obj
 *fill*         0x00033822        0x2 
 .text.devkey_to_flash_entry
                0x00033824       0x28 examples/light_switch/client/CMakeFiles/light_switch_client_nrf52840_xxAA_s140_6.0.0.dir/__/__/__/mesh/access/src/device_state_manager.c.obj
 .text.addr_virtual_to_flash_entry
                0x0003384c       0x18 examples/light_switch/client/CMakeFiles/light_switch_client_nrf52840_xxAA_s140_6.0.0.dir/__/__/__/mesh/access/src/device_state_manager.c.obj
 .text.addr_unicast_to_dsm_entry
                0x00033864        0xc examples/light_switch/client/CMakeFiles/light_switch_client_nrf52840_xxAA_s140_6.0.0.dir/__/__/__/mesh/access/src/device_state_manager.c.obj
 .text.addr_unicast_to_flash_entry
                0x00033870       0x10 examples/light_switch/client/CMakeFiles/light_switch_client_nrf52840_xxAA_s140_6.0.0.dir/__/__/__/mesh/access/src/device_state_manager.c.obj
 .text.flash_mem_listener_callback
                0x00033880       0x14 examples/light_switch/client/CMakeFiles/light_switch_client_nrf52840_xxAA_s140_6.0.0.dir/__/__/__/mesh/access/src/device_state_manager.c.obj
 .text.get_subnet_handle
                0x00033894       0x34 examples/light_switch/client/CMakeFiles/light_switch_client_nrf52840_xxAA_s140_6.0.0.dir/__/__/__/mesh/access/src/device_state_manager.c.obj
 .text.appkey_set
                0x000338c8       0x70 examples/light_switch/client/CMakeFiles/light_switch_client_nrf52840_xxAA_s140_6.0.0.dir/__/__/__/mesh/access/src/device_state_manager.c.obj
 .text.appkey_to_flash_entry
                0x00033938       0x54 examples/light_switch/client/CMakeFiles/light_switch_client_nrf52840_xxAA_s140_6.0.0.dir/__/__/__/mesh/access/src/device_state_manager.c.obj
 .text.subnet_to_flash_entry
                0x0003398c       0x60 examples/light_switch/client/CMakeFiles/light_switch_client_nrf52840_xxAA_s140_6.0.0.dir/__/__/__/mesh/access/src/device_state_manager.c.obj
 .text.bitfield_clear_all
                0x000339ec        0xe examples/light_switch/client/CMakeFiles/light_switch_client_nrf52840_xxAA_s140_6.0.0.dir/__/__/__/mesh/access/src/device_state_manager.c.obj
 *fill*         0x000339fa        0x2 
 .text.subnet_set
                0x000339fc       0x98 examples/light_switch/client/CMakeFiles/light_switch_client_nrf52840_xxAA_s140_6.0.0.dir/__/__/__/mesh/access/src/device_state_manager.c.obj
 .text.virtual_address_set
                0x00033a94       0x48 examples/light_switch/client/CMakeFiles/light_switch_client_nrf52840_xxAA_s140_6.0.0.dir/__/__/__/mesh/access/src/device_state_manager.c.obj
 .text.addr_virtual_to_dsm_entry
                0x00033adc        0xc examples/light_switch/client/CMakeFiles/light_switch_client_nrf52840_xxAA_s140_6.0.0.dir/__/__/__/mesh/access/src/device_state_manager.c.obj
 .text.reset_flash_area
                0x00033ae8       0x28 examples/light_switch/client/CMakeFiles/light_switch_client_nrf52840_xxAA_s140_6.0.0.dir/__/__/__/mesh/access/src/device_state_manager.c.obj
 .text.flash_save
                0x00033b10       0x7c examples/light_switch/client/CMakeFiles/light_switch_client_nrf52840_xxAA_s140_6.0.0.dir/__/__/__/mesh/access/src/device_state_manager.c.obj
 .text.flash_invalidate
                0x00033b8c       0x64 examples/light_switch/client/CMakeFiles/light_switch_client_nrf52840_xxAA_s140_6.0.0.dir/__/__/__/mesh/access/src/device_state_manager.c.obj
 .text.flash_update_all
                0x00033bf0       0x6c examples/light_switch/client/CMakeFiles/light_switch_client_nrf52840_xxAA_s140_6.0.0.dir/__/__/__/mesh/access/src/device_state_manager.c.obj
 .text.virtual_address_uuid_index_get
                0x00033c5c       0x3c examples/light_switch/client/CMakeFiles/light_switch_client_nrf52840_xxAA_s140_6.0.0.dir/__/__/__/mesh/access/src/device_state_manager.c.obj
 .text.add_address_virtual
                0x00033c98       0x70 examples/light_switch/client/CMakeFiles/light_switch_client_nrf52840_xxAA_s140_6.0.0.dir/__/__/__/mesh/access/src/device_state_manager.c.obj
 .text.get_subnet_handle_by_beacon_info
                0x00033d08       0x24 examples/light_switch/client/CMakeFiles/light_switch_client_nrf52840_xxAA_s140_6.0.0.dir/__/__/__/mesh/access/src/device_state_manager.c.obj
 .text.get_app_handle
                0x00033d2c       0x34 examples/light_switch/client/CMakeFiles/light_switch_client_nrf52840_xxAA_s140_6.0.0.dir/__/__/__/mesh/access/src/device_state_manager.c.obj
 .text.appkey_to_dsm_entry
                0x00033d60       0x68 examples/light_switch/client/CMakeFiles/light_switch_client_nrf52840_xxAA_s140_6.0.0.dir/__/__/__/mesh/access/src/device_state_manager.c.obj
 .text.subnet_to_dsm_entry
                0x00033dc8       0x68 examples/light_switch/client/CMakeFiles/light_switch_client_nrf52840_xxAA_s140_6.0.0.dir/__/__/__/mesh/access/src/device_state_manager.c.obj
 .text.flash_operation_complete
                0x00033e30       0x4c examples/light_switch/client/CMakeFiles/light_switch_client_nrf52840_xxAA_s140_6.0.0.dir/__/__/__/mesh/access/src/device_state_manager.c.obj
 .text.flash_invalidate_complete
                0x00033e7c        0x8 examples/light_switch/client/CMakeFiles/light_switch_client_nrf52840_xxAA_s140_6.0.0.dir/__/__/__/mesh/access/src/device_state_manager.c.obj
 .text.flash_write_complete
                0x00033e84        0x8 examples/light_switch/client/CMakeFiles/light_switch_client_nrf52840_xxAA_s140_6.0.0.dir/__/__/__/mesh/access/src/device_state_manager.c.obj
 .text.add_address.part.8
                0x00033e8c      0x144 examples/light_switch/client/CMakeFiles/light_switch_client_nrf52840_xxAA_s140_6.0.0.dir/__/__/__/mesh/access/src/device_state_manager.c.obj
 .text.bitfield_next_get.part.0.constprop.17
                0x00033fd0       0x38 examples/light_switch/client/CMakeFiles/light_switch_client_nrf52840_xxAA_s140_6.0.0.dir/__/__/__/mesh/access/src/device_state_manager.c.obj
 .text.address_handle_valid
                0x00034008       0x28 examples/light_switch/client/CMakeFiles/light_switch_client_nrf52840_xxAA_s140_6.0.0.dir/__/__/__/mesh/access/src/device_state_manager.c.obj
 .text.address_handle_nonvirtual_valid
                0x00034030       0x14 examples/light_switch/client/CMakeFiles/light_switch_client_nrf52840_xxAA_s140_6.0.0.dir/__/__/__/mesh/access/src/device_state_manager.c.obj
 .text.address_delete_if_unused
                0x00034044       0x78 examples/light_switch/client/CMakeFiles/light_switch_client_nrf52840_xxAA_s140_6.0.0.dir/__/__/__/mesh/access/src/device_state_manager.c.obj
 .text.addr_nonvirtual_to_dsm_entry
                0x000340bc       0x38 examples/light_switch/client/CMakeFiles/light_switch_client_nrf52840_xxAA_s140_6.0.0.dir/__/__/__/mesh/access/src/device_state_manager.c.obj
 .text.dsm_flash_config_load
                0x000340f4      0x120 examples/light_switch/client/CMakeFiles/light_switch_client_nrf52840_xxAA_s140_6.0.0.dir/__/__/__/mesh/access/src/device_state_manager.c.obj
                0x000340f4                dsm_flash_config_load
 .text.dsm_flash_area_get
                0x00034214        0xc examples/light_switch/client/CMakeFiles/light_switch_client_nrf52840_xxAA_s140_6.0.0.dir/__/__/__/mesh/access/src/device_state_manager.c.obj
                0x00034214                dsm_flash_area_get
 .text.build_flash_area
                0x00034220       0x8c examples/light_switch/client/CMakeFiles/light_switch_client_nrf52840_xxAA_s140_6.0.0.dir/__/__/__/mesh/access/src/device_state_manager.c.obj
 .text.flash_remove_complete
                0x000342ac        0x4 examples/light_switch/client/CMakeFiles/light_switch_client_nrf52840_xxAA_s140_6.0.0.dir/__/__/__/mesh/access/src/device_state_manager.c.obj
 .text.dsm_clear
                0x000342b0       0xa8 examples/light_switch/client/CMakeFiles/light_switch_client_nrf52840_xxAA_s140_6.0.0.dir/__/__/__/mesh/access/src/device_state_manager.c.obj
                0x000342b0                dsm_clear
 .text.dsm_init
                0x00034358       0x3c examples/light_switch/client/CMakeFiles/light_switch_client_nrf52840_xxAA_s140_6.0.0.dir/__/__/__/mesh/access/src/device_state_manager.c.obj
                0x00034358                dsm_init
 .text.dsm_local_unicast_addresses_set
                0x00034394       0x78 examples/light_switch/client/CMakeFiles/light_switch_client_nrf52840_xxAA_s140_6.0.0.dir/__/__/__/mesh/access/src/device_state_manager.c.obj
                0x00034394                dsm_local_unicast_addresses_set
 .text.dsm_local_unicast_addresses_get
                0x0003440c       0x20 examples/light_switch/client/CMakeFiles/light_switch_client_nrf52840_xxAA_s140_6.0.0.dir/__/__/__/mesh/access/src/device_state_manager.c.obj
                0x0003440c                dsm_local_unicast_addresses_get
 .text.dsm_address_publish_add
                0x0003442c        0xc examples/light_switch/client/CMakeFiles/light_switch_client_nrf52840_xxAA_s140_6.0.0.dir/__/__/__/mesh/access/src/device_state_manager.c.obj
                0x0003442c                dsm_address_publish_add
 .text.dsm_address_publish_add_handle
                0x00034438       0x38 examples/light_switch/client/CMakeFiles/light_switch_client_nrf52840_xxAA_s140_6.0.0.dir/__/__/__/mesh/access/src/device_state_manager.c.obj
                0x00034438                dsm_address_publish_add_handle
 .text.dsm_address_publish_virtual_add
                0x00034470        0x6 examples/light_switch/client/CMakeFiles/light_switch_client_nrf52840_xxAA_s140_6.0.0.dir/__/__/__/mesh/access/src/device_state_manager.c.obj
                0x00034470                dsm_address_publish_virtual_add
 *fill*         0x00034476        0x2 
 .text.dsm_address_publish_remove
                0x00034478       0x40 examples/light_switch/client/CMakeFiles/light_switch_client_nrf52840_xxAA_s140_6.0.0.dir/__/__/__/mesh/access/src/device_state_manager.c.obj
                0x00034478                dsm_address_publish_remove
 .text.dsm_address_subscription_add
                0x000344b8        0xc examples/light_switch/client/CMakeFiles/light_switch_client_nrf52840_xxAA_s140_6.0.0.dir/__/__/__/mesh/access/src/device_state_manager.c.obj
                0x000344b8                dsm_address_subscription_add
 .text.dsm_address_subscription_virtual_add
                0x000344c4        0x6 examples/light_switch/client/CMakeFiles/light_switch_client_nrf52840_xxAA_s140_6.0.0.dir/__/__/__/mesh/access/src/device_state_manager.c.obj
                0x000344c4                dsm_address_subscription_virtual_add
 *fill*         0x000344ca        0x2 
 .text.dsm_address_subscription_add_handle
                0x000344cc       0x38 examples/light_switch/client/CMakeFiles/light_switch_client_nrf52840_xxAA_s140_6.0.0.dir/__/__/__/mesh/access/src/device_state_manager.c.obj
                0x000344cc                dsm_address_subscription_add_handle
 .text.dsm_address_get
                0x00034504       0x5c examples/light_switch/client/CMakeFiles/light_switch_client_nrf52840_xxAA_s140_6.0.0.dir/__/__/__/mesh/access/src/device_state_manager.c.obj
                0x00034504                dsm_address_get
 .text.dsm_address_subscription_remove
                0x00034560       0x58 examples/light_switch/client/CMakeFiles/light_switch_client_nrf52840_xxAA_s140_6.0.0.dir/__/__/__/mesh/access/src/device_state_manager.c.obj
                0x00034560                dsm_address_subscription_remove
 .text.dsm_address_handle_get
                0x000345b8       0x98 examples/light_switch/client/CMakeFiles/light_switch_client_nrf52840_xxAA_s140_6.0.0.dir/__/__/__/mesh/access/src/device_state_manager.c.obj
                0x000345b8                dsm_address_handle_get
 .text.dsm_net_key_index_to_subnet_handle
                0x00034650       0x1c examples/light_switch/client/CMakeFiles/light_switch_client_nrf52840_xxAA_s140_6.0.0.dir/__/__/__/mesh/access/src/device_state_manager.c.obj
                0x00034650                dsm_net_key_index_to_subnet_handle
 .text.dsm_subnet_handle_get
                0x0003466c        0xc examples/light_switch/client/CMakeFiles/light_switch_client_nrf52840_xxAA_s140_6.0.0.dir/__/__/__/mesh/access/src/device_state_manager.c.obj
                0x0003466c                dsm_subnet_handle_get
 .text.dsm_appkey_index_to_appkey_handle
                0x00034678       0x1c examples/light_switch/client/CMakeFiles/light_switch_client_nrf52840_xxAA_s140_6.0.0.dir/__/__/__/mesh/access/src/device_state_manager.c.obj
                0x00034678                dsm_appkey_index_to_appkey_handle
 .text.dsm_appkey_handle_get
                0x00034694        0xc examples/light_switch/client/CMakeFiles/light_switch_client_nrf52840_xxAA_s140_6.0.0.dir/__/__/__/mesh/access/src/device_state_manager.c.obj
                0x00034694                dsm_appkey_handle_get
 .text.dsm_appkey_handle_to_appkey_index
                0x000346a0       0x30 examples/light_switch/client/CMakeFiles/light_switch_client_nrf52840_xxAA_s140_6.0.0.dir/__/__/__/mesh/access/src/device_state_manager.c.obj
                0x000346a0                dsm_appkey_handle_to_appkey_index
 .text.dsm_appkey_handle_to_subnet_handle
                0x000346d0       0x64 examples/light_switch/client/CMakeFiles/light_switch_client_nrf52840_xxAA_s140_6.0.0.dir/__/__/__/mesh/access/src/device_state_manager.c.obj
                0x000346d0                dsm_appkey_handle_to_subnet_handle
 .text.dsm_subnet_add
                0x00034734       0x78 examples/light_switch/client/CMakeFiles/light_switch_client_nrf52840_xxAA_s140_6.0.0.dir/__/__/__/mesh/access/src/device_state_manager.c.obj
                0x00034734                dsm_subnet_add
 .text.dsm_subnet_kr_phase_get
                0x000347ac       0x2c examples/light_switch/client/CMakeFiles/light_switch_client_nrf52840_xxAA_s140_6.0.0.dir/__/__/__/mesh/access/src/device_state_manager.c.obj
                0x000347ac                dsm_subnet_kr_phase_get
 .text.dsm_subnet_update
                0x000347d8       0xa4 examples/light_switch/client/CMakeFiles/light_switch_client_nrf52840_xxAA_s140_6.0.0.dir/__/__/__/mesh/access/src/device_state_manager.c.obj
                0x000347d8                dsm_subnet_update
 .text.dsm_subnet_update_swap_keys
                0x0003487c       0x50 examples/light_switch/client/CMakeFiles/light_switch_client_nrf52840_xxAA_s140_6.0.0.dir/__/__/__/mesh/access/src/device_state_manager.c.obj
                0x0003487c                dsm_subnet_update_swap_keys
 .text.dsm_subnet_update_commit
                0x000348cc       0xbc examples/light_switch/client/CMakeFiles/light_switch_client_nrf52840_xxAA_s140_6.0.0.dir/__/__/__/mesh/access/src/device_state_manager.c.obj
                0x000348cc                dsm_subnet_update_commit
 .text.mesh_evt_handler
                0x00034988       0x4c examples/light_switch/client/CMakeFiles/light_switch_client_nrf52840_xxAA_s140_6.0.0.dir/__/__/__/mesh/access/src/device_state_manager.c.obj
 .text.dsm_subnet_get_all
                0x000349d4       0x3c examples/light_switch/client/CMakeFiles/light_switch_client_nrf52840_xxAA_s140_6.0.0.dir/__/__/__/mesh/access/src/device_state_manager.c.obj
                0x000349d4                dsm_subnet_get_all
 .text.dsm_devkey_add
                0x00034a10       0x78 examples/light_switch/client/CMakeFiles/light_switch_client_nrf52840_xxAA_s140_6.0.0.dir/__/__/__/mesh/access/src/device_state_manager.c.obj
                0x00034a10                dsm_devkey_add
 .text.dsm_appkey_add
                0x00034a88       0x7c examples/light_switch/client/CMakeFiles/light_switch_client_nrf52840_xxAA_s140_6.0.0.dir/__/__/__/mesh/access/src/device_state_manager.c.obj
                0x00034a88                dsm_appkey_add
 .text.dsm_appkey_update
                0x00034b04       0x90 examples/light_switch/client/CMakeFiles/light_switch_client_nrf52840_xxAA_s140_6.0.0.dir/__/__/__/mesh/access/src/device_state_manager.c.obj
                0x00034b04                dsm_appkey_update
 .text.dsm_appkey_delete
                0x00034b94       0x2c examples/light_switch/client/CMakeFiles/light_switch_client_nrf52840_xxAA_s140_6.0.0.dir/__/__/__/mesh/access/src/device_state_manager.c.obj
                0x00034b94                dsm_appkey_delete
 .text.dsm_subnet_delete
                0x00034bc0       0x84 examples/light_switch/client/CMakeFiles/light_switch_client_nrf52840_xxAA_s140_6.0.0.dir/__/__/__/mesh/access/src/device_state_manager.c.obj
                0x00034bc0                dsm_subnet_delete
 .text.dsm_appkey_get_all
                0x00034c44       0x58 examples/light_switch/client/CMakeFiles/light_switch_client_nrf52840_xxAA_s140_6.0.0.dir/__/__/__/mesh/access/src/device_state_manager.c.obj
                0x00034c44                dsm_appkey_get_all
 .text.dsm_tx_secmat_get
                0x00034c9c       0xa4 examples/light_switch/client/CMakeFiles/light_switch_client_nrf52840_xxAA_s140_6.0.0.dir/__/__/__/mesh/access/src/device_state_manager.c.obj
                0x00034c9c                dsm_tx_secmat_get
 .text.dsm_net_secmat_from_keyindex_get
                0x00034d40       0x30 examples/light_switch/client/CMakeFiles/light_switch_client_nrf52840_xxAA_s140_6.0.0.dir/__/__/__/mesh/access/src/device_state_manager.c.obj
                0x00034d40                dsm_net_secmat_from_keyindex_get
 .text.nrf_mesh_net_secmat_next_get
                0x00034d70       0x90 examples/light_switch/client/CMakeFiles/light_switch_client_nrf52840_xxAA_s140_6.0.0.dir/__/__/__/mesh/access/src/device_state_manager.c.obj
                0x00034d70                nrf_mesh_net_secmat_next_get
 .text.nrf_mesh_app_secmat_next_get
                0x00034e00       0x70 examples/light_switch/client/CMakeFiles/light_switch_client_nrf52840_xxAA_s140_6.0.0.dir/__/__/__/mesh/access/src/device_state_manager.c.obj
                0x00034e00                nrf_mesh_app_secmat_next_get
 .text.nrf_mesh_devkey_secmat_get
                0x00034e70       0x28 examples/light_switch/client/CMakeFiles/light_switch_client_nrf52840_xxAA_s140_6.0.0.dir/__/__/__/mesh/access/src/device_state_manager.c.obj
                0x00034e70                nrf_mesh_devkey_secmat_get
 .text.nrf_mesh_beacon_info_next_get
                0x00034e98       0xb4 examples/light_switch/client/CMakeFiles/light_switch_client_nrf52840_xxAA_s140_6.0.0.dir/__/__/__/mesh/access/src/device_state_manager.c.obj
                0x00034e98                nrf_mesh_beacon_info_next_get
 .text.nrf_mesh_rx_address_get
                0x00034f4c      0x130 examples/light_switch/client/CMakeFiles/light_switch_client_nrf52840_xxAA_s140_6.0.0.dir/__/__/__/mesh/access/src/device_state_manager.c.obj
                0x00034f4c                nrf_mesh_rx_address_get
 .text.dsm_address_is_rx
                0x0003507c       0x48 examples/light_switch/client/CMakeFiles/light_switch_client_nrf52840_xxAA_s140_6.0.0.dir/__/__/__/mesh/access/src/device_state_manager.c.obj
                0x0003507c                dsm_address_is_rx
 .text.nrf_mesh_unicast_address_get
                0x000350c4       0x20 examples/light_switch/client/CMakeFiles/light_switch_client_nrf52840_xxAA_s140_6.0.0.dir/__/__/__/mesh/access/src/device_state_manager.c.obj
                0x000350c4                nrf_mesh_unicast_address_get
 .text.complete_provisioning
                0x000350e4       0x24 examples/light_switch/client/CMakeFiles/light_switch_client_nrf52840_xxAA_s140_6.0.0.dir/__/__/__/mesh/prov/src/prov_provisionee.c.obj
 .text.prov_provisionee_cb_link_established
                0x00035108       0x36 examples/light_switch/client/CMakeFiles/light_switch_client_nrf52840_xxAA_s140_6.0.0.dir/__/__/__/mesh/prov/src/prov_provisionee.c.obj
 .text.prov_provisionee_cb_link_closed
                0x0003513e       0x34 examples/light_switch/client/CMakeFiles/light_switch_client_nrf52840_xxAA_s140_6.0.0.dir/__/__/__/mesh/prov/src/prov_provisionee.c.obj
 .text.request_authentication
                0x00035172       0x8a examples/light_switch/client/CMakeFiles/light_switch_client_nrf52840_xxAA_s140_6.0.0.dir/__/__/__/mesh/prov/src/prov_provisionee.c.obj
 .text.send_failed
                0x000351fc       0x3a examples/light_switch/client/CMakeFiles/light_switch_client_nrf52840_xxAA_s140_6.0.0.dir/__/__/__/mesh/prov/src/prov_provisionee.c.obj
 .text.start_authentication
                0x00035236       0x52 examples/light_switch/client/CMakeFiles/light_switch_client_nrf52840_xxAA_s140_6.0.0.dir/__/__/__/mesh/prov/src/prov_provisionee.c.obj
 .text.prov_provisionee_cb_ack_received
                0x00035288       0xc8 examples/light_switch/client/CMakeFiles/light_switch_client_nrf52840_xxAA_s140_6.0.0.dir/__/__/__/mesh/prov/src/prov_provisionee.c.obj
 .text.prov_provisionee_pkt_in
                0x00035350      0x2f0 examples/light_switch/client/CMakeFiles/light_switch_client_nrf52840_xxAA_s140_6.0.0.dir/__/__/__/mesh/prov/src/prov_provisionee.c.obj
 .text.prov_provisionee_listen
                0x00035640       0x30 examples/light_switch/client/CMakeFiles/light_switch_client_nrf52840_xxAA_s140_6.0.0.dir/__/__/__/mesh/prov/src/prov_provisionee.c.obj
                0x00035640                prov_provisionee_listen
 .text.prov_provisionee_auth_data
                0x00035670       0x98 examples/light_switch/client/CMakeFiles/light_switch_client_nrf52840_xxAA_s140_6.0.0.dir/__/__/__/mesh/prov/src/prov_provisionee.c.obj
                0x00035670                prov_provisionee_auth_data
 .text.bearer_compare_callback
                0x00035708        0xc examples/light_switch/client/CMakeFiles/light_switch_client_nrf52840_xxAA_s140_6.0.0.dir/__/__/__/mesh/prov/src/nrf_mesh_prov.c.obj
 .text.bitfield_next_get.part.0.constprop.4
                0x00035714       0x34 examples/light_switch/client/CMakeFiles/light_switch_client_nrf52840_xxAA_s140_6.0.0.dir/__/__/__/mesh/prov/src/nrf_mesh_prov.c.obj
 .text.nrf_mesh_prov_init
                0x00035748       0x32 examples/light_switch/client/CMakeFiles/light_switch_client_nrf52840_xxAA_s140_6.0.0.dir/__/__/__/mesh/prov/src/nrf_mesh_prov.c.obj
                0x00035748                nrf_mesh_prov_init
 *fill*         0x0003577a        0x2 
 .text.nrf_mesh_prov_bearer_add
                0x0003577c       0x28 examples/light_switch/client/CMakeFiles/light_switch_client_nrf52840_xxAA_s140_6.0.0.dir/__/__/__/mesh/prov/src/nrf_mesh_prov.c.obj
                0x0003577c                nrf_mesh_prov_bearer_add
 .text.nrf_mesh_prov_generate_keys
                0x000357a4        0x4 examples/light_switch/client/CMakeFiles/light_switch_client_nrf52840_xxAA_s140_6.0.0.dir/__/__/__/mesh/prov/src/nrf_mesh_prov.c.obj
                0x000357a4                nrf_mesh_prov_generate_keys
 .text.nrf_mesh_prov_listen_stop
                0x000357a8       0x2e examples/light_switch/client/CMakeFiles/light_switch_client_nrf52840_xxAA_s140_6.0.0.dir/__/__/__/mesh/prov/src/nrf_mesh_prov.c.obj
                0x000357a8                nrf_mesh_prov_listen_stop
 .text.nrf_mesh_prov_listen
                0x000357d6       0x88 examples/light_switch/client/CMakeFiles/light_switch_client_nrf52840_xxAA_s140_6.0.0.dir/__/__/__/mesh/prov/src/nrf_mesh_prov.c.obj
                0x000357d6                nrf_mesh_prov_listen
 .text.nrf_mesh_prov_auth_data_provide
                0x0003585e        0xe examples/light_switch/client/CMakeFiles/light_switch_client_nrf52840_xxAA_s140_6.0.0.dir/__/__/__/mesh/prov/src/nrf_mesh_prov.c.obj
                0x0003585e                nrf_mesh_prov_auth_data_provide
 .text.send_data
                0x0003586c       0x28 examples/light_switch/client/CMakeFiles/light_switch_client_nrf52840_xxAA_s140_6.0.0.dir/__/__/__/mesh/prov/src/provisioning.c.obj
 .text.prov_packet_length_valid
                0x00035894       0x1c examples/light_switch/client/CMakeFiles/light_switch_client_nrf52840_xxAA_s140_6.0.0.dir/__/__/__/mesh/prov/src/provisioning.c.obj
                0x00035894                prov_packet_length_valid
 .text.prov_tx_capabilities
                0x000358b0       0x1e examples/light_switch/client/CMakeFiles/light_switch_client_nrf52840_xxAA_s140_6.0.0.dir/__/__/__/mesh/prov/src/provisioning.c.obj
                0x000358b0                prov_tx_capabilities
 .text.prov_tx_public_key
                0x000358ce       0x26 examples/light_switch/client/CMakeFiles/light_switch_client_nrf52840_xxAA_s140_6.0.0.dir/__/__/__/mesh/prov/src/provisioning.c.obj
                0x000358ce                prov_tx_public_key
 .text.prov_tx_input_complete
                0x000358f4       0x16 examples/light_switch/client/CMakeFiles/light_switch_client_nrf52840_xxAA_s140_6.0.0.dir/__/__/__/mesh/prov/src/provisioning.c.obj
                0x000358f4                prov_tx_input_complete
 .text.prov_tx_confirmation
                0x0003590a       0x26 examples/light_switch/client/CMakeFiles/light_switch_client_nrf52840_xxAA_s140_6.0.0.dir/__/__/__/mesh/prov/src/provisioning.c.obj
                0x0003590a                prov_tx_confirmation
 .text.prov_tx_random
                0x00035930       0x26 examples/light_switch/client/CMakeFiles/light_switch_client_nrf52840_xxAA_s140_6.0.0.dir/__/__/__/mesh/prov/src/provisioning.c.obj
                0x00035930                prov_tx_random
 .text.prov_tx_complete
                0x00035956       0x16 examples/light_switch/client/CMakeFiles/light_switch_client_nrf52840_xxAA_s140_6.0.0.dir/__/__/__/mesh/prov/src/provisioning.c.obj
                0x00035956                prov_tx_complete
 .text.prov_tx_failed
                0x0003596c       0x1a examples/light_switch/client/CMakeFiles/light_switch_client_nrf52840_xxAA_s140_6.0.0.dir/__/__/__/mesh/prov/src/provisioning.c.obj
                0x0003596c                prov_tx_failed
 .text.prov_beacon_unprov_build
                0x00035986       0x54 examples/light_switch/client/CMakeFiles/light_switch_client_nrf52840_xxAA_s140_6.0.0.dir/__/__/__/mesh/prov/src/prov_beacon.c.obj
                0x00035986                prov_beacon_unprov_build
 *fill*         0x000359da        0x2 
 .text.prov_beacon_unprov_packet_in
                0x000359dc       0x88 examples/light_switch/client/CMakeFiles/light_switch_client_nrf52840_xxAA_s140_6.0.0.dir/__/__/__/mesh/prov/src/prov_beacon.c.obj
                0x000359dc                prov_beacon_unprov_packet_in
 .text.oob_gen_alphanumeric
                0x00035a64       0x34 examples/light_switch/client/CMakeFiles/light_switch_client_nrf52840_xxAA_s140_6.0.0.dir/__/__/__/mesh/prov/src/prov_utils.c.obj
 .text.oob_gen_numeric
                0x00035a98       0x3c examples/light_switch/client/CMakeFiles/light_switch_client_nrf52840_xxAA_s140_6.0.0.dir/__/__/__/mesh/prov/src/prov_utils.c.obj
 .text.prov_utils_opt_set
                0x00035ad4       0x20 examples/light_switch/client/CMakeFiles/light_switch_client_nrf52840_xxAA_s140_6.0.0.dir/__/__/__/mesh/prov/src/prov_utils.c.obj
                0x00035ad4                prov_utils_opt_set
 .text.prov_utils_opt_get
                0x00035af4       0x1c examples/light_switch/client/CMakeFiles/light_switch_client_nrf52840_xxAA_s140_6.0.0.dir/__/__/__/mesh/prov/src/prov_utils.c.obj
                0x00035af4                prov_utils_opt_get
 .text.prov_utils_use_ecdh_offloading
                0x00035b10        0xc examples/light_switch/client/CMakeFiles/light_switch_client_nrf52840_xxAA_s140_6.0.0.dir/__/__/__/mesh/prov/src/prov_utils.c.obj
                0x00035b10                prov_utils_use_ecdh_offloading
 .text.prov_utils_authentication_values_derive
                0x00035b1c       0xa0 examples/light_switch/client/CMakeFiles/light_switch_client_nrf52840_xxAA_s140_6.0.0.dir/__/__/__/mesh/prov/src/prov_utils.c.obj
                0x00035b1c                prov_utils_authentication_values_derive
 .text.prov_utils_keys_generate
                0x00035bbc       0x1e examples/light_switch/client/CMakeFiles/light_switch_client_nrf52840_xxAA_s140_6.0.0.dir/__/__/__/mesh/prov/src/prov_utils.c.obj
                0x00035bbc                prov_utils_keys_generate
 *fill*         0x00035bda        0x2 
 .text.prov_utils_derive_keys
                0x00035bdc       0xac examples/light_switch/client/CMakeFiles/light_switch_client_nrf52840_xxAA_s140_6.0.0.dir/__/__/__/mesh/prov/src/prov_utils.c.obj
                0x00035bdc                prov_utils_derive_keys
 .text.prov_utils_calculate_shared_secret
                0x00035c88       0x36 examples/light_switch/client/CMakeFiles/light_switch_client_nrf52840_xxAA_s140_6.0.0.dir/__/__/__/mesh/prov/src/prov_utils.c.obj
                0x00035c88                prov_utils_calculate_shared_secret
 .text.prov_utils_generate_oob_data
                0x00035cbe       0x8a examples/light_switch/client/CMakeFiles/light_switch_client_nrf52840_xxAA_s140_6.0.0.dir/__/__/__/mesh/prov/src/prov_utils.c.obj
                0x00035cbe                prov_utils_generate_oob_data
 .text.prov_utils_confirmation_check
                0x00035d48       0x5c examples/light_switch/client/CMakeFiles/light_switch_client_nrf52840_xxAA_s140_6.0.0.dir/__/__/__/mesh/prov/src/prov_utils.c.obj
                0x00035d48                prov_utils_confirmation_check
 .text.link_timeout_cb
                0x00035da4       0x10 examples/light_switch/client/CMakeFiles/light_switch_client_nrf52840_xxAA_s140_6.0.0.dir/__/__/__/mesh/prov/src/prov_bearer_adv.c.obj
 .text.remove_active_bearer
                0x00035db4       0x4c examples/light_switch/client/CMakeFiles/light_switch_client_nrf52840_xxAA_s140_6.0.0.dir/__/__/__/mesh/prov/src/prov_bearer_adv.c.obj
 .text.close_link
                0x00035e00       0x58 examples/light_switch/client/CMakeFiles/light_switch_client_nrf52840_xxAA_s140_6.0.0.dir/__/__/__/mesh/prov/src/prov_bearer_adv.c.obj
 .text.prov_bearer_adv_listen_stop
                0x00035e58       0x30 examples/light_switch/client/CMakeFiles/light_switch_client_nrf52840_xxAA_s140_6.0.0.dir/__/__/__/mesh/prov/src/prov_bearer_adv.c.obj
 .text.send_packet
                0x00035e88       0x5e examples/light_switch/client/CMakeFiles/light_switch_client_nrf52840_xxAA_s140_6.0.0.dir/__/__/__/mesh/prov/src/prov_bearer_adv.c.obj
 .text.prov_buffer_tx
                0x00035ee6      0x134 examples/light_switch/client/CMakeFiles/light_switch_client_nrf52840_xxAA_s140_6.0.0.dir/__/__/__/mesh/prov/src/prov_bearer_adv.c.obj
 .text.send_link_close
                0x0003601a       0x38 examples/light_switch/client/CMakeFiles/light_switch_client_nrf52840_xxAA_s140_6.0.0.dir/__/__/__/mesh/prov/src/prov_bearer_adv.c.obj
 .text.prov_bearer_adv_link_close
                0x00036052       0x56 examples/light_switch/client/CMakeFiles/light_switch_client_nrf52840_xxAA_s140_6.0.0.dir/__/__/__/mesh/prov/src/prov_bearer_adv.c.obj
 .text.send_transaction_ack
                0x000360a8       0x24 examples/light_switch/client/CMakeFiles/light_switch_client_nrf52840_xxAA_s140_6.0.0.dir/__/__/__/mesh/prov/src/prov_bearer_adv.c.obj
 .text.send_link_ack
                0x000360cc       0x32 examples/light_switch/client/CMakeFiles/light_switch_client_nrf52840_xxAA_s140_6.0.0.dir/__/__/__/mesh/prov/src/prov_bearer_adv.c.obj
 .text.reset_timeout_timer
                0x000360fe       0x1a examples/light_switch/client/CMakeFiles/light_switch_client_nrf52840_xxAA_s140_6.0.0.dir/__/__/__/mesh/prov/src/prov_bearer_adv.c.obj
 .text.tx_complete_cb
                0x00036118       0x1c examples/light_switch/client/CMakeFiles/light_switch_client_nrf52840_xxAA_s140_6.0.0.dir/__/__/__/mesh/prov/src/prov_bearer_adv.c.obj
 .text.tx_retry_cb
                0x00036134       0xcc examples/light_switch/client/CMakeFiles/light_switch_client_nrf52840_xxAA_s140_6.0.0.dir/__/__/__/mesh/prov/src/prov_bearer_adv.c.obj
 .text.add_active_bearer
                0x00036200       0x80 examples/light_switch/client/CMakeFiles/light_switch_client_nrf52840_xxAA_s140_6.0.0.dir/__/__/__/mesh/prov/src/prov_bearer_adv.c.obj
 .text.prov_bearer_adv_link_open
                0x00036280       0xec examples/light_switch/client/CMakeFiles/light_switch_client_nrf52840_xxAA_s140_6.0.0.dir/__/__/__/mesh/prov/src/prov_bearer_adv.c.obj
 .text.async_process
                0x0003636c       0x50 examples/light_switch/client/CMakeFiles/light_switch_client_nrf52840_xxAA_s140_6.0.0.dir/__/__/__/mesh/prov/src/prov_bearer_adv.c.obj
 .text.prov_bearer_adv_listen
                0x000363bc       0xd8 examples/light_switch/client/CMakeFiles/light_switch_client_nrf52840_xxAA_s140_6.0.0.dir/__/__/__/mesh/prov/src/prov_bearer_adv.c.obj
 .text.calculate_3GPP_CRC
                0x00036494       0x24 examples/light_switch/client/CMakeFiles/light_switch_client_nrf52840_xxAA_s140_6.0.0.dir/__/__/__/mesh/prov/src/prov_bearer_adv.c.obj
                0x00036494                calculate_3GPP_CRC
 .text.prov_bearer_adv_tx
                0x000364b8       0xb4 examples/light_switch/client/CMakeFiles/light_switch_client_nrf52840_xxAA_s140_6.0.0.dir/__/__/__/mesh/prov/src/prov_bearer_adv.c.obj
 .text.prov_buffer_rx
                0x0003656c       0x6e examples/light_switch/client/CMakeFiles/light_switch_client_nrf52840_xxAA_s140_6.0.0.dir/__/__/__/mesh/prov/src/prov_bearer_adv.c.obj
 *fill*         0x000365da        0x2 
 .text.nrf_mesh_prov_bearer_adv_interface_get
                0x000365dc       0x3c examples/light_switch/client/CMakeFiles/light_switch_client_nrf52840_xxAA_s140_6.0.0.dir/__/__/__/mesh/prov/src/prov_bearer_adv.c.obj
                0x000365dc                nrf_mesh_prov_bearer_adv_interface_get
 .text.prov_bearer_adv_packet_in
                0x00036618      0x7f8 examples/light_switch/client/CMakeFiles/light_switch_client_nrf52840_xxAA_s140_6.0.0.dir/__/__/__/mesh/prov/src/prov_bearer_adv.c.obj
                0x00036618                prov_bearer_adv_packet_in
 .text.errata_120
                0x00036e10       0x20 examples/light_switch/client/CMakeFiles/light_switch_client_nrf52840_xxAA_s140_6.0.0.dir/C_/b/nRF5_SDK_15.0.0_a53641a/modules/nrfx/mdk/system_nrf52840.c.obj
 .text.SystemInit
                0x00036e30      0x1b8 examples/light_switch/client/CMakeFiles/light_switch_client_nrf52840_xxAA_s140_6.0.0.dir/C_/b/nRF5_SDK_15.0.0_a53641a/modules/nrfx/mdk/system_nrf52840.c.obj
                0x00036e30                SystemInit
 .text          0x00036fe8       0x3c examples/light_switch/client/CMakeFiles/light_switch_client_nrf52840_xxAA_s140_6.0.0.dir/C_/b/nRF5_SDK_15.0.0_a53641a/modules/nrfx/mdk/gcc_startup_nrf52840.S.obj
                0x00036fe8                Reset_Handler
                0x00037010                NMI_Handler
                0x00037012                HardFault_Handler
                0x00037014                MemoryManagement_Handler
                0x00037016                BusFault_Handler
                0x00037018                UsageFault_Handler
                0x0003701a                SVC_Handler
                0x0003701c                DebugMon_Handler
                0x0003701e                PendSV_Handler
                0x00037020                SysTick_Handler
                0x00037022                TEMP_IRQHandler
                0x00037022                TIMER3_IRQHandler
                0x00037022                PWM3_IRQHandler
                0x00037022                FPU_IRQHandler
                0x00037022                USBD_IRQHandler
                0x00037022                SPIM0_SPIS0_TWIM0_TWIS0_SPI0_TWI0_IRQHandler
                0x00037022                PDM_IRQHandler
                0x00037022                UARTE0_UART0_IRQHandler
                0x00037022                TIMER4_IRQHandler
                0x00037022                CRYPTOCELL_IRQHandler
                0x00037022                I2S_IRQHandler
                0x00037022                SWI4_EGU4_IRQHandler
                0x00037022                TIMER0_IRQHandler
                0x00037022                RTC0_IRQHandler
                0x00037022                POWER_CLOCK_IRQHandler
                0x00037022                TIMER1_IRQHandler
                0x00037022                SPIM3_IRQHandler
                0x00037022                PWM2_IRQHandler
                0x00037022                ECB_IRQHandler
                0x00037022                SPIM1_SPIS1_TWIM1_TWIS1_SPI1_TWI1_IRQHandler
                0x00037022                Default_Handler
                0x00037022                SAADC_IRQHandler
                0x00037022                CCM_AAR_IRQHandler
                0x00037022                WDT_IRQHandler
                0x00037022                RADIO_IRQHandler
                0x00037022                SWI5_EGU5_IRQHandler
                0x00037022                RNG_IRQHandler
                0x00037022                RTC2_IRQHandler
                0x00037022                PWM0_IRQHandler
                0x00037022                SWI3_EGU3_IRQHandler
                0x00037022                SWI1_EGU1_IRQHandler
                0x00037022                SPIM2_SPIS2_SPI2_IRQHandler
                0x00037022                NFCT_IRQHandler
                0x00037022                UARTE1_IRQHandler
                0x00037022                MWU_IRQHandler
                0x00037022                PWM1_IRQHandler
                0x00037022                QSPI_IRQHandler
                0x00037022                COMP_LPCOMP_IRQHandler
 .text.app_error_handler_bare
                0x00037024       0x1a examples/light_switch/client/CMakeFiles/light_switch_client_nrf52840_xxAA_s140_6.0.0.dir/C_/b/nRF5_SDK_15.0.0_a53641a/components/libraries/util/app_error.c.obj
                0x00037024                app_error_handler_bare
 *fill*         0x0003703e        0x2 
 .text.app_util_critical_region_enter
                0x00037040       0x48 examples/light_switch/client/CMakeFiles/light_switch_client_nrf52840_xxAA_s140_6.0.0.dir/C_/b/nRF5_SDK_15.0.0_a53641a/components/libraries/util/app_util_platform.c.obj
                0x00037040                app_util_critical_region_enter
 .text.app_util_critical_region_exit
                0x00037088       0x2c examples/light_switch/client/CMakeFiles/light_switch_client_nrf52840_xxAA_s140_6.0.0.dir/C_/b/nRF5_SDK_15.0.0_a53641a/components/libraries/util/app_util_platform.c.obj
                0x00037088                app_util_critical_region_exit
 .text.user_op_alloc
                0x000370b4       0x2c examples/light_switch/client/CMakeFiles/light_switch_client_nrf52840_xxAA_s140_6.0.0.dir/C_/b/nRF5_SDK_15.0.0_a53641a/components/libraries/timer/app_timer.c.obj
 .text.timer_stop_op_schedule
                0x000370e0       0x50 examples/light_switch/client/CMakeFiles/light_switch_client_nrf52840_xxAA_s140_6.0.0.dir/C_/b/nRF5_SDK_15.0.0_a53641a/components/libraries/timer/app_timer.c.obj
 .text.nrfx_coredep_delay_us.part.0.constprop.4
                0x00037130       0x10 examples/light_switch/client/CMakeFiles/light_switch_client_nrf52840_xxAA_s140_6.0.0.dir/C_/b/nRF5_SDK_15.0.0_a53641a/components/libraries/timer/app_timer.c.obj
 .text.rtc1_stop
                0x00037140       0x44 examples/light_switch/client/CMakeFiles/light_switch_client_nrf52840_xxAA_s140_6.0.0.dir/C_/b/nRF5_SDK_15.0.0_a53641a/components/libraries/timer/app_timer.c.obj
 .text.RTC1_IRQHandler
                0x00037184       0x9c examples/light_switch/client/CMakeFiles/light_switch_client_nrf52840_xxAA_s140_6.0.0.dir/C_/b/nRF5_SDK_15.0.0_a53641a/components/libraries/timer/app_timer.c.obj
                0x00037184                RTC1_IRQHandler
 .text.SWI0_EGU0_IRQHandler
                0x00037220      0x2a4 examples/light_switch/client/CMakeFiles/light_switch_client_nrf52840_xxAA_s140_6.0.0.dir/C_/b/nRF5_SDK_15.0.0_a53641a/components/libraries/timer/app_timer.c.obj
                0x00037220                SWI0_EGU0_IRQHandler
 .text.app_timer_init
                0x000374c4       0x64 examples/light_switch/client/CMakeFiles/light_switch_client_nrf52840_xxAA_s140_6.0.0.dir/C_/b/nRF5_SDK_15.0.0_a53641a/components/libraries/timer/app_timer.c.obj
                0x000374c4                app_timer_init
 .text.app_timer_create
                0x00037528       0x24 examples/light_switch/client/CMakeFiles/light_switch_client_nrf52840_xxAA_s140_6.0.0.dir/C_/b/nRF5_SDK_15.0.0_a53641a/components/libraries/timer/app_timer.c.obj
                0x00037528                app_timer_create
 .text.app_timer_start
                0x0003754c       0x8c examples/light_switch/client/CMakeFiles/light_switch_client_nrf52840_xxAA_s140_6.0.0.dir/C_/b/nRF5_SDK_15.0.0_a53641a/components/libraries/timer/app_timer.c.obj
                0x0003754c                app_timer_start
 .text.app_timer_stop
                0x000375d8       0x20 examples/light_switch/client/CMakeFiles/light_switch_client_nrf52840_xxAA_s140_6.0.0.dir/C_/b/nRF5_SDK_15.0.0_a53641a/components/libraries/timer/app_timer.c.obj
                0x000375d8                app_timer_stop
 .text.app_error_handler
                0x000375f8       0x1a examples/light_switch/client/CMakeFiles/light_switch_client_nrf52840_xxAA_s140_6.0.0.dir/C_/b/nRF5_SDK_15.0.0_a53641a/components/libraries/util/app_error_handler_gcc.c.obj
                0x000375f8                app_error_handler
 .text._GetAvailWriteSpace
                0x00037612       0x1c external/rtt/librtt_nrf52840_xxAA.a(SEGGER_RTT.c.obj)
 .text._WriteNoCheck
                0x0003762e       0x3c external/rtt/librtt_nrf52840_xxAA.a(SEGGER_RTT.c.obj)
 .text._WriteBlocking
                0x0003766a       0x52 external/rtt/librtt_nrf52840_xxAA.a(SEGGER_RTT.c.obj)
 .text._DoInit  0x000376bc       0x60 external/rtt/librtt_nrf52840_xxAA.a(SEGGER_RTT.c.obj)
 .text.SEGGER_RTT_ReadNoLock
                0x0003771c       0x88 external/rtt/librtt_nrf52840_xxAA.a(SEGGER_RTT.c.obj)
                0x0003771c                SEGGER_RTT_ReadNoLock
 .text.SEGGER_RTT_Read
                0x000377a4       0x1c external/rtt/librtt_nrf52840_xxAA.a(SEGGER_RTT.c.obj)
                0x000377a4                SEGGER_RTT_Read
 .text.SEGGER_RTT_WriteNoLock
                0x000377c0       0x68 external/rtt/librtt_nrf52840_xxAA.a(SEGGER_RTT.c.obj)
                0x000377c0                SEGGER_RTT_WriteNoLock
 .text.SEGGER_RTT_Write
                0x00037828       0x34 external/rtt/librtt_nrf52840_xxAA.a(SEGGER_RTT.c.obj)
                0x00037828                SEGGER_RTT_Write
 .text.SEGGER_RTT_GetKey
                0x0003785c       0x20 external/rtt/librtt_nrf52840_xxAA.a(SEGGER_RTT.c.obj)
                0x0003785c                SEGGER_RTT_GetKey
 .text._StoreChar
                0x0003787c       0x3e external/rtt/librtt_nrf52840_xxAA.a(SEGGER_RTT_printf.c.obj)
 *fill*         0x000378ba        0x2 
 .text._PrintUnsigned
                0x000378bc       0xd0 external/rtt/librtt_nrf52840_xxAA.a(SEGGER_RTT_printf.c.obj)
 .text.SEGGER_RTT_vprintf
                0x0003798c      0x246 external/rtt/librtt_nrf52840_xxAA.a(SEGGER_RTT_printf.c.obj)
                0x0003798c                SEGGER_RTT_vprintf
 .text.SEGGER_RTT_printf
                0x00037bd2       0x1e external/rtt/librtt_nrf52840_xxAA.a(SEGGER_RTT_printf.c.obj)
                0x00037bd2                SEGGER_RTT_printf
 .text.uECC_vli_mult
                0x00037bf0       0x64 external/micro-ecc/libuECC_nrf52840_xxAA.a(uECC.c.obj)
 .text.uECC_vli_clear
                0x00037c54       0x16 external/micro-ecc/libuECC_nrf52840_xxAA.a(uECC.c.obj)
 .text.uECC_vli_isZero
                0x00037c6a       0x1e external/micro-ecc/libuECC_nrf52840_xxAA.a(uECC.c.obj)
 .text.uECC_vli_testBit
                0x00037c88       0x14 external/micro-ecc/libuECC_nrf52840_xxAA.a(uECC.c.obj)
 .text.uECC_vli_numBits
                0x00037c9c       0x3a external/micro-ecc/libuECC_nrf52840_xxAA.a(uECC.c.obj)
 .text.uECC_vli_set
                0x00037cd6       0x18 external/micro-ecc/libuECC_nrf52840_xxAA.a(uECC.c.obj)
 .text.uECC_vli_cmp_unsafe
                0x00037cee       0x28 external/micro-ecc/libuECC_nrf52840_xxAA.a(uECC.c.obj)
 .text.uECC_vli_rshift1
                0x00037d16       0x1c external/micro-ecc/libuECC_nrf52840_xxAA.a(uECC.c.obj)
 .text.uECC_vli_modMult_fast
                0x00037d32       0x20 external/micro-ecc/libuECC_nrf52840_xxAA.a(uECC.c.obj)
 .text.uECC_vli_modSquare_fast
                0x00037d52        0x8 external/micro-ecc/libuECC_nrf52840_xxAA.a(uECC.c.obj)
 .text.apply_z  0x00037d5a       0x3e external/micro-ecc/libuECC_nrf52840_xxAA.a(uECC.c.obj)
 .text.uECC_vli_nativeToBytes
                0x00037d98       0x28 external/micro-ecc/libuECC_nrf52840_xxAA.a(uECC.c.obj)
 .text.uECC_vli_bytesToNative
                0x00037dc0       0x40 external/micro-ecc/libuECC_nrf52840_xxAA.a(uECC.c.obj)
 .text.default_RNG
                0x00037e00        0xc external/micro-ecc/libuECC_nrf52840_xxAA.a(uECC.c.obj)
 .text.uECC_vli_add.isra.0
                0x00037e0c       0x4a external/micro-ecc/libuECC_nrf52840_xxAA.a(uECC.c.obj)
 .text.regularize_k
                0x00037e56       0x50 external/micro-ecc/libuECC_nrf52840_xxAA.a(uECC.c.obj)
 .text.uECC_vli_sub.isra.1
                0x00037ea6       0x4e external/micro-ecc/libuECC_nrf52840_xxAA.a(uECC.c.obj)
 .text.uECC_vli_cmp
                0x00037ef4       0x30 external/micro-ecc/libuECC_nrf52840_xxAA.a(uECC.c.obj)
 .text.uECC_generate_random_int
                0x00037f24       0x78 external/micro-ecc/libuECC_nrf52840_xxAA.a(uECC.c.obj)
 .text.uECC_vli_modAdd
                0x00037f9c       0x2e external/micro-ecc/libuECC_nrf52840_xxAA.a(uECC.c.obj)
 *fill*         0x00037fca        0x2 
 .text.vli_mmod_fast_secp256r1
                0x00037fcc      0x194 external/micro-ecc/libuECC_nrf52840_xxAA.a(uECC.c.obj)
 .text.uECC_vli_modSub.isra.2
                0x00038160       0x1c external/micro-ecc/libuECC_nrf52840_xxAA.a(uECC.c.obj)
 .text.double_jacobian_default
                0x0003817c      0x14a external/micro-ecc/libuECC_nrf52840_xxAA.a(uECC.c.obj)
 .text.x_side_default
                0x000382c6       0x5a external/micro-ecc/libuECC_nrf52840_xxAA.a(uECC.c.obj)
 .text.XYcZ_add
                0x00038320       0xbc external/micro-ecc/libuECC_nrf52840_xxAA.a(uECC.c.obj)
 .text.XYcZ_addC
                0x000383dc      0x10a external/micro-ecc/libuECC_nrf52840_xxAA.a(uECC.c.obj)
 .text.vli_modInv_update
                0x000384e6       0x36 external/micro-ecc/libuECC_nrf52840_xxAA.a(uECC.c.obj)
 .text.uECC_vli_modInv
                0x0003851c      0x102 external/micro-ecc/libuECC_nrf52840_xxAA.a(uECC.c.obj)
 .text.EccPoint_mult
                0x0003861e      0x19e external/micro-ecc/libuECC_nrf52840_xxAA.a(uECC.c.obj)
 .text.EccPoint_compute_public_key
                0x000387bc       0x54 external/micro-ecc/libuECC_nrf52840_xxAA.a(uECC.c.obj)
 .text.uECC_secp256r1
                0x00038810        0x8 external/micro-ecc/libuECC_nrf52840_xxAA.a(uECC.c.obj)
                0x00038810                uECC_secp256r1
 .text.uECC_make_key
                0x00038818       0x7e external/micro-ecc/libuECC_nrf52840_xxAA.a(uECC.c.obj)
                0x00038818                uECC_make_key
 *fill*         0x00038896        0x2 
 .text.uECC_shared_secret
                0x00038898       0xbc external/micro-ecc/libuECC_nrf52840_xxAA.a(uECC.c.obj)
                0x00038898                uECC_shared_secret
 .text.uECC_valid_point
                0x00038954       0x86 external/micro-ecc/libuECC_nrf52840_xxAA.a(uECC.c.obj)
                0x00038954                uECC_valid_point
 .text.uECC_valid_public_key
                0x000389da       0x32 external/micro-ecc/libuECC_nrf52840_xxAA.a(uECC.c.obj)
                0x000389da                uECC_valid_public_key
 .text          0x00038a0c       0x30 c:/mesh/arm_gcc/bin/../lib/gcc/arm-none-eabi/6.3.1/thumb/v7e-m/fpv4-sp/hard\libgcc.a(_aeabi_uldivmod.o)
                0x00038a0c                __aeabi_uldivmod
 .text          0x00038a3c      0x2dc c:/mesh/arm_gcc/bin/../lib/gcc/arm-none-eabi/6.3.1/thumb/v7e-m/fpv4-sp/hard\libgcc.a(_udivmoddi4.o)
                0x00038a3c                __udivmoddi4
 .text          0x00038d18        0x4 c:/mesh/arm_gcc/bin/../lib/gcc/arm-none-eabi/6.3.1/thumb/v7e-m/fpv4-sp/hard\libgcc.a(_dvmd_tls.o)
                0x00038d18                __aeabi_idiv0
                0x00038d18                __aeabi_ldiv0
 .text.exit     0x00038d1c       0x28 c:/mesh/arm_gcc/bin/../lib/gcc/arm-none-eabi/6.3.1/../../../../arm-none-eabi/lib/thumb/v7e-m/fpv4-sp/hard\libg_nano.a(lib_a-exit.o)
                0x00038d1c                exit
 .text.__libc_init_array
                0x00038d44       0x48 c:/mesh/arm_gcc/bin/../lib/gcc/arm-none-eabi/6.3.1/../../../../arm-none-eabi/lib/thumb/v7e-m/fpv4-sp/hard\libg_nano.a(lib_a-init.o)
                0x00038d44                __libc_init_array
 .text.malloc   0x00038d8c       0x10 c:/mesh/arm_gcc/bin/../lib/gcc/arm-none-eabi/6.3.1/../../../../arm-none-eabi/lib/thumb/v7e-m/fpv4-sp/hard\libg_nano.a(lib_a-malloc.o)
                0x00038d8c                malloc
 .text.free     0x00038d9c       0x10 c:/mesh/arm_gcc/bin/../lib/gcc/arm-none-eabi/6.3.1/../../../../arm-none-eabi/lib/thumb/v7e-m/fpv4-sp/hard\libg_nano.a(lib_a-malloc.o)
                0x00038d9c                free
 .text.memcmp   0x00038dac       0x1e c:/mesh/arm_gcc/bin/../lib/gcc/arm-none-eabi/6.3.1/../../../../arm-none-eabi/lib/thumb/v7e-m/fpv4-sp/hard\libg_nano.a(lib_a-memcmp.o)
                0x00038dac                memcmp
 .text.memcpy   0x00038dca       0x16 c:/mesh/arm_gcc/bin/../lib/gcc/arm-none-eabi/6.3.1/../../../../arm-none-eabi/lib/thumb/v7e-m/fpv4-sp/hard\libg_nano.a(lib_a-memcpy-stub.o)
                0x00038dca                memcpy
 .text.memset   0x00038de0       0x10 c:/mesh/arm_gcc/bin/../lib/gcc/arm-none-eabi/6.3.1/../../../../arm-none-eabi/lib/thumb/v7e-m/fpv4-sp/hard\libg_nano.a(lib_a-memset.o)
                0x00038de0                memset
 .text._free_r  0x00038df0       0x9c c:/mesh/arm_gcc/bin/../lib/gcc/arm-none-eabi/6.3.1/../../../../arm-none-eabi/lib/thumb/v7e-m/fpv4-sp/hard\libg_nano.a(lib_a-nano-freer.o)
                0x00038df0                _free_r
 .text._malloc_r
                0x00038e8c       0xbc c:/mesh/arm_gcc/bin/../lib/gcc/arm-none-eabi/6.3.1/../../../../arm-none-eabi/lib/thumb/v7e-m/fpv4-sp/hard\libg_nano.a(lib_a-nano-mallocr.o)
                0x00038e8c                _malloc_r
 .text._sbrk_r  0x00038f48       0x20 c:/mesh/arm_gcc/bin/../lib/gcc/arm-none-eabi/6.3.1/../../../../arm-none-eabi/lib/thumb/v7e-m/fpv4-sp/hard\libg_nano.a(lib_a-sbrkr.o)
                0x00038f48                _sbrk_r
 .text.strcpy   0x00038f68       0x10 c:/mesh/arm_gcc/bin/../lib/gcc/arm-none-eabi/6.3.1/../../../../arm-none-eabi/lib/thumb/v7e-m/fpv4-sp/hard\libg_nano.a(lib_a-strcpy.o)
                0x00038f68                strcpy
 .text          0x00038f78       0x10 c:/mesh/arm_gcc/bin/../lib/gcc/arm-none-eabi/6.3.1/../../../../arm-none-eabi/lib/thumb/v7e-m/fpv4-sp/hard\libg_nano.a(lib_a-strlen.o)
                0x00038f78                strlen
 .text.strrchr  0x00038f88       0x26 c:/mesh/arm_gcc/bin/../lib/gcc/arm-none-eabi/6.3.1/../../../../arm-none-eabi/lib/thumb/v7e-m/fpv4-sp/hard\libg_nano.a(lib_a-strrchr.o)
                0x00038f88                strrchr
 .text.__malloc_lock
                0x00038fae        0x2 c:/mesh/arm_gcc/bin/../lib/gcc/arm-none-eabi/6.3.1/../../../../arm-none-eabi/lib/thumb/v7e-m/fpv4-sp/hard\libg_nano.a(lib_a-mlock.o)
                0x00038fae                __malloc_lock
 .text.__malloc_unlock
                0x00038fb0        0x2 c:/mesh/arm_gcc/bin/../lib/gcc/arm-none-eabi/6.3.1/../../../../arm-none-eabi/lib/thumb/v7e-m/fpv4-sp/hard\libg_nano.a(lib_a-mlock.o)
                0x00038fb0                __malloc_unlock
 .text.strchr   0x00038fb2       0x1c c:/mesh/arm_gcc/bin/../lib/gcc/arm-none-eabi/6.3.1/../../../../arm-none-eabi/lib/thumb/v7e-m/fpv4-sp/hard\libg_nano.a(lib_a-strchr.o)
                0x00038fb2                strchr
 *fill*         0x00038fce        0x2 
 .text._sbrk    0x00038fd0       0x1c c:/mesh/arm_gcc/bin/../lib/gcc/arm-none-eabi/6.3.1/../../../../arm-none-eabi/lib/thumb/v7e-m/fpv4-sp/hard\libnosys.a(sbrk.o)
                0x00038fd0                _sbrk
 .text._exit    0x00038fec        0x4 c:/mesh/arm_gcc/bin/../lib/gcc/arm-none-eabi/6.3.1/../../../../arm-none-eabi/lib/thumb/v7e-m/fpv4-sp/hard\libnosys.a(_exit.o)
                0x00038fec                _exit
 *(.init)
 .init          0x00038ff0        0x4 c:/mesh/arm_gcc/bin/../lib/gcc/arm-none-eabi/6.3.1/thumb/v7e-m/fpv4-sp/hard/crti.o
                0x00038ff0                _init
 .init          0x00038ff4        0x8 c:/mesh/arm_gcc/bin/../lib/gcc/arm-none-eabi/6.3.1/thumb/v7e-m/fpv4-sp/hard/crtn.o
 *(.fini)
 .fini          0x00038ffc        0x4 c:/mesh/arm_gcc/bin/../lib/gcc/arm-none-eabi/6.3.1/thumb/v7e-m/fpv4-sp/hard/crti.o
                0x00038ffc                _fini
 .fini          0x00039000        0x8 c:/mesh/arm_gcc/bin/../lib/gcc/arm-none-eabi/6.3.1/thumb/v7e-m/fpv4-sp/hard/crtn.o
 *crtbegin.o(.ctors)
 *crtbegin?.o(.ctors)
 *(EXCLUDE_FILE(*crtend.o *crtend?.o) .ctors)
 *(SORT(.ctors.*))
 *(.ctors)
 *crtbegin.o(.dtors)
 *crtbegin?.o(.dtors)
 *(EXCLUDE_FILE(*crtend.o *crtend?.o) .dtors)
 *(SORT(.dtors.*))
 *(.dtors)
 *(.rodata*)
 .rodata        0x00039008        0xc examples/light_switch/client/CMakeFiles/light_switch_client_nrf52840_xxAA_s140_6.0.0.dir/src/main.c.obj
 .rodata.button_event_handler.str1.1
                0x00039014       0x5e examples/light_switch/client/CMakeFiles/light_switch_client_nrf52840_xxAA_s140_6.0.0.dir/src/main.c.obj
 .rodata.client_publish_timeout_cb.str1.1
                0x00039072       0x1c examples/light_switch/client/CMakeFiles/light_switch_client_nrf52840_xxAA_s140_6.0.0.dir/src/main.c.obj
 .rodata.client_status_cb.str1.1
                0x0003908e       0x87 examples/light_switch/client/CMakeFiles/light_switch_client_nrf52840_xxAA_s140_6.0.0.dir/src/main.c.obj
 .rodata.config_server_evt_cb.str1.1
                0x00039115       0x19 examples/light_switch/client/CMakeFiles/light_switch_client_nrf52840_xxAA_s140_6.0.0.dir/src/main.c.obj
 .rodata.m_client_node_uuid
                0x0003912e       0x10 examples/light_switch/client/CMakeFiles/light_switch_client_nrf52840_xxAA_s140_6.0.0.dir/src/main.c.obj
 .rodata.main.str1.1
                0x0003913e       0x44 examples/light_switch/client/CMakeFiles/light_switch_client_nrf52840_xxAA_s140_6.0.0.dir/src/main.c.obj
 .rodata.models_init_cb.str1.1
                0x00039182       0x20 examples/light_switch/client/CMakeFiles/light_switch_client_nrf52840_xxAA_s140_6.0.0.dir/src/main.c.obj
 .rodata.provisioning_complete_cb.str1.1
                0x000391a2       0x5c examples/light_switch/client/CMakeFiles/light_switch_client_nrf52840_xxAA_s140_6.0.0.dir/src/main.c.obj
 .rodata.static_auth_data.12386
                0x000391fe       0x10 examples/light_switch/client/CMakeFiles/light_switch_client_nrf52840_xxAA_s140_6.0.0.dir/src/main.c.obj
 .rodata.mesh_softdevice_init.str1.1
                0x0003920e       0x94 examples/light_switch/client/CMakeFiles/light_switch_client_nrf52840_xxAA_s140_6.0.0.dir/__/__/common/src/mesh_softdevice_init.c.obj
 .rodata        0x000392a2        0xb examples/light_switch/client/CMakeFiles/light_switch_client_nrf52840_xxAA_s140_6.0.0.dir/__/__/common/src/mesh_provisionee.c.obj
 *fill*         0x000392ad        0x3 
 .rodata.m_rtt_timer
                0x000392b0        0x4 examples/light_switch/client/CMakeFiles/light_switch_client_nrf52840_xxAA_s140_6.0.0.dir/__/__/common/src/rtt_input.c.obj
 .rodata.rtt_input_enable.str1.1
                0x000392b4       0x23 examples/light_switch/client/CMakeFiles/light_switch_client_nrf52840_xxAA_s140_6.0.0.dir/__/__/common/src/rtt_input.c.obj
 *fill*         0x000392d7        0x1 
 .rodata.m_blink_timer
                0x000392d8        0x4 examples/light_switch/client/CMakeFiles/light_switch_client_nrf52840_xxAA_s140_6.0.0.dir/__/__/common/src/simple_hal.c.obj
 .rodata.m_buttons_list
                0x000392dc        0x4 examples/light_switch/client/CMakeFiles/light_switch_client_nrf52840_xxAA_s140_6.0.0.dir/__/__/common/src/simple_hal.c.obj
 .rodata.app_error_fault_handler.str1.1
                0x000392e0       0xbd examples/light_switch/client/CMakeFiles/light_switch_client_nrf52840_xxAA_s140_6.0.0.dir/__/__/common/src/app_error_weak.c.obj
 .rodata.mesh_assertion_handler.str1.1
                0x0003939d       0xbd examples/light_switch/client/CMakeFiles/light_switch_client_nrf52840_xxAA_s140_6.0.0.dir/__/__/common/src/assertion_handler_weak.c.obj
                                  0x1 (size before relaxing)
 .rodata.sar_ctx_cancel.str1.1
                0x0003939d       0x23 examples/light_switch/client/CMakeFiles/light_switch_client_nrf52840_xxAA_s140_6.0.0.dir/__/__/__/mesh/core/src/transport.c.obj
 .rodata.test_transport_decrypt.str1.1
                0x000393c0       0x30 examples/light_switch/client/CMakeFiles/light_switch_client_nrf52840_xxAA_s140_6.0.0.dir/__/__/__/mesh/core/src/transport.c.obj
 .rodata.transport_packet_in.str1.1
                0x000393f0       0x24 examples/light_switch/client/CMakeFiles/light_switch_client_nrf52840_xxAA_s140_6.0.0.dir/__/__/__/mesh/core/src/transport.c.obj
 .rodata.upper_transport_access_packet_in.str1.1
                0x00039414       0x29 examples/light_switch/client/CMakeFiles/light_switch_client_nrf52840_xxAA_s140_6.0.0.dir/__/__/__/mesh/core/src/transport.c.obj
 .rodata.upper_transport_packet_in.str1.1
                0x0003943d       0x2e examples/light_switch/client/CMakeFiles/light_switch_client_nrf52840_xxAA_s140_6.0.0.dir/__/__/__/mesh/core/src/transport.c.obj
 .rodata.upper_transport_tx.str1.1
                0x0003946b        0xe examples/light_switch/client/CMakeFiles/light_switch_client_nrf52840_xxAA_s140_6.0.0.dir/__/__/__/mesh/core/src/transport.c.obj
                                 0x16 (size before relaxing)
 *fill*         0x00039479        0x3 
 .rodata.m_procedure_steps
                0x0003947c       0x28 examples/light_switch/client/CMakeFiles/light_switch_client_nrf52840_xxAA_s140_6.0.0.dir/__/__/__/mesh/core/src/flash_manager_defrag.c.obj
 .rodata.m_all_operations
                0x000394a4       0x10 examples/light_switch/client/CMakeFiles/light_switch_client_nrf52840_xxAA_s140_6.0.0.dir/__/__/__/mesh/core/src/mesh_flash.c.obj
 .rodata.types_lookup.9354
                0x000394b4        0x4 examples/light_switch/client/CMakeFiles/light_switch_client_nrf52840_xxAA_s140_6.0.0.dir/__/__/__/mesh/core/src/nrf_mesh_utils.c.obj
 .rodata.__func__.11852
                0x000394b8       0x15 examples/light_switch/client/CMakeFiles/light_switch_client_nrf52840_xxAA_s140_6.0.0.dir/__/__/__/mesh/core/src/nrf_mesh.c.obj
 .rodata.nrf_mesh_listen.str1.1
                0x000394cd       0x70 examples/light_switch/client/CMakeFiles/light_switch_client_nrf52840_xxAA_s140_6.0.0.dir/__/__/__/mesh/core/src/nrf_mesh.c.obj
 .rodata.nrf_mesh_packet_send.str1.1
                0x0003953d       0x70 examples/light_switch/client/CMakeFiles/light_switch_client_nrf52840_xxAA_s140_6.0.0.dir/__/__/__/mesh/core/src/nrf_mesh.c.obj
                                  0x4 (size before relaxing)
 *fill*         0x0003953d        0x1 
 .rodata.CSWTCH.7
                0x0003953e       0x10 examples/light_switch/client/CMakeFiles/light_switch_client_nrf52840_xxAA_s140_6.0.0.dir/__/__/__/mesh/core/src/hal.c.obj
 .rodata        0x0003954e       0x15 examples/light_switch/client/CMakeFiles/light_switch_client_nrf52840_xxAA_s140_6.0.0.dir/__/__/__/mesh/core/src/enc.c.obj
 .rodata.network_packet_in.str1.1
                0x00039563       0x48 examples/light_switch/client/CMakeFiles/light_switch_client_nrf52840_xxAA_s140_6.0.0.dir/__/__/__/mesh/core/src/network.c.obj
 .rodata.net_packet_decrypt.str1.1
                0x000395ab       0x31 examples/light_switch/client/CMakeFiles/light_switch_client_nrf52840_xxAA_s140_6.0.0.dir/__/__/__/mesh/core/src/net_packet.c.obj
                                 0x39 (size before relaxing)
 .rodata        0x000395dc        0x7 examples/light_switch/client/CMakeFiles/light_switch_client_nrf52840_xxAA_s140_6.0.0.dir/__/__/__/mesh/core/src/nrf_mesh_keygen.c.obj
 .rodata.log_callback_rtt.str1.1
                0x000395e3       0x15 examples/light_switch/client/CMakeFiles/light_switch_client_nrf52840_xxAA_s140_6.0.0.dir/__/__/__/mesh/core/src/log.c.obj
 .rodata.str1.1
                0x000395f8       0x11 examples/light_switch/client/CMakeFiles/light_switch_client_nrf52840_xxAA_s140_6.0.0.dir/__/__/__/mesh/core/src/log.c.obj
 *fill*         0x00039609        0x3 
 .rodata.INVALID_HEADER
                0x0003960c        0x4 examples/light_switch/client/CMakeFiles/light_switch_client_nrf52840_xxAA_s140_6.0.0.dir/__/__/__/mesh/core/src/flash_manager.c.obj
                0x0003960c                INVALID_HEADER
 .rodata.PADDING_HEADER
                0x00039610        0x4 examples/light_switch/client/CMakeFiles/light_switch_client_nrf52840_xxAA_s140_6.0.0.dir/__/__/__/mesh/core/src/flash_manager.c.obj
                0x00039610                PADDING_HEADER
 .rodata.SEAL_HEADER
                0x00039614        0x4 examples/light_switch/client/CMakeFiles/light_switch_client_nrf52840_xxAA_s140_6.0.0.dir/__/__/__/mesh/core/src/flash_manager.c.obj
                0x00039614                SEAL_HEADER
 .rodata.beacon_packet_in.str1.1
                0x00039618       0x51 examples/light_switch/client/CMakeFiles/light_switch_client_nrf52840_xxAA_s140_6.0.0.dir/__/__/__/mesh/core/src/beacon.c.obj
                                 0x59 (size before relaxing)
 *fill*         0x00039669        0x3 
 .rodata.cp_handler
                0x0003966c        0x8 examples/light_switch/client/CMakeFiles/light_switch_client_nrf52840_xxAA_s140_6.0.0.dir/__/__/__/mesh/core/src/heartbeat.c.obj
 .rodata.beacon_tx.str1.1
                0x00039674       0x35 examples/light_switch/client/CMakeFiles/light_switch_client_nrf52840_xxAA_s140_6.0.0.dir/__/__/__/mesh/core/src/net_beacon.c.obj
 .rodata.net_beacon_init.str1.1
                0x000396a9        0x5 examples/light_switch/client/CMakeFiles/light_switch_client_nrf52840_xxAA_s140_6.0.0.dir/__/__/__/mesh/core/src/net_beacon.c.obj
 *fill*         0x000396ae        0x2 
 .rodata.m_interface
                0x000396b0        0xc examples/light_switch/client/CMakeFiles/light_switch_client_nrf52840_xxAA_s140_6.0.0.dir/__/__/__/mesh/core/src/core_tx_adv.c.obj
 .rodata.radio_mode_to_us_per_byte.9768
                0x000396bc        0x6 examples/light_switch/client/CMakeFiles/light_switch_client_nrf52840_xxAA_s140_6.0.0.dir/__/__/__/mesh/bearer/src/broadcast.c.obj
 .rodata.channel_rf_offsets.8993
                0x000396c2       0x28 examples/light_switch/client/CMakeFiles/light_switch_client_nrf52840_xxAA_s140_6.0.0.dir/__/__/__/mesh/bearer/src/radio_config.c.obj
 .rodata        0x000396ea        0x3 examples/light_switch/client/CMakeFiles/light_switch_client_nrf52840_xxAA_s140_6.0.0.dir/__/__/__/mesh/bearer/src/scanner.c.obj
 *fill*         0x000396ed        0x3 
 .rodata.m_opcode_handlers
                0x000396f0        0x8 examples/light_switch/client/CMakeFiles/light_switch_client_nrf52840_xxAA_s140_6.0.0.dir/__/__/__/models/simple_on_off/src/simple_on_off_client.c.obj
 .rodata        0x000396f8        0x8 examples/light_switch/client/CMakeFiles/light_switch_client_nrf52840_xxAA_s140_6.0.0.dir/__/__/__/models/config/src/config_server.c.obj
 .rodata.CSWTCH.123
                0x00039700       0x10 examples/light_switch/client/CMakeFiles/light_switch_client_nrf52840_xxAA_s140_6.0.0.dir/__/__/__/models/config/src/config_server.c.obj
 .rodata.opcode_handlers
                0x00039710      0x170 examples/light_switch/client/CMakeFiles/light_switch_client_nrf52840_xxAA_s140_6.0.0.dir/__/__/__/models/config/src/config_server.c.obj
 .rodata.m_opcode_handlers
                0x00039880       0x58 examples/light_switch/client/CMakeFiles/light_switch_client_nrf52840_xxAA_s140_6.0.0.dir/__/__/__/models/health/src/health_server.c.obj
 .rodata.multiply_de_bruijn_bit_position.9604
                0x000398d8       0x20 examples/light_switch/client/CMakeFiles/light_switch_client_nrf52840_xxAA_s140_6.0.0.dir/__/__/__/models/health/src/health_server.c.obj
 .rodata.mesh_evt_cb.str1.1
                0x000398f8       0x13 examples/light_switch/client/CMakeFiles/light_switch_client_nrf52840_xxAA_s140_6.0.0.dir/__/__/__/mesh/access/src/access.c.obj
 .rodata.multiply_de_bruijn_bit_position.9560
                0x0003990b       0x20 examples/light_switch/client/CMakeFiles/light_switch_client_nrf52840_xxAA_s140_6.0.0.dir/__/__/__/mesh/access/src/access.c.obj
 .rodata.packet_tx.str1.1
                0x0003992b       0x38 examples/light_switch/client/CMakeFiles/light_switch_client_nrf52840_xxAA_s140_6.0.0.dir/__/__/__/mesh/access/src/access.c.obj
                                 0x40 (size before relaxing)
 *fill*         0x00039963        0x1 
 .rodata.m_flash_groups
                0x00039964       0xa8 examples/light_switch/client/CMakeFiles/light_switch_client_nrf52840_xxAA_s140_6.0.0.dir/__/__/__/mesh/access/src/device_state_manager.c.obj
 .rodata.multiply_de_bruijn_bit_position.9666
                0x00039a0c       0x20 examples/light_switch/client/CMakeFiles/light_switch_client_nrf52840_xxAA_s140_6.0.0.dir/__/__/__/mesh/access/src/device_state_manager.c.obj
 .rodata.m_prov_callbacks
                0x00039a2c       0x10 examples/light_switch/client/CMakeFiles/light_switch_client_nrf52840_xxAA_s140_6.0.0.dir/__/__/__/mesh/prov/src/prov_provisionee.c.obj
 .rodata.prov_provisionee_cb_ack_received.str1.1
                0x00039a3c       0x53 examples/light_switch/client/CMakeFiles/light_switch_client_nrf52840_xxAA_s140_6.0.0.dir/__/__/__/mesh/prov/src/prov_provisionee.c.obj
 .rodata.multiply_de_bruijn_bit_position.9608
                0x00039a8f       0x20 examples/light_switch/client/CMakeFiles/light_switch_client_nrf52840_xxAA_s140_6.0.0.dir/__/__/__/mesh/prov/src/nrf_mesh_prov.c.obj
 .rodata.pdu_sizes.11546
                0x00039aaf        0xa examples/light_switch/client/CMakeFiles/light_switch_client_nrf52840_xxAA_s140_6.0.0.dir/__/__/__/mesh/prov/src/provisioning.c.obj
 .rodata.alphanumeric.11651
                0x00039ab9       0x25 examples/light_switch/client/CMakeFiles/light_switch_client_nrf52840_xxAA_s140_6.0.0.dir/__/__/__/mesh/prov/src/prov_utils.c.obj
 *fill*         0x00039ade        0x2 
 .rodata.numeric_max.11645
                0x00039ae0       0x24 examples/light_switch/client/CMakeFiles/light_switch_client_nrf52840_xxAA_s140_6.0.0.dir/__/__/__/mesh/prov/src/prov_utils.c.obj
 .rodata.prov_utils_authentication_values_derive.str1.1
                0x00039b04        0x5 examples/light_switch/client/CMakeFiles/light_switch_client_nrf52840_xxAA_s140_6.0.0.dir/__/__/__/mesh/prov/src/prov_utils.c.obj
 .rodata.prov_utils_derive_keys.str1.1
                0x00039b09        0xf examples/light_switch/client/CMakeFiles/light_switch_client_nrf52840_xxAA_s140_6.0.0.dir/__/__/__/mesh/prov/src/prov_utils.c.obj
 .rodata.add_active_bearer.str1.1
                0x00039b18       0x2c examples/light_switch/client/CMakeFiles/light_switch_client_nrf52840_xxAA_s140_6.0.0.dir/__/__/__/mesh/prov/src/prov_bearer_adv.c.obj
 .rodata.crctable.11278
                0x00039b44      0x100 examples/light_switch/client/CMakeFiles/light_switch_client_nrf52840_xxAA_s140_6.0.0.dir/__/__/__/mesh/prov/src/prov_bearer_adv.c.obj
 .rodata.interface.11508
                0x00039c44       0x14 examples/light_switch/client/CMakeFiles/light_switch_client_nrf52840_xxAA_s140_6.0.0.dir/__/__/__/mesh/prov/src/prov_bearer_adv.c.obj
 .rodata.prov_bearer_adv_packet_in.str1.1
                0x00039c58      0x26e examples/light_switch/client/CMakeFiles/light_switch_client_nrf52840_xxAA_s140_6.0.0.dir/__/__/__/mesh/prov/src/prov_bearer_adv.c.obj
 .rodata.tx_retry_cb.str1.1
                0x00039ec6       0x37 examples/light_switch/client/CMakeFiles/light_switch_client_nrf52840_xxAA_s140_6.0.0.dir/__/__/__/mesh/prov/src/prov_bearer_adv.c.obj
 *fill*         0x00039efd        0x3 
 .rodata.delay_bytecode.9306
                0x00039f00        0x6 examples/light_switch/client/CMakeFiles/light_switch_client_nrf52840_xxAA_s140_6.0.0.dir/C_/b/nRF5_SDK_15.0.0_a53641a/components/libraries/timer/app_timer.c.obj
 .rodata._DoInit.str1.1
                0x00039f06       0x14 external/rtt/librtt_nrf52840_xxAA.a(SEGGER_RTT.c.obj)
 .rodata._aV2C.5497
                0x00039f1a       0x10 external/rtt/librtt_nrf52840_xxAA.a(SEGGER_RTT_printf.c.obj)
 *fill*         0x00039f2a        0x2 
 .rodata.curve_secp256r1
                0x00039f2c       0xb0 external/micro-ecc/libuECC_nrf52840_xxAA.a(uECC.c.obj)
 .rodata._global_impure_ptr
                0x00039fdc        0x4 c:/mesh/arm_gcc/bin/../lib/gcc/arm-none-eabi/6.3.1/../../../../arm-none-eabi/lib/thumb/v7e-m/fpv4-sp/hard\libg_nano.a(lib_a-impure.o)
                0x00039fdc                _global_impure_ptr
 *(.eh_frame*)
 .eh_frame      0x00039fe0        0x0 c:/mesh/arm_gcc/bin/../lib/gcc/arm-none-eabi/6.3.1/thumb/v7e-m/fpv4-sp/hard/crtbegin.o
 .eh_frame      0x00039fe0        0x4 c:/mesh/arm_gcc/bin/../lib/gcc/arm-none-eabi/6.3.1/thumb/v7e-m/fpv4-sp/hard/crtend.o

.glue_7         0x00039fe4        0x0
 .glue_7        0x00039fe4        0x0 linker stubs

.glue_7t        0x00039fe4        0x0
 .glue_7t       0x00039fe4        0x0 linker stubs

.vfp11_veneer   0x00039fe4        0x0
 .vfp11_veneer  0x00039fe4        0x0 linker stubs

.v4_bx          0x00039fe4        0x0
 .v4_bx         0x00039fe4        0x0 linker stubs

.iplt           0x00039fe4        0x0
 .iplt          0x00039fe4        0x0 c:/mesh/arm_gcc/bin/../lib/gcc/arm-none-eabi/6.3.1/thumb/v7e-m/fpv4-sp/hard/crtbegin.o

.pwr_mgmt_data  0x00039fe4        0x0
                [!provide]                PROVIDE (__start_pwr_mgmt_data, .)
 *(SORT(.pwr_mgmt_data*))
                [!provide]                PROVIDE (__stop_pwr_mgmt_data, .)

.log_const_data
                0x00039fe4        0x0
                [!provide]                PROVIDE (__start_log_const_data, .)
 *(.log_const_data)
                [!provide]                PROVIDE (__stop_log_const_data, .)

.cli_command    0x00039fe4        0x0
                [!provide]                PROVIDE (__start_cli_command, .)
 *(.cli_command)
                [!provide]                PROVIDE (__stop_cli_command, .)

.sdh_stack_observers
                0x00039fe4        0x0
                [!provide]                PROVIDE (__start_sdh_stack_observers, .)
 *(SORT(.sdh_stack_observers*))
                [!provide]                PROVIDE (__stop_sdh_stack_observers, .)

.sdh_req_observers
                0x00039fe4        0x0
                [!provide]                PROVIDE (__start_sdh_req_observers, .)
 *(SORT(.sdh_req_observers*))
                [!provide]                PROVIDE (__stop_sdh_req_observers, .)

.sdh_state_observers
                0x00039fe4        0x0
                [!provide]                PROVIDE (__start_sdh_state_observers, .)
 *(SORT(.sdh_state_observers*))
                [!provide]                PROVIDE (__stop_sdh_state_observers, .)

.sdh_ant_observers
                0x00039fe4        0x0
                [!provide]                PROVIDE (__start_sdh_ant_observers, .)
 *(SORT(.sdh_ant_observers*))
                [!provide]                PROVIDE (__stop_sdh_ant_observers, .)

.sdh_ble_observers
                0x00039fe4        0x0
                [!provide]                PROVIDE (__start_sdh_ble_observers, .)
 *(SORT(.sdh_ble_observers*))
                [!provide]                PROVIDE (__stop_sdh_ble_observers, .)

.sdh_soc_observers
                0x00039fe4        0x0
                [!provide]                PROVIDE (__start_sdh_soc_observers, .)
 *(SORT(.sdh_soc_observers*))
                [!provide]                PROVIDE (__stop_sdh_soc_observers, .)

.ARM.extab
 *(.ARM.extab* .gnu.linkonce.armextab.*)
                0x00039fe4                __exidx_start = .

.ARM.exidx      0x00039fe4        0x8
 *(.ARM.exidx* .gnu.linkonce.armexidx.*)
 .ARM.exidx     0x00039fe4        0x8 c:/mesh/arm_gcc/bin/../lib/gcc/arm-none-eabi/6.3.1/../../../../arm-none-eabi/lib/thumb/v7e-m/fpv4-sp/hard/crt0.o
 .ARM.exidx     0x00039fec        0x0 c:/mesh/arm_gcc/bin/../lib/gcc/arm-none-eabi/6.3.1/thumb/v7e-m/fpv4-sp/hard\libgcc.a(_udivmoddi4.o)
                                  0x8 (size before relaxing)
                0x00039fec                __exidx_end = .
                0x00039fec                __etext = .

.rel.dyn        0x00039fec        0x0
 .rel.iplt      0x00039fec        0x0 c:/mesh/arm_gcc/bin/../lib/gcc/arm-none-eabi/6.3.1/thumb/v7e-m/fpv4-sp/hard/crtbegin.o

.data           0x20002da0      0x14c load address 0x00039fec
                0x20002da0                __data_start__ = .
 *(vtable)
 *(.data*)
 .data.s_evt_handler.11357
                0x20002da0        0xc examples/light_switch/client/CMakeFiles/light_switch_client_nrf52840_xxAA_s140_6.0.0.dir/__/__/__/mesh/stack/src/mesh_stack.c.obj
 .data.wait.9229
                0x20002dac        0x1 examples/light_switch/client/CMakeFiles/light_switch_client_nrf52840_xxAA_s140_6.0.0.dir/__/__/common/src/app_error_weak.c.obj
 *fill*         0x20002dad        0x3 
 .data.mem_listener.10133
                0x20002db0       0x10 examples/light_switch/client/CMakeFiles/light_switch_client_nrf52840_xxAA_s140_6.0.0.dir/__/__/__/mesh/core/src/net_state.c.obj
 .data.mem_listener.10138
                0x20002dc0       0x10 examples/light_switch/client/CMakeFiles/light_switch_client_nrf52840_xxAA_s140_6.0.0.dir/__/__/__/mesh/core/src/net_state.c.obj
 .data.mem_listener.10152
                0x20002dd0       0x10 examples/light_switch/client/CMakeFiles/light_switch_client_nrf52840_xxAA_s140_6.0.0.dir/__/__/__/mesh/core/src/net_state.c.obj
 .data.mem_listener.10169
                0x20002de0       0x10 examples/light_switch/client/CMakeFiles/light_switch_client_nrf52840_xxAA_s140_6.0.0.dir/__/__/__/mesh/core/src/net_state.c.obj
 .data.m_nrf_mesh_listener
                0x20002df0        0xc examples/light_switch/client/CMakeFiles/light_switch_client_nrf52840_xxAA_s140_6.0.0.dir/__/__/__/mesh/core/src/nrf_mesh.c.obj
 .data.g_log_dbg_lvl
                0x20002dfc        0x4 examples/light_switch/client/CMakeFiles/light_switch_client_nrf52840_xxAA_s140_6.0.0.dir/__/__/__/mesh/core/src/log.c.obj
                0x20002dfc                g_log_dbg_lvl
 .data.g_log_dbg_msk
                0x20002e00        0x4 examples/light_switch/client/CMakeFiles/light_switch_client_nrf52840_xxAA_s140_6.0.0.dir/__/__/__/mesh/core/src/log.c.obj
                0x20002e00                g_log_dbg_msk
 .data.g_log_hex_digits
                0x20002e04        0x4 examples/light_switch/client/CMakeFiles/light_switch_client_nrf52840_xxAA_s140_6.0.0.dir/__/__/__/mesh/core/src/log.c.obj
                0x20002e04                g_log_hex_digits
 .data.m_log_callback
                0x20002e08        0x4 examples/light_switch/client/CMakeFiles/light_switch_client_nrf52840_xxAA_s140_6.0.0.dir/__/__/__/mesh/core/src/log.c.obj
                0x20002e08                m_log_callback
 .data.m_config_server_handle
                0x20002e0c        0x2 examples/light_switch/client/CMakeFiles/light_switch_client_nrf52840_xxAA_s140_6.0.0.dir/__/__/__/models/config/src/config_server.c.obj
 *fill*         0x20002e0e        0x2 
 .data.m_mesh_evt_handler
                0x20002e10        0xc examples/light_switch/client/CMakeFiles/light_switch_client_nrf52840_xxAA_s140_6.0.0.dir/__/__/__/models/config/src/config_server.c.obj
 .data.flash_add_mem_available_struct.10707
                0x20002e1c       0x10 examples/light_switch/client/CMakeFiles/light_switch_client_nrf52840_xxAA_s140_6.0.0.dir/__/__/__/mesh/access/src/access.c.obj
 .data.flash_clear_mem_available_struct.10796
                0x20002e2c       0x10 examples/light_switch/client/CMakeFiles/light_switch_client_nrf52840_xxAA_s140_6.0.0.dir/__/__/__/mesh/access/src/access.c.obj
 .data.flash_store_mem_available_struct.10820
                0x20002e3c       0x10 examples/light_switch/client/CMakeFiles/light_switch_client_nrf52840_xxAA_s140_6.0.0.dir/__/__/__/mesh/access/src/access.c.obj
 .data.m_default_ttl
                0x20002e4c        0x1 examples/light_switch/client/CMakeFiles/light_switch_client_nrf52840_xxAA_s140_6.0.0.dir/__/__/__/mesh/access/src/access.c.obj
 *fill*         0x20002e4d        0x3 
 .data.mem_listener.11060
                0x20002e50       0x10 examples/light_switch/client/CMakeFiles/light_switch_client_nrf52840_xxAA_s140_6.0.0.dir/__/__/__/mesh/access/src/device_state_manager.c.obj
 .data.mem_listener.11086
                0x20002e60       0x10 examples/light_switch/client/CMakeFiles/light_switch_client_nrf52840_xxAA_s140_6.0.0.dir/__/__/__/mesh/access/src/device_state_manager.c.obj
 .data.m_async_process_flag
                0x20002e70        0x4 examples/light_switch/client/CMakeFiles/light_switch_client_nrf52840_xxAA_s140_6.0.0.dir/__/__/__/mesh/prov/src/prov_bearer_adv.c.obj
 .data.SystemCoreClock
                0x20002e74        0x4 examples/light_switch/client/CMakeFiles/light_switch_client_nrf52840_xxAA_s140_6.0.0.dir/C_/b/nRF5_SDK_15.0.0_a53641a/modules/nrfx/mdk/system_nrf52840.c.obj
                0x20002e74                SystemCoreClock
 .data.g_rng_function
                0x20002e78        0x4 external/micro-ecc/libuECC_nrf52840_xxAA.a(uECC.c.obj)
 .data._impure_ptr
                0x20002e7c        0x4 c:/mesh/arm_gcc/bin/../lib/gcc/arm-none-eabi/6.3.1/../../../../arm-none-eabi/lib/thumb/v7e-m/fpv4-sp/hard\libg_nano.a(lib_a-impure.o)
                0x20002e7c                _impure_ptr
 .data.impure_data
                0x20002e80       0x60 c:/mesh/arm_gcc/bin/../lib/gcc/arm-none-eabi/6.3.1/../../../../arm-none-eabi/lib/thumb/v7e-m/fpv4-sp/hard\libg_nano.a(lib_a-impure.o)
                0x20002ee0                . = ALIGN (0x4)
                0x20002ee0                PROVIDE (__preinit_array_start, .)
 *(.preinit_array)
                0x20002ee0                PROVIDE (__preinit_array_end, .)
                0x20002ee0                . = ALIGN (0x4)
                0x20002ee0                PROVIDE (__init_array_start, .)
 *(SORT(.init_array.*))
 *(.init_array)
 .init_array    0x20002ee0        0x4 c:/mesh/arm_gcc/bin/../lib/gcc/arm-none-eabi/6.3.1/thumb/v7e-m/fpv4-sp/hard/crtbegin.o
                0x20002ee4                PROVIDE (__init_array_end, .)
                0x20002ee4                . = ALIGN (0x4)
                [!provide]                PROVIDE (__fini_array_start, .)
 *(SORT(.fini_array.*))
 *(.fini_array)
 .fini_array    0x20002ee4        0x4 c:/mesh/arm_gcc/bin/../lib/gcc/arm-none-eabi/6.3.1/thumb/v7e-m/fpv4-sp/hard/crtbegin.o
                [!provide]                PROVIDE (__fini_array_end, .)
 *(.jcr*)
 .jcr           0x20002ee8        0x0 c:/mesh/arm_gcc/bin/../lib/gcc/arm-none-eabi/6.3.1/thumb/v7e-m/fpv4-sp/hard/crtbegin.o
 .jcr           0x20002ee8        0x4 c:/mesh/arm_gcc/bin/../lib/gcc/arm-none-eabi/6.3.1/thumb/v7e-m/fpv4-sp/hard/crtend.o
                0x20002eec                . = ALIGN (0x4)
                0x20002eec                __data_end__ = .
LOAD c:/mesh/arm_gcc/bin/../lib/gcc/arm-none-eabi/6.3.1/thumb/v7e-m/fpv4-sp/hard/crti.o
LOAD c:/mesh/arm_gcc/bin/../lib/gcc/arm-none-eabi/6.3.1/thumb/v7e-m/fpv4-sp/hard/crtbegin.o
LOAD c:/mesh/arm_gcc/bin/../lib/gcc/arm-none-eabi/6.3.1/../../../../arm-none-eabi/lib/thumb/v7e-m/fpv4-sp/hard/crt0.o
LOAD examples/light_switch/client/CMakeFiles/light_switch_client_nrf52840_xxAA_s140_6.0.0.dir/src/main.c.obj
LOAD examples/light_switch/client/CMakeFiles/light_switch_client_nrf52840_xxAA_s140_6.0.0.dir/__/__/__/mesh/stack/src/mesh_stack.c.obj
LOAD examples/light_switch/client/CMakeFiles/light_switch_client_nrf52840_xxAA_s140_6.0.0.dir/__/__/common/src/mesh_softdevice_init.c.obj
LOAD examples/light_switch/client/CMakeFiles/light_switch_client_nrf52840_xxAA_s140_6.0.0.dir/__/__/common/src/mesh_provisionee.c.obj
LOAD examples/light_switch/client/CMakeFiles/light_switch_client_nrf52840_xxAA_s140_6.0.0.dir/__/__/common/src/rtt_input.c.obj
LOAD examples/light_switch/client/CMakeFiles/light_switch_client_nrf52840_xxAA_s140_6.0.0.dir/__/__/common/src/simple_hal.c.obj
LOAD examples/light_switch/client/CMakeFiles/light_switch_client_nrf52840_xxAA_s140_6.0.0.dir/__/__/nrf_mesh_weak.c.obj
LOAD examples/light_switch/client/CMakeFiles/light_switch_client_nrf52840_xxAA_s140_6.0.0.dir/__/__/common/src/app_error_weak.c.obj
LOAD examples/light_switch/client/CMakeFiles/light_switch_client_nrf52840_xxAA_s140_6.0.0.dir/__/__/common/src/assertion_handler_weak.c.obj
LOAD examples/light_switch/client/CMakeFiles/light_switch_client_nrf52840_xxAA_s140_6.0.0.dir/__/__/__/mesh/core/src/internal_event.c.obj
LOAD examples/light_switch/client/CMakeFiles/light_switch_client_nrf52840_xxAA_s140_6.0.0.dir/__/__/__/mesh/core/src/nrf_mesh_configure.c.obj
LOAD examples/light_switch/client/CMakeFiles/light_switch_client_nrf52840_xxAA_s140_6.0.0.dir/__/__/__/mesh/core/src/aes.c.obj
LOAD examples/light_switch/client/CMakeFiles/light_switch_client_nrf52840_xxAA_s140_6.0.0.dir/__/__/__/mesh/core/src/msg_cache.c.obj
LOAD examples/light_switch/client/CMakeFiles/light_switch_client_nrf52840_xxAA_s140_6.0.0.dir/__/__/__/mesh/core/src/transport.c.obj
LOAD examples/light_switch/client/CMakeFiles/light_switch_client_nrf52840_xxAA_s140_6.0.0.dir/__/__/__/mesh/core/src/event.c.obj
LOAD examples/light_switch/client/CMakeFiles/light_switch_client_nrf52840_xxAA_s140_6.0.0.dir/__/__/__/mesh/core/src/packet_buffer.c.obj
LOAD examples/light_switch/client/CMakeFiles/light_switch_client_nrf52840_xxAA_s140_6.0.0.dir/__/__/__/mesh/core/src/flash_manager_defrag.c.obj
LOAD examples/light_switch/client/CMakeFiles/light_switch_client_nrf52840_xxAA_s140_6.0.0.dir/__/__/__/mesh/core/src/fifo.c.obj
LOAD examples/light_switch/client/CMakeFiles/light_switch_client_nrf52840_xxAA_s140_6.0.0.dir/__/__/__/mesh/core/src/nrf_flash.c.obj
LOAD examples/light_switch/client/CMakeFiles/light_switch_client_nrf52840_xxAA_s140_6.0.0.dir/__/__/__/mesh/core/src/packet_mgr.c.obj
LOAD examples/light_switch/client/CMakeFiles/light_switch_client_nrf52840_xxAA_s140_6.0.0.dir/__/__/__/mesh/core/src/net_state.c.obj
LOAD examples/light_switch/client/CMakeFiles/light_switch_client_nrf52840_xxAA_s140_6.0.0.dir/__/__/__/mesh/core/src/mesh_flash.c.obj
LOAD examples/light_switch/client/CMakeFiles/light_switch_client_nrf52840_xxAA_s140_6.0.0.dir/__/__/__/mesh/core/src/nrf_mesh_utils.c.obj
LOAD examples/light_switch/client/CMakeFiles/light_switch_client_nrf52840_xxAA_s140_6.0.0.dir/__/__/__/mesh/core/src/nrf_mesh.c.obj
LOAD examples/light_switch/client/CMakeFiles/light_switch_client_nrf52840_xxAA_s140_6.0.0.dir/__/__/__/mesh/core/src/queue.c.obj
LOAD examples/light_switch/client/CMakeFiles/light_switch_client_nrf52840_xxAA_s140_6.0.0.dir/__/__/__/mesh/core/src/hal.c.obj
LOAD examples/light_switch/client/CMakeFiles/light_switch_client_nrf52840_xxAA_s140_6.0.0.dir/__/__/__/mesh/core/src/aes_cmac.c.obj
LOAD examples/light_switch/client/CMakeFiles/light_switch_client_nrf52840_xxAA_s140_6.0.0.dir/__/__/__/mesh/core/src/timer_scheduler.c.obj
LOAD examples/light_switch/client/CMakeFiles/light_switch_client_nrf52840_xxAA_s140_6.0.0.dir/__/__/__/mesh/core/src/timer.c.obj
LOAD examples/light_switch/client/CMakeFiles/light_switch_client_nrf52840_xxAA_s140_6.0.0.dir/__/__/__/mesh/core/src/ticker.c.obj
LOAD examples/light_switch/client/CMakeFiles/light_switch_client_nrf52840_xxAA_s140_6.0.0.dir/__/__/__/mesh/core/src/rand.c.obj
LOAD examples/light_switch/client/CMakeFiles/light_switch_client_nrf52840_xxAA_s140_6.0.0.dir/__/__/__/mesh/core/src/nrf_mesh_opt.c.obj
LOAD examples/light_switch/client/CMakeFiles/light_switch_client_nrf52840_xxAA_s140_6.0.0.dir/__/__/__/mesh/core/src/timeslot.c.obj
LOAD examples/light_switch/client/CMakeFiles/light_switch_client_nrf52840_xxAA_s140_6.0.0.dir/__/__/__/mesh/core/src/bearer_event.c.obj
LOAD examples/light_switch/client/CMakeFiles/light_switch_client_nrf52840_xxAA_s140_6.0.0.dir/__/__/__/mesh/core/src/enc.c.obj
LOAD examples/light_switch/client/CMakeFiles/light_switch_client_nrf52840_xxAA_s140_6.0.0.dir/__/__/__/mesh/core/src/network.c.obj
LOAD examples/light_switch/client/CMakeFiles/light_switch_client_nrf52840_xxAA_s140_6.0.0.dir/__/__/__/mesh/core/src/net_packet.c.obj
LOAD examples/light_switch/client/CMakeFiles/light_switch_client_nrf52840_xxAA_s140_6.0.0.dir/__/__/__/mesh/core/src/msqueue.c.obj
LOAD examples/light_switch/client/CMakeFiles/light_switch_client_nrf52840_xxAA_s140_6.0.0.dir/__/__/__/mesh/core/src/nrf_mesh_keygen.c.obj
LOAD examples/light_switch/client/CMakeFiles/light_switch_client_nrf52840_xxAA_s140_6.0.0.dir/__/__/__/mesh/core/src/cache.c.obj
LOAD examples/light_switch/client/CMakeFiles/light_switch_client_nrf52840_xxAA_s140_6.0.0.dir/__/__/__/mesh/core/src/list.c.obj
LOAD examples/light_switch/client/CMakeFiles/light_switch_client_nrf52840_xxAA_s140_6.0.0.dir/__/__/__/mesh/core/src/log.c.obj
LOAD examples/light_switch/client/CMakeFiles/light_switch_client_nrf52840_xxAA_s140_6.0.0.dir/__/__/__/mesh/core/src/flash_manager.c.obj
LOAD examples/light_switch/client/CMakeFiles/light_switch_client_nrf52840_xxAA_s140_6.0.0.dir/__/__/__/mesh/core/src/ccm_soft.c.obj
LOAD examples/light_switch/client/CMakeFiles/light_switch_client_nrf52840_xxAA_s140_6.0.0.dir/__/__/__/mesh/core/src/toolchain.c.obj
LOAD examples/light_switch/client/CMakeFiles/light_switch_client_nrf52840_xxAA_s140_6.0.0.dir/__/__/__/mesh/core/src/replay_cache.c.obj
LOAD examples/light_switch/client/CMakeFiles/light_switch_client_nrf52840_xxAA_s140_6.0.0.dir/__/__/__/mesh/core/src/beacon.c.obj
LOAD examples/light_switch/client/CMakeFiles/light_switch_client_nrf52840_xxAA_s140_6.0.0.dir/__/__/__/mesh/core/src/flash_manager_internal.c.obj
LOAD examples/light_switch/client/CMakeFiles/light_switch_client_nrf52840_xxAA_s140_6.0.0.dir/__/__/__/mesh/core/src/core_tx.c.obj
LOAD examples/light_switch/client/CMakeFiles/light_switch_client_nrf52840_xxAA_s140_6.0.0.dir/__/__/__/mesh/core/src/heartbeat.c.obj
LOAD examples/light_switch/client/CMakeFiles/light_switch_client_nrf52840_xxAA_s140_6.0.0.dir/__/__/__/mesh/core/src/net_beacon.c.obj
LOAD examples/light_switch/client/CMakeFiles/light_switch_client_nrf52840_xxAA_s140_6.0.0.dir/__/__/__/mesh/core/src/fsm.c.obj
LOAD examples/light_switch/client/CMakeFiles/light_switch_client_nrf52840_xxAA_s140_6.0.0.dir/__/__/__/mesh/core/src/core_tx_adv.c.obj
LOAD examples/light_switch/client/CMakeFiles/light_switch_client_nrf52840_xxAA_s140_6.0.0.dir/__/__/__/mesh/bearer/src/ad_listener.c.obj
LOAD examples/light_switch/client/CMakeFiles/light_switch_client_nrf52840_xxAA_s140_6.0.0.dir/__/__/__/mesh/bearer/src/ad_type_filter.c.obj
LOAD examples/light_switch/client/CMakeFiles/light_switch_client_nrf52840_xxAA_s140_6.0.0.dir/__/__/__/mesh/bearer/src/adv_packet_filter.c.obj
LOAD examples/light_switch/client/CMakeFiles/light_switch_client_nrf52840_xxAA_s140_6.0.0.dir/__/__/__/mesh/bearer/src/advertiser.c.obj
LOAD examples/light_switch/client/CMakeFiles/light_switch_client_nrf52840_xxAA_s140_6.0.0.dir/__/__/__/mesh/bearer/src/bearer_handler.c.obj
LOAD examples/light_switch/client/CMakeFiles/light_switch_client_nrf52840_xxAA_s140_6.0.0.dir/__/__/__/mesh/bearer/src/broadcast.c.obj
LOAD examples/light_switch/client/CMakeFiles/light_switch_client_nrf52840_xxAA_s140_6.0.0.dir/__/__/__/mesh/bearer/src/filter_engine.c.obj
LOAD examples/light_switch/client/CMakeFiles/light_switch_client_nrf52840_xxAA_s140_6.0.0.dir/__/__/__/mesh/bearer/src/gap_address_filter.c.obj
LOAD examples/light_switch/client/CMakeFiles/light_switch_client_nrf52840_xxAA_s140_6.0.0.dir/__/__/__/mesh/bearer/src/radio_config.c.obj
LOAD examples/light_switch/client/CMakeFiles/light_switch_client_nrf52840_xxAA_s140_6.0.0.dir/__/__/__/mesh/bearer/src/rssi_filter.c.obj
LOAD examples/light_switch/client/CMakeFiles/light_switch_client_nrf52840_xxAA_s140_6.0.0.dir/__/__/__/mesh/bearer/src/scanner.c.obj
LOAD examples/light_switch/client/CMakeFiles/light_switch_client_nrf52840_xxAA_s140_6.0.0.dir/__/__/__/mesh/bearer/src/mesh_pa_lna.c.obj
LOAD examples/light_switch/client/CMakeFiles/light_switch_client_nrf52840_xxAA_s140_6.0.0.dir/__/__/__/models/simple_on_off/src/simple_on_off_client.c.obj
LOAD examples/light_switch/client/CMakeFiles/light_switch_client_nrf52840_xxAA_s140_6.0.0.dir/__/__/__/models/config/src/composition_data.c.obj
LOAD examples/light_switch/client/CMakeFiles/light_switch_client_nrf52840_xxAA_s140_6.0.0.dir/__/__/__/models/config/src/config_server.c.obj
LOAD examples/light_switch/client/CMakeFiles/light_switch_client_nrf52840_xxAA_s140_6.0.0.dir/__/__/__/models/config/src/packed_index_list.c.obj
LOAD examples/light_switch/client/CMakeFiles/light_switch_client_nrf52840_xxAA_s140_6.0.0.dir/__/__/__/models/health/src/health_server.c.obj
LOAD examples/light_switch/client/CMakeFiles/light_switch_client_nrf52840_xxAA_s140_6.0.0.dir/__/__/__/mesh/access/src/access_publish.c.obj
LOAD examples/light_switch/client/CMakeFiles/light_switch_client_nrf52840_xxAA_s140_6.0.0.dir/__/__/__/mesh/access/src/access.c.obj
LOAD examples/light_switch/client/CMakeFiles/light_switch_client_nrf52840_xxAA_s140_6.0.0.dir/__/__/__/mesh/access/src/access_reliable.c.obj
LOAD examples/light_switch/client/CMakeFiles/light_switch_client_nrf52840_xxAA_s140_6.0.0.dir/__/__/__/mesh/access/src/access_loopback.c.obj
LOAD examples/light_switch/client/CMakeFiles/light_switch_client_nrf52840_xxAA_s140_6.0.0.dir/__/__/__/mesh/access/src/device_state_manager.c.obj
LOAD examples/light_switch/client/CMakeFiles/light_switch_client_nrf52840_xxAA_s140_6.0.0.dir/__/__/__/mesh/prov/src/prov_provisionee.c.obj
LOAD examples/light_switch/client/CMakeFiles/light_switch_client_nrf52840_xxAA_s140_6.0.0.dir/__/__/__/mesh/prov/src/nrf_mesh_prov.c.obj
LOAD examples/light_switch/client/CMakeFiles/light_switch_client_nrf52840_xxAA_s140_6.0.0.dir/__/__/__/mesh/prov/src/provisioning.c.obj
LOAD examples/light_switch/client/CMakeFiles/light_switch_client_nrf52840_xxAA_s140_6.0.0.dir/__/__/__/mesh/prov/src/prov_beacon.c.obj
LOAD examples/light_switch/client/CMakeFiles/light_switch_client_nrf52840_xxAA_s140_6.0.0.dir/__/__/__/mesh/prov/src/prov_utils.c.obj
LOAD examples/light_switch/client/CMakeFiles/light_switch_client_nrf52840_xxAA_s140_6.0.0.dir/__/__/__/mesh/prov/src/prov_bearer_adv.c.obj
LOAD examples/light_switch/client/CMakeFiles/light_switch_client_nrf52840_xxAA_s140_6.0.0.dir/C_/b/nRF5_SDK_15.0.0_a53641a/modules/nrfx/mdk/system_nrf52840.c.obj
LOAD examples/light_switch/client/CMakeFiles/light_switch_client_nrf52840_xxAA_s140_6.0.0.dir/C_/b/nRF5_SDK_15.0.0_a53641a/modules/nrfx/mdk/gcc_startup_nrf52840.S.obj
LOAD examples/light_switch/client/CMakeFiles/light_switch_client_nrf52840_xxAA_s140_6.0.0.dir/C_/b/nRF5_SDK_15.0.0_a53641a/components/libraries/util/app_error.c.obj
LOAD examples/light_switch/client/CMakeFiles/light_switch_client_nrf52840_xxAA_s140_6.0.0.dir/C_/b/nRF5_SDK_15.0.0_a53641a/components/libraries/util/app_util_platform.c.obj
LOAD examples/light_switch/client/CMakeFiles/light_switch_client_nrf52840_xxAA_s140_6.0.0.dir/C_/b/nRF5_SDK_15.0.0_a53641a/components/libraries/timer/app_timer.c.obj
LOAD examples/light_switch/client/CMakeFiles/light_switch_client_nrf52840_xxAA_s140_6.0.0.dir/C_/b/nRF5_SDK_15.0.0_a53641a/components/libraries/util/app_error_handler_gcc.c.obj
LOAD external/rtt/librtt_nrf52840_xxAA.a
LOAD external/micro-ecc/libuECC_nrf52840_xxAA.a
START GROUP
LOAD c:/mesh/arm_gcc/bin/../lib/gcc/arm-none-eabi/6.3.1/thumb/v7e-m/fpv4-sp/hard\libgcc.a
LOAD c:/mesh/arm_gcc/bin/../lib/gcc/arm-none-eabi/6.3.1/../../../../arm-none-eabi/lib/thumb/v7e-m/fpv4-sp/hard\libg_nano.a
LOAD c:/mesh/arm_gcc/bin/../lib/gcc/arm-none-eabi/6.3.1/../../../../arm-none-eabi/lib/thumb/v7e-m/fpv4-sp/hard\libc_nano.a
END GROUP
START GROUP
LOAD c:/mesh/arm_gcc/bin/../lib/gcc/arm-none-eabi/6.3.1/thumb/v7e-m/fpv4-sp/hard\libgcc.a
LOAD c:/mesh/arm_gcc/bin/../lib/gcc/arm-none-eabi/6.3.1/../../../../arm-none-eabi/lib/thumb/v7e-m/fpv4-sp/hard\libc_nano.a
END GROUP
LOAD c:/mesh/arm_gcc/bin/../lib/gcc/arm-none-eabi/6.3.1/thumb/v7e-m/fpv4-sp/hard/crtend.o
LOAD c:/mesh/arm_gcc/bin/../lib/gcc/arm-none-eabi/6.3.1/thumb/v7e-m/fpv4-sp/hard/crtn.o
START GROUP
LOAD c:/mesh/arm_gcc/bin/../lib/gcc/arm-none-eabi/6.3.1/thumb/v7e-m/fpv4-sp/hard\libgcc.a
LOAD c:/mesh/arm_gcc/bin/../lib/gcc/arm-none-eabi/6.3.1/../../../../arm-none-eabi/lib/thumb/v7e-m/fpv4-sp/hard\libc.a
LOAD c:/mesh/arm_gcc/bin/../lib/gcc/arm-none-eabi/6.3.1/../../../../arm-none-eabi/lib/thumb/v7e-m/fpv4-sp/hard\libnosys.a
END GROUP

.igot.plt       0x20002eec        0x0 load address 0x0003a138
 .igot.plt      0x20002eec        0x0 c:/mesh/arm_gcc/bin/../lib/gcc/arm-none-eabi/6.3.1/thumb/v7e-m/fpv4-sp/hard/crtbegin.o
                0x20002eec                . = ALIGN (0x4)

.svc_data       0x20002eec        0x0
                [!provide]                PROVIDE (__start_svc_data, .)
 *(.svc_data)
                [!provide]                PROVIDE (__stop_svc_data, .)

.fs_data        0x20002eec        0x0
                [!provide]                PROVIDE (__start_fs_data, .)
 *(.fs_data)
                [!provide]                PROVIDE (__stop_fs_data, .)

.log_dynamic_data
                0x20002eec        0x0
                [!provide]                PROVIDE (__start_log_dynamic_data, .)
 *(.log_dynamic_data)
                [!provide]                PROVIDE (__stop_log_dynamic_data, .)

.cli_sorted_cmd_ptrs
                0x20002eec        0x0
                [!provide]                PROVIDE (__start_cli_sorted_cmd_ptrs, .)
 *(.cli_sorted_cmd_ptrs)
                [!provide]                PROVIDE (__stop_cli_sorted_cmd_ptrs, .)

.bss            0x20002ef0     0x3260 load address 0x0003a140
                0x20002ef0                . = ALIGN (0x4)
                0x20002ef0                __bss_start__ = .
 *(.bss*)
 .bss           0x20002ef0       0x1c c:/mesh/arm_gcc/bin/../lib/gcc/arm-none-eabi/6.3.1/thumb/v7e-m/fpv4-sp/hard/crtbegin.o
 .bss.m_clients
                0x20002f0c       0x40 examples/light_switch/client/CMakeFiles/light_switch_client_nrf52840_xxAA_s140_6.0.0.dir/src/main.c.obj
 .bss.m_device_provisioned
                0x20002f4c        0x1 examples/light_switch/client/CMakeFiles/light_switch_client_nrf52840_xxAA_s140_6.0.0.dir/src/main.c.obj
 *fill*         0x20002f4d        0x3 
 .bss.m_health_server
                0x20002f50       0x5c examples/light_switch/client/CMakeFiles/light_switch_client_nrf52840_xxAA_s140_6.0.0.dir/__/__/__/mesh/stack/src/mesh_stack.c.obj
 .bss.m_device_provisioned
                0x20002fac        0x1 examples/light_switch/client/CMakeFiles/light_switch_client_nrf52840_xxAA_s140_6.0.0.dir/__/__/common/src/mesh_provisionee.c.obj
 *fill*         0x20002fad        0x3 
 .bss.m_params  0x20002fb0        0xc examples/light_switch/client/CMakeFiles/light_switch_client_nrf52840_xxAA_s140_6.0.0.dir/__/__/common/src/mesh_provisionee.c.obj
 .bss.m_private_key
                0x20002fbc       0x20 examples/light_switch/client/CMakeFiles/light_switch_client_nrf52840_xxAA_s140_6.0.0.dir/__/__/common/src/mesh_provisionee.c.obj
 .bss.m_prov_bearer_adv
                0x20002fdc      0x1c8 examples/light_switch/client/CMakeFiles/light_switch_client_nrf52840_xxAA_s140_6.0.0.dir/__/__/common/src/mesh_provisionee.c.obj
 .bss.m_prov_ctx
                0x200031a4      0x134 examples/light_switch/client/CMakeFiles/light_switch_client_nrf52840_xxAA_s140_6.0.0.dir/__/__/common/src/mesh_provisionee.c.obj
 .bss.m_public_key
                0x200032d8       0x40 examples/light_switch/client/CMakeFiles/light_switch_client_nrf52840_xxAA_s140_6.0.0.dir/__/__/common/src/mesh_provisionee.c.obj
 .bss.m_rtt_input_handler
                0x20003318        0x4 examples/light_switch/client/CMakeFiles/light_switch_client_nrf52840_xxAA_s140_6.0.0.dir/__/__/common/src/rtt_input.c.obj
 .bss.m_rtt_timer_data
                0x2000331c       0x20 examples/light_switch/client/CMakeFiles/light_switch_client_nrf52840_xxAA_s140_6.0.0.dir/__/__/common/src/rtt_input.c.obj
 .bss.m_blink_count
                0x2000333c        0x4 examples/light_switch/client/CMakeFiles/light_switch_client_nrf52840_xxAA_s140_6.0.0.dir/__/__/common/src/simple_hal.c.obj
 .bss.m_blink_mask
                0x20003340        0x4 examples/light_switch/client/CMakeFiles/light_switch_client_nrf52840_xxAA_s140_6.0.0.dir/__/__/common/src/simple_hal.c.obj
 .bss.m_blink_timer_data
                0x20003344       0x20 examples/light_switch/client/CMakeFiles/light_switch_client_nrf52840_xxAA_s140_6.0.0.dir/__/__/common/src/simple_hal.c.obj
 .bss.m_button_handler_cb
                0x20003364        0x4 examples/light_switch/client/CMakeFiles/light_switch_client_nrf52840_xxAA_s140_6.0.0.dir/__/__/common/src/simple_hal.c.obj
 .bss.m_last_button_press
                0x20003368        0x4 examples/light_switch/client/CMakeFiles/light_switch_client_nrf52840_xxAA_s140_6.0.0.dir/__/__/common/src/simple_hal.c.obj
 .bss.m_uuid    0x2000336c       0x10 examples/light_switch/client/CMakeFiles/light_switch_client_nrf52840_xxAA_s140_6.0.0.dir/__/__/__/mesh/core/src/nrf_mesh_configure.c.obj
 .bss.m_msg_cache
                0x2000337c      0x100 examples/light_switch/client/CMakeFiles/light_switch_client_nrf52840_xxAA_s140_6.0.0.dir/__/__/__/mesh/core/src/msg_cache.c.obj
 .bss.m_msg_cache_head
                0x2000347c        0x4 examples/light_switch/client/CMakeFiles/light_switch_client_nrf52840_xxAA_s140_6.0.0.dir/__/__/__/mesh/core/src/msg_cache.c.obj
 .bss.m_control_packet_consumer_count
                0x20003480        0x4 examples/light_switch/client/CMakeFiles/light_switch_client_nrf52840_xxAA_s140_6.0.0.dir/__/__/__/mesh/core/src/transport.c.obj
 .bss.m_control_packet_consumers
                0x20003484        0x8 examples/light_switch/client/CMakeFiles/light_switch_client_nrf52840_xxAA_s140_6.0.0.dir/__/__/__/mesh/core/src/transport.c.obj
 .bss.m_sar_alloc
                0x2000348c        0x4 examples/light_switch/client/CMakeFiles/light_switch_client_nrf52840_xxAA_s140_6.0.0.dir/__/__/__/mesh/core/src/transport.c.obj
 .bss.m_sar_process_flag
                0x20003490        0x4 examples/light_switch/client/CMakeFiles/light_switch_client_nrf52840_xxAA_s140_6.0.0.dir/__/__/__/mesh/core/src/transport.c.obj
 .bss.m_sar_release
                0x20003494        0x4 examples/light_switch/client/CMakeFiles/light_switch_client_nrf52840_xxAA_s140_6.0.0.dir/__/__/__/mesh/core/src/transport.c.obj
 .bss.m_sar_session_cache
                0x20003498       0x40 examples/light_switch/client/CMakeFiles/light_switch_client_nrf52840_xxAA_s140_6.0.0.dir/__/__/__/mesh/core/src/transport.c.obj
 .bss.m_sar_session_cache_head
                0x200034d8        0x4 examples/light_switch/client/CMakeFiles/light_switch_client_nrf52840_xxAA_s140_6.0.0.dir/__/__/__/mesh/core/src/transport.c.obj
 .bss.m_trs_config
                0x200034dc       0x18 examples/light_switch/client/CMakeFiles/light_switch_client_nrf52840_xxAA_s140_6.0.0.dir/__/__/__/mesh/core/src/transport.c.obj
 .bss.m_trs_sar_sessions
                0x200034f4      0x1b0 examples/light_switch/client/CMakeFiles/light_switch_client_nrf52840_xxAA_s140_6.0.0.dir/__/__/__/mesh/core/src/transport.c.obj
 .bss.m_event_handler_state
                0x200036a4        0x1 examples/light_switch/client/CMakeFiles/light_switch_client_nrf52840_xxAA_s140_6.0.0.dir/__/__/__/mesh/core/src/event.c.obj
 *fill*         0x200036a5        0x3 
 .bss.mp_evt_handlers_head
                0x200036a8        0x4 examples/light_switch/client/CMakeFiles/light_switch_client_nrf52840_xxAA_s140_6.0.0.dir/__/__/__/mesh/core/src/event.c.obj
 .bss.m_defrag  0x200036ac       0x1c examples/light_switch/client/CMakeFiles/light_switch_client_nrf52840_xxAA_s140_6.0.0.dir/__/__/__/mesh/core/src/flash_manager_defrag.c.obj
 .bss.m_token   0x200036c8        0x2 examples/light_switch/client/CMakeFiles/light_switch_client_nrf52840_xxAA_s140_6.0.0.dir/__/__/__/mesh/core/src/flash_manager_defrag.c.obj
 *fill*         0x200036ca        0x2 
 .bss.mp_recovery_area
                0x200036cc        0x4 examples/light_switch/client/CMakeFiles/light_switch_client_nrf52840_xxAA_s140_6.0.0.dir/__/__/__/mesh/core/src/flash_manager_defrag.c.obj
 .bss.p_null_ptr.10537
                0x200036d0        0x4 examples/light_switch/client/CMakeFiles/light_switch_client_nrf52840_xxAA_s140_6.0.0.dir/__/__/__/mesh/core/src/flash_manager_defrag.c.obj
 .bss.m_pool    0x200036d4     0x1000 examples/light_switch/client/CMakeFiles/light_switch_client_nrf52840_xxAA_s140_6.0.0.dir/__/__/__/mesh/core/src/packet_mgr.c.obj
 .bss.mp_free_head
                0x200046d4        0x4 examples/light_switch/client/CMakeFiles/light_switch_client_nrf52840_xxAA_s140_6.0.0.dir/__/__/__/mesh/core/src/packet_mgr.c.obj
 .bss.iv_state_set.10219
                0x200046d8        0x1 examples/light_switch/client/CMakeFiles/light_switch_client_nrf52840_xxAA_s140_6.0.0.dir/__/__/__/mesh/core/src/net_state.c.obj
 *fill*         0x200046d9        0x3 
 .bss.lock_count.10195
                0x200046dc        0x4 examples/light_switch/client/CMakeFiles/light_switch_client_nrf52840_xxAA_s140_6.0.0.dir/__/__/__/mesh/core/src/net_state.c.obj
 .bss.m_flash_manager
                0x200046e0       0x24 examples/light_switch/client/CMakeFiles/light_switch_client_nrf52840_xxAA_s140_6.0.0.dir/__/__/__/mesh/core/src/net_state.c.obj
 .bss.m_iv_update_timer
                0x20004704       0x18 examples/light_switch/client/CMakeFiles/light_switch_client_nrf52840_xxAA_s140_6.0.0.dir/__/__/__/mesh/core/src/net_state.c.obj
 .bss.m_mesh_evt_handler
                0x2000471c        0xc examples/light_switch/client/CMakeFiles/light_switch_client_nrf52840_xxAA_s140_6.0.0.dir/__/__/__/mesh/core/src/net_state.c.obj
 .bss.m_net_state
                0x20004728       0x14 examples/light_switch/client/CMakeFiles/light_switch_client_nrf52840_xxAA_s140_6.0.0.dir/__/__/__/mesh/core/src/net_state.c.obj
 .bss.m_seqnum_allocation_in_progress
                0x2000473c        0x1 examples/light_switch/client/CMakeFiles/light_switch_client_nrf52840_xxAA_s140_6.0.0.dir/__/__/__/mesh/core/src/net_state.c.obj
 .bss.m_test_mode
                0x2000473d        0x1 examples/light_switch/client/CMakeFiles/light_switch_client_nrf52840_xxAA_s140_6.0.0.dir/__/__/__/mesh/core/src/net_state.c.obj
 *fill*         0x2000473e        0x2 
 .bss.m_event_flag
                0x20004740        0x4 examples/light_switch/client/CMakeFiles/light_switch_client_nrf52840_xxAA_s140_6.0.0.dir/__/__/__/mesh/core/src/mesh_flash.c.obj
 .bss.m_suspended
                0x20004744        0x1 examples/light_switch/client/CMakeFiles/light_switch_client_nrf52840_xxAA_s140_6.0.0.dir/__/__/__/mesh/core/src/mesh_flash.c.obj
 *fill*         0x20004745        0x3 
 .bss.m_users   0x20004748      0x234 examples/light_switch/client/CMakeFiles/light_switch_client_nrf52840_xxAA_s140_6.0.0.dir/__/__/__/mesh/core/src/mesh_flash.c.obj
 .bss.m_is_enabled
                0x2000497c        0x1 examples/light_switch/client/CMakeFiles/light_switch_client_nrf52840_xxAA_s140_6.0.0.dir/__/__/__/mesh/core/src/nrf_mesh.c.obj
 .bss.m_is_initialized
                0x2000497d        0x1 examples/light_switch/client/CMakeFiles/light_switch_client_nrf52840_xxAA_s140_6.0.0.dir/__/__/__/mesh/core/src/nrf_mesh.c.obj
 *fill*         0x2000497e        0x2 
 .bss.m_rx_cb   0x20004980        0x4 examples/light_switch/client/CMakeFiles/light_switch_client_nrf52840_xxAA_s140_6.0.0.dir/__/__/__/mesh/core/src/nrf_mesh.c.obj
 .bss.m_tx_token
                0x20004984        0x4 examples/light_switch/client/CMakeFiles/light_switch_client_nrf52840_xxAA_s140_6.0.0.dir/__/__/__/mesh/core/src/nrf_mesh.c.obj
 .bss.m_event_flag
                0x20004988        0x4 examples/light_switch/client/CMakeFiles/light_switch_client_nrf52840_xxAA_s140_6.0.0.dir/__/__/__/mesh/core/src/timer_scheduler.c.obj
 .bss.m_scheduler
                0x2000498c       0x10 examples/light_switch/client/CMakeFiles/light_switch_client_nrf52840_xxAA_s140_6.0.0.dir/__/__/__/mesh/core/src/timer_scheduler.c.obj
 .bss.m_attributes
                0x2000499c        0x3 examples/light_switch/client/CMakeFiles/light_switch_client_nrf52840_xxAA_s140_6.0.0.dir/__/__/__/mesh/core/src/timer.c.obj
 *fill*         0x2000499f        0x1 
 .bss.m_callbacks
                0x200049a0        0xc examples/light_switch/client/CMakeFiles/light_switch_client_nrf52840_xxAA_s140_6.0.0.dir/__/__/__/mesh/core/src/timer.c.obj
 .bss.m_is_in_ts
                0x200049ac        0x1 examples/light_switch/client/CMakeFiles/light_switch_client_nrf52840_xxAA_s140_6.0.0.dir/__/__/__/mesh/core/src/timer.c.obj
 *fill*         0x200049ad        0x3 
 .bss.m_reference_time
                0x200049b0        0x4 examples/light_switch/client/CMakeFiles/light_switch_client_nrf52840_xxAA_s140_6.0.0.dir/__/__/__/mesh/core/src/timer.c.obj
 .bss.m_timeouts
                0x200049b4        0xc examples/light_switch/client/CMakeFiles/light_switch_client_nrf52840_xxAA_s140_6.0.0.dir/__/__/__/mesh/core/src/timer.c.obj
 .bss.m_timer_mut
                0x200049c0        0x4 examples/light_switch/client/CMakeFiles/light_switch_client_nrf52840_xxAA_s140_6.0.0.dir/__/__/__/mesh/core/src/timer.c.obj
 .bss.m_ts_end_time
                0x200049c4        0x4 examples/light_switch/client/CMakeFiles/light_switch_client_nrf52840_xxAA_s140_6.0.0.dir/__/__/__/mesh/core/src/timer.c.obj
 .bss.mp_ppi_tasks
                0x200049c8        0xc examples/light_switch/client/CMakeFiles/light_switch_client_nrf52840_xxAA_s140_6.0.0.dir/__/__/__/mesh/core/src/timer.c.obj
 .bss.m_current_time
                0x200049d4        0x4 examples/light_switch/client/CMakeFiles/light_switch_client_nrf52840_xxAA_s140_6.0.0.dir/__/__/__/mesh/core/src/ticker.c.obj
 .bss.m_timer   0x200049d8       0x18 examples/light_switch/client/CMakeFiles/light_switch_client_nrf52840_xxAA_s140_6.0.0.dir/__/__/__/mesh/core/src/ticker.c.obj
 .bss.m_current_timeslot
                0x200049f0       0x1c examples/light_switch/client/CMakeFiles/light_switch_client_nrf52840_xxAA_s140_6.0.0.dir/__/__/__/mesh/core/src/timeslot.c.obj
 .bss.m_lfclk_ppm
                0x20004a0c        0x4 examples/light_switch/client/CMakeFiles/light_switch_client_nrf52840_xxAA_s140_6.0.0.dir/__/__/__/mesh/core/src/timeslot.c.obj
 .bss.m_radio_request_earliest
                0x20004a10       0x10 examples/light_switch/client/CMakeFiles/light_switch_client_nrf52840_xxAA_s140_6.0.0.dir/__/__/__/mesh/core/src/timeslot.c.obj
 .bss.m_state_lock
                0x20004a20        0x1 examples/light_switch/client/CMakeFiles/light_switch_client_nrf52840_xxAA_s140_6.0.0.dir/__/__/__/mesh/core/src/timeslot.c.obj
 .bss.m_timeslot_forced_command
                0x20004a21        0x1 examples/light_switch/client/CMakeFiles/light_switch_client_nrf52840_xxAA_s140_6.0.0.dir/__/__/__/mesh/core/src/timeslot.c.obj
 *fill*         0x20004a22        0x6 
 .bss.s_last_rtc_value.9597
                0x20004a28        0x8 examples/light_switch/client/CMakeFiles/light_switch_client_nrf52840_xxAA_s140_6.0.0.dir/__/__/__/mesh/core/src/timeslot.c.obj
 .bss.m_bearer_event_fifo
                0x20004a30       0x14 examples/light_switch/client/CMakeFiles/light_switch_client_nrf52840_xxAA_s140_6.0.0.dir/__/__/__/mesh/core/src/bearer_event.c.obj
 .bss.m_bearer_event_fifo_buffer
                0x20004a44      0x100 examples/light_switch/client/CMakeFiles/light_switch_client_nrf52840_xxAA_s140_6.0.0.dir/__/__/__/mesh/core/src/bearer_event.c.obj
 .bss.m_critical
                0x20004b44        0x4 examples/light_switch/client/CMakeFiles/light_switch_client_nrf52840_xxAA_s140_6.0.0.dir/__/__/__/mesh/core/src/bearer_event.c.obj
 .bss.m_flag_count
                0x20004b48        0x4 examples/light_switch/client/CMakeFiles/light_switch_client_nrf52840_xxAA_s140_6.0.0.dir/__/__/__/mesh/core/src/bearer_event.c.obj
 .bss.m_flag_event_callbacks
                0x20004b4c       0x24 examples/light_switch/client/CMakeFiles/light_switch_client_nrf52840_xxAA_s140_6.0.0.dir/__/__/__/mesh/core/src/bearer_event.c.obj
 .bss.m_flags   0x20004b70        0x4 examples/light_switch/client/CMakeFiles/light_switch_client_nrf52840_xxAA_s140_6.0.0.dir/__/__/__/mesh/core/src/bearer_event.c.obj
 .bss.m_irq_priority
                0x20004b74        0x1 examples/light_switch/client/CMakeFiles/light_switch_client_nrf52840_xxAA_s140_6.0.0.dir/__/__/__/mesh/core/src/bearer_event.c.obj
 *fill*         0x20004b75        0x3 
 .bss.m_sequential_event_queue
                0x20004b78        0x8 examples/light_switch/client/CMakeFiles/light_switch_client_nrf52840_xxAA_s140_6.0.0.dir/__/__/__/mesh/core/src/bearer_event.c.obj
 .bss.s_recursion_guard.9725
                0x20004b80        0x1 examples/light_switch/client/CMakeFiles/light_switch_client_nrf52840_xxAA_s140_6.0.0.dir/__/__/__/mesh/core/src/bearer_event.c.obj
 *fill*         0x20004b81        0x3 
 .bss.m_relay_check_cb
                0x20004b84        0x4 examples/light_switch/client/CMakeFiles/light_switch_client_nrf52840_xxAA_s140_6.0.0.dir/__/__/__/mesh/core/src/network.c.obj
 .bss.m_relay_enable
                0x20004b88        0x1 examples/light_switch/client/CMakeFiles/light_switch_client_nrf52840_xxAA_s140_6.0.0.dir/__/__/__/mesh/core/src/network.c.obj
 *fill*         0x20004b89        0x3 
 .bss.m_action_queue
                0x20004b8c        0xc examples/light_switch/client/CMakeFiles/light_switch_client_nrf52840_xxAA_s140_6.0.0.dir/__/__/__/mesh/core/src/flash_manager.c.obj
 .bss.m_action_queue_buffer
                0x20004b98      0x104 examples/light_switch/client/CMakeFiles/light_switch_client_nrf52840_xxAA_s140_6.0.0.dir/__/__/__/mesh/core/src/flash_manager.c.obj
 .bss.m_action_state
                0x20004c9c        0x1 examples/light_switch/client/CMakeFiles/light_switch_client_nrf52840_xxAA_s140_6.0.0.dir/__/__/__/mesh/core/src/flash_manager.c.obj
 *fill*         0x20004c9d        0x3 
 .bss.m_memory_listener_queue
                0x20004ca0        0x8 examples/light_switch/client/CMakeFiles/light_switch_client_nrf52840_xxAA_s140_6.0.0.dir/__/__/__/mesh/core/src/flash_manager.c.obj
 .bss.m_processing_flag
                0x20004ca8        0x4 examples/light_switch/client/CMakeFiles/light_switch_client_nrf52840_xxAA_s140_6.0.0.dir/__/__/__/mesh/core/src/flash_manager.c.obj
 .bss.m_queue_empty_cb
                0x20004cac        0x4 examples/light_switch/client/CMakeFiles/light_switch_client_nrf52840_xxAA_s140_6.0.0.dir/__/__/__/mesh/core/src/flash_manager.c.obj
 .bss.m_state   0x20004cb0        0x1 examples/light_switch/client/CMakeFiles/light_switch_client_nrf52840_xxAA_s140_6.0.0.dir/__/__/__/mesh/core/src/flash_manager.c.obj
 *fill*         0x20004cb1        0x1 
 .bss.m_token   0x20004cb2        0x2 examples/light_switch/client/CMakeFiles/light_switch_client_nrf52840_xxAA_s140_6.0.0.dir/__/__/__/mesh/core/src/flash_manager.c.obj
 .bss.p_current.11445
                0x20004cb4        0x4 examples/light_switch/client/CMakeFiles/light_switch_client_nrf52840_xxAA_s140_6.0.0.dir/__/__/__/mesh/core/src/flash_manager.c.obj
 .bss.result.11446
                0x20004cb8        0x1 examples/light_switch/client/CMakeFiles/light_switch_client_nrf52840_xxAA_s140_6.0.0.dir/__/__/__/mesh/core/src/flash_manager.c.obj
 .bss.m_cache_index
                0x20004cb9        0x1 examples/light_switch/client/CMakeFiles/light_switch_client_nrf52840_xxAA_s140_6.0.0.dir/__/__/__/mesh/core/src/replay_cache.c.obj
 *fill*         0x20004cba        0x2 
 .bss.m_replay_cache
                0x20004cbc      0x200 examples/light_switch/client/CMakeFiles/light_switch_client_nrf52840_xxAA_s140_6.0.0.dir/__/__/__/mesh/core/src/replay_cache.c.obj
 .bss.m_bearer_count
                0x20004ebc        0x1 examples/light_switch/client/CMakeFiles/light_switch_client_nrf52840_xxAA_s140_6.0.0.dir/__/__/__/mesh/core/src/core_tx.c.obj
 *fill*         0x20004ebd        0x3 
 .bss.m_tx_complete_callback
                0x20004ec0        0x4 examples/light_switch/client/CMakeFiles/light_switch_client_nrf52840_xxAA_s140_6.0.0.dir/__/__/__/mesh/core/src/core_tx.c.obj
 .bss.mp_bearers
                0x20004ec4        0x4 examples/light_switch/client/CMakeFiles/light_switch_client_nrf52840_xxAA_s140_6.0.0.dir/__/__/__/mesh/core/src/core_tx.c.obj
 .bss.m_hb_core_evt_handler
                0x20004ec8        0xc examples/light_switch/client/CMakeFiles/light_switch_client_nrf52840_xxAA_s140_6.0.0.dir/__/__/__/mesh/core/src/heartbeat.c.obj
 .bss.m_hb_pending_feat_msg
                0x20004ed4        0x1 examples/light_switch/client/CMakeFiles/light_switch_client_nrf52840_xxAA_s140_6.0.0.dir/__/__/__/mesh/core/src/heartbeat.c.obj
 .bss.m_hb_pending_pub_msg
                0x20004ed5        0x1 examples/light_switch/client/CMakeFiles/light_switch_client_nrf52840_xxAA_s140_6.0.0.dir/__/__/__/mesh/core/src/heartbeat.c.obj
 .bss.m_heartbeat_init_done
                0x20004ed6        0x1 examples/light_switch/client/CMakeFiles/light_switch_client_nrf52840_xxAA_s140_6.0.0.dir/__/__/__/mesh/core/src/heartbeat.c.obj
 *fill*         0x20004ed7        0x1 
 .bss.m_heartbeat_subscription
                0x20004ed8       0x10 examples/light_switch/client/CMakeFiles/light_switch_client_nrf52840_xxAA_s140_6.0.0.dir/__/__/__/mesh/core/src/heartbeat.c.obj
 .bss.m_publication_count_decrement_cb
                0x20004ee8        0x4 examples/light_switch/client/CMakeFiles/light_switch_client_nrf52840_xxAA_s140_6.0.0.dir/__/__/__/mesh/core/src/heartbeat.c.obj
 .bss.m_publication_get_cb
                0x20004eec        0x4 examples/light_switch/client/CMakeFiles/light_switch_client_nrf52840_xxAA_s140_6.0.0.dir/__/__/__/mesh/core/src/heartbeat.c.obj
 .bss.m_publication_timer
                0x20004ef0       0x1c examples/light_switch/client/CMakeFiles/light_switch_client_nrf52840_xxAA_s140_6.0.0.dir/__/__/__/mesh/core/src/heartbeat.c.obj
 .bss.m_subscription_timer
                0x20004f0c       0x18 examples/light_switch/client/CMakeFiles/light_switch_client_nrf52840_xxAA_s140_6.0.0.dir/__/__/__/mesh/core/src/heartbeat.c.obj
 .bss.m_adv     0x20004f24       0x9c examples/light_switch/client/CMakeFiles/light_switch_client_nrf52840_xxAA_s140_6.0.0.dir/__/__/__/mesh/core/src/net_beacon.c.obj
 .bss.m_adv_buf
                0x20004fc0       0x34 examples/light_switch/client/CMakeFiles/light_switch_client_nrf52840_xxAA_s140_6.0.0.dir/__/__/__/mesh/core/src/net_beacon.c.obj
 .bss.m_beacon_salt
                0x20004ff4       0x10 examples/light_switch/client/CMakeFiles/light_switch_client_nrf52840_xxAA_s140_6.0.0.dir/__/__/__/mesh/core/src/net_beacon.c.obj
 .bss.m_enabled
                0x20005004        0x1 examples/light_switch/client/CMakeFiles/light_switch_client_nrf52840_xxAA_s140_6.0.0.dir/__/__/__/mesh/core/src/net_beacon.c.obj
 *fill*         0x20005005        0x3 
 .bss.m_tx_timer
                0x20005008       0x18 examples/light_switch/client/CMakeFiles/light_switch_client_nrf52840_xxAA_s140_6.0.0.dir/__/__/__/mesh/core/src/net_beacon.c.obj
 .bss.mp_beacon_info
                0x20005020        0x4 examples/light_switch/client/CMakeFiles/light_switch_client_nrf52840_xxAA_s140_6.0.0.dir/__/__/__/mesh/core/src/net_beacon.c.obj
 .bss.m_bearer  0x20005024        0xc examples/light_switch/client/CMakeFiles/light_switch_client_nrf52840_xxAA_s140_6.0.0.dir/__/__/__/mesh/core/src/core_tx_adv.c.obj
 .bss.m_bearer_roles
                0x20005030      0x140 examples/light_switch/client/CMakeFiles/light_switch_client_nrf52840_xxAA_s140_6.0.0.dir/__/__/__/mesh/core/src/core_tx_adv.c.obj
 .bss.m_current_alloc
                0x20005170        0x8 examples/light_switch/client/CMakeFiles/light_switch_client_nrf52840_xxAA_s140_6.0.0.dir/__/__/__/mesh/core/src/core_tx_adv.c.obj
 .bss.m_originator_adv_packet_buffer
                0x20005178      0x100 examples/light_switch/client/CMakeFiles/light_switch_client_nrf52840_xxAA_s140_6.0.0.dir/__/__/__/mesh/core/src/core_tx_adv.c.obj
 .bss.m_relay_adv_packet_buffer
                0x20005278       0x80 examples/light_switch/client/CMakeFiles/light_switch_client_nrf52840_xxAA_s140_6.0.0.dir/__/__/__/mesh/core/src/core_tx_adv.c.obj
 .bss.m_subscribers
                0x200052f8        0x4 examples/light_switch/client/CMakeFiles/light_switch_client_nrf52840_xxAA_s140_6.0.0.dir/__/__/__/mesh/bearer/src/ad_listener.c.obj
 .bss.m_adtype_filter
                0x200052fc       0x38 examples/light_switch/client/CMakeFiles/light_switch_client_nrf52840_xxAA_s140_6.0.0.dir/__/__/__/mesh/bearer/src/ad_type_filter.c.obj
 .bss.m_adv_prng
                0x20005334       0x10 examples/light_switch/client/CMakeFiles/light_switch_client_nrf52840_xxAA_s140_6.0.0.dir/__/__/__/mesh/bearer/src/advertiser.c.obj
 .bss.m_action_ended
                0x20005344        0x1 examples/light_switch/client/CMakeFiles/light_switch_client_nrf52840_xxAA_s140_6.0.0.dir/__/__/__/mesh/bearer/src/bearer_handler.c.obj
 *fill*         0x20005345        0x3 
 .bss.m_action_queue
                0x20005348        0x8 examples/light_switch/client/CMakeFiles/light_switch_client_nrf52840_xxAA_s140_6.0.0.dir/__/__/__/mesh/bearer/src/bearer_handler.c.obj
 .bss.m_end_time
                0x20005350        0x4 examples/light_switch/client/CMakeFiles/light_switch_client_nrf52840_xxAA_s140_6.0.0.dir/__/__/__/mesh/bearer/src/bearer_handler.c.obj
 .bss.m_in_callback
                0x20005354        0x1 examples/light_switch/client/CMakeFiles/light_switch_client_nrf52840_xxAA_s140_6.0.0.dir/__/__/__/mesh/bearer/src/bearer_handler.c.obj
 .bss.m_scanner_is_active
                0x20005355        0x1 examples/light_switch/client/CMakeFiles/light_switch_client_nrf52840_xxAA_s140_6.0.0.dir/__/__/__/mesh/bearer/src/bearer_handler.c.obj
 .bss.m_stopped
                0x20005356        0x1 examples/light_switch/client/CMakeFiles/light_switch_client_nrf52840_xxAA_s140_6.0.0.dir/__/__/__/mesh/bearer/src/bearer_handler.c.obj
 *fill*         0x20005357        0x1 
 .bss.mp_action
                0x20005358        0x4 examples/light_switch/client/CMakeFiles/light_switch_client_nrf52840_xxAA_s140_6.0.0.dir/__/__/__/mesh/bearer/src/bearer_handler.c.obj
 .bss.m_action_start_time
                0x2000535c        0x4 examples/light_switch/client/CMakeFiles/light_switch_client_nrf52840_xxAA_s140_6.0.0.dir/__/__/__/mesh/bearer/src/broadcast.c.obj
 .bss.m_next_channel_index
                0x20005360        0x1 examples/light_switch/client/CMakeFiles/light_switch_client_nrf52840_xxAA_s140_6.0.0.dir/__/__/__/mesh/bearer/src/broadcast.c.obj
 *fill*         0x20005361        0x3 
 .bss.m_accepted_amount
                0x20005364        0x4 examples/light_switch/client/CMakeFiles/light_switch_client_nrf52840_xxAA_s140_6.0.0.dir/__/__/__/mesh/bearer/src/filter_engine.c.obj
 .bss.m_filter_list_head
                0x20005368        0x4 examples/light_switch/client/CMakeFiles/light_switch_client_nrf52840_xxAA_s140_6.0.0.dir/__/__/__/mesh/bearer/src/filter_engine.c.obj
 .bss.m_scanner
                0x2000536c      0x298 examples/light_switch/client/CMakeFiles/light_switch_client_nrf52840_xxAA_s140_6.0.0.dir/__/__/__/mesh/bearer/src/scanner.c.obj
 .bss.m_gpiote  0x20005604        0x6 examples/light_switch/client/CMakeFiles/light_switch_client_nrf52840_xxAA_s140_6.0.0.dir/__/__/__/mesh/bearer/src/mesh_pa_lna.c.obj
 .bss.m_tid     0x2000560a        0x1 examples/light_switch/client/CMakeFiles/light_switch_client_nrf52840_xxAA_s140_6.0.0.dir/__/__/__/models/simple_on_off/src/simple_on_off_client.c.obj
 *fill*         0x2000560b        0x1 
 .bss.m_evt_cb  0x2000560c        0x4 examples/light_switch/client/CMakeFiles/light_switch_client_nrf52840_xxAA_s140_6.0.0.dir/__/__/__/models/config/src/config_server.c.obj
 .bss.m_heartbeat_publication
                0x20005610       0x14 examples/light_switch/client/CMakeFiles/light_switch_client_nrf52840_xxAA_s140_6.0.0.dir/__/__/__/models/config/src/config_server.c.obj
 .bss.m_node_reset_pending
                0x20005624        0x1 examples/light_switch/client/CMakeFiles/light_switch_client_nrf52840_xxAA_s140_6.0.0.dir/__/__/__/models/config/src/config_server.c.obj
 *fill*         0x20005625        0x3 
 .bss.m_reset_token
                0x20005628        0x4 examples/light_switch/client/CMakeFiles/light_switch_client_nrf52840_xxAA_s140_6.0.0.dir/__/__/__/models/config/src/config_server.c.obj
 .bss.m_attention_timer
                0x2000562c       0x18 examples/light_switch/client/CMakeFiles/light_switch_client_nrf52840_xxAA_s140_6.0.0.dir/__/__/__/models/health/src/health_server.c.obj
 .bss.mp_attention_list
                0x20005644        0x4 examples/light_switch/client/CMakeFiles/light_switch_client_nrf52840_xxAA_s140_6.0.0.dir/__/__/__/models/health/src/health_server.c.obj
 .bss.m_publish_timer
                0x20005648       0x18 examples/light_switch/client/CMakeFiles/light_switch_client_nrf52840_xxAA_s140_6.0.0.dir/__/__/__/mesh/access/src/access_publish.c.obj
 .bss.m_publish_timer_counter
                0x20005660        0x4 examples/light_switch/client/CMakeFiles/light_switch_client_nrf52840_xxAA_s140_6.0.0.dir/__/__/__/mesh/access/src/access_publish.c.obj
 .bss.m_publish_timer_running
                0x20005664        0x1 examples/light_switch/client/CMakeFiles/light_switch_client_nrf52840_xxAA_s140_6.0.0.dir/__/__/__/mesh/access/src/access_publish.c.obj
 .bss.m_timer_resolution
                0x20005665        0x1 examples/light_switch/client/CMakeFiles/light_switch_client_nrf52840_xxAA_s140_6.0.0.dir/__/__/__/mesh/access/src/access_publish.c.obj
 *fill*         0x20005666        0x2 
 .bss.mp_publication_list
                0x20005668        0x4 examples/light_switch/client/CMakeFiles/light_switch_client_nrf52840_xxAA_s140_6.0.0.dir/__/__/__/mesh/access/src/access_publish.c.obj
 .bss.m_element_pool
                0x2000566c       0x1e examples/light_switch/client/CMakeFiles/light_switch_client_nrf52840_xxAA_s140_6.0.0.dir/__/__/__/mesh/access/src/access.c.obj
 *fill*         0x2000568a        0x2 
 .bss.m_evt_handler
                0x2000568c        0xc examples/light_switch/client/CMakeFiles/light_switch_client_nrf52840_xxAA_s140_6.0.0.dir/__/__/__/mesh/access/src/access.c.obj
 .bss.m_flash_manager
                0x20005698       0x24 examples/light_switch/client/CMakeFiles/light_switch_client_nrf52840_xxAA_s140_6.0.0.dir/__/__/__/mesh/access/src/access.c.obj
 .bss.m_flash_not_ready
                0x200056bc        0x1 examples/light_switch/client/CMakeFiles/light_switch_client_nrf52840_xxAA_s140_6.0.0.dir/__/__/__/mesh/access/src/access.c.obj
 .bss.m_metadata_stored
                0x200056bd        0x1 examples/light_switch/client/CMakeFiles/light_switch_client_nrf52840_xxAA_s140_6.0.0.dir/__/__/__/mesh/access/src/access.c.obj
 *fill*         0x200056be        0x2 
 .bss.m_model_pool
                0x200056c0      0x138 examples/light_switch/client/CMakeFiles/light_switch_client_nrf52840_xxAA_s140_6.0.0.dir/__/__/__/mesh/access/src/access.c.obj
 .bss.m_subscription_list_pool
                0x200057f8       0x30 examples/light_switch/client/CMakeFiles/light_switch_client_nrf52840_xxAA_s140_6.0.0.dir/__/__/__/mesh/access/src/access.c.obj
 .bss.m_reliable
                0x20005828      0x124 examples/light_switch/client/CMakeFiles/light_switch_client_nrf52840_xxAA_s140_6.0.0.dir/__/__/__/mesh/access/src/access_reliable.c.obj
 .bss.m_access_loopback_flag
                0x2000594c        0x4 examples/light_switch/client/CMakeFiles/light_switch_client_nrf52840_xxAA_s140_6.0.0.dir/__/__/__/mesh/access/src/access_loopback.c.obj
 .bss.mp_loopback_list_head
                0x20005950        0x4 examples/light_switch/client/CMakeFiles/light_switch_client_nrf52840_xxAA_s140_6.0.0.dir/__/__/__/mesh/access/src/access_loopback.c.obj
 .bss.m_addr_nonvirtual_allocated
                0x20005954        0x4 examples/light_switch/client/CMakeFiles/light_switch_client_nrf52840_xxAA_s140_6.0.0.dir/__/__/__/mesh/access/src/device_state_manager.c.obj
 .bss.m_addr_nonvirtual_needs_flashing
                0x20005958        0x4 examples/light_switch/client/CMakeFiles/light_switch_client_nrf52840_xxAA_s140_6.0.0.dir/__/__/__/mesh/access/src/device_state_manager.c.obj
 .bss.m_addr_unicast_allocated
                0x2000595c        0x4 examples/light_switch/client/CMakeFiles/light_switch_client_nrf52840_xxAA_s140_6.0.0.dir/__/__/__/mesh/access/src/device_state_manager.c.obj
 .bss.m_addr_unicast_needs_flashing
                0x20005960        0x4 examples/light_switch/client/CMakeFiles/light_switch_client_nrf52840_xxAA_s140_6.0.0.dir/__/__/__/mesh/access/src/device_state_manager.c.obj
 .bss.m_addr_virtual_allocated
                0x20005964        0x4 examples/light_switch/client/CMakeFiles/light_switch_client_nrf52840_xxAA_s140_6.0.0.dir/__/__/__/mesh/access/src/device_state_manager.c.obj
 .bss.m_addr_virtual_needs_flashing
                0x20005968        0x4 examples/light_switch/client/CMakeFiles/light_switch_client_nrf52840_xxAA_s140_6.0.0.dir/__/__/__/mesh/access/src/device_state_manager.c.obj
 .bss.m_addresses
                0x2000596c       0x1c examples/light_switch/client/CMakeFiles/light_switch_client_nrf52840_xxAA_s140_6.0.0.dir/__/__/__/mesh/access/src/device_state_manager.c.obj
 .bss.m_appkey_allocated
                0x20005988        0x4 examples/light_switch/client/CMakeFiles/light_switch_client_nrf52840_xxAA_s140_6.0.0.dir/__/__/__/mesh/access/src/device_state_manager.c.obj
 .bss.m_appkey_needs_flashing
                0x2000598c        0x4 examples/light_switch/client/CMakeFiles/light_switch_client_nrf52840_xxAA_s140_6.0.0.dir/__/__/__/mesh/access/src/device_state_manager.c.obj
 .bss.m_appkeys
                0x20005990       0x2a examples/light_switch/client/CMakeFiles/light_switch_client_nrf52840_xxAA_s140_6.0.0.dir/__/__/__/mesh/access/src/device_state_manager.c.obj
 *fill*         0x200059ba        0x2 
 .bss.m_devkey_allocated
                0x200059bc        0x4 examples/light_switch/client/CMakeFiles/light_switch_client_nrf52840_xxAA_s140_6.0.0.dir/__/__/__/mesh/access/src/device_state_manager.c.obj
 .bss.m_devkey_needs_flashing
                0x200059c0        0x4 examples/light_switch/client/CMakeFiles/light_switch_client_nrf52840_xxAA_s140_6.0.0.dir/__/__/__/mesh/access/src/device_state_manager.c.obj
 .bss.m_devkeys
                0x200059c4       0x16 examples/light_switch/client/CMakeFiles/light_switch_client_nrf52840_xxAA_s140_6.0.0.dir/__/__/__/mesh/access/src/device_state_manager.c.obj
 .bss.m_flash_is_available
                0x200059da        0x1 examples/light_switch/client/CMakeFiles/light_switch_client_nrf52840_xxAA_s140_6.0.0.dir/__/__/__/mesh/access/src/device_state_manager.c.obj
 *fill*         0x200059db        0x1 
 .bss.m_flash_manager
                0x200059dc       0x24 examples/light_switch/client/CMakeFiles/light_switch_client_nrf52840_xxAA_s140_6.0.0.dir/__/__/__/mesh/access/src/device_state_manager.c.obj
 .bss.m_flash_mem_listener_update_all
                0x20005a00       0x10 examples/light_switch/client/CMakeFiles/light_switch_client_nrf52840_xxAA_s140_6.0.0.dir/__/__/__/mesh/access/src/device_state_manager.c.obj
 .bss.m_has_primary_subnet
                0x20005a10        0x1 examples/light_switch/client/CMakeFiles/light_switch_client_nrf52840_xxAA_s140_6.0.0.dir/__/__/__/mesh/access/src/device_state_manager.c.obj
 *fill*         0x20005a11        0x1 
 .bss.m_local_unicast_addr
                0x20005a12        0x4 examples/light_switch/client/CMakeFiles/light_switch_client_nrf52840_xxAA_s140_6.0.0.dir/__/__/__/mesh/access/src/device_state_manager.c.obj
 *fill*         0x20005a16        0x2 
 .bss.m_mesh_evt_handler
                0x20005a18        0xc examples/light_switch/client/CMakeFiles/light_switch_client_nrf52840_xxAA_s140_6.0.0.dir/__/__/__/mesh/access/src/device_state_manager.c.obj
 .bss.m_subnet_allocated
                0x20005a24        0x4 examples/light_switch/client/CMakeFiles/light_switch_client_nrf52840_xxAA_s140_6.0.0.dir/__/__/__/mesh/access/src/device_state_manager.c.obj
 .bss.m_subnet_needs_flashing
                0x20005a28        0x4 examples/light_switch/client/CMakeFiles/light_switch_client_nrf52840_xxAA_s140_6.0.0.dir/__/__/__/mesh/access/src/device_state_manager.c.obj
 .bss.m_subnets
                0x20005a2c       0xa8 examples/light_switch/client/CMakeFiles/light_switch_client_nrf52840_xxAA_s140_6.0.0.dir/__/__/__/mesh/access/src/device_state_manager.c.obj
 .bss.m_virtual_addresses
                0x20005ad4       0x14 examples/light_switch/client/CMakeFiles/light_switch_client_nrf52840_xxAA_s140_6.0.0.dir/__/__/__/mesh/access/src/device_state_manager.c.obj
 .bss.m_event_handler
                0x20005ae8        0x4 examples/light_switch/client/CMakeFiles/light_switch_client_nrf52840_xxAA_s140_6.0.0.dir/__/__/__/mesh/prov/src/prov_beacon.c.obj
 .bss.m_offload_ecdh
                0x20005aec        0x1 examples/light_switch/client/CMakeFiles/light_switch_client_nrf52840_xxAA_s140_6.0.0.dir/__/__/__/mesh/prov/src/prov_utils.c.obj
 *fill*         0x20005aed        0x3 
 .bss.mp_bearer_head
                0x20005af0        0x4 examples/light_switch/client/CMakeFiles/light_switch_client_nrf52840_xxAA_s140_6.0.0.dir/__/__/__/mesh/prov/src/prov_bearer_adv.c.obj
 .bss.m_op_queue
                0x20005af4      0x10c examples/light_switch/client/CMakeFiles/light_switch_client_nrf52840_xxAA_s140_6.0.0.dir/C_/b/nRF5_SDK_15.0.0_a53641a/components/libraries/timer/app_timer.c.obj
 .bss.m_rtc1_reset
                0x20005c00        0x1 examples/light_switch/client/CMakeFiles/light_switch_client_nrf52840_xxAA_s140_6.0.0.dir/C_/b/nRF5_SDK_15.0.0_a53641a/components/libraries/timer/app_timer.c.obj
 .bss.m_rtc1_running
                0x20005c01        0x1 examples/light_switch/client/CMakeFiles/light_switch_client_nrf52840_xxAA_s140_6.0.0.dir/C_/b/nRF5_SDK_15.0.0_a53641a/components/libraries/timer/app_timer.c.obj
 *fill*         0x20005c02        0x2 
 .bss.m_ticks_elapsed
                0x20005c04        0x8 examples/light_switch/client/CMakeFiles/light_switch_client_nrf52840_xxAA_s140_6.0.0.dir/C_/b/nRF5_SDK_15.0.0_a53641a/components/libraries/timer/app_timer.c.obj
 .bss.m_ticks_elapsed_q_read_ind
                0x20005c0c        0x1 examples/light_switch/client/CMakeFiles/light_switch_client_nrf52840_xxAA_s140_6.0.0.dir/C_/b/nRF5_SDK_15.0.0_a53641a/components/libraries/timer/app_timer.c.obj
 .bss.m_ticks_elapsed_q_write_ind
                0x20005c0d        0x1 examples/light_switch/client/CMakeFiles/light_switch_client_nrf52840_xxAA_s140_6.0.0.dir/C_/b/nRF5_SDK_15.0.0_a53641a/components/libraries/timer/app_timer.c.obj
 *fill*         0x20005c0e        0x2 
 .bss.m_ticks_latest
                0x20005c10        0x4 examples/light_switch/client/CMakeFiles/light_switch_client_nrf52840_xxAA_s140_6.0.0.dir/C_/b/nRF5_SDK_15.0.0_a53641a/components/libraries/timer/app_timer.c.obj
 .bss.mp_timer_id_head
                0x20005c14        0x4 examples/light_switch/client/CMakeFiles/light_switch_client_nrf52840_xxAA_s140_6.0.0.dir/C_/b/nRF5_SDK_15.0.0_a53641a/components/libraries/timer/app_timer.c.obj
 .bss._acDownBuffer
                0x20005c18       0x80 external/rtt/librtt_nrf52840_xxAA.a(SEGGER_RTT.c.obj)
 .bss._acUpBuffer
                0x20005c98      0x400 external/rtt/librtt_nrf52840_xxAA.a(SEGGER_RTT.c.obj)
 .bss.__malloc_free_list
                0x20006098        0x4 c:/mesh/arm_gcc/bin/../lib/gcc/arm-none-eabi/6.3.1/../../../../arm-none-eabi/lib/thumb/v7e-m/fpv4-sp/hard\libg_nano.a(lib_a-nano-mallocr.o)
                0x20006098                __malloc_free_list
 .bss.__malloc_sbrk_start
                0x2000609c        0x4 c:/mesh/arm_gcc/bin/../lib/gcc/arm-none-eabi/6.3.1/../../../../arm-none-eabi/lib/thumb/v7e-m/fpv4-sp/hard\libg_nano.a(lib_a-nano-mallocr.o)
                0x2000609c                __malloc_sbrk_start
 .bss.heap_end.5239
                0x200060a0        0x4 c:/mesh/arm_gcc/bin/../lib/gcc/arm-none-eabi/6.3.1/../../../../arm-none-eabi/lib/thumb/v7e-m/fpv4-sp/hard\libnosys.a(sbrk.o)
 *(COMMON)
 COMMON         0x200060a4       0x24 examples/light_switch/client/CMakeFiles/light_switch_client_nrf52840_xxAA_s140_6.0.0.dir/__/__/__/mesh/core/src/core_tx.c.obj
                0x200060a4                m_packet
 COMMON         0x200060c8        0xc examples/light_switch/client/CMakeFiles/light_switch_client_nrf52840_xxAA_s140_6.0.0.dir/C_/b/nRF5_SDK_15.0.0_a53641a/components/libraries/util/app_util_platform.c.obj
                0x200060c8                nrf_nvic_state
 COMMON         0x200060d4       0x78 external/rtt/librtt_nrf52840_xxAA.a(SEGGER_RTT.c.obj)
                0x200060d4                _SEGGER_RTT
 COMMON         0x2000614c        0x4 c:/mesh/arm_gcc/bin/../lib/gcc/arm-none-eabi/6.3.1/../../../../arm-none-eabi/lib/thumb/v7e-m/fpv4-sp/hard\libg_nano.a(lib_a-reent.o)
                0x2000614c                errno
                0x20006150                . = ALIGN (0x4)
                0x20006150                __bss_end__ = .

.heap           0x20006150     0x2000
                0x20006150                __HeapBase = .
                0x20006150                __end__ = .
                0x20006150                PROVIDE (end, .)
 *(.heap*)
 .heap          0x20006150     0x2000 examples/light_switch/client/CMakeFiles/light_switch_client_nrf52840_xxAA_s140_6.0.0.dir/C_/b/nRF5_SDK_15.0.0_a53641a/modules/nrfx/mdk/gcc_startup_nrf52840.S.obj
                0x20008150                __HeapLimit = .

.stack_dummy    0x20006150     0x2000
 *(.stack*)
 .stack         0x20006150     0x2000 examples/light_switch/client/CMakeFiles/light_switch_client_nrf52840_xxAA_s140_6.0.0.dir/C_/b/nRF5_SDK_15.0.0_a53641a/modules/nrfx/mdk/gcc_startup_nrf52840.S.obj
                0x2003fd00                __StackTop = (ORIGIN (RAM) + LENGTH (RAM))
                0x2003dd00                __StackLimit = (__StackTop - SIZEOF (.stack_dummy))
                0x2003fd00                PROVIDE (__stack, __StackTop)
                0x00000001                ASSERT ((__StackLimit >= __HeapLimit), region RAM overflowed with stack)
                0x00000150                DataInitFlashUsed = (__bss_start__ - __data_start__)
                0x00013fec                CodeFlashUsed = (__etext - ORIGIN (FLASH))
                0x0001413c                TotalFlashUsed = (CodeFlashUsed + DataInitFlashUsed)
                0x00000001                ASSERT ((TotalFlashUsed <= LENGTH (FLASH)), region FLASH overflowed with .data and user data)
OUTPUT(examples\light_switch\client\light_switch_client_nrf52840_xxAA_s140_6.0.0.elf elf32-littlearm)

.ARM.attributes
                0x00000000       0x30
 .ARM.attributes
                0x00000000       0x22 c:/mesh/arm_gcc/bin/../lib/gcc/arm-none-eabi/6.3.1/thumb/v7e-m/fpv4-sp/hard/crti.o
 .ARM.attributes
                0x00000022       0x34 c:/mesh/arm_gcc/bin/../lib/gcc/arm-none-eabi/6.3.1/thumb/v7e-m/fpv4-sp/hard/crtbegin.o
 .ARM.attributes
                0x00000056       0x20 c:/mesh/arm_gcc/bin/../lib/gcc/arm-none-eabi/6.3.1/../../../../arm-none-eabi/lib/thumb/v7e-m/fpv4-sp/hard/crt0.o
 .ARM.attributes
                0x00000076       0x39 examples/light_switch/client/CMakeFiles/light_switch_client_nrf52840_xxAA_s140_6.0.0.dir/src/main.c.obj
 .ARM.attributes
                0x000000af       0x39 examples/light_switch/client/CMakeFiles/light_switch_client_nrf52840_xxAA_s140_6.0.0.dir/__/__/__/mesh/stack/src/mesh_stack.c.obj
 .ARM.attributes
                0x000000e8       0x39 examples/light_switch/client/CMakeFiles/light_switch_client_nrf52840_xxAA_s140_6.0.0.dir/__/__/common/src/mesh_softdevice_init.c.obj
 .ARM.attributes
                0x00000121       0x39 examples/light_switch/client/CMakeFiles/light_switch_client_nrf52840_xxAA_s140_6.0.0.dir/__/__/common/src/mesh_provisionee.c.obj
 .ARM.attributes
                0x0000015a       0x39 examples/light_switch/client/CMakeFiles/light_switch_client_nrf52840_xxAA_s140_6.0.0.dir/__/__/common/src/rtt_input.c.obj
 .ARM.attributes
                0x00000193       0x39 examples/light_switch/client/CMakeFiles/light_switch_client_nrf52840_xxAA_s140_6.0.0.dir/__/__/common/src/simple_hal.c.obj
 .ARM.attributes
                0x000001cc       0x39 examples/light_switch/client/CMakeFiles/light_switch_client_nrf52840_xxAA_s140_6.0.0.dir/__/__/nrf_mesh_weak.c.obj
 .ARM.attributes
                0x00000205       0x39 examples/light_switch/client/CMakeFiles/light_switch_client_nrf52840_xxAA_s140_6.0.0.dir/__/__/common/src/app_error_weak.c.obj
 .ARM.attributes
                0x0000023e       0x39 examples/light_switch/client/CMakeFiles/light_switch_client_nrf52840_xxAA_s140_6.0.0.dir/__/__/common/src/assertion_handler_weak.c.obj
 .ARM.attributes
                0x00000277       0x39 examples/light_switch/client/CMakeFiles/light_switch_client_nrf52840_xxAA_s140_6.0.0.dir/__/__/__/mesh/core/src/nrf_mesh_configure.c.obj
 .ARM.attributes
                0x000002b0       0x39 examples/light_switch/client/CMakeFiles/light_switch_client_nrf52840_xxAA_s140_6.0.0.dir/__/__/__/mesh/core/src/msg_cache.c.obj
 .ARM.attributes
                0x000002e9       0x39 examples/light_switch/client/CMakeFiles/light_switch_client_nrf52840_xxAA_s140_6.0.0.dir/__/__/__/mesh/core/src/transport.c.obj
 .ARM.attributes
                0x00000322       0x39 examples/light_switch/client/CMakeFiles/light_switch_client_nrf52840_xxAA_s140_6.0.0.dir/__/__/__/mesh/core/src/event.c.obj
 .ARM.attributes
                0x0000035b       0x39 examples/light_switch/client/CMakeFiles/light_switch_client_nrf52840_xxAA_s140_6.0.0.dir/__/__/__/mesh/core/src/packet_buffer.c.obj
 .ARM.attributes
                0x00000394       0x39 examples/light_switch/client/CMakeFiles/light_switch_client_nrf52840_xxAA_s140_6.0.0.dir/__/__/__/mesh/core/src/flash_manager_defrag.c.obj
 .ARM.attributes
                0x000003cd       0x39 examples/light_switch/client/CMakeFiles/light_switch_client_nrf52840_xxAA_s140_6.0.0.dir/__/__/__/mesh/core/src/fifo.c.obj
 .ARM.attributes
                0x00000406       0x39 examples/light_switch/client/CMakeFiles/light_switch_client_nrf52840_xxAA_s140_6.0.0.dir/__/__/__/mesh/core/src/nrf_flash.c.obj
 .ARM.attributes
                0x0000043f       0x39 examples/light_switch/client/CMakeFiles/light_switch_client_nrf52840_xxAA_s140_6.0.0.dir/__/__/__/mesh/core/src/packet_mgr.c.obj
 .ARM.attributes
                0x00000478       0x39 examples/light_switch/client/CMakeFiles/light_switch_client_nrf52840_xxAA_s140_6.0.0.dir/__/__/__/mesh/core/src/net_state.c.obj
 .ARM.attributes
                0x000004b1       0x39 examples/light_switch/client/CMakeFiles/light_switch_client_nrf52840_xxAA_s140_6.0.0.dir/__/__/__/mesh/core/src/mesh_flash.c.obj
 .ARM.attributes
                0x000004ea       0x39 examples/light_switch/client/CMakeFiles/light_switch_client_nrf52840_xxAA_s140_6.0.0.dir/__/__/__/mesh/core/src/nrf_mesh_utils.c.obj
 .ARM.attributes
                0x00000523       0x39 examples/light_switch/client/CMakeFiles/light_switch_client_nrf52840_xxAA_s140_6.0.0.dir/__/__/__/mesh/core/src/nrf_mesh.c.obj
 .ARM.attributes
                0x0000055c       0x39 examples/light_switch/client/CMakeFiles/light_switch_client_nrf52840_xxAA_s140_6.0.0.dir/__/__/__/mesh/core/src/queue.c.obj
 .ARM.attributes
                0x00000595       0x39 examples/light_switch/client/CMakeFiles/light_switch_client_nrf52840_xxAA_s140_6.0.0.dir/__/__/__/mesh/core/src/hal.c.obj
 .ARM.attributes
                0x000005ce       0x39 examples/light_switch/client/CMakeFiles/light_switch_client_nrf52840_xxAA_s140_6.0.0.dir/__/__/__/mesh/core/src/aes_cmac.c.obj
 .ARM.attributes
                0x00000607       0x39 examples/light_switch/client/CMakeFiles/light_switch_client_nrf52840_xxAA_s140_6.0.0.dir/__/__/__/mesh/core/src/timer_scheduler.c.obj
 .ARM.attributes
                0x00000640       0x39 examples/light_switch/client/CMakeFiles/light_switch_client_nrf52840_xxAA_s140_6.0.0.dir/__/__/__/mesh/core/src/timer.c.obj
 .ARM.attributes
                0x00000679       0x39 examples/light_switch/client/CMakeFiles/light_switch_client_nrf52840_xxAA_s140_6.0.0.dir/__/__/__/mesh/core/src/ticker.c.obj
 .ARM.attributes
                0x000006b2       0x39 examples/light_switch/client/CMakeFiles/light_switch_client_nrf52840_xxAA_s140_6.0.0.dir/__/__/__/mesh/core/src/rand.c.obj
 .ARM.attributes
                0x000006eb       0x39 examples/light_switch/client/CMakeFiles/light_switch_client_nrf52840_xxAA_s140_6.0.0.dir/__/__/__/mesh/core/src/nrf_mesh_opt.c.obj
 .ARM.attributes
                0x00000724       0x39 examples/light_switch/client/CMakeFiles/light_switch_client_nrf52840_xxAA_s140_6.0.0.dir/__/__/__/mesh/core/src/timeslot.c.obj
 .ARM.attributes
                0x0000075d       0x39 examples/light_switch/client/CMakeFiles/light_switch_client_nrf52840_xxAA_s140_6.0.0.dir/__/__/__/mesh/core/src/bearer_event.c.obj
 .ARM.attributes
                0x00000796       0x39 examples/light_switch/client/CMakeFiles/light_switch_client_nrf52840_xxAA_s140_6.0.0.dir/__/__/__/mesh/core/src/enc.c.obj
 .ARM.attributes
                0x000007cf       0x39 examples/light_switch/client/CMakeFiles/light_switch_client_nrf52840_xxAA_s140_6.0.0.dir/__/__/__/mesh/core/src/network.c.obj
 .ARM.attributes
                0x00000808       0x39 examples/light_switch/client/CMakeFiles/light_switch_client_nrf52840_xxAA_s140_6.0.0.dir/__/__/__/mesh/core/src/net_packet.c.obj
 .ARM.attributes
                0x00000841       0x39 examples/light_switch/client/CMakeFiles/light_switch_client_nrf52840_xxAA_s140_6.0.0.dir/__/__/__/mesh/core/src/msqueue.c.obj
 .ARM.attributes
                0x0000087a       0x39 examples/light_switch/client/CMakeFiles/light_switch_client_nrf52840_xxAA_s140_6.0.0.dir/__/__/__/mesh/core/src/nrf_mesh_keygen.c.obj
 .ARM.attributes
                0x000008b3       0x39 examples/light_switch/client/CMakeFiles/light_switch_client_nrf52840_xxAA_s140_6.0.0.dir/__/__/__/mesh/core/src/list.c.obj
 .ARM.attributes
                0x000008ec       0x39 examples/light_switch/client/CMakeFiles/light_switch_client_nrf52840_xxAA_s140_6.0.0.dir/__/__/__/mesh/core/src/log.c.obj
 .ARM.attributes
                0x00000925       0x39 examples/light_switch/client/CMakeFiles/light_switch_client_nrf52840_xxAA_s140_6.0.0.dir/__/__/__/mesh/core/src/flash_manager.c.obj
 .ARM.attributes
                0x0000095e       0x39 examples/light_switch/client/CMakeFiles/light_switch_client_nrf52840_xxAA_s140_6.0.0.dir/__/__/__/mesh/core/src/ccm_soft.c.obj
 .ARM.attributes
                0x00000997       0x39 examples/light_switch/client/CMakeFiles/light_switch_client_nrf52840_xxAA_s140_6.0.0.dir/__/__/__/mesh/core/src/replay_cache.c.obj
 .ARM.attributes
                0x000009d0       0x39 examples/light_switch/client/CMakeFiles/light_switch_client_nrf52840_xxAA_s140_6.0.0.dir/__/__/__/mesh/core/src/beacon.c.obj
 .ARM.attributes
                0x00000a09       0x39 examples/light_switch/client/CMakeFiles/light_switch_client_nrf52840_xxAA_s140_6.0.0.dir/__/__/__/mesh/core/src/flash_manager_internal.c.obj
 .ARM.attributes
                0x00000a42       0x39 examples/light_switch/client/CMakeFiles/light_switch_client_nrf52840_xxAA_s140_6.0.0.dir/__/__/__/mesh/core/src/core_tx.c.obj
 .ARM.attributes
                0x00000a7b       0x39 examples/light_switch/client/CMakeFiles/light_switch_client_nrf52840_xxAA_s140_6.0.0.dir/__/__/__/mesh/core/src/heartbeat.c.obj
 .ARM.attributes
                0x00000ab4       0x39 examples/light_switch/client/CMakeFiles/light_switch_client_nrf52840_xxAA_s140_6.0.0.dir/__/__/__/mesh/core/src/net_beacon.c.obj
 .ARM.attributes
                0x00000aed       0x39 examples/light_switch/client/CMakeFiles/light_switch_client_nrf52840_xxAA_s140_6.0.0.dir/__/__/__/mesh/core/src/core_tx_adv.c.obj
 .ARM.attributes
                0x00000b26       0x39 examples/light_switch/client/CMakeFiles/light_switch_client_nrf52840_xxAA_s140_6.0.0.dir/__/__/__/mesh/bearer/src/ad_listener.c.obj
 .ARM.attributes
                0x00000b5f       0x39 examples/light_switch/client/CMakeFiles/light_switch_client_nrf52840_xxAA_s140_6.0.0.dir/__/__/__/mesh/bearer/src/ad_type_filter.c.obj
 .ARM.attributes
                0x00000b98       0x39 examples/light_switch/client/CMakeFiles/light_switch_client_nrf52840_xxAA_s140_6.0.0.dir/__/__/__/mesh/bearer/src/advertiser.c.obj
 .ARM.attributes
                0x00000bd1       0x39 examples/light_switch/client/CMakeFiles/light_switch_client_nrf52840_xxAA_s140_6.0.0.dir/__/__/__/mesh/bearer/src/bearer_handler.c.obj
 .ARM.attributes
                0x00000c0a       0x39 examples/light_switch/client/CMakeFiles/light_switch_client_nrf52840_xxAA_s140_6.0.0.dir/__/__/__/mesh/bearer/src/broadcast.c.obj
 .ARM.attributes
                0x00000c43       0x39 examples/light_switch/client/CMakeFiles/light_switch_client_nrf52840_xxAA_s140_6.0.0.dir/__/__/__/mesh/bearer/src/filter_engine.c.obj
 .ARM.attributes
                0x00000c7c       0x39 examples/light_switch/client/CMakeFiles/light_switch_client_nrf52840_xxAA_s140_6.0.0.dir/__/__/__/mesh/bearer/src/radio_config.c.obj
 .ARM.attributes
                0x00000cb5       0x39 examples/light_switch/client/CMakeFiles/light_switch_client_nrf52840_xxAA_s140_6.0.0.dir/__/__/__/mesh/bearer/src/scanner.c.obj
 .ARM.attributes
                0x00000cee       0x39 examples/light_switch/client/CMakeFiles/light_switch_client_nrf52840_xxAA_s140_6.0.0.dir/__/__/__/mesh/bearer/src/mesh_pa_lna.c.obj
 .ARM.attributes
                0x00000d27       0x39 examples/light_switch/client/CMakeFiles/light_switch_client_nrf52840_xxAA_s140_6.0.0.dir/__/__/__/models/simple_on_off/src/simple_on_off_client.c.obj
 .ARM.attributes
                0x00000d60       0x39 examples/light_switch/client/CMakeFiles/light_switch_client_nrf52840_xxAA_s140_6.0.0.dir/__/__/__/models/config/src/composition_data.c.obj
 .ARM.attributes
                0x00000d99       0x39 examples/light_switch/client/CMakeFiles/light_switch_client_nrf52840_xxAA_s140_6.0.0.dir/__/__/__/models/config/src/config_server.c.obj
 .ARM.attributes
                0x00000dd2       0x39 examples/light_switch/client/CMakeFiles/light_switch_client_nrf52840_xxAA_s140_6.0.0.dir/__/__/__/models/config/src/packed_index_list.c.obj
 .ARM.attributes
                0x00000e0b       0x39 examples/light_switch/client/CMakeFiles/light_switch_client_nrf52840_xxAA_s140_6.0.0.dir/__/__/__/models/health/src/health_server.c.obj
 .ARM.attributes
                0x00000e44       0x39 examples/light_switch/client/CMakeFiles/light_switch_client_nrf52840_xxAA_s140_6.0.0.dir/__/__/__/mesh/access/src/access_publish.c.obj
 .ARM.attributes
                0x00000e7d       0x39 examples/light_switch/client/CMakeFiles/light_switch_client_nrf52840_xxAA_s140_6.0.0.dir/__/__/__/mesh/access/src/access.c.obj
 .ARM.attributes
                0x00000eb6       0x39 examples/light_switch/client/CMakeFiles/light_switch_client_nrf52840_xxAA_s140_6.0.0.dir/__/__/__/mesh/access/src/access_reliable.c.obj
 .ARM.attributes
                0x00000eef       0x39 examples/light_switch/client/CMakeFiles/light_switch_client_nrf52840_xxAA_s140_6.0.0.dir/__/__/__/mesh/access/src/access_loopback.c.obj
 .ARM.attributes
                0x00000f28       0x39 examples/light_switch/client/CMakeFiles/light_switch_client_nrf52840_xxAA_s140_6.0.0.dir/__/__/__/mesh/access/src/device_state_manager.c.obj
 .ARM.attributes
                0x00000f61       0x39 examples/light_switch/client/CMakeFiles/light_switch_client_nrf52840_xxAA_s140_6.0.0.dir/__/__/__/mesh/prov/src/prov_provisionee.c.obj
 .ARM.attributes
                0x00000f9a       0x39 examples/light_switch/client/CMakeFiles/light_switch_client_nrf52840_xxAA_s140_6.0.0.dir/__/__/__/mesh/prov/src/nrf_mesh_prov.c.obj
 .ARM.attributes
                0x00000fd3       0x39 examples/light_switch/client/CMakeFiles/light_switch_client_nrf52840_xxAA_s140_6.0.0.dir/__/__/__/mesh/prov/src/provisioning.c.obj
 .ARM.attributes
                0x0000100c       0x39 examples/light_switch/client/CMakeFiles/light_switch_client_nrf52840_xxAA_s140_6.0.0.dir/__/__/__/mesh/prov/src/prov_beacon.c.obj
 .ARM.attributes
                0x00001045       0x39 examples/light_switch/client/CMakeFiles/light_switch_client_nrf52840_xxAA_s140_6.0.0.dir/__/__/__/mesh/prov/src/prov_utils.c.obj
 .ARM.attributes
                0x0000107e       0x39 examples/light_switch/client/CMakeFiles/light_switch_client_nrf52840_xxAA_s140_6.0.0.dir/__/__/__/mesh/prov/src/prov_bearer_adv.c.obj
 .ARM.attributes
                0x000010b7       0x39 examples/light_switch/client/CMakeFiles/light_switch_client_nrf52840_xxAA_s140_6.0.0.dir/C_/b/nRF5_SDK_15.0.0_a53641a/modules/nrfx/mdk/system_nrf52840.c.obj
 .ARM.attributes
                0x000010f0       0x20 examples/light_switch/client/CMakeFiles/light_switch_client_nrf52840_xxAA_s140_6.0.0.dir/C_/b/nRF5_SDK_15.0.0_a53641a/modules/nrfx/mdk/gcc_startup_nrf52840.S.obj
 .ARM.attributes
                0x00001110       0x39 examples/light_switch/client/CMakeFiles/light_switch_client_nrf52840_xxAA_s140_6.0.0.dir/C_/b/nRF5_SDK_15.0.0_a53641a/components/libraries/util/app_error.c.obj
 .ARM.attributes
                0x00001149       0x39 examples/light_switch/client/CMakeFiles/light_switch_client_nrf52840_xxAA_s140_6.0.0.dir/C_/b/nRF5_SDK_15.0.0_a53641a/components/libraries/util/app_util_platform.c.obj
 .ARM.attributes
                0x00001182       0x39 examples/light_switch/client/CMakeFiles/light_switch_client_nrf52840_xxAA_s140_6.0.0.dir/C_/b/nRF5_SDK_15.0.0_a53641a/components/libraries/timer/app_timer.c.obj
 .ARM.attributes
                0x000011bb       0x39 examples/light_switch/client/CMakeFiles/light_switch_client_nrf52840_xxAA_s140_6.0.0.dir/C_/b/nRF5_SDK_15.0.0_a53641a/components/libraries/util/app_error_handler_gcc.c.obj
 .ARM.attributes
                0x000011f4       0x39 external/rtt/librtt_nrf52840_xxAA.a(SEGGER_RTT.c.obj)
 .ARM.attributes
                0x0000122d       0x39 external/rtt/librtt_nrf52840_xxAA.a(SEGGER_RTT_printf.c.obj)
 .ARM.attributes
                0x00001266       0x39 external/micro-ecc/libuECC_nrf52840_xxAA.a(uECC.c.obj)
 .ARM.attributes
                0x0000129f       0x22 c:/mesh/arm_gcc/bin/../lib/gcc/arm-none-eabi/6.3.1/thumb/v7e-m/fpv4-sp/hard\libgcc.a(_aeabi_uldivmod.o)
 .ARM.attributes
                0x000012c1       0x34 c:/mesh/arm_gcc/bin/../lib/gcc/arm-none-eabi/6.3.1/thumb/v7e-m/fpv4-sp/hard\libgcc.a(_udivmoddi4.o)
 .ARM.attributes
                0x000012f5       0x22 c:/mesh/arm_gcc/bin/../lib/gcc/arm-none-eabi/6.3.1/thumb/v7e-m/fpv4-sp/hard\libgcc.a(_dvmd_tls.o)
 .ARM.attributes
                0x00001317       0x34 c:/mesh/arm_gcc/bin/../lib/gcc/arm-none-eabi/6.3.1/../../../../arm-none-eabi/lib/thumb/v7e-m/fpv4-sp/hard\libg_nano.a(lib_a-exit.o)
 .ARM.attributes
                0x0000134b       0x34 c:/mesh/arm_gcc/bin/../lib/gcc/arm-none-eabi/6.3.1/../../../../arm-none-eabi/lib/thumb/v7e-m/fpv4-sp/hard\libg_nano.a(lib_a-impure.o)
 .ARM.attributes
                0x0000137f       0x34 c:/mesh/arm_gcc/bin/../lib/gcc/arm-none-eabi/6.3.1/../../../../arm-none-eabi/lib/thumb/v7e-m/fpv4-sp/hard\libg_nano.a(lib_a-init.o)
 .ARM.attributes
                0x000013b3       0x34 c:/mesh/arm_gcc/bin/../lib/gcc/arm-none-eabi/6.3.1/../../../../arm-none-eabi/lib/thumb/v7e-m/fpv4-sp/hard\libg_nano.a(lib_a-malloc.o)
 .ARM.attributes
                0x000013e7       0x34 c:/mesh/arm_gcc/bin/../lib/gcc/arm-none-eabi/6.3.1/../../../../arm-none-eabi/lib/thumb/v7e-m/fpv4-sp/hard\libg_nano.a(lib_a-memcmp.o)
 .ARM.attributes
                0x0000141b       0x34 c:/mesh/arm_gcc/bin/../lib/gcc/arm-none-eabi/6.3.1/../../../../arm-none-eabi/lib/thumb/v7e-m/fpv4-sp/hard\libg_nano.a(lib_a-memcpy-stub.o)
 .ARM.attributes
                0x0000144f       0x34 c:/mesh/arm_gcc/bin/../lib/gcc/arm-none-eabi/6.3.1/../../../../arm-none-eabi/lib/thumb/v7e-m/fpv4-sp/hard\libg_nano.a(lib_a-memset.o)
 .ARM.attributes
                0x00001483       0x34 c:/mesh/arm_gcc/bin/../lib/gcc/arm-none-eabi/6.3.1/../../../../arm-none-eabi/lib/thumb/v7e-m/fpv4-sp/hard\libg_nano.a(lib_a-nano-freer.o)
 .ARM.attributes
                0x000014b7       0x34 c:/mesh/arm_gcc/bin/../lib/gcc/arm-none-eabi/6.3.1/../../../../arm-none-eabi/lib/thumb/v7e-m/fpv4-sp/hard\libg_nano.a(lib_a-nano-mallocr.o)
 .ARM.attributes
                0x000014eb       0x34 c:/mesh/arm_gcc/bin/../lib/gcc/arm-none-eabi/6.3.1/../../../../arm-none-eabi/lib/thumb/v7e-m/fpv4-sp/hard\libg_nano.a(lib_a-sbrkr.o)
 .ARM.attributes
                0x0000151f       0x34 c:/mesh/arm_gcc/bin/../lib/gcc/arm-none-eabi/6.3.1/../../../../arm-none-eabi/lib/thumb/v7e-m/fpv4-sp/hard\libg_nano.a(lib_a-strcpy.o)
 .ARM.attributes
                0x00001553       0x1b c:/mesh/arm_gcc/bin/../lib/gcc/arm-none-eabi/6.3.1/../../../../arm-none-eabi/lib/thumb/v7e-m/fpv4-sp/hard\libg_nano.a(lib_a-strlen.o)
 .ARM.attributes
                0x0000156e       0x34 c:/mesh/arm_gcc/bin/../lib/gcc/arm-none-eabi/6.3.1/../../../../arm-none-eabi/lib/thumb/v7e-m/fpv4-sp/hard\libg_nano.a(lib_a-strrchr.o)
 .ARM.attributes
                0x000015a2       0x34 c:/mesh/arm_gcc/bin/../lib/gcc/arm-none-eabi/6.3.1/../../../../arm-none-eabi/lib/thumb/v7e-m/fpv4-sp/hard\libg_nano.a(lib_a-mlock.o)
 .ARM.attributes
                0x000015d6       0x34 c:/mesh/arm_gcc/bin/../lib/gcc/arm-none-eabi/6.3.1/../../../../arm-none-eabi/lib/thumb/v7e-m/fpv4-sp/hard\libg_nano.a(lib_a-reent.o)
 .ARM.attributes
                0x0000160a       0x34 c:/mesh/arm_gcc/bin/../lib/gcc/arm-none-eabi/6.3.1/../../../../arm-none-eabi/lib/thumb/v7e-m/fpv4-sp/hard\libg_nano.a(lib_a-strchr.o)
 .ARM.attributes
                0x0000163e       0x34 c:/mesh/arm_gcc/bin/../lib/gcc/arm-none-eabi/6.3.1/thumb/v7e-m/fpv4-sp/hard/crtend.o
 .ARM.attributes
                0x00001672       0x22 c:/mesh/arm_gcc/bin/../lib/gcc/arm-none-eabi/6.3.1/thumb/v7e-m/fpv4-sp/hard/crtn.o
 .ARM.attributes
                0x00001694       0x34 c:/mesh/arm_gcc/bin/../lib/gcc/arm-none-eabi/6.3.1/../../../../arm-none-eabi/lib/thumb/v7e-m/fpv4-sp/hard\libnosys.a(sbrk.o)
 .ARM.attributes
                0x000016c8       0x34 c:/mesh/arm_gcc/bin/../lib/gcc/arm-none-eabi/6.3.1/../../../../arm-none-eabi/lib/thumb/v7e-m/fpv4-sp/hard\libnosys.a(_exit.o)

.comment        0x00000000       0x7f
 .comment       0x00000000       0x7f examples/light_switch/client/CMakeFiles/light_switch_client_nrf52840_xxAA_s140_6.0.0.dir/src/main.c.obj
                                 0x80 (size before relaxing)
 .comment       0x0000007f       0x80 examples/light_switch/client/CMakeFiles/light_switch_client_nrf52840_xxAA_s140_6.0.0.dir/__/__/__/mesh/stack/src/mesh_stack.c.obj
 .comment       0x0000007f       0x80 examples/light_switch/client/CMakeFiles/light_switch_client_nrf52840_xxAA_s140_6.0.0.dir/__/__/common/src/mesh_softdevice_init.c.obj
 .comment       0x0000007f       0x80 examples/light_switch/client/CMakeFiles/light_switch_client_nrf52840_xxAA_s140_6.0.0.dir/__/__/common/src/mesh_provisionee.c.obj
 .comment       0x0000007f       0x80 examples/light_switch/client/CMakeFiles/light_switch_client_nrf52840_xxAA_s140_6.0.0.dir/__/__/common/src/rtt_input.c.obj
 .comment       0x0000007f       0x80 examples/light_switch/client/CMakeFiles/light_switch_client_nrf52840_xxAA_s140_6.0.0.dir/__/__/common/src/simple_hal.c.obj
 .comment       0x0000007f       0x80 examples/light_switch/client/CMakeFiles/light_switch_client_nrf52840_xxAA_s140_6.0.0.dir/__/__/nrf_mesh_weak.c.obj
 .comment       0x0000007f       0x80 examples/light_switch/client/CMakeFiles/light_switch_client_nrf52840_xxAA_s140_6.0.0.dir/__/__/common/src/app_error_weak.c.obj
 .comment       0x0000007f       0x80 examples/light_switch/client/CMakeFiles/light_switch_client_nrf52840_xxAA_s140_6.0.0.dir/__/__/common/src/assertion_handler_weak.c.obj
 .comment       0x0000007f       0x80 examples/light_switch/client/CMakeFiles/light_switch_client_nrf52840_xxAA_s140_6.0.0.dir/__/__/__/mesh/core/src/nrf_mesh_configure.c.obj
 .comment       0x0000007f       0x80 examples/light_switch/client/CMakeFiles/light_switch_client_nrf52840_xxAA_s140_6.0.0.dir/__/__/__/mesh/core/src/msg_cache.c.obj
 .comment       0x0000007f       0x80 examples/light_switch/client/CMakeFiles/light_switch_client_nrf52840_xxAA_s140_6.0.0.dir/__/__/__/mesh/core/src/transport.c.obj
 .comment       0x0000007f       0x80 examples/light_switch/client/CMakeFiles/light_switch_client_nrf52840_xxAA_s140_6.0.0.dir/__/__/__/mesh/core/src/event.c.obj
 .comment       0x0000007f       0x80 examples/light_switch/client/CMakeFiles/light_switch_client_nrf52840_xxAA_s140_6.0.0.dir/__/__/__/mesh/core/src/packet_buffer.c.obj
 .comment       0x0000007f       0x80 examples/light_switch/client/CMakeFiles/light_switch_client_nrf52840_xxAA_s140_6.0.0.dir/__/__/__/mesh/core/src/flash_manager_defrag.c.obj
 .comment       0x0000007f       0x80 examples/light_switch/client/CMakeFiles/light_switch_client_nrf52840_xxAA_s140_6.0.0.dir/__/__/__/mesh/core/src/fifo.c.obj
 .comment       0x0000007f       0x80 examples/light_switch/client/CMakeFiles/light_switch_client_nrf52840_xxAA_s140_6.0.0.dir/__/__/__/mesh/core/src/nrf_flash.c.obj
 .comment       0x0000007f       0x80 examples/light_switch/client/CMakeFiles/light_switch_client_nrf52840_xxAA_s140_6.0.0.dir/__/__/__/mesh/core/src/packet_mgr.c.obj
 .comment       0x0000007f       0x80 examples/light_switch/client/CMakeFiles/light_switch_client_nrf52840_xxAA_s140_6.0.0.dir/__/__/__/mesh/core/src/net_state.c.obj
 .comment       0x0000007f       0x80 examples/light_switch/client/CMakeFiles/light_switch_client_nrf52840_xxAA_s140_6.0.0.dir/__/__/__/mesh/core/src/mesh_flash.c.obj
 .comment       0x0000007f       0x80 examples/light_switch/client/CMakeFiles/light_switch_client_nrf52840_xxAA_s140_6.0.0.dir/__/__/__/mesh/core/src/nrf_mesh_utils.c.obj
 .comment       0x0000007f       0x80 examples/light_switch/client/CMakeFiles/light_switch_client_nrf52840_xxAA_s140_6.0.0.dir/__/__/__/mesh/core/src/nrf_mesh.c.obj
 .comment       0x0000007f       0x80 examples/light_switch/client/CMakeFiles/light_switch_client_nrf52840_xxAA_s140_6.0.0.dir/__/__/__/mesh/core/src/queue.c.obj
 .comment       0x0000007f       0x80 examples/light_switch/client/CMakeFiles/light_switch_client_nrf52840_xxAA_s140_6.0.0.dir/__/__/__/mesh/core/src/hal.c.obj
 .comment       0x0000007f       0x80 examples/light_switch/client/CMakeFiles/light_switch_client_nrf52840_xxAA_s140_6.0.0.dir/__/__/__/mesh/core/src/aes_cmac.c.obj
 .comment       0x0000007f       0x80 examples/light_switch/client/CMakeFiles/light_switch_client_nrf52840_xxAA_s140_6.0.0.dir/__/__/__/mesh/core/src/timer_scheduler.c.obj
 .comment       0x0000007f       0x80 examples/light_switch/client/CMakeFiles/light_switch_client_nrf52840_xxAA_s140_6.0.0.dir/__/__/__/mesh/core/src/timer.c.obj
 .comment       0x0000007f       0x80 examples/light_switch/client/CMakeFiles/light_switch_client_nrf52840_xxAA_s140_6.0.0.dir/__/__/__/mesh/core/src/ticker.c.obj
 .comment       0x0000007f       0x80 examples/light_switch/client/CMakeFiles/light_switch_client_nrf52840_xxAA_s140_6.0.0.dir/__/__/__/mesh/core/src/rand.c.obj
 .comment       0x0000007f       0x80 examples/light_switch/client/CMakeFiles/light_switch_client_nrf52840_xxAA_s140_6.0.0.dir/__/__/__/mesh/core/src/nrf_mesh_opt.c.obj
 .comment       0x0000007f       0x80 examples/light_switch/client/CMakeFiles/light_switch_client_nrf52840_xxAA_s140_6.0.0.dir/__/__/__/mesh/core/src/timeslot.c.obj
 .comment       0x0000007f       0x80 examples/light_switch/client/CMakeFiles/light_switch_client_nrf52840_xxAA_s140_6.0.0.dir/__/__/__/mesh/core/src/bearer_event.c.obj
 .comment       0x0000007f       0x80 examples/light_switch/client/CMakeFiles/light_switch_client_nrf52840_xxAA_s140_6.0.0.dir/__/__/__/mesh/core/src/enc.c.obj
 .comment       0x0000007f       0x80 examples/light_switch/client/CMakeFiles/light_switch_client_nrf52840_xxAA_s140_6.0.0.dir/__/__/__/mesh/core/src/network.c.obj
 .comment       0x0000007f       0x80 examples/light_switch/client/CMakeFiles/light_switch_client_nrf52840_xxAA_s140_6.0.0.dir/__/__/__/mesh/core/src/net_packet.c.obj
 .comment       0x0000007f       0x80 examples/light_switch/client/CMakeFiles/light_switch_client_nrf52840_xxAA_s140_6.0.0.dir/__/__/__/mesh/core/src/msqueue.c.obj
 .comment       0x0000007f       0x80 examples/light_switch/client/CMakeFiles/light_switch_client_nrf52840_xxAA_s140_6.0.0.dir/__/__/__/mesh/core/src/nrf_mesh_keygen.c.obj
 .comment       0x0000007f       0x80 examples/light_switch/client/CMakeFiles/light_switch_client_nrf52840_xxAA_s140_6.0.0.dir/__/__/__/mesh/core/src/list.c.obj
 .comment       0x0000007f       0x80 examples/light_switch/client/CMakeFiles/light_switch_client_nrf52840_xxAA_s140_6.0.0.dir/__/__/__/mesh/core/src/log.c.obj
 .comment       0x0000007f       0x80 examples/light_switch/client/CMakeFiles/light_switch_client_nrf52840_xxAA_s140_6.0.0.dir/__/__/__/mesh/core/src/flash_manager.c.obj
 .comment       0x0000007f       0x80 examples/light_switch/client/CMakeFiles/light_switch_client_nrf52840_xxAA_s140_6.0.0.dir/__/__/__/mesh/core/src/ccm_soft.c.obj
 .comment       0x0000007f       0x80 examples/light_switch/client/CMakeFiles/light_switch_client_nrf52840_xxAA_s140_6.0.0.dir/__/__/__/mesh/core/src/replay_cache.c.obj
 .comment       0x0000007f       0x80 examples/light_switch/client/CMakeFiles/light_switch_client_nrf52840_xxAA_s140_6.0.0.dir/__/__/__/mesh/core/src/beacon.c.obj
 .comment       0x0000007f       0x80 examples/light_switch/client/CMakeFiles/light_switch_client_nrf52840_xxAA_s140_6.0.0.dir/__/__/__/mesh/core/src/flash_manager_internal.c.obj
 .comment       0x0000007f       0x80 examples/light_switch/client/CMakeFiles/light_switch_client_nrf52840_xxAA_s140_6.0.0.dir/__/__/__/mesh/core/src/core_tx.c.obj
 .comment       0x0000007f       0x80 examples/light_switch/client/CMakeFiles/light_switch_client_nrf52840_xxAA_s140_6.0.0.dir/__/__/__/mesh/core/src/heartbeat.c.obj
 .comment       0x0000007f       0x80 examples/light_switch/client/CMakeFiles/light_switch_client_nrf52840_xxAA_s140_6.0.0.dir/__/__/__/mesh/core/src/net_beacon.c.obj
 .comment       0x0000007f       0x80 examples/light_switch/client/CMakeFiles/light_switch_client_nrf52840_xxAA_s140_6.0.0.dir/__/__/__/mesh/core/src/core_tx_adv.c.obj
 .comment       0x0000007f       0x80 examples/light_switch/client/CMakeFiles/light_switch_client_nrf52840_xxAA_s140_6.0.0.dir/__/__/__/mesh/bearer/src/ad_listener.c.obj
 .comment       0x0000007f       0x80 examples/light_switch/client/CMakeFiles/light_switch_client_nrf52840_xxAA_s140_6.0.0.dir/__/__/__/mesh/bearer/src/ad_type_filter.c.obj
 .comment       0x0000007f       0x80 examples/light_switch/client/CMakeFiles/light_switch_client_nrf52840_xxAA_s140_6.0.0.dir/__/__/__/mesh/bearer/src/advertiser.c.obj
 .comment       0x0000007f       0x80 examples/light_switch/client/CMakeFiles/light_switch_client_nrf52840_xxAA_s140_6.0.0.dir/__/__/__/mesh/bearer/src/bearer_handler.c.obj
 .comment       0x0000007f       0x80 examples/light_switch/client/CMakeFiles/light_switch_client_nrf52840_xxAA_s140_6.0.0.dir/__/__/__/mesh/bearer/src/broadcast.c.obj
 .comment       0x0000007f       0x80 examples/light_switch/client/CMakeFiles/light_switch_client_nrf52840_xxAA_s140_6.0.0.dir/__/__/__/mesh/bearer/src/filter_engine.c.obj
 .comment       0x0000007f       0x80 examples/light_switch/client/CMakeFiles/light_switch_client_nrf52840_xxAA_s140_6.0.0.dir/__/__/__/mesh/bearer/src/radio_config.c.obj
 .comment       0x0000007f       0x80 examples/light_switch/client/CMakeFiles/light_switch_client_nrf52840_xxAA_s140_6.0.0.dir/__/__/__/mesh/bearer/src/scanner.c.obj
 .comment       0x0000007f       0x80 examples/light_switch/client/CMakeFiles/light_switch_client_nrf52840_xxAA_s140_6.0.0.dir/__/__/__/mesh/bearer/src/mesh_pa_lna.c.obj
 .comment       0x0000007f       0x80 examples/light_switch/client/CMakeFiles/light_switch_client_nrf52840_xxAA_s140_6.0.0.dir/__/__/__/models/simple_on_off/src/simple_on_off_client.c.obj
 .comment       0x0000007f       0x80 examples/light_switch/client/CMakeFiles/light_switch_client_nrf52840_xxAA_s140_6.0.0.dir/__/__/__/models/config/src/composition_data.c.obj
 .comment       0x0000007f       0x80 examples/light_switch/client/CMakeFiles/light_switch_client_nrf52840_xxAA_s140_6.0.0.dir/__/__/__/models/config/src/config_server.c.obj
 .comment       0x0000007f       0x80 examples/light_switch/client/CMakeFiles/light_switch_client_nrf52840_xxAA_s140_6.0.0.dir/__/__/__/models/config/src/packed_index_list.c.obj
 .comment       0x0000007f       0x80 examples/light_switch/client/CMakeFiles/light_switch_client_nrf52840_xxAA_s140_6.0.0.dir/__/__/__/models/health/src/health_server.c.obj
 .comment       0x0000007f       0x80 examples/light_switch/client/CMakeFiles/light_switch_client_nrf52840_xxAA_s140_6.0.0.dir/__/__/__/mesh/access/src/access_publish.c.obj
 .comment       0x0000007f       0x80 examples/light_switch/client/CMakeFiles/light_switch_client_nrf52840_xxAA_s140_6.0.0.dir/__/__/__/mesh/access/src/access.c.obj
 .comment       0x0000007f       0x80 examples/light_switch/client/CMakeFiles/light_switch_client_nrf52840_xxAA_s140_6.0.0.dir/__/__/__/mesh/access/src/access_reliable.c.obj
 .comment       0x0000007f       0x80 examples/light_switch/client/CMakeFiles/light_switch_client_nrf52840_xxAA_s140_6.0.0.dir/__/__/__/mesh/access/src/access_loopback.c.obj
 .comment       0x0000007f       0x80 examples/light_switch/client/CMakeFiles/light_switch_client_nrf52840_xxAA_s140_6.0.0.dir/__/__/__/mesh/access/src/device_state_manager.c.obj
 .comment       0x0000007f       0x80 examples/light_switch/client/CMakeFiles/light_switch_client_nrf52840_xxAA_s140_6.0.0.dir/__/__/__/mesh/prov/src/prov_provisionee.c.obj
 .comment       0x0000007f       0x80 examples/light_switch/client/CMakeFiles/light_switch_client_nrf52840_xxAA_s140_6.0.0.dir/__/__/__/mesh/prov/src/nrf_mesh_prov.c.obj
 .comment       0x0000007f       0x80 examples/light_switch/client/CMakeFiles/light_switch_client_nrf52840_xxAA_s140_6.0.0.dir/__/__/__/mesh/prov/src/provisioning.c.obj
 .comment       0x0000007f       0x80 examples/light_switch/client/CMakeFiles/light_switch_client_nrf52840_xxAA_s140_6.0.0.dir/__/__/__/mesh/prov/src/prov_beacon.c.obj
 .comment       0x0000007f       0x80 examples/light_switch/client/CMakeFiles/light_switch_client_nrf52840_xxAA_s140_6.0.0.dir/__/__/__/mesh/prov/src/prov_utils.c.obj
 .comment       0x0000007f       0x80 examples/light_switch/client/CMakeFiles/light_switch_client_nrf52840_xxAA_s140_6.0.0.dir/__/__/__/mesh/prov/src/prov_bearer_adv.c.obj
 .comment       0x0000007f       0x80 examples/light_switch/client/CMakeFiles/light_switch_client_nrf52840_xxAA_s140_6.0.0.dir/C_/b/nRF5_SDK_15.0.0_a53641a/modules/nrfx/mdk/system_nrf52840.c.obj
 .comment       0x0000007f       0x80 examples/light_switch/client/CMakeFiles/light_switch_client_nrf52840_xxAA_s140_6.0.0.dir/C_/b/nRF5_SDK_15.0.0_a53641a/components/libraries/util/app_error.c.obj
 .comment       0x0000007f       0x80 examples/light_switch/client/CMakeFiles/light_switch_client_nrf52840_xxAA_s140_6.0.0.dir/C_/b/nRF5_SDK_15.0.0_a53641a/components/libraries/util/app_util_platform.c.obj
 .comment       0x0000007f       0x80 examples/light_switch/client/CMakeFiles/light_switch_client_nrf52840_xxAA_s140_6.0.0.dir/C_/b/nRF5_SDK_15.0.0_a53641a/components/libraries/timer/app_timer.c.obj
 .comment       0x0000007f       0x80 examples/light_switch/client/CMakeFiles/light_switch_client_nrf52840_xxAA_s140_6.0.0.dir/C_/b/nRF5_SDK_15.0.0_a53641a/components/libraries/util/app_error_handler_gcc.c.obj
 .comment       0x0000007f       0x80 external/rtt/librtt_nrf52840_xxAA.a(SEGGER_RTT.c.obj)
 .comment       0x0000007f       0x80 external/rtt/librtt_nrf52840_xxAA.a(SEGGER_RTT_printf.c.obj)
 .comment       0x0000007f       0x80 external/micro-ecc/libuECC_nrf52840_xxAA.a(uECC.c.obj)

.debug_info     0x00000000    0x84a3e
 .debug_info    0x00000000     0x2d99 examples/light_switch/client/CMakeFiles/light_switch_client_nrf52840_xxAA_s140_6.0.0.dir/src/main.c.obj
 .debug_info    0x00002d99     0x2332 examples/light_switch/client/CMakeFiles/light_switch_client_nrf52840_xxAA_s140_6.0.0.dir/__/__/__/mesh/stack/src/mesh_stack.c.obj
 .debug_info    0x000050cb     0x1bac examples/light_switch/client/CMakeFiles/light_switch_client_nrf52840_xxAA_s140_6.0.0.dir/__/__/common/src/mesh_softdevice_init.c.obj
 .debug_info    0x00006c77     0x21a6 examples/light_switch/client/CMakeFiles/light_switch_client_nrf52840_xxAA_s140_6.0.0.dir/__/__/common/src/mesh_provisionee.c.obj
 .debug_info    0x00008e1d      0xd57 examples/light_switch/client/CMakeFiles/light_switch_client_nrf52840_xxAA_s140_6.0.0.dir/__/__/common/src/rtt_input.c.obj
 .debug_info    0x00009b74     0x1623 examples/light_switch/client/CMakeFiles/light_switch_client_nrf52840_xxAA_s140_6.0.0.dir/__/__/common/src/simple_hal.c.obj
 .debug_info    0x0000b197      0x924 examples/light_switch/client/CMakeFiles/light_switch_client_nrf52840_xxAA_s140_6.0.0.dir/__/__/nrf_mesh_weak.c.obj
 .debug_info    0x0000babb     0x106b examples/light_switch/client/CMakeFiles/light_switch_client_nrf52840_xxAA_s140_6.0.0.dir/__/__/common/src/app_error_weak.c.obj
 .debug_info    0x0000cb26      0x99b examples/light_switch/client/CMakeFiles/light_switch_client_nrf52840_xxAA_s140_6.0.0.dir/__/__/common/src/assertion_handler_weak.c.obj
 .debug_info    0x0000d4c1      0xdff examples/light_switch/client/CMakeFiles/light_switch_client_nrf52840_xxAA_s140_6.0.0.dir/__/__/__/mesh/core/src/nrf_mesh_configure.c.obj
 .debug_info    0x0000e2c0      0xa5a examples/light_switch/client/CMakeFiles/light_switch_client_nrf52840_xxAA_s140_6.0.0.dir/__/__/__/mesh/core/src/msg_cache.c.obj
 .debug_info    0x0000ed1a     0x5091 examples/light_switch/client/CMakeFiles/light_switch_client_nrf52840_xxAA_s140_6.0.0.dir/__/__/__/mesh/core/src/transport.c.obj
 .debug_info    0x00013dab     0x17e1 examples/light_switch/client/CMakeFiles/light_switch_client_nrf52840_xxAA_s140_6.0.0.dir/__/__/__/mesh/core/src/event.c.obj
 .debug_info    0x0001558c     0x1a22 examples/light_switch/client/CMakeFiles/light_switch_client_nrf52840_xxAA_s140_6.0.0.dir/__/__/__/mesh/core/src/packet_buffer.c.obj
 .debug_info    0x00016fae     0x212b examples/light_switch/client/CMakeFiles/light_switch_client_nrf52840_xxAA_s140_6.0.0.dir/__/__/__/mesh/core/src/flash_manager_defrag.c.obj
 .debug_info    0x000190d9      0xd19 examples/light_switch/client/CMakeFiles/light_switch_client_nrf52840_xxAA_s140_6.0.0.dir/__/__/__/mesh/core/src/fifo.c.obj
 .debug_info    0x00019df2      0xb58 examples/light_switch/client/CMakeFiles/light_switch_client_nrf52840_xxAA_s140_6.0.0.dir/__/__/__/mesh/core/src/nrf_flash.c.obj
 .debug_info    0x0001a94a     0x118d examples/light_switch/client/CMakeFiles/light_switch_client_nrf52840_xxAA_s140_6.0.0.dir/__/__/__/mesh/core/src/packet_mgr.c.obj
 .debug_info    0x0001bad7     0x2825 examples/light_switch/client/CMakeFiles/light_switch_client_nrf52840_xxAA_s140_6.0.0.dir/__/__/__/mesh/core/src/net_state.c.obj
 .debug_info    0x0001e2fc     0x1948 examples/light_switch/client/CMakeFiles/light_switch_client_nrf52840_xxAA_s140_6.0.0.dir/__/__/__/mesh/core/src/mesh_flash.c.obj
 .debug_info    0x0001fc44      0xa78 examples/light_switch/client/CMakeFiles/light_switch_client_nrf52840_xxAA_s140_6.0.0.dir/__/__/__/mesh/core/src/nrf_mesh_utils.c.obj
 .debug_info    0x000206bc     0x25db examples/light_switch/client/CMakeFiles/light_switch_client_nrf52840_xxAA_s140_6.0.0.dir/__/__/__/mesh/core/src/nrf_mesh.c.obj
 .debug_info    0x00022c97      0xb11 examples/light_switch/client/CMakeFiles/light_switch_client_nrf52840_xxAA_s140_6.0.0.dir/__/__/__/mesh/core/src/queue.c.obj
 .debug_info    0x000237a8      0x51a examples/light_switch/client/CMakeFiles/light_switch_client_nrf52840_xxAA_s140_6.0.0.dir/__/__/__/mesh/core/src/hal.c.obj
 .debug_info    0x00023cc2      0xf6a examples/light_switch/client/CMakeFiles/light_switch_client_nrf52840_xxAA_s140_6.0.0.dir/__/__/__/mesh/core/src/aes_cmac.c.obj
 .debug_info    0x00024c2c     0x10e0 examples/light_switch/client/CMakeFiles/light_switch_client_nrf52840_xxAA_s140_6.0.0.dir/__/__/__/mesh/core/src/timer_scheduler.c.obj
 .debug_info    0x00025d0c      0xdb4 examples/light_switch/client/CMakeFiles/light_switch_client_nrf52840_xxAA_s140_6.0.0.dir/__/__/__/mesh/core/src/timer.c.obj
 .debug_info    0x00026ac0      0x20b examples/light_switch/client/CMakeFiles/light_switch_client_nrf52840_xxAA_s140_6.0.0.dir/__/__/__/mesh/core/src/ticker.c.obj
 .debug_info    0x00026ccb      0x426 examples/light_switch/client/CMakeFiles/light_switch_client_nrf52840_xxAA_s140_6.0.0.dir/__/__/__/mesh/core/src/rand.c.obj
 .debug_info    0x000270f1      0xb03 examples/light_switch/client/CMakeFiles/light_switch_client_nrf52840_xxAA_s140_6.0.0.dir/__/__/__/mesh/core/src/nrf_mesh_opt.c.obj
 .debug_info    0x00027bf4     0x1a71 examples/light_switch/client/CMakeFiles/light_switch_client_nrf52840_xxAA_s140_6.0.0.dir/__/__/__/mesh/core/src/timeslot.c.obj
 .debug_info    0x00029665     0x1a9c examples/light_switch/client/CMakeFiles/light_switch_client_nrf52840_xxAA_s140_6.0.0.dir/__/__/__/mesh/core/src/bearer_event.c.obj
 .debug_info    0x0002b101     0x1929 examples/light_switch/client/CMakeFiles/light_switch_client_nrf52840_xxAA_s140_6.0.0.dir/__/__/__/mesh/core/src/enc.c.obj
 .debug_info    0x0002ca2a     0x1b5f examples/light_switch/client/CMakeFiles/light_switch_client_nrf52840_xxAA_s140_6.0.0.dir/__/__/__/mesh/core/src/network.c.obj
 .debug_info    0x0002e589     0x1cad examples/light_switch/client/CMakeFiles/light_switch_client_nrf52840_xxAA_s140_6.0.0.dir/__/__/__/mesh/core/src/net_packet.c.obj
 .debug_info    0x00030236      0xd86 examples/light_switch/client/CMakeFiles/light_switch_client_nrf52840_xxAA_s140_6.0.0.dir/__/__/__/mesh/core/src/msqueue.c.obj
 .debug_info    0x00030fbc      0x4c8 examples/light_switch/client/CMakeFiles/light_switch_client_nrf52840_xxAA_s140_6.0.0.dir/__/__/__/mesh/core/src/nrf_mesh_keygen.c.obj
 .debug_info    0x00031484      0x506 examples/light_switch/client/CMakeFiles/light_switch_client_nrf52840_xxAA_s140_6.0.0.dir/__/__/__/mesh/core/src/list.c.obj
 .debug_info    0x0003198a      0xe28 examples/light_switch/client/CMakeFiles/light_switch_client_nrf52840_xxAA_s140_6.0.0.dir/__/__/__/mesh/core/src/log.c.obj
 .debug_info    0x000327b2     0x3024 examples/light_switch/client/CMakeFiles/light_switch_client_nrf52840_xxAA_s140_6.0.0.dir/__/__/__/mesh/core/src/flash_manager.c.obj
 .debug_info    0x000357d6     0x12e6 examples/light_switch/client/CMakeFiles/light_switch_client_nrf52840_xxAA_s140_6.0.0.dir/__/__/__/mesh/core/src/ccm_soft.c.obj
 .debug_info    0x00036abc      0xa93 examples/light_switch/client/CMakeFiles/light_switch_client_nrf52840_xxAA_s140_6.0.0.dir/__/__/__/mesh/core/src/replay_cache.c.obj
 .debug_info    0x0003754f     0x17b4 examples/light_switch/client/CMakeFiles/light_switch_client_nrf52840_xxAA_s140_6.0.0.dir/__/__/__/mesh/core/src/beacon.c.obj
 .debug_info    0x00038d03      0xb9b examples/light_switch/client/CMakeFiles/light_switch_client_nrf52840_xxAA_s140_6.0.0.dir/__/__/__/mesh/core/src/flash_manager_internal.c.obj
 .debug_info    0x0003989e     0x126f examples/light_switch/client/CMakeFiles/light_switch_client_nrf52840_xxAA_s140_6.0.0.dir/__/__/__/mesh/core/src/core_tx.c.obj
 .debug_info    0x0003ab0d     0x2520 examples/light_switch/client/CMakeFiles/light_switch_client_nrf52840_xxAA_s140_6.0.0.dir/__/__/__/mesh/core/src/heartbeat.c.obj
 .debug_info    0x0003d02d     0x28e2 examples/light_switch/client/CMakeFiles/light_switch_client_nrf52840_xxAA_s140_6.0.0.dir/__/__/__/mesh/core/src/net_beacon.c.obj
 .debug_info    0x0003f90f     0x1a1f examples/light_switch/client/CMakeFiles/light_switch_client_nrf52840_xxAA_s140_6.0.0.dir/__/__/__/mesh/core/src/core_tx_adv.c.obj
 .debug_info    0x0004132e     0x115d examples/light_switch/client/CMakeFiles/light_switch_client_nrf52840_xxAA_s140_6.0.0.dir/__/__/__/mesh/bearer/src/ad_listener.c.obj
 .debug_info    0x0004248b      0xfbe examples/light_switch/client/CMakeFiles/light_switch_client_nrf52840_xxAA_s140_6.0.0.dir/__/__/__/mesh/bearer/src/ad_type_filter.c.obj
 .debug_info    0x00043449     0x270e examples/light_switch/client/CMakeFiles/light_switch_client_nrf52840_xxAA_s140_6.0.0.dir/__/__/__/mesh/bearer/src/advertiser.c.obj
 .debug_info    0x00045b57     0x231a examples/light_switch/client/CMakeFiles/light_switch_client_nrf52840_xxAA_s140_6.0.0.dir/__/__/__/mesh/bearer/src/bearer_handler.c.obj
 .debug_info    0x00047e71     0x1b92 examples/light_switch/client/CMakeFiles/light_switch_client_nrf52840_xxAA_s140_6.0.0.dir/__/__/__/mesh/bearer/src/broadcast.c.obj
 .debug_info    0x00049a03      0xcff examples/light_switch/client/CMakeFiles/light_switch_client_nrf52840_xxAA_s140_6.0.0.dir/__/__/__/mesh/bearer/src/filter_engine.c.obj
 .debug_info    0x0004a702      0xa53 examples/light_switch/client/CMakeFiles/light_switch_client_nrf52840_xxAA_s140_6.0.0.dir/__/__/__/mesh/bearer/src/radio_config.c.obj
 .debug_info    0x0004b155     0x28e3 examples/light_switch/client/CMakeFiles/light_switch_client_nrf52840_xxAA_s140_6.0.0.dir/__/__/__/mesh/bearer/src/scanner.c.obj
 .debug_info    0x0004da38     0x107c examples/light_switch/client/CMakeFiles/light_switch_client_nrf52840_xxAA_s140_6.0.0.dir/__/__/__/mesh/bearer/src/mesh_pa_lna.c.obj
 .debug_info    0x0004eab4     0x16d5 examples/light_switch/client/CMakeFiles/light_switch_client_nrf52840_xxAA_s140_6.0.0.dir/__/__/__/models/simple_on_off/src/simple_on_off_client.c.obj
 .debug_info    0x00050189      0xed7 examples/light_switch/client/CMakeFiles/light_switch_client_nrf52840_xxAA_s140_6.0.0.dir/__/__/__/models/config/src/composition_data.c.obj
 .debug_info    0x00051060     0x8bd7 examples/light_switch/client/CMakeFiles/light_switch_client_nrf52840_xxAA_s140_6.0.0.dir/__/__/__/models/config/src/config_server.c.obj
 .debug_info    0x00059c37      0x126 examples/light_switch/client/CMakeFiles/light_switch_client_nrf52840_xxAA_s140_6.0.0.dir/__/__/__/models/config/src/packed_index_list.c.obj
 .debug_info    0x00059d5d     0x2629 examples/light_switch/client/CMakeFiles/light_switch_client_nrf52840_xxAA_s140_6.0.0.dir/__/__/__/models/health/src/health_server.c.obj
 .debug_info    0x0005c386     0x1155 examples/light_switch/client/CMakeFiles/light_switch_client_nrf52840_xxAA_s140_6.0.0.dir/__/__/__/mesh/access/src/access_publish.c.obj
 .debug_info    0x0005d4db     0x4a40 examples/light_switch/client/CMakeFiles/light_switch_client_nrf52840_xxAA_s140_6.0.0.dir/__/__/__/mesh/access/src/access.c.obj
 .debug_info    0x00061f1b     0x19df examples/light_switch/client/CMakeFiles/light_switch_client_nrf52840_xxAA_s140_6.0.0.dir/__/__/__/mesh/access/src/access_reliable.c.obj
 .debug_info    0x000638fa      0xfbf examples/light_switch/client/CMakeFiles/light_switch_client_nrf52840_xxAA_s140_6.0.0.dir/__/__/__/mesh/access/src/access_loopback.c.obj
 .debug_info    0x000648b9     0x679f examples/light_switch/client/CMakeFiles/light_switch_client_nrf52840_xxAA_s140_6.0.0.dir/__/__/__/mesh/access/src/device_state_manager.c.obj
 .debug_info    0x0006b058     0x2823 examples/light_switch/client/CMakeFiles/light_switch_client_nrf52840_xxAA_s140_6.0.0.dir/__/__/__/mesh/prov/src/prov_provisionee.c.obj
 .debug_info    0x0006d87b     0x1ed2 examples/light_switch/client/CMakeFiles/light_switch_client_nrf52840_xxAA_s140_6.0.0.dir/__/__/__/mesh/prov/src/nrf_mesh_prov.c.obj
 .debug_info    0x0006f74d     0x1586 examples/light_switch/client/CMakeFiles/light_switch_client_nrf52840_xxAA_s140_6.0.0.dir/__/__/__/mesh/prov/src/provisioning.c.obj
 .debug_info    0x00070cd3     0x1a7d examples/light_switch/client/CMakeFiles/light_switch_client_nrf52840_xxAA_s140_6.0.0.dir/__/__/__/mesh/prov/src/prov_beacon.c.obj
 .debug_info    0x00072750     0x205e examples/light_switch/client/CMakeFiles/light_switch_client_nrf52840_xxAA_s140_6.0.0.dir/__/__/__/mesh/prov/src/prov_utils.c.obj
 .debug_info    0x000747ae     0x3ae7 examples/light_switch/client/CMakeFiles/light_switch_client_nrf52840_xxAA_s140_6.0.0.dir/__/__/__/mesh/prov/src/prov_bearer_adv.c.obj
 .debug_info    0x00078295     0x139f examples/light_switch/client/CMakeFiles/light_switch_client_nrf52840_xxAA_s140_6.0.0.dir/C_/b/nRF5_SDK_15.0.0_a53641a/modules/nrfx/mdk/system_nrf52840.c.obj
 .debug_info    0x00079634      0xaee examples/light_switch/client/CMakeFiles/light_switch_client_nrf52840_xxAA_s140_6.0.0.dir/C_/b/nRF5_SDK_15.0.0_a53641a/components/libraries/util/app_error.c.obj
 .debug_info    0x0007a122     0x11bd examples/light_switch/client/CMakeFiles/light_switch_client_nrf52840_xxAA_s140_6.0.0.dir/C_/b/nRF5_SDK_15.0.0_a53641a/components/libraries/util/app_util_platform.c.obj
 .debug_info    0x0007b2df     0x2201 examples/light_switch/client/CMakeFiles/light_switch_client_nrf52840_xxAA_s140_6.0.0.dir/C_/b/nRF5_SDK_15.0.0_a53641a/components/libraries/timer/app_timer.c.obj
 .debug_info    0x0007d4e0      0x974 examples/light_switch/client/CMakeFiles/light_switch_client_nrf52840_xxAA_s140_6.0.0.dir/C_/b/nRF5_SDK_15.0.0_a53641a/components/libraries/util/app_error_handler_gcc.c.obj
 .debug_info    0x0007de54     0x1818 external/rtt/librtt_nrf52840_xxAA.a(SEGGER_RTT.c.obj)
 .debug_info    0x0007f66c      0xec1 external/rtt/librtt_nrf52840_xxAA.a(SEGGER_RTT_printf.c.obj)
 .debug_info    0x0008052d     0x4511 external/micro-ecc/libuECC_nrf52840_xxAA.a(uECC.c.obj)

.debug_abbrev   0x00000000    0x1185e
 .debug_abbrev  0x00000000      0x518 examples/light_switch/client/CMakeFiles/light_switch_client_nrf52840_xxAA_s140_6.0.0.dir/src/main.c.obj
 .debug_abbrev  0x00000518      0x36b examples/light_switch/client/CMakeFiles/light_switch_client_nrf52840_xxAA_s140_6.0.0.dir/__/__/__/mesh/stack/src/mesh_stack.c.obj
 .debug_abbrev  0x00000883      0x432 examples/light_switch/client/CMakeFiles/light_switch_client_nrf52840_xxAA_s140_6.0.0.dir/__/__/common/src/mesh_softdevice_init.c.obj
 .debug_abbrev  0x00000cb5      0x312 examples/light_switch/client/CMakeFiles/light_switch_client_nrf52840_xxAA_s140_6.0.0.dir/__/__/common/src/mesh_provisionee.c.obj
 .debug_abbrev  0x00000fc7      0x2d3 examples/light_switch/client/CMakeFiles/light_switch_client_nrf52840_xxAA_s140_6.0.0.dir/__/__/common/src/rtt_input.c.obj
 .debug_abbrev  0x0000129a      0x3a3 examples/light_switch/client/CMakeFiles/light_switch_client_nrf52840_xxAA_s140_6.0.0.dir/__/__/common/src/simple_hal.c.obj
 .debug_abbrev  0x0000163d      0x1ae examples/light_switch/client/CMakeFiles/light_switch_client_nrf52840_xxAA_s140_6.0.0.dir/__/__/nrf_mesh_weak.c.obj
 .debug_abbrev  0x000017eb      0x2de examples/light_switch/client/CMakeFiles/light_switch_client_nrf52840_xxAA_s140_6.0.0.dir/__/__/common/src/app_error_weak.c.obj
 .debug_abbrev  0x00001ac9      0x1f6 examples/light_switch/client/CMakeFiles/light_switch_client_nrf52840_xxAA_s140_6.0.0.dir/__/__/common/src/assertion_handler_weak.c.obj
 .debug_abbrev  0x00001cbf      0x254 examples/light_switch/client/CMakeFiles/light_switch_client_nrf52840_xxAA_s140_6.0.0.dir/__/__/__/mesh/core/src/nrf_mesh_configure.c.obj
 .debug_abbrev  0x00001f13      0x25d examples/light_switch/client/CMakeFiles/light_switch_client_nrf52840_xxAA_s140_6.0.0.dir/__/__/__/mesh/core/src/msg_cache.c.obj
 .debug_abbrev  0x00002170      0x5f5 examples/light_switch/client/CMakeFiles/light_switch_client_nrf52840_xxAA_s140_6.0.0.dir/__/__/__/mesh/core/src/transport.c.obj
 .debug_abbrev  0x00002765      0x314 examples/light_switch/client/CMakeFiles/light_switch_client_nrf52840_xxAA_s140_6.0.0.dir/__/__/__/mesh/core/src/event.c.obj
 .debug_abbrev  0x00002a79      0x468 examples/light_switch/client/CMakeFiles/light_switch_client_nrf52840_xxAA_s140_6.0.0.dir/__/__/__/mesh/core/src/packet_buffer.c.obj
 .debug_abbrev  0x00002ee1      0x50e examples/light_switch/client/CMakeFiles/light_switch_client_nrf52840_xxAA_s140_6.0.0.dir/__/__/__/mesh/core/src/flash_manager_defrag.c.obj
 .debug_abbrev  0x000033ef      0x2f2 examples/light_switch/client/CMakeFiles/light_switch_client_nrf52840_xxAA_s140_6.0.0.dir/__/__/__/mesh/core/src/fifo.c.obj
 .debug_abbrev  0x000036e1      0x21f examples/light_switch/client/CMakeFiles/light_switch_client_nrf52840_xxAA_s140_6.0.0.dir/__/__/__/mesh/core/src/nrf_flash.c.obj
 .debug_abbrev  0x00003900      0x3b1 examples/light_switch/client/CMakeFiles/light_switch_client_nrf52840_xxAA_s140_6.0.0.dir/__/__/__/mesh/core/src/packet_mgr.c.obj
 .debug_abbrev  0x00003cb1      0x552 examples/light_switch/client/CMakeFiles/light_switch_client_nrf52840_xxAA_s140_6.0.0.dir/__/__/__/mesh/core/src/net_state.c.obj
 .debug_abbrev  0x00004203      0x453 examples/light_switch/client/CMakeFiles/light_switch_client_nrf52840_xxAA_s140_6.0.0.dir/__/__/__/mesh/core/src/mesh_flash.c.obj
 .debug_abbrev  0x00004656      0x242 examples/light_switch/client/CMakeFiles/light_switch_client_nrf52840_xxAA_s140_6.0.0.dir/__/__/__/mesh/core/src/nrf_mesh_utils.c.obj
 .debug_abbrev  0x00004898      0x490 examples/light_switch/client/CMakeFiles/light_switch_client_nrf52840_xxAA_s140_6.0.0.dir/__/__/__/mesh/core/src/nrf_mesh.c.obj
 .debug_abbrev  0x00004d28      0x247 examples/light_switch/client/CMakeFiles/light_switch_client_nrf52840_xxAA_s140_6.0.0.dir/__/__/__/mesh/core/src/queue.c.obj
 .debug_abbrev  0x00004f6f      0x1cf examples/light_switch/client/CMakeFiles/light_switch_client_nrf52840_xxAA_s140_6.0.0.dir/__/__/__/mesh/core/src/hal.c.obj
 .debug_abbrev  0x0000513e      0x341 examples/light_switch/client/CMakeFiles/light_switch_client_nrf52840_xxAA_s140_6.0.0.dir/__/__/__/mesh/core/src/aes_cmac.c.obj
 .debug_abbrev  0x0000547f      0x3bc examples/light_switch/client/CMakeFiles/light_switch_client_nrf52840_xxAA_s140_6.0.0.dir/__/__/__/mesh/core/src/timer_scheduler.c.obj
 .debug_abbrev  0x0000583b      0x337 examples/light_switch/client/CMakeFiles/light_switch_client_nrf52840_xxAA_s140_6.0.0.dir/__/__/__/mesh/core/src/timer.c.obj
 .debug_abbrev  0x00005b72      0x152 examples/light_switch/client/CMakeFiles/light_switch_client_nrf52840_xxAA_s140_6.0.0.dir/__/__/__/mesh/core/src/ticker.c.obj
 .debug_abbrev  0x00005cc4      0x194 examples/light_switch/client/CMakeFiles/light_switch_client_nrf52840_xxAA_s140_6.0.0.dir/__/__/__/mesh/core/src/rand.c.obj
 .debug_abbrev  0x00005e58      0x24a examples/light_switch/client/CMakeFiles/light_switch_client_nrf52840_xxAA_s140_6.0.0.dir/__/__/__/mesh/core/src/nrf_mesh_opt.c.obj
 .debug_abbrev  0x000060a2      0x4a4 examples/light_switch/client/CMakeFiles/light_switch_client_nrf52840_xxAA_s140_6.0.0.dir/__/__/__/mesh/core/src/timeslot.c.obj
 .debug_abbrev  0x00006546      0x4b5 examples/light_switch/client/CMakeFiles/light_switch_client_nrf52840_xxAA_s140_6.0.0.dir/__/__/__/mesh/core/src/bearer_event.c.obj
 .debug_abbrev  0x000069fb      0x3be examples/light_switch/client/CMakeFiles/light_switch_client_nrf52840_xxAA_s140_6.0.0.dir/__/__/__/mesh/core/src/enc.c.obj
 .debug_abbrev  0x00006db9      0x496 examples/light_switch/client/CMakeFiles/light_switch_client_nrf52840_xxAA_s140_6.0.0.dir/__/__/__/mesh/core/src/network.c.obj
 .debug_abbrev  0x0000724f      0x4a1 examples/light_switch/client/CMakeFiles/light_switch_client_nrf52840_xxAA_s140_6.0.0.dir/__/__/__/mesh/core/src/net_packet.c.obj
 .debug_abbrev  0x000076f0      0x2c0 examples/light_switch/client/CMakeFiles/light_switch_client_nrf52840_xxAA_s140_6.0.0.dir/__/__/__/mesh/core/src/msqueue.c.obj
 .debug_abbrev  0x000079b0      0x163 examples/light_switch/client/CMakeFiles/light_switch_client_nrf52840_xxAA_s140_6.0.0.dir/__/__/__/mesh/core/src/nrf_mesh_keygen.c.obj
 .debug_abbrev  0x00007b13      0x1a4 examples/light_switch/client/CMakeFiles/light_switch_client_nrf52840_xxAA_s140_6.0.0.dir/__/__/__/mesh/core/src/list.c.obj
 .debug_abbrev  0x00007cb7      0x24e examples/light_switch/client/CMakeFiles/light_switch_client_nrf52840_xxAA_s140_6.0.0.dir/__/__/__/mesh/core/src/log.c.obj
 .debug_abbrev  0x00007f05      0x524 examples/light_switch/client/CMakeFiles/light_switch_client_nrf52840_xxAA_s140_6.0.0.dir/__/__/__/mesh/core/src/flash_manager.c.obj
 .debug_abbrev  0x00008429      0x38c examples/light_switch/client/CMakeFiles/light_switch_client_nrf52840_xxAA_s140_6.0.0.dir/__/__/__/mesh/core/src/ccm_soft.c.obj
 .debug_abbrev  0x000087b5      0x270 examples/light_switch/client/CMakeFiles/light_switch_client_nrf52840_xxAA_s140_6.0.0.dir/__/__/__/mesh/core/src/replay_cache.c.obj
 .debug_abbrev  0x00008a25      0x2c4 examples/light_switch/client/CMakeFiles/light_switch_client_nrf52840_xxAA_s140_6.0.0.dir/__/__/__/mesh/core/src/beacon.c.obj
 .debug_abbrev  0x00008ce9      0x288 examples/light_switch/client/CMakeFiles/light_switch_client_nrf52840_xxAA_s140_6.0.0.dir/__/__/__/mesh/core/src/flash_manager_internal.c.obj
 .debug_abbrev  0x00008f71      0x2ed examples/light_switch/client/CMakeFiles/light_switch_client_nrf52840_xxAA_s140_6.0.0.dir/__/__/__/mesh/core/src/core_tx.c.obj
 .debug_abbrev  0x0000925e      0x4af examples/light_switch/client/CMakeFiles/light_switch_client_nrf52840_xxAA_s140_6.0.0.dir/__/__/__/mesh/core/src/heartbeat.c.obj
 .debug_abbrev  0x0000970d      0x4ac examples/light_switch/client/CMakeFiles/light_switch_client_nrf52840_xxAA_s140_6.0.0.dir/__/__/__/mesh/core/src/net_beacon.c.obj
 .debug_abbrev  0x00009bb9      0x308 examples/light_switch/client/CMakeFiles/light_switch_client_nrf52840_xxAA_s140_6.0.0.dir/__/__/__/mesh/core/src/core_tx_adv.c.obj
 .debug_abbrev  0x00009ec1      0x341 examples/light_switch/client/CMakeFiles/light_switch_client_nrf52840_xxAA_s140_6.0.0.dir/__/__/__/mesh/bearer/src/ad_listener.c.obj
 .debug_abbrev  0x0000a202      0x368 examples/light_switch/client/CMakeFiles/light_switch_client_nrf52840_xxAA_s140_6.0.0.dir/__/__/__/mesh/bearer/src/ad_type_filter.c.obj
 .debug_abbrev  0x0000a56a      0x4ed examples/light_switch/client/CMakeFiles/light_switch_client_nrf52840_xxAA_s140_6.0.0.dir/__/__/__/mesh/bearer/src/advertiser.c.obj
 .debug_abbrev  0x0000aa57      0x476 examples/light_switch/client/CMakeFiles/light_switch_client_nrf52840_xxAA_s140_6.0.0.dir/__/__/__/mesh/bearer/src/bearer_handler.c.obj
 .debug_abbrev  0x0000aecd      0x3b9 examples/light_switch/client/CMakeFiles/light_switch_client_nrf52840_xxAA_s140_6.0.0.dir/__/__/__/mesh/bearer/src/broadcast.c.obj
 .debug_abbrev  0x0000b286      0x2a6 examples/light_switch/client/CMakeFiles/light_switch_client_nrf52840_xxAA_s140_6.0.0.dir/__/__/__/mesh/bearer/src/filter_engine.c.obj
 .debug_abbrev  0x0000b52c      0x1d5 examples/light_switch/client/CMakeFiles/light_switch_client_nrf52840_xxAA_s140_6.0.0.dir/__/__/__/mesh/bearer/src/radio_config.c.obj
 .debug_abbrev  0x0000b701      0x52a examples/light_switch/client/CMakeFiles/light_switch_client_nrf52840_xxAA_s140_6.0.0.dir/__/__/__/mesh/bearer/src/scanner.c.obj
 .debug_abbrev  0x0000bc2b      0x2bd examples/light_switch/client/CMakeFiles/light_switch_client_nrf52840_xxAA_s140_6.0.0.dir/__/__/__/mesh/bearer/src/mesh_pa_lna.c.obj
 .debug_abbrev  0x0000bee8      0x3bb examples/light_switch/client/CMakeFiles/light_switch_client_nrf52840_xxAA_s140_6.0.0.dir/__/__/__/models/simple_on_off/src/simple_on_off_client.c.obj
 .debug_abbrev  0x0000c2a3      0x2e2 examples/light_switch/client/CMakeFiles/light_switch_client_nrf52840_xxAA_s140_6.0.0.dir/__/__/__/models/config/src/composition_data.c.obj
 .debug_abbrev  0x0000c585      0x55a examples/light_switch/client/CMakeFiles/light_switch_client_nrf52840_xxAA_s140_6.0.0.dir/__/__/__/models/config/src/config_server.c.obj
 .debug_abbrev  0x0000cadf       0x95 examples/light_switch/client/CMakeFiles/light_switch_client_nrf52840_xxAA_s140_6.0.0.dir/__/__/__/models/config/src/packed_index_list.c.obj
 .debug_abbrev  0x0000cb74      0x4cf examples/light_switch/client/CMakeFiles/light_switch_client_nrf52840_xxAA_s140_6.0.0.dir/__/__/__/models/health/src/health_server.c.obj
 .debug_abbrev  0x0000d043      0x434 examples/light_switch/client/CMakeFiles/light_switch_client_nrf52840_xxAA_s140_6.0.0.dir/__/__/__/mesh/access/src/access_publish.c.obj
 .debug_abbrev  0x0000d477      0x610 examples/light_switch/client/CMakeFiles/light_switch_client_nrf52840_xxAA_s140_6.0.0.dir/__/__/__/mesh/access/src/access.c.obj
 .debug_abbrev  0x0000da87      0x448 examples/light_switch/client/CMakeFiles/light_switch_client_nrf52840_xxAA_s140_6.0.0.dir/__/__/__/mesh/access/src/access_reliable.c.obj
 .debug_abbrev  0x0000decf      0x2be examples/light_switch/client/CMakeFiles/light_switch_client_nrf52840_xxAA_s140_6.0.0.dir/__/__/__/mesh/access/src/access_loopback.c.obj
 .debug_abbrev  0x0000e18d      0x60d examples/light_switch/client/CMakeFiles/light_switch_client_nrf52840_xxAA_s140_6.0.0.dir/__/__/__/mesh/access/src/device_state_manager.c.obj
 .debug_abbrev  0x0000e79a      0x491 examples/light_switch/client/CMakeFiles/light_switch_client_nrf52840_xxAA_s140_6.0.0.dir/__/__/__/mesh/prov/src/prov_provisionee.c.obj
 .debug_abbrev  0x0000ec2b      0x434 examples/light_switch/client/CMakeFiles/light_switch_client_nrf52840_xxAA_s140_6.0.0.dir/__/__/__/mesh/prov/src/nrf_mesh_prov.c.obj
 .debug_abbrev  0x0000f05f      0x2a9 examples/light_switch/client/CMakeFiles/light_switch_client_nrf52840_xxAA_s140_6.0.0.dir/__/__/__/mesh/prov/src/provisioning.c.obj
 .debug_abbrev  0x0000f308      0x2c8 examples/light_switch/client/CMakeFiles/light_switch_client_nrf52840_xxAA_s140_6.0.0.dir/__/__/__/mesh/prov/src/prov_beacon.c.obj
 .debug_abbrev  0x0000f5d0      0x3c1 examples/light_switch/client/CMakeFiles/light_switch_client_nrf52840_xxAA_s140_6.0.0.dir/__/__/__/mesh/prov/src/prov_utils.c.obj
 .debug_abbrev  0x0000f991      0x4eb examples/light_switch/client/CMakeFiles/light_switch_client_nrf52840_xxAA_s140_6.0.0.dir/__/__/__/mesh/prov/src/prov_bearer_adv.c.obj
 .debug_abbrev  0x0000fe7c      0x20b examples/light_switch/client/CMakeFiles/light_switch_client_nrf52840_xxAA_s140_6.0.0.dir/C_/b/nRF5_SDK_15.0.0_a53641a/modules/nrfx/mdk/system_nrf52840.c.obj
 .debug_abbrev  0x00010087      0x232 examples/light_switch/client/CMakeFiles/light_switch_client_nrf52840_xxAA_s140_6.0.0.dir/C_/b/nRF5_SDK_15.0.0_a53641a/components/libraries/util/app_error.c.obj
 .debug_abbrev  0x000102b9      0x35b examples/light_switch/client/CMakeFiles/light_switch_client_nrf52840_xxAA_s140_6.0.0.dir/C_/b/nRF5_SDK_15.0.0_a53641a/components/libraries/util/app_util_platform.c.obj
 .debug_abbrev  0x00010614      0x502 examples/light_switch/client/CMakeFiles/light_switch_client_nrf52840_xxAA_s140_6.0.0.dir/C_/b/nRF5_SDK_15.0.0_a53641a/components/libraries/timer/app_timer.c.obj
 .debug_abbrev  0x00010b16      0x1bd examples/light_switch/client/CMakeFiles/light_switch_client_nrf52840_xxAA_s140_6.0.0.dir/C_/b/nRF5_SDK_15.0.0_a53641a/components/libraries/util/app_error_handler_gcc.c.obj
 .debug_abbrev  0x00010cd3      0x3a9 external/rtt/librtt_nrf52840_xxAA.a(SEGGER_RTT.c.obj)
 .debug_abbrev  0x0001107c      0x32e external/rtt/librtt_nrf52840_xxAA.a(SEGGER_RTT_printf.c.obj)
 .debug_abbrev  0x000113aa      0x4b4 external/micro-ecc/libuECC_nrf52840_xxAA.a(uECC.c.obj)

.debug_loc      0x00000000    0x24cf8
 .debug_loc     0x00000000      0x473 examples/light_switch/client/CMakeFiles/light_switch_client_nrf52840_xxAA_s140_6.0.0.dir/src/main.c.obj
 .debug_loc     0x00000473      0x175 examples/light_switch/client/CMakeFiles/light_switch_client_nrf52840_xxAA_s140_6.0.0.dir/__/__/__/mesh/stack/src/mesh_stack.c.obj
 .debug_loc     0x000005e8      0x21b examples/light_switch/client/CMakeFiles/light_switch_client_nrf52840_xxAA_s140_6.0.0.dir/__/__/common/src/mesh_softdevice_init.c.obj
 .debug_loc     0x00000803      0x10a examples/light_switch/client/CMakeFiles/light_switch_client_nrf52840_xxAA_s140_6.0.0.dir/__/__/common/src/mesh_provisionee.c.obj
 .debug_loc     0x0000090d       0xed examples/light_switch/client/CMakeFiles/light_switch_client_nrf52840_xxAA_s140_6.0.0.dir/__/__/common/src/rtt_input.c.obj
 .debug_loc     0x000009fa      0x243 examples/light_switch/client/CMakeFiles/light_switch_client_nrf52840_xxAA_s140_6.0.0.dir/__/__/common/src/simple_hal.c.obj
 .debug_loc     0x00000c3d      0x18c examples/light_switch/client/CMakeFiles/light_switch_client_nrf52840_xxAA_s140_6.0.0.dir/__/__/common/src/app_error_weak.c.obj
 .debug_loc     0x00000dc9       0x2c examples/light_switch/client/CMakeFiles/light_switch_client_nrf52840_xxAA_s140_6.0.0.dir/__/__/common/src/assertion_handler_weak.c.obj
 .debug_loc     0x00000df5       0x2c examples/light_switch/client/CMakeFiles/light_switch_client_nrf52840_xxAA_s140_6.0.0.dir/__/__/__/mesh/core/src/nrf_mesh_configure.c.obj
 .debug_loc     0x00000e21      0x10d examples/light_switch/client/CMakeFiles/light_switch_client_nrf52840_xxAA_s140_6.0.0.dir/__/__/__/mesh/core/src/msg_cache.c.obj
 .debug_loc     0x00000f2e     0x259a examples/light_switch/client/CMakeFiles/light_switch_client_nrf52840_xxAA_s140_6.0.0.dir/__/__/__/mesh/core/src/transport.c.obj
 .debug_loc     0x000034c8      0x124 examples/light_switch/client/CMakeFiles/light_switch_client_nrf52840_xxAA_s140_6.0.0.dir/__/__/__/mesh/core/src/event.c.obj
 .debug_loc     0x000035ec      0x816 examples/light_switch/client/CMakeFiles/light_switch_client_nrf52840_xxAA_s140_6.0.0.dir/__/__/__/mesh/core/src/packet_buffer.c.obj
 .debug_loc     0x00003e02      0x7fe examples/light_switch/client/CMakeFiles/light_switch_client_nrf52840_xxAA_s140_6.0.0.dir/__/__/__/mesh/core/src/flash_manager_defrag.c.obj
 .debug_loc     0x00004600      0x4f6 examples/light_switch/client/CMakeFiles/light_switch_client_nrf52840_xxAA_s140_6.0.0.dir/__/__/__/mesh/core/src/fifo.c.obj
 .debug_loc     0x00004af6      0x17a examples/light_switch/client/CMakeFiles/light_switch_client_nrf52840_xxAA_s140_6.0.0.dir/__/__/__/mesh/core/src/nrf_flash.c.obj
 .debug_loc     0x00004c70      0x6c1 examples/light_switch/client/CMakeFiles/light_switch_client_nrf52840_xxAA_s140_6.0.0.dir/__/__/__/mesh/core/src/packet_mgr.c.obj
 .debug_loc     0x00005331      0x936 examples/light_switch/client/CMakeFiles/light_switch_client_nrf52840_xxAA_s140_6.0.0.dir/__/__/__/mesh/core/src/net_state.c.obj
 .debug_loc     0x00005c67      0x8be examples/light_switch/client/CMakeFiles/light_switch_client_nrf52840_xxAA_s140_6.0.0.dir/__/__/__/mesh/core/src/mesh_flash.c.obj
 .debug_loc     0x00006525       0xf8 examples/light_switch/client/CMakeFiles/light_switch_client_nrf52840_xxAA_s140_6.0.0.dir/__/__/__/mesh/core/src/nrf_mesh_utils.c.obj
 .debug_loc     0x0000661d      0x4de examples/light_switch/client/CMakeFiles/light_switch_client_nrf52840_xxAA_s140_6.0.0.dir/__/__/__/mesh/core/src/nrf_mesh.c.obj
 .debug_loc     0x00006afb       0xf5 examples/light_switch/client/CMakeFiles/light_switch_client_nrf52840_xxAA_s140_6.0.0.dir/__/__/__/mesh/core/src/queue.c.obj
 .debug_loc     0x00006bf0       0x63 examples/light_switch/client/CMakeFiles/light_switch_client_nrf52840_xxAA_s140_6.0.0.dir/__/__/__/mesh/core/src/hal.c.obj
 .debug_loc     0x00006c53      0x3d8 examples/light_switch/client/CMakeFiles/light_switch_client_nrf52840_xxAA_s140_6.0.0.dir/__/__/__/mesh/core/src/aes_cmac.c.obj
 .debug_loc     0x0000702b      0x2d1 examples/light_switch/client/CMakeFiles/light_switch_client_nrf52840_xxAA_s140_6.0.0.dir/__/__/__/mesh/core/src/timer_scheduler.c.obj
 .debug_loc     0x000072fc      0x5f9 examples/light_switch/client/CMakeFiles/light_switch_client_nrf52840_xxAA_s140_6.0.0.dir/__/__/__/mesh/core/src/timer.c.obj
 .debug_loc     0x000078f5      0x14e examples/light_switch/client/CMakeFiles/light_switch_client_nrf52840_xxAA_s140_6.0.0.dir/__/__/__/mesh/core/src/rand.c.obj
 .debug_loc     0x00007a43      0x194 examples/light_switch/client/CMakeFiles/light_switch_client_nrf52840_xxAA_s140_6.0.0.dir/__/__/__/mesh/core/src/nrf_mesh_opt.c.obj
 .debug_loc     0x00007bd7      0x344 examples/light_switch/client/CMakeFiles/light_switch_client_nrf52840_xxAA_s140_6.0.0.dir/__/__/__/mesh/core/src/timeslot.c.obj
 .debug_loc     0x00007f1b      0x526 examples/light_switch/client/CMakeFiles/light_switch_client_nrf52840_xxAA_s140_6.0.0.dir/__/__/__/mesh/core/src/bearer_event.c.obj
 .debug_loc     0x00008441      0x8e7 examples/light_switch/client/CMakeFiles/light_switch_client_nrf52840_xxAA_s140_6.0.0.dir/__/__/__/mesh/core/src/enc.c.obj
 .debug_loc     0x00008d28      0x60c examples/light_switch/client/CMakeFiles/light_switch_client_nrf52840_xxAA_s140_6.0.0.dir/__/__/__/mesh/core/src/network.c.obj
 .debug_loc     0x00009334      0x817 examples/light_switch/client/CMakeFiles/light_switch_client_nrf52840_xxAA_s140_6.0.0.dir/__/__/__/mesh/core/src/net_packet.c.obj
 .debug_loc     0x00009b4b      0x2ed examples/light_switch/client/CMakeFiles/light_switch_client_nrf52840_xxAA_s140_6.0.0.dir/__/__/__/mesh/core/src/msqueue.c.obj
 .debug_loc     0x00009e38      0x1ee examples/light_switch/client/CMakeFiles/light_switch_client_nrf52840_xxAA_s140_6.0.0.dir/__/__/__/mesh/core/src/nrf_mesh_keygen.c.obj
 .debug_loc     0x0000a026      0x3bf examples/light_switch/client/CMakeFiles/light_switch_client_nrf52840_xxAA_s140_6.0.0.dir/__/__/__/mesh/core/src/list.c.obj
 .debug_loc     0x0000a3e5      0x348 examples/light_switch/client/CMakeFiles/light_switch_client_nrf52840_xxAA_s140_6.0.0.dir/__/__/__/mesh/core/src/log.c.obj
 .debug_loc     0x0000a72d     0x1439 examples/light_switch/client/CMakeFiles/light_switch_client_nrf52840_xxAA_s140_6.0.0.dir/__/__/__/mesh/core/src/flash_manager.c.obj
 .debug_loc     0x0000bb66      0x4b6 examples/light_switch/client/CMakeFiles/light_switch_client_nrf52840_xxAA_s140_6.0.0.dir/__/__/__/mesh/core/src/ccm_soft.c.obj
 .debug_loc     0x0000c01c      0x141 examples/light_switch/client/CMakeFiles/light_switch_client_nrf52840_xxAA_s140_6.0.0.dir/__/__/__/mesh/core/src/replay_cache.c.obj
 .debug_loc     0x0000c15d      0x30d examples/light_switch/client/CMakeFiles/light_switch_client_nrf52840_xxAA_s140_6.0.0.dir/__/__/__/mesh/core/src/beacon.c.obj
 .debug_loc     0x0000c46a       0xe3 examples/light_switch/client/CMakeFiles/light_switch_client_nrf52840_xxAA_s140_6.0.0.dir/__/__/__/mesh/core/src/flash_manager_internal.c.obj
 .debug_loc     0x0000c54d      0x3c5 examples/light_switch/client/CMakeFiles/light_switch_client_nrf52840_xxAA_s140_6.0.0.dir/__/__/__/mesh/core/src/core_tx.c.obj
 .debug_loc     0x0000c912      0x57b examples/light_switch/client/CMakeFiles/light_switch_client_nrf52840_xxAA_s140_6.0.0.dir/__/__/__/mesh/core/src/heartbeat.c.obj
 .debug_loc     0x0000ce8d      0x5f5 examples/light_switch/client/CMakeFiles/light_switch_client_nrf52840_xxAA_s140_6.0.0.dir/__/__/__/mesh/core/src/net_beacon.c.obj
 .debug_loc     0x0000d482      0x41f examples/light_switch/client/CMakeFiles/light_switch_client_nrf52840_xxAA_s140_6.0.0.dir/__/__/__/mesh/core/src/core_tx_adv.c.obj
 .debug_loc     0x0000d8a1      0x40d examples/light_switch/client/CMakeFiles/light_switch_client_nrf52840_xxAA_s140_6.0.0.dir/__/__/__/mesh/bearer/src/ad_listener.c.obj
 .debug_loc     0x0000dcae      0x3ae examples/light_switch/client/CMakeFiles/light_switch_client_nrf52840_xxAA_s140_6.0.0.dir/__/__/__/mesh/bearer/src/ad_type_filter.c.obj
 .debug_loc     0x0000e05c      0xcff examples/light_switch/client/CMakeFiles/light_switch_client_nrf52840_xxAA_s140_6.0.0.dir/__/__/__/mesh/bearer/src/advertiser.c.obj
 .debug_loc     0x0000ed5b      0x438 examples/light_switch/client/CMakeFiles/light_switch_client_nrf52840_xxAA_s140_6.0.0.dir/__/__/__/mesh/bearer/src/bearer_handler.c.obj
 .debug_loc     0x0000f193      0x320 examples/light_switch/client/CMakeFiles/light_switch_client_nrf52840_xxAA_s140_6.0.0.dir/__/__/__/mesh/bearer/src/broadcast.c.obj
 .debug_loc     0x0000f4b3       0xde examples/light_switch/client/CMakeFiles/light_switch_client_nrf52840_xxAA_s140_6.0.0.dir/__/__/__/mesh/bearer/src/filter_engine.c.obj
 .debug_loc     0x0000f591      0x232 examples/light_switch/client/CMakeFiles/light_switch_client_nrf52840_xxAA_s140_6.0.0.dir/__/__/__/mesh/bearer/src/radio_config.c.obj
 .debug_loc     0x0000f7c3      0x48a examples/light_switch/client/CMakeFiles/light_switch_client_nrf52840_xxAA_s140_6.0.0.dir/__/__/__/mesh/bearer/src/scanner.c.obj
 .debug_loc     0x0000fc4d      0x1d6 examples/light_switch/client/CMakeFiles/light_switch_client_nrf52840_xxAA_s140_6.0.0.dir/__/__/__/mesh/bearer/src/mesh_pa_lna.c.obj
 .debug_loc     0x0000fe23      0x5a5 examples/light_switch/client/CMakeFiles/light_switch_client_nrf52840_xxAA_s140_6.0.0.dir/__/__/__/models/simple_on_off/src/simple_on_off_client.c.obj
 .debug_loc     0x000103c8      0x254 examples/light_switch/client/CMakeFiles/light_switch_client_nrf52840_xxAA_s140_6.0.0.dir/__/__/__/models/config/src/composition_data.c.obj
 .debug_loc     0x0001061c     0x4d99 examples/light_switch/client/CMakeFiles/light_switch_client_nrf52840_xxAA_s140_6.0.0.dir/__/__/__/models/config/src/config_server.c.obj
 .debug_loc     0x000153b5       0x89 examples/light_switch/client/CMakeFiles/light_switch_client_nrf52840_xxAA_s140_6.0.0.dir/__/__/__/models/config/src/packed_index_list.c.obj
 .debug_loc     0x0001543e     0x1373 examples/light_switch/client/CMakeFiles/light_switch_client_nrf52840_xxAA_s140_6.0.0.dir/__/__/__/models/health/src/health_server.c.obj
 .debug_loc     0x000167b1      0x4d4 examples/light_switch/client/CMakeFiles/light_switch_client_nrf52840_xxAA_s140_6.0.0.dir/__/__/__/mesh/access/src/access_publish.c.obj
 .debug_loc     0x00016c85     0x2384 examples/light_switch/client/CMakeFiles/light_switch_client_nrf52840_xxAA_s140_6.0.0.dir/__/__/__/mesh/access/src/access.c.obj
 .debug_loc     0x00019009      0x784 examples/light_switch/client/CMakeFiles/light_switch_client_nrf52840_xxAA_s140_6.0.0.dir/__/__/__/mesh/access/src/access_reliable.c.obj
 .debug_loc     0x0001978d       0x81 examples/light_switch/client/CMakeFiles/light_switch_client_nrf52840_xxAA_s140_6.0.0.dir/__/__/__/mesh/access/src/access_loopback.c.obj
 .debug_loc     0x0001980e     0x3b0b examples/light_switch/client/CMakeFiles/light_switch_client_nrf52840_xxAA_s140_6.0.0.dir/__/__/__/mesh/access/src/device_state_manager.c.obj
 .debug_loc     0x0001d319      0x766 examples/light_switch/client/CMakeFiles/light_switch_client_nrf52840_xxAA_s140_6.0.0.dir/__/__/__/mesh/prov/src/prov_provisionee.c.obj
 .debug_loc     0x0001da7f      0xa4b examples/light_switch/client/CMakeFiles/light_switch_client_nrf52840_xxAA_s140_6.0.0.dir/__/__/__/mesh/prov/src/nrf_mesh_prov.c.obj
 .debug_loc     0x0001e4ca      0x490 examples/light_switch/client/CMakeFiles/light_switch_client_nrf52840_xxAA_s140_6.0.0.dir/__/__/__/mesh/prov/src/provisioning.c.obj
 .debug_loc     0x0001e95a      0x18c examples/light_switch/client/CMakeFiles/light_switch_client_nrf52840_xxAA_s140_6.0.0.dir/__/__/__/mesh/prov/src/prov_beacon.c.obj
 .debug_loc     0x0001eae6      0x40b examples/light_switch/client/CMakeFiles/light_switch_client_nrf52840_xxAA_s140_6.0.0.dir/__/__/__/mesh/prov/src/prov_utils.c.obj
 .debug_loc     0x0001eef1     0x1457 examples/light_switch/client/CMakeFiles/light_switch_client_nrf52840_xxAA_s140_6.0.0.dir/__/__/__/mesh/prov/src/prov_bearer_adv.c.obj
 .debug_loc     0x00020348       0xb5 examples/light_switch/client/CMakeFiles/light_switch_client_nrf52840_xxAA_s140_6.0.0.dir/C_/b/nRF5_SDK_15.0.0_a53641a/components/libraries/util/app_error.c.obj
 .debug_loc     0x000203fd       0xc1 examples/light_switch/client/CMakeFiles/light_switch_client_nrf52840_xxAA_s140_6.0.0.dir/C_/b/nRF5_SDK_15.0.0_a53641a/components/libraries/util/app_util_platform.c.obj
 .debug_loc     0x000204be      0xa5d examples/light_switch/client/CMakeFiles/light_switch_client_nrf52840_xxAA_s140_6.0.0.dir/C_/b/nRF5_SDK_15.0.0_a53641a/components/libraries/timer/app_timer.c.obj
 .debug_loc     0x00020f1b       0x63 examples/light_switch/client/CMakeFiles/light_switch_client_nrf52840_xxAA_s140_6.0.0.dir/C_/b/nRF5_SDK_15.0.0_a53641a/components/libraries/util/app_error_handler_gcc.c.obj
 .debug_loc     0x00020f7e     0x1222 external/rtt/librtt_nrf52840_xxAA.a(SEGGER_RTT.c.obj)
 .debug_loc     0x000221a0      0x70f external/rtt/librtt_nrf52840_xxAA.a(SEGGER_RTT_printf.c.obj)
 .debug_loc     0x000228af     0x2449 external/micro-ecc/libuECC_nrf52840_xxAA.a(uECC.c.obj)

.debug_aranges  0x00000000     0x24d8
 .debug_aranges
                0x00000000       0x60 examples/light_switch/client/CMakeFiles/light_switch_client_nrf52840_xxAA_s140_6.0.0.dir/src/main.c.obj
 .debug_aranges
                0x00000060       0x50 examples/light_switch/client/CMakeFiles/light_switch_client_nrf52840_xxAA_s140_6.0.0.dir/__/__/__/mesh/stack/src/mesh_stack.c.obj
 .debug_aranges
                0x000000b0       0x48 examples/light_switch/client/CMakeFiles/light_switch_client_nrf52840_xxAA_s140_6.0.0.dir/__/__/common/src/mesh_softdevice_init.c.obj
 .debug_aranges
                0x000000f8       0x30 examples/light_switch/client/CMakeFiles/light_switch_client_nrf52840_xxAA_s140_6.0.0.dir/__/__/common/src/mesh_provisionee.c.obj
 .debug_aranges
                0x00000128       0x30 examples/light_switch/client/CMakeFiles/light_switch_client_nrf52840_xxAA_s140_6.0.0.dir/__/__/common/src/rtt_input.c.obj
 .debug_aranges
                0x00000158       0x58 examples/light_switch/client/CMakeFiles/light_switch_client_nrf52840_xxAA_s140_6.0.0.dir/__/__/common/src/simple_hal.c.obj
 .debug_aranges
                0x000001b0       0x28 examples/light_switch/client/CMakeFiles/light_switch_client_nrf52840_xxAA_s140_6.0.0.dir/__/__/nrf_mesh_weak.c.obj
 .debug_aranges
                0x000001d8       0x20 examples/light_switch/client/CMakeFiles/light_switch_client_nrf52840_xxAA_s140_6.0.0.dir/__/__/common/src/app_error_weak.c.obj
 .debug_aranges
                0x000001f8       0x20 examples/light_switch/client/CMakeFiles/light_switch_client_nrf52840_xxAA_s140_6.0.0.dir/__/__/common/src/assertion_handler_weak.c.obj
 .debug_aranges
                0x00000218       0x30 examples/light_switch/client/CMakeFiles/light_switch_client_nrf52840_xxAA_s140_6.0.0.dir/__/__/__/mesh/core/src/nrf_mesh_configure.c.obj
 .debug_aranges
                0x00000248       0x38 examples/light_switch/client/CMakeFiles/light_switch_client_nrf52840_xxAA_s140_6.0.0.dir/__/__/__/mesh/core/src/msg_cache.c.obj
 .debug_aranges
                0x00000280      0x110 examples/light_switch/client/CMakeFiles/light_switch_client_nrf52840_xxAA_s140_6.0.0.dir/__/__/__/mesh/core/src/transport.c.obj
 .debug_aranges
                0x00000390       0x30 examples/light_switch/client/CMakeFiles/light_switch_client_nrf52840_xxAA_s140_6.0.0.dir/__/__/__/mesh/core/src/event.c.obj
 .debug_aranges
                0x000003c0       0x68 examples/light_switch/client/CMakeFiles/light_switch_client_nrf52840_xxAA_s140_6.0.0.dir/__/__/__/mesh/core/src/packet_buffer.c.obj
 .debug_aranges
                0x00000428       0xc8 examples/light_switch/client/CMakeFiles/light_switch_client_nrf52840_xxAA_s140_6.0.0.dir/__/__/__/mesh/core/src/flash_manager_defrag.c.obj
 .debug_aranges
                0x000004f0       0x60 examples/light_switch/client/CMakeFiles/light_switch_client_nrf52840_xxAA_s140_6.0.0.dir/__/__/__/mesh/core/src/fifo.c.obj
 .debug_aranges
                0x00000550       0x30 examples/light_switch/client/CMakeFiles/light_switch_client_nrf52840_xxAA_s140_6.0.0.dir/__/__/__/mesh/core/src/nrf_flash.c.obj
 .debug_aranges
                0x00000580       0x48 examples/light_switch/client/CMakeFiles/light_switch_client_nrf52840_xxAA_s140_6.0.0.dir/__/__/__/mesh/core/src/packet_mgr.c.obj
 .debug_aranges
                0x000005c8       0xd0 examples/light_switch/client/CMakeFiles/light_switch_client_nrf52840_xxAA_s140_6.0.0.dir/__/__/__/mesh/core/src/net_state.c.obj
 .debug_aranges
                0x00000698       0x60 examples/light_switch/client/CMakeFiles/light_switch_client_nrf52840_xxAA_s140_6.0.0.dir/__/__/__/mesh/core/src/mesh_flash.c.obj
 .debug_aranges
                0x000006f8       0x30 examples/light_switch/client/CMakeFiles/light_switch_client_nrf52840_xxAA_s140_6.0.0.dir/__/__/__/mesh/core/src/nrf_mesh_utils.c.obj
 .debug_aranges
                0x00000728       0x98 examples/light_switch/client/CMakeFiles/light_switch_client_nrf52840_xxAA_s140_6.0.0.dir/__/__/__/mesh/core/src/nrf_mesh.c.obj
 .debug_aranges
                0x000007c0       0x38 examples/light_switch/client/CMakeFiles/light_switch_client_nrf52840_xxAA_s140_6.0.0.dir/__/__/__/mesh/core/src/queue.c.obj
 .debug_aranges
                0x000007f8       0x30 examples/light_switch/client/CMakeFiles/light_switch_client_nrf52840_xxAA_s140_6.0.0.dir/__/__/__/mesh/core/src/hal.c.obj
 .debug_aranges
                0x00000828       0x30 examples/light_switch/client/CMakeFiles/light_switch_client_nrf52840_xxAA_s140_6.0.0.dir/__/__/__/mesh/core/src/aes_cmac.c.obj
 .debug_aranges
                0x00000858       0x68 examples/light_switch/client/CMakeFiles/light_switch_client_nrf52840_xxAA_s140_6.0.0.dir/__/__/__/mesh/core/src/timer_scheduler.c.obj
 .debug_aranges
                0x000008c0       0x60 examples/light_switch/client/CMakeFiles/light_switch_client_nrf52840_xxAA_s140_6.0.0.dir/__/__/__/mesh/core/src/timer.c.obj
 .debug_aranges
                0x00000920       0x30 examples/light_switch/client/CMakeFiles/light_switch_client_nrf52840_xxAA_s140_6.0.0.dir/__/__/__/mesh/core/src/ticker.c.obj
 .debug_aranges
                0x00000950       0x40 examples/light_switch/client/CMakeFiles/light_switch_client_nrf52840_xxAA_s140_6.0.0.dir/__/__/__/mesh/core/src/rand.c.obj
 .debug_aranges
                0x00000990       0x28 examples/light_switch/client/CMakeFiles/light_switch_client_nrf52840_xxAA_s140_6.0.0.dir/__/__/__/mesh/core/src/nrf_mesh_opt.c.obj
 .debug_aranges
                0x000009b8       0xb8 examples/light_switch/client/CMakeFiles/light_switch_client_nrf52840_xxAA_s140_6.0.0.dir/__/__/__/mesh/core/src/timeslot.c.obj
 .debug_aranges
                0x00000a70       0x98 examples/light_switch/client/CMakeFiles/light_switch_client_nrf52840_xxAA_s140_6.0.0.dir/__/__/__/mesh/core/src/bearer_event.c.obj
 .debug_aranges
                0x00000b08       0x78 examples/light_switch/client/CMakeFiles/light_switch_client_nrf52840_xxAA_s140_6.0.0.dir/__/__/__/mesh/core/src/enc.c.obj
 .debug_aranges
                0x00000b80       0x58 examples/light_switch/client/CMakeFiles/light_switch_client_nrf52840_xxAA_s140_6.0.0.dir/__/__/__/mesh/core/src/network.c.obj
 .debug_aranges
                0x00000bd8       0x68 examples/light_switch/client/CMakeFiles/light_switch_client_nrf52840_xxAA_s140_6.0.0.dir/__/__/__/mesh/core/src/net_packet.c.obj
 .debug_aranges
                0x00000c40       0x48 examples/light_switch/client/CMakeFiles/light_switch_client_nrf52840_xxAA_s140_6.0.0.dir/__/__/__/mesh/core/src/msqueue.c.obj
 .debug_aranges
                0x00000c88       0x40 examples/light_switch/client/CMakeFiles/light_switch_client_nrf52840_xxAA_s140_6.0.0.dir/__/__/__/mesh/core/src/nrf_mesh_keygen.c.obj
 .debug_aranges
                0x00000cc8       0x48 examples/light_switch/client/CMakeFiles/light_switch_client_nrf52840_xxAA_s140_6.0.0.dir/__/__/__/mesh/core/src/list.c.obj
 .debug_aranges
                0x00000d10       0x48 examples/light_switch/client/CMakeFiles/light_switch_client_nrf52840_xxAA_s140_6.0.0.dir/__/__/__/mesh/core/src/log.c.obj
 .debug_aranges
                0x00000d58       0xf8 examples/light_switch/client/CMakeFiles/light_switch_client_nrf52840_xxAA_s140_6.0.0.dir/__/__/__/mesh/core/src/flash_manager.c.obj
 .debug_aranges
                0x00000e50       0x50 examples/light_switch/client/CMakeFiles/light_switch_client_nrf52840_xxAA_s140_6.0.0.dir/__/__/__/mesh/core/src/ccm_soft.c.obj
 .debug_aranges
                0x00000ea0       0x40 examples/light_switch/client/CMakeFiles/light_switch_client_nrf52840_xxAA_s140_6.0.0.dir/__/__/__/mesh/core/src/replay_cache.c.obj
 .debug_aranges
                0x00000ee0       0x28 examples/light_switch/client/CMakeFiles/light_switch_client_nrf52840_xxAA_s140_6.0.0.dir/__/__/__/mesh/core/src/beacon.c.obj
 .debug_aranges
                0x00000f08       0x20 examples/light_switch/client/CMakeFiles/light_switch_client_nrf52840_xxAA_s140_6.0.0.dir/__/__/__/mesh/core/src/flash_manager_internal.c.obj
 .debug_aranges
                0x00000f28       0x58 examples/light_switch/client/CMakeFiles/light_switch_client_nrf52840_xxAA_s140_6.0.0.dir/__/__/__/mesh/core/src/core_tx.c.obj
 .debug_aranges
                0x00000f80       0x70 examples/light_switch/client/CMakeFiles/light_switch_client_nrf52840_xxAA_s140_6.0.0.dir/__/__/__/mesh/core/src/heartbeat.c.obj
 .debug_aranges
                0x00000ff0       0x68 examples/light_switch/client/CMakeFiles/light_switch_client_nrf52840_xxAA_s140_6.0.0.dir/__/__/__/mesh/core/src/net_beacon.c.obj
 .debug_aranges
                0x00001058       0x70 examples/light_switch/client/CMakeFiles/light_switch_client_nrf52840_xxAA_s140_6.0.0.dir/__/__/__/mesh/core/src/core_tx_adv.c.obj
 .debug_aranges
                0x000010c8       0x30 examples/light_switch/client/CMakeFiles/light_switch_client_nrf52840_xxAA_s140_6.0.0.dir/__/__/__/mesh/bearer/src/ad_listener.c.obj
 .debug_aranges
                0x000010f8       0x58 examples/light_switch/client/CMakeFiles/light_switch_client_nrf52840_xxAA_s140_6.0.0.dir/__/__/__/mesh/bearer/src/ad_type_filter.c.obj
 .debug_aranges
                0x00001150       0xb8 examples/light_switch/client/CMakeFiles/light_switch_client_nrf52840_xxAA_s140_6.0.0.dir/__/__/__/mesh/bearer/src/advertiser.c.obj
 .debug_aranges
                0x00001208       0x88 examples/light_switch/client/CMakeFiles/light_switch_client_nrf52840_xxAA_s140_6.0.0.dir/__/__/__/mesh/bearer/src/bearer_handler.c.obj
 .debug_aranges
                0x00001290       0x30 examples/light_switch/client/CMakeFiles/light_switch_client_nrf52840_xxAA_s140_6.0.0.dir/__/__/__/mesh/bearer/src/broadcast.c.obj
 .debug_aranges
                0x000012c0       0x38 examples/light_switch/client/CMakeFiles/light_switch_client_nrf52840_xxAA_s140_6.0.0.dir/__/__/__/mesh/bearer/src/filter_engine.c.obj
 .debug_aranges
                0x000012f8       0x40 examples/light_switch/client/CMakeFiles/light_switch_client_nrf52840_xxAA_s140_6.0.0.dir/__/__/__/mesh/bearer/src/radio_config.c.obj
 .debug_aranges
                0x00001338       0xe8 examples/light_switch/client/CMakeFiles/light_switch_client_nrf52840_xxAA_s140_6.0.0.dir/__/__/__/mesh/bearer/src/scanner.c.obj
 .debug_aranges
                0x00001420       0x70 examples/light_switch/client/CMakeFiles/light_switch_client_nrf52840_xxAA_s140_6.0.0.dir/__/__/__/mesh/bearer/src/mesh_pa_lna.c.obj
 .debug_aranges
                0x00001490       0x60 examples/light_switch/client/CMakeFiles/light_switch_client_nrf52840_xxAA_s140_6.0.0.dir/__/__/__/models/simple_on_off/src/simple_on_off_client.c.obj
 .debug_aranges
                0x000014f0       0x20 examples/light_switch/client/CMakeFiles/light_switch_client_nrf52840_xxAA_s140_6.0.0.dir/__/__/__/models/config/src/composition_data.c.obj
 .debug_aranges
                0x00001510      0x220 examples/light_switch/client/CMakeFiles/light_switch_client_nrf52840_xxAA_s140_6.0.0.dir/__/__/__/models/config/src/config_server.c.obj
 .debug_aranges
                0x00001730       0x20 examples/light_switch/client/CMakeFiles/light_switch_client_nrf52840_xxAA_s140_6.0.0.dir/__/__/__/models/config/src/packed_index_list.c.obj
 .debug_aranges
                0x00001750       0xc8 examples/light_switch/client/CMakeFiles/light_switch_client_nrf52840_xxAA_s140_6.0.0.dir/__/__/__/models/health/src/health_server.c.obj
 .debug_aranges
                0x00001818       0x50 examples/light_switch/client/CMakeFiles/light_switch_client_nrf52840_xxAA_s140_6.0.0.dir/__/__/__/mesh/access/src/access_publish.c.obj
 .debug_aranges
                0x00001868      0x1d0 examples/light_switch/client/CMakeFiles/light_switch_client_nrf52840_xxAA_s140_6.0.0.dir/__/__/__/mesh/access/src/access.c.obj
 .debug_aranges
                0x00001a38       0x50 examples/light_switch/client/CMakeFiles/light_switch_client_nrf52840_xxAA_s140_6.0.0.dir/__/__/__/mesh/access/src/access_reliable.c.obj
 .debug_aranges
                0x00001a88       0x38 examples/light_switch/client/CMakeFiles/light_switch_client_nrf52840_xxAA_s140_6.0.0.dir/__/__/__/mesh/access/src/access_loopback.c.obj
 .debug_aranges
                0x00001ac0      0x328 examples/light_switch/client/CMakeFiles/light_switch_client_nrf52840_xxAA_s140_6.0.0.dir/__/__/__/mesh/access/src/device_state_manager.c.obj
 .debug_aranges
                0x00001de8       0x70 examples/light_switch/client/CMakeFiles/light_switch_client_nrf52840_xxAA_s140_6.0.0.dir/__/__/__/mesh/prov/src/prov_provisionee.c.obj
 .debug_aranges
                0x00001e58       0x88 examples/light_switch/client/CMakeFiles/light_switch_client_nrf52840_xxAA_s140_6.0.0.dir/__/__/__/mesh/prov/src/nrf_mesh_prov.c.obj
 .debug_aranges
                0x00001ee0       0x80 examples/light_switch/client/CMakeFiles/light_switch_client_nrf52840_xxAA_s140_6.0.0.dir/__/__/__/mesh/prov/src/provisioning.c.obj
 .debug_aranges
                0x00001f60       0x38 examples/light_switch/client/CMakeFiles/light_switch_client_nrf52840_xxAA_s140_6.0.0.dir/__/__/__/mesh/prov/src/prov_beacon.c.obj
 .debug_aranges
                0x00001f98       0x70 examples/light_switch/client/CMakeFiles/light_switch_client_nrf52840_xxAA_s140_6.0.0.dir/__/__/__/mesh/prov/src/prov_utils.c.obj
 .debug_aranges
                0x00002008       0xc8 examples/light_switch/client/CMakeFiles/light_switch_client_nrf52840_xxAA_s140_6.0.0.dir/__/__/__/mesh/prov/src/prov_bearer_adv.c.obj
 .debug_aranges
                0x000020d0       0x30 examples/light_switch/client/CMakeFiles/light_switch_client_nrf52840_xxAA_s140_6.0.0.dir/C_/b/nRF5_SDK_15.0.0_a53641a/modules/nrfx/mdk/system_nrf52840.c.obj
 .debug_aranges
                0x00002100       0x28 examples/light_switch/client/CMakeFiles/light_switch_client_nrf52840_xxAA_s140_6.0.0.dir/C_/b/nRF5_SDK_15.0.0_a53641a/components/libraries/util/app_error.c.obj
 .debug_aranges
                0x00002128       0x48 examples/light_switch/client/CMakeFiles/light_switch_client_nrf52840_xxAA_s140_6.0.0.dir/C_/b/nRF5_SDK_15.0.0_a53641a/components/libraries/util/app_util_platform.c.obj
 .debug_aranges
                0x00002170       0x90 examples/light_switch/client/CMakeFiles/light_switch_client_nrf52840_xxAA_s140_6.0.0.dir/C_/b/nRF5_SDK_15.0.0_a53641a/components/libraries/timer/app_timer.c.obj
 .debug_aranges
                0x00002200       0x20 examples/light_switch/client/CMakeFiles/light_switch_client_nrf52840_xxAA_s140_6.0.0.dir/C_/b/nRF5_SDK_15.0.0_a53641a/components/libraries/util/app_error_handler_gcc.c.obj
 .debug_aranges
                0x00002220       0xd8 external/rtt/librtt_nrf52840_xxAA.a(SEGGER_RTT.c.obj)
 .debug_aranges
                0x000022f8       0x38 external/rtt/librtt_nrf52840_xxAA.a(SEGGER_RTT_printf.c.obj)
 .debug_aranges
                0x00002330      0x1a8 external/micro-ecc/libuECC_nrf52840_xxAA.a(uECC.c.obj)

.debug_ranges   0x00000000     0x6128
 .debug_ranges  0x00000000      0x318 examples/light_switch/client/CMakeFiles/light_switch_client_nrf52840_xxAA_s140_6.0.0.dir/src/main.c.obj
 .debug_ranges  0x00000318       0x70 examples/light_switch/client/CMakeFiles/light_switch_client_nrf52840_xxAA_s140_6.0.0.dir/__/__/__/mesh/stack/src/mesh_stack.c.obj
 .debug_ranges  0x00000388       0xe8 examples/light_switch/client/CMakeFiles/light_switch_client_nrf52840_xxAA_s140_6.0.0.dir/__/__/common/src/mesh_softdevice_init.c.obj
 .debug_ranges  0x00000470       0x50 examples/light_switch/client/CMakeFiles/light_switch_client_nrf52840_xxAA_s140_6.0.0.dir/__/__/common/src/mesh_provisionee.c.obj
 .debug_ranges  0x000004c0       0x50 examples/light_switch/client/CMakeFiles/light_switch_client_nrf52840_xxAA_s140_6.0.0.dir/__/__/common/src/rtt_input.c.obj
 .debug_ranges  0x00000510       0x98 examples/light_switch/client/CMakeFiles/light_switch_client_nrf52840_xxAA_s140_6.0.0.dir/__/__/common/src/simple_hal.c.obj
 .debug_ranges  0x000005a8       0x18 examples/light_switch/client/CMakeFiles/light_switch_client_nrf52840_xxAA_s140_6.0.0.dir/__/__/nrf_mesh_weak.c.obj
 .debug_ranges  0x000005c0       0xb8 examples/light_switch/client/CMakeFiles/light_switch_client_nrf52840_xxAA_s140_6.0.0.dir/__/__/common/src/app_error_weak.c.obj
 .debug_ranges  0x00000678       0x10 examples/light_switch/client/CMakeFiles/light_switch_client_nrf52840_xxAA_s140_6.0.0.dir/__/__/common/src/assertion_handler_weak.c.obj
 .debug_ranges  0x00000688       0x20 examples/light_switch/client/CMakeFiles/light_switch_client_nrf52840_xxAA_s140_6.0.0.dir/__/__/__/mesh/core/src/nrf_mesh_configure.c.obj
 .debug_ranges  0x000006a8       0x48 examples/light_switch/client/CMakeFiles/light_switch_client_nrf52840_xxAA_s140_6.0.0.dir/__/__/__/mesh/core/src/msg_cache.c.obj
 .debug_ranges  0x000006f0      0x5d0 examples/light_switch/client/CMakeFiles/light_switch_client_nrf52840_xxAA_s140_6.0.0.dir/__/__/__/mesh/core/src/transport.c.obj
 .debug_ranges  0x00000cc0       0x50 examples/light_switch/client/CMakeFiles/light_switch_client_nrf52840_xxAA_s140_6.0.0.dir/__/__/__/mesh/core/src/event.c.obj
 .debug_ranges  0x00000d10      0x128 examples/light_switch/client/CMakeFiles/light_switch_client_nrf52840_xxAA_s140_6.0.0.dir/__/__/__/mesh/core/src/packet_buffer.c.obj
 .debug_ranges  0x00000e38      0x230 examples/light_switch/client/CMakeFiles/light_switch_client_nrf52840_xxAA_s140_6.0.0.dir/__/__/__/mesh/core/src/flash_manager_defrag.c.obj
 .debug_ranges  0x00001068       0x68 examples/light_switch/client/CMakeFiles/light_switch_client_nrf52840_xxAA_s140_6.0.0.dir/__/__/__/mesh/core/src/fifo.c.obj
 .debug_ranges  0x000010d0       0x38 examples/light_switch/client/CMakeFiles/light_switch_client_nrf52840_xxAA_s140_6.0.0.dir/__/__/__/mesh/core/src/nrf_flash.c.obj
 .debug_ranges  0x00001108       0xe0 examples/light_switch/client/CMakeFiles/light_switch_client_nrf52840_xxAA_s140_6.0.0.dir/__/__/__/mesh/core/src/packet_mgr.c.obj
 .debug_ranges  0x000011e8      0x1f8 examples/light_switch/client/CMakeFiles/light_switch_client_nrf52840_xxAA_s140_6.0.0.dir/__/__/__/mesh/core/src/net_state.c.obj
 .debug_ranges  0x000013e0      0x1c8 examples/light_switch/client/CMakeFiles/light_switch_client_nrf52840_xxAA_s140_6.0.0.dir/__/__/__/mesh/core/src/mesh_flash.c.obj
 .debug_ranges  0x000015a8       0x20 examples/light_switch/client/CMakeFiles/light_switch_client_nrf52840_xxAA_s140_6.0.0.dir/__/__/__/mesh/core/src/nrf_mesh_utils.c.obj
 .debug_ranges  0x000015c8       0xe8 examples/light_switch/client/CMakeFiles/light_switch_client_nrf52840_xxAA_s140_6.0.0.dir/__/__/__/mesh/core/src/nrf_mesh.c.obj
 .debug_ranges  0x000016b0       0x28 examples/light_switch/client/CMakeFiles/light_switch_client_nrf52840_xxAA_s140_6.0.0.dir/__/__/__/mesh/core/src/queue.c.obj
 .debug_ranges  0x000016d8       0x20 examples/light_switch/client/CMakeFiles/light_switch_client_nrf52840_xxAA_s140_6.0.0.dir/__/__/__/mesh/core/src/hal.c.obj
 .debug_ranges  0x000016f8      0x120 examples/light_switch/client/CMakeFiles/light_switch_client_nrf52840_xxAA_s140_6.0.0.dir/__/__/__/mesh/core/src/aes_cmac.c.obj
 .debug_ranges  0x00001818       0xf0 examples/light_switch/client/CMakeFiles/light_switch_client_nrf52840_xxAA_s140_6.0.0.dir/__/__/__/mesh/core/src/timer_scheduler.c.obj
 .debug_ranges  0x00001908       0xd8 examples/light_switch/client/CMakeFiles/light_switch_client_nrf52840_xxAA_s140_6.0.0.dir/__/__/__/mesh/core/src/timer.c.obj
 .debug_ranges  0x000019e0       0x20 examples/light_switch/client/CMakeFiles/light_switch_client_nrf52840_xxAA_s140_6.0.0.dir/__/__/__/mesh/core/src/ticker.c.obj
 .debug_ranges  0x00001a00       0x30 examples/light_switch/client/CMakeFiles/light_switch_client_nrf52840_xxAA_s140_6.0.0.dir/__/__/__/mesh/core/src/rand.c.obj
 .debug_ranges  0x00001a30       0x18 examples/light_switch/client/CMakeFiles/light_switch_client_nrf52840_xxAA_s140_6.0.0.dir/__/__/__/mesh/core/src/nrf_mesh_opt.c.obj
 .debug_ranges  0x00001a48      0x168 examples/light_switch/client/CMakeFiles/light_switch_client_nrf52840_xxAA_s140_6.0.0.dir/__/__/__/mesh/core/src/timeslot.c.obj
 .debug_ranges  0x00001bb0       0xf8 examples/light_switch/client/CMakeFiles/light_switch_client_nrf52840_xxAA_s140_6.0.0.dir/__/__/__/mesh/core/src/bearer_event.c.obj
 .debug_ranges  0x00001ca8       0xb8 examples/light_switch/client/CMakeFiles/light_switch_client_nrf52840_xxAA_s140_6.0.0.dir/__/__/__/mesh/core/src/enc.c.obj
 .debug_ranges  0x00001d60       0xe8 examples/light_switch/client/CMakeFiles/light_switch_client_nrf52840_xxAA_s140_6.0.0.dir/__/__/__/mesh/core/src/network.c.obj
 .debug_ranges  0x00001e48      0x160 examples/light_switch/client/CMakeFiles/light_switch_client_nrf52840_xxAA_s140_6.0.0.dir/__/__/__/mesh/core/src/net_packet.c.obj
 .debug_ranges  0x00001fa8       0x50 examples/light_switch/client/CMakeFiles/light_switch_client_nrf52840_xxAA_s140_6.0.0.dir/__/__/__/mesh/core/src/msqueue.c.obj
 .debug_ranges  0x00001ff8       0x30 examples/light_switch/client/CMakeFiles/light_switch_client_nrf52840_xxAA_s140_6.0.0.dir/__/__/__/mesh/core/src/nrf_mesh_keygen.c.obj
 .debug_ranges  0x00002028       0x78 examples/light_switch/client/CMakeFiles/light_switch_client_nrf52840_xxAA_s140_6.0.0.dir/__/__/__/mesh/core/src/list.c.obj
 .debug_ranges  0x000020a0       0x38 examples/light_switch/client/CMakeFiles/light_switch_client_nrf52840_xxAA_s140_6.0.0.dir/__/__/__/mesh/core/src/log.c.obj
 .debug_ranges  0x000020d8      0x388 examples/light_switch/client/CMakeFiles/light_switch_client_nrf52840_xxAA_s140_6.0.0.dir/__/__/__/mesh/core/src/flash_manager.c.obj
 .debug_ranges  0x00002460       0xa0 examples/light_switch/client/CMakeFiles/light_switch_client_nrf52840_xxAA_s140_6.0.0.dir/__/__/__/mesh/core/src/ccm_soft.c.obj
 .debug_ranges  0x00002500       0x30 examples/light_switch/client/CMakeFiles/light_switch_client_nrf52840_xxAA_s140_6.0.0.dir/__/__/__/mesh/core/src/replay_cache.c.obj
 .debug_ranges  0x00002530       0x90 examples/light_switch/client/CMakeFiles/light_switch_client_nrf52840_xxAA_s140_6.0.0.dir/__/__/__/mesh/core/src/beacon.c.obj
 .debug_ranges  0x000025c0       0x10 examples/light_switch/client/CMakeFiles/light_switch_client_nrf52840_xxAA_s140_6.0.0.dir/__/__/__/mesh/core/src/flash_manager_internal.c.obj
 .debug_ranges  0x000025d0       0xf8 examples/light_switch/client/CMakeFiles/light_switch_client_nrf52840_xxAA_s140_6.0.0.dir/__/__/__/mesh/core/src/core_tx.c.obj
 .debug_ranges  0x000026c8       0xc0 examples/light_switch/client/CMakeFiles/light_switch_client_nrf52840_xxAA_s140_6.0.0.dir/__/__/__/mesh/core/src/heartbeat.c.obj
 .debug_ranges  0x00002788      0x170 examples/light_switch/client/CMakeFiles/light_switch_client_nrf52840_xxAA_s140_6.0.0.dir/__/__/__/mesh/core/src/net_beacon.c.obj
 .debug_ranges  0x000028f8       0x60 examples/light_switch/client/CMakeFiles/light_switch_client_nrf52840_xxAA_s140_6.0.0.dir/__/__/__/mesh/core/src/core_tx_adv.c.obj
 .debug_ranges  0x00002958      0x110 examples/light_switch/client/CMakeFiles/light_switch_client_nrf52840_xxAA_s140_6.0.0.dir/__/__/__/mesh/bearer/src/ad_listener.c.obj
 .debug_ranges  0x00002a68       0xd0 examples/light_switch/client/CMakeFiles/light_switch_client_nrf52840_xxAA_s140_6.0.0.dir/__/__/__/mesh/bearer/src/ad_type_filter.c.obj
 .debug_ranges  0x00002b38      0x248 examples/light_switch/client/CMakeFiles/light_switch_client_nrf52840_xxAA_s140_6.0.0.dir/__/__/__/mesh/bearer/src/advertiser.c.obj
 .debug_ranges  0x00002d80      0x180 examples/light_switch/client/CMakeFiles/light_switch_client_nrf52840_xxAA_s140_6.0.0.dir/__/__/__/mesh/bearer/src/bearer_handler.c.obj
 .debug_ranges  0x00002f00       0xc0 examples/light_switch/client/CMakeFiles/light_switch_client_nrf52840_xxAA_s140_6.0.0.dir/__/__/__/mesh/bearer/src/broadcast.c.obj
 .debug_ranges  0x00002fc0       0x48 examples/light_switch/client/CMakeFiles/light_switch_client_nrf52840_xxAA_s140_6.0.0.dir/__/__/__/mesh/bearer/src/filter_engine.c.obj
 .debug_ranges  0x00003008       0x48 examples/light_switch/client/CMakeFiles/light_switch_client_nrf52840_xxAA_s140_6.0.0.dir/__/__/__/mesh/bearer/src/radio_config.c.obj
 .debug_ranges  0x00003050      0x1a8 examples/light_switch/client/CMakeFiles/light_switch_client_nrf52840_xxAA_s140_6.0.0.dir/__/__/__/mesh/bearer/src/scanner.c.obj
 .debug_ranges  0x000031f8       0xb8 examples/light_switch/client/CMakeFiles/light_switch_client_nrf52840_xxAA_s140_6.0.0.dir/__/__/__/mesh/bearer/src/mesh_pa_lna.c.obj
 .debug_ranges  0x000032b0       0x80 examples/light_switch/client/CMakeFiles/light_switch_client_nrf52840_xxAA_s140_6.0.0.dir/__/__/__/models/simple_on_off/src/simple_on_off_client.c.obj
 .debug_ranges  0x00003330       0xb8 examples/light_switch/client/CMakeFiles/light_switch_client_nrf52840_xxAA_s140_6.0.0.dir/__/__/__/models/config/src/composition_data.c.obj
 .debug_ranges  0x000033e8      0x790 examples/light_switch/client/CMakeFiles/light_switch_client_nrf52840_xxAA_s140_6.0.0.dir/__/__/__/models/config/src/config_server.c.obj
 .debug_ranges  0x00003b78       0x10 examples/light_switch/client/CMakeFiles/light_switch_client_nrf52840_xxAA_s140_6.0.0.dir/__/__/__/models/config/src/packed_index_list.c.obj
 .debug_ranges  0x00003b88      0x260 examples/light_switch/client/CMakeFiles/light_switch_client_nrf52840_xxAA_s140_6.0.0.dir/__/__/__/models/health/src/health_server.c.obj
 .debug_ranges  0x00003de8      0x118 examples/light_switch/client/CMakeFiles/light_switch_client_nrf52840_xxAA_s140_6.0.0.dir/__/__/__/mesh/access/src/access_publish.c.obj
 .debug_ranges  0x00003f00      0x7e8 examples/light_switch/client/CMakeFiles/light_switch_client_nrf52840_xxAA_s140_6.0.0.dir/__/__/__/mesh/access/src/access.c.obj
 .debug_ranges  0x000046e8      0x160 examples/light_switch/client/CMakeFiles/light_switch_client_nrf52840_xxAA_s140_6.0.0.dir/__/__/__/mesh/access/src/access_reliable.c.obj
 .debug_ranges  0x00004848       0x28 examples/light_switch/client/CMakeFiles/light_switch_client_nrf52840_xxAA_s140_6.0.0.dir/__/__/__/mesh/access/src/access_loopback.c.obj
 .debug_ranges  0x00004870      0x7d0 examples/light_switch/client/CMakeFiles/light_switch_client_nrf52840_xxAA_s140_6.0.0.dir/__/__/__/mesh/access/src/device_state_manager.c.obj
 .debug_ranges  0x00005040      0x148 examples/light_switch/client/CMakeFiles/light_switch_client_nrf52840_xxAA_s140_6.0.0.dir/__/__/__/mesh/prov/src/prov_provisionee.c.obj
 .debug_ranges  0x00005188      0x130 examples/light_switch/client/CMakeFiles/light_switch_client_nrf52840_xxAA_s140_6.0.0.dir/__/__/__/mesh/prov/src/nrf_mesh_prov.c.obj
 .debug_ranges  0x000052b8       0x70 examples/light_switch/client/CMakeFiles/light_switch_client_nrf52840_xxAA_s140_6.0.0.dir/__/__/__/mesh/prov/src/provisioning.c.obj
 .debug_ranges  0x00005328       0x40 examples/light_switch/client/CMakeFiles/light_switch_client_nrf52840_xxAA_s140_6.0.0.dir/__/__/__/mesh/prov/src/prov_beacon.c.obj
 .debug_ranges  0x00005368       0xb8 examples/light_switch/client/CMakeFiles/light_switch_client_nrf52840_xxAA_s140_6.0.0.dir/__/__/__/mesh/prov/src/prov_utils.c.obj
 .debug_ranges  0x00005420      0x498 examples/light_switch/client/CMakeFiles/light_switch_client_nrf52840_xxAA_s140_6.0.0.dir/__/__/__/mesh/prov/src/prov_bearer_adv.c.obj
 .debug_ranges  0x000058b8       0x20 examples/light_switch/client/CMakeFiles/light_switch_client_nrf52840_xxAA_s140_6.0.0.dir/C_/b/nRF5_SDK_15.0.0_a53641a/modules/nrfx/mdk/system_nrf52840.c.obj
 .debug_ranges  0x000058d8       0x18 examples/light_switch/client/CMakeFiles/light_switch_client_nrf52840_xxAA_s140_6.0.0.dir/C_/b/nRF5_SDK_15.0.0_a53641a/components/libraries/util/app_error.c.obj
 .debug_ranges  0x000058f0       0x38 examples/light_switch/client/CMakeFiles/light_switch_client_nrf52840_xxAA_s140_6.0.0.dir/C_/b/nRF5_SDK_15.0.0_a53641a/components/libraries/util/app_util_platform.c.obj
 .debug_ranges  0x00005928      0x390 examples/light_switch/client/CMakeFiles/light_switch_client_nrf52840_xxAA_s140_6.0.0.dir/C_/b/nRF5_SDK_15.0.0_a53641a/components/libraries/timer/app_timer.c.obj
 .debug_ranges  0x00005cb8       0x10 examples/light_switch/client/CMakeFiles/light_switch_client_nrf52840_xxAA_s140_6.0.0.dir/C_/b/nRF5_SDK_15.0.0_a53641a/components/libraries/util/app_error_handler_gcc.c.obj
 .debug_ranges  0x00005cc8      0x130 external/rtt/librtt_nrf52840_xxAA.a(SEGGER_RTT.c.obj)
 .debug_ranges  0x00005df8       0x48 external/rtt/librtt_nrf52840_xxAA.a(SEGGER_RTT_printf.c.obj)
 .debug_ranges  0x00005e40      0x2e8 external/micro-ecc/libuECC_nrf52840_xxAA.a(uECC.c.obj)

.debug_line     0x00000000    0x186e7
 .debug_line    0x00000000      0xa53 examples/light_switch/client/CMakeFiles/light_switch_client_nrf52840_xxAA_s140_6.0.0.dir/src/main.c.obj
 .debug_line    0x00000a53      0x4a0 examples/light_switch/client/CMakeFiles/light_switch_client_nrf52840_xxAA_s140_6.0.0.dir/__/__/__/mesh/stack/src/mesh_stack.c.obj
 .debug_line    0x00000ef3      0x42e examples/light_switch/client/CMakeFiles/light_switch_client_nrf52840_xxAA_s140_6.0.0.dir/__/__/common/src/mesh_softdevice_init.c.obj
 .debug_line    0x00001321      0x4df examples/light_switch/client/CMakeFiles/light_switch_client_nrf52840_xxAA_s140_6.0.0.dir/__/__/common/src/mesh_provisionee.c.obj
 .debug_line    0x00001800      0x385 examples/light_switch/client/CMakeFiles/light_switch_client_nrf52840_xxAA_s140_6.0.0.dir/__/__/common/src/rtt_input.c.obj
 .debug_line    0x00001b85      0x43d examples/light_switch/client/CMakeFiles/light_switch_client_nrf52840_xxAA_s140_6.0.0.dir/__/__/common/src/simple_hal.c.obj
 .debug_line    0x00001fc2      0x1e5 examples/light_switch/client/CMakeFiles/light_switch_client_nrf52840_xxAA_s140_6.0.0.dir/__/__/nrf_mesh_weak.c.obj
 .debug_line    0x000021a7      0x473 examples/light_switch/client/CMakeFiles/light_switch_client_nrf52840_xxAA_s140_6.0.0.dir/__/__/common/src/app_error_weak.c.obj
 .debug_line    0x0000261a      0x22b examples/light_switch/client/CMakeFiles/light_switch_client_nrf52840_xxAA_s140_6.0.0.dir/__/__/common/src/assertion_handler_weak.c.obj
 .debug_line    0x00002845      0x225 examples/light_switch/client/CMakeFiles/light_switch_client_nrf52840_xxAA_s140_6.0.0.dir/__/__/__/mesh/core/src/nrf_mesh_configure.c.obj
 .debug_line    0x00002a6a      0x258 examples/light_switch/client/CMakeFiles/light_switch_client_nrf52840_xxAA_s140_6.0.0.dir/__/__/__/mesh/core/src/msg_cache.c.obj
 .debug_line    0x00002cc2      0xcb5 examples/light_switch/client/CMakeFiles/light_switch_client_nrf52840_xxAA_s140_6.0.0.dir/__/__/__/mesh/core/src/transport.c.obj
 .debug_line    0x00003977      0x2f6 examples/light_switch/client/CMakeFiles/light_switch_client_nrf52840_xxAA_s140_6.0.0.dir/__/__/__/mesh/core/src/event.c.obj
 .debug_line    0x00003c6d      0x4af examples/light_switch/client/CMakeFiles/light_switch_client_nrf52840_xxAA_s140_6.0.0.dir/__/__/__/mesh/core/src/packet_buffer.c.obj
 .debug_line    0x0000411c      0x6d1 examples/light_switch/client/CMakeFiles/light_switch_client_nrf52840_xxAA_s140_6.0.0.dir/__/__/__/mesh/core/src/flash_manager_defrag.c.obj
 .debug_line    0x000047ed      0x36f examples/light_switch/client/CMakeFiles/light_switch_client_nrf52840_xxAA_s140_6.0.0.dir/__/__/__/mesh/core/src/fifo.c.obj
 .debug_line    0x00004b5c      0x236 examples/light_switch/client/CMakeFiles/light_switch_client_nrf52840_xxAA_s140_6.0.0.dir/__/__/__/mesh/core/src/nrf_flash.c.obj
 .debug_line    0x00004d92      0x40e examples/light_switch/client/CMakeFiles/light_switch_client_nrf52840_xxAA_s140_6.0.0.dir/__/__/__/mesh/core/src/packet_mgr.c.obj
 .debug_line    0x000051a0      0x6b7 examples/light_switch/client/CMakeFiles/light_switch_client_nrf52840_xxAA_s140_6.0.0.dir/__/__/__/mesh/core/src/net_state.c.obj
 .debug_line    0x00005857      0x50b examples/light_switch/client/CMakeFiles/light_switch_client_nrf52840_xxAA_s140_6.0.0.dir/__/__/__/mesh/core/src/mesh_flash.c.obj
 .debug_line    0x00005d62      0x24c examples/light_switch/client/CMakeFiles/light_switch_client_nrf52840_xxAA_s140_6.0.0.dir/__/__/__/mesh/core/src/nrf_mesh_utils.c.obj
 .debug_line    0x00005fae      0x75e examples/light_switch/client/CMakeFiles/light_switch_client_nrf52840_xxAA_s140_6.0.0.dir/__/__/__/mesh/core/src/nrf_mesh.c.obj
 .debug_line    0x0000670c      0x284 examples/light_switch/client/CMakeFiles/light_switch_client_nrf52840_xxAA_s140_6.0.0.dir/__/__/__/mesh/core/src/queue.c.obj
 .debug_line    0x00006990      0x1fd examples/light_switch/client/CMakeFiles/light_switch_client_nrf52840_xxAA_s140_6.0.0.dir/__/__/__/mesh/core/src/hal.c.obj
 .debug_line    0x00006b8d      0x30a examples/light_switch/client/CMakeFiles/light_switch_client_nrf52840_xxAA_s140_6.0.0.dir/__/__/__/mesh/core/src/aes_cmac.c.obj
 .debug_line    0x00006e97      0x422 examples/light_switch/client/CMakeFiles/light_switch_client_nrf52840_xxAA_s140_6.0.0.dir/__/__/__/mesh/core/src/timer_scheduler.c.obj
 .debug_line    0x000072b9      0x3a5 examples/light_switch/client/CMakeFiles/light_switch_client_nrf52840_xxAA_s140_6.0.0.dir/__/__/__/mesh/core/src/timer.c.obj
 .debug_line    0x0000765e      0x124 examples/light_switch/client/CMakeFiles/light_switch_client_nrf52840_xxAA_s140_6.0.0.dir/__/__/__/mesh/core/src/ticker.c.obj
 .debug_line    0x00007782      0x269 examples/light_switch/client/CMakeFiles/light_switch_client_nrf52840_xxAA_s140_6.0.0.dir/__/__/__/mesh/core/src/rand.c.obj
 .debug_line    0x000079eb      0x25a examples/light_switch/client/CMakeFiles/light_switch_client_nrf52840_xxAA_s140_6.0.0.dir/__/__/__/mesh/core/src/nrf_mesh_opt.c.obj
 .debug_line    0x00007c45      0x54e examples/light_switch/client/CMakeFiles/light_switch_client_nrf52840_xxAA_s140_6.0.0.dir/__/__/__/mesh/core/src/timeslot.c.obj
 .debug_line    0x00008193      0x50d examples/light_switch/client/CMakeFiles/light_switch_client_nrf52840_xxAA_s140_6.0.0.dir/__/__/__/mesh/core/src/bearer_event.c.obj
 .debug_line    0x000086a0      0x48a examples/light_switch/client/CMakeFiles/light_switch_client_nrf52840_xxAA_s140_6.0.0.dir/__/__/__/mesh/core/src/enc.c.obj
 .debug_line    0x00008b2a      0x558 examples/light_switch/client/CMakeFiles/light_switch_client_nrf52840_xxAA_s140_6.0.0.dir/__/__/__/mesh/core/src/network.c.obj
 .debug_line    0x00009082      0x554 examples/light_switch/client/CMakeFiles/light_switch_client_nrf52840_xxAA_s140_6.0.0.dir/__/__/__/mesh/core/src/net_packet.c.obj
 .debug_line    0x000095d6      0x2f3 examples/light_switch/client/CMakeFiles/light_switch_client_nrf52840_xxAA_s140_6.0.0.dir/__/__/__/mesh/core/src/msqueue.c.obj
 .debug_line    0x000098c9      0x229 examples/light_switch/client/CMakeFiles/light_switch_client_nrf52840_xxAA_s140_6.0.0.dir/__/__/__/mesh/core/src/nrf_mesh_keygen.c.obj
 .debug_line    0x00009af2      0x2d3 examples/light_switch/client/CMakeFiles/light_switch_client_nrf52840_xxAA_s140_6.0.0.dir/__/__/__/mesh/core/src/list.c.obj
 .debug_line    0x00009dc5      0x278 examples/light_switch/client/CMakeFiles/light_switch_client_nrf52840_xxAA_s140_6.0.0.dir/__/__/__/mesh/core/src/log.c.obj
 .debug_line    0x0000a03d      0x8f9 examples/light_switch/client/CMakeFiles/light_switch_client_nrf52840_xxAA_s140_6.0.0.dir/__/__/__/mesh/core/src/flash_manager.c.obj
 .debug_line    0x0000a936      0x3a5 examples/light_switch/client/CMakeFiles/light_switch_client_nrf52840_xxAA_s140_6.0.0.dir/__/__/__/mesh/core/src/ccm_soft.c.obj
 .debug_line    0x0000acdb      0x1cd examples/light_switch/client/CMakeFiles/light_switch_client_nrf52840_xxAA_s140_6.0.0.dir/__/__/__/mesh/core/src/replay_cache.c.obj
 .debug_line    0x0000aea8      0x484 examples/light_switch/client/CMakeFiles/light_switch_client_nrf52840_xxAA_s140_6.0.0.dir/__/__/__/mesh/core/src/beacon.c.obj
 .debug_line    0x0000b32c      0x26c examples/light_switch/client/CMakeFiles/light_switch_client_nrf52840_xxAA_s140_6.0.0.dir/__/__/__/mesh/core/src/flash_manager_internal.c.obj
 .debug_line    0x0000b598      0x399 examples/light_switch/client/CMakeFiles/light_switch_client_nrf52840_xxAA_s140_6.0.0.dir/__/__/__/mesh/core/src/core_tx.c.obj
 .debug_line    0x0000b931      0x5ae examples/light_switch/client/CMakeFiles/light_switch_client_nrf52840_xxAA_s140_6.0.0.dir/__/__/__/mesh/core/src/heartbeat.c.obj
 .debug_line    0x0000bedf      0x5ee examples/light_switch/client/CMakeFiles/light_switch_client_nrf52840_xxAA_s140_6.0.0.dir/__/__/__/mesh/core/src/net_beacon.c.obj
 .debug_line    0x0000c4cd      0x4d1 examples/light_switch/client/CMakeFiles/light_switch_client_nrf52840_xxAA_s140_6.0.0.dir/__/__/__/mesh/core/src/core_tx_adv.c.obj
 .debug_line    0x0000c99e      0x32e examples/light_switch/client/CMakeFiles/light_switch_client_nrf52840_xxAA_s140_6.0.0.dir/__/__/__/mesh/bearer/src/ad_listener.c.obj
 .debug_line    0x0000cccc      0x3df examples/light_switch/client/CMakeFiles/light_switch_client_nrf52840_xxAA_s140_6.0.0.dir/__/__/__/mesh/bearer/src/ad_type_filter.c.obj
 .debug_line    0x0000d0ab      0x6e7 examples/light_switch/client/CMakeFiles/light_switch_client_nrf52840_xxAA_s140_6.0.0.dir/__/__/__/mesh/bearer/src/advertiser.c.obj
 .debug_line    0x0000d792      0x59f examples/light_switch/client/CMakeFiles/light_switch_client_nrf52840_xxAA_s140_6.0.0.dir/__/__/__/mesh/bearer/src/bearer_handler.c.obj
 .debug_line    0x0000dd31      0x370 examples/light_switch/client/CMakeFiles/light_switch_client_nrf52840_xxAA_s140_6.0.0.dir/__/__/__/mesh/bearer/src/broadcast.c.obj
 .debug_line    0x0000e0a1      0x31d examples/light_switch/client/CMakeFiles/light_switch_client_nrf52840_xxAA_s140_6.0.0.dir/__/__/__/mesh/bearer/src/filter_engine.c.obj
 .debug_line    0x0000e3be      0x28d examples/light_switch/client/CMakeFiles/light_switch_client_nrf52840_xxAA_s140_6.0.0.dir/__/__/__/mesh/bearer/src/radio_config.c.obj
 .debug_line    0x0000e64b      0x6ce examples/light_switch/client/CMakeFiles/light_switch_client_nrf52840_xxAA_s140_6.0.0.dir/__/__/__/mesh/bearer/src/scanner.c.obj
 .debug_line    0x0000ed19      0x31a examples/light_switch/client/CMakeFiles/light_switch_client_nrf52840_xxAA_s140_6.0.0.dir/__/__/__/mesh/bearer/src/mesh_pa_lna.c.obj
 .debug_line    0x0000f033      0x45f examples/light_switch/client/CMakeFiles/light_switch_client_nrf52840_xxAA_s140_6.0.0.dir/__/__/__/models/simple_on_off/src/simple_on_off_client.c.obj
 .debug_line    0x0000f492      0x307 examples/light_switch/client/CMakeFiles/light_switch_client_nrf52840_xxAA_s140_6.0.0.dir/__/__/__/models/config/src/composition_data.c.obj
 .debug_line    0x0000f799     0x1375 examples/light_switch/client/CMakeFiles/light_switch_client_nrf52840_xxAA_s140_6.0.0.dir/__/__/__/models/config/src/config_server.c.obj
 .debug_line    0x00010b0e       0xef examples/light_switch/client/CMakeFiles/light_switch_client_nrf52840_xxAA_s140_6.0.0.dir/__/__/__/models/config/src/packed_index_list.c.obj
 .debug_line    0x00010bfd      0x67d examples/light_switch/client/CMakeFiles/light_switch_client_nrf52840_xxAA_s140_6.0.0.dir/__/__/__/models/health/src/health_server.c.obj
 .debug_line    0x0001127a      0x411 examples/light_switch/client/CMakeFiles/light_switch_client_nrf52840_xxAA_s140_6.0.0.dir/__/__/__/mesh/access/src/access_publish.c.obj
 .debug_line    0x0001168b      0xf3e examples/light_switch/client/CMakeFiles/light_switch_client_nrf52840_xxAA_s140_6.0.0.dir/__/__/__/mesh/access/src/access.c.obj
 .debug_line    0x000125c9      0x516 examples/light_switch/client/CMakeFiles/light_switch_client_nrf52840_xxAA_s140_6.0.0.dir/__/__/__/mesh/access/src/access_reliable.c.obj
 .debug_line    0x00012adf      0x364 examples/light_switch/client/CMakeFiles/light_switch_client_nrf52840_xxAA_s140_6.0.0.dir/__/__/__/mesh/access/src/access_loopback.c.obj
 .debug_line    0x00012e43     0x13db examples/light_switch/client/CMakeFiles/light_switch_client_nrf52840_xxAA_s140_6.0.0.dir/__/__/__/mesh/access/src/device_state_manager.c.obj
 .debug_line    0x0001421e      0x621 examples/light_switch/client/CMakeFiles/light_switch_client_nrf52840_xxAA_s140_6.0.0.dir/__/__/__/mesh/prov/src/prov_provisionee.c.obj
 .debug_line    0x0001483f      0x551 examples/light_switch/client/CMakeFiles/light_switch_client_nrf52840_xxAA_s140_6.0.0.dir/__/__/__/mesh/prov/src/nrf_mesh_prov.c.obj
 .debug_line    0x00014d90      0x3b1 examples/light_switch/client/CMakeFiles/light_switch_client_nrf52840_xxAA_s140_6.0.0.dir/__/__/__/mesh/prov/src/provisioning.c.obj
 .debug_line    0x00015141      0x451 examples/light_switch/client/CMakeFiles/light_switch_client_nrf52840_xxAA_s140_6.0.0.dir/__/__/__/mesh/prov/src/prov_beacon.c.obj
 .debug_line    0x00015592      0x496 examples/light_switch/client/CMakeFiles/light_switch_client_nrf52840_xxAA_s140_6.0.0.dir/__/__/__/mesh/prov/src/prov_utils.c.obj
 .debug_line    0x00015a28      0xb1b examples/light_switch/client/CMakeFiles/light_switch_client_nrf52840_xxAA_s140_6.0.0.dir/__/__/__/mesh/prov/src/prov_bearer_adv.c.obj
 .debug_line    0x00016543      0x1ff examples/light_switch/client/CMakeFiles/light_switch_client_nrf52840_xxAA_s140_6.0.0.dir/C_/b/nRF5_SDK_15.0.0_a53641a/modules/nrfx/mdk/system_nrf52840.c.obj
 .debug_line    0x00016742      0x263 examples/light_switch/client/CMakeFiles/light_switch_client_nrf52840_xxAA_s140_6.0.0.dir/C_/b/nRF5_SDK_15.0.0_a53641a/components/libraries/util/app_error.c.obj
 .debug_line    0x000169a5      0x33a examples/light_switch/client/CMakeFiles/light_switch_client_nrf52840_xxAA_s140_6.0.0.dir/C_/b/nRF5_SDK_15.0.0_a53641a/components/libraries/util/app_util_platform.c.obj
 .debug_line    0x00016cdf      0x6bb examples/light_switch/client/CMakeFiles/light_switch_client_nrf52840_xxAA_s140_6.0.0.dir/C_/b/nRF5_SDK_15.0.0_a53641a/components/libraries/timer/app_timer.c.obj
 .debug_line    0x0001739a      0x208 examples/light_switch/client/CMakeFiles/light_switch_client_nrf52840_xxAA_s140_6.0.0.dir/C_/b/nRF5_SDK_15.0.0_a53641a/components/libraries/util/app_error_handler_gcc.c.obj
 .debug_line    0x000175a2      0x4c3 external/rtt/librtt_nrf52840_xxAA.a(SEGGER_RTT.c.obj)
 .debug_line    0x00017a65      0x285 external/rtt/librtt_nrf52840_xxAA.a(SEGGER_RTT_printf.c.obj)
 .debug_line    0x00017cea      0x9fd external/micro-ecc/libuECC_nrf52840_xxAA.a(uECC.c.obj)

.debug_str      0x00000000    0x145de
 .debug_str     0x00000000     0x2068 examples/light_switch/client/CMakeFiles/light_switch_client_nrf52840_xxAA_s140_6.0.0.dir/src/main.c.obj
                               0x242f (size before relaxing)
 .debug_str     0x00002068     0x10f9 examples/light_switch/client/CMakeFiles/light_switch_client_nrf52840_xxAA_s140_6.0.0.dir/__/__/__/mesh/stack/src/mesh_stack.c.obj
                               0x2746 (size before relaxing)
 .debug_str     0x00003161      0x6b8 examples/light_switch/client/CMakeFiles/light_switch_client_nrf52840_xxAA_s140_6.0.0.dir/__/__/common/src/mesh_softdevice_init.c.obj
                               0x1632 (size before relaxing)
 .debug_str     0x00003819     0x18a3 examples/light_switch/client/CMakeFiles/light_switch_client_nrf52840_xxAA_s140_6.0.0.dir/__/__/common/src/mesh_provisionee.c.obj
                               0x24e6 (size before relaxing)
 .debug_str     0x000050bc      0x1c9 examples/light_switch/client/CMakeFiles/light_switch_client_nrf52840_xxAA_s140_6.0.0.dir/__/__/common/src/rtt_input.c.obj
                                0x86a (size before relaxing)
 .debug_str     0x00005285      0x1d7 examples/light_switch/client/CMakeFiles/light_switch_client_nrf52840_xxAA_s140_6.0.0.dir/__/__/common/src/simple_hal.c.obj
                                0xdd0 (size before relaxing)
 .debug_str     0x0000545c       0x3c examples/light_switch/client/CMakeFiles/light_switch_client_nrf52840_xxAA_s140_6.0.0.dir/__/__/nrf_mesh_weak.c.obj
                                0x61c (size before relaxing)
 .debug_str     0x00005498       0xa0 examples/light_switch/client/CMakeFiles/light_switch_client_nrf52840_xxAA_s140_6.0.0.dir/__/__/common/src/app_error_weak.c.obj
                                0x85d (size before relaxing)
 .debug_str     0x00005538       0x30 examples/light_switch/client/CMakeFiles/light_switch_client_nrf52840_xxAA_s140_6.0.0.dir/__/__/common/src/assertion_handler_weak.c.obj
                                0x672 (size before relaxing)
 .debug_str     0x00005568      0x1ac examples/light_switch/client/CMakeFiles/light_switch_client_nrf52840_xxAA_s140_6.0.0.dir/__/__/__/mesh/core/src/nrf_mesh_configure.c.obj
                                0x7ed (size before relaxing)
 .debug_str     0x00005714       0xbb examples/light_switch/client/CMakeFiles/light_switch_client_nrf52840_xxAA_s140_6.0.0.dir/__/__/__/mesh/core/src/msg_cache.c.obj
                                0x6b9 (size before relaxing)
 .debug_str     0x000057cf     0x16bb examples/light_switch/client/CMakeFiles/light_switch_client_nrf52840_xxAA_s140_6.0.0.dir/__/__/__/mesh/core/src/transport.c.obj
                               0x3148 (size before relaxing)
 .debug_str     0x00006e8a      0x106 examples/light_switch/client/CMakeFiles/light_switch_client_nrf52840_xxAA_s140_6.0.0.dir/__/__/__/mesh/core/src/event.c.obj
                               0x1753 (size before relaxing)
 .debug_str     0x00006f90      0x30d examples/light_switch/client/CMakeFiles/light_switch_client_nrf52840_xxAA_s140_6.0.0.dir/__/__/__/mesh/core/src/packet_buffer.c.obj
                                0xb1b (size before relaxing)
 .debug_str     0x0000729d      0x914 examples/light_switch/client/CMakeFiles/light_switch_client_nrf52840_xxAA_s140_6.0.0.dir/__/__/__/mesh/core/src/flash_manager_defrag.c.obj
                               0x118d (size before relaxing)
 .debug_str     0x00007bb1       0xa5 examples/light_switch/client/CMakeFiles/light_switch_client_nrf52840_xxAA_s140_6.0.0.dir/__/__/__/mesh/core/src/fifo.c.obj
                                0x6db (size before relaxing)
 .debug_str     0x00007c56       0xd9 examples/light_switch/client/CMakeFiles/light_switch_client_nrf52840_xxAA_s140_6.0.0.dir/__/__/__/mesh/core/src/nrf_flash.c.obj
                                0x6f4 (size before relaxing)
 .debug_str     0x00007d2f      0x287 examples/light_switch/client/CMakeFiles/light_switch_client_nrf52840_xxAA_s140_6.0.0.dir/__/__/__/mesh/core/src/packet_mgr.c.obj
                                0x9a5 (size before relaxing)
 .debug_str     0x00007fb6      0x585 examples/light_switch/client/CMakeFiles/light_switch_client_nrf52840_xxAA_s140_6.0.0.dir/__/__/__/mesh/core/src/net_state.c.obj
                               0x216e (size before relaxing)
 .debug_str     0x0000853b      0x387 examples/light_switch/client/CMakeFiles/light_switch_client_nrf52840_xxAA_s140_6.0.0.dir/__/__/__/mesh/core/src/mesh_flash.c.obj
                                0xd09 (size before relaxing)
 .debug_str     0x000088c2       0x9b examples/light_switch/client/CMakeFiles/light_switch_client_nrf52840_xxAA_s140_6.0.0.dir/__/__/__/mesh/core/src/nrf_mesh_utils.c.obj
                                0x751 (size before relaxing)
 .debug_str     0x0000895d      0x621 examples/light_switch/client/CMakeFiles/light_switch_client_nrf52840_xxAA_s140_6.0.0.dir/__/__/__/mesh/core/src/nrf_mesh.c.obj
                               0x2167 (size before relaxing)
 .debug_str     0x00008f7e       0x53 examples/light_switch/client/CMakeFiles/light_switch_client_nrf52840_xxAA_s140_6.0.0.dir/__/__/__/mesh/core/src/queue.c.obj
                                0x683 (size before relaxing)
 .debug_str     0x00008fd1       0x86 examples/light_switch/client/CMakeFiles/light_switch_client_nrf52840_xxAA_s140_6.0.0.dir/__/__/__/mesh/core/src/hal.c.obj
                                0x7ab (size before relaxing)
 .debug_str     0x00009057      0x16e examples/light_switch/client/CMakeFiles/light_switch_client_nrf52840_xxAA_s140_6.0.0.dir/__/__/__/mesh/core/src/aes_cmac.c.obj
                                0xc0f (size before relaxing)
 .debug_str     0x000091c5      0x146 examples/light_switch/client/CMakeFiles/light_switch_client_nrf52840_xxAA_s140_6.0.0.dir/__/__/__/mesh/core/src/timer_scheduler.c.obj
                                0x934 (size before relaxing)
 .debug_str     0x0000930b      0x222 examples/light_switch/client/CMakeFiles/light_switch_client_nrf52840_xxAA_s140_6.0.0.dir/__/__/__/mesh/core/src/timer.c.obj
                                0x8ae (size before relaxing)
 .debug_str     0x0000952d       0x42 examples/light_switch/client/CMakeFiles/light_switch_client_nrf52840_xxAA_s140_6.0.0.dir/__/__/__/mesh/core/src/ticker.c.obj
                                0x34c (size before relaxing)
 .debug_str     0x0000956f       0xac examples/light_switch/client/CMakeFiles/light_switch_client_nrf52840_xxAA_s140_6.0.0.dir/__/__/__/mesh/core/src/rand.c.obj
                                0x76e (size before relaxing)
 .debug_str     0x0000961b       0x88 examples/light_switch/client/CMakeFiles/light_switch_client_nrf52840_xxAA_s140_6.0.0.dir/__/__/__/mesh/core/src/nrf_mesh_opt.c.obj
                                0x932 (size before relaxing)
 .debug_str     0x000096a3      0x8fe examples/light_switch/client/CMakeFiles/light_switch_client_nrf52840_xxAA_s140_6.0.0.dir/__/__/__/mesh/core/src/timeslot.c.obj
                               0x191f (size before relaxing)
 .debug_str     0x00009fa1      0x2d6 examples/light_switch/client/CMakeFiles/light_switch_client_nrf52840_xxAA_s140_6.0.0.dir/__/__/__/mesh/core/src/bearer_event.c.obj
                                0xefe (size before relaxing)
 .debug_str     0x0000a277      0x16e examples/light_switch/client/CMakeFiles/light_switch_client_nrf52840_xxAA_s140_6.0.0.dir/__/__/__/mesh/core/src/enc.c.obj
                                0xee6 (size before relaxing)
 .debug_str     0x0000a3e5      0x312 examples/light_switch/client/CMakeFiles/light_switch_client_nrf52840_xxAA_s140_6.0.0.dir/__/__/__/mesh/core/src/network.c.obj
                               0x14be (size before relaxing)
 .debug_str     0x0000a6f7      0x30f examples/light_switch/client/CMakeFiles/light_switch_client_nrf52840_xxAA_s140_6.0.0.dir/__/__/__/mesh/core/src/net_packet.c.obj
                                0xe86 (size before relaxing)
 .debug_str     0x0000aa06       0x53 examples/light_switch/client/CMakeFiles/light_switch_client_nrf52840_xxAA_s140_6.0.0.dir/__/__/__/mesh/core/src/msqueue.c.obj
                                0x6bf (size before relaxing)
 .debug_str     0x0000aa59       0xc8 examples/light_switch/client/CMakeFiles/light_switch_client_nrf52840_xxAA_s140_6.0.0.dir/__/__/__/mesh/core/src/nrf_mesh_keygen.c.obj
                                0x397 (size before relaxing)
 .debug_str     0x0000ab21       0x6a examples/light_switch/client/CMakeFiles/light_switch_client_nrf52840_xxAA_s140_6.0.0.dir/__/__/__/mesh/core/src/list.c.obj
                                0x2be (size before relaxing)
 .debug_str     0x0000ab8b       0xf7 examples/light_switch/client/CMakeFiles/light_switch_client_nrf52840_xxAA_s140_6.0.0.dir/__/__/__/mesh/core/src/log.c.obj
                                0x7d0 (size before relaxing)
 .debug_str     0x0000ac82      0x52b examples/light_switch/client/CMakeFiles/light_switch_client_nrf52840_xxAA_s140_6.0.0.dir/__/__/__/mesh/core/src/flash_manager.c.obj
                               0x1578 (size before relaxing)
 .debug_str     0x0000b1ad       0xd2 examples/light_switch/client/CMakeFiles/light_switch_client_nrf52840_xxAA_s140_6.0.0.dir/__/__/__/mesh/core/src/ccm_soft.c.obj
                                0xcef (size before relaxing)
 .debug_str     0x0000b27f       0x92 examples/light_switch/client/CMakeFiles/light_switch_client_nrf52840_xxAA_s140_6.0.0.dir/__/__/__/mesh/core/src/replay_cache.c.obj
                                0x68d (size before relaxing)
 .debug_str     0x0000b311       0xd4 examples/light_switch/client/CMakeFiles/light_switch_client_nrf52840_xxAA_s140_6.0.0.dir/__/__/__/mesh/core/src/beacon.c.obj
                               0x11a8 (size before relaxing)
 .debug_str     0x0000b3e5       0x38 examples/light_switch/client/CMakeFiles/light_switch_client_nrf52840_xxAA_s140_6.0.0.dir/__/__/__/mesh/core/src/flash_manager_internal.c.obj
                                0x7a4 (size before relaxing)
 .debug_str     0x0000b41d      0x2be examples/light_switch/client/CMakeFiles/light_switch_client_nrf52840_xxAA_s140_6.0.0.dir/__/__/__/mesh/core/src/core_tx.c.obj
                                0xbef (size before relaxing)
 .debug_str     0x0000b6db      0x418 examples/light_switch/client/CMakeFiles/light_switch_client_nrf52840_xxAA_s140_6.0.0.dir/__/__/__/mesh/core/src/heartbeat.c.obj
                               0x22a8 (size before relaxing)
 .debug_str     0x0000baf3      0x25c examples/light_switch/client/CMakeFiles/light_switch_client_nrf52840_xxAA_s140_6.0.0.dir/__/__/__/mesh/core/src/net_beacon.c.obj
                               0x2145 (size before relaxing)
 .debug_str     0x0000bd4f      0x11f examples/light_switch/client/CMakeFiles/light_switch_client_nrf52840_xxAA_s140_6.0.0.dir/__/__/__/mesh/core/src/core_tx_adv.c.obj
                               0x13af (size before relaxing)
 .debug_str     0x0000be6e      0x185 examples/light_switch/client/CMakeFiles/light_switch_client_nrf52840_xxAA_s140_6.0.0.dir/__/__/__/mesh/bearer/src/ad_listener.c.obj
                                0xbe1 (size before relaxing)
 .debug_str     0x0000bff3      0x162 examples/light_switch/client/CMakeFiles/light_switch_client_nrf52840_xxAA_s140_6.0.0.dir/__/__/__/mesh/bearer/src/ad_type_filter.c.obj
                                0x99f (size before relaxing)
 .debug_str     0x0000c155      0x321 examples/light_switch/client/CMakeFiles/light_switch_client_nrf52840_xxAA_s140_6.0.0.dir/__/__/__/mesh/bearer/src/advertiser.c.obj
                               0x161e (size before relaxing)
 .debug_str     0x0000c476      0x4e3 examples/light_switch/client/CMakeFiles/light_switch_client_nrf52840_xxAA_s140_6.0.0.dir/__/__/__/mesh/bearer/src/bearer_handler.c.obj
                               0x12fd (size before relaxing)
 .debug_str     0x0000c959      0x219 examples/light_switch/client/CMakeFiles/light_switch_client_nrf52840_xxAA_s140_6.0.0.dir/__/__/__/mesh/bearer/src/broadcast.c.obj
                               0x115c (size before relaxing)
 .debug_str     0x0000cb72       0x72 examples/light_switch/client/CMakeFiles/light_switch_client_nrf52840_xxAA_s140_6.0.0.dir/__/__/__/mesh/bearer/src/filter_engine.c.obj
                                0x80c (size before relaxing)
 .debug_str     0x0000cbe4       0x79 examples/light_switch/client/CMakeFiles/light_switch_client_nrf52840_xxAA_s140_6.0.0.dir/__/__/__/mesh/bearer/src/radio_config.c.obj
                                0x928 (size before relaxing)
 .debug_str     0x0000cc5d      0x49c examples/light_switch/client/CMakeFiles/light_switch_client_nrf52840_xxAA_s140_6.0.0.dir/__/__/__/mesh/bearer/src/scanner.c.obj
                               0x1b81 (size before relaxing)
 .debug_str     0x0000d0f9      0x15f examples/light_switch/client/CMakeFiles/light_switch_client_nrf52840_xxAA_s140_6.0.0.dir/__/__/__/mesh/bearer/src/mesh_pa_lna.c.obj
                                0x922 (size before relaxing)
 .debug_str     0x0000d258      0x459 examples/light_switch/client/CMakeFiles/light_switch_client_nrf52840_xxAA_s140_6.0.0.dir/__/__/__/models/simple_on_off/src/simple_on_off_client.c.obj
                               0x1104 (size before relaxing)
 .debug_str     0x0000d6b1      0x22b examples/light_switch/client/CMakeFiles/light_switch_client_nrf52840_xxAA_s140_6.0.0.dir/__/__/__/models/config/src/composition_data.c.obj
                                0x8dd (size before relaxing)
 .debug_str     0x0000d8dc     0x2696 examples/light_switch/client/CMakeFiles/light_switch_client_nrf52840_xxAA_s140_6.0.0.dir/__/__/__/models/config/src/config_server.c.obj
                               0x50df (size before relaxing)
 .debug_str     0x0000ff72       0x69 examples/light_switch/client/CMakeFiles/light_switch_client_nrf52840_xxAA_s140_6.0.0.dir/__/__/__/models/config/src/packed_index_list.c.obj
                                0x24d (size before relaxing)
 .debug_str     0x0000ffdb      0x60a examples/light_switch/client/CMakeFiles/light_switch_client_nrf52840_xxAA_s140_6.0.0.dir/__/__/__/models/health/src/health_server.c.obj
                               0x16b9 (size before relaxing)
 .debug_str     0x000105e5      0x264 examples/light_switch/client/CMakeFiles/light_switch_client_nrf52840_xxAA_s140_6.0.0.dir/__/__/__/mesh/access/src/access_publish.c.obj
                                0xbcc (size before relaxing)
 .debug_str     0x00010849      0x8b2 examples/light_switch/client/CMakeFiles/light_switch_client_nrf52840_xxAA_s140_6.0.0.dir/__/__/__/mesh/access/src/access.c.obj
                               0x300a (size before relaxing)
 .debug_str     0x000110fb      0x12f examples/light_switch/client/CMakeFiles/light_switch_client_nrf52840_xxAA_s140_6.0.0.dir/__/__/__/mesh/access/src/access_reliable.c.obj
                               0x1006 (size before relaxing)
 .debug_str     0x0001122a       0x87 examples/light_switch/client/CMakeFiles/light_switch_client_nrf52840_xxAA_s140_6.0.0.dir/__/__/__/mesh/access/src/access_loopback.c.obj
                                0xb88 (size before relaxing)
 .debug_str     0x000112b1      0xd0b examples/light_switch/client/CMakeFiles/light_switch_client_nrf52840_xxAA_s140_6.0.0.dir/__/__/__/mesh/access/src/device_state_manager.c.obj
                               0x3354 (size before relaxing)
 .debug_str     0x00011fbc      0x5c9 examples/light_switch/client/CMakeFiles/light_switch_client_nrf52840_xxAA_s140_6.0.0.dir/__/__/__/mesh/prov/src/prov_provisionee.c.obj
                               0x21d9 (size before relaxing)
 .debug_str     0x00012585      0x247 examples/light_switch/client/CMakeFiles/light_switch_client_nrf52840_xxAA_s140_6.0.0.dir/__/__/__/mesh/prov/src/nrf_mesh_prov.c.obj
                               0x1dda (size before relaxing)
 .debug_str     0x000127cc       0xed examples/light_switch/client/CMakeFiles/light_switch_client_nrf52840_xxAA_s140_6.0.0.dir/__/__/__/mesh/prov/src/provisioning.c.obj
                                0xf29 (size before relaxing)
 .debug_str     0x000128b9       0xb1 examples/light_switch/client/CMakeFiles/light_switch_client_nrf52840_xxAA_s140_6.0.0.dir/__/__/__/mesh/prov/src/prov_beacon.c.obj
                               0x1a01 (size before relaxing)
 .debug_str     0x0001296a      0x19e examples/light_switch/client/CMakeFiles/light_switch_client_nrf52840_xxAA_s140_6.0.0.dir/__/__/__/mesh/prov/src/prov_utils.c.obj
                               0x1f46 (size before relaxing)
 .debug_str     0x00012b08      0x417 examples/light_switch/client/CMakeFiles/light_switch_client_nrf52840_xxAA_s140_6.0.0.dir/__/__/__/mesh/prov/src/prov_bearer_adv.c.obj
                               0x1c65 (size before relaxing)
 .debug_str     0x00012f1f      0x3bb examples/light_switch/client/CMakeFiles/light_switch_client_nrf52840_xxAA_s140_6.0.0.dir/C_/b/nRF5_SDK_15.0.0_a53641a/modules/nrfx/mdk/system_nrf52840.c.obj
                                0x911 (size before relaxing)
 .debug_str     0x000132da       0x9c examples/light_switch/client/CMakeFiles/light_switch_client_nrf52840_xxAA_s140_6.0.0.dir/C_/b/nRF5_SDK_15.0.0_a53641a/components/libraries/util/app_error.c.obj
                                0x724 (size before relaxing)
 .debug_str     0x00013376      0x1e2 examples/light_switch/client/CMakeFiles/light_switch_client_nrf52840_xxAA_s140_6.0.0.dir/C_/b/nRF5_SDK_15.0.0_a53641a/components/libraries/util/app_util_platform.c.obj
                                0xc8d (size before relaxing)
 .debug_str     0x00013558      0x608 examples/light_switch/client/CMakeFiles/light_switch_client_nrf52840_xxAA_s140_6.0.0.dir/C_/b/nRF5_SDK_15.0.0_a53641a/components/libraries/timer/app_timer.c.obj
                               0x1295 (size before relaxing)
 .debug_str     0x00013b60       0x4f examples/light_switch/client/CMakeFiles/light_switch_client_nrf52840_xxAA_s140_6.0.0.dir/C_/b/nRF5_SDK_15.0.0_a53641a/components/libraries/util/app_error_handler_gcc.c.obj
                                0x689 (size before relaxing)
 .debug_str     0x00013baf      0x2bf external/rtt/librtt_nrf52840_xxAA.a(SEGGER_RTT.c.obj)
                                0x922 (size before relaxing)
 .debug_str     0x00013e6e       0xdf external/rtt/librtt_nrf52840_xxAA.a(SEGGER_RTT_printf.c.obj)
                                0x792 (size before relaxing)
 .debug_str     0x00013f4d      0x691 external/micro-ecc/libuECC_nrf52840_xxAA.a(uECC.c.obj)
                                0x880 (size before relaxing)

.debug_frame    0x00000000     0x7148
 .debug_frame   0x00000000      0x148 examples/light_switch/client/CMakeFiles/light_switch_client_nrf52840_xxAA_s140_6.0.0.dir/src/main.c.obj
 .debug_frame   0x00000148       0xcc examples/light_switch/client/CMakeFiles/light_switch_client_nrf52840_xxAA_s140_6.0.0.dir/__/__/__/mesh/stack/src/mesh_stack.c.obj
 .debug_frame   0x00000214       0x90 examples/light_switch/client/CMakeFiles/light_switch_client_nrf52840_xxAA_s140_6.0.0.dir/__/__/common/src/mesh_softdevice_init.c.obj
 .debug_frame   0x000002a4       0x70 examples/light_switch/client/CMakeFiles/light_switch_client_nrf52840_xxAA_s140_6.0.0.dir/__/__/common/src/mesh_provisionee.c.obj
 .debug_frame   0x00000314       0x60 examples/light_switch/client/CMakeFiles/light_switch_client_nrf52840_xxAA_s140_6.0.0.dir/__/__/common/src/rtt_input.c.obj
 .debug_frame   0x00000374       0xc8 examples/light_switch/client/CMakeFiles/light_switch_client_nrf52840_xxAA_s140_6.0.0.dir/__/__/common/src/simple_hal.c.obj
 .debug_frame   0x0000043c       0x30 examples/light_switch/client/CMakeFiles/light_switch_client_nrf52840_xxAA_s140_6.0.0.dir/__/__/nrf_mesh_weak.c.obj
 .debug_frame   0x0000046c       0x34 examples/light_switch/client/CMakeFiles/light_switch_client_nrf52840_xxAA_s140_6.0.0.dir/__/__/common/src/app_error_weak.c.obj
 .debug_frame   0x000004a0       0x28 examples/light_switch/client/CMakeFiles/light_switch_client_nrf52840_xxAA_s140_6.0.0.dir/__/__/common/src/assertion_handler_weak.c.obj
 .debug_frame   0x000004c8       0x4c examples/light_switch/client/CMakeFiles/light_switch_client_nrf52840_xxAA_s140_6.0.0.dir/__/__/__/mesh/core/src/nrf_mesh_configure.c.obj
 .debug_frame   0x00000514       0x6c examples/light_switch/client/CMakeFiles/light_switch_client_nrf52840_xxAA_s140_6.0.0.dir/__/__/__/mesh/core/src/msg_cache.c.obj
 .debug_frame   0x00000580      0x404 examples/light_switch/client/CMakeFiles/light_switch_client_nrf52840_xxAA_s140_6.0.0.dir/__/__/__/mesh/core/src/transport.c.obj
 .debug_frame   0x00000984       0x68 examples/light_switch/client/CMakeFiles/light_switch_client_nrf52840_xxAA_s140_6.0.0.dir/__/__/__/mesh/core/src/event.c.obj
 .debug_frame   0x000009ec      0x128 examples/light_switch/client/CMakeFiles/light_switch_client_nrf52840_xxAA_s140_6.0.0.dir/__/__/__/mesh/core/src/packet_buffer.c.obj
 .debug_frame   0x00000b14      0x24c examples/light_switch/client/CMakeFiles/light_switch_client_nrf52840_xxAA_s140_6.0.0.dir/__/__/__/mesh/core/src/flash_manager_defrag.c.obj
 .debug_frame   0x00000d60       0xd0 examples/light_switch/client/CMakeFiles/light_switch_client_nrf52840_xxAA_s140_6.0.0.dir/__/__/__/mesh/core/src/fifo.c.obj
 .debug_frame   0x00000e30       0x54 examples/light_switch/client/CMakeFiles/light_switch_client_nrf52840_xxAA_s140_6.0.0.dir/__/__/__/mesh/core/src/nrf_flash.c.obj
 .debug_frame   0x00000e84       0xa0 examples/light_switch/client/CMakeFiles/light_switch_client_nrf52840_xxAA_s140_6.0.0.dir/__/__/__/mesh/core/src/packet_mgr.c.obj
 .debug_frame   0x00000f24      0x298 examples/light_switch/client/CMakeFiles/light_switch_client_nrf52840_xxAA_s140_6.0.0.dir/__/__/__/mesh/core/src/net_state.c.obj
 .debug_frame   0x000011bc      0x150 examples/light_switch/client/CMakeFiles/light_switch_client_nrf52840_xxAA_s140_6.0.0.dir/__/__/__/mesh/core/src/mesh_flash.c.obj
 .debug_frame   0x0000130c       0x50 examples/light_switch/client/CMakeFiles/light_switch_client_nrf52840_xxAA_s140_6.0.0.dir/__/__/__/mesh/core/src/nrf_mesh_utils.c.obj
 .debug_frame   0x0000135c      0x1a0 examples/light_switch/client/CMakeFiles/light_switch_client_nrf52840_xxAA_s140_6.0.0.dir/__/__/__/mesh/core/src/nrf_mesh.c.obj
 .debug_frame   0x000014fc       0x74 examples/light_switch/client/CMakeFiles/light_switch_client_nrf52840_xxAA_s140_6.0.0.dir/__/__/__/mesh/core/src/queue.c.obj
 .debug_frame   0x00001570       0x48 examples/light_switch/client/CMakeFiles/light_switch_client_nrf52840_xxAA_s140_6.0.0.dir/__/__/__/mesh/core/src/hal.c.obj
 .debug_frame   0x000015b8       0x6c examples/light_switch/client/CMakeFiles/light_switch_client_nrf52840_xxAA_s140_6.0.0.dir/__/__/__/mesh/core/src/aes_cmac.c.obj
 .debug_frame   0x00001624      0x134 examples/light_switch/client/CMakeFiles/light_switch_client_nrf52840_xxAA_s140_6.0.0.dir/__/__/__/mesh/core/src/timer_scheduler.c.obj
 .debug_frame   0x00001758      0x10c examples/light_switch/client/CMakeFiles/light_switch_client_nrf52840_xxAA_s140_6.0.0.dir/__/__/__/mesh/core/src/timer.c.obj
 .debug_frame   0x00001864       0x4c examples/light_switch/client/CMakeFiles/light_switch_client_nrf52840_xxAA_s140_6.0.0.dir/__/__/__/mesh/core/src/ticker.c.obj
 .debug_frame   0x000018b0       0x84 examples/light_switch/client/CMakeFiles/light_switch_client_nrf52840_xxAA_s140_6.0.0.dir/__/__/__/mesh/core/src/rand.c.obj
 .debug_frame   0x00001934       0x30 examples/light_switch/client/CMakeFiles/light_switch_client_nrf52840_xxAA_s140_6.0.0.dir/__/__/__/mesh/core/src/nrf_mesh_opt.c.obj
 .debug_frame   0x00001964      0x1a0 examples/light_switch/client/CMakeFiles/light_switch_client_nrf52840_xxAA_s140_6.0.0.dir/__/__/__/mesh/core/src/timeslot.c.obj
 .debug_frame   0x00001b04      0x1bc examples/light_switch/client/CMakeFiles/light_switch_client_nrf52840_xxAA_s140_6.0.0.dir/__/__/__/mesh/core/src/bearer_event.c.obj
 .debug_frame   0x00001cc0      0x15c examples/light_switch/client/CMakeFiles/light_switch_client_nrf52840_xxAA_s140_6.0.0.dir/__/__/__/mesh/core/src/enc.c.obj
 .debug_frame   0x00001e1c      0x100 examples/light_switch/client/CMakeFiles/light_switch_client_nrf52840_xxAA_s140_6.0.0.dir/__/__/__/mesh/core/src/network.c.obj
 .debug_frame   0x00001f1c      0x114 examples/light_switch/client/CMakeFiles/light_switch_client_nrf52840_xxAA_s140_6.0.0.dir/__/__/__/mesh/core/src/net_packet.c.obj
 .debug_frame   0x00002030       0xb4 examples/light_switch/client/CMakeFiles/light_switch_client_nrf52840_xxAA_s140_6.0.0.dir/__/__/__/mesh/core/src/msqueue.c.obj
 .debug_frame   0x000020e4       0xb4 examples/light_switch/client/CMakeFiles/light_switch_client_nrf52840_xxAA_s140_6.0.0.dir/__/__/__/mesh/core/src/nrf_mesh_keygen.c.obj
 .debug_frame   0x00002198       0xc8 examples/light_switch/client/CMakeFiles/light_switch_client_nrf52840_xxAA_s140_6.0.0.dir/__/__/__/mesh/core/src/list.c.obj
 .debug_frame   0x00002260       0xb0 examples/light_switch/client/CMakeFiles/light_switch_client_nrf52840_xxAA_s140_6.0.0.dir/__/__/__/mesh/core/src/log.c.obj
 .debug_frame   0x00002310      0x320 examples/light_switch/client/CMakeFiles/light_switch_client_nrf52840_xxAA_s140_6.0.0.dir/__/__/__/mesh/core/src/flash_manager.c.obj
 .debug_frame   0x00002630       0xf4 examples/light_switch/client/CMakeFiles/light_switch_client_nrf52840_xxAA_s140_6.0.0.dir/__/__/__/mesh/core/src/ccm_soft.c.obj
 .debug_frame   0x00002724       0x80 examples/light_switch/client/CMakeFiles/light_switch_client_nrf52840_xxAA_s140_6.0.0.dir/__/__/__/mesh/core/src/replay_cache.c.obj
 .debug_frame   0x000027a4       0x60 examples/light_switch/client/CMakeFiles/light_switch_client_nrf52840_xxAA_s140_6.0.0.dir/__/__/__/mesh/core/src/beacon.c.obj
 .debug_frame   0x00002804       0x34 examples/light_switch/client/CMakeFiles/light_switch_client_nrf52840_xxAA_s140_6.0.0.dir/__/__/__/mesh/core/src/flash_manager_internal.c.obj
 .debug_frame   0x00002838       0xf0 examples/light_switch/client/CMakeFiles/light_switch_client_nrf52840_xxAA_s140_6.0.0.dir/__/__/__/mesh/core/src/core_tx.c.obj
 .debug_frame   0x00002928      0x160 examples/light_switch/client/CMakeFiles/light_switch_client_nrf52840_xxAA_s140_6.0.0.dir/__/__/__/mesh/core/src/heartbeat.c.obj
 .debug_frame   0x00002a88      0x138 examples/light_switch/client/CMakeFiles/light_switch_client_nrf52840_xxAA_s140_6.0.0.dir/__/__/__/mesh/core/src/net_beacon.c.obj
 .debug_frame   0x00002bc0      0x150 examples/light_switch/client/CMakeFiles/light_switch_client_nrf52840_xxAA_s140_6.0.0.dir/__/__/__/mesh/core/src/core_tx_adv.c.obj
 .debug_frame   0x00002d10       0x6c examples/light_switch/client/CMakeFiles/light_switch_client_nrf52840_xxAA_s140_6.0.0.dir/__/__/__/mesh/bearer/src/ad_listener.c.obj
 .debug_frame   0x00002d7c       0xa8 examples/light_switch/client/CMakeFiles/light_switch_client_nrf52840_xxAA_s140_6.0.0.dir/__/__/__/mesh/bearer/src/ad_type_filter.c.obj
 .debug_frame   0x00002e24      0x284 examples/light_switch/client/CMakeFiles/light_switch_client_nrf52840_xxAA_s140_6.0.0.dir/__/__/__/mesh/bearer/src/advertiser.c.obj
 .debug_frame   0x000030a8      0x1c8 examples/light_switch/client/CMakeFiles/light_switch_client_nrf52840_xxAA_s140_6.0.0.dir/__/__/__/mesh/bearer/src/bearer_handler.c.obj
 .debug_frame   0x00003270       0x7c examples/light_switch/client/CMakeFiles/light_switch_client_nrf52840_xxAA_s140_6.0.0.dir/__/__/__/mesh/bearer/src/broadcast.c.obj
 .debug_frame   0x000032ec       0x74 examples/light_switch/client/CMakeFiles/light_switch_client_nrf52840_xxAA_s140_6.0.0.dir/__/__/__/mesh/bearer/src/filter_engine.c.obj
 .debug_frame   0x00003360       0x94 examples/light_switch/client/CMakeFiles/light_switch_client_nrf52840_xxAA_s140_6.0.0.dir/__/__/__/mesh/bearer/src/radio_config.c.obj
 .debug_frame   0x000033f4      0x2cc examples/light_switch/client/CMakeFiles/light_switch_client_nrf52840_xxAA_s140_6.0.0.dir/__/__/__/mesh/bearer/src/scanner.c.obj
 .debug_frame   0x000036c0      0x10c examples/light_switch/client/CMakeFiles/light_switch_client_nrf52840_xxAA_s140_6.0.0.dir/__/__/__/mesh/bearer/src/mesh_pa_lna.c.obj
 .debug_frame   0x000037cc      0x110 examples/light_switch/client/CMakeFiles/light_switch_client_nrf52840_xxAA_s140_6.0.0.dir/__/__/__/models/simple_on_off/src/simple_on_off_client.c.obj
 .debug_frame   0x000038dc       0x40 examples/light_switch/client/CMakeFiles/light_switch_client_nrf52840_xxAA_s140_6.0.0.dir/__/__/__/models/config/src/composition_data.c.obj
 .debug_frame   0x0000391c      0x8ec examples/light_switch/client/CMakeFiles/light_switch_client_nrf52840_xxAA_s140_6.0.0.dir/__/__/__/models/config/src/config_server.c.obj
 .debug_frame   0x00004208       0x2c examples/light_switch/client/CMakeFiles/light_switch_client_nrf52840_xxAA_s140_6.0.0.dir/__/__/__/models/config/src/packed_index_list.c.obj
 .debug_frame   0x00004234      0x2a0 examples/light_switch/client/CMakeFiles/light_switch_client_nrf52840_xxAA_s140_6.0.0.dir/__/__/__/models/health/src/health_server.c.obj
 .debug_frame   0x000044d4      0x114 examples/light_switch/client/CMakeFiles/light_switch_client_nrf52840_xxAA_s140_6.0.0.dir/__/__/__/mesh/access/src/access_publish.c.obj
 .debug_frame   0x000045e8      0x5c4 examples/light_switch/client/CMakeFiles/light_switch_client_nrf52840_xxAA_s140_6.0.0.dir/__/__/__/mesh/access/src/access.c.obj
 .debug_frame   0x00004bac      0x124 examples/light_switch/client/CMakeFiles/light_switch_client_nrf52840_xxAA_s140_6.0.0.dir/__/__/__/mesh/access/src/access_reliable.c.obj
 .debug_frame   0x00004cd0       0x70 examples/light_switch/client/CMakeFiles/light_switch_client_nrf52840_xxAA_s140_6.0.0.dir/__/__/__/mesh/access/src/access_loopback.c.obj
 .debug_frame   0x00004d40      0xae0 examples/light_switch/client/CMakeFiles/light_switch_client_nrf52840_xxAA_s140_6.0.0.dir/__/__/__/mesh/access/src/device_state_manager.c.obj
 .debug_frame   0x00005820      0x198 examples/light_switch/client/CMakeFiles/light_switch_client_nrf52840_xxAA_s140_6.0.0.dir/__/__/__/mesh/prov/src/prov_provisionee.c.obj
 .debug_frame   0x000059b8      0x160 examples/light_switch/client/CMakeFiles/light_switch_client_nrf52840_xxAA_s140_6.0.0.dir/__/__/__/mesh/prov/src/nrf_mesh_prov.c.obj
 .debug_frame   0x00005b18      0x170 examples/light_switch/client/CMakeFiles/light_switch_client_nrf52840_xxAA_s140_6.0.0.dir/__/__/__/mesh/prov/src/provisioning.c.obj
 .debug_frame   0x00005c88       0x84 examples/light_switch/client/CMakeFiles/light_switch_client_nrf52840_xxAA_s140_6.0.0.dir/__/__/__/mesh/prov/src/prov_beacon.c.obj
 .debug_frame   0x00005d0c      0x150 examples/light_switch/client/CMakeFiles/light_switch_client_nrf52840_xxAA_s140_6.0.0.dir/__/__/__/mesh/prov/src/prov_utils.c.obj
 .debug_frame   0x00005e5c      0x324 examples/light_switch/client/CMakeFiles/light_switch_client_nrf52840_xxAA_s140_6.0.0.dir/__/__/__/mesh/prov/src/prov_bearer_adv.c.obj
 .debug_frame   0x00006180       0x48 examples/light_switch/client/CMakeFiles/light_switch_client_nrf52840_xxAA_s140_6.0.0.dir/C_/b/nRF5_SDK_15.0.0_a53641a/modules/nrfx/mdk/system_nrf52840.c.obj
 .debug_frame   0x000061c8       0x44 examples/light_switch/client/CMakeFiles/light_switch_client_nrf52840_xxAA_s140_6.0.0.dir/C_/b/nRF5_SDK_15.0.0_a53641a/components/libraries/util/app_error.c.obj
 .debug_frame   0x0000620c       0x84 examples/light_switch/client/CMakeFiles/light_switch_client_nrf52840_xxAA_s140_6.0.0.dir/C_/b/nRF5_SDK_15.0.0_a53641a/components/libraries/util/app_util_platform.c.obj
 .debug_frame   0x00006290      0x16c examples/light_switch/client/CMakeFiles/light_switch_client_nrf52840_xxAA_s140_6.0.0.dir/C_/b/nRF5_SDK_15.0.0_a53641a/components/libraries/timer/app_timer.c.obj
 .debug_frame   0x000063fc       0x20 examples/light_switch/client/CMakeFiles/light_switch_client_nrf52840_xxAA_s140_6.0.0.dir/C_/b/nRF5_SDK_15.0.0_a53641a/components/libraries/util/app_error_handler_gcc.c.obj
 .debug_frame   0x0000641c      0x2d8 external/rtt/librtt_nrf52840_xxAA.a(SEGGER_RTT.c.obj)
 .debug_frame   0x000066f4       0xac external/rtt/librtt_nrf52840_xxAA.a(SEGGER_RTT_printf.c.obj)
 .debug_frame   0x000067a0      0x684 external/micro-ecc/libuECC_nrf52840_xxAA.a(uECC.c.obj)
 .debug_frame   0x00006e24       0x2c c:/mesh/arm_gcc/bin/../lib/gcc/arm-none-eabi/6.3.1/thumb/v7e-m/fpv4-sp/hard\libgcc.a(_aeabi_uldivmod.o)
 .debug_frame   0x00006e50       0x34 c:/mesh/arm_gcc/bin/../lib/gcc/arm-none-eabi/6.3.1/thumb/v7e-m/fpv4-sp/hard\libgcc.a(_udivmoddi4.o)
 .debug_frame   0x00006e84       0x28 c:/mesh/arm_gcc/bin/../lib/gcc/arm-none-eabi/6.3.1/../../../../arm-none-eabi/lib/thumb/v7e-m/fpv4-sp/hard\libg_nano.a(lib_a-exit.o)
 .debug_frame   0x00006eac       0x2c c:/mesh/arm_gcc/bin/../lib/gcc/arm-none-eabi/6.3.1/../../../../arm-none-eabi/lib/thumb/v7e-m/fpv4-sp/hard\libg_nano.a(lib_a-init.o)
 .debug_frame   0x00006ed8       0x30 c:/mesh/arm_gcc/bin/../lib/gcc/arm-none-eabi/6.3.1/../../../../arm-none-eabi/lib/thumb/v7e-m/fpv4-sp/hard\libg_nano.a(lib_a-malloc.o)
 .debug_frame   0x00006f08       0x28 c:/mesh/arm_gcc/bin/../lib/gcc/arm-none-eabi/6.3.1/../../../../arm-none-eabi/lib/thumb/v7e-m/fpv4-sp/hard\libg_nano.a(lib_a-memcmp.o)
 .debug_frame   0x00006f30       0x28 c:/mesh/arm_gcc/bin/../lib/gcc/arm-none-eabi/6.3.1/../../../../arm-none-eabi/lib/thumb/v7e-m/fpv4-sp/hard\libg_nano.a(lib_a-memcpy-stub.o)
 .debug_frame   0x00006f58       0x20 c:/mesh/arm_gcc/bin/../lib/gcc/arm-none-eabi/6.3.1/../../../../arm-none-eabi/lib/thumb/v7e-m/fpv4-sp/hard\libg_nano.a(lib_a-memset.o)
 .debug_frame   0x00006f78       0x38 c:/mesh/arm_gcc/bin/../lib/gcc/arm-none-eabi/6.3.1/../../../../arm-none-eabi/lib/thumb/v7e-m/fpv4-sp/hard\libg_nano.a(lib_a-nano-freer.o)
 .debug_frame   0x00006fb0       0x2c c:/mesh/arm_gcc/bin/../lib/gcc/arm-none-eabi/6.3.1/../../../../arm-none-eabi/lib/thumb/v7e-m/fpv4-sp/hard\libg_nano.a(lib_a-nano-mallocr.o)
 .debug_frame   0x00006fdc       0x2c c:/mesh/arm_gcc/bin/../lib/gcc/arm-none-eabi/6.3.1/../../../../arm-none-eabi/lib/thumb/v7e-m/fpv4-sp/hard\libg_nano.a(lib_a-sbrkr.o)
 .debug_frame   0x00007008       0x20 c:/mesh/arm_gcc/bin/../lib/gcc/arm-none-eabi/6.3.1/../../../../arm-none-eabi/lib/thumb/v7e-m/fpv4-sp/hard\libg_nano.a(lib_a-strcpy.o)
 .debug_frame   0x00007028       0x34 c:/mesh/arm_gcc/bin/../lib/gcc/arm-none-eabi/6.3.1/../../../../arm-none-eabi/lib/thumb/v7e-m/fpv4-sp/hard\libg_nano.a(lib_a-strrchr.o)
 .debug_frame   0x0000705c       0x30 c:/mesh/arm_gcc/bin/../lib/gcc/arm-none-eabi/6.3.1/../../../../arm-none-eabi/lib/thumb/v7e-m/fpv4-sp/hard\libg_nano.a(lib_a-mlock.o)
 .debug_frame   0x0000708c       0x5c c:/mesh/arm_gcc/bin/../lib/gcc/arm-none-eabi/6.3.1/../../../../arm-none-eabi/lib/thumb/v7e-m/fpv4-sp/hard\libg_nano.a(lib_a-reent.o)
 .debug_frame   0x000070e8       0x20 c:/mesh/arm_gcc/bin/../lib/gcc/arm-none-eabi/6.3.1/../../../../arm-none-eabi/lib/thumb/v7e-m/fpv4-sp/hard\libg_nano.a(lib_a-strchr.o)
 .debug_frame   0x00007108       0x20 c:/mesh/arm_gcc/bin/../lib/gcc/arm-none-eabi/6.3.1/../../../../arm-none-eabi/lib/thumb/v7e-m/fpv4-sp/hard\libnosys.a(sbrk.o)
 .debug_frame   0x00007128       0x20 c:/mesh/arm_gcc/bin/../lib/gcc/arm-none-eabi/6.3.1/../../../../arm-none-eabi/lib/thumb/v7e-m/fpv4-sp/hard\libnosys.a(_exit.o)
