Archive member included to satisfy reference by file (symbol)

external/rtt/librtt_nrf52840_xxAA.a(SEGGER_RTT.c.obj)
                              examples/light_switch/client/CMakeFiles/light_switch_client_nrf52840_xxAA_s140_6.0.0.dir/__/__/__/mesh/core/src/log.c.obj (SEGGER_RTT_Write)
external/rtt/librtt_nrf52840_xxAA.a(SEGGER_RTT_printf.c.obj)
                              examples/light_switch/client/CMakeFiles/light_switch_client_nrf52840_xxAA_s140_6.0.0.dir/__/__/__/mesh/core/src/log.c.obj (SEGGER_RTT_vprintf)
external/micro-ecc/libuECC_nrf52840_xxAA.a(uECC.c.obj)
                              examples/light_switch/client/CMakeFiles/light_switch_client_nrf52840_xxAA_s140_6.0.0.dir/__/__/__/mesh/prov/src/prov_utils.c.obj (uECC_secp256r1)
c:/arm_gcc/bin/../lib/gcc/arm-none-eabi/6.3.1/thumb/v7e-m/fpv4-sp/hard\libgcc.a(_aeabi_uldivmod.o)
                              examples/light_switch/client/CMakeFiles/light_switch_client_nrf52840_xxAA_s140_6.0.0.dir/__/__/common/src/rtt_input.c.obj (__aeabi_uldivmod)
c:/arm_gcc/bin/../lib/gcc/arm-none-eabi/6.3.1/thumb/v7e-m/fpv4-sp/hard\libgcc.a(_udivmoddi4.o)
                              c:/arm_gcc/bin/../lib/gcc/arm-none-eabi/6.3.1/thumb/v7e-m/fpv4-sp/hard\libgcc.a(_aeabi_uldivmod.o) (__udivmoddi4)
c:/arm_gcc/bin/../lib/gcc/arm-none-eabi/6.3.1/thumb/v7e-m/fpv4-sp/hard\libgcc.a(_dvmd_tls.o)
                              c:/arm_gcc/bin/../lib/gcc/arm-none-eabi/6.3.1/thumb/v7e-m/fpv4-sp/hard\libgcc.a(_aeabi_uldivmod.o) (__aeabi_ldiv0)
c:/arm_gcc/bin/../lib/gcc/arm-none-eabi/6.3.1/../../../../arm-none-eabi/lib/thumb/v7e-m/fpv4-sp/hard\libg_nano.a(lib_a-exit.o)
                              c:/arm_gcc/bin/../lib/gcc/arm-none-eabi/6.3.1/../../../../arm-none-eabi/lib/thumb/v7e-m/fpv4-sp/hard/crt0.o (exit)
c:/arm_gcc/bin/../lib/gcc/arm-none-eabi/6.3.1/../../../../arm-none-eabi/lib/thumb/v7e-m/fpv4-sp/hard\libg_nano.a(lib_a-impure.o)
                              c:/arm_gcc/bin/../lib/gcc/arm-none-eabi/6.3.1/../../../../arm-none-eabi/lib/thumb/v7e-m/fpv4-sp/hard\libg_nano.a(lib_a-exit.o) (_global_impure_ptr)
c:/arm_gcc/bin/../lib/gcc/arm-none-eabi/6.3.1/../../../../arm-none-eabi/lib/thumb/v7e-m/fpv4-sp/hard\libg_nano.a(lib_a-init.o)
                              c:/arm_gcc/bin/../lib/gcc/arm-none-eabi/6.3.1/../../../../arm-none-eabi/lib/thumb/v7e-m/fpv4-sp/hard/crt0.o (__libc_init_array)
c:/arm_gcc/bin/../lib/gcc/arm-none-eabi/6.3.1/../../../../arm-none-eabi/lib/thumb/v7e-m/fpv4-sp/hard\libg_nano.a(lib_a-malloc.o)
                              examples/light_switch/client/CMakeFiles/light_switch_client_nrf52840_xxAA_s140_6.0.0.dir/__/__/__/mesh/core/src/transport.c.obj (malloc)
c:/arm_gcc/bin/../lib/gcc/arm-none-eabi/6.3.1/../../../../arm-none-eabi/lib/thumb/v7e-m/fpv4-sp/hard\libg_nano.a(lib_a-memcmp.o)
                              examples/light_switch/client/CMakeFiles/light_switch_client_nrf52840_xxAA_s140_6.0.0.dir/__/__/__/mesh/core/src/cache.c.obj (memcmp)
c:/arm_gcc/bin/../lib/gcc/arm-none-eabi/6.3.1/../../../../arm-none-eabi/lib/thumb/v7e-m/fpv4-sp/hard\libg_nano.a(lib_a-memcpy-stub.o)
                              examples/light_switch/client/CMakeFiles/light_switch_client_nrf52840_xxAA_s140_6.0.0.dir/__/__/common/src/mesh_app_utils.c.obj (memcpy)
c:/arm_gcc/bin/../lib/gcc/arm-none-eabi/6.3.1/../../../../arm-none-eabi/lib/thumb/v7e-m/fpv4-sp/hard\libg_nano.a(lib_a-memset.o)
                              c:/arm_gcc/bin/../lib/gcc/arm-none-eabi/6.3.1/../../../../arm-none-eabi/lib/thumb/v7e-m/fpv4-sp/hard/crt0.o (memset)
c:/arm_gcc/bin/../lib/gcc/arm-none-eabi/6.3.1/../../../../arm-none-eabi/lib/thumb/v7e-m/fpv4-sp/hard\libg_nano.a(lib_a-nano-freer.o)
                              c:/arm_gcc/bin/../lib/gcc/arm-none-eabi/6.3.1/../../../../arm-none-eabi/lib/thumb/v7e-m/fpv4-sp/hard\libg_nano.a(lib_a-malloc.o) (_free_r)
c:/arm_gcc/bin/../lib/gcc/arm-none-eabi/6.3.1/../../../../arm-none-eabi/lib/thumb/v7e-m/fpv4-sp/hard\libg_nano.a(lib_a-nano-mallocr.o)
                              c:/arm_gcc/bin/../lib/gcc/arm-none-eabi/6.3.1/../../../../arm-none-eabi/lib/thumb/v7e-m/fpv4-sp/hard\libg_nano.a(lib_a-malloc.o) (_malloc_r)
c:/arm_gcc/bin/../lib/gcc/arm-none-eabi/6.3.1/../../../../arm-none-eabi/lib/thumb/v7e-m/fpv4-sp/hard\libg_nano.a(lib_a-sbrkr.o)
                              c:/arm_gcc/bin/../lib/gcc/arm-none-eabi/6.3.1/../../../../arm-none-eabi/lib/thumb/v7e-m/fpv4-sp/hard\libg_nano.a(lib_a-nano-mallocr.o) (_sbrk_r)
c:/arm_gcc/bin/../lib/gcc/arm-none-eabi/6.3.1/../../../../arm-none-eabi/lib/thumb/v7e-m/fpv4-sp/hard\libg_nano.a(lib_a-strcpy.o)
                              external/rtt/librtt_nrf52840_xxAA.a(SEGGER_RTT.c.obj) (strcpy)
c:/arm_gcc/bin/../lib/gcc/arm-none-eabi/6.3.1/../../../../arm-none-eabi/lib/thumb/v7e-m/fpv4-sp/hard\libg_nano.a(lib_a-strlen.o)
                              examples/light_switch/client/CMakeFiles/light_switch_client_nrf52840_xxAA_s140_6.0.0.dir/__/__/__/mesh/prov/src/prov_beacon.c.obj (strlen)
c:/arm_gcc/bin/../lib/gcc/arm-none-eabi/6.3.1/../../../../arm-none-eabi/lib/thumb/v7e-m/fpv4-sp/hard\libg_nano.a(lib_a-strrchr.o)
                              examples/light_switch/client/CMakeFiles/light_switch_client_nrf52840_xxAA_s140_6.0.0.dir/src/main.c.obj (strrchr)
c:/arm_gcc/bin/../lib/gcc/arm-none-eabi/6.3.1/../../../../arm-none-eabi/lib/thumb/v7e-m/fpv4-sp/hard\libg_nano.a(lib_a-mlock.o)
                              c:/arm_gcc/bin/../lib/gcc/arm-none-eabi/6.3.1/../../../../arm-none-eabi/lib/thumb/v7e-m/fpv4-sp/hard\libg_nano.a(lib_a-nano-freer.o) (__malloc_lock)
c:/arm_gcc/bin/../lib/gcc/arm-none-eabi/6.3.1/../../../../arm-none-eabi/lib/thumb/v7e-m/fpv4-sp/hard\libg_nano.a(lib_a-reent.o)
                              c:/arm_gcc/bin/../lib/gcc/arm-none-eabi/6.3.1/../../../../arm-none-eabi/lib/thumb/v7e-m/fpv4-sp/hard\libg_nano.a(lib_a-sbrkr.o) (errno)
c:/arm_gcc/bin/../lib/gcc/arm-none-eabi/6.3.1/../../../../arm-none-eabi/lib/thumb/v7e-m/fpv4-sp/hard\libg_nano.a(lib_a-strchr.o)
                              c:/arm_gcc/bin/../lib/gcc/arm-none-eabi/6.3.1/../../../../arm-none-eabi/lib/thumb/v7e-m/fpv4-sp/hard\libg_nano.a(lib_a-strrchr.o) (strchr)
c:/arm_gcc/bin/../lib/gcc/arm-none-eabi/6.3.1/../../../../arm-none-eabi/lib/thumb/v7e-m/fpv4-sp/hard\libnosys.a(sbrk.o)
                              c:/arm_gcc/bin/../lib/gcc/arm-none-eabi/6.3.1/../../../../arm-none-eabi/lib/thumb/v7e-m/fpv4-sp/hard\libg_nano.a(lib_a-sbrkr.o) (_sbrk)
c:/arm_gcc/bin/../lib/gcc/arm-none-eabi/6.3.1/../../../../arm-none-eabi/lib/thumb/v7e-m/fpv4-sp/hard\libnosys.a(_exit.o)
                              c:/arm_gcc/bin/../lib/gcc/arm-none-eabi/6.3.1/../../../../arm-none-eabi/lib/thumb/v7e-m/fpv4-sp/hard\libg_nano.a(lib_a-exit.o) (_exit)

Allocating common symbols
Common symbol       size              file

nrf_nvic_state      0xc               examples/light_switch/client/CMakeFiles/light_switch_client_nrf52840_xxAA_s140_6.0.0.dir/C_/sdks/nRF5_SDK_15.0.0_a53641a/components/libraries/util/app_util_platform.c.obj
m_packet            0x24              examples/light_switch/client/CMakeFiles/light_switch_client_nrf52840_xxAA_s140_6.0.0.dir/__/__/__/mesh/core/src/core_tx.c.obj
errno               0x4               c:/arm_gcc/bin/../lib/gcc/arm-none-eabi/6.3.1/../../../../arm-none-eabi/lib/thumb/v7e-m/fpv4-sp/hard\libg_nano.a(lib_a-reent.o)
_SEGGER_RTT         0x78              external/rtt/librtt_nrf52840_xxAA.a(SEGGER_RTT.c.obj)

Discarded input sections

 .text          0x00000000        0x0 c:/arm_gcc/bin/../lib/gcc/arm-none-eabi/6.3.1/thumb/v7e-m/fpv4-sp/hard/crti.o
 .data          0x00000000        0x0 c:/arm_gcc/bin/../lib/gcc/arm-none-eabi/6.3.1/thumb/v7e-m/fpv4-sp/hard/crti.o
 .bss           0x00000000        0x0 c:/arm_gcc/bin/../lib/gcc/arm-none-eabi/6.3.1/thumb/v7e-m/fpv4-sp/hard/crti.o
 .data          0x00000000        0x4 c:/arm_gcc/bin/../lib/gcc/arm-none-eabi/6.3.1/thumb/v7e-m/fpv4-sp/hard/crtbegin.o
 .data          0x00000000        0x0 c:/arm_gcc/bin/../lib/gcc/arm-none-eabi/6.3.1/../../../../arm-none-eabi/lib/thumb/v7e-m/fpv4-sp/hard/crt0.o
 .bss           0x00000000        0x0 c:/arm_gcc/bin/../lib/gcc/arm-none-eabi/6.3.1/../../../../arm-none-eabi/lib/thumb/v7e-m/fpv4-sp/hard/crt0.o
 .ARM.extab     0x00000000        0x0 c:/arm_gcc/bin/../lib/gcc/arm-none-eabi/6.3.1/../../../../arm-none-eabi/lib/thumb/v7e-m/fpv4-sp/hard/crt0.o
 .text          0x00000000        0x0 examples/light_switch/client/CMakeFiles/light_switch_client_nrf52840_xxAA_s140_6.0.0.dir/src/main.c.obj
 .data          0x00000000        0x0 examples/light_switch/client/CMakeFiles/light_switch_client_nrf52840_xxAA_s140_6.0.0.dir/src/main.c.obj
 .bss           0x00000000        0x0 examples/light_switch/client/CMakeFiles/light_switch_client_nrf52840_xxAA_s140_6.0.0.dir/src/main.c.obj
 .text          0x00000000        0x0 examples/light_switch/client/CMakeFiles/light_switch_client_nrf52840_xxAA_s140_6.0.0.dir/__/__/__/mesh/stack/src/mesh_stack.c.obj
 .data          0x00000000        0x0 examples/light_switch/client/CMakeFiles/light_switch_client_nrf52840_xxAA_s140_6.0.0.dir/__/__/__/mesh/stack/src/mesh_stack.c.obj
 .bss           0x00000000        0x0 examples/light_switch/client/CMakeFiles/light_switch_client_nrf52840_xxAA_s140_6.0.0.dir/__/__/__/mesh/stack/src/mesh_stack.c.obj
 .text.mesh_stack_persistence_flash_usage
                0x00000000       0x36 examples/light_switch/client/CMakeFiles/light_switch_client_nrf52840_xxAA_s140_6.0.0.dir/__/__/__/mesh/stack/src/mesh_stack.c.obj
 .text          0x00000000        0x0 examples/light_switch/client/CMakeFiles/light_switch_client_nrf52840_xxAA_s140_6.0.0.dir/__/__/common/src/mesh_softdevice_init.c.obj
 .data          0x00000000        0x0 examples/light_switch/client/CMakeFiles/light_switch_client_nrf52840_xxAA_s140_6.0.0.dir/__/__/common/src/mesh_softdevice_init.c.obj
 .bss           0x00000000        0x0 examples/light_switch/client/CMakeFiles/light_switch_client_nrf52840_xxAA_s140_6.0.0.dir/__/__/common/src/mesh_softdevice_init.c.obj
 .text          0x00000000        0x0 examples/light_switch/client/CMakeFiles/light_switch_client_nrf52840_xxAA_s140_6.0.0.dir/__/__/common/src/mesh_provisionee.c.obj
 .data          0x00000000        0x0 examples/light_switch/client/CMakeFiles/light_switch_client_nrf52840_xxAA_s140_6.0.0.dir/__/__/common/src/mesh_provisionee.c.obj
 .bss           0x00000000        0x0 examples/light_switch/client/CMakeFiles/light_switch_client_nrf52840_xxAA_s140_6.0.0.dir/__/__/common/src/mesh_provisionee.c.obj
 .text.mesh_provisionee_prov_listen_stop
                0x00000000        0xc examples/light_switch/client/CMakeFiles/light_switch_client_nrf52840_xxAA_s140_6.0.0.dir/__/__/common/src/mesh_provisionee.c.obj
 .text          0x00000000        0x0 examples/light_switch/client/CMakeFiles/light_switch_client_nrf52840_xxAA_s140_6.0.0.dir/__/__/common/src/rtt_input.c.obj
 .data          0x00000000        0x0 examples/light_switch/client/CMakeFiles/light_switch_client_nrf52840_xxAA_s140_6.0.0.dir/__/__/common/src/rtt_input.c.obj
 .bss           0x00000000        0x0 examples/light_switch/client/CMakeFiles/light_switch_client_nrf52840_xxAA_s140_6.0.0.dir/__/__/common/src/rtt_input.c.obj
 .text.rtt_input_disable
                0x00000000       0x28 examples/light_switch/client/CMakeFiles/light_switch_client_nrf52840_xxAA_s140_6.0.0.dir/__/__/common/src/rtt_input.c.obj
 .text          0x00000000        0x0 examples/light_switch/client/CMakeFiles/light_switch_client_nrf52840_xxAA_s140_6.0.0.dir/__/__/common/src/simple_hal.c.obj
 .data          0x00000000        0x0 examples/light_switch/client/CMakeFiles/light_switch_client_nrf52840_xxAA_s140_6.0.0.dir/__/__/common/src/simple_hal.c.obj
 .bss           0x00000000        0x0 examples/light_switch/client/CMakeFiles/light_switch_client_nrf52840_xxAA_s140_6.0.0.dir/__/__/common/src/simple_hal.c.obj
 .text.hal_led_pin_get
                0x00000000       0x18 examples/light_switch/client/CMakeFiles/light_switch_client_nrf52840_xxAA_s140_6.0.0.dir/__/__/common/src/simple_hal.c.obj
 .text          0x00000000        0x0 examples/light_switch/client/CMakeFiles/light_switch_client_nrf52840_xxAA_s140_6.0.0.dir/__/__/common/src/mesh_app_utils.c.obj
 .data          0x00000000        0x0 examples/light_switch/client/CMakeFiles/light_switch_client_nrf52840_xxAA_s140_6.0.0.dir/__/__/common/src/mesh_app_utils.c.obj
 .bss           0x00000000        0x0 examples/light_switch/client/CMakeFiles/light_switch_client_nrf52840_xxAA_s140_6.0.0.dir/__/__/common/src/mesh_app_utils.c.obj
 .text          0x00000000        0x0 examples/light_switch/client/CMakeFiles/light_switch_client_nrf52840_xxAA_s140_6.0.0.dir/__/__/nrf_mesh_weak.c.obj
 .data          0x00000000        0x0 examples/light_switch/client/CMakeFiles/light_switch_client_nrf52840_xxAA_s140_6.0.0.dir/__/__/nrf_mesh_weak.c.obj
 .bss           0x00000000        0x0 examples/light_switch/client/CMakeFiles/light_switch_client_nrf52840_xxAA_s140_6.0.0.dir/__/__/nrf_mesh_weak.c.obj
 .text._weak_handler_ptr
                0x00000000        0x4 examples/light_switch/client/CMakeFiles/light_switch_client_nrf52840_xxAA_s140_6.0.0.dir/__/__/nrf_mesh_weak.c.obj
 .text          0x00000000        0x0 examples/light_switch/client/CMakeFiles/light_switch_client_nrf52840_xxAA_s140_6.0.0.dir/__/__/common/src/app_error_weak.c.obj
 .data          0x00000000        0x0 examples/light_switch/client/CMakeFiles/light_switch_client_nrf52840_xxAA_s140_6.0.0.dir/__/__/common/src/app_error_weak.c.obj
 .bss           0x00000000        0x0 examples/light_switch/client/CMakeFiles/light_switch_client_nrf52840_xxAA_s140_6.0.0.dir/__/__/common/src/app_error_weak.c.obj
 .text          0x00000000        0x0 examples/light_switch/client/CMakeFiles/light_switch_client_nrf52840_xxAA_s140_6.0.0.dir/__/__/common/src/assertion_handler_weak.c.obj
 .data          0x00000000        0x0 examples/light_switch/client/CMakeFiles/light_switch_client_nrf52840_xxAA_s140_6.0.0.dir/__/__/common/src/assertion_handler_weak.c.obj
 .bss           0x00000000        0x0 examples/light_switch/client/CMakeFiles/light_switch_client_nrf52840_xxAA_s140_6.0.0.dir/__/__/common/src/assertion_handler_weak.c.obj
 .text          0x00000000        0x0 examples/light_switch/client/CMakeFiles/light_switch_client_nrf52840_xxAA_s140_6.0.0.dir/__/__/__/mesh/core/src/internal_event.c.obj
 .data          0x00000000        0x0 examples/light_switch/client/CMakeFiles/light_switch_client_nrf52840_xxAA_s140_6.0.0.dir/__/__/__/mesh/core/src/internal_event.c.obj
 .bss           0x00000000        0x0 examples/light_switch/client/CMakeFiles/light_switch_client_nrf52840_xxAA_s140_6.0.0.dir/__/__/__/mesh/core/src/internal_event.c.obj
 .debug_info    0x00000000      0x91e examples/light_switch/client/CMakeFiles/light_switch_client_nrf52840_xxAA_s140_6.0.0.dir/__/__/__/mesh/core/src/internal_event.c.obj
 .debug_abbrev  0x00000000      0x192 examples/light_switch/client/CMakeFiles/light_switch_client_nrf52840_xxAA_s140_6.0.0.dir/__/__/__/mesh/core/src/internal_event.c.obj
 .debug_aranges
                0x00000000       0x18 examples/light_switch/client/CMakeFiles/light_switch_client_nrf52840_xxAA_s140_6.0.0.dir/__/__/__/mesh/core/src/internal_event.c.obj
 .debug_line    0x00000000      0x1e5 examples/light_switch/client/CMakeFiles/light_switch_client_nrf52840_xxAA_s140_6.0.0.dir/__/__/__/mesh/core/src/internal_event.c.obj
 .debug_str     0x00000000      0x62f examples/light_switch/client/CMakeFiles/light_switch_client_nrf52840_xxAA_s140_6.0.0.dir/__/__/__/mesh/core/src/internal_event.c.obj
 .comment       0x00000000       0x80 examples/light_switch/client/CMakeFiles/light_switch_client_nrf52840_xxAA_s140_6.0.0.dir/__/__/__/mesh/core/src/internal_event.c.obj
 .ARM.attributes
                0x00000000       0x39 examples/light_switch/client/CMakeFiles/light_switch_client_nrf52840_xxAA_s140_6.0.0.dir/__/__/__/mesh/core/src/internal_event.c.obj
 .text          0x00000000        0x0 examples/light_switch/client/CMakeFiles/light_switch_client_nrf52840_xxAA_s140_6.0.0.dir/__/__/__/mesh/core/src/nrf_mesh_configure.c.obj
 .data          0x00000000        0x0 examples/light_switch/client/CMakeFiles/light_switch_client_nrf52840_xxAA_s140_6.0.0.dir/__/__/__/mesh/core/src/nrf_mesh_configure.c.obj
 .bss           0x00000000        0x0 examples/light_switch/client/CMakeFiles/light_switch_client_nrf52840_xxAA_s140_6.0.0.dir/__/__/__/mesh/core/src/nrf_mesh_configure.c.obj
 .text          0x00000000        0x0 examples/light_switch/client/CMakeFiles/light_switch_client_nrf52840_xxAA_s140_6.0.0.dir/__/__/__/mesh/core/src/aes.c.obj
 .data          0x00000000        0x0 examples/light_switch/client/CMakeFiles/light_switch_client_nrf52840_xxAA_s140_6.0.0.dir/__/__/__/mesh/core/src/aes.c.obj
 .bss           0x00000000        0x0 examples/light_switch/client/CMakeFiles/light_switch_client_nrf52840_xxAA_s140_6.0.0.dir/__/__/__/mesh/core/src/aes.c.obj
 .debug_info    0x00000000       0xb3 examples/light_switch/client/CMakeFiles/light_switch_client_nrf52840_xxAA_s140_6.0.0.dir/__/__/__/mesh/core/src/aes.c.obj
 .debug_abbrev  0x00000000       0x5c examples/light_switch/client/CMakeFiles/light_switch_client_nrf52840_xxAA_s140_6.0.0.dir/__/__/__/mesh/core/src/aes.c.obj
 .debug_aranges
                0x00000000       0x18 examples/light_switch/client/CMakeFiles/light_switch_client_nrf52840_xxAA_s140_6.0.0.dir/__/__/__/mesh/core/src/aes.c.obj
 .debug_line    0x00000000      0x123 examples/light_switch/client/CMakeFiles/light_switch_client_nrf52840_xxAA_s140_6.0.0.dir/__/__/__/mesh/core/src/aes.c.obj
 .debug_str     0x00000000      0x1f4 examples/light_switch/client/CMakeFiles/light_switch_client_nrf52840_xxAA_s140_6.0.0.dir/__/__/__/mesh/core/src/aes.c.obj
 .comment       0x00000000       0x80 examples/light_switch/client/CMakeFiles/light_switch_client_nrf52840_xxAA_s140_6.0.0.dir/__/__/__/mesh/core/src/aes.c.obj
 .ARM.attributes
                0x00000000       0x39 examples/light_switch/client/CMakeFiles/light_switch_client_nrf52840_xxAA_s140_6.0.0.dir/__/__/__/mesh/core/src/aes.c.obj
 .text          0x00000000        0x0 examples/light_switch/client/CMakeFiles/light_switch_client_nrf52840_xxAA_s140_6.0.0.dir/__/__/__/mesh/core/src/msg_cache.c.obj
 .data          0x00000000        0x0 examples/light_switch/client/CMakeFiles/light_switch_client_nrf52840_xxAA_s140_6.0.0.dir/__/__/__/mesh/core/src/msg_cache.c.obj
 .bss           0x00000000        0x0 examples/light_switch/client/CMakeFiles/light_switch_client_nrf52840_xxAA_s140_6.0.0.dir/__/__/__/mesh/core/src/msg_cache.c.obj
 .text.msg_cache_clear
                0x00000000       0x18 examples/light_switch/client/CMakeFiles/light_switch_client_nrf52840_xxAA_s140_6.0.0.dir/__/__/__/mesh/core/src/msg_cache.c.obj
 .text          0x00000000        0x0 examples/light_switch/client/CMakeFiles/light_switch_client_nrf52840_xxAA_s140_6.0.0.dir/__/__/__/mesh/core/src/transport.c.obj
 .data          0x00000000        0x0 examples/light_switch/client/CMakeFiles/light_switch_client_nrf52840_xxAA_s140_6.0.0.dir/__/__/__/mesh/core/src/transport.c.obj
 .bss           0x00000000        0x0 examples/light_switch/client/CMakeFiles/light_switch_client_nrf52840_xxAA_s140_6.0.0.dir/__/__/__/mesh/core/src/transport.c.obj
 .text.transport_sar_mem_funcs_set
                0x00000000       0x44 examples/light_switch/client/CMakeFiles/light_switch_client_nrf52840_xxAA_s140_6.0.0.dir/__/__/__/mesh/core/src/transport.c.obj
 .text.transport_opt_set
                0x00000000       0xd0 examples/light_switch/client/CMakeFiles/light_switch_client_nrf52840_xxAA_s140_6.0.0.dir/__/__/__/mesh/core/src/transport.c.obj
 .text.transport_opt_get
                0x00000000       0x68 examples/light_switch/client/CMakeFiles/light_switch_client_nrf52840_xxAA_s140_6.0.0.dir/__/__/__/mesh/core/src/transport.c.obj
 .text          0x00000000        0x0 examples/light_switch/client/CMakeFiles/light_switch_client_nrf52840_xxAA_s140_6.0.0.dir/__/__/__/mesh/core/src/event.c.obj
 .data          0x00000000        0x0 examples/light_switch/client/CMakeFiles/light_switch_client_nrf52840_xxAA_s140_6.0.0.dir/__/__/__/mesh/core/src/event.c.obj
 .bss           0x00000000        0x0 examples/light_switch/client/CMakeFiles/light_switch_client_nrf52840_xxAA_s140_6.0.0.dir/__/__/__/mesh/core/src/event.c.obj
 .text          0x00000000        0x0 examples/light_switch/client/CMakeFiles/light_switch_client_nrf52840_xxAA_s140_6.0.0.dir/__/__/__/mesh/core/src/packet_buffer.c.obj
 .data          0x00000000        0x0 examples/light_switch/client/CMakeFiles/light_switch_client_nrf52840_xxAA_s140_6.0.0.dir/__/__/__/mesh/core/src/packet_buffer.c.obj
 .bss           0x00000000        0x0 examples/light_switch/client/CMakeFiles/light_switch_client_nrf52840_xxAA_s140_6.0.0.dir/__/__/__/mesh/core/src/packet_buffer.c.obj
 .text.packet_buffer_max_packet_len_get
                0x00000000       0x20 examples/light_switch/client/CMakeFiles/light_switch_client_nrf52840_xxAA_s140_6.0.0.dir/__/__/__/mesh/core/src/packet_buffer.c.obj
 .text          0x00000000        0x0 examples/light_switch/client/CMakeFiles/light_switch_client_nrf52840_xxAA_s140_6.0.0.dir/__/__/__/mesh/core/src/flash_manager_defrag.c.obj
 .data          0x00000000        0x0 examples/light_switch/client/CMakeFiles/light_switch_client_nrf52840_xxAA_s140_6.0.0.dir/__/__/__/mesh/core/src/flash_manager_defrag.c.obj
 .bss           0x00000000        0x0 examples/light_switch/client/CMakeFiles/light_switch_client_nrf52840_xxAA_s140_6.0.0.dir/__/__/__/mesh/core/src/flash_manager_defrag.c.obj
 .text.flash_manager_defragging
                0x00000000       0x38 examples/light_switch/client/CMakeFiles/light_switch_client_nrf52840_xxAA_s140_6.0.0.dir/__/__/__/mesh/core/src/flash_manager_defrag.c.obj
 .text          0x00000000        0x0 examples/light_switch/client/CMakeFiles/light_switch_client_nrf52840_xxAA_s140_6.0.0.dir/__/__/__/mesh/core/src/fifo.c.obj
 .data          0x00000000        0x0 examples/light_switch/client/CMakeFiles/light_switch_client_nrf52840_xxAA_s140_6.0.0.dir/__/__/__/mesh/core/src/fifo.c.obj
 .bss           0x00000000        0x0 examples/light_switch/client/CMakeFiles/light_switch_client_nrf52840_xxAA_s140_6.0.0.dir/__/__/__/mesh/core/src/fifo.c.obj
 .text.fifo_peek_at
                0x00000000       0x50 examples/light_switch/client/CMakeFiles/light_switch_client_nrf52840_xxAA_s140_6.0.0.dir/__/__/__/mesh/core/src/fifo.c.obj
 .text.fifo_peek
                0x00000000        0x6 examples/light_switch/client/CMakeFiles/light_switch_client_nrf52840_xxAA_s140_6.0.0.dir/__/__/__/mesh/core/src/fifo.c.obj
 .text.fifo_flush
                0x00000000        0x6 examples/light_switch/client/CMakeFiles/light_switch_client_nrf52840_xxAA_s140_6.0.0.dir/__/__/__/mesh/core/src/fifo.c.obj
 .text.fifo_get_len
                0x00000000        0x8 examples/light_switch/client/CMakeFiles/light_switch_client_nrf52840_xxAA_s140_6.0.0.dir/__/__/__/mesh/core/src/fifo.c.obj
 .text.fifo_is_full
                0x00000000       0x10 examples/light_switch/client/CMakeFiles/light_switch_client_nrf52840_xxAA_s140_6.0.0.dir/__/__/__/mesh/core/src/fifo.c.obj
 .text.fifo_is_empty
                0x00000000        0xc examples/light_switch/client/CMakeFiles/light_switch_client_nrf52840_xxAA_s140_6.0.0.dir/__/__/__/mesh/core/src/fifo.c.obj
 .text          0x00000000        0x0 examples/light_switch/client/CMakeFiles/light_switch_client_nrf52840_xxAA_s140_6.0.0.dir/__/__/__/mesh/core/src/nrf_flash.c.obj
 .data          0x00000000        0x0 examples/light_switch/client/CMakeFiles/light_switch_client_nrf52840_xxAA_s140_6.0.0.dir/__/__/__/mesh/core/src/nrf_flash.c.obj
 .bss           0x00000000        0x0 examples/light_switch/client/CMakeFiles/light_switch_client_nrf52840_xxAA_s140_6.0.0.dir/__/__/__/mesh/core/src/nrf_flash.c.obj
 .text          0x00000000        0x0 examples/light_switch/client/CMakeFiles/light_switch_client_nrf52840_xxAA_s140_6.0.0.dir/__/__/__/mesh/core/src/packet_mgr.c.obj
 .data          0x00000000        0x0 examples/light_switch/client/CMakeFiles/light_switch_client_nrf52840_xxAA_s140_6.0.0.dir/__/__/__/mesh/core/src/packet_mgr.c.obj
 .bss           0x00000000        0x0 examples/light_switch/client/CMakeFiles/light_switch_client_nrf52840_xxAA_s140_6.0.0.dir/__/__/__/mesh/core/src/packet_mgr.c.obj
 .text.packet_mgr_alloc
                0x00000000      0x17c examples/light_switch/client/CMakeFiles/light_switch_client_nrf52840_xxAA_s140_6.0.0.dir/__/__/__/mesh/core/src/packet_mgr.c.obj
 .text.packet_mgr_free
                0x00000000       0x58 examples/light_switch/client/CMakeFiles/light_switch_client_nrf52840_xxAA_s140_6.0.0.dir/__/__/__/mesh/core/src/packet_mgr.c.obj
 .text.packet_mgr_get_free_space
                0x00000000       0x1c examples/light_switch/client/CMakeFiles/light_switch_client_nrf52840_xxAA_s140_6.0.0.dir/__/__/__/mesh/core/src/packet_mgr.c.obj
 .text.packet_mgr_refcount_get
                0x00000000        0x6 examples/light_switch/client/CMakeFiles/light_switch_client_nrf52840_xxAA_s140_6.0.0.dir/__/__/__/mesh/core/src/packet_mgr.c.obj
 .text.packet_mgr_size_get
                0x00000000        0x6 examples/light_switch/client/CMakeFiles/light_switch_client_nrf52840_xxAA_s140_6.0.0.dir/__/__/__/mesh/core/src/packet_mgr.c.obj
 .text          0x00000000        0x0 examples/light_switch/client/CMakeFiles/light_switch_client_nrf52840_xxAA_s140_6.0.0.dir/__/__/__/mesh/core/src/net_state.c.obj
 .data          0x00000000        0x0 examples/light_switch/client/CMakeFiles/light_switch_client_nrf52840_xxAA_s140_6.0.0.dir/__/__/__/mesh/core/src/net_state.c.obj
 .bss           0x00000000        0x0 examples/light_switch/client/CMakeFiles/light_switch_client_nrf52840_xxAA_s140_6.0.0.dir/__/__/__/mesh/core/src/net_state.c.obj
 .text.net_state_iv_update_test_mode_set
                0x00000000        0xc examples/light_switch/client/CMakeFiles/light_switch_client_nrf52840_xxAA_s140_6.0.0.dir/__/__/__/mesh/core/src/net_state.c.obj
 .text.net_state_test_mode_transition_run
                0x00000000       0x2c examples/light_switch/client/CMakeFiles/light_switch_client_nrf52840_xxAA_s140_6.0.0.dir/__/__/__/mesh/core/src/net_state.c.obj
 .text          0x00000000        0x0 examples/light_switch/client/CMakeFiles/light_switch_client_nrf52840_xxAA_s140_6.0.0.dir/__/__/__/mesh/core/src/mesh_flash.c.obj
 .data          0x00000000        0x0 examples/light_switch/client/CMakeFiles/light_switch_client_nrf52840_xxAA_s140_6.0.0.dir/__/__/__/mesh/core/src/mesh_flash.c.obj
 .bss           0x00000000        0x0 examples/light_switch/client/CMakeFiles/light_switch_client_nrf52840_xxAA_s140_6.0.0.dir/__/__/__/mesh/core/src/mesh_flash.c.obj
 .text.mesh_flash_op_available_slots
                0x00000000       0x2c examples/light_switch/client/CMakeFiles/light_switch_client_nrf52840_xxAA_s140_6.0.0.dir/__/__/__/mesh/core/src/mesh_flash.c.obj
 .text.mesh_flash_in_progress
                0x00000000       0x34 examples/light_switch/client/CMakeFiles/light_switch_client_nrf52840_xxAA_s140_6.0.0.dir/__/__/__/mesh/core/src/mesh_flash.c.obj
 .text.mesh_flash_set_suspended
                0x00000000       0x74 examples/light_switch/client/CMakeFiles/light_switch_client_nrf52840_xxAA_s140_6.0.0.dir/__/__/__/mesh/core/src/mesh_flash.c.obj
 .bss.suspend_count.10501
                0x00000000        0x4 examples/light_switch/client/CMakeFiles/light_switch_client_nrf52840_xxAA_s140_6.0.0.dir/__/__/__/mesh/core/src/mesh_flash.c.obj
 .text          0x00000000        0x0 examples/light_switch/client/CMakeFiles/light_switch_client_nrf52840_xxAA_s140_6.0.0.dir/__/__/__/mesh/core/src/nrf_mesh_utils.c.obj
 .data          0x00000000        0x0 examples/light_switch/client/CMakeFiles/light_switch_client_nrf52840_xxAA_s140_6.0.0.dir/__/__/__/mesh/core/src/nrf_mesh_utils.c.obj
 .bss           0x00000000        0x0 examples/light_switch/client/CMakeFiles/light_switch_client_nrf52840_xxAA_s140_6.0.0.dir/__/__/__/mesh/core/src/nrf_mesh_utils.c.obj
 .text.nrf_mesh_rand_get
                0x00000000       0x10 examples/light_switch/client/CMakeFiles/light_switch_client_nrf52840_xxAA_s140_6.0.0.dir/__/__/__/mesh/core/src/nrf_mesh_utils.c.obj
 .text.nrf_mesh_gap_address_type_get
                0x00000000       0x30 examples/light_switch/client/CMakeFiles/light_switch_client_nrf52840_xxAA_s140_6.0.0.dir/__/__/__/mesh/core/src/nrf_mesh_utils.c.obj
 .text          0x00000000        0x0 examples/light_switch/client/CMakeFiles/light_switch_client_nrf52840_xxAA_s140_6.0.0.dir/__/__/__/mesh/core/src/nrf_mesh.c.obj
 .data          0x00000000        0x0 examples/light_switch/client/CMakeFiles/light_switch_client_nrf52840_xxAA_s140_6.0.0.dir/__/__/__/mesh/core/src/nrf_mesh.c.obj
 .bss           0x00000000        0x0 examples/light_switch/client/CMakeFiles/light_switch_client_nrf52840_xxAA_s140_6.0.0.dir/__/__/__/mesh/core/src/nrf_mesh.c.obj
 .text.nrf_mesh_disable
                0x00000000       0x28 examples/light_switch/client/CMakeFiles/light_switch_client_nrf52840_xxAA_s140_6.0.0.dir/__/__/__/mesh/core/src/nrf_mesh.c.obj
 .text.nrf_mesh_process
                0x00000000        0x4 examples/light_switch/client/CMakeFiles/light_switch_client_nrf52840_xxAA_s140_6.0.0.dir/__/__/__/mesh/core/src/nrf_mesh.c.obj
 .text.nrf_mesh_evt_handler_remove
                0x00000000        0x4 examples/light_switch/client/CMakeFiles/light_switch_client_nrf52840_xxAA_s140_6.0.0.dir/__/__/__/mesh/core/src/nrf_mesh.c.obj
 .text.nrf_mesh_rx_cb_set
                0x00000000        0xc examples/light_switch/client/CMakeFiles/light_switch_client_nrf52840_xxAA_s140_6.0.0.dir/__/__/__/mesh/core/src/nrf_mesh.c.obj
 .text.nrf_mesh_rx_cb_clear
                0x00000000        0xc examples/light_switch/client/CMakeFiles/light_switch_client_nrf52840_xxAA_s140_6.0.0.dir/__/__/__/mesh/core/src/nrf_mesh.c.obj
 .text          0x00000000        0x0 examples/light_switch/client/CMakeFiles/light_switch_client_nrf52840_xxAA_s140_6.0.0.dir/__/__/__/mesh/core/src/queue.c.obj
 .data          0x00000000        0x0 examples/light_switch/client/CMakeFiles/light_switch_client_nrf52840_xxAA_s140_6.0.0.dir/__/__/__/mesh/core/src/queue.c.obj
 .bss           0x00000000        0x0 examples/light_switch/client/CMakeFiles/light_switch_client_nrf52840_xxAA_s140_6.0.0.dir/__/__/__/mesh/core/src/queue.c.obj
 .text          0x00000000        0x0 examples/light_switch/client/CMakeFiles/light_switch_client_nrf52840_xxAA_s140_6.0.0.dir/__/__/__/mesh/core/src/hal.c.obj
 .data          0x00000000        0x0 examples/light_switch/client/CMakeFiles/light_switch_client_nrf52840_xxAA_s140_6.0.0.dir/__/__/__/mesh/core/src/hal.c.obj
 .bss           0x00000000        0x0 examples/light_switch/client/CMakeFiles/light_switch_client_nrf52840_xxAA_s140_6.0.0.dir/__/__/__/mesh/core/src/hal.c.obj
 .text          0x00000000        0x0 examples/light_switch/client/CMakeFiles/light_switch_client_nrf52840_xxAA_s140_6.0.0.dir/__/__/__/mesh/core/src/aes_cmac.c.obj
 .data          0x00000000        0x0 examples/light_switch/client/CMakeFiles/light_switch_client_nrf52840_xxAA_s140_6.0.0.dir/__/__/__/mesh/core/src/aes_cmac.c.obj
 .bss           0x00000000        0x0 examples/light_switch/client/CMakeFiles/light_switch_client_nrf52840_xxAA_s140_6.0.0.dir/__/__/__/mesh/core/src/aes_cmac.c.obj
 .text          0x00000000        0x0 examples/light_switch/client/CMakeFiles/light_switch_client_nrf52840_xxAA_s140_6.0.0.dir/__/__/__/mesh/core/src/timer_scheduler.c.obj
 .data          0x00000000        0x0 examples/light_switch/client/CMakeFiles/light_switch_client_nrf52840_xxAA_s140_6.0.0.dir/__/__/__/mesh/core/src/timer_scheduler.c.obj
 .bss           0x00000000        0x0 examples/light_switch/client/CMakeFiles/light_switch_client_nrf52840_xxAA_s140_6.0.0.dir/__/__/__/mesh/core/src/timer_scheduler.c.obj
 .text.timer_sch_is_scheduled
                0x00000000       0x16 examples/light_switch/client/CMakeFiles/light_switch_client_nrf52840_xxAA_s140_6.0.0.dir/__/__/__/mesh/core/src/timer_scheduler.c.obj
 .text          0x00000000        0x0 examples/light_switch/client/CMakeFiles/light_switch_client_nrf52840_xxAA_s140_6.0.0.dir/__/__/__/mesh/core/src/timer.c.obj
 .data          0x00000000        0x0 examples/light_switch/client/CMakeFiles/light_switch_client_nrf52840_xxAA_s140_6.0.0.dir/__/__/__/mesh/core/src/timer.c.obj
 .bss           0x00000000        0x0 examples/light_switch/client/CMakeFiles/light_switch_client_nrf52840_xxAA_s140_6.0.0.dir/__/__/__/mesh/core/src/timer.c.obj
 .text.timer_order_cb_ppi
                0x00000000       0xc4 examples/light_switch/client/CMakeFiles/light_switch_client_nrf52840_xxAA_s140_6.0.0.dir/__/__/__/mesh/core/src/timer.c.obj
 .text.timer_order_ppi
                0x00000000       0xc0 examples/light_switch/client/CMakeFiles/light_switch_client_nrf52840_xxAA_s140_6.0.0.dir/__/__/__/mesh/core/src/timer.c.obj
 .text.timer_abort
                0x00000000       0x78 examples/light_switch/client/CMakeFiles/light_switch_client_nrf52840_xxAA_s140_6.0.0.dir/__/__/__/mesh/core/src/timer.c.obj
 .text          0x00000000        0x0 examples/light_switch/client/CMakeFiles/light_switch_client_nrf52840_xxAA_s140_6.0.0.dir/__/__/__/mesh/core/src/rand.c.obj
 .data          0x00000000        0x0 examples/light_switch/client/CMakeFiles/light_switch_client_nrf52840_xxAA_s140_6.0.0.dir/__/__/__/mesh/core/src/rand.c.obj
 .bss           0x00000000        0x0 examples/light_switch/client/CMakeFiles/light_switch_client_nrf52840_xxAA_s140_6.0.0.dir/__/__/__/mesh/core/src/rand.c.obj
 .text          0x00000000        0x0 examples/light_switch/client/CMakeFiles/light_switch_client_nrf52840_xxAA_s140_6.0.0.dir/__/__/__/mesh/core/src/nrf_mesh_opt.c.obj
 .data          0x00000000        0x0 examples/light_switch/client/CMakeFiles/light_switch_client_nrf52840_xxAA_s140_6.0.0.dir/__/__/__/mesh/core/src/nrf_mesh_opt.c.obj
 .bss           0x00000000        0x0 examples/light_switch/client/CMakeFiles/light_switch_client_nrf52840_xxAA_s140_6.0.0.dir/__/__/__/mesh/core/src/nrf_mesh_opt.c.obj
 .text.nrf_mesh_opt_set
                0x00000000       0x26 examples/light_switch/client/CMakeFiles/light_switch_client_nrf52840_xxAA_s140_6.0.0.dir/__/__/__/mesh/core/src/nrf_mesh_opt.c.obj
 .text.nrf_mesh_opt_get
                0x00000000       0x26 examples/light_switch/client/CMakeFiles/light_switch_client_nrf52840_xxAA_s140_6.0.0.dir/__/__/__/mesh/core/src/nrf_mesh_opt.c.obj
 .debug_info    0x00000000      0xb2f examples/light_switch/client/CMakeFiles/light_switch_client_nrf52840_xxAA_s140_6.0.0.dir/__/__/__/mesh/core/src/nrf_mesh_opt.c.obj
 .debug_abbrev  0x00000000      0x24a examples/light_switch/client/CMakeFiles/light_switch_client_nrf52840_xxAA_s140_6.0.0.dir/__/__/__/mesh/core/src/nrf_mesh_opt.c.obj
 .debug_loc     0x00000000      0x194 examples/light_switch/client/CMakeFiles/light_switch_client_nrf52840_xxAA_s140_6.0.0.dir/__/__/__/mesh/core/src/nrf_mesh_opt.c.obj
 .debug_aranges
                0x00000000       0x28 examples/light_switch/client/CMakeFiles/light_switch_client_nrf52840_xxAA_s140_6.0.0.dir/__/__/__/mesh/core/src/nrf_mesh_opt.c.obj
 .debug_ranges  0x00000000       0x18 examples/light_switch/client/CMakeFiles/light_switch_client_nrf52840_xxAA_s140_6.0.0.dir/__/__/__/mesh/core/src/nrf_mesh_opt.c.obj
 .debug_line    0x00000000      0x299 examples/light_switch/client/CMakeFiles/light_switch_client_nrf52840_xxAA_s140_6.0.0.dir/__/__/__/mesh/core/src/nrf_mesh_opt.c.obj
 .debug_str     0x00000000      0x95f examples/light_switch/client/CMakeFiles/light_switch_client_nrf52840_xxAA_s140_6.0.0.dir/__/__/__/mesh/core/src/nrf_mesh_opt.c.obj
 .comment       0x00000000       0x80 examples/light_switch/client/CMakeFiles/light_switch_client_nrf52840_xxAA_s140_6.0.0.dir/__/__/__/mesh/core/src/nrf_mesh_opt.c.obj
 .debug_frame   0x00000000       0x30 examples/light_switch/client/CMakeFiles/light_switch_client_nrf52840_xxAA_s140_6.0.0.dir/__/__/__/mesh/core/src/nrf_mesh_opt.c.obj
 .ARM.attributes
                0x00000000       0x39 examples/light_switch/client/CMakeFiles/light_switch_client_nrf52840_xxAA_s140_6.0.0.dir/__/__/__/mesh/core/src/nrf_mesh_opt.c.obj
 .text          0x00000000        0x0 examples/light_switch/client/CMakeFiles/light_switch_client_nrf52840_xxAA_s140_6.0.0.dir/__/__/__/mesh/core/src/mesh_opt.c.obj
 .data          0x00000000        0x0 examples/light_switch/client/CMakeFiles/light_switch_client_nrf52840_xxAA_s140_6.0.0.dir/__/__/__/mesh/core/src/mesh_opt.c.obj
 .bss           0x00000000        0x0 examples/light_switch/client/CMakeFiles/light_switch_client_nrf52840_xxAA_s140_6.0.0.dir/__/__/__/mesh/core/src/mesh_opt.c.obj
 .text          0x00000000        0x0 examples/light_switch/client/CMakeFiles/light_switch_client_nrf52840_xxAA_s140_6.0.0.dir/__/__/__/mesh/core/src/timeslot.c.obj
 .data          0x00000000        0x0 examples/light_switch/client/CMakeFiles/light_switch_client_nrf52840_xxAA_s140_6.0.0.dir/__/__/__/mesh/core/src/timeslot.c.obj
 .bss           0x00000000        0x0 examples/light_switch/client/CMakeFiles/light_switch_client_nrf52840_xxAA_s140_6.0.0.dir/__/__/__/mesh/core/src/timeslot.c.obj
 .text.timeslot_end_time_get
                0x00000000       0x10 examples/light_switch/client/CMakeFiles/light_switch_client_nrf52840_xxAA_s140_6.0.0.dir/__/__/__/mesh/core/src/timeslot.c.obj
 .text.timeslot_is_in_ts
                0x00000000        0xc examples/light_switch/client/CMakeFiles/light_switch_client_nrf52840_xxAA_s140_6.0.0.dir/__/__/__/mesh/core/src/timeslot.c.obj
 .text.timeslot_restart
                0x00000000       0x10 examples/light_switch/client/CMakeFiles/light_switch_client_nrf52840_xxAA_s140_6.0.0.dir/__/__/__/mesh/core/src/timeslot.c.obj
 .text          0x00000000        0x0 examples/light_switch/client/CMakeFiles/light_switch_client_nrf52840_xxAA_s140_6.0.0.dir/__/__/__/mesh/core/src/bearer_event.c.obj
 .data          0x00000000        0x0 examples/light_switch/client/CMakeFiles/light_switch_client_nrf52840_xxAA_s140_6.0.0.dir/__/__/__/mesh/core/src/bearer_event.c.obj
 .bss           0x00000000        0x0 examples/light_switch/client/CMakeFiles/light_switch_client_nrf52840_xxAA_s140_6.0.0.dir/__/__/__/mesh/core/src/bearer_event.c.obj
 .text.bearer_event_generic_post
                0x00000000       0x24 examples/light_switch/client/CMakeFiles/light_switch_client_nrf52840_xxAA_s140_6.0.0.dir/__/__/__/mesh/core/src/bearer_event.c.obj
 .text.bearer_event_timer_sch_post
                0x00000000       0x26 examples/light_switch/client/CMakeFiles/light_switch_client_nrf52840_xxAA_s140_6.0.0.dir/__/__/__/mesh/core/src/bearer_event.c.obj
 .text          0x00000000        0x0 examples/light_switch/client/CMakeFiles/light_switch_client_nrf52840_xxAA_s140_6.0.0.dir/__/__/__/mesh/core/src/enc.c.obj
 .data          0x00000000        0x0 examples/light_switch/client/CMakeFiles/light_switch_client_nrf52840_xxAA_s140_6.0.0.dir/__/__/__/mesh/core/src/enc.c.obj
 .bss           0x00000000        0x0 examples/light_switch/client/CMakeFiles/light_switch_client_nrf52840_xxAA_s140_6.0.0.dir/__/__/__/mesh/core/src/enc.c.obj
 .text.enc_key_generate
                0x00000000        0x6 examples/light_switch/client/CMakeFiles/light_switch_client_nrf52840_xxAA_s140_6.0.0.dir/__/__/__/mesh/core/src/enc.c.obj
 .text          0x00000000        0x0 examples/light_switch/client/CMakeFiles/light_switch_client_nrf52840_xxAA_s140_6.0.0.dir/__/__/__/mesh/core/src/network.c.obj
 .data          0x00000000        0x0 examples/light_switch/client/CMakeFiles/light_switch_client_nrf52840_xxAA_s140_6.0.0.dir/__/__/__/mesh/core/src/network.c.obj
 .bss           0x00000000        0x0 examples/light_switch/client/CMakeFiles/light_switch_client_nrf52840_xxAA_s140_6.0.0.dir/__/__/__/mesh/core/src/network.c.obj
 .text.network_packet_discard
                0x00000000       0x1e examples/light_switch/client/CMakeFiles/light_switch_client_nrf52840_xxAA_s140_6.0.0.dir/__/__/__/mesh/core/src/network.c.obj
 .text.network_opt_set
                0x00000000       0xc0 examples/light_switch/client/CMakeFiles/light_switch_client_nrf52840_xxAA_s140_6.0.0.dir/__/__/__/mesh/core/src/network.c.obj
 .text.network_opt_get
                0x00000000       0x88 examples/light_switch/client/CMakeFiles/light_switch_client_nrf52840_xxAA_s140_6.0.0.dir/__/__/__/mesh/core/src/network.c.obj
 .text          0x00000000        0x0 examples/light_switch/client/CMakeFiles/light_switch_client_nrf52840_xxAA_s140_6.0.0.dir/__/__/__/mesh/core/src/net_packet.c.obj
 .data          0x00000000        0x0 examples/light_switch/client/CMakeFiles/light_switch_client_nrf52840_xxAA_s140_6.0.0.dir/__/__/__/mesh/core/src/net_packet.c.obj
 .bss           0x00000000        0x0 examples/light_switch/client/CMakeFiles/light_switch_client_nrf52840_xxAA_s140_6.0.0.dir/__/__/__/mesh/core/src/net_packet.c.obj
 .text.net_packet_enc_start_get
                0x00000000        0x4 examples/light_switch/client/CMakeFiles/light_switch_client_nrf52840_xxAA_s140_6.0.0.dir/__/__/__/mesh/core/src/net_packet.c.obj
 .text.net_packet_payload_get
                0x00000000        0x4 examples/light_switch/client/CMakeFiles/light_switch_client_nrf52840_xxAA_s140_6.0.0.dir/__/__/__/mesh/core/src/net_packet.c.obj
 .text          0x00000000        0x0 examples/light_switch/client/CMakeFiles/light_switch_client_nrf52840_xxAA_s140_6.0.0.dir/__/__/__/mesh/core/src/msqueue.c.obj
 .data          0x00000000        0x0 examples/light_switch/client/CMakeFiles/light_switch_client_nrf52840_xxAA_s140_6.0.0.dir/__/__/__/mesh/core/src/msqueue.c.obj
 .bss           0x00000000        0x0 examples/light_switch/client/CMakeFiles/light_switch_client_nrf52840_xxAA_s140_6.0.0.dir/__/__/__/mesh/core/src/msqueue.c.obj
 .text          0x00000000        0x0 examples/light_switch/client/CMakeFiles/light_switch_client_nrf52840_xxAA_s140_6.0.0.dir/__/__/__/mesh/core/src/nrf_mesh_keygen.c.obj
 .data          0x00000000        0x0 examples/light_switch/client/CMakeFiles/light_switch_client_nrf52840_xxAA_s140_6.0.0.dir/__/__/__/mesh/core/src/nrf_mesh_keygen.c.obj
 .bss           0x00000000        0x0 examples/light_switch/client/CMakeFiles/light_switch_client_nrf52840_xxAA_s140_6.0.0.dir/__/__/__/mesh/core/src/nrf_mesh_keygen.c.obj
 .text.nrf_mesh_keygen_identitykey
                0x00000000       0x4c examples/light_switch/client/CMakeFiles/light_switch_client_nrf52840_xxAA_s140_6.0.0.dir/__/__/__/mesh/core/src/nrf_mesh_keygen.c.obj
 .text          0x00000000        0x0 examples/light_switch/client/CMakeFiles/light_switch_client_nrf52840_xxAA_s140_6.0.0.dir/__/__/__/mesh/core/src/cache.c.obj
 .data          0x00000000        0x0 examples/light_switch/client/CMakeFiles/light_switch_client_nrf52840_xxAA_s140_6.0.0.dir/__/__/__/mesh/core/src/cache.c.obj
 .bss           0x00000000        0x0 examples/light_switch/client/CMakeFiles/light_switch_client_nrf52840_xxAA_s140_6.0.0.dir/__/__/__/mesh/core/src/cache.c.obj
 .text.erase_at
                0x00000000       0x1c examples/light_switch/client/CMakeFiles/light_switch_client_nrf52840_xxAA_s140_6.0.0.dir/__/__/__/mesh/core/src/cache.c.obj
 .text.cache_init
                0x00000000       0x1e examples/light_switch/client/CMakeFiles/light_switch_client_nrf52840_xxAA_s140_6.0.0.dir/__/__/__/mesh/core/src/cache.c.obj
 .text.cache_has_elem
                0x00000000       0x3e examples/light_switch/client/CMakeFiles/light_switch_client_nrf52840_xxAA_s140_6.0.0.dir/__/__/__/mesh/core/src/cache.c.obj
 .text.cache_put
                0x00000000       0x2a examples/light_switch/client/CMakeFiles/light_switch_client_nrf52840_xxAA_s140_6.0.0.dir/__/__/__/mesh/core/src/cache.c.obj
 .text.cache_erase_elem
                0x00000000       0x4c examples/light_switch/client/CMakeFiles/light_switch_client_nrf52840_xxAA_s140_6.0.0.dir/__/__/__/mesh/core/src/cache.c.obj
 .debug_info    0x00000000      0xbe1 examples/light_switch/client/CMakeFiles/light_switch_client_nrf52840_xxAA_s140_6.0.0.dir/__/__/__/mesh/core/src/cache.c.obj
 .debug_abbrev  0x00000000      0x2a3 examples/light_switch/client/CMakeFiles/light_switch_client_nrf52840_xxAA_s140_6.0.0.dir/__/__/__/mesh/core/src/cache.c.obj
 .debug_loc     0x00000000      0x29b examples/light_switch/client/CMakeFiles/light_switch_client_nrf52840_xxAA_s140_6.0.0.dir/__/__/__/mesh/core/src/cache.c.obj
 .debug_aranges
                0x00000000       0x40 examples/light_switch/client/CMakeFiles/light_switch_client_nrf52840_xxAA_s140_6.0.0.dir/__/__/__/mesh/core/src/cache.c.obj
 .debug_ranges  0x00000000       0x80 examples/light_switch/client/CMakeFiles/light_switch_client_nrf52840_xxAA_s140_6.0.0.dir/__/__/__/mesh/core/src/cache.c.obj
 .debug_line    0x00000000      0x20a examples/light_switch/client/CMakeFiles/light_switch_client_nrf52840_xxAA_s140_6.0.0.dir/__/__/__/mesh/core/src/cache.c.obj
 .debug_str     0x00000000      0x6af examples/light_switch/client/CMakeFiles/light_switch_client_nrf52840_xxAA_s140_6.0.0.dir/__/__/__/mesh/core/src/cache.c.obj
 .comment       0x00000000       0x80 examples/light_switch/client/CMakeFiles/light_switch_client_nrf52840_xxAA_s140_6.0.0.dir/__/__/__/mesh/core/src/cache.c.obj
 .debug_frame   0x00000000       0xb0 examples/light_switch/client/CMakeFiles/light_switch_client_nrf52840_xxAA_s140_6.0.0.dir/__/__/__/mesh/core/src/cache.c.obj
 .ARM.attributes
                0x00000000       0x39 examples/light_switch/client/CMakeFiles/light_switch_client_nrf52840_xxAA_s140_6.0.0.dir/__/__/__/mesh/core/src/cache.c.obj
 .text          0x00000000        0x0 examples/light_switch/client/CMakeFiles/light_switch_client_nrf52840_xxAA_s140_6.0.0.dir/__/__/__/mesh/core/src/list.c.obj
 .data          0x00000000        0x0 examples/light_switch/client/CMakeFiles/light_switch_client_nrf52840_xxAA_s140_6.0.0.dir/__/__/__/mesh/core/src/list.c.obj
 .bss           0x00000000        0x0 examples/light_switch/client/CMakeFiles/light_switch_client_nrf52840_xxAA_s140_6.0.0.dir/__/__/__/mesh/core/src/list.c.obj
 .text.list_size_get
                0x00000000       0x12 examples/light_switch/client/CMakeFiles/light_switch_client_nrf52840_xxAA_s140_6.0.0.dir/__/__/__/mesh/core/src/list.c.obj
 .text.list_sorted_add
                0x00000000       0x6c examples/light_switch/client/CMakeFiles/light_switch_client_nrf52840_xxAA_s140_6.0.0.dir/__/__/__/mesh/core/src/list.c.obj
 .text          0x00000000        0x0 examples/light_switch/client/CMakeFiles/light_switch_client_nrf52840_xxAA_s140_6.0.0.dir/__/__/__/mesh/core/src/log.c.obj
 .data          0x00000000        0x0 examples/light_switch/client/CMakeFiles/light_switch_client_nrf52840_xxAA_s140_6.0.0.dir/__/__/__/mesh/core/src/log.c.obj
 .bss           0x00000000        0x0 examples/light_switch/client/CMakeFiles/light_switch_client_nrf52840_xxAA_s140_6.0.0.dir/__/__/__/mesh/core/src/log.c.obj
 .text.log_callback_logview
                0x00000000       0x38 examples/light_switch/client/CMakeFiles/light_switch_client_nrf52840_xxAA_s140_6.0.0.dir/__/__/__/mesh/core/src/log.c.obj
 .text.log_set_callback
                0x00000000        0xc examples/light_switch/client/CMakeFiles/light_switch_client_nrf52840_xxAA_s140_6.0.0.dir/__/__/__/mesh/core/src/log.c.obj
 .rodata.log_callback_logview.str1.1
                0x00000000        0xf examples/light_switch/client/CMakeFiles/light_switch_client_nrf52840_xxAA_s140_6.0.0.dir/__/__/__/mesh/core/src/log.c.obj
 .text          0x00000000        0x0 examples/light_switch/client/CMakeFiles/light_switch_client_nrf52840_xxAA_s140_6.0.0.dir/__/__/__/mesh/core/src/flash_manager.c.obj
 .data          0x00000000        0x0 examples/light_switch/client/CMakeFiles/light_switch_client_nrf52840_xxAA_s140_6.0.0.dir/__/__/__/mesh/core/src/flash_manager.c.obj
 .bss           0x00000000        0x0 examples/light_switch/client/CMakeFiles/light_switch_client_nrf52840_xxAA_s140_6.0.0.dir/__/__/__/mesh/core/src/flash_manager.c.obj
 .text.flash_manager_entry_count_get
                0x00000000       0x50 examples/light_switch/client/CMakeFiles/light_switch_client_nrf52840_xxAA_s140_6.0.0.dir/__/__/__/mesh/core/src/flash_manager.c.obj
 .text.flash_manager_entry_release
                0x00000000       0x2c examples/light_switch/client/CMakeFiles/light_switch_client_nrf52840_xxAA_s140_6.0.0.dir/__/__/__/mesh/core/src/flash_manager.c.obj
 .text          0x00000000        0x0 examples/light_switch/client/CMakeFiles/light_switch_client_nrf52840_xxAA_s140_6.0.0.dir/__/__/__/mesh/core/src/ccm_soft.c.obj
 .data          0x00000000        0x0 examples/light_switch/client/CMakeFiles/light_switch_client_nrf52840_xxAA_s140_6.0.0.dir/__/__/__/mesh/core/src/ccm_soft.c.obj
 .bss           0x00000000        0x0 examples/light_switch/client/CMakeFiles/light_switch_client_nrf52840_xxAA_s140_6.0.0.dir/__/__/__/mesh/core/src/ccm_soft.c.obj
 .text          0x00000000        0x0 examples/light_switch/client/CMakeFiles/light_switch_client_nrf52840_xxAA_s140_6.0.0.dir/__/__/__/mesh/core/src/toolchain.c.obj
 .data          0x00000000        0x0 examples/light_switch/client/CMakeFiles/light_switch_client_nrf52840_xxAA_s140_6.0.0.dir/__/__/__/mesh/core/src/toolchain.c.obj
 .bss           0x00000000        0x0 examples/light_switch/client/CMakeFiles/light_switch_client_nrf52840_xxAA_s140_6.0.0.dir/__/__/__/mesh/core/src/toolchain.c.obj
 .debug_info    0x00000000       0xb3 examples/light_switch/client/CMakeFiles/light_switch_client_nrf52840_xxAA_s140_6.0.0.dir/__/__/__/mesh/core/src/toolchain.c.obj
 .debug_abbrev  0x00000000       0x5c examples/light_switch/client/CMakeFiles/light_switch_client_nrf52840_xxAA_s140_6.0.0.dir/__/__/__/mesh/core/src/toolchain.c.obj
 .debug_aranges
                0x00000000       0x18 examples/light_switch/client/CMakeFiles/light_switch_client_nrf52840_xxAA_s140_6.0.0.dir/__/__/__/mesh/core/src/toolchain.c.obj
 .debug_line    0x00000000      0x123 examples/light_switch/client/CMakeFiles/light_switch_client_nrf52840_xxAA_s140_6.0.0.dir/__/__/__/mesh/core/src/toolchain.c.obj
 .debug_str     0x00000000      0x1fa examples/light_switch/client/CMakeFiles/light_switch_client_nrf52840_xxAA_s140_6.0.0.dir/__/__/__/mesh/core/src/toolchain.c.obj
 .comment       0x00000000       0x80 examples/light_switch/client/CMakeFiles/light_switch_client_nrf52840_xxAA_s140_6.0.0.dir/__/__/__/mesh/core/src/toolchain.c.obj
 .ARM.attributes
                0x00000000       0x39 examples/light_switch/client/CMakeFiles/light_switch_client_nrf52840_xxAA_s140_6.0.0.dir/__/__/__/mesh/core/src/toolchain.c.obj
 .text          0x00000000        0x0 examples/light_switch/client/CMakeFiles/light_switch_client_nrf52840_xxAA_s140_6.0.0.dir/__/__/__/mesh/core/src/replay_cache.c.obj
 .data          0x00000000        0x0 examples/light_switch/client/CMakeFiles/light_switch_client_nrf52840_xxAA_s140_6.0.0.dir/__/__/__/mesh/core/src/replay_cache.c.obj
 .bss           0x00000000        0x0 examples/light_switch/client/CMakeFiles/light_switch_client_nrf52840_xxAA_s140_6.0.0.dir/__/__/__/mesh/core/src/replay_cache.c.obj
 .text.replay_cache_on_iv_update
                0x00000000       0x24 examples/light_switch/client/CMakeFiles/light_switch_client_nrf52840_xxAA_s140_6.0.0.dir/__/__/__/mesh/core/src/replay_cache.c.obj
 .text          0x00000000        0x0 examples/light_switch/client/CMakeFiles/light_switch_client_nrf52840_xxAA_s140_6.0.0.dir/__/__/__/mesh/core/src/beacon.c.obj
 .data          0x00000000        0x0 examples/light_switch/client/CMakeFiles/light_switch_client_nrf52840_xxAA_s140_6.0.0.dir/__/__/__/mesh/core/src/beacon.c.obj
 .bss           0x00000000        0x0 examples/light_switch/client/CMakeFiles/light_switch_client_nrf52840_xxAA_s140_6.0.0.dir/__/__/__/mesh/core/src/beacon.c.obj
 .text          0x00000000        0x0 examples/light_switch/client/CMakeFiles/light_switch_client_nrf52840_xxAA_s140_6.0.0.dir/__/__/__/mesh/core/src/flash_manager_internal.c.obj
 .data          0x00000000        0x0 examples/light_switch/client/CMakeFiles/light_switch_client_nrf52840_xxAA_s140_6.0.0.dir/__/__/__/mesh/core/src/flash_manager_internal.c.obj
 .bss           0x00000000        0x0 examples/light_switch/client/CMakeFiles/light_switch_client_nrf52840_xxAA_s140_6.0.0.dir/__/__/__/mesh/core/src/flash_manager_internal.c.obj
 .text          0x00000000        0x0 examples/light_switch/client/CMakeFiles/light_switch_client_nrf52840_xxAA_s140_6.0.0.dir/__/__/__/mesh/core/src/core_tx.c.obj
 .data          0x00000000        0x0 examples/light_switch/client/CMakeFiles/light_switch_client_nrf52840_xxAA_s140_6.0.0.dir/__/__/__/mesh/core/src/core_tx.c.obj
 .bss           0x00000000        0x0 examples/light_switch/client/CMakeFiles/light_switch_client_nrf52840_xxAA_s140_6.0.0.dir/__/__/__/mesh/core/src/core_tx.c.obj
 .text.core_tx_bearer_type_get
                0x00000000       0x1c examples/light_switch/client/CMakeFiles/light_switch_client_nrf52840_xxAA_s140_6.0.0.dir/__/__/__/mesh/core/src/core_tx.c.obj
 .text.core_tx_bearer_count_get
                0x00000000        0xc examples/light_switch/client/CMakeFiles/light_switch_client_nrf52840_xxAA_s140_6.0.0.dir/__/__/__/mesh/core/src/core_tx.c.obj
 .text          0x00000000        0x0 examples/light_switch/client/CMakeFiles/light_switch_client_nrf52840_xxAA_s140_6.0.0.dir/__/__/__/mesh/core/src/heartbeat.c.obj
 .data          0x00000000        0x0 examples/light_switch/client/CMakeFiles/light_switch_client_nrf52840_xxAA_s140_6.0.0.dir/__/__/__/mesh/core/src/heartbeat.c.obj
 .bss           0x00000000        0x0 examples/light_switch/client/CMakeFiles/light_switch_client_nrf52840_xxAA_s140_6.0.0.dir/__/__/__/mesh/core/src/heartbeat.c.obj
 .text          0x00000000        0x0 examples/light_switch/client/CMakeFiles/light_switch_client_nrf52840_xxAA_s140_6.0.0.dir/__/__/__/mesh/core/src/net_beacon.c.obj
 .data          0x00000000        0x0 examples/light_switch/client/CMakeFiles/light_switch_client_nrf52840_xxAA_s140_6.0.0.dir/__/__/__/mesh/core/src/net_beacon.c.obj
 .bss           0x00000000        0x0 examples/light_switch/client/CMakeFiles/light_switch_client_nrf52840_xxAA_s140_6.0.0.dir/__/__/__/mesh/core/src/net_beacon.c.obj
 .text.net_beacon_build
                0x00000000       0x24 examples/light_switch/client/CMakeFiles/light_switch_client_nrf52840_xxAA_s140_6.0.0.dir/__/__/__/mesh/core/src/net_beacon.c.obj
 .text          0x00000000        0x0 examples/light_switch/client/CMakeFiles/light_switch_client_nrf52840_xxAA_s140_6.0.0.dir/__/__/__/mesh/core/src/mesh_config.c.obj
 .data          0x00000000        0x0 examples/light_switch/client/CMakeFiles/light_switch_client_nrf52840_xxAA_s140_6.0.0.dir/__/__/__/mesh/core/src/mesh_config.c.obj
 .bss           0x00000000        0x0 examples/light_switch/client/CMakeFiles/light_switch_client_nrf52840_xxAA_s140_6.0.0.dir/__/__/__/mesh/core/src/mesh_config.c.obj
 .text.mesh_config_power_down
                0x00000000        0x6 examples/light_switch/client/CMakeFiles/light_switch_client_nrf52840_xxAA_s140_6.0.0.dir/__/__/__/mesh/core/src/mesh_config.c.obj
 .text.mesh_config_entry_available_id
                0x00000000       0x36 examples/light_switch/client/CMakeFiles/light_switch_client_nrf52840_xxAA_s140_6.0.0.dir/__/__/__/mesh/core/src/mesh_config.c.obj
 .text.mesh_config_entry_delete
                0x00000000       0x74 examples/light_switch/client/CMakeFiles/light_switch_client_nrf52840_xxAA_s140_6.0.0.dir/__/__/__/mesh/core/src/mesh_config.c.obj
 .text.mesh_config_power_down_time_get
                0x00000000        0x4 examples/light_switch/client/CMakeFiles/light_switch_client_nrf52840_xxAA_s140_6.0.0.dir/__/__/__/mesh/core/src/mesh_config.c.obj
 .text          0x00000000        0x0 examples/light_switch/client/CMakeFiles/light_switch_client_nrf52840_xxAA_s140_6.0.0.dir/__/__/__/mesh/core/src/fsm.c.obj
 .data          0x00000000        0x0 examples/light_switch/client/CMakeFiles/light_switch_client_nrf52840_xxAA_s140_6.0.0.dir/__/__/__/mesh/core/src/fsm.c.obj
 .bss           0x00000000        0x0 examples/light_switch/client/CMakeFiles/light_switch_client_nrf52840_xxAA_s140_6.0.0.dir/__/__/__/mesh/core/src/fsm.c.obj
 .text.fsm_event_post_try
                0x00000000      0x1ec examples/light_switch/client/CMakeFiles/light_switch_client_nrf52840_xxAA_s140_6.0.0.dir/__/__/__/mesh/core/src/fsm.c.obj
 .text.fsm_init
                0x00000000       0xcc examples/light_switch/client/CMakeFiles/light_switch_client_nrf52840_xxAA_s140_6.0.0.dir/__/__/__/mesh/core/src/fsm.c.obj
 .text.fsm_event_post
                0x00000000       0xac examples/light_switch/client/CMakeFiles/light_switch_client_nrf52840_xxAA_s140_6.0.0.dir/__/__/__/mesh/core/src/fsm.c.obj
 .text.fsm_is_processing
                0x00000000        0xa examples/light_switch/client/CMakeFiles/light_switch_client_nrf52840_xxAA_s140_6.0.0.dir/__/__/__/mesh/core/src/fsm.c.obj
 .rodata.fsm_event_post.str1.1
                0x00000000        0xb examples/light_switch/client/CMakeFiles/light_switch_client_nrf52840_xxAA_s140_6.0.0.dir/__/__/__/mesh/core/src/fsm.c.obj
 .rodata.fsm_event_post_try.str1.1
                0x00000000       0x41 examples/light_switch/client/CMakeFiles/light_switch_client_nrf52840_xxAA_s140_6.0.0.dir/__/__/__/mesh/core/src/fsm.c.obj
 .rodata.fsm_init.str1.1
                0x00000000        0xa examples/light_switch/client/CMakeFiles/light_switch_client_nrf52840_xxAA_s140_6.0.0.dir/__/__/__/mesh/core/src/fsm.c.obj
 .debug_info    0x00000000     0x132d examples/light_switch/client/CMakeFiles/light_switch_client_nrf52840_xxAA_s140_6.0.0.dir/__/__/__/mesh/core/src/fsm.c.obj
 .debug_abbrev  0x00000000      0x345 examples/light_switch/client/CMakeFiles/light_switch_client_nrf52840_xxAA_s140_6.0.0.dir/__/__/__/mesh/core/src/fsm.c.obj
 .debug_loc     0x00000000      0x3fd examples/light_switch/client/CMakeFiles/light_switch_client_nrf52840_xxAA_s140_6.0.0.dir/__/__/__/mesh/core/src/fsm.c.obj
 .debug_aranges
                0x00000000       0x38 examples/light_switch/client/CMakeFiles/light_switch_client_nrf52840_xxAA_s140_6.0.0.dir/__/__/__/mesh/core/src/fsm.c.obj
 .debug_ranges  0x00000000       0xe0 examples/light_switch/client/CMakeFiles/light_switch_client_nrf52840_xxAA_s140_6.0.0.dir/__/__/__/mesh/core/src/fsm.c.obj
 .debug_line    0x00000000      0x3ce examples/light_switch/client/CMakeFiles/light_switch_client_nrf52840_xxAA_s140_6.0.0.dir/__/__/__/mesh/core/src/fsm.c.obj
 .debug_str     0x00000000      0x984 examples/light_switch/client/CMakeFiles/light_switch_client_nrf52840_xxAA_s140_6.0.0.dir/__/__/__/mesh/core/src/fsm.c.obj
 .comment       0x00000000       0x80 examples/light_switch/client/CMakeFiles/light_switch_client_nrf52840_xxAA_s140_6.0.0.dir/__/__/__/mesh/core/src/fsm.c.obj
 .debug_frame   0x00000000       0x9c examples/light_switch/client/CMakeFiles/light_switch_client_nrf52840_xxAA_s140_6.0.0.dir/__/__/__/mesh/core/src/fsm.c.obj
 .ARM.attributes
                0x00000000       0x39 examples/light_switch/client/CMakeFiles/light_switch_client_nrf52840_xxAA_s140_6.0.0.dir/__/__/__/mesh/core/src/fsm.c.obj
 .text          0x00000000        0x0 examples/light_switch/client/CMakeFiles/light_switch_client_nrf52840_xxAA_s140_6.0.0.dir/__/__/__/mesh/core/src/mesh_config_backend.c.obj
 .data          0x00000000        0x0 examples/light_switch/client/CMakeFiles/light_switch_client_nrf52840_xxAA_s140_6.0.0.dir/__/__/__/mesh/core/src/mesh_config_backend.c.obj
 .bss           0x00000000        0x0 examples/light_switch/client/CMakeFiles/light_switch_client_nrf52840_xxAA_s140_6.0.0.dir/__/__/__/mesh/core/src/mesh_config_backend.c.obj
 .text.mesh_config_backend_read
                0x00000000       0x58 examples/light_switch/client/CMakeFiles/light_switch_client_nrf52840_xxAA_s140_6.0.0.dir/__/__/__/mesh/core/src/mesh_config_backend.c.obj
 .text.mesh_config_backend_power_down_time_get
                0x00000000        0xc examples/light_switch/client/CMakeFiles/light_switch_client_nrf52840_xxAA_s140_6.0.0.dir/__/__/__/mesh/core/src/mesh_config_backend.c.obj
 .text          0x00000000        0x0 examples/light_switch/client/CMakeFiles/light_switch_client_nrf52840_xxAA_s140_6.0.0.dir/__/__/__/mesh/core/src/mesh_config_flashman_glue.c.obj
 .data          0x00000000        0x0 examples/light_switch/client/CMakeFiles/light_switch_client_nrf52840_xxAA_s140_6.0.0.dir/__/__/__/mesh/core/src/mesh_config_flashman_glue.c.obj
 .bss           0x00000000        0x0 examples/light_switch/client/CMakeFiles/light_switch_client_nrf52840_xxAA_s140_6.0.0.dir/__/__/__/mesh/core/src/mesh_config_flashman_glue.c.obj
 .text.mesh_config_backend_record_read
                0x00000000       0x38 examples/light_switch/client/CMakeFiles/light_switch_client_nrf52840_xxAA_s140_6.0.0.dir/__/__/__/mesh/core/src/mesh_config_flashman_glue.c.obj
 .text.mesh_config_backend_flash_usage_get
                0x00000000       0x24 examples/light_switch/client/CMakeFiles/light_switch_client_nrf52840_xxAA_s140_6.0.0.dir/__/__/__/mesh/core/src/mesh_config_flashman_glue.c.obj
 .text          0x00000000        0x0 examples/light_switch/client/CMakeFiles/light_switch_client_nrf52840_xxAA_s140_6.0.0.dir/__/__/__/mesh/core/src/core_tx_adv.c.obj
 .data          0x00000000        0x0 examples/light_switch/client/CMakeFiles/light_switch_client_nrf52840_xxAA_s140_6.0.0.dir/__/__/__/mesh/core/src/core_tx_adv.c.obj
 .bss           0x00000000        0x0 examples/light_switch/client/CMakeFiles/light_switch_client_nrf52840_xxAA_s140_6.0.0.dir/__/__/__/mesh/core/src/core_tx_adv.c.obj
 .text.mesh_opt_core_adv_delete
                0x00000000       0x24 examples/light_switch/client/CMakeFiles/light_switch_client_nrf52840_xxAA_s140_6.0.0.dir/__/__/__/mesh/core/src/core_tx_adv.c.obj
 .text.mesh_opt_core_adv_addr_set
                0x00000000       0x24 examples/light_switch/client/CMakeFiles/light_switch_client_nrf52840_xxAA_s140_6.0.0.dir/__/__/__/mesh/core/src/core_tx_adv.c.obj
 .text.mesh_opt_core_adv_addr_get
                0x00000000       0x24 examples/light_switch/client/CMakeFiles/light_switch_client_nrf52840_xxAA_s140_6.0.0.dir/__/__/__/mesh/core/src/core_tx_adv.c.obj
 .text.mesh_opt_core_adv_addr_delete
                0x00000000       0x24 examples/light_switch/client/CMakeFiles/light_switch_client_nrf52840_xxAA_s140_6.0.0.dir/__/__/__/mesh/core/src/core_tx_adv.c.obj
 .text.mesh_opt_core_tx_power_set
                0x00000000       0x2c examples/light_switch/client/CMakeFiles/light_switch_client_nrf52840_xxAA_s140_6.0.0.dir/__/__/__/mesh/core/src/core_tx_adv.c.obj
 .text.mesh_opt_core_tx_power_get
                0x00000000       0x24 examples/light_switch/client/CMakeFiles/light_switch_client_nrf52840_xxAA_s140_6.0.0.dir/__/__/__/mesh/core/src/core_tx_adv.c.obj
 .text.mesh_opt_core_tx_power_delete
                0x00000000       0x24 examples/light_switch/client/CMakeFiles/light_switch_client_nrf52840_xxAA_s140_6.0.0.dir/__/__/__/mesh/core/src/core_tx_adv.c.obj
 .text          0x00000000        0x0 examples/light_switch/client/CMakeFiles/light_switch_client_nrf52840_xxAA_s140_6.0.0.dir/__/__/__/mesh/bearer/src/ad_listener.c.obj
 .data          0x00000000        0x0 examples/light_switch/client/CMakeFiles/light_switch_client_nrf52840_xxAA_s140_6.0.0.dir/__/__/__/mesh/bearer/src/ad_listener.c.obj
 .bss           0x00000000        0x0 examples/light_switch/client/CMakeFiles/light_switch_client_nrf52840_xxAA_s140_6.0.0.dir/__/__/__/mesh/bearer/src/ad_listener.c.obj
 .text.ad_listener_unsubscribe
                0x00000000       0x6c examples/light_switch/client/CMakeFiles/light_switch_client_nrf52840_xxAA_s140_6.0.0.dir/__/__/__/mesh/bearer/src/ad_listener.c.obj
 .text          0x00000000        0x0 examples/light_switch/client/CMakeFiles/light_switch_client_nrf52840_xxAA_s140_6.0.0.dir/__/__/__/mesh/bearer/src/ad_type_filter.c.obj
 .data          0x00000000        0x0 examples/light_switch/client/CMakeFiles/light_switch_client_nrf52840_xxAA_s140_6.0.0.dir/__/__/__/mesh/bearer/src/ad_type_filter.c.obj
 .bss           0x00000000        0x0 examples/light_switch/client/CMakeFiles/light_switch_client_nrf52840_xxAA_s140_6.0.0.dir/__/__/__/mesh/bearer/src/ad_type_filter.c.obj
 .text.bearer_adtype_remove
                0x00000000       0x20 examples/light_switch/client/CMakeFiles/light_switch_client_nrf52840_xxAA_s140_6.0.0.dir/__/__/__/mesh/bearer/src/ad_type_filter.c.obj
 .text.bearer_adtype_clear
                0x00000000       0x10 examples/light_switch/client/CMakeFiles/light_switch_client_nrf52840_xxAA_s140_6.0.0.dir/__/__/__/mesh/bearer/src/ad_type_filter.c.obj
 .text.bearer_invalid_length_amount_get
                0x00000000        0xc examples/light_switch/client/CMakeFiles/light_switch_client_nrf52840_xxAA_s140_6.0.0.dir/__/__/__/mesh/bearer/src/ad_type_filter.c.obj
 .text.bearer_adtype_filtered_amount_get
                0x00000000        0xc examples/light_switch/client/CMakeFiles/light_switch_client_nrf52840_xxAA_s140_6.0.0.dir/__/__/__/mesh/bearer/src/ad_type_filter.c.obj
 .text          0x00000000        0x0 examples/light_switch/client/CMakeFiles/light_switch_client_nrf52840_xxAA_s140_6.0.0.dir/__/__/__/mesh/bearer/src/adv_packet_filter.c.obj
 .data          0x00000000        0x0 examples/light_switch/client/CMakeFiles/light_switch_client_nrf52840_xxAA_s140_6.0.0.dir/__/__/__/mesh/bearer/src/adv_packet_filter.c.obj
 .bss           0x00000000        0x0 examples/light_switch/client/CMakeFiles/light_switch_client_nrf52840_xxAA_s140_6.0.0.dir/__/__/__/mesh/bearer/src/adv_packet_filter.c.obj
 .text.adv_filter_handle
                0x00000000       0x3c examples/light_switch/client/CMakeFiles/light_switch_client_nrf52840_xxAA_s140_6.0.0.dir/__/__/__/mesh/bearer/src/adv_packet_filter.c.obj
 .text.bearer_adv_packet_filtering_set
                0x00000000       0x1c examples/light_switch/client/CMakeFiles/light_switch_client_nrf52840_xxAA_s140_6.0.0.dir/__/__/__/mesh/bearer/src/adv_packet_filter.c.obj
 .text.bearer_adv_packet_remove
                0x00000000       0x18 examples/light_switch/client/CMakeFiles/light_switch_client_nrf52840_xxAA_s140_6.0.0.dir/__/__/__/mesh/bearer/src/adv_packet_filter.c.obj
 .text.bearer_adv_packet_add
                0x00000000       0x14 examples/light_switch/client/CMakeFiles/light_switch_client_nrf52840_xxAA_s140_6.0.0.dir/__/__/__/mesh/bearer/src/adv_packet_filter.c.obj
 .text.bearer_adv_packet_clear
                0x00000000        0xc examples/light_switch/client/CMakeFiles/light_switch_client_nrf52840_xxAA_s140_6.0.0.dir/__/__/__/mesh/bearer/src/adv_packet_filter.c.obj
 .text.bearer_adv_packet_filter_mode_set
                0x00000000       0x18 examples/light_switch/client/CMakeFiles/light_switch_client_nrf52840_xxAA_s140_6.0.0.dir/__/__/__/mesh/bearer/src/adv_packet_filter.c.obj
 .text.bearer_adv_packet_filtered_amount_get
                0x00000000        0xc examples/light_switch/client/CMakeFiles/light_switch_client_nrf52840_xxAA_s140_6.0.0.dir/__/__/__/mesh/bearer/src/adv_packet_filter.c.obj
 .bss.m_adv_packet_filter
                0x00000000       0x14 examples/light_switch/client/CMakeFiles/light_switch_client_nrf52840_xxAA_s140_6.0.0.dir/__/__/__/mesh/bearer/src/adv_packet_filter.c.obj
 .debug_info    0x00000000      0xdc3 examples/light_switch/client/CMakeFiles/light_switch_client_nrf52840_xxAA_s140_6.0.0.dir/__/__/__/mesh/bearer/src/adv_packet_filter.c.obj
 .debug_abbrev  0x00000000      0x2c9 examples/light_switch/client/CMakeFiles/light_switch_client_nrf52840_xxAA_s140_6.0.0.dir/__/__/__/mesh/bearer/src/adv_packet_filter.c.obj
 .debug_loc     0x00000000      0x1c0 examples/light_switch/client/CMakeFiles/light_switch_client_nrf52840_xxAA_s140_6.0.0.dir/__/__/__/mesh/bearer/src/adv_packet_filter.c.obj
 .debug_aranges
                0x00000000       0x50 examples/light_switch/client/CMakeFiles/light_switch_client_nrf52840_xxAA_s140_6.0.0.dir/__/__/__/mesh/bearer/src/adv_packet_filter.c.obj
 .debug_ranges  0x00000000       0x40 examples/light_switch/client/CMakeFiles/light_switch_client_nrf52840_xxAA_s140_6.0.0.dir/__/__/__/mesh/bearer/src/adv_packet_filter.c.obj
 .debug_line    0x00000000      0x3a0 examples/light_switch/client/CMakeFiles/light_switch_client_nrf52840_xxAA_s140_6.0.0.dir/__/__/__/mesh/bearer/src/adv_packet_filter.c.obj
 .debug_str     0x00000000      0xa55 examples/light_switch/client/CMakeFiles/light_switch_client_nrf52840_xxAA_s140_6.0.0.dir/__/__/__/mesh/bearer/src/adv_packet_filter.c.obj
 .comment       0x00000000       0x80 examples/light_switch/client/CMakeFiles/light_switch_client_nrf52840_xxAA_s140_6.0.0.dir/__/__/__/mesh/bearer/src/adv_packet_filter.c.obj
 .debug_frame   0x00000000       0x88 examples/light_switch/client/CMakeFiles/light_switch_client_nrf52840_xxAA_s140_6.0.0.dir/__/__/__/mesh/bearer/src/adv_packet_filter.c.obj
 .ARM.attributes
                0x00000000       0x39 examples/light_switch/client/CMakeFiles/light_switch_client_nrf52840_xxAA_s140_6.0.0.dir/__/__/__/mesh/bearer/src/adv_packet_filter.c.obj
 .text          0x00000000        0x0 examples/light_switch/client/CMakeFiles/light_switch_client_nrf52840_xxAA_s140_6.0.0.dir/__/__/__/mesh/bearer/src/advertiser.c.obj
 .data          0x00000000        0x0 examples/light_switch/client/CMakeFiles/light_switch_client_nrf52840_xxAA_s140_6.0.0.dir/__/__/__/mesh/bearer/src/advertiser.c.obj
 .bss           0x00000000        0x0 examples/light_switch/client/CMakeFiles/light_switch_client_nrf52840_xxAA_s140_6.0.0.dir/__/__/__/mesh/bearer/src/advertiser.c.obj
 .text.advertiser_channels_set
                0x00000000       0x60 examples/light_switch/client/CMakeFiles/light_switch_client_nrf52840_xxAA_s140_6.0.0.dir/__/__/__/mesh/bearer/src/advertiser.c.obj
 .text.advertiser_config_set
                0x00000000       0x3a examples/light_switch/client/CMakeFiles/light_switch_client_nrf52840_xxAA_s140_6.0.0.dir/__/__/__/mesh/bearer/src/advertiser.c.obj
 .text.advertiser_config_get
                0x00000000       0x20 examples/light_switch/client/CMakeFiles/light_switch_client_nrf52840_xxAA_s140_6.0.0.dir/__/__/__/mesh/bearer/src/advertiser.c.obj
 .text          0x00000000        0x0 examples/light_switch/client/CMakeFiles/light_switch_client_nrf52840_xxAA_s140_6.0.0.dir/__/__/__/mesh/bearer/src/bearer_handler.c.obj
 .data          0x00000000        0x0 examples/light_switch/client/CMakeFiles/light_switch_client_nrf52840_xxAA_s140_6.0.0.dir/__/__/__/mesh/bearer/src/bearer_handler.c.obj
 .bss           0x00000000        0x0 examples/light_switch/client/CMakeFiles/light_switch_client_nrf52840_xxAA_s140_6.0.0.dir/__/__/__/mesh/bearer/src/bearer_handler.c.obj
 .text.bearer_handler_stop
                0x00000000       0x20 examples/light_switch/client/CMakeFiles/light_switch_client_nrf52840_xxAA_s140_6.0.0.dir/__/__/__/mesh/bearer/src/bearer_handler.c.obj
 .text.bearer_handler_action_fire
                0x00000000       0x9c examples/light_switch/client/CMakeFiles/light_switch_client_nrf52840_xxAA_s140_6.0.0.dir/__/__/__/mesh/bearer/src/bearer_handler.c.obj
 .text          0x00000000        0x0 examples/light_switch/client/CMakeFiles/light_switch_client_nrf52840_xxAA_s140_6.0.0.dir/__/__/__/mesh/bearer/src/broadcast.c.obj
 .data          0x00000000        0x0 examples/light_switch/client/CMakeFiles/light_switch_client_nrf52840_xxAA_s140_6.0.0.dir/__/__/__/mesh/bearer/src/broadcast.c.obj
 .bss           0x00000000        0x0 examples/light_switch/client/CMakeFiles/light_switch_client_nrf52840_xxAA_s140_6.0.0.dir/__/__/__/mesh/bearer/src/broadcast.c.obj
 .text          0x00000000        0x0 examples/light_switch/client/CMakeFiles/light_switch_client_nrf52840_xxAA_s140_6.0.0.dir/__/__/__/mesh/bearer/src/filter_engine.c.obj
 .data          0x00000000        0x0 examples/light_switch/client/CMakeFiles/light_switch_client_nrf52840_xxAA_s140_6.0.0.dir/__/__/__/mesh/bearer/src/filter_engine.c.obj
 .bss           0x00000000        0x0 examples/light_switch/client/CMakeFiles/light_switch_client_nrf52840_xxAA_s140_6.0.0.dir/__/__/__/mesh/bearer/src/filter_engine.c.obj
 .text.fen_accepted_amount_get
                0x00000000        0xc examples/light_switch/client/CMakeFiles/light_switch_client_nrf52840_xxAA_s140_6.0.0.dir/__/__/__/mesh/bearer/src/filter_engine.c.obj
 .text          0x00000000        0x0 examples/light_switch/client/CMakeFiles/light_switch_client_nrf52840_xxAA_s140_6.0.0.dir/__/__/__/mesh/bearer/src/gap_address_filter.c.obj
 .data          0x00000000        0x0 examples/light_switch/client/CMakeFiles/light_switch_client_nrf52840_xxAA_s140_6.0.0.dir/__/__/__/mesh/bearer/src/gap_address_filter.c.obj
 .bss           0x00000000        0x0 examples/light_switch/client/CMakeFiles/light_switch_client_nrf52840_xxAA_s140_6.0.0.dir/__/__/__/mesh/bearer/src/gap_address_filter.c.obj
 .text.gap_address_filter_handle
                0x00000000       0xa6 examples/light_switch/client/CMakeFiles/light_switch_client_nrf52840_xxAA_s140_6.0.0.dir/__/__/__/mesh/bearer/src/gap_address_filter.c.obj
 .text.gap_addr_filter_set
                0x00000000       0x40 examples/light_switch/client/CMakeFiles/light_switch_client_nrf52840_xxAA_s140_6.0.0.dir/__/__/__/mesh/bearer/src/gap_address_filter.c.obj
 .text.bearer_filter_gap_addr_whitelist_set
                0x00000000        0x6 examples/light_switch/client/CMakeFiles/light_switch_client_nrf52840_xxAA_s140_6.0.0.dir/__/__/__/mesh/bearer/src/gap_address_filter.c.obj
 .text.bearer_filter_gap_addr_blacklist_set
                0x00000000        0x6 examples/light_switch/client/CMakeFiles/light_switch_client_nrf52840_xxAA_s140_6.0.0.dir/__/__/__/mesh/bearer/src/gap_address_filter.c.obj
 .text.bearer_filter_gap_addr_range_set
                0x00000000       0x38 examples/light_switch/client/CMakeFiles/light_switch_client_nrf52840_xxAA_s140_6.0.0.dir/__/__/__/mesh/bearer/src/gap_address_filter.c.obj
 .text.bearer_filter_gap_addr_clear
                0x00000000       0x20 examples/light_switch/client/CMakeFiles/light_switch_client_nrf52840_xxAA_s140_6.0.0.dir/__/__/__/mesh/bearer/src/gap_address_filter.c.obj
 .text.bearer_gap_addr_filtered_amount_get
                0x00000000        0xc examples/light_switch/client/CMakeFiles/light_switch_client_nrf52840_xxAA_s140_6.0.0.dir/__/__/__/mesh/bearer/src/gap_address_filter.c.obj
 .bss.m_addr_filter
                0x00000000       0x18 examples/light_switch/client/CMakeFiles/light_switch_client_nrf52840_xxAA_s140_6.0.0.dir/__/__/__/mesh/bearer/src/gap_address_filter.c.obj
 .debug_info    0x00000000      0xee7 examples/light_switch/client/CMakeFiles/light_switch_client_nrf52840_xxAA_s140_6.0.0.dir/__/__/__/mesh/bearer/src/gap_address_filter.c.obj
 .debug_abbrev  0x00000000      0x2f4 examples/light_switch/client/CMakeFiles/light_switch_client_nrf52840_xxAA_s140_6.0.0.dir/__/__/__/mesh/bearer/src/gap_address_filter.c.obj
 .debug_loc     0x00000000      0x3e8 examples/light_switch/client/CMakeFiles/light_switch_client_nrf52840_xxAA_s140_6.0.0.dir/__/__/__/mesh/bearer/src/gap_address_filter.c.obj
 .debug_aranges
                0x00000000       0x50 examples/light_switch/client/CMakeFiles/light_switch_client_nrf52840_xxAA_s140_6.0.0.dir/__/__/__/mesh/bearer/src/gap_address_filter.c.obj
 .debug_ranges  0x00000000       0x58 examples/light_switch/client/CMakeFiles/light_switch_client_nrf52840_xxAA_s140_6.0.0.dir/__/__/__/mesh/bearer/src/gap_address_filter.c.obj
 .debug_line    0x00000000      0x3f3 examples/light_switch/client/CMakeFiles/light_switch_client_nrf52840_xxAA_s140_6.0.0.dir/__/__/__/mesh/bearer/src/gap_address_filter.c.obj
 .debug_str     0x00000000      0x9af examples/light_switch/client/CMakeFiles/light_switch_client_nrf52840_xxAA_s140_6.0.0.dir/__/__/__/mesh/bearer/src/gap_address_filter.c.obj
 .comment       0x00000000       0x80 examples/light_switch/client/CMakeFiles/light_switch_client_nrf52840_xxAA_s140_6.0.0.dir/__/__/__/mesh/bearer/src/gap_address_filter.c.obj
 .debug_frame   0x00000000       0xb4 examples/light_switch/client/CMakeFiles/light_switch_client_nrf52840_xxAA_s140_6.0.0.dir/__/__/__/mesh/bearer/src/gap_address_filter.c.obj
 .ARM.attributes
                0x00000000       0x39 examples/light_switch/client/CMakeFiles/light_switch_client_nrf52840_xxAA_s140_6.0.0.dir/__/__/__/mesh/bearer/src/gap_address_filter.c.obj
 .text          0x00000000        0x0 examples/light_switch/client/CMakeFiles/light_switch_client_nrf52840_xxAA_s140_6.0.0.dir/__/__/__/mesh/bearer/src/radio_config.c.obj
 .data          0x00000000        0x0 examples/light_switch/client/CMakeFiles/light_switch_client_nrf52840_xxAA_s140_6.0.0.dir/__/__/__/mesh/bearer/src/radio_config.c.obj
 .bss           0x00000000        0x0 examples/light_switch/client/CMakeFiles/light_switch_client_nrf52840_xxAA_s140_6.0.0.dir/__/__/__/mesh/bearer/src/radio_config.c.obj
 .text.radio_config_access_addr_get
                0x00000000       0x4c examples/light_switch/client/CMakeFiles/light_switch_client_nrf52840_xxAA_s140_6.0.0.dir/__/__/__/mesh/bearer/src/radio_config.c.obj
 .text          0x00000000        0x0 examples/light_switch/client/CMakeFiles/light_switch_client_nrf52840_xxAA_s140_6.0.0.dir/__/__/__/mesh/bearer/src/rssi_filter.c.obj
 .data          0x00000000        0x0 examples/light_switch/client/CMakeFiles/light_switch_client_nrf52840_xxAA_s140_6.0.0.dir/__/__/__/mesh/bearer/src/rssi_filter.c.obj
 .bss           0x00000000        0x0 examples/light_switch/client/CMakeFiles/light_switch_client_nrf52840_xxAA_s140_6.0.0.dir/__/__/__/mesh/bearer/src/rssi_filter.c.obj
 .text.rssi_filter_handle
                0x00000000       0x20 examples/light_switch/client/CMakeFiles/light_switch_client_nrf52840_xxAA_s140_6.0.0.dir/__/__/__/mesh/bearer/src/rssi_filter.c.obj
 .text.bearer_rssi_filtering_set
                0x00000000       0x34 examples/light_switch/client/CMakeFiles/light_switch_client_nrf52840_xxAA_s140_6.0.0.dir/__/__/__/mesh/bearer/src/rssi_filter.c.obj
 .text.bearer_rssi_filtered_amount_get
                0x00000000        0xc examples/light_switch/client/CMakeFiles/light_switch_client_nrf52840_xxAA_s140_6.0.0.dir/__/__/__/mesh/bearer/src/rssi_filter.c.obj
 .bss.m_rssi_filter
                0x00000000       0x18 examples/light_switch/client/CMakeFiles/light_switch_client_nrf52840_xxAA_s140_6.0.0.dir/__/__/__/mesh/bearer/src/rssi_filter.c.obj
 .debug_info    0x00000000      0xc9f examples/light_switch/client/CMakeFiles/light_switch_client_nrf52840_xxAA_s140_6.0.0.dir/__/__/__/mesh/bearer/src/rssi_filter.c.obj
 .debug_abbrev  0x00000000      0x28e examples/light_switch/client/CMakeFiles/light_switch_client_nrf52840_xxAA_s140_6.0.0.dir/__/__/__/mesh/bearer/src/rssi_filter.c.obj
 .debug_loc     0x00000000       0xb3 examples/light_switch/client/CMakeFiles/light_switch_client_nrf52840_xxAA_s140_6.0.0.dir/__/__/__/mesh/bearer/src/rssi_filter.c.obj
 .debug_aranges
                0x00000000       0x30 examples/light_switch/client/CMakeFiles/light_switch_client_nrf52840_xxAA_s140_6.0.0.dir/__/__/__/mesh/bearer/src/rssi_filter.c.obj
 .debug_ranges  0x00000000       0x20 examples/light_switch/client/CMakeFiles/light_switch_client_nrf52840_xxAA_s140_6.0.0.dir/__/__/__/mesh/bearer/src/rssi_filter.c.obj
 .debug_line    0x00000000      0x315 examples/light_switch/client/CMakeFiles/light_switch_client_nrf52840_xxAA_s140_6.0.0.dir/__/__/__/mesh/bearer/src/rssi_filter.c.obj
 .debug_str     0x00000000      0x86a examples/light_switch/client/CMakeFiles/light_switch_client_nrf52840_xxAA_s140_6.0.0.dir/__/__/__/mesh/bearer/src/rssi_filter.c.obj
 .comment       0x00000000       0x80 examples/light_switch/client/CMakeFiles/light_switch_client_nrf52840_xxAA_s140_6.0.0.dir/__/__/__/mesh/bearer/src/rssi_filter.c.obj
 .debug_frame   0x00000000       0x54 examples/light_switch/client/CMakeFiles/light_switch_client_nrf52840_xxAA_s140_6.0.0.dir/__/__/__/mesh/bearer/src/rssi_filter.c.obj
 .ARM.attributes
                0x00000000       0x39 examples/light_switch/client/CMakeFiles/light_switch_client_nrf52840_xxAA_s140_6.0.0.dir/__/__/__/mesh/bearer/src/rssi_filter.c.obj
 .text          0x00000000        0x0 examples/light_switch/client/CMakeFiles/light_switch_client_nrf52840_xxAA_s140_6.0.0.dir/__/__/__/mesh/bearer/src/scanner.c.obj
 .data          0x00000000        0x0 examples/light_switch/client/CMakeFiles/light_switch_client_nrf52840_xxAA_s140_6.0.0.dir/__/__/__/mesh/bearer/src/scanner.c.obj
 .bss           0x00000000        0x0 examples/light_switch/client/CMakeFiles/light_switch_client_nrf52840_xxAA_s140_6.0.0.dir/__/__/__/mesh/bearer/src/scanner.c.obj
 .text.scanner_rx_callback_set
                0x00000000       0x20 examples/light_switch/client/CMakeFiles/light_switch_client_nrf52840_xxAA_s140_6.0.0.dir/__/__/__/mesh/bearer/src/scanner.c.obj
 .text.scanner_disable
                0x00000000       0x3c examples/light_switch/client/CMakeFiles/light_switch_client_nrf52840_xxAA_s140_6.0.0.dir/__/__/__/mesh/bearer/src/scanner.c.obj
 .text.scanner_is_enabled
                0x00000000       0x10 examples/light_switch/client/CMakeFiles/light_switch_client_nrf52840_xxAA_s140_6.0.0.dir/__/__/__/mesh/bearer/src/scanner.c.obj
 .text.scanner_stats_get
                0x00000000        0x8 examples/light_switch/client/CMakeFiles/light_switch_client_nrf52840_xxAA_s140_6.0.0.dir/__/__/__/mesh/bearer/src/scanner.c.obj
 .text.scanner_config_radio_mode_set
                0x00000000       0x10 examples/light_switch/client/CMakeFiles/light_switch_client_nrf52840_xxAA_s140_6.0.0.dir/__/__/__/mesh/bearer/src/scanner.c.obj
 .text          0x00000000        0x0 examples/light_switch/client/CMakeFiles/light_switch_client_nrf52840_xxAA_s140_6.0.0.dir/__/__/__/mesh/bearer/src/mesh_pa_lna.c.obj
 .data          0x00000000        0x0 examples/light_switch/client/CMakeFiles/light_switch_client_nrf52840_xxAA_s140_6.0.0.dir/__/__/__/mesh/bearer/src/mesh_pa_lna.c.obj
 .bss           0x00000000        0x0 examples/light_switch/client/CMakeFiles/light_switch_client_nrf52840_xxAA_s140_6.0.0.dir/__/__/__/mesh/bearer/src/mesh_pa_lna.c.obj
 .text.unlikely.pin_init
                0x00000000       0x32 examples/light_switch/client/CMakeFiles/light_switch_client_nrf52840_xxAA_s140_6.0.0.dir/__/__/__/mesh/bearer/src/mesh_pa_lna.c.obj
 .text.mesh_pa_lna_gpiote_enable
                0x00000000       0x68 examples/light_switch/client/CMakeFiles/light_switch_client_nrf52840_xxAA_s140_6.0.0.dir/__/__/__/mesh/bearer/src/mesh_pa_lna.c.obj
 .text.mesh_pa_lna_gpiote_params_get
                0x00000000       0x10 examples/light_switch/client/CMakeFiles/light_switch_client_nrf52840_xxAA_s140_6.0.0.dir/__/__/__/mesh/bearer/src/mesh_pa_lna.c.obj
 .text.mesh_pa_lna_gpiote_disable
                0x00000000       0x20 examples/light_switch/client/CMakeFiles/light_switch_client_nrf52840_xxAA_s140_6.0.0.dir/__/__/__/mesh/bearer/src/mesh_pa_lna.c.obj
 .text          0x00000000        0x0 examples/light_switch/client/CMakeFiles/light_switch_client_nrf52840_xxAA_s140_6.0.0.dir/__/__/__/models/model_spec/generic_onoff/src/generic_onoff_client.c.obj
 .data          0x00000000        0x0 examples/light_switch/client/CMakeFiles/light_switch_client_nrf52840_xxAA_s140_6.0.0.dir/__/__/__/models/model_spec/generic_onoff/src/generic_onoff_client.c.obj
 .bss           0x00000000        0x0 examples/light_switch/client/CMakeFiles/light_switch_client_nrf52840_xxAA_s140_6.0.0.dir/__/__/__/models/model_spec/generic_onoff/src/generic_onoff_client.c.obj
 .text.generic_onoff_client_get
                0x00000000       0x5c examples/light_switch/client/CMakeFiles/light_switch_client_nrf52840_xxAA_s140_6.0.0.dir/__/__/__/models/model_spec/generic_onoff/src/generic_onoff_client.c.obj
 .text          0x00000000        0x0 examples/light_switch/client/CMakeFiles/light_switch_client_nrf52840_xxAA_s140_6.0.0.dir/__/__/__/models/model_spec/common/src/model_common.c.obj
 .data          0x00000000        0x0 examples/light_switch/client/CMakeFiles/light_switch_client_nrf52840_xxAA_s140_6.0.0.dir/__/__/__/models/model_spec/common/src/model_common.c.obj
 .bss           0x00000000        0x0 examples/light_switch/client/CMakeFiles/light_switch_client_nrf52840_xxAA_s140_6.0.0.dir/__/__/__/models/model_spec/common/src/model_common.c.obj
 .text.model_tid_timer_cb
                0x00000000        0x6 examples/light_switch/client/CMakeFiles/light_switch_client_nrf52840_xxAA_s140_6.0.0.dir/__/__/__/models/model_spec/common/src/model_common.c.obj
 .text.timeout_update_and_schedule
                0x00000000       0x7c examples/light_switch/client/CMakeFiles/light_switch_client_nrf52840_xxAA_s140_6.0.0.dir/__/__/__/models/model_spec/common/src/model_common.c.obj
 .text.model_timer_cb
                0x00000000       0x4a examples/light_switch/client/CMakeFiles/light_switch_client_nrf52840_xxAA_s140_6.0.0.dir/__/__/__/models/model_spec/common/src/model_common.c.obj
 .text.model_tid_validate
                0x00000000       0x5c examples/light_switch/client/CMakeFiles/light_switch_client_nrf52840_xxAA_s140_6.0.0.dir/__/__/__/models/model_spec/common/src/model_common.c.obj
 .text.model_transaction_is_new
                0x00000000        0x4 examples/light_switch/client/CMakeFiles/light_switch_client_nrf52840_xxAA_s140_6.0.0.dir/__/__/__/models/model_spec/common/src/model_common.c.obj
 .text.model_transition_time_is_valid
                0x00000000        0xc examples/light_switch/client/CMakeFiles/light_switch_client_nrf52840_xxAA_s140_6.0.0.dir/__/__/__/models/model_spec/common/src/model_common.c.obj
 .text.model_delay_decode
                0x00000000        0x6 examples/light_switch/client/CMakeFiles/light_switch_client_nrf52840_xxAA_s140_6.0.0.dir/__/__/__/models/model_spec/common/src/model_common.c.obj
 .text.model_timer_elapsed_ticks_get
                0x00000000        0x6 examples/light_switch/client/CMakeFiles/light_switch_client_nrf52840_xxAA_s140_6.0.0.dir/__/__/__/models/model_spec/common/src/model_common.c.obj
 .text.model_timer_schedule
                0x00000000       0x50 examples/light_switch/client/CMakeFiles/light_switch_client_nrf52840_xxAA_s140_6.0.0.dir/__/__/__/models/model_spec/common/src/model_common.c.obj
 .text.model_timer_abort
                0x00000000       0x24 examples/light_switch/client/CMakeFiles/light_switch_client_nrf52840_xxAA_s140_6.0.0.dir/__/__/__/models/model_spec/common/src/model_common.c.obj
 .text.model_timer_create
                0x00000000       0x1c examples/light_switch/client/CMakeFiles/light_switch_client_nrf52840_xxAA_s140_6.0.0.dir/__/__/__/models/model_spec/common/src/model_common.c.obj
 .text          0x00000000        0x0 examples/light_switch/client/CMakeFiles/light_switch_client_nrf52840_xxAA_s140_6.0.0.dir/__/__/__/models/foundation/config/src/composition_data.c.obj
 .data          0x00000000        0x0 examples/light_switch/client/CMakeFiles/light_switch_client_nrf52840_xxAA_s140_6.0.0.dir/__/__/__/models/foundation/config/src/composition_data.c.obj
 .bss           0x00000000        0x0 examples/light_switch/client/CMakeFiles/light_switch_client_nrf52840_xxAA_s140_6.0.0.dir/__/__/__/models/foundation/config/src/composition_data.c.obj
 .text          0x00000000        0x0 examples/light_switch/client/CMakeFiles/light_switch_client_nrf52840_xxAA_s140_6.0.0.dir/__/__/__/models/foundation/config/src/config_server.c.obj
 .data          0x00000000        0x0 examples/light_switch/client/CMakeFiles/light_switch_client_nrf52840_xxAA_s140_6.0.0.dir/__/__/__/models/foundation/config/src/config_server.c.obj
 .bss           0x00000000        0x0 examples/light_switch/client/CMakeFiles/light_switch_client_nrf52840_xxAA_s140_6.0.0.dir/__/__/__/models/foundation/config/src/config_server.c.obj
 .text          0x00000000        0x0 examples/light_switch/client/CMakeFiles/light_switch_client_nrf52840_xxAA_s140_6.0.0.dir/__/__/__/models/foundation/config/src/packed_index_list.c.obj
 .data          0x00000000        0x0 examples/light_switch/client/CMakeFiles/light_switch_client_nrf52840_xxAA_s140_6.0.0.dir/__/__/__/models/foundation/config/src/packed_index_list.c.obj
 .bss           0x00000000        0x0 examples/light_switch/client/CMakeFiles/light_switch_client_nrf52840_xxAA_s140_6.0.0.dir/__/__/__/models/foundation/config/src/packed_index_list.c.obj
 .text          0x00000000        0x0 examples/light_switch/client/CMakeFiles/light_switch_client_nrf52840_xxAA_s140_6.0.0.dir/__/__/__/models/foundation/health/src/health_server.c.obj
 .data          0x00000000        0x0 examples/light_switch/client/CMakeFiles/light_switch_client_nrf52840_xxAA_s140_6.0.0.dir/__/__/__/models/foundation/health/src/health_server.c.obj
 .bss           0x00000000        0x0 examples/light_switch/client/CMakeFiles/light_switch_client_nrf52840_xxAA_s140_6.0.0.dir/__/__/__/models/foundation/health/src/health_server.c.obj
 .text.health_server_fault_is_set
                0x00000000       0x1c examples/light_switch/client/CMakeFiles/light_switch_client_nrf52840_xxAA_s140_6.0.0.dir/__/__/__/models/foundation/health/src/health_server.c.obj
 .text.health_server_fault_count_get
                0x00000000        0xc examples/light_switch/client/CMakeFiles/light_switch_client_nrf52840_xxAA_s140_6.0.0.dir/__/__/__/models/foundation/health/src/health_server.c.obj
 .text.health_server_fault_register
                0x00000000       0xca examples/light_switch/client/CMakeFiles/light_switch_client_nrf52840_xxAA_s140_6.0.0.dir/__/__/__/models/foundation/health/src/health_server.c.obj
 .text.health_server_fault_clear
                0x00000000       0x48 examples/light_switch/client/CMakeFiles/light_switch_client_nrf52840_xxAA_s140_6.0.0.dir/__/__/__/models/foundation/health/src/health_server.c.obj
 .text.health_server_attention_get
                0x00000000        0x6 examples/light_switch/client/CMakeFiles/light_switch_client_nrf52840_xxAA_s140_6.0.0.dir/__/__/__/models/foundation/health/src/health_server.c.obj
 .text.health_server_attention_set
                0x00000000        0x4 examples/light_switch/client/CMakeFiles/light_switch_client_nrf52840_xxAA_s140_6.0.0.dir/__/__/__/models/foundation/health/src/health_server.c.obj
 .text          0x00000000        0x0 examples/light_switch/client/CMakeFiles/light_switch_client_nrf52840_xxAA_s140_6.0.0.dir/__/__/__/mesh/access/src/access_publish.c.obj
 .data          0x00000000        0x0 examples/light_switch/client/CMakeFiles/light_switch_client_nrf52840_xxAA_s140_6.0.0.dir/__/__/__/mesh/access/src/access_publish.c.obj
 .bss           0x00000000        0x0 examples/light_switch/client/CMakeFiles/light_switch_client_nrf52840_xxAA_s140_6.0.0.dir/__/__/__/mesh/access/src/access_publish.c.obj
 .text          0x00000000        0x0 examples/light_switch/client/CMakeFiles/light_switch_client_nrf52840_xxAA_s140_6.0.0.dir/__/__/__/mesh/access/src/access.c.obj
 .data          0x00000000        0x0 examples/light_switch/client/CMakeFiles/light_switch_client_nrf52840_xxAA_s140_6.0.0.dir/__/__/__/mesh/access/src/access.c.obj
 .bss           0x00000000        0x0 examples/light_switch/client/CMakeFiles/light_switch_client_nrf52840_xxAA_s140_6.0.0.dir/__/__/__/mesh/access/src/access.c.obj
 .text.access_model_element_index_get
                0x00000000       0x28 examples/light_switch/client/CMakeFiles/light_switch_client_nrf52840_xxAA_s140_6.0.0.dir/__/__/__/mesh/access/src/access.c.obj
 .text.access_model_subscription_lists_share
                0x00000000       0x4c examples/light_switch/client/CMakeFiles/light_switch_client_nrf52840_xxAA_s140_6.0.0.dir/__/__/__/mesh/access/src/access.c.obj
 .text.access_element_location_set
                0x00000000       0x2c examples/light_switch/client/CMakeFiles/light_switch_client_nrf52840_xxAA_s140_6.0.0.dir/__/__/__/mesh/access/src/access.c.obj
 .text          0x00000000        0x0 examples/light_switch/client/CMakeFiles/light_switch_client_nrf52840_xxAA_s140_6.0.0.dir/__/__/__/mesh/access/src/access_reliable.c.obj
 .data          0x00000000        0x0 examples/light_switch/client/CMakeFiles/light_switch_client_nrf52840_xxAA_s140_6.0.0.dir/__/__/__/mesh/access/src/access_reliable.c.obj
 .bss           0x00000000        0x0 examples/light_switch/client/CMakeFiles/light_switch_client_nrf52840_xxAA_s140_6.0.0.dir/__/__/__/mesh/access/src/access_reliable.c.obj
 .text          0x00000000        0x0 examples/light_switch/client/CMakeFiles/light_switch_client_nrf52840_xxAA_s140_6.0.0.dir/__/__/__/mesh/access/src/access_loopback.c.obj
 .data          0x00000000        0x0 examples/light_switch/client/CMakeFiles/light_switch_client_nrf52840_xxAA_s140_6.0.0.dir/__/__/__/mesh/access/src/access_loopback.c.obj
 .bss           0x00000000        0x0 examples/light_switch/client/CMakeFiles/light_switch_client_nrf52840_xxAA_s140_6.0.0.dir/__/__/__/mesh/access/src/access_loopback.c.obj
 .text          0x00000000        0x0 examples/light_switch/client/CMakeFiles/light_switch_client_nrf52840_xxAA_s140_6.0.0.dir/__/__/__/mesh/access/src/device_state_manager.c.obj
 .data          0x00000000        0x0 examples/light_switch/client/CMakeFiles/light_switch_client_nrf52840_xxAA_s140_6.0.0.dir/__/__/__/mesh/access/src/device_state_manager.c.obj
 .bss           0x00000000        0x0 examples/light_switch/client/CMakeFiles/light_switch_client_nrf52840_xxAA_s140_6.0.0.dir/__/__/__/mesh/access/src/device_state_manager.c.obj
 .text.dsm_has_unflashed_data
                0x00000000       0x24 examples/light_switch/client/CMakeFiles/light_switch_client_nrf52840_xxAA_s140_6.0.0.dir/__/__/__/mesh/access/src/device_state_manager.c.obj
 .text.dsm_address_subscription_get
                0x00000000       0x34 examples/light_switch/client/CMakeFiles/light_switch_client_nrf52840_xxAA_s140_6.0.0.dir/__/__/__/mesh/access/src/device_state_manager.c.obj
 .text.dsm_address_subscription_count_get
                0x00000000       0x58 examples/light_switch/client/CMakeFiles/light_switch_client_nrf52840_xxAA_s140_6.0.0.dir/__/__/__/mesh/access/src/device_state_manager.c.obj
 .text.dsm_address_get_all
                0x00000000       0x64 examples/light_switch/client/CMakeFiles/light_switch_client_nrf52840_xxAA_s140_6.0.0.dir/__/__/__/mesh/access/src/device_state_manager.c.obj
 .text.dsm_subnet_handle_to_netkey_index
                0x00000000       0x30 examples/light_switch/client/CMakeFiles/light_switch_client_nrf52840_xxAA_s140_6.0.0.dir/__/__/__/mesh/access/src/device_state_manager.c.obj
 .text.dsm_subnet_key_get
                0x00000000       0x44 examples/light_switch/client/CMakeFiles/light_switch_client_nrf52840_xxAA_s140_6.0.0.dir/__/__/__/mesh/access/src/device_state_manager.c.obj
 .text.dsm_devkey_delete
                0x00000000       0x38 examples/light_switch/client/CMakeFiles/light_switch_client_nrf52840_xxAA_s140_6.0.0.dir/__/__/__/mesh/access/src/device_state_manager.c.obj
 .text.dsm_devkey_handle_get
                0x00000000       0x34 examples/light_switch/client/CMakeFiles/light_switch_client_nrf52840_xxAA_s140_6.0.0.dir/__/__/__/mesh/access/src/device_state_manager.c.obj
 .text.dsm_beacon_info_get
                0x00000000       0x2c examples/light_switch/client/CMakeFiles/light_switch_client_nrf52840_xxAA_s140_6.0.0.dir/__/__/__/mesh/access/src/device_state_manager.c.obj
 .text          0x00000000        0x0 examples/light_switch/client/CMakeFiles/light_switch_client_nrf52840_xxAA_s140_6.0.0.dir/__/__/__/mesh/prov/src/prov_provisionee.c.obj
 .data          0x00000000        0x0 examples/light_switch/client/CMakeFiles/light_switch_client_nrf52840_xxAA_s140_6.0.0.dir/__/__/__/mesh/prov/src/prov_provisionee.c.obj
 .bss           0x00000000        0x0 examples/light_switch/client/CMakeFiles/light_switch_client_nrf52840_xxAA_s140_6.0.0.dir/__/__/__/mesh/prov/src/prov_provisionee.c.obj
 .text.prov_provisionee_shared_secret
                0x00000000       0x28 examples/light_switch/client/CMakeFiles/light_switch_client_nrf52840_xxAA_s140_6.0.0.dir/__/__/__/mesh/prov/src/prov_provisionee.c.obj
 .text          0x00000000        0x0 examples/light_switch/client/CMakeFiles/light_switch_client_nrf52840_xxAA_s140_6.0.0.dir/__/__/__/mesh/prov/src/nrf_mesh_prov.c.obj
 .data          0x00000000        0x0 examples/light_switch/client/CMakeFiles/light_switch_client_nrf52840_xxAA_s140_6.0.0.dir/__/__/__/mesh/prov/src/nrf_mesh_prov.c.obj
 .bss           0x00000000        0x0 examples/light_switch/client/CMakeFiles/light_switch_client_nrf52840_xxAA_s140_6.0.0.dir/__/__/__/mesh/prov/src/nrf_mesh_prov.c.obj
 .text.nrf_mesh_prov_provision
                0x00000000       0x4e examples/light_switch/client/CMakeFiles/light_switch_client_nrf52840_xxAA_s140_6.0.0.dir/__/__/__/mesh/prov/src/nrf_mesh_prov.c.obj
 .text.nrf_mesh_prov_oob_use
                0x00000000       0x18 examples/light_switch/client/CMakeFiles/light_switch_client_nrf52840_xxAA_s140_6.0.0.dir/__/__/__/mesh/prov/src/nrf_mesh_prov.c.obj
 .text.nrf_mesh_prov_shared_secret_provide
                0x00000000        0xe examples/light_switch/client/CMakeFiles/light_switch_client_nrf52840_xxAA_s140_6.0.0.dir/__/__/__/mesh/prov/src/nrf_mesh_prov.c.obj
 .text.nrf_mesh_prov_pubkey_provide
                0x00000000       0x10 examples/light_switch/client/CMakeFiles/light_switch_client_nrf52840_xxAA_s140_6.0.0.dir/__/__/__/mesh/prov/src/nrf_mesh_prov.c.obj
 .text.nrf_mesh_prov_scan_start
                0x00000000       0x10 examples/light_switch/client/CMakeFiles/light_switch_client_nrf52840_xxAA_s140_6.0.0.dir/__/__/__/mesh/prov/src/nrf_mesh_prov.c.obj
 .text.nrf_mesh_prov_scan_stop
                0x00000000        0x4 examples/light_switch/client/CMakeFiles/light_switch_client_nrf52840_xxAA_s140_6.0.0.dir/__/__/__/mesh/prov/src/nrf_mesh_prov.c.obj
 .text          0x00000000        0x0 examples/light_switch/client/CMakeFiles/light_switch_client_nrf52840_xxAA_s140_6.0.0.dir/__/__/__/mesh/prov/src/provisioning.c.obj
 .data          0x00000000        0x0 examples/light_switch/client/CMakeFiles/light_switch_client_nrf52840_xxAA_s140_6.0.0.dir/__/__/__/mesh/prov/src/provisioning.c.obj
 .bss           0x00000000        0x0 examples/light_switch/client/CMakeFiles/light_switch_client_nrf52840_xxAA_s140_6.0.0.dir/__/__/__/mesh/prov/src/provisioning.c.obj
 .text.prov_tx_invite
                0x00000000       0x28 examples/light_switch/client/CMakeFiles/light_switch_client_nrf52840_xxAA_s140_6.0.0.dir/__/__/__/mesh/prov/src/provisioning.c.obj
 .text.prov_tx_start
                0x00000000       0x20 examples/light_switch/client/CMakeFiles/light_switch_client_nrf52840_xxAA_s140_6.0.0.dir/__/__/__/mesh/prov/src/provisioning.c.obj
 .text.prov_tx_data
                0x00000000        0x6 examples/light_switch/client/CMakeFiles/light_switch_client_nrf52840_xxAA_s140_6.0.0.dir/__/__/__/mesh/prov/src/provisioning.c.obj
 .text.prov_tx  0x00000000        0x4 examples/light_switch/client/CMakeFiles/light_switch_client_nrf52840_xxAA_s140_6.0.0.dir/__/__/__/mesh/prov/src/provisioning.c.obj
 .text          0x00000000        0x0 examples/light_switch/client/CMakeFiles/light_switch_client_nrf52840_xxAA_s140_6.0.0.dir/__/__/__/mesh/prov/src/prov_beacon.c.obj
 .data          0x00000000        0x0 examples/light_switch/client/CMakeFiles/light_switch_client_nrf52840_xxAA_s140_6.0.0.dir/__/__/__/mesh/prov/src/prov_beacon.c.obj
 .bss           0x00000000        0x0 examples/light_switch/client/CMakeFiles/light_switch_client_nrf52840_xxAA_s140_6.0.0.dir/__/__/__/mesh/prov/src/prov_beacon.c.obj
 .text.prov_beacon_scan_start
                0x00000000       0x18 examples/light_switch/client/CMakeFiles/light_switch_client_nrf52840_xxAA_s140_6.0.0.dir/__/__/__/mesh/prov/src/prov_beacon.c.obj
 .text.prov_beacon_scan_stop
                0x00000000        0xc examples/light_switch/client/CMakeFiles/light_switch_client_nrf52840_xxAA_s140_6.0.0.dir/__/__/__/mesh/prov/src/prov_beacon.c.obj
 .text          0x00000000        0x0 examples/light_switch/client/CMakeFiles/light_switch_client_nrf52840_xxAA_s140_6.0.0.dir/__/__/__/mesh/prov/src/prov_utils.c.obj
 .data          0x00000000        0x0 examples/light_switch/client/CMakeFiles/light_switch_client_nrf52840_xxAA_s140_6.0.0.dir/__/__/__/mesh/prov/src/prov_utils.c.obj
 .bss           0x00000000        0x0 examples/light_switch/client/CMakeFiles/light_switch_client_nrf52840_xxAA_s140_6.0.0.dir/__/__/__/mesh/prov/src/prov_utils.c.obj
 .text.mesh_opt_prov_ecdh_offloading_set
                0x00000000       0x1c examples/light_switch/client/CMakeFiles/light_switch_client_nrf52840_xxAA_s140_6.0.0.dir/__/__/__/mesh/prov/src/prov_utils.c.obj
 .text.prov_utils_opt_set
                0x00000000       0x14 examples/light_switch/client/CMakeFiles/light_switch_client_nrf52840_xxAA_s140_6.0.0.dir/__/__/__/mesh/prov/src/prov_utils.c.obj
 .text.prov_utils_opt_get
                0x00000000       0x14 examples/light_switch/client/CMakeFiles/light_switch_client_nrf52840_xxAA_s140_6.0.0.dir/__/__/__/mesh/prov/src/prov_utils.c.obj
 .text          0x00000000        0x0 examples/light_switch/client/CMakeFiles/light_switch_client_nrf52840_xxAA_s140_6.0.0.dir/__/__/__/mesh/prov/src/prov_bearer_adv.c.obj
 .data          0x00000000        0x0 examples/light_switch/client/CMakeFiles/light_switch_client_nrf52840_xxAA_s140_6.0.0.dir/__/__/__/mesh/prov/src/prov_bearer_adv.c.obj
 .bss           0x00000000        0x0 examples/light_switch/client/CMakeFiles/light_switch_client_nrf52840_xxAA_s140_6.0.0.dir/__/__/__/mesh/prov/src/prov_bearer_adv.c.obj
 .text          0x00000000        0x0 examples/light_switch/client/CMakeFiles/light_switch_client_nrf52840_xxAA_s140_6.0.0.dir/C_/sdks/nRF5_SDK_15.0.0_a53641a/modules/nrfx/mdk/system_nrf52840.c.obj
 .data          0x00000000        0x0 examples/light_switch/client/CMakeFiles/light_switch_client_nrf52840_xxAA_s140_6.0.0.dir/C_/sdks/nRF5_SDK_15.0.0_a53641a/modules/nrfx/mdk/system_nrf52840.c.obj
 .bss           0x00000000        0x0 examples/light_switch/client/CMakeFiles/light_switch_client_nrf52840_xxAA_s140_6.0.0.dir/C_/sdks/nRF5_SDK_15.0.0_a53641a/modules/nrfx/mdk/system_nrf52840.c.obj
 .text.SystemCoreClockUpdate
                0x00000000       0x10 examples/light_switch/client/CMakeFiles/light_switch_client_nrf52840_xxAA_s140_6.0.0.dir/C_/sdks/nRF5_SDK_15.0.0_a53641a/modules/nrfx/mdk/system_nrf52840.c.obj
 .data          0x00000000        0x0 examples/light_switch/client/CMakeFiles/light_switch_client_nrf52840_xxAA_s140_6.0.0.dir/C_/sdks/nRF5_SDK_15.0.0_a53641a/modules/nrfx/mdk/gcc_startup_nrf52840.S.obj
 .bss           0x00000000        0x0 examples/light_switch/client/CMakeFiles/light_switch_client_nrf52840_xxAA_s140_6.0.0.dir/C_/sdks/nRF5_SDK_15.0.0_a53641a/modules/nrfx/mdk/gcc_startup_nrf52840.S.obj
 .text          0x00000000        0x0 examples/light_switch/client/CMakeFiles/light_switch_client_nrf52840_xxAA_s140_6.0.0.dir/C_/sdks/nRF5_SDK_15.0.0_a53641a/components/libraries/util/app_error.c.obj
 .data          0x00000000        0x0 examples/light_switch/client/CMakeFiles/light_switch_client_nrf52840_xxAA_s140_6.0.0.dir/C_/sdks/nRF5_SDK_15.0.0_a53641a/components/libraries/util/app_error.c.obj
 .bss           0x00000000        0x0 examples/light_switch/client/CMakeFiles/light_switch_client_nrf52840_xxAA_s140_6.0.0.dir/C_/sdks/nRF5_SDK_15.0.0_a53641a/components/libraries/util/app_error.c.obj
 .text.app_error_save_and_stop
                0x00000000       0x58 examples/light_switch/client/CMakeFiles/light_switch_client_nrf52840_xxAA_s140_6.0.0.dir/C_/sdks/nRF5_SDK_15.0.0_a53641a/components/libraries/util/app_error.c.obj
 .bss.m_error_data.8119
                0x00000000       0x20 examples/light_switch/client/CMakeFiles/light_switch_client_nrf52840_xxAA_s140_6.0.0.dir/C_/sdks/nRF5_SDK_15.0.0_a53641a/components/libraries/util/app_error.c.obj
 .text          0x00000000        0x0 examples/light_switch/client/CMakeFiles/light_switch_client_nrf52840_xxAA_s140_6.0.0.dir/C_/sdks/nRF5_SDK_15.0.0_a53641a/components/libraries/util/app_util_platform.c.obj
 .data          0x00000000        0x0 examples/light_switch/client/CMakeFiles/light_switch_client_nrf52840_xxAA_s140_6.0.0.dir/C_/sdks/nRF5_SDK_15.0.0_a53641a/components/libraries/util/app_util_platform.c.obj
 .bss           0x00000000        0x0 examples/light_switch/client/CMakeFiles/light_switch_client_nrf52840_xxAA_s140_6.0.0.dir/C_/sdks/nRF5_SDK_15.0.0_a53641a/components/libraries/util/app_util_platform.c.obj
 .text.app_util_disable_irq
                0x00000000       0x10 examples/light_switch/client/CMakeFiles/light_switch_client_nrf52840_xxAA_s140_6.0.0.dir/C_/sdks/nRF5_SDK_15.0.0_a53641a/components/libraries/util/app_util_platform.c.obj
 .text.app_util_enable_irq
                0x00000000       0x14 examples/light_switch/client/CMakeFiles/light_switch_client_nrf52840_xxAA_s140_6.0.0.dir/C_/sdks/nRF5_SDK_15.0.0_a53641a/components/libraries/util/app_util_platform.c.obj
 .text.privilege_level_get
                0x00000000       0x1a examples/light_switch/client/CMakeFiles/light_switch_client_nrf52840_xxAA_s140_6.0.0.dir/C_/sdks/nRF5_SDK_15.0.0_a53641a/components/libraries/util/app_util_platform.c.obj
 .text.current_int_priority_get
                0x00000000       0x38 examples/light_switch/client/CMakeFiles/light_switch_client_nrf52840_xxAA_s140_6.0.0.dir/C_/sdks/nRF5_SDK_15.0.0_a53641a/components/libraries/util/app_util_platform.c.obj
 .bss.m_in_critical_region
                0x00000000        0x4 examples/light_switch/client/CMakeFiles/light_switch_client_nrf52840_xxAA_s140_6.0.0.dir/C_/sdks/nRF5_SDK_15.0.0_a53641a/components/libraries/util/app_util_platform.c.obj
 .text          0x00000000        0x0 examples/light_switch/client/CMakeFiles/light_switch_client_nrf52840_xxAA_s140_6.0.0.dir/C_/sdks/nRF5_SDK_15.0.0_a53641a/components/libraries/timer/app_timer.c.obj
 .data          0x00000000        0x0 examples/light_switch/client/CMakeFiles/light_switch_client_nrf52840_xxAA_s140_6.0.0.dir/C_/sdks/nRF5_SDK_15.0.0_a53641a/components/libraries/timer/app_timer.c.obj
 .bss           0x00000000        0x0 examples/light_switch/client/CMakeFiles/light_switch_client_nrf52840_xxAA_s140_6.0.0.dir/C_/sdks/nRF5_SDK_15.0.0_a53641a/components/libraries/timer/app_timer.c.obj
 .text.app_timer_stop_all
                0x00000000       0x18 examples/light_switch/client/CMakeFiles/light_switch_client_nrf52840_xxAA_s140_6.0.0.dir/C_/sdks/nRF5_SDK_15.0.0_a53641a/components/libraries/timer/app_timer.c.obj
 .text.app_timer_cnt_get
                0x00000000        0xc examples/light_switch/client/CMakeFiles/light_switch_client_nrf52840_xxAA_s140_6.0.0.dir/C_/sdks/nRF5_SDK_15.0.0_a53641a/components/libraries/timer/app_timer.c.obj
 .text.app_timer_cnt_diff_compute
                0x00000000        0x8 examples/light_switch/client/CMakeFiles/light_switch_client_nrf52840_xxAA_s140_6.0.0.dir/C_/sdks/nRF5_SDK_15.0.0_a53641a/components/libraries/timer/app_timer.c.obj
 .text.app_timer_pause
                0x00000000        0xc examples/light_switch/client/CMakeFiles/light_switch_client_nrf52840_xxAA_s140_6.0.0.dir/C_/sdks/nRF5_SDK_15.0.0_a53641a/components/libraries/timer/app_timer.c.obj
 .text.app_timer_resume
                0x00000000        0xc examples/light_switch/client/CMakeFiles/light_switch_client_nrf52840_xxAA_s140_6.0.0.dir/C_/sdks/nRF5_SDK_15.0.0_a53641a/components/libraries/timer/app_timer.c.obj
 .text          0x00000000        0x0 examples/light_switch/client/CMakeFiles/light_switch_client_nrf52840_xxAA_s140_6.0.0.dir/C_/sdks/nRF5_SDK_15.0.0_a53641a/components/libraries/util/app_error_handler_gcc.c.obj
 .data          0x00000000        0x0 examples/light_switch/client/CMakeFiles/light_switch_client_nrf52840_xxAA_s140_6.0.0.dir/C_/sdks/nRF5_SDK_15.0.0_a53641a/components/libraries/util/app_error_handler_gcc.c.obj
 .bss           0x00000000        0x0 examples/light_switch/client/CMakeFiles/light_switch_client_nrf52840_xxAA_s140_6.0.0.dir/C_/sdks/nRF5_SDK_15.0.0_a53641a/components/libraries/util/app_error_handler_gcc.c.obj
 .text          0x00000000        0x0 external/rtt/librtt_nrf52840_xxAA.a(SEGGER_RTT.c.obj)
 .data          0x00000000        0x0 external/rtt/librtt_nrf52840_xxAA.a(SEGGER_RTT.c.obj)
 .bss           0x00000000        0x0 external/rtt/librtt_nrf52840_xxAA.a(SEGGER_RTT.c.obj)
 .text._PostTerminalSwitch.constprop.0
                0x00000000       0x28 external/rtt/librtt_nrf52840_xxAA.a(SEGGER_RTT.c.obj)
 .text.SEGGER_RTT_WriteSkipNoLock
                0x00000000       0xb4 external/rtt/librtt_nrf52840_xxAA.a(SEGGER_RTT.c.obj)
 .text.SEGGER_RTT_WriteString
                0x00000000       0x1a external/rtt/librtt_nrf52840_xxAA.a(SEGGER_RTT.c.obj)
 .text.SEGGER_RTT_WaitKey
                0x00000000        0xc external/rtt/librtt_nrf52840_xxAA.a(SEGGER_RTT.c.obj)
 .text.SEGGER_RTT_HasKey
                0x00000000       0x1c external/rtt/librtt_nrf52840_xxAA.a(SEGGER_RTT.c.obj)
 .text.SEGGER_RTT_HasData
                0x00000000       0x14 external/rtt/librtt_nrf52840_xxAA.a(SEGGER_RTT.c.obj)
 .text.SEGGER_RTT_AllocDownBuffer
                0x00000000       0x68 external/rtt/librtt_nrf52840_xxAA.a(SEGGER_RTT.c.obj)
 .text.SEGGER_RTT_AllocUpBuffer
                0x00000000       0x70 external/rtt/librtt_nrf52840_xxAA.a(SEGGER_RTT.c.obj)
 .text.SEGGER_RTT_ConfigUpBuffer
                0x00000000       0x68 external/rtt/librtt_nrf52840_xxAA.a(SEGGER_RTT.c.obj)
 .text.SEGGER_RTT_ConfigDownBuffer
                0x00000000       0x60 external/rtt/librtt_nrf52840_xxAA.a(SEGGER_RTT.c.obj)
 .text.SEGGER_RTT_SetNameUpBuffer
                0x00000000       0x3c external/rtt/librtt_nrf52840_xxAA.a(SEGGER_RTT.c.obj)
 .text.SEGGER_RTT_SetNameDownBuffer
                0x00000000       0x3c external/rtt/librtt_nrf52840_xxAA.a(SEGGER_RTT.c.obj)
 .text.SEGGER_RTT_Init
                0x00000000       0x10 external/rtt/librtt_nrf52840_xxAA.a(SEGGER_RTT.c.obj)
 .text.SEGGER_RTT_SetTerminal
                0x00000000       0x84 external/rtt/librtt_nrf52840_xxAA.a(SEGGER_RTT.c.obj)
 .text.SEGGER_RTT_TerminalOut
                0x00000000       0xa0 external/rtt/librtt_nrf52840_xxAA.a(SEGGER_RTT.c.obj)
 .bss._ActiveTerminal
                0x00000000        0x1 external/rtt/librtt_nrf52840_xxAA.a(SEGGER_RTT.c.obj)
 .rodata._aTerminalId
                0x00000000       0x10 external/rtt/librtt_nrf52840_xxAA.a(SEGGER_RTT.c.obj)
 .text          0x00000000        0x0 external/rtt/librtt_nrf52840_xxAA.a(SEGGER_RTT_printf.c.obj)
 .data          0x00000000        0x0 external/rtt/librtt_nrf52840_xxAA.a(SEGGER_RTT_printf.c.obj)
 .bss           0x00000000        0x0 external/rtt/librtt_nrf52840_xxAA.a(SEGGER_RTT_printf.c.obj)
 .text          0x00000000        0x0 external/micro-ecc/libuECC_nrf52840_xxAA.a(uECC.c.obj)
 .data          0x00000000        0x0 external/micro-ecc/libuECC_nrf52840_xxAA.a(uECC.c.obj)
 .bss           0x00000000        0x0 external/micro-ecc/libuECC_nrf52840_xxAA.a(uECC.c.obj)
 .text.uECC_vli_modMult
                0x00000000      0x148 external/micro-ecc/libuECC_nrf52840_xxAA.a(uECC.c.obj)
 .text.HMAC_init
                0x00000000       0x46 external/micro-ecc/libuECC_nrf52840_xxAA.a(uECC.c.obj)
 .text.HMAC_update
                0x00000000        0x4 external/micro-ecc/libuECC_nrf52840_xxAA.a(uECC.c.obj)
 .text.HMAC_finish
                0x00000000       0x62 external/micro-ecc/libuECC_nrf52840_xxAA.a(uECC.c.obj)
 .text.update_V
                0x00000000       0x24 external/micro-ecc/libuECC_nrf52840_xxAA.a(uECC.c.obj)
 .text.bits2int
                0x00000000       0x88 external/micro-ecc/libuECC_nrf52840_xxAA.a(uECC.c.obj)
 .text.uECC_sign_with_k
                0x00000000      0x17c external/micro-ecc/libuECC_nrf52840_xxAA.a(uECC.c.obj)
 .text.uECC_set_rng
                0x00000000        0xc external/micro-ecc/libuECC_nrf52840_xxAA.a(uECC.c.obj)
 .text.uECC_get_rng
                0x00000000        0xc external/micro-ecc/libuECC_nrf52840_xxAA.a(uECC.c.obj)
 .text.uECC_curve_private_key_size
                0x00000000        0xe external/micro-ecc/libuECC_nrf52840_xxAA.a(uECC.c.obj)
 .text.uECC_curve_public_key_size
                0x00000000        0x8 external/micro-ecc/libuECC_nrf52840_xxAA.a(uECC.c.obj)
 .text.uECC_compute_public_key
                0x00000000       0x7e external/micro-ecc/libuECC_nrf52840_xxAA.a(uECC.c.obj)
 .text.uECC_sign
                0x00000000       0x56 external/micro-ecc/libuECC_nrf52840_xxAA.a(uECC.c.obj)
 .text.uECC_sign_deterministic
                0x00000000      0x192 external/micro-ecc/libuECC_nrf52840_xxAA.a(uECC.c.obj)
 .text.uECC_verify
                0x00000000      0x2f0 external/micro-ecc/libuECC_nrf52840_xxAA.a(uECC.c.obj)
 .data          0x00000000        0x0 c:/arm_gcc/bin/../lib/gcc/arm-none-eabi/6.3.1/thumb/v7e-m/fpv4-sp/hard\libgcc.a(_aeabi_uldivmod.o)
 .bss           0x00000000        0x0 c:/arm_gcc/bin/../lib/gcc/arm-none-eabi/6.3.1/thumb/v7e-m/fpv4-sp/hard\libgcc.a(_aeabi_uldivmod.o)
 .data          0x00000000        0x0 c:/arm_gcc/bin/../lib/gcc/arm-none-eabi/6.3.1/thumb/v7e-m/fpv4-sp/hard\libgcc.a(_udivmoddi4.o)
 .bss           0x00000000        0x0 c:/arm_gcc/bin/../lib/gcc/arm-none-eabi/6.3.1/thumb/v7e-m/fpv4-sp/hard\libgcc.a(_udivmoddi4.o)
 .ARM.extab     0x00000000        0x0 c:/arm_gcc/bin/../lib/gcc/arm-none-eabi/6.3.1/thumb/v7e-m/fpv4-sp/hard\libgcc.a(_udivmoddi4.o)
 .data          0x00000000        0x0 c:/arm_gcc/bin/../lib/gcc/arm-none-eabi/6.3.1/thumb/v7e-m/fpv4-sp/hard\libgcc.a(_dvmd_tls.o)
 .bss           0x00000000        0x0 c:/arm_gcc/bin/../lib/gcc/arm-none-eabi/6.3.1/thumb/v7e-m/fpv4-sp/hard\libgcc.a(_dvmd_tls.o)
 .text          0x00000000        0x0 c:/arm_gcc/bin/../lib/gcc/arm-none-eabi/6.3.1/../../../../arm-none-eabi/lib/thumb/v7e-m/fpv4-sp/hard\libg_nano.a(lib_a-exit.o)
 .data          0x00000000        0x0 c:/arm_gcc/bin/../lib/gcc/arm-none-eabi/6.3.1/../../../../arm-none-eabi/lib/thumb/v7e-m/fpv4-sp/hard\libg_nano.a(lib_a-exit.o)
 .bss           0x00000000        0x0 c:/arm_gcc/bin/../lib/gcc/arm-none-eabi/6.3.1/../../../../arm-none-eabi/lib/thumb/v7e-m/fpv4-sp/hard\libg_nano.a(lib_a-exit.o)
 .text          0x00000000        0x0 c:/arm_gcc/bin/../lib/gcc/arm-none-eabi/6.3.1/../../../../arm-none-eabi/lib/thumb/v7e-m/fpv4-sp/hard\libg_nano.a(lib_a-impure.o)
 .data          0x00000000        0x0 c:/arm_gcc/bin/../lib/gcc/arm-none-eabi/6.3.1/../../../../arm-none-eabi/lib/thumb/v7e-m/fpv4-sp/hard\libg_nano.a(lib_a-impure.o)
 .bss           0x00000000        0x0 c:/arm_gcc/bin/../lib/gcc/arm-none-eabi/6.3.1/../../../../arm-none-eabi/lib/thumb/v7e-m/fpv4-sp/hard\libg_nano.a(lib_a-impure.o)
 .text          0x00000000        0x0 c:/arm_gcc/bin/../lib/gcc/arm-none-eabi/6.3.1/../../../../arm-none-eabi/lib/thumb/v7e-m/fpv4-sp/hard\libg_nano.a(lib_a-init.o)
 .data          0x00000000        0x0 c:/arm_gcc/bin/../lib/gcc/arm-none-eabi/6.3.1/../../../../arm-none-eabi/lib/thumb/v7e-m/fpv4-sp/hard\libg_nano.a(lib_a-init.o)
 .bss           0x00000000        0x0 c:/arm_gcc/bin/../lib/gcc/arm-none-eabi/6.3.1/../../../../arm-none-eabi/lib/thumb/v7e-m/fpv4-sp/hard\libg_nano.a(lib_a-init.o)
 .text          0x00000000        0x0 c:/arm_gcc/bin/../lib/gcc/arm-none-eabi/6.3.1/../../../../arm-none-eabi/lib/thumb/v7e-m/fpv4-sp/hard\libg_nano.a(lib_a-malloc.o)
 .data          0x00000000        0x0 c:/arm_gcc/bin/../lib/gcc/arm-none-eabi/6.3.1/../../../../arm-none-eabi/lib/thumb/v7e-m/fpv4-sp/hard\libg_nano.a(lib_a-malloc.o)
 .bss           0x00000000        0x0 c:/arm_gcc/bin/../lib/gcc/arm-none-eabi/6.3.1/../../../../arm-none-eabi/lib/thumb/v7e-m/fpv4-sp/hard\libg_nano.a(lib_a-malloc.o)
 .text          0x00000000        0x0 c:/arm_gcc/bin/../lib/gcc/arm-none-eabi/6.3.1/../../../../arm-none-eabi/lib/thumb/v7e-m/fpv4-sp/hard\libg_nano.a(lib_a-memcmp.o)
 .data          0x00000000        0x0 c:/arm_gcc/bin/../lib/gcc/arm-none-eabi/6.3.1/../../../../arm-none-eabi/lib/thumb/v7e-m/fpv4-sp/hard\libg_nano.a(lib_a-memcmp.o)
 .bss           0x00000000        0x0 c:/arm_gcc/bin/../lib/gcc/arm-none-eabi/6.3.1/../../../../arm-none-eabi/lib/thumb/v7e-m/fpv4-sp/hard\libg_nano.a(lib_a-memcmp.o)
 .text          0x00000000        0x0 c:/arm_gcc/bin/../lib/gcc/arm-none-eabi/6.3.1/../../../../arm-none-eabi/lib/thumb/v7e-m/fpv4-sp/hard\libg_nano.a(lib_a-memcpy-stub.o)
 .data          0x00000000        0x0 c:/arm_gcc/bin/../lib/gcc/arm-none-eabi/6.3.1/../../../../arm-none-eabi/lib/thumb/v7e-m/fpv4-sp/hard\libg_nano.a(lib_a-memcpy-stub.o)
 .bss           0x00000000        0x0 c:/arm_gcc/bin/../lib/gcc/arm-none-eabi/6.3.1/../../../../arm-none-eabi/lib/thumb/v7e-m/fpv4-sp/hard\libg_nano.a(lib_a-memcpy-stub.o)
 .text          0x00000000        0x0 c:/arm_gcc/bin/../lib/gcc/arm-none-eabi/6.3.1/../../../../arm-none-eabi/lib/thumb/v7e-m/fpv4-sp/hard\libg_nano.a(lib_a-memset.o)
 .data          0x00000000        0x0 c:/arm_gcc/bin/../lib/gcc/arm-none-eabi/6.3.1/../../../../arm-none-eabi/lib/thumb/v7e-m/fpv4-sp/hard\libg_nano.a(lib_a-memset.o)
 .bss           0x00000000        0x0 c:/arm_gcc/bin/../lib/gcc/arm-none-eabi/6.3.1/../../../../arm-none-eabi/lib/thumb/v7e-m/fpv4-sp/hard\libg_nano.a(lib_a-memset.o)
 .text          0x00000000        0x0 c:/arm_gcc/bin/../lib/gcc/arm-none-eabi/6.3.1/../../../../arm-none-eabi/lib/thumb/v7e-m/fpv4-sp/hard\libg_nano.a(lib_a-nano-freer.o)
 .data          0x00000000        0x0 c:/arm_gcc/bin/../lib/gcc/arm-none-eabi/6.3.1/../../../../arm-none-eabi/lib/thumb/v7e-m/fpv4-sp/hard\libg_nano.a(lib_a-nano-freer.o)
 .bss           0x00000000        0x0 c:/arm_gcc/bin/../lib/gcc/arm-none-eabi/6.3.1/../../../../arm-none-eabi/lib/thumb/v7e-m/fpv4-sp/hard\libg_nano.a(lib_a-nano-freer.o)
 .text          0x00000000        0x0 c:/arm_gcc/bin/../lib/gcc/arm-none-eabi/6.3.1/../../../../arm-none-eabi/lib/thumb/v7e-m/fpv4-sp/hard\libg_nano.a(lib_a-nano-mallocr.o)
 .data          0x00000000        0x0 c:/arm_gcc/bin/../lib/gcc/arm-none-eabi/6.3.1/../../../../arm-none-eabi/lib/thumb/v7e-m/fpv4-sp/hard\libg_nano.a(lib_a-nano-mallocr.o)
 .bss           0x00000000        0x0 c:/arm_gcc/bin/../lib/gcc/arm-none-eabi/6.3.1/../../../../arm-none-eabi/lib/thumb/v7e-m/fpv4-sp/hard\libg_nano.a(lib_a-nano-mallocr.o)
 .text          0x00000000        0x0 c:/arm_gcc/bin/../lib/gcc/arm-none-eabi/6.3.1/../../../../arm-none-eabi/lib/thumb/v7e-m/fpv4-sp/hard\libg_nano.a(lib_a-sbrkr.o)
 .data          0x00000000        0x0 c:/arm_gcc/bin/../lib/gcc/arm-none-eabi/6.3.1/../../../../arm-none-eabi/lib/thumb/v7e-m/fpv4-sp/hard\libg_nano.a(lib_a-sbrkr.o)
 .bss           0x00000000        0x0 c:/arm_gcc/bin/../lib/gcc/arm-none-eabi/6.3.1/../../../../arm-none-eabi/lib/thumb/v7e-m/fpv4-sp/hard\libg_nano.a(lib_a-sbrkr.o)
 .text          0x00000000        0x0 c:/arm_gcc/bin/../lib/gcc/arm-none-eabi/6.3.1/../../../../arm-none-eabi/lib/thumb/v7e-m/fpv4-sp/hard\libg_nano.a(lib_a-strcpy.o)
 .data          0x00000000        0x0 c:/arm_gcc/bin/../lib/gcc/arm-none-eabi/6.3.1/../../../../arm-none-eabi/lib/thumb/v7e-m/fpv4-sp/hard\libg_nano.a(lib_a-strcpy.o)
 .bss           0x00000000        0x0 c:/arm_gcc/bin/../lib/gcc/arm-none-eabi/6.3.1/../../../../arm-none-eabi/lib/thumb/v7e-m/fpv4-sp/hard\libg_nano.a(lib_a-strcpy.o)
 .data          0x00000000        0x0 c:/arm_gcc/bin/../lib/gcc/arm-none-eabi/6.3.1/../../../../arm-none-eabi/lib/thumb/v7e-m/fpv4-sp/hard\libg_nano.a(lib_a-strlen.o)
 .bss           0x00000000        0x0 c:/arm_gcc/bin/../lib/gcc/arm-none-eabi/6.3.1/../../../../arm-none-eabi/lib/thumb/v7e-m/fpv4-sp/hard\libg_nano.a(lib_a-strlen.o)
 .text          0x00000000        0x0 c:/arm_gcc/bin/../lib/gcc/arm-none-eabi/6.3.1/../../../../arm-none-eabi/lib/thumb/v7e-m/fpv4-sp/hard\libg_nano.a(lib_a-strrchr.o)
 .data          0x00000000        0x0 c:/arm_gcc/bin/../lib/gcc/arm-none-eabi/6.3.1/../../../../arm-none-eabi/lib/thumb/v7e-m/fpv4-sp/hard\libg_nano.a(lib_a-strrchr.o)
 .bss           0x00000000        0x0 c:/arm_gcc/bin/../lib/gcc/arm-none-eabi/6.3.1/../../../../arm-none-eabi/lib/thumb/v7e-m/fpv4-sp/hard\libg_nano.a(lib_a-strrchr.o)
 .text          0x00000000        0x0 c:/arm_gcc/bin/../lib/gcc/arm-none-eabi/6.3.1/../../../../arm-none-eabi/lib/thumb/v7e-m/fpv4-sp/hard\libg_nano.a(lib_a-mlock.o)
 .data          0x00000000        0x0 c:/arm_gcc/bin/../lib/gcc/arm-none-eabi/6.3.1/../../../../arm-none-eabi/lib/thumb/v7e-m/fpv4-sp/hard\libg_nano.a(lib_a-mlock.o)
 .bss           0x00000000        0x0 c:/arm_gcc/bin/../lib/gcc/arm-none-eabi/6.3.1/../../../../arm-none-eabi/lib/thumb/v7e-m/fpv4-sp/hard\libg_nano.a(lib_a-mlock.o)
 .text          0x00000000        0x0 c:/arm_gcc/bin/../lib/gcc/arm-none-eabi/6.3.1/../../../../arm-none-eabi/lib/thumb/v7e-m/fpv4-sp/hard\libg_nano.a(lib_a-reent.o)
 .data          0x00000000        0x0 c:/arm_gcc/bin/../lib/gcc/arm-none-eabi/6.3.1/../../../../arm-none-eabi/lib/thumb/v7e-m/fpv4-sp/hard\libg_nano.a(lib_a-reent.o)
 .bss           0x00000000        0x0 c:/arm_gcc/bin/../lib/gcc/arm-none-eabi/6.3.1/../../../../arm-none-eabi/lib/thumb/v7e-m/fpv4-sp/hard\libg_nano.a(lib_a-reent.o)
 .text.cleanup_glue
                0x00000000       0x1a c:/arm_gcc/bin/../lib/gcc/arm-none-eabi/6.3.1/../../../../arm-none-eabi/lib/thumb/v7e-m/fpv4-sp/hard\libg_nano.a(lib_a-reent.o)
 .text._reclaim_reent
                0x00000000       0xb8 c:/arm_gcc/bin/../lib/gcc/arm-none-eabi/6.3.1/../../../../arm-none-eabi/lib/thumb/v7e-m/fpv4-sp/hard\libg_nano.a(lib_a-reent.o)
 .text          0x00000000        0x0 c:/arm_gcc/bin/../lib/gcc/arm-none-eabi/6.3.1/../../../../arm-none-eabi/lib/thumb/v7e-m/fpv4-sp/hard\libg_nano.a(lib_a-strchr.o)
 .data          0x00000000        0x0 c:/arm_gcc/bin/../lib/gcc/arm-none-eabi/6.3.1/../../../../arm-none-eabi/lib/thumb/v7e-m/fpv4-sp/hard\libg_nano.a(lib_a-strchr.o)
 .bss           0x00000000        0x0 c:/arm_gcc/bin/../lib/gcc/arm-none-eabi/6.3.1/../../../../arm-none-eabi/lib/thumb/v7e-m/fpv4-sp/hard\libg_nano.a(lib_a-strchr.o)
 .text          0x00000000        0x0 c:/arm_gcc/bin/../lib/gcc/arm-none-eabi/6.3.1/thumb/v7e-m/fpv4-sp/hard/crtend.o
 .data          0x00000000        0x0 c:/arm_gcc/bin/../lib/gcc/arm-none-eabi/6.3.1/thumb/v7e-m/fpv4-sp/hard/crtend.o
 .bss           0x00000000        0x0 c:/arm_gcc/bin/../lib/gcc/arm-none-eabi/6.3.1/thumb/v7e-m/fpv4-sp/hard/crtend.o
 .text          0x00000000        0x0 c:/arm_gcc/bin/../lib/gcc/arm-none-eabi/6.3.1/thumb/v7e-m/fpv4-sp/hard/crtn.o
 .data          0x00000000        0x0 c:/arm_gcc/bin/../lib/gcc/arm-none-eabi/6.3.1/thumb/v7e-m/fpv4-sp/hard/crtn.o
 .bss           0x00000000        0x0 c:/arm_gcc/bin/../lib/gcc/arm-none-eabi/6.3.1/thumb/v7e-m/fpv4-sp/hard/crtn.o
 .text          0x00000000        0x0 c:/arm_gcc/bin/../lib/gcc/arm-none-eabi/6.3.1/../../../../arm-none-eabi/lib/thumb/v7e-m/fpv4-sp/hard\libnosys.a(sbrk.o)
 .data          0x00000000        0x0 c:/arm_gcc/bin/../lib/gcc/arm-none-eabi/6.3.1/../../../../arm-none-eabi/lib/thumb/v7e-m/fpv4-sp/hard\libnosys.a(sbrk.o)
 .bss           0x00000000        0x0 c:/arm_gcc/bin/../lib/gcc/arm-none-eabi/6.3.1/../../../../arm-none-eabi/lib/thumb/v7e-m/fpv4-sp/hard\libnosys.a(sbrk.o)
 .text          0x00000000        0x0 c:/arm_gcc/bin/../lib/gcc/arm-none-eabi/6.3.1/../../../../arm-none-eabi/lib/thumb/v7e-m/fpv4-sp/hard\libnosys.a(_exit.o)
 .data          0x00000000        0x0 c:/arm_gcc/bin/../lib/gcc/arm-none-eabi/6.3.1/../../../../arm-none-eabi/lib/thumb/v7e-m/fpv4-sp/hard\libnosys.a(_exit.o)
 .bss           0x00000000        0x0 c:/arm_gcc/bin/../lib/gcc/arm-none-eabi/6.3.1/../../../../arm-none-eabi/lib/thumb/v7e-m/fpv4-sp/hard\libnosys.a(_exit.o)

Memory Configuration

Name             Origin             Length             Attributes
FLASH            0x00026000         0x000d1000         xr
RAM              0x20002da0         0x0003cf60         xrw
*default*        0x00000000         0xffffffff

Linker script and memory map


.text           0x00026000    0x149c4
 *(.isr_vector)
 .isr_vector    0x00026000      0x200 examples/light_switch/client/CMakeFiles/light_switch_client_nrf52840_xxAA_s140_6.0.0.dir/C_/sdks/nRF5_SDK_15.0.0_a53641a/modules/nrfx/mdk/gcc_startup_nrf52840.S.obj
                0x00026000                __isr_vector
 *(.text*)
 .text          0x00026200       0x6c c:/arm_gcc/bin/../lib/gcc/arm-none-eabi/6.3.1/thumb/v7e-m/fpv4-sp/hard/crtbegin.o
 .text          0x0002626c       0x74 c:/arm_gcc/bin/../lib/gcc/arm-none-eabi/6.3.1/../../../../arm-none-eabi/lib/thumb/v7e-m/fpv4-sp/hard/crt0.o
                0x0002626c                _start
                0x0002626c                _mainCRTStartup
 .text.sd_app_evt_wait
                0x000262e0        0x4 examples/light_switch/client/CMakeFiles/light_switch_client_nrf52840_xxAA_s140_6.0.0.dir/src/main.c.obj
 .text.app_generic_onoff_client_status_cb
                0x000262e4       0xd0 examples/light_switch/client/CMakeFiles/light_switch_client_nrf52840_xxAA_s140_6.0.0.dir/src/main.c.obj
 .text.app_gen_onoff_client_transaction_status_cb
                0x000263b4      0x11c examples/light_switch/client/CMakeFiles/light_switch_client_nrf52840_xxAA_s140_6.0.0.dir/src/main.c.obj
 .text.provisioning_complete_cb
                0x000264d0       0xd0 examples/light_switch/client/CMakeFiles/light_switch_client_nrf52840_xxAA_s140_6.0.0.dir/src/main.c.obj
 .text.button_event_handler
                0x000265a0      0x1f8 examples/light_switch/client/CMakeFiles/light_switch_client_nrf52840_xxAA_s140_6.0.0.dir/src/main.c.obj
 .text.rtt_input_handler
                0x00026798        0xc examples/light_switch/client/CMakeFiles/light_switch_client_nrf52840_xxAA_s140_6.0.0.dir/src/main.c.obj
 .text.models_init_cb
                0x000267a4       0xc0 examples/light_switch/client/CMakeFiles/light_switch_client_nrf52840_xxAA_s140_6.0.0.dir/src/main.c.obj
 .text.config_server_evt_cb
                0x00026864       0x80 examples/light_switch/client/CMakeFiles/light_switch_client_nrf52840_xxAA_s140_6.0.0.dir/src/main.c.obj
 .text.app_gen_onoff_client_publish_interval_cb
                0x000268e4       0x64 examples/light_switch/client/CMakeFiles/light_switch_client_nrf52840_xxAA_s140_6.0.0.dir/src/main.c.obj
 .text.startup.main
                0x00026948      0x28c examples/light_switch/client/CMakeFiles/light_switch_client_nrf52840_xxAA_s140_6.0.0.dir/src/main.c.obj
                0x00026948                main
 .text.mesh_evt_handler
                0x00026bd4        0xe examples/light_switch/client/CMakeFiles/light_switch_client_nrf52840_xxAA_s140_6.0.0.dir/__/__/__/mesh/stack/src/mesh_stack.c.obj
 .text.mesh_stack_start
                0x00026be2        0x4 examples/light_switch/client/CMakeFiles/light_switch_client_nrf52840_xxAA_s140_6.0.0.dir/__/__/__/mesh/stack/src/mesh_stack.c.obj
                0x00026be2                mesh_stack_start
 .text.mesh_stack_provisioning_data_store
                0x00026be6       0x6c examples/light_switch/client/CMakeFiles/light_switch_client_nrf52840_xxAA_s140_6.0.0.dir/__/__/__/mesh/stack/src/mesh_stack.c.obj
                0x00026be6                mesh_stack_provisioning_data_store
 .text.mesh_stack_config_clear
                0x00026c52       0x12 examples/light_switch/client/CMakeFiles/light_switch_client_nrf52840_xxAA_s140_6.0.0.dir/__/__/__/mesh/stack/src/mesh_stack.c.obj
                0x00026c52                mesh_stack_config_clear
 .text.mesh_stack_is_device_provisioned
                0x00026c64       0x18 examples/light_switch/client/CMakeFiles/light_switch_client_nrf52840_xxAA_s140_6.0.0.dir/__/__/__/mesh/stack/src/mesh_stack.c.obj
                0x00026c64                mesh_stack_is_device_provisioned
 .text.mesh_stack_init
                0x00026c7c       0x64 examples/light_switch/client/CMakeFiles/light_switch_client_nrf52840_xxAA_s140_6.0.0.dir/__/__/__/mesh/stack/src/mesh_stack.c.obj
                0x00026c7c                mesh_stack_init
 .text.mesh_stack_device_reset
                0x00026ce0       0x20 examples/light_switch/client/CMakeFiles/light_switch_client_nrf52840_xxAA_s140_6.0.0.dir/__/__/__/mesh/stack/src/mesh_stack.c.obj
                0x00026ce0                mesh_stack_device_reset
 .text.sd_evt_get
                0x00026d00        0x4 examples/light_switch/client/CMakeFiles/light_switch_client_nrf52840_xxAA_s140_6.0.0.dir/__/__/common/src/mesh_softdevice_init.c.obj
 .text.sd_softdevice_enable
                0x00026d04        0x4 examples/light_switch/client/CMakeFiles/light_switch_client_nrf52840_xxAA_s140_6.0.0.dir/__/__/common/src/mesh_softdevice_init.c.obj
 .text.sd_ble_enable
                0x00026d08        0x4 examples/light_switch/client/CMakeFiles/light_switch_client_nrf52840_xxAA_s140_6.0.0.dir/__/__/common/src/mesh_softdevice_init.c.obj
 .text.sd_ble_cfg_set
                0x00026d0c        0x4 examples/light_switch/client/CMakeFiles/light_switch_client_nrf52840_xxAA_s140_6.0.0.dir/__/__/common/src/mesh_softdevice_init.c.obj
 .text.SWI2_EGU2_IRQHandler
                0x00026d10       0x18 examples/light_switch/client/CMakeFiles/light_switch_client_nrf52840_xxAA_s140_6.0.0.dir/__/__/common/src/mesh_softdevice_init.c.obj
                0x00026d10                SWI2_EGU2_IRQHandler
 .text.mesh_softdevice_init
                0x00026d28      0x1ac examples/light_switch/client/CMakeFiles/light_switch_client_nrf52840_xxAA_s140_6.0.0.dir/__/__/common/src/mesh_softdevice_init.c.obj
                0x00026d28                mesh_softdevice_init
 .text.provisionee_start
                0x00026ed4       0x18 examples/light_switch/client/CMakeFiles/light_switch_client_nrf52840_xxAA_s140_6.0.0.dir/__/__/common/src/mesh_provisionee.c.obj
 .text.prov_evt_handler
                0x00026eec       0x64 examples/light_switch/client/CMakeFiles/light_switch_client_nrf52840_xxAA_s140_6.0.0.dir/__/__/common/src/mesh_provisionee.c.obj
 .text.mesh_provisionee_prov_start
                0x00026f50       0x78 examples/light_switch/client/CMakeFiles/light_switch_client_nrf52840_xxAA_s140_6.0.0.dir/__/__/common/src/mesh_provisionee.c.obj
                0x00026f50                mesh_provisionee_prov_start
 .text.timeout_handler
                0x00026fc8       0x1c examples/light_switch/client/CMakeFiles/light_switch_client_nrf52840_xxAA_s140_6.0.0.dir/__/__/common/src/rtt_input.c.obj
                0x00026fc8                timeout_handler
 .text.rtt_input_enable
                0x00026fe4       0x6c examples/light_switch/client/CMakeFiles/light_switch_client_nrf52840_xxAA_s140_6.0.0.dir/__/__/common/src/rtt_input.c.obj
                0x00026fe4                rtt_input_enable
 .text.led_timeout_handler
                0x00027050       0x40 examples/light_switch/client/CMakeFiles/light_switch_client_nrf52840_xxAA_s140_6.0.0.dir/__/__/common/src/simple_hal.c.obj
 .text.hal_led_pin_set
                0x00027090       0x16 examples/light_switch/client/CMakeFiles/light_switch_client_nrf52840_xxAA_s140_6.0.0.dir/__/__/common/src/simple_hal.c.obj
                0x00027090                hal_led_pin_set
 .text.hal_led_mask_set
                0x000270a6       0x12 examples/light_switch/client/CMakeFiles/light_switch_client_nrf52840_xxAA_s140_6.0.0.dir/__/__/common/src/simple_hal.c.obj
                0x000270a6                hal_led_mask_set
 .text.hal_led_blink_ms
                0x000270b8       0x5c examples/light_switch/client/CMakeFiles/light_switch_client_nrf52840_xxAA_s140_6.0.0.dir/__/__/common/src/simple_hal.c.obj
                0x000270b8                hal_led_blink_ms
 .text.hal_leds_init
                0x00027114       0x58 examples/light_switch/client/CMakeFiles/light_switch_client_nrf52840_xxAA_s140_6.0.0.dir/__/__/common/src/simple_hal.c.obj
                0x00027114                hal_leds_init
 .text.hal_buttons_init
                0x0002716c       0x50 examples/light_switch/client/CMakeFiles/light_switch_client_nrf52840_xxAA_s140_6.0.0.dir/__/__/common/src/simple_hal.c.obj
                0x0002716c                hal_buttons_init
 .text.GPIOTE_IRQHandler
                0x000271bc       0x60 examples/light_switch/client/CMakeFiles/light_switch_client_nrf52840_xxAA_s140_6.0.0.dir/__/__/common/src/simple_hal.c.obj
                0x000271bc                GPIOTE_IRQHandler
 .text.mesh_app_uuid_gen
                0x0002721c       0x30 examples/light_switch/client/CMakeFiles/light_switch_client_nrf52840_xxAA_s140_6.0.0.dir/__/__/common/src/mesh_app_utils.c.obj
                0x0002721c                mesh_app_uuid_gen
 .text._weak_handler
                0x0002724c        0x4 examples/light_switch/client/CMakeFiles/light_switch_client_nrf52840_xxAA_s140_6.0.0.dir/__/__/nrf_mesh_weak.c.obj
                0x0002724c                nrf_mesh_dfu_init
                0x0002724c                nrf_mesh_dfu_jump_to_bootloader
                0x0002724c                nrf_mesh_dfu_rx
                0x0002724c                prov_provisioner_provision
                0x0002724c                nrf_mesh_dfu_bank_info_get
                0x0002724c                prov_provisioner_oob_pubkey
                0x0002724c                nrf_mesh_dfu_request
                0x0002724c                nrf_mesh_dfu_bank_flash
                0x0002724c                nrf_mesh_dfu_enable
                0x0002724c                _weak_handler
                0x0002724c                nrf_mesh_dfu_relay
                0x0002724c                nrf_mesh_dfu_abort
                0x0002724c                mesh_flash_op_execute
                0x0002724c                prov_provisionee_init
                0x0002724c                nrf_mesh_dfu_state_get
                0x0002724c                prov_provisioner_shared_secret
                0x0002724c                prov_provisioner_auth_data
                0x0002724c                prov_provisioner_oob_use
 .text.app_error_fault_handler
                0x00027250      0x204 examples/light_switch/client/CMakeFiles/light_switch_client_nrf52840_xxAA_s140_6.0.0.dir/__/__/common/src/app_error_weak.c.obj
                0x00027250                app_error_fault_handler
 .text.mesh_assertion_handler
                0x00027454       0x24 examples/light_switch/client/CMakeFiles/light_switch_client_nrf52840_xxAA_s140_6.0.0.dir/__/__/common/src/assertion_handler_weak.c.obj
                0x00027454                mesh_assertion_handler
 .text.nrf_mesh_configure_device_uuid_set
                0x00027478       0x10 examples/light_switch/client/CMakeFiles/light_switch_client_nrf52840_xxAA_s140_6.0.0.dir/__/__/__/mesh/core/src/nrf_mesh_configure.c.obj
                0x00027478                nrf_mesh_configure_device_uuid_set
 .text.nrf_mesh_configure_device_uuid_reset
                0x00027488       0x28 examples/light_switch/client/CMakeFiles/light_switch_client_nrf52840_xxAA_s140_6.0.0.dir/__/__/__/mesh/core/src/nrf_mesh_configure.c.obj
                0x00027488                nrf_mesh_configure_device_uuid_reset
 .text.nrf_mesh_configure_device_uuid_get
                0x000274b0        0x8 examples/light_switch/client/CMakeFiles/light_switch_client_nrf52840_xxAA_s140_6.0.0.dir/__/__/__/mesh/core/src/nrf_mesh_configure.c.obj
                0x000274b0                nrf_mesh_configure_device_uuid_get
 .text.msg_cache_init
                0x000274b8       0x24 examples/light_switch/client/CMakeFiles/light_switch_client_nrf52840_xxAA_s140_6.0.0.dir/__/__/__/mesh/core/src/msg_cache.c.obj
                0x000274b8                msg_cache_init
 .text.msg_cache_entry_exists
                0x000274dc       0x3c examples/light_switch/client/CMakeFiles/light_switch_client_nrf52840_xxAA_s140_6.0.0.dir/__/__/__/mesh/core/src/msg_cache.c.obj
                0x000274dc                msg_cache_entry_exists
 .text.msg_cache_entry_add
                0x00027518       0x2c examples/light_switch/client/CMakeFiles/light_switch_client_nrf52840_xxAA_s140_6.0.0.dir/__/__/__/mesh/core/src/msg_cache.c.obj
                0x00027518                msg_cache_entry_add
 .text.seqauth_sequence_number_get
                0x00027544       0x12 examples/light_switch/client/CMakeFiles/light_switch_client_nrf52840_xxAA_s140_6.0.0.dir/__/__/__/mesh/core/src/transport.c.obj
 *fill*         0x00027556        0x2 
 .text.control_packet_callback_get
                0x00027558       0x44 examples/light_switch/client/CMakeFiles/light_switch_client_nrf52840_xxAA_s140_6.0.0.dir/__/__/__/mesh/core/src/transport.c.obj
 .text.tx_complete
                0x0002759c       0x2c examples/light_switch/client/CMakeFiles/light_switch_client_nrf52840_xxAA_s140_6.0.0.dir/__/__/__/mesh/core/src/transport.c.obj
 .text.block_ack_full
                0x000275c8       0x1a examples/light_switch/client/CMakeFiles/light_switch_client_nrf52840_xxAA_s140_6.0.0.dir/__/__/__/mesh/core/src/transport.c.obj
 *fill*         0x000275e2        0x2 
 .text.sar_rx_session_mark_as_handled
                0x000275e4       0x48 examples/light_switch/client/CMakeFiles/light_switch_client_nrf52840_xxAA_s140_6.0.0.dir/__/__/__/mesh/core/src/transport.c.obj
 .text.upper_trs_packet_encrypt
                0x0002762c       0x90 examples/light_switch/client/CMakeFiles/light_switch_client_nrf52840_xxAA_s140_6.0.0.dir/__/__/__/mesh/core/src/transport.c.obj
 .text.sar_ctx_free
                0x000276bc       0x40 examples/light_switch/client/CMakeFiles/light_switch_client_nrf52840_xxAA_s140_6.0.0.dir/__/__/__/mesh/core/src/transport.c.obj
 .text.sar_ctx_tx_complete
                0x000276fc       0x2e examples/light_switch/client/CMakeFiles/light_switch_client_nrf52840_xxAA_s140_6.0.0.dir/__/__/__/mesh/core/src/transport.c.obj
 *fill*         0x0002772a        0x2 
 .text.sar_ctx_alloc
                0x0002772c       0xa8 examples/light_switch/client/CMakeFiles/light_switch_client_nrf52840_xxAA_s140_6.0.0.dir/__/__/__/mesh/core/src/transport.c.obj
 .text.test_transport_decrypt
                0x000277d4       0x88 examples/light_switch/client/CMakeFiles/light_switch_client_nrf52840_xxAA_s140_6.0.0.dir/__/__/__/mesh/core/src/transport.c.obj
 .text.upper_transport_access_packet_in
                0x0002785c      0x19c examples/light_switch/client/CMakeFiles/light_switch_client_nrf52840_xxAA_s140_6.0.0.dir/__/__/__/mesh/core/src/transport.c.obj
 .text.trs_packet_header_build
                0x000279f8       0xa6 examples/light_switch/client/CMakeFiles/light_switch_client_nrf52840_xxAA_s140_6.0.0.dir/__/__/__/mesh/core/src/transport.c.obj
 *fill*         0x00027a9e        0x2 
 .text.tx_retry_timer_reset
                0x00027aa0       0x44 examples/light_switch/client/CMakeFiles/light_switch_client_nrf52840_xxAA_s140_6.0.0.dir/__/__/__/mesh/core/src/transport.c.obj
 .text.sar_ctx_cancel
                0x00027ae4       0xa8 examples/light_switch/client/CMakeFiles/light_switch_client_nrf52840_xxAA_s140_6.0.0.dir/__/__/__/mesh/core/src/transport.c.obj
 .text.abort_timeout
                0x00027b8c        0x8 examples/light_switch/client/CMakeFiles/light_switch_client_nrf52840_xxAA_s140_6.0.0.dir/__/__/__/mesh/core/src/transport.c.obj
 .text.trs_sar_packet_out
                0x00027b94       0xda examples/light_switch/client/CMakeFiles/light_switch_client_nrf52840_xxAA_s140_6.0.0.dir/__/__/__/mesh/core/src/transport.c.obj
 .text.retry_timeout
                0x00027c6e       0x46 examples/light_switch/client/CMakeFiles/light_switch_client_nrf52840_xxAA_s140_6.0.0.dir/__/__/__/mesh/core/src/transport.c.obj
 .text.upper_transport_packet_in
                0x00027cb4      0x150 examples/light_switch/client/CMakeFiles/light_switch_client_nrf52840_xxAA_s140_6.0.0.dir/__/__/__/mesh/core/src/transport.c.obj
 .text.upper_transport_tx
                0x00027e04      0x1e4 examples/light_switch/client/CMakeFiles/light_switch_client_nrf52840_xxAA_s140_6.0.0.dir/__/__/__/mesh/core/src/transport.c.obj
 .text.transport_sar_mem_funcs_reset
                0x00027fe8       0x28 examples/light_switch/client/CMakeFiles/light_switch_client_nrf52840_xxAA_s140_6.0.0.dir/__/__/__/mesh/core/src/transport.c.obj
                0x00027fe8                transport_sar_mem_funcs_reset
 .text.transport_init
                0x00028010       0x8c examples/light_switch/client/CMakeFiles/light_switch_client_nrf52840_xxAA_s140_6.0.0.dir/__/__/__/mesh/core/src/transport.c.obj
                0x00028010                transport_init
 .text.transport_tx
                0x0002809c       0xb4 examples/light_switch/client/CMakeFiles/light_switch_client_nrf52840_xxAA_s140_6.0.0.dir/__/__/__/mesh/core/src/transport.c.obj
                0x0002809c                transport_tx
 .text.transport_control_tx
                0x00028150       0x8e examples/light_switch/client/CMakeFiles/light_switch_client_nrf52840_xxAA_s140_6.0.0.dir/__/__/__/mesh/core/src/transport.c.obj
                0x00028150                transport_control_tx
 *fill*         0x000281de        0x2 
 .text.sar_ack_send
                0x000281e0       0xa0 examples/light_switch/client/CMakeFiles/light_switch_client_nrf52840_xxAA_s140_6.0.0.dir/__/__/__/mesh/core/src/transport.c.obj
 .text.transport_sar_process
                0x00028280       0x74 examples/light_switch/client/CMakeFiles/light_switch_client_nrf52840_xxAA_s140_6.0.0.dir/__/__/__/mesh/core/src/transport.c.obj
 .text.transport_packet_in
                0x000282f4      0x434 examples/light_switch/client/CMakeFiles/light_switch_client_nrf52840_xxAA_s140_6.0.0.dir/__/__/__/mesh/core/src/transport.c.obj
                0x000282f4                transport_packet_in
 .text.ack_timeout
                0x00028728       0x28 examples/light_switch/client/CMakeFiles/light_switch_client_nrf52840_xxAA_s140_6.0.0.dir/__/__/__/mesh/core/src/transport.c.obj
 .text.transport_control_packet_consumer_add
                0x00028750       0x5c examples/light_switch/client/CMakeFiles/light_switch_client_nrf52840_xxAA_s140_6.0.0.dir/__/__/__/mesh/core/src/transport.c.obj
                0x00028750                transport_control_packet_consumer_add
 .text.event_handle
                0x000287ac       0x54 examples/light_switch/client/CMakeFiles/light_switch_client_nrf52840_xxAA_s140_6.0.0.dir/__/__/__/mesh/core/src/event.c.obj
                0x000287ac                event_handle
 .text.event_handler_add
                0x00028800       0x20 examples/light_switch/client/CMakeFiles/light_switch_client_nrf52840_xxAA_s140_6.0.0.dir/__/__/__/mesh/core/src/event.c.obj
                0x00028800                event_handler_add
 .text.event_handler_remove
                0x00028820       0x34 examples/light_switch/client/CMakeFiles/light_switch_client_nrf52840_xxAA_s140_6.0.0.dir/__/__/__/mesh/core/src/event.c.obj
                0x00028820                event_handler_remove
 .text.m_index_increment
                0x00028854       0x1e examples/light_switch/client/CMakeFiles/light_switch_client_nrf52840_xxAA_s140_6.0.0.dir/__/__/__/mesh/core/src/packet_buffer.c.obj
 .text.packet_buffer_init
                0x00028872       0xac examples/light_switch/client/CMakeFiles/light_switch_client_nrf52840_xxAA_s140_6.0.0.dir/__/__/__/mesh/core/src/packet_buffer.c.obj
                0x00028872                packet_buffer_init
 .text.packet_buffer_flush
                0x0002891e       0x60 examples/light_switch/client/CMakeFiles/light_switch_client_nrf52840_xxAA_s140_6.0.0.dir/__/__/__/mesh/core/src/packet_buffer.c.obj
                0x0002891e                packet_buffer_flush
 .text.packet_buffer_reserve
                0x0002897e       0x96 examples/light_switch/client/CMakeFiles/light_switch_client_nrf52840_xxAA_s140_6.0.0.dir/__/__/__/mesh/core/src/packet_buffer.c.obj
                0x0002897e                packet_buffer_reserve
 .text.packet_buffer_commit
                0x00028a14       0x58 examples/light_switch/client/CMakeFiles/light_switch_client_nrf52840_xxAA_s140_6.0.0.dir/__/__/__/mesh/core/src/packet_buffer.c.obj
                0x00028a14                packet_buffer_commit
 .text.packet_buffer_pop
                0x00028a6c       0x50 examples/light_switch/client/CMakeFiles/light_switch_client_nrf52840_xxAA_s140_6.0.0.dir/__/__/__/mesh/core/src/packet_buffer.c.obj
                0x00028a6c                packet_buffer_pop
 .text.packet_buffer_can_pop
                0x00028abc       0x38 examples/light_switch/client/CMakeFiles/light_switch_client_nrf52840_xxAA_s140_6.0.0.dir/__/__/__/mesh/core/src/packet_buffer.c.obj
                0x00028abc                packet_buffer_can_pop
 .text.packet_buffer_packets_ready_to_pop
                0x00028af4       0x3c examples/light_switch/client/CMakeFiles/light_switch_client_nrf52840_xxAA_s140_6.0.0.dir/__/__/__/mesh/core/src/packet_buffer.c.obj
                0x00028af4                packet_buffer_packets_ready_to_pop
 .text.packet_buffer_free
                0x00028b30       0x6e examples/light_switch/client/CMakeFiles/light_switch_client_nrf52840_xxAA_s140_6.0.0.dir/__/__/__/mesh/core/src/packet_buffer.c.obj
                0x00028b30                packet_buffer_free
 .text.get_last_page
                0x00028b9e       0x14 examples/light_switch/client/CMakeFiles/light_switch_client_nrf52840_xxAA_s140_6.0.0.dir/__/__/__/mesh/core/src/flash_manager_defrag.c.obj
 *fill*         0x00028bb2        0x2 
 .text.defrag_on_end
                0x00028bb4       0x1c examples/light_switch/client/CMakeFiles/light_switch_client_nrf52840_xxAA_s140_6.0.0.dir/__/__/__/mesh/core/src/flash_manager_defrag.c.obj
 .text.execute_procedure_step
                0x00028bd0       0x7c examples/light_switch/client/CMakeFiles/light_switch_client_nrf52840_xxAA_s140_6.0.0.dir/__/__/__/mesh/core/src/flash_manager_defrag.c.obj
 .text.get_next_entry
                0x00028c4c       0x34 examples/light_switch/client/CMakeFiles/light_switch_client_nrf52840_xxAA_s140_6.0.0.dir/__/__/__/mesh/core/src/flash_manager_defrag.c.obj
 .text.get_next_data_entry
                0x00028c80       0x26 examples/light_switch/client/CMakeFiles/light_switch_client_nrf52840_xxAA_s140_6.0.0.dir/__/__/__/mesh/core/src/flash_manager_defrag.c.obj
 *fill*         0x00028ca6        0x2 
 .text.on_flash_op_end
                0x00028ca8       0x30 examples/light_switch/client/CMakeFiles/light_switch_client_nrf52840_xxAA_s140_6.0.0.dir/__/__/__/mesh/core/src/flash_manager_defrag.c.obj
 .text.check_for_invalid_entries
                0x00028cd8       0x38 examples/light_switch/client/CMakeFiles/light_switch_client_nrf52840_xxAA_s140_6.0.0.dir/__/__/__/mesh/core/src/flash_manager_defrag.c.obj
 .text.erase_recovery_area
                0x00028d10       0x34 examples/light_switch/client/CMakeFiles/light_switch_client_nrf52840_xxAA_s140_6.0.0.dir/__/__/__/mesh/core/src/flash_manager_defrag.c.obj
 .text.flash.constprop.6
                0x00028d44       0x24 examples/light_switch/client/CMakeFiles/light_switch_client_nrf52840_xxAA_s140_6.0.0.dir/__/__/__/mesh/core/src/flash_manager_defrag.c.obj
 .text.seal_storage_page
                0x00028d68       0x50 examples/light_switch/client/CMakeFiles/light_switch_client_nrf52840_xxAA_s140_6.0.0.dir/__/__/__/mesh/core/src/flash_manager_defrag.c.obj
 .text.invalidate_duplicate_entries
                0x00028db8       0x9c examples/light_switch/client/CMakeFiles/light_switch_client_nrf52840_xxAA_s140_6.0.0.dir/__/__/__/mesh/core/src/flash_manager_defrag.c.obj
 .text.copy_metadata
                0x00028e54       0x3c examples/light_switch/client/CMakeFiles/light_switch_client_nrf52840_xxAA_s140_6.0.0.dir/__/__/__/mesh/core/src/flash_manager_defrag.c.obj
 .text.write_defrag_start_pointer
                0x00028e90       0x20 examples/light_switch/client/CMakeFiles/light_switch_client_nrf52840_xxAA_s140_6.0.0.dir/__/__/__/mesh/core/src/flash_manager_defrag.c.obj
 .text.write_back
                0x00028eb0       0x28 examples/light_switch/client/CMakeFiles/light_switch_client_nrf52840_xxAA_s140_6.0.0.dir/__/__/__/mesh/core/src/flash_manager_defrag.c.obj
 .text.post_process
                0x00028ed8       0x40 examples/light_switch/client/CMakeFiles/light_switch_client_nrf52840_xxAA_s140_6.0.0.dir/__/__/__/mesh/core/src/flash_manager_defrag.c.obj
 .text.backup_entries
                0x00028f18       0xf8 examples/light_switch/client/CMakeFiles/light_switch_client_nrf52840_xxAA_s140_6.0.0.dir/__/__/__/mesh/core/src/flash_manager_defrag.c.obj
 .text.erase_source
                0x00029010       0x34 examples/light_switch/client/CMakeFiles/light_switch_client_nrf52840_xxAA_s140_6.0.0.dir/__/__/__/mesh/core/src/flash_manager_defrag.c.obj
 .text.flash_manager_defrag_init
                0x00029044       0x8c examples/light_switch/client/CMakeFiles/light_switch_client_nrf52840_xxAA_s140_6.0.0.dir/__/__/__/mesh/core/src/flash_manager_defrag.c.obj
                0x00029044                flash_manager_defrag_init
 .text.flash_manager_defrag_is_running
                0x000290d0       0x10 examples/light_switch/client/CMakeFiles/light_switch_client_nrf52840_xxAA_s140_6.0.0.dir/__/__/__/mesh/core/src/flash_manager_defrag.c.obj
                0x000290d0                flash_manager_defrag_is_running
 .text.flash_manager_defrag
                0x000290e0       0x44 examples/light_switch/client/CMakeFiles/light_switch_client_nrf52840_xxAA_s140_6.0.0.dir/__/__/__/mesh/core/src/flash_manager_defrag.c.obj
                0x000290e0                flash_manager_defrag
 .text.flash_manager_defrag_recovery_page_get
                0x00029124        0xc examples/light_switch/client/CMakeFiles/light_switch_client_nrf52840_xxAA_s140_6.0.0.dir/__/__/__/mesh/core/src/flash_manager_defrag.c.obj
                0x00029124                flash_manager_defrag_recovery_page_get
 .text.fifo_init
                0x00029130       0x34 examples/light_switch/client/CMakeFiles/light_switch_client_nrf52840_xxAA_s140_6.0.0.dir/__/__/__/mesh/core/src/fifo.c.obj
                0x00029130                fifo_init
 .text.fifo_push
                0x00029164       0x50 examples/light_switch/client/CMakeFiles/light_switch_client_nrf52840_xxAA_s140_6.0.0.dir/__/__/__/mesh/core/src/fifo.c.obj
                0x00029164                fifo_push
 .text.fifo_pop
                0x000291b4       0x52 examples/light_switch/client/CMakeFiles/light_switch_client_nrf52840_xxAA_s140_6.0.0.dir/__/__/__/mesh/core/src/fifo.c.obj
                0x000291b4                fifo_pop
 *fill*         0x00029206        0x2 
 .text.wait_for_ready
                0x00029208       0x10 examples/light_switch/client/CMakeFiles/light_switch_client_nrf52840_xxAA_s140_6.0.0.dir/__/__/__/mesh/core/src/nrf_flash.c.obj
 .text.nrf_flash_erase
                0x00029218       0x50 examples/light_switch/client/CMakeFiles/light_switch_client_nrf52840_xxAA_s140_6.0.0.dir/__/__/__/mesh/core/src/nrf_flash.c.obj
                0x00029218                nrf_flash_erase
 .text.nrf_flash_write
                0x00029268       0x50 examples/light_switch/client/CMakeFiles/light_switch_client_nrf52840_xxAA_s140_6.0.0.dir/__/__/__/mesh/core/src/nrf_flash.c.obj
                0x00029268                nrf_flash_write
 .text.packet_mgr_init
                0x000292b8       0x4c examples/light_switch/client/CMakeFiles/light_switch_client_nrf52840_xxAA_s140_6.0.0.dir/__/__/__/mesh/core/src/packet_mgr.c.obj
                0x000292b8                packet_mgr_init
 .text.flash_store_iv_index
                0x00029304       0x38 examples/light_switch/client/CMakeFiles/light_switch_client_nrf52840_xxAA_s140_6.0.0.dir/__/__/__/mesh/core/src/net_state.c.obj
 .text.flash_mem_available
                0x0002933c       0x14 examples/light_switch/client/CMakeFiles/light_switch_client_nrf52840_xxAA_s140_6.0.0.dir/__/__/__/mesh/core/src/net_state.c.obj
 .text.seqnum_block_allocate
                0x00029350       0x4c examples/light_switch/client/CMakeFiles/light_switch_client_nrf52840_xxAA_s140_6.0.0.dir/__/__/__/mesh/core/src/net_state.c.obj
 .text.net_state_reset
                0x0002939c       0x48 examples/light_switch/client/CMakeFiles/light_switch_client_nrf52840_xxAA_s140_6.0.0.dir/__/__/__/mesh/core/src/net_state.c.obj
                0x0002939c                net_state_reset
 .text.flash_write_complete
                0x000293e4       0x64 examples/light_switch/client/CMakeFiles/light_switch_client_nrf52840_xxAA_s140_6.0.0.dir/__/__/__/mesh/core/src/net_state.c.obj
 .text.net_state_recover_from_flash
                0x00029448       0x8c examples/light_switch/client/CMakeFiles/light_switch_client_nrf52840_xxAA_s140_6.0.0.dir/__/__/__/mesh/core/src/net_state.c.obj
                0x00029448                net_state_recover_from_flash
 .text.net_state_flash_area_get
                0x000294d4        0xc examples/light_switch/client/CMakeFiles/light_switch_client_nrf52840_xxAA_s140_6.0.0.dir/__/__/__/mesh/core/src/net_state.c.obj
                0x000294d4                net_state_flash_area_get
 .text.init_flash_storage
                0x000294e0       0x40 examples/light_switch/client/CMakeFiles/light_switch_client_nrf52840_xxAA_s140_6.0.0.dir/__/__/__/mesh/core/src/net_state.c.obj
 .text.net_state_init
                0x00029520       0x44 examples/light_switch/client/CMakeFiles/light_switch_client_nrf52840_xxAA_s140_6.0.0.dir/__/__/__/mesh/core/src/net_state.c.obj
                0x00029520                net_state_init
 .text.net_state_enable
                0x00029564       0x30 examples/light_switch/client/CMakeFiles/light_switch_client_nrf52840_xxAA_s140_6.0.0.dir/__/__/__/mesh/core/src/net_state.c.obj
                0x00029564                net_state_enable
 .text.net_state_iv_update_start
                0x00029594       0x68 examples/light_switch/client/CMakeFiles/light_switch_client_nrf52840_xxAA_s140_6.0.0.dir/__/__/__/mesh/core/src/net_state.c.obj
                0x00029594                net_state_iv_update_start
 .text.iv_update_trigger_if_pending
                0x000295fc       0x80 examples/light_switch/client/CMakeFiles/light_switch_client_nrf52840_xxAA_s140_6.0.0.dir/__/__/__/mesh/core/src/net_state.c.obj
 .text.iv_update_timer_handler
                0x0002967c       0x68 examples/light_switch/client/CMakeFiles/light_switch_client_nrf52840_xxAA_s140_6.0.0.dir/__/__/__/mesh/core/src/net_state.c.obj
 .text.mesh_evt_handler
                0x000296e4       0xa0 examples/light_switch/client/CMakeFiles/light_switch_client_nrf52840_xxAA_s140_6.0.0.dir/__/__/__/mesh/core/src/net_state.c.obj
 .text.net_state_seqnum_alloc
                0x00029784       0x68 examples/light_switch/client/CMakeFiles/light_switch_client_nrf52840_xxAA_s140_6.0.0.dir/__/__/__/mesh/core/src/net_state.c.obj
                0x00029784                net_state_seqnum_alloc
 .text.net_state_iv_index_lock
                0x000297ec       0x3c examples/light_switch/client/CMakeFiles/light_switch_client_nrf52840_xxAA_s140_6.0.0.dir/__/__/__/mesh/core/src/net_state.c.obj
                0x000297ec                net_state_iv_index_lock
 .text.net_state_key_refresh_phase_changed
                0x00029828       0x20 examples/light_switch/client/CMakeFiles/light_switch_client_nrf52840_xxAA_s140_6.0.0.dir/__/__/__/mesh/core/src/net_state.c.obj
                0x00029828                net_state_key_refresh_phase_changed
 .text.net_state_beacon_iv_index_get
                0x00029848        0xc examples/light_switch/client/CMakeFiles/light_switch_client_nrf52840_xxAA_s140_6.0.0.dir/__/__/__/mesh/core/src/net_state.c.obj
                0x00029848                net_state_beacon_iv_index_get
 .text.net_state_tx_iv_index_get
                0x00029854       0x14 examples/light_switch/client/CMakeFiles/light_switch_client_nrf52840_xxAA_s140_6.0.0.dir/__/__/__/mesh/core/src/net_state.c.obj
                0x00029854                net_state_tx_iv_index_get
 .text.net_state_rx_iv_index_get
                0x00029868       0x18 examples/light_switch/client/CMakeFiles/light_switch_client_nrf52840_xxAA_s140_6.0.0.dir/__/__/__/mesh/core/src/net_state.c.obj
                0x00029868                net_state_rx_iv_index_get
 .text.net_state_iv_update_get
                0x00029880        0xc examples/light_switch/client/CMakeFiles/light_switch_client_nrf52840_xxAA_s140_6.0.0.dir/__/__/__/mesh/core/src/net_state.c.obj
                0x00029880                net_state_iv_update_get
 .text.net_state_iv_index_set
                0x0002988c       0x30 examples/light_switch/client/CMakeFiles/light_switch_client_nrf52840_xxAA_s140_6.0.0.dir/__/__/__/mesh/core/src/net_state.c.obj
                0x0002988c                net_state_iv_index_set
 .text.send_end_events
                0x000298bc       0x84 examples/light_switch/client/CMakeFiles/light_switch_client_nrf52840_xxAA_s140_6.0.0.dir/__/__/__/mesh/core/src/mesh_flash.c.obj
 .text.flash_op_schedule
                0x00029940       0x88 examples/light_switch/client/CMakeFiles/light_switch_client_nrf52840_xxAA_s140_6.0.0.dir/__/__/__/mesh/core/src/mesh_flash.c.obj
 .text.flash_op_start
                0x000299c8      0x13c examples/light_switch/client/CMakeFiles/light_switch_client_nrf52840_xxAA_s140_6.0.0.dir/__/__/__/mesh/core/src/mesh_flash.c.obj
 .text.mesh_flash_init
                0x00029b04       0x88 examples/light_switch/client/CMakeFiles/light_switch_client_nrf52840_xxAA_s140_6.0.0.dir/__/__/__/mesh/core/src/mesh_flash.c.obj
                0x00029b04                mesh_flash_init
 .text.mesh_flash_user_callback_set
                0x00029b8c       0x20 examples/light_switch/client/CMakeFiles/light_switch_client_nrf52840_xxAA_s140_6.0.0.dir/__/__/__/mesh/core/src/mesh_flash.c.obj
                0x00029b8c                mesh_flash_user_callback_set
 .text.mesh_flash_op_push
                0x00029bac       0xe4 examples/light_switch/client/CMakeFiles/light_switch_client_nrf52840_xxAA_s140_6.0.0.dir/__/__/__/mesh/core/src/mesh_flash.c.obj
                0x00029bac                mesh_flash_op_push
 .text.nrf_mesh_address_type_get
                0x00029c90       0x10 examples/light_switch/client/CMakeFiles/light_switch_client_nrf52840_xxAA_s140_6.0.0.dir/__/__/__/mesh/core/src/nrf_mesh_utils.c.obj
                0x00029c90                nrf_mesh_address_type_get
 .text.sd_softdevice_is_enabled
                0x00029ca0        0x4 examples/light_switch/client/CMakeFiles/light_switch_client_nrf52840_xxAA_s140_6.0.0.dir/__/__/__/mesh/core/src/nrf_mesh.c.obj
 .text.nrf_mesh_listen
                0x00029ca4      0x138 examples/light_switch/client/CMakeFiles/light_switch_client_nrf52840_xxAA_s140_6.0.0.dir/__/__/__/mesh/core/src/nrf_mesh.c.obj
 .text.scanner_packet_process_cb
                0x00029ddc       0x8c examples/light_switch/client/CMakeFiles/light_switch_client_nrf52840_xxAA_s140_6.0.0.dir/__/__/__/mesh/core/src/nrf_mesh.c.obj
 .text.nrf_mesh_init
                0x00029e68       0xd0 examples/light_switch/client/CMakeFiles/light_switch_client_nrf52840_xxAA_s140_6.0.0.dir/__/__/__/mesh/core/src/nrf_mesh.c.obj
                0x00029e68                nrf_mesh_init
 .text.nrf_mesh_enable
                0x00029f38       0xb8 examples/light_switch/client/CMakeFiles/light_switch_client_nrf52840_xxAA_s140_6.0.0.dir/__/__/__/mesh/core/src/nrf_mesh.c.obj
                0x00029f38                nrf_mesh_enable
 .text.nrf_mesh_packet_send
                0x00029ff0       0x7c examples/light_switch/client/CMakeFiles/light_switch_client_nrf52840_xxAA_s140_6.0.0.dir/__/__/__/mesh/core/src/nrf_mesh.c.obj
                0x00029ff0                nrf_mesh_packet_send
 .text.nrf_mesh_evt_handler_add
                0x0002a06c        0x4 examples/light_switch/client/CMakeFiles/light_switch_client_nrf52840_xxAA_s140_6.0.0.dir/__/__/__/mesh/core/src/nrf_mesh.c.obj
                0x0002a06c                nrf_mesh_evt_handler_add
 .text.nrf_mesh_on_sd_evt
                0x0002a070        0xa examples/light_switch/client/CMakeFiles/light_switch_client_nrf52840_xxAA_s140_6.0.0.dir/__/__/__/mesh/core/src/nrf_mesh.c.obj
                0x0002a070                nrf_mesh_on_sd_evt
 .text.nrf_mesh_subnet_added
                0x0002a07a        0x2 examples/light_switch/client/CMakeFiles/light_switch_client_nrf52840_xxAA_s140_6.0.0.dir/__/__/__/mesh/core/src/nrf_mesh.c.obj
                0x0002a07a                nrf_mesh_subnet_added
 .text.nrf_mesh_unique_token_get
                0x0002a07c       0x18 examples/light_switch/client/CMakeFiles/light_switch_client_nrf52840_xxAA_s140_6.0.0.dir/__/__/__/mesh/core/src/nrf_mesh.c.obj
                0x0002a07c                nrf_mesh_unique_token_get
 .text.queue_init
                0x0002a094       0x14 examples/light_switch/client/CMakeFiles/light_switch_client_nrf52840_xxAA_s140_6.0.0.dir/__/__/__/mesh/core/src/queue.c.obj
                0x0002a094                queue_init
 .text.queue_push
                0x0002a0a8       0x34 examples/light_switch/client/CMakeFiles/light_switch_client_nrf52840_xxAA_s140_6.0.0.dir/__/__/__/mesh/core/src/queue.c.obj
                0x0002a0a8                queue_push
 .text.queue_pop
                0x0002a0dc       0x26 examples/light_switch/client/CMakeFiles/light_switch_client_nrf52840_xxAA_s140_6.0.0.dir/__/__/__/mesh/core/src/queue.c.obj
                0x0002a0dc                queue_pop
 .text.queue_peek
                0x0002a102       0x10 examples/light_switch/client/CMakeFiles/light_switch_client_nrf52840_xxAA_s140_6.0.0.dir/__/__/__/mesh/core/src/queue.c.obj
                0x0002a102                queue_peek
 .text.sd_power_reset_reason_clr
                0x0002a112        0x4 examples/light_switch/client/CMakeFiles/light_switch_client_nrf52840_xxAA_s140_6.0.0.dir/__/__/__/mesh/core/src/hal.c.obj
 *fill*         0x0002a116        0x2 
 .text.hal_device_reset
                0x0002a118       0x2c examples/light_switch/client/CMakeFiles/light_switch_client_nrf52840_xxAA_s140_6.0.0.dir/__/__/__/mesh/core/src/hal.c.obj
                0x0002a118                hal_device_reset
 .text.hal_lfclk_ppm_get
                0x0002a144       0x14 examples/light_switch/client/CMakeFiles/light_switch_client_nrf52840_xxAA_s140_6.0.0.dir/__/__/__/mesh/core/src/hal.c.obj
                0x0002a144                hal_lfclk_ppm_get
 .text.hal_irq_active_get
                0x0002a158       0x10 examples/light_switch/client/CMakeFiles/light_switch_client_nrf52840_xxAA_s140_6.0.0.dir/__/__/__/mesh/core/src/hal.c.obj
                0x0002a158                hal_irq_active_get
 .text.hal_irq_is_enabled
                0x0002a168       0x28 examples/light_switch/client/CMakeFiles/light_switch_client_nrf52840_xxAA_s140_6.0.0.dir/__/__/__/mesh/core/src/hal.c.obj
                0x0002a168                hal_irq_is_enabled
 .text.sd_ecb_block_encrypt
                0x0002a190        0x4 examples/light_switch/client/CMakeFiles/light_switch_client_nrf52840_xxAA_s140_6.0.0.dir/__/__/__/mesh/core/src/aes_cmac.c.obj
 .text.utils_xor.constprop.1
                0x0002a194       0x20 examples/light_switch/client/CMakeFiles/light_switch_client_nrf52840_xxAA_s140_6.0.0.dir/__/__/__/mesh/core/src/aes_cmac.c.obj
 .text.aes_cmac
                0x0002a1b4      0x112 examples/light_switch/client/CMakeFiles/light_switch_client_nrf52840_xxAA_s140_6.0.0.dir/__/__/__/mesh/core/src/aes_cmac.c.obj
                0x0002a1b4                aes_cmac
 *fill*         0x0002a2c6        0x2 
 .text.remove_evt
                0x0002a2c8       0x2c examples/light_switch/client/CMakeFiles/light_switch_client_nrf52840_xxAA_s140_6.0.0.dir/__/__/__/mesh/core/src/timer_scheduler.c.obj
 .text.add_evt  0x0002a2f4       0x50 examples/light_switch/client/CMakeFiles/light_switch_client_nrf52840_xxAA_s140_6.0.0.dir/__/__/__/mesh/core/src/timer_scheduler.c.obj
 .text.timer_cb
                0x0002a344        0xc examples/light_switch/client/CMakeFiles/light_switch_client_nrf52840_xxAA_s140_6.0.0.dir/__/__/__/mesh/core/src/timer_scheduler.c.obj
 .text.setup_timeout
                0x0002a350       0x44 examples/light_switch/client/CMakeFiles/light_switch_client_nrf52840_xxAA_s140_6.0.0.dir/__/__/__/mesh/core/src/timer_scheduler.c.obj
 .text.flag_event_cb
                0x0002a394       0x98 examples/light_switch/client/CMakeFiles/light_switch_client_nrf52840_xxAA_s140_6.0.0.dir/__/__/__/mesh/core/src/timer_scheduler.c.obj
 .text.timer_sch_init
                0x0002a42c       0x24 examples/light_switch/client/CMakeFiles/light_switch_client_nrf52840_xxAA_s140_6.0.0.dir/__/__/__/mesh/core/src/timer_scheduler.c.obj
                0x0002a42c                timer_sch_init
 .text.timer_sch_schedule
                0x0002a450       0x44 examples/light_switch/client/CMakeFiles/light_switch_client_nrf52840_xxAA_s140_6.0.0.dir/__/__/__/mesh/core/src/timer_scheduler.c.obj
                0x0002a450                timer_sch_schedule
 .text.timer_sch_abort
                0x0002a494       0x2e examples/light_switch/client/CMakeFiles/light_switch_client_nrf52840_xxAA_s140_6.0.0.dir/__/__/__/mesh/core/src/timer_scheduler.c.obj
                0x0002a494                timer_sch_abort
 .text.timer_sch_reschedule
                0x0002a4c2       0x38 examples/light_switch/client/CMakeFiles/light_switch_client_nrf52840_xxAA_s140_6.0.0.dir/__/__/__/mesh/core/src/timer_scheduler.c.obj
                0x0002a4c2                timer_sch_reschedule
 *fill*         0x0002a4fa        0x2 
 .text.timer_mut_unlock
                0x0002a4fc       0x10 examples/light_switch/client/CMakeFiles/light_switch_client_nrf52840_xxAA_s140_6.0.0.dir/__/__/__/mesh/core/src/timer.c.obj
 .text.timer_order_cb
                0x0002a50c       0x94 examples/light_switch/client/CMakeFiles/light_switch_client_nrf52840_xxAA_s140_6.0.0.dir/__/__/__/mesh/core/src/timer.c.obj
                0x0002a50c                timer_order_cb
 .text.timer_now
                0x0002a5a0       0x48 examples/light_switch/client/CMakeFiles/light_switch_client_nrf52840_xxAA_s140_6.0.0.dir/__/__/__/mesh/core/src/timer.c.obj
                0x0002a5a0                timer_now
 .text.timer_event_handler
                0x0002a5e8       0x84 examples/light_switch/client/CMakeFiles/light_switch_client_nrf52840_xxAA_s140_6.0.0.dir/__/__/__/mesh/core/src/timer.c.obj
                0x0002a5e8                timer_event_handler
 .text.timer_on_ts_begin
                0x0002a66c       0xf4 examples/light_switch/client/CMakeFiles/light_switch_client_nrf52840_xxAA_s140_6.0.0.dir/__/__/__/mesh/core/src/timer.c.obj
                0x0002a66c                timer_on_ts_begin
 .text.timer_on_ts_end
                0x0002a760       0x60 examples/light_switch/client/CMakeFiles/light_switch_client_nrf52840_xxAA_s140_6.0.0.dir/__/__/__/mesh/core/src/timer.c.obj
                0x0002a760                timer_on_ts_end
 .text.sd_rand_application_bytes_available_get
                0x0002a7c0        0x4 examples/light_switch/client/CMakeFiles/light_switch_client_nrf52840_xxAA_s140_6.0.0.dir/__/__/__/mesh/core/src/rand.c.obj
 .text.sd_rand_application_vector_get
                0x0002a7c4        0x4 examples/light_switch/client/CMakeFiles/light_switch_client_nrf52840_xxAA_s140_6.0.0.dir/__/__/__/mesh/core/src/rand.c.obj
 .text.rand_prng_get
                0x0002a7c8       0x22 examples/light_switch/client/CMakeFiles/light_switch_client_nrf52840_xxAA_s140_6.0.0.dir/__/__/__/mesh/core/src/rand.c.obj
                0x0002a7c8                rand_prng_get
 .text.rand_hw_rng_get
                0x0002a7ea       0x44 examples/light_switch/client/CMakeFiles/light_switch_client_nrf52840_xxAA_s140_6.0.0.dir/__/__/__/mesh/core/src/rand.c.obj
                0x0002a7ea                rand_hw_rng_get
 *fill*         0x0002a82e        0x2 
 .text.rand_prng_seed
                0x0002a830       0x34 examples/light_switch/client/CMakeFiles/light_switch_client_nrf52840_xxAA_s140_6.0.0.dir/__/__/__/mesh/core/src/rand.c.obj
                0x0002a830                rand_prng_seed
 .text.mesh_opt_init
                0x0002a864        0x2 examples/light_switch/client/CMakeFiles/light_switch_client_nrf52840_xxAA_s140_6.0.0.dir/__/__/__/mesh/core/src/mesh_opt.c.obj
                0x0002a864                mesh_opt_init
 .text.sd_radio_session_open
                0x0002a866        0x4 examples/light_switch/client/CMakeFiles/light_switch_client_nrf52840_xxAA_s140_6.0.0.dir/__/__/__/mesh/core/src/timeslot.c.obj
 .text.sd_radio_session_close
                0x0002a86a        0x4 examples/light_switch/client/CMakeFiles/light_switch_client_nrf52840_xxAA_s140_6.0.0.dir/__/__/__/mesh/core/src/timeslot.c.obj
 .text.sd_radio_request
                0x0002a86e        0x4 examples/light_switch/client/CMakeFiles/light_switch_client_nrf52840_xxAA_s140_6.0.0.dir/__/__/__/mesh/core/src/timeslot.c.obj
 *fill*         0x0002a872        0x2 
 .text.end_timer_handler
                0x0002a874       0x24 examples/light_switch/client/CMakeFiles/light_switch_client_nrf52840_xxAA_s140_6.0.0.dir/__/__/__/mesh/core/src/timeslot.c.obj
 .text.get_end_time.constprop.10
                0x0002a898       0x28 examples/light_switch/client/CMakeFiles/light_switch_client_nrf52840_xxAA_s140_6.0.0.dir/__/__/__/mesh/core/src/timeslot.c.obj
 .text.handle_extend_end.constprop.3
                0x0002a8c0       0xb4 examples/light_switch/client/CMakeFiles/light_switch_client_nrf52840_xxAA_s140_6.0.0.dir/__/__/__/mesh/core/src/timeslot.c.obj
 .text.radio_signal_callback
                0x0002a974      0x138 examples/light_switch/client/CMakeFiles/light_switch_client_nrf52840_xxAA_s140_6.0.0.dir/__/__/__/mesh/core/src/timeslot.c.obj
 .text.timeslot_sd_event_handler
                0x0002aaac       0x38 examples/light_switch/client/CMakeFiles/light_switch_client_nrf52840_xxAA_s140_6.0.0.dir/__/__/__/mesh/core/src/timeslot.c.obj
                0x0002aaac                timeslot_sd_event_handler
 .text.timeslot_init
                0x0002aae4       0x48 examples/light_switch/client/CMakeFiles/light_switch_client_nrf52840_xxAA_s140_6.0.0.dir/__/__/__/mesh/core/src/timeslot.c.obj
                0x0002aae4                timeslot_init
 .text.timeslot_start
                0x0002ab2c       0x20 examples/light_switch/client/CMakeFiles/light_switch_client_nrf52840_xxAA_s140_6.0.0.dir/__/__/__/mesh/core/src/timeslot.c.obj
                0x0002ab2c                timeslot_start
 .text.timeslot_end_is_pending
                0x0002ab4c       0x24 examples/light_switch/client/CMakeFiles/light_switch_client_nrf52840_xxAA_s140_6.0.0.dir/__/__/__/mesh/core/src/timeslot.c.obj
                0x0002ab4c                timeslot_end_is_pending
 .text.timeslot_start_time_get
                0x0002ab70        0xc examples/light_switch/client/CMakeFiles/light_switch_client_nrf52840_xxAA_s140_6.0.0.dir/__/__/__/mesh/core/src/timeslot.c.obj
                0x0002ab70                timeslot_start_time_get
 .text.timeslot_remaining_time_get
                0x0002ab7c       0x20 examples/light_switch/client/CMakeFiles/light_switch_client_nrf52840_xxAA_s140_6.0.0.dir/__/__/__/mesh/core/src/timeslot.c.obj
                0x0002ab7c                timeslot_remaining_time_get
 .text.timeslot_is_in_cb
                0x0002ab9c        0xc examples/light_switch/client/CMakeFiles/light_switch_client_nrf52840_xxAA_s140_6.0.0.dir/__/__/__/mesh/core/src/timeslot.c.obj
                0x0002ab9c                timeslot_is_in_cb
 .text.timeslot_trigger
                0x0002aba8       0x24 examples/light_switch/client/CMakeFiles/light_switch_client_nrf52840_xxAA_s140_6.0.0.dir/__/__/__/mesh/core/src/timeslot.c.obj
                0x0002aba8                timeslot_trigger
 .text.timeslot_stop
                0x0002abcc       0x10 examples/light_switch/client/CMakeFiles/light_switch_client_nrf52840_xxAA_s140_6.0.0.dir/__/__/__/mesh/core/src/timeslot.c.obj
                0x0002abcc                timeslot_stop
 .text.timeslot_state_lock
                0x0002abdc       0x28 examples/light_switch/client/CMakeFiles/light_switch_client_nrf52840_xxAA_s140_6.0.0.dir/__/__/__/mesh/core/src/timeslot.c.obj
                0x0002abdc                timeslot_state_lock
 .text.trigger_event_handler
                0x0002ac04       0x1c examples/light_switch/client/CMakeFiles/light_switch_client_nrf52840_xxAA_s140_6.0.0.dir/__/__/__/mesh/core/src/bearer_event.c.obj
 .text.evt_push
                0x0002ac20       0x1c examples/light_switch/client/CMakeFiles/light_switch_client_nrf52840_xxAA_s140_6.0.0.dir/__/__/__/mesh/core/src/bearer_event.c.obj
 .text.bearer_event_init
                0x0002ac3c       0x48 examples/light_switch/client/CMakeFiles/light_switch_client_nrf52840_xxAA_s140_6.0.0.dir/__/__/__/mesh/core/src/bearer_event.c.obj
                0x0002ac3c                bearer_event_init
 .text.bearer_event_timer_post
                0x0002ac84       0x24 examples/light_switch/client/CMakeFiles/light_switch_client_nrf52840_xxAA_s140_6.0.0.dir/__/__/__/mesh/core/src/bearer_event.c.obj
                0x0002ac84                bearer_event_timer_post
 .text.bearer_event_critical_section_begin
                0x0002aca8       0x44 examples/light_switch/client/CMakeFiles/light_switch_client_nrf52840_xxAA_s140_6.0.0.dir/__/__/__/mesh/core/src/bearer_event.c.obj
                0x0002aca8                bearer_event_critical_section_begin
 .text.bearer_event_critical_section_end
                0x0002acec       0x40 examples/light_switch/client/CMakeFiles/light_switch_client_nrf52840_xxAA_s140_6.0.0.dir/__/__/__/mesh/core/src/bearer_event.c.obj
                0x0002acec                bearer_event_critical_section_end
 .text.bearer_event_flag_add
                0x0002ad2c       0x3c examples/light_switch/client/CMakeFiles/light_switch_client_nrf52840_xxAA_s140_6.0.0.dir/__/__/__/mesh/core/src/bearer_event.c.obj
                0x0002ad2c                bearer_event_flag_add
 .text.bearer_event_flag_set
                0x0002ad68       0x44 examples/light_switch/client/CMakeFiles/light_switch_client_nrf52840_xxAA_s140_6.0.0.dir/__/__/__/mesh/core/src/bearer_event.c.obj
                0x0002ad68                bearer_event_flag_set
 .text.bearer_event_sequential_add
                0x0002adac       0x2e examples/light_switch/client/CMakeFiles/light_switch_client_nrf52840_xxAA_s140_6.0.0.dir/__/__/__/mesh/core/src/bearer_event.c.obj
                0x0002adac                bearer_event_sequential_add
 *fill*         0x0002adda        0x2 
 .text.bearer_event_sequential_post
                0x0002addc       0x44 examples/light_switch/client/CMakeFiles/light_switch_client_nrf52840_xxAA_s140_6.0.0.dir/__/__/__/mesh/core/src/bearer_event.c.obj
                0x0002addc                bearer_event_sequential_post
 .text.bearer_event_sequential_pending
                0x0002ae20       0x10 examples/light_switch/client/CMakeFiles/light_switch_client_nrf52840_xxAA_s140_6.0.0.dir/__/__/__/mesh/core/src/bearer_event.c.obj
                0x0002ae20                bearer_event_sequential_pending
 .text.bearer_event_handler
                0x0002ae30       0xe8 examples/light_switch/client/CMakeFiles/light_switch_client_nrf52840_xxAA_s140_6.0.0.dir/__/__/__/mesh/core/src/bearer_event.c.obj
                0x0002ae30                bearer_event_handler
 .text.QDEC_IRQHandler
                0x0002af18        0x4 examples/light_switch/client/CMakeFiles/light_switch_client_nrf52840_xxAA_s140_6.0.0.dir/__/__/__/mesh/core/src/bearer_event.c.obj
                0x0002af18                QDEC_IRQHandler
 .text.bearer_event_in_correct_irq_priority
                0x0002af1c       0x74 examples/light_switch/client/CMakeFiles/light_switch_client_nrf52840_xxAA_s140_6.0.0.dir/__/__/__/mesh/core/src/bearer_event.c.obj
                0x0002af1c                bearer_event_in_correct_irq_priority
 .text.sd_ecb_block_encrypt
                0x0002af90        0x4 examples/light_switch/client/CMakeFiles/light_switch_client_nrf52840_xxAA_s140_6.0.0.dir/__/__/__/mesh/core/src/enc.c.obj
 .text.enc_aes_encrypt
                0x0002af94       0x32 examples/light_switch/client/CMakeFiles/light_switch_client_nrf52840_xxAA_s140_6.0.0.dir/__/__/__/mesh/core/src/enc.c.obj
                0x0002af94                enc_aes_encrypt
 .text.enc_aes_cmac
                0x0002afc6        0x4 examples/light_switch/client/CMakeFiles/light_switch_client_nrf52840_xxAA_s140_6.0.0.dir/__/__/__/mesh/core/src/enc.c.obj
                0x0002afc6                enc_aes_cmac
 .text.enc_aes_ccm_encrypt
                0x0002afca        0x4 examples/light_switch/client/CMakeFiles/light_switch_client_nrf52840_xxAA_s140_6.0.0.dir/__/__/__/mesh/core/src/enc.c.obj
                0x0002afca                enc_aes_ccm_encrypt
 .text.enc_aes_ccm_decrypt
                0x0002afce        0x4 examples/light_switch/client/CMakeFiles/light_switch_client_nrf52840_xxAA_s140_6.0.0.dir/__/__/__/mesh/core/src/enc.c.obj
                0x0002afce                enc_aes_ccm_decrypt
 .text.enc_nonce_generate
                0x0002afd2       0xbc examples/light_switch/client/CMakeFiles/light_switch_client_nrf52840_xxAA_s140_6.0.0.dir/__/__/__/mesh/core/src/enc.c.obj
                0x0002afd2                enc_nonce_generate
 .text.enc_s1   0x0002b08e       0x2c examples/light_switch/client/CMakeFiles/light_switch_client_nrf52840_xxAA_s140_6.0.0.dir/__/__/__/mesh/core/src/enc.c.obj
                0x0002b08e                enc_s1
 .text.enc_k1   0x0002b0ba       0x3c examples/light_switch/client/CMakeFiles/light_switch_client_nrf52840_xxAA_s140_6.0.0.dir/__/__/__/mesh/core/src/enc.c.obj
                0x0002b0ba                enc_k1
 *fill*         0x0002b0f6        0x2 
 .text.enc_k2   0x0002b0f8       0xc8 examples/light_switch/client/CMakeFiles/light_switch_client_nrf52840_xxAA_s140_6.0.0.dir/__/__/__/mesh/core/src/enc.c.obj
                0x0002b0f8                enc_k2
 .text.enc_k3   0x0002b1c0       0x5c examples/light_switch/client/CMakeFiles/light_switch_client_nrf52840_xxAA_s140_6.0.0.dir/__/__/__/mesh/core/src/enc.c.obj
                0x0002b1c0                enc_k3
 .text.enc_k4   0x0002b21c       0x54 examples/light_switch/client/CMakeFiles/light_switch_client_nrf52840_xxAA_s140_6.0.0.dir/__/__/__/mesh/core/src/enc.c.obj
                0x0002b21c                enc_k4
 .text.allocate_packet
                0x0002b270       0x6a examples/light_switch/client/CMakeFiles/light_switch_client_nrf52840_xxAA_s140_6.0.0.dir/__/__/__/mesh/core/src/network.c.obj
 *fill*         0x0002b2da        0x2 
 .text.network_init
                0x0002b2dc       0x24 examples/light_switch/client/CMakeFiles/light_switch_client_nrf52840_xxAA_s140_6.0.0.dir/__/__/__/mesh/core/src/network.c.obj
                0x0002b2dc                network_init
 .text.network_enable
                0x0002b300        0xe examples/light_switch/client/CMakeFiles/light_switch_client_nrf52840_xxAA_s140_6.0.0.dir/__/__/__/mesh/core/src/network.c.obj
                0x0002b300                network_enable
 .text.network_packet_alloc
                0x0002b30e       0x30 examples/light_switch/client/CMakeFiles/light_switch_client_nrf52840_xxAA_s140_6.0.0.dir/__/__/__/mesh/core/src/network.c.obj
                0x0002b30e                network_packet_alloc
 .text.network_packet_send
                0x0002b33e       0x46 examples/light_switch/client/CMakeFiles/light_switch_client_nrf52840_xxAA_s140_6.0.0.dir/__/__/__/mesh/core/src/network.c.obj
                0x0002b33e                network_packet_send
 .text.network_packet_in
                0x0002b384      0x164 examples/light_switch/client/CMakeFiles/light_switch_client_nrf52840_xxAA_s140_6.0.0.dir/__/__/__/mesh/core/src/network.c.obj
                0x0002b384                network_packet_in
 .text.nonce_type_get
                0x0002b4e8       0x16 examples/light_switch/client/CMakeFiles/light_switch_client_nrf52840_xxAA_s140_6.0.0.dir/__/__/__/mesh/core/src/net_packet.c.obj
 .text.header_transfuscate
                0x0002b4fe       0x54 examples/light_switch/client/CMakeFiles/light_switch_client_nrf52840_xxAA_s140_6.0.0.dir/__/__/__/mesh/core/src/net_packet.c.obj
 *fill*         0x0002b552        0x2 
 .text.net_packet_decrypt
                0x0002b554      0x224 examples/light_switch/client/CMakeFiles/light_switch_client_nrf52840_xxAA_s140_6.0.0.dir/__/__/__/mesh/core/src/net_packet.c.obj
                0x0002b554                net_packet_decrypt
 .text.net_packet_encrypt
                0x0002b778       0x7e examples/light_switch/client/CMakeFiles/light_switch_client_nrf52840_xxAA_s140_6.0.0.dir/__/__/__/mesh/core/src/net_packet.c.obj
                0x0002b778                net_packet_encrypt
 .text.net_packet_header_set
                0x0002b7f6       0xaa examples/light_switch/client/CMakeFiles/light_switch_client_nrf52840_xxAA_s140_6.0.0.dir/__/__/__/mesh/core/src/net_packet.c.obj
                0x0002b7f6                net_packet_header_set
 .text.net_packet_payload_len_get
                0x0002b8a0       0x10 examples/light_switch/client/CMakeFiles/light_switch_client_nrf52840_xxAA_s140_6.0.0.dir/__/__/__/mesh/core/src/net_packet.c.obj
                0x0002b8a0                net_packet_payload_len_get
 .text.net_packet_from_payload
                0x0002b8b0        0x4 examples/light_switch/client/CMakeFiles/light_switch_client_nrf52840_xxAA_s140_6.0.0.dir/__/__/__/mesh/core/src/net_packet.c.obj
                0x0002b8b0                net_packet_from_payload
 .text.net_packet_obfuscation_start_get
                0x0002b8b4        0x4 examples/light_switch/client/CMakeFiles/light_switch_client_nrf52840_xxAA_s140_6.0.0.dir/__/__/__/mesh/core/src/net_packet.c.obj
                0x0002b8b4                net_packet_obfuscation_start_get
 .text.stage_get_available
                0x0002b8b8       0x24 examples/light_switch/client/CMakeFiles/light_switch_client_nrf52840_xxAA_s140_6.0.0.dir/__/__/__/mesh/core/src/msqueue.c.obj
 .text.msq_get  0x0002b8dc       0x38 examples/light_switch/client/CMakeFiles/light_switch_client_nrf52840_xxAA_s140_6.0.0.dir/__/__/__/mesh/core/src/msqueue.c.obj
                0x0002b8dc                msq_get
 .text.msq_move
                0x0002b914       0x2e examples/light_switch/client/CMakeFiles/light_switch_client_nrf52840_xxAA_s140_6.0.0.dir/__/__/__/mesh/core/src/msqueue.c.obj
                0x0002b914                msq_move
 .text.msq_reset
                0x0002b942       0x20 examples/light_switch/client/CMakeFiles/light_switch_client_nrf52840_xxAA_s140_6.0.0.dir/__/__/__/mesh/core/src/msqueue.c.obj
                0x0002b942                msq_reset
 .text.msq_init
                0x0002b962       0x4a examples/light_switch/client/CMakeFiles/light_switch_client_nrf52840_xxAA_s140_6.0.0.dir/__/__/__/mesh/core/src/msqueue.c.obj
                0x0002b962                msq_init
 .text.msq_available
                0x0002b9ac       0x26 examples/light_switch/client/CMakeFiles/light_switch_client_nrf52840_xxAA_s140_6.0.0.dir/__/__/__/mesh/core/src/msqueue.c.obj
                0x0002b9ac                msq_available
 .text.nrf_mesh_keygen_aid
                0x0002b9d2       0x12 examples/light_switch/client/CMakeFiles/light_switch_client_nrf52840_xxAA_s140_6.0.0.dir/__/__/__/mesh/core/src/nrf_mesh_keygen.c.obj
                0x0002b9d2                nrf_mesh_keygen_aid
 .text.nrf_mesh_keygen_network_secmat
                0x0002b9e4       0x20 examples/light_switch/client/CMakeFiles/light_switch_client_nrf52840_xxAA_s140_6.0.0.dir/__/__/__/mesh/core/src/nrf_mesh_keygen.c.obj
                0x0002b9e4                nrf_mesh_keygen_network_secmat
 .text.nrf_mesh_keygen_beacon_secmat
                0x0002ba04       0x50 examples/light_switch/client/CMakeFiles/light_switch_client_nrf52840_xxAA_s140_6.0.0.dir/__/__/__/mesh/core/src/nrf_mesh_keygen.c.obj
                0x0002ba04                nrf_mesh_keygen_beacon_secmat
 .text.nrf_mesh_keygen_virtual_address
                0x0002ba54       0x50 examples/light_switch/client/CMakeFiles/light_switch_client_nrf52840_xxAA_s140_6.0.0.dir/__/__/__/mesh/core/src/nrf_mesh_keygen.c.obj
                0x0002ba54                nrf_mesh_keygen_virtual_address
 .text.list_insert
                0x0002baa4       0x1c examples/light_switch/client/CMakeFiles/light_switch_client_nrf52840_xxAA_s140_6.0.0.dir/__/__/__/mesh/core/src/list.c.obj
 .text.list_add
                0x0002bac0       0x42 examples/light_switch/client/CMakeFiles/light_switch_client_nrf52840_xxAA_s140_6.0.0.dir/__/__/__/mesh/core/src/list.c.obj
                0x0002bac0                list_add
 .text.list_remove
                0x0002bb02       0x3a examples/light_switch/client/CMakeFiles/light_switch_client_nrf52840_xxAA_s140_6.0.0.dir/__/__/__/mesh/core/src/list.c.obj
                0x0002bb02                list_remove
 .text.list_compare_add
                0x0002bb3c       0x56 examples/light_switch/client/CMakeFiles/light_switch_client_nrf52840_xxAA_s140_6.0.0.dir/__/__/__/mesh/core/src/list.c.obj
                0x0002bb3c                list_compare_add
 *fill*         0x0002bb92        0x2 
 .text.log_callback_rtt
                0x0002bb94       0x2c examples/light_switch/client/CMakeFiles/light_switch_client_nrf52840_xxAA_s140_6.0.0.dir/__/__/__/mesh/core/src/log.c.obj
                0x0002bb94                log_callback_rtt
 .text.log_init
                0x0002bbc0       0x1c examples/light_switch/client/CMakeFiles/light_switch_client_nrf52840_xxAA_s140_6.0.0.dir/__/__/__/mesh/core/src/log.c.obj
                0x0002bbc0                log_init
 .text.log_vprintf
                0x0002bbdc       0x18 examples/light_switch/client/CMakeFiles/light_switch_client_nrf52840_xxAA_s140_6.0.0.dir/__/__/__/mesh/core/src/log.c.obj
                0x0002bbdc                log_vprintf
 .text.log_printf
                0x0002bbf4       0x18 examples/light_switch/client/CMakeFiles/light_switch_client_nrf52840_xxAA_s140_6.0.0.dir/__/__/__/mesh/core/src/log.c.obj
                0x0002bbf4                log_printf
 .text.get_area_end
                0x0002bc0c        0xc examples/light_switch/client/CMakeFiles/light_switch_client_nrf52840_xxAA_s140_6.0.0.dir/__/__/__/mesh/core/src/flash_manager.c.obj
 .text.handle_matches_filter
                0x0002bc18       0x26 examples/light_switch/client/CMakeFiles/light_switch_client_nrf52840_xxAA_s140_6.0.0.dir/__/__/__/mesh/core/src/flash_manager.c.obj
 .text.flash_area_is_blank
                0x0002bc3e       0x34 examples/light_switch/client/CMakeFiles/light_switch_client_nrf52840_xxAA_s140_6.0.0.dir/__/__/__/mesh/core/src/flash_manager.c.obj
 *fill*         0x0002bc72        0x2 
 .text.get_packet_buffer
                0x0002bc74       0x20 examples/light_switch/client/CMakeFiles/light_switch_client_nrf52840_xxAA_s140_6.0.0.dir/__/__/__/mesh/core/src/flash_manager.c.obj
 .text.flash    0x0002bc94       0x1c examples/light_switch/client/CMakeFiles/light_switch_client_nrf52840_xxAA_s140_6.0.0.dir/__/__/__/mesh/core/src/flash_manager.c.obj
 .text.free_packet_buffer
                0x0002bcb0       0x3c examples/light_switch/client/CMakeFiles/light_switch_client_nrf52840_xxAA_s140_6.0.0.dir/__/__/__/mesh/core/src/flash_manager.c.obj
 .text.reserve_action_buffer
                0x0002bcec       0x24 examples/light_switch/client/CMakeFiles/light_switch_client_nrf52840_xxAA_s140_6.0.0.dir/__/__/__/mesh/core/src/flash_manager.c.obj
 .text.commit_action_buffer
                0x0002bd10       0x18 examples/light_switch/client/CMakeFiles/light_switch_client_nrf52840_xxAA_s140_6.0.0.dir/__/__/__/mesh/core/src/flash_manager.c.obj
 .text.schedule_processing
                0x0002bd28        0xc examples/light_switch/client/CMakeFiles/light_switch_client_nrf52840_xxAA_s140_6.0.0.dir/__/__/__/mesh/core/src/flash_manager.c.obj
 .text.get_next_entry
                0x0002bd34       0x34 examples/light_switch/client/CMakeFiles/light_switch_client_nrf52840_xxAA_s140_6.0.0.dir/__/__/__/mesh/core/src/flash_manager.c.obj
 .text.get_last_entry.isra.1
                0x0002bd68       0x30 examples/light_switch/client/CMakeFiles/light_switch_client_nrf52840_xxAA_s140_6.0.0.dir/__/__/__/mesh/core/src/flash_manager.c.obj
 .text.process_action_queue
                0x0002bd98      0x3b0 examples/light_switch/client/CMakeFiles/light_switch_client_nrf52840_xxAA_s140_6.0.0.dir/__/__/__/mesh/core/src/flash_manager.c.obj
 .text.flash_op_ended_callback
                0x0002c148       0x24 examples/light_switch/client/CMakeFiles/light_switch_client_nrf52840_xxAA_s140_6.0.0.dir/__/__/__/mesh/core/src/flash_manager.c.obj
 .text.flash_manager_init
                0x0002c16c       0x68 examples/light_switch/client/CMakeFiles/light_switch_client_nrf52840_xxAA_s140_6.0.0.dir/__/__/__/mesh/core/src/flash_manager.c.obj
                0x0002c16c                flash_manager_init
 .text.flash_manager_remove
                0x0002c1d4       0x24 examples/light_switch/client/CMakeFiles/light_switch_client_nrf52840_xxAA_s140_6.0.0.dir/__/__/__/mesh/core/src/flash_manager.c.obj
                0x0002c1d4                flash_manager_remove
 .text.flash_manager_entry_get
                0x0002c1f8       0x3c examples/light_switch/client/CMakeFiles/light_switch_client_nrf52840_xxAA_s140_6.0.0.dir/__/__/__/mesh/core/src/flash_manager.c.obj
                0x0002c1f8                flash_manager_entry_get
 .text.flash_manager_entry_next_get
                0x0002c234       0x60 examples/light_switch/client/CMakeFiles/light_switch_client_nrf52840_xxAA_s140_6.0.0.dir/__/__/__/mesh/core/src/flash_manager.c.obj
                0x0002c234                flash_manager_entry_next_get
 .text.flash_manager_entry_alloc
                0x0002c294       0x5c examples/light_switch/client/CMakeFiles/light_switch_client_nrf52840_xxAA_s140_6.0.0.dir/__/__/__/mesh/core/src/flash_manager.c.obj
                0x0002c294                flash_manager_entry_alloc
 .text.flash_manager_entry_commit
                0x0002c2f0       0x2c examples/light_switch/client/CMakeFiles/light_switch_client_nrf52840_xxAA_s140_6.0.0.dir/__/__/__/mesh/core/src/flash_manager.c.obj
                0x0002c2f0                flash_manager_entry_commit
 .text.flash_manager_entry_invalidate
                0x0002c31c       0x4e examples/light_switch/client/CMakeFiles/light_switch_client_nrf52840_xxAA_s140_6.0.0.dir/__/__/__/mesh/core/src/flash_manager.c.obj
                0x0002c31c                flash_manager_entry_invalidate
 .text.flash_manager_add
                0x0002c36a      0x1f6 examples/light_switch/client/CMakeFiles/light_switch_client_nrf52840_xxAA_s140_6.0.0.dir/__/__/__/mesh/core/src/flash_manager.c.obj
                0x0002c36a                flash_manager_add
 .text.flash_manager_mem_listener_register
                0x0002c560       0x30 examples/light_switch/client/CMakeFiles/light_switch_client_nrf52840_xxAA_s140_6.0.0.dir/__/__/__/mesh/core/src/flash_manager.c.obj
                0x0002c560                flash_manager_mem_listener_register
 .text.flash_manager_is_stable
                0x0002c590       0x24 examples/light_switch/client/CMakeFiles/light_switch_client_nrf52840_xxAA_s140_6.0.0.dir/__/__/__/mesh/core/src/flash_manager.c.obj
                0x0002c590                flash_manager_is_stable
 .text.flash_manager_on_defrag_end
                0x0002c5b4       0x4c examples/light_switch/client/CMakeFiles/light_switch_client_nrf52840_xxAA_s140_6.0.0.dir/__/__/__/mesh/core/src/flash_manager.c.obj
                0x0002c5b4                flash_manager_on_defrag_end
 .text.flash_manager_recovery_page_get
                0x0002c600        0x4 examples/light_switch/client/CMakeFiles/light_switch_client_nrf52840_xxAA_s140_6.0.0.dir/__/__/__/mesh/core/src/flash_manager.c.obj
                0x0002c600                flash_manager_recovery_page_get
 .text.flash_manager_action_queue_empty_cb_set
                0x0002c604       0x1c examples/light_switch/client/CMakeFiles/light_switch_client_nrf52840_xxAA_s140_6.0.0.dir/__/__/__/mesh/core/src/flash_manager.c.obj
                0x0002c604                flash_manager_action_queue_empty_cb_set
 .text.utils_xor
                0x0002c620       0x14 examples/light_switch/client/CMakeFiles/light_switch_client_nrf52840_xxAA_s140_6.0.0.dir/__/__/__/mesh/core/src/ccm_soft.c.obj
 .text.sd_ecb_block_encrypt
                0x0002c634        0x4 examples/light_switch/client/CMakeFiles/light_switch_client_nrf52840_xxAA_s140_6.0.0.dir/__/__/__/mesh/core/src/ccm_soft.c.obj
 .text.ccm_soft_crypt
                0x0002c638       0x4c examples/light_switch/client/CMakeFiles/light_switch_client_nrf52840_xxAA_s140_6.0.0.dir/__/__/__/mesh/core/src/ccm_soft.c.obj
 .text.ccm_soft_authenticate_blocks
                0x0002c684       0x6c examples/light_switch/client/CMakeFiles/light_switch_client_nrf52840_xxAA_s140_6.0.0.dir/__/__/__/mesh/core/src/ccm_soft.c.obj
 .text.ccm_soft_authenticate
                0x0002c6f0       0x94 examples/light_switch/client/CMakeFiles/light_switch_client_nrf52840_xxAA_s140_6.0.0.dir/__/__/__/mesh/core/src/ccm_soft.c.obj
 .text.ccm_soft_encrypt
                0x0002c784       0x54 examples/light_switch/client/CMakeFiles/light_switch_client_nrf52840_xxAA_s140_6.0.0.dir/__/__/__/mesh/core/src/ccm_soft.c.obj
                0x0002c784                ccm_soft_encrypt
 .text.ccm_soft_decrypt
                0x0002c7d8       0x98 examples/light_switch/client/CMakeFiles/light_switch_client_nrf52840_xxAA_s140_6.0.0.dir/__/__/__/mesh/core/src/ccm_soft.c.obj
                0x0002c7d8                ccm_soft_decrypt
 .text.replay_cache_add
                0x0002c870       0x58 examples/light_switch/client/CMakeFiles/light_switch_client_nrf52840_xxAA_s140_6.0.0.dir/__/__/__/mesh/core/src/replay_cache.c.obj
                0x0002c870                replay_cache_add
 .text.replay_cache_has_elem
                0x0002c8c8       0x40 examples/light_switch/client/CMakeFiles/light_switch_client_nrf52840_xxAA_s140_6.0.0.dir/__/__/__/mesh/core/src/replay_cache.c.obj
                0x0002c8c8                replay_cache_has_elem
 .text.replay_cache_clear
                0x0002c908       0x20 examples/light_switch/client/CMakeFiles/light_switch_client_nrf52840_xxAA_s140_6.0.0.dir/__/__/__/mesh/core/src/replay_cache.c.obj
                0x0002c908                replay_cache_clear
 .text.replay_cache_init
                0x0002c928        0x4 examples/light_switch/client/CMakeFiles/light_switch_client_nrf52840_xxAA_s140_6.0.0.dir/__/__/__/mesh/core/src/replay_cache.c.obj
                0x0002c928                replay_cache_init
 .text.beacon_create
                0x0002c92c       0x46 examples/light_switch/client/CMakeFiles/light_switch_client_nrf52840_xxAA_s140_6.0.0.dir/__/__/__/mesh/core/src/beacon.c.obj
                0x0002c92c                beacon_create
 *fill*         0x0002c972        0x2 
 .text.beacon_packet_in
                0x0002c974      0x154 examples/light_switch/client/CMakeFiles/light_switch_client_nrf52840_xxAA_s140_6.0.0.dir/__/__/__/mesh/core/src/beacon.c.obj
                0x0002c974                beacon_packet_in
 .text.entry_get
                0x0002cac8       0x78 examples/light_switch/client/CMakeFiles/light_switch_client_nrf52840_xxAA_s140_6.0.0.dir/__/__/__/mesh/core/src/flash_manager_internal.c.obj
                0x0002cac8                entry_get
 .text.core_tx_complete_cb_set
                0x0002cb40        0xc examples/light_switch/client/CMakeFiles/light_switch_client_nrf52840_xxAA_s140_6.0.0.dir/__/__/__/mesh/core/src/core_tx.c.obj
                0x0002cb40                core_tx_complete_cb_set
 .text.core_tx_packet_alloc
                0x0002cb4c       0x98 examples/light_switch/client/CMakeFiles/light_switch_client_nrf52840_xxAA_s140_6.0.0.dir/__/__/__/mesh/core/src/core_tx.c.obj
                0x0002cb4c                core_tx_packet_alloc
 .text.core_tx_packet_send
                0x0002cbe4       0x4c examples/light_switch/client/CMakeFiles/light_switch_client_nrf52840_xxAA_s140_6.0.0.dir/__/__/__/mesh/core/src/core_tx.c.obj
                0x0002cbe4                core_tx_packet_send
 .text.core_tx_packet_discard
                0x0002cc30       0x40 examples/light_switch/client/CMakeFiles/light_switch_client_nrf52840_xxAA_s140_6.0.0.dir/__/__/__/mesh/core/src/core_tx.c.obj
                0x0002cc30                core_tx_packet_discard
 .text.core_tx_complete
                0x0002cc70       0x34 examples/light_switch/client/CMakeFiles/light_switch_client_nrf52840_xxAA_s140_6.0.0.dir/__/__/__/mesh/core/src/core_tx.c.obj
                0x0002cc70                core_tx_complete
 .text.core_tx_bearer_add
                0x0002cca4       0x70 examples/light_switch/client/CMakeFiles/light_switch_client_nrf52840_xxAA_s140_6.0.0.dir/__/__/__/mesh/core/src/core_tx.c.obj
                0x0002cca4                core_tx_bearer_add
 .text.is_publication_running
                0x0002cd14       0x14 examples/light_switch/client/CMakeFiles/light_switch_client_nrf52840_xxAA_s140_6.0.0.dir/__/__/__/mesh/core/src/heartbeat.c.obj
 .text.heartbeat_publication_count_decrement
                0x0002cd28       0x1c examples/light_switch/client/CMakeFiles/light_switch_client_nrf52840_xxAA_s140_6.0.0.dir/__/__/__/mesh/core/src/heartbeat.c.obj
 .text.hb_pub_getter
                0x0002cd44       0x2c examples/light_switch/client/CMakeFiles/light_switch_client_nrf52840_xxAA_s140_6.0.0.dir/__/__/__/mesh/core/src/heartbeat.c.obj
 .text.hb_pub_setter
                0x0002cd70       0x30 examples/light_switch/client/CMakeFiles/light_switch_client_nrf52840_xxAA_s140_6.0.0.dir/__/__/__/mesh/core/src/heartbeat.c.obj
 .text.heartbeat_subscription_timer_cb
                0x0002cda0       0x1c examples/light_switch/client/CMakeFiles/light_switch_client_nrf52840_xxAA_s140_6.0.0.dir/__/__/__/mesh/core/src/heartbeat.c.obj
 .text.heartbeat_opcode_handle
                0x0002cdbc       0x88 examples/light_switch/client/CMakeFiles/light_switch_client_nrf52840_xxAA_s140_6.0.0.dir/__/__/__/mesh/core/src/heartbeat.c.obj
 .text.heartbeat_send
                0x0002ce44       0x94 examples/light_switch/client/CMakeFiles/light_switch_client_nrf52840_xxAA_s140_6.0.0.dir/__/__/__/mesh/core/src/heartbeat.c.obj
 .text.heartbeat_core_evt_cb
                0x0002ced8       0x6c examples/light_switch/client/CMakeFiles/light_switch_client_nrf52840_xxAA_s140_6.0.0.dir/__/__/__/mesh/core/src/heartbeat.c.obj
 .text.heartbeat_publication_timer_cb
                0x0002cf44       0x94 examples/light_switch/client/CMakeFiles/light_switch_client_nrf52840_xxAA_s140_6.0.0.dir/__/__/__/mesh/core/src/heartbeat.c.obj
 .text.heartbeat_relay_listener_cb
                0x0002cfd8       0x4c examples/light_switch/client/CMakeFiles/light_switch_client_nrf52840_xxAA_s140_6.0.0.dir/__/__/__/mesh/core/src/heartbeat.c.obj
 .text.heartbeat_init
                0x0002d024       0x78 examples/light_switch/client/CMakeFiles/light_switch_client_nrf52840_xxAA_s140_6.0.0.dir/__/__/__/mesh/core/src/heartbeat.c.obj
                0x0002d024                heartbeat_init
 .text.heartbeat_subscription_set
                0x0002d09c       0xa4 examples/light_switch/client/CMakeFiles/light_switch_client_nrf52840_xxAA_s140_6.0.0.dir/__/__/__/mesh/core/src/heartbeat.c.obj
                0x0002d09c                heartbeat_subscription_set
 .text.heartbeat_subscription_get
                0x0002d140        0x8 examples/light_switch/client/CMakeFiles/light_switch_client_nrf52840_xxAA_s140_6.0.0.dir/__/__/__/mesh/core/src/heartbeat.c.obj
                0x0002d140                heartbeat_subscription_get
 .text.heartbeat_publication_get
                0x0002d148        0x8 examples/light_switch/client/CMakeFiles/light_switch_client_nrf52840_xxAA_s140_6.0.0.dir/__/__/__/mesh/core/src/heartbeat.c.obj
                0x0002d148                heartbeat_publication_get
 .text.heartbeat_publication_state_updated
                0x0002d150       0x8c examples/light_switch/client/CMakeFiles/light_switch_client_nrf52840_xxAA_s140_6.0.0.dir/__/__/__/mesh/core/src/heartbeat.c.obj
                0x0002d150                heartbeat_publication_state_updated
 .text.heartbeat_public_info_getter_register
                0x0002d1dc       0x14 examples/light_switch/client/CMakeFiles/light_switch_client_nrf52840_xxAA_s140_6.0.0.dir/__/__/__/mesh/core/src/heartbeat.c.obj
                0x0002d1dc                heartbeat_public_info_getter_register
 .text.beacon_getter
                0x0002d1f0       0x24 examples/light_switch/client/CMakeFiles/light_switch_client_nrf52840_xxAA_s140_6.0.0.dir/__/__/__/mesh/core/src/net_beacon.c.obj
 .text.beacon_setter
                0x0002d214       0x4c examples/light_switch/client/CMakeFiles/light_switch_client_nrf52840_xxAA_s140_6.0.0.dir/__/__/__/mesh/core/src/net_beacon.c.obj
 .text.make_network_beacon_packet
                0x0002d260       0x50 examples/light_switch/client/CMakeFiles/light_switch_client_nrf52840_xxAA_s140_6.0.0.dir/__/__/__/mesh/core/src/net_beacon.c.obj
 .text.beacon_tx
                0x0002d2b0      0x134 examples/light_switch/client/CMakeFiles/light_switch_client_nrf52840_xxAA_s140_6.0.0.dir/__/__/__/mesh/core/src/net_beacon.c.obj
 .text.tx_complete_cb
                0x0002d3e4        0xe examples/light_switch/client/CMakeFiles/light_switch_client_nrf52840_xxAA_s140_6.0.0.dir/__/__/__/mesh/core/src/net_beacon.c.obj
 .text.beacon_tx_timeout
                0x0002d3f2        0x4 examples/light_switch/client/CMakeFiles/light_switch_client_nrf52840_xxAA_s140_6.0.0.dir/__/__/__/mesh/core/src/net_beacon.c.obj
 .text.is_valid_beacon_pkt.part.0
                0x0002d3f6       0x30 examples/light_switch/client/CMakeFiles/light_switch_client_nrf52840_xxAA_s140_6.0.0.dir/__/__/__/mesh/core/src/net_beacon.c.obj
 *fill*         0x0002d426        0x2 
 .text.net_beacon_init
                0x0002d428       0x7c examples/light_switch/client/CMakeFiles/light_switch_client_nrf52840_xxAA_s140_6.0.0.dir/__/__/__/mesh/core/src/net_beacon.c.obj
                0x0002d428                net_beacon_init
 .text.net_beacon_enable
                0x0002d4a4       0x28 examples/light_switch/client/CMakeFiles/light_switch_client_nrf52840_xxAA_s140_6.0.0.dir/__/__/__/mesh/core/src/net_beacon.c.obj
                0x0002d4a4                net_beacon_enable
 .text.net_beacon_state_set
                0x0002d4cc       0x2c examples/light_switch/client/CMakeFiles/light_switch_client_nrf52840_xxAA_s140_6.0.0.dir/__/__/__/mesh/core/src/net_beacon.c.obj
                0x0002d4cc                net_beacon_state_set
 .text.net_beacon_state_get
                0x0002d4f8       0x2c examples/light_switch/client/CMakeFiles/light_switch_client_nrf52840_xxAA_s140_6.0.0.dir/__/__/__/mesh/core/src/net_beacon.c.obj
                0x0002d4f8                net_beacon_state_get
 .text.net_beacon_packet_in
                0x0002d524       0xf2 examples/light_switch/client/CMakeFiles/light_switch_client_nrf52840_xxAA_s140_6.0.0.dir/__/__/__/mesh/core/src/net_beacon.c.obj
                0x0002d524                net_beacon_packet_in
 *fill*         0x0002d616        0x2 
 .text.listeners_notify
                0x0002d618       0x4c examples/light_switch/client/CMakeFiles/light_switch_client_nrf52840_xxAA_s140_6.0.0.dir/__/__/__/mesh/core/src/mesh_config.c.obj
 .text.entry_flags_get.isra.0
                0x0002d664       0x1c examples/light_switch/client/CMakeFiles/light_switch_client_nrf52840_xxAA_s140_6.0.0.dir/__/__/__/mesh/core/src/mesh_config.c.obj
 .text.entry_params_find
                0x0002d680       0x38 examples/light_switch/client/CMakeFiles/light_switch_client_nrf52840_xxAA_s140_6.0.0.dir/__/__/__/mesh/core/src/mesh_config.c.obj
 .text.restore_callback
                0x0002d6b8       0x66 examples/light_switch/client/CMakeFiles/light_switch_client_nrf52840_xxAA_s140_6.0.0.dir/__/__/__/mesh/core/src/mesh_config.c.obj
 *fill*         0x0002d71e        0x2 
 .text.dirty_entries_process
                0x0002d720       0xc8 examples/light_switch/client/CMakeFiles/light_switch_client_nrf52840_xxAA_s140_6.0.0.dir/__/__/__/mesh/core/src/mesh_config.c.obj
 .text.mesh_config_init
                0x0002d7e8       0x88 examples/light_switch/client/CMakeFiles/light_switch_client_nrf52840_xxAA_s140_6.0.0.dir/__/__/__/mesh/core/src/mesh_config.c.obj
                0x0002d7e8                mesh_config_init
 .text.mesh_config_load
                0x0002d870        0xc examples/light_switch/client/CMakeFiles/light_switch_client_nrf52840_xxAA_s140_6.0.0.dir/__/__/__/mesh/core/src/mesh_config.c.obj
                0x0002d870                mesh_config_load
 .text.mesh_config_is_busy
                0x0002d87c       0x34 examples/light_switch/client/CMakeFiles/light_switch_client_nrf52840_xxAA_s140_6.0.0.dir/__/__/__/mesh/core/src/mesh_config.c.obj
                0x0002d87c                mesh_config_is_busy
 .text.backend_evt_handler
                0x0002d8b0       0x80 examples/light_switch/client/CMakeFiles/light_switch_client_nrf52840_xxAA_s140_6.0.0.dir/__/__/__/mesh/core/src/mesh_config.c.obj
 .text.mesh_config_entry_set
                0x0002d930       0x88 examples/light_switch/client/CMakeFiles/light_switch_client_nrf52840_xxAA_s140_6.0.0.dir/__/__/__/mesh/core/src/mesh_config.c.obj
                0x0002d930                mesh_config_entry_set
 .text.mesh_config_entry_get
                0x0002d9b8       0x48 examples/light_switch/client/CMakeFiles/light_switch_client_nrf52840_xxAA_s140_6.0.0.dir/__/__/__/mesh/core/src/mesh_config.c.obj
                0x0002d9b8                mesh_config_entry_get
 .text.dummy_event
                0x0002da00        0x2 examples/light_switch/client/CMakeFiles/light_switch_client_nrf52840_xxAA_s140_6.0.0.dir/__/__/__/mesh/core/src/mesh_config_backend.c.obj
 *fill*         0x0002da02        0x2 
 .text.file_get
                0x0002da04       0x34 examples/light_switch/client/CMakeFiles/light_switch_client_nrf52840_xxAA_s140_6.0.0.dir/__/__/__/mesh/core/src/mesh_config_backend.c.obj
 .text.mesh_config_backend_init
                0x0002da38      0x124 examples/light_switch/client/CMakeFiles/light_switch_client_nrf52840_xxAA_s140_6.0.0.dir/__/__/__/mesh/core/src/mesh_config_backend.c.obj
                0x0002da38                mesh_config_backend_init
 .text.mesh_config_backend_store
                0x0002db5c       0x4e examples/light_switch/client/CMakeFiles/light_switch_client_nrf52840_xxAA_s140_6.0.0.dir/__/__/__/mesh/core/src/mesh_config_backend.c.obj
                0x0002db5c                mesh_config_backend_store
 .text.mesh_config_backend_erase
                0x0002dbaa       0x34 examples/light_switch/client/CMakeFiles/light_switch_client_nrf52840_xxAA_s140_6.0.0.dir/__/__/__/mesh/core/src/mesh_config_backend.c.obj
                0x0002dbaa                mesh_config_backend_erase
 *fill*         0x0002dbde        0x2 
 .text.mesh_config_backend_read_all
                0x0002dbe0       0x80 examples/light_switch/client/CMakeFiles/light_switch_client_nrf52840_xxAA_s140_6.0.0.dir/__/__/__/mesh/core/src/mesh_config_backend.c.obj
                0x0002dbe0                mesh_config_backend_read_all
 .text.write_complete_cb
                0x0002dc60       0x30 examples/light_switch/client/CMakeFiles/light_switch_client_nrf52840_xxAA_s140_6.0.0.dir/__/__/__/mesh/core/src/mesh_config_flashman_glue.c.obj
 .text.invalidate_complete_cb
                0x0002dc90       0x2c examples/light_switch/client/CMakeFiles/light_switch_client_nrf52840_xxAA_s140_6.0.0.dir/__/__/__/mesh/core/src/mesh_config_flashman_glue.c.obj
 .text.remove_complete_cb
                0x0002dcbc        0x2 examples/light_switch/client/CMakeFiles/light_switch_client_nrf52840_xxAA_s140_6.0.0.dir/__/__/__/mesh/core/src/mesh_config_flashman_glue.c.obj
 .text.flash_stable_cb
                0x0002dcbe       0x20 examples/light_switch/client/CMakeFiles/light_switch_client_nrf52840_xxAA_s140_6.0.0.dir/__/__/__/mesh/core/src/mesh_config_flashman_glue.c.obj
 *fill*         0x0002dcde        0x2 
 .text.mesh_config_backend_glue_init
                0x0002dce0       0x28 examples/light_switch/client/CMakeFiles/light_switch_client_nrf52840_xxAA_s140_6.0.0.dir/__/__/__/mesh/core/src/mesh_config_flashman_glue.c.obj
                0x0002dce0                mesh_config_backend_glue_init
 .text.mesh_config_backend_file_create
                0x0002dd08       0x58 examples/light_switch/client/CMakeFiles/light_switch_client_nrf52840_xxAA_s140_6.0.0.dir/__/__/__/mesh/core/src/mesh_config_flashman_glue.c.obj
                0x0002dd08                mesh_config_backend_file_create
 .text.mesh_config_backend_record_write
                0x0002dd60       0x2c examples/light_switch/client/CMakeFiles/light_switch_client_nrf52840_xxAA_s140_6.0.0.dir/__/__/__/mesh/core/src/mesh_config_flashman_glue.c.obj
                0x0002dd60                mesh_config_backend_record_write
 .text.mesh_config_backend_record_erase
                0x0002dd8c       0x22 examples/light_switch/client/CMakeFiles/light_switch_client_nrf52840_xxAA_s140_6.0.0.dir/__/__/__/mesh/core/src/mesh_config_flashman_glue.c.obj
                0x0002dd8c                mesh_config_backend_record_erase
 .text.mesh_config_backend_record_iterate
                0x0002ddae       0x38 examples/light_switch/client/CMakeFiles/light_switch_client_nrf52840_xxAA_s140_6.0.0.dir/__/__/__/mesh/core/src/mesh_config_flashman_glue.c.obj
                0x0002ddae                mesh_config_backend_record_iterate
 .text.mesh_config_record_size_calculate
                0x0002dde6        0xa examples/light_switch/client/CMakeFiles/light_switch_client_nrf52840_xxAA_s140_6.0.0.dir/__/__/__/mesh/core/src/mesh_config_flashman_glue.c.obj
                0x0002dde6                mesh_config_record_size_calculate
 .text.mesh_config_backend_file_power_down_time_get
                0x0002ddf0       0x24 examples/light_switch/client/CMakeFiles/light_switch_client_nrf52840_xxAA_s140_6.0.0.dir/__/__/__/mesh/core/src/mesh_config_flashman_glue.c.obj
                0x0002ddf0                mesh_config_backend_file_power_down_time_get
 .text.core_tx_set
                0x0002de14       0xb0 examples/light_switch/client/CMakeFiles/light_switch_client_nrf52840_xxAA_s140_6.0.0.dir/__/__/__/mesh/core/src/core_tx_adv.c.obj
 .text.packet_discard
                0x0002dec4       0x40 examples/light_switch/client/CMakeFiles/light_switch_client_nrf52840_xxAA_s140_6.0.0.dir/__/__/__/mesh/core/src/core_tx_adv.c.obj
 .text.packet_send
                0x0002df04       0x58 examples/light_switch/client/CMakeFiles/light_switch_client_nrf52840_xxAA_s140_6.0.0.dir/__/__/__/mesh/core/src/core_tx_adv.c.obj
 .text.packet_alloc
                0x0002df5c       0x58 examples/light_switch/client/CMakeFiles/light_switch_client_nrf52840_xxAA_s140_6.0.0.dir/__/__/__/mesh/core/src/core_tx_adv.c.obj
 .text.adv_tx_complete_callback
                0x0002dfb4       0x20 examples/light_switch/client/CMakeFiles/light_switch_client_nrf52840_xxAA_s140_6.0.0.dir/__/__/__/mesh/core/src/core_tx_adv.c.obj
 .text.core_tx_get
                0x0002dfd4       0x8c examples/light_switch/client/CMakeFiles/light_switch_client_nrf52840_xxAA_s140_6.0.0.dir/__/__/__/mesh/core/src/core_tx_adv.c.obj
 .text.mesh_opt_core_adv_set
                0x0002e060       0x24 examples/light_switch/client/CMakeFiles/light_switch_client_nrf52840_xxAA_s140_6.0.0.dir/__/__/__/mesh/core/src/core_tx_adv.c.obj
                0x0002e060                mesh_opt_core_adv_set
 .text.mesh_opt_core_adv_get
                0x0002e084       0x24 examples/light_switch/client/CMakeFiles/light_switch_client_nrf52840_xxAA_s140_6.0.0.dir/__/__/__/mesh/core/src/core_tx_adv.c.obj
                0x0002e084                mesh_opt_core_adv_get
 .text.core_tx_adv_init
                0x0002e0a8       0x68 examples/light_switch/client/CMakeFiles/light_switch_client_nrf52840_xxAA_s140_6.0.0.dir/__/__/__/mesh/core/src/core_tx_adv.c.obj
                0x0002e0a8                core_tx_adv_init
 .text.core_tx_adv_is_enabled
                0x0002e110       0x20 examples/light_switch/client/CMakeFiles/light_switch_client_nrf52840_xxAA_s140_6.0.0.dir/__/__/__/mesh/core/src/core_tx_adv.c.obj
                0x0002e110                core_tx_adv_is_enabled
 .text.ad_listener_subscribe
                0x0002e130       0x5c examples/light_switch/client/CMakeFiles/light_switch_client_nrf52840_xxAA_s140_6.0.0.dir/__/__/__/mesh/bearer/src/ad_listener.c.obj
                0x0002e130                ad_listener_subscribe
 .text.ad_listener_process
                0x0002e18c       0x64 examples/light_switch/client/CMakeFiles/light_switch_client_nrf52840_xxAA_s140_6.0.0.dir/__/__/__/mesh/bearer/src/ad_listener.c.obj
                0x0002e18c                ad_listener_process
 .text.adtype_filter_handle
                0x0002e1f0       0x64 examples/light_switch/client/CMakeFiles/light_switch_client_nrf52840_xxAA_s140_6.0.0.dir/__/__/__/mesh/bearer/src/ad_type_filter.c.obj
 .text.bearer_adtype_filtering_set
                0x0002e254       0x1c examples/light_switch/client/CMakeFiles/light_switch_client_nrf52840_xxAA_s140_6.0.0.dir/__/__/__/mesh/bearer/src/ad_type_filter.c.obj
                0x0002e254                bearer_adtype_filtering_set
 .text.bearer_adtype_add
                0x0002e270       0x20 examples/light_switch/client/CMakeFiles/light_switch_client_nrf52840_xxAA_s140_6.0.0.dir/__/__/__/mesh/bearer/src/ad_type_filter.c.obj
                0x0002e270                bearer_adtype_add
 .text.bearer_adtype_mode_set
                0x0002e290       0x18 examples/light_switch/client/CMakeFiles/light_switch_client_nrf52840_xxAA_s140_6.0.0.dir/__/__/__/mesh/bearer/src/ad_type_filter.c.obj
                0x0002e290                bearer_adtype_mode_set
 .text.tx_complete_event_callback
                0x0002e2a8       0x28 examples/light_switch/client/CMakeFiles/light_switch_client_nrf52840_xxAA_s140_6.0.0.dir/__/__/__/mesh/bearer/src/advertiser.c.obj
 .text.set_gap_addr_type
                0x0002e2d0       0x26 examples/light_switch/client/CMakeFiles/light_switch_client_nrf52840_xxAA_s140_6.0.0.dir/__/__/__/mesh/bearer/src/advertiser.c.obj
 .text.broadcast_complete_cb
                0x0002e2f6       0x46 examples/light_switch/client/CMakeFiles/light_switch_client_nrf52840_xxAA_s140_6.0.0.dir/__/__/__/mesh/bearer/src/advertiser.c.obj
 .text.schedule_first_time
                0x0002e33c       0x28 examples/light_switch/client/CMakeFiles/light_switch_client_nrf52840_xxAA_s140_6.0.0.dir/__/__/__/mesh/bearer/src/advertiser.c.obj
 .text.timeout_event
                0x0002e364      0x10c examples/light_switch/client/CMakeFiles/light_switch_client_nrf52840_xxAA_s140_6.0.0.dir/__/__/__/mesh/bearer/src/advertiser.c.obj
 .text.advertiser_init
                0x0002e470        0xc examples/light_switch/client/CMakeFiles/light_switch_client_nrf52840_xxAA_s140_6.0.0.dir/__/__/__/mesh/bearer/src/advertiser.c.obj
                0x0002e470                advertiser_init
 .text.advertiser_enable
                0x0002e47c       0x2a examples/light_switch/client/CMakeFiles/light_switch_client_nrf52840_xxAA_s140_6.0.0.dir/__/__/__/mesh/bearer/src/advertiser.c.obj
                0x0002e47c                advertiser_enable
 .text.advertiser_disable
                0x0002e4a6        0xa examples/light_switch/client/CMakeFiles/light_switch_client_nrf52840_xxAA_s140_6.0.0.dir/__/__/__/mesh/bearer/src/advertiser.c.obj
                0x0002e4a6                advertiser_disable
 .text.advertiser_packet_alloc
                0x0002e4b0       0x76 examples/light_switch/client/CMakeFiles/light_switch_client_nrf52840_xxAA_s140_6.0.0.dir/__/__/__/mesh/bearer/src/advertiser.c.obj
                0x0002e4b0                advertiser_packet_alloc
 .text.advertiser_packet_send
                0x0002e526       0x52 examples/light_switch/client/CMakeFiles/light_switch_client_nrf52840_xxAA_s140_6.0.0.dir/__/__/__/mesh/bearer/src/advertiser.c.obj
                0x0002e526                advertiser_packet_send
 .text.advertiser_packet_discard
                0x0002e578       0x1e examples/light_switch/client/CMakeFiles/light_switch_client_nrf52840_xxAA_s140_6.0.0.dir/__/__/__/mesh/bearer/src/advertiser.c.obj
                0x0002e578                advertiser_packet_discard
 .text.advertiser_address_set
                0x0002e596       0x3c examples/light_switch/client/CMakeFiles/light_switch_client_nrf52840_xxAA_s140_6.0.0.dir/__/__/__/mesh/bearer/src/advertiser.c.obj
                0x0002e596                advertiser_address_set
 .text.advertiser_interval_set
                0x0002e5d2       0x40 examples/light_switch/client/CMakeFiles/light_switch_client_nrf52840_xxAA_s140_6.0.0.dir/__/__/__/mesh/bearer/src/advertiser.c.obj
                0x0002e5d2                advertiser_interval_set
 .text.advertiser_tx_power_set
                0x0002e612       0x14 examples/light_switch/client/CMakeFiles/light_switch_client_nrf52840_xxAA_s140_6.0.0.dir/__/__/__/mesh/bearer/src/advertiser.c.obj
                0x0002e612                advertiser_tx_power_set
 .text.advertiser_flush
                0x0002e626       0x1e examples/light_switch/client/CMakeFiles/light_switch_client_nrf52840_xxAA_s140_6.0.0.dir/__/__/__/mesh/bearer/src/advertiser.c.obj
                0x0002e626                advertiser_flush
 .text.advertiser_address_default_get
                0x0002e644       0x38 examples/light_switch/client/CMakeFiles/light_switch_client_nrf52840_xxAA_s140_6.0.0.dir/__/__/__/mesh/bearer/src/advertiser.c.obj
                0x0002e644                advertiser_address_default_get
 .text.advertiser_instance_init
                0x0002e67c       0xa4 examples/light_switch/client/CMakeFiles/light_switch_client_nrf52840_xxAA_s140_6.0.0.dir/__/__/__/mesh/bearer/src/advertiser.c.obj
                0x0002e67c                advertiser_instance_init
 .text.action_timer_start
                0x0002e720       0x90 examples/light_switch/client/CMakeFiles/light_switch_client_nrf52840_xxAA_s140_6.0.0.dir/__/__/__/mesh/bearer/src/bearer_handler.c.obj
 .text.action_switch
                0x0002e7b0       0xe8 examples/light_switch/client/CMakeFiles/light_switch_client_nrf52840_xxAA_s140_6.0.0.dir/__/__/__/mesh/bearer/src/bearer_handler.c.obj
 .text.end_handle
                0x0002e898       0x44 examples/light_switch/client/CMakeFiles/light_switch_client_nrf52840_xxAA_s140_6.0.0.dir/__/__/__/mesh/bearer/src/bearer_handler.c.obj
 .text.TIMER2_IRQHandler
                0x0002e8dc       0x58 examples/light_switch/client/CMakeFiles/light_switch_client_nrf52840_xxAA_s140_6.0.0.dir/__/__/__/mesh/bearer/src/bearer_handler.c.obj
                0x0002e8dc                TIMER2_IRQHandler
 .text.bearer_handler_init
                0x0002e934       0x44 examples/light_switch/client/CMakeFiles/light_switch_client_nrf52840_xxAA_s140_6.0.0.dir/__/__/__/mesh/bearer/src/bearer_handler.c.obj
                0x0002e934                bearer_handler_init
 .text.bearer_handler_start
                0x0002e978       0x1c examples/light_switch/client/CMakeFiles/light_switch_client_nrf52840_xxAA_s140_6.0.0.dir/__/__/__/mesh/bearer/src/bearer_handler.c.obj
                0x0002e978                bearer_handler_start
 .text.bearer_handler_action_enqueue
                0x0002e994       0x6c examples/light_switch/client/CMakeFiles/light_switch_client_nrf52840_xxAA_s140_6.0.0.dir/__/__/__/mesh/bearer/src/bearer_handler.c.obj
                0x0002e994                bearer_handler_action_enqueue
 .text.bearer_handler_action_end
                0x0002ea00       0x48 examples/light_switch/client/CMakeFiles/light_switch_client_nrf52840_xxAA_s140_6.0.0.dir/__/__/__/mesh/bearer/src/bearer_handler.c.obj
                0x0002ea00                bearer_handler_action_end
 .text.bearer_handler_radio_irq_handler
                0x0002ea48       0x64 examples/light_switch/client/CMakeFiles/light_switch_client_nrf52840_xxAA_s140_6.0.0.dir/__/__/__/mesh/bearer/src/bearer_handler.c.obj
                0x0002ea48                bearer_handler_radio_irq_handler
 .text.bearer_handler_timer_irq_handler
                0x0002eaac       0x24 examples/light_switch/client/CMakeFiles/light_switch_client_nrf52840_xxAA_s140_6.0.0.dir/__/__/__/mesh/bearer/src/bearer_handler.c.obj
                0x0002eaac                bearer_handler_timer_irq_handler
 .text.bearer_handler_on_ts_begin
                0x0002ead0       0x38 examples/light_switch/client/CMakeFiles/light_switch_client_nrf52840_xxAA_s140_6.0.0.dir/__/__/__/mesh/bearer/src/bearer_handler.c.obj
                0x0002ead0                bearer_handler_on_ts_begin
 .text.bearer_handler_on_ts_end
                0x0002eb08       0x70 examples/light_switch/client/CMakeFiles/light_switch_client_nrf52840_xxAA_s140_6.0.0.dir/__/__/__/mesh/bearer/src/bearer_handler.c.obj
                0x0002eb08                bearer_handler_on_ts_end
 .text.broadcast_start
                0x0002eb78       0xac examples/light_switch/client/CMakeFiles/light_switch_client_nrf52840_xxAA_s140_6.0.0.dir/__/__/__/mesh/bearer/src/broadcast.c.obj
 .text.radio_irq_handler
                0x0002ec24       0xa4 examples/light_switch/client/CMakeFiles/light_switch_client_nrf52840_xxAA_s140_6.0.0.dir/__/__/__/mesh/bearer/src/broadcast.c.obj
 .text.broadcast_send
                0x0002ecc8       0x6c examples/light_switch/client/CMakeFiles/light_switch_client_nrf52840_xxAA_s140_6.0.0.dir/__/__/__/mesh/bearer/src/broadcast.c.obj
                0x0002ecc8                broadcast_send
 .text.fen_filter_start
                0x0002ed34       0x28 examples/light_switch/client/CMakeFiles/light_switch_client_nrf52840_xxAA_s140_6.0.0.dir/__/__/__/mesh/bearer/src/filter_engine.c.obj
                0x0002ed34                fen_filter_start
 .text.fen_filter_stop
                0x0002ed5c       0x20 examples/light_switch/client/CMakeFiles/light_switch_client_nrf52840_xxAA_s140_6.0.0.dir/__/__/__/mesh/bearer/src/filter_engine.c.obj
                0x0002ed5c                fen_filter_stop
 .text.fen_filters_apply
                0x0002ed7c       0x34 examples/light_switch/client/CMakeFiles/light_switch_client_nrf52840_xxAA_s140_6.0.0.dir/__/__/__/mesh/bearer/src/filter_engine.c.obj
                0x0002ed7c                fen_filters_apply
 .text.radio_config_reset
                0x0002edb0       0x40 examples/light_switch/client/CMakeFiles/light_switch_client_nrf52840_xxAA_s140_6.0.0.dir/__/__/__/mesh/bearer/src/radio_config.c.obj
                0x0002edb0                radio_config_reset
 .text.radio_config_channel_set
                0x0002edf0       0x28 examples/light_switch/client/CMakeFiles/light_switch_client_nrf52840_xxAA_s140_6.0.0.dir/__/__/__/mesh/bearer/src/radio_config.c.obj
                0x0002edf0                radio_config_channel_set
 .text.radio_config_config
                0x0002ee18       0x90 examples/light_switch/client/CMakeFiles/light_switch_client_nrf52840_xxAA_s140_6.0.0.dir/__/__/__/mesh/bearer/src/radio_config.c.obj
                0x0002ee18                radio_config_config
 .text.radio_config_access_addr_set
                0x0002eea8       0x50 examples/light_switch/client/CMakeFiles/light_switch_client_nrf52840_xxAA_s140_6.0.0.dir/__/__/__/mesh/bearer/src/radio_config.c.obj
                0x0002eea8                radio_config_access_addr_set
 .text.radio_trigger
                0x0002eef8       0x24 examples/light_switch/client/CMakeFiles/light_switch_client_nrf52840_xxAA_s140_6.0.0.dir/__/__/__/mesh/bearer/src/scanner.c.obj
 .text.scan_window_end
                0x0002ef1c       0x10 examples/light_switch/client/CMakeFiles/light_switch_client_nrf52840_xxAA_s140_6.0.0.dir/__/__/__/mesh/bearer/src/scanner.c.obj
 .text.scan_window_start
                0x0002ef2c       0x24 examples/light_switch/client/CMakeFiles/light_switch_client_nrf52840_xxAA_s140_6.0.0.dir/__/__/__/mesh/bearer/src/scanner.c.obj
 .text.radio_configure
                0x0002ef50       0x78 examples/light_switch/client/CMakeFiles/light_switch_client_nrf52840_xxAA_s140_6.0.0.dir/__/__/__/mesh/bearer/src/scanner.c.obj
 .text.radio_set_packet
                0x0002efc8       0x4c examples/light_switch/client/CMakeFiles/light_switch_client_nrf52840_xxAA_s140_6.0.0.dir/__/__/__/mesh/bearer/src/scanner.c.obj
 .text.radio_start
                0x0002f014       0x78 examples/light_switch/client/CMakeFiles/light_switch_client_nrf52840_xxAA_s140_6.0.0.dir/__/__/__/mesh/bearer/src/scanner.c.obj
 .text.radio_stop
                0x0002f08c       0x38 examples/light_switch/client/CMakeFiles/light_switch_client_nrf52840_xxAA_s140_6.0.0.dir/__/__/__/mesh/bearer/src/scanner.c.obj
 .text.schedule_timers
                0x0002f0c4       0x38 examples/light_switch/client/CMakeFiles/light_switch_client_nrf52840_xxAA_s140_6.0.0.dir/__/__/__/mesh/bearer/src/scanner.c.obj
 .text.scanner_radio_start
                0x0002f0fc       0x2c examples/light_switch/client/CMakeFiles/light_switch_client_nrf52840_xxAA_s140_6.0.0.dir/__/__/__/mesh/bearer/src/scanner.c.obj
                0x0002f0fc                scanner_radio_start
 .text.scanner_radio_stop
                0x0002f128       0x10 examples/light_switch/client/CMakeFiles/light_switch_client_nrf52840_xxAA_s140_6.0.0.dir/__/__/__/mesh/bearer/src/scanner.c.obj
                0x0002f128                scanner_radio_stop
 .text.scanner_radio_irq_handler
                0x0002f138      0x13c examples/light_switch/client/CMakeFiles/light_switch_client_nrf52840_xxAA_s140_6.0.0.dir/__/__/__/mesh/bearer/src/scanner.c.obj
                0x0002f138                scanner_radio_irq_handler
 .text.scanner_timer_irq_handler
                0x0002f274       0x30 examples/light_switch/client/CMakeFiles/light_switch_client_nrf52840_xxAA_s140_6.0.0.dir/__/__/__/mesh/bearer/src/scanner.c.obj
                0x0002f274                scanner_timer_irq_handler
 .text.scanner_enable
                0x0002f2a4       0x24 examples/light_switch/client/CMakeFiles/light_switch_client_nrf52840_xxAA_s140_6.0.0.dir/__/__/__/mesh/bearer/src/scanner.c.obj
                0x0002f2a4                scanner_enable
 .text.scanner_packet_release
                0x0002f2c8       0x2c examples/light_switch/client/CMakeFiles/light_switch_client_nrf52840_xxAA_s140_6.0.0.dir/__/__/__/mesh/bearer/src/scanner.c.obj
                0x0002f2c8                scanner_packet_release
 .text.scanner_rx
                0x0002f2f4       0x30 examples/light_switch/client/CMakeFiles/light_switch_client_nrf52840_xxAA_s140_6.0.0.dir/__/__/__/mesh/bearer/src/scanner.c.obj
                0x0002f2f4                scanner_rx
 .text.scanner_rx_pending
                0x0002f324        0xc examples/light_switch/client/CMakeFiles/light_switch_client_nrf52840_xxAA_s140_6.0.0.dir/__/__/__/mesh/bearer/src/scanner.c.obj
                0x0002f324                scanner_rx_pending
 .text.scanner_config_scan_time_set
                0x0002f330       0x4c examples/light_switch/client/CMakeFiles/light_switch_client_nrf52840_xxAA_s140_6.0.0.dir/__/__/__/mesh/bearer/src/scanner.c.obj
                0x0002f330                scanner_config_scan_time_set
 .text.scanner_config_channels_set
                0x0002f37c       0x50 examples/light_switch/client/CMakeFiles/light_switch_client_nrf52840_xxAA_s140_6.0.0.dir/__/__/__/mesh/bearer/src/scanner.c.obj
                0x0002f37c                scanner_config_channels_set
 .text.scanner_config_access_addresses_set
                0x0002f3cc       0x38 examples/light_switch/client/CMakeFiles/light_switch_client_nrf52840_xxAA_s140_6.0.0.dir/__/__/__/mesh/bearer/src/scanner.c.obj
                0x0002f3cc                scanner_config_access_addresses_set
 .text.scanner_config_reset
                0x0002f404       0x50 examples/light_switch/client/CMakeFiles/light_switch_client_nrf52840_xxAA_s140_6.0.0.dir/__/__/__/mesh/bearer/src/scanner.c.obj
                0x0002f404                scanner_config_reset
 .text.scanner_init
                0x0002f454       0x54 examples/light_switch/client/CMakeFiles/light_switch_client_nrf52840_xxAA_s140_6.0.0.dir/__/__/__/mesh/bearer/src/scanner.c.obj
                0x0002f454                scanner_init
 .text.pin_clear
                0x0002f4a8       0x26 examples/light_switch/client/CMakeFiles/light_switch_client_nrf52840_xxAA_s140_6.0.0.dir/__/__/__/mesh/bearer/src/mesh_pa_lna.c.obj
 *fill*         0x0002f4ce        0x2 
 .text.ppi_setup.isra.0
                0x0002f4d0       0x3c examples/light_switch/client/CMakeFiles/light_switch_client_nrf52840_xxAA_s140_6.0.0.dir/__/__/__/mesh/bearer/src/mesh_pa_lna.c.obj
 .text.mesh_pa_setup_start
                0x0002f50c       0x5c examples/light_switch/client/CMakeFiles/light_switch_client_nrf52840_xxAA_s140_6.0.0.dir/__/__/__/mesh/bearer/src/mesh_pa_lna.c.obj
                0x0002f50c                mesh_pa_setup_start
 .text.mesh_lna_setup_start
                0x0002f568       0x5c examples/light_switch/client/CMakeFiles/light_switch_client_nrf52840_xxAA_s140_6.0.0.dir/__/__/__/mesh/bearer/src/mesh_pa_lna.c.obj
                0x0002f568                mesh_lna_setup_start
 .text.mesh_pa_lna_disable_start
                0x0002f5c4       0x1c examples/light_switch/client/CMakeFiles/light_switch_client_nrf52840_xxAA_s140_6.0.0.dir/__/__/__/mesh/bearer/src/mesh_pa_lna.c.obj
                0x0002f5c4                mesh_pa_lna_disable_start
 .text.mesh_pa_lna_setup_stop
                0x0002f5e0       0x4c examples/light_switch/client/CMakeFiles/light_switch_client_nrf52840_xxAA_s140_6.0.0.dir/__/__/__/mesh/bearer/src/mesh_pa_lna.c.obj
                0x0002f5e0                mesh_pa_lna_setup_stop
 .text.mesh_pa_lna_cleanup
                0x0002f62c       0x48 examples/light_switch/client/CMakeFiles/light_switch_client_nrf52840_xxAA_s140_6.0.0.dir/__/__/__/mesh/bearer/src/mesh_pa_lna.c.obj
                0x0002f62c                mesh_pa_lna_cleanup
 .text.status_handle
                0x0002f674       0x4a examples/light_switch/client/CMakeFiles/light_switch_client_nrf52840_xxAA_s140_6.0.0.dir/__/__/__/models/model_spec/generic_onoff/src/generic_onoff_client.c.obj
 *fill*         0x0002f6be        0x2 
 .text.generic_onoff_client_init
                0x0002f6c0       0x60 examples/light_switch/client/CMakeFiles/light_switch_client_nrf52840_xxAA_s140_6.0.0.dir/__/__/__/models/model_spec/generic_onoff/src/generic_onoff_client.c.obj
                0x0002f6c0                generic_onoff_client_init
 .text.generic_onoff_client_set
                0x0002f720       0xa4 examples/light_switch/client/CMakeFiles/light_switch_client_nrf52840_xxAA_s140_6.0.0.dir/__/__/__/models/model_spec/generic_onoff/src/generic_onoff_client.c.obj
                0x0002f720                generic_onoff_client_set
 .text.generic_onoff_client_set_unack
                0x0002f7c4       0x9c examples/light_switch/client/CMakeFiles/light_switch_client_nrf52840_xxAA_s140_6.0.0.dir/__/__/__/models/model_spec/generic_onoff/src/generic_onoff_client.c.obj
                0x0002f7c4                generic_onoff_client_set_unack
 .text.model_transition_time_decode
                0x0002f860       0x3c examples/light_switch/client/CMakeFiles/light_switch_client_nrf52840_xxAA_s140_6.0.0.dir/__/__/__/models/model_spec/common/src/model_common.c.obj
                0x0002f860                model_transition_time_decode
 .text.model_transition_time_encode
                0x0002f89c       0x60 examples/light_switch/client/CMakeFiles/light_switch_client_nrf52840_xxAA_s140_6.0.0.dir/__/__/__/models/model_spec/common/src/model_common.c.obj
                0x0002f89c                model_transition_time_encode
 .text.model_delay_encode
                0x0002f8fc       0x10 examples/light_switch/client/CMakeFiles/light_switch_client_nrf52840_xxAA_s140_6.0.0.dir/__/__/__/models/model_spec/common/src/model_common.c.obj
                0x0002f8fc                model_delay_encode
 .text.config_composition_data_get
                0x0002f90c      0x184 examples/light_switch/client/CMakeFiles/light_switch_client_nrf52840_xxAA_s140_6.0.0.dir/__/__/__/models/foundation/config/src/composition_data.c.obj
                0x0002f90c                config_composition_data_get
 .text.app_evt_send
                0x0002fa90       0x10 examples/light_switch/client/CMakeFiles/light_switch_client_nrf52840_xxAA_s140_6.0.0.dir/__/__/__/models/foundation/config/src/config_server.c.obj
 .text.get_element_index
                0x0002faa0       0x2a examples/light_switch/client/CMakeFiles/light_switch_client_nrf52840_xxAA_s140_6.0.0.dir/__/__/__/models/foundation/config/src/config_server.c.obj
 .text.config_server_heartbeat_publication_params_get
                0x0002faca       0x30 examples/light_switch/client/CMakeFiles/light_switch_client_nrf52840_xxAA_s140_6.0.0.dir/__/__/__/models/foundation/config/src/config_server.c.obj
 .text.send_reply
                0x0002fafa       0x34 examples/light_switch/client/CMakeFiles/light_switch_client_nrf52840_xxAA_s140_6.0.0.dir/__/__/__/models/foundation/config/src/config_server.c.obj
 .text.send_network_transmit_status
                0x0002fb2e       0x5a examples/light_switch/client/CMakeFiles/light_switch_client_nrf52840_xxAA_s140_6.0.0.dir/__/__/__/models/foundation/config/src/config_server.c.obj
 .text.handle_config_network_transmit_set
                0x0002fb88       0x74 examples/light_switch/client/CMakeFiles/light_switch_client_nrf52840_xxAA_s140_6.0.0.dir/__/__/__/models/foundation/config/src/config_server.c.obj
 .text.handle_config_network_transmit_get
                0x0002fbfc        0xa examples/light_switch/client/CMakeFiles/light_switch_client_nrf52840_xxAA_s140_6.0.0.dir/__/__/__/models/foundation/config/src/config_server.c.obj
 *fill*         0x0002fc06        0x2 
 .text.handle_node_reset
                0x0002fc08       0x34 examples/light_switch/client/CMakeFiles/light_switch_client_nrf52840_xxAA_s140_6.0.0.dir/__/__/__/models/foundation/config/src/config_server.c.obj
 .text.send_netkey_status
                0x0002fc3c       0x2c examples/light_switch/client/CMakeFiles/light_switch_client_nrf52840_xxAA_s140_6.0.0.dir/__/__/__/models/foundation/config/src/config_server.c.obj
 .text.send_relay_status
                0x0002fc68       0x7e examples/light_switch/client/CMakeFiles/light_switch_client_nrf52840_xxAA_s140_6.0.0.dir/__/__/__/models/foundation/config/src/config_server.c.obj
 .text.handle_config_relay_set
                0x0002fce6       0x9a examples/light_switch/client/CMakeFiles/light_switch_client_nrf52840_xxAA_s140_6.0.0.dir/__/__/__/models/foundation/config/src/config_server.c.obj
 .text.handle_config_relay_get
                0x0002fd80        0xa examples/light_switch/client/CMakeFiles/light_switch_client_nrf52840_xxAA_s140_6.0.0.dir/__/__/__/models/foundation/config/src/config_server.c.obj
 .text.send_subscription_status
                0x0002fd8a       0x42 examples/light_switch/client/CMakeFiles/light_switch_client_nrf52840_xxAA_s140_6.0.0.dir/__/__/__/models/foundation/config/src/config_server.c.obj
 .text.send_appkey_status
                0x0002fdcc       0x3a examples/light_switch/client/CMakeFiles/light_switch_client_nrf52840_xxAA_s140_6.0.0.dir/__/__/__/models/foundation/config/src/config_server.c.obj
 .text.handle_netkey_get
                0x0002fe06       0x50 examples/light_switch/client/CMakeFiles/light_switch_client_nrf52840_xxAA_s140_6.0.0.dir/__/__/__/models/foundation/config/src/config_server.c.obj
 .text.handle_netkey_delete
                0x0002fe56       0xbc examples/light_switch/client/CMakeFiles/light_switch_client_nrf52840_xxAA_s140_6.0.0.dir/__/__/__/models/foundation/config/src/config_server.c.obj
 *fill*         0x0002ff12        0x2 
 .text.handle_netkey_add_update
                0x0002ff14       0x78 examples/light_switch/client/CMakeFiles/light_switch_client_nrf52840_xxAA_s140_6.0.0.dir/__/__/__/models/foundation/config/src/config_server.c.obj
 .text.status_error_sub_send
                0x0002ff8c      0x124 examples/light_switch/client/CMakeFiles/light_switch_client_nrf52840_xxAA_s140_6.0.0.dir/__/__/__/models/foundation/config/src/config_server.c.obj
 .text.delete_all_subscriptions
                0x000300b0       0x66 examples/light_switch/client/CMakeFiles/light_switch_client_nrf52840_xxAA_s140_6.0.0.dir/__/__/__/models/foundation/config/src/config_server.c.obj
 .text.send_publication_status
                0x00030116      0x170 examples/light_switch/client/CMakeFiles/light_switch_client_nrf52840_xxAA_s140_6.0.0.dir/__/__/__/models/foundation/config/src/config_server.c.obj
 .text.handle_config_key_refresh_phase_set
                0x00030286       0xc8 examples/light_switch/client/CMakeFiles/light_switch_client_nrf52840_xxAA_s140_6.0.0.dir/__/__/__/models/foundation/config/src/config_server.c.obj
 .text.handle_config_default_ttl_set
                0x0003034e       0x50 examples/light_switch/client/CMakeFiles/light_switch_client_nrf52840_xxAA_s140_6.0.0.dir/__/__/__/models/foundation/config/src/config_server.c.obj
 .text.send_net_beacon_state
                0x0003039e       0x2c examples/light_switch/client/CMakeFiles/light_switch_client_nrf52840_xxAA_s140_6.0.0.dir/__/__/__/models/foundation/config/src/config_server.c.obj
 .text.handle_config_beacon_get
                0x000303ca        0xa examples/light_switch/client/CMakeFiles/light_switch_client_nrf52840_xxAA_s140_6.0.0.dir/__/__/__/models/foundation/config/src/config_server.c.obj
 .text.handle_heartbeat_publication_set
                0x000303d4      0x136 examples/light_switch/client/CMakeFiles/light_switch_client_nrf52840_xxAA_s140_6.0.0.dir/__/__/__/models/foundation/config/src/config_server.c.obj
 *fill*         0x0003050a        0x2 
 .text.mesh_event_cb
                0x0003050c       0x70 examples/light_switch/client/CMakeFiles/light_switch_client_nrf52840_xxAA_s140_6.0.0.dir/__/__/__/models/foundation/config/src/config_server.c.obj
 .text.handle_node_identity_set
                0x0003057c       0x3e examples/light_switch/client/CMakeFiles/light_switch_client_nrf52840_xxAA_s140_6.0.0.dir/__/__/__/models/foundation/config/src/config_server.c.obj
 .text.handle_node_identity_get
                0x000305ba       0x3c examples/light_switch/client/CMakeFiles/light_switch_client_nrf52840_xxAA_s140_6.0.0.dir/__/__/__/models/foundation/config/src/config_server.c.obj
 .text.handle_config_gatt_proxy_get.part.8
                0x000305f6       0x2a examples/light_switch/client/CMakeFiles/light_switch_client_nrf52840_xxAA_s140_6.0.0.dir/__/__/__/models/foundation/config/src/config_server.c.obj
 .text.handle_config_gatt_proxy_set
                0x00030620       0x14 examples/light_switch/client/CMakeFiles/light_switch_client_nrf52840_xxAA_s140_6.0.0.dir/__/__/__/models/foundation/config/src/config_server.c.obj
 .text.handle_config_gatt_proxy_get
                0x00030634        0xa examples/light_switch/client/CMakeFiles/light_switch_client_nrf52840_xxAA_s140_6.0.0.dir/__/__/__/models/foundation/config/src/config_server.c.obj
 .text.handle_config_friend_get.part.10
                0x0003063e       0x2a examples/light_switch/client/CMakeFiles/light_switch_client_nrf52840_xxAA_s140_6.0.0.dir/__/__/__/models/foundation/config/src/config_server.c.obj
 .text.handle_config_friend_set
                0x00030668       0x14 examples/light_switch/client/CMakeFiles/light_switch_client_nrf52840_xxAA_s140_6.0.0.dir/__/__/__/models/foundation/config/src/config_server.c.obj
 .text.handle_config_friend_get
                0x0003067c        0xa examples/light_switch/client/CMakeFiles/light_switch_client_nrf52840_xxAA_s140_6.0.0.dir/__/__/__/models/foundation/config/src/config_server.c.obj
 .text.status_error_pub_send
                0x00030686       0x9c examples/light_switch/client/CMakeFiles/light_switch_client_nrf52840_xxAA_s140_6.0.0.dir/__/__/__/models/foundation/config/src/config_server.c.obj
 .text.handle_config_key_refresh_phase_get
                0x00030722       0x58 examples/light_switch/client/CMakeFiles/light_switch_client_nrf52840_xxAA_s140_6.0.0.dir/__/__/__/models/foundation/config/src/config_server.c.obj
 .text.handle_config_default_ttl_get
                0x0003077a       0x30 examples/light_switch/client/CMakeFiles/light_switch_client_nrf52840_xxAA_s140_6.0.0.dir/__/__/__/models/foundation/config/src/config_server.c.obj
 .text.handle_config_beacon_set
                0x000307aa       0x42 examples/light_switch/client/CMakeFiles/light_switch_client_nrf52840_xxAA_s140_6.0.0.dir/__/__/__/models/foundation/config/src/config_server.c.obj
 .text.handle_composition_data_get
                0x000307ec       0x50 examples/light_switch/client/CMakeFiles/light_switch_client_nrf52840_xxAA_s140_6.0.0.dir/__/__/__/models/foundation/config/src/config_server.c.obj
 .text.handle_appkey_delete
                0x0003083c       0xc2 examples/light_switch/client/CMakeFiles/light_switch_client_nrf52840_xxAA_s140_6.0.0.dir/__/__/__/models/foundation/config/src/config_server.c.obj
 .text.get_subscription_list.constprop.24
                0x000308fe       0x50 examples/light_switch/client/CMakeFiles/light_switch_client_nrf52840_xxAA_s140_6.0.0.dir/__/__/__/models/foundation/config/src/config_server.c.obj
 .text.handle_appkey_get
                0x0003094e       0xb8 examples/light_switch/client/CMakeFiles/light_switch_client_nrf52840_xxAA_s140_6.0.0.dir/__/__/__/models/foundation/config/src/config_server.c.obj
 .text.heartbeat_subscription_count_encode
                0x00030a06       0x26 examples/light_switch/client/CMakeFiles/light_switch_client_nrf52840_xxAA_s140_6.0.0.dir/__/__/__/models/foundation/config/src/config_server.c.obj
 .text.handle_appkey_add
                0x00030a2c       0xba examples/light_switch/client/CMakeFiles/light_switch_client_nrf52840_xxAA_s140_6.0.0.dir/__/__/__/models/foundation/config/src/config_server.c.obj
 .text.handle_appkey_update
                0x00030ae6       0xbc examples/light_switch/client/CMakeFiles/light_switch_client_nrf52840_xxAA_s140_6.0.0.dir/__/__/__/models/foundation/config/src/config_server.c.obj
 .text.heartbeat_pubsub_period_encode
                0x00030ba2       0x26 examples/light_switch/client/CMakeFiles/light_switch_client_nrf52840_xxAA_s140_6.0.0.dir/__/__/__/models/foundation/config/src/config_server.c.obj
 .text.handle_heartbeat_publication_get
                0x00030bc8       0x7e examples/light_switch/client/CMakeFiles/light_switch_client_nrf52840_xxAA_s140_6.0.0.dir/__/__/__/models/foundation/config/src/config_server.c.obj
 .text.handle_heartbeat_subscription_get
                0x00030c46       0x84 examples/light_switch/client/CMakeFiles/light_switch_client_nrf52840_xxAA_s140_6.0.0.dir/__/__/__/models/foundation/config/src/config_server.c.obj
 .text.handle_heartbeat_subscription_set
                0x00030cca       0xa8 examples/light_switch/client/CMakeFiles/light_switch_client_nrf52840_xxAA_s140_6.0.0.dir/__/__/__/models/foundation/config/src/config_server.c.obj
 .text.handle_config_model_publication_get
                0x00030d72       0x94 examples/light_switch/client/CMakeFiles/light_switch_client_nrf52840_xxAA_s140_6.0.0.dir/__/__/__/models/foundation/config/src/config_server.c.obj
 .text.handle_config_model_subscription_delete_all
                0x00030e06       0xca examples/light_switch/client/CMakeFiles/light_switch_client_nrf52840_xxAA_s140_6.0.0.dir/__/__/__/models/foundation/config/src/config_server.c.obj
 .text.handle_config_sig_model_subscription_get
                0x00030ed0       0xbc examples/light_switch/client/CMakeFiles/light_switch_client_nrf52840_xxAA_s140_6.0.0.dir/__/__/__/models/foundation/config/src/config_server.c.obj
 .text.handle_config_vendor_model_subscription_get
                0x00030f8c      0x100 examples/light_switch/client/CMakeFiles/light_switch_client_nrf52840_xxAA_s140_6.0.0.dir/__/__/__/models/foundation/config/src/config_server.c.obj
 .text.handle_config_model_subscription_virtual_address_delete
                0x0003108c      0x110 examples/light_switch/client/CMakeFiles/light_switch_client_nrf52840_xxAA_s140_6.0.0.dir/__/__/__/models/foundation/config/src/config_server.c.obj
 .text.handle_config_model_subscription_virtual_address_add
                0x0003119c      0x10e examples/light_switch/client/CMakeFiles/light_switch_client_nrf52840_xxAA_s140_6.0.0.dir/__/__/__/models/foundation/config/src/config_server.c.obj
 .text.handle_config_model_subscription_delete
                0x000312aa      0x116 examples/light_switch/client/CMakeFiles/light_switch_client_nrf52840_xxAA_s140_6.0.0.dir/__/__/__/models/foundation/config/src/config_server.c.obj
 .text.handle_config_model_subscription_add
                0x000313c0      0x114 examples/light_switch/client/CMakeFiles/light_switch_client_nrf52840_xxAA_s140_6.0.0.dir/__/__/__/models/foundation/config/src/config_server.c.obj
 .text.handle_config_model_subscription_virtual_address_overwrite
                0x000314d4      0x128 examples/light_switch/client/CMakeFiles/light_switch_client_nrf52840_xxAA_s140_6.0.0.dir/__/__/__/models/foundation/config/src/config_server.c.obj
 .text.handle_model_app_get
                0x000315fc      0x1a4 examples/light_switch/client/CMakeFiles/light_switch_client_nrf52840_xxAA_s140_6.0.0.dir/__/__/__/models/foundation/config/src/config_server.c.obj
 .text.handle_config_model_subscription_overwrite
                0x000317a0      0x122 examples/light_switch/client/CMakeFiles/light_switch_client_nrf52840_xxAA_s140_6.0.0.dir/__/__/__/models/foundation/config/src/config_server.c.obj
 .text.handle_model_app_bind_unbind
                0x000318c2      0x17a examples/light_switch/client/CMakeFiles/light_switch_client_nrf52840_xxAA_s140_6.0.0.dir/__/__/__/models/foundation/config/src/config_server.c.obj
 .text.handle_config_model_publication_set
                0x00031a3c      0x2c6 examples/light_switch/client/CMakeFiles/light_switch_client_nrf52840_xxAA_s140_6.0.0.dir/__/__/__/models/foundation/config/src/config_server.c.obj
 *fill*         0x00031d02        0x2 
 .text.config_server_init
                0x00031d04       0x60 examples/light_switch/client/CMakeFiles/light_switch_client_nrf52840_xxAA_s140_6.0.0.dir/__/__/__/models/foundation/config/src/config_server.c.obj
                0x00031d04                config_server_init
 .text.config_server_bind
                0x00031d64       0x10 examples/light_switch/client/CMakeFiles/light_switch_client_nrf52840_xxAA_s140_6.0.0.dir/__/__/__/models/foundation/config/src/config_server.c.obj
                0x00031d64                config_server_bind
 .text.packed_index_list_create
                0x00031d74       0x32 examples/light_switch/client/CMakeFiles/light_switch_client_nrf52840_xxAA_s140_6.0.0.dir/__/__/__/models/foundation/config/src/packed_index_list.c.obj
                0x00031d74                packed_index_list_create
 *fill*         0x00031da6        0x2 
 .text.attention_timer_set
                0x00031da8       0x8c examples/light_switch/client/CMakeFiles/light_switch_client_nrf52840_xxAA_s140_6.0.0.dir/__/__/__/models/foundation/health/src/health_server.c.obj
 .text.attention_timer_handler
                0x00031e34       0x5c examples/light_switch/client/CMakeFiles/light_switch_client_nrf52840_xxAA_s140_6.0.0.dir/__/__/__/models/foundation/health/src/health_server.c.obj
 .text.send_attention_status
                0x00031e90       0x4a examples/light_switch/client/CMakeFiles/light_switch_client_nrf52840_xxAA_s140_6.0.0.dir/__/__/__/models/foundation/health/src/health_server.c.obj
 .text.handle_attention_get
                0x00031eda        0xc examples/light_switch/client/CMakeFiles/light_switch_client_nrf52840_xxAA_s140_6.0.0.dir/__/__/__/models/foundation/health/src/health_server.c.obj
 .text.send_period_status
                0x00031ee6       0x48 examples/light_switch/client/CMakeFiles/light_switch_client_nrf52840_xxAA_s140_6.0.0.dir/__/__/__/models/foundation/health/src/health_server.c.obj
 .text.handle_period_get
                0x00031f2e        0xc examples/light_switch/client/CMakeFiles/light_switch_client_nrf52840_xxAA_s140_6.0.0.dir/__/__/__/models/foundation/health/src/health_server.c.obj
 .text.handle_attention_set
                0x00031f3a       0x2e examples/light_switch/client/CMakeFiles/light_switch_client_nrf52840_xxAA_s140_6.0.0.dir/__/__/__/models/foundation/health/src/health_server.c.obj
 .text.handle_period_set
                0x00031f68       0x22 examples/light_switch/client/CMakeFiles/light_switch_client_nrf52840_xxAA_s140_6.0.0.dir/__/__/__/models/foundation/health/src/health_server.c.obj
 *fill*         0x00031f8a        0x2 
 .text.bitfield_next_get.part.0.constprop.9
                0x00031f8c       0x44 examples/light_switch/client/CMakeFiles/light_switch_client_nrf52840_xxAA_s140_6.0.0.dir/__/__/__/models/foundation/health/src/health_server.c.obj
 .text.bitfield_popcount.constprop.7
                0x00031fd0       0x28 examples/light_switch/client/CMakeFiles/light_switch_client_nrf52840_xxAA_s140_6.0.0.dir/__/__/__/models/foundation/health/src/health_server.c.obj
 .text.send_fault_status
                0x00031ff8       0xa8 examples/light_switch/client/CMakeFiles/light_switch_client_nrf52840_xxAA_s140_6.0.0.dir/__/__/__/models/foundation/health/src/health_server.c.obj
 .text.health_publish_timeout_handler
                0x000320a0        0xa examples/light_switch/client/CMakeFiles/light_switch_client_nrf52840_xxAA_s140_6.0.0.dir/__/__/__/models/foundation/health/src/health_server.c.obj
 .text.handle_fault_test
                0x000320aa       0x68 examples/light_switch/client/CMakeFiles/light_switch_client_nrf52840_xxAA_s140_6.0.0.dir/__/__/__/models/foundation/health/src/health_server.c.obj
 .text.handle_fault_get
                0x00032112       0x32 examples/light_switch/client/CMakeFiles/light_switch_client_nrf52840_xxAA_s140_6.0.0.dir/__/__/__/models/foundation/health/src/health_server.c.obj
 .text.handle_fault_clear
                0x00032144       0x48 examples/light_switch/client/CMakeFiles/light_switch_client_nrf52840_xxAA_s140_6.0.0.dir/__/__/__/models/foundation/health/src/health_server.c.obj
 .text.health_server_init
                0x0003218c       0x6c examples/light_switch/client/CMakeFiles/light_switch_client_nrf52840_xxAA_s140_6.0.0.dir/__/__/__/models/foundation/health/src/health_server.c.obj
                0x0003218c                health_server_init
 .text.add_to_publication_list
                0x000321f8       0x78 examples/light_switch/client/CMakeFiles/light_switch_client_nrf52840_xxAA_s140_6.0.0.dir/__/__/__/mesh/access/src/access_publish.c.obj
 .text.step_resolution_to_us
                0x00032270       0x38 examples/light_switch/client/CMakeFiles/light_switch_client_nrf52840_xxAA_s140_6.0.0.dir/__/__/__/mesh/access/src/access_publish.c.obj
 .text.schedule_publication_timer
                0x000322a8      0x184 examples/light_switch/client/CMakeFiles/light_switch_client_nrf52840_xxAA_s140_6.0.0.dir/__/__/__/mesh/access/src/access_publish.c.obj
 .text.publish_timer_tick
                0x0003242c       0xa8 examples/light_switch/client/CMakeFiles/light_switch_client_nrf52840_xxAA_s140_6.0.0.dir/__/__/__/mesh/access/src/access_publish.c.obj
 .text.access_publish_init
                0x000324d4       0x38 examples/light_switch/client/CMakeFiles/light_switch_client_nrf52840_xxAA_s140_6.0.0.dir/__/__/__/mesh/access/src/access_publish.c.obj
                0x000324d4                access_publish_init
 .text.access_publish_period_set
                0x0003250c       0x60 examples/light_switch/client/CMakeFiles/light_switch_client_nrf52840_xxAA_s140_6.0.0.dir/__/__/__/mesh/access/src/access_publish.c.obj
                0x0003250c                access_publish_period_set
 .text.access_publish_period_get
                0x0003256c       0x22 examples/light_switch/client/CMakeFiles/light_switch_client_nrf52840_xxAA_s140_6.0.0.dir/__/__/__/mesh/access/src/access_publish.c.obj
                0x0003256c                access_publish_period_get
 .text.bitfield_get
                0x0003258e       0x1a examples/light_switch/client/CMakeFiles/light_switch_client_nrf52840_xxAA_s140_6.0.0.dir/__/__/__/mesh/access/src/access.c.obj
 .text.is_valid_opcode
                0x000325a8       0x42 examples/light_switch/client/CMakeFiles/light_switch_client_nrf52840_xxAA_s140_6.0.0.dir/__/__/__/mesh/access/src/access.c.obj
 *fill*         0x000325ea        0x2 
 .text.model_handle_valid_and_allocated
                0x000325ec       0x20 examples/light_switch/client/CMakeFiles/light_switch_client_nrf52840_xxAA_s140_6.0.0.dir/__/__/__/mesh/access/src/access.c.obj
 .text.flash_manager_mem_available
                0x0003260c        0x2 examples/light_switch/client/CMakeFiles/light_switch_client_nrf52840_xxAA_s140_6.0.0.dir/__/__/__/mesh/access/src/access.c.obj
 *fill*         0x0003260e        0x2 
 .text.restore_acquired_subscription
                0x00032610       0x30 examples/light_switch/client/CMakeFiles/light_switch_client_nrf52840_xxAA_s140_6.0.0.dir/__/__/__/mesh/access/src/access.c.obj
 .text.restore_acquired_element
                0x00032640       0x20 examples/light_switch/client/CMakeFiles/light_switch_client_nrf52840_xxAA_s140_6.0.0.dir/__/__/__/mesh/access/src/access.c.obj
 .text.restore_flash_data
                0x00032660       0x50 examples/light_switch/client/CMakeFiles/light_switch_client_nrf52840_xxAA_s140_6.0.0.dir/__/__/__/mesh/access/src/access.c.obj
 .text.flash_invalidate_complete
                0x000326b0        0x6 examples/light_switch/client/CMakeFiles/light_switch_client_nrf52840_xxAA_s140_6.0.0.dir/__/__/__/mesh/access/src/access.c.obj
 *fill*         0x000326b6        0x2 
 .text.access_flash_config_clear
                0x000326b8       0x28 examples/light_switch/client/CMakeFiles/light_switch_client_nrf52840_xxAA_s140_6.0.0.dir/__/__/__/mesh/access/src/access.c.obj
 .text.access_flash_config_store
                0x000326e0      0x150 examples/light_switch/client/CMakeFiles/light_switch_client_nrf52840_xxAA_s140_6.0.0.dir/__/__/__/mesh/access/src/access.c.obj
                0x000326e0                access_flash_config_store
 .text.access_state_clear
                0x00032830       0x4c examples/light_switch/client/CMakeFiles/light_switch_client_nrf52840_xxAA_s140_6.0.0.dir/__/__/__/mesh/access/src/access.c.obj
 .text.flash_write_complete
                0x0003287c       0x46 examples/light_switch/client/CMakeFiles/light_switch_client_nrf52840_xxAA_s140_6.0.0.dir/__/__/__/mesh/access/src/access.c.obj
 *fill*         0x000328c2        0x2 
 .text.unlikely.bitfield_next_get.part.0.constprop.5
                0x000328c4       0x34 examples/light_switch/client/CMakeFiles/light_switch_client_nrf52840_xxAA_s140_6.0.0.dir/__/__/__/mesh/access/src/access.c.obj
 .text.packet_tx
                0x000328f8      0x31c examples/light_switch/client/CMakeFiles/light_switch_client_nrf52840_xxAA_s140_6.0.0.dir/__/__/__/mesh/access/src/access.c.obj
 .text.restore_acquired_model
                0x00032c14       0x94 examples/light_switch/client/CMakeFiles/light_switch_client_nrf52840_xxAA_s140_6.0.0.dir/__/__/__/mesh/access/src/access.c.obj
 .text.access_flash_config_load
                0x00032ca8      0x11c examples/light_switch/client/CMakeFiles/light_switch_client_nrf52840_xxAA_s140_6.0.0.dir/__/__/__/mesh/access/src/access.c.obj
                0x00032ca8                access_flash_config_load
 .text.access_incoming_handle
                0x00032dc4      0x104 examples/light_switch/client/CMakeFiles/light_switch_client_nrf52840_xxAA_s140_6.0.0.dir/__/__/__/mesh/access/src/access.c.obj
                0x00032dc4                access_incoming_handle
 .text.mesh_evt_cb
                0x00032ec8      0x134 examples/light_switch/client/CMakeFiles/light_switch_client_nrf52840_xxAA_s140_6.0.0.dir/__/__/__/mesh/access/src/access.c.obj
 .text.access_clear
                0x00032ffc       0x12 examples/light_switch/client/CMakeFiles/light_switch_client_nrf52840_xxAA_s140_6.0.0.dir/__/__/__/mesh/access/src/access.c.obj
                0x00032ffc                access_clear
 *fill*         0x0003300e        0x2 
 .text.access_model_add
                0x00033010      0x1bc examples/light_switch/client/CMakeFiles/light_switch_client_nrf52840_xxAA_s140_6.0.0.dir/__/__/__/mesh/access/src/access.c.obj
                0x00033010                access_model_add
 .text.access_model_publish
                0x000331cc        0xc examples/light_switch/client/CMakeFiles/light_switch_client_nrf52840_xxAA_s140_6.0.0.dir/__/__/__/mesh/access/src/access.c.obj
                0x000331cc                access_model_publish
 .text.access_model_reply
                0x000331d8       0x12 examples/light_switch/client/CMakeFiles/light_switch_client_nrf52840_xxAA_s140_6.0.0.dir/__/__/__/mesh/access/src/access.c.obj
                0x000331d8                access_model_reply
 *fill*         0x000331ea        0x2 
 .text.access_model_publish_address_set
                0x000331ec       0x3c examples/light_switch/client/CMakeFiles/light_switch_client_nrf52840_xxAA_s140_6.0.0.dir/__/__/__/mesh/access/src/access.c.obj
                0x000331ec                access_model_publish_address_set
 .text.access_model_publish_address_get
                0x00033228       0x28 examples/light_switch/client/CMakeFiles/light_switch_client_nrf52840_xxAA_s140_6.0.0.dir/__/__/__/mesh/access/src/access.c.obj
                0x00033228                access_model_publish_address_get
 .text.access_model_publish_retransmit_set
                0x00033250       0x4c examples/light_switch/client/CMakeFiles/light_switch_client_nrf52840_xxAA_s140_6.0.0.dir/__/__/__/mesh/access/src/access.c.obj
                0x00033250                access_model_publish_retransmit_set
 .text.access_model_publish_retransmit_get
                0x0003329c       0x2c examples/light_switch/client/CMakeFiles/light_switch_client_nrf52840_xxAA_s140_6.0.0.dir/__/__/__/mesh/access/src/access.c.obj
                0x0003329c                access_model_publish_retransmit_get
 .text.access_model_publish_period_set
                0x000332c8       0x6c examples/light_switch/client/CMakeFiles/light_switch_client_nrf52840_xxAA_s140_6.0.0.dir/__/__/__/mesh/access/src/access.c.obj
                0x000332c8                access_model_publish_period_set
 .text.access_model_publish_period_get
                0x00033334       0x3c examples/light_switch/client/CMakeFiles/light_switch_client_nrf52840_xxAA_s140_6.0.0.dir/__/__/__/mesh/access/src/access.c.obj
                0x00033334                access_model_publish_period_get
 .text.access_model_subscription_list_alloc
                0x00033370       0x54 examples/light_switch/client/CMakeFiles/light_switch_client_nrf52840_xxAA_s140_6.0.0.dir/__/__/__/mesh/access/src/access.c.obj
                0x00033370                access_model_subscription_list_alloc
 .text.access_model_subscription_add
                0x000333c4       0x60 examples/light_switch/client/CMakeFiles/light_switch_client_nrf52840_xxAA_s140_6.0.0.dir/__/__/__/mesh/access/src/access.c.obj
                0x000333c4                access_model_subscription_add
 .text.access_model_subscription_remove
                0x00033424       0x60 examples/light_switch/client/CMakeFiles/light_switch_client_nrf52840_xxAA_s140_6.0.0.dir/__/__/__/mesh/access/src/access.c.obj
                0x00033424                access_model_subscription_remove
 .text.access_model_subscriptions_get
                0x00033484       0x78 examples/light_switch/client/CMakeFiles/light_switch_client_nrf52840_xxAA_s140_6.0.0.dir/__/__/__/mesh/access/src/access.c.obj
                0x00033484                access_model_subscriptions_get
 .text.access_model_application_bind
                0x000334fc       0x50 examples/light_switch/client/CMakeFiles/light_switch_client_nrf52840_xxAA_s140_6.0.0.dir/__/__/__/mesh/access/src/access.c.obj
                0x000334fc                access_model_application_bind
 .text.access_model_application_unbind
                0x0003354c       0x50 examples/light_switch/client/CMakeFiles/light_switch_client_nrf52840_xxAA_s140_6.0.0.dir/__/__/__/mesh/access/src/access.c.obj
                0x0003354c                access_model_application_unbind
 .text.access_model_applications_get
                0x0003359c       0x58 examples/light_switch/client/CMakeFiles/light_switch_client_nrf52840_xxAA_s140_6.0.0.dir/__/__/__/mesh/access/src/access.c.obj
                0x0003359c                access_model_applications_get
 .text.access_model_publish_application_set
                0x000335f4       0x3c examples/light_switch/client/CMakeFiles/light_switch_client_nrf52840_xxAA_s140_6.0.0.dir/__/__/__/mesh/access/src/access.c.obj
                0x000335f4                access_model_publish_application_set
 .text.access_model_publish_application_get
                0x00033630       0x28 examples/light_switch/client/CMakeFiles/light_switch_client_nrf52840_xxAA_s140_6.0.0.dir/__/__/__/mesh/access/src/access.c.obj
                0x00033630                access_model_publish_application_get
 .text.access_default_ttl_set
                0x00033658       0x18 examples/light_switch/client/CMakeFiles/light_switch_client_nrf52840_xxAA_s140_6.0.0.dir/__/__/__/mesh/access/src/access.c.obj
                0x00033658                access_default_ttl_set
 .text.access_default_ttl_get
                0x00033670        0xc examples/light_switch/client/CMakeFiles/light_switch_client_nrf52840_xxAA_s140_6.0.0.dir/__/__/__/mesh/access/src/access.c.obj
                0x00033670                access_default_ttl_get
 .text.access_model_publish_ttl_set
                0x0003367c       0x40 examples/light_switch/client/CMakeFiles/light_switch_client_nrf52840_xxAA_s140_6.0.0.dir/__/__/__/mesh/access/src/access.c.obj
                0x0003367c                access_model_publish_ttl_set
 .text.access_model_publish_ttl_get
                0x000336bc       0x28 examples/light_switch/client/CMakeFiles/light_switch_client_nrf52840_xxAA_s140_6.0.0.dir/__/__/__/mesh/access/src/access.c.obj
                0x000336bc                access_model_publish_ttl_get
 .text.access_element_location_get
                0x000336e4       0x20 examples/light_switch/client/CMakeFiles/light_switch_client_nrf52840_xxAA_s140_6.0.0.dir/__/__/__/mesh/access/src/access.c.obj
                0x000336e4                access_element_location_get
 .text.access_element_sig_model_count_get
                0x00033704       0x24 examples/light_switch/client/CMakeFiles/light_switch_client_nrf52840_xxAA_s140_6.0.0.dir/__/__/__/mesh/access/src/access.c.obj
                0x00033704                access_element_sig_model_count_get
 .text.access_element_vendor_model_count_get
                0x00033728       0x24 examples/light_switch/client/CMakeFiles/light_switch_client_nrf52840_xxAA_s140_6.0.0.dir/__/__/__/mesh/access/src/access.c.obj
                0x00033728                access_element_vendor_model_count_get
 .text.access_model_id_get
                0x0003374c       0x2c examples/light_switch/client/CMakeFiles/light_switch_client_nrf52840_xxAA_s140_6.0.0.dir/__/__/__/mesh/access/src/access.c.obj
                0x0003374c                access_model_id_get
 .text.access_handle_get
                0x00033778       0x50 examples/light_switch/client/CMakeFiles/light_switch_client_nrf52840_xxAA_s140_6.0.0.dir/__/__/__/mesh/access/src/access.c.obj
                0x00033778                access_handle_get
 .text.access_element_models_get
                0x000337c8       0x50 examples/light_switch/client/CMakeFiles/light_switch_client_nrf52840_xxAA_s140_6.0.0.dir/__/__/__/mesh/access/src/access.c.obj
                0x000337c8                access_element_models_get
 .text.access_model_p_args_get
                0x00033818       0x28 examples/light_switch/client/CMakeFiles/light_switch_client_nrf52840_xxAA_s140_6.0.0.dir/__/__/__/mesh/access/src/access.c.obj
                0x00033818                access_model_p_args_get
 .text.access_model_publication_stop
                0x00033840       0x74 examples/light_switch/client/CMakeFiles/light_switch_client_nrf52840_xxAA_s140_6.0.0.dir/__/__/__/mesh/access/src/access.c.obj
                0x00033840                access_model_publication_stop
 .text.access_model_publication_by_appkey_stop
                0x000338b4       0x36 examples/light_switch/client/CMakeFiles/light_switch_client_nrf52840_xxAA_s140_6.0.0.dir/__/__/__/mesh/access/src/access.c.obj
                0x000338b4                access_model_publication_by_appkey_stop
 .text.access_flash_area_get
                0x000338ea        0xc examples/light_switch/client/CMakeFiles/light_switch_client_nrf52840_xxAA_s140_6.0.0.dir/__/__/__/mesh/access/src/access.c.obj
                0x000338ea                access_flash_area_get
 *fill*         0x000338f6        0x2 
 .text.add_flash_manager
                0x000338f8       0x54 examples/light_switch/client/CMakeFiles/light_switch_client_nrf52840_xxAA_s140_6.0.0.dir/__/__/__/mesh/access/src/access.c.obj
 .text.access_init
                0x0003394c       0x2c examples/light_switch/client/CMakeFiles/light_switch_client_nrf52840_xxAA_s140_6.0.0.dir/__/__/__/mesh/access/src/access.c.obj
                0x0003394c                access_init
 .text.flash_remove_complete
                0x00033978       0x64 examples/light_switch/client/CMakeFiles/light_switch_client_nrf52840_xxAA_s140_6.0.0.dir/__/__/__/mesh/access/src/access.c.obj
 .text.reliable_timer_cb
                0x000339dc      0x11c examples/light_switch/client/CMakeFiles/light_switch_client_nrf52840_xxAA_s140_6.0.0.dir/__/__/__/mesh/access/src/access_reliable.c.obj
 .text.remove_and_reschedule
                0x00033af8       0xac examples/light_switch/client/CMakeFiles/light_switch_client_nrf52840_xxAA_s140_6.0.0.dir/__/__/__/mesh/access/src/access_reliable.c.obj
 .text.access_reliable_message_rx_cb
                0x00033ba4       0x68 examples/light_switch/client/CMakeFiles/light_switch_client_nrf52840_xxAA_s140_6.0.0.dir/__/__/__/mesh/access/src/access_reliable.c.obj
                0x00033ba4                access_reliable_message_rx_cb
 .text.access_reliable_model_is_free
                0x00033c0c       0x28 examples/light_switch/client/CMakeFiles/light_switch_client_nrf52840_xxAA_s140_6.0.0.dir/__/__/__/mesh/access/src/access_reliable.c.obj
                0x00033c0c                access_reliable_model_is_free
 .text.access_reliable_init
                0x00033c34       0x20 examples/light_switch/client/CMakeFiles/light_switch_client_nrf52840_xxAA_s140_6.0.0.dir/__/__/__/mesh/access/src/access_reliable.c.obj
                0x00033c34                access_reliable_init
 .text.access_reliable_cancel_all
                0x00033c54       0x60 examples/light_switch/client/CMakeFiles/light_switch_client_nrf52840_xxAA_s140_6.0.0.dir/__/__/__/mesh/access/src/access_reliable.c.obj
                0x00033c54                access_reliable_cancel_all
 .text.access_model_reliable_cancel
                0x00033cb4       0x68 examples/light_switch/client/CMakeFiles/light_switch_client_nrf52840_xxAA_s140_6.0.0.dir/__/__/__/mesh/access/src/access_reliable.c.obj
                0x00033cb4                access_model_reliable_cancel
 .text.access_model_reliable_publish
                0x00033d1c      0x198 examples/light_switch/client/CMakeFiles/light_switch_client_nrf52840_xxAA_s140_6.0.0.dir/__/__/__/mesh/access/src/access_reliable.c.obj
                0x00033d1c                access_model_reliable_publish
 .text.access_loopback_process
                0x00033eb4       0x28 examples/light_switch/client/CMakeFiles/light_switch_client_nrf52840_xxAA_s140_6.0.0.dir/__/__/__/mesh/access/src/access_loopback.c.obj
 .text.is_access_loopback
                0x00033edc        0x4 examples/light_switch/client/CMakeFiles/light_switch_client_nrf52840_xxAA_s140_6.0.0.dir/__/__/__/mesh/access/src/access_loopback.c.obj
                0x00033edc                is_access_loopback
 .text.access_loopback_init
                0x00033ee0       0x18 examples/light_switch/client/CMakeFiles/light_switch_client_nrf52840_xxAA_s140_6.0.0.dir/__/__/__/mesh/access/src/access_loopback.c.obj
                0x00033ee0                access_loopback_init
 .text.access_loopback_handle
                0x00033ef8       0x80 examples/light_switch/client/CMakeFiles/light_switch_client_nrf52840_xxAA_s140_6.0.0.dir/__/__/__/mesh/access/src/access_loopback.c.obj
                0x00033ef8                access_loopback_handle
 .text.bitfield_get
                0x00033f78       0x1a examples/light_switch/client/CMakeFiles/light_switch_client_nrf52840_xxAA_s140_6.0.0.dir/__/__/__/mesh/access/src/device_state_manager.c.obj
 .text.bitfield_set
                0x00033f92       0x18 examples/light_switch/client/CMakeFiles/light_switch_client_nrf52840_xxAA_s140_6.0.0.dir/__/__/__/mesh/access/src/device_state_manager.c.obj
 .text.bitfield_clear
                0x00033faa       0x1a examples/light_switch/client/CMakeFiles/light_switch_client_nrf52840_xxAA_s140_6.0.0.dir/__/__/__/mesh/access/src/device_state_manager.c.obj
 .text.bitfield_is_all_clear
                0x00033fc4       0x3c examples/light_switch/client/CMakeFiles/light_switch_client_nrf52840_xxAA_s140_6.0.0.dir/__/__/__/mesh/access/src/device_state_manager.c.obj
 .text.address_handle_virtual_valid
                0x00034000       0x14 examples/light_switch/client/CMakeFiles/light_switch_client_nrf52840_xxAA_s140_6.0.0.dir/__/__/__/mesh/access/src/device_state_manager.c.obj
 .text.net_key_handle_get
                0x00034014       0x38 examples/light_switch/client/CMakeFiles/light_switch_client_nrf52840_xxAA_s140_6.0.0.dir/__/__/__/mesh/access/src/device_state_manager.c.obj
 .text.dev_key_handle_get
                0x0003404c       0x30 examples/light_switch/client/CMakeFiles/light_switch_client_nrf52840_xxAA_s140_6.0.0.dir/__/__/__/mesh/access/src/device_state_manager.c.obj
 .text.app_key_handle_get
                0x0003407c       0x38 examples/light_switch/client/CMakeFiles/light_switch_client_nrf52840_xxAA_s140_6.0.0.dir/__/__/__/mesh/access/src/device_state_manager.c.obj
 .text.addr_nonvirtual_to_flash_entry
                0x000340b4       0x10 examples/light_switch/client/CMakeFiles/light_switch_client_nrf52840_xxAA_s140_6.0.0.dir/__/__/__/mesh/access/src/device_state_manager.c.obj
 .text.devkey_set
                0x000340c4       0x4c examples/light_switch/client/CMakeFiles/light_switch_client_nrf52840_xxAA_s140_6.0.0.dir/__/__/__/mesh/access/src/device_state_manager.c.obj
 .text.devkey_to_dsm_entry
                0x00034110       0x16 examples/light_switch/client/CMakeFiles/light_switch_client_nrf52840_xxAA_s140_6.0.0.dir/__/__/__/mesh/access/src/device_state_manager.c.obj
 *fill*         0x00034126        0x2 
 .text.devkey_to_flash_entry
                0x00034128       0x28 examples/light_switch/client/CMakeFiles/light_switch_client_nrf52840_xxAA_s140_6.0.0.dir/__/__/__/mesh/access/src/device_state_manager.c.obj
 .text.addr_virtual_to_flash_entry
                0x00034150       0x18 examples/light_switch/client/CMakeFiles/light_switch_client_nrf52840_xxAA_s140_6.0.0.dir/__/__/__/mesh/access/src/device_state_manager.c.obj
 .text.addr_unicast_to_dsm_entry
                0x00034168        0xc examples/light_switch/client/CMakeFiles/light_switch_client_nrf52840_xxAA_s140_6.0.0.dir/__/__/__/mesh/access/src/device_state_manager.c.obj
 .text.addr_unicast_to_flash_entry
                0x00034174       0x10 examples/light_switch/client/CMakeFiles/light_switch_client_nrf52840_xxAA_s140_6.0.0.dir/__/__/__/mesh/access/src/device_state_manager.c.obj
 .text.flash_mem_listener_callback
                0x00034184       0x14 examples/light_switch/client/CMakeFiles/light_switch_client_nrf52840_xxAA_s140_6.0.0.dir/__/__/__/mesh/access/src/device_state_manager.c.obj
 .text.get_subnet_handle
                0x00034198       0x34 examples/light_switch/client/CMakeFiles/light_switch_client_nrf52840_xxAA_s140_6.0.0.dir/__/__/__/mesh/access/src/device_state_manager.c.obj
 .text.appkey_set
                0x000341cc       0x70 examples/light_switch/client/CMakeFiles/light_switch_client_nrf52840_xxAA_s140_6.0.0.dir/__/__/__/mesh/access/src/device_state_manager.c.obj
 .text.appkey_to_flash_entry
                0x0003423c       0x54 examples/light_switch/client/CMakeFiles/light_switch_client_nrf52840_xxAA_s140_6.0.0.dir/__/__/__/mesh/access/src/device_state_manager.c.obj
 .text.subnet_to_flash_entry
                0x00034290       0x60 examples/light_switch/client/CMakeFiles/light_switch_client_nrf52840_xxAA_s140_6.0.0.dir/__/__/__/mesh/access/src/device_state_manager.c.obj
 .text.bitfield_clear_all
                0x000342f0        0xe examples/light_switch/client/CMakeFiles/light_switch_client_nrf52840_xxAA_s140_6.0.0.dir/__/__/__/mesh/access/src/device_state_manager.c.obj
 *fill*         0x000342fe        0x2 
 .text.subnet_set
                0x00034300       0x98 examples/light_switch/client/CMakeFiles/light_switch_client_nrf52840_xxAA_s140_6.0.0.dir/__/__/__/mesh/access/src/device_state_manager.c.obj
 .text.virtual_address_set
                0x00034398       0x48 examples/light_switch/client/CMakeFiles/light_switch_client_nrf52840_xxAA_s140_6.0.0.dir/__/__/__/mesh/access/src/device_state_manager.c.obj
 .text.addr_virtual_to_dsm_entry
                0x000343e0        0xc examples/light_switch/client/CMakeFiles/light_switch_client_nrf52840_xxAA_s140_6.0.0.dir/__/__/__/mesh/access/src/device_state_manager.c.obj
 .text.reset_flash_area
                0x000343ec       0x28 examples/light_switch/client/CMakeFiles/light_switch_client_nrf52840_xxAA_s140_6.0.0.dir/__/__/__/mesh/access/src/device_state_manager.c.obj
 .text.flash_save
                0x00034414       0x7c examples/light_switch/client/CMakeFiles/light_switch_client_nrf52840_xxAA_s140_6.0.0.dir/__/__/__/mesh/access/src/device_state_manager.c.obj
 .text.flash_invalidate
                0x00034490       0x64 examples/light_switch/client/CMakeFiles/light_switch_client_nrf52840_xxAA_s140_6.0.0.dir/__/__/__/mesh/access/src/device_state_manager.c.obj
 .text.flash_update_all
                0x000344f4       0x6c examples/light_switch/client/CMakeFiles/light_switch_client_nrf52840_xxAA_s140_6.0.0.dir/__/__/__/mesh/access/src/device_state_manager.c.obj
 .text.virtual_address_uuid_index_get
                0x00034560       0x3c examples/light_switch/client/CMakeFiles/light_switch_client_nrf52840_xxAA_s140_6.0.0.dir/__/__/__/mesh/access/src/device_state_manager.c.obj
 .text.add_address_virtual
                0x0003459c       0x70 examples/light_switch/client/CMakeFiles/light_switch_client_nrf52840_xxAA_s140_6.0.0.dir/__/__/__/mesh/access/src/device_state_manager.c.obj
 .text.get_subnet_handle_by_beacon_info
                0x0003460c       0x24 examples/light_switch/client/CMakeFiles/light_switch_client_nrf52840_xxAA_s140_6.0.0.dir/__/__/__/mesh/access/src/device_state_manager.c.obj
 .text.get_app_handle
                0x00034630       0x34 examples/light_switch/client/CMakeFiles/light_switch_client_nrf52840_xxAA_s140_6.0.0.dir/__/__/__/mesh/access/src/device_state_manager.c.obj
 .text.appkey_to_dsm_entry
                0x00034664       0x68 examples/light_switch/client/CMakeFiles/light_switch_client_nrf52840_xxAA_s140_6.0.0.dir/__/__/__/mesh/access/src/device_state_manager.c.obj
 .text.subnet_to_dsm_entry
                0x000346cc       0x68 examples/light_switch/client/CMakeFiles/light_switch_client_nrf52840_xxAA_s140_6.0.0.dir/__/__/__/mesh/access/src/device_state_manager.c.obj
 .text.flash_operation_complete
                0x00034734       0x4c examples/light_switch/client/CMakeFiles/light_switch_client_nrf52840_xxAA_s140_6.0.0.dir/__/__/__/mesh/access/src/device_state_manager.c.obj
 .text.flash_invalidate_complete
                0x00034780        0x8 examples/light_switch/client/CMakeFiles/light_switch_client_nrf52840_xxAA_s140_6.0.0.dir/__/__/__/mesh/access/src/device_state_manager.c.obj
 .text.flash_write_complete
                0x00034788        0x8 examples/light_switch/client/CMakeFiles/light_switch_client_nrf52840_xxAA_s140_6.0.0.dir/__/__/__/mesh/access/src/device_state_manager.c.obj
 .text.add_address.part.8
                0x00034790      0x144 examples/light_switch/client/CMakeFiles/light_switch_client_nrf52840_xxAA_s140_6.0.0.dir/__/__/__/mesh/access/src/device_state_manager.c.obj
 .text.bitfield_next_get.part.0.constprop.17
                0x000348d4       0x38 examples/light_switch/client/CMakeFiles/light_switch_client_nrf52840_xxAA_s140_6.0.0.dir/__/__/__/mesh/access/src/device_state_manager.c.obj
 .text.address_handle_valid
                0x0003490c       0x28 examples/light_switch/client/CMakeFiles/light_switch_client_nrf52840_xxAA_s140_6.0.0.dir/__/__/__/mesh/access/src/device_state_manager.c.obj
 .text.address_handle_nonvirtual_valid
                0x00034934       0x14 examples/light_switch/client/CMakeFiles/light_switch_client_nrf52840_xxAA_s140_6.0.0.dir/__/__/__/mesh/access/src/device_state_manager.c.obj
 .text.address_delete_if_unused
                0x00034948       0x78 examples/light_switch/client/CMakeFiles/light_switch_client_nrf52840_xxAA_s140_6.0.0.dir/__/__/__/mesh/access/src/device_state_manager.c.obj
 .text.addr_nonvirtual_to_dsm_entry
                0x000349c0       0x38 examples/light_switch/client/CMakeFiles/light_switch_client_nrf52840_xxAA_s140_6.0.0.dir/__/__/__/mesh/access/src/device_state_manager.c.obj
 .text.dsm_flash_config_load
                0x000349f8      0x120 examples/light_switch/client/CMakeFiles/light_switch_client_nrf52840_xxAA_s140_6.0.0.dir/__/__/__/mesh/access/src/device_state_manager.c.obj
                0x000349f8                dsm_flash_config_load
 .text.dsm_flash_area_get
                0x00034b18        0xc examples/light_switch/client/CMakeFiles/light_switch_client_nrf52840_xxAA_s140_6.0.0.dir/__/__/__/mesh/access/src/device_state_manager.c.obj
                0x00034b18                dsm_flash_area_get
 .text.build_flash_area
                0x00034b24       0x8c examples/light_switch/client/CMakeFiles/light_switch_client_nrf52840_xxAA_s140_6.0.0.dir/__/__/__/mesh/access/src/device_state_manager.c.obj
 .text.flash_remove_complete
                0x00034bb0        0x4 examples/light_switch/client/CMakeFiles/light_switch_client_nrf52840_xxAA_s140_6.0.0.dir/__/__/__/mesh/access/src/device_state_manager.c.obj
 .text.dsm_clear
                0x00034bb4       0xa8 examples/light_switch/client/CMakeFiles/light_switch_client_nrf52840_xxAA_s140_6.0.0.dir/__/__/__/mesh/access/src/device_state_manager.c.obj
                0x00034bb4                dsm_clear
 .text.dsm_init
                0x00034c5c       0x3c examples/light_switch/client/CMakeFiles/light_switch_client_nrf52840_xxAA_s140_6.0.0.dir/__/__/__/mesh/access/src/device_state_manager.c.obj
                0x00034c5c                dsm_init
 .text.dsm_local_unicast_addresses_set
                0x00034c98       0x78 examples/light_switch/client/CMakeFiles/light_switch_client_nrf52840_xxAA_s140_6.0.0.dir/__/__/__/mesh/access/src/device_state_manager.c.obj
                0x00034c98                dsm_local_unicast_addresses_set
 .text.dsm_local_unicast_addresses_get
                0x00034d10       0x20 examples/light_switch/client/CMakeFiles/light_switch_client_nrf52840_xxAA_s140_6.0.0.dir/__/__/__/mesh/access/src/device_state_manager.c.obj
                0x00034d10                dsm_local_unicast_addresses_get
 .text.dsm_address_publish_add
                0x00034d30        0xc examples/light_switch/client/CMakeFiles/light_switch_client_nrf52840_xxAA_s140_6.0.0.dir/__/__/__/mesh/access/src/device_state_manager.c.obj
                0x00034d30                dsm_address_publish_add
 .text.dsm_address_publish_add_handle
                0x00034d3c       0x38 examples/light_switch/client/CMakeFiles/light_switch_client_nrf52840_xxAA_s140_6.0.0.dir/__/__/__/mesh/access/src/device_state_manager.c.obj
                0x00034d3c                dsm_address_publish_add_handle
 .text.dsm_address_publish_virtual_add
                0x00034d74        0x6 examples/light_switch/client/CMakeFiles/light_switch_client_nrf52840_xxAA_s140_6.0.0.dir/__/__/__/mesh/access/src/device_state_manager.c.obj
                0x00034d74                dsm_address_publish_virtual_add
 *fill*         0x00034d7a        0x2 
 .text.dsm_address_publish_remove
                0x00034d7c       0x40 examples/light_switch/client/CMakeFiles/light_switch_client_nrf52840_xxAA_s140_6.0.0.dir/__/__/__/mesh/access/src/device_state_manager.c.obj
                0x00034d7c                dsm_address_publish_remove
 .text.dsm_address_subscription_add
                0x00034dbc        0xc examples/light_switch/client/CMakeFiles/light_switch_client_nrf52840_xxAA_s140_6.0.0.dir/__/__/__/mesh/access/src/device_state_manager.c.obj
                0x00034dbc                dsm_address_subscription_add
 .text.dsm_address_subscription_virtual_add
                0x00034dc8        0x6 examples/light_switch/client/CMakeFiles/light_switch_client_nrf52840_xxAA_s140_6.0.0.dir/__/__/__/mesh/access/src/device_state_manager.c.obj
                0x00034dc8                dsm_address_subscription_virtual_add
 *fill*         0x00034dce        0x2 
 .text.dsm_address_subscription_add_handle
                0x00034dd0       0x38 examples/light_switch/client/CMakeFiles/light_switch_client_nrf52840_xxAA_s140_6.0.0.dir/__/__/__/mesh/access/src/device_state_manager.c.obj
                0x00034dd0                dsm_address_subscription_add_handle
 .text.dsm_address_get
                0x00034e08       0x5c examples/light_switch/client/CMakeFiles/light_switch_client_nrf52840_xxAA_s140_6.0.0.dir/__/__/__/mesh/access/src/device_state_manager.c.obj
                0x00034e08                dsm_address_get
 .text.dsm_address_subscription_remove
                0x00034e64       0x58 examples/light_switch/client/CMakeFiles/light_switch_client_nrf52840_xxAA_s140_6.0.0.dir/__/__/__/mesh/access/src/device_state_manager.c.obj
                0x00034e64                dsm_address_subscription_remove
 .text.dsm_address_handle_get
                0x00034ebc       0x98 examples/light_switch/client/CMakeFiles/light_switch_client_nrf52840_xxAA_s140_6.0.0.dir/__/__/__/mesh/access/src/device_state_manager.c.obj
                0x00034ebc                dsm_address_handle_get
 .text.dsm_net_key_index_to_subnet_handle
                0x00034f54       0x1c examples/light_switch/client/CMakeFiles/light_switch_client_nrf52840_xxAA_s140_6.0.0.dir/__/__/__/mesh/access/src/device_state_manager.c.obj
                0x00034f54                dsm_net_key_index_to_subnet_handle
 .text.dsm_subnet_handle_get
                0x00034f70        0xc examples/light_switch/client/CMakeFiles/light_switch_client_nrf52840_xxAA_s140_6.0.0.dir/__/__/__/mesh/access/src/device_state_manager.c.obj
                0x00034f70                dsm_subnet_handle_get
 .text.dsm_appkey_index_to_appkey_handle
                0x00034f7c       0x1c examples/light_switch/client/CMakeFiles/light_switch_client_nrf52840_xxAA_s140_6.0.0.dir/__/__/__/mesh/access/src/device_state_manager.c.obj
                0x00034f7c                dsm_appkey_index_to_appkey_handle
 .text.dsm_appkey_handle_get
                0x00034f98        0xc examples/light_switch/client/CMakeFiles/light_switch_client_nrf52840_xxAA_s140_6.0.0.dir/__/__/__/mesh/access/src/device_state_manager.c.obj
                0x00034f98                dsm_appkey_handle_get
 .text.dsm_appkey_handle_to_appkey_index
                0x00034fa4       0x30 examples/light_switch/client/CMakeFiles/light_switch_client_nrf52840_xxAA_s140_6.0.0.dir/__/__/__/mesh/access/src/device_state_manager.c.obj
                0x00034fa4                dsm_appkey_handle_to_appkey_index
 .text.dsm_appkey_handle_to_subnet_handle
                0x00034fd4       0x64 examples/light_switch/client/CMakeFiles/light_switch_client_nrf52840_xxAA_s140_6.0.0.dir/__/__/__/mesh/access/src/device_state_manager.c.obj
                0x00034fd4                dsm_appkey_handle_to_subnet_handle
 .text.dsm_subnet_add
                0x00035038       0x78 examples/light_switch/client/CMakeFiles/light_switch_client_nrf52840_xxAA_s140_6.0.0.dir/__/__/__/mesh/access/src/device_state_manager.c.obj
                0x00035038                dsm_subnet_add
 .text.dsm_subnet_kr_phase_get
                0x000350b0       0x2c examples/light_switch/client/CMakeFiles/light_switch_client_nrf52840_xxAA_s140_6.0.0.dir/__/__/__/mesh/access/src/device_state_manager.c.obj
                0x000350b0                dsm_subnet_kr_phase_get
 .text.dsm_subnet_update
                0x000350dc       0xa4 examples/light_switch/client/CMakeFiles/light_switch_client_nrf52840_xxAA_s140_6.0.0.dir/__/__/__/mesh/access/src/device_state_manager.c.obj
                0x000350dc                dsm_subnet_update
 .text.dsm_subnet_update_swap_keys
                0x00035180       0x50 examples/light_switch/client/CMakeFiles/light_switch_client_nrf52840_xxAA_s140_6.0.0.dir/__/__/__/mesh/access/src/device_state_manager.c.obj
                0x00035180                dsm_subnet_update_swap_keys
 .text.dsm_subnet_update_commit
                0x000351d0       0xbc examples/light_switch/client/CMakeFiles/light_switch_client_nrf52840_xxAA_s140_6.0.0.dir/__/__/__/mesh/access/src/device_state_manager.c.obj
                0x000351d0                dsm_subnet_update_commit
 .text.mesh_evt_handler
                0x0003528c       0x4c examples/light_switch/client/CMakeFiles/light_switch_client_nrf52840_xxAA_s140_6.0.0.dir/__/__/__/mesh/access/src/device_state_manager.c.obj
 .text.dsm_subnet_get_all
                0x000352d8       0x3c examples/light_switch/client/CMakeFiles/light_switch_client_nrf52840_xxAA_s140_6.0.0.dir/__/__/__/mesh/access/src/device_state_manager.c.obj
                0x000352d8                dsm_subnet_get_all
 .text.dsm_devkey_add
                0x00035314       0x78 examples/light_switch/client/CMakeFiles/light_switch_client_nrf52840_xxAA_s140_6.0.0.dir/__/__/__/mesh/access/src/device_state_manager.c.obj
                0x00035314                dsm_devkey_add
 .text.dsm_appkey_add
                0x0003538c       0x7c examples/light_switch/client/CMakeFiles/light_switch_client_nrf52840_xxAA_s140_6.0.0.dir/__/__/__/mesh/access/src/device_state_manager.c.obj
                0x0003538c                dsm_appkey_add
 .text.dsm_appkey_update
                0x00035408       0x90 examples/light_switch/client/CMakeFiles/light_switch_client_nrf52840_xxAA_s140_6.0.0.dir/__/__/__/mesh/access/src/device_state_manager.c.obj
                0x00035408                dsm_appkey_update
 .text.dsm_appkey_delete
                0x00035498       0x2c examples/light_switch/client/CMakeFiles/light_switch_client_nrf52840_xxAA_s140_6.0.0.dir/__/__/__/mesh/access/src/device_state_manager.c.obj
                0x00035498                dsm_appkey_delete
 .text.dsm_subnet_delete
                0x000354c4       0x84 examples/light_switch/client/CMakeFiles/light_switch_client_nrf52840_xxAA_s140_6.0.0.dir/__/__/__/mesh/access/src/device_state_manager.c.obj
                0x000354c4                dsm_subnet_delete
 .text.dsm_appkey_get_all
                0x00035548       0x58 examples/light_switch/client/CMakeFiles/light_switch_client_nrf52840_xxAA_s140_6.0.0.dir/__/__/__/mesh/access/src/device_state_manager.c.obj
                0x00035548                dsm_appkey_get_all
 .text.dsm_tx_secmat_get
                0x000355a0       0xa4 examples/light_switch/client/CMakeFiles/light_switch_client_nrf52840_xxAA_s140_6.0.0.dir/__/__/__/mesh/access/src/device_state_manager.c.obj
                0x000355a0                dsm_tx_secmat_get
 .text.dsm_net_secmat_from_keyindex_get
                0x00035644       0x30 examples/light_switch/client/CMakeFiles/light_switch_client_nrf52840_xxAA_s140_6.0.0.dir/__/__/__/mesh/access/src/device_state_manager.c.obj
                0x00035644                dsm_net_secmat_from_keyindex_get
 .text.nrf_mesh_net_secmat_next_get
                0x00035674       0x90 examples/light_switch/client/CMakeFiles/light_switch_client_nrf52840_xxAA_s140_6.0.0.dir/__/__/__/mesh/access/src/device_state_manager.c.obj
                0x00035674                nrf_mesh_net_secmat_next_get
 .text.nrf_mesh_app_secmat_next_get
                0x00035704       0x70 examples/light_switch/client/CMakeFiles/light_switch_client_nrf52840_xxAA_s140_6.0.0.dir/__/__/__/mesh/access/src/device_state_manager.c.obj
                0x00035704                nrf_mesh_app_secmat_next_get
 .text.nrf_mesh_devkey_secmat_get
                0x00035774       0x28 examples/light_switch/client/CMakeFiles/light_switch_client_nrf52840_xxAA_s140_6.0.0.dir/__/__/__/mesh/access/src/device_state_manager.c.obj
                0x00035774                nrf_mesh_devkey_secmat_get
 .text.nrf_mesh_beacon_info_next_get
                0x0003579c       0xb4 examples/light_switch/client/CMakeFiles/light_switch_client_nrf52840_xxAA_s140_6.0.0.dir/__/__/__/mesh/access/src/device_state_manager.c.obj
                0x0003579c                nrf_mesh_beacon_info_next_get
 .text.nrf_mesh_rx_address_get
                0x00035850      0x12c examples/light_switch/client/CMakeFiles/light_switch_client_nrf52840_xxAA_s140_6.0.0.dir/__/__/__/mesh/access/src/device_state_manager.c.obj
                0x00035850                nrf_mesh_rx_address_get
 .text.dsm_address_is_rx
                0x0003597c       0x48 examples/light_switch/client/CMakeFiles/light_switch_client_nrf52840_xxAA_s140_6.0.0.dir/__/__/__/mesh/access/src/device_state_manager.c.obj
                0x0003597c                dsm_address_is_rx
 .text.nrf_mesh_unicast_address_get
                0x000359c4       0x20 examples/light_switch/client/CMakeFiles/light_switch_client_nrf52840_xxAA_s140_6.0.0.dir/__/__/__/mesh/access/src/device_state_manager.c.obj
                0x000359c4                nrf_mesh_unicast_address_get
 .text.complete_provisioning
                0x000359e4       0x24 examples/light_switch/client/CMakeFiles/light_switch_client_nrf52840_xxAA_s140_6.0.0.dir/__/__/__/mesh/prov/src/prov_provisionee.c.obj
 .text.prov_provisionee_cb_link_established
                0x00035a08       0x36 examples/light_switch/client/CMakeFiles/light_switch_client_nrf52840_xxAA_s140_6.0.0.dir/__/__/__/mesh/prov/src/prov_provisionee.c.obj
 .text.prov_provisionee_cb_link_closed
                0x00035a3e       0x34 examples/light_switch/client/CMakeFiles/light_switch_client_nrf52840_xxAA_s140_6.0.0.dir/__/__/__/mesh/prov/src/prov_provisionee.c.obj
 .text.request_authentication
                0x00035a72       0x8a examples/light_switch/client/CMakeFiles/light_switch_client_nrf52840_xxAA_s140_6.0.0.dir/__/__/__/mesh/prov/src/prov_provisionee.c.obj
 .text.send_failed
                0x00035afc       0x3a examples/light_switch/client/CMakeFiles/light_switch_client_nrf52840_xxAA_s140_6.0.0.dir/__/__/__/mesh/prov/src/prov_provisionee.c.obj
 .text.start_authentication
                0x00035b36       0x52 examples/light_switch/client/CMakeFiles/light_switch_client_nrf52840_xxAA_s140_6.0.0.dir/__/__/__/mesh/prov/src/prov_provisionee.c.obj
 .text.prov_provisionee_cb_ack_received
                0x00035b88       0xc8 examples/light_switch/client/CMakeFiles/light_switch_client_nrf52840_xxAA_s140_6.0.0.dir/__/__/__/mesh/prov/src/prov_provisionee.c.obj
 .text.prov_provisionee_pkt_in
                0x00035c50      0x350 examples/light_switch/client/CMakeFiles/light_switch_client_nrf52840_xxAA_s140_6.0.0.dir/__/__/__/mesh/prov/src/prov_provisionee.c.obj
 .text.prov_provisionee_listen
                0x00035fa0       0x30 examples/light_switch/client/CMakeFiles/light_switch_client_nrf52840_xxAA_s140_6.0.0.dir/__/__/__/mesh/prov/src/prov_provisionee.c.obj
                0x00035fa0                prov_provisionee_listen
 .text.prov_provisionee_auth_data
                0x00035fd0       0x98 examples/light_switch/client/CMakeFiles/light_switch_client_nrf52840_xxAA_s140_6.0.0.dir/__/__/__/mesh/prov/src/prov_provisionee.c.obj
                0x00035fd0                prov_provisionee_auth_data
 .text.bearer_compare_callback
                0x00036068        0xc examples/light_switch/client/CMakeFiles/light_switch_client_nrf52840_xxAA_s140_6.0.0.dir/__/__/__/mesh/prov/src/nrf_mesh_prov.c.obj
 .text.bitfield_next_get.part.0.constprop.4
                0x00036074       0x34 examples/light_switch/client/CMakeFiles/light_switch_client_nrf52840_xxAA_s140_6.0.0.dir/__/__/__/mesh/prov/src/nrf_mesh_prov.c.obj
 .text.nrf_mesh_prov_init
                0x000360a8       0x32 examples/light_switch/client/CMakeFiles/light_switch_client_nrf52840_xxAA_s140_6.0.0.dir/__/__/__/mesh/prov/src/nrf_mesh_prov.c.obj
                0x000360a8                nrf_mesh_prov_init
 *fill*         0x000360da        0x2 
 .text.nrf_mesh_prov_bearer_add
                0x000360dc       0x28 examples/light_switch/client/CMakeFiles/light_switch_client_nrf52840_xxAA_s140_6.0.0.dir/__/__/__/mesh/prov/src/nrf_mesh_prov.c.obj
                0x000360dc                nrf_mesh_prov_bearer_add
 .text.nrf_mesh_prov_generate_keys
                0x00036104        0x4 examples/light_switch/client/CMakeFiles/light_switch_client_nrf52840_xxAA_s140_6.0.0.dir/__/__/__/mesh/prov/src/nrf_mesh_prov.c.obj
                0x00036104                nrf_mesh_prov_generate_keys
 .text.nrf_mesh_prov_listen_stop
                0x00036108       0x2e examples/light_switch/client/CMakeFiles/light_switch_client_nrf52840_xxAA_s140_6.0.0.dir/__/__/__/mesh/prov/src/nrf_mesh_prov.c.obj
                0x00036108                nrf_mesh_prov_listen_stop
 .text.nrf_mesh_prov_listen
                0x00036136       0x88 examples/light_switch/client/CMakeFiles/light_switch_client_nrf52840_xxAA_s140_6.0.0.dir/__/__/__/mesh/prov/src/nrf_mesh_prov.c.obj
                0x00036136                nrf_mesh_prov_listen
 .text.nrf_mesh_prov_auth_data_provide
                0x000361be        0xe examples/light_switch/client/CMakeFiles/light_switch_client_nrf52840_xxAA_s140_6.0.0.dir/__/__/__/mesh/prov/src/nrf_mesh_prov.c.obj
                0x000361be                nrf_mesh_prov_auth_data_provide
 .text.send_data
                0x000361cc       0x28 examples/light_switch/client/CMakeFiles/light_switch_client_nrf52840_xxAA_s140_6.0.0.dir/__/__/__/mesh/prov/src/provisioning.c.obj
 .text.prov_packet_length_valid
                0x000361f4       0x1c examples/light_switch/client/CMakeFiles/light_switch_client_nrf52840_xxAA_s140_6.0.0.dir/__/__/__/mesh/prov/src/provisioning.c.obj
                0x000361f4                prov_packet_length_valid
 .text.prov_tx_capabilities
                0x00036210       0x1e examples/light_switch/client/CMakeFiles/light_switch_client_nrf52840_xxAA_s140_6.0.0.dir/__/__/__/mesh/prov/src/provisioning.c.obj
                0x00036210                prov_tx_capabilities
 .text.prov_tx_public_key
                0x0003622e       0x26 examples/light_switch/client/CMakeFiles/light_switch_client_nrf52840_xxAA_s140_6.0.0.dir/__/__/__/mesh/prov/src/provisioning.c.obj
                0x0003622e                prov_tx_public_key
 .text.prov_tx_input_complete
                0x00036254       0x16 examples/light_switch/client/CMakeFiles/light_switch_client_nrf52840_xxAA_s140_6.0.0.dir/__/__/__/mesh/prov/src/provisioning.c.obj
                0x00036254                prov_tx_input_complete
 .text.prov_tx_confirmation
                0x0003626a       0x26 examples/light_switch/client/CMakeFiles/light_switch_client_nrf52840_xxAA_s140_6.0.0.dir/__/__/__/mesh/prov/src/provisioning.c.obj
                0x0003626a                prov_tx_confirmation
 .text.prov_tx_random
                0x00036290       0x26 examples/light_switch/client/CMakeFiles/light_switch_client_nrf52840_xxAA_s140_6.0.0.dir/__/__/__/mesh/prov/src/provisioning.c.obj
                0x00036290                prov_tx_random
 .text.prov_tx_complete
                0x000362b6       0x16 examples/light_switch/client/CMakeFiles/light_switch_client_nrf52840_xxAA_s140_6.0.0.dir/__/__/__/mesh/prov/src/provisioning.c.obj
                0x000362b6                prov_tx_complete
 .text.prov_tx_failed
                0x000362cc       0x1a examples/light_switch/client/CMakeFiles/light_switch_client_nrf52840_xxAA_s140_6.0.0.dir/__/__/__/mesh/prov/src/provisioning.c.obj
                0x000362cc                prov_tx_failed
 .text.prov_beacon_unprov_build
                0x000362e6       0x54 examples/light_switch/client/CMakeFiles/light_switch_client_nrf52840_xxAA_s140_6.0.0.dir/__/__/__/mesh/prov/src/prov_beacon.c.obj
                0x000362e6                prov_beacon_unprov_build
 *fill*         0x0003633a        0x2 
 .text.prov_beacon_unprov_packet_in
                0x0003633c       0x88 examples/light_switch/client/CMakeFiles/light_switch_client_nrf52840_xxAA_s140_6.0.0.dir/__/__/__/mesh/prov/src/prov_beacon.c.obj
                0x0003633c                prov_beacon_unprov_packet_in
 .text.ecdh_offloading_get
                0x000363c4       0x1c examples/light_switch/client/CMakeFiles/light_switch_client_nrf52840_xxAA_s140_6.0.0.dir/__/__/__/mesh/prov/src/prov_utils.c.obj
 .text.ecdh_offloading_set
                0x000363e0       0x1c examples/light_switch/client/CMakeFiles/light_switch_client_nrf52840_xxAA_s140_6.0.0.dir/__/__/__/mesh/prov/src/prov_utils.c.obj
 .text.oob_gen_numeric
                0x000363fc       0x3c examples/light_switch/client/CMakeFiles/light_switch_client_nrf52840_xxAA_s140_6.0.0.dir/__/__/__/mesh/prov/src/prov_utils.c.obj
 .text.oob_gen_alphanumeric
                0x00036438       0x34 examples/light_switch/client/CMakeFiles/light_switch_client_nrf52840_xxAA_s140_6.0.0.dir/__/__/__/mesh/prov/src/prov_utils.c.obj
 .text.prov_utils_authentication_values_derive
                0x0003646c       0xa0 examples/light_switch/client/CMakeFiles/light_switch_client_nrf52840_xxAA_s140_6.0.0.dir/__/__/__/mesh/prov/src/prov_utils.c.obj
                0x0003646c                prov_utils_authentication_values_derive
 .text.prov_utils_keys_generate
                0x0003650c       0x1e examples/light_switch/client/CMakeFiles/light_switch_client_nrf52840_xxAA_s140_6.0.0.dir/__/__/__/mesh/prov/src/prov_utils.c.obj
                0x0003650c                prov_utils_keys_generate
 *fill*         0x0003652a        0x2 
 .text.prov_utils_derive_keys
                0x0003652c       0xac examples/light_switch/client/CMakeFiles/light_switch_client_nrf52840_xxAA_s140_6.0.0.dir/__/__/__/mesh/prov/src/prov_utils.c.obj
                0x0003652c                prov_utils_derive_keys
 .text.prov_utils_calculate_shared_secret
                0x000365d8       0x36 examples/light_switch/client/CMakeFiles/light_switch_client_nrf52840_xxAA_s140_6.0.0.dir/__/__/__/mesh/prov/src/prov_utils.c.obj
                0x000365d8                prov_utils_calculate_shared_secret
 .text.prov_utils_generate_oob_data
                0x0003660e       0x8a examples/light_switch/client/CMakeFiles/light_switch_client_nrf52840_xxAA_s140_6.0.0.dir/__/__/__/mesh/prov/src/prov_utils.c.obj
                0x0003660e                prov_utils_generate_oob_data
 .text.prov_utils_confirmation_check
                0x00036698       0x5c examples/light_switch/client/CMakeFiles/light_switch_client_nrf52840_xxAA_s140_6.0.0.dir/__/__/__/mesh/prov/src/prov_utils.c.obj
                0x00036698                prov_utils_confirmation_check
 .text.mesh_opt_prov_ecdh_offloading_get
                0x000366f4       0x10 examples/light_switch/client/CMakeFiles/light_switch_client_nrf52840_xxAA_s140_6.0.0.dir/__/__/__/mesh/prov/src/prov_utils.c.obj
                0x000366f4                mesh_opt_prov_ecdh_offloading_get
 .text.prov_utils_use_ecdh_offloading
                0x00036704       0x1c examples/light_switch/client/CMakeFiles/light_switch_client_nrf52840_xxAA_s140_6.0.0.dir/__/__/__/mesh/prov/src/prov_utils.c.obj
                0x00036704                prov_utils_use_ecdh_offloading
 .text.link_timeout_cb
                0x00036720       0x10 examples/light_switch/client/CMakeFiles/light_switch_client_nrf52840_xxAA_s140_6.0.0.dir/__/__/__/mesh/prov/src/prov_bearer_adv.c.obj
 .text.remove_active_bearer
                0x00036730       0x4c examples/light_switch/client/CMakeFiles/light_switch_client_nrf52840_xxAA_s140_6.0.0.dir/__/__/__/mesh/prov/src/prov_bearer_adv.c.obj
 .text.close_link
                0x0003677c       0x58 examples/light_switch/client/CMakeFiles/light_switch_client_nrf52840_xxAA_s140_6.0.0.dir/__/__/__/mesh/prov/src/prov_bearer_adv.c.obj
 .text.prov_bearer_adv_listen_stop
                0x000367d4       0x30 examples/light_switch/client/CMakeFiles/light_switch_client_nrf52840_xxAA_s140_6.0.0.dir/__/__/__/mesh/prov/src/prov_bearer_adv.c.obj
 .text.send_packet
                0x00036804       0x5e examples/light_switch/client/CMakeFiles/light_switch_client_nrf52840_xxAA_s140_6.0.0.dir/__/__/__/mesh/prov/src/prov_bearer_adv.c.obj
 .text.prov_buffer_tx
                0x00036862      0x134 examples/light_switch/client/CMakeFiles/light_switch_client_nrf52840_xxAA_s140_6.0.0.dir/__/__/__/mesh/prov/src/prov_bearer_adv.c.obj
 .text.send_link_close
                0x00036996       0x38 examples/light_switch/client/CMakeFiles/light_switch_client_nrf52840_xxAA_s140_6.0.0.dir/__/__/__/mesh/prov/src/prov_bearer_adv.c.obj
 .text.prov_bearer_adv_link_close
                0x000369ce       0x56 examples/light_switch/client/CMakeFiles/light_switch_client_nrf52840_xxAA_s140_6.0.0.dir/__/__/__/mesh/prov/src/prov_bearer_adv.c.obj
 .text.send_transaction_ack
                0x00036a24       0x24 examples/light_switch/client/CMakeFiles/light_switch_client_nrf52840_xxAA_s140_6.0.0.dir/__/__/__/mesh/prov/src/prov_bearer_adv.c.obj
 .text.send_link_ack
                0x00036a48       0x32 examples/light_switch/client/CMakeFiles/light_switch_client_nrf52840_xxAA_s140_6.0.0.dir/__/__/__/mesh/prov/src/prov_bearer_adv.c.obj
 .text.reset_timeout_timer
                0x00036a7a       0x1a examples/light_switch/client/CMakeFiles/light_switch_client_nrf52840_xxAA_s140_6.0.0.dir/__/__/__/mesh/prov/src/prov_bearer_adv.c.obj
 .text.init_bearer_structure
                0x00036a94       0x5c examples/light_switch/client/CMakeFiles/light_switch_client_nrf52840_xxAA_s140_6.0.0.dir/__/__/__/mesh/prov/src/prov_bearer_adv.c.obj
 .text.tx_complete_cb
                0x00036af0       0x1c examples/light_switch/client/CMakeFiles/light_switch_client_nrf52840_xxAA_s140_6.0.0.dir/__/__/__/mesh/prov/src/prov_bearer_adv.c.obj
 .text.tx_retry_cb
                0x00036b0c       0xcc examples/light_switch/client/CMakeFiles/light_switch_client_nrf52840_xxAA_s140_6.0.0.dir/__/__/__/mesh/prov/src/prov_bearer_adv.c.obj
 .text.add_active_bearer
                0x00036bd8       0x80 examples/light_switch/client/CMakeFiles/light_switch_client_nrf52840_xxAA_s140_6.0.0.dir/__/__/__/mesh/prov/src/prov_bearer_adv.c.obj
 .text.prov_bearer_adv_link_open
                0x00036c58       0x9c examples/light_switch/client/CMakeFiles/light_switch_client_nrf52840_xxAA_s140_6.0.0.dir/__/__/__/mesh/prov/src/prov_bearer_adv.c.obj
 .text.prov_bearer_adv_listen
                0x00036cf4       0x86 examples/light_switch/client/CMakeFiles/light_switch_client_nrf52840_xxAA_s140_6.0.0.dir/__/__/__/mesh/prov/src/prov_bearer_adv.c.obj
 *fill*         0x00036d7a        0x2 
 .text.async_process
                0x00036d7c       0x50 examples/light_switch/client/CMakeFiles/light_switch_client_nrf52840_xxAA_s140_6.0.0.dir/__/__/__/mesh/prov/src/prov_bearer_adv.c.obj
 .text.calculate_3GPP_CRC
                0x00036dcc       0x24 examples/light_switch/client/CMakeFiles/light_switch_client_nrf52840_xxAA_s140_6.0.0.dir/__/__/__/mesh/prov/src/prov_bearer_adv.c.obj
                0x00036dcc                calculate_3GPP_CRC
 .text.prov_bearer_adv_tx
                0x00036df0       0xb4 examples/light_switch/client/CMakeFiles/light_switch_client_nrf52840_xxAA_s140_6.0.0.dir/__/__/__/mesh/prov/src/prov_bearer_adv.c.obj
 .text.prov_buffer_rx
                0x00036ea4       0x6e examples/light_switch/client/CMakeFiles/light_switch_client_nrf52840_xxAA_s140_6.0.0.dir/__/__/__/mesh/prov/src/prov_bearer_adv.c.obj
 *fill*         0x00036f12        0x2 
 .text.nrf_mesh_prov_bearer_adv_interface_get
                0x00036f14       0x3c examples/light_switch/client/CMakeFiles/light_switch_client_nrf52840_xxAA_s140_6.0.0.dir/__/__/__/mesh/prov/src/prov_bearer_adv.c.obj
                0x00036f14                nrf_mesh_prov_bearer_adv_interface_get
 .text.prov_bearer_adv_packet_in
                0x00036f50      0x7f8 examples/light_switch/client/CMakeFiles/light_switch_client_nrf52840_xxAA_s140_6.0.0.dir/__/__/__/mesh/prov/src/prov_bearer_adv.c.obj
                0x00036f50                prov_bearer_adv_packet_in
 .text.errata_120
                0x00037748       0x20 examples/light_switch/client/CMakeFiles/light_switch_client_nrf52840_xxAA_s140_6.0.0.dir/C_/sdks/nRF5_SDK_15.0.0_a53641a/modules/nrfx/mdk/system_nrf52840.c.obj
 .text.SystemInit
                0x00037768      0x1b8 examples/light_switch/client/CMakeFiles/light_switch_client_nrf52840_xxAA_s140_6.0.0.dir/C_/sdks/nRF5_SDK_15.0.0_a53641a/modules/nrfx/mdk/system_nrf52840.c.obj
                0x00037768                SystemInit
 .text          0x00037920       0x3c examples/light_switch/client/CMakeFiles/light_switch_client_nrf52840_xxAA_s140_6.0.0.dir/C_/sdks/nRF5_SDK_15.0.0_a53641a/modules/nrfx/mdk/gcc_startup_nrf52840.S.obj
                0x00037920                Reset_Handler
                0x00037948                NMI_Handler
                0x0003794a                HardFault_Handler
                0x0003794c                MemoryManagement_Handler
                0x0003794e                BusFault_Handler
                0x00037950                UsageFault_Handler
                0x00037952                SVC_Handler
                0x00037954                DebugMon_Handler
                0x00037956                PendSV_Handler
                0x00037958                SysTick_Handler
                0x0003795a                TEMP_IRQHandler
                0x0003795a                TIMER3_IRQHandler
                0x0003795a                PWM3_IRQHandler
                0x0003795a                FPU_IRQHandler
                0x0003795a                USBD_IRQHandler
                0x0003795a                SPIM0_SPIS0_TWIM0_TWIS0_SPI0_TWI0_IRQHandler
                0x0003795a                PDM_IRQHandler
                0x0003795a                UARTE0_UART0_IRQHandler
                0x0003795a                TIMER4_IRQHandler
                0x0003795a                CRYPTOCELL_IRQHandler
                0x0003795a                I2S_IRQHandler
                0x0003795a                SWI4_EGU4_IRQHandler
                0x0003795a                TIMER0_IRQHandler
                0x0003795a                RTC0_IRQHandler
                0x0003795a                POWER_CLOCK_IRQHandler
                0x0003795a                TIMER1_IRQHandler
                0x0003795a                SPIM3_IRQHandler
                0x0003795a                PWM2_IRQHandler
                0x0003795a                ECB_IRQHandler
                0x0003795a                SPIM1_SPIS1_TWIM1_TWIS1_SPI1_TWI1_IRQHandler
                0x0003795a                Default_Handler
                0x0003795a                SAADC_IRQHandler
                0x0003795a                CCM_AAR_IRQHandler
                0x0003795a                WDT_IRQHandler
                0x0003795a                RADIO_IRQHandler
                0x0003795a                SWI5_EGU5_IRQHandler
                0x0003795a                RNG_IRQHandler
                0x0003795a                RTC2_IRQHandler
                0x0003795a                PWM0_IRQHandler
                0x0003795a                SWI3_EGU3_IRQHandler
                0x0003795a                SWI1_EGU1_IRQHandler
                0x0003795a                SPIM2_SPIS2_SPI2_IRQHandler
                0x0003795a                NFCT_IRQHandler
                0x0003795a                UARTE1_IRQHandler
                0x0003795a                MWU_IRQHandler
                0x0003795a                PWM1_IRQHandler
                0x0003795a                QSPI_IRQHandler
                0x0003795a                COMP_LPCOMP_IRQHandler
 .text.app_error_handler_bare
                0x0003795c       0x1a examples/light_switch/client/CMakeFiles/light_switch_client_nrf52840_xxAA_s140_6.0.0.dir/C_/sdks/nRF5_SDK_15.0.0_a53641a/components/libraries/util/app_error.c.obj
                0x0003795c                app_error_handler_bare
 *fill*         0x00037976        0x2 
 .text.app_util_critical_region_enter
                0x00037978       0x48 examples/light_switch/client/CMakeFiles/light_switch_client_nrf52840_xxAA_s140_6.0.0.dir/C_/sdks/nRF5_SDK_15.0.0_a53641a/components/libraries/util/app_util_platform.c.obj
                0x00037978                app_util_critical_region_enter
 .text.app_util_critical_region_exit
                0x000379c0       0x2c examples/light_switch/client/CMakeFiles/light_switch_client_nrf52840_xxAA_s140_6.0.0.dir/C_/sdks/nRF5_SDK_15.0.0_a53641a/components/libraries/util/app_util_platform.c.obj
                0x000379c0                app_util_critical_region_exit
 .text.user_op_alloc
                0x000379ec       0x2c examples/light_switch/client/CMakeFiles/light_switch_client_nrf52840_xxAA_s140_6.0.0.dir/C_/sdks/nRF5_SDK_15.0.0_a53641a/components/libraries/timer/app_timer.c.obj
 .text.timer_stop_op_schedule
                0x00037a18       0x50 examples/light_switch/client/CMakeFiles/light_switch_client_nrf52840_xxAA_s140_6.0.0.dir/C_/sdks/nRF5_SDK_15.0.0_a53641a/components/libraries/timer/app_timer.c.obj
 .text.nrfx_coredep_delay_us.part.0.constprop.4
                0x00037a68       0x10 examples/light_switch/client/CMakeFiles/light_switch_client_nrf52840_xxAA_s140_6.0.0.dir/C_/sdks/nRF5_SDK_15.0.0_a53641a/components/libraries/timer/app_timer.c.obj
 .text.rtc1_stop
                0x00037a78       0x44 examples/light_switch/client/CMakeFiles/light_switch_client_nrf52840_xxAA_s140_6.0.0.dir/C_/sdks/nRF5_SDK_15.0.0_a53641a/components/libraries/timer/app_timer.c.obj
 .text.RTC1_IRQHandler
                0x00037abc       0x9c examples/light_switch/client/CMakeFiles/light_switch_client_nrf52840_xxAA_s140_6.0.0.dir/C_/sdks/nRF5_SDK_15.0.0_a53641a/components/libraries/timer/app_timer.c.obj
                0x00037abc                RTC1_IRQHandler
 .text.SWI0_EGU0_IRQHandler
                0x00037b58      0x2a4 examples/light_switch/client/CMakeFiles/light_switch_client_nrf52840_xxAA_s140_6.0.0.dir/C_/sdks/nRF5_SDK_15.0.0_a53641a/components/libraries/timer/app_timer.c.obj
                0x00037b58                SWI0_EGU0_IRQHandler
 .text.app_timer_init
                0x00037dfc       0x64 examples/light_switch/client/CMakeFiles/light_switch_client_nrf52840_xxAA_s140_6.0.0.dir/C_/sdks/nRF5_SDK_15.0.0_a53641a/components/libraries/timer/app_timer.c.obj
                0x00037dfc                app_timer_init
 .text.app_timer_create
                0x00037e60       0x24 examples/light_switch/client/CMakeFiles/light_switch_client_nrf52840_xxAA_s140_6.0.0.dir/C_/sdks/nRF5_SDK_15.0.0_a53641a/components/libraries/timer/app_timer.c.obj
                0x00037e60                app_timer_create
 .text.app_timer_start
                0x00037e84       0x8c examples/light_switch/client/CMakeFiles/light_switch_client_nrf52840_xxAA_s140_6.0.0.dir/C_/sdks/nRF5_SDK_15.0.0_a53641a/components/libraries/timer/app_timer.c.obj
                0x00037e84                app_timer_start
 .text.app_timer_stop
                0x00037f10       0x20 examples/light_switch/client/CMakeFiles/light_switch_client_nrf52840_xxAA_s140_6.0.0.dir/C_/sdks/nRF5_SDK_15.0.0_a53641a/components/libraries/timer/app_timer.c.obj
                0x00037f10                app_timer_stop
 .text.app_error_handler
                0x00037f30       0x1a examples/light_switch/client/CMakeFiles/light_switch_client_nrf52840_xxAA_s140_6.0.0.dir/C_/sdks/nRF5_SDK_15.0.0_a53641a/components/libraries/util/app_error_handler_gcc.c.obj
                0x00037f30                app_error_handler
 .text._GetAvailWriteSpace
                0x00037f4a       0x1c external/rtt/librtt_nrf52840_xxAA.a(SEGGER_RTT.c.obj)
 .text._WriteNoCheck
                0x00037f66       0x3c external/rtt/librtt_nrf52840_xxAA.a(SEGGER_RTT.c.obj)
 .text._WriteBlocking
                0x00037fa2       0x52 external/rtt/librtt_nrf52840_xxAA.a(SEGGER_RTT.c.obj)
 .text._DoInit  0x00037ff4       0x60 external/rtt/librtt_nrf52840_xxAA.a(SEGGER_RTT.c.obj)
 .text.SEGGER_RTT_ReadNoLock
                0x00038054       0x88 external/rtt/librtt_nrf52840_xxAA.a(SEGGER_RTT.c.obj)
                0x00038054                SEGGER_RTT_ReadNoLock
 .text.SEGGER_RTT_Read
                0x000380dc       0x1c external/rtt/librtt_nrf52840_xxAA.a(SEGGER_RTT.c.obj)
                0x000380dc                SEGGER_RTT_Read
 .text.SEGGER_RTT_WriteNoLock
                0x000380f8       0x68 external/rtt/librtt_nrf52840_xxAA.a(SEGGER_RTT.c.obj)
                0x000380f8                SEGGER_RTT_WriteNoLock
 .text.SEGGER_RTT_Write
                0x00038160       0x34 external/rtt/librtt_nrf52840_xxAA.a(SEGGER_RTT.c.obj)
                0x00038160                SEGGER_RTT_Write
 .text.SEGGER_RTT_GetKey
                0x00038194       0x20 external/rtt/librtt_nrf52840_xxAA.a(SEGGER_RTT.c.obj)
                0x00038194                SEGGER_RTT_GetKey
 .text._StoreChar
                0x000381b4       0x3e external/rtt/librtt_nrf52840_xxAA.a(SEGGER_RTT_printf.c.obj)
 *fill*         0x000381f2        0x2 
 .text._PrintUnsigned
                0x000381f4       0xd0 external/rtt/librtt_nrf52840_xxAA.a(SEGGER_RTT_printf.c.obj)
 .text.SEGGER_RTT_vprintf
                0x000382c4      0x246 external/rtt/librtt_nrf52840_xxAA.a(SEGGER_RTT_printf.c.obj)
                0x000382c4                SEGGER_RTT_vprintf
 .text.SEGGER_RTT_printf
                0x0003850a       0x1e external/rtt/librtt_nrf52840_xxAA.a(SEGGER_RTT_printf.c.obj)
                0x0003850a                SEGGER_RTT_printf
 .text.uECC_vli_mult
                0x00038528       0x64 external/micro-ecc/libuECC_nrf52840_xxAA.a(uECC.c.obj)
 .text.uECC_vli_clear
                0x0003858c       0x16 external/micro-ecc/libuECC_nrf52840_xxAA.a(uECC.c.obj)
 .text.uECC_vli_isZero
                0x000385a2       0x1e external/micro-ecc/libuECC_nrf52840_xxAA.a(uECC.c.obj)
 .text.uECC_vli_testBit
                0x000385c0       0x14 external/micro-ecc/libuECC_nrf52840_xxAA.a(uECC.c.obj)
 .text.uECC_vli_numBits
                0x000385d4       0x3a external/micro-ecc/libuECC_nrf52840_xxAA.a(uECC.c.obj)
 .text.uECC_vli_set
                0x0003860e       0x18 external/micro-ecc/libuECC_nrf52840_xxAA.a(uECC.c.obj)
 .text.uECC_vli_cmp_unsafe
                0x00038626       0x28 external/micro-ecc/libuECC_nrf52840_xxAA.a(uECC.c.obj)
 .text.uECC_vli_rshift1
                0x0003864e       0x1c external/micro-ecc/libuECC_nrf52840_xxAA.a(uECC.c.obj)
 .text.uECC_vli_modMult_fast
                0x0003866a       0x20 external/micro-ecc/libuECC_nrf52840_xxAA.a(uECC.c.obj)
 .text.uECC_vli_modSquare_fast
                0x0003868a        0x8 external/micro-ecc/libuECC_nrf52840_xxAA.a(uECC.c.obj)
 .text.apply_z  0x00038692       0x3e external/micro-ecc/libuECC_nrf52840_xxAA.a(uECC.c.obj)
 .text.uECC_vli_nativeToBytes
                0x000386d0       0x28 external/micro-ecc/libuECC_nrf52840_xxAA.a(uECC.c.obj)
 .text.uECC_vli_bytesToNative
                0x000386f8       0x40 external/micro-ecc/libuECC_nrf52840_xxAA.a(uECC.c.obj)
 .text.default_RNG
                0x00038738        0xc external/micro-ecc/libuECC_nrf52840_xxAA.a(uECC.c.obj)
 .text.uECC_vli_add.isra.0
                0x00038744       0x4a external/micro-ecc/libuECC_nrf52840_xxAA.a(uECC.c.obj)
 .text.regularize_k
                0x0003878e       0x50 external/micro-ecc/libuECC_nrf52840_xxAA.a(uECC.c.obj)
 .text.uECC_vli_sub.isra.1
                0x000387de       0x4e external/micro-ecc/libuECC_nrf52840_xxAA.a(uECC.c.obj)
 .text.uECC_vli_cmp
                0x0003882c       0x30 external/micro-ecc/libuECC_nrf52840_xxAA.a(uECC.c.obj)
 .text.uECC_generate_random_int
                0x0003885c       0x78 external/micro-ecc/libuECC_nrf52840_xxAA.a(uECC.c.obj)
 .text.uECC_vli_modAdd
                0x000388d4       0x2e external/micro-ecc/libuECC_nrf52840_xxAA.a(uECC.c.obj)
 *fill*         0x00038902        0x2 
 .text.vli_mmod_fast_secp256r1
                0x00038904      0x194 external/micro-ecc/libuECC_nrf52840_xxAA.a(uECC.c.obj)
 .text.uECC_vli_modSub.isra.2
                0x00038a98       0x1c external/micro-ecc/libuECC_nrf52840_xxAA.a(uECC.c.obj)
 .text.double_jacobian_default
                0x00038ab4      0x14a external/micro-ecc/libuECC_nrf52840_xxAA.a(uECC.c.obj)
 .text.x_side_default
                0x00038bfe       0x5a external/micro-ecc/libuECC_nrf52840_xxAA.a(uECC.c.obj)
 .text.XYcZ_add
                0x00038c58       0xbc external/micro-ecc/libuECC_nrf52840_xxAA.a(uECC.c.obj)
 .text.XYcZ_addC
                0x00038d14      0x10a external/micro-ecc/libuECC_nrf52840_xxAA.a(uECC.c.obj)
 .text.vli_modInv_update
                0x00038e1e       0x36 external/micro-ecc/libuECC_nrf52840_xxAA.a(uECC.c.obj)
 .text.uECC_vli_modInv
                0x00038e54      0x102 external/micro-ecc/libuECC_nrf52840_xxAA.a(uECC.c.obj)
 .text.EccPoint_mult
                0x00038f56      0x19e external/micro-ecc/libuECC_nrf52840_xxAA.a(uECC.c.obj)
 .text.EccPoint_compute_public_key
                0x000390f4       0x54 external/micro-ecc/libuECC_nrf52840_xxAA.a(uECC.c.obj)
 .text.uECC_secp256r1
                0x00039148        0x8 external/micro-ecc/libuECC_nrf52840_xxAA.a(uECC.c.obj)
                0x00039148                uECC_secp256r1
 .text.uECC_make_key
                0x00039150       0x7e external/micro-ecc/libuECC_nrf52840_xxAA.a(uECC.c.obj)
                0x00039150                uECC_make_key
 *fill*         0x000391ce        0x2 
 .text.uECC_shared_secret
                0x000391d0       0xbc external/micro-ecc/libuECC_nrf52840_xxAA.a(uECC.c.obj)
                0x000391d0                uECC_shared_secret
 .text.uECC_valid_point
                0x0003928c       0x86 external/micro-ecc/libuECC_nrf52840_xxAA.a(uECC.c.obj)
                0x0003928c                uECC_valid_point
 .text.uECC_valid_public_key
                0x00039312       0x32 external/micro-ecc/libuECC_nrf52840_xxAA.a(uECC.c.obj)
                0x00039312                uECC_valid_public_key
 .text          0x00039344       0x30 c:/arm_gcc/bin/../lib/gcc/arm-none-eabi/6.3.1/thumb/v7e-m/fpv4-sp/hard\libgcc.a(_aeabi_uldivmod.o)
                0x00039344                __aeabi_uldivmod
 .text          0x00039374      0x2dc c:/arm_gcc/bin/../lib/gcc/arm-none-eabi/6.3.1/thumb/v7e-m/fpv4-sp/hard\libgcc.a(_udivmoddi4.o)
                0x00039374                __udivmoddi4
 .text          0x00039650        0x4 c:/arm_gcc/bin/../lib/gcc/arm-none-eabi/6.3.1/thumb/v7e-m/fpv4-sp/hard\libgcc.a(_dvmd_tls.o)
                0x00039650                __aeabi_idiv0
                0x00039650                __aeabi_ldiv0
 .text.exit     0x00039654       0x28 c:/arm_gcc/bin/../lib/gcc/arm-none-eabi/6.3.1/../../../../arm-none-eabi/lib/thumb/v7e-m/fpv4-sp/hard\libg_nano.a(lib_a-exit.o)
                0x00039654                exit
 .text.__libc_init_array
                0x0003967c       0x48 c:/arm_gcc/bin/../lib/gcc/arm-none-eabi/6.3.1/../../../../arm-none-eabi/lib/thumb/v7e-m/fpv4-sp/hard\libg_nano.a(lib_a-init.o)
                0x0003967c                __libc_init_array
 .text.malloc   0x000396c4       0x10 c:/arm_gcc/bin/../lib/gcc/arm-none-eabi/6.3.1/../../../../arm-none-eabi/lib/thumb/v7e-m/fpv4-sp/hard\libg_nano.a(lib_a-malloc.o)
                0x000396c4                malloc
 .text.free     0x000396d4       0x10 c:/arm_gcc/bin/../lib/gcc/arm-none-eabi/6.3.1/../../../../arm-none-eabi/lib/thumb/v7e-m/fpv4-sp/hard\libg_nano.a(lib_a-malloc.o)
                0x000396d4                free
 .text.memcmp   0x000396e4       0x1e c:/arm_gcc/bin/../lib/gcc/arm-none-eabi/6.3.1/../../../../arm-none-eabi/lib/thumb/v7e-m/fpv4-sp/hard\libg_nano.a(lib_a-memcmp.o)
                0x000396e4                memcmp
 .text.memcpy   0x00039702       0x16 c:/arm_gcc/bin/../lib/gcc/arm-none-eabi/6.3.1/../../../../arm-none-eabi/lib/thumb/v7e-m/fpv4-sp/hard\libg_nano.a(lib_a-memcpy-stub.o)
                0x00039702                memcpy
 .text.memset   0x00039718       0x10 c:/arm_gcc/bin/../lib/gcc/arm-none-eabi/6.3.1/../../../../arm-none-eabi/lib/thumb/v7e-m/fpv4-sp/hard\libg_nano.a(lib_a-memset.o)
                0x00039718                memset
 .text._free_r  0x00039728       0x9c c:/arm_gcc/bin/../lib/gcc/arm-none-eabi/6.3.1/../../../../arm-none-eabi/lib/thumb/v7e-m/fpv4-sp/hard\libg_nano.a(lib_a-nano-freer.o)
                0x00039728                _free_r
 .text._malloc_r
                0x000397c4       0xbc c:/arm_gcc/bin/../lib/gcc/arm-none-eabi/6.3.1/../../../../arm-none-eabi/lib/thumb/v7e-m/fpv4-sp/hard\libg_nano.a(lib_a-nano-mallocr.o)
                0x000397c4                _malloc_r
 .text._sbrk_r  0x00039880       0x20 c:/arm_gcc/bin/../lib/gcc/arm-none-eabi/6.3.1/../../../../arm-none-eabi/lib/thumb/v7e-m/fpv4-sp/hard\libg_nano.a(lib_a-sbrkr.o)
                0x00039880                _sbrk_r
 .text.strcpy   0x000398a0       0x10 c:/arm_gcc/bin/../lib/gcc/arm-none-eabi/6.3.1/../../../../arm-none-eabi/lib/thumb/v7e-m/fpv4-sp/hard\libg_nano.a(lib_a-strcpy.o)
                0x000398a0                strcpy
 .text          0x000398b0       0x10 c:/arm_gcc/bin/../lib/gcc/arm-none-eabi/6.3.1/../../../../arm-none-eabi/lib/thumb/v7e-m/fpv4-sp/hard\libg_nano.a(lib_a-strlen.o)
                0x000398b0                strlen
 .text.strrchr  0x000398c0       0x26 c:/arm_gcc/bin/../lib/gcc/arm-none-eabi/6.3.1/../../../../arm-none-eabi/lib/thumb/v7e-m/fpv4-sp/hard\libg_nano.a(lib_a-strrchr.o)
                0x000398c0                strrchr
 .text.__malloc_lock
                0x000398e6        0x2 c:/arm_gcc/bin/../lib/gcc/arm-none-eabi/6.3.1/../../../../arm-none-eabi/lib/thumb/v7e-m/fpv4-sp/hard\libg_nano.a(lib_a-mlock.o)
                0x000398e6                __malloc_lock
 .text.__malloc_unlock
                0x000398e8        0x2 c:/arm_gcc/bin/../lib/gcc/arm-none-eabi/6.3.1/../../../../arm-none-eabi/lib/thumb/v7e-m/fpv4-sp/hard\libg_nano.a(lib_a-mlock.o)
                0x000398e8                __malloc_unlock
 .text.strchr   0x000398ea       0x1c c:/arm_gcc/bin/../lib/gcc/arm-none-eabi/6.3.1/../../../../arm-none-eabi/lib/thumb/v7e-m/fpv4-sp/hard\libg_nano.a(lib_a-strchr.o)
                0x000398ea                strchr
 *fill*         0x00039906        0x2 
 .text._sbrk    0x00039908       0x1c c:/arm_gcc/bin/../lib/gcc/arm-none-eabi/6.3.1/../../../../arm-none-eabi/lib/thumb/v7e-m/fpv4-sp/hard\libnosys.a(sbrk.o)
                0x00039908                _sbrk
 .text._exit    0x00039924        0x4 c:/arm_gcc/bin/../lib/gcc/arm-none-eabi/6.3.1/../../../../arm-none-eabi/lib/thumb/v7e-m/fpv4-sp/hard\libnosys.a(_exit.o)
                0x00039924                _exit
 *(.init)
 .init          0x00039928        0x4 c:/arm_gcc/bin/../lib/gcc/arm-none-eabi/6.3.1/thumb/v7e-m/fpv4-sp/hard/crti.o
                0x00039928                _init
 .init          0x0003992c        0x8 c:/arm_gcc/bin/../lib/gcc/arm-none-eabi/6.3.1/thumb/v7e-m/fpv4-sp/hard/crtn.o
 *(.fini)
 .fini          0x00039934        0x4 c:/arm_gcc/bin/../lib/gcc/arm-none-eabi/6.3.1/thumb/v7e-m/fpv4-sp/hard/crti.o
                0x00039934                _fini
 .fini          0x00039938        0x8 c:/arm_gcc/bin/../lib/gcc/arm-none-eabi/6.3.1/thumb/v7e-m/fpv4-sp/hard/crtn.o
 *crtbegin.o(.ctors)
 *crtbegin?.o(.ctors)
 *(EXCLUDE_FILE(*crtend.o *crtend?.o) .ctors)
 *(SORT(.ctors.*))
 *(.ctors)
 *crtbegin.o(.dtors)
 *crtbegin?.o(.dtors)
 *(EXCLUDE_FILE(*crtend.o *crtend?.o) .dtors)
 *(SORT(.dtors.*))
 *(.dtors)
 *(.rodata*)
 .rodata        0x00039940        0xc examples/light_switch/client/CMakeFiles/light_switch_client_nrf52840_xxAA_s140_6.0.0.dir/src/main.c.obj
 .rodata.app_gen_onoff_client_publish_interval_cb.str1.1
                0x0003994c       0x1f examples/light_switch/client/CMakeFiles/light_switch_client_nrf52840_xxAA_s140_6.0.0.dir/src/main.c.obj
 .rodata.app_gen_onoff_client_transaction_status_cb.str1.1
                0x0003996b       0x62 examples/light_switch/client/CMakeFiles/light_switch_client_nrf52840_xxAA_s140_6.0.0.dir/src/main.c.obj
 .rodata.app_generic_onoff_client_status_cb.str1.1
                0x000399cd       0xa6 examples/light_switch/client/CMakeFiles/light_switch_client_nrf52840_xxAA_s140_6.0.0.dir/src/main.c.obj
 .rodata.button_event_handler.str1.1
                0x00039a73       0x6f examples/light_switch/client/CMakeFiles/light_switch_client_nrf52840_xxAA_s140_6.0.0.dir/src/main.c.obj
 *fill*         0x00039ae2        0x2 
 .rodata.client_cbs
                0x00039ae4        0xc examples/light_switch/client/CMakeFiles/light_switch_client_nrf52840_xxAA_s140_6.0.0.dir/src/main.c.obj
                0x00039ae4                client_cbs
 .rodata.config_server_evt_cb.str1.1
                0x00039af0       0x19 examples/light_switch/client/CMakeFiles/light_switch_client_nrf52840_xxAA_s140_6.0.0.dir/src/main.c.obj
 .rodata.main.str1.1
                0x00039b09       0x44 examples/light_switch/client/CMakeFiles/light_switch_client_nrf52840_xxAA_s140_6.0.0.dir/src/main.c.obj
 .rodata.models_init_cb.str1.1
                0x00039b4d       0x20 examples/light_switch/client/CMakeFiles/light_switch_client_nrf52840_xxAA_s140_6.0.0.dir/src/main.c.obj
 .rodata.provisioning_complete_cb.str1.1
                0x00039b6d       0x31 examples/light_switch/client/CMakeFiles/light_switch_client_nrf52840_xxAA_s140_6.0.0.dir/src/main.c.obj
 .rodata.static_auth_data.12554
                0x00039b9e       0x10 examples/light_switch/client/CMakeFiles/light_switch_client_nrf52840_xxAA_s140_6.0.0.dir/src/main.c.obj
 .rodata.mesh_softdevice_init.str1.1
                0x00039bae       0x94 examples/light_switch/client/CMakeFiles/light_switch_client_nrf52840_xxAA_s140_6.0.0.dir/__/__/common/src/mesh_softdevice_init.c.obj
 .rodata        0x00039c42        0xb examples/light_switch/client/CMakeFiles/light_switch_client_nrf52840_xxAA_s140_6.0.0.dir/__/__/common/src/mesh_provisionee.c.obj
 *fill*         0x00039c4d        0x3 
 .rodata.m_rtt_timer
                0x00039c50        0x4 examples/light_switch/client/CMakeFiles/light_switch_client_nrf52840_xxAA_s140_6.0.0.dir/__/__/common/src/rtt_input.c.obj
 .rodata.rtt_input_enable.str1.1
                0x00039c54       0x23 examples/light_switch/client/CMakeFiles/light_switch_client_nrf52840_xxAA_s140_6.0.0.dir/__/__/common/src/rtt_input.c.obj
 *fill*         0x00039c77        0x1 
 .rodata.m_blink_timer
                0x00039c78        0x4 examples/light_switch/client/CMakeFiles/light_switch_client_nrf52840_xxAA_s140_6.0.0.dir/__/__/common/src/simple_hal.c.obj
 .rodata.m_buttons_list
                0x00039c7c        0x4 examples/light_switch/client/CMakeFiles/light_switch_client_nrf52840_xxAA_s140_6.0.0.dir/__/__/common/src/simple_hal.c.obj
 .rodata.app_error_fault_handler.str1.1
                0x00039c80       0xbd examples/light_switch/client/CMakeFiles/light_switch_client_nrf52840_xxAA_s140_6.0.0.dir/__/__/common/src/app_error_weak.c.obj
 .rodata.mesh_assertion_handler.str1.1
                0x00039d3d       0xbd examples/light_switch/client/CMakeFiles/light_switch_client_nrf52840_xxAA_s140_6.0.0.dir/__/__/common/src/assertion_handler_weak.c.obj
                                  0x1 (size before relaxing)
 .rodata.sar_ctx_cancel.str1.1
                0x00039d3d       0x23 examples/light_switch/client/CMakeFiles/light_switch_client_nrf52840_xxAA_s140_6.0.0.dir/__/__/__/mesh/core/src/transport.c.obj
 .rodata.test_transport_decrypt.str1.1
                0x00039d60       0x30 examples/light_switch/client/CMakeFiles/light_switch_client_nrf52840_xxAA_s140_6.0.0.dir/__/__/__/mesh/core/src/transport.c.obj
 .rodata.transport_packet_in.str1.1
                0x00039d90       0x24 examples/light_switch/client/CMakeFiles/light_switch_client_nrf52840_xxAA_s140_6.0.0.dir/__/__/__/mesh/core/src/transport.c.obj
 .rodata.upper_transport_access_packet_in.str1.1
                0x00039db4       0x29 examples/light_switch/client/CMakeFiles/light_switch_client_nrf52840_xxAA_s140_6.0.0.dir/__/__/__/mesh/core/src/transport.c.obj
 .rodata.upper_transport_packet_in.str1.1
                0x00039ddd       0x2e examples/light_switch/client/CMakeFiles/light_switch_client_nrf52840_xxAA_s140_6.0.0.dir/__/__/__/mesh/core/src/transport.c.obj
 .rodata.upper_transport_tx.str1.1
                0x00039e0b        0xe examples/light_switch/client/CMakeFiles/light_switch_client_nrf52840_xxAA_s140_6.0.0.dir/__/__/__/mesh/core/src/transport.c.obj
                                 0x16 (size before relaxing)
 *fill*         0x00039e19        0x3 
 .rodata.m_procedure_steps
                0x00039e1c       0x28 examples/light_switch/client/CMakeFiles/light_switch_client_nrf52840_xxAA_s140_6.0.0.dir/__/__/__/mesh/core/src/flash_manager_defrag.c.obj
 .rodata.m_all_operations
                0x00039e44       0x10 examples/light_switch/client/CMakeFiles/light_switch_client_nrf52840_xxAA_s140_6.0.0.dir/__/__/__/mesh/core/src/mesh_flash.c.obj
 .rodata.types_lookup.9494
                0x00039e54        0x4 examples/light_switch/client/CMakeFiles/light_switch_client_nrf52840_xxAA_s140_6.0.0.dir/__/__/__/mesh/core/src/nrf_mesh_utils.c.obj
 .rodata.__func__.12409
                0x00039e58       0x15 examples/light_switch/client/CMakeFiles/light_switch_client_nrf52840_xxAA_s140_6.0.0.dir/__/__/__/mesh/core/src/nrf_mesh.c.obj
 .rodata.nrf_mesh_enable.str1.1
                0x00039e6d       0x25 examples/light_switch/client/CMakeFiles/light_switch_client_nrf52840_xxAA_s140_6.0.0.dir/__/__/__/mesh/core/src/nrf_mesh.c.obj
 .rodata.nrf_mesh_listen.str1.1
                0x00039e92       0x70 examples/light_switch/client/CMakeFiles/light_switch_client_nrf52840_xxAA_s140_6.0.0.dir/__/__/__/mesh/core/src/nrf_mesh.c.obj
 .rodata.nrf_mesh_packet_send.str1.1
                0x00039f02       0x70 examples/light_switch/client/CMakeFiles/light_switch_client_nrf52840_xxAA_s140_6.0.0.dir/__/__/__/mesh/core/src/nrf_mesh.c.obj
                                  0x4 (size before relaxing)
 .rodata.CSWTCH.7
                0x00039f02       0x10 examples/light_switch/client/CMakeFiles/light_switch_client_nrf52840_xxAA_s140_6.0.0.dir/__/__/__/mesh/core/src/hal.c.obj
 .rodata        0x00039f12       0x15 examples/light_switch/client/CMakeFiles/light_switch_client_nrf52840_xxAA_s140_6.0.0.dir/__/__/__/mesh/core/src/enc.c.obj
 .rodata.network_packet_in.str1.1
                0x00039f27       0x48 examples/light_switch/client/CMakeFiles/light_switch_client_nrf52840_xxAA_s140_6.0.0.dir/__/__/__/mesh/core/src/network.c.obj
 .rodata.net_packet_decrypt.str1.1
                0x00039f6f       0x31 examples/light_switch/client/CMakeFiles/light_switch_client_nrf52840_xxAA_s140_6.0.0.dir/__/__/__/mesh/core/src/net_packet.c.obj
                                 0x39 (size before relaxing)
 .rodata        0x00039fa0        0x7 examples/light_switch/client/CMakeFiles/light_switch_client_nrf52840_xxAA_s140_6.0.0.dir/__/__/__/mesh/core/src/nrf_mesh_keygen.c.obj
 .rodata.log_callback_rtt.str1.1
                0x00039fa7       0x15 examples/light_switch/client/CMakeFiles/light_switch_client_nrf52840_xxAA_s140_6.0.0.dir/__/__/__/mesh/core/src/log.c.obj
 .rodata.str1.1
                0x00039fbc       0x11 examples/light_switch/client/CMakeFiles/light_switch_client_nrf52840_xxAA_s140_6.0.0.dir/__/__/__/mesh/core/src/log.c.obj
 *fill*         0x00039fcd        0x3 
 .rodata.INVALID_HEADER
                0x00039fd0        0x4 examples/light_switch/client/CMakeFiles/light_switch_client_nrf52840_xxAA_s140_6.0.0.dir/__/__/__/mesh/core/src/flash_manager.c.obj
                0x00039fd0                INVALID_HEADER
 .rodata.PADDING_HEADER
                0x00039fd4        0x4 examples/light_switch/client/CMakeFiles/light_switch_client_nrf52840_xxAA_s140_6.0.0.dir/__/__/__/mesh/core/src/flash_manager.c.obj
                0x00039fd4                PADDING_HEADER
 .rodata.SEAL_HEADER
                0x00039fd8        0x4 examples/light_switch/client/CMakeFiles/light_switch_client_nrf52840_xxAA_s140_6.0.0.dir/__/__/__/mesh/core/src/flash_manager.c.obj
                0x00039fd8                SEAL_HEADER
 .rodata.beacon_packet_in.str1.1
                0x00039fdc       0x51 examples/light_switch/client/CMakeFiles/light_switch_client_nrf52840_xxAA_s140_6.0.0.dir/__/__/__/mesh/core/src/beacon.c.obj
                                 0x59 (size before relaxing)
 *fill*         0x0003a02d        0x1 
 .rodata.__compound_literal.0
                0x0003a02e        0x4 examples/light_switch/client/CMakeFiles/light_switch_client_nrf52840_xxAA_s140_6.0.0.dir/__/__/__/mesh/core/src/heartbeat.c.obj
 .rodata.__compound_literal.1
                0x0003a032        0x4 examples/light_switch/client/CMakeFiles/light_switch_client_nrf52840_xxAA_s140_6.0.0.dir/__/__/__/mesh/core/src/heartbeat.c.obj
 *fill*         0x0003a036        0x2 
 .rodata.cp_handler
                0x0003a038        0x8 examples/light_switch/client/CMakeFiles/light_switch_client_nrf52840_xxAA_s140_6.0.0.dir/__/__/__/mesh/core/src/heartbeat.c.obj
 .rodata.__compound_literal.0
                0x0003a040        0x4 examples/light_switch/client/CMakeFiles/light_switch_client_nrf52840_xxAA_s140_6.0.0.dir/__/__/__/mesh/core/src/net_beacon.c.obj
 .rodata.beacon_tx.str1.1
                0x0003a044       0x35 examples/light_switch/client/CMakeFiles/light_switch_client_nrf52840_xxAA_s140_6.0.0.dir/__/__/__/mesh/core/src/net_beacon.c.obj
 .rodata.net_beacon_init.str1.1
                0x0003a079        0x5 examples/light_switch/client/CMakeFiles/light_switch_client_nrf52840_xxAA_s140_6.0.0.dir/__/__/__/mesh/core/src/net_beacon.c.obj
 .rodata.__compound_literal.0
                0x0003a07e        0x4 examples/light_switch/client/CMakeFiles/light_switch_client_nrf52840_xxAA_s140_6.0.0.dir/__/__/__/mesh/core/src/core_tx_adv.c.obj
 .rodata.__compound_literal.1
                0x0003a082        0x4 examples/light_switch/client/CMakeFiles/light_switch_client_nrf52840_xxAA_s140_6.0.0.dir/__/__/__/mesh/core/src/core_tx_adv.c.obj
 .rodata.__compound_literal.2
                0x0003a086        0x4 examples/light_switch/client/CMakeFiles/light_switch_client_nrf52840_xxAA_s140_6.0.0.dir/__/__/__/mesh/core/src/core_tx_adv.c.obj
 .rodata.m_default_tx_power
                0x0003a08a        0x1 examples/light_switch/client/CMakeFiles/light_switch_client_nrf52840_xxAA_s140_6.0.0.dir/__/__/__/mesh/core/src/core_tx_adv.c.obj
 *fill*         0x0003a08b        0x1 
 .rodata.m_interface
                0x0003a08c        0xc examples/light_switch/client/CMakeFiles/light_switch_client_nrf52840_xxAA_s140_6.0.0.dir/__/__/__/mesh/core/src/core_tx_adv.c.obj
 .rodata.radio_mode_to_us_per_byte.9850
                0x0003a098        0x6 examples/light_switch/client/CMakeFiles/light_switch_client_nrf52840_xxAA_s140_6.0.0.dir/__/__/__/mesh/bearer/src/broadcast.c.obj
 .rodata.channel_rf_offsets.8993
                0x0003a09e       0x28 examples/light_switch/client/CMakeFiles/light_switch_client_nrf52840_xxAA_s140_6.0.0.dir/__/__/__/mesh/bearer/src/radio_config.c.obj
 .rodata        0x0003a0c6        0x3 examples/light_switch/client/CMakeFiles/light_switch_client_nrf52840_xxAA_s140_6.0.0.dir/__/__/__/mesh/bearer/src/scanner.c.obj
 *fill*         0x0003a0c9        0x3 
 .rodata.m_opcode_handlers
                0x0003a0cc        0x8 examples/light_switch/client/CMakeFiles/light_switch_client_nrf52840_xxAA_s140_6.0.0.dir/__/__/__/models/model_spec/generic_onoff/src/generic_onoff_client.c.obj
 .rodata.CSWTCH.123
                0x0003a0d4       0x10 examples/light_switch/client/CMakeFiles/light_switch_client_nrf52840_xxAA_s140_6.0.0.dir/__/__/__/models/foundation/config/src/config_server.c.obj
 .rodata.opcode_handlers
                0x0003a0e4      0x170 examples/light_switch/client/CMakeFiles/light_switch_client_nrf52840_xxAA_s140_6.0.0.dir/__/__/__/models/foundation/config/src/config_server.c.obj
 .rodata.m_opcode_handlers
                0x0003a254       0x58 examples/light_switch/client/CMakeFiles/light_switch_client_nrf52840_xxAA_s140_6.0.0.dir/__/__/__/models/foundation/health/src/health_server.c.obj
 .rodata.multiply_de_bruijn_bit_position.9607
                0x0003a2ac       0x20 examples/light_switch/client/CMakeFiles/light_switch_client_nrf52840_xxAA_s140_6.0.0.dir/__/__/__/models/foundation/health/src/health_server.c.obj
 .rodata.mesh_evt_cb.str1.1
                0x0003a2cc       0x13 examples/light_switch/client/CMakeFiles/light_switch_client_nrf52840_xxAA_s140_6.0.0.dir/__/__/__/mesh/access/src/access.c.obj
 .rodata.multiply_de_bruijn_bit_position.9563
                0x0003a2df       0x20 examples/light_switch/client/CMakeFiles/light_switch_client_nrf52840_xxAA_s140_6.0.0.dir/__/__/__/mesh/access/src/access.c.obj
 .rodata.packet_tx.str1.1
                0x0003a2ff       0x38 examples/light_switch/client/CMakeFiles/light_switch_client_nrf52840_xxAA_s140_6.0.0.dir/__/__/__/mesh/access/src/access.c.obj
                                 0x40 (size before relaxing)
 *fill*         0x0003a337        0x1 
 .rodata.m_flash_groups
                0x0003a338       0xa8 examples/light_switch/client/CMakeFiles/light_switch_client_nrf52840_xxAA_s140_6.0.0.dir/__/__/__/mesh/access/src/device_state_manager.c.obj
 .rodata.multiply_de_bruijn_bit_position.9666
                0x0003a3e0       0x20 examples/light_switch/client/CMakeFiles/light_switch_client_nrf52840_xxAA_s140_6.0.0.dir/__/__/__/mesh/access/src/device_state_manager.c.obj
 .rodata.m_prov_callbacks
                0x0003a400       0x10 examples/light_switch/client/CMakeFiles/light_switch_client_nrf52840_xxAA_s140_6.0.0.dir/__/__/__/mesh/prov/src/prov_provisionee.c.obj
 .rodata.prov_provisionee_cb_ack_received.str1.1
                0x0003a410       0x53 examples/light_switch/client/CMakeFiles/light_switch_client_nrf52840_xxAA_s140_6.0.0.dir/__/__/__/mesh/prov/src/prov_provisionee.c.obj
 .rodata.multiply_de_bruijn_bit_position.9619
                0x0003a463       0x20 examples/light_switch/client/CMakeFiles/light_switch_client_nrf52840_xxAA_s140_6.0.0.dir/__/__/__/mesh/prov/src/nrf_mesh_prov.c.obj
 .rodata.pdu_sizes.11358
                0x0003a483        0xa examples/light_switch/client/CMakeFiles/light_switch_client_nrf52840_xxAA_s140_6.0.0.dir/__/__/__/mesh/prov/src/provisioning.c.obj
 *fill*         0x0003a48d        0x1 
 .rodata.C.8.12461
                0x0003a48e        0x4 examples/light_switch/client/CMakeFiles/light_switch_client_nrf52840_xxAA_s140_6.0.0.dir/__/__/__/mesh/prov/src/prov_utils.c.obj
 .rodata.alphanumeric.12382
                0x0003a492       0x25 examples/light_switch/client/CMakeFiles/light_switch_client_nrf52840_xxAA_s140_6.0.0.dir/__/__/__/mesh/prov/src/prov_utils.c.obj
 .rodata.m_ecdh_offloading_default
                0x0003a4b7        0x1 examples/light_switch/client/CMakeFiles/light_switch_client_nrf52840_xxAA_s140_6.0.0.dir/__/__/__/mesh/prov/src/prov_utils.c.obj
 .rodata.numeric_max.12376
                0x0003a4b8       0x24 examples/light_switch/client/CMakeFiles/light_switch_client_nrf52840_xxAA_s140_6.0.0.dir/__/__/__/mesh/prov/src/prov_utils.c.obj
 .rodata.prov_utils_authentication_values_derive.str1.1
                0x0003a4dc        0x5 examples/light_switch/client/CMakeFiles/light_switch_client_nrf52840_xxAA_s140_6.0.0.dir/__/__/__/mesh/prov/src/prov_utils.c.obj
 .rodata.prov_utils_derive_keys.str1.1
                0x0003a4e1        0xf examples/light_switch/client/CMakeFiles/light_switch_client_nrf52840_xxAA_s140_6.0.0.dir/__/__/__/mesh/prov/src/prov_utils.c.obj
 .rodata.add_active_bearer.str1.1
                0x0003a4f0       0x2c examples/light_switch/client/CMakeFiles/light_switch_client_nrf52840_xxAA_s140_6.0.0.dir/__/__/__/mesh/prov/src/prov_bearer_adv.c.obj
 .rodata.crctable.11386
                0x0003a51c      0x100 examples/light_switch/client/CMakeFiles/light_switch_client_nrf52840_xxAA_s140_6.0.0.dir/__/__/__/mesh/prov/src/prov_bearer_adv.c.obj
 .rodata.interface.11616
                0x0003a61c       0x14 examples/light_switch/client/CMakeFiles/light_switch_client_nrf52840_xxAA_s140_6.0.0.dir/__/__/__/mesh/prov/src/prov_bearer_adv.c.obj
 .rodata.prov_bearer_adv_packet_in.str1.1
                0x0003a630      0x26e examples/light_switch/client/CMakeFiles/light_switch_client_nrf52840_xxAA_s140_6.0.0.dir/__/__/__/mesh/prov/src/prov_bearer_adv.c.obj
 .rodata.tx_retry_cb.str1.1
                0x0003a89e       0x37 examples/light_switch/client/CMakeFiles/light_switch_client_nrf52840_xxAA_s140_6.0.0.dir/__/__/__/mesh/prov/src/prov_bearer_adv.c.obj
 *fill*         0x0003a8d5        0xb 
 .rodata.delay_bytecode.9306
                0x0003a8e0        0x6 examples/light_switch/client/CMakeFiles/light_switch_client_nrf52840_xxAA_s140_6.0.0.dir/C_/sdks/nRF5_SDK_15.0.0_a53641a/components/libraries/timer/app_timer.c.obj
 .rodata._DoInit.str1.1
                0x0003a8e6       0x14 external/rtt/librtt_nrf52840_xxAA.a(SEGGER_RTT.c.obj)
 .rodata._aV2C.5497
                0x0003a8fa       0x10 external/rtt/librtt_nrf52840_xxAA.a(SEGGER_RTT_printf.c.obj)
 *fill*         0x0003a90a        0x2 
 .rodata.curve_secp256r1
                0x0003a90c       0xb0 external/micro-ecc/libuECC_nrf52840_xxAA.a(uECC.c.obj)
 .rodata._global_impure_ptr
                0x0003a9bc        0x4 c:/arm_gcc/bin/../lib/gcc/arm-none-eabi/6.3.1/../../../../arm-none-eabi/lib/thumb/v7e-m/fpv4-sp/hard\libg_nano.a(lib_a-impure.o)
                0x0003a9bc                _global_impure_ptr
 *(.eh_frame*)
 .eh_frame      0x0003a9c0        0x0 c:/arm_gcc/bin/../lib/gcc/arm-none-eabi/6.3.1/thumb/v7e-m/fpv4-sp/hard/crtbegin.o
 .eh_frame      0x0003a9c0        0x4 c:/arm_gcc/bin/../lib/gcc/arm-none-eabi/6.3.1/thumb/v7e-m/fpv4-sp/hard/crtend.o

.glue_7         0x0003a9c4        0x0
 .glue_7        0x0003a9c4        0x0 linker stubs

.glue_7t        0x0003a9c4        0x0
 .glue_7t       0x0003a9c4        0x0 linker stubs

.vfp11_veneer   0x0003a9c4        0x0
 .vfp11_veneer  0x0003a9c4        0x0 linker stubs

.v4_bx          0x0003a9c4        0x0
 .v4_bx         0x0003a9c4        0x0 linker stubs

.iplt           0x0003a9c4        0x0
 .iplt          0x0003a9c4        0x0 c:/arm_gcc/bin/../lib/gcc/arm-none-eabi/6.3.1/thumb/v7e-m/fpv4-sp/hard/crtbegin.o

.pwr_mgmt_data  0x0003a9c4        0x0
                [!provide]                PROVIDE (__start_pwr_mgmt_data, .)
 *(SORT(.pwr_mgmt_data*))
                [!provide]                PROVIDE (__stop_pwr_mgmt_data, .)

.log_const_data
                0x0003a9c4        0x0
                [!provide]                PROVIDE (__start_log_const_data, .)
 *(.log_const_data)
                [!provide]                PROVIDE (__stop_log_const_data, .)

.cli_command    0x0003a9c4        0x0
                [!provide]                PROVIDE (__start_cli_command, .)
 *(.cli_command)
                [!provide]                PROVIDE (__stop_cli_command, .)

.sdh_stack_observers
                0x0003a9c4        0x0
                [!provide]                PROVIDE (__start_sdh_stack_observers, .)
 *(SORT(.sdh_stack_observers*))
                [!provide]                PROVIDE (__stop_sdh_stack_observers, .)

.sdh_req_observers
                0x0003a9c4        0x0
                [!provide]                PROVIDE (__start_sdh_req_observers, .)
 *(SORT(.sdh_req_observers*))
                [!provide]                PROVIDE (__stop_sdh_req_observers, .)

.sdh_state_observers
                0x0003a9c4        0x0
                [!provide]                PROVIDE (__start_sdh_state_observers, .)
 *(SORT(.sdh_state_observers*))
                [!provide]                PROVIDE (__stop_sdh_state_observers, .)

.sdh_ant_observers
                0x0003a9c4        0x0
                [!provide]                PROVIDE (__start_sdh_ant_observers, .)
 *(SORT(.sdh_ant_observers*))
                [!provide]                PROVIDE (__stop_sdh_ant_observers, .)

.sdh_ble_observers
                0x0003a9c4        0x0
                [!provide]                PROVIDE (__start_sdh_ble_observers, .)
 *(SORT(.sdh_ble_observers*))
                [!provide]                PROVIDE (__stop_sdh_ble_observers, .)

.sdh_soc_observers
                0x0003a9c4        0x0
                [!provide]                PROVIDE (__start_sdh_soc_observers, .)
 *(SORT(.sdh_soc_observers*))
                [!provide]                PROVIDE (__stop_sdh_soc_observers, .)

.nrf_mesh_flash
                0x0003a9c4       0xb8
                [!provide]                PROVIDE (__start_nrf_mesh_flash, .)
 *(SORT(.nrf_mesh_flash.*))
 .nrf_mesh_flash.mesh_config_entries__0
                0x0003a9c4        0x0 examples/light_switch/client/CMakeFiles/light_switch_client_nrf52840_xxAA_s140_6.0.0.dir/__/__/__/mesh/core/src/mesh_config.c.obj
                0x0003a9c4                __nrf_mesh_start_mesh_config_entries
 .nrf_mesh_flash.mesh_config_entries__1
                0x0003a9c4       0x1c examples/light_switch/client/CMakeFiles/light_switch_client_nrf52840_xxAA_s140_6.0.0.dir/__/__/__/mesh/core/src/heartbeat.c.obj
                0x0003a9c4                m_heartbeat_publication_params
 .nrf_mesh_flash.mesh_config_entries__1
                0x0003a9e0       0x1c examples/light_switch/client/CMakeFiles/light_switch_client_nrf52840_xxAA_s140_6.0.0.dir/__/__/__/mesh/core/src/net_beacon.c.obj
                0x0003a9e0                m_net_beacon_enable_params
 .nrf_mesh_flash.mesh_config_entries__1
                0x0003a9fc       0x54 examples/light_switch/client/CMakeFiles/light_switch_client_nrf52840_xxAA_s140_6.0.0.dir/__/__/__/mesh/core/src/core_tx_adv.c.obj
                0x0003a9fc                m_mesh_opt_core_adv_addr_params
                0x0003aa18                m_mesh_opt_core_tx_power_params
                0x0003aa34                m_mesh_opt_core_adv_params
 .nrf_mesh_flash.mesh_config_entries__1
                0x0003aa50       0x1c examples/light_switch/client/CMakeFiles/light_switch_client_nrf52840_xxAA_s140_6.0.0.dir/__/__/__/mesh/prov/src/prov_utils.c.obj
                0x0003aa50                m_ecdh_offloading_params
 .nrf_mesh_flash.mesh_config_entries__2
                0x0003aa6c        0x0 examples/light_switch/client/CMakeFiles/light_switch_client_nrf52840_xxAA_s140_6.0.0.dir/__/__/__/mesh/core/src/mesh_config.c.obj
                0x0003aa6c                __nrf_mesh_stop_mesh_config_entries
 .nrf_mesh_flash.mesh_config_entry_listeners__0
                0x0003aa6c        0x0 examples/light_switch/client/CMakeFiles/light_switch_client_nrf52840_xxAA_s140_6.0.0.dir/__/__/__/mesh/core/src/mesh_config.c.obj
                0x0003aa6c                __nrf_mesh_start_mesh_config_entry_listeners
 .nrf_mesh_flash.mesh_config_entry_listeners__1
                0x0003aa6c        0x8 examples/light_switch/client/CMakeFiles/light_switch_client_nrf52840_xxAA_s140_6.0.0.dir/__/__/__/mesh/core/src/heartbeat.c.obj
                0x0003aa6c                m_heartbeat_relay_listener
 .nrf_mesh_flash.mesh_config_entry_listeners__2
                0x0003aa74        0x0 examples/light_switch/client/CMakeFiles/light_switch_client_nrf52840_xxAA_s140_6.0.0.dir/__/__/__/mesh/core/src/mesh_config.c.obj
                0x0003aa74                __nrf_mesh_stop_mesh_config_entry_listeners
 .nrf_mesh_flash.mesh_config_files__0
                0x0003aa74        0x0 examples/light_switch/client/CMakeFiles/light_switch_client_nrf52840_xxAA_s140_6.0.0.dir/__/__/__/mesh/core/src/mesh_config.c.obj
                0x0003aa74                __nrf_mesh_start_mesh_config_files
 .nrf_mesh_flash.mesh_config_files__1
                0x0003aa74        0x8 examples/light_switch/client/CMakeFiles/light_switch_client_nrf52840_xxAA_s140_6.0.0.dir/__/__/__/mesh/core/src/mesh_opt.c.obj
                0x0003aa74                m_mesh_opt_core_file
 .nrf_mesh_flash.mesh_config_files__2
                0x0003aa7c        0x0 examples/light_switch/client/CMakeFiles/light_switch_client_nrf52840_xxAA_s140_6.0.0.dir/__/__/__/mesh/core/src/mesh_config.c.obj
                0x0003aa7c                __nrf_mesh_stop_mesh_config_files
                [!provide]                PROVIDE (__stop_nrf_mesh_flash, .)

.ARM.extab
 *(.ARM.extab* .gnu.linkonce.armextab.*)
                0x0003aa7c                __exidx_start = .

.ARM.exidx      0x0003aa7c        0x8
 *(.ARM.exidx* .gnu.linkonce.armexidx.*)
 .ARM.exidx     0x0003aa7c        0x8 c:/arm_gcc/bin/../lib/gcc/arm-none-eabi/6.3.1/../../../../arm-none-eabi/lib/thumb/v7e-m/fpv4-sp/hard/crt0.o
 .ARM.exidx     0x0003aa84        0x0 c:/arm_gcc/bin/../lib/gcc/arm-none-eabi/6.3.1/thumb/v7e-m/fpv4-sp/hard\libgcc.a(_udivmoddi4.o)
                                  0x8 (size before relaxing)
                0x0003aa84                __exidx_end = .
                0x0003aa84                __etext = .

.rel.dyn        0x0003aa84        0x0
 .rel.iplt      0x0003aa84        0x0 c:/arm_gcc/bin/../lib/gcc/arm-none-eabi/6.3.1/thumb/v7e-m/fpv4-sp/hard/crtbegin.o

.data           0x20002da0      0x150 load address 0x0003aa84
                0x20002da0                __data_start__ = .
 *(vtable)
 *(.data*)
 .data.s_evt_handler.12015
                0x20002da0        0xc examples/light_switch/client/CMakeFiles/light_switch_client_nrf52840_xxAA_s140_6.0.0.dir/__/__/__/mesh/stack/src/mesh_stack.c.obj
 .data.wait.9235
                0x20002dac        0x1 examples/light_switch/client/CMakeFiles/light_switch_client_nrf52840_xxAA_s140_6.0.0.dir/__/__/common/src/app_error_weak.c.obj
 *fill*         0x20002dad        0x3 
 .data.mem_listener.10713
                0x20002db0       0x10 examples/light_switch/client/CMakeFiles/light_switch_client_nrf52840_xxAA_s140_6.0.0.dir/__/__/__/mesh/core/src/net_state.c.obj
 .data.mem_listener.10718
                0x20002dc0       0x10 examples/light_switch/client/CMakeFiles/light_switch_client_nrf52840_xxAA_s140_6.0.0.dir/__/__/__/mesh/core/src/net_state.c.obj
 .data.mem_listener.10732
                0x20002dd0       0x10 examples/light_switch/client/CMakeFiles/light_switch_client_nrf52840_xxAA_s140_6.0.0.dir/__/__/__/mesh/core/src/net_state.c.obj
 .data.mem_listener.10749
                0x20002de0       0x10 examples/light_switch/client/CMakeFiles/light_switch_client_nrf52840_xxAA_s140_6.0.0.dir/__/__/__/mesh/core/src/net_state.c.obj
 .data.m_nrf_mesh_listener
                0x20002df0        0xc examples/light_switch/client/CMakeFiles/light_switch_client_nrf52840_xxAA_s140_6.0.0.dir/__/__/__/mesh/core/src/nrf_mesh.c.obj
 .data.g_log_dbg_lvl
                0x20002dfc        0x4 examples/light_switch/client/CMakeFiles/light_switch_client_nrf52840_xxAA_s140_6.0.0.dir/__/__/__/mesh/core/src/log.c.obj
                0x20002dfc                g_log_dbg_lvl
 .data.g_log_dbg_msk
                0x20002e00        0x4 examples/light_switch/client/CMakeFiles/light_switch_client_nrf52840_xxAA_s140_6.0.0.dir/__/__/__/mesh/core/src/log.c.obj
                0x20002e00                g_log_dbg_msk
 .data.g_log_hex_digits
                0x20002e04        0x4 examples/light_switch/client/CMakeFiles/light_switch_client_nrf52840_xxAA_s140_6.0.0.dir/__/__/__/mesh/core/src/log.c.obj
                0x20002e04                g_log_hex_digits
 .data.m_log_callback
                0x20002e08        0x4 examples/light_switch/client/CMakeFiles/light_switch_client_nrf52840_xxAA_s140_6.0.0.dir/__/__/__/mesh/core/src/log.c.obj
                0x20002e08                m_log_callback
 .data.m_default_adv
                0x20002e0c        0x4 examples/light_switch/client/CMakeFiles/light_switch_client_nrf52840_xxAA_s140_6.0.0.dir/__/__/__/mesh/core/src/core_tx_adv.c.obj
 .data.m_config_server_handle
                0x20002e10        0x2 examples/light_switch/client/CMakeFiles/light_switch_client_nrf52840_xxAA_s140_6.0.0.dir/__/__/__/models/foundation/config/src/config_server.c.obj
 *fill*         0x20002e12        0x2 
 .data.m_mesh_evt_handler
                0x20002e14        0xc examples/light_switch/client/CMakeFiles/light_switch_client_nrf52840_xxAA_s140_6.0.0.dir/__/__/__/models/foundation/config/src/config_server.c.obj
 .data.flash_add_mem_available_struct.11290
                0x20002e20       0x10 examples/light_switch/client/CMakeFiles/light_switch_client_nrf52840_xxAA_s140_6.0.0.dir/__/__/__/mesh/access/src/access.c.obj
 .data.flash_clear_mem_available_struct.11379
                0x20002e30       0x10 examples/light_switch/client/CMakeFiles/light_switch_client_nrf52840_xxAA_s140_6.0.0.dir/__/__/__/mesh/access/src/access.c.obj
 .data.flash_store_mem_available_struct.11403
                0x20002e40       0x10 examples/light_switch/client/CMakeFiles/light_switch_client_nrf52840_xxAA_s140_6.0.0.dir/__/__/__/mesh/access/src/access.c.obj
 .data.m_default_ttl
                0x20002e50        0x1 examples/light_switch/client/CMakeFiles/light_switch_client_nrf52840_xxAA_s140_6.0.0.dir/__/__/__/mesh/access/src/access.c.obj
 *fill*         0x20002e51        0x3 
 .data.mem_listener.11801
                0x20002e54       0x10 examples/light_switch/client/CMakeFiles/light_switch_client_nrf52840_xxAA_s140_6.0.0.dir/__/__/__/mesh/access/src/device_state_manager.c.obj
 .data.mem_listener.11827
                0x20002e64       0x10 examples/light_switch/client/CMakeFiles/light_switch_client_nrf52840_xxAA_s140_6.0.0.dir/__/__/__/mesh/access/src/device_state_manager.c.obj
 .data.m_async_process_flag
                0x20002e74        0x4 examples/light_switch/client/CMakeFiles/light_switch_client_nrf52840_xxAA_s140_6.0.0.dir/__/__/__/mesh/prov/src/prov_bearer_adv.c.obj
 .data.SystemCoreClock
                0x20002e78        0x4 examples/light_switch/client/CMakeFiles/light_switch_client_nrf52840_xxAA_s140_6.0.0.dir/C_/sdks/nRF5_SDK_15.0.0_a53641a/modules/nrfx/mdk/system_nrf52840.c.obj
                0x20002e78                SystemCoreClock
 .data.g_rng_function
                0x20002e7c        0x4 external/micro-ecc/libuECC_nrf52840_xxAA.a(uECC.c.obj)
 .data._impure_ptr
                0x20002e80        0x4 c:/arm_gcc/bin/../lib/gcc/arm-none-eabi/6.3.1/../../../../arm-none-eabi/lib/thumb/v7e-m/fpv4-sp/hard\libg_nano.a(lib_a-impure.o)
                0x20002e80                _impure_ptr
 .data.impure_data
                0x20002e84       0x60 c:/arm_gcc/bin/../lib/gcc/arm-none-eabi/6.3.1/../../../../arm-none-eabi/lib/thumb/v7e-m/fpv4-sp/hard\libg_nano.a(lib_a-impure.o)
                0x20002ee4                . = ALIGN (0x4)
                0x20002ee4                PROVIDE (__preinit_array_start, .)
 *(.preinit_array)
                0x20002ee4                PROVIDE (__preinit_array_end, .)
                0x20002ee4                . = ALIGN (0x4)
                0x20002ee4                PROVIDE (__init_array_start, .)
 *(SORT(.init_array.*))
 *(.init_array)
 .init_array    0x20002ee4        0x4 c:/arm_gcc/bin/../lib/gcc/arm-none-eabi/6.3.1/thumb/v7e-m/fpv4-sp/hard/crtbegin.o
                0x20002ee8                PROVIDE (__init_array_end, .)
                0x20002ee8                . = ALIGN (0x4)
                [!provide]                PROVIDE (__fini_array_start, .)
 *(SORT(.fini_array.*))
 *(.fini_array)
 .fini_array    0x20002ee8        0x4 c:/arm_gcc/bin/../lib/gcc/arm-none-eabi/6.3.1/thumb/v7e-m/fpv4-sp/hard/crtbegin.o
                [!provide]                PROVIDE (__fini_array_end, .)
 *(.jcr*)
 .jcr           0x20002eec        0x0 c:/arm_gcc/bin/../lib/gcc/arm-none-eabi/6.3.1/thumb/v7e-m/fpv4-sp/hard/crtbegin.o
 .jcr           0x20002eec        0x4 c:/arm_gcc/bin/../lib/gcc/arm-none-eabi/6.3.1/thumb/v7e-m/fpv4-sp/hard/crtend.o
                0x20002ef0                . = ALIGN (0x4)
                0x20002ef0                __data_end__ = .
LOAD c:/arm_gcc/bin/../lib/gcc/arm-none-eabi/6.3.1/thumb/v7e-m/fpv4-sp/hard/crti.o
LOAD c:/arm_gcc/bin/../lib/gcc/arm-none-eabi/6.3.1/thumb/v7e-m/fpv4-sp/hard/crtbegin.o
LOAD c:/arm_gcc/bin/../lib/gcc/arm-none-eabi/6.3.1/../../../../arm-none-eabi/lib/thumb/v7e-m/fpv4-sp/hard/crt0.o
LOAD examples/light_switch/client/CMakeFiles/light_switch_client_nrf52840_xxAA_s140_6.0.0.dir/src/main.c.obj
LOAD examples/light_switch/client/CMakeFiles/light_switch_client_nrf52840_xxAA_s140_6.0.0.dir/__/__/__/mesh/stack/src/mesh_stack.c.obj
LOAD examples/light_switch/client/CMakeFiles/light_switch_client_nrf52840_xxAA_s140_6.0.0.dir/__/__/common/src/mesh_softdevice_init.c.obj
LOAD examples/light_switch/client/CMakeFiles/light_switch_client_nrf52840_xxAA_s140_6.0.0.dir/__/__/common/src/mesh_provisionee.c.obj
LOAD examples/light_switch/client/CMakeFiles/light_switch_client_nrf52840_xxAA_s140_6.0.0.dir/__/__/common/src/rtt_input.c.obj
LOAD examples/light_switch/client/CMakeFiles/light_switch_client_nrf52840_xxAA_s140_6.0.0.dir/__/__/common/src/simple_hal.c.obj
LOAD examples/light_switch/client/CMakeFiles/light_switch_client_nrf52840_xxAA_s140_6.0.0.dir/__/__/common/src/mesh_app_utils.c.obj
LOAD examples/light_switch/client/CMakeFiles/light_switch_client_nrf52840_xxAA_s140_6.0.0.dir/__/__/nrf_mesh_weak.c.obj
LOAD examples/light_switch/client/CMakeFiles/light_switch_client_nrf52840_xxAA_s140_6.0.0.dir/__/__/common/src/app_error_weak.c.obj
LOAD examples/light_switch/client/CMakeFiles/light_switch_client_nrf52840_xxAA_s140_6.0.0.dir/__/__/common/src/assertion_handler_weak.c.obj
LOAD examples/light_switch/client/CMakeFiles/light_switch_client_nrf52840_xxAA_s140_6.0.0.dir/__/__/__/mesh/core/src/internal_event.c.obj
LOAD examples/light_switch/client/CMakeFiles/light_switch_client_nrf52840_xxAA_s140_6.0.0.dir/__/__/__/mesh/core/src/nrf_mesh_configure.c.obj
LOAD examples/light_switch/client/CMakeFiles/light_switch_client_nrf52840_xxAA_s140_6.0.0.dir/__/__/__/mesh/core/src/aes.c.obj
LOAD examples/light_switch/client/CMakeFiles/light_switch_client_nrf52840_xxAA_s140_6.0.0.dir/__/__/__/mesh/core/src/msg_cache.c.obj
LOAD examples/light_switch/client/CMakeFiles/light_switch_client_nrf52840_xxAA_s140_6.0.0.dir/__/__/__/mesh/core/src/transport.c.obj
LOAD examples/light_switch/client/CMakeFiles/light_switch_client_nrf52840_xxAA_s140_6.0.0.dir/__/__/__/mesh/core/src/event.c.obj
LOAD examples/light_switch/client/CMakeFiles/light_switch_client_nrf52840_xxAA_s140_6.0.0.dir/__/__/__/mesh/core/src/packet_buffer.c.obj
LOAD examples/light_switch/client/CMakeFiles/light_switch_client_nrf52840_xxAA_s140_6.0.0.dir/__/__/__/mesh/core/src/flash_manager_defrag.c.obj
LOAD examples/light_switch/client/CMakeFiles/light_switch_client_nrf52840_xxAA_s140_6.0.0.dir/__/__/__/mesh/core/src/fifo.c.obj
LOAD examples/light_switch/client/CMakeFiles/light_switch_client_nrf52840_xxAA_s140_6.0.0.dir/__/__/__/mesh/core/src/nrf_flash.c.obj
LOAD examples/light_switch/client/CMakeFiles/light_switch_client_nrf52840_xxAA_s140_6.0.0.dir/__/__/__/mesh/core/src/packet_mgr.c.obj
LOAD examples/light_switch/client/CMakeFiles/light_switch_client_nrf52840_xxAA_s140_6.0.0.dir/__/__/__/mesh/core/src/net_state.c.obj
LOAD examples/light_switch/client/CMakeFiles/light_switch_client_nrf52840_xxAA_s140_6.0.0.dir/__/__/__/mesh/core/src/mesh_flash.c.obj
LOAD examples/light_switch/client/CMakeFiles/light_switch_client_nrf52840_xxAA_s140_6.0.0.dir/__/__/__/mesh/core/src/nrf_mesh_utils.c.obj
LOAD examples/light_switch/client/CMakeFiles/light_switch_client_nrf52840_xxAA_s140_6.0.0.dir/__/__/__/mesh/core/src/nrf_mesh.c.obj
LOAD examples/light_switch/client/CMakeFiles/light_switch_client_nrf52840_xxAA_s140_6.0.0.dir/__/__/__/mesh/core/src/queue.c.obj
LOAD examples/light_switch/client/CMakeFiles/light_switch_client_nrf52840_xxAA_s140_6.0.0.dir/__/__/__/mesh/core/src/hal.c.obj
LOAD examples/light_switch/client/CMakeFiles/light_switch_client_nrf52840_xxAA_s140_6.0.0.dir/__/__/__/mesh/core/src/aes_cmac.c.obj
LOAD examples/light_switch/client/CMakeFiles/light_switch_client_nrf52840_xxAA_s140_6.0.0.dir/__/__/__/mesh/core/src/timer_scheduler.c.obj
LOAD examples/light_switch/client/CMakeFiles/light_switch_client_nrf52840_xxAA_s140_6.0.0.dir/__/__/__/mesh/core/src/timer.c.obj
LOAD examples/light_switch/client/CMakeFiles/light_switch_client_nrf52840_xxAA_s140_6.0.0.dir/__/__/__/mesh/core/src/rand.c.obj
LOAD examples/light_switch/client/CMakeFiles/light_switch_client_nrf52840_xxAA_s140_6.0.0.dir/__/__/__/mesh/core/src/nrf_mesh_opt.c.obj
LOAD examples/light_switch/client/CMakeFiles/light_switch_client_nrf52840_xxAA_s140_6.0.0.dir/__/__/__/mesh/core/src/mesh_opt.c.obj
LOAD examples/light_switch/client/CMakeFiles/light_switch_client_nrf52840_xxAA_s140_6.0.0.dir/__/__/__/mesh/core/src/timeslot.c.obj
LOAD examples/light_switch/client/CMakeFiles/light_switch_client_nrf52840_xxAA_s140_6.0.0.dir/__/__/__/mesh/core/src/bearer_event.c.obj
LOAD examples/light_switch/client/CMakeFiles/light_switch_client_nrf52840_xxAA_s140_6.0.0.dir/__/__/__/mesh/core/src/enc.c.obj
LOAD examples/light_switch/client/CMakeFiles/light_switch_client_nrf52840_xxAA_s140_6.0.0.dir/__/__/__/mesh/core/src/network.c.obj
LOAD examples/light_switch/client/CMakeFiles/light_switch_client_nrf52840_xxAA_s140_6.0.0.dir/__/__/__/mesh/core/src/net_packet.c.obj
LOAD examples/light_switch/client/CMakeFiles/light_switch_client_nrf52840_xxAA_s140_6.0.0.dir/__/__/__/mesh/core/src/msqueue.c.obj
LOAD examples/light_switch/client/CMakeFiles/light_switch_client_nrf52840_xxAA_s140_6.0.0.dir/__/__/__/mesh/core/src/nrf_mesh_keygen.c.obj
LOAD examples/light_switch/client/CMakeFiles/light_switch_client_nrf52840_xxAA_s140_6.0.0.dir/__/__/__/mesh/core/src/cache.c.obj
LOAD examples/light_switch/client/CMakeFiles/light_switch_client_nrf52840_xxAA_s140_6.0.0.dir/__/__/__/mesh/core/src/list.c.obj
LOAD examples/light_switch/client/CMakeFiles/light_switch_client_nrf52840_xxAA_s140_6.0.0.dir/__/__/__/mesh/core/src/log.c.obj
LOAD examples/light_switch/client/CMakeFiles/light_switch_client_nrf52840_xxAA_s140_6.0.0.dir/__/__/__/mesh/core/src/flash_manager.c.obj
LOAD examples/light_switch/client/CMakeFiles/light_switch_client_nrf52840_xxAA_s140_6.0.0.dir/__/__/__/mesh/core/src/ccm_soft.c.obj
LOAD examples/light_switch/client/CMakeFiles/light_switch_client_nrf52840_xxAA_s140_6.0.0.dir/__/__/__/mesh/core/src/toolchain.c.obj
LOAD examples/light_switch/client/CMakeFiles/light_switch_client_nrf52840_xxAA_s140_6.0.0.dir/__/__/__/mesh/core/src/replay_cache.c.obj
LOAD examples/light_switch/client/CMakeFiles/light_switch_client_nrf52840_xxAA_s140_6.0.0.dir/__/__/__/mesh/core/src/beacon.c.obj
LOAD examples/light_switch/client/CMakeFiles/light_switch_client_nrf52840_xxAA_s140_6.0.0.dir/__/__/__/mesh/core/src/flash_manager_internal.c.obj
LOAD examples/light_switch/client/CMakeFiles/light_switch_client_nrf52840_xxAA_s140_6.0.0.dir/__/__/__/mesh/core/src/core_tx.c.obj
LOAD examples/light_switch/client/CMakeFiles/light_switch_client_nrf52840_xxAA_s140_6.0.0.dir/__/__/__/mesh/core/src/heartbeat.c.obj
LOAD examples/light_switch/client/CMakeFiles/light_switch_client_nrf52840_xxAA_s140_6.0.0.dir/__/__/__/mesh/core/src/net_beacon.c.obj
LOAD examples/light_switch/client/CMakeFiles/light_switch_client_nrf52840_xxAA_s140_6.0.0.dir/__/__/__/mesh/core/src/mesh_config.c.obj
LOAD examples/light_switch/client/CMakeFiles/light_switch_client_nrf52840_xxAA_s140_6.0.0.dir/__/__/__/mesh/core/src/fsm.c.obj
LOAD examples/light_switch/client/CMakeFiles/light_switch_client_nrf52840_xxAA_s140_6.0.0.dir/__/__/__/mesh/core/src/mesh_config_backend.c.obj
LOAD examples/light_switch/client/CMakeFiles/light_switch_client_nrf52840_xxAA_s140_6.0.0.dir/__/__/__/mesh/core/src/mesh_config_flashman_glue.c.obj
LOAD examples/light_switch/client/CMakeFiles/light_switch_client_nrf52840_xxAA_s140_6.0.0.dir/__/__/__/mesh/core/src/core_tx_adv.c.obj
LOAD examples/light_switch/client/CMakeFiles/light_switch_client_nrf52840_xxAA_s140_6.0.0.dir/__/__/__/mesh/bearer/src/ad_listener.c.obj
LOAD examples/light_switch/client/CMakeFiles/light_switch_client_nrf52840_xxAA_s140_6.0.0.dir/__/__/__/mesh/bearer/src/ad_type_filter.c.obj
LOAD examples/light_switch/client/CMakeFiles/light_switch_client_nrf52840_xxAA_s140_6.0.0.dir/__/__/__/mesh/bearer/src/adv_packet_filter.c.obj
LOAD examples/light_switch/client/CMakeFiles/light_switch_client_nrf52840_xxAA_s140_6.0.0.dir/__/__/__/mesh/bearer/src/advertiser.c.obj
LOAD examples/light_switch/client/CMakeFiles/light_switch_client_nrf52840_xxAA_s140_6.0.0.dir/__/__/__/mesh/bearer/src/bearer_handler.c.obj
LOAD examples/light_switch/client/CMakeFiles/light_switch_client_nrf52840_xxAA_s140_6.0.0.dir/__/__/__/mesh/bearer/src/broadcast.c.obj
LOAD examples/light_switch/client/CMakeFiles/light_switch_client_nrf52840_xxAA_s140_6.0.0.dir/__/__/__/mesh/bearer/src/filter_engine.c.obj
LOAD examples/light_switch/client/CMakeFiles/light_switch_client_nrf52840_xxAA_s140_6.0.0.dir/__/__/__/mesh/bearer/src/gap_address_filter.c.obj
LOAD examples/light_switch/client/CMakeFiles/light_switch_client_nrf52840_xxAA_s140_6.0.0.dir/__/__/__/mesh/bearer/src/radio_config.c.obj
LOAD examples/light_switch/client/CMakeFiles/light_switch_client_nrf52840_xxAA_s140_6.0.0.dir/__/__/__/mesh/bearer/src/rssi_filter.c.obj
LOAD examples/light_switch/client/CMakeFiles/light_switch_client_nrf52840_xxAA_s140_6.0.0.dir/__/__/__/mesh/bearer/src/scanner.c.obj
LOAD examples/light_switch/client/CMakeFiles/light_switch_client_nrf52840_xxAA_s140_6.0.0.dir/__/__/__/mesh/bearer/src/mesh_pa_lna.c.obj
LOAD examples/light_switch/client/CMakeFiles/light_switch_client_nrf52840_xxAA_s140_6.0.0.dir/__/__/__/models/model_spec/generic_onoff/src/generic_onoff_client.c.obj
LOAD examples/light_switch/client/CMakeFiles/light_switch_client_nrf52840_xxAA_s140_6.0.0.dir/__/__/__/models/model_spec/common/src/model_common.c.obj
LOAD examples/light_switch/client/CMakeFiles/light_switch_client_nrf52840_xxAA_s140_6.0.0.dir/__/__/__/models/foundation/config/src/composition_data.c.obj
LOAD examples/light_switch/client/CMakeFiles/light_switch_client_nrf52840_xxAA_s140_6.0.0.dir/__/__/__/models/foundation/config/src/config_server.c.obj
LOAD examples/light_switch/client/CMakeFiles/light_switch_client_nrf52840_xxAA_s140_6.0.0.dir/__/__/__/models/foundation/config/src/packed_index_list.c.obj
LOAD examples/light_switch/client/CMakeFiles/light_switch_client_nrf52840_xxAA_s140_6.0.0.dir/__/__/__/models/foundation/health/src/health_server.c.obj
LOAD examples/light_switch/client/CMakeFiles/light_switch_client_nrf52840_xxAA_s140_6.0.0.dir/__/__/__/mesh/access/src/access_publish.c.obj
LOAD examples/light_switch/client/CMakeFiles/light_switch_client_nrf52840_xxAA_s140_6.0.0.dir/__/__/__/mesh/access/src/access.c.obj
LOAD examples/light_switch/client/CMakeFiles/light_switch_client_nrf52840_xxAA_s140_6.0.0.dir/__/__/__/mesh/access/src/access_reliable.c.obj
LOAD examples/light_switch/client/CMakeFiles/light_switch_client_nrf52840_xxAA_s140_6.0.0.dir/__/__/__/mesh/access/src/access_loopback.c.obj
LOAD examples/light_switch/client/CMakeFiles/light_switch_client_nrf52840_xxAA_s140_6.0.0.dir/__/__/__/mesh/access/src/device_state_manager.c.obj
LOAD examples/light_switch/client/CMakeFiles/light_switch_client_nrf52840_xxAA_s140_6.0.0.dir/__/__/__/mesh/prov/src/prov_provisionee.c.obj
LOAD examples/light_switch/client/CMakeFiles/light_switch_client_nrf52840_xxAA_s140_6.0.0.dir/__/__/__/mesh/prov/src/nrf_mesh_prov.c.obj
LOAD examples/light_switch/client/CMakeFiles/light_switch_client_nrf52840_xxAA_s140_6.0.0.dir/__/__/__/mesh/prov/src/provisioning.c.obj
LOAD examples/light_switch/client/CMakeFiles/light_switch_client_nrf52840_xxAA_s140_6.0.0.dir/__/__/__/mesh/prov/src/prov_beacon.c.obj
LOAD examples/light_switch/client/CMakeFiles/light_switch_client_nrf52840_xxAA_s140_6.0.0.dir/__/__/__/mesh/prov/src/prov_utils.c.obj
LOAD examples/light_switch/client/CMakeFiles/light_switch_client_nrf52840_xxAA_s140_6.0.0.dir/__/__/__/mesh/prov/src/prov_bearer_adv.c.obj
LOAD examples/light_switch/client/CMakeFiles/light_switch_client_nrf52840_xxAA_s140_6.0.0.dir/C_/sdks/nRF5_SDK_15.0.0_a53641a/modules/nrfx/mdk/system_nrf52840.c.obj
LOAD examples/light_switch/client/CMakeFiles/light_switch_client_nrf52840_xxAA_s140_6.0.0.dir/C_/sdks/nRF5_SDK_15.0.0_a53641a/modules/nrfx/mdk/gcc_startup_nrf52840.S.obj
LOAD examples/light_switch/client/CMakeFiles/light_switch_client_nrf52840_xxAA_s140_6.0.0.dir/C_/sdks/nRF5_SDK_15.0.0_a53641a/components/libraries/util/app_error.c.obj
LOAD examples/light_switch/client/CMakeFiles/light_switch_client_nrf52840_xxAA_s140_6.0.0.dir/C_/sdks/nRF5_SDK_15.0.0_a53641a/components/libraries/util/app_util_platform.c.obj
LOAD examples/light_switch/client/CMakeFiles/light_switch_client_nrf52840_xxAA_s140_6.0.0.dir/C_/sdks/nRF5_SDK_15.0.0_a53641a/components/libraries/timer/app_timer.c.obj
LOAD examples/light_switch/client/CMakeFiles/light_switch_client_nrf52840_xxAA_s140_6.0.0.dir/C_/sdks/nRF5_SDK_15.0.0_a53641a/components/libraries/util/app_error_handler_gcc.c.obj
LOAD external/rtt/librtt_nrf52840_xxAA.a
LOAD external/micro-ecc/libuECC_nrf52840_xxAA.a
START GROUP
LOAD c:/arm_gcc/bin/../lib/gcc/arm-none-eabi/6.3.1/thumb/v7e-m/fpv4-sp/hard\libgcc.a
LOAD c:/arm_gcc/bin/../lib/gcc/arm-none-eabi/6.3.1/../../../../arm-none-eabi/lib/thumb/v7e-m/fpv4-sp/hard\libg_nano.a
LOAD c:/arm_gcc/bin/../lib/gcc/arm-none-eabi/6.3.1/../../../../arm-none-eabi/lib/thumb/v7e-m/fpv4-sp/hard\libc_nano.a
END GROUP
START GROUP
LOAD c:/arm_gcc/bin/../lib/gcc/arm-none-eabi/6.3.1/thumb/v7e-m/fpv4-sp/hard\libgcc.a
LOAD c:/arm_gcc/bin/../lib/gcc/arm-none-eabi/6.3.1/../../../../arm-none-eabi/lib/thumb/v7e-m/fpv4-sp/hard\libc_nano.a
END GROUP
LOAD c:/arm_gcc/bin/../lib/gcc/arm-none-eabi/6.3.1/thumb/v7e-m/fpv4-sp/hard/crtend.o
LOAD c:/arm_gcc/bin/../lib/gcc/arm-none-eabi/6.3.1/thumb/v7e-m/fpv4-sp/hard/crtn.o
START GROUP
LOAD c:/arm_gcc/bin/../lib/gcc/arm-none-eabi/6.3.1/thumb/v7e-m/fpv4-sp/hard\libgcc.a
LOAD c:/arm_gcc/bin/../lib/gcc/arm-none-eabi/6.3.1/../../../../arm-none-eabi/lib/thumb/v7e-m/fpv4-sp/hard\libc.a
LOAD c:/arm_gcc/bin/../lib/gcc/arm-none-eabi/6.3.1/../../../../arm-none-eabi/lib/thumb/v7e-m/fpv4-sp/hard\libnosys.a
END GROUP

.igot.plt       0x20002ef0        0x0 load address 0x0003abd4
 .igot.plt      0x20002ef0        0x0 c:/arm_gcc/bin/../lib/gcc/arm-none-eabi/6.3.1/thumb/v7e-m/fpv4-sp/hard/crtbegin.o
                0x20002ef0                . = ALIGN (0x4)

.svc_data       0x20002ef0        0x0
                [!provide]                PROVIDE (__start_svc_data, .)
 *(.svc_data)
                [!provide]                PROVIDE (__stop_svc_data, .)

.fs_data        0x20002ef0        0x0
                [!provide]                PROVIDE (__start_fs_data, .)
 *(.fs_data)
                [!provide]                PROVIDE (__stop_fs_data, .)

.log_dynamic_data
                0x20002ef0        0x0
                [!provide]                PROVIDE (__start_log_dynamic_data, .)
 *(.log_dynamic_data)
                [!provide]                PROVIDE (__stop_log_dynamic_data, .)

.cli_sorted_cmd_ptrs
                0x20002ef0        0x0
                [!provide]                PROVIDE (__start_cli_sorted_cmd_ptrs, .)
 *(.cli_sorted_cmd_ptrs)
                [!provide]                PROVIDE (__stop_cli_sorted_cmd_ptrs, .)

.nrf_mesh_ram   0x20002ef0        0x0
                [!provide]                PROVIDE (__start_nrf_mesh_ram, .)
 *(SORT(.nrf_mesh_ram.*))
                [!provide]                PROVIDE (__stop_nrf_mesh_ram, .)

.bss            0x20002ef0     0x3328 load address 0x0003abd8
                0x20002ef0                . = ALIGN (0x4)
                0x20002ef0                __bss_start__ = .
 *(.bss*)
 .bss           0x20002ef0       0x1c c:/arm_gcc/bin/../lib/gcc/arm-none-eabi/6.3.1/thumb/v7e-m/fpv4-sp/hard/crtbegin.o
 .bss.m_clients
                0x20002f0c       0x68 examples/light_switch/client/CMakeFiles/light_switch_client_nrf52840_xxAA_s140_6.0.0.dir/src/main.c.obj
 .bss.m_device_provisioned
                0x20002f74        0x1 examples/light_switch/client/CMakeFiles/light_switch_client_nrf52840_xxAA_s140_6.0.0.dir/src/main.c.obj
 .bss.tid.12504
                0x20002f75        0x1 examples/light_switch/client/CMakeFiles/light_switch_client_nrf52840_xxAA_s140_6.0.0.dir/src/main.c.obj
 *fill*         0x20002f76        0x2 
 .bss.m_health_server
                0x20002f78       0x5c examples/light_switch/client/CMakeFiles/light_switch_client_nrf52840_xxAA_s140_6.0.0.dir/__/__/__/mesh/stack/src/mesh_stack.c.obj
 .bss.m_device_provisioned
                0x20002fd4        0x1 examples/light_switch/client/CMakeFiles/light_switch_client_nrf52840_xxAA_s140_6.0.0.dir/__/__/common/src/mesh_provisionee.c.obj
 *fill*         0x20002fd5        0x3 
 .bss.m_params  0x20002fd8        0xc examples/light_switch/client/CMakeFiles/light_switch_client_nrf52840_xxAA_s140_6.0.0.dir/__/__/common/src/mesh_provisionee.c.obj
 .bss.m_private_key
                0x20002fe4       0x20 examples/light_switch/client/CMakeFiles/light_switch_client_nrf52840_xxAA_s140_6.0.0.dir/__/__/common/src/mesh_provisionee.c.obj
 .bss.m_prov_bearer_adv
                0x20003004      0x1c8 examples/light_switch/client/CMakeFiles/light_switch_client_nrf52840_xxAA_s140_6.0.0.dir/__/__/common/src/mesh_provisionee.c.obj
 .bss.m_prov_ctx
                0x200031cc      0x134 examples/light_switch/client/CMakeFiles/light_switch_client_nrf52840_xxAA_s140_6.0.0.dir/__/__/common/src/mesh_provisionee.c.obj
 .bss.m_public_key
                0x20003300       0x40 examples/light_switch/client/CMakeFiles/light_switch_client_nrf52840_xxAA_s140_6.0.0.dir/__/__/common/src/mesh_provisionee.c.obj
 .bss.m_rtt_input_handler
                0x20003340        0x4 examples/light_switch/client/CMakeFiles/light_switch_client_nrf52840_xxAA_s140_6.0.0.dir/__/__/common/src/rtt_input.c.obj
 .bss.m_rtt_timer_data
                0x20003344       0x20 examples/light_switch/client/CMakeFiles/light_switch_client_nrf52840_xxAA_s140_6.0.0.dir/__/__/common/src/rtt_input.c.obj
 .bss.m_blink_count
                0x20003364        0x4 examples/light_switch/client/CMakeFiles/light_switch_client_nrf52840_xxAA_s140_6.0.0.dir/__/__/common/src/simple_hal.c.obj
 .bss.m_blink_mask
                0x20003368        0x4 examples/light_switch/client/CMakeFiles/light_switch_client_nrf52840_xxAA_s140_6.0.0.dir/__/__/common/src/simple_hal.c.obj
 .bss.m_blink_timer_data
                0x2000336c       0x20 examples/light_switch/client/CMakeFiles/light_switch_client_nrf52840_xxAA_s140_6.0.0.dir/__/__/common/src/simple_hal.c.obj
 .bss.m_button_handler_cb
                0x2000338c        0x4 examples/light_switch/client/CMakeFiles/light_switch_client_nrf52840_xxAA_s140_6.0.0.dir/__/__/common/src/simple_hal.c.obj
 .bss.m_last_button_press
                0x20003390        0x4 examples/light_switch/client/CMakeFiles/light_switch_client_nrf52840_xxAA_s140_6.0.0.dir/__/__/common/src/simple_hal.c.obj
 .bss.m_uuid    0x20003394       0x10 examples/light_switch/client/CMakeFiles/light_switch_client_nrf52840_xxAA_s140_6.0.0.dir/__/__/__/mesh/core/src/nrf_mesh_configure.c.obj
 .bss.m_msg_cache
                0x200033a4      0x100 examples/light_switch/client/CMakeFiles/light_switch_client_nrf52840_xxAA_s140_6.0.0.dir/__/__/__/mesh/core/src/msg_cache.c.obj
 .bss.m_msg_cache_head
                0x200034a4        0x4 examples/light_switch/client/CMakeFiles/light_switch_client_nrf52840_xxAA_s140_6.0.0.dir/__/__/__/mesh/core/src/msg_cache.c.obj
 .bss.m_control_packet_consumer_count
                0x200034a8        0x4 examples/light_switch/client/CMakeFiles/light_switch_client_nrf52840_xxAA_s140_6.0.0.dir/__/__/__/mesh/core/src/transport.c.obj
 .bss.m_control_packet_consumers
                0x200034ac        0x8 examples/light_switch/client/CMakeFiles/light_switch_client_nrf52840_xxAA_s140_6.0.0.dir/__/__/__/mesh/core/src/transport.c.obj
 .bss.m_sar_alloc
                0x200034b4        0x4 examples/light_switch/client/CMakeFiles/light_switch_client_nrf52840_xxAA_s140_6.0.0.dir/__/__/__/mesh/core/src/transport.c.obj
 .bss.m_sar_process_flag
                0x200034b8        0x4 examples/light_switch/client/CMakeFiles/light_switch_client_nrf52840_xxAA_s140_6.0.0.dir/__/__/__/mesh/core/src/transport.c.obj
 .bss.m_sar_release
                0x200034bc        0x4 examples/light_switch/client/CMakeFiles/light_switch_client_nrf52840_xxAA_s140_6.0.0.dir/__/__/__/mesh/core/src/transport.c.obj
 .bss.m_sar_session_cache
                0x200034c0       0x40 examples/light_switch/client/CMakeFiles/light_switch_client_nrf52840_xxAA_s140_6.0.0.dir/__/__/__/mesh/core/src/transport.c.obj
 .bss.m_sar_session_cache_head
                0x20003500        0x4 examples/light_switch/client/CMakeFiles/light_switch_client_nrf52840_xxAA_s140_6.0.0.dir/__/__/__/mesh/core/src/transport.c.obj
 .bss.m_trs_config
                0x20003504       0x18 examples/light_switch/client/CMakeFiles/light_switch_client_nrf52840_xxAA_s140_6.0.0.dir/__/__/__/mesh/core/src/transport.c.obj
 .bss.m_trs_sar_sessions
                0x2000351c      0x1b0 examples/light_switch/client/CMakeFiles/light_switch_client_nrf52840_xxAA_s140_6.0.0.dir/__/__/__/mesh/core/src/transport.c.obj
 .bss.m_event_handler_state
                0x200036cc        0x1 examples/light_switch/client/CMakeFiles/light_switch_client_nrf52840_xxAA_s140_6.0.0.dir/__/__/__/mesh/core/src/event.c.obj
 *fill*         0x200036cd        0x3 
 .bss.mp_evt_handlers_head
                0x200036d0        0x4 examples/light_switch/client/CMakeFiles/light_switch_client_nrf52840_xxAA_s140_6.0.0.dir/__/__/__/mesh/core/src/event.c.obj
 .bss.m_defrag  0x200036d4       0x1c examples/light_switch/client/CMakeFiles/light_switch_client_nrf52840_xxAA_s140_6.0.0.dir/__/__/__/mesh/core/src/flash_manager_defrag.c.obj
 .bss.m_token   0x200036f0        0x2 examples/light_switch/client/CMakeFiles/light_switch_client_nrf52840_xxAA_s140_6.0.0.dir/__/__/__/mesh/core/src/flash_manager_defrag.c.obj
 *fill*         0x200036f2        0x2 
 .bss.mp_recovery_area
                0x200036f4        0x4 examples/light_switch/client/CMakeFiles/light_switch_client_nrf52840_xxAA_s140_6.0.0.dir/__/__/__/mesh/core/src/flash_manager_defrag.c.obj
 .bss.p_null_ptr.10617
                0x200036f8        0x4 examples/light_switch/client/CMakeFiles/light_switch_client_nrf52840_xxAA_s140_6.0.0.dir/__/__/__/mesh/core/src/flash_manager_defrag.c.obj
 .bss.m_pool    0x200036fc     0x1000 examples/light_switch/client/CMakeFiles/light_switch_client_nrf52840_xxAA_s140_6.0.0.dir/__/__/__/mesh/core/src/packet_mgr.c.obj
 .bss.mp_free_head
                0x200046fc        0x4 examples/light_switch/client/CMakeFiles/light_switch_client_nrf52840_xxAA_s140_6.0.0.dir/__/__/__/mesh/core/src/packet_mgr.c.obj
 .bss.lock_count.10778
                0x20004700        0x4 examples/light_switch/client/CMakeFiles/light_switch_client_nrf52840_xxAA_s140_6.0.0.dir/__/__/__/mesh/core/src/net_state.c.obj
 .bss.m_enabled
                0x20004704        0x1 examples/light_switch/client/CMakeFiles/light_switch_client_nrf52840_xxAA_s140_6.0.0.dir/__/__/__/mesh/core/src/net_state.c.obj
 *fill*         0x20004705        0x3 
 .bss.m_flash_manager
                0x20004708       0x24 examples/light_switch/client/CMakeFiles/light_switch_client_nrf52840_xxAA_s140_6.0.0.dir/__/__/__/mesh/core/src/net_state.c.obj
 .bss.m_iv_state_set
                0x2000472c        0x1 examples/light_switch/client/CMakeFiles/light_switch_client_nrf52840_xxAA_s140_6.0.0.dir/__/__/__/mesh/core/src/net_state.c.obj
 *fill*         0x2000472d        0x3 
 .bss.m_iv_update_timer
                0x20004730       0x18 examples/light_switch/client/CMakeFiles/light_switch_client_nrf52840_xxAA_s140_6.0.0.dir/__/__/__/mesh/core/src/net_state.c.obj
 .bss.m_mesh_evt_handler
                0x20004748        0xc examples/light_switch/client/CMakeFiles/light_switch_client_nrf52840_xxAA_s140_6.0.0.dir/__/__/__/mesh/core/src/net_state.c.obj
 .bss.m_net_state
                0x20004754       0x14 examples/light_switch/client/CMakeFiles/light_switch_client_nrf52840_xxAA_s140_6.0.0.dir/__/__/__/mesh/core/src/net_state.c.obj
 .bss.m_seqnum_allocation_in_progress
                0x20004768        0x1 examples/light_switch/client/CMakeFiles/light_switch_client_nrf52840_xxAA_s140_6.0.0.dir/__/__/__/mesh/core/src/net_state.c.obj
 .bss.m_test_mode
                0x20004769        0x1 examples/light_switch/client/CMakeFiles/light_switch_client_nrf52840_xxAA_s140_6.0.0.dir/__/__/__/mesh/core/src/net_state.c.obj
 *fill*         0x2000476a        0x2 
 .bss.m_event_flag
                0x2000476c        0x4 examples/light_switch/client/CMakeFiles/light_switch_client_nrf52840_xxAA_s140_6.0.0.dir/__/__/__/mesh/core/src/mesh_flash.c.obj
 .bss.m_suspended
                0x20004770        0x1 examples/light_switch/client/CMakeFiles/light_switch_client_nrf52840_xxAA_s140_6.0.0.dir/__/__/__/mesh/core/src/mesh_flash.c.obj
 *fill*         0x20004771        0x3 
 .bss.m_users   0x20004774      0x234 examples/light_switch/client/CMakeFiles/light_switch_client_nrf52840_xxAA_s140_6.0.0.dir/__/__/__/mesh/core/src/mesh_flash.c.obj
 .bss.m_is_enabled
                0x200049a8        0x1 examples/light_switch/client/CMakeFiles/light_switch_client_nrf52840_xxAA_s140_6.0.0.dir/__/__/__/mesh/core/src/nrf_mesh.c.obj
 .bss.m_is_initialized
                0x200049a9        0x1 examples/light_switch/client/CMakeFiles/light_switch_client_nrf52840_xxAA_s140_6.0.0.dir/__/__/__/mesh/core/src/nrf_mesh.c.obj
 *fill*         0x200049aa        0x2 
 .bss.m_rx_cb   0x200049ac        0x4 examples/light_switch/client/CMakeFiles/light_switch_client_nrf52840_xxAA_s140_6.0.0.dir/__/__/__/mesh/core/src/nrf_mesh.c.obj
 .bss.m_tx_token
                0x200049b0        0x4 examples/light_switch/client/CMakeFiles/light_switch_client_nrf52840_xxAA_s140_6.0.0.dir/__/__/__/mesh/core/src/nrf_mesh.c.obj
 .bss.m_event_flag
                0x200049b4        0x4 examples/light_switch/client/CMakeFiles/light_switch_client_nrf52840_xxAA_s140_6.0.0.dir/__/__/__/mesh/core/src/timer_scheduler.c.obj
 .bss.m_scheduler
                0x200049b8        0x8 examples/light_switch/client/CMakeFiles/light_switch_client_nrf52840_xxAA_s140_6.0.0.dir/__/__/__/mesh/core/src/timer_scheduler.c.obj
 .bss.m_attributes
                0x200049c0        0x3 examples/light_switch/client/CMakeFiles/light_switch_client_nrf52840_xxAA_s140_6.0.0.dir/__/__/__/mesh/core/src/timer.c.obj
 *fill*         0x200049c3        0x1 
 .bss.m_callbacks
                0x200049c4        0xc examples/light_switch/client/CMakeFiles/light_switch_client_nrf52840_xxAA_s140_6.0.0.dir/__/__/__/mesh/core/src/timer.c.obj
 .bss.m_is_in_ts
                0x200049d0        0x1 examples/light_switch/client/CMakeFiles/light_switch_client_nrf52840_xxAA_s140_6.0.0.dir/__/__/__/mesh/core/src/timer.c.obj
 *fill*         0x200049d1        0x3 
 .bss.m_reference_time
                0x200049d4        0x4 examples/light_switch/client/CMakeFiles/light_switch_client_nrf52840_xxAA_s140_6.0.0.dir/__/__/__/mesh/core/src/timer.c.obj
 .bss.m_timeouts
                0x200049d8        0xc examples/light_switch/client/CMakeFiles/light_switch_client_nrf52840_xxAA_s140_6.0.0.dir/__/__/__/mesh/core/src/timer.c.obj
 .bss.m_timer_mut
                0x200049e4        0x4 examples/light_switch/client/CMakeFiles/light_switch_client_nrf52840_xxAA_s140_6.0.0.dir/__/__/__/mesh/core/src/timer.c.obj
 .bss.m_ts_end_time
                0x200049e8        0x4 examples/light_switch/client/CMakeFiles/light_switch_client_nrf52840_xxAA_s140_6.0.0.dir/__/__/__/mesh/core/src/timer.c.obj
 .bss.mp_ppi_tasks
                0x200049ec        0xc examples/light_switch/client/CMakeFiles/light_switch_client_nrf52840_xxAA_s140_6.0.0.dir/__/__/__/mesh/core/src/timer.c.obj
 .bss.m_mesh_opt_core_file_backend_data
                0x200049f8       0x2c examples/light_switch/client/CMakeFiles/light_switch_client_nrf52840_xxAA_s140_6.0.0.dir/__/__/__/mesh/core/src/mesh_opt.c.obj
 .bss.m_current_timeslot
                0x20004a24       0x1c examples/light_switch/client/CMakeFiles/light_switch_client_nrf52840_xxAA_s140_6.0.0.dir/__/__/__/mesh/core/src/timeslot.c.obj
 .bss.m_lfclk_ppm
                0x20004a40        0x4 examples/light_switch/client/CMakeFiles/light_switch_client_nrf52840_xxAA_s140_6.0.0.dir/__/__/__/mesh/core/src/timeslot.c.obj
 .bss.m_radio_request_earliest
                0x20004a44       0x10 examples/light_switch/client/CMakeFiles/light_switch_client_nrf52840_xxAA_s140_6.0.0.dir/__/__/__/mesh/core/src/timeslot.c.obj
 .bss.m_state_lock
                0x20004a54        0x1 examples/light_switch/client/CMakeFiles/light_switch_client_nrf52840_xxAA_s140_6.0.0.dir/__/__/__/mesh/core/src/timeslot.c.obj
 .bss.m_timeslot_forced_command
                0x20004a55        0x1 examples/light_switch/client/CMakeFiles/light_switch_client_nrf52840_xxAA_s140_6.0.0.dir/__/__/__/mesh/core/src/timeslot.c.obj
 *fill*         0x20004a56        0x2 
 .bss.s_last_rtc_value.9679
                0x20004a58        0x8 examples/light_switch/client/CMakeFiles/light_switch_client_nrf52840_xxAA_s140_6.0.0.dir/__/__/__/mesh/core/src/timeslot.c.obj
 .bss.m_bearer_event_fifo
                0x20004a60       0x14 examples/light_switch/client/CMakeFiles/light_switch_client_nrf52840_xxAA_s140_6.0.0.dir/__/__/__/mesh/core/src/bearer_event.c.obj
 .bss.m_bearer_event_fifo_buffer
                0x20004a74      0x100 examples/light_switch/client/CMakeFiles/light_switch_client_nrf52840_xxAA_s140_6.0.0.dir/__/__/__/mesh/core/src/bearer_event.c.obj
 .bss.m_critical
                0x20004b74        0x4 examples/light_switch/client/CMakeFiles/light_switch_client_nrf52840_xxAA_s140_6.0.0.dir/__/__/__/mesh/core/src/bearer_event.c.obj
 .bss.m_flag_count
                0x20004b78        0x4 examples/light_switch/client/CMakeFiles/light_switch_client_nrf52840_xxAA_s140_6.0.0.dir/__/__/__/mesh/core/src/bearer_event.c.obj
 .bss.m_flag_event_callbacks
                0x20004b7c       0x24 examples/light_switch/client/CMakeFiles/light_switch_client_nrf52840_xxAA_s140_6.0.0.dir/__/__/__/mesh/core/src/bearer_event.c.obj
 .bss.m_flags   0x20004ba0        0x4 examples/light_switch/client/CMakeFiles/light_switch_client_nrf52840_xxAA_s140_6.0.0.dir/__/__/__/mesh/core/src/bearer_event.c.obj
 .bss.m_irq_priority
                0x20004ba4        0x1 examples/light_switch/client/CMakeFiles/light_switch_client_nrf52840_xxAA_s140_6.0.0.dir/__/__/__/mesh/core/src/bearer_event.c.obj
 *fill*         0x20004ba5        0x3 
 .bss.m_sequential_event_queue
                0x20004ba8        0x8 examples/light_switch/client/CMakeFiles/light_switch_client_nrf52840_xxAA_s140_6.0.0.dir/__/__/__/mesh/core/src/bearer_event.c.obj
 .bss.s_recursion_guard.9802
                0x20004bb0        0x1 examples/light_switch/client/CMakeFiles/light_switch_client_nrf52840_xxAA_s140_6.0.0.dir/__/__/__/mesh/core/src/bearer_event.c.obj
 *fill*         0x20004bb1        0x3 
 .bss.m_relay_check_cb
                0x20004bb4        0x4 examples/light_switch/client/CMakeFiles/light_switch_client_nrf52840_xxAA_s140_6.0.0.dir/__/__/__/mesh/core/src/network.c.obj
 .bss.m_action_queue
                0x20004bb8        0xc examples/light_switch/client/CMakeFiles/light_switch_client_nrf52840_xxAA_s140_6.0.0.dir/__/__/__/mesh/core/src/flash_manager.c.obj
 .bss.m_action_queue_buffer
                0x20004bc4      0x104 examples/light_switch/client/CMakeFiles/light_switch_client_nrf52840_xxAA_s140_6.0.0.dir/__/__/__/mesh/core/src/flash_manager.c.obj
 .bss.m_action_state
                0x20004cc8        0x1 examples/light_switch/client/CMakeFiles/light_switch_client_nrf52840_xxAA_s140_6.0.0.dir/__/__/__/mesh/core/src/flash_manager.c.obj
 *fill*         0x20004cc9        0x3 
 .bss.m_memory_listener_queue
                0x20004ccc        0x8 examples/light_switch/client/CMakeFiles/light_switch_client_nrf52840_xxAA_s140_6.0.0.dir/__/__/__/mesh/core/src/flash_manager.c.obj
 .bss.m_processing_flag
                0x20004cd4        0x4 examples/light_switch/client/CMakeFiles/light_switch_client_nrf52840_xxAA_s140_6.0.0.dir/__/__/__/mesh/core/src/flash_manager.c.obj
 .bss.m_queue_empty_cb
                0x20004cd8        0x4 examples/light_switch/client/CMakeFiles/light_switch_client_nrf52840_xxAA_s140_6.0.0.dir/__/__/__/mesh/core/src/flash_manager.c.obj
 .bss.m_state   0x20004cdc        0x1 examples/light_switch/client/CMakeFiles/light_switch_client_nrf52840_xxAA_s140_6.0.0.dir/__/__/__/mesh/core/src/flash_manager.c.obj
 *fill*         0x20004cdd        0x1 
 .bss.m_token   0x20004cde        0x2 examples/light_switch/client/CMakeFiles/light_switch_client_nrf52840_xxAA_s140_6.0.0.dir/__/__/__/mesh/core/src/flash_manager.c.obj
 .bss.p_current.11525
                0x20004ce0        0x4 examples/light_switch/client/CMakeFiles/light_switch_client_nrf52840_xxAA_s140_6.0.0.dir/__/__/__/mesh/core/src/flash_manager.c.obj
 .bss.result.11526
                0x20004ce4        0x1 examples/light_switch/client/CMakeFiles/light_switch_client_nrf52840_xxAA_s140_6.0.0.dir/__/__/__/mesh/core/src/flash_manager.c.obj
 .bss.m_cache_index
                0x20004ce5        0x1 examples/light_switch/client/CMakeFiles/light_switch_client_nrf52840_xxAA_s140_6.0.0.dir/__/__/__/mesh/core/src/replay_cache.c.obj
 *fill*         0x20004ce6        0x2 
 .bss.m_replay_cache
                0x20004ce8      0x280 examples/light_switch/client/CMakeFiles/light_switch_client_nrf52840_xxAA_s140_6.0.0.dir/__/__/__/mesh/core/src/replay_cache.c.obj
 .bss.m_bearer_count
                0x20004f68        0x1 examples/light_switch/client/CMakeFiles/light_switch_client_nrf52840_xxAA_s140_6.0.0.dir/__/__/__/mesh/core/src/core_tx.c.obj
 *fill*         0x20004f69        0x3 
 .bss.m_tx_complete_callback
                0x20004f6c        0x4 examples/light_switch/client/CMakeFiles/light_switch_client_nrf52840_xxAA_s140_6.0.0.dir/__/__/__/mesh/core/src/core_tx.c.obj
 .bss.mp_bearers
                0x20004f70        0x4 examples/light_switch/client/CMakeFiles/light_switch_client_nrf52840_xxAA_s140_6.0.0.dir/__/__/__/mesh/core/src/core_tx.c.obj
 .bss.m_hb_core_evt_handler
                0x20004f74        0xc examples/light_switch/client/CMakeFiles/light_switch_client_nrf52840_xxAA_s140_6.0.0.dir/__/__/__/mesh/core/src/heartbeat.c.obj
 .bss.m_hb_pending_feat_msg
                0x20004f80        0x1 examples/light_switch/client/CMakeFiles/light_switch_client_nrf52840_xxAA_s140_6.0.0.dir/__/__/__/mesh/core/src/heartbeat.c.obj
 .bss.m_hb_pending_pub_msg
                0x20004f81        0x1 examples/light_switch/client/CMakeFiles/light_switch_client_nrf52840_xxAA_s140_6.0.0.dir/__/__/__/mesh/core/src/heartbeat.c.obj
 .bss.m_heartbeat_init_done
                0x20004f82        0x1 examples/light_switch/client/CMakeFiles/light_switch_client_nrf52840_xxAA_s140_6.0.0.dir/__/__/__/mesh/core/src/heartbeat.c.obj
 *fill*         0x20004f83        0x1 
 .bss.m_heartbeat_publication
                0x20004f84       0x14 examples/light_switch/client/CMakeFiles/light_switch_client_nrf52840_xxAA_s140_6.0.0.dir/__/__/__/mesh/core/src/heartbeat.c.obj
 .bss.m_heartbeat_publication_state
                0x20004f98        0x1 examples/light_switch/client/CMakeFiles/light_switch_client_nrf52840_xxAA_s140_6.0.0.dir/__/__/__/mesh/core/src/heartbeat.c.obj
 *fill*         0x20004f99        0x3 
 .bss.m_heartbeat_subscription
                0x20004f9c       0x10 examples/light_switch/client/CMakeFiles/light_switch_client_nrf52840_xxAA_s140_6.0.0.dir/__/__/__/mesh/core/src/heartbeat.c.obj
 .bss.m_latched_features
                0x20004fac        0x1 examples/light_switch/client/CMakeFiles/light_switch_client_nrf52840_xxAA_s140_6.0.0.dir/__/__/__/mesh/core/src/heartbeat.c.obj
 *fill*         0x20004fad        0x3 
 .bss.m_publication_timer
                0x20004fb0       0x1c examples/light_switch/client/CMakeFiles/light_switch_client_nrf52840_xxAA_s140_6.0.0.dir/__/__/__/mesh/core/src/heartbeat.c.obj
 .bss.m_subscription_timer
                0x20004fcc       0x18 examples/light_switch/client/CMakeFiles/light_switch_client_nrf52840_xxAA_s140_6.0.0.dir/__/__/__/mesh/core/src/heartbeat.c.obj
 .bss.mp_getter
                0x20004fe4        0x4 examples/light_switch/client/CMakeFiles/light_switch_client_nrf52840_xxAA_s140_6.0.0.dir/__/__/__/mesh/core/src/heartbeat.c.obj
 .bss.m_adv     0x20004fe8       0x9c examples/light_switch/client/CMakeFiles/light_switch_client_nrf52840_xxAA_s140_6.0.0.dir/__/__/__/mesh/core/src/net_beacon.c.obj
 .bss.m_adv_buf
                0x20005084       0x34 examples/light_switch/client/CMakeFiles/light_switch_client_nrf52840_xxAA_s140_6.0.0.dir/__/__/__/mesh/core/src/net_beacon.c.obj
 .bss.m_beacon_salt
                0x200050b8       0x10 examples/light_switch/client/CMakeFiles/light_switch_client_nrf52840_xxAA_s140_6.0.0.dir/__/__/__/mesh/core/src/net_beacon.c.obj
 .bss.m_enabled
                0x200050c8        0x1 examples/light_switch/client/CMakeFiles/light_switch_client_nrf52840_xxAA_s140_6.0.0.dir/__/__/__/mesh/core/src/net_beacon.c.obj
 .bss.m_net_beacon_enable_state
                0x200050c9        0x1 examples/light_switch/client/CMakeFiles/light_switch_client_nrf52840_xxAA_s140_6.0.0.dir/__/__/__/mesh/core/src/net_beacon.c.obj
 *fill*         0x200050ca        0x2 
 .bss.m_tx_timer
                0x200050cc       0x18 examples/light_switch/client/CMakeFiles/light_switch_client_nrf52840_xxAA_s140_6.0.0.dir/__/__/__/mesh/core/src/net_beacon.c.obj
 .bss.mp_beacon_info
                0x200050e4        0x4 examples/light_switch/client/CMakeFiles/light_switch_client_nrf52840_xxAA_s140_6.0.0.dir/__/__/__/mesh/core/src/net_beacon.c.obj
 .bss.m_file_count
                0x200050e8        0x4 examples/light_switch/client/CMakeFiles/light_switch_client_nrf52840_xxAA_s140_6.0.0.dir/__/__/__/mesh/core/src/mesh_config_backend.c.obj
 .bss.m_power_down_time_us
                0x200050ec        0x4 examples/light_switch/client/CMakeFiles/light_switch_client_nrf52840_xxAA_s140_6.0.0.dir/__/__/__/mesh/core/src/mesh_config_backend.c.obj
 .bss.mp_files  0x200050f0        0x4 examples/light_switch/client/CMakeFiles/light_switch_client_nrf52840_xxAA_s140_6.0.0.dir/__/__/__/mesh/core/src/mesh_config_backend.c.obj
 .bss.m_allocated_page_count
                0x200050f4        0x1 examples/light_switch/client/CMakeFiles/light_switch_client_nrf52840_xxAA_s140_6.0.0.dir/__/__/__/mesh/core/src/mesh_config_flashman_glue.c.obj
 *fill*         0x200050f5        0x3 
 .bss.m_evt_cb  0x200050f8        0x4 examples/light_switch/client/CMakeFiles/light_switch_client_nrf52840_xxAA_s140_6.0.0.dir/__/__/__/mesh/core/src/mesh_config_flashman_glue.c.obj
 .bss.m_bearer  0x200050fc        0xc examples/light_switch/client/CMakeFiles/light_switch_client_nrf52840_xxAA_s140_6.0.0.dir/__/__/__/mesh/core/src/core_tx_adv.c.obj
 .bss.m_bearer_roles
                0x20005108      0x140 examples/light_switch/client/CMakeFiles/light_switch_client_nrf52840_xxAA_s140_6.0.0.dir/__/__/__/mesh/core/src/core_tx_adv.c.obj
 .bss.m_current_alloc
                0x20005248        0x8 examples/light_switch/client/CMakeFiles/light_switch_client_nrf52840_xxAA_s140_6.0.0.dir/__/__/__/mesh/core/src/core_tx_adv.c.obj
 .bss.m_default_adv_addr
                0x20005250        0x7 examples/light_switch/client/CMakeFiles/light_switch_client_nrf52840_xxAA_s140_6.0.0.dir/__/__/__/mesh/core/src/core_tx_adv.c.obj
 .bss.m_mesh_opt_core_adv_addr_state
                0x20005257        0x2 examples/light_switch/client/CMakeFiles/light_switch_client_nrf52840_xxAA_s140_6.0.0.dir/__/__/__/mesh/core/src/core_tx_adv.c.obj
 .bss.m_mesh_opt_core_adv_state
                0x20005259        0x2 examples/light_switch/client/CMakeFiles/light_switch_client_nrf52840_xxAA_s140_6.0.0.dir/__/__/__/mesh/core/src/core_tx_adv.c.obj
 .bss.m_mesh_opt_core_tx_power_state
                0x2000525b        0x2 examples/light_switch/client/CMakeFiles/light_switch_client_nrf52840_xxAA_s140_6.0.0.dir/__/__/__/mesh/core/src/core_tx_adv.c.obj
 .bss.m_originator_adv_packet_buffer
                0x2000525d      0x100 examples/light_switch/client/CMakeFiles/light_switch_client_nrf52840_xxAA_s140_6.0.0.dir/__/__/__/mesh/core/src/core_tx_adv.c.obj
 .bss.m_relay_adv_packet_buffer
                0x2000535d       0x80 examples/light_switch/client/CMakeFiles/light_switch_client_nrf52840_xxAA_s140_6.0.0.dir/__/__/__/mesh/core/src/core_tx_adv.c.obj
 *fill*         0x200053dd        0x3 
 .bss.m_subscribers
                0x200053e0        0x4 examples/light_switch/client/CMakeFiles/light_switch_client_nrf52840_xxAA_s140_6.0.0.dir/__/__/__/mesh/bearer/src/ad_listener.c.obj
 .bss.m_adtype_filter
                0x200053e4       0x38 examples/light_switch/client/CMakeFiles/light_switch_client_nrf52840_xxAA_s140_6.0.0.dir/__/__/__/mesh/bearer/src/ad_type_filter.c.obj
 .bss.m_adv_prng
                0x2000541c       0x10 examples/light_switch/client/CMakeFiles/light_switch_client_nrf52840_xxAA_s140_6.0.0.dir/__/__/__/mesh/bearer/src/advertiser.c.obj
 .bss.m_action_ended
                0x2000542c        0x1 examples/light_switch/client/CMakeFiles/light_switch_client_nrf52840_xxAA_s140_6.0.0.dir/__/__/__/mesh/bearer/src/bearer_handler.c.obj
 *fill*         0x2000542d        0x3 
 .bss.m_action_queue
                0x20005430        0x8 examples/light_switch/client/CMakeFiles/light_switch_client_nrf52840_xxAA_s140_6.0.0.dir/__/__/__/mesh/bearer/src/bearer_handler.c.obj
 .bss.m_end_time
                0x20005438        0x4 examples/light_switch/client/CMakeFiles/light_switch_client_nrf52840_xxAA_s140_6.0.0.dir/__/__/__/mesh/bearer/src/bearer_handler.c.obj
 .bss.m_in_callback
                0x2000543c        0x1 examples/light_switch/client/CMakeFiles/light_switch_client_nrf52840_xxAA_s140_6.0.0.dir/__/__/__/mesh/bearer/src/bearer_handler.c.obj
 .bss.m_scanner_is_active
                0x2000543d        0x1 examples/light_switch/client/CMakeFiles/light_switch_client_nrf52840_xxAA_s140_6.0.0.dir/__/__/__/mesh/bearer/src/bearer_handler.c.obj
 .bss.m_stopped
                0x2000543e        0x1 examples/light_switch/client/CMakeFiles/light_switch_client_nrf52840_xxAA_s140_6.0.0.dir/__/__/__/mesh/bearer/src/bearer_handler.c.obj
 *fill*         0x2000543f        0x1 
 .bss.mp_action
                0x20005440        0x4 examples/light_switch/client/CMakeFiles/light_switch_client_nrf52840_xxAA_s140_6.0.0.dir/__/__/__/mesh/bearer/src/bearer_handler.c.obj
 .bss.m_action_start_time
                0x20005444        0x4 examples/light_switch/client/CMakeFiles/light_switch_client_nrf52840_xxAA_s140_6.0.0.dir/__/__/__/mesh/bearer/src/broadcast.c.obj
 .bss.m_next_channel_index
                0x20005448        0x1 examples/light_switch/client/CMakeFiles/light_switch_client_nrf52840_xxAA_s140_6.0.0.dir/__/__/__/mesh/bearer/src/broadcast.c.obj
 *fill*         0x20005449        0x3 
 .bss.m_accepted_amount
                0x2000544c        0x4 examples/light_switch/client/CMakeFiles/light_switch_client_nrf52840_xxAA_s140_6.0.0.dir/__/__/__/mesh/bearer/src/filter_engine.c.obj
 .bss.m_filter_list_head
                0x20005450        0x4 examples/light_switch/client/CMakeFiles/light_switch_client_nrf52840_xxAA_s140_6.0.0.dir/__/__/__/mesh/bearer/src/filter_engine.c.obj
 .bss.m_scanner
                0x20005454      0x298 examples/light_switch/client/CMakeFiles/light_switch_client_nrf52840_xxAA_s140_6.0.0.dir/__/__/__/mesh/bearer/src/scanner.c.obj
 .bss.m_gpiote  0x200056ec        0x6 examples/light_switch/client/CMakeFiles/light_switch_client_nrf52840_xxAA_s140_6.0.0.dir/__/__/__/mesh/bearer/src/mesh_pa_lna.c.obj
 *fill*         0x200056f2        0x2 
 .bss.m_evt_cb  0x200056f4        0x4 examples/light_switch/client/CMakeFiles/light_switch_client_nrf52840_xxAA_s140_6.0.0.dir/__/__/__/models/foundation/config/src/config_server.c.obj
 .bss.m_node_reset_pending
                0x200056f8        0x1 examples/light_switch/client/CMakeFiles/light_switch_client_nrf52840_xxAA_s140_6.0.0.dir/__/__/__/models/foundation/config/src/config_server.c.obj
 *fill*         0x200056f9        0x3 
 .bss.m_reset_token
                0x200056fc        0x4 examples/light_switch/client/CMakeFiles/light_switch_client_nrf52840_xxAA_s140_6.0.0.dir/__/__/__/models/foundation/config/src/config_server.c.obj
 .bss.m_attention_timer
                0x20005700       0x18 examples/light_switch/client/CMakeFiles/light_switch_client_nrf52840_xxAA_s140_6.0.0.dir/__/__/__/models/foundation/health/src/health_server.c.obj
 .bss.mp_attention_list
                0x20005718        0x4 examples/light_switch/client/CMakeFiles/light_switch_client_nrf52840_xxAA_s140_6.0.0.dir/__/__/__/models/foundation/health/src/health_server.c.obj
 .bss.m_publish_timer
                0x2000571c       0x18 examples/light_switch/client/CMakeFiles/light_switch_client_nrf52840_xxAA_s140_6.0.0.dir/__/__/__/mesh/access/src/access_publish.c.obj
 .bss.m_publish_timer_counter
                0x20005734        0x4 examples/light_switch/client/CMakeFiles/light_switch_client_nrf52840_xxAA_s140_6.0.0.dir/__/__/__/mesh/access/src/access_publish.c.obj
 .bss.m_publish_timer_running
                0x20005738        0x1 examples/light_switch/client/CMakeFiles/light_switch_client_nrf52840_xxAA_s140_6.0.0.dir/__/__/__/mesh/access/src/access_publish.c.obj
 .bss.m_timer_resolution
                0x20005739        0x1 examples/light_switch/client/CMakeFiles/light_switch_client_nrf52840_xxAA_s140_6.0.0.dir/__/__/__/mesh/access/src/access_publish.c.obj
 *fill*         0x2000573a        0x2 
 .bss.mp_publication_list
                0x2000573c        0x4 examples/light_switch/client/CMakeFiles/light_switch_client_nrf52840_xxAA_s140_6.0.0.dir/__/__/__/mesh/access/src/access_publish.c.obj
 .bss.m_element_pool
                0x20005740       0x12 examples/light_switch/client/CMakeFiles/light_switch_client_nrf52840_xxAA_s140_6.0.0.dir/__/__/__/mesh/access/src/access.c.obj
 *fill*         0x20005752        0x2 
 .bss.m_evt_handler
                0x20005754        0xc examples/light_switch/client/CMakeFiles/light_switch_client_nrf52840_xxAA_s140_6.0.0.dir/__/__/__/mesh/access/src/access.c.obj
 .bss.m_flash_manager
                0x20005760       0x24 examples/light_switch/client/CMakeFiles/light_switch_client_nrf52840_xxAA_s140_6.0.0.dir/__/__/__/mesh/access/src/access.c.obj
 .bss.m_flash_not_ready
                0x20005784        0x1 examples/light_switch/client/CMakeFiles/light_switch_client_nrf52840_xxAA_s140_6.0.0.dir/__/__/__/mesh/access/src/access.c.obj
 .bss.m_metadata_stored
                0x20005785        0x1 examples/light_switch/client/CMakeFiles/light_switch_client_nrf52840_xxAA_s140_6.0.0.dir/__/__/__/mesh/access/src/access.c.obj
 *fill*         0x20005786        0x2 
 .bss.m_model_pool
                0x20005788      0x138 examples/light_switch/client/CMakeFiles/light_switch_client_nrf52840_xxAA_s140_6.0.0.dir/__/__/__/mesh/access/src/access.c.obj
 .bss.m_subscription_list_pool
                0x200058c0       0x30 examples/light_switch/client/CMakeFiles/light_switch_client_nrf52840_xxAA_s140_6.0.0.dir/__/__/__/mesh/access/src/access.c.obj
 .bss.m_reliable
                0x200058f0      0x124 examples/light_switch/client/CMakeFiles/light_switch_client_nrf52840_xxAA_s140_6.0.0.dir/__/__/__/mesh/access/src/access_reliable.c.obj
 .bss.m_access_loopback_flag
                0x20005a14        0x4 examples/light_switch/client/CMakeFiles/light_switch_client_nrf52840_xxAA_s140_6.0.0.dir/__/__/__/mesh/access/src/access_loopback.c.obj
 .bss.mp_loopback_list_head
                0x20005a18        0x4 examples/light_switch/client/CMakeFiles/light_switch_client_nrf52840_xxAA_s140_6.0.0.dir/__/__/__/mesh/access/src/access_loopback.c.obj
 .bss.m_addr_nonvirtual_allocated
                0x20005a1c        0x4 examples/light_switch/client/CMakeFiles/light_switch_client_nrf52840_xxAA_s140_6.0.0.dir/__/__/__/mesh/access/src/device_state_manager.c.obj
 .bss.m_addr_nonvirtual_needs_flashing
                0x20005a20        0x4 examples/light_switch/client/CMakeFiles/light_switch_client_nrf52840_xxAA_s140_6.0.0.dir/__/__/__/mesh/access/src/device_state_manager.c.obj
 .bss.m_addr_unicast_allocated
                0x20005a24        0x4 examples/light_switch/client/CMakeFiles/light_switch_client_nrf52840_xxAA_s140_6.0.0.dir/__/__/__/mesh/access/src/device_state_manager.c.obj
 .bss.m_addr_unicast_needs_flashing
                0x20005a28        0x4 examples/light_switch/client/CMakeFiles/light_switch_client_nrf52840_xxAA_s140_6.0.0.dir/__/__/__/mesh/access/src/device_state_manager.c.obj
 .bss.m_addr_virtual_allocated
                0x20005a2c        0x4 examples/light_switch/client/CMakeFiles/light_switch_client_nrf52840_xxAA_s140_6.0.0.dir/__/__/__/mesh/access/src/device_state_manager.c.obj
 .bss.m_addr_virtual_needs_flashing
                0x20005a30        0x4 examples/light_switch/client/CMakeFiles/light_switch_client_nrf52840_xxAA_s140_6.0.0.dir/__/__/__/mesh/access/src/device_state_manager.c.obj
 .bss.m_addresses
                0x20005a34       0x1c examples/light_switch/client/CMakeFiles/light_switch_client_nrf52840_xxAA_s140_6.0.0.dir/__/__/__/mesh/access/src/device_state_manager.c.obj
 .bss.m_appkey_allocated
                0x20005a50        0x4 examples/light_switch/client/CMakeFiles/light_switch_client_nrf52840_xxAA_s140_6.0.0.dir/__/__/__/mesh/access/src/device_state_manager.c.obj
 .bss.m_appkey_needs_flashing
                0x20005a54        0x4 examples/light_switch/client/CMakeFiles/light_switch_client_nrf52840_xxAA_s140_6.0.0.dir/__/__/__/mesh/access/src/device_state_manager.c.obj
 .bss.m_appkeys
                0x20005a58       0x2a examples/light_switch/client/CMakeFiles/light_switch_client_nrf52840_xxAA_s140_6.0.0.dir/__/__/__/mesh/access/src/device_state_manager.c.obj
 *fill*         0x20005a82        0x2 
 .bss.m_devkey_allocated
                0x20005a84        0x4 examples/light_switch/client/CMakeFiles/light_switch_client_nrf52840_xxAA_s140_6.0.0.dir/__/__/__/mesh/access/src/device_state_manager.c.obj
 .bss.m_devkey_needs_flashing
                0x20005a88        0x4 examples/light_switch/client/CMakeFiles/light_switch_client_nrf52840_xxAA_s140_6.0.0.dir/__/__/__/mesh/access/src/device_state_manager.c.obj
 .bss.m_devkeys
                0x20005a8c       0x16 examples/light_switch/client/CMakeFiles/light_switch_client_nrf52840_xxAA_s140_6.0.0.dir/__/__/__/mesh/access/src/device_state_manager.c.obj
 .bss.m_flash_is_available
                0x20005aa2        0x1 examples/light_switch/client/CMakeFiles/light_switch_client_nrf52840_xxAA_s140_6.0.0.dir/__/__/__/mesh/access/src/device_state_manager.c.obj
 *fill*         0x20005aa3        0x1 
 .bss.m_flash_manager
                0x20005aa4       0x24 examples/light_switch/client/CMakeFiles/light_switch_client_nrf52840_xxAA_s140_6.0.0.dir/__/__/__/mesh/access/src/device_state_manager.c.obj
 .bss.m_flash_mem_listener_update_all
                0x20005ac8       0x10 examples/light_switch/client/CMakeFiles/light_switch_client_nrf52840_xxAA_s140_6.0.0.dir/__/__/__/mesh/access/src/device_state_manager.c.obj
 .bss.m_has_primary_subnet
                0x20005ad8        0x1 examples/light_switch/client/CMakeFiles/light_switch_client_nrf52840_xxAA_s140_6.0.0.dir/__/__/__/mesh/access/src/device_state_manager.c.obj
 *fill*         0x20005ad9        0x1 
 .bss.m_local_unicast_addr
                0x20005ada        0x4 examples/light_switch/client/CMakeFiles/light_switch_client_nrf52840_xxAA_s140_6.0.0.dir/__/__/__/mesh/access/src/device_state_manager.c.obj
 *fill*         0x20005ade        0x2 
 .bss.m_mesh_evt_handler
                0x20005ae0        0xc examples/light_switch/client/CMakeFiles/light_switch_client_nrf52840_xxAA_s140_6.0.0.dir/__/__/__/mesh/access/src/device_state_manager.c.obj
 .bss.m_subnet_allocated
                0x20005aec        0x4 examples/light_switch/client/CMakeFiles/light_switch_client_nrf52840_xxAA_s140_6.0.0.dir/__/__/__/mesh/access/src/device_state_manager.c.obj
 .bss.m_subnet_needs_flashing
                0x20005af0        0x4 examples/light_switch/client/CMakeFiles/light_switch_client_nrf52840_xxAA_s140_6.0.0.dir/__/__/__/mesh/access/src/device_state_manager.c.obj
 .bss.m_subnets
                0x20005af4       0xa8 examples/light_switch/client/CMakeFiles/light_switch_client_nrf52840_xxAA_s140_6.0.0.dir/__/__/__/mesh/access/src/device_state_manager.c.obj
 .bss.m_virtual_addresses
                0x20005b9c       0x14 examples/light_switch/client/CMakeFiles/light_switch_client_nrf52840_xxAA_s140_6.0.0.dir/__/__/__/mesh/access/src/device_state_manager.c.obj
 .bss.m_event_handler
                0x20005bb0        0x4 examples/light_switch/client/CMakeFiles/light_switch_client_nrf52840_xxAA_s140_6.0.0.dir/__/__/__/mesh/prov/src/prov_beacon.c.obj
 .bss.m_ecdh_offloading
                0x20005bb4        0x1 examples/light_switch/client/CMakeFiles/light_switch_client_nrf52840_xxAA_s140_6.0.0.dir/__/__/__/mesh/prov/src/prov_utils.c.obj
 .bss.m_ecdh_offloading_state
                0x20005bb5        0x1 examples/light_switch/client/CMakeFiles/light_switch_client_nrf52840_xxAA_s140_6.0.0.dir/__/__/__/mesh/prov/src/prov_utils.c.obj
 *fill*         0x20005bb6        0x2 
 .bss.mp_bearer_head
                0x20005bb8        0x4 examples/light_switch/client/CMakeFiles/light_switch_client_nrf52840_xxAA_s140_6.0.0.dir/__/__/__/mesh/prov/src/prov_bearer_adv.c.obj
 .bss.m_op_queue
                0x20005bbc      0x10c examples/light_switch/client/CMakeFiles/light_switch_client_nrf52840_xxAA_s140_6.0.0.dir/C_/sdks/nRF5_SDK_15.0.0_a53641a/components/libraries/timer/app_timer.c.obj
 .bss.m_rtc1_reset
                0x20005cc8        0x1 examples/light_switch/client/CMakeFiles/light_switch_client_nrf52840_xxAA_s140_6.0.0.dir/C_/sdks/nRF5_SDK_15.0.0_a53641a/components/libraries/timer/app_timer.c.obj
 .bss.m_rtc1_running
                0x20005cc9        0x1 examples/light_switch/client/CMakeFiles/light_switch_client_nrf52840_xxAA_s140_6.0.0.dir/C_/sdks/nRF5_SDK_15.0.0_a53641a/components/libraries/timer/app_timer.c.obj
 *fill*         0x20005cca        0x2 
 .bss.m_ticks_elapsed
                0x20005ccc        0x8 examples/light_switch/client/CMakeFiles/light_switch_client_nrf52840_xxAA_s140_6.0.0.dir/C_/sdks/nRF5_SDK_15.0.0_a53641a/components/libraries/timer/app_timer.c.obj
 .bss.m_ticks_elapsed_q_read_ind
                0x20005cd4        0x1 examples/light_switch/client/CMakeFiles/light_switch_client_nrf52840_xxAA_s140_6.0.0.dir/C_/sdks/nRF5_SDK_15.0.0_a53641a/components/libraries/timer/app_timer.c.obj
 .bss.m_ticks_elapsed_q_write_ind
                0x20005cd5        0x1 examples/light_switch/client/CMakeFiles/light_switch_client_nrf52840_xxAA_s140_6.0.0.dir/C_/sdks/nRF5_SDK_15.0.0_a53641a/components/libraries/timer/app_timer.c.obj
 *fill*         0x20005cd6        0x2 
 .bss.m_ticks_latest
                0x20005cd8        0x4 examples/light_switch/client/CMakeFiles/light_switch_client_nrf52840_xxAA_s140_6.0.0.dir/C_/sdks/nRF5_SDK_15.0.0_a53641a/components/libraries/timer/app_timer.c.obj
 .bss.mp_timer_id_head
                0x20005cdc        0x4 examples/light_switch/client/CMakeFiles/light_switch_client_nrf52840_xxAA_s140_6.0.0.dir/C_/sdks/nRF5_SDK_15.0.0_a53641a/components/libraries/timer/app_timer.c.obj
 .bss._acDownBuffer
                0x20005ce0       0x80 external/rtt/librtt_nrf52840_xxAA.a(SEGGER_RTT.c.obj)
 .bss._acUpBuffer
                0x20005d60      0x400 external/rtt/librtt_nrf52840_xxAA.a(SEGGER_RTT.c.obj)
 .bss.__malloc_free_list
                0x20006160        0x4 c:/arm_gcc/bin/../lib/gcc/arm-none-eabi/6.3.1/../../../../arm-none-eabi/lib/thumb/v7e-m/fpv4-sp/hard\libg_nano.a(lib_a-nano-mallocr.o)
                0x20006160                __malloc_free_list
 .bss.__malloc_sbrk_start
                0x20006164        0x4 c:/arm_gcc/bin/../lib/gcc/arm-none-eabi/6.3.1/../../../../arm-none-eabi/lib/thumb/v7e-m/fpv4-sp/hard\libg_nano.a(lib_a-nano-mallocr.o)
                0x20006164                __malloc_sbrk_start
 .bss.heap_end.5239
                0x20006168        0x4 c:/arm_gcc/bin/../lib/gcc/arm-none-eabi/6.3.1/../../../../arm-none-eabi/lib/thumb/v7e-m/fpv4-sp/hard\libnosys.a(sbrk.o)
 *(COMMON)
 COMMON         0x2000616c       0x24 examples/light_switch/client/CMakeFiles/light_switch_client_nrf52840_xxAA_s140_6.0.0.dir/__/__/__/mesh/core/src/core_tx.c.obj
                0x2000616c                m_packet
 COMMON         0x20006190        0xc examples/light_switch/client/CMakeFiles/light_switch_client_nrf52840_xxAA_s140_6.0.0.dir/C_/sdks/nRF5_SDK_15.0.0_a53641a/components/libraries/util/app_util_platform.c.obj
                0x20006190                nrf_nvic_state
 COMMON         0x2000619c       0x78 external/rtt/librtt_nrf52840_xxAA.a(SEGGER_RTT.c.obj)
                0x2000619c                _SEGGER_RTT
 COMMON         0x20006214        0x4 c:/arm_gcc/bin/../lib/gcc/arm-none-eabi/6.3.1/../../../../arm-none-eabi/lib/thumb/v7e-m/fpv4-sp/hard\libg_nano.a(lib_a-reent.o)
                0x20006214                errno
                0x20006218                . = ALIGN (0x4)
                0x20006218                __bss_end__ = .

.heap           0x20006218     0x2000
                0x20006218                __HeapBase = .
                0x20006218                __end__ = .
                0x20006218                PROVIDE (end, .)
 *(.heap*)
 .heap          0x20006218     0x2000 examples/light_switch/client/CMakeFiles/light_switch_client_nrf52840_xxAA_s140_6.0.0.dir/C_/sdks/nRF5_SDK_15.0.0_a53641a/modules/nrfx/mdk/gcc_startup_nrf52840.S.obj
                0x20008218                __HeapLimit = .

.stack_dummy    0x20006218     0x2000
 *(.stack*)
 .stack         0x20006218     0x2000 examples/light_switch/client/CMakeFiles/light_switch_client_nrf52840_xxAA_s140_6.0.0.dir/C_/sdks/nRF5_SDK_15.0.0_a53641a/modules/nrfx/mdk/gcc_startup_nrf52840.S.obj
                0x2003fd00                __StackTop = (ORIGIN (RAM) + LENGTH (RAM))
                0x2003dd00                __StackLimit = (__StackTop - SIZEOF (.stack_dummy))
                0x2003fd00                PROVIDE (__stack, __StackTop)
                0x00000001                ASSERT ((__StackLimit >= __HeapLimit), region RAM overflowed with stack)
                0x00000150                DataInitFlashUsed = (__bss_start__ - __data_start__)
                0x00014a84                CodeFlashUsed = (__etext - ORIGIN (FLASH))
                0x00014bd4                TotalFlashUsed = (CodeFlashUsed + DataInitFlashUsed)
                0x00000001                ASSERT ((TotalFlashUsed <= LENGTH (FLASH)), region FLASH overflowed with .data and user data)
OUTPUT(examples\light_switch\client\light_switch_client_nrf52840_xxAA_s140_6.0.0.elf elf32-littlearm)

.ARM.attributes
                0x00000000       0x30
 .ARM.attributes
                0x00000000       0x22 c:/arm_gcc/bin/../lib/gcc/arm-none-eabi/6.3.1/thumb/v7e-m/fpv4-sp/hard/crti.o
 .ARM.attributes
                0x00000022       0x34 c:/arm_gcc/bin/../lib/gcc/arm-none-eabi/6.3.1/thumb/v7e-m/fpv4-sp/hard/crtbegin.o
 .ARM.attributes
                0x00000056       0x20 c:/arm_gcc/bin/../lib/gcc/arm-none-eabi/6.3.1/../../../../arm-none-eabi/lib/thumb/v7e-m/fpv4-sp/hard/crt0.o
 .ARM.attributes
                0x00000076       0x39 examples/light_switch/client/CMakeFiles/light_switch_client_nrf52840_xxAA_s140_6.0.0.dir/src/main.c.obj
 .ARM.attributes
                0x000000af       0x39 examples/light_switch/client/CMakeFiles/light_switch_client_nrf52840_xxAA_s140_6.0.0.dir/__/__/__/mesh/stack/src/mesh_stack.c.obj
 .ARM.attributes
                0x000000e8       0x39 examples/light_switch/client/CMakeFiles/light_switch_client_nrf52840_xxAA_s140_6.0.0.dir/__/__/common/src/mesh_softdevice_init.c.obj
 .ARM.attributes
                0x00000121       0x39 examples/light_switch/client/CMakeFiles/light_switch_client_nrf52840_xxAA_s140_6.0.0.dir/__/__/common/src/mesh_provisionee.c.obj
 .ARM.attributes
                0x0000015a       0x39 examples/light_switch/client/CMakeFiles/light_switch_client_nrf52840_xxAA_s140_6.0.0.dir/__/__/common/src/rtt_input.c.obj
 .ARM.attributes
                0x00000193       0x39 examples/light_switch/client/CMakeFiles/light_switch_client_nrf52840_xxAA_s140_6.0.0.dir/__/__/common/src/simple_hal.c.obj
 .ARM.attributes
                0x000001cc       0x39 examples/light_switch/client/CMakeFiles/light_switch_client_nrf52840_xxAA_s140_6.0.0.dir/__/__/common/src/mesh_app_utils.c.obj
 .ARM.attributes
                0x00000205       0x39 examples/light_switch/client/CMakeFiles/light_switch_client_nrf52840_xxAA_s140_6.0.0.dir/__/__/nrf_mesh_weak.c.obj
 .ARM.attributes
                0x0000023e       0x39 examples/light_switch/client/CMakeFiles/light_switch_client_nrf52840_xxAA_s140_6.0.0.dir/__/__/common/src/app_error_weak.c.obj
 .ARM.attributes
                0x00000277       0x39 examples/light_switch/client/CMakeFiles/light_switch_client_nrf52840_xxAA_s140_6.0.0.dir/__/__/common/src/assertion_handler_weak.c.obj
 .ARM.attributes
                0x000002b0       0x39 examples/light_switch/client/CMakeFiles/light_switch_client_nrf52840_xxAA_s140_6.0.0.dir/__/__/__/mesh/core/src/nrf_mesh_configure.c.obj
 .ARM.attributes
                0x000002e9       0x39 examples/light_switch/client/CMakeFiles/light_switch_client_nrf52840_xxAA_s140_6.0.0.dir/__/__/__/mesh/core/src/msg_cache.c.obj
 .ARM.attributes
                0x00000322       0x39 examples/light_switch/client/CMakeFiles/light_switch_client_nrf52840_xxAA_s140_6.0.0.dir/__/__/__/mesh/core/src/transport.c.obj
 .ARM.attributes
                0x0000035b       0x39 examples/light_switch/client/CMakeFiles/light_switch_client_nrf52840_xxAA_s140_6.0.0.dir/__/__/__/mesh/core/src/event.c.obj
 .ARM.attributes
                0x00000394       0x39 examples/light_switch/client/CMakeFiles/light_switch_client_nrf52840_xxAA_s140_6.0.0.dir/__/__/__/mesh/core/src/packet_buffer.c.obj
 .ARM.attributes
                0x000003cd       0x39 examples/light_switch/client/CMakeFiles/light_switch_client_nrf52840_xxAA_s140_6.0.0.dir/__/__/__/mesh/core/src/flash_manager_defrag.c.obj
 .ARM.attributes
                0x00000406       0x39 examples/light_switch/client/CMakeFiles/light_switch_client_nrf52840_xxAA_s140_6.0.0.dir/__/__/__/mesh/core/src/fifo.c.obj
 .ARM.attributes
                0x0000043f       0x39 examples/light_switch/client/CMakeFiles/light_switch_client_nrf52840_xxAA_s140_6.0.0.dir/__/__/__/mesh/core/src/nrf_flash.c.obj
 .ARM.attributes
                0x00000478       0x39 examples/light_switch/client/CMakeFiles/light_switch_client_nrf52840_xxAA_s140_6.0.0.dir/__/__/__/mesh/core/src/packet_mgr.c.obj
 .ARM.attributes
                0x000004b1       0x39 examples/light_switch/client/CMakeFiles/light_switch_client_nrf52840_xxAA_s140_6.0.0.dir/__/__/__/mesh/core/src/net_state.c.obj
 .ARM.attributes
                0x000004ea       0x39 examples/light_switch/client/CMakeFiles/light_switch_client_nrf52840_xxAA_s140_6.0.0.dir/__/__/__/mesh/core/src/mesh_flash.c.obj
 .ARM.attributes
                0x00000523       0x39 examples/light_switch/client/CMakeFiles/light_switch_client_nrf52840_xxAA_s140_6.0.0.dir/__/__/__/mesh/core/src/nrf_mesh_utils.c.obj
 .ARM.attributes
                0x0000055c       0x39 examples/light_switch/client/CMakeFiles/light_switch_client_nrf52840_xxAA_s140_6.0.0.dir/__/__/__/mesh/core/src/nrf_mesh.c.obj
 .ARM.attributes
                0x00000595       0x39 examples/light_switch/client/CMakeFiles/light_switch_client_nrf52840_xxAA_s140_6.0.0.dir/__/__/__/mesh/core/src/queue.c.obj
 .ARM.attributes
                0x000005ce       0x39 examples/light_switch/client/CMakeFiles/light_switch_client_nrf52840_xxAA_s140_6.0.0.dir/__/__/__/mesh/core/src/hal.c.obj
 .ARM.attributes
                0x00000607       0x39 examples/light_switch/client/CMakeFiles/light_switch_client_nrf52840_xxAA_s140_6.0.0.dir/__/__/__/mesh/core/src/aes_cmac.c.obj
 .ARM.attributes
                0x00000640       0x39 examples/light_switch/client/CMakeFiles/light_switch_client_nrf52840_xxAA_s140_6.0.0.dir/__/__/__/mesh/core/src/timer_scheduler.c.obj
 .ARM.attributes
                0x00000679       0x39 examples/light_switch/client/CMakeFiles/light_switch_client_nrf52840_xxAA_s140_6.0.0.dir/__/__/__/mesh/core/src/timer.c.obj
 .ARM.attributes
                0x000006b2       0x39 examples/light_switch/client/CMakeFiles/light_switch_client_nrf52840_xxAA_s140_6.0.0.dir/__/__/__/mesh/core/src/rand.c.obj
 .ARM.attributes
                0x000006eb       0x39 examples/light_switch/client/CMakeFiles/light_switch_client_nrf52840_xxAA_s140_6.0.0.dir/__/__/__/mesh/core/src/mesh_opt.c.obj
 .ARM.attributes
                0x00000724       0x39 examples/light_switch/client/CMakeFiles/light_switch_client_nrf52840_xxAA_s140_6.0.0.dir/__/__/__/mesh/core/src/timeslot.c.obj
 .ARM.attributes
                0x0000075d       0x39 examples/light_switch/client/CMakeFiles/light_switch_client_nrf52840_xxAA_s140_6.0.0.dir/__/__/__/mesh/core/src/bearer_event.c.obj
 .ARM.attributes
                0x00000796       0x39 examples/light_switch/client/CMakeFiles/light_switch_client_nrf52840_xxAA_s140_6.0.0.dir/__/__/__/mesh/core/src/enc.c.obj
 .ARM.attributes
                0x000007cf       0x39 examples/light_switch/client/CMakeFiles/light_switch_client_nrf52840_xxAA_s140_6.0.0.dir/__/__/__/mesh/core/src/network.c.obj
 .ARM.attributes
                0x00000808       0x39 examples/light_switch/client/CMakeFiles/light_switch_client_nrf52840_xxAA_s140_6.0.0.dir/__/__/__/mesh/core/src/net_packet.c.obj
 .ARM.attributes
                0x00000841       0x39 examples/light_switch/client/CMakeFiles/light_switch_client_nrf52840_xxAA_s140_6.0.0.dir/__/__/__/mesh/core/src/msqueue.c.obj
 .ARM.attributes
                0x0000087a       0x39 examples/light_switch/client/CMakeFiles/light_switch_client_nrf52840_xxAA_s140_6.0.0.dir/__/__/__/mesh/core/src/nrf_mesh_keygen.c.obj
 .ARM.attributes
                0x000008b3       0x39 examples/light_switch/client/CMakeFiles/light_switch_client_nrf52840_xxAA_s140_6.0.0.dir/__/__/__/mesh/core/src/list.c.obj
 .ARM.attributes
                0x000008ec       0x39 examples/light_switch/client/CMakeFiles/light_switch_client_nrf52840_xxAA_s140_6.0.0.dir/__/__/__/mesh/core/src/log.c.obj
 .ARM.attributes
                0x00000925       0x39 examples/light_switch/client/CMakeFiles/light_switch_client_nrf52840_xxAA_s140_6.0.0.dir/__/__/__/mesh/core/src/flash_manager.c.obj
 .ARM.attributes
                0x0000095e       0x39 examples/light_switch/client/CMakeFiles/light_switch_client_nrf52840_xxAA_s140_6.0.0.dir/__/__/__/mesh/core/src/ccm_soft.c.obj
 .ARM.attributes
                0x00000997       0x39 examples/light_switch/client/CMakeFiles/light_switch_client_nrf52840_xxAA_s140_6.0.0.dir/__/__/__/mesh/core/src/replay_cache.c.obj
 .ARM.attributes
                0x000009d0       0x39 examples/light_switch/client/CMakeFiles/light_switch_client_nrf52840_xxAA_s140_6.0.0.dir/__/__/__/mesh/core/src/beacon.c.obj
 .ARM.attributes
                0x00000a09       0x39 examples/light_switch/client/CMakeFiles/light_switch_client_nrf52840_xxAA_s140_6.0.0.dir/__/__/__/mesh/core/src/flash_manager_internal.c.obj
 .ARM.attributes
                0x00000a42       0x39 examples/light_switch/client/CMakeFiles/light_switch_client_nrf52840_xxAA_s140_6.0.0.dir/__/__/__/mesh/core/src/core_tx.c.obj
 .ARM.attributes
                0x00000a7b       0x39 examples/light_switch/client/CMakeFiles/light_switch_client_nrf52840_xxAA_s140_6.0.0.dir/__/__/__/mesh/core/src/heartbeat.c.obj
 .ARM.attributes
                0x00000ab4       0x39 examples/light_switch/client/CMakeFiles/light_switch_client_nrf52840_xxAA_s140_6.0.0.dir/__/__/__/mesh/core/src/net_beacon.c.obj
 .ARM.attributes
                0x00000aed       0x39 examples/light_switch/client/CMakeFiles/light_switch_client_nrf52840_xxAA_s140_6.0.0.dir/__/__/__/mesh/core/src/mesh_config.c.obj
 .ARM.attributes
                0x00000b26       0x39 examples/light_switch/client/CMakeFiles/light_switch_client_nrf52840_xxAA_s140_6.0.0.dir/__/__/__/mesh/core/src/mesh_config_backend.c.obj
 .ARM.attributes
                0x00000b5f       0x39 examples/light_switch/client/CMakeFiles/light_switch_client_nrf52840_xxAA_s140_6.0.0.dir/__/__/__/mesh/core/src/mesh_config_flashman_glue.c.obj
 .ARM.attributes
                0x00000b98       0x39 examples/light_switch/client/CMakeFiles/light_switch_client_nrf52840_xxAA_s140_6.0.0.dir/__/__/__/mesh/core/src/core_tx_adv.c.obj
 .ARM.attributes
                0x00000bd1       0x39 examples/light_switch/client/CMakeFiles/light_switch_client_nrf52840_xxAA_s140_6.0.0.dir/__/__/__/mesh/bearer/src/ad_listener.c.obj
 .ARM.attributes
                0x00000c0a       0x39 examples/light_switch/client/CMakeFiles/light_switch_client_nrf52840_xxAA_s140_6.0.0.dir/__/__/__/mesh/bearer/src/ad_type_filter.c.obj
 .ARM.attributes
                0x00000c43       0x39 examples/light_switch/client/CMakeFiles/light_switch_client_nrf52840_xxAA_s140_6.0.0.dir/__/__/__/mesh/bearer/src/advertiser.c.obj
 .ARM.attributes
                0x00000c7c       0x39 examples/light_switch/client/CMakeFiles/light_switch_client_nrf52840_xxAA_s140_6.0.0.dir/__/__/__/mesh/bearer/src/bearer_handler.c.obj
 .ARM.attributes
                0x00000cb5       0x39 examples/light_switch/client/CMakeFiles/light_switch_client_nrf52840_xxAA_s140_6.0.0.dir/__/__/__/mesh/bearer/src/broadcast.c.obj
 .ARM.attributes
                0x00000cee       0x39 examples/light_switch/client/CMakeFiles/light_switch_client_nrf52840_xxAA_s140_6.0.0.dir/__/__/__/mesh/bearer/src/filter_engine.c.obj
 .ARM.attributes
                0x00000d27       0x39 examples/light_switch/client/CMakeFiles/light_switch_client_nrf52840_xxAA_s140_6.0.0.dir/__/__/__/mesh/bearer/src/radio_config.c.obj
 .ARM.attributes
                0x00000d60       0x39 examples/light_switch/client/CMakeFiles/light_switch_client_nrf52840_xxAA_s140_6.0.0.dir/__/__/__/mesh/bearer/src/scanner.c.obj
 .ARM.attributes
                0x00000d99       0x39 examples/light_switch/client/CMakeFiles/light_switch_client_nrf52840_xxAA_s140_6.0.0.dir/__/__/__/mesh/bearer/src/mesh_pa_lna.c.obj
 .ARM.attributes
                0x00000dd2       0x39 examples/light_switch/client/CMakeFiles/light_switch_client_nrf52840_xxAA_s140_6.0.0.dir/__/__/__/models/model_spec/generic_onoff/src/generic_onoff_client.c.obj
 .ARM.attributes
                0x00000e0b       0x39 examples/light_switch/client/CMakeFiles/light_switch_client_nrf52840_xxAA_s140_6.0.0.dir/__/__/__/models/model_spec/common/src/model_common.c.obj
 .ARM.attributes
                0x00000e44       0x39 examples/light_switch/client/CMakeFiles/light_switch_client_nrf52840_xxAA_s140_6.0.0.dir/__/__/__/models/foundation/config/src/composition_data.c.obj
 .ARM.attributes
                0x00000e7d       0x39 examples/light_switch/client/CMakeFiles/light_switch_client_nrf52840_xxAA_s140_6.0.0.dir/__/__/__/models/foundation/config/src/config_server.c.obj
 .ARM.attributes
                0x00000eb6       0x39 examples/light_switch/client/CMakeFiles/light_switch_client_nrf52840_xxAA_s140_6.0.0.dir/__/__/__/models/foundation/config/src/packed_index_list.c.obj
 .ARM.attributes
                0x00000eef       0x39 examples/light_switch/client/CMakeFiles/light_switch_client_nrf52840_xxAA_s140_6.0.0.dir/__/__/__/models/foundation/health/src/health_server.c.obj
 .ARM.attributes
                0x00000f28       0x39 examples/light_switch/client/CMakeFiles/light_switch_client_nrf52840_xxAA_s140_6.0.0.dir/__/__/__/mesh/access/src/access_publish.c.obj
 .ARM.attributes
                0x00000f61       0x39 examples/light_switch/client/CMakeFiles/light_switch_client_nrf52840_xxAA_s140_6.0.0.dir/__/__/__/mesh/access/src/access.c.obj
 .ARM.attributes
                0x00000f9a       0x39 examples/light_switch/client/CMakeFiles/light_switch_client_nrf52840_xxAA_s140_6.0.0.dir/__/__/__/mesh/access/src/access_reliable.c.obj
 .ARM.attributes
                0x00000fd3       0x39 examples/light_switch/client/CMakeFiles/light_switch_client_nrf52840_xxAA_s140_6.0.0.dir/__/__/__/mesh/access/src/access_loopback.c.obj
 .ARM.attributes
                0x0000100c       0x39 examples/light_switch/client/CMakeFiles/light_switch_client_nrf52840_xxAA_s140_6.0.0.dir/__/__/__/mesh/access/src/device_state_manager.c.obj
 .ARM.attributes
                0x00001045       0x39 examples/light_switch/client/CMakeFiles/light_switch_client_nrf52840_xxAA_s140_6.0.0.dir/__/__/__/mesh/prov/src/prov_provisionee.c.obj
 .ARM.attributes
                0x0000107e       0x39 examples/light_switch/client/CMakeFiles/light_switch_client_nrf52840_xxAA_s140_6.0.0.dir/__/__/__/mesh/prov/src/nrf_mesh_prov.c.obj
 .ARM.attributes
                0x000010b7       0x39 examples/light_switch/client/CMakeFiles/light_switch_client_nrf52840_xxAA_s140_6.0.0.dir/__/__/__/mesh/prov/src/provisioning.c.obj
 .ARM.attributes
                0x000010f0       0x39 examples/light_switch/client/CMakeFiles/light_switch_client_nrf52840_xxAA_s140_6.0.0.dir/__/__/__/mesh/prov/src/prov_beacon.c.obj
 .ARM.attributes
                0x00001129       0x39 examples/light_switch/client/CMakeFiles/light_switch_client_nrf52840_xxAA_s140_6.0.0.dir/__/__/__/mesh/prov/src/prov_utils.c.obj
 .ARM.attributes
                0x00001162       0x39 examples/light_switch/client/CMakeFiles/light_switch_client_nrf52840_xxAA_s140_6.0.0.dir/__/__/__/mesh/prov/src/prov_bearer_adv.c.obj
 .ARM.attributes
                0x0000119b       0x39 examples/light_switch/client/CMakeFiles/light_switch_client_nrf52840_xxAA_s140_6.0.0.dir/C_/sdks/nRF5_SDK_15.0.0_a53641a/modules/nrfx/mdk/system_nrf52840.c.obj
 .ARM.attributes
                0x000011d4       0x20 examples/light_switch/client/CMakeFiles/light_switch_client_nrf52840_xxAA_s140_6.0.0.dir/C_/sdks/nRF5_SDK_15.0.0_a53641a/modules/nrfx/mdk/gcc_startup_nrf52840.S.obj
 .ARM.attributes
                0x000011f4       0x39 examples/light_switch/client/CMakeFiles/light_switch_client_nrf52840_xxAA_s140_6.0.0.dir/C_/sdks/nRF5_SDK_15.0.0_a53641a/components/libraries/util/app_error.c.obj
 .ARM.attributes
                0x0000122d       0x39 examples/light_switch/client/CMakeFiles/light_switch_client_nrf52840_xxAA_s140_6.0.0.dir/C_/sdks/nRF5_SDK_15.0.0_a53641a/components/libraries/util/app_util_platform.c.obj
 .ARM.attributes
                0x00001266       0x39 examples/light_switch/client/CMakeFiles/light_switch_client_nrf52840_xxAA_s140_6.0.0.dir/C_/sdks/nRF5_SDK_15.0.0_a53641a/components/libraries/timer/app_timer.c.obj
 .ARM.attributes
                0x0000129f       0x39 examples/light_switch/client/CMakeFiles/light_switch_client_nrf52840_xxAA_s140_6.0.0.dir/C_/sdks/nRF5_SDK_15.0.0_a53641a/components/libraries/util/app_error_handler_gcc.c.obj
 .ARM.attributes
                0x000012d8       0x39 external/rtt/librtt_nrf52840_xxAA.a(SEGGER_RTT.c.obj)
 .ARM.attributes
                0x00001311       0x39 external/rtt/librtt_nrf52840_xxAA.a(SEGGER_RTT_printf.c.obj)
 .ARM.attributes
                0x0000134a       0x39 external/micro-ecc/libuECC_nrf52840_xxAA.a(uECC.c.obj)
 .ARM.attributes
                0x00001383       0x22 c:/arm_gcc/bin/../lib/gcc/arm-none-eabi/6.3.1/thumb/v7e-m/fpv4-sp/hard\libgcc.a(_aeabi_uldivmod.o)
 .ARM.attributes
                0x000013a5       0x34 c:/arm_gcc/bin/../lib/gcc/arm-none-eabi/6.3.1/thumb/v7e-m/fpv4-sp/hard\libgcc.a(_udivmoddi4.o)
 .ARM.attributes
                0x000013d9       0x22 c:/arm_gcc/bin/../lib/gcc/arm-none-eabi/6.3.1/thumb/v7e-m/fpv4-sp/hard\libgcc.a(_dvmd_tls.o)
 .ARM.attributes
                0x000013fb       0x34 c:/arm_gcc/bin/../lib/gcc/arm-none-eabi/6.3.1/../../../../arm-none-eabi/lib/thumb/v7e-m/fpv4-sp/hard\libg_nano.a(lib_a-exit.o)
 .ARM.attributes
                0x0000142f       0x34 c:/arm_gcc/bin/../lib/gcc/arm-none-eabi/6.3.1/../../../../arm-none-eabi/lib/thumb/v7e-m/fpv4-sp/hard\libg_nano.a(lib_a-impure.o)
 .ARM.attributes
                0x00001463       0x34 c:/arm_gcc/bin/../lib/gcc/arm-none-eabi/6.3.1/../../../../arm-none-eabi/lib/thumb/v7e-m/fpv4-sp/hard\libg_nano.a(lib_a-init.o)
 .ARM.attributes
                0x00001497       0x34 c:/arm_gcc/bin/../lib/gcc/arm-none-eabi/6.3.1/../../../../arm-none-eabi/lib/thumb/v7e-m/fpv4-sp/hard\libg_nano.a(lib_a-malloc.o)
 .ARM.attributes
                0x000014cb       0x34 c:/arm_gcc/bin/../lib/gcc/arm-none-eabi/6.3.1/../../../../arm-none-eabi/lib/thumb/v7e-m/fpv4-sp/hard\libg_nano.a(lib_a-memcmp.o)
 .ARM.attributes
                0x000014ff       0x34 c:/arm_gcc/bin/../lib/gcc/arm-none-eabi/6.3.1/../../../../arm-none-eabi/lib/thumb/v7e-m/fpv4-sp/hard\libg_nano.a(lib_a-memcpy-stub.o)
 .ARM.attributes
                0x00001533       0x34 c:/arm_gcc/bin/../lib/gcc/arm-none-eabi/6.3.1/../../../../arm-none-eabi/lib/thumb/v7e-m/fpv4-sp/hard\libg_nano.a(lib_a-memset.o)
 .ARM.attributes
                0x00001567       0x34 c:/arm_gcc/bin/../lib/gcc/arm-none-eabi/6.3.1/../../../../arm-none-eabi/lib/thumb/v7e-m/fpv4-sp/hard\libg_nano.a(lib_a-nano-freer.o)
 .ARM.attributes
                0x0000159b       0x34 c:/arm_gcc/bin/../lib/gcc/arm-none-eabi/6.3.1/../../../../arm-none-eabi/lib/thumb/v7e-m/fpv4-sp/hard\libg_nano.a(lib_a-nano-mallocr.o)
 .ARM.attributes
                0x000015cf       0x34 c:/arm_gcc/bin/../lib/gcc/arm-none-eabi/6.3.1/../../../../arm-none-eabi/lib/thumb/v7e-m/fpv4-sp/hard\libg_nano.a(lib_a-sbrkr.o)
 .ARM.attributes
                0x00001603       0x34 c:/arm_gcc/bin/../lib/gcc/arm-none-eabi/6.3.1/../../../../arm-none-eabi/lib/thumb/v7e-m/fpv4-sp/hard\libg_nano.a(lib_a-strcpy.o)
 .ARM.attributes
                0x00001637       0x1b c:/arm_gcc/bin/../lib/gcc/arm-none-eabi/6.3.1/../../../../arm-none-eabi/lib/thumb/v7e-m/fpv4-sp/hard\libg_nano.a(lib_a-strlen.o)
 .ARM.attributes
                0x00001652       0x34 c:/arm_gcc/bin/../lib/gcc/arm-none-eabi/6.3.1/../../../../arm-none-eabi/lib/thumb/v7e-m/fpv4-sp/hard\libg_nano.a(lib_a-strrchr.o)
 .ARM.attributes
                0x00001686       0x34 c:/arm_gcc/bin/../lib/gcc/arm-none-eabi/6.3.1/../../../../arm-none-eabi/lib/thumb/v7e-m/fpv4-sp/hard\libg_nano.a(lib_a-mlock.o)
 .ARM.attributes
                0x000016ba       0x34 c:/arm_gcc/bin/../lib/gcc/arm-none-eabi/6.3.1/../../../../arm-none-eabi/lib/thumb/v7e-m/fpv4-sp/hard\libg_nano.a(lib_a-reent.o)
 .ARM.attributes
                0x000016ee       0x34 c:/arm_gcc/bin/../lib/gcc/arm-none-eabi/6.3.1/../../../../arm-none-eabi/lib/thumb/v7e-m/fpv4-sp/hard\libg_nano.a(lib_a-strchr.o)
 .ARM.attributes
                0x00001722       0x34 c:/arm_gcc/bin/../lib/gcc/arm-none-eabi/6.3.1/thumb/v7e-m/fpv4-sp/hard/crtend.o
 .ARM.attributes
                0x00001756       0x22 c:/arm_gcc/bin/../lib/gcc/arm-none-eabi/6.3.1/thumb/v7e-m/fpv4-sp/hard/crtn.o
 .ARM.attributes
                0x00001778       0x34 c:/arm_gcc/bin/../lib/gcc/arm-none-eabi/6.3.1/../../../../arm-none-eabi/lib/thumb/v7e-m/fpv4-sp/hard\libnosys.a(sbrk.o)
 .ARM.attributes
                0x000017ac       0x34 c:/arm_gcc/bin/../lib/gcc/arm-none-eabi/6.3.1/../../../../arm-none-eabi/lib/thumb/v7e-m/fpv4-sp/hard\libnosys.a(_exit.o)

.comment        0x00000000       0x7f
 .comment       0x00000000       0x7f examples/light_switch/client/CMakeFiles/light_switch_client_nrf52840_xxAA_s140_6.0.0.dir/src/main.c.obj
                                 0x80 (size before relaxing)
 .comment       0x0000007f       0x80 examples/light_switch/client/CMakeFiles/light_switch_client_nrf52840_xxAA_s140_6.0.0.dir/__/__/__/mesh/stack/src/mesh_stack.c.obj
 .comment       0x0000007f       0x80 examples/light_switch/client/CMakeFiles/light_switch_client_nrf52840_xxAA_s140_6.0.0.dir/__/__/common/src/mesh_softdevice_init.c.obj
 .comment       0x0000007f       0x80 examples/light_switch/client/CMakeFiles/light_switch_client_nrf52840_xxAA_s140_6.0.0.dir/__/__/common/src/mesh_provisionee.c.obj
 .comment       0x0000007f       0x80 examples/light_switch/client/CMakeFiles/light_switch_client_nrf52840_xxAA_s140_6.0.0.dir/__/__/common/src/rtt_input.c.obj
 .comment       0x0000007f       0x80 examples/light_switch/client/CMakeFiles/light_switch_client_nrf52840_xxAA_s140_6.0.0.dir/__/__/common/src/simple_hal.c.obj
 .comment       0x0000007f       0x80 examples/light_switch/client/CMakeFiles/light_switch_client_nrf52840_xxAA_s140_6.0.0.dir/__/__/common/src/mesh_app_utils.c.obj
 .comment       0x0000007f       0x80 examples/light_switch/client/CMakeFiles/light_switch_client_nrf52840_xxAA_s140_6.0.0.dir/__/__/nrf_mesh_weak.c.obj
 .comment       0x0000007f       0x80 examples/light_switch/client/CMakeFiles/light_switch_client_nrf52840_xxAA_s140_6.0.0.dir/__/__/common/src/app_error_weak.c.obj
 .comment       0x0000007f       0x80 examples/light_switch/client/CMakeFiles/light_switch_client_nrf52840_xxAA_s140_6.0.0.dir/__/__/common/src/assertion_handler_weak.c.obj
 .comment       0x0000007f       0x80 examples/light_switch/client/CMakeFiles/light_switch_client_nrf52840_xxAA_s140_6.0.0.dir/__/__/__/mesh/core/src/nrf_mesh_configure.c.obj
 .comment       0x0000007f       0x80 examples/light_switch/client/CMakeFiles/light_switch_client_nrf52840_xxAA_s140_6.0.0.dir/__/__/__/mesh/core/src/msg_cache.c.obj
 .comment       0x0000007f       0x80 examples/light_switch/client/CMakeFiles/light_switch_client_nrf52840_xxAA_s140_6.0.0.dir/__/__/__/mesh/core/src/transport.c.obj
 .comment       0x0000007f       0x80 examples/light_switch/client/CMakeFiles/light_switch_client_nrf52840_xxAA_s140_6.0.0.dir/__/__/__/mesh/core/src/event.c.obj
 .comment       0x0000007f       0x80 examples/light_switch/client/CMakeFiles/light_switch_client_nrf52840_xxAA_s140_6.0.0.dir/__/__/__/mesh/core/src/packet_buffer.c.obj
 .comment       0x0000007f       0x80 examples/light_switch/client/CMakeFiles/light_switch_client_nrf52840_xxAA_s140_6.0.0.dir/__/__/__/mesh/core/src/flash_manager_defrag.c.obj
 .comment       0x0000007f       0x80 examples/light_switch/client/CMakeFiles/light_switch_client_nrf52840_xxAA_s140_6.0.0.dir/__/__/__/mesh/core/src/fifo.c.obj
 .comment       0x0000007f       0x80 examples/light_switch/client/CMakeFiles/light_switch_client_nrf52840_xxAA_s140_6.0.0.dir/__/__/__/mesh/core/src/nrf_flash.c.obj
 .comment       0x0000007f       0x80 examples/light_switch/client/CMakeFiles/light_switch_client_nrf52840_xxAA_s140_6.0.0.dir/__/__/__/mesh/core/src/packet_mgr.c.obj
 .comment       0x0000007f       0x80 examples/light_switch/client/CMakeFiles/light_switch_client_nrf52840_xxAA_s140_6.0.0.dir/__/__/__/mesh/core/src/net_state.c.obj
 .comment       0x0000007f       0x80 examples/light_switch/client/CMakeFiles/light_switch_client_nrf52840_xxAA_s140_6.0.0.dir/__/__/__/mesh/core/src/mesh_flash.c.obj
 .comment       0x0000007f       0x80 examples/light_switch/client/CMakeFiles/light_switch_client_nrf52840_xxAA_s140_6.0.0.dir/__/__/__/mesh/core/src/nrf_mesh_utils.c.obj
 .comment       0x0000007f       0x80 examples/light_switch/client/CMakeFiles/light_switch_client_nrf52840_xxAA_s140_6.0.0.dir/__/__/__/mesh/core/src/nrf_mesh.c.obj
 .comment       0x0000007f       0x80 examples/light_switch/client/CMakeFiles/light_switch_client_nrf52840_xxAA_s140_6.0.0.dir/__/__/__/mesh/core/src/queue.c.obj
 .comment       0x0000007f       0x80 examples/light_switch/client/CMakeFiles/light_switch_client_nrf52840_xxAA_s140_6.0.0.dir/__/__/__/mesh/core/src/hal.c.obj
 .comment       0x0000007f       0x80 examples/light_switch/client/CMakeFiles/light_switch_client_nrf52840_xxAA_s140_6.0.0.dir/__/__/__/mesh/core/src/aes_cmac.c.obj
 .comment       0x0000007f       0x80 examples/light_switch/client/CMakeFiles/light_switch_client_nrf52840_xxAA_s140_6.0.0.dir/__/__/__/mesh/core/src/timer_scheduler.c.obj
 .comment       0x0000007f       0x80 examples/light_switch/client/CMakeFiles/light_switch_client_nrf52840_xxAA_s140_6.0.0.dir/__/__/__/mesh/core/src/timer.c.obj
 .comment       0x0000007f       0x80 examples/light_switch/client/CMakeFiles/light_switch_client_nrf52840_xxAA_s140_6.0.0.dir/__/__/__/mesh/core/src/rand.c.obj
 .comment       0x0000007f       0x80 examples/light_switch/client/CMakeFiles/light_switch_client_nrf52840_xxAA_s140_6.0.0.dir/__/__/__/mesh/core/src/mesh_opt.c.obj
 .comment       0x0000007f       0x80 examples/light_switch/client/CMakeFiles/light_switch_client_nrf52840_xxAA_s140_6.0.0.dir/__/__/__/mesh/core/src/timeslot.c.obj
 .comment       0x0000007f       0x80 examples/light_switch/client/CMakeFiles/light_switch_client_nrf52840_xxAA_s140_6.0.0.dir/__/__/__/mesh/core/src/bearer_event.c.obj
 .comment       0x0000007f       0x80 examples/light_switch/client/CMakeFiles/light_switch_client_nrf52840_xxAA_s140_6.0.0.dir/__/__/__/mesh/core/src/enc.c.obj
 .comment       0x0000007f       0x80 examples/light_switch/client/CMakeFiles/light_switch_client_nrf52840_xxAA_s140_6.0.0.dir/__/__/__/mesh/core/src/network.c.obj
 .comment       0x0000007f       0x80 examples/light_switch/client/CMakeFiles/light_switch_client_nrf52840_xxAA_s140_6.0.0.dir/__/__/__/mesh/core/src/net_packet.c.obj
 .comment       0x0000007f       0x80 examples/light_switch/client/CMakeFiles/light_switch_client_nrf52840_xxAA_s140_6.0.0.dir/__/__/__/mesh/core/src/msqueue.c.obj
 .comment       0x0000007f       0x80 examples/light_switch/client/CMakeFiles/light_switch_client_nrf52840_xxAA_s140_6.0.0.dir/__/__/__/mesh/core/src/nrf_mesh_keygen.c.obj
 .comment       0x0000007f       0x80 examples/light_switch/client/CMakeFiles/light_switch_client_nrf52840_xxAA_s140_6.0.0.dir/__/__/__/mesh/core/src/list.c.obj
 .comment       0x0000007f       0x80 examples/light_switch/client/CMakeFiles/light_switch_client_nrf52840_xxAA_s140_6.0.0.dir/__/__/__/mesh/core/src/log.c.obj
 .comment       0x0000007f       0x80 examples/light_switch/client/CMakeFiles/light_switch_client_nrf52840_xxAA_s140_6.0.0.dir/__/__/__/mesh/core/src/flash_manager.c.obj
 .comment       0x0000007f       0x80 examples/light_switch/client/CMakeFiles/light_switch_client_nrf52840_xxAA_s140_6.0.0.dir/__/__/__/mesh/core/src/ccm_soft.c.obj
 .comment       0x0000007f       0x80 examples/light_switch/client/CMakeFiles/light_switch_client_nrf52840_xxAA_s140_6.0.0.dir/__/__/__/mesh/core/src/replay_cache.c.obj
 .comment       0x0000007f       0x80 examples/light_switch/client/CMakeFiles/light_switch_client_nrf52840_xxAA_s140_6.0.0.dir/__/__/__/mesh/core/src/beacon.c.obj
 .comment       0x0000007f       0x80 examples/light_switch/client/CMakeFiles/light_switch_client_nrf52840_xxAA_s140_6.0.0.dir/__/__/__/mesh/core/src/flash_manager_internal.c.obj
 .comment       0x0000007f       0x80 examples/light_switch/client/CMakeFiles/light_switch_client_nrf52840_xxAA_s140_6.0.0.dir/__/__/__/mesh/core/src/core_tx.c.obj
 .comment       0x0000007f       0x80 examples/light_switch/client/CMakeFiles/light_switch_client_nrf52840_xxAA_s140_6.0.0.dir/__/__/__/mesh/core/src/heartbeat.c.obj
 .comment       0x0000007f       0x80 examples/light_switch/client/CMakeFiles/light_switch_client_nrf52840_xxAA_s140_6.0.0.dir/__/__/__/mesh/core/src/net_beacon.c.obj
 .comment       0x0000007f       0x80 examples/light_switch/client/CMakeFiles/light_switch_client_nrf52840_xxAA_s140_6.0.0.dir/__/__/__/mesh/core/src/mesh_config.c.obj
 .comment       0x0000007f       0x80 examples/light_switch/client/CMakeFiles/light_switch_client_nrf52840_xxAA_s140_6.0.0.dir/__/__/__/mesh/core/src/mesh_config_backend.c.obj
 .comment       0x0000007f       0x80 examples/light_switch/client/CMakeFiles/light_switch_client_nrf52840_xxAA_s140_6.0.0.dir/__/__/__/mesh/core/src/mesh_config_flashman_glue.c.obj
 .comment       0x0000007f       0x80 examples/light_switch/client/CMakeFiles/light_switch_client_nrf52840_xxAA_s140_6.0.0.dir/__/__/__/mesh/core/src/core_tx_adv.c.obj
 .comment       0x0000007f       0x80 examples/light_switch/client/CMakeFiles/light_switch_client_nrf52840_xxAA_s140_6.0.0.dir/__/__/__/mesh/bearer/src/ad_listener.c.obj
 .comment       0x0000007f       0x80 examples/light_switch/client/CMakeFiles/light_switch_client_nrf52840_xxAA_s140_6.0.0.dir/__/__/__/mesh/bearer/src/ad_type_filter.c.obj
 .comment       0x0000007f       0x80 examples/light_switch/client/CMakeFiles/light_switch_client_nrf52840_xxAA_s140_6.0.0.dir/__/__/__/mesh/bearer/src/advertiser.c.obj
 .comment       0x0000007f       0x80 examples/light_switch/client/CMakeFiles/light_switch_client_nrf52840_xxAA_s140_6.0.0.dir/__/__/__/mesh/bearer/src/bearer_handler.c.obj
 .comment       0x0000007f       0x80 examples/light_switch/client/CMakeFiles/light_switch_client_nrf52840_xxAA_s140_6.0.0.dir/__/__/__/mesh/bearer/src/broadcast.c.obj
 .comment       0x0000007f       0x80 examples/light_switch/client/CMakeFiles/light_switch_client_nrf52840_xxAA_s140_6.0.0.dir/__/__/__/mesh/bearer/src/filter_engine.c.obj
 .comment       0x0000007f       0x80 examples/light_switch/client/CMakeFiles/light_switch_client_nrf52840_xxAA_s140_6.0.0.dir/__/__/__/mesh/bearer/src/radio_config.c.obj
 .comment       0x0000007f       0x80 examples/light_switch/client/CMakeFiles/light_switch_client_nrf52840_xxAA_s140_6.0.0.dir/__/__/__/mesh/bearer/src/scanner.c.obj
 .comment       0x0000007f       0x80 examples/light_switch/client/CMakeFiles/light_switch_client_nrf52840_xxAA_s140_6.0.0.dir/__/__/__/mesh/bearer/src/mesh_pa_lna.c.obj
 .comment       0x0000007f       0x80 examples/light_switch/client/CMakeFiles/light_switch_client_nrf52840_xxAA_s140_6.0.0.dir/__/__/__/models/model_spec/generic_onoff/src/generic_onoff_client.c.obj
 .comment       0x0000007f       0x80 examples/light_switch/client/CMakeFiles/light_switch_client_nrf52840_xxAA_s140_6.0.0.dir/__/__/__/models/model_spec/common/src/model_common.c.obj
 .comment       0x0000007f       0x80 examples/light_switch/client/CMakeFiles/light_switch_client_nrf52840_xxAA_s140_6.0.0.dir/__/__/__/models/foundation/config/src/composition_data.c.obj
 .comment       0x0000007f       0x80 examples/light_switch/client/CMakeFiles/light_switch_client_nrf52840_xxAA_s140_6.0.0.dir/__/__/__/models/foundation/config/src/config_server.c.obj
 .comment       0x0000007f       0x80 examples/light_switch/client/CMakeFiles/light_switch_client_nrf52840_xxAA_s140_6.0.0.dir/__/__/__/models/foundation/config/src/packed_index_list.c.obj
 .comment       0x0000007f       0x80 examples/light_switch/client/CMakeFiles/light_switch_client_nrf52840_xxAA_s140_6.0.0.dir/__/__/__/models/foundation/health/src/health_server.c.obj
 .comment       0x0000007f       0x80 examples/light_switch/client/CMakeFiles/light_switch_client_nrf52840_xxAA_s140_6.0.0.dir/__/__/__/mesh/access/src/access_publish.c.obj
 .comment       0x0000007f       0x80 examples/light_switch/client/CMakeFiles/light_switch_client_nrf52840_xxAA_s140_6.0.0.dir/__/__/__/mesh/access/src/access.c.obj
 .comment       0x0000007f       0x80 examples/light_switch/client/CMakeFiles/light_switch_client_nrf52840_xxAA_s140_6.0.0.dir/__/__/__/mesh/access/src/access_reliable.c.obj
 .comment       0x0000007f       0x80 examples/light_switch/client/CMakeFiles/light_switch_client_nrf52840_xxAA_s140_6.0.0.dir/__/__/__/mesh/access/src/access_loopback.c.obj
 .comment       0x0000007f       0x80 examples/light_switch/client/CMakeFiles/light_switch_client_nrf52840_xxAA_s140_6.0.0.dir/__/__/__/mesh/access/src/device_state_manager.c.obj
 .comment       0x0000007f       0x80 examples/light_switch/client/CMakeFiles/light_switch_client_nrf52840_xxAA_s140_6.0.0.dir/__/__/__/mesh/prov/src/prov_provisionee.c.obj
 .comment       0x0000007f       0x80 examples/light_switch/client/CMakeFiles/light_switch_client_nrf52840_xxAA_s140_6.0.0.dir/__/__/__/mesh/prov/src/nrf_mesh_prov.c.obj
 .comment       0x0000007f       0x80 examples/light_switch/client/CMakeFiles/light_switch_client_nrf52840_xxAA_s140_6.0.0.dir/__/__/__/mesh/prov/src/provisioning.c.obj
 .comment       0x0000007f       0x80 examples/light_switch/client/CMakeFiles/light_switch_client_nrf52840_xxAA_s140_6.0.0.dir/__/__/__/mesh/prov/src/prov_beacon.c.obj
 .comment       0x0000007f       0x80 examples/light_switch/client/CMakeFiles/light_switch_client_nrf52840_xxAA_s140_6.0.0.dir/__/__/__/mesh/prov/src/prov_utils.c.obj
 .comment       0x0000007f       0x80 examples/light_switch/client/CMakeFiles/light_switch_client_nrf52840_xxAA_s140_6.0.0.dir/__/__/__/mesh/prov/src/prov_bearer_adv.c.obj
 .comment       0x0000007f       0x80 examples/light_switch/client/CMakeFiles/light_switch_client_nrf52840_xxAA_s140_6.0.0.dir/C_/sdks/nRF5_SDK_15.0.0_a53641a/modules/nrfx/mdk/system_nrf52840.c.obj
 .comment       0x0000007f       0x80 examples/light_switch/client/CMakeFiles/light_switch_client_nrf52840_xxAA_s140_6.0.0.dir/C_/sdks/nRF5_SDK_15.0.0_a53641a/components/libraries/util/app_error.c.obj
 .comment       0x0000007f       0x80 examples/light_switch/client/CMakeFiles/light_switch_client_nrf52840_xxAA_s140_6.0.0.dir/C_/sdks/nRF5_SDK_15.0.0_a53641a/components/libraries/util/app_util_platform.c.obj
 .comment       0x0000007f       0x80 examples/light_switch/client/CMakeFiles/light_switch_client_nrf52840_xxAA_s140_6.0.0.dir/C_/sdks/nRF5_SDK_15.0.0_a53641a/components/libraries/timer/app_timer.c.obj
 .comment       0x0000007f       0x80 examples/light_switch/client/CMakeFiles/light_switch_client_nrf52840_xxAA_s140_6.0.0.dir/C_/sdks/nRF5_SDK_15.0.0_a53641a/components/libraries/util/app_error_handler_gcc.c.obj
 .comment       0x0000007f       0x80 external/rtt/librtt_nrf52840_xxAA.a(SEGGER_RTT.c.obj)
 .comment       0x0000007f       0x80 external/rtt/librtt_nrf52840_xxAA.a(SEGGER_RTT_printf.c.obj)
 .comment       0x0000007f       0x80 external/micro-ecc/libuECC_nrf52840_xxAA.a(uECC.c.obj)

.debug_info     0x00000000    0x8ffdf
 .debug_info    0x00000000     0x3450 examples/light_switch/client/CMakeFiles/light_switch_client_nrf52840_xxAA_s140_6.0.0.dir/src/main.c.obj
 .debug_info    0x00003450     0x2540 examples/light_switch/client/CMakeFiles/light_switch_client_nrf52840_xxAA_s140_6.0.0.dir/__/__/__/mesh/stack/src/mesh_stack.c.obj
 .debug_info    0x00005990     0x1bac examples/light_switch/client/CMakeFiles/light_switch_client_nrf52840_xxAA_s140_6.0.0.dir/__/__/common/src/mesh_softdevice_init.c.obj
 .debug_info    0x0000753c     0x22e4 examples/light_switch/client/CMakeFiles/light_switch_client_nrf52840_xxAA_s140_6.0.0.dir/__/__/common/src/mesh_provisionee.c.obj
 .debug_info    0x00009820      0xd57 examples/light_switch/client/CMakeFiles/light_switch_client_nrf52840_xxAA_s140_6.0.0.dir/__/__/common/src/rtt_input.c.obj
 .debug_info    0x0000a577     0x1623 examples/light_switch/client/CMakeFiles/light_switch_client_nrf52840_xxAA_s140_6.0.0.dir/__/__/common/src/simple_hal.c.obj
 .debug_info    0x0000bb9a      0xde7 examples/light_switch/client/CMakeFiles/light_switch_client_nrf52840_xxAA_s140_6.0.0.dir/__/__/common/src/mesh_app_utils.c.obj
 .debug_info    0x0000c981      0x950 examples/light_switch/client/CMakeFiles/light_switch_client_nrf52840_xxAA_s140_6.0.0.dir/__/__/nrf_mesh_weak.c.obj
 .debug_info    0x0000d2d1     0x106b examples/light_switch/client/CMakeFiles/light_switch_client_nrf52840_xxAA_s140_6.0.0.dir/__/__/common/src/app_error_weak.c.obj
 .debug_info    0x0000e33c      0x99b examples/light_switch/client/CMakeFiles/light_switch_client_nrf52840_xxAA_s140_6.0.0.dir/__/__/common/src/assertion_handler_weak.c.obj
 .debug_info    0x0000ecd7      0xdff examples/light_switch/client/CMakeFiles/light_switch_client_nrf52840_xxAA_s140_6.0.0.dir/__/__/__/mesh/core/src/nrf_mesh_configure.c.obj
 .debug_info    0x0000fad6      0xa86 examples/light_switch/client/CMakeFiles/light_switch_client_nrf52840_xxAA_s140_6.0.0.dir/__/__/__/mesh/core/src/msg_cache.c.obj
 .debug_info    0x0001055c     0x51b5 examples/light_switch/client/CMakeFiles/light_switch_client_nrf52840_xxAA_s140_6.0.0.dir/__/__/__/mesh/core/src/transport.c.obj
 .debug_info    0x00015711     0x191a examples/light_switch/client/CMakeFiles/light_switch_client_nrf52840_xxAA_s140_6.0.0.dir/__/__/__/mesh/core/src/event.c.obj
 .debug_info    0x0001702b     0x1b1c examples/light_switch/client/CMakeFiles/light_switch_client_nrf52840_xxAA_s140_6.0.0.dir/__/__/__/mesh/core/src/packet_buffer.c.obj
 .debug_info    0x00018b47     0x2157 examples/light_switch/client/CMakeFiles/light_switch_client_nrf52840_xxAA_s140_6.0.0.dir/__/__/__/mesh/core/src/flash_manager_defrag.c.obj
 .debug_info    0x0001ac9e      0xd19 examples/light_switch/client/CMakeFiles/light_switch_client_nrf52840_xxAA_s140_6.0.0.dir/__/__/__/mesh/core/src/fifo.c.obj
 .debug_info    0x0001b9b7      0xb84 examples/light_switch/client/CMakeFiles/light_switch_client_nrf52840_xxAA_s140_6.0.0.dir/__/__/__/mesh/core/src/nrf_flash.c.obj
 .debug_info    0x0001c53b     0x11b9 examples/light_switch/client/CMakeFiles/light_switch_client_nrf52840_xxAA_s140_6.0.0.dir/__/__/__/mesh/core/src/packet_mgr.c.obj
 .debug_info    0x0001d6f4     0x295c examples/light_switch/client/CMakeFiles/light_switch_client_nrf52840_xxAA_s140_6.0.0.dir/__/__/__/mesh/core/src/net_state.c.obj
 .debug_info    0x00020050     0x196f examples/light_switch/client/CMakeFiles/light_switch_client_nrf52840_xxAA_s140_6.0.0.dir/__/__/__/mesh/core/src/mesh_flash.c.obj
 .debug_info    0x000219bf      0xaa4 examples/light_switch/client/CMakeFiles/light_switch_client_nrf52840_xxAA_s140_6.0.0.dir/__/__/__/mesh/core/src/nrf_mesh_utils.c.obj
 .debug_info    0x00022463     0x271c examples/light_switch/client/CMakeFiles/light_switch_client_nrf52840_xxAA_s140_6.0.0.dir/__/__/__/mesh/core/src/nrf_mesh.c.obj
 .debug_info    0x00024b7f      0xb3d examples/light_switch/client/CMakeFiles/light_switch_client_nrf52840_xxAA_s140_6.0.0.dir/__/__/__/mesh/core/src/queue.c.obj
 .debug_info    0x000256bc      0x7d1 examples/light_switch/client/CMakeFiles/light_switch_client_nrf52840_xxAA_s140_6.0.0.dir/__/__/__/mesh/core/src/hal.c.obj
 .debug_info    0x00025e8d      0xf9b examples/light_switch/client/CMakeFiles/light_switch_client_nrf52840_xxAA_s140_6.0.0.dir/__/__/__/mesh/core/src/aes_cmac.c.obj
 .debug_info    0x00026e28      0xfd1 examples/light_switch/client/CMakeFiles/light_switch_client_nrf52840_xxAA_s140_6.0.0.dir/__/__/__/mesh/core/src/timer_scheduler.c.obj
 .debug_info    0x00027df9      0xdb4 examples/light_switch/client/CMakeFiles/light_switch_client_nrf52840_xxAA_s140_6.0.0.dir/__/__/__/mesh/core/src/timer.c.obj
 .debug_info    0x00028bad      0x426 examples/light_switch/client/CMakeFiles/light_switch_client_nrf52840_xxAA_s140_6.0.0.dir/__/__/__/mesh/core/src/rand.c.obj
 .debug_info    0x00028fd3      0xd3a examples/light_switch/client/CMakeFiles/light_switch_client_nrf52840_xxAA_s140_6.0.0.dir/__/__/__/mesh/core/src/mesh_opt.c.obj
 .debug_info    0x00029d0d     0x1a9d examples/light_switch/client/CMakeFiles/light_switch_client_nrf52840_xxAA_s140_6.0.0.dir/__/__/__/mesh/core/src/timeslot.c.obj
 .debug_info    0x0002b7aa     0x1afd examples/light_switch/client/CMakeFiles/light_switch_client_nrf52840_xxAA_s140_6.0.0.dir/__/__/__/mesh/core/src/bearer_event.c.obj
 .debug_info    0x0002d2a7     0x1955 examples/light_switch/client/CMakeFiles/light_switch_client_nrf52840_xxAA_s140_6.0.0.dir/__/__/__/mesh/core/src/enc.c.obj
 .debug_info    0x0002ebfc     0x1f61 examples/light_switch/client/CMakeFiles/light_switch_client_nrf52840_xxAA_s140_6.0.0.dir/__/__/__/mesh/core/src/network.c.obj
 .debug_info    0x00030b5d     0x1cde examples/light_switch/client/CMakeFiles/light_switch_client_nrf52840_xxAA_s140_6.0.0.dir/__/__/__/mesh/core/src/net_packet.c.obj
 .debug_info    0x0003283b      0xdb2 examples/light_switch/client/CMakeFiles/light_switch_client_nrf52840_xxAA_s140_6.0.0.dir/__/__/__/mesh/core/src/msqueue.c.obj
 .debug_info    0x000335ed      0x4c8 examples/light_switch/client/CMakeFiles/light_switch_client_nrf52840_xxAA_s140_6.0.0.dir/__/__/__/mesh/core/src/nrf_mesh_keygen.c.obj
 .debug_info    0x00033ab5      0x506 examples/light_switch/client/CMakeFiles/light_switch_client_nrf52840_xxAA_s140_6.0.0.dir/__/__/__/mesh/core/src/list.c.obj
 .debug_info    0x00033fbb      0xe28 examples/light_switch/client/CMakeFiles/light_switch_client_nrf52840_xxAA_s140_6.0.0.dir/__/__/__/mesh/core/src/log.c.obj
 .debug_info    0x00034de3     0x3050 examples/light_switch/client/CMakeFiles/light_switch_client_nrf52840_xxAA_s140_6.0.0.dir/__/__/__/mesh/core/src/flash_manager.c.obj
 .debug_info    0x00037e33     0x1317 examples/light_switch/client/CMakeFiles/light_switch_client_nrf52840_xxAA_s140_6.0.0.dir/__/__/__/mesh/core/src/ccm_soft.c.obj
 .debug_info    0x0003914a      0xa95 examples/light_switch/client/CMakeFiles/light_switch_client_nrf52840_xxAA_s140_6.0.0.dir/__/__/__/mesh/core/src/replay_cache.c.obj
 .debug_info    0x00039bdf     0x17c8 examples/light_switch/client/CMakeFiles/light_switch_client_nrf52840_xxAA_s140_6.0.0.dir/__/__/__/mesh/core/src/beacon.c.obj
 .debug_info    0x0003b3a7      0xbc7 examples/light_switch/client/CMakeFiles/light_switch_client_nrf52840_xxAA_s140_6.0.0.dir/__/__/__/mesh/core/src/flash_manager_internal.c.obj
 .debug_info    0x0003bf6e     0x129b examples/light_switch/client/CMakeFiles/light_switch_client_nrf52840_xxAA_s140_6.0.0.dir/__/__/__/mesh/core/src/core_tx.c.obj
 .debug_info    0x0003d209     0x283c examples/light_switch/client/CMakeFiles/light_switch_client_nrf52840_xxAA_s140_6.0.0.dir/__/__/__/mesh/core/src/heartbeat.c.obj
 .debug_info    0x0003fa45     0x2d5a examples/light_switch/client/CMakeFiles/light_switch_client_nrf52840_xxAA_s140_6.0.0.dir/__/__/__/mesh/core/src/net_beacon.c.obj
 .debug_info    0x0004279f     0x2847 examples/light_switch/client/CMakeFiles/light_switch_client_nrf52840_xxAA_s140_6.0.0.dir/__/__/__/mesh/core/src/mesh_config.c.obj
 .debug_info    0x00044fe6     0x16fc examples/light_switch/client/CMakeFiles/light_switch_client_nrf52840_xxAA_s140_6.0.0.dir/__/__/__/mesh/core/src/mesh_config_backend.c.obj
 .debug_info    0x000466e2     0x20af examples/light_switch/client/CMakeFiles/light_switch_client_nrf52840_xxAA_s140_6.0.0.dir/__/__/__/mesh/core/src/mesh_config_flashman_glue.c.obj
 .debug_info    0x00048791     0x23a5 examples/light_switch/client/CMakeFiles/light_switch_client_nrf52840_xxAA_s140_6.0.0.dir/__/__/__/mesh/core/src/core_tx_adv.c.obj
 .debug_info    0x0004ab36     0x1189 examples/light_switch/client/CMakeFiles/light_switch_client_nrf52840_xxAA_s140_6.0.0.dir/__/__/__/mesh/bearer/src/ad_listener.c.obj
 .debug_info    0x0004bcbf      0xfea examples/light_switch/client/CMakeFiles/light_switch_client_nrf52840_xxAA_s140_6.0.0.dir/__/__/__/mesh/bearer/src/ad_type_filter.c.obj
 .debug_info    0x0004cca9     0x26e6 examples/light_switch/client/CMakeFiles/light_switch_client_nrf52840_xxAA_s140_6.0.0.dir/__/__/__/mesh/bearer/src/advertiser.c.obj
 .debug_info    0x0004f38f     0x2346 examples/light_switch/client/CMakeFiles/light_switch_client_nrf52840_xxAA_s140_6.0.0.dir/__/__/__/mesh/bearer/src/bearer_handler.c.obj
 .debug_info    0x000516d5     0x1bbe examples/light_switch/client/CMakeFiles/light_switch_client_nrf52840_xxAA_s140_6.0.0.dir/__/__/__/mesh/bearer/src/broadcast.c.obj
 .debug_info    0x00053293      0xd2b examples/light_switch/client/CMakeFiles/light_switch_client_nrf52840_xxAA_s140_6.0.0.dir/__/__/__/mesh/bearer/src/filter_engine.c.obj
 .debug_info    0x00053fbe      0xa53 examples/light_switch/client/CMakeFiles/light_switch_client_nrf52840_xxAA_s140_6.0.0.dir/__/__/__/mesh/bearer/src/radio_config.c.obj
 .debug_info    0x00054a11     0x28f7 examples/light_switch/client/CMakeFiles/light_switch_client_nrf52840_xxAA_s140_6.0.0.dir/__/__/__/mesh/bearer/src/scanner.c.obj
 .debug_info    0x00057308     0x107c examples/light_switch/client/CMakeFiles/light_switch_client_nrf52840_xxAA_s140_6.0.0.dir/__/__/__/mesh/bearer/src/mesh_pa_lna.c.obj
 .debug_info    0x00058384     0x172e examples/light_switch/client/CMakeFiles/light_switch_client_nrf52840_xxAA_s140_6.0.0.dir/__/__/__/models/model_spec/generic_onoff/src/generic_onoff_client.c.obj
 .debug_info    0x00059ab2     0x133b examples/light_switch/client/CMakeFiles/light_switch_client_nrf52840_xxAA_s140_6.0.0.dir/__/__/__/models/model_spec/common/src/model_common.c.obj
 .debug_info    0x0005aded      0xed7 examples/light_switch/client/CMakeFiles/light_switch_client_nrf52840_xxAA_s140_6.0.0.dir/__/__/__/models/foundation/config/src/composition_data.c.obj
 .debug_info    0x0005bcc4     0x8afd examples/light_switch/client/CMakeFiles/light_switch_client_nrf52840_xxAA_s140_6.0.0.dir/__/__/__/models/foundation/config/src/config_server.c.obj
 .debug_info    0x000647c1      0x126 examples/light_switch/client/CMakeFiles/light_switch_client_nrf52840_xxAA_s140_6.0.0.dir/__/__/__/models/foundation/config/src/packed_index_list.c.obj
 .debug_info    0x000648e7     0x2611 examples/light_switch/client/CMakeFiles/light_switch_client_nrf52840_xxAA_s140_6.0.0.dir/__/__/__/models/foundation/health/src/health_server.c.obj
 .debug_info    0x00066ef8     0x1169 examples/light_switch/client/CMakeFiles/light_switch_client_nrf52840_xxAA_s140_6.0.0.dir/__/__/__/mesh/access/src/access_publish.c.obj
 .debug_info    0x00068061     0x4bec examples/light_switch/client/CMakeFiles/light_switch_client_nrf52840_xxAA_s140_6.0.0.dir/__/__/__/mesh/access/src/access.c.obj
 .debug_info    0x0006cc4d     0x19d8 examples/light_switch/client/CMakeFiles/light_switch_client_nrf52840_xxAA_s140_6.0.0.dir/__/__/__/mesh/access/src/access_reliable.c.obj
 .debug_info    0x0006e625      0xfeb examples/light_switch/client/CMakeFiles/light_switch_client_nrf52840_xxAA_s140_6.0.0.dir/__/__/__/mesh/access/src/access_loopback.c.obj
 .debug_info    0x0006f610     0x689c examples/light_switch/client/CMakeFiles/light_switch_client_nrf52840_xxAA_s140_6.0.0.dir/__/__/__/mesh/access/src/device_state_manager.c.obj
 .debug_info    0x00075eac     0x29c0 examples/light_switch/client/CMakeFiles/light_switch_client_nrf52840_xxAA_s140_6.0.0.dir/__/__/__/mesh/prov/src/prov_provisionee.c.obj
 .debug_info    0x0007886c     0x1f7a examples/light_switch/client/CMakeFiles/light_switch_client_nrf52840_xxAA_s140_6.0.0.dir/__/__/__/mesh/prov/src/nrf_mesh_prov.c.obj
 .debug_info    0x0007a7e6     0x15b2 examples/light_switch/client/CMakeFiles/light_switch_client_nrf52840_xxAA_s140_6.0.0.dir/__/__/__/mesh/prov/src/provisioning.c.obj
 .debug_info    0x0007bd98     0x1b18 examples/light_switch/client/CMakeFiles/light_switch_client_nrf52840_xxAA_s140_6.0.0.dir/__/__/__/mesh/prov/src/prov_beacon.c.obj
 .debug_info    0x0007d8b0     0x2489 examples/light_switch/client/CMakeFiles/light_switch_client_nrf52840_xxAA_s140_6.0.0.dir/__/__/__/mesh/prov/src/prov_utils.c.obj
 .debug_info    0x0007fd39     0x3afd examples/light_switch/client/CMakeFiles/light_switch_client_nrf52840_xxAA_s140_6.0.0.dir/__/__/__/mesh/prov/src/prov_bearer_adv.c.obj
 .debug_info    0x00083836     0x139f examples/light_switch/client/CMakeFiles/light_switch_client_nrf52840_xxAA_s140_6.0.0.dir/C_/sdks/nRF5_SDK_15.0.0_a53641a/modules/nrfx/mdk/system_nrf52840.c.obj
 .debug_info    0x00084bd5      0xaee examples/light_switch/client/CMakeFiles/light_switch_client_nrf52840_xxAA_s140_6.0.0.dir/C_/sdks/nRF5_SDK_15.0.0_a53641a/components/libraries/util/app_error.c.obj
 .debug_info    0x000856c3     0x11bd examples/light_switch/client/CMakeFiles/light_switch_client_nrf52840_xxAA_s140_6.0.0.dir/C_/sdks/nRF5_SDK_15.0.0_a53641a/components/libraries/util/app_util_platform.c.obj
 .debug_info    0x00086880     0x2201 examples/light_switch/client/CMakeFiles/light_switch_client_nrf52840_xxAA_s140_6.0.0.dir/C_/sdks/nRF5_SDK_15.0.0_a53641a/components/libraries/timer/app_timer.c.obj
 .debug_info    0x00088a81      0x974 examples/light_switch/client/CMakeFiles/light_switch_client_nrf52840_xxAA_s140_6.0.0.dir/C_/sdks/nRF5_SDK_15.0.0_a53641a/components/libraries/util/app_error_handler_gcc.c.obj
 .debug_info    0x000893f5     0x1818 external/rtt/librtt_nrf52840_xxAA.a(SEGGER_RTT.c.obj)
 .debug_info    0x0008ac0d      0xec1 external/rtt/librtt_nrf52840_xxAA.a(SEGGER_RTT_printf.c.obj)
 .debug_info    0x0008bace     0x4511 external/micro-ecc/libuECC_nrf52840_xxAA.a(uECC.c.obj)

.debug_abbrev   0x00000000    0x12b10
 .debug_abbrev  0x00000000      0x553 examples/light_switch/client/CMakeFiles/light_switch_client_nrf52840_xxAA_s140_6.0.0.dir/src/main.c.obj
 .debug_abbrev  0x00000553      0x378 examples/light_switch/client/CMakeFiles/light_switch_client_nrf52840_xxAA_s140_6.0.0.dir/__/__/__/mesh/stack/src/mesh_stack.c.obj
 .debug_abbrev  0x000008cb      0x432 examples/light_switch/client/CMakeFiles/light_switch_client_nrf52840_xxAA_s140_6.0.0.dir/__/__/common/src/mesh_softdevice_init.c.obj
 .debug_abbrev  0x00000cfd      0x31b examples/light_switch/client/CMakeFiles/light_switch_client_nrf52840_xxAA_s140_6.0.0.dir/__/__/common/src/mesh_provisionee.c.obj
 .debug_abbrev  0x00001018      0x2d3 examples/light_switch/client/CMakeFiles/light_switch_client_nrf52840_xxAA_s140_6.0.0.dir/__/__/common/src/rtt_input.c.obj
 .debug_abbrev  0x000012eb      0x3a3 examples/light_switch/client/CMakeFiles/light_switch_client_nrf52840_xxAA_s140_6.0.0.dir/__/__/common/src/simple_hal.c.obj
 .debug_abbrev  0x0000168e      0x22a examples/light_switch/client/CMakeFiles/light_switch_client_nrf52840_xxAA_s140_6.0.0.dir/__/__/common/src/mesh_app_utils.c.obj
 .debug_abbrev  0x000018b8      0x1ae examples/light_switch/client/CMakeFiles/light_switch_client_nrf52840_xxAA_s140_6.0.0.dir/__/__/nrf_mesh_weak.c.obj
 .debug_abbrev  0x00001a66      0x2de examples/light_switch/client/CMakeFiles/light_switch_client_nrf52840_xxAA_s140_6.0.0.dir/__/__/common/src/app_error_weak.c.obj
 .debug_abbrev  0x00001d44      0x1f6 examples/light_switch/client/CMakeFiles/light_switch_client_nrf52840_xxAA_s140_6.0.0.dir/__/__/common/src/assertion_handler_weak.c.obj
 .debug_abbrev  0x00001f3a      0x254 examples/light_switch/client/CMakeFiles/light_switch_client_nrf52840_xxAA_s140_6.0.0.dir/__/__/__/mesh/core/src/nrf_mesh_configure.c.obj
 .debug_abbrev  0x0000218e      0x25d examples/light_switch/client/CMakeFiles/light_switch_client_nrf52840_xxAA_s140_6.0.0.dir/__/__/__/mesh/core/src/msg_cache.c.obj
 .debug_abbrev  0x000023eb      0x5ca examples/light_switch/client/CMakeFiles/light_switch_client_nrf52840_xxAA_s140_6.0.0.dir/__/__/__/mesh/core/src/transport.c.obj
 .debug_abbrev  0x000029b5      0x314 examples/light_switch/client/CMakeFiles/light_switch_client_nrf52840_xxAA_s140_6.0.0.dir/__/__/__/mesh/core/src/event.c.obj
 .debug_abbrev  0x00002cc9      0x468 examples/light_switch/client/CMakeFiles/light_switch_client_nrf52840_xxAA_s140_6.0.0.dir/__/__/__/mesh/core/src/packet_buffer.c.obj
 .debug_abbrev  0x00003131      0x50e examples/light_switch/client/CMakeFiles/light_switch_client_nrf52840_xxAA_s140_6.0.0.dir/__/__/__/mesh/core/src/flash_manager_defrag.c.obj
 .debug_abbrev  0x0000363f      0x2f2 examples/light_switch/client/CMakeFiles/light_switch_client_nrf52840_xxAA_s140_6.0.0.dir/__/__/__/mesh/core/src/fifo.c.obj
 .debug_abbrev  0x00003931      0x21f examples/light_switch/client/CMakeFiles/light_switch_client_nrf52840_xxAA_s140_6.0.0.dir/__/__/__/mesh/core/src/nrf_flash.c.obj
 .debug_abbrev  0x00003b50      0x3b1 examples/light_switch/client/CMakeFiles/light_switch_client_nrf52840_xxAA_s140_6.0.0.dir/__/__/__/mesh/core/src/packet_mgr.c.obj
 .debug_abbrev  0x00003f01      0x552 examples/light_switch/client/CMakeFiles/light_switch_client_nrf52840_xxAA_s140_6.0.0.dir/__/__/__/mesh/core/src/net_state.c.obj
 .debug_abbrev  0x00004453      0x453 examples/light_switch/client/CMakeFiles/light_switch_client_nrf52840_xxAA_s140_6.0.0.dir/__/__/__/mesh/core/src/mesh_flash.c.obj
 .debug_abbrev  0x000048a6      0x242 examples/light_switch/client/CMakeFiles/light_switch_client_nrf52840_xxAA_s140_6.0.0.dir/__/__/__/mesh/core/src/nrf_mesh_utils.c.obj
 .debug_abbrev  0x00004ae8      0x45f examples/light_switch/client/CMakeFiles/light_switch_client_nrf52840_xxAA_s140_6.0.0.dir/__/__/__/mesh/core/src/nrf_mesh.c.obj
 .debug_abbrev  0x00004f47      0x247 examples/light_switch/client/CMakeFiles/light_switch_client_nrf52840_xxAA_s140_6.0.0.dir/__/__/__/mesh/core/src/queue.c.obj
 .debug_abbrev  0x0000518e      0x244 examples/light_switch/client/CMakeFiles/light_switch_client_nrf52840_xxAA_s140_6.0.0.dir/__/__/__/mesh/core/src/hal.c.obj
 .debug_abbrev  0x000053d2      0x341 examples/light_switch/client/CMakeFiles/light_switch_client_nrf52840_xxAA_s140_6.0.0.dir/__/__/__/mesh/core/src/aes_cmac.c.obj
 .debug_abbrev  0x00005713      0x360 examples/light_switch/client/CMakeFiles/light_switch_client_nrf52840_xxAA_s140_6.0.0.dir/__/__/__/mesh/core/src/timer_scheduler.c.obj
 .debug_abbrev  0x00005a73      0x337 examples/light_switch/client/CMakeFiles/light_switch_client_nrf52840_xxAA_s140_6.0.0.dir/__/__/__/mesh/core/src/timer.c.obj
 .debug_abbrev  0x00005daa      0x194 examples/light_switch/client/CMakeFiles/light_switch_client_nrf52840_xxAA_s140_6.0.0.dir/__/__/__/mesh/core/src/rand.c.obj
 .debug_abbrev  0x00005f3e      0x21f examples/light_switch/client/CMakeFiles/light_switch_client_nrf52840_xxAA_s140_6.0.0.dir/__/__/__/mesh/core/src/mesh_opt.c.obj
 .debug_abbrev  0x0000615d      0x4a4 examples/light_switch/client/CMakeFiles/light_switch_client_nrf52840_xxAA_s140_6.0.0.dir/__/__/__/mesh/core/src/timeslot.c.obj
 .debug_abbrev  0x00006601      0x495 examples/light_switch/client/CMakeFiles/light_switch_client_nrf52840_xxAA_s140_6.0.0.dir/__/__/__/mesh/core/src/bearer_event.c.obj
 .debug_abbrev  0x00006a96      0x3be examples/light_switch/client/CMakeFiles/light_switch_client_nrf52840_xxAA_s140_6.0.0.dir/__/__/__/mesh/core/src/enc.c.obj
 .debug_abbrev  0x00006e54      0x4b0 examples/light_switch/client/CMakeFiles/light_switch_client_nrf52840_xxAA_s140_6.0.0.dir/__/__/__/mesh/core/src/network.c.obj
 .debug_abbrev  0x00007304      0x4a1 examples/light_switch/client/CMakeFiles/light_switch_client_nrf52840_xxAA_s140_6.0.0.dir/__/__/__/mesh/core/src/net_packet.c.obj
 .debug_abbrev  0x000077a5      0x2c0 examples/light_switch/client/CMakeFiles/light_switch_client_nrf52840_xxAA_s140_6.0.0.dir/__/__/__/mesh/core/src/msqueue.c.obj
 .debug_abbrev  0x00007a65      0x163 examples/light_switch/client/CMakeFiles/light_switch_client_nrf52840_xxAA_s140_6.0.0.dir/__/__/__/mesh/core/src/nrf_mesh_keygen.c.obj
 .debug_abbrev  0x00007bc8      0x1a4 examples/light_switch/client/CMakeFiles/light_switch_client_nrf52840_xxAA_s140_6.0.0.dir/__/__/__/mesh/core/src/list.c.obj
 .debug_abbrev  0x00007d6c      0x24e examples/light_switch/client/CMakeFiles/light_switch_client_nrf52840_xxAA_s140_6.0.0.dir/__/__/__/mesh/core/src/log.c.obj
 .debug_abbrev  0x00007fba      0x524 examples/light_switch/client/CMakeFiles/light_switch_client_nrf52840_xxAA_s140_6.0.0.dir/__/__/__/mesh/core/src/flash_manager.c.obj
 .debug_abbrev  0x000084de      0x3a4 examples/light_switch/client/CMakeFiles/light_switch_client_nrf52840_xxAA_s140_6.0.0.dir/__/__/__/mesh/core/src/ccm_soft.c.obj
 .debug_abbrev  0x00008882      0x261 examples/light_switch/client/CMakeFiles/light_switch_client_nrf52840_xxAA_s140_6.0.0.dir/__/__/__/mesh/core/src/replay_cache.c.obj
 .debug_abbrev  0x00008ae3      0x2c4 examples/light_switch/client/CMakeFiles/light_switch_client_nrf52840_xxAA_s140_6.0.0.dir/__/__/__/mesh/core/src/beacon.c.obj
 .debug_abbrev  0x00008da7      0x288 examples/light_switch/client/CMakeFiles/light_switch_client_nrf52840_xxAA_s140_6.0.0.dir/__/__/__/mesh/core/src/flash_manager_internal.c.obj
 .debug_abbrev  0x0000902f      0x2ed examples/light_switch/client/CMakeFiles/light_switch_client_nrf52840_xxAA_s140_6.0.0.dir/__/__/__/mesh/core/src/core_tx.c.obj
 .debug_abbrev  0x0000931c      0x578 examples/light_switch/client/CMakeFiles/light_switch_client_nrf52840_xxAA_s140_6.0.0.dir/__/__/__/mesh/core/src/heartbeat.c.obj
 .debug_abbrev  0x00009894      0x4ed examples/light_switch/client/CMakeFiles/light_switch_client_nrf52840_xxAA_s140_6.0.0.dir/__/__/__/mesh/core/src/net_beacon.c.obj
 .debug_abbrev  0x00009d81      0x510 examples/light_switch/client/CMakeFiles/light_switch_client_nrf52840_xxAA_s140_6.0.0.dir/__/__/__/mesh/core/src/mesh_config.c.obj
 .debug_abbrev  0x0000a291      0x3e2 examples/light_switch/client/CMakeFiles/light_switch_client_nrf52840_xxAA_s140_6.0.0.dir/__/__/__/mesh/core/src/mesh_config_backend.c.obj
 .debug_abbrev  0x0000a673      0x37e examples/light_switch/client/CMakeFiles/light_switch_client_nrf52840_xxAA_s140_6.0.0.dir/__/__/__/mesh/core/src/mesh_config_flashman_glue.c.obj
 .debug_abbrev  0x0000a9f1      0x47c examples/light_switch/client/CMakeFiles/light_switch_client_nrf52840_xxAA_s140_6.0.0.dir/__/__/__/mesh/core/src/core_tx_adv.c.obj
 .debug_abbrev  0x0000ae6d      0x341 examples/light_switch/client/CMakeFiles/light_switch_client_nrf52840_xxAA_s140_6.0.0.dir/__/__/__/mesh/bearer/src/ad_listener.c.obj
 .debug_abbrev  0x0000b1ae      0x368 examples/light_switch/client/CMakeFiles/light_switch_client_nrf52840_xxAA_s140_6.0.0.dir/__/__/__/mesh/bearer/src/ad_type_filter.c.obj
 .debug_abbrev  0x0000b516      0x4da examples/light_switch/client/CMakeFiles/light_switch_client_nrf52840_xxAA_s140_6.0.0.dir/__/__/__/mesh/bearer/src/advertiser.c.obj
 .debug_abbrev  0x0000b9f0      0x476 examples/light_switch/client/CMakeFiles/light_switch_client_nrf52840_xxAA_s140_6.0.0.dir/__/__/__/mesh/bearer/src/bearer_handler.c.obj
 .debug_abbrev  0x0000be66      0x3b9 examples/light_switch/client/CMakeFiles/light_switch_client_nrf52840_xxAA_s140_6.0.0.dir/__/__/__/mesh/bearer/src/broadcast.c.obj
 .debug_abbrev  0x0000c21f      0x2a6 examples/light_switch/client/CMakeFiles/light_switch_client_nrf52840_xxAA_s140_6.0.0.dir/__/__/__/mesh/bearer/src/filter_engine.c.obj
 .debug_abbrev  0x0000c4c5      0x1d5 examples/light_switch/client/CMakeFiles/light_switch_client_nrf52840_xxAA_s140_6.0.0.dir/__/__/__/mesh/bearer/src/radio_config.c.obj
 .debug_abbrev  0x0000c69a      0x52a examples/light_switch/client/CMakeFiles/light_switch_client_nrf52840_xxAA_s140_6.0.0.dir/__/__/__/mesh/bearer/src/scanner.c.obj
 .debug_abbrev  0x0000cbc4      0x2bd examples/light_switch/client/CMakeFiles/light_switch_client_nrf52840_xxAA_s140_6.0.0.dir/__/__/__/mesh/bearer/src/mesh_pa_lna.c.obj
 .debug_abbrev  0x0000ce81      0x340 examples/light_switch/client/CMakeFiles/light_switch_client_nrf52840_xxAA_s140_6.0.0.dir/__/__/__/models/model_spec/generic_onoff/src/generic_onoff_client.c.obj
 .debug_abbrev  0x0000d1c1      0x35e examples/light_switch/client/CMakeFiles/light_switch_client_nrf52840_xxAA_s140_6.0.0.dir/__/__/__/models/model_spec/common/src/model_common.c.obj
 .debug_abbrev  0x0000d51f      0x2e2 examples/light_switch/client/CMakeFiles/light_switch_client_nrf52840_xxAA_s140_6.0.0.dir/__/__/__/models/foundation/config/src/composition_data.c.obj
 .debug_abbrev  0x0000d801      0x544 examples/light_switch/client/CMakeFiles/light_switch_client_nrf52840_xxAA_s140_6.0.0.dir/__/__/__/models/foundation/config/src/config_server.c.obj
 .debug_abbrev  0x0000dd45       0x95 examples/light_switch/client/CMakeFiles/light_switch_client_nrf52840_xxAA_s140_6.0.0.dir/__/__/__/models/foundation/config/src/packed_index_list.c.obj
 .debug_abbrev  0x0000ddda      0x4cf examples/light_switch/client/CMakeFiles/light_switch_client_nrf52840_xxAA_s140_6.0.0.dir/__/__/__/models/foundation/health/src/health_server.c.obj
 .debug_abbrev  0x0000e2a9      0x434 examples/light_switch/client/CMakeFiles/light_switch_client_nrf52840_xxAA_s140_6.0.0.dir/__/__/__/mesh/access/src/access_publish.c.obj
 .debug_abbrev  0x0000e6dd      0x610 examples/light_switch/client/CMakeFiles/light_switch_client_nrf52840_xxAA_s140_6.0.0.dir/__/__/__/mesh/access/src/access.c.obj
 .debug_abbrev  0x0000eced      0x437 examples/light_switch/client/CMakeFiles/light_switch_client_nrf52840_xxAA_s140_6.0.0.dir/__/__/__/mesh/access/src/access_reliable.c.obj
 .debug_abbrev  0x0000f124      0x2be examples/light_switch/client/CMakeFiles/light_switch_client_nrf52840_xxAA_s140_6.0.0.dir/__/__/__/mesh/access/src/access_loopback.c.obj
 .debug_abbrev  0x0000f3e2      0x60d examples/light_switch/client/CMakeFiles/light_switch_client_nrf52840_xxAA_s140_6.0.0.dir/__/__/__/mesh/access/src/device_state_manager.c.obj
 .debug_abbrev  0x0000f9ef      0x48d examples/light_switch/client/CMakeFiles/light_switch_client_nrf52840_xxAA_s140_6.0.0.dir/__/__/__/mesh/prov/src/prov_provisionee.c.obj
 .debug_abbrev  0x0000fe7c      0x434 examples/light_switch/client/CMakeFiles/light_switch_client_nrf52840_xxAA_s140_6.0.0.dir/__/__/__/mesh/prov/src/nrf_mesh_prov.c.obj
 .debug_abbrev  0x000102b0      0x2a9 examples/light_switch/client/CMakeFiles/light_switch_client_nrf52840_xxAA_s140_6.0.0.dir/__/__/__/mesh/prov/src/provisioning.c.obj
 .debug_abbrev  0x00010559      0x2c8 examples/light_switch/client/CMakeFiles/light_switch_client_nrf52840_xxAA_s140_6.0.0.dir/__/__/__/mesh/prov/src/prov_beacon.c.obj
 .debug_abbrev  0x00010821      0x422 examples/light_switch/client/CMakeFiles/light_switch_client_nrf52840_xxAA_s140_6.0.0.dir/__/__/__/mesh/prov/src/prov_utils.c.obj
 .debug_abbrev  0x00010c43      0x4eb examples/light_switch/client/CMakeFiles/light_switch_client_nrf52840_xxAA_s140_6.0.0.dir/__/__/__/mesh/prov/src/prov_bearer_adv.c.obj
 .debug_abbrev  0x0001112e      0x20b examples/light_switch/client/CMakeFiles/light_switch_client_nrf52840_xxAA_s140_6.0.0.dir/C_/sdks/nRF5_SDK_15.0.0_a53641a/modules/nrfx/mdk/system_nrf52840.c.obj
 .debug_abbrev  0x00011339      0x232 examples/light_switch/client/CMakeFiles/light_switch_client_nrf52840_xxAA_s140_6.0.0.dir/C_/sdks/nRF5_SDK_15.0.0_a53641a/components/libraries/util/app_error.c.obj
 .debug_abbrev  0x0001156b      0x35b examples/light_switch/client/CMakeFiles/light_switch_client_nrf52840_xxAA_s140_6.0.0.dir/C_/sdks/nRF5_SDK_15.0.0_a53641a/components/libraries/util/app_util_platform.c.obj
 .debug_abbrev  0x000118c6      0x502 examples/light_switch/client/CMakeFiles/light_switch_client_nrf52840_xxAA_s140_6.0.0.dir/C_/sdks/nRF5_SDK_15.0.0_a53641a/components/libraries/timer/app_timer.c.obj
 .debug_abbrev  0x00011dc8      0x1bd examples/light_switch/client/CMakeFiles/light_switch_client_nrf52840_xxAA_s140_6.0.0.dir/C_/sdks/nRF5_SDK_15.0.0_a53641a/components/libraries/util/app_error_handler_gcc.c.obj
 .debug_abbrev  0x00011f85      0x3a9 external/rtt/librtt_nrf52840_xxAA.a(SEGGER_RTT.c.obj)
 .debug_abbrev  0x0001232e      0x32e external/rtt/librtt_nrf52840_xxAA.a(SEGGER_RTT_printf.c.obj)
 .debug_abbrev  0x0001265c      0x4b4 external/micro-ecc/libuECC_nrf52840_xxAA.a(uECC.c.obj)

.debug_loc      0x00000000    0x26ef9
 .debug_loc     0x00000000      0x541 examples/light_switch/client/CMakeFiles/light_switch_client_nrf52840_xxAA_s140_6.0.0.dir/src/main.c.obj
 .debug_loc     0x00000541      0x1d2 examples/light_switch/client/CMakeFiles/light_switch_client_nrf52840_xxAA_s140_6.0.0.dir/__/__/__/mesh/stack/src/mesh_stack.c.obj
 .debug_loc     0x00000713      0x21b examples/light_switch/client/CMakeFiles/light_switch_client_nrf52840_xxAA_s140_6.0.0.dir/__/__/common/src/mesh_softdevice_init.c.obj
 .debug_loc     0x0000092e      0x10a examples/light_switch/client/CMakeFiles/light_switch_client_nrf52840_xxAA_s140_6.0.0.dir/__/__/common/src/mesh_provisionee.c.obj
 .debug_loc     0x00000a38       0xed examples/light_switch/client/CMakeFiles/light_switch_client_nrf52840_xxAA_s140_6.0.0.dir/__/__/common/src/rtt_input.c.obj
 .debug_loc     0x00000b25      0x243 examples/light_switch/client/CMakeFiles/light_switch_client_nrf52840_xxAA_s140_6.0.0.dir/__/__/common/src/simple_hal.c.obj
 .debug_loc     0x00000d68       0x9a examples/light_switch/client/CMakeFiles/light_switch_client_nrf52840_xxAA_s140_6.0.0.dir/__/__/common/src/mesh_app_utils.c.obj
 .debug_loc     0x00000e02      0x18c examples/light_switch/client/CMakeFiles/light_switch_client_nrf52840_xxAA_s140_6.0.0.dir/__/__/common/src/app_error_weak.c.obj
 .debug_loc     0x00000f8e       0x2c examples/light_switch/client/CMakeFiles/light_switch_client_nrf52840_xxAA_s140_6.0.0.dir/__/__/common/src/assertion_handler_weak.c.obj
 .debug_loc     0x00000fba       0x2c examples/light_switch/client/CMakeFiles/light_switch_client_nrf52840_xxAA_s140_6.0.0.dir/__/__/__/mesh/core/src/nrf_mesh_configure.c.obj
 .debug_loc     0x00000fe6      0x10d examples/light_switch/client/CMakeFiles/light_switch_client_nrf52840_xxAA_s140_6.0.0.dir/__/__/__/mesh/core/src/msg_cache.c.obj
 .debug_loc     0x000010f3     0x259a examples/light_switch/client/CMakeFiles/light_switch_client_nrf52840_xxAA_s140_6.0.0.dir/__/__/__/mesh/core/src/transport.c.obj
 .debug_loc     0x0000368d      0x124 examples/light_switch/client/CMakeFiles/light_switch_client_nrf52840_xxAA_s140_6.0.0.dir/__/__/__/mesh/core/src/event.c.obj
 .debug_loc     0x000037b1      0x8cd examples/light_switch/client/CMakeFiles/light_switch_client_nrf52840_xxAA_s140_6.0.0.dir/__/__/__/mesh/core/src/packet_buffer.c.obj
 .debug_loc     0x0000407e      0x7fe examples/light_switch/client/CMakeFiles/light_switch_client_nrf52840_xxAA_s140_6.0.0.dir/__/__/__/mesh/core/src/flash_manager_defrag.c.obj
 .debug_loc     0x0000487c      0x4f6 examples/light_switch/client/CMakeFiles/light_switch_client_nrf52840_xxAA_s140_6.0.0.dir/__/__/__/mesh/core/src/fifo.c.obj
 .debug_loc     0x00004d72      0x17a examples/light_switch/client/CMakeFiles/light_switch_client_nrf52840_xxAA_s140_6.0.0.dir/__/__/__/mesh/core/src/nrf_flash.c.obj
 .debug_loc     0x00004eec      0x6c1 examples/light_switch/client/CMakeFiles/light_switch_client_nrf52840_xxAA_s140_6.0.0.dir/__/__/__/mesh/core/src/packet_mgr.c.obj
 .debug_loc     0x000055ad      0x936 examples/light_switch/client/CMakeFiles/light_switch_client_nrf52840_xxAA_s140_6.0.0.dir/__/__/__/mesh/core/src/net_state.c.obj
 .debug_loc     0x00005ee3      0x8be examples/light_switch/client/CMakeFiles/light_switch_client_nrf52840_xxAA_s140_6.0.0.dir/__/__/__/mesh/core/src/mesh_flash.c.obj
 .debug_loc     0x000067a1       0xf8 examples/light_switch/client/CMakeFiles/light_switch_client_nrf52840_xxAA_s140_6.0.0.dir/__/__/__/mesh/core/src/nrf_mesh_utils.c.obj
 .debug_loc     0x00006899      0x524 examples/light_switch/client/CMakeFiles/light_switch_client_nrf52840_xxAA_s140_6.0.0.dir/__/__/__/mesh/core/src/nrf_mesh.c.obj
 .debug_loc     0x00006dbd       0xf5 examples/light_switch/client/CMakeFiles/light_switch_client_nrf52840_xxAA_s140_6.0.0.dir/__/__/__/mesh/core/src/queue.c.obj
 .debug_loc     0x00006eb2       0x84 examples/light_switch/client/CMakeFiles/light_switch_client_nrf52840_xxAA_s140_6.0.0.dir/__/__/__/mesh/core/src/hal.c.obj
 .debug_loc     0x00006f36      0x3d8 examples/light_switch/client/CMakeFiles/light_switch_client_nrf52840_xxAA_s140_6.0.0.dir/__/__/__/mesh/core/src/aes_cmac.c.obj
 .debug_loc     0x0000730e      0x2bc examples/light_switch/client/CMakeFiles/light_switch_client_nrf52840_xxAA_s140_6.0.0.dir/__/__/__/mesh/core/src/timer_scheduler.c.obj
 .debug_loc     0x000075ca      0x5f9 examples/light_switch/client/CMakeFiles/light_switch_client_nrf52840_xxAA_s140_6.0.0.dir/__/__/__/mesh/core/src/timer.c.obj
 .debug_loc     0x00007bc3      0x14e examples/light_switch/client/CMakeFiles/light_switch_client_nrf52840_xxAA_s140_6.0.0.dir/__/__/__/mesh/core/src/rand.c.obj
 .debug_loc     0x00007d11      0x344 examples/light_switch/client/CMakeFiles/light_switch_client_nrf52840_xxAA_s140_6.0.0.dir/__/__/__/mesh/core/src/timeslot.c.obj
 .debug_loc     0x00008055      0x526 examples/light_switch/client/CMakeFiles/light_switch_client_nrf52840_xxAA_s140_6.0.0.dir/__/__/__/mesh/core/src/bearer_event.c.obj
 .debug_loc     0x0000857b      0x8e7 examples/light_switch/client/CMakeFiles/light_switch_client_nrf52840_xxAA_s140_6.0.0.dir/__/__/__/mesh/core/src/enc.c.obj
 .debug_loc     0x00008e62      0x6e4 examples/light_switch/client/CMakeFiles/light_switch_client_nrf52840_xxAA_s140_6.0.0.dir/__/__/__/mesh/core/src/network.c.obj
 .debug_loc     0x00009546      0x817 examples/light_switch/client/CMakeFiles/light_switch_client_nrf52840_xxAA_s140_6.0.0.dir/__/__/__/mesh/core/src/net_packet.c.obj
 .debug_loc     0x00009d5d      0x2ed examples/light_switch/client/CMakeFiles/light_switch_client_nrf52840_xxAA_s140_6.0.0.dir/__/__/__/mesh/core/src/msqueue.c.obj
 .debug_loc     0x0000a04a      0x1ee examples/light_switch/client/CMakeFiles/light_switch_client_nrf52840_xxAA_s140_6.0.0.dir/__/__/__/mesh/core/src/nrf_mesh_keygen.c.obj
 .debug_loc     0x0000a238      0x3bf examples/light_switch/client/CMakeFiles/light_switch_client_nrf52840_xxAA_s140_6.0.0.dir/__/__/__/mesh/core/src/list.c.obj
 .debug_loc     0x0000a5f7      0x348 examples/light_switch/client/CMakeFiles/light_switch_client_nrf52840_xxAA_s140_6.0.0.dir/__/__/__/mesh/core/src/log.c.obj
 .debug_loc     0x0000a93f     0x1439 examples/light_switch/client/CMakeFiles/light_switch_client_nrf52840_xxAA_s140_6.0.0.dir/__/__/__/mesh/core/src/flash_manager.c.obj
 .debug_loc     0x0000bd78      0x4b6 examples/light_switch/client/CMakeFiles/light_switch_client_nrf52840_xxAA_s140_6.0.0.dir/__/__/__/mesh/core/src/ccm_soft.c.obj
 .debug_loc     0x0000c22e      0x157 examples/light_switch/client/CMakeFiles/light_switch_client_nrf52840_xxAA_s140_6.0.0.dir/__/__/__/mesh/core/src/replay_cache.c.obj
 .debug_loc     0x0000c385      0x30d examples/light_switch/client/CMakeFiles/light_switch_client_nrf52840_xxAA_s140_6.0.0.dir/__/__/__/mesh/core/src/beacon.c.obj
 .debug_loc     0x0000c692       0xe3 examples/light_switch/client/CMakeFiles/light_switch_client_nrf52840_xxAA_s140_6.0.0.dir/__/__/__/mesh/core/src/flash_manager_internal.c.obj
 .debug_loc     0x0000c775      0x3c5 examples/light_switch/client/CMakeFiles/light_switch_client_nrf52840_xxAA_s140_6.0.0.dir/__/__/__/mesh/core/src/core_tx.c.obj
 .debug_loc     0x0000cb3a      0x5ba examples/light_switch/client/CMakeFiles/light_switch_client_nrf52840_xxAA_s140_6.0.0.dir/__/__/__/mesh/core/src/heartbeat.c.obj
 .debug_loc     0x0000d0f4      0x6b3 examples/light_switch/client/CMakeFiles/light_switch_client_nrf52840_xxAA_s140_6.0.0.dir/__/__/__/mesh/core/src/net_beacon.c.obj
 .debug_loc     0x0000d7a7      0x76f examples/light_switch/client/CMakeFiles/light_switch_client_nrf52840_xxAA_s140_6.0.0.dir/__/__/__/mesh/core/src/mesh_config.c.obj
 .debug_loc     0x0000df16      0x4f8 examples/light_switch/client/CMakeFiles/light_switch_client_nrf52840_xxAA_s140_6.0.0.dir/__/__/__/mesh/core/src/mesh_config_backend.c.obj
 .debug_loc     0x0000e40e      0x4c1 examples/light_switch/client/CMakeFiles/light_switch_client_nrf52840_xxAA_s140_6.0.0.dir/__/__/__/mesh/core/src/mesh_config_flashman_glue.c.obj
 .debug_loc     0x0000e8cf      0xad1 examples/light_switch/client/CMakeFiles/light_switch_client_nrf52840_xxAA_s140_6.0.0.dir/__/__/__/mesh/core/src/core_tx_adv.c.obj
 .debug_loc     0x0000f3a0      0x40d examples/light_switch/client/CMakeFiles/light_switch_client_nrf52840_xxAA_s140_6.0.0.dir/__/__/__/mesh/bearer/src/ad_listener.c.obj
 .debug_loc     0x0000f7ad      0x3ae examples/light_switch/client/CMakeFiles/light_switch_client_nrf52840_xxAA_s140_6.0.0.dir/__/__/__/mesh/bearer/src/ad_type_filter.c.obj
 .debug_loc     0x0000fb5b      0xc97 examples/light_switch/client/CMakeFiles/light_switch_client_nrf52840_xxAA_s140_6.0.0.dir/__/__/__/mesh/bearer/src/advertiser.c.obj
 .debug_loc     0x000107f2      0x438 examples/light_switch/client/CMakeFiles/light_switch_client_nrf52840_xxAA_s140_6.0.0.dir/__/__/__/mesh/bearer/src/bearer_handler.c.obj
 .debug_loc     0x00010c2a      0x320 examples/light_switch/client/CMakeFiles/light_switch_client_nrf52840_xxAA_s140_6.0.0.dir/__/__/__/mesh/bearer/src/broadcast.c.obj
 .debug_loc     0x00010f4a       0xde examples/light_switch/client/CMakeFiles/light_switch_client_nrf52840_xxAA_s140_6.0.0.dir/__/__/__/mesh/bearer/src/filter_engine.c.obj
 .debug_loc     0x00011028      0x232 examples/light_switch/client/CMakeFiles/light_switch_client_nrf52840_xxAA_s140_6.0.0.dir/__/__/__/mesh/bearer/src/radio_config.c.obj
 .debug_loc     0x0001125a      0x48a examples/light_switch/client/CMakeFiles/light_switch_client_nrf52840_xxAA_s140_6.0.0.dir/__/__/__/mesh/bearer/src/scanner.c.obj
 .debug_loc     0x000116e4      0x1d6 examples/light_switch/client/CMakeFiles/light_switch_client_nrf52840_xxAA_s140_6.0.0.dir/__/__/__/mesh/bearer/src/mesh_pa_lna.c.obj
 .debug_loc     0x000118ba      0x6fa examples/light_switch/client/CMakeFiles/light_switch_client_nrf52840_xxAA_s140_6.0.0.dir/__/__/__/models/model_spec/generic_onoff/src/generic_onoff_client.c.obj
 .debug_loc     0x00011fb4      0x437 examples/light_switch/client/CMakeFiles/light_switch_client_nrf52840_xxAA_s140_6.0.0.dir/__/__/__/models/model_spec/common/src/model_common.c.obj
 .debug_loc     0x000123eb      0x254 examples/light_switch/client/CMakeFiles/light_switch_client_nrf52840_xxAA_s140_6.0.0.dir/__/__/__/models/foundation/config/src/composition_data.c.obj
 .debug_loc     0x0001263f     0x4cc4 examples/light_switch/client/CMakeFiles/light_switch_client_nrf52840_xxAA_s140_6.0.0.dir/__/__/__/models/foundation/config/src/config_server.c.obj
 .debug_loc     0x00017303       0x89 examples/light_switch/client/CMakeFiles/light_switch_client_nrf52840_xxAA_s140_6.0.0.dir/__/__/__/models/foundation/config/src/packed_index_list.c.obj
 .debug_loc     0x0001738c     0x1373 examples/light_switch/client/CMakeFiles/light_switch_client_nrf52840_xxAA_s140_6.0.0.dir/__/__/__/models/foundation/health/src/health_server.c.obj
 .debug_loc     0x000186ff      0x4d4 examples/light_switch/client/CMakeFiles/light_switch_client_nrf52840_xxAA_s140_6.0.0.dir/__/__/__/mesh/access/src/access_publish.c.obj
 .debug_loc     0x00018bd3     0x23be examples/light_switch/client/CMakeFiles/light_switch_client_nrf52840_xxAA_s140_6.0.0.dir/__/__/__/mesh/access/src/access.c.obj
 .debug_loc     0x0001af91      0x7bc examples/light_switch/client/CMakeFiles/light_switch_client_nrf52840_xxAA_s140_6.0.0.dir/__/__/__/mesh/access/src/access_reliable.c.obj
 .debug_loc     0x0001b74d       0x81 examples/light_switch/client/CMakeFiles/light_switch_client_nrf52840_xxAA_s140_6.0.0.dir/__/__/__/mesh/access/src/access_loopback.c.obj
 .debug_loc     0x0001b7ce     0x3b0d examples/light_switch/client/CMakeFiles/light_switch_client_nrf52840_xxAA_s140_6.0.0.dir/__/__/__/mesh/access/src/device_state_manager.c.obj
 .debug_loc     0x0001f2db      0x7e0 examples/light_switch/client/CMakeFiles/light_switch_client_nrf52840_xxAA_s140_6.0.0.dir/__/__/__/mesh/prov/src/prov_provisionee.c.obj
 .debug_loc     0x0001fabb      0xa4b examples/light_switch/client/CMakeFiles/light_switch_client_nrf52840_xxAA_s140_6.0.0.dir/__/__/__/mesh/prov/src/nrf_mesh_prov.c.obj
 .debug_loc     0x00020506      0x490 examples/light_switch/client/CMakeFiles/light_switch_client_nrf52840_xxAA_s140_6.0.0.dir/__/__/__/mesh/prov/src/provisioning.c.obj
 .debug_loc     0x00020996      0x18c examples/light_switch/client/CMakeFiles/light_switch_client_nrf52840_xxAA_s140_6.0.0.dir/__/__/__/mesh/prov/src/prov_beacon.c.obj
 .debug_loc     0x00020b22      0x548 examples/light_switch/client/CMakeFiles/light_switch_client_nrf52840_xxAA_s140_6.0.0.dir/__/__/__/mesh/prov/src/prov_utils.c.obj
 .debug_loc     0x0002106a     0x14df examples/light_switch/client/CMakeFiles/light_switch_client_nrf52840_xxAA_s140_6.0.0.dir/__/__/__/mesh/prov/src/prov_bearer_adv.c.obj
 .debug_loc     0x00022549       0xb5 examples/light_switch/client/CMakeFiles/light_switch_client_nrf52840_xxAA_s140_6.0.0.dir/C_/sdks/nRF5_SDK_15.0.0_a53641a/components/libraries/util/app_error.c.obj
 .debug_loc     0x000225fe       0xc1 examples/light_switch/client/CMakeFiles/light_switch_client_nrf52840_xxAA_s140_6.0.0.dir/C_/sdks/nRF5_SDK_15.0.0_a53641a/components/libraries/util/app_util_platform.c.obj
 .debug_loc     0x000226bf      0xa5d examples/light_switch/client/CMakeFiles/light_switch_client_nrf52840_xxAA_s140_6.0.0.dir/C_/sdks/nRF5_SDK_15.0.0_a53641a/components/libraries/timer/app_timer.c.obj
 .debug_loc     0x0002311c       0x63 examples/light_switch/client/CMakeFiles/light_switch_client_nrf52840_xxAA_s140_6.0.0.dir/C_/sdks/nRF5_SDK_15.0.0_a53641a/components/libraries/util/app_error_handler_gcc.c.obj
 .debug_loc     0x0002317f     0x1222 external/rtt/librtt_nrf52840_xxAA.a(SEGGER_RTT.c.obj)
 .debug_loc     0x000243a1      0x70f external/rtt/librtt_nrf52840_xxAA.a(SEGGER_RTT_printf.c.obj)
 .debug_loc     0x00024ab0     0x2449 external/micro-ecc/libuECC_nrf52840_xxAA.a(uECC.c.obj)

.debug_aranges  0x00000000     0x2768
 .debug_aranges
                0x00000000       0x68 examples/light_switch/client/CMakeFiles/light_switch_client_nrf52840_xxAA_s140_6.0.0.dir/src/main.c.obj
 .debug_aranges
                0x00000068       0x58 examples/light_switch/client/CMakeFiles/light_switch_client_nrf52840_xxAA_s140_6.0.0.dir/__/__/__/mesh/stack/src/mesh_stack.c.obj
 .debug_aranges
                0x000000c0       0x48 examples/light_switch/client/CMakeFiles/light_switch_client_nrf52840_xxAA_s140_6.0.0.dir/__/__/common/src/mesh_softdevice_init.c.obj
 .debug_aranges
                0x00000108       0x38 examples/light_switch/client/CMakeFiles/light_switch_client_nrf52840_xxAA_s140_6.0.0.dir/__/__/common/src/mesh_provisionee.c.obj
 .debug_aranges
                0x00000140       0x30 examples/light_switch/client/CMakeFiles/light_switch_client_nrf52840_xxAA_s140_6.0.0.dir/__/__/common/src/rtt_input.c.obj
 .debug_aranges
                0x00000170       0x58 examples/light_switch/client/CMakeFiles/light_switch_client_nrf52840_xxAA_s140_6.0.0.dir/__/__/common/src/simple_hal.c.obj
 .debug_aranges
                0x000001c8       0x20 examples/light_switch/client/CMakeFiles/light_switch_client_nrf52840_xxAA_s140_6.0.0.dir/__/__/common/src/mesh_app_utils.c.obj
 .debug_aranges
                0x000001e8       0x28 examples/light_switch/client/CMakeFiles/light_switch_client_nrf52840_xxAA_s140_6.0.0.dir/__/__/nrf_mesh_weak.c.obj
 .debug_aranges
                0x00000210       0x20 examples/light_switch/client/CMakeFiles/light_switch_client_nrf52840_xxAA_s140_6.0.0.dir/__/__/common/src/app_error_weak.c.obj
 .debug_aranges
                0x00000230       0x20 examples/light_switch/client/CMakeFiles/light_switch_client_nrf52840_xxAA_s140_6.0.0.dir/__/__/common/src/assertion_handler_weak.c.obj
 .debug_aranges
                0x00000250       0x30 examples/light_switch/client/CMakeFiles/light_switch_client_nrf52840_xxAA_s140_6.0.0.dir/__/__/__/mesh/core/src/nrf_mesh_configure.c.obj
 .debug_aranges
                0x00000280       0x38 examples/light_switch/client/CMakeFiles/light_switch_client_nrf52840_xxAA_s140_6.0.0.dir/__/__/__/mesh/core/src/msg_cache.c.obj
 .debug_aranges
                0x000002b8      0x110 examples/light_switch/client/CMakeFiles/light_switch_client_nrf52840_xxAA_s140_6.0.0.dir/__/__/__/mesh/core/src/transport.c.obj
 .debug_aranges
                0x000003c8       0x30 examples/light_switch/client/CMakeFiles/light_switch_client_nrf52840_xxAA_s140_6.0.0.dir/__/__/__/mesh/core/src/event.c.obj
 .debug_aranges
                0x000003f8       0x68 examples/light_switch/client/CMakeFiles/light_switch_client_nrf52840_xxAA_s140_6.0.0.dir/__/__/__/mesh/core/src/packet_buffer.c.obj
 .debug_aranges
                0x00000460       0xc8 examples/light_switch/client/CMakeFiles/light_switch_client_nrf52840_xxAA_s140_6.0.0.dir/__/__/__/mesh/core/src/flash_manager_defrag.c.obj
 .debug_aranges
                0x00000528       0x60 examples/light_switch/client/CMakeFiles/light_switch_client_nrf52840_xxAA_s140_6.0.0.dir/__/__/__/mesh/core/src/fifo.c.obj
 .debug_aranges
                0x00000588       0x30 examples/light_switch/client/CMakeFiles/light_switch_client_nrf52840_xxAA_s140_6.0.0.dir/__/__/__/mesh/core/src/nrf_flash.c.obj
 .debug_aranges
                0x000005b8       0x48 examples/light_switch/client/CMakeFiles/light_switch_client_nrf52840_xxAA_s140_6.0.0.dir/__/__/__/mesh/core/src/packet_mgr.c.obj
 .debug_aranges
                0x00000600       0xd8 examples/light_switch/client/CMakeFiles/light_switch_client_nrf52840_xxAA_s140_6.0.0.dir/__/__/__/mesh/core/src/net_state.c.obj
 .debug_aranges
                0x000006d8       0x60 examples/light_switch/client/CMakeFiles/light_switch_client_nrf52840_xxAA_s140_6.0.0.dir/__/__/__/mesh/core/src/mesh_flash.c.obj
 .debug_aranges
                0x00000738       0x30 examples/light_switch/client/CMakeFiles/light_switch_client_nrf52840_xxAA_s140_6.0.0.dir/__/__/__/mesh/core/src/nrf_mesh_utils.c.obj
 .debug_aranges
                0x00000768       0x90 examples/light_switch/client/CMakeFiles/light_switch_client_nrf52840_xxAA_s140_6.0.0.dir/__/__/__/mesh/core/src/nrf_mesh.c.obj
 .debug_aranges
                0x000007f8       0x38 examples/light_switch/client/CMakeFiles/light_switch_client_nrf52840_xxAA_s140_6.0.0.dir/__/__/__/mesh/core/src/queue.c.obj
 .debug_aranges
                0x00000830       0x40 examples/light_switch/client/CMakeFiles/light_switch_client_nrf52840_xxAA_s140_6.0.0.dir/__/__/__/mesh/core/src/hal.c.obj
 .debug_aranges
                0x00000870       0x30 examples/light_switch/client/CMakeFiles/light_switch_client_nrf52840_xxAA_s140_6.0.0.dir/__/__/__/mesh/core/src/aes_cmac.c.obj
 .debug_aranges
                0x000008a0       0x68 examples/light_switch/client/CMakeFiles/light_switch_client_nrf52840_xxAA_s140_6.0.0.dir/__/__/__/mesh/core/src/timer_scheduler.c.obj
 .debug_aranges
                0x00000908       0x60 examples/light_switch/client/CMakeFiles/light_switch_client_nrf52840_xxAA_s140_6.0.0.dir/__/__/__/mesh/core/src/timer.c.obj
 .debug_aranges
                0x00000968       0x40 examples/light_switch/client/CMakeFiles/light_switch_client_nrf52840_xxAA_s140_6.0.0.dir/__/__/__/mesh/core/src/rand.c.obj
 .debug_aranges
                0x000009a8       0x20 examples/light_switch/client/CMakeFiles/light_switch_client_nrf52840_xxAA_s140_6.0.0.dir/__/__/__/mesh/core/src/mesh_opt.c.obj
 .debug_aranges
                0x000009c8       0xb8 examples/light_switch/client/CMakeFiles/light_switch_client_nrf52840_xxAA_s140_6.0.0.dir/__/__/__/mesh/core/src/timeslot.c.obj
 .debug_aranges
                0x00000a80       0x98 examples/light_switch/client/CMakeFiles/light_switch_client_nrf52840_xxAA_s140_6.0.0.dir/__/__/__/mesh/core/src/bearer_event.c.obj
 .debug_aranges
                0x00000b18       0x78 examples/light_switch/client/CMakeFiles/light_switch_client_nrf52840_xxAA_s140_6.0.0.dir/__/__/__/mesh/core/src/enc.c.obj
 .debug_aranges
                0x00000b90       0x60 examples/light_switch/client/CMakeFiles/light_switch_client_nrf52840_xxAA_s140_6.0.0.dir/__/__/__/mesh/core/src/network.c.obj
 .debug_aranges
                0x00000bf0       0x68 examples/light_switch/client/CMakeFiles/light_switch_client_nrf52840_xxAA_s140_6.0.0.dir/__/__/__/mesh/core/src/net_packet.c.obj
 .debug_aranges
                0x00000c58       0x48 examples/light_switch/client/CMakeFiles/light_switch_client_nrf52840_xxAA_s140_6.0.0.dir/__/__/__/mesh/core/src/msqueue.c.obj
 .debug_aranges
                0x00000ca0       0x40 examples/light_switch/client/CMakeFiles/light_switch_client_nrf52840_xxAA_s140_6.0.0.dir/__/__/__/mesh/core/src/nrf_mesh_keygen.c.obj
 .debug_aranges
                0x00000ce0       0x48 examples/light_switch/client/CMakeFiles/light_switch_client_nrf52840_xxAA_s140_6.0.0.dir/__/__/__/mesh/core/src/list.c.obj
 .debug_aranges
                0x00000d28       0x48 examples/light_switch/client/CMakeFiles/light_switch_client_nrf52840_xxAA_s140_6.0.0.dir/__/__/__/mesh/core/src/log.c.obj
 .debug_aranges
                0x00000d70       0xf8 examples/light_switch/client/CMakeFiles/light_switch_client_nrf52840_xxAA_s140_6.0.0.dir/__/__/__/mesh/core/src/flash_manager.c.obj
 .debug_aranges
                0x00000e68       0x50 examples/light_switch/client/CMakeFiles/light_switch_client_nrf52840_xxAA_s140_6.0.0.dir/__/__/__/mesh/core/src/ccm_soft.c.obj
 .debug_aranges
                0x00000eb8       0x40 examples/light_switch/client/CMakeFiles/light_switch_client_nrf52840_xxAA_s140_6.0.0.dir/__/__/__/mesh/core/src/replay_cache.c.obj
 .debug_aranges
                0x00000ef8       0x28 examples/light_switch/client/CMakeFiles/light_switch_client_nrf52840_xxAA_s140_6.0.0.dir/__/__/__/mesh/core/src/beacon.c.obj
 .debug_aranges
                0x00000f20       0x20 examples/light_switch/client/CMakeFiles/light_switch_client_nrf52840_xxAA_s140_6.0.0.dir/__/__/__/mesh/core/src/flash_manager_internal.c.obj
 .debug_aranges
                0x00000f40       0x58 examples/light_switch/client/CMakeFiles/light_switch_client_nrf52840_xxAA_s140_6.0.0.dir/__/__/__/mesh/core/src/core_tx.c.obj
 .debug_aranges
                0x00000f98       0x98 examples/light_switch/client/CMakeFiles/light_switch_client_nrf52840_xxAA_s140_6.0.0.dir/__/__/__/mesh/core/src/heartbeat.c.obj
 .debug_aranges
                0x00001030       0x80 examples/light_switch/client/CMakeFiles/light_switch_client_nrf52840_xxAA_s140_6.0.0.dir/__/__/__/mesh/core/src/net_beacon.c.obj
 .debug_aranges
                0x000010b0       0x90 examples/light_switch/client/CMakeFiles/light_switch_client_nrf52840_xxAA_s140_6.0.0.dir/__/__/__/mesh/core/src/mesh_config.c.obj
 .debug_aranges
                0x00001140       0x58 examples/light_switch/client/CMakeFiles/light_switch_client_nrf52840_xxAA_s140_6.0.0.dir/__/__/__/mesh/core/src/mesh_config_backend.c.obj
 .debug_aranges
                0x00001198       0x80 examples/light_switch/client/CMakeFiles/light_switch_client_nrf52840_xxAA_s140_6.0.0.dir/__/__/__/mesh/core/src/mesh_config_flashman_glue.c.obj
 .debug_aranges
                0x00001218       0xa0 examples/light_switch/client/CMakeFiles/light_switch_client_nrf52840_xxAA_s140_6.0.0.dir/__/__/__/mesh/core/src/core_tx_adv.c.obj
 .debug_aranges
                0x000012b8       0x30 examples/light_switch/client/CMakeFiles/light_switch_client_nrf52840_xxAA_s140_6.0.0.dir/__/__/__/mesh/bearer/src/ad_listener.c.obj
 .debug_aranges
                0x000012e8       0x58 examples/light_switch/client/CMakeFiles/light_switch_client_nrf52840_xxAA_s140_6.0.0.dir/__/__/__/mesh/bearer/src/ad_type_filter.c.obj
 .debug_aranges
                0x00001340       0xb8 examples/light_switch/client/CMakeFiles/light_switch_client_nrf52840_xxAA_s140_6.0.0.dir/__/__/__/mesh/bearer/src/advertiser.c.obj
 .debug_aranges
                0x000013f8       0x88 examples/light_switch/client/CMakeFiles/light_switch_client_nrf52840_xxAA_s140_6.0.0.dir/__/__/__/mesh/bearer/src/bearer_handler.c.obj
 .debug_aranges
                0x00001480       0x30 examples/light_switch/client/CMakeFiles/light_switch_client_nrf52840_xxAA_s140_6.0.0.dir/__/__/__/mesh/bearer/src/broadcast.c.obj
 .debug_aranges
                0x000014b0       0x38 examples/light_switch/client/CMakeFiles/light_switch_client_nrf52840_xxAA_s140_6.0.0.dir/__/__/__/mesh/bearer/src/filter_engine.c.obj
 .debug_aranges
                0x000014e8       0x40 examples/light_switch/client/CMakeFiles/light_switch_client_nrf52840_xxAA_s140_6.0.0.dir/__/__/__/mesh/bearer/src/radio_config.c.obj
 .debug_aranges
                0x00001528       0xe8 examples/light_switch/client/CMakeFiles/light_switch_client_nrf52840_xxAA_s140_6.0.0.dir/__/__/__/mesh/bearer/src/scanner.c.obj
 .debug_aranges
                0x00001610       0x70 examples/light_switch/client/CMakeFiles/light_switch_client_nrf52840_xxAA_s140_6.0.0.dir/__/__/__/mesh/bearer/src/mesh_pa_lna.c.obj
 .debug_aranges
                0x00001680       0x40 examples/light_switch/client/CMakeFiles/light_switch_client_nrf52840_xxAA_s140_6.0.0.dir/__/__/__/models/model_spec/generic_onoff/src/generic_onoff_client.c.obj
 .debug_aranges
                0x000016c0       0x88 examples/light_switch/client/CMakeFiles/light_switch_client_nrf52840_xxAA_s140_6.0.0.dir/__/__/__/models/model_spec/common/src/model_common.c.obj
 .debug_aranges
                0x00001748       0x20 examples/light_switch/client/CMakeFiles/light_switch_client_nrf52840_xxAA_s140_6.0.0.dir/__/__/__/models/foundation/config/src/composition_data.c.obj
 .debug_aranges
                0x00001768      0x218 examples/light_switch/client/CMakeFiles/light_switch_client_nrf52840_xxAA_s140_6.0.0.dir/__/__/__/models/foundation/config/src/config_server.c.obj
 .debug_aranges
                0x00001980       0x20 examples/light_switch/client/CMakeFiles/light_switch_client_nrf52840_xxAA_s140_6.0.0.dir/__/__/__/models/foundation/config/src/packed_index_list.c.obj
 .debug_aranges
                0x000019a0       0xc8 examples/light_switch/client/CMakeFiles/light_switch_client_nrf52840_xxAA_s140_6.0.0.dir/__/__/__/models/foundation/health/src/health_server.c.obj
 .debug_aranges
                0x00001a68       0x50 examples/light_switch/client/CMakeFiles/light_switch_client_nrf52840_xxAA_s140_6.0.0.dir/__/__/__/mesh/access/src/access_publish.c.obj
 .debug_aranges
                0x00001ab8      0x1e0 examples/light_switch/client/CMakeFiles/light_switch_client_nrf52840_xxAA_s140_6.0.0.dir/__/__/__/mesh/access/src/access.c.obj
 .debug_aranges
                0x00001c98       0x58 examples/light_switch/client/CMakeFiles/light_switch_client_nrf52840_xxAA_s140_6.0.0.dir/__/__/__/mesh/access/src/access_reliable.c.obj
 .debug_aranges
                0x00001cf0       0x38 examples/light_switch/client/CMakeFiles/light_switch_client_nrf52840_xxAA_s140_6.0.0.dir/__/__/__/mesh/access/src/access_loopback.c.obj
 .debug_aranges
                0x00001d28      0x328 examples/light_switch/client/CMakeFiles/light_switch_client_nrf52840_xxAA_s140_6.0.0.dir/__/__/__/mesh/access/src/device_state_manager.c.obj
 .debug_aranges
                0x00002050       0x70 examples/light_switch/client/CMakeFiles/light_switch_client_nrf52840_xxAA_s140_6.0.0.dir/__/__/__/mesh/prov/src/prov_provisionee.c.obj
 .debug_aranges
                0x000020c0       0x88 examples/light_switch/client/CMakeFiles/light_switch_client_nrf52840_xxAA_s140_6.0.0.dir/__/__/__/mesh/prov/src/nrf_mesh_prov.c.obj
 .debug_aranges
                0x00002148       0x80 examples/light_switch/client/CMakeFiles/light_switch_client_nrf52840_xxAA_s140_6.0.0.dir/__/__/__/mesh/prov/src/provisioning.c.obj
 .debug_aranges
                0x000021c8       0x38 examples/light_switch/client/CMakeFiles/light_switch_client_nrf52840_xxAA_s140_6.0.0.dir/__/__/__/mesh/prov/src/prov_beacon.c.obj
 .debug_aranges
                0x00002200       0x90 examples/light_switch/client/CMakeFiles/light_switch_client_nrf52840_xxAA_s140_6.0.0.dir/__/__/__/mesh/prov/src/prov_utils.c.obj
 .debug_aranges
                0x00002290       0xd0 examples/light_switch/client/CMakeFiles/light_switch_client_nrf52840_xxAA_s140_6.0.0.dir/__/__/__/mesh/prov/src/prov_bearer_adv.c.obj
 .debug_aranges
                0x00002360       0x30 examples/light_switch/client/CMakeFiles/light_switch_client_nrf52840_xxAA_s140_6.0.0.dir/C_/sdks/nRF5_SDK_15.0.0_a53641a/modules/nrfx/mdk/system_nrf52840.c.obj
 .debug_aranges
                0x00002390       0x28 examples/light_switch/client/CMakeFiles/light_switch_client_nrf52840_xxAA_s140_6.0.0.dir/C_/sdks/nRF5_SDK_15.0.0_a53641a/components/libraries/util/app_error.c.obj
 .debug_aranges
                0x000023b8       0x48 examples/light_switch/client/CMakeFiles/light_switch_client_nrf52840_xxAA_s140_6.0.0.dir/C_/sdks/nRF5_SDK_15.0.0_a53641a/components/libraries/util/app_util_platform.c.obj
 .debug_aranges
                0x00002400       0x90 examples/light_switch/client/CMakeFiles/light_switch_client_nrf52840_xxAA_s140_6.0.0.dir/C_/sdks/nRF5_SDK_15.0.0_a53641a/components/libraries/timer/app_timer.c.obj
 .debug_aranges
                0x00002490       0x20 examples/light_switch/client/CMakeFiles/light_switch_client_nrf52840_xxAA_s140_6.0.0.dir/C_/sdks/nRF5_SDK_15.0.0_a53641a/components/libraries/util/app_error_handler_gcc.c.obj
 .debug_aranges
                0x000024b0       0xd8 external/rtt/librtt_nrf52840_xxAA.a(SEGGER_RTT.c.obj)
 .debug_aranges
                0x00002588       0x38 external/rtt/librtt_nrf52840_xxAA.a(SEGGER_RTT_printf.c.obj)
 .debug_aranges
                0x000025c0      0x1a8 external/micro-ecc/libuECC_nrf52840_xxAA.a(uECC.c.obj)

.debug_ranges   0x00000000     0x6880
 .debug_ranges  0x00000000      0x360 examples/light_switch/client/CMakeFiles/light_switch_client_nrf52840_xxAA_s140_6.0.0.dir/src/main.c.obj
 .debug_ranges  0x00000360       0x78 examples/light_switch/client/CMakeFiles/light_switch_client_nrf52840_xxAA_s140_6.0.0.dir/__/__/__/mesh/stack/src/mesh_stack.c.obj
 .debug_ranges  0x000003d8       0xe8 examples/light_switch/client/CMakeFiles/light_switch_client_nrf52840_xxAA_s140_6.0.0.dir/__/__/common/src/mesh_softdevice_init.c.obj
 .debug_ranges  0x000004c0       0x58 examples/light_switch/client/CMakeFiles/light_switch_client_nrf52840_xxAA_s140_6.0.0.dir/__/__/common/src/mesh_provisionee.c.obj
 .debug_ranges  0x00000518       0x50 examples/light_switch/client/CMakeFiles/light_switch_client_nrf52840_xxAA_s140_6.0.0.dir/__/__/common/src/rtt_input.c.obj
 .debug_ranges  0x00000568       0x98 examples/light_switch/client/CMakeFiles/light_switch_client_nrf52840_xxAA_s140_6.0.0.dir/__/__/common/src/simple_hal.c.obj
 .debug_ranges  0x00000600       0x10 examples/light_switch/client/CMakeFiles/light_switch_client_nrf52840_xxAA_s140_6.0.0.dir/__/__/common/src/mesh_app_utils.c.obj
 .debug_ranges  0x00000610       0x18 examples/light_switch/client/CMakeFiles/light_switch_client_nrf52840_xxAA_s140_6.0.0.dir/__/__/nrf_mesh_weak.c.obj
 .debug_ranges  0x00000628       0xb8 examples/light_switch/client/CMakeFiles/light_switch_client_nrf52840_xxAA_s140_6.0.0.dir/__/__/common/src/app_error_weak.c.obj
 .debug_ranges  0x000006e0       0x10 examples/light_switch/client/CMakeFiles/light_switch_client_nrf52840_xxAA_s140_6.0.0.dir/__/__/common/src/assertion_handler_weak.c.obj
 .debug_ranges  0x000006f0       0x20 examples/light_switch/client/CMakeFiles/light_switch_client_nrf52840_xxAA_s140_6.0.0.dir/__/__/__/mesh/core/src/nrf_mesh_configure.c.obj
 .debug_ranges  0x00000710       0x48 examples/light_switch/client/CMakeFiles/light_switch_client_nrf52840_xxAA_s140_6.0.0.dir/__/__/__/mesh/core/src/msg_cache.c.obj
 .debug_ranges  0x00000758      0x5d0 examples/light_switch/client/CMakeFiles/light_switch_client_nrf52840_xxAA_s140_6.0.0.dir/__/__/__/mesh/core/src/transport.c.obj
 .debug_ranges  0x00000d28       0x50 examples/light_switch/client/CMakeFiles/light_switch_client_nrf52840_xxAA_s140_6.0.0.dir/__/__/__/mesh/core/src/event.c.obj
 .debug_ranges  0x00000d78      0x128 examples/light_switch/client/CMakeFiles/light_switch_client_nrf52840_xxAA_s140_6.0.0.dir/__/__/__/mesh/core/src/packet_buffer.c.obj
 .debug_ranges  0x00000ea0      0x230 examples/light_switch/client/CMakeFiles/light_switch_client_nrf52840_xxAA_s140_6.0.0.dir/__/__/__/mesh/core/src/flash_manager_defrag.c.obj
 .debug_ranges  0x000010d0       0x68 examples/light_switch/client/CMakeFiles/light_switch_client_nrf52840_xxAA_s140_6.0.0.dir/__/__/__/mesh/core/src/fifo.c.obj
 .debug_ranges  0x00001138       0x38 examples/light_switch/client/CMakeFiles/light_switch_client_nrf52840_xxAA_s140_6.0.0.dir/__/__/__/mesh/core/src/nrf_flash.c.obj
 .debug_ranges  0x00001170       0xe0 examples/light_switch/client/CMakeFiles/light_switch_client_nrf52840_xxAA_s140_6.0.0.dir/__/__/__/mesh/core/src/packet_mgr.c.obj
 .debug_ranges  0x00001250      0x200 examples/light_switch/client/CMakeFiles/light_switch_client_nrf52840_xxAA_s140_6.0.0.dir/__/__/__/mesh/core/src/net_state.c.obj
 .debug_ranges  0x00001450      0x1c8 examples/light_switch/client/CMakeFiles/light_switch_client_nrf52840_xxAA_s140_6.0.0.dir/__/__/__/mesh/core/src/mesh_flash.c.obj
 .debug_ranges  0x00001618       0x20 examples/light_switch/client/CMakeFiles/light_switch_client_nrf52840_xxAA_s140_6.0.0.dir/__/__/__/mesh/core/src/nrf_mesh_utils.c.obj
 .debug_ranges  0x00001638      0x118 examples/light_switch/client/CMakeFiles/light_switch_client_nrf52840_xxAA_s140_6.0.0.dir/__/__/__/mesh/core/src/nrf_mesh.c.obj
 .debug_ranges  0x00001750       0x28 examples/light_switch/client/CMakeFiles/light_switch_client_nrf52840_xxAA_s140_6.0.0.dir/__/__/__/mesh/core/src/queue.c.obj
 .debug_ranges  0x00001778       0x30 examples/light_switch/client/CMakeFiles/light_switch_client_nrf52840_xxAA_s140_6.0.0.dir/__/__/__/mesh/core/src/hal.c.obj
 .debug_ranges  0x000017a8      0x120 examples/light_switch/client/CMakeFiles/light_switch_client_nrf52840_xxAA_s140_6.0.0.dir/__/__/__/mesh/core/src/aes_cmac.c.obj
 .debug_ranges  0x000018c8       0xa8 examples/light_switch/client/CMakeFiles/light_switch_client_nrf52840_xxAA_s140_6.0.0.dir/__/__/__/mesh/core/src/timer_scheduler.c.obj
 .debug_ranges  0x00001970       0xd8 examples/light_switch/client/CMakeFiles/light_switch_client_nrf52840_xxAA_s140_6.0.0.dir/__/__/__/mesh/core/src/timer.c.obj
 .debug_ranges  0x00001a48       0x30 examples/light_switch/client/CMakeFiles/light_switch_client_nrf52840_xxAA_s140_6.0.0.dir/__/__/__/mesh/core/src/rand.c.obj
 .debug_ranges  0x00001a78       0x10 examples/light_switch/client/CMakeFiles/light_switch_client_nrf52840_xxAA_s140_6.0.0.dir/__/__/__/mesh/core/src/mesh_opt.c.obj
 .debug_ranges  0x00001a88      0x168 examples/light_switch/client/CMakeFiles/light_switch_client_nrf52840_xxAA_s140_6.0.0.dir/__/__/__/mesh/core/src/timeslot.c.obj
 .debug_ranges  0x00001bf0      0x110 examples/light_switch/client/CMakeFiles/light_switch_client_nrf52840_xxAA_s140_6.0.0.dir/__/__/__/mesh/core/src/bearer_event.c.obj
 .debug_ranges  0x00001d00       0xb8 examples/light_switch/client/CMakeFiles/light_switch_client_nrf52840_xxAA_s140_6.0.0.dir/__/__/__/mesh/core/src/enc.c.obj
 .debug_ranges  0x00001db8      0x148 examples/light_switch/client/CMakeFiles/light_switch_client_nrf52840_xxAA_s140_6.0.0.dir/__/__/__/mesh/core/src/network.c.obj
 .debug_ranges  0x00001f00      0x160 examples/light_switch/client/CMakeFiles/light_switch_client_nrf52840_xxAA_s140_6.0.0.dir/__/__/__/mesh/core/src/net_packet.c.obj
 .debug_ranges  0x00002060       0x50 examples/light_switch/client/CMakeFiles/light_switch_client_nrf52840_xxAA_s140_6.0.0.dir/__/__/__/mesh/core/src/msqueue.c.obj
 .debug_ranges  0x000020b0       0x30 examples/light_switch/client/CMakeFiles/light_switch_client_nrf52840_xxAA_s140_6.0.0.dir/__/__/__/mesh/core/src/nrf_mesh_keygen.c.obj
 .debug_ranges  0x000020e0       0x78 examples/light_switch/client/CMakeFiles/light_switch_client_nrf52840_xxAA_s140_6.0.0.dir/__/__/__/mesh/core/src/list.c.obj
 .debug_ranges  0x00002158       0x38 examples/light_switch/client/CMakeFiles/light_switch_client_nrf52840_xxAA_s140_6.0.0.dir/__/__/__/mesh/core/src/log.c.obj
 .debug_ranges  0x00002190      0x388 examples/light_switch/client/CMakeFiles/light_switch_client_nrf52840_xxAA_s140_6.0.0.dir/__/__/__/mesh/core/src/flash_manager.c.obj
 .debug_ranges  0x00002518       0xa0 examples/light_switch/client/CMakeFiles/light_switch_client_nrf52840_xxAA_s140_6.0.0.dir/__/__/__/mesh/core/src/ccm_soft.c.obj
 .debug_ranges  0x000025b8       0x30 examples/light_switch/client/CMakeFiles/light_switch_client_nrf52840_xxAA_s140_6.0.0.dir/__/__/__/mesh/core/src/replay_cache.c.obj
 .debug_ranges  0x000025e8       0x90 examples/light_switch/client/CMakeFiles/light_switch_client_nrf52840_xxAA_s140_6.0.0.dir/__/__/__/mesh/core/src/beacon.c.obj
 .debug_ranges  0x00002678       0x10 examples/light_switch/client/CMakeFiles/light_switch_client_nrf52840_xxAA_s140_6.0.0.dir/__/__/__/mesh/core/src/flash_manager_internal.c.obj
 .debug_ranges  0x00002688       0xf8 examples/light_switch/client/CMakeFiles/light_switch_client_nrf52840_xxAA_s140_6.0.0.dir/__/__/__/mesh/core/src/core_tx.c.obj
 .debug_ranges  0x00002780       0xf8 examples/light_switch/client/CMakeFiles/light_switch_client_nrf52840_xxAA_s140_6.0.0.dir/__/__/__/mesh/core/src/heartbeat.c.obj
 .debug_ranges  0x00002878      0x188 examples/light_switch/client/CMakeFiles/light_switch_client_nrf52840_xxAA_s140_6.0.0.dir/__/__/__/mesh/core/src/net_beacon.c.obj
 .debug_ranges  0x00002a00      0x208 examples/light_switch/client/CMakeFiles/light_switch_client_nrf52840_xxAA_s140_6.0.0.dir/__/__/__/mesh/core/src/mesh_config.c.obj
 .debug_ranges  0x00002c08       0xe0 examples/light_switch/client/CMakeFiles/light_switch_client_nrf52840_xxAA_s140_6.0.0.dir/__/__/__/mesh/core/src/mesh_config_backend.c.obj
 .debug_ranges  0x00002ce8       0x70 examples/light_switch/client/CMakeFiles/light_switch_client_nrf52840_xxAA_s140_6.0.0.dir/__/__/__/mesh/core/src/mesh_config_flashman_glue.c.obj
 .debug_ranges  0x00002d58      0x190 examples/light_switch/client/CMakeFiles/light_switch_client_nrf52840_xxAA_s140_6.0.0.dir/__/__/__/mesh/core/src/core_tx_adv.c.obj
 .debug_ranges  0x00002ee8      0x110 examples/light_switch/client/CMakeFiles/light_switch_client_nrf52840_xxAA_s140_6.0.0.dir/__/__/__/mesh/bearer/src/ad_listener.c.obj
 .debug_ranges  0x00002ff8       0xd0 examples/light_switch/client/CMakeFiles/light_switch_client_nrf52840_xxAA_s140_6.0.0.dir/__/__/__/mesh/bearer/src/ad_type_filter.c.obj
 .debug_ranges  0x000030c8      0x218 examples/light_switch/client/CMakeFiles/light_switch_client_nrf52840_xxAA_s140_6.0.0.dir/__/__/__/mesh/bearer/src/advertiser.c.obj
 .debug_ranges  0x000032e0      0x180 examples/light_switch/client/CMakeFiles/light_switch_client_nrf52840_xxAA_s140_6.0.0.dir/__/__/__/mesh/bearer/src/bearer_handler.c.obj
 .debug_ranges  0x00003460       0xc0 examples/light_switch/client/CMakeFiles/light_switch_client_nrf52840_xxAA_s140_6.0.0.dir/__/__/__/mesh/bearer/src/broadcast.c.obj
 .debug_ranges  0x00003520       0x48 examples/light_switch/client/CMakeFiles/light_switch_client_nrf52840_xxAA_s140_6.0.0.dir/__/__/__/mesh/bearer/src/filter_engine.c.obj
 .debug_ranges  0x00003568       0x48 examples/light_switch/client/CMakeFiles/light_switch_client_nrf52840_xxAA_s140_6.0.0.dir/__/__/__/mesh/bearer/src/radio_config.c.obj
 .debug_ranges  0x000035b0      0x1a8 examples/light_switch/client/CMakeFiles/light_switch_client_nrf52840_xxAA_s140_6.0.0.dir/__/__/__/mesh/bearer/src/scanner.c.obj
 .debug_ranges  0x00003758       0xb8 examples/light_switch/client/CMakeFiles/light_switch_client_nrf52840_xxAA_s140_6.0.0.dir/__/__/__/mesh/bearer/src/mesh_pa_lna.c.obj
 .debug_ranges  0x00003810      0x140 examples/light_switch/client/CMakeFiles/light_switch_client_nrf52840_xxAA_s140_6.0.0.dir/__/__/__/models/model_spec/generic_onoff/src/generic_onoff_client.c.obj
 .debug_ranges  0x00003950       0x78 examples/light_switch/client/CMakeFiles/light_switch_client_nrf52840_xxAA_s140_6.0.0.dir/__/__/__/models/model_spec/common/src/model_common.c.obj
 .debug_ranges  0x000039c8       0xb8 examples/light_switch/client/CMakeFiles/light_switch_client_nrf52840_xxAA_s140_6.0.0.dir/__/__/__/models/foundation/config/src/composition_data.c.obj
 .debug_ranges  0x00003a80      0x788 examples/light_switch/client/CMakeFiles/light_switch_client_nrf52840_xxAA_s140_6.0.0.dir/__/__/__/models/foundation/config/src/config_server.c.obj
 .debug_ranges  0x00004208       0x10 examples/light_switch/client/CMakeFiles/light_switch_client_nrf52840_xxAA_s140_6.0.0.dir/__/__/__/models/foundation/config/src/packed_index_list.c.obj
 .debug_ranges  0x00004218      0x260 examples/light_switch/client/CMakeFiles/light_switch_client_nrf52840_xxAA_s140_6.0.0.dir/__/__/__/models/foundation/health/src/health_server.c.obj
 .debug_ranges  0x00004478      0x118 examples/light_switch/client/CMakeFiles/light_switch_client_nrf52840_xxAA_s140_6.0.0.dir/__/__/__/mesh/access/src/access_publish.c.obj
 .debug_ranges  0x00004590      0x7f8 examples/light_switch/client/CMakeFiles/light_switch_client_nrf52840_xxAA_s140_6.0.0.dir/__/__/__/mesh/access/src/access.c.obj
 .debug_ranges  0x00004d88      0x188 examples/light_switch/client/CMakeFiles/light_switch_client_nrf52840_xxAA_s140_6.0.0.dir/__/__/__/mesh/access/src/access_reliable.c.obj
 .debug_ranges  0x00004f10       0x28 examples/light_switch/client/CMakeFiles/light_switch_client_nrf52840_xxAA_s140_6.0.0.dir/__/__/__/mesh/access/src/access_loopback.c.obj
 .debug_ranges  0x00004f38      0x7d0 examples/light_switch/client/CMakeFiles/light_switch_client_nrf52840_xxAA_s140_6.0.0.dir/__/__/__/mesh/access/src/device_state_manager.c.obj
 .debug_ranges  0x00005708      0x1b0 examples/light_switch/client/CMakeFiles/light_switch_client_nrf52840_xxAA_s140_6.0.0.dir/__/__/__/mesh/prov/src/prov_provisionee.c.obj
 .debug_ranges  0x000058b8      0x130 examples/light_switch/client/CMakeFiles/light_switch_client_nrf52840_xxAA_s140_6.0.0.dir/__/__/__/mesh/prov/src/nrf_mesh_prov.c.obj
 .debug_ranges  0x000059e8       0x70 examples/light_switch/client/CMakeFiles/light_switch_client_nrf52840_xxAA_s140_6.0.0.dir/__/__/__/mesh/prov/src/provisioning.c.obj
 .debug_ranges  0x00005a58       0x40 examples/light_switch/client/CMakeFiles/light_switch_client_nrf52840_xxAA_s140_6.0.0.dir/__/__/__/mesh/prov/src/prov_beacon.c.obj
 .debug_ranges  0x00005a98       0xd8 examples/light_switch/client/CMakeFiles/light_switch_client_nrf52840_xxAA_s140_6.0.0.dir/__/__/__/mesh/prov/src/prov_utils.c.obj
 .debug_ranges  0x00005b70      0x4a0 examples/light_switch/client/CMakeFiles/light_switch_client_nrf52840_xxAA_s140_6.0.0.dir/__/__/__/mesh/prov/src/prov_bearer_adv.c.obj
 .debug_ranges  0x00006010       0x20 examples/light_switch/client/CMakeFiles/light_switch_client_nrf52840_xxAA_s140_6.0.0.dir/C_/sdks/nRF5_SDK_15.0.0_a53641a/modules/nrfx/mdk/system_nrf52840.c.obj
 .debug_ranges  0x00006030       0x18 examples/light_switch/client/CMakeFiles/light_switch_client_nrf52840_xxAA_s140_6.0.0.dir/C_/sdks/nRF5_SDK_15.0.0_a53641a/components/libraries/util/app_error.c.obj
 .debug_ranges  0x00006048       0x38 examples/light_switch/client/CMakeFiles/light_switch_client_nrf52840_xxAA_s140_6.0.0.dir/C_/sdks/nRF5_SDK_15.0.0_a53641a/components/libraries/util/app_util_platform.c.obj
 .debug_ranges  0x00006080      0x390 examples/light_switch/client/CMakeFiles/light_switch_client_nrf52840_xxAA_s140_6.0.0.dir/C_/sdks/nRF5_SDK_15.0.0_a53641a/components/libraries/timer/app_timer.c.obj
 .debug_ranges  0x00006410       0x10 examples/light_switch/client/CMakeFiles/light_switch_client_nrf52840_xxAA_s140_6.0.0.dir/C_/sdks/nRF5_SDK_15.0.0_a53641a/components/libraries/util/app_error_handler_gcc.c.obj
 .debug_ranges  0x00006420      0x130 external/rtt/librtt_nrf52840_xxAA.a(SEGGER_RTT.c.obj)
 .debug_ranges  0x00006550       0x48 external/rtt/librtt_nrf52840_xxAA.a(SEGGER_RTT_printf.c.obj)
 .debug_ranges  0x00006598      0x2e8 external/micro-ecc/libuECC_nrf52840_xxAA.a(uECC.c.obj)

.debug_line     0x00000000    0x1b01d
 .debug_line    0x00000000      0xb23 examples/light_switch/client/CMakeFiles/light_switch_client_nrf52840_xxAA_s140_6.0.0.dir/src/main.c.obj
 .debug_line    0x00000b23      0x593 examples/light_switch/client/CMakeFiles/light_switch_client_nrf52840_xxAA_s140_6.0.0.dir/__/__/__/mesh/stack/src/mesh_stack.c.obj
 .debug_line    0x000010b6      0x423 examples/light_switch/client/CMakeFiles/light_switch_client_nrf52840_xxAA_s140_6.0.0.dir/__/__/common/src/mesh_softdevice_init.c.obj
 .debug_line    0x000014d9      0x548 examples/light_switch/client/CMakeFiles/light_switch_client_nrf52840_xxAA_s140_6.0.0.dir/__/__/common/src/mesh_provisionee.c.obj
 .debug_line    0x00001a21      0x380 examples/light_switch/client/CMakeFiles/light_switch_client_nrf52840_xxAA_s140_6.0.0.dir/__/__/common/src/rtt_input.c.obj
 .debug_line    0x00001da1      0x440 examples/light_switch/client/CMakeFiles/light_switch_client_nrf52840_xxAA_s140_6.0.0.dir/__/__/common/src/simple_hal.c.obj
 .debug_line    0x000021e1      0x202 examples/light_switch/client/CMakeFiles/light_switch_client_nrf52840_xxAA_s140_6.0.0.dir/__/__/common/src/mesh_app_utils.c.obj
 .debug_line    0x000023e3      0x224 examples/light_switch/client/CMakeFiles/light_switch_client_nrf52840_xxAA_s140_6.0.0.dir/__/__/nrf_mesh_weak.c.obj
 .debug_line    0x00002607      0x46b examples/light_switch/client/CMakeFiles/light_switch_client_nrf52840_xxAA_s140_6.0.0.dir/__/__/common/src/app_error_weak.c.obj
 .debug_line    0x00002a72      0x225 examples/light_switch/client/CMakeFiles/light_switch_client_nrf52840_xxAA_s140_6.0.0.dir/__/__/common/src/assertion_handler_weak.c.obj
 .debug_line    0x00002c97      0x217 examples/light_switch/client/CMakeFiles/light_switch_client_nrf52840_xxAA_s140_6.0.0.dir/__/__/__/mesh/core/src/nrf_mesh_configure.c.obj
 .debug_line    0x00002eae      0x297 examples/light_switch/client/CMakeFiles/light_switch_client_nrf52840_xxAA_s140_6.0.0.dir/__/__/__/mesh/core/src/msg_cache.c.obj
 .debug_line    0x00003145      0xd16 examples/light_switch/client/CMakeFiles/light_switch_client_nrf52840_xxAA_s140_6.0.0.dir/__/__/__/mesh/core/src/transport.c.obj
 .debug_line    0x00003e5b      0x396 examples/light_switch/client/CMakeFiles/light_switch_client_nrf52840_xxAA_s140_6.0.0.dir/__/__/__/mesh/core/src/event.c.obj
 .debug_line    0x000041f1      0x506 examples/light_switch/client/CMakeFiles/light_switch_client_nrf52840_xxAA_s140_6.0.0.dir/__/__/__/mesh/core/src/packet_buffer.c.obj
 .debug_line    0x000046f7      0x70b examples/light_switch/client/CMakeFiles/light_switch_client_nrf52840_xxAA_s140_6.0.0.dir/__/__/__/mesh/core/src/flash_manager_defrag.c.obj
 .debug_line    0x00004e02      0x361 examples/light_switch/client/CMakeFiles/light_switch_client_nrf52840_xxAA_s140_6.0.0.dir/__/__/__/mesh/core/src/fifo.c.obj
 .debug_line    0x00005163      0x275 examples/light_switch/client/CMakeFiles/light_switch_client_nrf52840_xxAA_s140_6.0.0.dir/__/__/__/mesh/core/src/nrf_flash.c.obj
 .debug_line    0x000053d8      0x44b examples/light_switch/client/CMakeFiles/light_switch_client_nrf52840_xxAA_s140_6.0.0.dir/__/__/__/mesh/core/src/packet_mgr.c.obj
 .debug_line    0x00005823      0x738 examples/light_switch/client/CMakeFiles/light_switch_client_nrf52840_xxAA_s140_6.0.0.dir/__/__/__/mesh/core/src/net_state.c.obj
 .debug_line    0x00005f5b      0x545 examples/light_switch/client/CMakeFiles/light_switch_client_nrf52840_xxAA_s140_6.0.0.dir/__/__/__/mesh/core/src/mesh_flash.c.obj
 .debug_line    0x000064a0      0x28b examples/light_switch/client/CMakeFiles/light_switch_client_nrf52840_xxAA_s140_6.0.0.dir/__/__/__/mesh/core/src/nrf_mesh_utils.c.obj
 .debug_line    0x0000672b      0x7fe examples/light_switch/client/CMakeFiles/light_switch_client_nrf52840_xxAA_s140_6.0.0.dir/__/__/__/mesh/core/src/nrf_mesh.c.obj
 .debug_line    0x00006f29      0x2c3 examples/light_switch/client/CMakeFiles/light_switch_client_nrf52840_xxAA_s140_6.0.0.dir/__/__/__/mesh/core/src/queue.c.obj
 .debug_line    0x000071ec      0x232 examples/light_switch/client/CMakeFiles/light_switch_client_nrf52840_xxAA_s140_6.0.0.dir/__/__/__/mesh/core/src/hal.c.obj
 .debug_line    0x0000741e      0x347 examples/light_switch/client/CMakeFiles/light_switch_client_nrf52840_xxAA_s140_6.0.0.dir/__/__/__/mesh/core/src/aes_cmac.c.obj
 .debug_line    0x00007765      0x3b9 examples/light_switch/client/CMakeFiles/light_switch_client_nrf52840_xxAA_s140_6.0.0.dir/__/__/__/mesh/core/src/timer_scheduler.c.obj
 .debug_line    0x00007b1e      0x3a1 examples/light_switch/client/CMakeFiles/light_switch_client_nrf52840_xxAA_s140_6.0.0.dir/__/__/__/mesh/core/src/timer.c.obj
 .debug_line    0x00007ebf      0x268 examples/light_switch/client/CMakeFiles/light_switch_client_nrf52840_xxAA_s140_6.0.0.dir/__/__/__/mesh/core/src/rand.c.obj
 .debug_line    0x00008127      0x2b8 examples/light_switch/client/CMakeFiles/light_switch_client_nrf52840_xxAA_s140_6.0.0.dir/__/__/__/mesh/core/src/mesh_opt.c.obj
 .debug_line    0x000083df      0x590 examples/light_switch/client/CMakeFiles/light_switch_client_nrf52840_xxAA_s140_6.0.0.dir/__/__/__/mesh/core/src/timeslot.c.obj
 .debug_line    0x0000896f      0x567 examples/light_switch/client/CMakeFiles/light_switch_client_nrf52840_xxAA_s140_6.0.0.dir/__/__/__/mesh/core/src/bearer_event.c.obj
 .debug_line    0x00008ed6      0x4c7 examples/light_switch/client/CMakeFiles/light_switch_client_nrf52840_xxAA_s140_6.0.0.dir/__/__/__/mesh/core/src/enc.c.obj
 .debug_line    0x0000939d      0x5dc examples/light_switch/client/CMakeFiles/light_switch_client_nrf52840_xxAA_s140_6.0.0.dir/__/__/__/mesh/core/src/network.c.obj
 .debug_line    0x00009979      0x58e examples/light_switch/client/CMakeFiles/light_switch_client_nrf52840_xxAA_s140_6.0.0.dir/__/__/__/mesh/core/src/net_packet.c.obj
 .debug_line    0x00009f07      0x332 examples/light_switch/client/CMakeFiles/light_switch_client_nrf52840_xxAA_s140_6.0.0.dir/__/__/__/mesh/core/src/msqueue.c.obj
 .debug_line    0x0000a239      0x225 examples/light_switch/client/CMakeFiles/light_switch_client_nrf52840_xxAA_s140_6.0.0.dir/__/__/__/mesh/core/src/nrf_mesh_keygen.c.obj
 .debug_line    0x0000a45e      0x2cf examples/light_switch/client/CMakeFiles/light_switch_client_nrf52840_xxAA_s140_6.0.0.dir/__/__/__/mesh/core/src/list.c.obj
 .debug_line    0x0000a72d      0x26f examples/light_switch/client/CMakeFiles/light_switch_client_nrf52840_xxAA_s140_6.0.0.dir/__/__/__/mesh/core/src/log.c.obj
 .debug_line    0x0000a99c      0x933 examples/light_switch/client/CMakeFiles/light_switch_client_nrf52840_xxAA_s140_6.0.0.dir/__/__/__/mesh/core/src/flash_manager.c.obj
 .debug_line    0x0000b2cf      0x3e2 examples/light_switch/client/CMakeFiles/light_switch_client_nrf52840_xxAA_s140_6.0.0.dir/__/__/__/mesh/core/src/ccm_soft.c.obj
 .debug_line    0x0000b6b1      0x1b9 examples/light_switch/client/CMakeFiles/light_switch_client_nrf52840_xxAA_s140_6.0.0.dir/__/__/__/mesh/core/src/replay_cache.c.obj
 .debug_line    0x0000b86a      0x4c1 examples/light_switch/client/CMakeFiles/light_switch_client_nrf52840_xxAA_s140_6.0.0.dir/__/__/__/mesh/core/src/beacon.c.obj
 .debug_line    0x0000bd2b      0x2ab examples/light_switch/client/CMakeFiles/light_switch_client_nrf52840_xxAA_s140_6.0.0.dir/__/__/__/mesh/core/src/flash_manager_internal.c.obj
 .debug_line    0x0000bfd6      0x3d8 examples/light_switch/client/CMakeFiles/light_switch_client_nrf52840_xxAA_s140_6.0.0.dir/__/__/__/mesh/core/src/core_tx.c.obj
 .debug_line    0x0000c3ae      0x6a8 examples/light_switch/client/CMakeFiles/light_switch_client_nrf52840_xxAA_s140_6.0.0.dir/__/__/__/mesh/core/src/heartbeat.c.obj
 .debug_line    0x0000ca56      0x6e0 examples/light_switch/client/CMakeFiles/light_switch_client_nrf52840_xxAA_s140_6.0.0.dir/__/__/__/mesh/core/src/net_beacon.c.obj
 .debug_line    0x0000d136      0x5fa examples/light_switch/client/CMakeFiles/light_switch_client_nrf52840_xxAA_s140_6.0.0.dir/__/__/__/mesh/core/src/mesh_config.c.obj
 .debug_line    0x0000d730      0x4b7 examples/light_switch/client/CMakeFiles/light_switch_client_nrf52840_xxAA_s140_6.0.0.dir/__/__/__/mesh/core/src/mesh_config_backend.c.obj
 .debug_line    0x0000dbe7      0x510 examples/light_switch/client/CMakeFiles/light_switch_client_nrf52840_xxAA_s140_6.0.0.dir/__/__/__/mesh/core/src/mesh_config_flashman_glue.c.obj
 .debug_line    0x0000e0f7      0x661 examples/light_switch/client/CMakeFiles/light_switch_client_nrf52840_xxAA_s140_6.0.0.dir/__/__/__/mesh/core/src/core_tx_adv.c.obj
 .debug_line    0x0000e758      0x370 examples/light_switch/client/CMakeFiles/light_switch_client_nrf52840_xxAA_s140_6.0.0.dir/__/__/__/mesh/bearer/src/ad_listener.c.obj
 .debug_line    0x0000eac8      0x41c examples/light_switch/client/CMakeFiles/light_switch_client_nrf52840_xxAA_s140_6.0.0.dir/__/__/__/mesh/bearer/src/ad_type_filter.c.obj
 .debug_line    0x0000eee4      0x71e examples/light_switch/client/CMakeFiles/light_switch_client_nrf52840_xxAA_s140_6.0.0.dir/__/__/__/mesh/bearer/src/advertiser.c.obj
 .debug_line    0x0000f602      0x5de examples/light_switch/client/CMakeFiles/light_switch_client_nrf52840_xxAA_s140_6.0.0.dir/__/__/__/mesh/bearer/src/bearer_handler.c.obj
 .debug_line    0x0000fbe0      0x3af examples/light_switch/client/CMakeFiles/light_switch_client_nrf52840_xxAA_s140_6.0.0.dir/__/__/__/mesh/bearer/src/broadcast.c.obj
 .debug_line    0x0000ff8f      0x35f examples/light_switch/client/CMakeFiles/light_switch_client_nrf52840_xxAA_s140_6.0.0.dir/__/__/__/mesh/bearer/src/filter_engine.c.obj
 .debug_line    0x000102ee      0x289 examples/light_switch/client/CMakeFiles/light_switch_client_nrf52840_xxAA_s140_6.0.0.dir/__/__/__/mesh/bearer/src/radio_config.c.obj
 .debug_line    0x00010577      0x70b examples/light_switch/client/CMakeFiles/light_switch_client_nrf52840_xxAA_s140_6.0.0.dir/__/__/__/mesh/bearer/src/scanner.c.obj
 .debug_line    0x00010c82      0x319 examples/light_switch/client/CMakeFiles/light_switch_client_nrf52840_xxAA_s140_6.0.0.dir/__/__/__/mesh/bearer/src/mesh_pa_lna.c.obj
 .debug_line    0x00010f9b      0x4ef examples/light_switch/client/CMakeFiles/light_switch_client_nrf52840_xxAA_s140_6.0.0.dir/__/__/__/models/model_spec/generic_onoff/src/generic_onoff_client.c.obj
 .debug_line    0x0001148a      0x50e examples/light_switch/client/CMakeFiles/light_switch_client_nrf52840_xxAA_s140_6.0.0.dir/__/__/__/models/model_spec/common/src/model_common.c.obj
 .debug_line    0x00011998      0x30f examples/light_switch/client/CMakeFiles/light_switch_client_nrf52840_xxAA_s140_6.0.0.dir/__/__/__/models/foundation/config/src/composition_data.c.obj
 .debug_line    0x00011ca7     0x13c7 examples/light_switch/client/CMakeFiles/light_switch_client_nrf52840_xxAA_s140_6.0.0.dir/__/__/__/models/foundation/config/src/config_server.c.obj
 .debug_line    0x0001306e       0xf0 examples/light_switch/client/CMakeFiles/light_switch_client_nrf52840_xxAA_s140_6.0.0.dir/__/__/__/models/foundation/config/src/packed_index_list.c.obj
 .debug_line    0x0001315e      0x688 examples/light_switch/client/CMakeFiles/light_switch_client_nrf52840_xxAA_s140_6.0.0.dir/__/__/__/models/foundation/health/src/health_server.c.obj
 .debug_line    0x000137e6      0x44b examples/light_switch/client/CMakeFiles/light_switch_client_nrf52840_xxAA_s140_6.0.0.dir/__/__/__/mesh/access/src/access_publish.c.obj
 .debug_line    0x00013c31      0xfe2 examples/light_switch/client/CMakeFiles/light_switch_client_nrf52840_xxAA_s140_6.0.0.dir/__/__/__/mesh/access/src/access.c.obj
 .debug_line    0x00014c13      0x56d examples/light_switch/client/CMakeFiles/light_switch_client_nrf52840_xxAA_s140_6.0.0.dir/__/__/__/mesh/access/src/access_reliable.c.obj
 .debug_line    0x00015180      0x3a1 examples/light_switch/client/CMakeFiles/light_switch_client_nrf52840_xxAA_s140_6.0.0.dir/__/__/__/mesh/access/src/access_loopback.c.obj
 .debug_line    0x00015521     0x145a examples/light_switch/client/CMakeFiles/light_switch_client_nrf52840_xxAA_s140_6.0.0.dir/__/__/__/mesh/access/src/device_state_manager.c.obj
 .debug_line    0x0001697b      0x6a3 examples/light_switch/client/CMakeFiles/light_switch_client_nrf52840_xxAA_s140_6.0.0.dir/__/__/__/mesh/prov/src/prov_provisionee.c.obj
 .debug_line    0x0001701e      0x58e examples/light_switch/client/CMakeFiles/light_switch_client_nrf52840_xxAA_s140_6.0.0.dir/__/__/__/mesh/prov/src/nrf_mesh_prov.c.obj
 .debug_line    0x000175ac      0x3eb examples/light_switch/client/CMakeFiles/light_switch_client_nrf52840_xxAA_s140_6.0.0.dir/__/__/__/mesh/prov/src/provisioning.c.obj
 .debug_line    0x00017997      0x49a examples/light_switch/client/CMakeFiles/light_switch_client_nrf52840_xxAA_s140_6.0.0.dir/__/__/__/mesh/prov/src/prov_beacon.c.obj
 .debug_line    0x00017e31      0x53f examples/light_switch/client/CMakeFiles/light_switch_client_nrf52840_xxAA_s140_6.0.0.dir/__/__/__/mesh/prov/src/prov_utils.c.obj
 .debug_line    0x00018370      0xb46 examples/light_switch/client/CMakeFiles/light_switch_client_nrf52840_xxAA_s140_6.0.0.dir/__/__/__/mesh/prov/src/prov_bearer_adv.c.obj
 .debug_line    0x00018eb6      0x1fb examples/light_switch/client/CMakeFiles/light_switch_client_nrf52840_xxAA_s140_6.0.0.dir/C_/sdks/nRF5_SDK_15.0.0_a53641a/modules/nrfx/mdk/system_nrf52840.c.obj
 .debug_line    0x000190b1      0x25d examples/light_switch/client/CMakeFiles/light_switch_client_nrf52840_xxAA_s140_6.0.0.dir/C_/sdks/nRF5_SDK_15.0.0_a53641a/components/libraries/util/app_error.c.obj
 .debug_line    0x0001930e      0x337 examples/light_switch/client/CMakeFiles/light_switch_client_nrf52840_xxAA_s140_6.0.0.dir/C_/sdks/nRF5_SDK_15.0.0_a53641a/components/libraries/util/app_util_platform.c.obj
 .debug_line    0x00019645      0x6b9 examples/light_switch/client/CMakeFiles/light_switch_client_nrf52840_xxAA_s140_6.0.0.dir/C_/sdks/nRF5_SDK_15.0.0_a53641a/components/libraries/timer/app_timer.c.obj
 .debug_line    0x00019cfe      0x202 examples/light_switch/client/CMakeFiles/light_switch_client_nrf52840_xxAA_s140_6.0.0.dir/C_/sdks/nRF5_SDK_15.0.0_a53641a/components/libraries/util/app_error_handler_gcc.c.obj
 .debug_line    0x00019f00      0x4b4 external/rtt/librtt_nrf52840_xxAA.a(SEGGER_RTT.c.obj)
 .debug_line    0x0001a3b4      0x276 external/rtt/librtt_nrf52840_xxAA.a(SEGGER_RTT_printf.c.obj)
 .debug_line    0x0001a62a      0x9f3 external/micro-ecc/libuECC_nrf52840_xxAA.a(uECC.c.obj)

.debug_str      0x00000000    0x15b12
 .debug_str     0x00000000     0x25c6 examples/light_switch/client/CMakeFiles/light_switch_client_nrf52840_xxAA_s140_6.0.0.dir/src/main.c.obj
                               0x2a3d (size before relaxing)
 .debug_str     0x000025c6     0x10a1 examples/light_switch/client/CMakeFiles/light_switch_client_nrf52840_xxAA_s140_6.0.0.dir/__/__/__/mesh/stack/src/mesh_stack.c.obj
                               0x29f2 (size before relaxing)
 .debug_str     0x00003667      0x6b8 examples/light_switch/client/CMakeFiles/light_switch_client_nrf52840_xxAA_s140_6.0.0.dir/__/__/common/src/mesh_softdevice_init.c.obj
                               0x1632 (size before relaxing)
 .debug_str     0x00003d1f     0x1a7d examples/light_switch/client/CMakeFiles/light_switch_client_nrf52840_xxAA_s140_6.0.0.dir/__/__/common/src/mesh_provisionee.c.obj
                               0x2713 (size before relaxing)
 .debug_str     0x0000579c      0x1bf examples/light_switch/client/CMakeFiles/light_switch_client_nrf52840_xxAA_s140_6.0.0.dir/__/__/common/src/rtt_input.c.obj
                                0x86a (size before relaxing)
 .debug_str     0x0000595b      0x1de examples/light_switch/client/CMakeFiles/light_switch_client_nrf52840_xxAA_s140_6.0.0.dir/__/__/common/src/simple_hal.c.obj
                                0xdd0 (size before relaxing)
 .debug_str     0x00005b39      0x189 examples/light_switch/client/CMakeFiles/light_switch_client_nrf52840_xxAA_s140_6.0.0.dir/__/__/common/src/mesh_app_utils.c.obj
                                0x7b9 (size before relaxing)
 .debug_str     0x00005cc2       0x3c examples/light_switch/client/CMakeFiles/light_switch_client_nrf52840_xxAA_s140_6.0.0.dir/__/__/nrf_mesh_weak.c.obj
                                0x649 (size before relaxing)
 .debug_str     0x00005cfe       0xa0 examples/light_switch/client/CMakeFiles/light_switch_client_nrf52840_xxAA_s140_6.0.0.dir/__/__/common/src/app_error_weak.c.obj
                                0x85d (size before relaxing)
 .debug_str     0x00005d9e       0x30 examples/light_switch/client/CMakeFiles/light_switch_client_nrf52840_xxAA_s140_6.0.0.dir/__/__/common/src/assertion_handler_weak.c.obj
                                0x672 (size before relaxing)
 .debug_str     0x00005dce       0x75 examples/light_switch/client/CMakeFiles/light_switch_client_nrf52840_xxAA_s140_6.0.0.dir/__/__/__/mesh/core/src/nrf_mesh_configure.c.obj
                                0x7ed (size before relaxing)
 .debug_str     0x00005e43       0xbb examples/light_switch/client/CMakeFiles/light_switch_client_nrf52840_xxAA_s140_6.0.0.dir/__/__/__/mesh/core/src/msg_cache.c.obj
                                0x6e6 (size before relaxing)
 .debug_str     0x00005efe     0x15ce examples/light_switch/client/CMakeFiles/light_switch_client_nrf52840_xxAA_s140_6.0.0.dir/__/__/__/mesh/core/src/transport.c.obj
                               0x3293 (size before relaxing)
 .debug_str     0x000074cc      0x106 examples/light_switch/client/CMakeFiles/light_switch_client_nrf52840_xxAA_s140_6.0.0.dir/__/__/__/mesh/core/src/event.c.obj
                               0x193f (size before relaxing)
 .debug_str     0x000075d2      0x30d examples/light_switch/client/CMakeFiles/light_switch_client_nrf52840_xxAA_s140_6.0.0.dir/__/__/__/mesh/core/src/packet_buffer.c.obj
                                0xb48 (size before relaxing)
 .debug_str     0x000078df      0x914 examples/light_switch/client/CMakeFiles/light_switch_client_nrf52840_xxAA_s140_6.0.0.dir/__/__/__/mesh/core/src/flash_manager_defrag.c.obj
                               0x11ba (size before relaxing)
 .debug_str     0x000081f3       0xa5 examples/light_switch/client/CMakeFiles/light_switch_client_nrf52840_xxAA_s140_6.0.0.dir/__/__/__/mesh/core/src/fifo.c.obj
                                0x6db (size before relaxing)
 .debug_str     0x00008298       0xd9 examples/light_switch/client/CMakeFiles/light_switch_client_nrf52840_xxAA_s140_6.0.0.dir/__/__/__/mesh/core/src/nrf_flash.c.obj
                                0x721 (size before relaxing)
 .debug_str     0x00008371      0x287 examples/light_switch/client/CMakeFiles/light_switch_client_nrf52840_xxAA_s140_6.0.0.dir/__/__/__/mesh/core/src/packet_mgr.c.obj
                                0x9d2 (size before relaxing)
 .debug_str     0x000085f8      0x582 examples/light_switch/client/CMakeFiles/light_switch_client_nrf52840_xxAA_s140_6.0.0.dir/__/__/__/mesh/core/src/net_state.c.obj
                               0x22e9 (size before relaxing)
 .debug_str     0x00008b7a      0x387 examples/light_switch/client/CMakeFiles/light_switch_client_nrf52840_xxAA_s140_6.0.0.dir/__/__/__/mesh/core/src/mesh_flash.c.obj
                                0xd36 (size before relaxing)
 .debug_str     0x00008f01       0x9b examples/light_switch/client/CMakeFiles/light_switch_client_nrf52840_xxAA_s140_6.0.0.dir/__/__/__/mesh/core/src/nrf_mesh_utils.c.obj
                                0x77e (size before relaxing)
 .debug_str     0x00008f9c      0x60c examples/light_switch/client/CMakeFiles/light_switch_client_nrf52840_xxAA_s140_6.0.0.dir/__/__/__/mesh/core/src/nrf_mesh.c.obj
                               0x22fe (size before relaxing)
 .debug_str     0x000095a8       0x53 examples/light_switch/client/CMakeFiles/light_switch_client_nrf52840_xxAA_s140_6.0.0.dir/__/__/__/mesh/core/src/queue.c.obj
                                0x6b0 (size before relaxing)
 .debug_str     0x000095fb       0xac examples/light_switch/client/CMakeFiles/light_switch_client_nrf52840_xxAA_s140_6.0.0.dir/__/__/__/mesh/core/src/hal.c.obj
                                0xb08 (size before relaxing)
 .debug_str     0x000096a7      0x16e examples/light_switch/client/CMakeFiles/light_switch_client_nrf52840_xxAA_s140_6.0.0.dir/__/__/__/mesh/core/src/aes_cmac.c.obj
                                0xc3c (size before relaxing)
 .debug_str     0x00009815      0x13b examples/light_switch/client/CMakeFiles/light_switch_client_nrf52840_xxAA_s140_6.0.0.dir/__/__/__/mesh/core/src/timer_scheduler.c.obj
                                0x8ad (size before relaxing)
 .debug_str     0x00009950      0x216 examples/light_switch/client/CMakeFiles/light_switch_client_nrf52840_xxAA_s140_6.0.0.dir/__/__/__/mesh/core/src/timer.c.obj
                                0x8ae (size before relaxing)
 .debug_str     0x00009b66       0xac examples/light_switch/client/CMakeFiles/light_switch_client_nrf52840_xxAA_s140_6.0.0.dir/__/__/__/mesh/core/src/rand.c.obj
                                0x76e (size before relaxing)
 .debug_str     0x00009c12      0x165 examples/light_switch/client/CMakeFiles/light_switch_client_nrf52840_xxAA_s140_6.0.0.dir/__/__/__/mesh/core/src/mesh_opt.c.obj
                                0xac2 (size before relaxing)
 .debug_str     0x00009d77      0x8fe examples/light_switch/client/CMakeFiles/light_switch_client_nrf52840_xxAA_s140_6.0.0.dir/__/__/__/mesh/core/src/timeslot.c.obj
                               0x194c (size before relaxing)
 .debug_str     0x0000a675      0x2a7 examples/light_switch/client/CMakeFiles/light_switch_client_nrf52840_xxAA_s140_6.0.0.dir/__/__/__/mesh/core/src/bearer_event.c.obj
                                0xf47 (size before relaxing)
 .debug_str     0x0000a91c      0x169 examples/light_switch/client/CMakeFiles/light_switch_client_nrf52840_xxAA_s140_6.0.0.dir/__/__/__/mesh/core/src/enc.c.obj
                                0xf13 (size before relaxing)
 .debug_str     0x0000aa85      0x336 examples/light_switch/client/CMakeFiles/light_switch_client_nrf52840_xxAA_s140_6.0.0.dir/__/__/__/mesh/core/src/network.c.obj
                               0x165c (size before relaxing)
 .debug_str     0x0000adbb      0x30f examples/light_switch/client/CMakeFiles/light_switch_client_nrf52840_xxAA_s140_6.0.0.dir/__/__/__/mesh/core/src/net_packet.c.obj
                                0xeb3 (size before relaxing)
 .debug_str     0x0000b0ca       0x53 examples/light_switch/client/CMakeFiles/light_switch_client_nrf52840_xxAA_s140_6.0.0.dir/__/__/__/mesh/core/src/msqueue.c.obj
                                0x6ec (size before relaxing)
 .debug_str     0x0000b11d       0xc8 examples/light_switch/client/CMakeFiles/light_switch_client_nrf52840_xxAA_s140_6.0.0.dir/__/__/__/mesh/core/src/nrf_mesh_keygen.c.obj
                                0x397 (size before relaxing)
 .debug_str     0x0000b1e5       0x6a examples/light_switch/client/CMakeFiles/light_switch_client_nrf52840_xxAA_s140_6.0.0.dir/__/__/__/mesh/core/src/list.c.obj
                                0x2be (size before relaxing)
 .debug_str     0x0000b24f       0xf7 examples/light_switch/client/CMakeFiles/light_switch_client_nrf52840_xxAA_s140_6.0.0.dir/__/__/__/mesh/core/src/log.c.obj
                                0x7d0 (size before relaxing)
 .debug_str     0x0000b346      0x566 examples/light_switch/client/CMakeFiles/light_switch_client_nrf52840_xxAA_s140_6.0.0.dir/__/__/__/mesh/core/src/flash_manager.c.obj
                               0x15a5 (size before relaxing)
 .debug_str     0x0000b8ac       0xd2 examples/light_switch/client/CMakeFiles/light_switch_client_nrf52840_xxAA_s140_6.0.0.dir/__/__/__/mesh/core/src/ccm_soft.c.obj
                                0xd1c (size before relaxing)
 .debug_str     0x0000b97e       0x92 examples/light_switch/client/CMakeFiles/light_switch_client_nrf52840_xxAA_s140_6.0.0.dir/__/__/__/mesh/core/src/replay_cache.c.obj
                                0x68d (size before relaxing)
 .debug_str     0x0000ba10       0xd4 examples/light_switch/client/CMakeFiles/light_switch_client_nrf52840_xxAA_s140_6.0.0.dir/__/__/__/mesh/core/src/beacon.c.obj
                               0x116a (size before relaxing)
 .debug_str     0x0000bae4       0x38 examples/light_switch/client/CMakeFiles/light_switch_client_nrf52840_xxAA_s140_6.0.0.dir/__/__/__/mesh/core/src/flash_manager_internal.c.obj
                                0x7d1 (size before relaxing)
 .debug_str     0x0000bb1c      0x2be examples/light_switch/client/CMakeFiles/light_switch_client_nrf52840_xxAA_s140_6.0.0.dir/__/__/__/mesh/core/src/core_tx.c.obj
                                0xc1c (size before relaxing)
 .debug_str     0x0000bdda      0x645 examples/light_switch/client/CMakeFiles/light_switch_client_nrf52840_xxAA_s140_6.0.0.dir/__/__/__/mesh/core/src/heartbeat.c.obj
                               0x255c (size before relaxing)
 .debug_str     0x0000c41f      0x2b2 examples/light_switch/client/CMakeFiles/light_switch_client_nrf52840_xxAA_s140_6.0.0.dir/__/__/__/mesh/core/src/net_beacon.c.obj
                               0x25cd (size before relaxing)
 .debug_str     0x0000c6d1      0x467 examples/light_switch/client/CMakeFiles/light_switch_client_nrf52840_xxAA_s140_6.0.0.dir/__/__/__/mesh/core/src/mesh_config.c.obj
                               0x2293 (size before relaxing)
 .debug_str     0x0000cb38      0x23f examples/light_switch/client/CMakeFiles/light_switch_client_nrf52840_xxAA_s140_6.0.0.dir/__/__/__/mesh/core/src/mesh_config_backend.c.obj
                               0x1047 (size before relaxing)
 .debug_str     0x0000cd77       0xa0 examples/light_switch/client/CMakeFiles/light_switch_client_nrf52840_xxAA_s140_6.0.0.dir/__/__/__/mesh/core/src/mesh_config_flashman_glue.c.obj
                               0x203a (size before relaxing)
 .debug_str     0x0000ce17      0x393 examples/light_switch/client/CMakeFiles/light_switch_client_nrf52840_xxAA_s140_6.0.0.dir/__/__/__/mesh/core/src/core_tx_adv.c.obj
                               0x1920 (size before relaxing)
 .debug_str     0x0000d1aa      0x185 examples/light_switch/client/CMakeFiles/light_switch_client_nrf52840_xxAA_s140_6.0.0.dir/__/__/__/mesh/bearer/src/ad_listener.c.obj
                                0xc0e (size before relaxing)
 .debug_str     0x0000d32f      0x162 examples/light_switch/client/CMakeFiles/light_switch_client_nrf52840_xxAA_s140_6.0.0.dir/__/__/__/mesh/bearer/src/ad_type_filter.c.obj
                                0x9cc (size before relaxing)
 .debug_str     0x0000d491      0x2ef examples/light_switch/client/CMakeFiles/light_switch_client_nrf52840_xxAA_s140_6.0.0.dir/__/__/__/mesh/bearer/src/advertiser.c.obj
                               0x15e0 (size before relaxing)
 .debug_str     0x0000d780      0x4e3 examples/light_switch/client/CMakeFiles/light_switch_client_nrf52840_xxAA_s140_6.0.0.dir/__/__/__/mesh/bearer/src/bearer_handler.c.obj
                               0x132a (size before relaxing)
 .debug_str     0x0000dc63      0x219 examples/light_switch/client/CMakeFiles/light_switch_client_nrf52840_xxAA_s140_6.0.0.dir/__/__/__/mesh/bearer/src/broadcast.c.obj
                               0x1189 (size before relaxing)
 .debug_str     0x0000de7c       0x72 examples/light_switch/client/CMakeFiles/light_switch_client_nrf52840_xxAA_s140_6.0.0.dir/__/__/__/mesh/bearer/src/filter_engine.c.obj
                                0x839 (size before relaxing)
 .debug_str     0x0000deee       0x79 examples/light_switch/client/CMakeFiles/light_switch_client_nrf52840_xxAA_s140_6.0.0.dir/__/__/__/mesh/bearer/src/radio_config.c.obj
                                0x928 (size before relaxing)
 .debug_str     0x0000df67      0x49c examples/light_switch/client/CMakeFiles/light_switch_client_nrf52840_xxAA_s140_6.0.0.dir/__/__/__/mesh/bearer/src/scanner.c.obj
                               0x1b43 (size before relaxing)
 .debug_str     0x0000e403      0x15f examples/light_switch/client/CMakeFiles/light_switch_client_nrf52840_xxAA_s140_6.0.0.dir/__/__/__/mesh/bearer/src/mesh_pa_lna.c.obj
                                0x922 (size before relaxing)
 .debug_str     0x0000e562      0x35c examples/light_switch/client/CMakeFiles/light_switch_client_nrf52840_xxAA_s140_6.0.0.dir/__/__/__/models/model_spec/generic_onoff/src/generic_onoff_client.c.obj
                               0x119c (size before relaxing)
 .debug_str     0x0000e8be      0x28e examples/light_switch/client/CMakeFiles/light_switch_client_nrf52840_xxAA_s140_6.0.0.dir/__/__/__/models/model_spec/common/src/model_common.c.obj
                                0xe47 (size before relaxing)
 .debug_str     0x0000eb4c      0x236 examples/light_switch/client/CMakeFiles/light_switch_client_nrf52840_xxAA_s140_6.0.0.dir/__/__/__/models/foundation/config/src/composition_data.c.obj
                                0x8e8 (size before relaxing)
 .debug_str     0x0000ed82     0x2690 examples/light_switch/client/CMakeFiles/light_switch_client_nrf52840_xxAA_s140_6.0.0.dir/__/__/__/models/foundation/config/src/config_server.c.obj
                               0x51aa (size before relaxing)
 .debug_str     0x00011412       0x74 examples/light_switch/client/CMakeFiles/light_switch_client_nrf52840_xxAA_s140_6.0.0.dir/__/__/__/models/foundation/config/src/packed_index_list.c.obj
                                0x258 (size before relaxing)
 .debug_str     0x00011486      0x60a examples/light_switch/client/CMakeFiles/light_switch_client_nrf52840_xxAA_s140_6.0.0.dir/__/__/__/models/foundation/health/src/health_server.c.obj
                               0x1659 (size before relaxing)
 .debug_str     0x00011a90      0x25c examples/light_switch/client/CMakeFiles/light_switch_client_nrf52840_xxAA_s140_6.0.0.dir/__/__/__/mesh/access/src/access_publish.c.obj
                                0xb8e (size before relaxing)
 .debug_str     0x00011cec      0x8cf examples/light_switch/client/CMakeFiles/light_switch_client_nrf52840_xxAA_s140_6.0.0.dir/__/__/__/mesh/access/src/access.c.obj
                               0x322a (size before relaxing)
 .debug_str     0x000125bb      0x10b examples/light_switch/client/CMakeFiles/light_switch_client_nrf52840_xxAA_s140_6.0.0.dir/__/__/__/mesh/access/src/access_reliable.c.obj
                                0xf9c (size before relaxing)
 .debug_str     0x000126c6       0x87 examples/light_switch/client/CMakeFiles/light_switch_client_nrf52840_xxAA_s140_6.0.0.dir/__/__/__/mesh/access/src/access_loopback.c.obj
                                0xbb5 (size before relaxing)
 .debug_str     0x0001274d      0xcf4 examples/light_switch/client/CMakeFiles/light_switch_client_nrf52840_xxAA_s140_6.0.0.dir/__/__/__/mesh/access/src/device_state_manager.c.obj
                               0x3442 (size before relaxing)
 .debug_str     0x00013441      0x613 examples/light_switch/client/CMakeFiles/light_switch_client_nrf52840_xxAA_s140_6.0.0.dir/__/__/__/mesh/prov/src/prov_provisionee.c.obj
                               0x2312 (size before relaxing)
 .debug_str     0x00013a54      0x22d examples/light_switch/client/CMakeFiles/light_switch_client_nrf52840_xxAA_s140_6.0.0.dir/__/__/__/mesh/prov/src/nrf_mesh_prov.c.obj
                               0x1ec5 (size before relaxing)
 .debug_str     0x00013c81       0xc8 examples/light_switch/client/CMakeFiles/light_switch_client_nrf52840_xxAA_s140_6.0.0.dir/__/__/__/mesh/prov/src/provisioning.c.obj
                                0xf56 (size before relaxing)
 .debug_str     0x00013d49       0xb1 examples/light_switch/client/CMakeFiles/light_switch_client_nrf52840_xxAA_s140_6.0.0.dir/__/__/__/mesh/prov/src/prov_beacon.c.obj
                               0x1a8b (size before relaxing)
 .debug_str     0x00013dfa      0x27f examples/light_switch/client/CMakeFiles/light_switch_client_nrf52840_xxAA_s140_6.0.0.dir/__/__/__/mesh/prov/src/prov_utils.c.obj
                               0x22a7 (size before relaxing)
 .debug_str     0x00014079      0x40b examples/light_switch/client/CMakeFiles/light_switch_client_nrf52840_xxAA_s140_6.0.0.dir/__/__/__/mesh/prov/src/prov_bearer_adv.c.obj
                               0x1c27 (size before relaxing)
 .debug_str     0x00014484      0x3be examples/light_switch/client/CMakeFiles/light_switch_client_nrf52840_xxAA_s140_6.0.0.dir/C_/sdks/nRF5_SDK_15.0.0_a53641a/modules/nrfx/mdk/system_nrf52840.c.obj
                                0x914 (size before relaxing)
 .debug_str     0x00014842       0x9f examples/light_switch/client/CMakeFiles/light_switch_client_nrf52840_xxAA_s140_6.0.0.dir/C_/sdks/nRF5_SDK_15.0.0_a53641a/components/libraries/util/app_error.c.obj
                                0x727 (size before relaxing)
 .debug_str     0x000148e1      0x1e5 examples/light_switch/client/CMakeFiles/light_switch_client_nrf52840_xxAA_s140_6.0.0.dir/C_/sdks/nRF5_SDK_15.0.0_a53641a/components/libraries/util/app_util_platform.c.obj
                                0xc90 (size before relaxing)
 .debug_str     0x00014ac6      0x5cb examples/light_switch/client/CMakeFiles/light_switch_client_nrf52840_xxAA_s140_6.0.0.dir/C_/sdks/nRF5_SDK_15.0.0_a53641a/components/libraries/timer/app_timer.c.obj
                               0x1298 (size before relaxing)
 .debug_str     0x00015091       0x52 examples/light_switch/client/CMakeFiles/light_switch_client_nrf52840_xxAA_s140_6.0.0.dir/C_/sdks/nRF5_SDK_15.0.0_a53641a/components/libraries/util/app_error_handler_gcc.c.obj
                                0x68c (size before relaxing)
 .debug_str     0x000150e3      0x2bf external/rtt/librtt_nrf52840_xxAA.a(SEGGER_RTT.c.obj)
                                0x922 (size before relaxing)
 .debug_str     0x000153a2       0xdf external/rtt/librtt_nrf52840_xxAA.a(SEGGER_RTT_printf.c.obj)
                                0x792 (size before relaxing)
 .debug_str     0x00015481      0x691 external/micro-ecc/libuECC_nrf52840_xxAA.a(uECC.c.obj)
                                0x880 (size before relaxing)

.debug_frame    0x00000000     0x789c
 .debug_frame   0x00000000      0x150 examples/light_switch/client/CMakeFiles/light_switch_client_nrf52840_xxAA_s140_6.0.0.dir/src/main.c.obj
 .debug_frame   0x00000150       0xec examples/light_switch/client/CMakeFiles/light_switch_client_nrf52840_xxAA_s140_6.0.0.dir/__/__/__/mesh/stack/src/mesh_stack.c.obj
 .debug_frame   0x0000023c       0x90 examples/light_switch/client/CMakeFiles/light_switch_client_nrf52840_xxAA_s140_6.0.0.dir/__/__/common/src/mesh_softdevice_init.c.obj
 .debug_frame   0x000002cc       0x80 examples/light_switch/client/CMakeFiles/light_switch_client_nrf52840_xxAA_s140_6.0.0.dir/__/__/common/src/mesh_provisionee.c.obj
 .debug_frame   0x0000034c       0x60 examples/light_switch/client/CMakeFiles/light_switch_client_nrf52840_xxAA_s140_6.0.0.dir/__/__/common/src/rtt_input.c.obj
 .debug_frame   0x000003ac       0xc8 examples/light_switch/client/CMakeFiles/light_switch_client_nrf52840_xxAA_s140_6.0.0.dir/__/__/common/src/simple_hal.c.obj
 .debug_frame   0x00000474       0x2c examples/light_switch/client/CMakeFiles/light_switch_client_nrf52840_xxAA_s140_6.0.0.dir/__/__/common/src/mesh_app_utils.c.obj
 .debug_frame   0x000004a0       0x30 examples/light_switch/client/CMakeFiles/light_switch_client_nrf52840_xxAA_s140_6.0.0.dir/__/__/nrf_mesh_weak.c.obj
 .debug_frame   0x000004d0       0x34 examples/light_switch/client/CMakeFiles/light_switch_client_nrf52840_xxAA_s140_6.0.0.dir/__/__/common/src/app_error_weak.c.obj
 .debug_frame   0x00000504       0x28 examples/light_switch/client/CMakeFiles/light_switch_client_nrf52840_xxAA_s140_6.0.0.dir/__/__/common/src/assertion_handler_weak.c.obj
 .debug_frame   0x0000052c       0x4c examples/light_switch/client/CMakeFiles/light_switch_client_nrf52840_xxAA_s140_6.0.0.dir/__/__/__/mesh/core/src/nrf_mesh_configure.c.obj
 .debug_frame   0x00000578       0x6c examples/light_switch/client/CMakeFiles/light_switch_client_nrf52840_xxAA_s140_6.0.0.dir/__/__/__/mesh/core/src/msg_cache.c.obj
 .debug_frame   0x000005e4      0x3fc examples/light_switch/client/CMakeFiles/light_switch_client_nrf52840_xxAA_s140_6.0.0.dir/__/__/__/mesh/core/src/transport.c.obj
 .debug_frame   0x000009e0       0x68 examples/light_switch/client/CMakeFiles/light_switch_client_nrf52840_xxAA_s140_6.0.0.dir/__/__/__/mesh/core/src/event.c.obj
 .debug_frame   0x00000a48      0x12c examples/light_switch/client/CMakeFiles/light_switch_client_nrf52840_xxAA_s140_6.0.0.dir/__/__/__/mesh/core/src/packet_buffer.c.obj
 .debug_frame   0x00000b74      0x24c examples/light_switch/client/CMakeFiles/light_switch_client_nrf52840_xxAA_s140_6.0.0.dir/__/__/__/mesh/core/src/flash_manager_defrag.c.obj
 .debug_frame   0x00000dc0       0xd0 examples/light_switch/client/CMakeFiles/light_switch_client_nrf52840_xxAA_s140_6.0.0.dir/__/__/__/mesh/core/src/fifo.c.obj
 .debug_frame   0x00000e90       0x54 examples/light_switch/client/CMakeFiles/light_switch_client_nrf52840_xxAA_s140_6.0.0.dir/__/__/__/mesh/core/src/nrf_flash.c.obj
 .debug_frame   0x00000ee4       0xa0 examples/light_switch/client/CMakeFiles/light_switch_client_nrf52840_xxAA_s140_6.0.0.dir/__/__/__/mesh/core/src/packet_mgr.c.obj
 .debug_frame   0x00000f84      0x2b0 examples/light_switch/client/CMakeFiles/light_switch_client_nrf52840_xxAA_s140_6.0.0.dir/__/__/__/mesh/core/src/net_state.c.obj
 .debug_frame   0x00001234      0x150 examples/light_switch/client/CMakeFiles/light_switch_client_nrf52840_xxAA_s140_6.0.0.dir/__/__/__/mesh/core/src/mesh_flash.c.obj
 .debug_frame   0x00001384       0x50 examples/light_switch/client/CMakeFiles/light_switch_client_nrf52840_xxAA_s140_6.0.0.dir/__/__/__/mesh/core/src/nrf_mesh_utils.c.obj
 .debug_frame   0x000013d4      0x188 examples/light_switch/client/CMakeFiles/light_switch_client_nrf52840_xxAA_s140_6.0.0.dir/__/__/__/mesh/core/src/nrf_mesh.c.obj
 .debug_frame   0x0000155c       0x74 examples/light_switch/client/CMakeFiles/light_switch_client_nrf52840_xxAA_s140_6.0.0.dir/__/__/__/mesh/core/src/queue.c.obj
 .debug_frame   0x000015d0       0x68 examples/light_switch/client/CMakeFiles/light_switch_client_nrf52840_xxAA_s140_6.0.0.dir/__/__/__/mesh/core/src/hal.c.obj
 .debug_frame   0x00001638       0x6c examples/light_switch/client/CMakeFiles/light_switch_client_nrf52840_xxAA_s140_6.0.0.dir/__/__/__/mesh/core/src/aes_cmac.c.obj
 .debug_frame   0x000016a4      0x110 examples/light_switch/client/CMakeFiles/light_switch_client_nrf52840_xxAA_s140_6.0.0.dir/__/__/__/mesh/core/src/timer_scheduler.c.obj
 .debug_frame   0x000017b4      0x10c examples/light_switch/client/CMakeFiles/light_switch_client_nrf52840_xxAA_s140_6.0.0.dir/__/__/__/mesh/core/src/timer.c.obj
 .debug_frame   0x000018c0       0x84 examples/light_switch/client/CMakeFiles/light_switch_client_nrf52840_xxAA_s140_6.0.0.dir/__/__/__/mesh/core/src/rand.c.obj
 .debug_frame   0x00001944       0x20 examples/light_switch/client/CMakeFiles/light_switch_client_nrf52840_xxAA_s140_6.0.0.dir/__/__/__/mesh/core/src/mesh_opt.c.obj
 .debug_frame   0x00001964      0x1a0 examples/light_switch/client/CMakeFiles/light_switch_client_nrf52840_xxAA_s140_6.0.0.dir/__/__/__/mesh/core/src/timeslot.c.obj
 .debug_frame   0x00001b04      0x1c0 examples/light_switch/client/CMakeFiles/light_switch_client_nrf52840_xxAA_s140_6.0.0.dir/__/__/__/mesh/core/src/bearer_event.c.obj
 .debug_frame   0x00001cc4      0x15c examples/light_switch/client/CMakeFiles/light_switch_client_nrf52840_xxAA_s140_6.0.0.dir/__/__/__/mesh/core/src/enc.c.obj
 .debug_frame   0x00001e20      0x128 examples/light_switch/client/CMakeFiles/light_switch_client_nrf52840_xxAA_s140_6.0.0.dir/__/__/__/mesh/core/src/network.c.obj
 .debug_frame   0x00001f48      0x114 examples/light_switch/client/CMakeFiles/light_switch_client_nrf52840_xxAA_s140_6.0.0.dir/__/__/__/mesh/core/src/net_packet.c.obj
 .debug_frame   0x0000205c       0xb4 examples/light_switch/client/CMakeFiles/light_switch_client_nrf52840_xxAA_s140_6.0.0.dir/__/__/__/mesh/core/src/msqueue.c.obj
 .debug_frame   0x00002110       0xb4 examples/light_switch/client/CMakeFiles/light_switch_client_nrf52840_xxAA_s140_6.0.0.dir/__/__/__/mesh/core/src/nrf_mesh_keygen.c.obj
 .debug_frame   0x000021c4       0xc8 examples/light_switch/client/CMakeFiles/light_switch_client_nrf52840_xxAA_s140_6.0.0.dir/__/__/__/mesh/core/src/list.c.obj
 .debug_frame   0x0000228c       0xb0 examples/light_switch/client/CMakeFiles/light_switch_client_nrf52840_xxAA_s140_6.0.0.dir/__/__/__/mesh/core/src/log.c.obj
 .debug_frame   0x0000233c      0x320 examples/light_switch/client/CMakeFiles/light_switch_client_nrf52840_xxAA_s140_6.0.0.dir/__/__/__/mesh/core/src/flash_manager.c.obj
 .debug_frame   0x0000265c       0xf4 examples/light_switch/client/CMakeFiles/light_switch_client_nrf52840_xxAA_s140_6.0.0.dir/__/__/__/mesh/core/src/ccm_soft.c.obj
 .debug_frame   0x00002750       0x80 examples/light_switch/client/CMakeFiles/light_switch_client_nrf52840_xxAA_s140_6.0.0.dir/__/__/__/mesh/core/src/replay_cache.c.obj
 .debug_frame   0x000027d0       0x60 examples/light_switch/client/CMakeFiles/light_switch_client_nrf52840_xxAA_s140_6.0.0.dir/__/__/__/mesh/core/src/beacon.c.obj
 .debug_frame   0x00002830       0x34 examples/light_switch/client/CMakeFiles/light_switch_client_nrf52840_xxAA_s140_6.0.0.dir/__/__/__/mesh/core/src/flash_manager_internal.c.obj
 .debug_frame   0x00002864       0xf0 examples/light_switch/client/CMakeFiles/light_switch_client_nrf52840_xxAA_s140_6.0.0.dir/__/__/__/mesh/core/src/core_tx.c.obj
 .debug_frame   0x00002954      0x1b8 examples/light_switch/client/CMakeFiles/light_switch_client_nrf52840_xxAA_s140_6.0.0.dir/__/__/__/mesh/core/src/heartbeat.c.obj
 .debug_frame   0x00002b0c      0x190 examples/light_switch/client/CMakeFiles/light_switch_client_nrf52840_xxAA_s140_6.0.0.dir/__/__/__/mesh/core/src/net_beacon.c.obj
 .debug_frame   0x00002c9c      0x1d0 examples/light_switch/client/CMakeFiles/light_switch_client_nrf52840_xxAA_s140_6.0.0.dir/__/__/__/mesh/core/src/mesh_config.c.obj
 .debug_frame   0x00002e6c      0x110 examples/light_switch/client/CMakeFiles/light_switch_client_nrf52840_xxAA_s140_6.0.0.dir/__/__/__/mesh/core/src/mesh_config_backend.c.obj
 .debug_frame   0x00002f7c      0x164 examples/light_switch/client/CMakeFiles/light_switch_client_nrf52840_xxAA_s140_6.0.0.dir/__/__/__/mesh/core/src/mesh_config_flashman_glue.c.obj
 .debug_frame   0x000030e0      0x200 examples/light_switch/client/CMakeFiles/light_switch_client_nrf52840_xxAA_s140_6.0.0.dir/__/__/__/mesh/core/src/core_tx_adv.c.obj
 .debug_frame   0x000032e0       0x6c examples/light_switch/client/CMakeFiles/light_switch_client_nrf52840_xxAA_s140_6.0.0.dir/__/__/__/mesh/bearer/src/ad_listener.c.obj
 .debug_frame   0x0000334c       0xa8 examples/light_switch/client/CMakeFiles/light_switch_client_nrf52840_xxAA_s140_6.0.0.dir/__/__/__/mesh/bearer/src/ad_type_filter.c.obj
 .debug_frame   0x000033f4      0x284 examples/light_switch/client/CMakeFiles/light_switch_client_nrf52840_xxAA_s140_6.0.0.dir/__/__/__/mesh/bearer/src/advertiser.c.obj
 .debug_frame   0x00003678      0x1c8 examples/light_switch/client/CMakeFiles/light_switch_client_nrf52840_xxAA_s140_6.0.0.dir/__/__/__/mesh/bearer/src/bearer_handler.c.obj
 .debug_frame   0x00003840       0x7c examples/light_switch/client/CMakeFiles/light_switch_client_nrf52840_xxAA_s140_6.0.0.dir/__/__/__/mesh/bearer/src/broadcast.c.obj
 .debug_frame   0x000038bc       0x74 examples/light_switch/client/CMakeFiles/light_switch_client_nrf52840_xxAA_s140_6.0.0.dir/__/__/__/mesh/bearer/src/filter_engine.c.obj
 .debug_frame   0x00003930       0x94 examples/light_switch/client/CMakeFiles/light_switch_client_nrf52840_xxAA_s140_6.0.0.dir/__/__/__/mesh/bearer/src/radio_config.c.obj
 .debug_frame   0x000039c4      0x2cc examples/light_switch/client/CMakeFiles/light_switch_client_nrf52840_xxAA_s140_6.0.0.dir/__/__/__/mesh/bearer/src/scanner.c.obj
 .debug_frame   0x00003c90      0x10c examples/light_switch/client/CMakeFiles/light_switch_client_nrf52840_xxAA_s140_6.0.0.dir/__/__/__/mesh/bearer/src/mesh_pa_lna.c.obj
 .debug_frame   0x00003d9c       0xc4 examples/light_switch/client/CMakeFiles/light_switch_client_nrf52840_xxAA_s140_6.0.0.dir/__/__/__/models/model_spec/generic_onoff/src/generic_onoff_client.c.obj
 .debug_frame   0x00003e60      0x138 examples/light_switch/client/CMakeFiles/light_switch_client_nrf52840_xxAA_s140_6.0.0.dir/__/__/__/models/model_spec/common/src/model_common.c.obj
 .debug_frame   0x00003f98       0x40 examples/light_switch/client/CMakeFiles/light_switch_client_nrf52840_xxAA_s140_6.0.0.dir/__/__/__/models/foundation/config/src/composition_data.c.obj
 .debug_frame   0x00003fd8      0x8d8 examples/light_switch/client/CMakeFiles/light_switch_client_nrf52840_xxAA_s140_6.0.0.dir/__/__/__/models/foundation/config/src/config_server.c.obj
 .debug_frame   0x000048b0       0x2c examples/light_switch/client/CMakeFiles/light_switch_client_nrf52840_xxAA_s140_6.0.0.dir/__/__/__/models/foundation/config/src/packed_index_list.c.obj
 .debug_frame   0x000048dc      0x2a0 examples/light_switch/client/CMakeFiles/light_switch_client_nrf52840_xxAA_s140_6.0.0.dir/__/__/__/models/foundation/health/src/health_server.c.obj
 .debug_frame   0x00004b7c      0x114 examples/light_switch/client/CMakeFiles/light_switch_client_nrf52840_xxAA_s140_6.0.0.dir/__/__/__/mesh/access/src/access_publish.c.obj
 .debug_frame   0x00004c90      0x5f4 examples/light_switch/client/CMakeFiles/light_switch_client_nrf52840_xxAA_s140_6.0.0.dir/__/__/__/mesh/access/src/access.c.obj
 .debug_frame   0x00005284      0x138 examples/light_switch/client/CMakeFiles/light_switch_client_nrf52840_xxAA_s140_6.0.0.dir/__/__/__/mesh/access/src/access_reliable.c.obj
 .debug_frame   0x000053bc       0x70 examples/light_switch/client/CMakeFiles/light_switch_client_nrf52840_xxAA_s140_6.0.0.dir/__/__/__/mesh/access/src/access_loopback.c.obj
 .debug_frame   0x0000542c      0xae0 examples/light_switch/client/CMakeFiles/light_switch_client_nrf52840_xxAA_s140_6.0.0.dir/__/__/__/mesh/access/src/device_state_manager.c.obj
 .debug_frame   0x00005f0c      0x198 examples/light_switch/client/CMakeFiles/light_switch_client_nrf52840_xxAA_s140_6.0.0.dir/__/__/__/mesh/prov/src/prov_provisionee.c.obj
 .debug_frame   0x000060a4      0x160 examples/light_switch/client/CMakeFiles/light_switch_client_nrf52840_xxAA_s140_6.0.0.dir/__/__/__/mesh/prov/src/nrf_mesh_prov.c.obj
 .debug_frame   0x00006204      0x170 examples/light_switch/client/CMakeFiles/light_switch_client_nrf52840_xxAA_s140_6.0.0.dir/__/__/__/mesh/prov/src/provisioning.c.obj
 .debug_frame   0x00006374       0x84 examples/light_switch/client/CMakeFiles/light_switch_client_nrf52840_xxAA_s140_6.0.0.dir/__/__/__/mesh/prov/src/prov_beacon.c.obj
 .debug_frame   0x000063f8      0x1b0 examples/light_switch/client/CMakeFiles/light_switch_client_nrf52840_xxAA_s140_6.0.0.dir/__/__/__/mesh/prov/src/prov_utils.c.obj
 .debug_frame   0x000065a8      0x32c examples/light_switch/client/CMakeFiles/light_switch_client_nrf52840_xxAA_s140_6.0.0.dir/__/__/__/mesh/prov/src/prov_bearer_adv.c.obj
 .debug_frame   0x000068d4       0x48 examples/light_switch/client/CMakeFiles/light_switch_client_nrf52840_xxAA_s140_6.0.0.dir/C_/sdks/nRF5_SDK_15.0.0_a53641a/modules/nrfx/mdk/system_nrf52840.c.obj
 .debug_frame   0x0000691c       0x44 examples/light_switch/client/CMakeFiles/light_switch_client_nrf52840_xxAA_s140_6.0.0.dir/C_/sdks/nRF5_SDK_15.0.0_a53641a/components/libraries/util/app_error.c.obj
 .debug_frame   0x00006960       0x84 examples/light_switch/client/CMakeFiles/light_switch_client_nrf52840_xxAA_s140_6.0.0.dir/C_/sdks/nRF5_SDK_15.0.0_a53641a/components/libraries/util/app_util_platform.c.obj
 .debug_frame   0x000069e4      0x16c examples/light_switch/client/CMakeFiles/light_switch_client_nrf52840_xxAA_s140_6.0.0.dir/C_/sdks/nRF5_SDK_15.0.0_a53641a/components/libraries/timer/app_timer.c.obj
 .debug_frame   0x00006b50       0x20 examples/light_switch/client/CMakeFiles/light_switch_client_nrf52840_xxAA_s140_6.0.0.dir/C_/sdks/nRF5_SDK_15.0.0_a53641a/components/libraries/util/app_error_handler_gcc.c.obj
 .debug_frame   0x00006b70      0x2d8 external/rtt/librtt_nrf52840_xxAA.a(SEGGER_RTT.c.obj)
 .debug_frame   0x00006e48       0xac external/rtt/librtt_nrf52840_xxAA.a(SEGGER_RTT_printf.c.obj)
 .debug_frame   0x00006ef4      0x684 external/micro-ecc/libuECC_nrf52840_xxAA.a(uECC.c.obj)
 .debug_frame   0x00007578       0x2c c:/arm_gcc/bin/../lib/gcc/arm-none-eabi/6.3.1/thumb/v7e-m/fpv4-sp/hard\libgcc.a(_aeabi_uldivmod.o)
 .debug_frame   0x000075a4       0x34 c:/arm_gcc/bin/../lib/gcc/arm-none-eabi/6.3.1/thumb/v7e-m/fpv4-sp/hard\libgcc.a(_udivmoddi4.o)
 .debug_frame   0x000075d8       0x28 c:/arm_gcc/bin/../lib/gcc/arm-none-eabi/6.3.1/../../../../arm-none-eabi/lib/thumb/v7e-m/fpv4-sp/hard\libg_nano.a(lib_a-exit.o)
 .debug_frame   0x00007600       0x2c c:/arm_gcc/bin/../lib/gcc/arm-none-eabi/6.3.1/../../../../arm-none-eabi/lib/thumb/v7e-m/fpv4-sp/hard\libg_nano.a(lib_a-init.o)
 .debug_frame   0x0000762c       0x30 c:/arm_gcc/bin/../lib/gcc/arm-none-eabi/6.3.1/../../../../arm-none-eabi/lib/thumb/v7e-m/fpv4-sp/hard\libg_nano.a(lib_a-malloc.o)
 .debug_frame   0x0000765c       0x28 c:/arm_gcc/bin/../lib/gcc/arm-none-eabi/6.3.1/../../../../arm-none-eabi/lib/thumb/v7e-m/fpv4-sp/hard\libg_nano.a(lib_a-memcmp.o)
 .debug_frame   0x00007684       0x28 c:/arm_gcc/bin/../lib/gcc/arm-none-eabi/6.3.1/../../../../arm-none-eabi/lib/thumb/v7e-m/fpv4-sp/hard\libg_nano.a(lib_a-memcpy-stub.o)
 .debug_frame   0x000076ac       0x20 c:/arm_gcc/bin/../lib/gcc/arm-none-eabi/6.3.1/../../../../arm-none-eabi/lib/thumb/v7e-m/fpv4-sp/hard\libg_nano.a(lib_a-memset.o)
 .debug_frame   0x000076cc       0x38 c:/arm_gcc/bin/../lib/gcc/arm-none-eabi/6.3.1/../../../../arm-none-eabi/lib/thumb/v7e-m/fpv4-sp/hard\libg_nano.a(lib_a-nano-freer.o)
 .debug_frame   0x00007704       0x2c c:/arm_gcc/bin/../lib/gcc/arm-none-eabi/6.3.1/../../../../arm-none-eabi/lib/thumb/v7e-m/fpv4-sp/hard\libg_nano.a(lib_a-nano-mallocr.o)
 .debug_frame   0x00007730       0x2c c:/arm_gcc/bin/../lib/gcc/arm-none-eabi/6.3.1/../../../../arm-none-eabi/lib/thumb/v7e-m/fpv4-sp/hard\libg_nano.a(lib_a-sbrkr.o)
 .debug_frame   0x0000775c       0x20 c:/arm_gcc/bin/../lib/gcc/arm-none-eabi/6.3.1/../../../../arm-none-eabi/lib/thumb/v7e-m/fpv4-sp/hard\libg_nano.a(lib_a-strcpy.o)
 .debug_frame   0x0000777c       0x34 c:/arm_gcc/bin/../lib/gcc/arm-none-eabi/6.3.1/../../../../arm-none-eabi/lib/thumb/v7e-m/fpv4-sp/hard\libg_nano.a(lib_a-strrchr.o)
 .debug_frame   0x000077b0       0x30 c:/arm_gcc/bin/../lib/gcc/arm-none-eabi/6.3.1/../../../../arm-none-eabi/lib/thumb/v7e-m/fpv4-sp/hard\libg_nano.a(lib_a-mlock.o)
 .debug_frame   0x000077e0       0x5c c:/arm_gcc/bin/../lib/gcc/arm-none-eabi/6.3.1/../../../../arm-none-eabi/lib/thumb/v7e-m/fpv4-sp/hard\libg_nano.a(lib_a-reent.o)
 .debug_frame   0x0000783c       0x20 c:/arm_gcc/bin/../lib/gcc/arm-none-eabi/6.3.1/../../../../arm-none-eabi/lib/thumb/v7e-m/fpv4-sp/hard\libg_nano.a(lib_a-strchr.o)
 .debug_frame   0x0000785c       0x20 c:/arm_gcc/bin/../lib/gcc/arm-none-eabi/6.3.1/../../../../arm-none-eabi/lib/thumb/v7e-m/fpv4-sp/hard\libnosys.a(sbrk.o)
 .debug_frame   0x0000787c       0x20 c:/arm_gcc/bin/../lib/gcc/arm-none-eabi/6.3.1/../../../../arm-none-eabi/lib/thumb/v7e-m/fpv4-sp/hard\libnosys.a(_exit.o)
