Archive member included to satisfy reference by file (symbol)

mesh/core/libmesh_core_nrf51422_xxAC.a(event.c.obj)
                              examples/beaconing/CMakeFiles/beaconing_nrf51422_xxAC_s130_2.0.1.dir/__/__/mesh/access/src/access.c.obj (event_handle)
mesh/core/libmesh_core_nrf51422_xxAC.a(net_state.c.obj)
                              examples/beaconing/CMakeFiles/beaconing_nrf51422_xxAC_s130_2.0.1.dir/__/__/mesh/access/src/device_state_manager.c.obj (net_state_flash_area_get)
mesh/core/libmesh_core_nrf51422_xxAC.a(nrf_mesh_utils.c.obj)
                              examples/beaconing/CMakeFiles/beaconing_nrf51422_xxAC_s130_2.0.1.dir/__/__/mesh/access/src/device_state_manager.c.obj (nrf_mesh_address_type_get)
mesh/core/libmesh_core_nrf51422_xxAC.a(nrf_mesh.c.obj)
                              examples/beaconing/CMakeFiles/beaconing_nrf51422_xxAC_s130_2.0.1.dir/__/nrf_mesh_sdk.c.obj (nrf_mesh_init)
mesh/core/libmesh_core_nrf51422_xxAC.a(hal.c.obj)
                              mesh/core/libmesh_core_nrf51422_xxAC.a(nrf_mesh.c.obj) (hal_lfclk_ppm_get)
mesh/core/libmesh_core_nrf51422_xxAC.a(timer_scheduler.c.obj)
                              mesh/core/libmesh_core_nrf51422_xxAC.a(nrf_mesh.c.obj) (timer_sch_init)
mesh/core/libmesh_core_nrf51422_xxAC.a(timer.c.obj)
                              mesh/core/libmesh_core_nrf51422_xxAC.a(timer_scheduler.c.obj) (timer_order_cb)
mesh/core/libmesh_core_nrf51422_xxAC.a(ticker.c.obj)
                              mesh/core/libmesh_core_nrf51422_xxAC.a(nrf_mesh.c.obj) (ticker_init)
mesh/core/libmesh_core_nrf51422_xxAC.a(rand.c.obj)
                              mesh/core/libmesh_core_nrf51422_xxAC.a(nrf_mesh_utils.c.obj) (rand_hw_rng_get)
mesh/core/libmesh_core_nrf51422_xxAC.a(timeslot.c.obj)
                              mesh/core/libmesh_core_nrf51422_xxAC.a(nrf_mesh.c.obj) (timeslot_sd_event_handler)
mesh/core/libmesh_core_nrf51422_xxAC.a(bearer_event.c.obj)
                              mesh/core/libmesh_core_nrf51422_xxAC.a(nrf_mesh.c.obj) (bearer_event_init)
mesh/core/libmesh_core_nrf51422_xxAC.a(network.c.obj)
                              mesh/core/libmesh_core_nrf51422_xxAC.a(nrf_mesh.c.obj) (network_init)
mesh/core/libmesh_core_nrf51422_xxAC.a(nrf_mesh_keygen.c.obj)
                              examples/beaconing/CMakeFiles/beaconing_nrf51422_xxAC_s130_2.0.1.dir/__/__/mesh/access/src/device_state_manager.c.obj (nrf_mesh_keygen_aid)
mesh/core/libmesh_core_nrf51422_xxAC.a(list.c.obj)
                              mesh/core/libmesh_core_nrf51422_xxAC.a(event.c.obj) (list_add)
mesh/core/libmesh_core_nrf51422_xxAC.a(log.c.obj)
                              examples/beaconing/CMakeFiles/beaconing_nrf51422_xxAC_s130_2.0.1.dir/src/main.c.obj (log_callback_rtt)
mesh/core/libmesh_core_nrf51422_xxAC.a(flash_manager.c.obj)
                              mesh/core/libmesh_core_nrf51422_xxAC.a(nrf_mesh.c.obj) (flash_manager_init)
mesh/core/libmesh_core_nrf51422_xxAC.a(beacon.c.obj)
                              mesh/core/libmesh_core_nrf51422_xxAC.a(nrf_mesh.c.obj) (beacon_init)
mesh/core/libmesh_core_nrf51422_xxAC.a(flash_manager_internal.c.obj)
                              mesh/core/libmesh_core_nrf51422_xxAC.a(flash_manager.c.obj) (entry_get)
mesh/core/libmesh_core_nrf51422_xxAC.a(core_tx.c.obj)
                              mesh/core/libmesh_core_nrf51422_xxAC.a(network.c.obj) (core_tx_packet_alloc)
mesh/core/libmesh_core_nrf51422_xxAC.a(heartbeat.c.obj)
                              mesh/core/libmesh_core_nrf51422_xxAC.a(network.c.obj) (heartbeat_on_feature_change_trigger)
mesh/core/libmesh_core_nrf51422_xxAC.a(net_beacon.c.obj)
                              mesh/core/libmesh_core_nrf51422_xxAC.a(network.c.obj) (net_beacon_init)
mesh/core/libmesh_core_nrf51422_xxAC.a(core_tx_adv.c.obj)
                              mesh/core/libmesh_core_nrf51422_xxAC.a(nrf_mesh.c.obj) (core_tx_adv_init)
mesh/core/libmesh_core_nrf51422_xxAC.a(ad_listener.c.obj)
                              mesh/core/libmesh_core_nrf51422_xxAC.a(nrf_mesh.c.obj) (ad_listener_subscribe)
mesh/core/libmesh_core_nrf51422_xxAC.a(ad_type_filter.c.obj)
                              mesh/core/libmesh_core_nrf51422_xxAC.a(ad_listener.c.obj) (bearer_adtype_filtering_set)
mesh/core/libmesh_core_nrf51422_xxAC.a(advertiser.c.obj)
                              mesh/core/libmesh_core_nrf51422_xxAC.a(nrf_mesh.c.obj) (advertiser_init)
mesh/core/libmesh_core_nrf51422_xxAC.a(bearer_handler.c.obj)
                              mesh/core/libmesh_core_nrf51422_xxAC.a(nrf_mesh.c.obj) (bearer_handler_init)
mesh/core/libmesh_core_nrf51422_xxAC.a(broadcast.c.obj)
                              mesh/core/libmesh_core_nrf51422_xxAC.a(advertiser.c.obj) (broadcast_send)
mesh/core/libmesh_core_nrf51422_xxAC.a(filter_engine.c.obj)
                              mesh/core/libmesh_core_nrf51422_xxAC.a(ad_type_filter.c.obj) (fen_filter_start)
mesh/core/libmesh_core_nrf51422_xxAC.a(radio_config.c.obj)
                              mesh/core/libmesh_core_nrf51422_xxAC.a(broadcast.c.obj) (radio_config_reset)
mesh/core/libmesh_core_nrf51422_xxAC.a(scanner.c.obj)
                              mesh/core/libmesh_core_nrf51422_xxAC.a(bearer_handler.c.obj) (scanner_radio_start)
mesh/core/libmesh_core_nrf51422_xxAC.a(internal_event.c.obj)
                              mesh/core/libmesh_core_nrf51422_xxAC.a(network.c.obj) (internal_event_push)
mesh/core/libmesh_core_nrf51422_xxAC.a(nrf_mesh_configure.c.obj)
                              mesh/core/libmesh_core_nrf51422_xxAC.a(nrf_mesh.c.obj) (nrf_mesh_configure_device_uuid_reset)
mesh/core/libmesh_core_nrf51422_xxAC.a(msg_cache.c.obj)
                              mesh/core/libmesh_core_nrf51422_xxAC.a(nrf_mesh.c.obj) (msg_cache_init)
mesh/core/libmesh_core_nrf51422_xxAC.a(transport.c.obj)
                              mesh/core/libmesh_core_nrf51422_xxAC.a(nrf_mesh.c.obj) (transport_init)
mesh/core/libmesh_core_nrf51422_xxAC.a(packet_buffer.c.obj)
                              mesh/core/libmesh_core_nrf51422_xxAC.a(flash_manager.c.obj) (packet_buffer_init)
mesh/core/libmesh_core_nrf51422_xxAC.a(flash_manager_defrag.c.obj)
                              mesh/core/libmesh_core_nrf51422_xxAC.a(flash_manager.c.obj) (flash_manager_defrag_init)
mesh/core/libmesh_core_nrf51422_xxAC.a(fifo.c.obj)
                              mesh/core/libmesh_core_nrf51422_xxAC.a(bearer_event.c.obj) (fifo_init)
mesh/core/libmesh_core_nrf51422_xxAC.a(packet_mgr.c.obj)
                              mesh/core/libmesh_core_nrf51422_xxAC.a(nrf_mesh.c.obj) (packet_mgr_init)
mesh/core/libmesh_core_nrf51422_xxAC.a(mesh_flash.c.obj)
                              mesh/core/libmesh_core_nrf51422_xxAC.a(flash_manager.c.obj) (mesh_flash_user_callback_set)
mesh/core/libmesh_core_nrf51422_xxAC.a(queue.c.obj)
                              mesh/core/libmesh_core_nrf51422_xxAC.a(bearer_event.c.obj) (queue_init)
mesh/core/libmesh_core_nrf51422_xxAC.a(nrf_mesh_opt.c.obj)
                              mesh/core/libmesh_core_nrf51422_xxAC.a(heartbeat.c.obj) (nrf_mesh_opt_get)
mesh/core/libmesh_core_nrf51422_xxAC.a(enc.c.obj)
                              mesh/core/libmesh_core_nrf51422_xxAC.a(network.c.obj) (enc_aes_encrypt)
mesh/core/libmesh_core_nrf51422_xxAC.a(msqueue.c.obj)
                              mesh/core/libmesh_core_nrf51422_xxAC.a(mesh_flash.c.obj) (msq_get)
mesh/core/libmesh_core_nrf51422_xxAC.a(ccm_soft.c.obj)
                              mesh/core/libmesh_core_nrf51422_xxAC.a(enc.c.obj) (ccm_soft_encrypt)
mesh/core/libmesh_core_nrf51422_xxAC.a(replay_cache.c.obj)
                              mesh/core/libmesh_core_nrf51422_xxAC.a(transport.c.obj) (replay_cache_add)
mesh/core/libmesh_core_nrf51422_xxAC.a(aes.c.obj)
                              mesh/core/libmesh_core_nrf51422_xxAC.a(enc.c.obj) (aes_encrypt)
mesh/core/libmesh_core_nrf51422_xxAC.a(nrf_flash.c.obj)
                              mesh/core/libmesh_core_nrf51422_xxAC.a(mesh_flash.c.obj) (nrf_flash_erase)
mesh/core/libmesh_core_nrf51422_xxAC.a(aes_cmac.c.obj)
                              mesh/core/libmesh_core_nrf51422_xxAC.a(enc.c.obj) (aes_cmac)
external/rtt/librtt_nrf51422_xxAC.a(SEGGER_RTT.c.obj)
                              mesh/core/libmesh_core_nrf51422_xxAC.a(log.c.obj) (SEGGER_RTT_Write)
external/rtt/librtt_nrf51422_xxAC.a(SEGGER_RTT_printf.c.obj)
                              mesh/core/libmesh_core_nrf51422_xxAC.a(log.c.obj) (SEGGER_RTT_vprintf)
c:/a/gcc_arm/6/bin/../lib/gcc/arm-none-eabi/6.3.1/thumb/v6-m\libgcc.a(_thumb1_case_uqi.o)
                              examples/beaconing/CMakeFiles/beaconing_nrf51422_xxAC_s130_2.0.1.dir/__/__/mesh/access/src/access_publish.c.obj (__gnu_thumb1_case_uqi)
c:/a/gcc_arm/6/bin/../lib/gcc/arm-none-eabi/6.3.1/thumb/v6-m\libgcc.a(_thumb1_case_uhi.o)
                              mesh/core/libmesh_core_nrf51422_xxAC.a(flash_manager.c.obj) (__gnu_thumb1_case_uhi)
c:/a/gcc_arm/6/bin/../lib/gcc/arm-none-eabi/6.3.1/thumb/v6-m\libgcc.a(_udivsi3.o)
                              examples/beaconing/CMakeFiles/beaconing_nrf51422_xxAC_s130_2.0.1.dir/__/__/mesh/access/src/access_publish.c.obj (__aeabi_uidiv)
c:/a/gcc_arm/6/bin/../lib/gcc/arm-none-eabi/6.3.1/thumb/v6-m\libgcc.a(_divsi3.o)
                              examples/beaconing/CMakeFiles/beaconing_nrf51422_xxAC_s130_2.0.1.dir/__/__/mesh/access/src/access_reliable.c.obj (__aeabi_idiv)
c:/a/gcc_arm/6/bin/../lib/gcc/arm-none-eabi/6.3.1/thumb/v6-m\libgcc.a(_dvmd_tls.o)
                              c:/a/gcc_arm/6/bin/../lib/gcc/arm-none-eabi/6.3.1/thumb/v6-m\libgcc.a(_udivsi3.o) (__aeabi_idiv0)
c:/a/gcc_arm/6/bin/../lib/gcc/arm-none-eabi/6.3.1/thumb/v6-m\libgcc.a(_muldi3.o)
                              mesh/core/libmesh_core_nrf51422_xxAC.a(timeslot.c.obj) (__aeabi_lmul)
c:/a/gcc_arm/6/bin/../lib/gcc/arm-none-eabi/6.3.1/../../../../arm-none-eabi/lib/thumb/v6-m\libg_nano.a(lib_a-exit.o)
                              c:/a/gcc_arm/6/bin/../lib/gcc/arm-none-eabi/6.3.1/../../../../arm-none-eabi/lib/thumb/v6-m/crt0.o (exit)
c:/a/gcc_arm/6/bin/../lib/gcc/arm-none-eabi/6.3.1/../../../../arm-none-eabi/lib/thumb/v6-m\libg_nano.a(lib_a-impure.o)
                              c:/a/gcc_arm/6/bin/../lib/gcc/arm-none-eabi/6.3.1/../../../../arm-none-eabi/lib/thumb/v6-m\libg_nano.a(lib_a-exit.o) (_global_impure_ptr)
c:/a/gcc_arm/6/bin/../lib/gcc/arm-none-eabi/6.3.1/../../../../arm-none-eabi/lib/thumb/v6-m\libg_nano.a(lib_a-init.o)
                              c:/a/gcc_arm/6/bin/../lib/gcc/arm-none-eabi/6.3.1/../../../../arm-none-eabi/lib/thumb/v6-m/crt0.o (__libc_init_array)
c:/a/gcc_arm/6/bin/../lib/gcc/arm-none-eabi/6.3.1/../../../../arm-none-eabi/lib/thumb/v6-m\libg_nano.a(lib_a-malloc.o)
                              mesh/core/libmesh_core_nrf51422_xxAC.a(transport.c.obj) (malloc)
c:/a/gcc_arm/6/bin/../lib/gcc/arm-none-eabi/6.3.1/../../../../arm-none-eabi/lib/thumb/v6-m\libg_nano.a(lib_a-memcmp.o)
                              examples/beaconing/CMakeFiles/beaconing_nrf51422_xxAC_s130_2.0.1.dir/__/__/mesh/access/src/device_state_manager.c.obj (memcmp)
c:/a/gcc_arm/6/bin/../lib/gcc/arm-none-eabi/6.3.1/../../../../arm-none-eabi/lib/thumb/v6-m\libg_nano.a(lib_a-memcpy-stub.o)
                              examples/beaconing/CMakeFiles/beaconing_nrf51422_xxAC_s130_2.0.1.dir/src/main.c.obj (memcpy)
c:/a/gcc_arm/6/bin/../lib/gcc/arm-none-eabi/6.3.1/../../../../arm-none-eabi/lib/thumb/v6-m\libg_nano.a(lib_a-memset.o)
                              c:/a/gcc_arm/6/bin/../lib/gcc/arm-none-eabi/6.3.1/../../../../arm-none-eabi/lib/thumb/v6-m/crt0.o (memset)
c:/a/gcc_arm/6/bin/../lib/gcc/arm-none-eabi/6.3.1/../../../../arm-none-eabi/lib/thumb/v6-m\libg_nano.a(lib_a-nano-freer.o)
                              c:/a/gcc_arm/6/bin/../lib/gcc/arm-none-eabi/6.3.1/../../../../arm-none-eabi/lib/thumb/v6-m\libg_nano.a(lib_a-malloc.o) (_free_r)
c:/a/gcc_arm/6/bin/../lib/gcc/arm-none-eabi/6.3.1/../../../../arm-none-eabi/lib/thumb/v6-m\libg_nano.a(lib_a-nano-mallocr.o)
                              c:/a/gcc_arm/6/bin/../lib/gcc/arm-none-eabi/6.3.1/../../../../arm-none-eabi/lib/thumb/v6-m\libg_nano.a(lib_a-malloc.o) (_malloc_r)
c:/a/gcc_arm/6/bin/../lib/gcc/arm-none-eabi/6.3.1/../../../../arm-none-eabi/lib/thumb/v6-m\libg_nano.a(lib_a-sbrkr.o)
                              c:/a/gcc_arm/6/bin/../lib/gcc/arm-none-eabi/6.3.1/../../../../arm-none-eabi/lib/thumb/v6-m\libg_nano.a(lib_a-nano-mallocr.o) (_sbrk_r)
c:/a/gcc_arm/6/bin/../lib/gcc/arm-none-eabi/6.3.1/../../../../arm-none-eabi/lib/thumb/v6-m\libg_nano.a(lib_a-sprintf.o)
                              examples/beaconing/CMakeFiles/beaconing_nrf51422_xxAC_s130_2.0.1.dir/src/main.c.obj (sprintf)
c:/a/gcc_arm/6/bin/../lib/gcc/arm-none-eabi/6.3.1/../../../../arm-none-eabi/lib/thumb/v6-m\libg_nano.a(lib_a-strcpy.o)
                              external/rtt/librtt_nrf51422_xxAC.a(SEGGER_RTT.c.obj) (strcpy)
c:/a/gcc_arm/6/bin/../lib/gcc/arm-none-eabi/6.3.1/../../../../arm-none-eabi/lib/thumb/v6-m\libg_nano.a(lib_a-strlen.o)
                              external/rtt/librtt_nrf51422_xxAC.a(SEGGER_RTT.c.obj) (strlen)
c:/a/gcc_arm/6/bin/../lib/gcc/arm-none-eabi/6.3.1/../../../../arm-none-eabi/lib/thumb/v6-m\libg_nano.a(lib_a-strrchr.o)
                              examples/beaconing/CMakeFiles/beaconing_nrf51422_xxAC_s130_2.0.1.dir/src/main.c.obj (strrchr)
c:/a/gcc_arm/6/bin/../lib/gcc/arm-none-eabi/6.3.1/../../../../arm-none-eabi/lib/thumb/v6-m\libg_nano.a(lib_a-mlock.o)
                              c:/a/gcc_arm/6/bin/../lib/gcc/arm-none-eabi/6.3.1/../../../../arm-none-eabi/lib/thumb/v6-m\libg_nano.a(lib_a-nano-freer.o) (__malloc_lock)
c:/a/gcc_arm/6/bin/../lib/gcc/arm-none-eabi/6.3.1/../../../../arm-none-eabi/lib/thumb/v6-m\libg_nano.a(lib_a-nano-svfprintf.o)
                              c:/a/gcc_arm/6/bin/../lib/gcc/arm-none-eabi/6.3.1/../../../../arm-none-eabi/lib/thumb/v6-m\libg_nano.a(lib_a-sprintf.o) (_svfprintf_r)
c:/a/gcc_arm/6/bin/../lib/gcc/arm-none-eabi/6.3.1/../../../../arm-none-eabi/lib/thumb/v6-m\libg_nano.a(lib_a-nano-vfprintf_i.o)
                              c:/a/gcc_arm/6/bin/../lib/gcc/arm-none-eabi/6.3.1/../../../../arm-none-eabi/lib/thumb/v6-m\libg_nano.a(lib_a-nano-svfprintf.o) (_printf_i)
c:/a/gcc_arm/6/bin/../lib/gcc/arm-none-eabi/6.3.1/../../../../arm-none-eabi/lib/thumb/v6-m\libg_nano.a(lib_a-reent.o)
                              c:/a/gcc_arm/6/bin/../lib/gcc/arm-none-eabi/6.3.1/../../../../arm-none-eabi/lib/thumb/v6-m\libg_nano.a(lib_a-sbrkr.o) (errno)
c:/a/gcc_arm/6/bin/../lib/gcc/arm-none-eabi/6.3.1/../../../../arm-none-eabi/lib/thumb/v6-m\libg_nano.a(lib_a-strchr.o)
                              c:/a/gcc_arm/6/bin/../lib/gcc/arm-none-eabi/6.3.1/../../../../arm-none-eabi/lib/thumb/v6-m\libg_nano.a(lib_a-strrchr.o) (strchr)
c:/a/gcc_arm/6/bin/../lib/gcc/arm-none-eabi/6.3.1/../../../../arm-none-eabi/lib/thumb/v6-m\libg_nano.a(lib_a-memchr-stub.o)
                              c:/a/gcc_arm/6/bin/../lib/gcc/arm-none-eabi/6.3.1/../../../../arm-none-eabi/lib/thumb/v6-m\libg_nano.a(lib_a-nano-svfprintf.o) (memchr)
c:/a/gcc_arm/6/bin/../lib/gcc/arm-none-eabi/6.3.1/../../../../arm-none-eabi/lib/thumb/v6-m\libg_nano.a(lib_a-memmove.o)
                              c:/a/gcc_arm/6/bin/../lib/gcc/arm-none-eabi/6.3.1/../../../../arm-none-eabi/lib/thumb/v6-m\libg_nano.a(lib_a-nano-svfprintf.o) (memmove)
c:/a/gcc_arm/6/bin/../lib/gcc/arm-none-eabi/6.3.1/../../../../arm-none-eabi/lib/thumb/v6-m\libg_nano.a(lib_a-nano-reallocr.o)
                              c:/a/gcc_arm/6/bin/../lib/gcc/arm-none-eabi/6.3.1/../../../../arm-none-eabi/lib/thumb/v6-m\libg_nano.a(lib_a-nano-svfprintf.o) (_realloc_r)
c:/a/gcc_arm/6/bin/../lib/gcc/arm-none-eabi/6.3.1/../../../../arm-none-eabi/lib/thumb/v6-m\libg_nano.a(lib_a-nano-msizer.o)
                              c:/a/gcc_arm/6/bin/../lib/gcc/arm-none-eabi/6.3.1/../../../../arm-none-eabi/lib/thumb/v6-m\libg_nano.a(lib_a-nano-reallocr.o) (_malloc_usable_size_r)
c:/a/gcc_arm/6/bin/../lib/gcc/arm-none-eabi/6.3.1/../../../../arm-none-eabi/lib/thumb/v6-m\libnosys.a(sbrk.o)
                              c:/a/gcc_arm/6/bin/../lib/gcc/arm-none-eabi/6.3.1/../../../../arm-none-eabi/lib/thumb/v6-m\libg_nano.a(lib_a-sbrkr.o) (_sbrk)
c:/a/gcc_arm/6/bin/../lib/gcc/arm-none-eabi/6.3.1/../../../../arm-none-eabi/lib/thumb/v6-m\libnosys.a(_exit.o)
                              c:/a/gcc_arm/6/bin/../lib/gcc/arm-none-eabi/6.3.1/../../../../arm-none-eabi/lib/thumb/v6-m\libg_nano.a(lib_a-exit.o) (_exit)

Allocating common symbols
Common symbol       size              file

nrf_nvic_state      0x8               examples/beaconing/CMakeFiles/beaconing_nrf51422_xxAC_s130_2.0.1.dir/__/nrf_mesh_sdk.c.obj
errno               0x4               c:/a/gcc_arm/6/bin/../lib/gcc/arm-none-eabi/6.3.1/../../../../arm-none-eabi/lib/thumb/v6-m\libg_nano.a(lib_a-reent.o)
m_assertion_handler
                    0x4               mesh/core/libmesh_core_nrf51422_xxAC.a(nrf_mesh.c.obj)
_SEGGER_RTT         0x78              external/rtt/librtt_nrf51422_xxAC.a(SEGGER_RTT.c.obj)

Discarded input sections

 .text          0x00000000        0x0 c:/a/gcc_arm/6/bin/../lib/gcc/arm-none-eabi/6.3.1/thumb/v6-m/crti.o
 .data          0x00000000        0x0 c:/a/gcc_arm/6/bin/../lib/gcc/arm-none-eabi/6.3.1/thumb/v6-m/crti.o
 .bss           0x00000000        0x0 c:/a/gcc_arm/6/bin/../lib/gcc/arm-none-eabi/6.3.1/thumb/v6-m/crti.o
 .data          0x00000000        0x4 c:/a/gcc_arm/6/bin/../lib/gcc/arm-none-eabi/6.3.1/thumb/v6-m/crtbegin.o
 .data          0x00000000        0x0 c:/a/gcc_arm/6/bin/../lib/gcc/arm-none-eabi/6.3.1/../../../../arm-none-eabi/lib/thumb/v6-m/crt0.o
 .bss           0x00000000        0x0 c:/a/gcc_arm/6/bin/../lib/gcc/arm-none-eabi/6.3.1/../../../../arm-none-eabi/lib/thumb/v6-m/crt0.o
 .ARM.extab     0x00000000        0x0 c:/a/gcc_arm/6/bin/../lib/gcc/arm-none-eabi/6.3.1/../../../../arm-none-eabi/lib/thumb/v6-m/crt0.o
 .text          0x00000000        0x0 examples/beaconing/CMakeFiles/beaconing_nrf51422_xxAC_s130_2.0.1.dir/src/main.c.obj
 .data          0x00000000        0x0 examples/beaconing/CMakeFiles/beaconing_nrf51422_xxAC_s130_2.0.1.dir/src/main.c.obj
 .bss           0x00000000        0x0 examples/beaconing/CMakeFiles/beaconing_nrf51422_xxAC_s130_2.0.1.dir/src/main.c.obj
 .text          0x00000000        0x0 examples/beaconing/CMakeFiles/beaconing_nrf51422_xxAC_s130_2.0.1.dir/__/nrf_mesh_sdk.c.obj
 .data          0x00000000        0x0 examples/beaconing/CMakeFiles/beaconing_nrf51422_xxAC_s130_2.0.1.dir/__/nrf_mesh_sdk.c.obj
 .bss           0x00000000        0x0 examples/beaconing/CMakeFiles/beaconing_nrf51422_xxAC_s130_2.0.1.dir/__/nrf_mesh_sdk.c.obj
 .text          0x00000000        0x0 examples/beaconing/CMakeFiles/beaconing_nrf51422_xxAC_s130_2.0.1.dir/__/__/mesh/access/src/access_publish.c.obj
 .data          0x00000000        0x0 examples/beaconing/CMakeFiles/beaconing_nrf51422_xxAC_s130_2.0.1.dir/__/__/mesh/access/src/access_publish.c.obj
 .bss           0x00000000        0x0 examples/beaconing/CMakeFiles/beaconing_nrf51422_xxAC_s130_2.0.1.dir/__/__/mesh/access/src/access_publish.c.obj
 .text.add_to_publication_list
                0x00000000       0x60 examples/beaconing/CMakeFiles/beaconing_nrf51422_xxAC_s130_2.0.1.dir/__/__/mesh/access/src/access_publish.c.obj
 .text.step_resolution_to_us
                0x00000000       0x48 examples/beaconing/CMakeFiles/beaconing_nrf51422_xxAC_s130_2.0.1.dir/__/__/mesh/access/src/access_publish.c.obj
 .text.schedule_publication_timer
                0x00000000      0x16c examples/beaconing/CMakeFiles/beaconing_nrf51422_xxAC_s130_2.0.1.dir/__/__/mesh/access/src/access_publish.c.obj
 .text.publish_timer_tick
                0x00000000       0xac examples/beaconing/CMakeFiles/beaconing_nrf51422_xxAC_s130_2.0.1.dir/__/__/mesh/access/src/access_publish.c.obj
 .text.access_publish_init
                0x00000000       0x38 examples/beaconing/CMakeFiles/beaconing_nrf51422_xxAC_s130_2.0.1.dir/__/__/mesh/access/src/access_publish.c.obj
 .text.access_publish_period_set
                0x00000000       0x84 examples/beaconing/CMakeFiles/beaconing_nrf51422_xxAC_s130_2.0.1.dir/__/__/mesh/access/src/access_publish.c.obj
 .text.access_publish_period_get
                0x00000000       0x30 examples/beaconing/CMakeFiles/beaconing_nrf51422_xxAC_s130_2.0.1.dir/__/__/mesh/access/src/access_publish.c.obj
 .bss.m_publish_timer
                0x00000000       0x18 examples/beaconing/CMakeFiles/beaconing_nrf51422_xxAC_s130_2.0.1.dir/__/__/mesh/access/src/access_publish.c.obj
 .bss.m_publish_timer_counter
                0x00000000        0x4 examples/beaconing/CMakeFiles/beaconing_nrf51422_xxAC_s130_2.0.1.dir/__/__/mesh/access/src/access_publish.c.obj
 .bss.m_publish_timer_running
                0x00000000        0x1 examples/beaconing/CMakeFiles/beaconing_nrf51422_xxAC_s130_2.0.1.dir/__/__/mesh/access/src/access_publish.c.obj
 .bss.m_timer_resolution
                0x00000000        0x1 examples/beaconing/CMakeFiles/beaconing_nrf51422_xxAC_s130_2.0.1.dir/__/__/mesh/access/src/access_publish.c.obj
 .bss.mp_publication_list
                0x00000000        0x4 examples/beaconing/CMakeFiles/beaconing_nrf51422_xxAC_s130_2.0.1.dir/__/__/mesh/access/src/access_publish.c.obj
 .debug_info    0x00000000     0x10f5 examples/beaconing/CMakeFiles/beaconing_nrf51422_xxAC_s130_2.0.1.dir/__/__/mesh/access/src/access_publish.c.obj
 .debug_abbrev  0x00000000      0x422 examples/beaconing/CMakeFiles/beaconing_nrf51422_xxAC_s130_2.0.1.dir/__/__/mesh/access/src/access_publish.c.obj
 .debug_loc     0x00000000      0x55e examples/beaconing/CMakeFiles/beaconing_nrf51422_xxAC_s130_2.0.1.dir/__/__/mesh/access/src/access_publish.c.obj
 .debug_aranges
                0x00000000       0x50 examples/beaconing/CMakeFiles/beaconing_nrf51422_xxAC_s130_2.0.1.dir/__/__/mesh/access/src/access_publish.c.obj
 .debug_ranges  0x00000000      0x158 examples/beaconing/CMakeFiles/beaconing_nrf51422_xxAC_s130_2.0.1.dir/__/__/mesh/access/src/access_publish.c.obj
 .debug_line    0x00000000      0x3fc examples/beaconing/CMakeFiles/beaconing_nrf51422_xxAC_s130_2.0.1.dir/__/__/mesh/access/src/access_publish.c.obj
 .debug_str     0x00000000      0xbb5 examples/beaconing/CMakeFiles/beaconing_nrf51422_xxAC_s130_2.0.1.dir/__/__/mesh/access/src/access_publish.c.obj
 .comment       0x00000000       0x80 examples/beaconing/CMakeFiles/beaconing_nrf51422_xxAC_s130_2.0.1.dir/__/__/mesh/access/src/access_publish.c.obj
 .debug_frame   0x00000000       0xd8 examples/beaconing/CMakeFiles/beaconing_nrf51422_xxAC_s130_2.0.1.dir/__/__/mesh/access/src/access_publish.c.obj
 .ARM.attributes
                0x00000000       0x31 examples/beaconing/CMakeFiles/beaconing_nrf51422_xxAC_s130_2.0.1.dir/__/__/mesh/access/src/access_publish.c.obj
 .text          0x00000000        0x0 examples/beaconing/CMakeFiles/beaconing_nrf51422_xxAC_s130_2.0.1.dir/__/__/mesh/access/src/access.c.obj
 .data          0x00000000        0x0 examples/beaconing/CMakeFiles/beaconing_nrf51422_xxAC_s130_2.0.1.dir/__/__/mesh/access/src/access.c.obj
 .bss           0x00000000        0x0 examples/beaconing/CMakeFiles/beaconing_nrf51422_xxAC_s130_2.0.1.dir/__/__/mesh/access/src/access.c.obj
 .text.bitfield_get
                0x00000000       0x18 examples/beaconing/CMakeFiles/beaconing_nrf51422_xxAC_s130_2.0.1.dir/__/__/mesh/access/src/access.c.obj
 .text.is_valid_opcode
                0x00000000       0x4c examples/beaconing/CMakeFiles/beaconing_nrf51422_xxAC_s130_2.0.1.dir/__/__/mesh/access/src/access.c.obj
 .text.model_handle_valid_and_allocated
                0x00000000       0x20 examples/beaconing/CMakeFiles/beaconing_nrf51422_xxAC_s130_2.0.1.dir/__/__/mesh/access/src/access.c.obj
 .text.flash_invalidate_complete
                0x00000000       0x18 examples/beaconing/CMakeFiles/beaconing_nrf51422_xxAC_s130_2.0.1.dir/__/__/mesh/access/src/access.c.obj
 .text.flash_manager_mem_available
                0x00000000        0x6 examples/beaconing/CMakeFiles/beaconing_nrf51422_xxAC_s130_2.0.1.dir/__/__/mesh/access/src/access.c.obj
 .text.restore_acquired_subscription
                0x00000000       0x2c examples/beaconing/CMakeFiles/beaconing_nrf51422_xxAC_s130_2.0.1.dir/__/__/mesh/access/src/access.c.obj
 .text.restore_acquired_element
                0x00000000       0x1c examples/beaconing/CMakeFiles/beaconing_nrf51422_xxAC_s130_2.0.1.dir/__/__/mesh/access/src/access.c.obj
 .text.restore_flash_data
                0x00000000       0x5c examples/beaconing/CMakeFiles/beaconing_nrf51422_xxAC_s130_2.0.1.dir/__/__/mesh/access/src/access.c.obj
 .text.access_flash_config_clear
                0x00000000       0x28 examples/beaconing/CMakeFiles/beaconing_nrf51422_xxAC_s130_2.0.1.dir/__/__/mesh/access/src/access.c.obj
 .text.access_flash_config_store
                0x00000000      0x144 examples/beaconing/CMakeFiles/beaconing_nrf51422_xxAC_s130_2.0.1.dir/__/__/mesh/access/src/access.c.obj
 .text.access_state_clear
                0x00000000       0x4c examples/beaconing/CMakeFiles/beaconing_nrf51422_xxAC_s130_2.0.1.dir/__/__/mesh/access/src/access.c.obj
 .text.add_flash_manager
                0x00000000       0x5c examples/beaconing/CMakeFiles/beaconing_nrf51422_xxAC_s130_2.0.1.dir/__/__/mesh/access/src/access.c.obj
 .text.flash_remove_complete
                0x00000000       0x60 examples/beaconing/CMakeFiles/beaconing_nrf51422_xxAC_s130_2.0.1.dir/__/__/mesh/access/src/access.c.obj
 .text.flash_write_complete
                0x00000000       0x54 examples/beaconing/CMakeFiles/beaconing_nrf51422_xxAC_s130_2.0.1.dir/__/__/mesh/access/src/access.c.obj
 .text.unlikely.bitfield_next_get.part.0.constprop.3
                0x00000000       0x34 examples/beaconing/CMakeFiles/beaconing_nrf51422_xxAC_s130_2.0.1.dir/__/__/mesh/access/src/access.c.obj
 .text.restore_acquired_model
                0x00000000       0x88 examples/beaconing/CMakeFiles/beaconing_nrf51422_xxAC_s130_2.0.1.dir/__/__/mesh/access/src/access.c.obj
 .text.handle_incoming
                0x00000000      0x168 examples/beaconing/CMakeFiles/beaconing_nrf51422_xxAC_s130_2.0.1.dir/__/__/mesh/access/src/access.c.obj
 .text.mesh_evt_cb
                0x00000000      0x130 examples/beaconing/CMakeFiles/beaconing_nrf51422_xxAC_s130_2.0.1.dir/__/__/mesh/access/src/access.c.obj
 .text.packet_tx
                0x00000000      0x2fc examples/beaconing/CMakeFiles/beaconing_nrf51422_xxAC_s130_2.0.1.dir/__/__/mesh/access/src/access.c.obj
 .text.access_flash_config_load
                0x00000000      0x130 examples/beaconing/CMakeFiles/beaconing_nrf51422_xxAC_s130_2.0.1.dir/__/__/mesh/access/src/access.c.obj
 .text.access_clear
                0x00000000       0x10 examples/beaconing/CMakeFiles/beaconing_nrf51422_xxAC_s130_2.0.1.dir/__/__/mesh/access/src/access.c.obj
 .text.access_init
                0x00000000       0x28 examples/beaconing/CMakeFiles/beaconing_nrf51422_xxAC_s130_2.0.1.dir/__/__/mesh/access/src/access.c.obj
 .text.access_model_add
                0x00000000      0x1ac examples/beaconing/CMakeFiles/beaconing_nrf51422_xxAC_s130_2.0.1.dir/__/__/mesh/access/src/access.c.obj
 .text.access_model_publish
                0x00000000       0x14 examples/beaconing/CMakeFiles/beaconing_nrf51422_xxAC_s130_2.0.1.dir/__/__/mesh/access/src/access.c.obj
 .text.access_model_reply
                0x00000000       0x1c examples/beaconing/CMakeFiles/beaconing_nrf51422_xxAC_s130_2.0.1.dir/__/__/mesh/access/src/access.c.obj
 .text.access_model_publish_address_set
                0x00000000       0x3c examples/beaconing/CMakeFiles/beaconing_nrf51422_xxAC_s130_2.0.1.dir/__/__/mesh/access/src/access.c.obj
 .text.access_model_publish_address_get
                0x00000000       0x2c examples/beaconing/CMakeFiles/beaconing_nrf51422_xxAC_s130_2.0.1.dir/__/__/mesh/access/src/access.c.obj
 .text.access_model_publish_period_set
                0x00000000       0x80 examples/beaconing/CMakeFiles/beaconing_nrf51422_xxAC_s130_2.0.1.dir/__/__/mesh/access/src/access.c.obj
 .text.access_model_publish_period_get
                0x00000000       0x44 examples/beaconing/CMakeFiles/beaconing_nrf51422_xxAC_s130_2.0.1.dir/__/__/mesh/access/src/access.c.obj
 .text.access_model_subscription_list_alloc
                0x00000000       0x54 examples/beaconing/CMakeFiles/beaconing_nrf51422_xxAC_s130_2.0.1.dir/__/__/mesh/access/src/access.c.obj
 .text.access_model_subscription_lists_share
                0x00000000       0x4c examples/beaconing/CMakeFiles/beaconing_nrf51422_xxAC_s130_2.0.1.dir/__/__/mesh/access/src/access.c.obj
 .text.access_model_subscription_add
                0x00000000       0x5c examples/beaconing/CMakeFiles/beaconing_nrf51422_xxAC_s130_2.0.1.dir/__/__/mesh/access/src/access.c.obj
 .text.access_model_subscription_remove
                0x00000000       0x5c examples/beaconing/CMakeFiles/beaconing_nrf51422_xxAC_s130_2.0.1.dir/__/__/mesh/access/src/access.c.obj
 .text.access_model_subscriptions_get
                0x00000000       0x7c examples/beaconing/CMakeFiles/beaconing_nrf51422_xxAC_s130_2.0.1.dir/__/__/mesh/access/src/access.c.obj
 .text.access_model_application_bind
                0x00000000       0x50 examples/beaconing/CMakeFiles/beaconing_nrf51422_xxAC_s130_2.0.1.dir/__/__/mesh/access/src/access.c.obj
 .text.access_model_application_unbind
                0x00000000       0x50 examples/beaconing/CMakeFiles/beaconing_nrf51422_xxAC_s130_2.0.1.dir/__/__/mesh/access/src/access.c.obj
 .text.access_model_applications_get
                0x00000000       0x60 examples/beaconing/CMakeFiles/beaconing_nrf51422_xxAC_s130_2.0.1.dir/__/__/mesh/access/src/access.c.obj
 .text.access_model_publish_application_set
                0x00000000       0x3c examples/beaconing/CMakeFiles/beaconing_nrf51422_xxAC_s130_2.0.1.dir/__/__/mesh/access/src/access.c.obj
 .text.access_model_publish_application_get
                0x00000000       0x2c examples/beaconing/CMakeFiles/beaconing_nrf51422_xxAC_s130_2.0.1.dir/__/__/mesh/access/src/access.c.obj
 .text.access_default_ttl_set
                0x00000000       0x10 examples/beaconing/CMakeFiles/beaconing_nrf51422_xxAC_s130_2.0.1.dir/__/__/mesh/access/src/access.c.obj
 .text.access_default_ttl_get
                0x00000000        0xc examples/beaconing/CMakeFiles/beaconing_nrf51422_xxAC_s130_2.0.1.dir/__/__/mesh/access/src/access.c.obj
 .text.access_model_publish_ttl_set
                0x00000000       0x44 examples/beaconing/CMakeFiles/beaconing_nrf51422_xxAC_s130_2.0.1.dir/__/__/mesh/access/src/access.c.obj
 .text.access_model_publish_ttl_get
                0x00000000       0x2c examples/beaconing/CMakeFiles/beaconing_nrf51422_xxAC_s130_2.0.1.dir/__/__/mesh/access/src/access.c.obj
 .text.access_element_location_set
                0x00000000       0x28 examples/beaconing/CMakeFiles/beaconing_nrf51422_xxAC_s130_2.0.1.dir/__/__/mesh/access/src/access.c.obj
 .text.access_element_location_get
                0x00000000       0x1c examples/beaconing/CMakeFiles/beaconing_nrf51422_xxAC_s130_2.0.1.dir/__/__/mesh/access/src/access.c.obj
 .text.access_element_sig_model_count_get
                0x00000000       0x1c examples/beaconing/CMakeFiles/beaconing_nrf51422_xxAC_s130_2.0.1.dir/__/__/mesh/access/src/access.c.obj
 .text.access_element_vendor_model_count_get
                0x00000000       0x1c examples/beaconing/CMakeFiles/beaconing_nrf51422_xxAC_s130_2.0.1.dir/__/__/mesh/access/src/access.c.obj
 .text.access_model_id_get
                0x00000000       0x38 examples/beaconing/CMakeFiles/beaconing_nrf51422_xxAC_s130_2.0.1.dir/__/__/mesh/access/src/access.c.obj
 .text.access_handle_get
                0x00000000       0x54 examples/beaconing/CMakeFiles/beaconing_nrf51422_xxAC_s130_2.0.1.dir/__/__/mesh/access/src/access.c.obj
 .text.access_element_models_get
                0x00000000       0x60 examples/beaconing/CMakeFiles/beaconing_nrf51422_xxAC_s130_2.0.1.dir/__/__/mesh/access/src/access.c.obj
 .text.access_model_p_args_get
                0x00000000       0x2c examples/beaconing/CMakeFiles/beaconing_nrf51422_xxAC_s130_2.0.1.dir/__/__/mesh/access/src/access.c.obj
 .bss.m_element_pool
                0x00000000        0x6 examples/beaconing/CMakeFiles/beaconing_nrf51422_xxAC_s130_2.0.1.dir/__/__/mesh/access/src/access.c.obj
 .bss.m_evt_handler
                0x00000000        0x8 examples/beaconing/CMakeFiles/beaconing_nrf51422_xxAC_s130_2.0.1.dir/__/__/mesh/access/src/access.c.obj
 .bss.m_flash_manager
                0x00000000       0x24 examples/beaconing/CMakeFiles/beaconing_nrf51422_xxAC_s130_2.0.1.dir/__/__/mesh/access/src/access.c.obj
 .bss.m_flash_not_ready
                0x00000000        0x1 examples/beaconing/CMakeFiles/beaconing_nrf51422_xxAC_s130_2.0.1.dir/__/__/mesh/access/src/access.c.obj
 .bss.m_metadata_stored
                0x00000000        0x1 examples/beaconing/CMakeFiles/beaconing_nrf51422_xxAC_s130_2.0.1.dir/__/__/mesh/access/src/access.c.obj
 .bss.m_model_pool
                0x00000000       0x68 examples/beaconing/CMakeFiles/beaconing_nrf51422_xxAC_s130_2.0.1.dir/__/__/mesh/access/src/access.c.obj
 .bss.m_subscription_list_pool
                0x00000000       0x10 examples/beaconing/CMakeFiles/beaconing_nrf51422_xxAC_s130_2.0.1.dir/__/__/mesh/access/src/access.c.obj
 .data.flash_add_mem_available_struct.7714
                0x00000000       0x10 examples/beaconing/CMakeFiles/beaconing_nrf51422_xxAC_s130_2.0.1.dir/__/__/mesh/access/src/access.c.obj
 .data.flash_clear_mem_available_struct.7803
                0x00000000       0x10 examples/beaconing/CMakeFiles/beaconing_nrf51422_xxAC_s130_2.0.1.dir/__/__/mesh/access/src/access.c.obj
 .data.flash_store_mem_available_struct.7827
                0x00000000       0x10 examples/beaconing/CMakeFiles/beaconing_nrf51422_xxAC_s130_2.0.1.dir/__/__/mesh/access/src/access.c.obj
 .data.m_default_ttl
                0x00000000        0x1 examples/beaconing/CMakeFiles/beaconing_nrf51422_xxAC_s130_2.0.1.dir/__/__/mesh/access/src/access.c.obj
 .rodata.mesh_evt_cb.str1.1
                0x00000000       0x2f examples/beaconing/CMakeFiles/beaconing_nrf51422_xxAC_s130_2.0.1.dir/__/__/mesh/access/src/access.c.obj
 .rodata.multiply_de_bruijn_bit_position.6642
                0x00000000       0x20 examples/beaconing/CMakeFiles/beaconing_nrf51422_xxAC_s130_2.0.1.dir/__/__/mesh/access/src/access.c.obj
 .rodata.packet_tx.str1.1
                0x00000000       0x13 examples/beaconing/CMakeFiles/beaconing_nrf51422_xxAC_s130_2.0.1.dir/__/__/mesh/access/src/access.c.obj
 .debug_info    0x00000000     0x4480 examples/beaconing/CMakeFiles/beaconing_nrf51422_xxAC_s130_2.0.1.dir/__/__/mesh/access/src/access.c.obj
 .debug_abbrev  0x00000000      0x663 examples/beaconing/CMakeFiles/beaconing_nrf51422_xxAC_s130_2.0.1.dir/__/__/mesh/access/src/access.c.obj
 .debug_loc     0x00000000     0x1f3a examples/beaconing/CMakeFiles/beaconing_nrf51422_xxAC_s130_2.0.1.dir/__/__/mesh/access/src/access.c.obj
 .debug_aranges
                0x00000000      0x1b0 examples/beaconing/CMakeFiles/beaconing_nrf51422_xxAC_s130_2.0.1.dir/__/__/mesh/access/src/access.c.obj
 .debug_ranges  0x00000000      0x730 examples/beaconing/CMakeFiles/beaconing_nrf51422_xxAC_s130_2.0.1.dir/__/__/mesh/access/src/access.c.obj
 .debug_line    0x00000000      0xe87 examples/beaconing/CMakeFiles/beaconing_nrf51422_xxAC_s130_2.0.1.dir/__/__/mesh/access/src/access.c.obj
 .debug_str     0x00000000     0x2b2a examples/beaconing/CMakeFiles/beaconing_nrf51422_xxAC_s130_2.0.1.dir/__/__/mesh/access/src/access.c.obj
 .comment       0x00000000       0x80 examples/beaconing/CMakeFiles/beaconing_nrf51422_xxAC_s130_2.0.1.dir/__/__/mesh/access/src/access.c.obj
 .debug_frame   0x00000000      0x570 examples/beaconing/CMakeFiles/beaconing_nrf51422_xxAC_s130_2.0.1.dir/__/__/mesh/access/src/access.c.obj
 .ARM.attributes
                0x00000000       0x31 examples/beaconing/CMakeFiles/beaconing_nrf51422_xxAC_s130_2.0.1.dir/__/__/mesh/access/src/access.c.obj
 .text          0x00000000        0x0 examples/beaconing/CMakeFiles/beaconing_nrf51422_xxAC_s130_2.0.1.dir/__/__/mesh/access/src/access_reliable.c.obj
 .data          0x00000000        0x0 examples/beaconing/CMakeFiles/beaconing_nrf51422_xxAC_s130_2.0.1.dir/__/__/mesh/access/src/access_reliable.c.obj
 .bss           0x00000000        0x0 examples/beaconing/CMakeFiles/beaconing_nrf51422_xxAC_s130_2.0.1.dir/__/__/mesh/access/src/access_reliable.c.obj
 .text.remove_and_reschedule
                0x00000000       0xe0 examples/beaconing/CMakeFiles/beaconing_nrf51422_xxAC_s130_2.0.1.dir/__/__/mesh/access/src/access_reliable.c.obj
 .text.reliable_timer_cb
                0x00000000      0x150 examples/beaconing/CMakeFiles/beaconing_nrf51422_xxAC_s130_2.0.1.dir/__/__/mesh/access/src/access_reliable.c.obj
 .text.access_reliable_message_rx_cb
                0x00000000       0x80 examples/beaconing/CMakeFiles/beaconing_nrf51422_xxAC_s130_2.0.1.dir/__/__/mesh/access/src/access_reliable.c.obj
 .text.access_reliable_init
                0x00000000       0x1c examples/beaconing/CMakeFiles/beaconing_nrf51422_xxAC_s130_2.0.1.dir/__/__/mesh/access/src/access_reliable.c.obj
 .text.access_reliable_cancel_all
                0x00000000       0x34 examples/beaconing/CMakeFiles/beaconing_nrf51422_xxAC_s130_2.0.1.dir/__/__/mesh/access/src/access_reliable.c.obj
 .text.access_model_reliable_cancel
                0x00000000       0x50 examples/beaconing/CMakeFiles/beaconing_nrf51422_xxAC_s130_2.0.1.dir/__/__/mesh/access/src/access_reliable.c.obj
 .text.access_model_reliable_publish
                0x00000000      0x1c4 examples/beaconing/CMakeFiles/beaconing_nrf51422_xxAC_s130_2.0.1.dir/__/__/mesh/access/src/access_reliable.c.obj
 .bss.m_reliable
                0x00000000       0x74 examples/beaconing/CMakeFiles/beaconing_nrf51422_xxAC_s130_2.0.1.dir/__/__/mesh/access/src/access_reliable.c.obj
 .debug_info    0x00000000     0x1504 examples/beaconing/CMakeFiles/beaconing_nrf51422_xxAC_s130_2.0.1.dir/__/__/mesh/access/src/access_reliable.c.obj
 .debug_abbrev  0x00000000      0x407 examples/beaconing/CMakeFiles/beaconing_nrf51422_xxAC_s130_2.0.1.dir/__/__/mesh/access/src/access_reliable.c.obj
 .debug_loc     0x00000000      0x80f examples/beaconing/CMakeFiles/beaconing_nrf51422_xxAC_s130_2.0.1.dir/__/__/mesh/access/src/access_reliable.c.obj
 .debug_aranges
                0x00000000       0x50 examples/beaconing/CMakeFiles/beaconing_nrf51422_xxAC_s130_2.0.1.dir/__/__/mesh/access/src/access_reliable.c.obj
 .debug_ranges  0x00000000      0x238 examples/beaconing/CMakeFiles/beaconing_nrf51422_xxAC_s130_2.0.1.dir/__/__/mesh/access/src/access_reliable.c.obj
 .debug_line    0x00000000      0x4b5 examples/beaconing/CMakeFiles/beaconing_nrf51422_xxAC_s130_2.0.1.dir/__/__/mesh/access/src/access_reliable.c.obj
 .debug_str     0x00000000      0xc83 examples/beaconing/CMakeFiles/beaconing_nrf51422_xxAC_s130_2.0.1.dir/__/__/mesh/access/src/access_reliable.c.obj
 .comment       0x00000000       0x80 examples/beaconing/CMakeFiles/beaconing_nrf51422_xxAC_s130_2.0.1.dir/__/__/mesh/access/src/access_reliable.c.obj
 .debug_frame   0x00000000       0xd8 examples/beaconing/CMakeFiles/beaconing_nrf51422_xxAC_s130_2.0.1.dir/__/__/mesh/access/src/access_reliable.c.obj
 .ARM.attributes
                0x00000000       0x31 examples/beaconing/CMakeFiles/beaconing_nrf51422_xxAC_s130_2.0.1.dir/__/__/mesh/access/src/access_reliable.c.obj
 .text          0x00000000        0x0 examples/beaconing/CMakeFiles/beaconing_nrf51422_xxAC_s130_2.0.1.dir/__/__/mesh/access/src/device_state_manager.c.obj
 .data          0x00000000        0x0 examples/beaconing/CMakeFiles/beaconing_nrf51422_xxAC_s130_2.0.1.dir/__/__/mesh/access/src/device_state_manager.c.obj
 .bss           0x00000000        0x0 examples/beaconing/CMakeFiles/beaconing_nrf51422_xxAC_s130_2.0.1.dir/__/__/mesh/access/src/device_state_manager.c.obj
 .text.bitfield_set
                0x00000000       0x16 examples/beaconing/CMakeFiles/beaconing_nrf51422_xxAC_s130_2.0.1.dir/__/__/mesh/access/src/device_state_manager.c.obj
 .text.bitfield_clear
                0x00000000       0x16 examples/beaconing/CMakeFiles/beaconing_nrf51422_xxAC_s130_2.0.1.dir/__/__/mesh/access/src/device_state_manager.c.obj
 .text.bitfield_is_all_clear
                0x00000000       0x3a examples/beaconing/CMakeFiles/beaconing_nrf51422_xxAC_s130_2.0.1.dir/__/__/mesh/access/src/device_state_manager.c.obj
 .text.address_handle_virtual_valid
                0x00000000       0x1c examples/beaconing/CMakeFiles/beaconing_nrf51422_xxAC_s130_2.0.1.dir/__/__/mesh/access/src/device_state_manager.c.obj
 .text.net_key_handle_get
                0x00000000       0x4c examples/beaconing/CMakeFiles/beaconing_nrf51422_xxAC_s130_2.0.1.dir/__/__/mesh/access/src/device_state_manager.c.obj
 .text.dev_key_handle_get
                0x00000000       0x34 examples/beaconing/CMakeFiles/beaconing_nrf51422_xxAC_s130_2.0.1.dir/__/__/mesh/access/src/device_state_manager.c.obj
 .text.app_key_handle_get
                0x00000000       0x4c examples/beaconing/CMakeFiles/beaconing_nrf51422_xxAC_s130_2.0.1.dir/__/__/mesh/access/src/device_state_manager.c.obj
 .text.addr_nonvirtual_to_flash_entry
                0x00000000       0x10 examples/beaconing/CMakeFiles/beaconing_nrf51422_xxAC_s130_2.0.1.dir/__/__/mesh/access/src/device_state_manager.c.obj
 .text.flash_mem_listener_callback
                0x00000000       0x20 examples/beaconing/CMakeFiles/beaconing_nrf51422_xxAC_s130_2.0.1.dir/__/__/mesh/access/src/device_state_manager.c.obj
 .text.devkey_set
                0x00000000       0x4c examples/beaconing/CMakeFiles/beaconing_nrf51422_xxAC_s130_2.0.1.dir/__/__/mesh/access/src/device_state_manager.c.obj
 .text.devkey_to_dsm_entry
                0x00000000       0x14 examples/beaconing/CMakeFiles/beaconing_nrf51422_xxAC_s130_2.0.1.dir/__/__/mesh/access/src/device_state_manager.c.obj
 .text.devkey_to_flash_entry
                0x00000000       0x28 examples/beaconing/CMakeFiles/beaconing_nrf51422_xxAC_s130_2.0.1.dir/__/__/mesh/access/src/device_state_manager.c.obj
 .text.addr_virtual_to_flash_entry
                0x00000000       0x1c examples/beaconing/CMakeFiles/beaconing_nrf51422_xxAC_s130_2.0.1.dir/__/__/mesh/access/src/device_state_manager.c.obj
 .text.addr_unicast_to_dsm_entry
                0x00000000       0x10 examples/beaconing/CMakeFiles/beaconing_nrf51422_xxAC_s130_2.0.1.dir/__/__/mesh/access/src/device_state_manager.c.obj
 .text.addr_unicast_to_flash_entry
                0x00000000       0x14 examples/beaconing/CMakeFiles/beaconing_nrf51422_xxAC_s130_2.0.1.dir/__/__/mesh/access/src/device_state_manager.c.obj
 .text.appkey_set
                0x00000000       0x84 examples/beaconing/CMakeFiles/beaconing_nrf51422_xxAC_s130_2.0.1.dir/__/__/mesh/access/src/device_state_manager.c.obj
 .text.appkey_to_flash_entry
                0x00000000       0x54 examples/beaconing/CMakeFiles/beaconing_nrf51422_xxAC_s130_2.0.1.dir/__/__/mesh/access/src/device_state_manager.c.obj
 .text.subnet_to_flash_entry
                0x00000000       0x58 examples/beaconing/CMakeFiles/beaconing_nrf51422_xxAC_s130_2.0.1.dir/__/__/mesh/access/src/device_state_manager.c.obj
 .text.subnet_set
                0x00000000       0xc0 examples/beaconing/CMakeFiles/beaconing_nrf51422_xxAC_s130_2.0.1.dir/__/__/mesh/access/src/device_state_manager.c.obj
 .text.virtual_address_set
                0x00000000       0x58 examples/beaconing/CMakeFiles/beaconing_nrf51422_xxAC_s130_2.0.1.dir/__/__/mesh/access/src/device_state_manager.c.obj
 .text.addr_virtual_to_dsm_entry
                0x00000000       0x10 examples/beaconing/CMakeFiles/beaconing_nrf51422_xxAC_s130_2.0.1.dir/__/__/mesh/access/src/device_state_manager.c.obj
 .text.reset_flash_area
                0x00000000       0x28 examples/beaconing/CMakeFiles/beaconing_nrf51422_xxAC_s130_2.0.1.dir/__/__/mesh/access/src/device_state_manager.c.obj
 .text.flash_save
                0x00000000       0x8c examples/beaconing/CMakeFiles/beaconing_nrf51422_xxAC_s130_2.0.1.dir/__/__/mesh/access/src/device_state_manager.c.obj
 .text.flash_invalidate
                0x00000000       0x74 examples/beaconing/CMakeFiles/beaconing_nrf51422_xxAC_s130_2.0.1.dir/__/__/mesh/access/src/device_state_manager.c.obj
 .text.flash_update_all
                0x00000000       0x74 examples/beaconing/CMakeFiles/beaconing_nrf51422_xxAC_s130_2.0.1.dir/__/__/mesh/access/src/device_state_manager.c.obj
 .text.add_address_virtual
                0x00000000       0x80 examples/beaconing/CMakeFiles/beaconing_nrf51422_xxAC_s130_2.0.1.dir/__/__/mesh/access/src/device_state_manager.c.obj
 .text.appkey_to_dsm_entry
                0x00000000       0x80 examples/beaconing/CMakeFiles/beaconing_nrf51422_xxAC_s130_2.0.1.dir/__/__/mesh/access/src/device_state_manager.c.obj
 .text.subnet_to_dsm_entry
                0x00000000       0x7c examples/beaconing/CMakeFiles/beaconing_nrf51422_xxAC_s130_2.0.1.dir/__/__/mesh/access/src/device_state_manager.c.obj
 .text.flash_operation_complete
                0x00000000       0x58 examples/beaconing/CMakeFiles/beaconing_nrf51422_xxAC_s130_2.0.1.dir/__/__/mesh/access/src/device_state_manager.c.obj
 .text.flash_invalidate_complete
                0x00000000        0xc examples/beaconing/CMakeFiles/beaconing_nrf51422_xxAC_s130_2.0.1.dir/__/__/mesh/access/src/device_state_manager.c.obj
 .text.flash_write_complete
                0x00000000        0xc examples/beaconing/CMakeFiles/beaconing_nrf51422_xxAC_s130_2.0.1.dir/__/__/mesh/access/src/device_state_manager.c.obj
 .text.add_address.part.7
                0x00000000      0x150 examples/beaconing/CMakeFiles/beaconing_nrf51422_xxAC_s130_2.0.1.dir/__/__/mesh/access/src/device_state_manager.c.obj
 .text.address_handle_valid
                0x00000000       0x28 examples/beaconing/CMakeFiles/beaconing_nrf51422_xxAC_s130_2.0.1.dir/__/__/mesh/access/src/device_state_manager.c.obj
 .text.address_handle_nonvirtual_valid
                0x00000000       0x18 examples/beaconing/CMakeFiles/beaconing_nrf51422_xxAC_s130_2.0.1.dir/__/__/mesh/access/src/device_state_manager.c.obj
 .text.address_delete_if_unused
                0x00000000       0x7c examples/beaconing/CMakeFiles/beaconing_nrf51422_xxAC_s130_2.0.1.dir/__/__/mesh/access/src/device_state_manager.c.obj
 .text.addr_nonvirtual_to_dsm_entry
                0x00000000       0x34 examples/beaconing/CMakeFiles/beaconing_nrf51422_xxAC_s130_2.0.1.dir/__/__/mesh/access/src/device_state_manager.c.obj
 .text.dsm_flash_config_load
                0x00000000      0x124 examples/beaconing/CMakeFiles/beaconing_nrf51422_xxAC_s130_2.0.1.dir/__/__/mesh/access/src/device_state_manager.c.obj
 .text.dsm_has_unflashed_data
                0x00000000       0x28 examples/beaconing/CMakeFiles/beaconing_nrf51422_xxAC_s130_2.0.1.dir/__/__/mesh/access/src/device_state_manager.c.obj
 .text.dsm_flash_area_get
                0x00000000       0x10 examples/beaconing/CMakeFiles/beaconing_nrf51422_xxAC_s130_2.0.1.dir/__/__/mesh/access/src/device_state_manager.c.obj
 .text.build_flash_area
                0x00000000       0x90 examples/beaconing/CMakeFiles/beaconing_nrf51422_xxAC_s130_2.0.1.dir/__/__/mesh/access/src/device_state_manager.c.obj
 .text.flash_remove_complete
                0x00000000        0x8 examples/beaconing/CMakeFiles/beaconing_nrf51422_xxAC_s130_2.0.1.dir/__/__/mesh/access/src/device_state_manager.c.obj
 .text.dsm_clear
                0x00000000       0x74 examples/beaconing/CMakeFiles/beaconing_nrf51422_xxAC_s130_2.0.1.dir/__/__/mesh/access/src/device_state_manager.c.obj
 .text.dsm_init
                0x00000000       0x28 examples/beaconing/CMakeFiles/beaconing_nrf51422_xxAC_s130_2.0.1.dir/__/__/mesh/access/src/device_state_manager.c.obj
 .text.dsm_local_unicast_addresses_set
                0x00000000       0x80 examples/beaconing/CMakeFiles/beaconing_nrf51422_xxAC_s130_2.0.1.dir/__/__/mesh/access/src/device_state_manager.c.obj
 .text.dsm_local_unicast_addresses_get
                0x00000000       0x2c examples/beaconing/CMakeFiles/beaconing_nrf51422_xxAC_s130_2.0.1.dir/__/__/mesh/access/src/device_state_manager.c.obj
 .text.dsm_address_publish_add
                0x00000000       0x14 examples/beaconing/CMakeFiles/beaconing_nrf51422_xxAC_s130_2.0.1.dir/__/__/mesh/access/src/device_state_manager.c.obj
 .text.dsm_address_publish_add_handle
                0x00000000       0x38 examples/beaconing/CMakeFiles/beaconing_nrf51422_xxAC_s130_2.0.1.dir/__/__/mesh/access/src/device_state_manager.c.obj
 .text.dsm_address_publish_virtual_add
                0x00000000        0xa examples/beaconing/CMakeFiles/beaconing_nrf51422_xxAC_s130_2.0.1.dir/__/__/mesh/access/src/device_state_manager.c.obj
 .text.dsm_address_publish_remove
                0x00000000       0x44 examples/beaconing/CMakeFiles/beaconing_nrf51422_xxAC_s130_2.0.1.dir/__/__/mesh/access/src/device_state_manager.c.obj
 .text.dsm_address_subscription_add
                0x00000000       0x14 examples/beaconing/CMakeFiles/beaconing_nrf51422_xxAC_s130_2.0.1.dir/__/__/mesh/access/src/device_state_manager.c.obj
 .text.dsm_address_subscription_virtual_add
                0x00000000        0xa examples/beaconing/CMakeFiles/beaconing_nrf51422_xxAC_s130_2.0.1.dir/__/__/mesh/access/src/device_state_manager.c.obj
 .text.dsm_address_subscription_add_handle
                0x00000000       0x38 examples/beaconing/CMakeFiles/beaconing_nrf51422_xxAC_s130_2.0.1.dir/__/__/mesh/access/src/device_state_manager.c.obj
 .text.dsm_address_subscription_get
                0x00000000       0x34 examples/beaconing/CMakeFiles/beaconing_nrf51422_xxAC_s130_2.0.1.dir/__/__/mesh/access/src/device_state_manager.c.obj
 .text.dsm_address_get
                0x00000000       0x60 examples/beaconing/CMakeFiles/beaconing_nrf51422_xxAC_s130_2.0.1.dir/__/__/mesh/access/src/device_state_manager.c.obj
 .text.dsm_address_subscription_count_get
                0x00000000       0x58 examples/beaconing/CMakeFiles/beaconing_nrf51422_xxAC_s130_2.0.1.dir/__/__/mesh/access/src/device_state_manager.c.obj
 .text.dsm_address_subscription_remove
                0x00000000       0x64 examples/beaconing/CMakeFiles/beaconing_nrf51422_xxAC_s130_2.0.1.dir/__/__/mesh/access/src/device_state_manager.c.obj
 .text.dsm_address_get_all
                0x00000000       0x68 examples/beaconing/CMakeFiles/beaconing_nrf51422_xxAC_s130_2.0.1.dir/__/__/mesh/access/src/device_state_manager.c.obj
 .text.dsm_address_handle_get
                0x00000000       0x98 examples/beaconing/CMakeFiles/beaconing_nrf51422_xxAC_s130_2.0.1.dir/__/__/mesh/access/src/device_state_manager.c.obj
 .text.dsm_net_key_index_to_subnet_handle
                0x00000000       0x1c examples/beaconing/CMakeFiles/beaconing_nrf51422_xxAC_s130_2.0.1.dir/__/__/mesh/access/src/device_state_manager.c.obj
 .text.dsm_subnet_handle_get
                0x00000000       0x14 examples/beaconing/CMakeFiles/beaconing_nrf51422_xxAC_s130_2.0.1.dir/__/__/mesh/access/src/device_state_manager.c.obj
 .text.dsm_subnet_handle_to_netkey_index
                0x00000000       0x38 examples/beaconing/CMakeFiles/beaconing_nrf51422_xxAC_s130_2.0.1.dir/__/__/mesh/access/src/device_state_manager.c.obj
 .text.dsm_appkey_index_to_appkey_handle
                0x00000000       0x1c examples/beaconing/CMakeFiles/beaconing_nrf51422_xxAC_s130_2.0.1.dir/__/__/mesh/access/src/device_state_manager.c.obj
 .text.dsm_appkey_handle_get
                0x00000000       0x14 examples/beaconing/CMakeFiles/beaconing_nrf51422_xxAC_s130_2.0.1.dir/__/__/mesh/access/src/device_state_manager.c.obj
 .text.dsm_appkey_handle_to_appkey_index
                0x00000000       0x38 examples/beaconing/CMakeFiles/beaconing_nrf51422_xxAC_s130_2.0.1.dir/__/__/mesh/access/src/device_state_manager.c.obj
 .text.dsm_subnet_add
                0x00000000       0x60 examples/beaconing/CMakeFiles/beaconing_nrf51422_xxAC_s130_2.0.1.dir/__/__/mesh/access/src/device_state_manager.c.obj
 .text.dsm_subnet_kr_phase_get
                0x00000000       0x34 examples/beaconing/CMakeFiles/beaconing_nrf51422_xxAC_s130_2.0.1.dir/__/__/mesh/access/src/device_state_manager.c.obj
 .text.dsm_subnet_update
                0x00000000       0xb8 examples/beaconing/CMakeFiles/beaconing_nrf51422_xxAC_s130_2.0.1.dir/__/__/mesh/access/src/device_state_manager.c.obj
 .text.dsm_subnet_update_swap_keys
                0x00000000       0x54 examples/beaconing/CMakeFiles/beaconing_nrf51422_xxAC_s130_2.0.1.dir/__/__/mesh/access/src/device_state_manager.c.obj
 .text.dsm_subnet_update_commit
                0x00000000       0xe0 examples/beaconing/CMakeFiles/beaconing_nrf51422_xxAC_s130_2.0.1.dir/__/__/mesh/access/src/device_state_manager.c.obj
 .text.net_beacon_callback
                0x00000000       0x74 examples/beaconing/CMakeFiles/beaconing_nrf51422_xxAC_s130_2.0.1.dir/__/__/mesh/access/src/device_state_manager.c.obj
 .text.dsm_subnet_get_all
                0x00000000       0x58 examples/beaconing/CMakeFiles/beaconing_nrf51422_xxAC_s130_2.0.1.dir/__/__/mesh/access/src/device_state_manager.c.obj
 .text.dsm_devkey_add
                0x00000000       0x7c examples/beaconing/CMakeFiles/beaconing_nrf51422_xxAC_s130_2.0.1.dir/__/__/mesh/access/src/device_state_manager.c.obj
 .text.dsm_devkey_delete
                0x00000000       0x3c examples/beaconing/CMakeFiles/beaconing_nrf51422_xxAC_s130_2.0.1.dir/__/__/mesh/access/src/device_state_manager.c.obj
 .text.dsm_devkey_handle_get
                0x00000000       0x30 examples/beaconing/CMakeFiles/beaconing_nrf51422_xxAC_s130_2.0.1.dir/__/__/mesh/access/src/device_state_manager.c.obj
 .text.dsm_appkey_add
                0x00000000       0x7c examples/beaconing/CMakeFiles/beaconing_nrf51422_xxAC_s130_2.0.1.dir/__/__/mesh/access/src/device_state_manager.c.obj
 .text.dsm_appkey_update
                0x00000000       0xa0 examples/beaconing/CMakeFiles/beaconing_nrf51422_xxAC_s130_2.0.1.dir/__/__/mesh/access/src/device_state_manager.c.obj
 .text.dsm_appkey_delete
                0x00000000       0x34 examples/beaconing/CMakeFiles/beaconing_nrf51422_xxAC_s130_2.0.1.dir/__/__/mesh/access/src/device_state_manager.c.obj
 .text.dsm_subnet_delete
                0x00000000       0xa8 examples/beaconing/CMakeFiles/beaconing_nrf51422_xxAC_s130_2.0.1.dir/__/__/mesh/access/src/device_state_manager.c.obj
 .text.dsm_appkey_get_all
                0x00000000       0x78 examples/beaconing/CMakeFiles/beaconing_nrf51422_xxAC_s130_2.0.1.dir/__/__/mesh/access/src/device_state_manager.c.obj
 .text.dsm_tx_secmat_get
                0x00000000      0x11c examples/beaconing/CMakeFiles/beaconing_nrf51422_xxAC_s130_2.0.1.dir/__/__/mesh/access/src/device_state_manager.c.obj
 .text.dsm_beacon_secmat_get
                0x00000000       0x38 examples/beaconing/CMakeFiles/beaconing_nrf51422_xxAC_s130_2.0.1.dir/__/__/mesh/access/src/device_state_manager.c.obj
 .text.dsm_net_secmat_from_keyindex_get
                0x00000000       0x3c examples/beaconing/CMakeFiles/beaconing_nrf51422_xxAC_s130_2.0.1.dir/__/__/mesh/access/src/device_state_manager.c.obj
 .text.dsm_proxy_identity_get
                0x00000000        0x4 examples/beaconing/CMakeFiles/beaconing_nrf51422_xxAC_s130_2.0.1.dir/__/__/mesh/access/src/device_state_manager.c.obj
 .bss.m_addr_nonvirtual_needs_flashing
                0x00000000        0x4 examples/beaconing/CMakeFiles/beaconing_nrf51422_xxAC_s130_2.0.1.dir/__/__/mesh/access/src/device_state_manager.c.obj
 .bss.m_addr_unicast_needs_flashing
                0x00000000        0x4 examples/beaconing/CMakeFiles/beaconing_nrf51422_xxAC_s130_2.0.1.dir/__/__/mesh/access/src/device_state_manager.c.obj
 .bss.m_addr_virtual_needs_flashing
                0x00000000        0x4 examples/beaconing/CMakeFiles/beaconing_nrf51422_xxAC_s130_2.0.1.dir/__/__/mesh/access/src/device_state_manager.c.obj
 .bss.m_appkey_needs_flashing
                0x00000000        0x4 examples/beaconing/CMakeFiles/beaconing_nrf51422_xxAC_s130_2.0.1.dir/__/__/mesh/access/src/device_state_manager.c.obj
 .bss.m_devkey_allocated
                0x00000000        0x4 examples/beaconing/CMakeFiles/beaconing_nrf51422_xxAC_s130_2.0.1.dir/__/__/mesh/access/src/device_state_manager.c.obj
 .bss.m_devkey_needs_flashing
                0x00000000        0x4 examples/beaconing/CMakeFiles/beaconing_nrf51422_xxAC_s130_2.0.1.dir/__/__/mesh/access/src/device_state_manager.c.obj
 .bss.m_flash_is_available
                0x00000000        0x1 examples/beaconing/CMakeFiles/beaconing_nrf51422_xxAC_s130_2.0.1.dir/__/__/mesh/access/src/device_state_manager.c.obj
 .bss.m_flash_manager
                0x00000000       0x24 examples/beaconing/CMakeFiles/beaconing_nrf51422_xxAC_s130_2.0.1.dir/__/__/mesh/access/src/device_state_manager.c.obj
 .bss.m_flash_mem_listener_update_all
                0x00000000       0x10 examples/beaconing/CMakeFiles/beaconing_nrf51422_xxAC_s130_2.0.1.dir/__/__/mesh/access/src/device_state_manager.c.obj
 .bss.m_subnet_needs_flashing
                0x00000000        0x4 examples/beaconing/CMakeFiles/beaconing_nrf51422_xxAC_s130_2.0.1.dir/__/__/mesh/access/src/device_state_manager.c.obj
 .data.mem_listener.8022
                0x00000000       0x10 examples/beaconing/CMakeFiles/beaconing_nrf51422_xxAC_s130_2.0.1.dir/__/__/mesh/access/src/device_state_manager.c.obj
 .data.mem_listener.8048
                0x00000000       0x10 examples/beaconing/CMakeFiles/beaconing_nrf51422_xxAC_s130_2.0.1.dir/__/__/mesh/access/src/device_state_manager.c.obj
 .rodata.m_flash_groups
                0x00000000       0xa8 examples/beaconing/CMakeFiles/beaconing_nrf51422_xxAC_s130_2.0.1.dir/__/__/mesh/access/src/device_state_manager.c.obj
 .text          0x00000000        0x0 examples/beaconing/CMakeFiles/beaconing_nrf51422_xxAC_s130_2.0.1.dir/__/nrf_mesh_weak.c.obj
 .data          0x00000000        0x0 examples/beaconing/CMakeFiles/beaconing_nrf51422_xxAC_s130_2.0.1.dir/__/nrf_mesh_weak.c.obj
 .bss           0x00000000        0x0 examples/beaconing/CMakeFiles/beaconing_nrf51422_xxAC_s130_2.0.1.dir/__/nrf_mesh_weak.c.obj
 .text._weak_handler_ptr
                0x00000000        0x4 examples/beaconing/CMakeFiles/beaconing_nrf51422_xxAC_s130_2.0.1.dir/__/nrf_mesh_weak.c.obj
 .text          0x00000000        0x0 examples/beaconing/CMakeFiles/beaconing_nrf51422_xxAC_s130_2.0.1.dir/__/__/external/nRF5_SDK_14.2.0_17b948a/components/toolchain/system_nrf51.c.obj
 .data          0x00000000        0x0 examples/beaconing/CMakeFiles/beaconing_nrf51422_xxAC_s130_2.0.1.dir/__/__/external/nRF5_SDK_14.2.0_17b948a/components/toolchain/system_nrf51.c.obj
 .bss           0x00000000        0x0 examples/beaconing/CMakeFiles/beaconing_nrf51422_xxAC_s130_2.0.1.dir/__/__/external/nRF5_SDK_14.2.0_17b948a/components/toolchain/system_nrf51.c.obj
 .text.SystemCoreClockUpdate
                0x00000000       0x10 examples/beaconing/CMakeFiles/beaconing_nrf51422_xxAC_s130_2.0.1.dir/__/__/external/nRF5_SDK_14.2.0_17b948a/components/toolchain/system_nrf51.c.obj
 .data.SystemCoreClock
                0x00000000        0x4 examples/beaconing/CMakeFiles/beaconing_nrf51422_xxAC_s130_2.0.1.dir/__/__/external/nRF5_SDK_14.2.0_17b948a/components/toolchain/system_nrf51.c.obj
 .data          0x00000000        0x0 examples/beaconing/CMakeFiles/beaconing_nrf51422_xxAC_s130_2.0.1.dir/__/__/external/nRF5_SDK_14.2.0_17b948a/components/toolchain/gcc/gcc_startup_nrf51.S.obj
 .bss           0x00000000        0x0 examples/beaconing/CMakeFiles/beaconing_nrf51422_xxAC_s130_2.0.1.dir/__/__/external/nRF5_SDK_14.2.0_17b948a/components/toolchain/gcc/gcc_startup_nrf51.S.obj
 .text          0x00000000        0x0 mesh/core/libmesh_core_nrf51422_xxAC.a(event.c.obj)
 .data          0x00000000        0x0 mesh/core/libmesh_core_nrf51422_xxAC.a(event.c.obj)
 .bss           0x00000000        0x0 mesh/core/libmesh_core_nrf51422_xxAC.a(event.c.obj)
 .text.event_handler_add
                0x00000000       0x28 mesh/core/libmesh_core_nrf51422_xxAC.a(event.c.obj)
 .text          0x00000000        0x0 mesh/core/libmesh_core_nrf51422_xxAC.a(net_state.c.obj)
 .data          0x00000000        0x0 mesh/core/libmesh_core_nrf51422_xxAC.a(net_state.c.obj)
 .bss           0x00000000        0x0 mesh/core/libmesh_core_nrf51422_xxAC.a(net_state.c.obj)
 .text.net_state_reset
                0x00000000       0x3c mesh/core/libmesh_core_nrf51422_xxAC.a(net_state.c.obj)
 .text.net_state_iv_update_test_mode_set
                0x00000000        0xc mesh/core/libmesh_core_nrf51422_xxAC.a(net_state.c.obj)
 .text.net_state_key_refresh_phase_changed
                0x00000000       0x18 mesh/core/libmesh_core_nrf51422_xxAC.a(net_state.c.obj)
 .data.mem_listener.7204
                0x00000000       0x10 mesh/core/libmesh_core_nrf51422_xxAC.a(net_state.c.obj)
 .text          0x00000000        0x0 mesh/core/libmesh_core_nrf51422_xxAC.a(nrf_mesh_utils.c.obj)
 .data          0x00000000        0x0 mesh/core/libmesh_core_nrf51422_xxAC.a(nrf_mesh_utils.c.obj)
 .bss           0x00000000        0x0 mesh/core/libmesh_core_nrf51422_xxAC.a(nrf_mesh_utils.c.obj)
 .text.nrf_mesh_rand_get
                0x00000000       0x14 mesh/core/libmesh_core_nrf51422_xxAC.a(nrf_mesh_utils.c.obj)
 .text.nrf_mesh_gap_address_type_get
                0x00000000       0x40 mesh/core/libmesh_core_nrf51422_xxAC.a(nrf_mesh_utils.c.obj)
 .text          0x00000000        0x0 mesh/core/libmesh_core_nrf51422_xxAC.a(nrf_mesh.c.obj)
 .data          0x00000000        0x0 mesh/core/libmesh_core_nrf51422_xxAC.a(nrf_mesh.c.obj)
 .bss           0x00000000        0x0 mesh/core/libmesh_core_nrf51422_xxAC.a(nrf_mesh.c.obj)
 .text.nrf_mesh_disable
                0x00000000       0x28 mesh/core/libmesh_core_nrf51422_xxAC.a(nrf_mesh.c.obj)
 .text.nrf_mesh_packet_send
                0x00000000        0x8 mesh/core/libmesh_core_nrf51422_xxAC.a(nrf_mesh.c.obj)
 .text.nrf_mesh_process
                0x00000000        0x8 mesh/core/libmesh_core_nrf51422_xxAC.a(nrf_mesh.c.obj)
 .text.nrf_mesh_evt_handler_add
                0x00000000        0x8 mesh/core/libmesh_core_nrf51422_xxAC.a(nrf_mesh.c.obj)
 .text.nrf_mesh_evt_handler_remove
                0x00000000        0x8 mesh/core/libmesh_core_nrf51422_xxAC.a(nrf_mesh.c.obj)
 .text.nrf_mesh_rx_cb_clear
                0x00000000        0xc mesh/core/libmesh_core_nrf51422_xxAC.a(nrf_mesh.c.obj)
 .text          0x00000000        0x0 mesh/core/libmesh_core_nrf51422_xxAC.a(hal.c.obj)
 .data          0x00000000        0x0 mesh/core/libmesh_core_nrf51422_xxAC.a(hal.c.obj)
 .bss           0x00000000        0x0 mesh/core/libmesh_core_nrf51422_xxAC.a(hal.c.obj)
 .text.sd_power_reset_reason_clr
                0x00000000        0x4 mesh/core/libmesh_core_nrf51422_xxAC.a(hal.c.obj)
 .text.sd_power_gpregret_set
                0x00000000        0x4 mesh/core/libmesh_core_nrf51422_xxAC.a(hal.c.obj)
 .text.hal_device_reset
                0x00000000       0x2c mesh/core/libmesh_core_nrf51422_xxAC.a(hal.c.obj)
 .text          0x00000000        0x0 mesh/core/libmesh_core_nrf51422_xxAC.a(timer_scheduler.c.obj)
 .data          0x00000000        0x0 mesh/core/libmesh_core_nrf51422_xxAC.a(timer_scheduler.c.obj)
 .bss           0x00000000        0x0 mesh/core/libmesh_core_nrf51422_xxAC.a(timer_scheduler.c.obj)
 .text          0x00000000        0x0 mesh/core/libmesh_core_nrf51422_xxAC.a(timer.c.obj)
 .data          0x00000000        0x0 mesh/core/libmesh_core_nrf51422_xxAC.a(timer.c.obj)
 .bss           0x00000000        0x0 mesh/core/libmesh_core_nrf51422_xxAC.a(timer.c.obj)
 .text.timer_order_cb_ppi
                0x00000000       0xc8 mesh/core/libmesh_core_nrf51422_xxAC.a(timer.c.obj)
 .text.timer_order_ppi
                0x00000000       0xc4 mesh/core/libmesh_core_nrf51422_xxAC.a(timer.c.obj)
 .text.timer_abort
                0x00000000       0x7c mesh/core/libmesh_core_nrf51422_xxAC.a(timer.c.obj)
 .text          0x00000000        0x0 mesh/core/libmesh_core_nrf51422_xxAC.a(ticker.c.obj)
 .data          0x00000000        0x0 mesh/core/libmesh_core_nrf51422_xxAC.a(ticker.c.obj)
 .bss           0x00000000        0x0 mesh/core/libmesh_core_nrf51422_xxAC.a(ticker.c.obj)
 .text.ticker_get
                0x00000000        0xc mesh/core/libmesh_core_nrf51422_xxAC.a(ticker.c.obj)
 .text          0x00000000        0x0 mesh/core/libmesh_core_nrf51422_xxAC.a(rand.c.obj)
 .data          0x00000000        0x0 mesh/core/libmesh_core_nrf51422_xxAC.a(rand.c.obj)
 .bss           0x00000000        0x0 mesh/core/libmesh_core_nrf51422_xxAC.a(rand.c.obj)
 .text          0x00000000        0x0 mesh/core/libmesh_core_nrf51422_xxAC.a(timeslot.c.obj)
 .data          0x00000000        0x0 mesh/core/libmesh_core_nrf51422_xxAC.a(timeslot.c.obj)
 .bss           0x00000000        0x0 mesh/core/libmesh_core_nrf51422_xxAC.a(timeslot.c.obj)
 .text.timeslot_end_time_get
                0x00000000       0x18 mesh/core/libmesh_core_nrf51422_xxAC.a(timeslot.c.obj)
 .text.timeslot_is_in_ts
                0x00000000        0xc mesh/core/libmesh_core_nrf51422_xxAC.a(timeslot.c.obj)
 .text.timeslot_restart
                0x00000000       0x14 mesh/core/libmesh_core_nrf51422_xxAC.a(timeslot.c.obj)
 .text          0x00000000        0x0 mesh/core/libmesh_core_nrf51422_xxAC.a(bearer_event.c.obj)
 .data          0x00000000        0x0 mesh/core/libmesh_core_nrf51422_xxAC.a(bearer_event.c.obj)
 .bss           0x00000000        0x0 mesh/core/libmesh_core_nrf51422_xxAC.a(bearer_event.c.obj)
 .text.bearer_event_generic_post
                0x00000000       0x34 mesh/core/libmesh_core_nrf51422_xxAC.a(bearer_event.c.obj)
 .text.bearer_event_timer_sch_post
                0x00000000       0x38 mesh/core/libmesh_core_nrf51422_xxAC.a(bearer_event.c.obj)
 .text.bearer_event_in_correct_irq_priority
                0x00000000       0x60 mesh/core/libmesh_core_nrf51422_xxAC.a(bearer_event.c.obj)
 .text          0x00000000        0x0 mesh/core/libmesh_core_nrf51422_xxAC.a(network.c.obj)
 .data          0x00000000        0x0 mesh/core/libmesh_core_nrf51422_xxAC.a(network.c.obj)
 .bss           0x00000000        0x0 mesh/core/libmesh_core_nrf51422_xxAC.a(network.c.obj)
 .text.network_opt_set
                0x00000000       0x68 mesh/core/libmesh_core_nrf51422_xxAC.a(network.c.obj)
 .text.network_packet_discard
                0x00000000       0x40 mesh/core/libmesh_core_nrf51422_xxAC.a(network.c.obj)
 .text          0x00000000        0x0 mesh/core/libmesh_core_nrf51422_xxAC.a(nrf_mesh_keygen.c.obj)
 .data          0x00000000        0x0 mesh/core/libmesh_core_nrf51422_xxAC.a(nrf_mesh_keygen.c.obj)
 .bss           0x00000000        0x0 mesh/core/libmesh_core_nrf51422_xxAC.a(nrf_mesh_keygen.c.obj)
 .text.nrf_mesh_keygen_aid
                0x00000000       0x16 mesh/core/libmesh_core_nrf51422_xxAC.a(nrf_mesh_keygen.c.obj)
 .text.nrf_mesh_keygen_network_secmat
                0x00000000       0x20 mesh/core/libmesh_core_nrf51422_xxAC.a(nrf_mesh_keygen.c.obj)
 .text.nrf_mesh_keygen_beacon_secmat
                0x00000000       0x54 mesh/core/libmesh_core_nrf51422_xxAC.a(nrf_mesh_keygen.c.obj)
 .text.nrf_mesh_keygen_identitykey
                0x00000000       0x4c mesh/core/libmesh_core_nrf51422_xxAC.a(nrf_mesh_keygen.c.obj)
 .text.nrf_mesh_keygen_virtual_address
                0x00000000       0x50 mesh/core/libmesh_core_nrf51422_xxAC.a(nrf_mesh_keygen.c.obj)
 .rodata        0x00000000        0x7 mesh/core/libmesh_core_nrf51422_xxAC.a(nrf_mesh_keygen.c.obj)
 .debug_info    0x00000000      0x4f2 mesh/core/libmesh_core_nrf51422_xxAC.a(nrf_mesh_keygen.c.obj)
 .debug_abbrev  0x00000000      0x158 mesh/core/libmesh_core_nrf51422_xxAC.a(nrf_mesh_keygen.c.obj)
 .debug_loc     0x00000000      0x197 mesh/core/libmesh_core_nrf51422_xxAC.a(nrf_mesh_keygen.c.obj)
 .debug_aranges
                0x00000000       0x40 mesh/core/libmesh_core_nrf51422_xxAC.a(nrf_mesh_keygen.c.obj)
 .debug_ranges  0x00000000       0x30 mesh/core/libmesh_core_nrf51422_xxAC.a(nrf_mesh_keygen.c.obj)
 .debug_line    0x00000000      0x1e8 mesh/core/libmesh_core_nrf51422_xxAC.a(nrf_mesh_keygen.c.obj)
 .debug_str     0x00000000      0x36d mesh/core/libmesh_core_nrf51422_xxAC.a(nrf_mesh_keygen.c.obj)
 .comment       0x00000000       0x80 mesh/core/libmesh_core_nrf51422_xxAC.a(nrf_mesh_keygen.c.obj)
 .debug_frame   0x00000000       0xa4 mesh/core/libmesh_core_nrf51422_xxAC.a(nrf_mesh_keygen.c.obj)
 .ARM.attributes
                0x00000000       0x31 mesh/core/libmesh_core_nrf51422_xxAC.a(nrf_mesh_keygen.c.obj)
 .text          0x00000000        0x0 mesh/core/libmesh_core_nrf51422_xxAC.a(list.c.obj)
 .data          0x00000000        0x0 mesh/core/libmesh_core_nrf51422_xxAC.a(list.c.obj)
 .bss           0x00000000        0x0 mesh/core/libmesh_core_nrf51422_xxAC.a(list.c.obj)
 .text.list_size_get
                0x00000000       0x12 mesh/core/libmesh_core_nrf51422_xxAC.a(list.c.obj)
 .text.list_sorted_add
                0x00000000       0x94 mesh/core/libmesh_core_nrf51422_xxAC.a(list.c.obj)
 .text.list_compare_add
                0x00000000       0x84 mesh/core/libmesh_core_nrf51422_xxAC.a(list.c.obj)
 .text          0x00000000        0x0 mesh/core/libmesh_core_nrf51422_xxAC.a(log.c.obj)
 .data          0x00000000        0x0 mesh/core/libmesh_core_nrf51422_xxAC.a(log.c.obj)
 .bss           0x00000000        0x0 mesh/core/libmesh_core_nrf51422_xxAC.a(log.c.obj)
 .text.log_callback_logview
                0x00000000       0x34 mesh/core/libmesh_core_nrf51422_xxAC.a(log.c.obj)
 .text.log_set_callback
                0x00000000        0xc mesh/core/libmesh_core_nrf51422_xxAC.a(log.c.obj)
 .rodata.log_callback_logview.str1.1
                0x00000000        0xf mesh/core/libmesh_core_nrf51422_xxAC.a(log.c.obj)
 .text          0x00000000        0x0 mesh/core/libmesh_core_nrf51422_xxAC.a(flash_manager.c.obj)
 .data          0x00000000        0x0 mesh/core/libmesh_core_nrf51422_xxAC.a(flash_manager.c.obj)
 .bss           0x00000000        0x0 mesh/core/libmesh_core_nrf51422_xxAC.a(flash_manager.c.obj)
 .text.flash_manager_remove
                0x00000000       0x24 mesh/core/libmesh_core_nrf51422_xxAC.a(flash_manager.c.obj)
 .text.flash_manager_entry_get
                0x00000000       0x4c mesh/core/libmesh_core_nrf51422_xxAC.a(flash_manager.c.obj)
 .text.flash_manager_entry_count_get
                0x00000000       0x5c mesh/core/libmesh_core_nrf51422_xxAC.a(flash_manager.c.obj)
 .text.flash_manager_entry_release
                0x00000000       0x10 mesh/core/libmesh_core_nrf51422_xxAC.a(flash_manager.c.obj)
 .text.flash_manager_action_queue_empty_cb_set
                0x00000000       0x2c mesh/core/libmesh_core_nrf51422_xxAC.a(flash_manager.c.obj)
 .text          0x00000000        0x0 mesh/core/libmesh_core_nrf51422_xxAC.a(beacon.c.obj)
 .data          0x00000000        0x0 mesh/core/libmesh_core_nrf51422_xxAC.a(beacon.c.obj)
 .bss           0x00000000        0x0 mesh/core/libmesh_core_nrf51422_xxAC.a(beacon.c.obj)
 .text          0x00000000        0x0 mesh/core/libmesh_core_nrf51422_xxAC.a(flash_manager_internal.c.obj)
 .data          0x00000000        0x0 mesh/core/libmesh_core_nrf51422_xxAC.a(flash_manager_internal.c.obj)
 .bss           0x00000000        0x0 mesh/core/libmesh_core_nrf51422_xxAC.a(flash_manager_internal.c.obj)
 .text          0x00000000        0x0 mesh/core/libmesh_core_nrf51422_xxAC.a(core_tx.c.obj)
 .data          0x00000000        0x0 mesh/core/libmesh_core_nrf51422_xxAC.a(core_tx.c.obj)
 .bss           0x00000000        0x0 mesh/core/libmesh_core_nrf51422_xxAC.a(core_tx.c.obj)
 .text          0x00000000        0x0 mesh/core/libmesh_core_nrf51422_xxAC.a(heartbeat.c.obj)
 .data          0x00000000        0x0 mesh/core/libmesh_core_nrf51422_xxAC.a(heartbeat.c.obj)
 .bss           0x00000000        0x0 mesh/core/libmesh_core_nrf51422_xxAC.a(heartbeat.c.obj)
 .text.heartbeat_on_feature_change_trigger
                0x00000000       0x58 mesh/core/libmesh_core_nrf51422_xxAC.a(heartbeat.c.obj)
 .text.heartbeat_subscription_set
                0x00000000       0x98 mesh/core/libmesh_core_nrf51422_xxAC.a(heartbeat.c.obj)
 .text.heartbeat_subscription_get
                0x00000000        0x8 mesh/core/libmesh_core_nrf51422_xxAC.a(heartbeat.c.obj)
 .text.heartbeat_config_server_cb_set
                0x00000000       0x44 mesh/core/libmesh_core_nrf51422_xxAC.a(heartbeat.c.obj)
 .text.heartbeat_publication_state_updated
                0x00000000       0x88 mesh/core/libmesh_core_nrf51422_xxAC.a(heartbeat.c.obj)
 .text          0x00000000        0x0 mesh/core/libmesh_core_nrf51422_xxAC.a(net_beacon.c.obj)
 .data          0x00000000        0x0 mesh/core/libmesh_core_nrf51422_xxAC.a(net_beacon.c.obj)
 .bss           0x00000000        0x0 mesh/core/libmesh_core_nrf51422_xxAC.a(net_beacon.c.obj)
 .text.net_beacon_state_set
                0x00000000       0x38 mesh/core/libmesh_core_nrf51422_xxAC.a(net_beacon.c.obj)
 .text.net_beacon_state_get
                0x00000000        0xc mesh/core/libmesh_core_nrf51422_xxAC.a(net_beacon.c.obj)
 .text          0x00000000        0x0 mesh/core/libmesh_core_nrf51422_xxAC.a(core_tx_adv.c.obj)
 .data          0x00000000        0x0 mesh/core/libmesh_core_nrf51422_xxAC.a(core_tx_adv.c.obj)
 .bss           0x00000000        0x0 mesh/core/libmesh_core_nrf51422_xxAC.a(core_tx_adv.c.obj)
 .text.core_tx_adv_count_set
                0x00000000       0x40 mesh/core/libmesh_core_nrf51422_xxAC.a(core_tx_adv.c.obj)
 .text.core_tx_adv_interval_set
                0x00000000       0x34 mesh/core/libmesh_core_nrf51422_xxAC.a(core_tx_adv.c.obj)
 .text.core_tx_adv_address_set
                0x00000000       0x34 mesh/core/libmesh_core_nrf51422_xxAC.a(core_tx_adv.c.obj)
 .text          0x00000000        0x0 mesh/core/libmesh_core_nrf51422_xxAC.a(ad_listener.c.obj)
 .data          0x00000000        0x0 mesh/core/libmesh_core_nrf51422_xxAC.a(ad_listener.c.obj)
 .bss           0x00000000        0x0 mesh/core/libmesh_core_nrf51422_xxAC.a(ad_listener.c.obj)
 .text.ad_listener_unsubscribe
                0x00000000       0x7c mesh/core/libmesh_core_nrf51422_xxAC.a(ad_listener.c.obj)
 .text          0x00000000        0x0 mesh/core/libmesh_core_nrf51422_xxAC.a(ad_type_filter.c.obj)
 .data          0x00000000        0x0 mesh/core/libmesh_core_nrf51422_xxAC.a(ad_type_filter.c.obj)
 .bss           0x00000000        0x0 mesh/core/libmesh_core_nrf51422_xxAC.a(ad_type_filter.c.obj)
 .text.bearer_adtype_remove
                0x00000000       0x20 mesh/core/libmesh_core_nrf51422_xxAC.a(ad_type_filter.c.obj)
 .text.bearer_adtype_clear
                0x00000000       0x14 mesh/core/libmesh_core_nrf51422_xxAC.a(ad_type_filter.c.obj)
 .text.bearer_invalid_length_amount_get
                0x00000000        0xc mesh/core/libmesh_core_nrf51422_xxAC.a(ad_type_filter.c.obj)
 .text.bearer_adtype_filtered_amount_get
                0x00000000        0xc mesh/core/libmesh_core_nrf51422_xxAC.a(ad_type_filter.c.obj)
 .text          0x00000000        0x0 mesh/core/libmesh_core_nrf51422_xxAC.a(advertiser.c.obj)
 .data          0x00000000        0x0 mesh/core/libmesh_core_nrf51422_xxAC.a(advertiser.c.obj)
 .bss           0x00000000        0x0 mesh/core/libmesh_core_nrf51422_xxAC.a(advertiser.c.obj)
 .text.advertiser_disable
                0x00000000        0xe mesh/core/libmesh_core_nrf51422_xxAC.a(advertiser.c.obj)
 .text.advertiser_channels_set
                0x00000000       0x94 mesh/core/libmesh_core_nrf51422_xxAC.a(advertiser.c.obj)
 .text.advertiser_address_set
                0x00000000       0x58 mesh/core/libmesh_core_nrf51422_xxAC.a(advertiser.c.obj)
 .text.advertiser_config_set
                0x00000000       0x48 mesh/core/libmesh_core_nrf51422_xxAC.a(advertiser.c.obj)
 .text.advertiser_config_get
                0x00000000       0x30 mesh/core/libmesh_core_nrf51422_xxAC.a(advertiser.c.obj)
 .text.advertiser_flush
                0x00000000       0x22 mesh/core/libmesh_core_nrf51422_xxAC.a(advertiser.c.obj)
 .text          0x00000000        0x0 mesh/core/libmesh_core_nrf51422_xxAC.a(bearer_handler.c.obj)
 .data          0x00000000        0x0 mesh/core/libmesh_core_nrf51422_xxAC.a(bearer_handler.c.obj)
 .bss           0x00000000        0x0 mesh/core/libmesh_core_nrf51422_xxAC.a(bearer_handler.c.obj)
 .text.bearer_handler_stop
                0x00000000       0x20 mesh/core/libmesh_core_nrf51422_xxAC.a(bearer_handler.c.obj)
 .text.bearer_handler_action_fire
                0x00000000       0xcc mesh/core/libmesh_core_nrf51422_xxAC.a(bearer_handler.c.obj)
 .text          0x00000000        0x0 mesh/core/libmesh_core_nrf51422_xxAC.a(broadcast.c.obj)
 .data          0x00000000        0x0 mesh/core/libmesh_core_nrf51422_xxAC.a(broadcast.c.obj)
 .bss           0x00000000        0x0 mesh/core/libmesh_core_nrf51422_xxAC.a(broadcast.c.obj)
 .text          0x00000000        0x0 mesh/core/libmesh_core_nrf51422_xxAC.a(filter_engine.c.obj)
 .data          0x00000000        0x0 mesh/core/libmesh_core_nrf51422_xxAC.a(filter_engine.c.obj)
 .bss           0x00000000        0x0 mesh/core/libmesh_core_nrf51422_xxAC.a(filter_engine.c.obj)
 .text.fen_accepted_amount_get
                0x00000000        0xc mesh/core/libmesh_core_nrf51422_xxAC.a(filter_engine.c.obj)
 .text          0x00000000        0x0 mesh/core/libmesh_core_nrf51422_xxAC.a(radio_config.c.obj)
 .data          0x00000000        0x0 mesh/core/libmesh_core_nrf51422_xxAC.a(radio_config.c.obj)
 .bss           0x00000000        0x0 mesh/core/libmesh_core_nrf51422_xxAC.a(radio_config.c.obj)
 .text.radio_config_access_addr_get
                0x00000000       0x78 mesh/core/libmesh_core_nrf51422_xxAC.a(radio_config.c.obj)
 .text          0x00000000        0x0 mesh/core/libmesh_core_nrf51422_xxAC.a(scanner.c.obj)
 .data          0x00000000        0x0 mesh/core/libmesh_core_nrf51422_xxAC.a(scanner.c.obj)
 .bss           0x00000000        0x0 mesh/core/libmesh_core_nrf51422_xxAC.a(scanner.c.obj)
 .text.scanner_rx_callback_set
                0x00000000       0x30 mesh/core/libmesh_core_nrf51422_xxAC.a(scanner.c.obj)
 .text.scanner_disable
                0x00000000       0x44 mesh/core/libmesh_core_nrf51422_xxAC.a(scanner.c.obj)
 .text.scanner_is_enabled
                0x00000000       0x14 mesh/core/libmesh_core_nrf51422_xxAC.a(scanner.c.obj)
 .text.scanner_stats_get
                0x00000000        0xc mesh/core/libmesh_core_nrf51422_xxAC.a(scanner.c.obj)
 .text.scanner_config_radio_mode_set
                0x00000000       0x10 mesh/core/libmesh_core_nrf51422_xxAC.a(scanner.c.obj)
 .text          0x00000000        0x0 mesh/core/libmesh_core_nrf51422_xxAC.a(internal_event.c.obj)
 .data          0x00000000        0x0 mesh/core/libmesh_core_nrf51422_xxAC.a(internal_event.c.obj)
 .bss           0x00000000        0x0 mesh/core/libmesh_core_nrf51422_xxAC.a(internal_event.c.obj)
 .text.internal_event_init
                0x00000000       0x40 mesh/core/libmesh_core_nrf51422_xxAC.a(internal_event.c.obj)
 .text.internal_event_pop
                0x00000000       0x20 mesh/core/libmesh_core_nrf51422_xxAC.a(internal_event.c.obj)
 .bss.m_internal_event_fifo_buffer
                0x00000000      0x100 mesh/core/libmesh_core_nrf51422_xxAC.a(internal_event.c.obj)
 .text          0x00000000        0x0 mesh/core/libmesh_core_nrf51422_xxAC.a(nrf_mesh_configure.c.obj)
 .data          0x00000000        0x0 mesh/core/libmesh_core_nrf51422_xxAC.a(nrf_mesh_configure.c.obj)
 .bss           0x00000000        0x0 mesh/core/libmesh_core_nrf51422_xxAC.a(nrf_mesh_configure.c.obj)
 .text.nrf_mesh_configure_device_uuid_set
                0x00000000       0x14 mesh/core/libmesh_core_nrf51422_xxAC.a(nrf_mesh_configure.c.obj)
 .text.nrf_mesh_configure_device_uuid_get
                0x00000000        0x8 mesh/core/libmesh_core_nrf51422_xxAC.a(nrf_mesh_configure.c.obj)
 .text          0x00000000        0x0 mesh/core/libmesh_core_nrf51422_xxAC.a(msg_cache.c.obj)
 .data          0x00000000        0x0 mesh/core/libmesh_core_nrf51422_xxAC.a(msg_cache.c.obj)
 .bss           0x00000000        0x0 mesh/core/libmesh_core_nrf51422_xxAC.a(msg_cache.c.obj)
 .text.msg_cache_clear
                0x00000000       0x18 mesh/core/libmesh_core_nrf51422_xxAC.a(msg_cache.c.obj)
 .text          0x00000000        0x0 mesh/core/libmesh_core_nrf51422_xxAC.a(transport.c.obj)
 .data          0x00000000        0x0 mesh/core/libmesh_core_nrf51422_xxAC.a(transport.c.obj)
 .bss           0x00000000        0x0 mesh/core/libmesh_core_nrf51422_xxAC.a(transport.c.obj)
 .text.transport_sar_mem_funcs_set
                0x00000000       0x3c mesh/core/libmesh_core_nrf51422_xxAC.a(transport.c.obj)
 .text.transport_tx
                0x00000000       0x94 mesh/core/libmesh_core_nrf51422_xxAC.a(transport.c.obj)
 .text.transport_opt_set
                0x00000000       0xcc mesh/core/libmesh_core_nrf51422_xxAC.a(transport.c.obj)
 .text          0x00000000        0x0 mesh/core/libmesh_core_nrf51422_xxAC.a(packet_buffer.c.obj)
 .data          0x00000000        0x0 mesh/core/libmesh_core_nrf51422_xxAC.a(packet_buffer.c.obj)
 .bss           0x00000000        0x0 mesh/core/libmesh_core_nrf51422_xxAC.a(packet_buffer.c.obj)
 .text.packet_buffer_max_packet_len_get
                0x00000000       0x38 mesh/core/libmesh_core_nrf51422_xxAC.a(packet_buffer.c.obj)
 .text.packet_buffer_flush
                0x00000000       0x60 mesh/core/libmesh_core_nrf51422_xxAC.a(packet_buffer.c.obj)
 .text          0x00000000        0x0 mesh/core/libmesh_core_nrf51422_xxAC.a(flash_manager_defrag.c.obj)
 .data          0x00000000        0x0 mesh/core/libmesh_core_nrf51422_xxAC.a(flash_manager_defrag.c.obj)
 .bss           0x00000000        0x0 mesh/core/libmesh_core_nrf51422_xxAC.a(flash_manager_defrag.c.obj)
 .text.flash_manager_defragging
                0x00000000       0x44 mesh/core/libmesh_core_nrf51422_xxAC.a(flash_manager_defrag.c.obj)
 .text          0x00000000        0x0 mesh/core/libmesh_core_nrf51422_xxAC.a(fifo.c.obj)
 .data          0x00000000        0x0 mesh/core/libmesh_core_nrf51422_xxAC.a(fifo.c.obj)
 .bss           0x00000000        0x0 mesh/core/libmesh_core_nrf51422_xxAC.a(fifo.c.obj)
 .text.fifo_peek_at
                0x00000000       0x5a mesh/core/libmesh_core_nrf51422_xxAC.a(fifo.c.obj)
 .text.fifo_peek
                0x00000000        0xa mesh/core/libmesh_core_nrf51422_xxAC.a(fifo.c.obj)
 .text.fifo_flush
                0x00000000        0x6 mesh/core/libmesh_core_nrf51422_xxAC.a(fifo.c.obj)
 .text.fifo_get_len
                0x00000000        0x8 mesh/core/libmesh_core_nrf51422_xxAC.a(fifo.c.obj)
 .text.fifo_is_full
                0x00000000       0x12 mesh/core/libmesh_core_nrf51422_xxAC.a(fifo.c.obj)
 .text.fifo_is_empty
                0x00000000        0xe mesh/core/libmesh_core_nrf51422_xxAC.a(fifo.c.obj)
 .text          0x00000000        0x0 mesh/core/libmesh_core_nrf51422_xxAC.a(packet_mgr.c.obj)
 .data          0x00000000        0x0 mesh/core/libmesh_core_nrf51422_xxAC.a(packet_mgr.c.obj)
 .bss           0x00000000        0x0 mesh/core/libmesh_core_nrf51422_xxAC.a(packet_mgr.c.obj)
 .text.packet_mgr_alloc
                0x00000000      0x18c mesh/core/libmesh_core_nrf51422_xxAC.a(packet_mgr.c.obj)
 .text.packet_mgr_free
                0x00000000       0x6c mesh/core/libmesh_core_nrf51422_xxAC.a(packet_mgr.c.obj)
 .text.packet_mgr_get_free_space
                0x00000000       0x1c mesh/core/libmesh_core_nrf51422_xxAC.a(packet_mgr.c.obj)
 .text.packet_mgr_refcount_get
                0x00000000        0x6 mesh/core/libmesh_core_nrf51422_xxAC.a(packet_mgr.c.obj)
 .text.packet_mgr_size_get
                0x00000000        0x6 mesh/core/libmesh_core_nrf51422_xxAC.a(packet_mgr.c.obj)
 .text          0x00000000        0x0 mesh/core/libmesh_core_nrf51422_xxAC.a(mesh_flash.c.obj)
 .data          0x00000000        0x0 mesh/core/libmesh_core_nrf51422_xxAC.a(mesh_flash.c.obj)
 .bss           0x00000000        0x0 mesh/core/libmesh_core_nrf51422_xxAC.a(mesh_flash.c.obj)
 .text.mesh_flash_op_available_slots
                0x00000000       0x2c mesh/core/libmesh_core_nrf51422_xxAC.a(mesh_flash.c.obj)
 .text.mesh_flash_in_progress
                0x00000000       0x38 mesh/core/libmesh_core_nrf51422_xxAC.a(mesh_flash.c.obj)
 .text.mesh_flash_set_suspended
                0x00000000       0x90 mesh/core/libmesh_core_nrf51422_xxAC.a(mesh_flash.c.obj)
 .bss.suspend_count.7515
                0x00000000        0x4 mesh/core/libmesh_core_nrf51422_xxAC.a(mesh_flash.c.obj)
 .text          0x00000000        0x0 mesh/core/libmesh_core_nrf51422_xxAC.a(queue.c.obj)
 .data          0x00000000        0x0 mesh/core/libmesh_core_nrf51422_xxAC.a(queue.c.obj)
 .bss           0x00000000        0x0 mesh/core/libmesh_core_nrf51422_xxAC.a(queue.c.obj)
 .text          0x00000000        0x0 mesh/core/libmesh_core_nrf51422_xxAC.a(nrf_mesh_opt.c.obj)
 .data          0x00000000        0x0 mesh/core/libmesh_core_nrf51422_xxAC.a(nrf_mesh_opt.c.obj)
 .bss           0x00000000        0x0 mesh/core/libmesh_core_nrf51422_xxAC.a(nrf_mesh_opt.c.obj)
 .text.nrf_mesh_opt_set
                0x00000000       0x34 mesh/core/libmesh_core_nrf51422_xxAC.a(nrf_mesh_opt.c.obj)
 .text          0x00000000        0x0 mesh/core/libmesh_core_nrf51422_xxAC.a(enc.c.obj)
 .data          0x00000000        0x0 mesh/core/libmesh_core_nrf51422_xxAC.a(enc.c.obj)
 .bss           0x00000000        0x0 mesh/core/libmesh_core_nrf51422_xxAC.a(enc.c.obj)
 .text.enc_key_generate
                0x00000000        0xa mesh/core/libmesh_core_nrf51422_xxAC.a(enc.c.obj)
 .text.enc_k1   0x00000000       0x58 mesh/core/libmesh_core_nrf51422_xxAC.a(enc.c.obj)
 .text.enc_k2   0x00000000      0x110 mesh/core/libmesh_core_nrf51422_xxAC.a(enc.c.obj)
 .text.enc_k3   0x00000000       0x70 mesh/core/libmesh_core_nrf51422_xxAC.a(enc.c.obj)
 .text.enc_k4   0x00000000       0x74 mesh/core/libmesh_core_nrf51422_xxAC.a(enc.c.obj)
 .rodata        0x00000000       0x15 mesh/core/libmesh_core_nrf51422_xxAC.a(enc.c.obj)
 .text          0x00000000        0x0 mesh/core/libmesh_core_nrf51422_xxAC.a(msqueue.c.obj)
 .data          0x00000000        0x0 mesh/core/libmesh_core_nrf51422_xxAC.a(msqueue.c.obj)
 .bss           0x00000000        0x0 mesh/core/libmesh_core_nrf51422_xxAC.a(msqueue.c.obj)
 .text          0x00000000        0x0 mesh/core/libmesh_core_nrf51422_xxAC.a(ccm_soft.c.obj)
 .data          0x00000000        0x0 mesh/core/libmesh_core_nrf51422_xxAC.a(ccm_soft.c.obj)
 .bss           0x00000000        0x0 mesh/core/libmesh_core_nrf51422_xxAC.a(ccm_soft.c.obj)
 .text          0x00000000        0x0 mesh/core/libmesh_core_nrf51422_xxAC.a(replay_cache.c.obj)
 .data          0x00000000        0x0 mesh/core/libmesh_core_nrf51422_xxAC.a(replay_cache.c.obj)
 .bss           0x00000000        0x0 mesh/core/libmesh_core_nrf51422_xxAC.a(replay_cache.c.obj)
 .text.replay_cache_on_iv_update
                0x00000000       0x28 mesh/core/libmesh_core_nrf51422_xxAC.a(replay_cache.c.obj)
 .text          0x00000000        0x0 mesh/core/libmesh_core_nrf51422_xxAC.a(aes.c.obj)
 .data          0x00000000        0x0 mesh/core/libmesh_core_nrf51422_xxAC.a(aes.c.obj)
 .bss           0x00000000        0x0 mesh/core/libmesh_core_nrf51422_xxAC.a(aes.c.obj)
 .text          0x00000000        0x0 mesh/core/libmesh_core_nrf51422_xxAC.a(nrf_flash.c.obj)
 .data          0x00000000        0x0 mesh/core/libmesh_core_nrf51422_xxAC.a(nrf_flash.c.obj)
 .bss           0x00000000        0x0 mesh/core/libmesh_core_nrf51422_xxAC.a(nrf_flash.c.obj)
 .text          0x00000000        0x0 mesh/core/libmesh_core_nrf51422_xxAC.a(aes_cmac.c.obj)
 .data          0x00000000        0x0 mesh/core/libmesh_core_nrf51422_xxAC.a(aes_cmac.c.obj)
 .bss           0x00000000        0x0 mesh/core/libmesh_core_nrf51422_xxAC.a(aes_cmac.c.obj)
 .text          0x00000000        0x0 external/rtt/librtt_nrf51422_xxAC.a(SEGGER_RTT.c.obj)
 .data          0x00000000        0x0 external/rtt/librtt_nrf51422_xxAC.a(SEGGER_RTT.c.obj)
 .bss           0x00000000        0x0 external/rtt/librtt_nrf51422_xxAC.a(SEGGER_RTT.c.obj)
 .text._PostTerminalSwitch.constprop.0
                0x00000000       0x20 external/rtt/librtt_nrf51422_xxAC.a(SEGGER_RTT.c.obj)
 .text.SEGGER_RTT_ReadNoLock
                0x00000000       0xa4 external/rtt/librtt_nrf51422_xxAC.a(SEGGER_RTT.c.obj)
 .text.SEGGER_RTT_Read
                0x00000000       0x1a external/rtt/librtt_nrf51422_xxAC.a(SEGGER_RTT.c.obj)
 .text.SEGGER_RTT_WriteSkipNoLock
                0x00000000       0xb0 external/rtt/librtt_nrf51422_xxAC.a(SEGGER_RTT.c.obj)
 .text.SEGGER_RTT_WriteString
                0x00000000       0x18 external/rtt/librtt_nrf51422_xxAC.a(SEGGER_RTT.c.obj)
 .text.SEGGER_RTT_GetKey
                0x00000000       0x1e external/rtt/librtt_nrf51422_xxAC.a(SEGGER_RTT.c.obj)
 .text.SEGGER_RTT_WaitKey
                0x00000000        0xc external/rtt/librtt_nrf51422_xxAC.a(SEGGER_RTT.c.obj)
 .text.SEGGER_RTT_HasKey
                0x00000000       0x20 external/rtt/librtt_nrf51422_xxAC.a(SEGGER_RTT.c.obj)
 .text.SEGGER_RTT_HasData
                0x00000000       0x14 external/rtt/librtt_nrf51422_xxAC.a(SEGGER_RTT.c.obj)
 .text.SEGGER_RTT_AllocDownBuffer
                0x00000000       0x64 external/rtt/librtt_nrf51422_xxAC.a(SEGGER_RTT.c.obj)
 .text.SEGGER_RTT_AllocUpBuffer
                0x00000000       0x68 external/rtt/librtt_nrf51422_xxAC.a(SEGGER_RTT.c.obj)
 .text.SEGGER_RTT_ConfigUpBuffer
                0x00000000       0x60 external/rtt/librtt_nrf51422_xxAC.a(SEGGER_RTT.c.obj)
 .text.SEGGER_RTT_ConfigDownBuffer
                0x00000000       0x5c external/rtt/librtt_nrf51422_xxAC.a(SEGGER_RTT.c.obj)
 .text.SEGGER_RTT_SetNameUpBuffer
                0x00000000       0x3c external/rtt/librtt_nrf51422_xxAC.a(SEGGER_RTT.c.obj)
 .text.SEGGER_RTT_SetNameDownBuffer
                0x00000000       0x3c external/rtt/librtt_nrf51422_xxAC.a(SEGGER_RTT.c.obj)
 .text.SEGGER_RTT_Init
                0x00000000       0x14 external/rtt/librtt_nrf51422_xxAC.a(SEGGER_RTT.c.obj)
 .text.SEGGER_RTT_SetTerminal
                0x00000000       0x80 external/rtt/librtt_nrf51422_xxAC.a(SEGGER_RTT.c.obj)
 .text.SEGGER_RTT_TerminalOut
                0x00000000       0xa0 external/rtt/librtt_nrf51422_xxAC.a(SEGGER_RTT.c.obj)
 .bss._ActiveTerminal
                0x00000000        0x1 external/rtt/librtt_nrf51422_xxAC.a(SEGGER_RTT.c.obj)
 .rodata._aTerminalId
                0x00000000       0x10 external/rtt/librtt_nrf51422_xxAC.a(SEGGER_RTT.c.obj)
 .text          0x00000000        0x0 external/rtt/librtt_nrf51422_xxAC.a(SEGGER_RTT_printf.c.obj)
 .data          0x00000000        0x0 external/rtt/librtt_nrf51422_xxAC.a(SEGGER_RTT_printf.c.obj)
 .bss           0x00000000        0x0 external/rtt/librtt_nrf51422_xxAC.a(SEGGER_RTT_printf.c.obj)
 .data          0x00000000        0x0 c:/a/gcc_arm/6/bin/../lib/gcc/arm-none-eabi/6.3.1/thumb/v6-m\libgcc.a(_thumb1_case_uqi.o)
 .bss           0x00000000        0x0 c:/a/gcc_arm/6/bin/../lib/gcc/arm-none-eabi/6.3.1/thumb/v6-m\libgcc.a(_thumb1_case_uqi.o)
 .data          0x00000000        0x0 c:/a/gcc_arm/6/bin/../lib/gcc/arm-none-eabi/6.3.1/thumb/v6-m\libgcc.a(_thumb1_case_uhi.o)
 .bss           0x00000000        0x0 c:/a/gcc_arm/6/bin/../lib/gcc/arm-none-eabi/6.3.1/thumb/v6-m\libgcc.a(_thumb1_case_uhi.o)
 .data          0x00000000        0x0 c:/a/gcc_arm/6/bin/../lib/gcc/arm-none-eabi/6.3.1/thumb/v6-m\libgcc.a(_udivsi3.o)
 .bss           0x00000000        0x0 c:/a/gcc_arm/6/bin/../lib/gcc/arm-none-eabi/6.3.1/thumb/v6-m\libgcc.a(_udivsi3.o)
 .data          0x00000000        0x0 c:/a/gcc_arm/6/bin/../lib/gcc/arm-none-eabi/6.3.1/thumb/v6-m\libgcc.a(_divsi3.o)
 .bss           0x00000000        0x0 c:/a/gcc_arm/6/bin/../lib/gcc/arm-none-eabi/6.3.1/thumb/v6-m\libgcc.a(_divsi3.o)
 .data          0x00000000        0x0 c:/a/gcc_arm/6/bin/../lib/gcc/arm-none-eabi/6.3.1/thumb/v6-m\libgcc.a(_dvmd_tls.o)
 .bss           0x00000000        0x0 c:/a/gcc_arm/6/bin/../lib/gcc/arm-none-eabi/6.3.1/thumb/v6-m\libgcc.a(_dvmd_tls.o)
 .data          0x00000000        0x0 c:/a/gcc_arm/6/bin/../lib/gcc/arm-none-eabi/6.3.1/thumb/v6-m\libgcc.a(_muldi3.o)
 .bss           0x00000000        0x0 c:/a/gcc_arm/6/bin/../lib/gcc/arm-none-eabi/6.3.1/thumb/v6-m\libgcc.a(_muldi3.o)
 .text          0x00000000        0x0 c:/a/gcc_arm/6/bin/../lib/gcc/arm-none-eabi/6.3.1/../../../../arm-none-eabi/lib/thumb/v6-m\libg_nano.a(lib_a-exit.o)
 .data          0x00000000        0x0 c:/a/gcc_arm/6/bin/../lib/gcc/arm-none-eabi/6.3.1/../../../../arm-none-eabi/lib/thumb/v6-m\libg_nano.a(lib_a-exit.o)
 .bss           0x00000000        0x0 c:/a/gcc_arm/6/bin/../lib/gcc/arm-none-eabi/6.3.1/../../../../arm-none-eabi/lib/thumb/v6-m\libg_nano.a(lib_a-exit.o)
 .text          0x00000000        0x0 c:/a/gcc_arm/6/bin/../lib/gcc/arm-none-eabi/6.3.1/../../../../arm-none-eabi/lib/thumb/v6-m\libg_nano.a(lib_a-impure.o)
 .data          0x00000000        0x0 c:/a/gcc_arm/6/bin/../lib/gcc/arm-none-eabi/6.3.1/../../../../arm-none-eabi/lib/thumb/v6-m\libg_nano.a(lib_a-impure.o)
 .bss           0x00000000        0x0 c:/a/gcc_arm/6/bin/../lib/gcc/arm-none-eabi/6.3.1/../../../../arm-none-eabi/lib/thumb/v6-m\libg_nano.a(lib_a-impure.o)
 .text          0x00000000        0x0 c:/a/gcc_arm/6/bin/../lib/gcc/arm-none-eabi/6.3.1/../../../../arm-none-eabi/lib/thumb/v6-m\libg_nano.a(lib_a-init.o)
 .data          0x00000000        0x0 c:/a/gcc_arm/6/bin/../lib/gcc/arm-none-eabi/6.3.1/../../../../arm-none-eabi/lib/thumb/v6-m\libg_nano.a(lib_a-init.o)
 .bss           0x00000000        0x0 c:/a/gcc_arm/6/bin/../lib/gcc/arm-none-eabi/6.3.1/../../../../arm-none-eabi/lib/thumb/v6-m\libg_nano.a(lib_a-init.o)
 .text          0x00000000        0x0 c:/a/gcc_arm/6/bin/../lib/gcc/arm-none-eabi/6.3.1/../../../../arm-none-eabi/lib/thumb/v6-m\libg_nano.a(lib_a-malloc.o)
 .data          0x00000000        0x0 c:/a/gcc_arm/6/bin/../lib/gcc/arm-none-eabi/6.3.1/../../../../arm-none-eabi/lib/thumb/v6-m\libg_nano.a(lib_a-malloc.o)
 .bss           0x00000000        0x0 c:/a/gcc_arm/6/bin/../lib/gcc/arm-none-eabi/6.3.1/../../../../arm-none-eabi/lib/thumb/v6-m\libg_nano.a(lib_a-malloc.o)
 .text          0x00000000        0x0 c:/a/gcc_arm/6/bin/../lib/gcc/arm-none-eabi/6.3.1/../../../../arm-none-eabi/lib/thumb/v6-m\libg_nano.a(lib_a-memcmp.o)
 .data          0x00000000        0x0 c:/a/gcc_arm/6/bin/../lib/gcc/arm-none-eabi/6.3.1/../../../../arm-none-eabi/lib/thumb/v6-m\libg_nano.a(lib_a-memcmp.o)
 .bss           0x00000000        0x0 c:/a/gcc_arm/6/bin/../lib/gcc/arm-none-eabi/6.3.1/../../../../arm-none-eabi/lib/thumb/v6-m\libg_nano.a(lib_a-memcmp.o)
 .text          0x00000000        0x0 c:/a/gcc_arm/6/bin/../lib/gcc/arm-none-eabi/6.3.1/../../../../arm-none-eabi/lib/thumb/v6-m\libg_nano.a(lib_a-memcpy-stub.o)
 .data          0x00000000        0x0 c:/a/gcc_arm/6/bin/../lib/gcc/arm-none-eabi/6.3.1/../../../../arm-none-eabi/lib/thumb/v6-m\libg_nano.a(lib_a-memcpy-stub.o)
 .bss           0x00000000        0x0 c:/a/gcc_arm/6/bin/../lib/gcc/arm-none-eabi/6.3.1/../../../../arm-none-eabi/lib/thumb/v6-m\libg_nano.a(lib_a-memcpy-stub.o)
 .text          0x00000000        0x0 c:/a/gcc_arm/6/bin/../lib/gcc/arm-none-eabi/6.3.1/../../../../arm-none-eabi/lib/thumb/v6-m\libg_nano.a(lib_a-memset.o)
 .data          0x00000000        0x0 c:/a/gcc_arm/6/bin/../lib/gcc/arm-none-eabi/6.3.1/../../../../arm-none-eabi/lib/thumb/v6-m\libg_nano.a(lib_a-memset.o)
 .bss           0x00000000        0x0 c:/a/gcc_arm/6/bin/../lib/gcc/arm-none-eabi/6.3.1/../../../../arm-none-eabi/lib/thumb/v6-m\libg_nano.a(lib_a-memset.o)
 .text          0x00000000        0x0 c:/a/gcc_arm/6/bin/../lib/gcc/arm-none-eabi/6.3.1/../../../../arm-none-eabi/lib/thumb/v6-m\libg_nano.a(lib_a-nano-freer.o)
 .data          0x00000000        0x0 c:/a/gcc_arm/6/bin/../lib/gcc/arm-none-eabi/6.3.1/../../../../arm-none-eabi/lib/thumb/v6-m\libg_nano.a(lib_a-nano-freer.o)
 .bss           0x00000000        0x0 c:/a/gcc_arm/6/bin/../lib/gcc/arm-none-eabi/6.3.1/../../../../arm-none-eabi/lib/thumb/v6-m\libg_nano.a(lib_a-nano-freer.o)
 .text          0x00000000        0x0 c:/a/gcc_arm/6/bin/../lib/gcc/arm-none-eabi/6.3.1/../../../../arm-none-eabi/lib/thumb/v6-m\libg_nano.a(lib_a-nano-mallocr.o)
 .data          0x00000000        0x0 c:/a/gcc_arm/6/bin/../lib/gcc/arm-none-eabi/6.3.1/../../../../arm-none-eabi/lib/thumb/v6-m\libg_nano.a(lib_a-nano-mallocr.o)
 .bss           0x00000000        0x0 c:/a/gcc_arm/6/bin/../lib/gcc/arm-none-eabi/6.3.1/../../../../arm-none-eabi/lib/thumb/v6-m\libg_nano.a(lib_a-nano-mallocr.o)
 .text          0x00000000        0x0 c:/a/gcc_arm/6/bin/../lib/gcc/arm-none-eabi/6.3.1/../../../../arm-none-eabi/lib/thumb/v6-m\libg_nano.a(lib_a-sbrkr.o)
 .data          0x00000000        0x0 c:/a/gcc_arm/6/bin/../lib/gcc/arm-none-eabi/6.3.1/../../../../arm-none-eabi/lib/thumb/v6-m\libg_nano.a(lib_a-sbrkr.o)
 .bss           0x00000000        0x0 c:/a/gcc_arm/6/bin/../lib/gcc/arm-none-eabi/6.3.1/../../../../arm-none-eabi/lib/thumb/v6-m\libg_nano.a(lib_a-sbrkr.o)
 .text          0x00000000        0x0 c:/a/gcc_arm/6/bin/../lib/gcc/arm-none-eabi/6.3.1/../../../../arm-none-eabi/lib/thumb/v6-m\libg_nano.a(lib_a-sprintf.o)
 .data          0x00000000        0x0 c:/a/gcc_arm/6/bin/../lib/gcc/arm-none-eabi/6.3.1/../../../../arm-none-eabi/lib/thumb/v6-m\libg_nano.a(lib_a-sprintf.o)
 .bss           0x00000000        0x0 c:/a/gcc_arm/6/bin/../lib/gcc/arm-none-eabi/6.3.1/../../../../arm-none-eabi/lib/thumb/v6-m\libg_nano.a(lib_a-sprintf.o)
 .text._sprintf_r
                0x00000000       0x40 c:/a/gcc_arm/6/bin/../lib/gcc/arm-none-eabi/6.3.1/../../../../arm-none-eabi/lib/thumb/v6-m\libg_nano.a(lib_a-sprintf.o)
 .text          0x00000000        0x0 c:/a/gcc_arm/6/bin/../lib/gcc/arm-none-eabi/6.3.1/../../../../arm-none-eabi/lib/thumb/v6-m\libg_nano.a(lib_a-strcpy.o)
 .data          0x00000000        0x0 c:/a/gcc_arm/6/bin/../lib/gcc/arm-none-eabi/6.3.1/../../../../arm-none-eabi/lib/thumb/v6-m\libg_nano.a(lib_a-strcpy.o)
 .bss           0x00000000        0x0 c:/a/gcc_arm/6/bin/../lib/gcc/arm-none-eabi/6.3.1/../../../../arm-none-eabi/lib/thumb/v6-m\libg_nano.a(lib_a-strcpy.o)
 .text          0x00000000        0xe c:/a/gcc_arm/6/bin/../lib/gcc/arm-none-eabi/6.3.1/../../../../arm-none-eabi/lib/thumb/v6-m\libg_nano.a(lib_a-strlen.o)
 .data          0x00000000        0x0 c:/a/gcc_arm/6/bin/../lib/gcc/arm-none-eabi/6.3.1/../../../../arm-none-eabi/lib/thumb/v6-m\libg_nano.a(lib_a-strlen.o)
 .bss           0x00000000        0x0 c:/a/gcc_arm/6/bin/../lib/gcc/arm-none-eabi/6.3.1/../../../../arm-none-eabi/lib/thumb/v6-m\libg_nano.a(lib_a-strlen.o)
 .ARM.attributes
                0x00000000       0x1c c:/a/gcc_arm/6/bin/../lib/gcc/arm-none-eabi/6.3.1/../../../../arm-none-eabi/lib/thumb/v6-m\libg_nano.a(lib_a-strlen.o)
 .text          0x00000000        0x0 c:/a/gcc_arm/6/bin/../lib/gcc/arm-none-eabi/6.3.1/../../../../arm-none-eabi/lib/thumb/v6-m\libg_nano.a(lib_a-strrchr.o)
 .data          0x00000000        0x0 c:/a/gcc_arm/6/bin/../lib/gcc/arm-none-eabi/6.3.1/../../../../arm-none-eabi/lib/thumb/v6-m\libg_nano.a(lib_a-strrchr.o)
 .bss           0x00000000        0x0 c:/a/gcc_arm/6/bin/../lib/gcc/arm-none-eabi/6.3.1/../../../../arm-none-eabi/lib/thumb/v6-m\libg_nano.a(lib_a-strrchr.o)
 .text          0x00000000        0x0 c:/a/gcc_arm/6/bin/../lib/gcc/arm-none-eabi/6.3.1/../../../../arm-none-eabi/lib/thumb/v6-m\libg_nano.a(lib_a-mlock.o)
 .data          0x00000000        0x0 c:/a/gcc_arm/6/bin/../lib/gcc/arm-none-eabi/6.3.1/../../../../arm-none-eabi/lib/thumb/v6-m\libg_nano.a(lib_a-mlock.o)
 .bss           0x00000000        0x0 c:/a/gcc_arm/6/bin/../lib/gcc/arm-none-eabi/6.3.1/../../../../arm-none-eabi/lib/thumb/v6-m\libg_nano.a(lib_a-mlock.o)
 .text          0x00000000        0x0 c:/a/gcc_arm/6/bin/../lib/gcc/arm-none-eabi/6.3.1/../../../../arm-none-eabi/lib/thumb/v6-m\libg_nano.a(lib_a-nano-svfprintf.o)
 .data          0x00000000        0x0 c:/a/gcc_arm/6/bin/../lib/gcc/arm-none-eabi/6.3.1/../../../../arm-none-eabi/lib/thumb/v6-m\libg_nano.a(lib_a-nano-svfprintf.o)
 .bss           0x00000000        0x0 c:/a/gcc_arm/6/bin/../lib/gcc/arm-none-eabi/6.3.1/../../../../arm-none-eabi/lib/thumb/v6-m\libg_nano.a(lib_a-nano-svfprintf.o)
 .text.__ssprint_r
                0x00000000       0xfc c:/a/gcc_arm/6/bin/../lib/gcc/arm-none-eabi/6.3.1/../../../../arm-none-eabi/lib/thumb/v6-m\libg_nano.a(lib_a-nano-svfprintf.o)
 .text          0x00000000        0x0 c:/a/gcc_arm/6/bin/../lib/gcc/arm-none-eabi/6.3.1/../../../../arm-none-eabi/lib/thumb/v6-m\libg_nano.a(lib_a-nano-vfprintf_i.o)
 .data          0x00000000        0x0 c:/a/gcc_arm/6/bin/../lib/gcc/arm-none-eabi/6.3.1/../../../../arm-none-eabi/lib/thumb/v6-m\libg_nano.a(lib_a-nano-vfprintf_i.o)
 .bss           0x00000000        0x0 c:/a/gcc_arm/6/bin/../lib/gcc/arm-none-eabi/6.3.1/../../../../arm-none-eabi/lib/thumb/v6-m\libg_nano.a(lib_a-nano-vfprintf_i.o)
 .text          0x00000000        0x0 c:/a/gcc_arm/6/bin/../lib/gcc/arm-none-eabi/6.3.1/../../../../arm-none-eabi/lib/thumb/v6-m\libg_nano.a(lib_a-reent.o)
 .data          0x00000000        0x0 c:/a/gcc_arm/6/bin/../lib/gcc/arm-none-eabi/6.3.1/../../../../arm-none-eabi/lib/thumb/v6-m\libg_nano.a(lib_a-reent.o)
 .bss           0x00000000        0x0 c:/a/gcc_arm/6/bin/../lib/gcc/arm-none-eabi/6.3.1/../../../../arm-none-eabi/lib/thumb/v6-m\libg_nano.a(lib_a-reent.o)
 .text.cleanup_glue
                0x00000000       0x1a c:/a/gcc_arm/6/bin/../lib/gcc/arm-none-eabi/6.3.1/../../../../arm-none-eabi/lib/thumb/v6-m\libg_nano.a(lib_a-reent.o)
 .text._reclaim_reent
                0x00000000       0xcc c:/a/gcc_arm/6/bin/../lib/gcc/arm-none-eabi/6.3.1/../../../../arm-none-eabi/lib/thumb/v6-m\libg_nano.a(lib_a-reent.o)
 .text          0x00000000        0x0 c:/a/gcc_arm/6/bin/../lib/gcc/arm-none-eabi/6.3.1/../../../../arm-none-eabi/lib/thumb/v6-m\libg_nano.a(lib_a-strchr.o)
 .data          0x00000000        0x0 c:/a/gcc_arm/6/bin/../lib/gcc/arm-none-eabi/6.3.1/../../../../arm-none-eabi/lib/thumb/v6-m\libg_nano.a(lib_a-strchr.o)
 .bss           0x00000000        0x0 c:/a/gcc_arm/6/bin/../lib/gcc/arm-none-eabi/6.3.1/../../../../arm-none-eabi/lib/thumb/v6-m\libg_nano.a(lib_a-strchr.o)
 .text          0x00000000        0x0 c:/a/gcc_arm/6/bin/../lib/gcc/arm-none-eabi/6.3.1/../../../../arm-none-eabi/lib/thumb/v6-m\libg_nano.a(lib_a-memchr-stub.o)
 .data          0x00000000        0x0 c:/a/gcc_arm/6/bin/../lib/gcc/arm-none-eabi/6.3.1/../../../../arm-none-eabi/lib/thumb/v6-m\libg_nano.a(lib_a-memchr-stub.o)
 .bss           0x00000000        0x0 c:/a/gcc_arm/6/bin/../lib/gcc/arm-none-eabi/6.3.1/../../../../arm-none-eabi/lib/thumb/v6-m\libg_nano.a(lib_a-memchr-stub.o)
 .text          0x00000000        0x0 c:/a/gcc_arm/6/bin/../lib/gcc/arm-none-eabi/6.3.1/../../../../arm-none-eabi/lib/thumb/v6-m\libg_nano.a(lib_a-memmove.o)
 .data          0x00000000        0x0 c:/a/gcc_arm/6/bin/../lib/gcc/arm-none-eabi/6.3.1/../../../../arm-none-eabi/lib/thumb/v6-m\libg_nano.a(lib_a-memmove.o)
 .bss           0x00000000        0x0 c:/a/gcc_arm/6/bin/../lib/gcc/arm-none-eabi/6.3.1/../../../../arm-none-eabi/lib/thumb/v6-m\libg_nano.a(lib_a-memmove.o)
 .text          0x00000000        0x0 c:/a/gcc_arm/6/bin/../lib/gcc/arm-none-eabi/6.3.1/../../../../arm-none-eabi/lib/thumb/v6-m\libg_nano.a(lib_a-nano-reallocr.o)
 .data          0x00000000        0x0 c:/a/gcc_arm/6/bin/../lib/gcc/arm-none-eabi/6.3.1/../../../../arm-none-eabi/lib/thumb/v6-m\libg_nano.a(lib_a-nano-reallocr.o)
 .bss           0x00000000        0x0 c:/a/gcc_arm/6/bin/../lib/gcc/arm-none-eabi/6.3.1/../../../../arm-none-eabi/lib/thumb/v6-m\libg_nano.a(lib_a-nano-reallocr.o)
 .text          0x00000000        0x0 c:/a/gcc_arm/6/bin/../lib/gcc/arm-none-eabi/6.3.1/../../../../arm-none-eabi/lib/thumb/v6-m\libg_nano.a(lib_a-nano-msizer.o)
 .data          0x00000000        0x0 c:/a/gcc_arm/6/bin/../lib/gcc/arm-none-eabi/6.3.1/../../../../arm-none-eabi/lib/thumb/v6-m\libg_nano.a(lib_a-nano-msizer.o)
 .bss           0x00000000        0x0 c:/a/gcc_arm/6/bin/../lib/gcc/arm-none-eabi/6.3.1/../../../../arm-none-eabi/lib/thumb/v6-m\libg_nano.a(lib_a-nano-msizer.o)
 .text          0x00000000        0x0 c:/a/gcc_arm/6/bin/../lib/gcc/arm-none-eabi/6.3.1/thumb/v6-m/crtend.o
 .data          0x00000000        0x0 c:/a/gcc_arm/6/bin/../lib/gcc/arm-none-eabi/6.3.1/thumb/v6-m/crtend.o
 .bss           0x00000000        0x0 c:/a/gcc_arm/6/bin/../lib/gcc/arm-none-eabi/6.3.1/thumb/v6-m/crtend.o
 .text          0x00000000        0x0 c:/a/gcc_arm/6/bin/../lib/gcc/arm-none-eabi/6.3.1/thumb/v6-m/crtn.o
 .data          0x00000000        0x0 c:/a/gcc_arm/6/bin/../lib/gcc/arm-none-eabi/6.3.1/thumb/v6-m/crtn.o
 .bss           0x00000000        0x0 c:/a/gcc_arm/6/bin/../lib/gcc/arm-none-eabi/6.3.1/thumb/v6-m/crtn.o
 .text          0x00000000        0x0 c:/a/gcc_arm/6/bin/../lib/gcc/arm-none-eabi/6.3.1/../../../../arm-none-eabi/lib/thumb/v6-m\libnosys.a(sbrk.o)
 .data          0x00000000        0x0 c:/a/gcc_arm/6/bin/../lib/gcc/arm-none-eabi/6.3.1/../../../../arm-none-eabi/lib/thumb/v6-m\libnosys.a(sbrk.o)
 .bss           0x00000000        0x0 c:/a/gcc_arm/6/bin/../lib/gcc/arm-none-eabi/6.3.1/../../../../arm-none-eabi/lib/thumb/v6-m\libnosys.a(sbrk.o)
 .text          0x00000000        0x0 c:/a/gcc_arm/6/bin/../lib/gcc/arm-none-eabi/6.3.1/../../../../arm-none-eabi/lib/thumb/v6-m\libnosys.a(_exit.o)
 .data          0x00000000        0x0 c:/a/gcc_arm/6/bin/../lib/gcc/arm-none-eabi/6.3.1/../../../../arm-none-eabi/lib/thumb/v6-m\libnosys.a(_exit.o)
 .bss           0x00000000        0x0 c:/a/gcc_arm/6/bin/../lib/gcc/arm-none-eabi/6.3.1/../../../../arm-none-eabi/lib/thumb/v6-m\libnosys.a(_exit.o)

Memory Configuration

Name             Origin             Length             Attributes
FLASH            0x0001b000         0x0001f000         xr
RAM              0x200022d8         0x00005a28         xrw
*default*        0x00000000         0xffffffff

Linker script and memory map


.text           0x0001b000     0xaaf8
 *(.isr_vector)
 .isr_vector    0x0001b000       0xc0 examples/beaconing/CMakeFiles/beaconing_nrf51422_xxAC_s130_2.0.1.dir/__/__/external/nRF5_SDK_14.2.0_17b948a/components/toolchain/gcc/gcc_startup_nrf51.S.obj
                0x0001b000                __isr_vector
 *(.text*)
 .text          0x0001b0c0       0x60 c:/a/gcc_arm/6/bin/../lib/gcc/arm-none-eabi/6.3.1/thumb/v6-m/crtbegin.o
 .text          0x0001b120       0x78 c:/a/gcc_arm/6/bin/../lib/gcc/arm-none-eabi/6.3.1/../../../../arm-none-eabi/lib/thumb/v6-m/crt0.o
                0x0001b120                _start
                0x0001b120                _mainCRTStartup
 .text.sd_app_evt_wait
                0x0001b198        0x4 examples/beaconing/CMakeFiles/beaconing_nrf51422_xxAC_s130_2.0.1.dir/src/main.c.obj
 .text.rx_callback
                0x0001b19c      0x130 examples/beaconing/CMakeFiles/beaconing_nrf51422_xxAC_s130_2.0.1.dir/src/main.c.obj
 .text.startup.main
                0x0001b2cc      0x154 examples/beaconing/CMakeFiles/beaconing_nrf51422_xxAC_s130_2.0.1.dir/src/main.c.obj
                0x0001b2cc                main
 .text.sd_evt_get
                0x0001b420        0x4 examples/beaconing/CMakeFiles/beaconing_nrf51422_xxAC_s130_2.0.1.dir/__/nrf_mesh_sdk.c.obj
 .text.sd_softdevice_enable
                0x0001b424        0x4 examples/beaconing/CMakeFiles/beaconing_nrf51422_xxAC_s130_2.0.1.dir/__/nrf_mesh_sdk.c.obj
 .text.sd_ble_enable
                0x0001b428        0x4 examples/beaconing/CMakeFiles/beaconing_nrf51422_xxAC_s130_2.0.1.dir/__/nrf_mesh_sdk.c.obj
 .text.sd_ble_evt_get
                0x0001b42c        0x4 examples/beaconing/CMakeFiles/beaconing_nrf51422_xxAC_s130_2.0.1.dir/__/nrf_mesh_sdk.c.obj
 .text.sleep_forever
                0x0001b430       0x24 examples/beaconing/CMakeFiles/beaconing_nrf51422_xxAC_s130_2.0.1.dir/__/nrf_mesh_sdk.c.obj
 .text.mesh_assert_handler
                0x0001b454       0x70 examples/beaconing/CMakeFiles/beaconing_nrf51422_xxAC_s130_2.0.1.dir/__/nrf_mesh_sdk.c.obj
                0x0001b454                mesh_assert_handler
 .text.softdevice_assert_handler
                0x0001b4c4       0x7c examples/beaconing/CMakeFiles/beaconing_nrf51422_xxAC_s130_2.0.1.dir/__/nrf_mesh_sdk.c.obj
                0x0001b4c4                softdevice_assert_handler
 .text.app_error_handler
                0x0001b540       0x7c examples/beaconing/CMakeFiles/beaconing_nrf51422_xxAC_s130_2.0.1.dir/__/nrf_mesh_sdk.c.obj
                0x0001b540                app_error_handler
 .text.HardFault_Handler
                0x0001b5bc       0x6c examples/beaconing/CMakeFiles/beaconing_nrf51422_xxAC_s130_2.0.1.dir/__/nrf_mesh_sdk.c.obj
                0x0001b5bc                HardFault_Handler
 .text.SWI2_IRQHandler
                0x0001b628       0x38 examples/beaconing/CMakeFiles/beaconing_nrf51422_xxAC_s130_2.0.1.dir/__/nrf_mesh_sdk.c.obj
                0x0001b628                SWI2_IRQHandler
 .text.mesh_softdevice_enable
                0x0001b660      0x12c examples/beaconing/CMakeFiles/beaconing_nrf51422_xxAC_s130_2.0.1.dir/__/nrf_mesh_sdk.c.obj
                0x0001b660                mesh_softdevice_enable
 .text.mesh_softdevice_setup
                0x0001b78c       0x90 examples/beaconing/CMakeFiles/beaconing_nrf51422_xxAC_s130_2.0.1.dir/__/nrf_mesh_sdk.c.obj
                0x0001b78c                mesh_softdevice_setup
 .text.mesh_core_setup
                0x0001b81c      0x15c examples/beaconing/CMakeFiles/beaconing_nrf51422_xxAC_s130_2.0.1.dir/__/nrf_mesh_sdk.c.obj
                0x0001b81c                mesh_core_setup
 .text.bitfield_get
                0x0001b978       0x18 examples/beaconing/CMakeFiles/beaconing_nrf51422_xxAC_s130_2.0.1.dir/__/__/mesh/access/src/device_state_manager.c.obj
 .text.get_subnet_handle
                0x0001b990       0x54 examples/beaconing/CMakeFiles/beaconing_nrf51422_xxAC_s130_2.0.1.dir/__/__/mesh/access/src/device_state_manager.c.obj
 .text.virtual_address_uuid_index_get
                0x0001b9e4       0x58 examples/beaconing/CMakeFiles/beaconing_nrf51422_xxAC_s130_2.0.1.dir/__/__/mesh/access/src/device_state_manager.c.obj
 .text.get_subnet_handle_by_beacon_info
                0x0001ba3c       0x48 examples/beaconing/CMakeFiles/beaconing_nrf51422_xxAC_s130_2.0.1.dir/__/__/mesh/access/src/device_state_manager.c.obj
 .text.get_app_handle
                0x0001ba84       0x54 examples/beaconing/CMakeFiles/beaconing_nrf51422_xxAC_s130_2.0.1.dir/__/__/mesh/access/src/device_state_manager.c.obj
 .text.nrf_mesh_net_secmat_next_get
                0x0001bad8       0xd0 examples/beaconing/CMakeFiles/beaconing_nrf51422_xxAC_s130_2.0.1.dir/__/__/mesh/access/src/device_state_manager.c.obj
                0x0001bad8                nrf_mesh_net_secmat_next_get
 .text.nrf_mesh_app_secmat_next_get
                0x0001bba8       0xa0 examples/beaconing/CMakeFiles/beaconing_nrf51422_xxAC_s130_2.0.1.dir/__/__/mesh/access/src/device_state_manager.c.obj
                0x0001bba8                nrf_mesh_app_secmat_next_get
 .text.nrf_mesh_devkey_secmat_get
                0x0001bc48       0x34 examples/beaconing/CMakeFiles/beaconing_nrf51422_xxAC_s130_2.0.1.dir/__/__/mesh/access/src/device_state_manager.c.obj
                0x0001bc48                nrf_mesh_devkey_secmat_get
 .text.nrf_mesh_beacon_info_next_get
                0x0001bc7c       0xec examples/beaconing/CMakeFiles/beaconing_nrf51422_xxAC_s130_2.0.1.dir/__/__/mesh/access/src/device_state_manager.c.obj
                0x0001bc7c                nrf_mesh_beacon_info_next_get
 .text.nrf_mesh_rx_address_get
                0x0001bd68      0x108 examples/beaconing/CMakeFiles/beaconing_nrf51422_xxAC_s130_2.0.1.dir/__/__/mesh/access/src/device_state_manager.c.obj
                0x0001bd68                nrf_mesh_rx_address_get
 .text._weak_handler
                0x0001be70        0x4 examples/beaconing/CMakeFiles/beaconing_nrf51422_xxAC_s130_2.0.1.dir/__/nrf_mesh_weak.c.obj
                0x0001be70                nrf_mesh_dfu_init
                0x0001be70                prov_beacon_unprov_packet_in
                0x0001be70                nrf_mesh_dfu_jump_to_bootloader
                0x0001be70                prov_utils_opt_get
                0x0001be70                nrf_mesh_dfu_rx
                0x0001be70                prov_utils_opt_set
                0x0001be70                prov_provisioner_provision
                0x0001be70                nrf_mesh_dfu_bank_info_get
                0x0001be70                prov_provisioner_oob_pubkey
                0x0001be70                nrf_mesh_dfu_request
                0x0001be70                nrf_mesh_dfu_bank_flash
                0x0001be70                _weak_handler
                0x0001be70                prov_provisionee_auth_data
                0x0001be70                nrf_mesh_dfu_relay
                0x0001be70                prov_provisionee_shared_secret
                0x0001be70                nrf_mesh_dfu_abort
                0x0001be70                mesh_flash_op_execute
                0x0001be70                prov_provisionee_init
                0x0001be70                nrf_mesh_dfu_state_get
                0x0001be70                prov_provisioner_shared_secret
                0x0001be70                prov_provisioner_auth_data
                0x0001be70                prov_bearer_adv_packet_in
                0x0001be70                prov_provisioner_oob_use
 .text.SystemInit
                0x0001be74       0xe0 examples/beaconing/CMakeFiles/beaconing_nrf51422_xxAC_s130_2.0.1.dir/__/__/external/nRF5_SDK_14.2.0_17b948a/components/toolchain/system_nrf51.c.obj
                0x0001be74                SystemInit
 .text          0x0001bf54       0x4c examples/beaconing/CMakeFiles/beaconing_nrf51422_xxAC_s130_2.0.1.dir/__/__/external/nRF5_SDK_14.2.0_17b948a/components/toolchain/gcc/gcc_startup_nrf51.S.obj
                0x0001bf54                Reset_Handler
                0x0001bf94                NMI_Handler
                0x0001bf98                SVC_Handler
                0x0001bf9a                PendSV_Handler
                0x0001bf9c                SysTick_Handler
                0x0001bf9e                GPIOTE_IRQHandler
                0x0001bf9e                RTC0_IRQHandler
                0x0001bf9e                POWER_CLOCK_IRQHandler
                0x0001bf9e                SPI0_TWI0_IRQHandler
                0x0001bf9e                LPCOMP_IRQHandler
                0x0001bf9e                SWI4_IRQHandler
                0x0001bf9e                TEMP_IRQHandler
                0x0001bf9e                UART0_IRQHandler
                0x0001bf9e                SWI5_IRQHandler
                0x0001bf9e                TIMER0_IRQHandler
                0x0001bf9e                RADIO_IRQHandler
                0x0001bf9e                SWI0_IRQHandler
                0x0001bf9e                TIMER1_IRQHandler
                0x0001bf9e                ECB_IRQHandler
                0x0001bf9e                Default_Handler
                0x0001bf9e                ADC_IRQHandler
                0x0001bf9e                SWI3_IRQHandler
                0x0001bf9e                CCM_AAR_IRQHandler
                0x0001bf9e                WDT_IRQHandler
                0x0001bf9e                TIMER2_IRQHandler
                0x0001bf9e                RNG_IRQHandler
                0x0001bf9e                SPI1_TWI1_IRQHandler
                0x0001bf9e                RTC1_IRQHandler
                0x0001bf9e                SWI1_IRQHandler
 .text.event_handle
                0x0001bfa0       0x34 mesh/core/libmesh_core_nrf51422_xxAC.a(event.c.obj)
                0x0001bfa0                event_handle
 .text.event_handler_remove
                0x0001bfd4       0x28 mesh/core/libmesh_core_nrf51422_xxAC.a(event.c.obj)
                0x0001bfd4                event_handler_remove
 .text.flash_mem_available
                0x0001bffc       0x20 mesh/core/libmesh_core_nrf51422_xxAC.a(net_state.c.obj)
 .text.flash_store_iv_index
                0x0001c01c       0x34 mesh/core/libmesh_core_nrf51422_xxAC.a(net_state.c.obj)
 .text.seqnum_block_allocate
                0x0001c050       0x50 mesh/core/libmesh_core_nrf51422_xxAC.a(net_state.c.obj)
 .text.flash_write_complete
                0x0001c0a0       0x80 mesh/core/libmesh_core_nrf51422_xxAC.a(net_state.c.obj)
 .text.net_state_recover_from_flash
                0x0001c120       0x94 mesh/core/libmesh_core_nrf51422_xxAC.a(net_state.c.obj)
                0x0001c120                net_state_recover_from_flash
 .text.net_state_flash_area_get
                0x0001c1b4       0x10 mesh/core/libmesh_core_nrf51422_xxAC.a(net_state.c.obj)
                0x0001c1b4                net_state_flash_area_get
 .text.init_flash_storage
                0x0001c1c4       0x40 mesh/core/libmesh_core_nrf51422_xxAC.a(net_state.c.obj)
 .text.net_state_init
                0x0001c204       0x48 mesh/core/libmesh_core_nrf51422_xxAC.a(net_state.c.obj)
                0x0001c204                net_state_init
 .text.net_state_iv_update_start
                0x0001c24c       0x64 mesh/core/libmesh_core_nrf51422_xxAC.a(net_state.c.obj)
                0x0001c24c                net_state_iv_update_start
 .text.iv_update_trigger_if_pending
                0x0001c2b0       0x94 mesh/core/libmesh_core_nrf51422_xxAC.a(net_state.c.obj)
 .text.iv_update_timer_handler
                0x0001c344       0x80 mesh/core/libmesh_core_nrf51422_xxAC.a(net_state.c.obj)
 .text.net_state_seqnum_alloc
                0x0001c3c4       0x68 mesh/core/libmesh_core_nrf51422_xxAC.a(net_state.c.obj)
                0x0001c3c4                net_state_seqnum_alloc
 .text.net_state_iv_index_lock
                0x0001c42c       0x4c mesh/core/libmesh_core_nrf51422_xxAC.a(net_state.c.obj)
                0x0001c42c                net_state_iv_index_lock
 .text.net_state_beacon_received
                0x0001c478       0x98 mesh/core/libmesh_core_nrf51422_xxAC.a(net_state.c.obj)
                0x0001c478                net_state_beacon_received
 .text.net_state_beacon_iv_index_get
                0x0001c510        0xc mesh/core/libmesh_core_nrf51422_xxAC.a(net_state.c.obj)
                0x0001c510                net_state_beacon_iv_index_get
 .text.net_state_tx_iv_index_get
                0x0001c51c       0x14 mesh/core/libmesh_core_nrf51422_xxAC.a(net_state.c.obj)
                0x0001c51c                net_state_tx_iv_index_get
 .text.net_state_rx_iv_index_get
                0x0001c530       0x14 mesh/core/libmesh_core_nrf51422_xxAC.a(net_state.c.obj)
                0x0001c530                net_state_rx_iv_index_get
 .text.net_state_iv_update_get
                0x0001c544        0xc mesh/core/libmesh_core_nrf51422_xxAC.a(net_state.c.obj)
                0x0001c544                net_state_iv_update_get
 .text.nrf_mesh_address_type_get
                0x0001c550       0x14 mesh/core/libmesh_core_nrf51422_xxAC.a(nrf_mesh_utils.c.obj)
                0x0001c550                nrf_mesh_address_type_get
 .text.sd_softdevice_is_enabled
                0x0001c564        0x4 mesh/core/libmesh_core_nrf51422_xxAC.a(nrf_mesh.c.obj)
 .text.nrf_mesh_listen
                0x0001c568      0x138 mesh/core/libmesh_core_nrf51422_xxAC.a(nrf_mesh.c.obj)
 .text.scanner_packet_process_cb
                0x0001c6a0       0x84 mesh/core/libmesh_core_nrf51422_xxAC.a(nrf_mesh.c.obj)
 .text.nrf_mesh_init
                0x0001c724       0xd8 mesh/core/libmesh_core_nrf51422_xxAC.a(nrf_mesh.c.obj)
                0x0001c724                nrf_mesh_init
 .text.nrf_mesh_enable
                0x0001c7fc       0x4c mesh/core/libmesh_core_nrf51422_xxAC.a(nrf_mesh.c.obj)
                0x0001c7fc                nrf_mesh_enable
 .text.nrf_mesh_on_ble_evt
                0x0001c848        0x4 mesh/core/libmesh_core_nrf51422_xxAC.a(nrf_mesh.c.obj)
                0x0001c848                nrf_mesh_on_ble_evt
 .text.nrf_mesh_on_sd_evt
                0x0001c84c        0xa mesh/core/libmesh_core_nrf51422_xxAC.a(nrf_mesh.c.obj)
                0x0001c84c                nrf_mesh_on_sd_evt
 *fill*         0x0001c856        0x2 
 .text.nrf_mesh_rx_cb_set
                0x0001c858        0xc mesh/core/libmesh_core_nrf51422_xxAC.a(nrf_mesh.c.obj)
                0x0001c858                nrf_mesh_rx_cb_set
 .text.hal_lfclk_ppm_get
                0x0001c864       0x14 mesh/core/libmesh_core_nrf51422_xxAC.a(hal.c.obj)
                0x0001c864                hal_lfclk_ppm_get
 .text.add_to_add_list
                0x0001c878       0x4c mesh/core/libmesh_core_nrf51422_xxAC.a(timer_scheduler.c.obj)
 .text.process_dirty_events
                0x0001c8c4       0x64 mesh/core/libmesh_core_nrf51422_xxAC.a(timer_scheduler.c.obj)
 .text.timer_cb
                0x0001c928       0x10 mesh/core/libmesh_core_nrf51422_xxAC.a(timer_scheduler.c.obj)
 .text.add_evt.constprop.0
                0x0001c938       0x70 mesh/core/libmesh_core_nrf51422_xxAC.a(timer_scheduler.c.obj)
 .text.process_add_list
                0x0001c9a8       0x4c mesh/core/libmesh_core_nrf51422_xxAC.a(timer_scheduler.c.obj)
 .text.flag_event_cb
                0x0001c9f4      0x108 mesh/core/libmesh_core_nrf51422_xxAC.a(timer_scheduler.c.obj)
 .text.timer_sch_init
                0x0001cafc       0x24 mesh/core/libmesh_core_nrf51422_xxAC.a(timer_scheduler.c.obj)
                0x0001cafc                timer_sch_init
 .text.timer_sch_schedule
                0x0001cb20       0x54 mesh/core/libmesh_core_nrf51422_xxAC.a(timer_scheduler.c.obj)
                0x0001cb20                timer_sch_schedule
 .text.timer_sch_abort
                0x0001cb74       0x68 mesh/core/libmesh_core_nrf51422_xxAC.a(timer_scheduler.c.obj)
                0x0001cb74                timer_sch_abort
 .text.timer_sch_reschedule
                0x0001cbdc       0x78 mesh/core/libmesh_core_nrf51422_xxAC.a(timer_scheduler.c.obj)
                0x0001cbdc                timer_sch_reschedule
 .text.timer_mut_unlock
                0x0001cc54       0x10 mesh/core/libmesh_core_nrf51422_xxAC.a(timer.c.obj)
 .text.timer_order_cb
                0x0001cc64       0x90 mesh/core/libmesh_core_nrf51422_xxAC.a(timer.c.obj)
                0x0001cc64                timer_order_cb
 .text.timer_now
                0x0001ccf4       0x54 mesh/core/libmesh_core_nrf51422_xxAC.a(timer.c.obj)
                0x0001ccf4                timer_now
 .text.timer_event_handler
                0x0001cd48       0xa4 mesh/core/libmesh_core_nrf51422_xxAC.a(timer.c.obj)
                0x0001cd48                timer_event_handler
 .text.timer_on_ts_begin
                0x0001cdec      0x104 mesh/core/libmesh_core_nrf51422_xxAC.a(timer.c.obj)
                0x0001cdec                timer_on_ts_begin
 .text.timer_on_ts_end
                0x0001cef0       0x64 mesh/core/libmesh_core_nrf51422_xxAC.a(timer.c.obj)
                0x0001cef0                timer_on_ts_end
 .text.timer_cb
                0x0001cf54       0x10 mesh/core/libmesh_core_nrf51422_xxAC.a(ticker.c.obj)
 .text.ticker_init
                0x0001cf64       0x38 mesh/core/libmesh_core_nrf51422_xxAC.a(ticker.c.obj)
                0x0001cf64                ticker_init
 .text.sd_rand_application_bytes_available_get
                0x0001cf9c        0x4 mesh/core/libmesh_core_nrf51422_xxAC.a(rand.c.obj)
 .text.sd_rand_application_vector_get
                0x0001cfa0        0x4 mesh/core/libmesh_core_nrf51422_xxAC.a(rand.c.obj)
 .text.rand_prng_get
                0x0001cfa4       0x2e mesh/core/libmesh_core_nrf51422_xxAC.a(rand.c.obj)
                0x0001cfa4                rand_prng_get
 *fill*         0x0001cfd2        0x2 
 .text.rand_hw_rng_get
                0x0001cfd4       0x4c mesh/core/libmesh_core_nrf51422_xxAC.a(rand.c.obj)
                0x0001cfd4                rand_hw_rng_get
 .text.rand_prng_seed
                0x0001d020       0x30 mesh/core/libmesh_core_nrf51422_xxAC.a(rand.c.obj)
                0x0001d020                rand_prng_seed
 .text.sd_radio_session_open
                0x0001d050        0x4 mesh/core/libmesh_core_nrf51422_xxAC.a(timeslot.c.obj)
 .text.sd_radio_session_close
                0x0001d054        0x4 mesh/core/libmesh_core_nrf51422_xxAC.a(timeslot.c.obj)
 .text.sd_radio_request
                0x0001d058        0x4 mesh/core/libmesh_core_nrf51422_xxAC.a(timeslot.c.obj)
 .text.end_timer_handler
                0x0001d05c       0x2c mesh/core/libmesh_core_nrf51422_xxAC.a(timeslot.c.obj)
 .text.get_end_time.constprop.10
                0x0001d088       0x28 mesh/core/libmesh_core_nrf51422_xxAC.a(timeslot.c.obj)
 .text.handle_extend_end.constprop.3
                0x0001d0b0       0xc4 mesh/core/libmesh_core_nrf51422_xxAC.a(timeslot.c.obj)
 .text.radio_signal_callback
                0x0001d174      0x160 mesh/core/libmesh_core_nrf51422_xxAC.a(timeslot.c.obj)
 .text.timeslot_sd_event_handler
                0x0001d2d4       0x48 mesh/core/libmesh_core_nrf51422_xxAC.a(timeslot.c.obj)
                0x0001d2d4                timeslot_sd_event_handler
 .text.timeslot_init
                0x0001d31c       0x4c mesh/core/libmesh_core_nrf51422_xxAC.a(timeslot.c.obj)
                0x0001d31c                timeslot_init
 .text.timeslot_start
                0x0001d368       0x1c mesh/core/libmesh_core_nrf51422_xxAC.a(timeslot.c.obj)
                0x0001d368                timeslot_start
 .text.timeslot_end_is_pending
                0x0001d384       0x2c mesh/core/libmesh_core_nrf51422_xxAC.a(timeslot.c.obj)
                0x0001d384                timeslot_end_is_pending
 .text.timeslot_start_time_get
                0x0001d3b0        0xc mesh/core/libmesh_core_nrf51422_xxAC.a(timeslot.c.obj)
                0x0001d3b0                timeslot_start_time_get
 .text.timeslot_remaining_time_get
                0x0001d3bc       0x24 mesh/core/libmesh_core_nrf51422_xxAC.a(timeslot.c.obj)
                0x0001d3bc                timeslot_remaining_time_get
 .text.timeslot_is_in_cb
                0x0001d3e0        0xc mesh/core/libmesh_core_nrf51422_xxAC.a(timeslot.c.obj)
                0x0001d3e0                timeslot_is_in_cb
 .text.timeslot_trigger
                0x0001d3ec       0x28 mesh/core/libmesh_core_nrf51422_xxAC.a(timeslot.c.obj)
                0x0001d3ec                timeslot_trigger
 .text.timeslot_stop
                0x0001d414       0x14 mesh/core/libmesh_core_nrf51422_xxAC.a(timeslot.c.obj)
                0x0001d414                timeslot_stop
 .text.timeslot_state_lock
                0x0001d428       0x2c mesh/core/libmesh_core_nrf51422_xxAC.a(timeslot.c.obj)
                0x0001d428                timeslot_state_lock
 .text.trigger_event_handler
                0x0001d454       0x1c mesh/core/libmesh_core_nrf51422_xxAC.a(bearer_event.c.obj)
 .text.evt_push
                0x0001d470       0x20 mesh/core/libmesh_core_nrf51422_xxAC.a(bearer_event.c.obj)
 .text.bearer_event_init
                0x0001d490       0x5c mesh/core/libmesh_core_nrf51422_xxAC.a(bearer_event.c.obj)
                0x0001d490                bearer_event_init
 .text.bearer_event_timer_post
                0x0001d4ec       0x34 mesh/core/libmesh_core_nrf51422_xxAC.a(bearer_event.c.obj)
                0x0001d4ec                bearer_event_timer_post
 .text.bearer_event_critical_section_begin
                0x0001d520       0x54 mesh/core/libmesh_core_nrf51422_xxAC.a(bearer_event.c.obj)
                0x0001d520                bearer_event_critical_section_begin
 .text.bearer_event_critical_section_end
                0x0001d574       0x54 mesh/core/libmesh_core_nrf51422_xxAC.a(bearer_event.c.obj)
                0x0001d574                bearer_event_critical_section_end
 .text.bearer_event_flag_add
                0x0001d5c8       0x54 mesh/core/libmesh_core_nrf51422_xxAC.a(bearer_event.c.obj)
                0x0001d5c8                bearer_event_flag_add
 .text.bearer_event_flag_set
                0x0001d61c       0x50 mesh/core/libmesh_core_nrf51422_xxAC.a(bearer_event.c.obj)
                0x0001d61c                bearer_event_flag_set
 .text.bearer_event_sequential_add
                0x0001d66c       0x4c mesh/core/libmesh_core_nrf51422_xxAC.a(bearer_event.c.obj)
                0x0001d66c                bearer_event_sequential_add
 .text.bearer_event_sequential_post
                0x0001d6b8       0x60 mesh/core/libmesh_core_nrf51422_xxAC.a(bearer_event.c.obj)
                0x0001d6b8                bearer_event_sequential_post
 .text.bearer_event_sequential_pending
                0x0001d718       0x20 mesh/core/libmesh_core_nrf51422_xxAC.a(bearer_event.c.obj)
                0x0001d718                bearer_event_sequential_pending
 .text.bearer_event_handler
                0x0001d738       0xf8 mesh/core/libmesh_core_nrf51422_xxAC.a(bearer_event.c.obj)
                0x0001d738                bearer_event_handler
 .text.QDEC_IRQHandler
                0x0001d830        0x8 mesh/core/libmesh_core_nrf51422_xxAC.a(bearer_event.c.obj)
                0x0001d830                QDEC_IRQHandler
 .text.header_transfuscate
                0x0001d838       0x58 mesh/core/libmesh_core_nrf51422_xxAC.a(network.c.obj)
 .text.allocate_packet
                0x0001d890      0x140 mesh/core/libmesh_core_nrf51422_xxAC.a(network.c.obj)
 .text.network_init
                0x0001d9d0       0x2c mesh/core/libmesh_core_nrf51422_xxAC.a(network.c.obj)
                0x0001d9d0                network_init
 .text.network_opt_get
                0x0001d9fc       0x4c mesh/core/libmesh_core_nrf51422_xxAC.a(network.c.obj)
                0x0001d9fc                network_opt_get
 .text.network_packet_alloc
                0x0001da48       0x58 mesh/core/libmesh_core_nrf51422_xxAC.a(network.c.obj)
                0x0001da48                network_packet_alloc
 .text.network_packet_send
                0x0001daa0      0x154 mesh/core/libmesh_core_nrf51422_xxAC.a(network.c.obj)
                0x0001daa0                network_packet_send
 .text.network_packet_in
                0x0001dbf4      0x4e0 mesh/core/libmesh_core_nrf51422_xxAC.a(network.c.obj)
                0x0001dbf4                network_packet_in
 .text.list_insert
                0x0001e0d4       0x30 mesh/core/libmesh_core_nrf51422_xxAC.a(list.c.obj)
 .text.list_add
                0x0001e104       0x68 mesh/core/libmesh_core_nrf51422_xxAC.a(list.c.obj)
                0x0001e104                list_add
 .text.list_remove
                0x0001e16c       0x50 mesh/core/libmesh_core_nrf51422_xxAC.a(list.c.obj)
                0x0001e16c                list_remove
 .text.log_callback_rtt
                0x0001e1bc       0x28 mesh/core/libmesh_core_nrf51422_xxAC.a(log.c.obj)
                0x0001e1bc                log_callback_rtt
 .text.log_init
                0x0001e1e4       0x1c mesh/core/libmesh_core_nrf51422_xxAC.a(log.c.obj)
                0x0001e1e4                log_init
 .text.log_vprintf
                0x0001e200       0x1c mesh/core/libmesh_core_nrf51422_xxAC.a(log.c.obj)
                0x0001e200                log_vprintf
 .text.log_printf
                0x0001e21c       0x16 mesh/core/libmesh_core_nrf51422_xxAC.a(log.c.obj)
                0x0001e21c                log_printf
 .text.get_area_end
                0x0001e232        0xc mesh/core/libmesh_core_nrf51422_xxAC.a(flash_manager.c.obj)
 *fill*         0x0001e23e        0x2 
 .text.handle_matches_filter
                0x0001e240       0x28 mesh/core/libmesh_core_nrf51422_xxAC.a(flash_manager.c.obj)
 .text.get_packet_buffer
                0x0001e268       0x30 mesh/core/libmesh_core_nrf51422_xxAC.a(flash_manager.c.obj)
 .text.get_entry_action
                0x0001e298       0x30 mesh/core/libmesh_core_nrf51422_xxAC.a(flash_manager.c.obj)
 .text.flash_area_is_blank
                0x0001e2c8       0x50 mesh/core/libmesh_core_nrf51422_xxAC.a(flash_manager.c.obj)
 .text.flash    0x0001e318       0x1e mesh/core/libmesh_core_nrf51422_xxAC.a(flash_manager.c.obj)
 *fill*         0x0001e336        0x2 
 .text.free_packet_buffer
                0x0001e338       0x4c mesh/core/libmesh_core_nrf51422_xxAC.a(flash_manager.c.obj)
 .text.reserve_action_buffer
                0x0001e384       0x20 mesh/core/libmesh_core_nrf51422_xxAC.a(flash_manager.c.obj)
 .text.commit_action_buffer
                0x0001e3a4       0x18 mesh/core/libmesh_core_nrf51422_xxAC.a(flash_manager.c.obj)
 .text.schedule_processing
                0x0001e3bc       0x10 mesh/core/libmesh_core_nrf51422_xxAC.a(flash_manager.c.obj)
 .text.get_next_entry
                0x0001e3cc       0x44 mesh/core/libmesh_core_nrf51422_xxAC.a(flash_manager.c.obj)
 .text.get_last_entry.isra.1
                0x0001e410       0x34 mesh/core/libmesh_core_nrf51422_xxAC.a(flash_manager.c.obj)
 .text.process_action_queue
                0x0001e444      0x4b0 mesh/core/libmesh_core_nrf51422_xxAC.a(flash_manager.c.obj)
 .text.flash_op_ended_callback
                0x0001e8f4       0x24 mesh/core/libmesh_core_nrf51422_xxAC.a(flash_manager.c.obj)
 .text.flash_manager_init
                0x0001e918       0x68 mesh/core/libmesh_core_nrf51422_xxAC.a(flash_manager.c.obj)
                0x0001e918                flash_manager_init
 .text.flash_manager_entry_next_get
                0x0001e980       0x74 mesh/core/libmesh_core_nrf51422_xxAC.a(flash_manager.c.obj)
                0x0001e980                flash_manager_entry_next_get
 .text.flash_manager_entry_alloc
                0x0001e9f4       0x88 mesh/core/libmesh_core_nrf51422_xxAC.a(flash_manager.c.obj)
                0x0001e9f4                flash_manager_entry_alloc
 .text.flash_manager_entry_commit
                0x0001ea7c       0x10 mesh/core/libmesh_core_nrf51422_xxAC.a(flash_manager.c.obj)
                0x0001ea7c                flash_manager_entry_commit
 .text.flash_manager_entry_invalidate
                0x0001ea8c       0x70 mesh/core/libmesh_core_nrf51422_xxAC.a(flash_manager.c.obj)
                0x0001ea8c                flash_manager_entry_invalidate
 .text.flash_manager_add
                0x0001eafc      0x250 mesh/core/libmesh_core_nrf51422_xxAC.a(flash_manager.c.obj)
                0x0001eafc                flash_manager_add
 .text.flash_manager_mem_listener_register
                0x0001ed4c       0x48 mesh/core/libmesh_core_nrf51422_xxAC.a(flash_manager.c.obj)
                0x0001ed4c                flash_manager_mem_listener_register
 .text.flash_manager_is_stable
                0x0001ed94       0x24 mesh/core/libmesh_core_nrf51422_xxAC.a(flash_manager.c.obj)
                0x0001ed94                flash_manager_is_stable
 .text.flash_manager_on_defrag_end
                0x0001edb8       0x5c mesh/core/libmesh_core_nrf51422_xxAC.a(flash_manager.c.obj)
                0x0001edb8                flash_manager_on_defrag_end
 .text.flash_manager_recovery_page_get
                0x0001ee14        0x8 mesh/core/libmesh_core_nrf51422_xxAC.a(flash_manager.c.obj)
                0x0001ee14                flash_manager_recovery_page_get
 .text.beacon_init
                0x0001ee1c       0x4c mesh/core/libmesh_core_nrf51422_xxAC.a(beacon.c.obj)
                0x0001ee1c                beacon_init
 .text.beacon_create
                0x0001ee68       0x46 mesh/core/libmesh_core_nrf51422_xxAC.a(beacon.c.obj)
                0x0001ee68                beacon_create
 *fill*         0x0001eeae        0x2 
 .text.beacon_tx
                0x0001eeb0       0x40 mesh/core/libmesh_core_nrf51422_xxAC.a(beacon.c.obj)
                0x0001eeb0                beacon_tx
 .text.beacon_packet_in
                0x0001eef0      0x164 mesh/core/libmesh_core_nrf51422_xxAC.a(beacon.c.obj)
                0x0001eef0                beacon_packet_in
 .text.entry_get
                0x0001f054       0x80 mesh/core/libmesh_core_nrf51422_xxAC.a(flash_manager_internal.c.obj)
                0x0001f054                entry_get
 .text.is_power_of_two
                0x0001f0d4       0x14 mesh/core/libmesh_core_nrf51422_xxAC.a(core_tx.c.obj)
 .text.bearer_if_get
                0x0001f0e8       0x4c mesh/core/libmesh_core_nrf51422_xxAC.a(core_tx.c.obj)
 .text.core_tx_complete_cb_set
                0x0001f134        0xc mesh/core/libmesh_core_nrf51422_xxAC.a(core_tx.c.obj)
                0x0001f134                core_tx_complete_cb_set
 .text.core_tx_packet_alloc
                0x0001f140       0x98 mesh/core/libmesh_core_nrf51422_xxAC.a(core_tx.c.obj)
                0x0001f140                core_tx_packet_alloc
 .text.core_tx_packet_send
                0x0001f1d8       0x88 mesh/core/libmesh_core_nrf51422_xxAC.a(core_tx.c.obj)
                0x0001f1d8                core_tx_packet_send
 .text.core_tx_packet_discard
                0x0001f260       0x88 mesh/core/libmesh_core_nrf51422_xxAC.a(core_tx.c.obj)
                0x0001f260                core_tx_packet_discard
 .text.core_tx_complete
                0x0001f2e8       0x14 mesh/core/libmesh_core_nrf51422_xxAC.a(core_tx.c.obj)
                0x0001f2e8                core_tx_complete
 .text.core_tx_bearer_register
                0x0001f2fc       0x90 mesh/core/libmesh_core_nrf51422_xxAC.a(core_tx.c.obj)
                0x0001f2fc                core_tx_bearer_register
 .text.heartbeat_subscription_timer_cb
                0x0001f38c       0x1c mesh/core/libmesh_core_nrf51422_xxAC.a(heartbeat.c.obj)
 .text.heartbeat_opcode_handle
                0x0001f3a8       0x74 mesh/core/libmesh_core_nrf51422_xxAC.a(heartbeat.c.obj)
 .text.heartbeat_send
                0x0001f41c       0xcc mesh/core/libmesh_core_nrf51422_xxAC.a(heartbeat.c.obj)
 .text.heartbeat_core_evt_cb
                0x0001f4e8       0xa4 mesh/core/libmesh_core_nrf51422_xxAC.a(heartbeat.c.obj)
 .text.heartbeat_publication_timer_cb
                0x0001f58c       0xd4 mesh/core/libmesh_core_nrf51422_xxAC.a(heartbeat.c.obj)
 .text.heartbeat_init
                0x0001f660       0x98 mesh/core/libmesh_core_nrf51422_xxAC.a(heartbeat.c.obj)
                0x0001f660                heartbeat_init
 .text.make_network_beacon_cmac
                0x0001f6f8       0x22 mesh/core/libmesh_core_nrf51422_xxAC.a(net_beacon.c.obj)
 *fill*         0x0001f71a        0x2 
 .text.network_beacon_tx_cb
                0x0001f71c      0x100 mesh/core/libmesh_core_nrf51422_xxAC.a(net_beacon.c.obj)
 .text.net_beacon_init
                0x0001f81c       0x5c mesh/core/libmesh_core_nrf51422_xxAC.a(net_beacon.c.obj)
                0x0001f81c                net_beacon_init
 .text.net_beacon_packet_in
                0x0001f878      0x12c mesh/core/libmesh_core_nrf51422_xxAC.a(net_beacon.c.obj)
                0x0001f878                net_beacon_packet_in
 .text.packet_discard
                0x0001f9a4       0x18 mesh/core/libmesh_core_nrf51422_xxAC.a(core_tx_adv.c.obj)
 .text.packet_send
                0x0001f9bc       0x18 mesh/core/libmesh_core_nrf51422_xxAC.a(core_tx_adv.c.obj)
 .text.packet_alloc
                0x0001f9d4       0x40 mesh/core/libmesh_core_nrf51422_xxAC.a(core_tx_adv.c.obj)
 .text.adv_tx_complete_callback
                0x0001fa14       0x2c mesh/core/libmesh_core_nrf51422_xxAC.a(core_tx_adv.c.obj)
 .text.core_tx_adv_init
                0x0001fa40       0x58 mesh/core/libmesh_core_nrf51422_xxAC.a(core_tx_adv.c.obj)
                0x0001fa40                core_tx_adv_init
 .text.core_tx_adv_count_get
                0x0001fa98       0x2c mesh/core/libmesh_core_nrf51422_xxAC.a(core_tx_adv.c.obj)
                0x0001fa98                core_tx_adv_count_get
 .text.core_tx_adv_interval_get
                0x0001fac4       0x34 mesh/core/libmesh_core_nrf51422_xxAC.a(core_tx_adv.c.obj)
                0x0001fac4                core_tx_adv_interval_get
 .text.ad_listener_subscribe
                0x0001faf8       0x68 mesh/core/libmesh_core_nrf51422_xxAC.a(ad_listener.c.obj)
                0x0001faf8                ad_listener_subscribe
 .text.ad_listener_process
                0x0001fb60       0x60 mesh/core/libmesh_core_nrf51422_xxAC.a(ad_listener.c.obj)
                0x0001fb60                ad_listener_process
 .text.adtype_filter_handle
                0x0001fbc0       0x6c mesh/core/libmesh_core_nrf51422_xxAC.a(ad_type_filter.c.obj)
 .text.bearer_adtype_filtering_set
                0x0001fc2c       0x24 mesh/core/libmesh_core_nrf51422_xxAC.a(ad_type_filter.c.obj)
                0x0001fc2c                bearer_adtype_filtering_set
 .text.bearer_adtype_add
                0x0001fc50       0x20 mesh/core/libmesh_core_nrf51422_xxAC.a(ad_type_filter.c.obj)
                0x0001fc50                bearer_adtype_add
 .text.bearer_adtype_mode_set
                0x0001fc70       0x28 mesh/core/libmesh_core_nrf51422_xxAC.a(ad_type_filter.c.obj)
                0x0001fc70                bearer_adtype_mode_set
 .text.set_gap_addr_type
                0x0001fc98       0x30 mesh/core/libmesh_core_nrf51422_xxAC.a(advertiser.c.obj)
 .text.tx_complete_event_callback
                0x0001fcc8       0x44 mesh/core/libmesh_core_nrf51422_xxAC.a(advertiser.c.obj)
 .text.broadcast_complete_cb
                0x0001fd0c       0x68 mesh/core/libmesh_core_nrf51422_xxAC.a(advertiser.c.obj)
 .text.schedule_first_time
                0x0001fd74       0x28 mesh/core/libmesh_core_nrf51422_xxAC.a(advertiser.c.obj)
 .text.timeout_event
                0x0001fd9c      0x12c mesh/core/libmesh_core_nrf51422_xxAC.a(advertiser.c.obj)
 .text.advertiser_init
                0x0001fec8       0x10 mesh/core/libmesh_core_nrf51422_xxAC.a(advertiser.c.obj)
                0x0001fec8                advertiser_init
 .text.advertiser_enable
                0x0001fed8       0x2c mesh/core/libmesh_core_nrf51422_xxAC.a(advertiser.c.obj)
                0x0001fed8                advertiser_enable
 .text.advertiser_packet_alloc
                0x0001ff04       0xac mesh/core/libmesh_core_nrf51422_xxAC.a(advertiser.c.obj)
                0x0001ff04                advertiser_packet_alloc
 .text.advertiser_packet_send
                0x0001ffb0       0x74 mesh/core/libmesh_core_nrf51422_xxAC.a(advertiser.c.obj)
                0x0001ffb0                advertiser_packet_send
 .text.advertiser_packet_discard
                0x00020024       0x2c mesh/core/libmesh_core_nrf51422_xxAC.a(advertiser.c.obj)
                0x00020024                advertiser_packet_discard
 .text.advertiser_interval_set
                0x00020050       0x68 mesh/core/libmesh_core_nrf51422_xxAC.a(advertiser.c.obj)
                0x00020050                advertiser_interval_set
 .text.advertiser_address_default_get
                0x000200b8       0x30 mesh/core/libmesh_core_nrf51422_xxAC.a(advertiser.c.obj)
                0x000200b8                advertiser_address_default_get
 .text.advertiser_instance_init
                0x000200e8       0xb4 mesh/core/libmesh_core_nrf51422_xxAC.a(advertiser.c.obj)
                0x000200e8                advertiser_instance_init
 .text.action_switch
                0x0002019c       0xc4 mesh/core/libmesh_core_nrf51422_xxAC.a(bearer_handler.c.obj)
 .text.bearer_handler_init
                0x00020260       0x2c mesh/core/libmesh_core_nrf51422_xxAC.a(bearer_handler.c.obj)
                0x00020260                bearer_handler_init
 .text.bearer_handler_start
                0x0002028c       0x1c mesh/core/libmesh_core_nrf51422_xxAC.a(bearer_handler.c.obj)
                0x0002028c                bearer_handler_start
 .text.bearer_handler_action_enqueue
                0x000202a8       0x9c mesh/core/libmesh_core_nrf51422_xxAC.a(bearer_handler.c.obj)
                0x000202a8                bearer_handler_action_enqueue
 .text.bearer_handler_action_end
                0x00020344       0x7c mesh/core/libmesh_core_nrf51422_xxAC.a(bearer_handler.c.obj)
                0x00020344                bearer_handler_action_end
 .text.bearer_handler_radio_irq_handler
                0x000203c0       0x6c mesh/core/libmesh_core_nrf51422_xxAC.a(bearer_handler.c.obj)
                0x000203c0                bearer_handler_radio_irq_handler
 .text.bearer_handler_timer_irq_handler
                0x0002042c       0x30 mesh/core/libmesh_core_nrf51422_xxAC.a(bearer_handler.c.obj)
                0x0002042c                bearer_handler_timer_irq_handler
 .text.bearer_handler_on_ts_begin
                0x0002045c       0x4c mesh/core/libmesh_core_nrf51422_xxAC.a(bearer_handler.c.obj)
                0x0002045c                bearer_handler_on_ts_begin
 .text.bearer_handler_on_ts_end
                0x000204a8       0x50 mesh/core/libmesh_core_nrf51422_xxAC.a(bearer_handler.c.obj)
                0x000204a8                bearer_handler_on_ts_end
 .text.radio_irq_handler
                0x000204f8       0xbc mesh/core/libmesh_core_nrf51422_xxAC.a(broadcast.c.obj)
 .text.broadcast_start
                0x000205b4       0x98 mesh/core/libmesh_core_nrf51422_xxAC.a(broadcast.c.obj)
 .text.broadcast_send
                0x0002064c       0x80 mesh/core/libmesh_core_nrf51422_xxAC.a(broadcast.c.obj)
                0x0002064c                broadcast_send
 .text.fen_filter_start
                0x000206cc       0x40 mesh/core/libmesh_core_nrf51422_xxAC.a(filter_engine.c.obj)
                0x000206cc                fen_filter_start
 .text.fen_filter_stop
                0x0002070c       0x2c mesh/core/libmesh_core_nrf51422_xxAC.a(filter_engine.c.obj)
                0x0002070c                fen_filter_stop
 .text.fen_filters_apply
                0x00020738       0x34 mesh/core/libmesh_core_nrf51422_xxAC.a(filter_engine.c.obj)
                0x00020738                fen_filters_apply
 .text.radio_config_reset
                0x0002076c       0x48 mesh/core/libmesh_core_nrf51422_xxAC.a(radio_config.c.obj)
                0x0002076c                radio_config_reset
 .text.radio_config_channel_set
                0x000207b4       0x3c mesh/core/libmesh_core_nrf51422_xxAC.a(radio_config.c.obj)
                0x000207b4                radio_config_channel_set
 .text.radio_config_config
                0x000207f0       0xb0 mesh/core/libmesh_core_nrf51422_xxAC.a(radio_config.c.obj)
                0x000207f0                radio_config_config
 .text.radio_config_access_addr_set
                0x000208a0       0x74 mesh/core/libmesh_core_nrf51422_xxAC.a(radio_config.c.obj)
                0x000208a0                radio_config_access_addr_set
 .text.radio_trigger
                0x00020914       0x24 mesh/core/libmesh_core_nrf51422_xxAC.a(scanner.c.obj)
 .text.scan_window_end
                0x00020938       0x14 mesh/core/libmesh_core_nrf51422_xxAC.a(scanner.c.obj)
 .text.scan_window_start
                0x0002094c       0x28 mesh/core/libmesh_core_nrf51422_xxAC.a(scanner.c.obj)
 .text.radio_configure
                0x00020974       0x88 mesh/core/libmesh_core_nrf51422_xxAC.a(scanner.c.obj)
 .text.radio_set_packet
                0x000209fc       0x58 mesh/core/libmesh_core_nrf51422_xxAC.a(scanner.c.obj)
 .text.radio_start
                0x00020a54       0x54 mesh/core/libmesh_core_nrf51422_xxAC.a(scanner.c.obj)
 .text.radio_stop
                0x00020aa8       0x38 mesh/core/libmesh_core_nrf51422_xxAC.a(scanner.c.obj)
 .text.schedule_timers
                0x00020ae0       0x34 mesh/core/libmesh_core_nrf51422_xxAC.a(scanner.c.obj)
 .text.scanner_radio_start
                0x00020b14       0x28 mesh/core/libmesh_core_nrf51422_xxAC.a(scanner.c.obj)
                0x00020b14                scanner_radio_start
 .text.scanner_radio_stop
                0x00020b3c       0x14 mesh/core/libmesh_core_nrf51422_xxAC.a(scanner.c.obj)
                0x00020b3c                scanner_radio_stop
 .text.scanner_radio_irq_handler
                0x00020b50      0x144 mesh/core/libmesh_core_nrf51422_xxAC.a(scanner.c.obj)
                0x00020b50                scanner_radio_irq_handler
 .text.scanner_enable
                0x00020c94       0x34 mesh/core/libmesh_core_nrf51422_xxAC.a(scanner.c.obj)
                0x00020c94                scanner_enable
 .text.scanner_packet_release
                0x00020cc8       0x38 mesh/core/libmesh_core_nrf51422_xxAC.a(scanner.c.obj)
                0x00020cc8                scanner_packet_release
 .text.scanner_rx
                0x00020d00       0x34 mesh/core/libmesh_core_nrf51422_xxAC.a(scanner.c.obj)
                0x00020d00                scanner_rx
 .text.scanner_rx_pending
                0x00020d34       0x10 mesh/core/libmesh_core_nrf51422_xxAC.a(scanner.c.obj)
                0x00020d34                scanner_rx_pending
 .text.scanner_config_scan_time_set
                0x00020d44       0x6c mesh/core/libmesh_core_nrf51422_xxAC.a(scanner.c.obj)
                0x00020d44                scanner_config_scan_time_set
 .text.scanner_config_channels_set
                0x00020db0       0x68 mesh/core/libmesh_core_nrf51422_xxAC.a(scanner.c.obj)
                0x00020db0                scanner_config_channels_set
 .text.scanner_config_access_addresses_set
                0x00020e18       0x44 mesh/core/libmesh_core_nrf51422_xxAC.a(scanner.c.obj)
                0x00020e18                scanner_config_access_addresses_set
 .text.scanner_config_reset
                0x00020e5c       0x44 mesh/core/libmesh_core_nrf51422_xxAC.a(scanner.c.obj)
                0x00020e5c                scanner_config_reset
 .text.scanner_init
                0x00020ea0       0x54 mesh/core/libmesh_core_nrf51422_xxAC.a(scanner.c.obj)
                0x00020ea0                scanner_init
 .text.internal_event_push
                0x00020ef4       0x30 mesh/core/libmesh_core_nrf51422_xxAC.a(internal_event.c.obj)
                0x00020ef4                internal_event_push
 .text.nrf_mesh_configure_device_uuid_reset
                0x00020f24       0x28 mesh/core/libmesh_core_nrf51422_xxAC.a(nrf_mesh_configure.c.obj)
                0x00020f24                nrf_mesh_configure_device_uuid_reset
 .text.msg_cache_init
                0x00020f4c       0x28 mesh/core/libmesh_core_nrf51422_xxAC.a(msg_cache.c.obj)
                0x00020f4c                msg_cache_init
 .text.msg_cache_entry_exists
                0x00020f74       0x40 mesh/core/libmesh_core_nrf51422_xxAC.a(msg_cache.c.obj)
                0x00020f74                msg_cache_entry_exists
 .text.msg_cache_entry_add
                0x00020fb4       0x2c mesh/core/libmesh_core_nrf51422_xxAC.a(msg_cache.c.obj)
                0x00020fb4                msg_cache_entry_add
 .text.block_ack_full
                0x00020fe0       0x2c mesh/core/libmesh_core_nrf51422_xxAC.a(transport.c.obj)
 .text.seqauth_sequence_number_get
                0x0002100c       0x18 mesh/core/libmesh_core_nrf51422_xxAC.a(transport.c.obj)
 .text.sar_rx_session_mark_as_handled
                0x00021024       0x54 mesh/core/libmesh_core_nrf51422_xxAC.a(transport.c.obj)
 .text.sar_ctx_find
                0x00021078       0x40 mesh/core/libmesh_core_nrf51422_xxAC.a(transport.c.obj)
 .text.control_packet_callback_get
                0x000210b8       0x44 mesh/core/libmesh_core_nrf51422_xxAC.a(transport.c.obj)
 .text.m_send_sar_cancel_event
                0x000210fc       0x26 mesh/core/libmesh_core_nrf51422_xxAC.a(transport.c.obj)
 *fill*         0x00021122        0x2 
 .text.tx_complete
                0x00021124       0x30 mesh/core/libmesh_core_nrf51422_xxAC.a(transport.c.obj)
 .text.upper_trs_packet_encrypt
                0x00021154       0xc4 mesh/core/libmesh_core_nrf51422_xxAC.a(transport.c.obj)
 .text.sar_ctx_free
                0x00021218       0x38 mesh/core/libmesh_core_nrf51422_xxAC.a(transport.c.obj)
 .text.sar_ctx_tx_complete
                0x00021250       0xb8 mesh/core/libmesh_core_nrf51422_xxAC.a(transport.c.obj)
 .text.sar_ctx_cancel
                0x00021308      0x110 mesh/core/libmesh_core_nrf51422_xxAC.a(transport.c.obj)
 .text.abort_timeout
                0x00021418        0xc mesh/core/libmesh_core_nrf51422_xxAC.a(transport.c.obj)
 .text.sar_ctx_alloc
                0x00021424       0xc8 mesh/core/libmesh_core_nrf51422_xxAC.a(transport.c.obj)
 .text.test_transport_decrypt
                0x000214ec       0x90 mesh/core/libmesh_core_nrf51422_xxAC.a(transport.c.obj)
 .text.upper_transport_access_packet_in
                0x0002157c      0x290 mesh/core/libmesh_core_nrf51422_xxAC.a(transport.c.obj)
 .text.trs_packet_header_build
                0x0002180c       0x96 mesh/core/libmesh_core_nrf51422_xxAC.a(transport.c.obj)
 *fill*         0x000218a2        0x2 
 .text.tx_retry_timer_reset
                0x000218a4       0x50 mesh/core/libmesh_core_nrf51422_xxAC.a(transport.c.obj)
 .text.trs_sar_packet_out
                0x000218f4      0x100 mesh/core/libmesh_core_nrf51422_xxAC.a(transport.c.obj)
 .text.retry_timeout
                0x000219f4       0x54 mesh/core/libmesh_core_nrf51422_xxAC.a(transport.c.obj)
 .text.upper_transport_packet_in
                0x00021a48      0x1b0 mesh/core/libmesh_core_nrf51422_xxAC.a(transport.c.obj)
 .text.upper_transport_tx
                0x00021bf8      0x23c mesh/core/libmesh_core_nrf51422_xxAC.a(transport.c.obj)
 .text.transport_sar_mem_funcs_reset
                0x00021e34       0x2c mesh/core/libmesh_core_nrf51422_xxAC.a(transport.c.obj)
                0x00021e34                transport_sar_mem_funcs_reset
 .text.transport_init
                0x00021e60       0x7c mesh/core/libmesh_core_nrf51422_xxAC.a(transport.c.obj)
                0x00021e60                transport_init
 .text.transport_control_tx
                0x00021edc       0x7c mesh/core/libmesh_core_nrf51422_xxAC.a(transport.c.obj)
                0x00021edc                transport_control_tx
 .text.sar_ack_send
                0x00021f58      0x10c mesh/core/libmesh_core_nrf51422_xxAC.a(transport.c.obj)
 .text.transport_sar_process
                0x00022064       0x78 mesh/core/libmesh_core_nrf51422_xxAC.a(transport.c.obj)
 .text.transport_packet_in
                0x000220dc      0x518 mesh/core/libmesh_core_nrf51422_xxAC.a(transport.c.obj)
                0x000220dc                transport_packet_in
 .text.ack_timeout
                0x000225f4       0x3c mesh/core/libmesh_core_nrf51422_xxAC.a(transport.c.obj)
 .text.transport_opt_get
                0x00022630       0x58 mesh/core/libmesh_core_nrf51422_xxAC.a(transport.c.obj)
                0x00022630                transport_opt_get
 .text.transport_control_packet_consumer_add
                0x00022688       0x64 mesh/core/libmesh_core_nrf51422_xxAC.a(transport.c.obj)
                0x00022688                transport_control_packet_consumer_add
 .text.m_adjust_desired_packet_length
                0x000226ec       0x34 mesh/core/libmesh_core_nrf51422_xxAC.a(packet_buffer.c.obj)
 .text.m_index_increment.part.0
                0x00022720       0x18 mesh/core/libmesh_core_nrf51422_xxAC.a(packet_buffer.c.obj)
 .text.m_free_popped_packet
                0x00022738       0x64 mesh/core/libmesh_core_nrf51422_xxAC.a(packet_buffer.c.obj)
 .text.free_skipped_packets
                0x0002279c       0x1c mesh/core/libmesh_core_nrf51422_xxAC.a(packet_buffer.c.obj)
 .text.packet_buffer_init
                0x000227b8       0xe0 mesh/core/libmesh_core_nrf51422_xxAC.a(packet_buffer.c.obj)
                0x000227b8                packet_buffer_init
 .text.packet_buffer_reserve
                0x00022898      0x11c mesh/core/libmesh_core_nrf51422_xxAC.a(packet_buffer.c.obj)
                0x00022898                packet_buffer_reserve
 .text.packet_buffer_commit
                0x000229b4      0x10c mesh/core/libmesh_core_nrf51422_xxAC.a(packet_buffer.c.obj)
                0x000229b4                packet_buffer_commit
 .text.packet_buffer_pop
                0x00022ac0       0x64 mesh/core/libmesh_core_nrf51422_xxAC.a(packet_buffer.c.obj)
                0x00022ac0                packet_buffer_pop
 .text.packet_buffer_can_pop
                0x00022b24       0x2c mesh/core/libmesh_core_nrf51422_xxAC.a(packet_buffer.c.obj)
                0x00022b24                packet_buffer_can_pop
 .text.packet_buffer_packets_ready_to_pop
                0x00022b50       0x58 mesh/core/libmesh_core_nrf51422_xxAC.a(packet_buffer.c.obj)
                0x00022b50                packet_buffer_packets_ready_to_pop
 .text.packet_buffer_free
                0x00022ba8       0x94 mesh/core/libmesh_core_nrf51422_xxAC.a(packet_buffer.c.obj)
                0x00022ba8                packet_buffer_free
 .text.get_last_page
                0x00022c3c       0x14 mesh/core/libmesh_core_nrf51422_xxAC.a(flash_manager_defrag.c.obj)
 .text.defrag_on_end
                0x00022c50       0x1c mesh/core/libmesh_core_nrf51422_xxAC.a(flash_manager_defrag.c.obj)
 .text.execute_procedure_step
                0x00022c6c       0xac mesh/core/libmesh_core_nrf51422_xxAC.a(flash_manager_defrag.c.obj)
 .text.get_next_entry
                0x00022d18       0x44 mesh/core/libmesh_core_nrf51422_xxAC.a(flash_manager_defrag.c.obj)
 .text.get_next_data_entry
                0x00022d5c       0x24 mesh/core/libmesh_core_nrf51422_xxAC.a(flash_manager_defrag.c.obj)
 .text.on_flash_op_end
                0x00022d80       0x34 mesh/core/libmesh_core_nrf51422_xxAC.a(flash_manager_defrag.c.obj)
 .text.check_for_invalid_entries
                0x00022db4       0x3c mesh/core/libmesh_core_nrf51422_xxAC.a(flash_manager_defrag.c.obj)
 .text.erase_recovery_area
                0x00022df0       0x30 mesh/core/libmesh_core_nrf51422_xxAC.a(flash_manager_defrag.c.obj)
 .text.flash.constprop.6
                0x00022e20       0x20 mesh/core/libmesh_core_nrf51422_xxAC.a(flash_manager_defrag.c.obj)
 .text.seal_storage_page
                0x00022e40       0x58 mesh/core/libmesh_core_nrf51422_xxAC.a(flash_manager_defrag.c.obj)
 .text.invalidate_duplicate_entries
                0x00022e98       0x88 mesh/core/libmesh_core_nrf51422_xxAC.a(flash_manager_defrag.c.obj)
 .text.copy_metadata
                0x00022f20       0x40 mesh/core/libmesh_core_nrf51422_xxAC.a(flash_manager_defrag.c.obj)
 .text.write_defrag_start_pointer
                0x00022f60       0x20 mesh/core/libmesh_core_nrf51422_xxAC.a(flash_manager_defrag.c.obj)
 .text.write_back
                0x00022f80       0x2c mesh/core/libmesh_core_nrf51422_xxAC.a(flash_manager_defrag.c.obj)
 .text.post_process
                0x00022fac       0x44 mesh/core/libmesh_core_nrf51422_xxAC.a(flash_manager_defrag.c.obj)
 .text.backup_entries
                0x00022ff0      0x128 mesh/core/libmesh_core_nrf51422_xxAC.a(flash_manager_defrag.c.obj)
 .text.erase_source
                0x00023118       0x30 mesh/core/libmesh_core_nrf51422_xxAC.a(flash_manager_defrag.c.obj)
 .text.flash_manager_defrag_init
                0x00023148       0xa0 mesh/core/libmesh_core_nrf51422_xxAC.a(flash_manager_defrag.c.obj)
                0x00023148                flash_manager_defrag_init
 .text.flash_manager_defrag_is_running
                0x000231e8       0x10 mesh/core/libmesh_core_nrf51422_xxAC.a(flash_manager_defrag.c.obj)
                0x000231e8                flash_manager_defrag_is_running
 .text.flash_manager_defrag
                0x000231f8       0xdc mesh/core/libmesh_core_nrf51422_xxAC.a(flash_manager_defrag.c.obj)
                0x000231f8                flash_manager_defrag
 .text.flash_manager_defrag_recovery_page_get
                0x000232d4        0xc mesh/core/libmesh_core_nrf51422_xxAC.a(flash_manager_defrag.c.obj)
                0x000232d4                flash_manager_defrag_recovery_page_get
 .text.fifo_init
                0x000232e0       0x5c mesh/core/libmesh_core_nrf51422_xxAC.a(fifo.c.obj)
                0x000232e0                fifo_init
 .text.fifo_push
                0x0002333c       0x5c mesh/core/libmesh_core_nrf51422_xxAC.a(fifo.c.obj)
                0x0002333c                fifo_push
 .text.fifo_pop
                0x00023398       0x5c mesh/core/libmesh_core_nrf51422_xxAC.a(fifo.c.obj)
                0x00023398                fifo_pop
 .text.packet_mgr_init
                0x000233f4       0x54 mesh/core/libmesh_core_nrf51422_xxAC.a(packet_mgr.c.obj)
                0x000233f4                packet_mgr_init
 .text.send_end_events
                0x00023448       0x80 mesh/core/libmesh_core_nrf51422_xxAC.a(mesh_flash.c.obj)
 .text.flash_op_schedule
                0x000234c8       0xa0 mesh/core/libmesh_core_nrf51422_xxAC.a(mesh_flash.c.obj)
 .text.flash_op_start
                0x00023568      0x178 mesh/core/libmesh_core_nrf51422_xxAC.a(mesh_flash.c.obj)
 .text.mesh_flash_init
                0x000236e0       0x94 mesh/core/libmesh_core_nrf51422_xxAC.a(mesh_flash.c.obj)
                0x000236e0                mesh_flash_init
 .text.mesh_flash_user_callback_set
                0x00023774       0x30 mesh/core/libmesh_core_nrf51422_xxAC.a(mesh_flash.c.obj)
                0x00023774                mesh_flash_user_callback_set
 .text.mesh_flash_op_push
                0x000237a4      0x140 mesh/core/libmesh_core_nrf51422_xxAC.a(mesh_flash.c.obj)
                0x000237a4                mesh_flash_op_push
 .text.queue_init
                0x000238e4       0x24 mesh/core/libmesh_core_nrf51422_xxAC.a(queue.c.obj)
                0x000238e4                queue_init
 .text.queue_push
                0x00023908       0x54 mesh/core/libmesh_core_nrf51422_xxAC.a(queue.c.obj)
                0x00023908                queue_push
 .text.queue_pop
                0x0002395c       0x3c mesh/core/libmesh_core_nrf51422_xxAC.a(queue.c.obj)
                0x0002395c                queue_pop
 .text.queue_peek
                0x00023998       0x20 mesh/core/libmesh_core_nrf51422_xxAC.a(queue.c.obj)
                0x00023998                queue_peek
 .text.nrf_mesh_opt_get
                0x000239b8       0x34 mesh/core/libmesh_core_nrf51422_xxAC.a(nrf_mesh_opt.c.obj)
                0x000239b8                nrf_mesh_opt_get
 .text.enc_aes_encrypt
                0x000239ec        0x8 mesh/core/libmesh_core_nrf51422_xxAC.a(enc.c.obj)
                0x000239ec                enc_aes_encrypt
 .text.enc_aes_cmac
                0x000239f4        0x8 mesh/core/libmesh_core_nrf51422_xxAC.a(enc.c.obj)
                0x000239f4                enc_aes_cmac
 .text.enc_aes_ccm_encrypt
                0x000239fc        0x8 mesh/core/libmesh_core_nrf51422_xxAC.a(enc.c.obj)
                0x000239fc                enc_aes_ccm_encrypt
 .text.enc_aes_ccm_decrypt
                0x00023a04        0x8 mesh/core/libmesh_core_nrf51422_xxAC.a(enc.c.obj)
                0x00023a04                enc_aes_ccm_decrypt
 .text.enc_nonce_generate
                0x00023a0c       0xd8 mesh/core/libmesh_core_nrf51422_xxAC.a(enc.c.obj)
                0x00023a0c                enc_nonce_generate
 .text.enc_s1   0x00023ae4       0x3c mesh/core/libmesh_core_nrf51422_xxAC.a(enc.c.obj)
                0x00023ae4                enc_s1
 .text.stage_get_available
                0x00023b20       0x26 mesh/core/libmesh_core_nrf51422_xxAC.a(msqueue.c.obj)
 *fill*         0x00023b46        0x2 
 .text.msq_get  0x00023b48       0x54 mesh/core/libmesh_core_nrf51422_xxAC.a(msqueue.c.obj)
                0x00023b48                msq_get
 .text.msq_move
                0x00023b9c       0x4c mesh/core/libmesh_core_nrf51422_xxAC.a(msqueue.c.obj)
                0x00023b9c                msq_move
 .text.msq_reset
                0x00023be8       0x30 mesh/core/libmesh_core_nrf51422_xxAC.a(msqueue.c.obj)
                0x00023be8                msq_reset
 .text.msq_init
                0x00023c18       0x88 mesh/core/libmesh_core_nrf51422_xxAC.a(msqueue.c.obj)
                0x00023c18                msq_init
 .text.msq_available
                0x00023ca0       0x40 mesh/core/libmesh_core_nrf51422_xxAC.a(msqueue.c.obj)
                0x00023ca0                msq_available
 .text.utils_xor
                0x00023ce0       0x16 mesh/core/libmesh_core_nrf51422_xxAC.a(ccm_soft.c.obj)
 .text.ccm_soft_authenticate_blocks
                0x00023cf6       0x66 mesh/core/libmesh_core_nrf51422_xxAC.a(ccm_soft.c.obj)
 .text.utils_reverse_memcpy.constprop.0
                0x00023d5c        0xa mesh/core/libmesh_core_nrf51422_xxAC.a(ccm_soft.c.obj)
 .text.ccm_soft_authenticate
                0x00023d66       0x94 mesh/core/libmesh_core_nrf51422_xxAC.a(ccm_soft.c.obj)
 .text.ccm_soft_crypt
                0x00023dfa       0x58 mesh/core/libmesh_core_nrf51422_xxAC.a(ccm_soft.c.obj)
 .text.ccm_soft_encrypt
                0x00023e52       0x6e mesh/core/libmesh_core_nrf51422_xxAC.a(ccm_soft.c.obj)
                0x00023e52                ccm_soft_encrypt
 .text.ccm_soft_decrypt
                0x00023ec0      0x10c mesh/core/libmesh_core_nrf51422_xxAC.a(ccm_soft.c.obj)
                0x00023ec0                ccm_soft_decrypt
 .text.replay_cache_add
                0x00023fcc       0x68 mesh/core/libmesh_core_nrf51422_xxAC.a(replay_cache.c.obj)
                0x00023fcc                replay_cache_add
 .text.replay_cache_has_room
                0x00024034       0x38 mesh/core/libmesh_core_nrf51422_xxAC.a(replay_cache.c.obj)
                0x00024034                replay_cache_has_room
 .text.replay_cache_has_elem
                0x0002406c       0x38 mesh/core/libmesh_core_nrf51422_xxAC.a(replay_cache.c.obj)
                0x0002406c                replay_cache_has_elem
 .text.replay_cache_clear
                0x000240a4       0x28 mesh/core/libmesh_core_nrf51422_xxAC.a(replay_cache.c.obj)
                0x000240a4                replay_cache_clear
 .text.replay_cache_init
                0x000240cc        0x8 mesh/core/libmesh_core_nrf51422_xxAC.a(replay_cache.c.obj)
                0x000240cc                replay_cache_init
 .text.sd_ecb_block_encrypt
                0x000240d4        0x4 mesh/core/libmesh_core_nrf51422_xxAC.a(aes.c.obj)
 .text.aes_encrypt
                0x000240d8       0x30 mesh/core/libmesh_core_nrf51422_xxAC.a(aes.c.obj)
                0x000240d8                aes_encrypt
 .text.wait_for_ready
                0x00024108       0x14 mesh/core/libmesh_core_nrf51422_xxAC.a(nrf_flash.c.obj)
 .text.nrf_flash_erase
                0x0002411c       0x58 mesh/core/libmesh_core_nrf51422_xxAC.a(nrf_flash.c.obj)
                0x0002411c                nrf_flash_erase
 .text.nrf_flash_write
                0x00024174       0x5c mesh/core/libmesh_core_nrf51422_xxAC.a(nrf_flash.c.obj)
                0x00024174                nrf_flash_write
 .text.my_xor.constprop.1
                0x000241d0       0x12 mesh/core/libmesh_core_nrf51422_xxAC.a(aes_cmac.c.obj)
 .text.utils_lshift.constprop.2
                0x000241e2       0x18 mesh/core/libmesh_core_nrf51422_xxAC.a(aes_cmac.c.obj)
 *fill*         0x000241fa        0x2 
 .text.aes_cmac_subkey_generate
                0x000241fc       0x64 mesh/core/libmesh_core_nrf51422_xxAC.a(aes_cmac.c.obj)
                0x000241fc                aes_cmac_subkey_generate
 .text.aes_cmac
                0x00024260       0xc0 mesh/core/libmesh_core_nrf51422_xxAC.a(aes_cmac.c.obj)
                0x00024260                aes_cmac
 .text._GetAvailWriteSpace
                0x00024320       0x12 external/rtt/librtt_nrf51422_xxAC.a(SEGGER_RTT.c.obj)
 .text._WriteNoCheck
                0x00024332       0x38 external/rtt/librtt_nrf51422_xxAC.a(SEGGER_RTT.c.obj)
 .text._WriteBlocking
                0x0002436a       0x5a external/rtt/librtt_nrf51422_xxAC.a(SEGGER_RTT.c.obj)
 .text._DoInit  0x000243c4       0x64 external/rtt/librtt_nrf51422_xxAC.a(SEGGER_RTT.c.obj)
 .text.SEGGER_RTT_WriteNoLock
                0x00024428       0x6c external/rtt/librtt_nrf51422_xxAC.a(SEGGER_RTT.c.obj)
                0x00024428                SEGGER_RTT_WriteNoLock
 .text.SEGGER_RTT_Write
                0x00024494       0x34 external/rtt/librtt_nrf51422_xxAC.a(SEGGER_RTT.c.obj)
                0x00024494                SEGGER_RTT_Write
 .text._StoreChar
                0x000244c8       0x3e external/rtt/librtt_nrf51422_xxAC.a(SEGGER_RTT_printf.c.obj)
 *fill*         0x00024506        0x2 
 .text._PrintUnsigned
                0x00024508       0xe0 external/rtt/librtt_nrf51422_xxAC.a(SEGGER_RTT_printf.c.obj)
 .text.SEGGER_RTT_vprintf
                0x000245e8      0x25c external/rtt/librtt_nrf51422_xxAC.a(SEGGER_RTT_printf.c.obj)
                0x000245e8                SEGGER_RTT_vprintf
 .text.SEGGER_RTT_printf
                0x00024844       0x18 external/rtt/librtt_nrf51422_xxAC.a(SEGGER_RTT_printf.c.obj)
                0x00024844                SEGGER_RTT_printf
 .text          0x0002485c       0x14 c:/a/gcc_arm/6/bin/../lib/gcc/arm-none-eabi/6.3.1/thumb/v6-m\libgcc.a(_thumb1_case_uqi.o)
                0x0002485c                __gnu_thumb1_case_uqi
 .text          0x00024870       0x14 c:/a/gcc_arm/6/bin/../lib/gcc/arm-none-eabi/6.3.1/thumb/v6-m\libgcc.a(_thumb1_case_uhi.o)
                0x00024870                __gnu_thumb1_case_uhi
 .text          0x00024884      0x114 c:/a/gcc_arm/6/bin/../lib/gcc/arm-none-eabi/6.3.1/thumb/v6-m\libgcc.a(_udivsi3.o)
                0x00024884                __aeabi_uidiv
                0x00024884                __udivsi3
                0x00024990                __aeabi_uidivmod
 .text          0x00024998      0x1d4 c:/a/gcc_arm/6/bin/../lib/gcc/arm-none-eabi/6.3.1/thumb/v6-m\libgcc.a(_divsi3.o)
                0x00024998                __divsi3
                0x00024998                __aeabi_idiv
                0x00024b64                __aeabi_idivmod
 .text          0x00024b6c        0x4 c:/a/gcc_arm/6/bin/../lib/gcc/arm-none-eabi/6.3.1/thumb/v6-m\libgcc.a(_dvmd_tls.o)
                0x00024b6c                __aeabi_idiv0
                0x00024b6c                __aeabi_ldiv0
 .text          0x00024b70       0x54 c:/a/gcc_arm/6/bin/../lib/gcc/arm-none-eabi/6.3.1/thumb/v6-m\libgcc.a(_muldi3.o)
                0x00024b70                __muldi3
                0x00024b70                __aeabi_lmul
 .text.exit     0x00024bc4       0x2c c:/a/gcc_arm/6/bin/../lib/gcc/arm-none-eabi/6.3.1/../../../../arm-none-eabi/lib/thumb/v6-m\libg_nano.a(lib_a-exit.o)
                0x00024bc4                exit
 .text.__libc_init_array
                0x00024bf0       0x48 c:/a/gcc_arm/6/bin/../lib/gcc/arm-none-eabi/6.3.1/../../../../arm-none-eabi/lib/thumb/v6-m\libg_nano.a(lib_a-init.o)
                0x00024bf0                __libc_init_array
 .text.malloc   0x00024c38       0x14 c:/a/gcc_arm/6/bin/../lib/gcc/arm-none-eabi/6.3.1/../../../../arm-none-eabi/lib/thumb/v6-m\libg_nano.a(lib_a-malloc.o)
                0x00024c38                malloc
 .text.free     0x00024c4c       0x14 c:/a/gcc_arm/6/bin/../lib/gcc/arm-none-eabi/6.3.1/../../../../arm-none-eabi/lib/thumb/v6-m\libg_nano.a(lib_a-malloc.o)
                0x00024c4c                free
 .text.memcmp   0x00024c60       0x1e c:/a/gcc_arm/6/bin/../lib/gcc/arm-none-eabi/6.3.1/../../../../arm-none-eabi/lib/thumb/v6-m\libg_nano.a(lib_a-memcmp.o)
                0x00024c60                memcmp
 .text.memcpy   0x00024c7e       0x12 c:/a/gcc_arm/6/bin/../lib/gcc/arm-none-eabi/6.3.1/../../../../arm-none-eabi/lib/thumb/v6-m\libg_nano.a(lib_a-memcpy-stub.o)
                0x00024c7e                memcpy
 .text.memset   0x00024c90       0x10 c:/a/gcc_arm/6/bin/../lib/gcc/arm-none-eabi/6.3.1/../../../../arm-none-eabi/lib/thumb/v6-m\libg_nano.a(lib_a-memset.o)
                0x00024c90                memset
 .text._free_r  0x00024ca0       0x94 c:/a/gcc_arm/6/bin/../lib/gcc/arm-none-eabi/6.3.1/../../../../arm-none-eabi/lib/thumb/v6-m\libg_nano.a(lib_a-nano-freer.o)
                0x00024ca0                _free_r
 .text._malloc_r
                0x00024d34       0xbc c:/a/gcc_arm/6/bin/../lib/gcc/arm-none-eabi/6.3.1/../../../../arm-none-eabi/lib/thumb/v6-m\libg_nano.a(lib_a-nano-mallocr.o)
                0x00024d34                _malloc_r
 .text._sbrk_r  0x00024df0       0x24 c:/a/gcc_arm/6/bin/../lib/gcc/arm-none-eabi/6.3.1/../../../../arm-none-eabi/lib/thumb/v6-m\libg_nano.a(lib_a-sbrkr.o)
                0x00024df0                _sbrk_r
 .text.sprintf  0x00024e14       0x44 c:/a/gcc_arm/6/bin/../lib/gcc/arm-none-eabi/6.3.1/../../../../arm-none-eabi/lib/thumb/v6-m\libg_nano.a(lib_a-sprintf.o)
                0x00024e14                siprintf
                0x00024e14                sprintf
 .text.strcpy   0x00024e58       0x10 c:/a/gcc_arm/6/bin/../lib/gcc/arm-none-eabi/6.3.1/../../../../arm-none-eabi/lib/thumb/v6-m\libg_nano.a(lib_a-strcpy.o)
                0x00024e58                strcpy
 .text.strrchr  0x00024e68       0x24 c:/a/gcc_arm/6/bin/../lib/gcc/arm-none-eabi/6.3.1/../../../../arm-none-eabi/lib/thumb/v6-m\libg_nano.a(lib_a-strrchr.o)
                0x00024e68                strrchr
 .text.__malloc_lock
                0x00024e8c        0x2 c:/a/gcc_arm/6/bin/../lib/gcc/arm-none-eabi/6.3.1/../../../../arm-none-eabi/lib/thumb/v6-m\libg_nano.a(lib_a-mlock.o)
                0x00024e8c                __malloc_lock
 .text.__malloc_unlock
                0x00024e8e        0x2 c:/a/gcc_arm/6/bin/../lib/gcc/arm-none-eabi/6.3.1/../../../../arm-none-eabi/lib/thumb/v6-m\libg_nano.a(lib_a-mlock.o)
                0x00024e8e                __malloc_unlock
 .text.__ssputs_r
                0x00024e90       0xc4 c:/a/gcc_arm/6/bin/../lib/gcc/arm-none-eabi/6.3.1/../../../../arm-none-eabi/lib/thumb/v6-m\libg_nano.a(lib_a-nano-svfprintf.o)
                0x00024e90                __ssputs_r
 .text._svfprintf_r
                0x00024f54      0x208 c:/a/gcc_arm/6/bin/../lib/gcc/arm-none-eabi/6.3.1/../../../../arm-none-eabi/lib/thumb/v6-m\libg_nano.a(lib_a-nano-svfprintf.o)
                0x00024f54                _svfiprintf_r
                0x00024f54                _svfprintf_r
 .text._printf_common
                0x0002515c       0xda c:/a/gcc_arm/6/bin/../lib/gcc/arm-none-eabi/6.3.1/../../../../arm-none-eabi/lib/thumb/v6-m\libg_nano.a(lib_a-nano-vfprintf_i.o)
                0x0002515c                _printf_common
 *fill*         0x00025236        0x2 
 .text._printf_i
                0x00025238      0x234 c:/a/gcc_arm/6/bin/../lib/gcc/arm-none-eabi/6.3.1/../../../../arm-none-eabi/lib/thumb/v6-m\libg_nano.a(lib_a-nano-vfprintf_i.o)
                0x00025238                _printf_i
 .text.strchr   0x0002546c       0x1c c:/a/gcc_arm/6/bin/../lib/gcc/arm-none-eabi/6.3.1/../../../../arm-none-eabi/lib/thumb/v6-m\libg_nano.a(lib_a-strchr.o)
                0x0002546c                strchr
 .text.memchr   0x00025488       0x16 c:/a/gcc_arm/6/bin/../lib/gcc/arm-none-eabi/6.3.1/../../../../arm-none-eabi/lib/thumb/v6-m\libg_nano.a(lib_a-memchr-stub.o)
                0x00025488                memchr
 .text.memmove  0x0002549e       0x24 c:/a/gcc_arm/6/bin/../lib/gcc/arm-none-eabi/6.3.1/../../../../arm-none-eabi/lib/thumb/v6-m\libg_nano.a(lib_a-memmove.o)
                0x0002549e                memmove
 .text._realloc_r
                0x000254c2       0x4c c:/a/gcc_arm/6/bin/../lib/gcc/arm-none-eabi/6.3.1/../../../../arm-none-eabi/lib/thumb/v6-m\libg_nano.a(lib_a-nano-reallocr.o)
                0x000254c2                _realloc_r
 .text._malloc_usable_size_r
                0x0002550e       0x10 c:/a/gcc_arm/6/bin/../lib/gcc/arm-none-eabi/6.3.1/../../../../arm-none-eabi/lib/thumb/v6-m\libg_nano.a(lib_a-nano-msizer.o)
                0x0002550e                _malloc_usable_size_r
 *fill*         0x0002551e        0x2 
 .text._sbrk    0x00025520       0x1c c:/a/gcc_arm/6/bin/../lib/gcc/arm-none-eabi/6.3.1/../../../../arm-none-eabi/lib/thumb/v6-m\libnosys.a(sbrk.o)
                0x00025520                _sbrk
 .text._exit    0x0002553c        0x4 c:/a/gcc_arm/6/bin/../lib/gcc/arm-none-eabi/6.3.1/../../../../arm-none-eabi/lib/thumb/v6-m\libnosys.a(_exit.o)
                0x0002553c                _exit
 *(.init)
 .init          0x00025540        0x4 c:/a/gcc_arm/6/bin/../lib/gcc/arm-none-eabi/6.3.1/thumb/v6-m/crti.o
                0x00025540                _init
 .init          0x00025544        0x8 c:/a/gcc_arm/6/bin/../lib/gcc/arm-none-eabi/6.3.1/thumb/v6-m/crtn.o
 *(.fini)
 .fini          0x0002554c        0x4 c:/a/gcc_arm/6/bin/../lib/gcc/arm-none-eabi/6.3.1/thumb/v6-m/crti.o
                0x0002554c                _fini
 .fini          0x00025550        0x8 c:/a/gcc_arm/6/bin/../lib/gcc/arm-none-eabi/6.3.1/thumb/v6-m/crtn.o
 *crtbegin.o(.ctors)
 *crtbegin?.o(.ctors)
 *(EXCLUDE_FILE(*crtend.o *crtend?.o) .ctors)
 *(SORT(.ctors.*))
 *(.ctors)
 *crtbegin.o(.dtors)
 *crtbegin?.o(.dtors)
 *(EXCLUDE_FILE(*crtend.o *crtend?.o) .dtors)
 *(SORT(.dtors.*))
 *(.dtors)
 *(.rodata*)
 .rodata.adv_data.8475
                0x00025558       0x12 examples/beaconing/CMakeFiles/beaconing_nrf51422_xxAC_s130_2.0.1.dir/src/main.c.obj
 .rodata.main.str1.1
                0x0002556a       0x45 examples/beaconing/CMakeFiles/beaconing_nrf51422_xxAC_s130_2.0.1.dir/src/main.c.obj
 .rodata.rx_callback.str1.1
                0x000255af       0x70 examples/beaconing/CMakeFiles/beaconing_nrf51422_xxAC_s130_2.0.1.dir/src/main.c.obj
 .rodata.HardFault_Handler.str1.1
                0x0002561f        0xe examples/beaconing/CMakeFiles/beaconing_nrf51422_xxAC_s130_2.0.1.dir/__/nrf_mesh_sdk.c.obj
 .rodata.app_error_handler.str1.1
                0x0002562d       0x1d examples/beaconing/CMakeFiles/beaconing_nrf51422_xxAC_s130_2.0.1.dir/__/nrf_mesh_sdk.c.obj
 .rodata.mesh_assert_handler.str1.1
                0x0002564a       0x34 examples/beaconing/CMakeFiles/beaconing_nrf51422_xxAC_s130_2.0.1.dir/__/nrf_mesh_sdk.c.obj
 .rodata.mesh_core_setup.str1.1
                0x0002567e       0x47 examples/beaconing/CMakeFiles/beaconing_nrf51422_xxAC_s130_2.0.1.dir/__/nrf_mesh_sdk.c.obj
 .rodata.mesh_softdevice_enable.str1.1
                0x000256c5       0x65 examples/beaconing/CMakeFiles/beaconing_nrf51422_xxAC_s130_2.0.1.dir/__/nrf_mesh_sdk.c.obj
 .rodata.softdevice_assert_handler.str1.1
                0x0002572a       0x1d examples/beaconing/CMakeFiles/beaconing_nrf51422_xxAC_s130_2.0.1.dir/__/nrf_mesh_sdk.c.obj
 .rodata.types_lookup.6447
                0x00025747        0x4 mesh/core/libmesh_core_nrf51422_xxAC.a(nrf_mesh_utils.c.obj)
 .rodata.nrf_mesh_listen.str1.1
                0x0002574b       0x70 mesh/core/libmesh_core_nrf51422_xxAC.a(nrf_mesh.c.obj)
 *fill*         0x000257bb        0x1 
 .rodata.CSWTCH.9
                0x000257bc       0x10 mesh/core/libmesh_core_nrf51422_xxAC.a(hal.c.obj)
 .rodata.network_packet_in.str1.1
                0x000257cc       0x40 mesh/core/libmesh_core_nrf51422_xxAC.a(network.c.obj)
                                 0x48 (size before relaxing)
 .rodata.network_packet_send.str1.1
                0x0002580c       0x49 mesh/core/libmesh_core_nrf51422_xxAC.a(network.c.obj)
 .rodata.log_callback_rtt.str1.1
                0x00025855       0x15 mesh/core/libmesh_core_nrf51422_xxAC.a(log.c.obj)
 .rodata.str1.1
                0x0002586a       0x11 mesh/core/libmesh_core_nrf51422_xxAC.a(log.c.obj)
 *fill*         0x0002587b        0x1 
 .rodata.INVALID_HEADER
                0x0002587c        0x4 mesh/core/libmesh_core_nrf51422_xxAC.a(flash_manager.c.obj)
                0x0002587c                INVALID_HEADER
 .rodata.PADDING_HEADER
                0x00025880        0x4 mesh/core/libmesh_core_nrf51422_xxAC.a(flash_manager.c.obj)
                0x00025880                PADDING_HEADER
 .rodata.SEAL_HEADER
                0x00025884        0x4 mesh/core/libmesh_core_nrf51422_xxAC.a(flash_manager.c.obj)
                0x00025884                SEAL_HEADER
 .rodata.process_action_queue.str1.1
                0x00025888       0x21 mesh/core/libmesh_core_nrf51422_xxAC.a(flash_manager.c.obj)
                                 0x4f (size before relaxing)
 .rodata.beacon_packet_in.str1.1
                0x000258a9       0x51 mesh/core/libmesh_core_nrf51422_xxAC.a(beacon.c.obj)
                                 0x59 (size before relaxing)
 *fill*         0x000258fa        0x2 
 .rodata.cp_handler
                0x000258fc        0x8 mesh/core/libmesh_core_nrf51422_xxAC.a(heartbeat.c.obj)
 .rodata.net_beacon_init.str1.1
                0x00025904        0x5 mesh/core/libmesh_core_nrf51422_xxAC.a(net_beacon.c.obj)
 *fill*         0x00025909        0x3 
 .rodata.m_interface
                0x0002590c        0xc mesh/core/libmesh_core_nrf51422_xxAC.a(core_tx_adv.c.obj)
 .rodata.radio_mode_to_us_per_byte.6840
                0x00025918        0x4 mesh/core/libmesh_core_nrf51422_xxAC.a(broadcast.c.obj)
 .rodata.channel_rf_offsets.6081
                0x0002591c       0x28 mesh/core/libmesh_core_nrf51422_xxAC.a(radio_config.c.obj)
 .rodata        0x00025944        0x3 mesh/core/libmesh_core_nrf51422_xxAC.a(scanner.c.obj)
 .rodata.sar_ctx_cancel.str1.1
                0x00025947       0x18 mesh/core/libmesh_core_nrf51422_xxAC.a(transport.c.obj)
 .rodata.sar_ctx_tx_complete.str1.1
                0x0002595f       0x1d mesh/core/libmesh_core_nrf51422_xxAC.a(transport.c.obj)
                                 0x4b (size before relaxing)
 .rodata.test_transport_decrypt.str1.1
                0x0002597c       0x13 mesh/core/libmesh_core_nrf51422_xxAC.a(transport.c.obj)
 .rodata.transport_packet_in.str1.1
                0x0002598f       0x24 mesh/core/libmesh_core_nrf51422_xxAC.a(transport.c.obj)
 .rodata.upper_transport_access_packet_in.str1.1
                0x000259b3       0x29 mesh/core/libmesh_core_nrf51422_xxAC.a(transport.c.obj)
 .rodata.upper_transport_packet_in.str1.1
                0x000259dc       0x2e mesh/core/libmesh_core_nrf51422_xxAC.a(transport.c.obj)
 .rodata.upper_transport_tx.str1.1
                0x00025a0a       0x2c mesh/core/libmesh_core_nrf51422_xxAC.a(transport.c.obj)
                                 0x34 (size before relaxing)
 .rodata.flash_manager_defrag.str1.1
                0x00025a36       0x28 mesh/core/libmesh_core_nrf51422_xxAC.a(flash_manager_defrag.c.obj)
                                 0x56 (size before relaxing)
 *fill*         0x00025a5e        0x2 
 .rodata.m_procedure_steps
                0x00025a60       0x28 mesh/core/libmesh_core_nrf51422_xxAC.a(flash_manager_defrag.c.obj)
 .rodata.m_all_operations
                0x00025a88       0x10 mesh/core/libmesh_core_nrf51422_xxAC.a(mesh_flash.c.obj)
 .rodata.Rb.5046
                0x00025a98       0x10 mesh/core/libmesh_core_nrf51422_xxAC.a(aes_cmac.c.obj)
 .rodata._DoInit.str1.1
                0x00025aa8       0x14 external/rtt/librtt_nrf51422_xxAC.a(SEGGER_RTT.c.obj)
 .rodata._aV2C.4374
                0x00025abc       0x10 external/rtt/librtt_nrf51422_xxAC.a(SEGGER_RTT_printf.c.obj)
 .rodata._global_impure_ptr
                0x00025acc        0x4 c:/a/gcc_arm/6/bin/../lib/gcc/arm-none-eabi/6.3.1/../../../../arm-none-eabi/lib/thumb/v6-m\libg_nano.a(lib_a-impure.o)
                0x00025acc                _global_impure_ptr
 .rodata._svfprintf_r.str1.1
                0x00025ad0       0x11 c:/a/gcc_arm/6/bin/../lib/gcc/arm-none-eabi/6.3.1/../../../../arm-none-eabi/lib/thumb/v6-m\libg_nano.a(lib_a-nano-svfprintf.o)
 .rodata._printf_i.str1.1
                0x00025ae1       0x11 c:/a/gcc_arm/6/bin/../lib/gcc/arm-none-eabi/6.3.1/../../../../arm-none-eabi/lib/thumb/v6-m\libg_nano.a(lib_a-nano-vfprintf_i.o)
                                 0x22 (size before relaxing)
 *(.eh_frame*)
 *fill*         0x00025af2        0x2 
 .eh_frame      0x00025af4        0x0 c:/a/gcc_arm/6/bin/../lib/gcc/arm-none-eabi/6.3.1/thumb/v6-m/crtbegin.o
 .eh_frame      0x00025af4        0x4 c:/a/gcc_arm/6/bin/../lib/gcc/arm-none-eabi/6.3.1/thumb/v6-m/crtend.o

.glue_7         0x00025af8        0x0
 .glue_7        0x00025af8        0x0 linker stubs

.glue_7t        0x00025af8        0x0
 .glue_7t       0x00025af8        0x0 linker stubs

.vfp11_veneer   0x00025af8        0x0
 .vfp11_veneer  0x00025af8        0x0 linker stubs

.v4_bx          0x00025af8        0x0
 .v4_bx         0x00025af8        0x0 linker stubs

.iplt           0x00025af8        0x0
 .iplt          0x00025af8        0x0 c:/a/gcc_arm/6/bin/../lib/gcc/arm-none-eabi/6.3.1/thumb/v6-m/crtbegin.o

.pwr_mgmt_data  0x00025af8        0x0
                [!provide]                PROVIDE (__start_pwr_mgmt_data, .)
 *(SORT(.pwr_mgmt_data*))
                [!provide]                PROVIDE (__stop_pwr_mgmt_data, .)

.log_const_data
                0x00025af8        0x0
                [!provide]                PROVIDE (__start_log_const_data, .)
 *(.log_const_data)
                [!provide]                PROVIDE (__stop_log_const_data, .)

.cli_command    0x00025af8        0x0
                [!provide]                PROVIDE (__start_cli_command, .)
 *(.cli_command)
                [!provide]                PROVIDE (__stop_cli_command, .)

.sdh_stack_observers
                0x00025af8        0x0
                [!provide]                PROVIDE (__start_sdh_stack_observers, .)
 *(SORT(.sdh_stack_observers*))
                [!provide]                PROVIDE (__stop_sdh_stack_observers, .)

.sdh_req_observers
                0x00025af8        0x0
                [!provide]                PROVIDE (__start_sdh_req_observers, .)
 *(SORT(.sdh_req_observers*))
                [!provide]                PROVIDE (__stop_sdh_req_observers, .)

.sdh_state_observers
                0x00025af8        0x0
                [!provide]                PROVIDE (__start_sdh_state_observers, .)
 *(SORT(.sdh_state_observers*))
                [!provide]                PROVIDE (__stop_sdh_state_observers, .)

.sdh_ant_observers
                0x00025af8        0x0
                [!provide]                PROVIDE (__start_sdh_ant_observers, .)
 *(SORT(.sdh_ant_observers*))
                [!provide]                PROVIDE (__stop_sdh_ant_observers, .)

.sdh_ble_observers
                0x00025af8        0x0
                [!provide]                PROVIDE (__start_sdh_ble_observers, .)
 *(SORT(.sdh_ble_observers*))
                [!provide]                PROVIDE (__stop_sdh_ble_observers, .)

.sdh_soc_observers
                0x00025af8        0x0
                [!provide]                PROVIDE (__start_sdh_soc_observers, .)
 *(SORT(.sdh_soc_observers*))
                [!provide]                PROVIDE (__stop_sdh_soc_observers, .)

.ARM.extab
 *(.ARM.extab* .gnu.linkonce.armextab.*)
                0x00025af8                __exidx_start = .

.ARM.exidx      0x00025af8        0x8
 *(.ARM.exidx* .gnu.linkonce.armexidx.*)
 .ARM.exidx     0x00025af8        0x8 c:/a/gcc_arm/6/bin/../lib/gcc/arm-none-eabi/6.3.1/../../../../arm-none-eabi/lib/thumb/v6-m/crt0.o
                0x00025b00                __exidx_end = .
                0x00025b00                __etext = .

.rel.dyn        0x00025b00        0x0
 .rel.iplt      0x00025b00        0x0 c:/a/gcc_arm/6/bin/../lib/gcc/arm-none-eabi/6.3.1/thumb/v6-m/crtbegin.o

.data           0x200022d8       0xbc load address 0x00025b00
                0x200022d8                __data_start__ = .
 *(vtable)
 *(.data*)
 .data.mem_listener.7168
                0x200022d8       0x10 mesh/core/libmesh_core_nrf51422_xxAC.a(net_state.c.obj)
 .data.mem_listener.7173
                0x200022e8       0x10 mesh/core/libmesh_core_nrf51422_xxAC.a(net_state.c.obj)
 .data.mem_listener.7187
                0x200022f8       0x10 mesh/core/libmesh_core_nrf51422_xxAC.a(net_state.c.obj)
 .data.m_nrf_mesh_listener
                0x20002308        0xc mesh/core/libmesh_core_nrf51422_xxAC.a(nrf_mesh.c.obj)
 .data.g_log_dbg_lvl
                0x20002314        0x4 mesh/core/libmesh_core_nrf51422_xxAC.a(log.c.obj)
                0x20002314                g_log_dbg_lvl
 .data.g_log_dbg_msk
                0x20002318        0x4 mesh/core/libmesh_core_nrf51422_xxAC.a(log.c.obj)
                0x20002318                g_log_dbg_msk
 .data.g_log_hex_digits
                0x2000231c        0x4 mesh/core/libmesh_core_nrf51422_xxAC.a(log.c.obj)
                0x2000231c                g_log_hex_digits
 .data.m_log_callback
                0x20002320        0x4 mesh/core/libmesh_core_nrf51422_xxAC.a(log.c.obj)
                0x20002320                m_log_callback
 .data._impure_ptr
                0x20002324        0x4 c:/a/gcc_arm/6/bin/../lib/gcc/arm-none-eabi/6.3.1/../../../../arm-none-eabi/lib/thumb/v6-m\libg_nano.a(lib_a-impure.o)
                0x20002324                _impure_ptr
 .data.impure_data
                0x20002328       0x60 c:/a/gcc_arm/6/bin/../lib/gcc/arm-none-eabi/6.3.1/../../../../arm-none-eabi/lib/thumb/v6-m\libg_nano.a(lib_a-impure.o)
                0x20002388                . = ALIGN (0x4)
                0x20002388                PROVIDE (__preinit_array_start, .)
 *(.preinit_array)
                0x20002388                PROVIDE (__preinit_array_end, .)
                0x20002388                . = ALIGN (0x4)
                0x20002388                PROVIDE (__init_array_start, .)
 *(SORT(.init_array.*))
 *(.init_array)
 .init_array    0x20002388        0x4 c:/a/gcc_arm/6/bin/../lib/gcc/arm-none-eabi/6.3.1/thumb/v6-m/crtbegin.o
                0x2000238c                PROVIDE (__init_array_end, .)
                0x2000238c                . = ALIGN (0x4)
                [!provide]                PROVIDE (__fini_array_start, .)
 *(SORT(.fini_array.*))
 *(.fini_array)
 .fini_array    0x2000238c        0x4 c:/a/gcc_arm/6/bin/../lib/gcc/arm-none-eabi/6.3.1/thumb/v6-m/crtbegin.o
                [!provide]                PROVIDE (__fini_array_end, .)
 *(.jcr*)
 .jcr           0x20002390        0x0 c:/a/gcc_arm/6/bin/../lib/gcc/arm-none-eabi/6.3.1/thumb/v6-m/crtbegin.o
 .jcr           0x20002390        0x4 c:/a/gcc_arm/6/bin/../lib/gcc/arm-none-eabi/6.3.1/thumb/v6-m/crtend.o
                0x20002394                . = ALIGN (0x4)
                0x20002394                __data_end__ = .
LOAD c:/a/gcc_arm/6/bin/../lib/gcc/arm-none-eabi/6.3.1/thumb/v6-m/crti.o
LOAD c:/a/gcc_arm/6/bin/../lib/gcc/arm-none-eabi/6.3.1/thumb/v6-m/crtbegin.o
LOAD c:/a/gcc_arm/6/bin/../lib/gcc/arm-none-eabi/6.3.1/../../../../arm-none-eabi/lib/thumb/v6-m/crt0.o
LOAD examples/beaconing/CMakeFiles/beaconing_nrf51422_xxAC_s130_2.0.1.dir/src/main.c.obj
LOAD examples/beaconing/CMakeFiles/beaconing_nrf51422_xxAC_s130_2.0.1.dir/__/nrf_mesh_sdk.c.obj
LOAD examples/beaconing/CMakeFiles/beaconing_nrf51422_xxAC_s130_2.0.1.dir/__/__/mesh/access/src/access_publish.c.obj
LOAD examples/beaconing/CMakeFiles/beaconing_nrf51422_xxAC_s130_2.0.1.dir/__/__/mesh/access/src/access.c.obj
LOAD examples/beaconing/CMakeFiles/beaconing_nrf51422_xxAC_s130_2.0.1.dir/__/__/mesh/access/src/access_reliable.c.obj
LOAD examples/beaconing/CMakeFiles/beaconing_nrf51422_xxAC_s130_2.0.1.dir/__/__/mesh/access/src/device_state_manager.c.obj
LOAD examples/beaconing/CMakeFiles/beaconing_nrf51422_xxAC_s130_2.0.1.dir/__/nrf_mesh_weak.c.obj
LOAD examples/beaconing/CMakeFiles/beaconing_nrf51422_xxAC_s130_2.0.1.dir/__/__/external/nRF5_SDK_14.2.0_17b948a/components/toolchain/system_nrf51.c.obj
LOAD examples/beaconing/CMakeFiles/beaconing_nrf51422_xxAC_s130_2.0.1.dir/__/__/external/nRF5_SDK_14.2.0_17b948a/components/toolchain/gcc/gcc_startup_nrf51.S.obj
LOAD mesh/core/libmesh_core_nrf51422_xxAC.a
LOAD external/rtt/librtt_nrf51422_xxAC.a
START GROUP
LOAD c:/a/gcc_arm/6/bin/../lib/gcc/arm-none-eabi/6.3.1/thumb/v6-m\libgcc.a
LOAD c:/a/gcc_arm/6/bin/../lib/gcc/arm-none-eabi/6.3.1/../../../../arm-none-eabi/lib/thumb/v6-m\libg_nano.a
LOAD c:/a/gcc_arm/6/bin/../lib/gcc/arm-none-eabi/6.3.1/../../../../arm-none-eabi/lib/thumb/v6-m\libc_nano.a
END GROUP
START GROUP
LOAD c:/a/gcc_arm/6/bin/../lib/gcc/arm-none-eabi/6.3.1/thumb/v6-m\libgcc.a
LOAD c:/a/gcc_arm/6/bin/../lib/gcc/arm-none-eabi/6.3.1/../../../../arm-none-eabi/lib/thumb/v6-m\libc_nano.a
END GROUP
LOAD c:/a/gcc_arm/6/bin/../lib/gcc/arm-none-eabi/6.3.1/thumb/v6-m/crtend.o
LOAD c:/a/gcc_arm/6/bin/../lib/gcc/arm-none-eabi/6.3.1/thumb/v6-m/crtn.o
START GROUP
LOAD c:/a/gcc_arm/6/bin/../lib/gcc/arm-none-eabi/6.3.1/thumb/v6-m\libgcc.a
LOAD c:/a/gcc_arm/6/bin/../lib/gcc/arm-none-eabi/6.3.1/../../../../arm-none-eabi/lib/thumb/v6-m\libc.a
LOAD c:/a/gcc_arm/6/bin/../lib/gcc/arm-none-eabi/6.3.1/../../../../arm-none-eabi/lib/thumb/v6-m\libnosys.a
END GROUP

.igot.plt       0x20002394        0x0 load address 0x00025bbc
 .igot.plt      0x20002394        0x0 c:/a/gcc_arm/6/bin/../lib/gcc/arm-none-eabi/6.3.1/thumb/v6-m/crtbegin.o
                0x20002394                . = ALIGN (0x4)

.svc_data       0x20002394        0x0
                [!provide]                PROVIDE (__start_svc_data, .)
 *(.svc_data)
                [!provide]                PROVIDE (__stop_svc_data, .)

.fs_data        0x20002394        0x0
                [!provide]                PROVIDE (__start_fs_data, .)
 *(.fs_data)
                [!provide]                PROVIDE (__stop_fs_data, .)

.log_dynamic_data
                0x20002394        0x0
                [!provide]                PROVIDE (__start_log_dynamic_data, .)
 *(.log_dynamic_data)
                [!provide]                PROVIDE (__stop_log_dynamic_data, .)

.cli_sorted_cmd_ptrs
                0x20002394        0x0
                [!provide]                PROVIDE (__start_cli_sorted_cmd_ptrs, .)
 *(.cli_sorted_cmd_ptrs)
                [!provide]                PROVIDE (__stop_cli_sorted_cmd_ptrs, .)

.bss            0x20002398     0x2e40 load address 0x00025bc0
                0x20002398                . = ALIGN (0x4)
                0x20002398                __bss_start__ = .
 *(.bss*)
 .bss           0x20002398       0x1c c:/a/gcc_arm/6/bin/../lib/gcc/arm-none-eabi/6.3.1/thumb/v6-m/crtbegin.o
 .bss.m_adv_buffer
                0x200023b4       0x80 examples/beaconing/CMakeFiles/beaconing_nrf51422_xxAC_s130_2.0.1.dir/src/main.c.obj
 .bss.m_advertiser
                0x20002434       0x94 examples/beaconing/CMakeFiles/beaconing_nrf51422_xxAC_s130_2.0.1.dir/src/main.c.obj
 .bss.m_ble_evt_buffer
                0x200024c8       0x47 examples/beaconing/CMakeFiles/beaconing_nrf51422_xxAC_s130_2.0.1.dir/__/nrf_mesh_sdk.c.obj
 *fill*         0x2000250f        0x1 
 .bss.m_addr_nonvirtual_allocated
                0x20002510        0x4 examples/beaconing/CMakeFiles/beaconing_nrf51422_xxAC_s130_2.0.1.dir/__/__/mesh/access/src/device_state_manager.c.obj
 .bss.m_addr_unicast_allocated
                0x20002514        0x4 examples/beaconing/CMakeFiles/beaconing_nrf51422_xxAC_s130_2.0.1.dir/__/__/mesh/access/src/device_state_manager.c.obj
 .bss.m_addr_virtual_allocated
                0x20002518        0x4 examples/beaconing/CMakeFiles/beaconing_nrf51422_xxAC_s130_2.0.1.dir/__/__/mesh/access/src/device_state_manager.c.obj
 .bss.m_addresses
                0x2000251c       0x40 examples/beaconing/CMakeFiles/beaconing_nrf51422_xxAC_s130_2.0.1.dir/__/__/mesh/access/src/device_state_manager.c.obj
 .bss.m_appkey_allocated
                0x2000255c        0x4 examples/beaconing/CMakeFiles/beaconing_nrf51422_xxAC_s130_2.0.1.dir/__/__/mesh/access/src/device_state_manager.c.obj
 .bss.m_appkeys
                0x20002560      0x150 examples/beaconing/CMakeFiles/beaconing_nrf51422_xxAC_s130_2.0.1.dir/__/__/mesh/access/src/device_state_manager.c.obj
 .bss.m_devkeys
                0x200026b0       0x16 examples/beaconing/CMakeFiles/beaconing_nrf51422_xxAC_s130_2.0.1.dir/__/__/mesh/access/src/device_state_manager.c.obj
 .bss.m_has_primary_subnet
                0x200026c6        0x1 examples/beaconing/CMakeFiles/beaconing_nrf51422_xxAC_s130_2.0.1.dir/__/__/mesh/access/src/device_state_manager.c.obj
 *fill*         0x200026c7        0x1 
 .bss.m_local_unicast_addr
                0x200026c8        0x4 examples/beaconing/CMakeFiles/beaconing_nrf51422_xxAC_s130_2.0.1.dir/__/__/mesh/access/src/device_state_manager.c.obj
 .bss.m_subnet_allocated
                0x200026cc        0x4 examples/beaconing/CMakeFiles/beaconing_nrf51422_xxAC_s130_2.0.1.dir/__/__/mesh/access/src/device_state_manager.c.obj
 .bss.m_subnets
                0x200026d0      0x2b0 examples/beaconing/CMakeFiles/beaconing_nrf51422_xxAC_s130_2.0.1.dir/__/__/mesh/access/src/device_state_manager.c.obj
 .bss.m_virtual_addresses
                0x20002980       0xa0 examples/beaconing/CMakeFiles/beaconing_nrf51422_xxAC_s130_2.0.1.dir/__/__/mesh/access/src/device_state_manager.c.obj
 .bss.mp_evt_handlers_head
                0x20002a20        0x4 mesh/core/libmesh_core_nrf51422_xxAC.a(event.c.obj)
 .bss.lock_count.7227
                0x20002a24        0x4 mesh/core/libmesh_core_nrf51422_xxAC.a(net_state.c.obj)
 .bss.m_flash_manager
                0x20002a28       0x24 mesh/core/libmesh_core_nrf51422_xxAC.a(net_state.c.obj)
 .bss.m_iv_update_timer
                0x20002a4c       0x18 mesh/core/libmesh_core_nrf51422_xxAC.a(net_state.c.obj)
 .bss.m_net_state
                0x20002a64       0x14 mesh/core/libmesh_core_nrf51422_xxAC.a(net_state.c.obj)
 .bss.m_seqnum_allocation_in_progress
                0x20002a78        0x1 mesh/core/libmesh_core_nrf51422_xxAC.a(net_state.c.obj)
 .bss.m_test_mode
                0x20002a79        0x1 mesh/core/libmesh_core_nrf51422_xxAC.a(net_state.c.obj)
 .bss.m_is_enabled
                0x20002a7a        0x1 mesh/core/libmesh_core_nrf51422_xxAC.a(nrf_mesh.c.obj)
 .bss.m_is_initialized
                0x20002a7b        0x1 mesh/core/libmesh_core_nrf51422_xxAC.a(nrf_mesh.c.obj)
 .bss.m_rx_cb   0x20002a7c        0x4 mesh/core/libmesh_core_nrf51422_xxAC.a(nrf_mesh.c.obj)
 .bss.m_event_flag
                0x20002a80        0x4 mesh/core/libmesh_core_nrf51422_xxAC.a(timer_scheduler.c.obj)
 .bss.m_scheduler
                0x20002a84       0x10 mesh/core/libmesh_core_nrf51422_xxAC.a(timer_scheduler.c.obj)
 .bss.m_attributes
                0x20002a94        0x3 mesh/core/libmesh_core_nrf51422_xxAC.a(timer.c.obj)
 *fill*         0x20002a97        0x1 
 .bss.m_callbacks
                0x20002a98        0xc mesh/core/libmesh_core_nrf51422_xxAC.a(timer.c.obj)
 .bss.m_is_in_ts
                0x20002aa4        0x1 mesh/core/libmesh_core_nrf51422_xxAC.a(timer.c.obj)
 *fill*         0x20002aa5        0x3 
 .bss.m_reference_time
                0x20002aa8        0x4 mesh/core/libmesh_core_nrf51422_xxAC.a(timer.c.obj)
 .bss.m_timeouts
                0x20002aac        0xc mesh/core/libmesh_core_nrf51422_xxAC.a(timer.c.obj)
 .bss.m_timer_mut
                0x20002ab8        0x4 mesh/core/libmesh_core_nrf51422_xxAC.a(timer.c.obj)
 .bss.m_ts_end_time
                0x20002abc        0x4 mesh/core/libmesh_core_nrf51422_xxAC.a(timer.c.obj)
 .bss.mp_ppi_tasks
                0x20002ac0        0xc mesh/core/libmesh_core_nrf51422_xxAC.a(timer.c.obj)
 .bss.m_current_time
                0x20002acc        0x4 mesh/core/libmesh_core_nrf51422_xxAC.a(ticker.c.obj)
 .bss.m_timer   0x20002ad0       0x18 mesh/core/libmesh_core_nrf51422_xxAC.a(ticker.c.obj)
 .bss.m_current_timeslot
                0x20002ae8       0x1c mesh/core/libmesh_core_nrf51422_xxAC.a(timeslot.c.obj)
 .bss.m_lfclk_ppm
                0x20002b04        0x4 mesh/core/libmesh_core_nrf51422_xxAC.a(timeslot.c.obj)
 .bss.m_radio_request_earliest
                0x20002b08       0x10 mesh/core/libmesh_core_nrf51422_xxAC.a(timeslot.c.obj)
 .bss.m_state_lock
                0x20002b18        0x1 mesh/core/libmesh_core_nrf51422_xxAC.a(timeslot.c.obj)
 .bss.m_timeslot_forced_command
                0x20002b19        0x1 mesh/core/libmesh_core_nrf51422_xxAC.a(timeslot.c.obj)
 *fill*         0x20002b1a        0x6 
 .bss.s_last_rtc_value.6691
                0x20002b20        0x8 mesh/core/libmesh_core_nrf51422_xxAC.a(timeslot.c.obj)
 .bss.m_bearer_event_fifo
                0x20002b28       0x14 mesh/core/libmesh_core_nrf51422_xxAC.a(bearer_event.c.obj)
 .bss.m_bearer_event_fifo_buffer
                0x20002b3c      0x100 mesh/core/libmesh_core_nrf51422_xxAC.a(bearer_event.c.obj)
 .bss.m_critical
                0x20002c3c        0x4 mesh/core/libmesh_core_nrf51422_xxAC.a(bearer_event.c.obj)
 .bss.m_flag_count
                0x20002c40        0x4 mesh/core/libmesh_core_nrf51422_xxAC.a(bearer_event.c.obj)
 .bss.m_flag_event_callbacks
                0x20002c44       0x20 mesh/core/libmesh_core_nrf51422_xxAC.a(bearer_event.c.obj)
 .bss.m_flags   0x20002c64        0x4 mesh/core/libmesh_core_nrf51422_xxAC.a(bearer_event.c.obj)
 .bss.m_irq_priority
                0x20002c68        0x1 mesh/core/libmesh_core_nrf51422_xxAC.a(bearer_event.c.obj)
 *fill*         0x20002c69        0x3 
 .bss.m_sequential_event_queue
                0x20002c6c        0x8 mesh/core/libmesh_core_nrf51422_xxAC.a(bearer_event.c.obj)
 .bss.s_recursion_guard.6813
                0x20002c74        0x1 mesh/core/libmesh_core_nrf51422_xxAC.a(bearer_event.c.obj)
 *fill*         0x20002c75        0x3 
 .bss.m_relay_check_cb
                0x20002c78        0x4 mesh/core/libmesh_core_nrf51422_xxAC.a(network.c.obj)
 .bss.m_relay_enable
                0x20002c7c        0x1 mesh/core/libmesh_core_nrf51422_xxAC.a(network.c.obj)
 *fill*         0x20002c7d        0x3 
 .bss.m_action_queue
                0x20002c80        0xc mesh/core/libmesh_core_nrf51422_xxAC.a(flash_manager.c.obj)
 .bss.m_action_queue_buffer
                0x20002c8c      0x104 mesh/core/libmesh_core_nrf51422_xxAC.a(flash_manager.c.obj)
 .bss.m_action_state
                0x20002d90        0x1 mesh/core/libmesh_core_nrf51422_xxAC.a(flash_manager.c.obj)
 *fill*         0x20002d91        0x3 
 .bss.m_memory_listener_queue
                0x20002d94        0x8 mesh/core/libmesh_core_nrf51422_xxAC.a(flash_manager.c.obj)
 .bss.m_processing_flag
                0x20002d9c        0x4 mesh/core/libmesh_core_nrf51422_xxAC.a(flash_manager.c.obj)
 .bss.m_queue_empty_cb
                0x20002da0        0x4 mesh/core/libmesh_core_nrf51422_xxAC.a(flash_manager.c.obj)
 .bss.m_state   0x20002da4        0x1 mesh/core/libmesh_core_nrf51422_xxAC.a(flash_manager.c.obj)
 *fill*         0x20002da5        0x1 
 .bss.m_token   0x20002da6        0x2 mesh/core/libmesh_core_nrf51422_xxAC.a(flash_manager.c.obj)
 .bss.p_current.8541
                0x20002da8        0x4 mesh/core/libmesh_core_nrf51422_xxAC.a(flash_manager.c.obj)
 .bss.result.8542
                0x20002dac        0x1 mesh/core/libmesh_core_nrf51422_xxAC.a(flash_manager.c.obj)
 *fill*         0x20002dad        0x3 
 .bss.m_adv_buffer
                0x20002db0       0x68 mesh/core/libmesh_core_nrf51422_xxAC.a(beacon.c.obj)
 .bss.m_advertiser
                0x20002e18       0x94 mesh/core/libmesh_core_nrf51422_xxAC.a(beacon.c.obj)
 .bss.m_bearers
                0x20002eac        0x4 mesh/core/libmesh_core_nrf51422_xxAC.a(core_tx.c.obj)
 .bss.m_tx_complete_callback
                0x20002eb0        0x4 mesh/core/libmesh_core_nrf51422_xxAC.a(core_tx.c.obj)
 .bss.m_hb_core_evt_handler
                0x20002eb4        0x8 mesh/core/libmesh_core_nrf51422_xxAC.a(heartbeat.c.obj)
 .bss.m_hb_pending_feat_msg
                0x20002ebc        0x1 mesh/core/libmesh_core_nrf51422_xxAC.a(heartbeat.c.obj)
 .bss.m_hb_pending_pub_msg
                0x20002ebd        0x1 mesh/core/libmesh_core_nrf51422_xxAC.a(heartbeat.c.obj)
 .bss.m_heartbeat_init_done
                0x20002ebe        0x1 mesh/core/libmesh_core_nrf51422_xxAC.a(heartbeat.c.obj)
 *fill*         0x20002ebf        0x1 
 .bss.m_heartbeat_subscription
                0x20002ec0       0x10 mesh/core/libmesh_core_nrf51422_xxAC.a(heartbeat.c.obj)
 .bss.m_publication_count_decrement_cb
                0x20002ed0        0x4 mesh/core/libmesh_core_nrf51422_xxAC.a(heartbeat.c.obj)
 .bss.m_publication_get_cb
                0x20002ed4        0x4 mesh/core/libmesh_core_nrf51422_xxAC.a(heartbeat.c.obj)
 .bss.m_publication_timer
                0x20002ed8       0x1c mesh/core/libmesh_core_nrf51422_xxAC.a(heartbeat.c.obj)
 .bss.m_subscription_timer
                0x20002ef4       0x18 mesh/core/libmesh_core_nrf51422_xxAC.a(heartbeat.c.obj)
 .bss.m_beacon_salt
                0x20002f0c       0x10 mesh/core/libmesh_core_nrf51422_xxAC.a(net_beacon.c.obj)
 .bss.m_enabled
                0x20002f1c        0x1 mesh/core/libmesh_core_nrf51422_xxAC.a(net_beacon.c.obj)
 *fill*         0x20002f1d        0x3 
 .bss.m_tx_event
                0x20002f20       0x18 mesh/core/libmesh_core_nrf51422_xxAC.a(net_beacon.c.obj)
 .bss.m_adv_tx_count
                0x20002f38        0x8 mesh/core/libmesh_core_nrf51422_xxAC.a(core_tx_adv.c.obj)
 .bss.m_advertisers
                0x20002f40      0x128 mesh/core/libmesh_core_nrf51422_xxAC.a(core_tx_adv.c.obj)
 .bss.m_originator_adv_packet_buffer
                0x20003068      0x100 mesh/core/libmesh_core_nrf51422_xxAC.a(core_tx_adv.c.obj)
 .bss.m_relay_adv_packet_buffer
                0x20003168       0x80 mesh/core/libmesh_core_nrf51422_xxAC.a(core_tx_adv.c.obj)
 .bss.m_subscribers
                0x200031e8        0x4 mesh/core/libmesh_core_nrf51422_xxAC.a(ad_listener.c.obj)
 .bss.m_adtype_filter
                0x200031ec       0x38 mesh/core/libmesh_core_nrf51422_xxAC.a(ad_type_filter.c.obj)
 .bss.m_adv_prng
                0x20003224       0x10 mesh/core/libmesh_core_nrf51422_xxAC.a(advertiser.c.obj)
 .bss.m_action_queue
                0x20003234        0x8 mesh/core/libmesh_core_nrf51422_xxAC.a(bearer_handler.c.obj)
 .bss.m_end_time
                0x2000323c        0x4 mesh/core/libmesh_core_nrf51422_xxAC.a(bearer_handler.c.obj)
 .bss.m_scanner_is_active
                0x20003240        0x1 mesh/core/libmesh_core_nrf51422_xxAC.a(bearer_handler.c.obj)
 .bss.m_stopped
                0x20003241        0x1 mesh/core/libmesh_core_nrf51422_xxAC.a(bearer_handler.c.obj)
 *fill*         0x20003242        0x2 
 .bss.mp_action
                0x20003244        0x4 mesh/core/libmesh_core_nrf51422_xxAC.a(bearer_handler.c.obj)
 .bss.m_next_channel_index
                0x20003248        0x1 mesh/core/libmesh_core_nrf51422_xxAC.a(broadcast.c.obj)
 *fill*         0x20003249        0x3 
 .bss.m_accepted_amount
                0x2000324c        0x4 mesh/core/libmesh_core_nrf51422_xxAC.a(filter_engine.c.obj)
 .bss.m_filter_list_head
                0x20003250        0x4 mesh/core/libmesh_core_nrf51422_xxAC.a(filter_engine.c.obj)
 .bss.m_scanner
                0x20003254      0x28c mesh/core/libmesh_core_nrf51422_xxAC.a(scanner.c.obj)
 .bss.m_internal_event_fifo
                0x200034e0       0x14 mesh/core/libmesh_core_nrf51422_xxAC.a(internal_event.c.obj)
 .bss.m_internal_event_initialized
                0x200034f4        0x1 mesh/core/libmesh_core_nrf51422_xxAC.a(internal_event.c.obj)
 *fill*         0x200034f5        0x3 
 .bss.m_report_cb
                0x200034f8        0x4 mesh/core/libmesh_core_nrf51422_xxAC.a(internal_event.c.obj)
 .bss.m_uuid    0x200034fc       0x10 mesh/core/libmesh_core_nrf51422_xxAC.a(nrf_mesh_configure.c.obj)
 .bss.m_msg_cache
                0x2000350c      0x100 mesh/core/libmesh_core_nrf51422_xxAC.a(msg_cache.c.obj)
 .bss.m_msg_cache_head
                0x2000360c        0x4 mesh/core/libmesh_core_nrf51422_xxAC.a(msg_cache.c.obj)
 .bss.m_control_packet_consumer_count
                0x20003610        0x4 mesh/core/libmesh_core_nrf51422_xxAC.a(transport.c.obj)
 .bss.m_control_packet_consumers
                0x20003614        0x8 mesh/core/libmesh_core_nrf51422_xxAC.a(transport.c.obj)
 .bss.m_sar_alloc
                0x2000361c        0x4 mesh/core/libmesh_core_nrf51422_xxAC.a(transport.c.obj)
 .bss.m_sar_process_flag
                0x20003620        0x4 mesh/core/libmesh_core_nrf51422_xxAC.a(transport.c.obj)
 .bss.m_sar_release
                0x20003624        0x4 mesh/core/libmesh_core_nrf51422_xxAC.a(transport.c.obj)
 .bss.m_sar_session_cache
                0x20003628       0x40 mesh/core/libmesh_core_nrf51422_xxAC.a(transport.c.obj)
 .bss.m_sar_session_cache_head
                0x20003668        0x4 mesh/core/libmesh_core_nrf51422_xxAC.a(transport.c.obj)
 .bss.m_trs_config
                0x2000366c       0x18 mesh/core/libmesh_core_nrf51422_xxAC.a(transport.c.obj)
 .bss.m_trs_sar_sessions
                0x20003684      0x1b0 mesh/core/libmesh_core_nrf51422_xxAC.a(transport.c.obj)
 .bss.m_defrag  0x20003834       0x1c mesh/core/libmesh_core_nrf51422_xxAC.a(flash_manager_defrag.c.obj)
 .bss.m_token   0x20003850        0x2 mesh/core/libmesh_core_nrf51422_xxAC.a(flash_manager_defrag.c.obj)
 *fill*         0x20003852        0x2 
 .bss.mp_recovery_area
                0x20003854        0x4 mesh/core/libmesh_core_nrf51422_xxAC.a(flash_manager_defrag.c.obj)
 .bss.p_null_ptr.7632
                0x20003858        0x4 mesh/core/libmesh_core_nrf51422_xxAC.a(flash_manager_defrag.c.obj)
 .bss.m_pool    0x2000385c     0x1000 mesh/core/libmesh_core_nrf51422_xxAC.a(packet_mgr.c.obj)
 .bss.mp_free_head
                0x2000485c        0x4 mesh/core/libmesh_core_nrf51422_xxAC.a(packet_mgr.c.obj)
 .bss.m_event_flag
                0x20004860        0x4 mesh/core/libmesh_core_nrf51422_xxAC.a(mesh_flash.c.obj)
 .bss.m_suspended
                0x20004864        0x1 mesh/core/libmesh_core_nrf51422_xxAC.a(mesh_flash.c.obj)
 *fill*         0x20004865        0x3 
 .bss.m_users   0x20004868      0x228 mesh/core/libmesh_core_nrf51422_xxAC.a(mesh_flash.c.obj)
 .bss.m_cache_full
                0x20004a90        0x1 mesh/core/libmesh_core_nrf51422_xxAC.a(replay_cache.c.obj)
 .bss.m_cache_index
                0x20004a91        0x1 mesh/core/libmesh_core_nrf51422_xxAC.a(replay_cache.c.obj)
 *fill*         0x20004a92        0x2 
 .bss.m_replay_cache
                0x20004a94      0x200 mesh/core/libmesh_core_nrf51422_xxAC.a(replay_cache.c.obj)
 .bss.m_128buf  0x20004c94       0x10 mesh/core/libmesh_core_nrf51422_xxAC.a(aes_cmac.c.obj)
 .bss.m_subkey1
                0x20004ca4       0x10 mesh/core/libmesh_core_nrf51422_xxAC.a(aes_cmac.c.obj)
 .bss.m_subkey2
                0x20004cb4       0x10 mesh/core/libmesh_core_nrf51422_xxAC.a(aes_cmac.c.obj)
 .bss._acDownBuffer
                0x20004cc4       0x80 external/rtt/librtt_nrf51422_xxAC.a(SEGGER_RTT.c.obj)
 .bss._acUpBuffer
                0x20004d44      0x400 external/rtt/librtt_nrf51422_xxAC.a(SEGGER_RTT.c.obj)
 .bss.__malloc_free_list
                0x20005144        0x4 c:/a/gcc_arm/6/bin/../lib/gcc/arm-none-eabi/6.3.1/../../../../arm-none-eabi/lib/thumb/v6-m\libg_nano.a(lib_a-nano-mallocr.o)
                0x20005144                __malloc_free_list
 .bss.__malloc_sbrk_start
                0x20005148        0x4 c:/a/gcc_arm/6/bin/../lib/gcc/arm-none-eabi/6.3.1/../../../../arm-none-eabi/lib/thumb/v6-m\libg_nano.a(lib_a-nano-mallocr.o)
                0x20005148                __malloc_sbrk_start
 .bss.heap_end.4116
                0x2000514c        0x4 c:/a/gcc_arm/6/bin/../lib/gcc/arm-none-eabi/6.3.1/../../../../arm-none-eabi/lib/thumb/v6-m\libnosys.a(sbrk.o)
 *(COMMON)
 COMMON         0x20005150        0x8 examples/beaconing/CMakeFiles/beaconing_nrf51422_xxAC_s130_2.0.1.dir/__/nrf_mesh_sdk.c.obj
                0x20005150                nrf_nvic_state
 COMMON         0x20005158        0x4 mesh/core/libmesh_core_nrf51422_xxAC.a(nrf_mesh.c.obj)
                0x20005158                m_assertion_handler
 COMMON         0x2000515c       0x78 external/rtt/librtt_nrf51422_xxAC.a(SEGGER_RTT.c.obj)
                0x2000515c                _SEGGER_RTT
 COMMON         0x200051d4        0x4 c:/a/gcc_arm/6/bin/../lib/gcc/arm-none-eabi/6.3.1/../../../../arm-none-eabi/lib/thumb/v6-m\libg_nano.a(lib_a-reent.o)
                0x200051d4                errno
                0x200051d8                . = ALIGN (0x4)
                0x200051d8                __bss_end__ = .

.heap           0x200051d8      0x800
                0x200051d8                __HeapBase = .
                0x200051d8                __end__ = .
                0x200051d8                PROVIDE (end, .)
 *(.heap*)
 .heap          0x200051d8      0x800 examples/beaconing/CMakeFiles/beaconing_nrf51422_xxAC_s130_2.0.1.dir/__/__/external/nRF5_SDK_14.2.0_17b948a/components/toolchain/gcc/gcc_startup_nrf51.S.obj
                0x200059d8                __HeapLimit = .

.stack_dummy    0x200051d8      0x800
 *(.stack*)
 .stack         0x200051d8      0x800 examples/beaconing/CMakeFiles/beaconing_nrf51422_xxAC_s130_2.0.1.dir/__/__/external/nRF5_SDK_14.2.0_17b948a/components/toolchain/gcc/gcc_startup_nrf51.S.obj
                0x20007d00                __StackTop = (ORIGIN (RAM) + LENGTH (RAM))
                0x20007500                __StackLimit = (__StackTop - SIZEOF (.stack_dummy))
                0x20007d00                PROVIDE (__stack, __StackTop)
                0x00000001                ASSERT ((__StackLimit >= __HeapLimit), region RAM overflowed with stack)
                0x000000c0                DataInitFlashUsed = (__bss_start__ - __data_start__)
                0x0000ab00                CodeFlashUsed = (__etext - ORIGIN (FLASH))
                0x0000abc0                TotalFlashUsed = (CodeFlashUsed + DataInitFlashUsed)
                0x00000001                ASSERT ((TotalFlashUsed <= LENGTH (FLASH)), region FLASH overflowed with .data and user data)
OUTPUT(examples\beaconing\beaconing_nrf51422_xxAC_s130_2.0.1.elf elf32-littlearm)

.ARM.attributes
                0x00000000       0x28
 .ARM.attributes
                0x00000000       0x1e c:/a/gcc_arm/6/bin/../lib/gcc/arm-none-eabi/6.3.1/thumb/v6-m/crti.o
 .ARM.attributes
                0x0000001e       0x2c c:/a/gcc_arm/6/bin/../lib/gcc/arm-none-eabi/6.3.1/thumb/v6-m/crtbegin.o
 .ARM.attributes
                0x0000004a       0x1b c:/a/gcc_arm/6/bin/../lib/gcc/arm-none-eabi/6.3.1/../../../../arm-none-eabi/lib/thumb/v6-m/crt0.o
 .ARM.attributes
                0x00000065       0x31 examples/beaconing/CMakeFiles/beaconing_nrf51422_xxAC_s130_2.0.1.dir/src/main.c.obj
 .ARM.attributes
                0x00000096       0x31 examples/beaconing/CMakeFiles/beaconing_nrf51422_xxAC_s130_2.0.1.dir/__/nrf_mesh_sdk.c.obj
 .ARM.attributes
                0x000000c7       0x31 examples/beaconing/CMakeFiles/beaconing_nrf51422_xxAC_s130_2.0.1.dir/__/__/mesh/access/src/device_state_manager.c.obj
 .ARM.attributes
                0x000000f8       0x31 examples/beaconing/CMakeFiles/beaconing_nrf51422_xxAC_s130_2.0.1.dir/__/nrf_mesh_weak.c.obj
 .ARM.attributes
                0x00000129       0x31 examples/beaconing/CMakeFiles/beaconing_nrf51422_xxAC_s130_2.0.1.dir/__/__/external/nRF5_SDK_14.2.0_17b948a/components/toolchain/system_nrf51.c.obj
 .ARM.attributes
                0x0000015a       0x1b examples/beaconing/CMakeFiles/beaconing_nrf51422_xxAC_s130_2.0.1.dir/__/__/external/nRF5_SDK_14.2.0_17b948a/components/toolchain/gcc/gcc_startup_nrf51.S.obj
 .ARM.attributes
                0x00000175       0x31 mesh/core/libmesh_core_nrf51422_xxAC.a(event.c.obj)
 .ARM.attributes
                0x000001a6       0x31 mesh/core/libmesh_core_nrf51422_xxAC.a(net_state.c.obj)
 .ARM.attributes
                0x000001d7       0x31 mesh/core/libmesh_core_nrf51422_xxAC.a(nrf_mesh_utils.c.obj)
 .ARM.attributes
                0x00000208       0x31 mesh/core/libmesh_core_nrf51422_xxAC.a(nrf_mesh.c.obj)
 .ARM.attributes
                0x00000239       0x31 mesh/core/libmesh_core_nrf51422_xxAC.a(hal.c.obj)
 .ARM.attributes
                0x0000026a       0x31 mesh/core/libmesh_core_nrf51422_xxAC.a(timer_scheduler.c.obj)
 .ARM.attributes
                0x0000029b       0x31 mesh/core/libmesh_core_nrf51422_xxAC.a(timer.c.obj)
 .ARM.attributes
                0x000002cc       0x31 mesh/core/libmesh_core_nrf51422_xxAC.a(ticker.c.obj)
 .ARM.attributes
                0x000002fd       0x31 mesh/core/libmesh_core_nrf51422_xxAC.a(rand.c.obj)
 .ARM.attributes
                0x0000032e       0x31 mesh/core/libmesh_core_nrf51422_xxAC.a(timeslot.c.obj)
 .ARM.attributes
                0x0000035f       0x31 mesh/core/libmesh_core_nrf51422_xxAC.a(bearer_event.c.obj)
 .ARM.attributes
                0x00000390       0x31 mesh/core/libmesh_core_nrf51422_xxAC.a(network.c.obj)
 .ARM.attributes
                0x000003c1       0x31 mesh/core/libmesh_core_nrf51422_xxAC.a(list.c.obj)
 .ARM.attributes
                0x000003f2       0x31 mesh/core/libmesh_core_nrf51422_xxAC.a(log.c.obj)
 .ARM.attributes
                0x00000423       0x31 mesh/core/libmesh_core_nrf51422_xxAC.a(flash_manager.c.obj)
 .ARM.attributes
                0x00000454       0x31 mesh/core/libmesh_core_nrf51422_xxAC.a(beacon.c.obj)
 .ARM.attributes
                0x00000485       0x31 mesh/core/libmesh_core_nrf51422_xxAC.a(flash_manager_internal.c.obj)
 .ARM.attributes
                0x000004b6       0x31 mesh/core/libmesh_core_nrf51422_xxAC.a(core_tx.c.obj)
 .ARM.attributes
                0x000004e7       0x31 mesh/core/libmesh_core_nrf51422_xxAC.a(heartbeat.c.obj)
 .ARM.attributes
                0x00000518       0x31 mesh/core/libmesh_core_nrf51422_xxAC.a(net_beacon.c.obj)
 .ARM.attributes
                0x00000549       0x31 mesh/core/libmesh_core_nrf51422_xxAC.a(core_tx_adv.c.obj)
 .ARM.attributes
                0x0000057a       0x31 mesh/core/libmesh_core_nrf51422_xxAC.a(ad_listener.c.obj)
 .ARM.attributes
                0x000005ab       0x31 mesh/core/libmesh_core_nrf51422_xxAC.a(ad_type_filter.c.obj)
 .ARM.attributes
                0x000005dc       0x31 mesh/core/libmesh_core_nrf51422_xxAC.a(advertiser.c.obj)
 .ARM.attributes
                0x0000060d       0x31 mesh/core/libmesh_core_nrf51422_xxAC.a(bearer_handler.c.obj)
 .ARM.attributes
                0x0000063e       0x31 mesh/core/libmesh_core_nrf51422_xxAC.a(broadcast.c.obj)
 .ARM.attributes
                0x0000066f       0x31 mesh/core/libmesh_core_nrf51422_xxAC.a(filter_engine.c.obj)
 .ARM.attributes
                0x000006a0       0x31 mesh/core/libmesh_core_nrf51422_xxAC.a(radio_config.c.obj)
 .ARM.attributes
                0x000006d1       0x31 mesh/core/libmesh_core_nrf51422_xxAC.a(scanner.c.obj)
 .ARM.attributes
                0x00000702       0x31 mesh/core/libmesh_core_nrf51422_xxAC.a(internal_event.c.obj)
 .ARM.attributes
                0x00000733       0x31 mesh/core/libmesh_core_nrf51422_xxAC.a(nrf_mesh_configure.c.obj)
 .ARM.attributes
                0x00000764       0x31 mesh/core/libmesh_core_nrf51422_xxAC.a(msg_cache.c.obj)
 .ARM.attributes
                0x00000795       0x31 mesh/core/libmesh_core_nrf51422_xxAC.a(transport.c.obj)
 .ARM.attributes
                0x000007c6       0x31 mesh/core/libmesh_core_nrf51422_xxAC.a(packet_buffer.c.obj)
 .ARM.attributes
                0x000007f7       0x31 mesh/core/libmesh_core_nrf51422_xxAC.a(flash_manager_defrag.c.obj)
 .ARM.attributes
                0x00000828       0x31 mesh/core/libmesh_core_nrf51422_xxAC.a(fifo.c.obj)
 .ARM.attributes
                0x00000859       0x31 mesh/core/libmesh_core_nrf51422_xxAC.a(packet_mgr.c.obj)
 .ARM.attributes
                0x0000088a       0x31 mesh/core/libmesh_core_nrf51422_xxAC.a(mesh_flash.c.obj)
 .ARM.attributes
                0x000008bb       0x31 mesh/core/libmesh_core_nrf51422_xxAC.a(queue.c.obj)
 .ARM.attributes
                0x000008ec       0x31 mesh/core/libmesh_core_nrf51422_xxAC.a(nrf_mesh_opt.c.obj)
 .ARM.attributes
                0x0000091d       0x31 mesh/core/libmesh_core_nrf51422_xxAC.a(enc.c.obj)
 .ARM.attributes
                0x0000094e       0x31 mesh/core/libmesh_core_nrf51422_xxAC.a(msqueue.c.obj)
 .ARM.attributes
                0x0000097f       0x31 mesh/core/libmesh_core_nrf51422_xxAC.a(ccm_soft.c.obj)
 .ARM.attributes
                0x000009b0       0x31 mesh/core/libmesh_core_nrf51422_xxAC.a(replay_cache.c.obj)
 .ARM.attributes
                0x000009e1       0x31 mesh/core/libmesh_core_nrf51422_xxAC.a(aes.c.obj)
 .ARM.attributes
                0x00000a12       0x31 mesh/core/libmesh_core_nrf51422_xxAC.a(nrf_flash.c.obj)
 .ARM.attributes
                0x00000a43       0x31 mesh/core/libmesh_core_nrf51422_xxAC.a(aes_cmac.c.obj)
 .ARM.attributes
                0x00000a74       0x31 external/rtt/librtt_nrf51422_xxAC.a(SEGGER_RTT.c.obj)
 .ARM.attributes
                0x00000aa5       0x31 external/rtt/librtt_nrf51422_xxAC.a(SEGGER_RTT_printf.c.obj)
 .ARM.attributes
                0x00000ad6       0x1e c:/a/gcc_arm/6/bin/../lib/gcc/arm-none-eabi/6.3.1/thumb/v6-m\libgcc.a(_thumb1_case_uqi.o)
 .ARM.attributes
                0x00000af4       0x1e c:/a/gcc_arm/6/bin/../lib/gcc/arm-none-eabi/6.3.1/thumb/v6-m\libgcc.a(_thumb1_case_uhi.o)
 .ARM.attributes
                0x00000b12       0x1e c:/a/gcc_arm/6/bin/../lib/gcc/arm-none-eabi/6.3.1/thumb/v6-m\libgcc.a(_udivsi3.o)
 .ARM.attributes
                0x00000b30       0x1e c:/a/gcc_arm/6/bin/../lib/gcc/arm-none-eabi/6.3.1/thumb/v6-m\libgcc.a(_divsi3.o)
 .ARM.attributes
                0x00000b4e       0x1e c:/a/gcc_arm/6/bin/../lib/gcc/arm-none-eabi/6.3.1/thumb/v6-m\libgcc.a(_dvmd_tls.o)
 .ARM.attributes
                0x00000b6c       0x2c c:/a/gcc_arm/6/bin/../lib/gcc/arm-none-eabi/6.3.1/thumb/v6-m\libgcc.a(_muldi3.o)
 .ARM.attributes
                0x00000b98       0x2c c:/a/gcc_arm/6/bin/../lib/gcc/arm-none-eabi/6.3.1/../../../../arm-none-eabi/lib/thumb/v6-m\libg_nano.a(lib_a-exit.o)
 .ARM.attributes
                0x00000bc4       0x2c c:/a/gcc_arm/6/bin/../lib/gcc/arm-none-eabi/6.3.1/../../../../arm-none-eabi/lib/thumb/v6-m\libg_nano.a(lib_a-impure.o)
 .ARM.attributes
                0x00000bf0       0x2c c:/a/gcc_arm/6/bin/../lib/gcc/arm-none-eabi/6.3.1/../../../../arm-none-eabi/lib/thumb/v6-m\libg_nano.a(lib_a-init.o)
 .ARM.attributes
                0x00000c1c       0x2c c:/a/gcc_arm/6/bin/../lib/gcc/arm-none-eabi/6.3.1/../../../../arm-none-eabi/lib/thumb/v6-m\libg_nano.a(lib_a-malloc.o)
 .ARM.attributes
                0x00000c48       0x2c c:/a/gcc_arm/6/bin/../lib/gcc/arm-none-eabi/6.3.1/../../../../arm-none-eabi/lib/thumb/v6-m\libg_nano.a(lib_a-memcmp.o)
 .ARM.attributes
                0x00000c74       0x2c c:/a/gcc_arm/6/bin/../lib/gcc/arm-none-eabi/6.3.1/../../../../arm-none-eabi/lib/thumb/v6-m\libg_nano.a(lib_a-memcpy-stub.o)
 .ARM.attributes
                0x00000ca0       0x2c c:/a/gcc_arm/6/bin/../lib/gcc/arm-none-eabi/6.3.1/../../../../arm-none-eabi/lib/thumb/v6-m\libg_nano.a(lib_a-memset.o)
 .ARM.attributes
                0x00000ccc       0x2c c:/a/gcc_arm/6/bin/../lib/gcc/arm-none-eabi/6.3.1/../../../../arm-none-eabi/lib/thumb/v6-m\libg_nano.a(lib_a-nano-freer.o)
 .ARM.attributes
                0x00000cf8       0x2c c:/a/gcc_arm/6/bin/../lib/gcc/arm-none-eabi/6.3.1/../../../../arm-none-eabi/lib/thumb/v6-m\libg_nano.a(lib_a-nano-mallocr.o)
 .ARM.attributes
                0x00000d24       0x2c c:/a/gcc_arm/6/bin/../lib/gcc/arm-none-eabi/6.3.1/../../../../arm-none-eabi/lib/thumb/v6-m\libg_nano.a(lib_a-sbrkr.o)
 .ARM.attributes
                0x00000d50       0x2c c:/a/gcc_arm/6/bin/../lib/gcc/arm-none-eabi/6.3.1/../../../../arm-none-eabi/lib/thumb/v6-m\libg_nano.a(lib_a-sprintf.o)
 .ARM.attributes
                0x00000d7c       0x2c c:/a/gcc_arm/6/bin/../lib/gcc/arm-none-eabi/6.3.1/../../../../arm-none-eabi/lib/thumb/v6-m\libg_nano.a(lib_a-strcpy.o)
 .ARM.attributes
                0x00000da8       0x2c c:/a/gcc_arm/6/bin/../lib/gcc/arm-none-eabi/6.3.1/../../../../arm-none-eabi/lib/thumb/v6-m\libg_nano.a(lib_a-strrchr.o)
 .ARM.attributes
                0x00000dd4       0x2c c:/a/gcc_arm/6/bin/../lib/gcc/arm-none-eabi/6.3.1/../../../../arm-none-eabi/lib/thumb/v6-m\libg_nano.a(lib_a-mlock.o)
 .ARM.attributes
                0x00000e00       0x2c c:/a/gcc_arm/6/bin/../lib/gcc/arm-none-eabi/6.3.1/../../../../arm-none-eabi/lib/thumb/v6-m\libg_nano.a(lib_a-nano-svfprintf.o)
 .ARM.attributes
                0x00000e2c       0x2c c:/a/gcc_arm/6/bin/../lib/gcc/arm-none-eabi/6.3.1/../../../../arm-none-eabi/lib/thumb/v6-m\libg_nano.a(lib_a-nano-vfprintf_i.o)
 .ARM.attributes
                0x00000e58       0x2c c:/a/gcc_arm/6/bin/../lib/gcc/arm-none-eabi/6.3.1/../../../../arm-none-eabi/lib/thumb/v6-m\libg_nano.a(lib_a-reent.o)
 .ARM.attributes
                0x00000e84       0x2c c:/a/gcc_arm/6/bin/../lib/gcc/arm-none-eabi/6.3.1/../../../../arm-none-eabi/lib/thumb/v6-m\libg_nano.a(lib_a-strchr.o)
 .ARM.attributes
                0x00000eb0       0x2c c:/a/gcc_arm/6/bin/../lib/gcc/arm-none-eabi/6.3.1/../../../../arm-none-eabi/lib/thumb/v6-m\libg_nano.a(lib_a-memchr-stub.o)
 .ARM.attributes
                0x00000edc       0x2c c:/a/gcc_arm/6/bin/../lib/gcc/arm-none-eabi/6.3.1/../../../../arm-none-eabi/lib/thumb/v6-m\libg_nano.a(lib_a-memmove.o)
 .ARM.attributes
                0x00000f08       0x2c c:/a/gcc_arm/6/bin/../lib/gcc/arm-none-eabi/6.3.1/../../../../arm-none-eabi/lib/thumb/v6-m\libg_nano.a(lib_a-nano-reallocr.o)
 .ARM.attributes
                0x00000f34       0x2c c:/a/gcc_arm/6/bin/../lib/gcc/arm-none-eabi/6.3.1/../../../../arm-none-eabi/lib/thumb/v6-m\libg_nano.a(lib_a-nano-msizer.o)
 .ARM.attributes
                0x00000f60       0x2c c:/a/gcc_arm/6/bin/../lib/gcc/arm-none-eabi/6.3.1/thumb/v6-m/crtend.o
 .ARM.attributes
                0x00000f8c       0x1e c:/a/gcc_arm/6/bin/../lib/gcc/arm-none-eabi/6.3.1/thumb/v6-m/crtn.o
 .ARM.attributes
                0x00000faa       0x2c c:/a/gcc_arm/6/bin/../lib/gcc/arm-none-eabi/6.3.1/../../../../arm-none-eabi/lib/thumb/v6-m\libnosys.a(sbrk.o)
 .ARM.attributes
                0x00000fd6       0x2c c:/a/gcc_arm/6/bin/../lib/gcc/arm-none-eabi/6.3.1/../../../../arm-none-eabi/lib/thumb/v6-m\libnosys.a(_exit.o)

.comment        0x00000000       0x7f
 .comment       0x00000000       0x7f examples/beaconing/CMakeFiles/beaconing_nrf51422_xxAC_s130_2.0.1.dir/src/main.c.obj
                                 0x80 (size before relaxing)
 .comment       0x0000007f       0x80 examples/beaconing/CMakeFiles/beaconing_nrf51422_xxAC_s130_2.0.1.dir/__/nrf_mesh_sdk.c.obj
 .comment       0x0000007f       0x80 examples/beaconing/CMakeFiles/beaconing_nrf51422_xxAC_s130_2.0.1.dir/__/__/mesh/access/src/device_state_manager.c.obj
 .comment       0x0000007f       0x80 examples/beaconing/CMakeFiles/beaconing_nrf51422_xxAC_s130_2.0.1.dir/__/nrf_mesh_weak.c.obj
 .comment       0x0000007f       0x80 examples/beaconing/CMakeFiles/beaconing_nrf51422_xxAC_s130_2.0.1.dir/__/__/external/nRF5_SDK_14.2.0_17b948a/components/toolchain/system_nrf51.c.obj
 .comment       0x0000007f       0x80 mesh/core/libmesh_core_nrf51422_xxAC.a(event.c.obj)
 .comment       0x0000007f       0x80 mesh/core/libmesh_core_nrf51422_xxAC.a(net_state.c.obj)
 .comment       0x0000007f       0x80 mesh/core/libmesh_core_nrf51422_xxAC.a(nrf_mesh_utils.c.obj)
 .comment       0x0000007f       0x80 mesh/core/libmesh_core_nrf51422_xxAC.a(nrf_mesh.c.obj)
 .comment       0x0000007f       0x80 mesh/core/libmesh_core_nrf51422_xxAC.a(hal.c.obj)
 .comment       0x0000007f       0x80 mesh/core/libmesh_core_nrf51422_xxAC.a(timer_scheduler.c.obj)
 .comment       0x0000007f       0x80 mesh/core/libmesh_core_nrf51422_xxAC.a(timer.c.obj)
 .comment       0x0000007f       0x80 mesh/core/libmesh_core_nrf51422_xxAC.a(ticker.c.obj)
 .comment       0x0000007f       0x80 mesh/core/libmesh_core_nrf51422_xxAC.a(rand.c.obj)
 .comment       0x0000007f       0x80 mesh/core/libmesh_core_nrf51422_xxAC.a(timeslot.c.obj)
 .comment       0x0000007f       0x80 mesh/core/libmesh_core_nrf51422_xxAC.a(bearer_event.c.obj)
 .comment       0x0000007f       0x80 mesh/core/libmesh_core_nrf51422_xxAC.a(network.c.obj)
 .comment       0x0000007f       0x80 mesh/core/libmesh_core_nrf51422_xxAC.a(list.c.obj)
 .comment       0x0000007f       0x80 mesh/core/libmesh_core_nrf51422_xxAC.a(log.c.obj)
 .comment       0x0000007f       0x80 mesh/core/libmesh_core_nrf51422_xxAC.a(flash_manager.c.obj)
 .comment       0x0000007f       0x80 mesh/core/libmesh_core_nrf51422_xxAC.a(beacon.c.obj)
 .comment       0x0000007f       0x80 mesh/core/libmesh_core_nrf51422_xxAC.a(flash_manager_internal.c.obj)
 .comment       0x0000007f       0x80 mesh/core/libmesh_core_nrf51422_xxAC.a(core_tx.c.obj)
 .comment       0x0000007f       0x80 mesh/core/libmesh_core_nrf51422_xxAC.a(heartbeat.c.obj)
 .comment       0x0000007f       0x80 mesh/core/libmesh_core_nrf51422_xxAC.a(net_beacon.c.obj)
 .comment       0x0000007f       0x80 mesh/core/libmesh_core_nrf51422_xxAC.a(core_tx_adv.c.obj)
 .comment       0x0000007f       0x80 mesh/core/libmesh_core_nrf51422_xxAC.a(ad_listener.c.obj)
 .comment       0x0000007f       0x80 mesh/core/libmesh_core_nrf51422_xxAC.a(ad_type_filter.c.obj)
 .comment       0x0000007f       0x80 mesh/core/libmesh_core_nrf51422_xxAC.a(advertiser.c.obj)
 .comment       0x0000007f       0x80 mesh/core/libmesh_core_nrf51422_xxAC.a(bearer_handler.c.obj)
 .comment       0x0000007f       0x80 mesh/core/libmesh_core_nrf51422_xxAC.a(broadcast.c.obj)
 .comment       0x0000007f       0x80 mesh/core/libmesh_core_nrf51422_xxAC.a(filter_engine.c.obj)
 .comment       0x0000007f       0x80 mesh/core/libmesh_core_nrf51422_xxAC.a(radio_config.c.obj)
 .comment       0x0000007f       0x80 mesh/core/libmesh_core_nrf51422_xxAC.a(scanner.c.obj)
 .comment       0x0000007f       0x80 mesh/core/libmesh_core_nrf51422_xxAC.a(internal_event.c.obj)
 .comment       0x0000007f       0x80 mesh/core/libmesh_core_nrf51422_xxAC.a(nrf_mesh_configure.c.obj)
 .comment       0x0000007f       0x80 mesh/core/libmesh_core_nrf51422_xxAC.a(msg_cache.c.obj)
 .comment       0x0000007f       0x80 mesh/core/libmesh_core_nrf51422_xxAC.a(transport.c.obj)
 .comment       0x0000007f       0x80 mesh/core/libmesh_core_nrf51422_xxAC.a(packet_buffer.c.obj)
 .comment       0x0000007f       0x80 mesh/core/libmesh_core_nrf51422_xxAC.a(flash_manager_defrag.c.obj)
 .comment       0x0000007f       0x80 mesh/core/libmesh_core_nrf51422_xxAC.a(fifo.c.obj)
 .comment       0x0000007f       0x80 mesh/core/libmesh_core_nrf51422_xxAC.a(packet_mgr.c.obj)
 .comment       0x0000007f       0x80 mesh/core/libmesh_core_nrf51422_xxAC.a(mesh_flash.c.obj)
 .comment       0x0000007f       0x80 mesh/core/libmesh_core_nrf51422_xxAC.a(queue.c.obj)
 .comment       0x0000007f       0x80 mesh/core/libmesh_core_nrf51422_xxAC.a(nrf_mesh_opt.c.obj)
 .comment       0x0000007f       0x80 mesh/core/libmesh_core_nrf51422_xxAC.a(enc.c.obj)
 .comment       0x0000007f       0x80 mesh/core/libmesh_core_nrf51422_xxAC.a(msqueue.c.obj)
 .comment       0x0000007f       0x80 mesh/core/libmesh_core_nrf51422_xxAC.a(ccm_soft.c.obj)
 .comment       0x0000007f       0x80 mesh/core/libmesh_core_nrf51422_xxAC.a(replay_cache.c.obj)
 .comment       0x0000007f       0x80 mesh/core/libmesh_core_nrf51422_xxAC.a(aes.c.obj)
 .comment       0x0000007f       0x80 mesh/core/libmesh_core_nrf51422_xxAC.a(nrf_flash.c.obj)
 .comment       0x0000007f       0x80 mesh/core/libmesh_core_nrf51422_xxAC.a(aes_cmac.c.obj)
 .comment       0x0000007f       0x80 external/rtt/librtt_nrf51422_xxAC.a(SEGGER_RTT.c.obj)
 .comment       0x0000007f       0x80 external/rtt/librtt_nrf51422_xxAC.a(SEGGER_RTT_printf.c.obj)

.debug_info     0x00000000    0x4b383
 .debug_info    0x00000000     0x1d77 examples/beaconing/CMakeFiles/beaconing_nrf51422_xxAC_s130_2.0.1.dir/src/main.c.obj
 .debug_info    0x00001d77     0x30bf examples/beaconing/CMakeFiles/beaconing_nrf51422_xxAC_s130_2.0.1.dir/__/nrf_mesh_sdk.c.obj
 .debug_info    0x00004e36     0x5fab examples/beaconing/CMakeFiles/beaconing_nrf51422_xxAC_s130_2.0.1.dir/__/__/mesh/access/src/device_state_manager.c.obj
 .debug_info    0x0000ade1      0x93a examples/beaconing/CMakeFiles/beaconing_nrf51422_xxAC_s130_2.0.1.dir/__/nrf_mesh_weak.c.obj
 .debug_info    0x0000b71b      0x1e5 examples/beaconing/CMakeFiles/beaconing_nrf51422_xxAC_s130_2.0.1.dir/__/__/external/nRF5_SDK_14.2.0_17b948a/components/toolchain/system_nrf51.c.obj
 .debug_info    0x0000b900     0x14c9 mesh/core/libmesh_core_nrf51422_xxAC.a(event.c.obj)
 .debug_info    0x0000cdc9     0x23be mesh/core/libmesh_core_nrf51422_xxAC.a(net_state.c.obj)
 .debug_info    0x0000f187      0xa60 mesh/core/libmesh_core_nrf51422_xxAC.a(nrf_mesh_utils.c.obj)
 .debug_info    0x0000fbe7     0x3341 mesh/core/libmesh_core_nrf51422_xxAC.a(nrf_mesh.c.obj)
 .debug_info    0x00012f28      0x472 mesh/core/libmesh_core_nrf51422_xxAC.a(hal.c.obj)
 .debug_info    0x0001339a     0x100b mesh/core/libmesh_core_nrf51422_xxAC.a(timer_scheduler.c.obj)
 .debug_info    0x000143a5      0xc94 mesh/core/libmesh_core_nrf51422_xxAC.a(timer.c.obj)
 .debug_info    0x00015039      0x208 mesh/core/libmesh_core_nrf51422_xxAC.a(ticker.c.obj)
 .debug_info    0x00015241      0x41e mesh/core/libmesh_core_nrf51422_xxAC.a(rand.c.obj)
 .debug_info    0x0001565f     0x19c1 mesh/core/libmesh_core_nrf51422_xxAC.a(timeslot.c.obj)
 .debug_info    0x00017020     0x1817 mesh/core/libmesh_core_nrf51422_xxAC.a(bearer_event.c.obj)
 .debug_info    0x00018837     0x2afd mesh/core/libmesh_core_nrf51422_xxAC.a(network.c.obj)
 .debug_info    0x0001b334      0x46a mesh/core/libmesh_core_nrf51422_xxAC.a(list.c.obj)
 .debug_info    0x0001b79e      0xe28 mesh/core/libmesh_core_nrf51422_xxAC.a(log.c.obj)
 .debug_info    0x0001c5c6     0x3233 mesh/core/libmesh_core_nrf51422_xxAC.a(flash_manager.c.obj)
 .debug_info    0x0001f7f9     0x1929 mesh/core/libmesh_core_nrf51422_xxAC.a(beacon.c.obj)
 .debug_info    0x00021122      0xb88 mesh/core/libmesh_core_nrf51422_xxAC.a(flash_manager_internal.c.obj)
 .debug_info    0x00021caa      0xf80 mesh/core/libmesh_core_nrf51422_xxAC.a(core_tx.c.obj)
 .debug_info    0x00022c2a     0x2156 mesh/core/libmesh_core_nrf51422_xxAC.a(heartbeat.c.obj)
 .debug_info    0x00024d80     0x14bf mesh/core/libmesh_core_nrf51422_xxAC.a(net_beacon.c.obj)
 .debug_info    0x0002623f     0x1618 mesh/core/libmesh_core_nrf51422_xxAC.a(core_tx_adv.c.obj)
 .debug_info    0x00027857     0x10f8 mesh/core/libmesh_core_nrf51422_xxAC.a(ad_listener.c.obj)
 .debug_info    0x0002894f      0xf9e mesh/core/libmesh_core_nrf51422_xxAC.a(ad_type_filter.c.obj)
 .debug_info    0x000298ed     0x22fc mesh/core/libmesh_core_nrf51422_xxAC.a(advertiser.c.obj)
 .debug_info    0x0002bbe9     0x1833 mesh/core/libmesh_core_nrf51422_xxAC.a(bearer_handler.c.obj)
 .debug_info    0x0002d41c     0x18f3 mesh/core/libmesh_core_nrf51422_xxAC.a(broadcast.c.obj)
 .debug_info    0x0002ed0f      0xccc mesh/core/libmesh_core_nrf51422_xxAC.a(filter_engine.c.obj)
 .debug_info    0x0002f9db      0x848 mesh/core/libmesh_core_nrf51422_xxAC.a(radio_config.c.obj)
 .debug_info    0x00030223     0x24af mesh/core/libmesh_core_nrf51422_xxAC.a(scanner.c.obj)
 .debug_info    0x000326d2      0xc54 mesh/core/libmesh_core_nrf51422_xxAC.a(internal_event.c.obj)
 .debug_info    0x00033326      0xba2 mesh/core/libmesh_core_nrf51422_xxAC.a(nrf_mesh_configure.c.obj)
 .debug_info    0x00033ec8      0xa70 mesh/core/libmesh_core_nrf51422_xxAC.a(msg_cache.c.obj)
 .debug_info    0x00034938     0x54ce mesh/core/libmesh_core_nrf51422_xxAC.a(transport.c.obj)
 .debug_info    0x00039e06     0x1c1e mesh/core/libmesh_core_nrf51422_xxAC.a(packet_buffer.c.obj)
 .debug_info    0x0003ba24     0x21d4 mesh/core/libmesh_core_nrf51422_xxAC.a(flash_manager_defrag.c.obj)
 .debug_info    0x0003dbf8      0xce0 mesh/core/libmesh_core_nrf51422_xxAC.a(fifo.c.obj)
 .debug_info    0x0003e8d8     0x1164 mesh/core/libmesh_core_nrf51422_xxAC.a(packet_mgr.c.obj)
 .debug_info    0x0003fa3c     0x1860 mesh/core/libmesh_core_nrf51422_xxAC.a(mesh_flash.c.obj)
 .debug_info    0x0004129c      0xacb mesh/core/libmesh_core_nrf51422_xxAC.a(queue.c.obj)
 .debug_info    0x00041d67      0xb0b mesh/core/libmesh_core_nrf51422_xxAC.a(nrf_mesh_opt.c.obj)
 .debug_info    0x00042872     0x1702 mesh/core/libmesh_core_nrf51422_xxAC.a(enc.c.obj)
 .debug_info    0x00043f74      0xcdf mesh/core/libmesh_core_nrf51422_xxAC.a(msqueue.c.obj)
 .debug_info    0x00044c53     0x107b mesh/core/libmesh_core_nrf51422_xxAC.a(ccm_soft.c.obj)
 .debug_info    0x00045cce      0xae9 mesh/core/libmesh_core_nrf51422_xxAC.a(replay_cache.c.obj)
 .debug_info    0x000467b7      0xbe1 mesh/core/libmesh_core_nrf51422_xxAC.a(aes.c.obj)
 .debug_info    0x00047398      0xac0 mesh/core/libmesh_core_nrf51422_xxAC.a(nrf_flash.c.obj)
 .debug_info    0x00047e58      0xe2a mesh/core/libmesh_core_nrf51422_xxAC.a(aes_cmac.c.obj)
 .debug_info    0x00048c82     0x1831 external/rtt/librtt_nrf51422_xxAC.a(SEGGER_RTT.c.obj)
 .debug_info    0x0004a4b3      0xed0 external/rtt/librtt_nrf51422_xxAC.a(SEGGER_RTT_printf.c.obj)

.debug_abbrev   0x00000000     0xb396
 .debug_abbrev  0x00000000      0x41e examples/beaconing/CMakeFiles/beaconing_nrf51422_xxAC_s130_2.0.1.dir/src/main.c.obj
 .debug_abbrev  0x0000041e      0x4ae examples/beaconing/CMakeFiles/beaconing_nrf51422_xxAC_s130_2.0.1.dir/__/nrf_mesh_sdk.c.obj
 .debug_abbrev  0x000008cc      0x609 examples/beaconing/CMakeFiles/beaconing_nrf51422_xxAC_s130_2.0.1.dir/__/__/mesh/access/src/device_state_manager.c.obj
 .debug_abbrev  0x00000ed5      0x1a7 examples/beaconing/CMakeFiles/beaconing_nrf51422_xxAC_s130_2.0.1.dir/__/nrf_mesh_weak.c.obj
 .debug_abbrev  0x0000107c      0x117 examples/beaconing/CMakeFiles/beaconing_nrf51422_xxAC_s130_2.0.1.dir/__/__/external/nRF5_SDK_14.2.0_17b948a/components/toolchain/system_nrf51.c.obj
 .debug_abbrev  0x00001193      0x283 mesh/core/libmesh_core_nrf51422_xxAC.a(event.c.obj)
 .debug_abbrev  0x00001416      0x527 mesh/core/libmesh_core_nrf51422_xxAC.a(net_state.c.obj)
 .debug_abbrev  0x0000193d      0x253 mesh/core/libmesh_core_nrf51422_xxAC.a(nrf_mesh_utils.c.obj)
 .debug_abbrev  0x00001b90      0x42a mesh/core/libmesh_core_nrf51422_xxAC.a(nrf_mesh.c.obj)
 .debug_abbrev  0x00001fba      0x1e4 mesh/core/libmesh_core_nrf51422_xxAC.a(hal.c.obj)
 .debug_abbrev  0x0000219e      0x3bd mesh/core/libmesh_core_nrf51422_xxAC.a(timer_scheduler.c.obj)
 .debug_abbrev  0x0000255b      0x326 mesh/core/libmesh_core_nrf51422_xxAC.a(timer.c.obj)
 .debug_abbrev  0x00002881      0x14f mesh/core/libmesh_core_nrf51422_xxAC.a(ticker.c.obj)
 .debug_abbrev  0x000029d0      0x1ba mesh/core/libmesh_core_nrf51422_xxAC.a(rand.c.obj)
 .debug_abbrev  0x00002b8a      0x4ba mesh/core/libmesh_core_nrf51422_xxAC.a(timeslot.c.obj)
 .debug_abbrev  0x00003044      0x493 mesh/core/libmesh_core_nrf51422_xxAC.a(bearer_event.c.obj)
 .debug_abbrev  0x000034d7      0x513 mesh/core/libmesh_core_nrf51422_xxAC.a(network.c.obj)
 .debug_abbrev  0x000039ea      0x186 mesh/core/libmesh_core_nrf51422_xxAC.a(list.c.obj)
 .debug_abbrev  0x00003b70      0x24e mesh/core/libmesh_core_nrf51422_xxAC.a(log.c.obj)
 .debug_abbrev  0x00003dbe      0x5a4 mesh/core/libmesh_core_nrf51422_xxAC.a(flash_manager.c.obj)
 .debug_abbrev  0x00004362      0x37f mesh/core/libmesh_core_nrf51422_xxAC.a(beacon.c.obj)
 .debug_abbrev  0x000046e1      0x283 mesh/core/libmesh_core_nrf51422_xxAC.a(flash_manager_internal.c.obj)
 .debug_abbrev  0x00004964      0x30c mesh/core/libmesh_core_nrf51422_xxAC.a(core_tx.c.obj)
 .debug_abbrev  0x00004c70      0x4ad mesh/core/libmesh_core_nrf51422_xxAC.a(heartbeat.c.obj)
 .debug_abbrev  0x0000511d      0x3dc mesh/core/libmesh_core_nrf51422_xxAC.a(net_beacon.c.obj)
 .debug_abbrev  0x000054f9      0x321 mesh/core/libmesh_core_nrf51422_xxAC.a(core_tx_adv.c.obj)
 .debug_abbrev  0x0000581a      0x325 mesh/core/libmesh_core_nrf51422_xxAC.a(ad_listener.c.obj)
 .debug_abbrev  0x00005b3f      0x33d mesh/core/libmesh_core_nrf51422_xxAC.a(ad_type_filter.c.obj)
 .debug_abbrev  0x00005e7c      0x4bb mesh/core/libmesh_core_nrf51422_xxAC.a(advertiser.c.obj)
 .debug_abbrev  0x00006337      0x40b mesh/core/libmesh_core_nrf51422_xxAC.a(bearer_handler.c.obj)
 .debug_abbrev  0x00006742      0x3b5 mesh/core/libmesh_core_nrf51422_xxAC.a(broadcast.c.obj)
 .debug_abbrev  0x00006af7      0x27a mesh/core/libmesh_core_nrf51422_xxAC.a(filter_engine.c.obj)
 .debug_abbrev  0x00006d71      0x19f mesh/core/libmesh_core_nrf51422_xxAC.a(radio_config.c.obj)
 .debug_abbrev  0x00006f10      0x510 mesh/core/libmesh_core_nrf51422_xxAC.a(scanner.c.obj)
 .debug_abbrev  0x00007420      0x248 mesh/core/libmesh_core_nrf51422_xxAC.a(internal_event.c.obj)
 .debug_abbrev  0x00007668      0x242 mesh/core/libmesh_core_nrf51422_xxAC.a(nrf_mesh_configure.c.obj)
 .debug_abbrev  0x000078aa      0x256 mesh/core/libmesh_core_nrf51422_xxAC.a(msg_cache.c.obj)
 .debug_abbrev  0x00007b00      0x5d9 mesh/core/libmesh_core_nrf51422_xxAC.a(transport.c.obj)
 .debug_abbrev  0x000080d9      0x472 mesh/core/libmesh_core_nrf51422_xxAC.a(packet_buffer.c.obj)
 .debug_abbrev  0x0000854b      0x553 mesh/core/libmesh_core_nrf51422_xxAC.a(flash_manager_defrag.c.obj)
 .debug_abbrev  0x00008a9e      0x2ec mesh/core/libmesh_core_nrf51422_xxAC.a(fifo.c.obj)
 .debug_abbrev  0x00008d8a      0x3ca mesh/core/libmesh_core_nrf51422_xxAC.a(packet_mgr.c.obj)
 .debug_abbrev  0x00009154      0x45e mesh/core/libmesh_core_nrf51422_xxAC.a(mesh_flash.c.obj)
 .debug_abbrev  0x000095b2      0x220 mesh/core/libmesh_core_nrf51422_xxAC.a(queue.c.obj)
 .debug_abbrev  0x000097d2      0x23d mesh/core/libmesh_core_nrf51422_xxAC.a(nrf_mesh_opt.c.obj)
 .debug_abbrev  0x00009a0f      0x35c mesh/core/libmesh_core_nrf51422_xxAC.a(enc.c.obj)
 .debug_abbrev  0x00009d6b      0x287 mesh/core/libmesh_core_nrf51422_xxAC.a(msqueue.c.obj)
 .debug_abbrev  0x00009ff2      0x2ac mesh/core/libmesh_core_nrf51422_xxAC.a(ccm_soft.c.obj)
 .debug_abbrev  0x0000a29e      0x264 mesh/core/libmesh_core_nrf51422_xxAC.a(replay_cache.c.obj)
 .debug_abbrev  0x0000a502      0x25d mesh/core/libmesh_core_nrf51422_xxAC.a(aes.c.obj)
 .debug_abbrev  0x0000a75f      0x21f mesh/core/libmesh_core_nrf51422_xxAC.a(nrf_flash.c.obj)
 .debug_abbrev  0x0000a97e      0x31a mesh/core/libmesh_core_nrf51422_xxAC.a(aes_cmac.c.obj)
 .debug_abbrev  0x0000ac98      0x39c external/rtt/librtt_nrf51422_xxAC.a(SEGGER_RTT.c.obj)
 .debug_abbrev  0x0000b034      0x362 external/rtt/librtt_nrf51422_xxAC.a(SEGGER_RTT_printf.c.obj)

.debug_loc      0x00000000    0x1635f
 .debug_loc     0x00000000      0x27a examples/beaconing/CMakeFiles/beaconing_nrf51422_xxAC_s130_2.0.1.dir/src/main.c.obj
 .debug_loc     0x0000027a      0x2fc examples/beaconing/CMakeFiles/beaconing_nrf51422_xxAC_s130_2.0.1.dir/__/nrf_mesh_sdk.c.obj
 .debug_loc     0x00000576     0x35a2 examples/beaconing/CMakeFiles/beaconing_nrf51422_xxAC_s130_2.0.1.dir/__/__/mesh/access/src/device_state_manager.c.obj
 .debug_loc     0x00003b18      0x134 mesh/core/libmesh_core_nrf51422_xxAC.a(event.c.obj)
 .debug_loc     0x00003c4c      0x77f mesh/core/libmesh_core_nrf51422_xxAC.a(net_state.c.obj)
 .debug_loc     0x000043cb      0x103 mesh/core/libmesh_core_nrf51422_xxAC.a(nrf_mesh_utils.c.obj)
 .debug_loc     0x000044ce      0x4b5 mesh/core/libmesh_core_nrf51422_xxAC.a(nrf_mesh.c.obj)
 .debug_loc     0x00004983       0x84 mesh/core/libmesh_core_nrf51422_xxAC.a(hal.c.obj)
 .debug_loc     0x00004a07      0x41b mesh/core/libmesh_core_nrf51422_xxAC.a(timer_scheduler.c.obj)
 .debug_loc     0x00004e22      0x5db mesh/core/libmesh_core_nrf51422_xxAC.a(timer.c.obj)
 .debug_loc     0x000053fd      0x172 mesh/core/libmesh_core_nrf51422_xxAC.a(rand.c.obj)
 .debug_loc     0x0000556f      0x3ad mesh/core/libmesh_core_nrf51422_xxAC.a(timeslot.c.obj)
 .debug_loc     0x0000591c      0x7a7 mesh/core/libmesh_core_nrf51422_xxAC.a(bearer_event.c.obj)
 .debug_loc     0x000060c3      0xe27 mesh/core/libmesh_core_nrf51422_xxAC.a(network.c.obj)
 .debug_loc     0x00006eea      0x598 mesh/core/libmesh_core_nrf51422_xxAC.a(list.c.obj)
 .debug_loc     0x00007482      0x2e5 mesh/core/libmesh_core_nrf51422_xxAC.a(log.c.obj)
 .debug_loc     0x00007767     0x17c2 mesh/core/libmesh_core_nrf51422_xxAC.a(flash_manager.c.obj)
 .debug_loc     0x00008f29      0x521 mesh/core/libmesh_core_nrf51422_xxAC.a(beacon.c.obj)
 .debug_loc     0x0000944a      0x149 mesh/core/libmesh_core_nrf51422_xxAC.a(flash_manager_internal.c.obj)
 .debug_loc     0x00009593      0x632 mesh/core/libmesh_core_nrf51422_xxAC.a(core_tx.c.obj)
 .debug_loc     0x00009bc5      0x706 mesh/core/libmesh_core_nrf51422_xxAC.a(heartbeat.c.obj)
 .debug_loc     0x0000a2cb      0x4a3 mesh/core/libmesh_core_nrf51422_xxAC.a(net_beacon.c.obj)
 .debug_loc     0x0000a76e      0x3e4 mesh/core/libmesh_core_nrf51422_xxAC.a(core_tx_adv.c.obj)
 .debug_loc     0x0000ab52      0x394 mesh/core/libmesh_core_nrf51422_xxAC.a(ad_listener.c.obj)
 .debug_loc     0x0000aee6      0x434 mesh/core/libmesh_core_nrf51422_xxAC.a(ad_type_filter.c.obj)
 .debug_loc     0x0000b31a      0xdf8 mesh/core/libmesh_core_nrf51422_xxAC.a(advertiser.c.obj)
 .debug_loc     0x0000c112      0x3e1 mesh/core/libmesh_core_nrf51422_xxAC.a(bearer_handler.c.obj)
 .debug_loc     0x0000c4f3      0x301 mesh/core/libmesh_core_nrf51422_xxAC.a(broadcast.c.obj)
 .debug_loc     0x0000c7f4      0x14a mesh/core/libmesh_core_nrf51422_xxAC.a(filter_engine.c.obj)
 .debug_loc     0x0000c93e      0x2b2 mesh/core/libmesh_core_nrf51422_xxAC.a(radio_config.c.obj)
 .debug_loc     0x0000cbf0      0x57f mesh/core/libmesh_core_nrf51422_xxAC.a(scanner.c.obj)
 .debug_loc     0x0000d16f       0xc4 mesh/core/libmesh_core_nrf51422_xxAC.a(internal_event.c.obj)
 .debug_loc     0x0000d233       0x2c mesh/core/libmesh_core_nrf51422_xxAC.a(nrf_mesh_configure.c.obj)
 .debug_loc     0x0000d25f       0xeb mesh/core/libmesh_core_nrf51422_xxAC.a(msg_cache.c.obj)
 .debug_loc     0x0000d34a     0x2719 mesh/core/libmesh_core_nrf51422_xxAC.a(transport.c.obj)
 .debug_loc     0x0000fa63     0x108b mesh/core/libmesh_core_nrf51422_xxAC.a(packet_buffer.c.obj)
 .debug_loc     0x00010aee      0x838 mesh/core/libmesh_core_nrf51422_xxAC.a(flash_manager_defrag.c.obj)
 .debug_loc     0x00011326      0x5b7 mesh/core/libmesh_core_nrf51422_xxAC.a(fifo.c.obj)
 .debug_loc     0x000118dd      0x67d mesh/core/libmesh_core_nrf51422_xxAC.a(packet_mgr.c.obj)
 .debug_loc     0x00011f5a      0xa7c mesh/core/libmesh_core_nrf51422_xxAC.a(mesh_flash.c.obj)
 .debug_loc     0x000129d6      0x1f9 mesh/core/libmesh_core_nrf51422_xxAC.a(queue.c.obj)
 .debug_loc     0x00012bcf      0x14c mesh/core/libmesh_core_nrf51422_xxAC.a(nrf_mesh_opt.c.obj)
 .debug_loc     0x00012d1b      0xb0d mesh/core/libmesh_core_nrf51422_xxAC.a(enc.c.obj)
 .debug_loc     0x00013828      0x41a mesh/core/libmesh_core_nrf51422_xxAC.a(msqueue.c.obj)
 .debug_loc     0x00013c42      0x4a0 mesh/core/libmesh_core_nrf51422_xxAC.a(ccm_soft.c.obj)
 .debug_loc     0x000140e2      0x1fb mesh/core/libmesh_core_nrf51422_xxAC.a(replay_cache.c.obj)
 .debug_loc     0x000142dd       0xa5 mesh/core/libmesh_core_nrf51422_xxAC.a(aes.c.obj)
 .debug_loc     0x00014382      0x1af mesh/core/libmesh_core_nrf51422_xxAC.a(nrf_flash.c.obj)
 .debug_loc     0x00014531      0x339 mesh/core/libmesh_core_nrf51422_xxAC.a(aes_cmac.c.obj)
 .debug_loc     0x0001486a     0x135a external/rtt/librtt_nrf51422_xxAC.a(SEGGER_RTT.c.obj)
 .debug_loc     0x00015bc4      0x79b external/rtt/librtt_nrf51422_xxAC.a(SEGGER_RTT_printf.c.obj)

.debug_aranges  0x00000000     0x16b0
 .debug_aranges
                0x00000000       0x30 examples/beaconing/CMakeFiles/beaconing_nrf51422_xxAC_s130_2.0.1.dir/src/main.c.obj
 .debug_aranges
                0x00000030       0x80 examples/beaconing/CMakeFiles/beaconing_nrf51422_xxAC_s130_2.0.1.dir/__/nrf_mesh_sdk.c.obj
 .debug_aranges
                0x000000b0      0x300 examples/beaconing/CMakeFiles/beaconing_nrf51422_xxAC_s130_2.0.1.dir/__/__/mesh/access/src/device_state_manager.c.obj
 .debug_aranges
                0x000003b0       0x28 examples/beaconing/CMakeFiles/beaconing_nrf51422_xxAC_s130_2.0.1.dir/__/nrf_mesh_weak.c.obj
 .debug_aranges
                0x000003d8       0x28 examples/beaconing/CMakeFiles/beaconing_nrf51422_xxAC_s130_2.0.1.dir/__/__/external/nRF5_SDK_14.2.0_17b948a/components/toolchain/system_nrf51.c.obj
 .debug_aranges
                0x00000400       0x30 mesh/core/libmesh_core_nrf51422_xxAC.a(event.c.obj)
 .debug_aranges
                0x00000430       0xc0 mesh/core/libmesh_core_nrf51422_xxAC.a(net_state.c.obj)
 .debug_aranges
                0x000004f0       0x30 mesh/core/libmesh_core_nrf51422_xxAC.a(nrf_mesh_utils.c.obj)
 .debug_aranges
                0x00000520       0x88 mesh/core/libmesh_core_nrf51422_xxAC.a(nrf_mesh.c.obj)
 .debug_aranges
                0x000005a8       0x38 mesh/core/libmesh_core_nrf51422_xxAC.a(hal.c.obj)
 .debug_aranges
                0x000005e0       0x68 mesh/core/libmesh_core_nrf51422_xxAC.a(timer_scheduler.c.obj)
 .debug_aranges
                0x00000648       0x60 mesh/core/libmesh_core_nrf51422_xxAC.a(timer.c.obj)
 .debug_aranges
                0x000006a8       0x30 mesh/core/libmesh_core_nrf51422_xxAC.a(ticker.c.obj)
 .debug_aranges
                0x000006d8       0x40 mesh/core/libmesh_core_nrf51422_xxAC.a(rand.c.obj)
 .debug_aranges
                0x00000718       0xb8 mesh/core/libmesh_core_nrf51422_xxAC.a(timeslot.c.obj)
 .debug_aranges
                0x000007d0       0x98 mesh/core/libmesh_core_nrf51422_xxAC.a(bearer_event.c.obj)
 .debug_aranges
                0x00000868       0x60 mesh/core/libmesh_core_nrf51422_xxAC.a(network.c.obj)
 .debug_aranges
                0x000008c8       0x48 mesh/core/libmesh_core_nrf51422_xxAC.a(list.c.obj)
 .debug_aranges
                0x00000910       0x48 mesh/core/libmesh_core_nrf51422_xxAC.a(log.c.obj)
 .debug_aranges
                0x00000958      0x100 mesh/core/libmesh_core_nrf51422_xxAC.a(flash_manager.c.obj)
 .debug_aranges
                0x00000a58       0x38 mesh/core/libmesh_core_nrf51422_xxAC.a(beacon.c.obj)
 .debug_aranges
                0x00000a90       0x20 mesh/core/libmesh_core_nrf51422_xxAC.a(flash_manager_internal.c.obj)
 .debug_aranges
                0x00000ab0       0x58 mesh/core/libmesh_core_nrf51422_xxAC.a(core_tx.c.obj)
 .debug_aranges
                0x00000b08       0x70 mesh/core/libmesh_core_nrf51422_xxAC.a(heartbeat.c.obj)
 .debug_aranges
                0x00000b78       0x48 mesh/core/libmesh_core_nrf51422_xxAC.a(net_beacon.c.obj)
 .debug_aranges
                0x00000bc0       0x68 mesh/core/libmesh_core_nrf51422_xxAC.a(core_tx_adv.c.obj)
 .debug_aranges
                0x00000c28       0x30 mesh/core/libmesh_core_nrf51422_xxAC.a(ad_listener.c.obj)
 .debug_aranges
                0x00000c58       0x58 mesh/core/libmesh_core_nrf51422_xxAC.a(ad_type_filter.c.obj)
 .debug_aranges
                0x00000cb0       0xb0 mesh/core/libmesh_core_nrf51422_xxAC.a(advertiser.c.obj)
 .debug_aranges
                0x00000d60       0x70 mesh/core/libmesh_core_nrf51422_xxAC.a(bearer_handler.c.obj)
 .debug_aranges
                0x00000dd0       0x30 mesh/core/libmesh_core_nrf51422_xxAC.a(broadcast.c.obj)
 .debug_aranges
                0x00000e00       0x38 mesh/core/libmesh_core_nrf51422_xxAC.a(filter_engine.c.obj)
 .debug_aranges
                0x00000e38       0x40 mesh/core/libmesh_core_nrf51422_xxAC.a(radio_config.c.obj)
 .debug_aranges
                0x00000e78       0xe0 mesh/core/libmesh_core_nrf51422_xxAC.a(scanner.c.obj)
 .debug_aranges
                0x00000f58       0x30 mesh/core/libmesh_core_nrf51422_xxAC.a(internal_event.c.obj)
 .debug_aranges
                0x00000f88       0x30 mesh/core/libmesh_core_nrf51422_xxAC.a(nrf_mesh_configure.c.obj)
 .debug_aranges
                0x00000fb8       0x38 mesh/core/libmesh_core_nrf51422_xxAC.a(msg_cache.c.obj)
 .debug_aranges
                0x00000ff0      0x120 mesh/core/libmesh_core_nrf51422_xxAC.a(transport.c.obj)
 .debug_aranges
                0x00001110       0x80 mesh/core/libmesh_core_nrf51422_xxAC.a(packet_buffer.c.obj)
 .debug_aranges
                0x00001190       0xc8 mesh/core/libmesh_core_nrf51422_xxAC.a(flash_manager_defrag.c.obj)
 .debug_aranges
                0x00001258       0x60 mesh/core/libmesh_core_nrf51422_xxAC.a(fifo.c.obj)
 .debug_aranges
                0x000012b8       0x48 mesh/core/libmesh_core_nrf51422_xxAC.a(packet_mgr.c.obj)
 .debug_aranges
                0x00001300       0x60 mesh/core/libmesh_core_nrf51422_xxAC.a(mesh_flash.c.obj)
 .debug_aranges
                0x00001360       0x38 mesh/core/libmesh_core_nrf51422_xxAC.a(queue.c.obj)
 .debug_aranges
                0x00001398       0x28 mesh/core/libmesh_core_nrf51422_xxAC.a(nrf_mesh_opt.c.obj)
 .debug_aranges
                0x000013c0       0x70 mesh/core/libmesh_core_nrf51422_xxAC.a(enc.c.obj)
 .debug_aranges
                0x00001430       0x48 mesh/core/libmesh_core_nrf51422_xxAC.a(msqueue.c.obj)
 .debug_aranges
                0x00001478       0x50 mesh/core/libmesh_core_nrf51422_xxAC.a(ccm_soft.c.obj)
 .debug_aranges
                0x000014c8       0x48 mesh/core/libmesh_core_nrf51422_xxAC.a(replay_cache.c.obj)
 .debug_aranges
                0x00001510       0x28 mesh/core/libmesh_core_nrf51422_xxAC.a(aes.c.obj)
 .debug_aranges
                0x00001538       0x30 mesh/core/libmesh_core_nrf51422_xxAC.a(nrf_flash.c.obj)
 .debug_aranges
                0x00001568       0x38 mesh/core/libmesh_core_nrf51422_xxAC.a(aes_cmac.c.obj)
 .debug_aranges
                0x000015a0       0xd8 external/rtt/librtt_nrf51422_xxAC.a(SEGGER_RTT.c.obj)
 .debug_aranges
                0x00001678       0x38 external/rtt/librtt_nrf51422_xxAC.a(SEGGER_RTT_printf.c.obj)

.debug_ranges   0x00000000     0x5868
 .debug_ranges  0x00000000      0x100 examples/beaconing/CMakeFiles/beaconing_nrf51422_xxAC_s130_2.0.1.dir/src/main.c.obj
 .debug_ranges  0x00000100      0x1b0 examples/beaconing/CMakeFiles/beaconing_nrf51422_xxAC_s130_2.0.1.dir/__/nrf_mesh_sdk.c.obj
 .debug_ranges  0x000002b0      0xaa0 examples/beaconing/CMakeFiles/beaconing_nrf51422_xxAC_s130_2.0.1.dir/__/__/mesh/access/src/device_state_manager.c.obj
 .debug_ranges  0x00000d50       0x18 examples/beaconing/CMakeFiles/beaconing_nrf51422_xxAC_s130_2.0.1.dir/__/nrf_mesh_weak.c.obj
 .debug_ranges  0x00000d68       0x48 examples/beaconing/CMakeFiles/beaconing_nrf51422_xxAC_s130_2.0.1.dir/__/__/external/nRF5_SDK_14.2.0_17b948a/components/toolchain/system_nrf51.c.obj
 .debug_ranges  0x00000db0       0x68 mesh/core/libmesh_core_nrf51422_xxAC.a(event.c.obj)
 .debug_ranges  0x00000e18      0x1e8 mesh/core/libmesh_core_nrf51422_xxAC.a(net_state.c.obj)
 .debug_ranges  0x00001000       0x38 mesh/core/libmesh_core_nrf51422_xxAC.a(nrf_mesh_utils.c.obj)
 .debug_ranges  0x00001038       0xd8 mesh/core/libmesh_core_nrf51422_xxAC.a(nrf_mesh.c.obj)
 .debug_ranges  0x00001110       0x28 mesh/core/libmesh_core_nrf51422_xxAC.a(hal.c.obj)
 .debug_ranges  0x00001138      0x210 mesh/core/libmesh_core_nrf51422_xxAC.a(timer_scheduler.c.obj)
 .debug_ranges  0x00001348      0x118 mesh/core/libmesh_core_nrf51422_xxAC.a(timer.c.obj)
 .debug_ranges  0x00001460       0x20 mesh/core/libmesh_core_nrf51422_xxAC.a(ticker.c.obj)
 .debug_ranges  0x00001480       0x48 mesh/core/libmesh_core_nrf51422_xxAC.a(rand.c.obj)
 .debug_ranges  0x000014c8      0x178 mesh/core/libmesh_core_nrf51422_xxAC.a(timeslot.c.obj)
 .debug_ranges  0x00001640      0x228 mesh/core/libmesh_core_nrf51422_xxAC.a(bearer_event.c.obj)
 .debug_ranges  0x00001868      0x4c8 mesh/core/libmesh_core_nrf51422_xxAC.a(network.c.obj)
 .debug_ranges  0x00001d30      0x178 mesh/core/libmesh_core_nrf51422_xxAC.a(list.c.obj)
 .debug_ranges  0x00001ea8       0x38 mesh/core/libmesh_core_nrf51422_xxAC.a(log.c.obj)
 .debug_ranges  0x00001ee0      0x740 mesh/core/libmesh_core_nrf51422_xxAC.a(flash_manager.c.obj)
 .debug_ranges  0x00002620       0xd8 mesh/core/libmesh_core_nrf51422_xxAC.a(beacon.c.obj)
 .debug_ranges  0x000026f8       0x58 mesh/core/libmesh_core_nrf51422_xxAC.a(flash_manager_internal.c.obj)
 .debug_ranges  0x00002750      0x288 mesh/core/libmesh_core_nrf51422_xxAC.a(core_tx.c.obj)
 .debug_ranges  0x000029d8      0x250 mesh/core/libmesh_core_nrf51422_xxAC.a(heartbeat.c.obj)
 .debug_ranges  0x00002c28       0xb8 mesh/core/libmesh_core_nrf51422_xxAC.a(net_beacon.c.obj)
 .debug_ranges  0x00002ce0       0xe8 mesh/core/libmesh_core_nrf51422_xxAC.a(core_tx_adv.c.obj)
 .debug_ranges  0x00002dc8       0xa0 mesh/core/libmesh_core_nrf51422_xxAC.a(ad_listener.c.obj)
 .debug_ranges  0x00002e68      0x130 mesh/core/libmesh_core_nrf51422_xxAC.a(ad_type_filter.c.obj)
 .debug_ranges  0x00002f98      0x460 mesh/core/libmesh_core_nrf51422_xxAC.a(advertiser.c.obj)
 .debug_ranges  0x000033f8      0x288 mesh/core/libmesh_core_nrf51422_xxAC.a(bearer_handler.c.obj)
 .debug_ranges  0x00003680       0xf0 mesh/core/libmesh_core_nrf51422_xxAC.a(broadcast.c.obj)
 .debug_ranges  0x00003770       0x88 mesh/core/libmesh_core_nrf51422_xxAC.a(filter_engine.c.obj)
 .debug_ranges  0x000037f8      0x110 mesh/core/libmesh_core_nrf51422_xxAC.a(radio_config.c.obj)
 .debug_ranges  0x00003908      0x2c8 mesh/core/libmesh_core_nrf51422_xxAC.a(scanner.c.obj)
 .debug_ranges  0x00003bd0       0x20 mesh/core/libmesh_core_nrf51422_xxAC.a(internal_event.c.obj)
 .debug_ranges  0x00003bf0       0x20 mesh/core/libmesh_core_nrf51422_xxAC.a(nrf_mesh_configure.c.obj)
 .debug_ranges  0x00003c10       0x48 mesh/core/libmesh_core_nrf51422_xxAC.a(msg_cache.c.obj)
 .debug_ranges  0x00003c58      0x848 mesh/core/libmesh_core_nrf51422_xxAC.a(transport.c.obj)
 .debug_ranges  0x000044a0      0x458 mesh/core/libmesh_core_nrf51422_xxAC.a(packet_buffer.c.obj)
 .debug_ranges  0x000048f8      0x388 mesh/core/libmesh_core_nrf51422_xxAC.a(flash_manager_defrag.c.obj)
 .debug_ranges  0x00004c80       0xb0 mesh/core/libmesh_core_nrf51422_xxAC.a(fifo.c.obj)
 .debug_ranges  0x00004d30      0x1b8 mesh/core/libmesh_core_nrf51422_xxAC.a(packet_mgr.c.obj)
 .debug_ranges  0x00004ee8      0x318 mesh/core/libmesh_core_nrf51422_xxAC.a(mesh_flash.c.obj)
 .debug_ranges  0x00005200       0xa0 mesh/core/libmesh_core_nrf51422_xxAC.a(queue.c.obj)
 .debug_ranges  0x000052a0       0x18 mesh/core/libmesh_core_nrf51422_xxAC.a(nrf_mesh_opt.c.obj)
 .debug_ranges  0x000052b8      0x170 mesh/core/libmesh_core_nrf51422_xxAC.a(enc.c.obj)
 .debug_ranges  0x00005428      0x158 mesh/core/libmesh_core_nrf51422_xxAC.a(msqueue.c.obj)
 .debug_ranges  0x00005580       0x40 mesh/core/libmesh_core_nrf51422_xxAC.a(ccm_soft.c.obj)
 .debug_ranges  0x000055c0       0x78 mesh/core/libmesh_core_nrf51422_xxAC.a(replay_cache.c.obj)
 .debug_ranges  0x00005638       0x18 mesh/core/libmesh_core_nrf51422_xxAC.a(aes.c.obj)
 .debug_ranges  0x00005650       0x38 mesh/core/libmesh_core_nrf51422_xxAC.a(nrf_flash.c.obj)
 .debug_ranges  0x00005688       0x78 mesh/core/libmesh_core_nrf51422_xxAC.a(aes_cmac.c.obj)
 .debug_ranges  0x00005700      0x118 external/rtt/librtt_nrf51422_xxAC.a(SEGGER_RTT.c.obj)
 .debug_ranges  0x00005818       0x50 external/rtt/librtt_nrf51422_xxAC.a(SEGGER_RTT_printf.c.obj)

.debug_line     0x00000000     0xfcc1
 .debug_line    0x00000000      0x53b examples/beaconing/CMakeFiles/beaconing_nrf51422_xxAC_s130_2.0.1.dir/src/main.c.obj
 .debug_line    0x0000053b      0x711 examples/beaconing/CMakeFiles/beaconing_nrf51422_xxAC_s130_2.0.1.dir/__/nrf_mesh_sdk.c.obj
 .debug_line    0x00000c4c     0x14dd examples/beaconing/CMakeFiles/beaconing_nrf51422_xxAC_s130_2.0.1.dir/__/__/mesh/access/src/device_state_manager.c.obj
 .debug_line    0x00002129      0x1d0 examples/beaconing/CMakeFiles/beaconing_nrf51422_xxAC_s130_2.0.1.dir/__/nrf_mesh_weak.c.obj
 .debug_line    0x000022f9      0x17b examples/beaconing/CMakeFiles/beaconing_nrf51422_xxAC_s130_2.0.1.dir/__/__/external/nRF5_SDK_14.2.0_17b948a/components/toolchain/system_nrf51.c.obj
 .debug_line    0x00002474      0x2ba mesh/core/libmesh_core_nrf51422_xxAC.a(event.c.obj)
 .debug_line    0x0000272e      0x6ab mesh/core/libmesh_core_nrf51422_xxAC.a(net_state.c.obj)
 .debug_line    0x00002dd9      0x217 mesh/core/libmesh_core_nrf51422_xxAC.a(nrf_mesh_utils.c.obj)
 .debug_line    0x00002ff0      0x725 mesh/core/libmesh_core_nrf51422_xxAC.a(nrf_mesh.c.obj)
 .debug_line    0x00003715      0x24d mesh/core/libmesh_core_nrf51422_xxAC.a(hal.c.obj)
 .debug_line    0x00003962      0x4a3 mesh/core/libmesh_core_nrf51422_xxAC.a(timer_scheduler.c.obj)
 .debug_line    0x00003e05      0x433 mesh/core/libmesh_core_nrf51422_xxAC.a(timer.c.obj)
 .debug_line    0x00004238      0x129 mesh/core/libmesh_core_nrf51422_xxAC.a(ticker.c.obj)
 .debug_line    0x00004361      0x243 mesh/core/libmesh_core_nrf51422_xxAC.a(rand.c.obj)
 .debug_line    0x000045a4      0x5fb mesh/core/libmesh_core_nrf51422_xxAC.a(timeslot.c.obj)
 .debug_line    0x00004b9f      0x621 mesh/core/libmesh_core_nrf51422_xxAC.a(bearer_event.c.obj)
 .debug_line    0x000051c0      0x7f4 mesh/core/libmesh_core_nrf51422_xxAC.a(network.c.obj)
 .debug_line    0x000059b4      0x31b mesh/core/libmesh_core_nrf51422_xxAC.a(list.c.obj)
 .debug_line    0x00005ccf      0x233 mesh/core/libmesh_core_nrf51422_xxAC.a(log.c.obj)
 .debug_line    0x00005f02      0xa80 mesh/core/libmesh_core_nrf51422_xxAC.a(flash_manager.c.obj)
 .debug_line    0x00006982      0x4d3 mesh/core/libmesh_core_nrf51422_xxAC.a(beacon.c.obj)
 .debug_line    0x00006e55      0x239 mesh/core/libmesh_core_nrf51422_xxAC.a(flash_manager_internal.c.obj)
 .debug_line    0x0000708e      0x432 mesh/core/libmesh_core_nrf51422_xxAC.a(core_tx.c.obj)
 .debug_line    0x000074c0      0x5eb mesh/core/libmesh_core_nrf51422_xxAC.a(heartbeat.c.obj)
 .debug_line    0x00007aab      0x400 mesh/core/libmesh_core_nrf51422_xxAC.a(net_beacon.c.obj)
 .debug_line    0x00007eab      0x440 mesh/core/libmesh_core_nrf51422_xxAC.a(core_tx_adv.c.obj)
 .debug_line    0x000082eb      0x305 mesh/core/libmesh_core_nrf51422_xxAC.a(ad_listener.c.obj)
 .debug_line    0x000085f0      0x3e9 mesh/core/libmesh_core_nrf51422_xxAC.a(ad_type_filter.c.obj)
 .debug_line    0x000089d9      0x83d mesh/core/libmesh_core_nrf51422_xxAC.a(advertiser.c.obj)
 .debug_line    0x00009216      0x5de mesh/core/libmesh_core_nrf51422_xxAC.a(bearer_handler.c.obj)
 .debug_line    0x000097f4      0x37c mesh/core/libmesh_core_nrf51422_xxAC.a(broadcast.c.obj)
 .debug_line    0x00009b70      0x306 mesh/core/libmesh_core_nrf51422_xxAC.a(filter_engine.c.obj)
 .debug_line    0x00009e76      0x303 mesh/core/libmesh_core_nrf51422_xxAC.a(radio_config.c.obj)
 .debug_line    0x0000a179      0x798 mesh/core/libmesh_core_nrf51422_xxAC.a(scanner.c.obj)
 .debug_line    0x0000a911      0x255 mesh/core/libmesh_core_nrf51422_xxAC.a(internal_event.c.obj)
 .debug_line    0x0000ab66      0x20f mesh/core/libmesh_core_nrf51422_xxAC.a(nrf_mesh_configure.c.obj)
 .debug_line    0x0000ad75      0x245 mesh/core/libmesh_core_nrf51422_xxAC.a(msg_cache.c.obj)
 .debug_line    0x0000afba     0x1040 mesh/core/libmesh_core_nrf51422_xxAC.a(transport.c.obj)
 .debug_line    0x0000bffa      0x728 mesh/core/libmesh_core_nrf51422_xxAC.a(packet_buffer.c.obj)
 .debug_line    0x0000c722      0x7e4 mesh/core/libmesh_core_nrf51422_xxAC.a(flash_manager_defrag.c.obj)
 .debug_line    0x0000cf06      0x3b8 mesh/core/libmesh_core_nrf51422_xxAC.a(fifo.c.obj)
 .debug_line    0x0000d2be      0x477 mesh/core/libmesh_core_nrf51422_xxAC.a(packet_mgr.c.obj)
 .debug_line    0x0000d735      0x5a6 mesh/core/libmesh_core_nrf51422_xxAC.a(mesh_flash.c.obj)
 .debug_line    0x0000dcdb      0x2d0 mesh/core/libmesh_core_nrf51422_xxAC.a(queue.c.obj)
 .debug_line    0x0000dfab      0x252 mesh/core/libmesh_core_nrf51422_xxAC.a(nrf_mesh_opt.c.obj)
 .debug_line    0x0000e1fd      0x44b mesh/core/libmesh_core_nrf51422_xxAC.a(enc.c.obj)
 .debug_line    0x0000e648      0x335 mesh/core/libmesh_core_nrf51422_xxAC.a(msqueue.c.obj)
 .debug_line    0x0000e97d      0x2e7 mesh/core/libmesh_core_nrf51422_xxAC.a(ccm_soft.c.obj)
 .debug_line    0x0000ec64      0x1fb mesh/core/libmesh_core_nrf51422_xxAC.a(replay_cache.c.obj)
 .debug_line    0x0000ee5f      0x1fe mesh/core/libmesh_core_nrf51422_xxAC.a(aes.c.obj)
 .debug_line    0x0000f05d      0x252 mesh/core/libmesh_core_nrf51422_xxAC.a(nrf_flash.c.obj)
 .debug_line    0x0000f2af      0x27e mesh/core/libmesh_core_nrf51422_xxAC.a(aes_cmac.c.obj)
 .debug_line    0x0000f52d      0x4ea external/rtt/librtt_nrf51422_xxAC.a(SEGGER_RTT.c.obj)
 .debug_line    0x0000fa17      0x2aa external/rtt/librtt_nrf51422_xxAC.a(SEGGER_RTT_printf.c.obj)

.debug_str      0x00000000     0xc3cd
 .debug_str     0x00000000     0x1539 examples/beaconing/CMakeFiles/beaconing_nrf51422_xxAC_s130_2.0.1.dir/src/main.c.obj
                               0x1750 (size before relaxing)
 .debug_str     0x00001539     0x12b6 examples/beaconing/CMakeFiles/beaconing_nrf51422_xxAC_s130_2.0.1.dir/__/nrf_mesh_sdk.c.obj
                               0x1f86 (size before relaxing)
 .debug_str     0x000027ef     0x239d examples/beaconing/CMakeFiles/beaconing_nrf51422_xxAC_s130_2.0.1.dir/__/__/mesh/access/src/device_state_manager.c.obj
                               0x2e3f (size before relaxing)
 .debug_str     0x00004b8c       0x3c examples/beaconing/CMakeFiles/beaconing_nrf51422_xxAC_s130_2.0.1.dir/__/nrf_mesh_weak.c.obj
                                0x62e (size before relaxing)
 .debug_str     0x00004bc8      0x116 examples/beaconing/CMakeFiles/beaconing_nrf51422_xxAC_s130_2.0.1.dir/__/__/external/nRF5_SDK_14.2.0_17b948a/components/toolchain/system_nrf51.c.obj
                                0x2dc (size before relaxing)
 .debug_str     0x00004cde       0xc9 mesh/core/libmesh_core_nrf51422_xxAC.a(event.c.obj)
                               0x1495 (size before relaxing)
 .debug_str     0x00004da7      0x3a6 mesh/core/libmesh_core_nrf51422_xxAC.a(net_state.c.obj)
                               0x1e1a (size before relaxing)
 .debug_str     0x0000514d       0x9b mesh/core/libmesh_core_nrf51422_xxAC.a(nrf_mesh_utils.c.obj)
                                0x73a (size before relaxing)
 .debug_str     0x000051e8      0x635 mesh/core/libmesh_core_nrf51422_xxAC.a(nrf_mesh.c.obj)
                               0x298a (size before relaxing)
 .debug_str     0x0000581d       0xba mesh/core/libmesh_core_nrf51422_xxAC.a(hal.c.obj)
                                0x746 (size before relaxing)
 .debug_str     0x000058d7      0x1b8 mesh/core/libmesh_core_nrf51422_xxAC.a(timer_scheduler.c.obj)
                                0x91d (size before relaxing)
 .debug_str     0x00005a8f      0x23a mesh/core/libmesh_core_nrf51422_xxAC.a(timer.c.obj)
                                0x743 (size before relaxing)
 .debug_str     0x00005cc9       0x42 mesh/core/libmesh_core_nrf51422_xxAC.a(ticker.c.obj)
                                0x33a (size before relaxing)
 .debug_str     0x00005d0b       0xac mesh/core/libmesh_core_nrf51422_xxAC.a(rand.c.obj)
                                0x6f9 (size before relaxing)
 .debug_str     0x00005db7      0x8c5 mesh/core/libmesh_core_nrf51422_xxAC.a(timeslot.c.obj)
                               0x1716 (size before relaxing)
 .debug_str     0x0000667c      0x307 mesh/core/libmesh_core_nrf51422_xxAC.a(bearer_event.c.obj)
                                0xd62 (size before relaxing)
 .debug_str     0x00006983      0xce6 mesh/core/libmesh_core_nrf51422_xxAC.a(network.c.obj)
                               0x19ab (size before relaxing)
 .debug_str     0x00007669       0x7d mesh/core/libmesh_core_nrf51422_xxAC.a(list.c.obj)
                                0x2a7 (size before relaxing)
 .debug_str     0x000076e6      0x182 mesh/core/libmesh_core_nrf51422_xxAC.a(log.c.obj)
                                0x7b1 (size before relaxing)
 .debug_str     0x00007868      0x8f6 mesh/core/libmesh_core_nrf51422_xxAC.a(flash_manager.c.obj)
                               0x19c2 (size before relaxing)
 .debug_str     0x0000815e       0xe1 mesh/core/libmesh_core_nrf51422_xxAC.a(beacon.c.obj)
                               0x10ba (size before relaxing)
 .debug_str     0x0000823f       0x38 mesh/core/libmesh_core_nrf51422_xxAC.a(flash_manager_internal.c.obj)
                                0x79f (size before relaxing)
 .debug_str     0x00008277      0x14e mesh/core/libmesh_core_nrf51422_xxAC.a(core_tx.c.obj)
                                0x88c (size before relaxing)
 .debug_str     0x000083c5      0x766 mesh/core/libmesh_core_nrf51422_xxAC.a(heartbeat.c.obj)
                               0x200f (size before relaxing)
 .debug_str     0x00008b2b      0x1f1 mesh/core/libmesh_core_nrf51422_xxAC.a(net_beacon.c.obj)
                                0xe58 (size before relaxing)
 .debug_str     0x00008d1c      0x102 mesh/core/libmesh_core_nrf51422_xxAC.a(core_tx_adv.c.obj)
                                0xfc2 (size before relaxing)
 .debug_str     0x00008e1e      0x198 mesh/core/libmesh_core_nrf51422_xxAC.a(ad_listener.c.obj)
                                0xb53 (size before relaxing)
 .debug_str     0x00008fb6      0x14f mesh/core/libmesh_core_nrf51422_xxAC.a(ad_type_filter.c.obj)
                                0x98d (size before relaxing)
 .debug_str     0x00009105      0x3e6 mesh/core/libmesh_core_nrf51422_xxAC.a(advertiser.c.obj)
                               0x1459 (size before relaxing)
 .debug_str     0x000094eb      0x390 mesh/core/libmesh_core_nrf51422_xxAC.a(bearer_handler.c.obj)
                                0xe3e (size before relaxing)
 .debug_str     0x0000987b      0x1ac mesh/core/libmesh_core_nrf51422_xxAC.a(broadcast.c.obj)
                                0xea1 (size before relaxing)
 .debug_str     0x00009a27       0x72 mesh/core/libmesh_core_nrf51422_xxAC.a(filter_engine.c.obj)
                                0x7fa (size before relaxing)
 .debug_str     0x00009a99       0x79 mesh/core/libmesh_core_nrf51422_xxAC.a(radio_config.c.obj)
                                0x6f0 (size before relaxing)
 .debug_str     0x00009b12      0x451 mesh/core/libmesh_core_nrf51422_xxAC.a(scanner.c.obj)
                               0x171c (size before relaxing)
 .debug_str     0x00009f63       0xc0 mesh/core/libmesh_core_nrf51422_xxAC.a(internal_event.c.obj)
                                0xa74 (size before relaxing)
 .debug_str     0x0000a023       0x73 mesh/core/libmesh_core_nrf51422_xxAC.a(nrf_mesh_configure.c.obj)
                                0x723 (size before relaxing)
 .debug_str     0x0000a096       0x71 mesh/core/libmesh_core_nrf51422_xxAC.a(msg_cache.c.obj)
                                0x6cb (size before relaxing)
 .debug_str     0x0000a107      0xd7b mesh/core/libmesh_core_nrf51422_xxAC.a(transport.c.obj)
                               0x31ce (size before relaxing)
 .debug_str     0x0000ae82      0x2cd mesh/core/libmesh_core_nrf51422_xxAC.a(packet_buffer.c.obj)
                                0xbe6 (size before relaxing)
 .debug_str     0x0000b14f      0x3b3 mesh/core/libmesh_core_nrf51422_xxAC.a(flash_manager_defrag.c.obj)
                               0x14e0 (size before relaxing)
 .debug_str     0x0000b502       0x69 mesh/core/libmesh_core_nrf51422_xxAC.a(fifo.c.obj)
                                0x6c4 (size before relaxing)
 .debug_str     0x0000b56b      0x266 mesh/core/libmesh_core_nrf51422_xxAC.a(packet_mgr.c.obj)
                                0x9b0 (size before relaxing)
 .debug_str     0x0000b7d1      0x343 mesh/core/libmesh_core_nrf51422_xxAC.a(mesh_flash.c.obj)
                                0xcd7 (size before relaxing)
 .debug_str     0x0000bb14       0x19 mesh/core/libmesh_core_nrf51422_xxAC.a(queue.c.obj)
                                0x66c (size before relaxing)
 .debug_str     0x0000bb2d       0x57 mesh/core/libmesh_core_nrf51422_xxAC.a(nrf_mesh_opt.c.obj)
                                0x902 (size before relaxing)
 .debug_str     0x0000bb84      0x12c mesh/core/libmesh_core_nrf51422_xxAC.a(enc.c.obj)
                                0x9a3 (size before relaxing)
 .debug_str     0x0000bcb0       0x43 mesh/core/libmesh_core_nrf51422_xxAC.a(msqueue.c.obj)
                                0x6a8 (size before relaxing)
 .debug_str     0x0000bcf3       0x8f mesh/core/libmesh_core_nrf51422_xxAC.a(ccm_soft.c.obj)
                                0x73e (size before relaxing)
 .debug_str     0x0000bd82       0x9f mesh/core/libmesh_core_nrf51422_xxAC.a(replay_cache.c.obj)
                                0x69e (size before relaxing)
 .debug_str     0x0000be21       0xc1 mesh/core/libmesh_core_nrf51422_xxAC.a(aes.c.obj)
                                0xa8b (size before relaxing)
 .debug_str     0x0000bee2       0x7c mesh/core/libmesh_core_nrf51422_xxAC.a(nrf_flash.c.obj)
                                0x692 (size before relaxing)
 .debug_str     0x0000bf5e       0xb8 mesh/core/libmesh_core_nrf51422_xxAC.a(aes_cmac.c.obj)
                                0x6f6 (size before relaxing)
 .debug_str     0x0000c016      0x2d8 external/rtt/librtt_nrf51422_xxAC.a(SEGGER_RTT.c.obj)
                                0x910 (size before relaxing)
 .debug_str     0x0000c2ee       0xdf external/rtt/librtt_nrf51422_xxAC.a(SEGGER_RTT_printf.c.obj)
                                0x780 (size before relaxing)

.debug_frame    0x00000000     0x42b8
 .debug_frame   0x00000000       0x68 examples/beaconing/CMakeFiles/beaconing_nrf51422_xxAC_s130_2.0.1.dir/src/main.c.obj
 .debug_frame   0x00000068      0x154 examples/beaconing/CMakeFiles/beaconing_nrf51422_xxAC_s130_2.0.1.dir/__/nrf_mesh_sdk.c.obj
 .debug_frame   0x000001bc      0xa64 examples/beaconing/CMakeFiles/beaconing_nrf51422_xxAC_s130_2.0.1.dir/__/__/mesh/access/src/device_state_manager.c.obj
 .debug_frame   0x00000c20       0x30 examples/beaconing/CMakeFiles/beaconing_nrf51422_xxAC_s130_2.0.1.dir/__/nrf_mesh_weak.c.obj
 .debug_frame   0x00000c50       0x38 examples/beaconing/CMakeFiles/beaconing_nrf51422_xxAC_s130_2.0.1.dir/__/__/external/nRF5_SDK_14.2.0_17b948a/components/toolchain/system_nrf51.c.obj
 .debug_frame   0x00000c88       0x5c mesh/core/libmesh_core_nrf51422_xxAC.a(event.c.obj)
 .debug_frame   0x00000ce4      0x210 mesh/core/libmesh_core_nrf51422_xxAC.a(net_state.c.obj)
 .debug_frame   0x00000ef4       0x50 mesh/core/libmesh_core_nrf51422_xxAC.a(nrf_mesh_utils.c.obj)
 .debug_frame   0x00000f44      0x164 mesh/core/libmesh_core_nrf51422_xxAC.a(nrf_mesh.c.obj)
 .debug_frame   0x000010a8       0x58 mesh/core/libmesh_core_nrf51422_xxAC.a(hal.c.obj)
 .debug_frame   0x00001100      0x124 mesh/core/libmesh_core_nrf51422_xxAC.a(timer_scheduler.c.obj)
 .debug_frame   0x00001224      0x110 mesh/core/libmesh_core_nrf51422_xxAC.a(timer.c.obj)
 .debug_frame   0x00001334       0x48 mesh/core/libmesh_core_nrf51422_xxAC.a(ticker.c.obj)
 .debug_frame   0x0000137c       0x90 mesh/core/libmesh_core_nrf51422_xxAC.a(rand.c.obj)
 .debug_frame   0x0000140c      0x1b0 mesh/core/libmesh_core_nrf51422_xxAC.a(timeslot.c.obj)
 .debug_frame   0x000015bc      0x1b0 mesh/core/libmesh_core_nrf51422_xxAC.a(bearer_event.c.obj)
 .debug_frame   0x0000176c      0x110 mesh/core/libmesh_core_nrf51422_xxAC.a(network.c.obj)
 .debug_frame   0x0000187c       0xb8 mesh/core/libmesh_core_nrf51422_xxAC.a(list.c.obj)
 .debug_frame   0x00001934       0xac mesh/core/libmesh_core_nrf51422_xxAC.a(log.c.obj)
 .debug_frame   0x000019e0      0x308 mesh/core/libmesh_core_nrf51422_xxAC.a(flash_manager.c.obj)
 .debug_frame   0x00001ce8       0x90 mesh/core/libmesh_core_nrf51422_xxAC.a(beacon.c.obj)
 .debug_frame   0x00001d78       0x34 mesh/core/libmesh_core_nrf51422_xxAC.a(flash_manager_internal.c.obj)
 .debug_frame   0x00001dac       0xd8 mesh/core/libmesh_core_nrf51422_xxAC.a(core_tx.c.obj)
 .debug_frame   0x00001e84      0x14c mesh/core/libmesh_core_nrf51422_xxAC.a(heartbeat.c.obj)
 .debug_frame   0x00001fd0       0xb8 mesh/core/libmesh_core_nrf51422_xxAC.a(net_beacon.c.obj)
 .debug_frame   0x00002088      0x11c mesh/core/libmesh_core_nrf51422_xxAC.a(core_tx_adv.c.obj)
 .debug_frame   0x000021a4       0x74 mesh/core/libmesh_core_nrf51422_xxAC.a(ad_listener.c.obj)
 .debug_frame   0x00002218       0xbc mesh/core/libmesh_core_nrf51422_xxAC.a(ad_type_filter.c.obj)
 .debug_frame   0x000022d4      0x214 mesh/core/libmesh_core_nrf51422_xxAC.a(advertiser.c.obj)
 .debug_frame   0x000024e8      0x12c mesh/core/libmesh_core_nrf51422_xxAC.a(bearer_handler.c.obj)
 .debug_frame   0x00002614       0x64 mesh/core/libmesh_core_nrf51422_xxAC.a(broadcast.c.obj)
 .debug_frame   0x00002678       0x6c mesh/core/libmesh_core_nrf51422_xxAC.a(filter_engine.c.obj)
 .debug_frame   0x000026e4       0x88 mesh/core/libmesh_core_nrf51422_xxAC.a(radio_config.c.obj)
 .debug_frame   0x0000276c      0x288 mesh/core/libmesh_core_nrf51422_xxAC.a(scanner.c.obj)
 .debug_frame   0x000029f4       0x58 mesh/core/libmesh_core_nrf51422_xxAC.a(internal_event.c.obj)
 .debug_frame   0x00002a4c       0x50 mesh/core/libmesh_core_nrf51422_xxAC.a(nrf_mesh_configure.c.obj)
 .debug_frame   0x00002a9c       0x74 mesh/core/libmesh_core_nrf51422_xxAC.a(msg_cache.c.obj)
 .debug_frame   0x00002b10      0x3cc mesh/core/libmesh_core_nrf51422_xxAC.a(transport.c.obj)
 .debug_frame   0x00002edc      0x178 mesh/core/libmesh_core_nrf51422_xxAC.a(packet_buffer.c.obj)
 .debug_frame   0x00003054      0x24c mesh/core/libmesh_core_nrf51422_xxAC.a(flash_manager_defrag.c.obj)
 .debug_frame   0x000032a0       0xd4 mesh/core/libmesh_core_nrf51422_xxAC.a(fifo.c.obj)
 .debug_frame   0x00003374       0x98 mesh/core/libmesh_core_nrf51422_xxAC.a(packet_mgr.c.obj)
 .debug_frame   0x0000340c      0x11c mesh/core/libmesh_core_nrf51422_xxAC.a(mesh_flash.c.obj)
 .debug_frame   0x00003528       0x74 mesh/core/libmesh_core_nrf51422_xxAC.a(queue.c.obj)
 .debug_frame   0x0000359c       0x40 mesh/core/libmesh_core_nrf51422_xxAC.a(nrf_mesh_opt.c.obj)
 .debug_frame   0x000035dc      0x14c mesh/core/libmesh_core_nrf51422_xxAC.a(enc.c.obj)
 .debug_frame   0x00003728       0xa4 mesh/core/libmesh_core_nrf51422_xxAC.a(msqueue.c.obj)
 .debug_frame   0x000037cc       0xec mesh/core/libmesh_core_nrf51422_xxAC.a(ccm_soft.c.obj)
 .debug_frame   0x000038b8       0xa8 mesh/core/libmesh_core_nrf51422_xxAC.a(replay_cache.c.obj)
 .debug_frame   0x00003960       0x3c mesh/core/libmesh_core_nrf51422_xxAC.a(aes.c.obj)
 .debug_frame   0x0000399c       0x64 mesh/core/libmesh_core_nrf51422_xxAC.a(nrf_flash.c.obj)
 .debug_frame   0x00003a00       0x84 mesh/core/libmesh_core_nrf51422_xxAC.a(aes_cmac.c.obj)
 .debug_frame   0x00003a84      0x2d8 external/rtt/librtt_nrf51422_xxAC.a(SEGGER_RTT.c.obj)
 .debug_frame   0x00003d5c       0x88 external/rtt/librtt_nrf51422_xxAC.a(SEGGER_RTT_printf.c.obj)
 .debug_frame   0x00003de4       0x20 c:/a/gcc_arm/6/bin/../lib/gcc/arm-none-eabi/6.3.1/thumb/v6-m\libgcc.a(_udivsi3.o)
 .debug_frame   0x00003e04       0x20 c:/a/gcc_arm/6/bin/../lib/gcc/arm-none-eabi/6.3.1/thumb/v6-m\libgcc.a(_divsi3.o)
 .debug_frame   0x00003e24       0x34 c:/a/gcc_arm/6/bin/../lib/gcc/arm-none-eabi/6.3.1/thumb/v6-m\libgcc.a(_muldi3.o)
 .debug_frame   0x00003e58       0x28 c:/a/gcc_arm/6/bin/../lib/gcc/arm-none-eabi/6.3.1/../../../../arm-none-eabi/lib/thumb/v6-m\libg_nano.a(lib_a-exit.o)
 .debug_frame   0x00003e80       0x2c c:/a/gcc_arm/6/bin/../lib/gcc/arm-none-eabi/6.3.1/../../../../arm-none-eabi/lib/thumb/v6-m\libg_nano.a(lib_a-init.o)
 .debug_frame   0x00003eac       0x40 c:/a/gcc_arm/6/bin/../lib/gcc/arm-none-eabi/6.3.1/../../../../arm-none-eabi/lib/thumb/v6-m\libg_nano.a(lib_a-malloc.o)
 .debug_frame   0x00003eec       0x2c c:/a/gcc_arm/6/bin/../lib/gcc/arm-none-eabi/6.3.1/../../../../arm-none-eabi/lib/thumb/v6-m\libg_nano.a(lib_a-memcmp.o)
 .debug_frame   0x00003f18       0x28 c:/a/gcc_arm/6/bin/../lib/gcc/arm-none-eabi/6.3.1/../../../../arm-none-eabi/lib/thumb/v6-m\libg_nano.a(lib_a-memcpy-stub.o)
 .debug_frame   0x00003f40       0x20 c:/a/gcc_arm/6/bin/../lib/gcc/arm-none-eabi/6.3.1/../../../../arm-none-eabi/lib/thumb/v6-m\libg_nano.a(lib_a-memset.o)
 .debug_frame   0x00003f60       0x2c c:/a/gcc_arm/6/bin/../lib/gcc/arm-none-eabi/6.3.1/../../../../arm-none-eabi/lib/thumb/v6-m\libg_nano.a(lib_a-nano-freer.o)
 .debug_frame   0x00003f8c       0x2c c:/a/gcc_arm/6/bin/../lib/gcc/arm-none-eabi/6.3.1/../../../../arm-none-eabi/lib/thumb/v6-m\libg_nano.a(lib_a-nano-mallocr.o)
 .debug_frame   0x00003fb8       0x2c c:/a/gcc_arm/6/bin/../lib/gcc/arm-none-eabi/6.3.1/../../../../arm-none-eabi/lib/thumb/v6-m\libg_nano.a(lib_a-sbrkr.o)
 .debug_frame   0x00003fe4       0x50 c:/a/gcc_arm/6/bin/../lib/gcc/arm-none-eabi/6.3.1/../../../../arm-none-eabi/lib/thumb/v6-m\libg_nano.a(lib_a-sprintf.o)
 .debug_frame   0x00004034       0x20 c:/a/gcc_arm/6/bin/../lib/gcc/arm-none-eabi/6.3.1/../../../../arm-none-eabi/lib/thumb/v6-m\libg_nano.a(lib_a-strcpy.o)
 .debug_frame   0x00004054       0x2c c:/a/gcc_arm/6/bin/../lib/gcc/arm-none-eabi/6.3.1/../../../../arm-none-eabi/lib/thumb/v6-m\libg_nano.a(lib_a-strrchr.o)
 .debug_frame   0x00004080       0x30 c:/a/gcc_arm/6/bin/../lib/gcc/arm-none-eabi/6.3.1/../../../../arm-none-eabi/lib/thumb/v6-m\libg_nano.a(lib_a-mlock.o)
 .debug_frame   0x000040b0       0x74 c:/a/gcc_arm/6/bin/../lib/gcc/arm-none-eabi/6.3.1/../../../../arm-none-eabi/lib/thumb/v6-m\libg_nano.a(lib_a-nano-svfprintf.o)
 .debug_frame   0x00004124       0x54 c:/a/gcc_arm/6/bin/../lib/gcc/arm-none-eabi/6.3.1/../../../../arm-none-eabi/lib/thumb/v6-m\libg_nano.a(lib_a-nano-vfprintf_i.o)
 .debug_frame   0x00004178       0x48 c:/a/gcc_arm/6/bin/../lib/gcc/arm-none-eabi/6.3.1/../../../../arm-none-eabi/lib/thumb/v6-m\libg_nano.a(lib_a-reent.o)
 .debug_frame   0x000041c0       0x20 c:/a/gcc_arm/6/bin/../lib/gcc/arm-none-eabi/6.3.1/../../../../arm-none-eabi/lib/thumb/v6-m\libg_nano.a(lib_a-strchr.o)
 .debug_frame   0x000041e0       0x20 c:/a/gcc_arm/6/bin/../lib/gcc/arm-none-eabi/6.3.1/../../../../arm-none-eabi/lib/thumb/v6-m\libg_nano.a(lib_a-memchr-stub.o)
 .debug_frame   0x00004200       0x28 c:/a/gcc_arm/6/bin/../lib/gcc/arm-none-eabi/6.3.1/../../../../arm-none-eabi/lib/thumb/v6-m\libg_nano.a(lib_a-memmove.o)
 .debug_frame   0x00004228       0x30 c:/a/gcc_arm/6/bin/../lib/gcc/arm-none-eabi/6.3.1/../../../../arm-none-eabi/lib/thumb/v6-m\libg_nano.a(lib_a-nano-reallocr.o)
 .debug_frame   0x00004258       0x20 c:/a/gcc_arm/6/bin/../lib/gcc/arm-none-eabi/6.3.1/../../../../arm-none-eabi/lib/thumb/v6-m\libg_nano.a(lib_a-nano-msizer.o)
 .debug_frame   0x00004278       0x20 c:/a/gcc_arm/6/bin/../lib/gcc/arm-none-eabi/6.3.1/../../../../arm-none-eabi/lib/thumb/v6-m\libnosys.a(sbrk.o)
 .debug_frame   0x00004298       0x20 c:/a/gcc_arm/6/bin/../lib/gcc/arm-none-eabi/6.3.1/../../../../arm-none-eabi/lib/thumb/v6-m\libnosys.a(_exit.o)
