Archive member included to satisfy reference by file (symbol)

external/rtt/librtt_nrf52840_xxAA.a(SEGGER_RTT.c.obj)
                              examples/beaconing/CMakeFiles/beaconing_nrf52840_xxAA_s140_6.0.0.dir/__/__/mesh/core/src/log.c.obj (SEGGER_RTT_Write)
external/rtt/librtt_nrf52840_xxAA.a(SEGGER_RTT_printf.c.obj)
                              examples/beaconing/CMakeFiles/beaconing_nrf52840_xxAA_s140_6.0.0.dir/__/__/mesh/core/src/log.c.obj (SEGGER_RTT_vprintf)
external/micro-ecc/libuECC_nrf52840_xxAA.a(uECC.c.obj)
                              examples/beaconing/CMakeFiles/beaconing_nrf52840_xxAA_s140_6.0.0.dir/__/__/mesh/prov/src/prov_utils.c.obj (uECC_secp256r1)
c:/mesh/arm_gcc/bin/../lib/gcc/arm-none-eabi/6.3.1/../../../../arm-none-eabi/lib/thumb/v7e-m/fpv4-sp/hard\libc_nano.a(lib_a-exit.o)
                              c:/mesh/arm_gcc/bin/../lib/gcc/arm-none-eabi/6.3.1/../../../../arm-none-eabi/lib/thumb/v7e-m/fpv4-sp/hard/crt0.o (exit)
c:/mesh/arm_gcc/bin/../lib/gcc/arm-none-eabi/6.3.1/../../../../arm-none-eabi/lib/thumb/v7e-m/fpv4-sp/hard\libc_nano.a(lib_a-impure.o)
                              c:/mesh/arm_gcc/bin/../lib/gcc/arm-none-eabi/6.3.1/../../../../arm-none-eabi/lib/thumb/v7e-m/fpv4-sp/hard\libc_nano.a(lib_a-exit.o) (_global_impure_ptr)
c:/mesh/arm_gcc/bin/../lib/gcc/arm-none-eabi/6.3.1/../../../../arm-none-eabi/lib/thumb/v7e-m/fpv4-sp/hard\libc_nano.a(lib_a-init.o)
                              c:/mesh/arm_gcc/bin/../lib/gcc/arm-none-eabi/6.3.1/../../../../arm-none-eabi/lib/thumb/v7e-m/fpv4-sp/hard/crt0.o (__libc_init_array)
c:/mesh/arm_gcc/bin/../lib/gcc/arm-none-eabi/6.3.1/../../../../arm-none-eabi/lib/thumb/v7e-m/fpv4-sp/hard\libc_nano.a(lib_a-malloc.o)
                              examples/beaconing/CMakeFiles/beaconing_nrf52840_xxAA_s140_6.0.0.dir/__/__/mesh/core/src/transport.c.obj (malloc)
c:/mesh/arm_gcc/bin/../lib/gcc/arm-none-eabi/6.3.1/../../../../arm-none-eabi/lib/thumb/v7e-m/fpv4-sp/hard\libc_nano.a(lib_a-memcmp.o)
                              examples/beaconing/CMakeFiles/beaconing_nrf52840_xxAA_s140_6.0.0.dir/__/__/mesh/access/src/device_state_manager.c.obj (memcmp)
c:/mesh/arm_gcc/bin/../lib/gcc/arm-none-eabi/6.3.1/../../../../arm-none-eabi/lib/thumb/v7e-m/fpv4-sp/hard\libc_nano.a(lib_a-memcpy-stub.o)
                              examples/beaconing/CMakeFiles/beaconing_nrf52840_xxAA_s140_6.0.0.dir/src/main.c.obj (memcpy)
c:/mesh/arm_gcc/bin/../lib/gcc/arm-none-eabi/6.3.1/../../../../arm-none-eabi/lib/thumb/v7e-m/fpv4-sp/hard\libc_nano.a(lib_a-memset.o)
                              c:/mesh/arm_gcc/bin/../lib/gcc/arm-none-eabi/6.3.1/../../../../arm-none-eabi/lib/thumb/v7e-m/fpv4-sp/hard/crt0.o (memset)
c:/mesh/arm_gcc/bin/../lib/gcc/arm-none-eabi/6.3.1/../../../../arm-none-eabi/lib/thumb/v7e-m/fpv4-sp/hard\libc_nano.a(lib_a-nano-freer.o)
                              c:/mesh/arm_gcc/bin/../lib/gcc/arm-none-eabi/6.3.1/../../../../arm-none-eabi/lib/thumb/v7e-m/fpv4-sp/hard\libc_nano.a(lib_a-malloc.o) (_free_r)
c:/mesh/arm_gcc/bin/../lib/gcc/arm-none-eabi/6.3.1/../../../../arm-none-eabi/lib/thumb/v7e-m/fpv4-sp/hard\libc_nano.a(lib_a-nano-mallocr.o)
                              c:/mesh/arm_gcc/bin/../lib/gcc/arm-none-eabi/6.3.1/../../../../arm-none-eabi/lib/thumb/v7e-m/fpv4-sp/hard\libc_nano.a(lib_a-malloc.o) (_malloc_r)
c:/mesh/arm_gcc/bin/../lib/gcc/arm-none-eabi/6.3.1/../../../../arm-none-eabi/lib/thumb/v7e-m/fpv4-sp/hard\libc_nano.a(lib_a-sbrkr.o)
                              c:/mesh/arm_gcc/bin/../lib/gcc/arm-none-eabi/6.3.1/../../../../arm-none-eabi/lib/thumb/v7e-m/fpv4-sp/hard\libc_nano.a(lib_a-nano-mallocr.o) (_sbrk_r)
c:/mesh/arm_gcc/bin/../lib/gcc/arm-none-eabi/6.3.1/../../../../arm-none-eabi/lib/thumb/v7e-m/fpv4-sp/hard\libc_nano.a(lib_a-sprintf.o)
                              examples/beaconing/CMakeFiles/beaconing_nrf52840_xxAA_s140_6.0.0.dir/src/main.c.obj (sprintf)
c:/mesh/arm_gcc/bin/../lib/gcc/arm-none-eabi/6.3.1/../../../../arm-none-eabi/lib/thumb/v7e-m/fpv4-sp/hard\libc_nano.a(lib_a-strcpy.o)
                              external/rtt/librtt_nrf52840_xxAA.a(SEGGER_RTT.c.obj) (strcpy)
c:/mesh/arm_gcc/bin/../lib/gcc/arm-none-eabi/6.3.1/../../../../arm-none-eabi/lib/thumb/v7e-m/fpv4-sp/hard\libc_nano.a(lib_a-strlen.o)
                              examples/beaconing/CMakeFiles/beaconing_nrf52840_xxAA_s140_6.0.0.dir/__/__/mesh/prov/src/prov_beacon.c.obj (strlen)
c:/mesh/arm_gcc/bin/../lib/gcc/arm-none-eabi/6.3.1/../../../../arm-none-eabi/lib/thumb/v7e-m/fpv4-sp/hard\libc_nano.a(lib_a-strrchr.o)
                              examples/beaconing/CMakeFiles/beaconing_nrf52840_xxAA_s140_6.0.0.dir/src/main.c.obj (strrchr)
c:/mesh/arm_gcc/bin/../lib/gcc/arm-none-eabi/6.3.1/../../../../arm-none-eabi/lib/thumb/v7e-m/fpv4-sp/hard\libc_nano.a(lib_a-mlock.o)
                              c:/mesh/arm_gcc/bin/../lib/gcc/arm-none-eabi/6.3.1/../../../../arm-none-eabi/lib/thumb/v7e-m/fpv4-sp/hard\libc_nano.a(lib_a-nano-freer.o) (__malloc_lock)
c:/mesh/arm_gcc/bin/../lib/gcc/arm-none-eabi/6.3.1/../../../../arm-none-eabi/lib/thumb/v7e-m/fpv4-sp/hard\libc_nano.a(lib_a-nano-svfprintf.o)
                              c:/mesh/arm_gcc/bin/../lib/gcc/arm-none-eabi/6.3.1/../../../../arm-none-eabi/lib/thumb/v7e-m/fpv4-sp/hard\libc_nano.a(lib_a-sprintf.o) (_svfprintf_r)
c:/mesh/arm_gcc/bin/../lib/gcc/arm-none-eabi/6.3.1/../../../../arm-none-eabi/lib/thumb/v7e-m/fpv4-sp/hard\libc_nano.a(lib_a-nano-vfprintf_i.o)
                              c:/mesh/arm_gcc/bin/../lib/gcc/arm-none-eabi/6.3.1/../../../../arm-none-eabi/lib/thumb/v7e-m/fpv4-sp/hard\libc_nano.a(lib_a-nano-svfprintf.o) (_printf_i)
c:/mesh/arm_gcc/bin/../lib/gcc/arm-none-eabi/6.3.1/../../../../arm-none-eabi/lib/thumb/v7e-m/fpv4-sp/hard\libc_nano.a(lib_a-reent.o)
                              c:/mesh/arm_gcc/bin/../lib/gcc/arm-none-eabi/6.3.1/../../../../arm-none-eabi/lib/thumb/v7e-m/fpv4-sp/hard\libc_nano.a(lib_a-sbrkr.o) (errno)
c:/mesh/arm_gcc/bin/../lib/gcc/arm-none-eabi/6.3.1/../../../../arm-none-eabi/lib/thumb/v7e-m/fpv4-sp/hard\libc_nano.a(lib_a-strchr.o)
                              c:/mesh/arm_gcc/bin/../lib/gcc/arm-none-eabi/6.3.1/../../../../arm-none-eabi/lib/thumb/v7e-m/fpv4-sp/hard\libc_nano.a(lib_a-strrchr.o) (strchr)
c:/mesh/arm_gcc/bin/../lib/gcc/arm-none-eabi/6.3.1/../../../../arm-none-eabi/lib/thumb/v7e-m/fpv4-sp/hard\libc_nano.a(lib_a-memchr.o)
                              c:/mesh/arm_gcc/bin/../lib/gcc/arm-none-eabi/6.3.1/../../../../arm-none-eabi/lib/thumb/v7e-m/fpv4-sp/hard\libc_nano.a(lib_a-nano-svfprintf.o) (memchr)
c:/mesh/arm_gcc/bin/../lib/gcc/arm-none-eabi/6.3.1/../../../../arm-none-eabi/lib/thumb/v7e-m/fpv4-sp/hard\libc_nano.a(lib_a-memmove.o)
                              c:/mesh/arm_gcc/bin/../lib/gcc/arm-none-eabi/6.3.1/../../../../arm-none-eabi/lib/thumb/v7e-m/fpv4-sp/hard\libc_nano.a(lib_a-nano-svfprintf.o) (memmove)
c:/mesh/arm_gcc/bin/../lib/gcc/arm-none-eabi/6.3.1/../../../../arm-none-eabi/lib/thumb/v7e-m/fpv4-sp/hard\libc_nano.a(lib_a-nano-reallocr.o)
                              c:/mesh/arm_gcc/bin/../lib/gcc/arm-none-eabi/6.3.1/../../../../arm-none-eabi/lib/thumb/v7e-m/fpv4-sp/hard\libc_nano.a(lib_a-nano-svfprintf.o) (_realloc_r)
c:/mesh/arm_gcc/bin/../lib/gcc/arm-none-eabi/6.3.1/../../../../arm-none-eabi/lib/thumb/v7e-m/fpv4-sp/hard\libc_nano.a(lib_a-nano-msizer.o)
                              c:/mesh/arm_gcc/bin/../lib/gcc/arm-none-eabi/6.3.1/../../../../arm-none-eabi/lib/thumb/v7e-m/fpv4-sp/hard\libc_nano.a(lib_a-nano-reallocr.o) (_malloc_usable_size_r)
c:/mesh/arm_gcc/bin/../lib/gcc/arm-none-eabi/6.3.1/../../../../arm-none-eabi/lib/thumb/v7e-m/fpv4-sp/hard\libnosys.a(sbrk.o)
                              c:/mesh/arm_gcc/bin/../lib/gcc/arm-none-eabi/6.3.1/../../../../arm-none-eabi/lib/thumb/v7e-m/fpv4-sp/hard\libc_nano.a(lib_a-sbrkr.o) (_sbrk)
c:/mesh/arm_gcc/bin/../lib/gcc/arm-none-eabi/6.3.1/../../../../arm-none-eabi/lib/thumb/v7e-m/fpv4-sp/hard\libnosys.a(_exit.o)
                              c:/mesh/arm_gcc/bin/../lib/gcc/arm-none-eabi/6.3.1/../../../../arm-none-eabi/lib/thumb/v7e-m/fpv4-sp/hard\libc_nano.a(lib_a-exit.o) (_exit)

Allocating common symbols
Common symbol       size              file

nrf_nvic_state      0xc               examples/beaconing/CMakeFiles/beaconing_nrf52840_xxAA_s140_6.0.0.dir/__/common/src/mesh_softdevice_init.c.obj
m_packet            0x24              examples/beaconing/CMakeFiles/beaconing_nrf52840_xxAA_s140_6.0.0.dir/__/__/mesh/core/src/core_tx.c.obj
errno               0x4               c:/mesh/arm_gcc/bin/../lib/gcc/arm-none-eabi/6.3.1/../../../../arm-none-eabi/lib/thumb/v7e-m/fpv4-sp/hard\libc_nano.a(lib_a-reent.o)
_SEGGER_RTT         0x78              external/rtt/librtt_nrf52840_xxAA.a(SEGGER_RTT.c.obj)

Discarded input sections

 .text          0x00000000        0x0 c:/mesh/arm_gcc/bin/../lib/gcc/arm-none-eabi/6.3.1/thumb/v7e-m/fpv4-sp/hard/crti.o
 .data          0x00000000        0x0 c:/mesh/arm_gcc/bin/../lib/gcc/arm-none-eabi/6.3.1/thumb/v7e-m/fpv4-sp/hard/crti.o
 .bss           0x00000000        0x0 c:/mesh/arm_gcc/bin/../lib/gcc/arm-none-eabi/6.3.1/thumb/v7e-m/fpv4-sp/hard/crti.o
 .data          0x00000000        0x4 c:/mesh/arm_gcc/bin/../lib/gcc/arm-none-eabi/6.3.1/thumb/v7e-m/fpv4-sp/hard/crtbegin.o
 .data          0x00000000        0x0 c:/mesh/arm_gcc/bin/../lib/gcc/arm-none-eabi/6.3.1/../../../../arm-none-eabi/lib/thumb/v7e-m/fpv4-sp/hard/crt0.o
 .bss           0x00000000        0x0 c:/mesh/arm_gcc/bin/../lib/gcc/arm-none-eabi/6.3.1/../../../../arm-none-eabi/lib/thumb/v7e-m/fpv4-sp/hard/crt0.o
 .ARM.extab     0x00000000        0x0 c:/mesh/arm_gcc/bin/../lib/gcc/arm-none-eabi/6.3.1/../../../../arm-none-eabi/lib/thumb/v7e-m/fpv4-sp/hard/crt0.o
 .text          0x00000000        0x0 examples/beaconing/CMakeFiles/beaconing_nrf52840_xxAA_s140_6.0.0.dir/src/main.c.obj
 .data          0x00000000        0x0 examples/beaconing/CMakeFiles/beaconing_nrf52840_xxAA_s140_6.0.0.dir/src/main.c.obj
 .bss           0x00000000        0x0 examples/beaconing/CMakeFiles/beaconing_nrf52840_xxAA_s140_6.0.0.dir/src/main.c.obj
 .text          0x00000000        0x0 examples/beaconing/CMakeFiles/beaconing_nrf52840_xxAA_s140_6.0.0.dir/__/__/mesh/stack/src/mesh_stack.c.obj
 .data          0x00000000        0x0 examples/beaconing/CMakeFiles/beaconing_nrf52840_xxAA_s140_6.0.0.dir/__/__/mesh/stack/src/mesh_stack.c.obj
 .bss           0x00000000        0x0 examples/beaconing/CMakeFiles/beaconing_nrf52840_xxAA_s140_6.0.0.dir/__/__/mesh/stack/src/mesh_stack.c.obj
 .text.mesh_stack_is_device_provisioned
                0x00000000       0x1c examples/beaconing/CMakeFiles/beaconing_nrf52840_xxAA_s140_6.0.0.dir/__/__/mesh/stack/src/mesh_stack.c.obj
 .text          0x00000000        0x0 examples/beaconing/CMakeFiles/beaconing_nrf52840_xxAA_s140_6.0.0.dir/__/common/src/mesh_softdevice_init.c.obj
 .data          0x00000000        0x0 examples/beaconing/CMakeFiles/beaconing_nrf52840_xxAA_s140_6.0.0.dir/__/common/src/mesh_softdevice_init.c.obj
 .bss           0x00000000        0x0 examples/beaconing/CMakeFiles/beaconing_nrf52840_xxAA_s140_6.0.0.dir/__/common/src/mesh_softdevice_init.c.obj
 .text          0x00000000        0x0 examples/beaconing/CMakeFiles/beaconing_nrf52840_xxAA_s140_6.0.0.dir/__/common/src/mesh_provisionee.c.obj
 .data          0x00000000        0x0 examples/beaconing/CMakeFiles/beaconing_nrf52840_xxAA_s140_6.0.0.dir/__/common/src/mesh_provisionee.c.obj
 .bss           0x00000000        0x0 examples/beaconing/CMakeFiles/beaconing_nrf52840_xxAA_s140_6.0.0.dir/__/common/src/mesh_provisionee.c.obj
 .text          0x00000000        0x0 examples/beaconing/CMakeFiles/beaconing_nrf52840_xxAA_s140_6.0.0.dir/__/common/src/simple_hal.c.obj
 .data          0x00000000        0x0 examples/beaconing/CMakeFiles/beaconing_nrf52840_xxAA_s140_6.0.0.dir/__/common/src/simple_hal.c.obj
 .bss           0x00000000        0x0 examples/beaconing/CMakeFiles/beaconing_nrf52840_xxAA_s140_6.0.0.dir/__/common/src/simple_hal.c.obj
 .text.hal_led_pin_get
                0x00000000       0x18 examples/beaconing/CMakeFiles/beaconing_nrf52840_xxAA_s140_6.0.0.dir/__/common/src/simple_hal.c.obj
 .text.hal_led_pin_set
                0x00000000       0x18 examples/beaconing/CMakeFiles/beaconing_nrf52840_xxAA_s140_6.0.0.dir/__/common/src/simple_hal.c.obj
 .text.hal_buttons_init
                0x00000000       0x54 examples/beaconing/CMakeFiles/beaconing_nrf52840_xxAA_s140_6.0.0.dir/__/common/src/simple_hal.c.obj
 .text          0x00000000        0x0 examples/beaconing/CMakeFiles/beaconing_nrf52840_xxAA_s140_6.0.0.dir/__/__/mesh/access/src/access_publish.c.obj
 .data          0x00000000        0x0 examples/beaconing/CMakeFiles/beaconing_nrf52840_xxAA_s140_6.0.0.dir/__/__/mesh/access/src/access_publish.c.obj
 .bss           0x00000000        0x0 examples/beaconing/CMakeFiles/beaconing_nrf52840_xxAA_s140_6.0.0.dir/__/__/mesh/access/src/access_publish.c.obj
 .text          0x00000000        0x0 examples/beaconing/CMakeFiles/beaconing_nrf52840_xxAA_s140_6.0.0.dir/__/__/mesh/access/src/access.c.obj
 .data          0x00000000        0x0 examples/beaconing/CMakeFiles/beaconing_nrf52840_xxAA_s140_6.0.0.dir/__/__/mesh/access/src/access.c.obj
 .bss           0x00000000        0x0 examples/beaconing/CMakeFiles/beaconing_nrf52840_xxAA_s140_6.0.0.dir/__/__/mesh/access/src/access.c.obj
 .text.access_model_subscription_list_alloc
                0x00000000       0x60 examples/beaconing/CMakeFiles/beaconing_nrf52840_xxAA_s140_6.0.0.dir/__/__/mesh/access/src/access.c.obj
 .text.access_model_subscription_lists_share
                0x00000000       0x60 examples/beaconing/CMakeFiles/beaconing_nrf52840_xxAA_s140_6.0.0.dir/__/__/mesh/access/src/access.c.obj
 .text.access_element_location_set
                0x00000000       0x20 examples/beaconing/CMakeFiles/beaconing_nrf52840_xxAA_s140_6.0.0.dir/__/__/mesh/access/src/access.c.obj
 .text          0x00000000        0x0 examples/beaconing/CMakeFiles/beaconing_nrf52840_xxAA_s140_6.0.0.dir/__/__/mesh/access/src/access_reliable.c.obj
 .data          0x00000000        0x0 examples/beaconing/CMakeFiles/beaconing_nrf52840_xxAA_s140_6.0.0.dir/__/__/mesh/access/src/access_reliable.c.obj
 .bss           0x00000000        0x0 examples/beaconing/CMakeFiles/beaconing_nrf52840_xxAA_s140_6.0.0.dir/__/__/mesh/access/src/access_reliable.c.obj
 .text.access_model_reliable_publish
                0x00000000      0x1cc examples/beaconing/CMakeFiles/beaconing_nrf52840_xxAA_s140_6.0.0.dir/__/__/mesh/access/src/access_reliable.c.obj
 .text          0x00000000        0x0 examples/beaconing/CMakeFiles/beaconing_nrf52840_xxAA_s140_6.0.0.dir/__/__/mesh/access/src/device_state_manager.c.obj
 .data          0x00000000        0x0 examples/beaconing/CMakeFiles/beaconing_nrf52840_xxAA_s140_6.0.0.dir/__/__/mesh/access/src/device_state_manager.c.obj
 .bss           0x00000000        0x0 examples/beaconing/CMakeFiles/beaconing_nrf52840_xxAA_s140_6.0.0.dir/__/__/mesh/access/src/device_state_manager.c.obj
 .text.dsm_has_unflashed_data
                0x00000000       0x58 examples/beaconing/CMakeFiles/beaconing_nrf52840_xxAA_s140_6.0.0.dir/__/__/mesh/access/src/device_state_manager.c.obj
 .text.dsm_address_subscription_count_get
                0x00000000       0x80 examples/beaconing/CMakeFiles/beaconing_nrf52840_xxAA_s140_6.0.0.dir/__/__/mesh/access/src/device_state_manager.c.obj
 .text.dsm_address_get_all
                0x00000000      0x258 examples/beaconing/CMakeFiles/beaconing_nrf52840_xxAA_s140_6.0.0.dir/__/__/mesh/access/src/device_state_manager.c.obj
 .text.dsm_subnet_handle_to_netkey_index
                0x00000000       0x34 examples/beaconing/CMakeFiles/beaconing_nrf52840_xxAA_s140_6.0.0.dir/__/__/mesh/access/src/device_state_manager.c.obj
 .text.dsm_devkey_delete
                0x00000000       0x6c examples/beaconing/CMakeFiles/beaconing_nrf52840_xxAA_s140_6.0.0.dir/__/__/mesh/access/src/device_state_manager.c.obj
 .text.dsm_devkey_handle_get
                0x00000000       0x3c examples/beaconing/CMakeFiles/beaconing_nrf52840_xxAA_s140_6.0.0.dir/__/__/mesh/access/src/device_state_manager.c.obj
 .text.dsm_beacon_info_get
                0x00000000       0x34 examples/beaconing/CMakeFiles/beaconing_nrf52840_xxAA_s140_6.0.0.dir/__/__/mesh/access/src/device_state_manager.c.obj
 .text          0x00000000        0x0 examples/beaconing/CMakeFiles/beaconing_nrf52840_xxAA_s140_6.0.0.dir/__/nrf_mesh_weak.c.obj
 .data          0x00000000        0x0 examples/beaconing/CMakeFiles/beaconing_nrf52840_xxAA_s140_6.0.0.dir/__/nrf_mesh_weak.c.obj
 .bss           0x00000000        0x0 examples/beaconing/CMakeFiles/beaconing_nrf52840_xxAA_s140_6.0.0.dir/__/nrf_mesh_weak.c.obj
 .text._weak_handler_ptr
                0x00000000        0x4 examples/beaconing/CMakeFiles/beaconing_nrf52840_xxAA_s140_6.0.0.dir/__/nrf_mesh_weak.c.obj
 .text          0x00000000        0x0 examples/beaconing/CMakeFiles/beaconing_nrf52840_xxAA_s140_6.0.0.dir/__/common/src/app_error_weak.c.obj
 .data          0x00000000        0x0 examples/beaconing/CMakeFiles/beaconing_nrf52840_xxAA_s140_6.0.0.dir/__/common/src/app_error_weak.c.obj
 .bss           0x00000000        0x0 examples/beaconing/CMakeFiles/beaconing_nrf52840_xxAA_s140_6.0.0.dir/__/common/src/app_error_weak.c.obj
 .text          0x00000000        0x0 examples/beaconing/CMakeFiles/beaconing_nrf52840_xxAA_s140_6.0.0.dir/__/common/src/assertion_handler_weak.c.obj
 .data          0x00000000        0x0 examples/beaconing/CMakeFiles/beaconing_nrf52840_xxAA_s140_6.0.0.dir/__/common/src/assertion_handler_weak.c.obj
 .bss           0x00000000        0x0 examples/beaconing/CMakeFiles/beaconing_nrf52840_xxAA_s140_6.0.0.dir/__/common/src/assertion_handler_weak.c.obj
 .text          0x00000000        0x0 examples/beaconing/CMakeFiles/beaconing_nrf52840_xxAA_s140_6.0.0.dir/__/__/models/config/src/composition_data.c.obj
 .data          0x00000000        0x0 examples/beaconing/CMakeFiles/beaconing_nrf52840_xxAA_s140_6.0.0.dir/__/__/models/config/src/composition_data.c.obj
 .bss           0x00000000        0x0 examples/beaconing/CMakeFiles/beaconing_nrf52840_xxAA_s140_6.0.0.dir/__/__/models/config/src/composition_data.c.obj
 .text          0x00000000        0x0 examples/beaconing/CMakeFiles/beaconing_nrf52840_xxAA_s140_6.0.0.dir/__/__/models/config/src/config_server.c.obj
 .data          0x00000000        0x0 examples/beaconing/CMakeFiles/beaconing_nrf52840_xxAA_s140_6.0.0.dir/__/__/models/config/src/config_server.c.obj
 .bss           0x00000000        0x0 examples/beaconing/CMakeFiles/beaconing_nrf52840_xxAA_s140_6.0.0.dir/__/__/models/config/src/config_server.c.obj
 .text          0x00000000        0x0 examples/beaconing/CMakeFiles/beaconing_nrf52840_xxAA_s140_6.0.0.dir/__/__/models/config/src/packed_index_list.c.obj
 .data          0x00000000        0x0 examples/beaconing/CMakeFiles/beaconing_nrf52840_xxAA_s140_6.0.0.dir/__/__/models/config/src/packed_index_list.c.obj
 .bss           0x00000000        0x0 examples/beaconing/CMakeFiles/beaconing_nrf52840_xxAA_s140_6.0.0.dir/__/__/models/config/src/packed_index_list.c.obj
 .text          0x00000000        0x0 examples/beaconing/CMakeFiles/beaconing_nrf52840_xxAA_s140_6.0.0.dir/__/__/models/health/src/health_server.c.obj
 .data          0x00000000        0x0 examples/beaconing/CMakeFiles/beaconing_nrf52840_xxAA_s140_6.0.0.dir/__/__/models/health/src/health_server.c.obj
 .bss           0x00000000        0x0 examples/beaconing/CMakeFiles/beaconing_nrf52840_xxAA_s140_6.0.0.dir/__/__/models/health/src/health_server.c.obj
 .text.health_server_fault_register
                0x00000000      0x238 examples/beaconing/CMakeFiles/beaconing_nrf52840_xxAA_s140_6.0.0.dir/__/__/models/health/src/health_server.c.obj
 .text.health_server_fault_clear
                0x00000000      0x2f4 examples/beaconing/CMakeFiles/beaconing_nrf52840_xxAA_s140_6.0.0.dir/__/__/models/health/src/health_server.c.obj
 .text.health_server_fault_is_set
                0x00000000       0x1c examples/beaconing/CMakeFiles/beaconing_nrf52840_xxAA_s140_6.0.0.dir/__/__/models/health/src/health_server.c.obj
 .text.health_server_fault_count_get
                0x00000000      0x154 examples/beaconing/CMakeFiles/beaconing_nrf52840_xxAA_s140_6.0.0.dir/__/__/models/health/src/health_server.c.obj
 .text.health_server_attention_get
                0x00000000        0x8 examples/beaconing/CMakeFiles/beaconing_nrf52840_xxAA_s140_6.0.0.dir/__/__/models/health/src/health_server.c.obj
 .text.health_server_attention_set
                0x00000000       0x98 examples/beaconing/CMakeFiles/beaconing_nrf52840_xxAA_s140_6.0.0.dir/__/__/models/health/src/health_server.c.obj
 .text          0x00000000        0x0 examples/beaconing/CMakeFiles/beaconing_nrf52840_xxAA_s140_6.0.0.dir/__/__/mesh/prov/src/prov_provisionee.c.obj
 .data          0x00000000        0x0 examples/beaconing/CMakeFiles/beaconing_nrf52840_xxAA_s140_6.0.0.dir/__/__/mesh/prov/src/prov_provisionee.c.obj
 .bss           0x00000000        0x0 examples/beaconing/CMakeFiles/beaconing_nrf52840_xxAA_s140_6.0.0.dir/__/__/mesh/prov/src/prov_provisionee.c.obj
 .text.prov_provisionee_shared_secret
                0x00000000       0xa0 examples/beaconing/CMakeFiles/beaconing_nrf52840_xxAA_s140_6.0.0.dir/__/__/mesh/prov/src/prov_provisionee.c.obj
 .text          0x00000000        0x0 examples/beaconing/CMakeFiles/beaconing_nrf52840_xxAA_s140_6.0.0.dir/__/__/mesh/prov/src/nrf_mesh_prov.c.obj
 .data          0x00000000        0x0 examples/beaconing/CMakeFiles/beaconing_nrf52840_xxAA_s140_6.0.0.dir/__/__/mesh/prov/src/nrf_mesh_prov.c.obj
 .bss           0x00000000        0x0 examples/beaconing/CMakeFiles/beaconing_nrf52840_xxAA_s140_6.0.0.dir/__/__/mesh/prov/src/nrf_mesh_prov.c.obj
 .text.nrf_mesh_prov_listen_stop
                0x00000000       0x30 examples/beaconing/CMakeFiles/beaconing_nrf52840_xxAA_s140_6.0.0.dir/__/__/mesh/prov/src/nrf_mesh_prov.c.obj
 .text.nrf_mesh_prov_provision
                0x00000000       0x58 examples/beaconing/CMakeFiles/beaconing_nrf52840_xxAA_s140_6.0.0.dir/__/__/mesh/prov/src/nrf_mesh_prov.c.obj
 .text.nrf_mesh_prov_oob_use
                0x00000000       0x18 examples/beaconing/CMakeFiles/beaconing_nrf52840_xxAA_s140_6.0.0.dir/__/__/mesh/prov/src/nrf_mesh_prov.c.obj
 .text.nrf_mesh_prov_shared_secret_provide
                0x00000000       0x10 examples/beaconing/CMakeFiles/beaconing_nrf52840_xxAA_s140_6.0.0.dir/__/__/mesh/prov/src/nrf_mesh_prov.c.obj
 .text.nrf_mesh_prov_pubkey_provide
                0x00000000       0x10 examples/beaconing/CMakeFiles/beaconing_nrf52840_xxAA_s140_6.0.0.dir/__/__/mesh/prov/src/nrf_mesh_prov.c.obj
 .text.nrf_mesh_prov_scan_start
                0x00000000       0x10 examples/beaconing/CMakeFiles/beaconing_nrf52840_xxAA_s140_6.0.0.dir/__/__/mesh/prov/src/nrf_mesh_prov.c.obj
 .text.nrf_mesh_prov_scan_stop
                0x00000000        0x4 examples/beaconing/CMakeFiles/beaconing_nrf52840_xxAA_s140_6.0.0.dir/__/__/mesh/prov/src/nrf_mesh_prov.c.obj
 .text          0x00000000        0x0 examples/beaconing/CMakeFiles/beaconing_nrf52840_xxAA_s140_6.0.0.dir/__/__/mesh/prov/src/provisioning.c.obj
 .data          0x00000000        0x0 examples/beaconing/CMakeFiles/beaconing_nrf52840_xxAA_s140_6.0.0.dir/__/__/mesh/prov/src/provisioning.c.obj
 .bss           0x00000000        0x0 examples/beaconing/CMakeFiles/beaconing_nrf52840_xxAA_s140_6.0.0.dir/__/__/mesh/prov/src/provisioning.c.obj
 .text.prov_tx_invite
                0x00000000       0x38 examples/beaconing/CMakeFiles/beaconing_nrf52840_xxAA_s140_6.0.0.dir/__/__/mesh/prov/src/provisioning.c.obj
 .text.prov_tx_start
                0x00000000       0x38 examples/beaconing/CMakeFiles/beaconing_nrf52840_xxAA_s140_6.0.0.dir/__/__/mesh/prov/src/provisioning.c.obj
 .text.prov_tx_data
                0x00000000       0x34 examples/beaconing/CMakeFiles/beaconing_nrf52840_xxAA_s140_6.0.0.dir/__/__/mesh/prov/src/provisioning.c.obj
 .text.prov_tx  0x00000000       0x3c examples/beaconing/CMakeFiles/beaconing_nrf52840_xxAA_s140_6.0.0.dir/__/__/mesh/prov/src/provisioning.c.obj
 .text          0x00000000        0x0 examples/beaconing/CMakeFiles/beaconing_nrf52840_xxAA_s140_6.0.0.dir/__/__/mesh/prov/src/prov_beacon.c.obj
 .data          0x00000000        0x0 examples/beaconing/CMakeFiles/beaconing_nrf52840_xxAA_s140_6.0.0.dir/__/__/mesh/prov/src/prov_beacon.c.obj
 .bss           0x00000000        0x0 examples/beaconing/CMakeFiles/beaconing_nrf52840_xxAA_s140_6.0.0.dir/__/__/mesh/prov/src/prov_beacon.c.obj
 .text.prov_beacon_scan_start
                0x00000000       0x1c examples/beaconing/CMakeFiles/beaconing_nrf52840_xxAA_s140_6.0.0.dir/__/__/mesh/prov/src/prov_beacon.c.obj
 .text.prov_beacon_scan_stop
                0x00000000        0xc examples/beaconing/CMakeFiles/beaconing_nrf52840_xxAA_s140_6.0.0.dir/__/__/mesh/prov/src/prov_beacon.c.obj
 .text          0x00000000        0x0 examples/beaconing/CMakeFiles/beaconing_nrf52840_xxAA_s140_6.0.0.dir/__/__/mesh/prov/src/prov_utils.c.obj
 .data          0x00000000        0x0 examples/beaconing/CMakeFiles/beaconing_nrf52840_xxAA_s140_6.0.0.dir/__/__/mesh/prov/src/prov_utils.c.obj
 .bss           0x00000000        0x0 examples/beaconing/CMakeFiles/beaconing_nrf52840_xxAA_s140_6.0.0.dir/__/__/mesh/prov/src/prov_utils.c.obj
 .text          0x00000000        0x0 examples/beaconing/CMakeFiles/beaconing_nrf52840_xxAA_s140_6.0.0.dir/__/__/mesh/prov/src/prov_bearer_adv.c.obj
 .data          0x00000000        0x0 examples/beaconing/CMakeFiles/beaconing_nrf52840_xxAA_s140_6.0.0.dir/__/__/mesh/prov/src/prov_bearer_adv.c.obj
 .bss           0x00000000        0x0 examples/beaconing/CMakeFiles/beaconing_nrf52840_xxAA_s140_6.0.0.dir/__/__/mesh/prov/src/prov_bearer_adv.c.obj
 .text.calculate_3GPP_CRC
                0x00000000       0x28 examples/beaconing/CMakeFiles/beaconing_nrf52840_xxAA_s140_6.0.0.dir/__/__/mesh/prov/src/prov_bearer_adv.c.obj
 .text          0x00000000        0x0 examples/beaconing/CMakeFiles/beaconing_nrf52840_xxAA_s140_6.0.0.dir/__/__/mesh/core/src/internal_event.c.obj
 .data          0x00000000        0x0 examples/beaconing/CMakeFiles/beaconing_nrf52840_xxAA_s140_6.0.0.dir/__/__/mesh/core/src/internal_event.c.obj
 .bss           0x00000000        0x0 examples/beaconing/CMakeFiles/beaconing_nrf52840_xxAA_s140_6.0.0.dir/__/__/mesh/core/src/internal_event.c.obj
 .comment       0x00000000       0x80 examples/beaconing/CMakeFiles/beaconing_nrf52840_xxAA_s140_6.0.0.dir/__/__/mesh/core/src/internal_event.c.obj
 .ARM.attributes
                0x00000000       0x39 examples/beaconing/CMakeFiles/beaconing_nrf52840_xxAA_s140_6.0.0.dir/__/__/mesh/core/src/internal_event.c.obj
 .text          0x00000000        0x0 examples/beaconing/CMakeFiles/beaconing_nrf52840_xxAA_s140_6.0.0.dir/__/__/mesh/core/src/nrf_mesh_configure.c.obj
 .data          0x00000000        0x0 examples/beaconing/CMakeFiles/beaconing_nrf52840_xxAA_s140_6.0.0.dir/__/__/mesh/core/src/nrf_mesh_configure.c.obj
 .bss           0x00000000        0x0 examples/beaconing/CMakeFiles/beaconing_nrf52840_xxAA_s140_6.0.0.dir/__/__/mesh/core/src/nrf_mesh_configure.c.obj
 .text          0x00000000        0x0 examples/beaconing/CMakeFiles/beaconing_nrf52840_xxAA_s140_6.0.0.dir/__/__/mesh/core/src/aes.c.obj
 .data          0x00000000        0x0 examples/beaconing/CMakeFiles/beaconing_nrf52840_xxAA_s140_6.0.0.dir/__/__/mesh/core/src/aes.c.obj
 .bss           0x00000000        0x0 examples/beaconing/CMakeFiles/beaconing_nrf52840_xxAA_s140_6.0.0.dir/__/__/mesh/core/src/aes.c.obj
 .text          0x00000000        0x0 examples/beaconing/CMakeFiles/beaconing_nrf52840_xxAA_s140_6.0.0.dir/__/__/mesh/core/src/msg_cache.c.obj
 .data          0x00000000        0x0 examples/beaconing/CMakeFiles/beaconing_nrf52840_xxAA_s140_6.0.0.dir/__/__/mesh/core/src/msg_cache.c.obj
 .bss           0x00000000        0x0 examples/beaconing/CMakeFiles/beaconing_nrf52840_xxAA_s140_6.0.0.dir/__/__/mesh/core/src/msg_cache.c.obj
 .text.msg_cache_clear
                0x00000000       0x18 examples/beaconing/CMakeFiles/beaconing_nrf52840_xxAA_s140_6.0.0.dir/__/__/mesh/core/src/msg_cache.c.obj
 .text          0x00000000        0x0 examples/beaconing/CMakeFiles/beaconing_nrf52840_xxAA_s140_6.0.0.dir/__/__/mesh/core/src/transport.c.obj
 .data          0x00000000        0x0 examples/beaconing/CMakeFiles/beaconing_nrf52840_xxAA_s140_6.0.0.dir/__/__/mesh/core/src/transport.c.obj
 .bss           0x00000000        0x0 examples/beaconing/CMakeFiles/beaconing_nrf52840_xxAA_s140_6.0.0.dir/__/__/mesh/core/src/transport.c.obj
 .text.transport_sar_mem_funcs_reset
                0x00000000       0x30 examples/beaconing/CMakeFiles/beaconing_nrf52840_xxAA_s140_6.0.0.dir/__/__/mesh/core/src/transport.c.obj
 .text.transport_sar_mem_funcs_set
                0x00000000       0x48 examples/beaconing/CMakeFiles/beaconing_nrf52840_xxAA_s140_6.0.0.dir/__/__/mesh/core/src/transport.c.obj
 .text          0x00000000        0x0 examples/beaconing/CMakeFiles/beaconing_nrf52840_xxAA_s140_6.0.0.dir/__/__/mesh/core/src/event.c.obj
 .data          0x00000000        0x0 examples/beaconing/CMakeFiles/beaconing_nrf52840_xxAA_s140_6.0.0.dir/__/__/mesh/core/src/event.c.obj
 .bss           0x00000000        0x0 examples/beaconing/CMakeFiles/beaconing_nrf52840_xxAA_s140_6.0.0.dir/__/__/mesh/core/src/event.c.obj
 .text          0x00000000        0x0 examples/beaconing/CMakeFiles/beaconing_nrf52840_xxAA_s140_6.0.0.dir/__/__/mesh/core/src/packet_buffer.c.obj
 .data          0x00000000        0x0 examples/beaconing/CMakeFiles/beaconing_nrf52840_xxAA_s140_6.0.0.dir/__/__/mesh/core/src/packet_buffer.c.obj
 .bss           0x00000000        0x0 examples/beaconing/CMakeFiles/beaconing_nrf52840_xxAA_s140_6.0.0.dir/__/__/mesh/core/src/packet_buffer.c.obj
 .text.packet_buffer_max_packet_len_get
                0x00000000       0x24 examples/beaconing/CMakeFiles/beaconing_nrf52840_xxAA_s140_6.0.0.dir/__/__/mesh/core/src/packet_buffer.c.obj
 .text          0x00000000        0x0 examples/beaconing/CMakeFiles/beaconing_nrf52840_xxAA_s140_6.0.0.dir/__/__/mesh/core/src/flash_manager_defrag.c.obj
 .data          0x00000000        0x0 examples/beaconing/CMakeFiles/beaconing_nrf52840_xxAA_s140_6.0.0.dir/__/__/mesh/core/src/flash_manager_defrag.c.obj
 .bss           0x00000000        0x0 examples/beaconing/CMakeFiles/beaconing_nrf52840_xxAA_s140_6.0.0.dir/__/__/mesh/core/src/flash_manager_defrag.c.obj
 .text.flash_manager_defragging
                0x00000000       0x44 examples/beaconing/CMakeFiles/beaconing_nrf52840_xxAA_s140_6.0.0.dir/__/__/mesh/core/src/flash_manager_defrag.c.obj
 .text          0x00000000        0x0 examples/beaconing/CMakeFiles/beaconing_nrf52840_xxAA_s140_6.0.0.dir/__/__/mesh/core/src/fifo.c.obj
 .data          0x00000000        0x0 examples/beaconing/CMakeFiles/beaconing_nrf52840_xxAA_s140_6.0.0.dir/__/__/mesh/core/src/fifo.c.obj
 .bss           0x00000000        0x0 examples/beaconing/CMakeFiles/beaconing_nrf52840_xxAA_s140_6.0.0.dir/__/__/mesh/core/src/fifo.c.obj
 .text.fifo_peek_at
                0x00000000       0x54 examples/beaconing/CMakeFiles/beaconing_nrf52840_xxAA_s140_6.0.0.dir/__/__/mesh/core/src/fifo.c.obj
 .text.fifo_peek
                0x00000000       0x50 examples/beaconing/CMakeFiles/beaconing_nrf52840_xxAA_s140_6.0.0.dir/__/__/mesh/core/src/fifo.c.obj
 .text.fifo_flush
                0x00000000        0x8 examples/beaconing/CMakeFiles/beaconing_nrf52840_xxAA_s140_6.0.0.dir/__/__/mesh/core/src/fifo.c.obj
 .text.fifo_get_len
                0x00000000        0x8 examples/beaconing/CMakeFiles/beaconing_nrf52840_xxAA_s140_6.0.0.dir/__/__/mesh/core/src/fifo.c.obj
 .text.fifo_is_full
                0x00000000       0x14 examples/beaconing/CMakeFiles/beaconing_nrf52840_xxAA_s140_6.0.0.dir/__/__/mesh/core/src/fifo.c.obj
 .text.fifo_is_empty
                0x00000000       0x10 examples/beaconing/CMakeFiles/beaconing_nrf52840_xxAA_s140_6.0.0.dir/__/__/mesh/core/src/fifo.c.obj
 .text          0x00000000        0x0 examples/beaconing/CMakeFiles/beaconing_nrf52840_xxAA_s140_6.0.0.dir/__/__/mesh/core/src/nrf_flash.c.obj
 .data          0x00000000        0x0 examples/beaconing/CMakeFiles/beaconing_nrf52840_xxAA_s140_6.0.0.dir/__/__/mesh/core/src/nrf_flash.c.obj
 .bss           0x00000000        0x0 examples/beaconing/CMakeFiles/beaconing_nrf52840_xxAA_s140_6.0.0.dir/__/__/mesh/core/src/nrf_flash.c.obj
 .text          0x00000000        0x0 examples/beaconing/CMakeFiles/beaconing_nrf52840_xxAA_s140_6.0.0.dir/__/__/mesh/core/src/packet_mgr.c.obj
 .data          0x00000000        0x0 examples/beaconing/CMakeFiles/beaconing_nrf52840_xxAA_s140_6.0.0.dir/__/__/mesh/core/src/packet_mgr.c.obj
 .bss           0x00000000        0x0 examples/beaconing/CMakeFiles/beaconing_nrf52840_xxAA_s140_6.0.0.dir/__/__/mesh/core/src/packet_mgr.c.obj
 .text.packet_mgr_alloc
                0x00000000      0x1a0 examples/beaconing/CMakeFiles/beaconing_nrf52840_xxAA_s140_6.0.0.dir/__/__/mesh/core/src/packet_mgr.c.obj
 .text.packet_mgr_free
                0x00000000       0x5c examples/beaconing/CMakeFiles/beaconing_nrf52840_xxAA_s140_6.0.0.dir/__/__/mesh/core/src/packet_mgr.c.obj
 .text.packet_mgr_get_free_space
                0x00000000       0x1c examples/beaconing/CMakeFiles/beaconing_nrf52840_xxAA_s140_6.0.0.dir/__/__/mesh/core/src/packet_mgr.c.obj
 .text.packet_mgr_refcount_get
                0x00000000        0x8 examples/beaconing/CMakeFiles/beaconing_nrf52840_xxAA_s140_6.0.0.dir/__/__/mesh/core/src/packet_mgr.c.obj
 .text.packet_mgr_size_get
                0x00000000        0x8 examples/beaconing/CMakeFiles/beaconing_nrf52840_xxAA_s140_6.0.0.dir/__/__/mesh/core/src/packet_mgr.c.obj
 .text          0x00000000        0x0 examples/beaconing/CMakeFiles/beaconing_nrf52840_xxAA_s140_6.0.0.dir/__/__/mesh/core/src/net_state.c.obj
 .data          0x00000000        0x0 examples/beaconing/CMakeFiles/beaconing_nrf52840_xxAA_s140_6.0.0.dir/__/__/mesh/core/src/net_state.c.obj
 .bss           0x00000000        0x0 examples/beaconing/CMakeFiles/beaconing_nrf52840_xxAA_s140_6.0.0.dir/__/__/mesh/core/src/net_state.c.obj
 .text.net_state_iv_update_start
                0x00000000       0x90 examples/beaconing/CMakeFiles/beaconing_nrf52840_xxAA_s140_6.0.0.dir/__/__/mesh/core/src/net_state.c.obj
 .text.net_state_iv_update_test_mode_set
                0x00000000        0xc examples/beaconing/CMakeFiles/beaconing_nrf52840_xxAA_s140_6.0.0.dir/__/__/mesh/core/src/net_state.c.obj
 .text.net_state_test_mode_transition_run
                0x00000000      0x170 examples/beaconing/CMakeFiles/beaconing_nrf52840_xxAA_s140_6.0.0.dir/__/__/mesh/core/src/net_state.c.obj
 .text          0x00000000        0x0 examples/beaconing/CMakeFiles/beaconing_nrf52840_xxAA_s140_6.0.0.dir/__/__/mesh/core/src/mesh_flash.c.obj
 .data          0x00000000        0x0 examples/beaconing/CMakeFiles/beaconing_nrf52840_xxAA_s140_6.0.0.dir/__/__/mesh/core/src/mesh_flash.c.obj
 .bss           0x00000000        0x0 examples/beaconing/CMakeFiles/beaconing_nrf52840_xxAA_s140_6.0.0.dir/__/__/mesh/core/src/mesh_flash.c.obj
 .text.mesh_flash_op_available_slots
                0x00000000       0x2c examples/beaconing/CMakeFiles/beaconing_nrf52840_xxAA_s140_6.0.0.dir/__/__/mesh/core/src/mesh_flash.c.obj
 .text.mesh_flash_in_progress
                0x00000000       0x34 examples/beaconing/CMakeFiles/beaconing_nrf52840_xxAA_s140_6.0.0.dir/__/__/mesh/core/src/mesh_flash.c.obj
 .text.mesh_flash_set_suspended
                0x00000000      0x228 examples/beaconing/CMakeFiles/beaconing_nrf52840_xxAA_s140_6.0.0.dir/__/__/mesh/core/src/mesh_flash.c.obj
 .bss.suspend_count.10416
                0x00000000        0x4 examples/beaconing/CMakeFiles/beaconing_nrf52840_xxAA_s140_6.0.0.dir/__/__/mesh/core/src/mesh_flash.c.obj
 .text          0x00000000        0x0 examples/beaconing/CMakeFiles/beaconing_nrf52840_xxAA_s140_6.0.0.dir/__/__/mesh/core/src/nrf_mesh_utils.c.obj
 .data          0x00000000        0x0 examples/beaconing/CMakeFiles/beaconing_nrf52840_xxAA_s140_6.0.0.dir/__/__/mesh/core/src/nrf_mesh_utils.c.obj
 .bss           0x00000000        0x0 examples/beaconing/CMakeFiles/beaconing_nrf52840_xxAA_s140_6.0.0.dir/__/__/mesh/core/src/nrf_mesh_utils.c.obj
 .text.nrf_mesh_rand_get
                0x00000000       0x10 examples/beaconing/CMakeFiles/beaconing_nrf52840_xxAA_s140_6.0.0.dir/__/__/mesh/core/src/nrf_mesh_utils.c.obj
 .text.nrf_mesh_gap_address_type_get
                0x00000000       0x34 examples/beaconing/CMakeFiles/beaconing_nrf52840_xxAA_s140_6.0.0.dir/__/__/mesh/core/src/nrf_mesh_utils.c.obj
 .text          0x00000000        0x0 examples/beaconing/CMakeFiles/beaconing_nrf52840_xxAA_s140_6.0.0.dir/__/__/mesh/core/src/nrf_mesh.c.obj
 .data          0x00000000        0x0 examples/beaconing/CMakeFiles/beaconing_nrf52840_xxAA_s140_6.0.0.dir/__/__/mesh/core/src/nrf_mesh.c.obj
 .bss           0x00000000        0x0 examples/beaconing/CMakeFiles/beaconing_nrf52840_xxAA_s140_6.0.0.dir/__/__/mesh/core/src/nrf_mesh.c.obj
 .text.nrf_mesh_disable
                0x00000000       0x2c examples/beaconing/CMakeFiles/beaconing_nrf52840_xxAA_s140_6.0.0.dir/__/__/mesh/core/src/nrf_mesh.c.obj
 .text.nrf_mesh_process
                0x00000000        0x4 examples/beaconing/CMakeFiles/beaconing_nrf52840_xxAA_s140_6.0.0.dir/__/__/mesh/core/src/nrf_mesh.c.obj
 .text.nrf_mesh_evt_handler_remove
                0x00000000        0x4 examples/beaconing/CMakeFiles/beaconing_nrf52840_xxAA_s140_6.0.0.dir/__/__/mesh/core/src/nrf_mesh.c.obj
 .text.nrf_mesh_rx_cb_clear
                0x00000000        0xc examples/beaconing/CMakeFiles/beaconing_nrf52840_xxAA_s140_6.0.0.dir/__/__/mesh/core/src/nrf_mesh.c.obj
 .text          0x00000000        0x0 examples/beaconing/CMakeFiles/beaconing_nrf52840_xxAA_s140_6.0.0.dir/__/__/mesh/core/src/queue.c.obj
 .data          0x00000000        0x0 examples/beaconing/CMakeFiles/beaconing_nrf52840_xxAA_s140_6.0.0.dir/__/__/mesh/core/src/queue.c.obj
 .bss           0x00000000        0x0 examples/beaconing/CMakeFiles/beaconing_nrf52840_xxAA_s140_6.0.0.dir/__/__/mesh/core/src/queue.c.obj
 .text          0x00000000        0x0 examples/beaconing/CMakeFiles/beaconing_nrf52840_xxAA_s140_6.0.0.dir/__/__/mesh/core/src/hal.c.obj
 .data          0x00000000        0x0 examples/beaconing/CMakeFiles/beaconing_nrf52840_xxAA_s140_6.0.0.dir/__/__/mesh/core/src/hal.c.obj
 .bss           0x00000000        0x0 examples/beaconing/CMakeFiles/beaconing_nrf52840_xxAA_s140_6.0.0.dir/__/__/mesh/core/src/hal.c.obj
 .text          0x00000000        0x0 examples/beaconing/CMakeFiles/beaconing_nrf52840_xxAA_s140_6.0.0.dir/__/__/mesh/core/src/aes_cmac.c.obj
 .data          0x00000000        0x0 examples/beaconing/CMakeFiles/beaconing_nrf52840_xxAA_s140_6.0.0.dir/__/__/mesh/core/src/aes_cmac.c.obj
 .bss           0x00000000        0x0 examples/beaconing/CMakeFiles/beaconing_nrf52840_xxAA_s140_6.0.0.dir/__/__/mesh/core/src/aes_cmac.c.obj
 .text          0x00000000        0x0 examples/beaconing/CMakeFiles/beaconing_nrf52840_xxAA_s140_6.0.0.dir/__/__/mesh/core/src/timer_scheduler.c.obj
 .data          0x00000000        0x0 examples/beaconing/CMakeFiles/beaconing_nrf52840_xxAA_s140_6.0.0.dir/__/__/mesh/core/src/timer_scheduler.c.obj
 .bss           0x00000000        0x0 examples/beaconing/CMakeFiles/beaconing_nrf52840_xxAA_s140_6.0.0.dir/__/__/mesh/core/src/timer_scheduler.c.obj
 .text          0x00000000        0x0 examples/beaconing/CMakeFiles/beaconing_nrf52840_xxAA_s140_6.0.0.dir/__/__/mesh/core/src/timer.c.obj
 .data          0x00000000        0x0 examples/beaconing/CMakeFiles/beaconing_nrf52840_xxAA_s140_6.0.0.dir/__/__/mesh/core/src/timer.c.obj
 .bss           0x00000000        0x0 examples/beaconing/CMakeFiles/beaconing_nrf52840_xxAA_s140_6.0.0.dir/__/__/mesh/core/src/timer.c.obj
 .text.timer_order_cb_ppi
                0x00000000       0xd8 examples/beaconing/CMakeFiles/beaconing_nrf52840_xxAA_s140_6.0.0.dir/__/__/mesh/core/src/timer.c.obj
 .text.timer_order_ppi
                0x00000000       0xc8 examples/beaconing/CMakeFiles/beaconing_nrf52840_xxAA_s140_6.0.0.dir/__/__/mesh/core/src/timer.c.obj
 .text.timer_abort
                0x00000000       0x84 examples/beaconing/CMakeFiles/beaconing_nrf52840_xxAA_s140_6.0.0.dir/__/__/mesh/core/src/timer.c.obj
 .text          0x00000000        0x0 examples/beaconing/CMakeFiles/beaconing_nrf52840_xxAA_s140_6.0.0.dir/__/__/mesh/core/src/ticker.c.obj
 .data          0x00000000        0x0 examples/beaconing/CMakeFiles/beaconing_nrf52840_xxAA_s140_6.0.0.dir/__/__/mesh/core/src/ticker.c.obj
 .bss           0x00000000        0x0 examples/beaconing/CMakeFiles/beaconing_nrf52840_xxAA_s140_6.0.0.dir/__/__/mesh/core/src/ticker.c.obj
 .text.ticker_get
                0x00000000        0xc examples/beaconing/CMakeFiles/beaconing_nrf52840_xxAA_s140_6.0.0.dir/__/__/mesh/core/src/ticker.c.obj
 .text          0x00000000        0x0 examples/beaconing/CMakeFiles/beaconing_nrf52840_xxAA_s140_6.0.0.dir/__/__/mesh/core/src/rand.c.obj
 .data          0x00000000        0x0 examples/beaconing/CMakeFiles/beaconing_nrf52840_xxAA_s140_6.0.0.dir/__/__/mesh/core/src/rand.c.obj
 .bss           0x00000000        0x0 examples/beaconing/CMakeFiles/beaconing_nrf52840_xxAA_s140_6.0.0.dir/__/__/mesh/core/src/rand.c.obj
 .text          0x00000000        0x0 examples/beaconing/CMakeFiles/beaconing_nrf52840_xxAA_s140_6.0.0.dir/__/__/mesh/core/src/nrf_mesh_opt.c.obj
 .data          0x00000000        0x0 examples/beaconing/CMakeFiles/beaconing_nrf52840_xxAA_s140_6.0.0.dir/__/__/mesh/core/src/nrf_mesh_opt.c.obj
 .bss           0x00000000        0x0 examples/beaconing/CMakeFiles/beaconing_nrf52840_xxAA_s140_6.0.0.dir/__/__/mesh/core/src/nrf_mesh_opt.c.obj
 .text          0x00000000        0x0 examples/beaconing/CMakeFiles/beaconing_nrf52840_xxAA_s140_6.0.0.dir/__/__/mesh/core/src/timeslot.c.obj
 .data          0x00000000        0x0 examples/beaconing/CMakeFiles/beaconing_nrf52840_xxAA_s140_6.0.0.dir/__/__/mesh/core/src/timeslot.c.obj
 .bss           0x00000000        0x0 examples/beaconing/CMakeFiles/beaconing_nrf52840_xxAA_s140_6.0.0.dir/__/__/mesh/core/src/timeslot.c.obj
 .text.timeslot_restart
                0x00000000       0x30 examples/beaconing/CMakeFiles/beaconing_nrf52840_xxAA_s140_6.0.0.dir/__/__/mesh/core/src/timeslot.c.obj
 .text.timeslot_end_time_get
                0x00000000       0x30 examples/beaconing/CMakeFiles/beaconing_nrf52840_xxAA_s140_6.0.0.dir/__/__/mesh/core/src/timeslot.c.obj
 .text.timeslot_is_in_ts
                0x00000000        0xc examples/beaconing/CMakeFiles/beaconing_nrf52840_xxAA_s140_6.0.0.dir/__/__/mesh/core/src/timeslot.c.obj
 .text          0x00000000        0x0 examples/beaconing/CMakeFiles/beaconing_nrf52840_xxAA_s140_6.0.0.dir/__/__/mesh/core/src/bearer_event.c.obj
 .data          0x00000000        0x0 examples/beaconing/CMakeFiles/beaconing_nrf52840_xxAA_s140_6.0.0.dir/__/__/mesh/core/src/bearer_event.c.obj
 .bss           0x00000000        0x0 examples/beaconing/CMakeFiles/beaconing_nrf52840_xxAA_s140_6.0.0.dir/__/__/mesh/core/src/bearer_event.c.obj
 .text.bearer_event_generic_post
                0x00000000       0x50 examples/beaconing/CMakeFiles/beaconing_nrf52840_xxAA_s140_6.0.0.dir/__/__/mesh/core/src/bearer_event.c.obj
 .text.bearer_event_timer_sch_post
                0x00000000       0x54 examples/beaconing/CMakeFiles/beaconing_nrf52840_xxAA_s140_6.0.0.dir/__/__/mesh/core/src/bearer_event.c.obj
 .text.bearer_event_in_correct_irq_priority
                0x00000000       0x54 examples/beaconing/CMakeFiles/beaconing_nrf52840_xxAA_s140_6.0.0.dir/__/__/mesh/core/src/bearer_event.c.obj
 .text          0x00000000        0x0 examples/beaconing/CMakeFiles/beaconing_nrf52840_xxAA_s140_6.0.0.dir/__/__/mesh/core/src/enc.c.obj
 .data          0x00000000        0x0 examples/beaconing/CMakeFiles/beaconing_nrf52840_xxAA_s140_6.0.0.dir/__/__/mesh/core/src/enc.c.obj
 .bss           0x00000000        0x0 examples/beaconing/CMakeFiles/beaconing_nrf52840_xxAA_s140_6.0.0.dir/__/__/mesh/core/src/enc.c.obj
 .text.enc_key_generate
                0x00000000        0x8 examples/beaconing/CMakeFiles/beaconing_nrf52840_xxAA_s140_6.0.0.dir/__/__/mesh/core/src/enc.c.obj
 .text          0x00000000        0x0 examples/beaconing/CMakeFiles/beaconing_nrf52840_xxAA_s140_6.0.0.dir/__/__/mesh/core/src/network.c.obj
 .data          0x00000000        0x0 examples/beaconing/CMakeFiles/beaconing_nrf52840_xxAA_s140_6.0.0.dir/__/__/mesh/core/src/network.c.obj
 .bss           0x00000000        0x0 examples/beaconing/CMakeFiles/beaconing_nrf52840_xxAA_s140_6.0.0.dir/__/__/mesh/core/src/network.c.obj
 .text.network_packet_discard
                0x00000000       0x28 examples/beaconing/CMakeFiles/beaconing_nrf52840_xxAA_s140_6.0.0.dir/__/__/mesh/core/src/network.c.obj
 .text          0x00000000        0x0 examples/beaconing/CMakeFiles/beaconing_nrf52840_xxAA_s140_6.0.0.dir/__/__/mesh/core/src/net_packet.c.obj
 .data          0x00000000        0x0 examples/beaconing/CMakeFiles/beaconing_nrf52840_xxAA_s140_6.0.0.dir/__/__/mesh/core/src/net_packet.c.obj
 .bss           0x00000000        0x0 examples/beaconing/CMakeFiles/beaconing_nrf52840_xxAA_s140_6.0.0.dir/__/__/mesh/core/src/net_packet.c.obj
 .text.net_packet_enc_start_get
                0x00000000        0x4 examples/beaconing/CMakeFiles/beaconing_nrf52840_xxAA_s140_6.0.0.dir/__/__/mesh/core/src/net_packet.c.obj
 .text.net_packet_payload_get
                0x00000000        0x4 examples/beaconing/CMakeFiles/beaconing_nrf52840_xxAA_s140_6.0.0.dir/__/__/mesh/core/src/net_packet.c.obj
 .text          0x00000000        0x0 examples/beaconing/CMakeFiles/beaconing_nrf52840_xxAA_s140_6.0.0.dir/__/__/mesh/core/src/msqueue.c.obj
 .data          0x00000000        0x0 examples/beaconing/CMakeFiles/beaconing_nrf52840_xxAA_s140_6.0.0.dir/__/__/mesh/core/src/msqueue.c.obj
 .bss           0x00000000        0x0 examples/beaconing/CMakeFiles/beaconing_nrf52840_xxAA_s140_6.0.0.dir/__/__/mesh/core/src/msqueue.c.obj
 .text.msq_reset
                0x00000000       0x24 examples/beaconing/CMakeFiles/beaconing_nrf52840_xxAA_s140_6.0.0.dir/__/__/mesh/core/src/msqueue.c.obj
 .text          0x00000000        0x0 examples/beaconing/CMakeFiles/beaconing_nrf52840_xxAA_s140_6.0.0.dir/__/__/mesh/core/src/nrf_mesh_keygen.c.obj
 .data          0x00000000        0x0 examples/beaconing/CMakeFiles/beaconing_nrf52840_xxAA_s140_6.0.0.dir/__/__/mesh/core/src/nrf_mesh_keygen.c.obj
 .bss           0x00000000        0x0 examples/beaconing/CMakeFiles/beaconing_nrf52840_xxAA_s140_6.0.0.dir/__/__/mesh/core/src/nrf_mesh_keygen.c.obj
 .text.nrf_mesh_keygen_identitykey
                0x00000000       0x4c examples/beaconing/CMakeFiles/beaconing_nrf52840_xxAA_s140_6.0.0.dir/__/__/mesh/core/src/nrf_mesh_keygen.c.obj
 .text          0x00000000        0x0 examples/beaconing/CMakeFiles/beaconing_nrf52840_xxAA_s140_6.0.0.dir/__/__/mesh/core/src/cache.c.obj
 .data          0x00000000        0x0 examples/beaconing/CMakeFiles/beaconing_nrf52840_xxAA_s140_6.0.0.dir/__/__/mesh/core/src/cache.c.obj
 .bss           0x00000000        0x0 examples/beaconing/CMakeFiles/beaconing_nrf52840_xxAA_s140_6.0.0.dir/__/__/mesh/core/src/cache.c.obj
 .text.cache_init
                0x00000000       0x44 examples/beaconing/CMakeFiles/beaconing_nrf52840_xxAA_s140_6.0.0.dir/__/__/mesh/core/src/cache.c.obj
 .text.cache_has_elem
                0x00000000       0x5c examples/beaconing/CMakeFiles/beaconing_nrf52840_xxAA_s140_6.0.0.dir/__/__/mesh/core/src/cache.c.obj
 .text.cache_put
                0x00000000       0x2c examples/beaconing/CMakeFiles/beaconing_nrf52840_xxAA_s140_6.0.0.dir/__/__/mesh/core/src/cache.c.obj
 .text.cache_erase_elem
                0x00000000       0x80 examples/beaconing/CMakeFiles/beaconing_nrf52840_xxAA_s140_6.0.0.dir/__/__/mesh/core/src/cache.c.obj
 .comment       0x00000000       0x80 examples/beaconing/CMakeFiles/beaconing_nrf52840_xxAA_s140_6.0.0.dir/__/__/mesh/core/src/cache.c.obj
 .ARM.attributes
                0x00000000       0x39 examples/beaconing/CMakeFiles/beaconing_nrf52840_xxAA_s140_6.0.0.dir/__/__/mesh/core/src/cache.c.obj
 .text          0x00000000        0x0 examples/beaconing/CMakeFiles/beaconing_nrf52840_xxAA_s140_6.0.0.dir/__/__/mesh/core/src/uri.c.obj
 .data          0x00000000        0x0 examples/beaconing/CMakeFiles/beaconing_nrf52840_xxAA_s140_6.0.0.dir/__/__/mesh/core/src/uri.c.obj
 .bss           0x00000000        0x0 examples/beaconing/CMakeFiles/beaconing_nrf52840_xxAA_s140_6.0.0.dir/__/__/mesh/core/src/uri.c.obj
 .text.uri_data_generate
                0x00000000       0x88 examples/beaconing/CMakeFiles/beaconing_nrf52840_xxAA_s140_6.0.0.dir/__/__/mesh/core/src/uri.c.obj
 .text.uri_data_parse
                0x00000000       0x80 examples/beaconing/CMakeFiles/beaconing_nrf52840_xxAA_s140_6.0.0.dir/__/__/mesh/core/src/uri.c.obj
 .text.uri_scheme_name_code_point
                0x00000000       0x5c examples/beaconing/CMakeFiles/beaconing_nrf52840_xxAA_s140_6.0.0.dir/__/__/mesh/core/src/uri.c.obj
 .text.uri_scheme_name_string
                0x00000000       0x14 examples/beaconing/CMakeFiles/beaconing_nrf52840_xxAA_s140_6.0.0.dir/__/__/mesh/core/src/uri.c.obj
 .rodata.m_code_point_strings
                0x00000000      0x2ec examples/beaconing/CMakeFiles/beaconing_nrf52840_xxAA_s140_6.0.0.dir/__/__/mesh/core/src/uri.c.obj
 .rodata.str1.4
                0x00000000      0x6ba examples/beaconing/CMakeFiles/beaconing_nrf52840_xxAA_s140_6.0.0.dir/__/__/mesh/core/src/uri.c.obj
 .comment       0x00000000       0x80 examples/beaconing/CMakeFiles/beaconing_nrf52840_xxAA_s140_6.0.0.dir/__/__/mesh/core/src/uri.c.obj
 .ARM.attributes
                0x00000000       0x39 examples/beaconing/CMakeFiles/beaconing_nrf52840_xxAA_s140_6.0.0.dir/__/__/mesh/core/src/uri.c.obj
 .text          0x00000000        0x0 examples/beaconing/CMakeFiles/beaconing_nrf52840_xxAA_s140_6.0.0.dir/__/__/mesh/core/src/list.c.obj
 .data          0x00000000        0x0 examples/beaconing/CMakeFiles/beaconing_nrf52840_xxAA_s140_6.0.0.dir/__/__/mesh/core/src/list.c.obj
 .bss           0x00000000        0x0 examples/beaconing/CMakeFiles/beaconing_nrf52840_xxAA_s140_6.0.0.dir/__/__/mesh/core/src/list.c.obj
 .text.list_size_get
                0x00000000       0x14 examples/beaconing/CMakeFiles/beaconing_nrf52840_xxAA_s140_6.0.0.dir/__/__/mesh/core/src/list.c.obj
 .text.list_sorted_add
                0x00000000       0x8c examples/beaconing/CMakeFiles/beaconing_nrf52840_xxAA_s140_6.0.0.dir/__/__/mesh/core/src/list.c.obj
 .text          0x00000000        0x0 examples/beaconing/CMakeFiles/beaconing_nrf52840_xxAA_s140_6.0.0.dir/__/__/mesh/core/src/log.c.obj
 .data          0x00000000        0x0 examples/beaconing/CMakeFiles/beaconing_nrf52840_xxAA_s140_6.0.0.dir/__/__/mesh/core/src/log.c.obj
 .bss           0x00000000        0x0 examples/beaconing/CMakeFiles/beaconing_nrf52840_xxAA_s140_6.0.0.dir/__/__/mesh/core/src/log.c.obj
 .text.log_callback_logview
                0x00000000       0x38 examples/beaconing/CMakeFiles/beaconing_nrf52840_xxAA_s140_6.0.0.dir/__/__/mesh/core/src/log.c.obj
 .text.log_set_callback
                0x00000000        0xc examples/beaconing/CMakeFiles/beaconing_nrf52840_xxAA_s140_6.0.0.dir/__/__/mesh/core/src/log.c.obj
 .text.log_vprintf
                0x00000000       0x18 examples/beaconing/CMakeFiles/beaconing_nrf52840_xxAA_s140_6.0.0.dir/__/__/mesh/core/src/log.c.obj
 .rodata.log_callback_logview.str1.4
                0x00000000       0x12 examples/beaconing/CMakeFiles/beaconing_nrf52840_xxAA_s140_6.0.0.dir/__/__/mesh/core/src/log.c.obj
 .text          0x00000000        0x0 examples/beaconing/CMakeFiles/beaconing_nrf52840_xxAA_s140_6.0.0.dir/__/__/mesh/core/src/flash_manager.c.obj
 .data          0x00000000        0x0 examples/beaconing/CMakeFiles/beaconing_nrf52840_xxAA_s140_6.0.0.dir/__/__/mesh/core/src/flash_manager.c.obj
 .bss           0x00000000        0x0 examples/beaconing/CMakeFiles/beaconing_nrf52840_xxAA_s140_6.0.0.dir/__/__/mesh/core/src/flash_manager.c.obj
 .text.flash_manager_entry_count_get
                0x00000000       0xf4 examples/beaconing/CMakeFiles/beaconing_nrf52840_xxAA_s140_6.0.0.dir/__/__/mesh/core/src/flash_manager.c.obj
 .text.flash_manager_entry_release
                0x00000000       0x74 examples/beaconing/CMakeFiles/beaconing_nrf52840_xxAA_s140_6.0.0.dir/__/__/mesh/core/src/flash_manager.c.obj
 .text          0x00000000        0x0 examples/beaconing/CMakeFiles/beaconing_nrf52840_xxAA_s140_6.0.0.dir/__/__/mesh/core/src/ccm_soft.c.obj
 .data          0x00000000        0x0 examples/beaconing/CMakeFiles/beaconing_nrf52840_xxAA_s140_6.0.0.dir/__/__/mesh/core/src/ccm_soft.c.obj
 .bss           0x00000000        0x0 examples/beaconing/CMakeFiles/beaconing_nrf52840_xxAA_s140_6.0.0.dir/__/__/mesh/core/src/ccm_soft.c.obj
 .text          0x00000000        0x0 examples/beaconing/CMakeFiles/beaconing_nrf52840_xxAA_s140_6.0.0.dir/__/__/mesh/core/src/toolchain.c.obj
 .data          0x00000000        0x0 examples/beaconing/CMakeFiles/beaconing_nrf52840_xxAA_s140_6.0.0.dir/__/__/mesh/core/src/toolchain.c.obj
 .bss           0x00000000        0x0 examples/beaconing/CMakeFiles/beaconing_nrf52840_xxAA_s140_6.0.0.dir/__/__/mesh/core/src/toolchain.c.obj
 .comment       0x00000000       0x80 examples/beaconing/CMakeFiles/beaconing_nrf52840_xxAA_s140_6.0.0.dir/__/__/mesh/core/src/toolchain.c.obj
 .ARM.attributes
                0x00000000       0x39 examples/beaconing/CMakeFiles/beaconing_nrf52840_xxAA_s140_6.0.0.dir/__/__/mesh/core/src/toolchain.c.obj
 .text          0x00000000        0x0 examples/beaconing/CMakeFiles/beaconing_nrf52840_xxAA_s140_6.0.0.dir/__/__/mesh/core/src/replay_cache.c.obj
 .data          0x00000000        0x0 examples/beaconing/CMakeFiles/beaconing_nrf52840_xxAA_s140_6.0.0.dir/__/__/mesh/core/src/replay_cache.c.obj
 .bss           0x00000000        0x0 examples/beaconing/CMakeFiles/beaconing_nrf52840_xxAA_s140_6.0.0.dir/__/__/mesh/core/src/replay_cache.c.obj
 .text.replay_cache_on_iv_update
                0x00000000       0x2c examples/beaconing/CMakeFiles/beaconing_nrf52840_xxAA_s140_6.0.0.dir/__/__/mesh/core/src/replay_cache.c.obj
 .text.replay_cache_clear
                0x00000000       0x20 examples/beaconing/CMakeFiles/beaconing_nrf52840_xxAA_s140_6.0.0.dir/__/__/mesh/core/src/replay_cache.c.obj
 .text          0x00000000        0x0 examples/beaconing/CMakeFiles/beaconing_nrf52840_xxAA_s140_6.0.0.dir/__/__/mesh/core/src/beacon.c.obj
 .data          0x00000000        0x0 examples/beaconing/CMakeFiles/beaconing_nrf52840_xxAA_s140_6.0.0.dir/__/__/mesh/core/src/beacon.c.obj
 .bss           0x00000000        0x0 examples/beaconing/CMakeFiles/beaconing_nrf52840_xxAA_s140_6.0.0.dir/__/__/mesh/core/src/beacon.c.obj
 .text          0x00000000        0x0 examples/beaconing/CMakeFiles/beaconing_nrf52840_xxAA_s140_6.0.0.dir/__/__/mesh/core/src/flash_manager_internal.c.obj
 .data          0x00000000        0x0 examples/beaconing/CMakeFiles/beaconing_nrf52840_xxAA_s140_6.0.0.dir/__/__/mesh/core/src/flash_manager_internal.c.obj
 .bss           0x00000000        0x0 examples/beaconing/CMakeFiles/beaconing_nrf52840_xxAA_s140_6.0.0.dir/__/__/mesh/core/src/flash_manager_internal.c.obj
 .text          0x00000000        0x0 examples/beaconing/CMakeFiles/beaconing_nrf52840_xxAA_s140_6.0.0.dir/__/__/mesh/core/src/core_tx.c.obj
 .data          0x00000000        0x0 examples/beaconing/CMakeFiles/beaconing_nrf52840_xxAA_s140_6.0.0.dir/__/__/mesh/core/src/core_tx.c.obj
 .bss           0x00000000        0x0 examples/beaconing/CMakeFiles/beaconing_nrf52840_xxAA_s140_6.0.0.dir/__/__/mesh/core/src/core_tx.c.obj
 .text.core_tx_bearer_type_get
                0x00000000       0x2c examples/beaconing/CMakeFiles/beaconing_nrf52840_xxAA_s140_6.0.0.dir/__/__/mesh/core/src/core_tx.c.obj
 .text.core_tx_bearer_count_get
                0x00000000        0xc examples/beaconing/CMakeFiles/beaconing_nrf52840_xxAA_s140_6.0.0.dir/__/__/mesh/core/src/core_tx.c.obj
 .text          0x00000000        0x0 examples/beaconing/CMakeFiles/beaconing_nrf52840_xxAA_s140_6.0.0.dir/__/__/mesh/core/src/heartbeat.c.obj
 .data          0x00000000        0x0 examples/beaconing/CMakeFiles/beaconing_nrf52840_xxAA_s140_6.0.0.dir/__/__/mesh/core/src/heartbeat.c.obj
 .bss           0x00000000        0x0 examples/beaconing/CMakeFiles/beaconing_nrf52840_xxAA_s140_6.0.0.dir/__/__/mesh/core/src/heartbeat.c.obj
 .text          0x00000000        0x0 examples/beaconing/CMakeFiles/beaconing_nrf52840_xxAA_s140_6.0.0.dir/__/__/mesh/core/src/net_beacon.c.obj
 .data          0x00000000        0x0 examples/beaconing/CMakeFiles/beaconing_nrf52840_xxAA_s140_6.0.0.dir/__/__/mesh/core/src/net_beacon.c.obj
 .bss           0x00000000        0x0 examples/beaconing/CMakeFiles/beaconing_nrf52840_xxAA_s140_6.0.0.dir/__/__/mesh/core/src/net_beacon.c.obj
 .text.net_beacon_build
                0x00000000       0x68 examples/beaconing/CMakeFiles/beaconing_nrf52840_xxAA_s140_6.0.0.dir/__/__/mesh/core/src/net_beacon.c.obj
 .text          0x00000000        0x0 examples/beaconing/CMakeFiles/beaconing_nrf52840_xxAA_s140_6.0.0.dir/__/__/mesh/core/src/fsm.c.obj
 .data          0x00000000        0x0 examples/beaconing/CMakeFiles/beaconing_nrf52840_xxAA_s140_6.0.0.dir/__/__/mesh/core/src/fsm.c.obj
 .bss           0x00000000        0x0 examples/beaconing/CMakeFiles/beaconing_nrf52840_xxAA_s140_6.0.0.dir/__/__/mesh/core/src/fsm.c.obj
 .text.fsm_event_post_try
                0x00000000      0x238 examples/beaconing/CMakeFiles/beaconing_nrf52840_xxAA_s140_6.0.0.dir/__/__/mesh/core/src/fsm.c.obj
 .text.fsm_init
                0x00000000      0x100 examples/beaconing/CMakeFiles/beaconing_nrf52840_xxAA_s140_6.0.0.dir/__/__/mesh/core/src/fsm.c.obj
 .text.fsm_event_post
                0x00000000       0xbc examples/beaconing/CMakeFiles/beaconing_nrf52840_xxAA_s140_6.0.0.dir/__/__/mesh/core/src/fsm.c.obj
 .text.fsm_is_processing
                0x00000000        0xc examples/beaconing/CMakeFiles/beaconing_nrf52840_xxAA_s140_6.0.0.dir/__/__/mesh/core/src/fsm.c.obj
 .rodata.fsm_event_post.str1.4
                0x00000000        0xb examples/beaconing/CMakeFiles/beaconing_nrf52840_xxAA_s140_6.0.0.dir/__/__/mesh/core/src/fsm.c.obj
 .rodata.fsm_event_post_try.str1.4
                0x00000000       0x44 examples/beaconing/CMakeFiles/beaconing_nrf52840_xxAA_s140_6.0.0.dir/__/__/mesh/core/src/fsm.c.obj
 .rodata.fsm_init.str1.4
                0x00000000        0xa examples/beaconing/CMakeFiles/beaconing_nrf52840_xxAA_s140_6.0.0.dir/__/__/mesh/core/src/fsm.c.obj
 .comment       0x00000000       0x80 examples/beaconing/CMakeFiles/beaconing_nrf52840_xxAA_s140_6.0.0.dir/__/__/mesh/core/src/fsm.c.obj
 .ARM.attributes
                0x00000000       0x39 examples/beaconing/CMakeFiles/beaconing_nrf52840_xxAA_s140_6.0.0.dir/__/__/mesh/core/src/fsm.c.obj
 .text          0x00000000        0x0 examples/beaconing/CMakeFiles/beaconing_nrf52840_xxAA_s140_6.0.0.dir/__/__/mesh/core/src/core_tx_adv.c.obj
 .data          0x00000000        0x0 examples/beaconing/CMakeFiles/beaconing_nrf52840_xxAA_s140_6.0.0.dir/__/__/mesh/core/src/core_tx_adv.c.obj
 .bss           0x00000000        0x0 examples/beaconing/CMakeFiles/beaconing_nrf52840_xxAA_s140_6.0.0.dir/__/__/mesh/core/src/core_tx_adv.c.obj
 .text.core_tx_adv_address_set
                0x00000000       0x28 examples/beaconing/CMakeFiles/beaconing_nrf52840_xxAA_s140_6.0.0.dir/__/__/mesh/core/src/core_tx_adv.c.obj
 .text          0x00000000        0x0 examples/beaconing/CMakeFiles/beaconing_nrf52840_xxAA_s140_6.0.0.dir/__/__/mesh/bearer/src/ad_listener.c.obj
 .data          0x00000000        0x0 examples/beaconing/CMakeFiles/beaconing_nrf52840_xxAA_s140_6.0.0.dir/__/__/mesh/bearer/src/ad_listener.c.obj
 .bss           0x00000000        0x0 examples/beaconing/CMakeFiles/beaconing_nrf52840_xxAA_s140_6.0.0.dir/__/__/mesh/bearer/src/ad_listener.c.obj
 .text.ad_listener_unsubscribe
                0x00000000       0x7c examples/beaconing/CMakeFiles/beaconing_nrf52840_xxAA_s140_6.0.0.dir/__/__/mesh/bearer/src/ad_listener.c.obj
 .text          0x00000000        0x0 examples/beaconing/CMakeFiles/beaconing_nrf52840_xxAA_s140_6.0.0.dir/__/__/mesh/bearer/src/ad_type_filter.c.obj
 .data          0x00000000        0x0 examples/beaconing/CMakeFiles/beaconing_nrf52840_xxAA_s140_6.0.0.dir/__/__/mesh/bearer/src/ad_type_filter.c.obj
 .bss           0x00000000        0x0 examples/beaconing/CMakeFiles/beaconing_nrf52840_xxAA_s140_6.0.0.dir/__/__/mesh/bearer/src/ad_type_filter.c.obj
 .text.bearer_adtype_remove
                0x00000000       0x28 examples/beaconing/CMakeFiles/beaconing_nrf52840_xxAA_s140_6.0.0.dir/__/__/mesh/bearer/src/ad_type_filter.c.obj
 .text.bearer_adtype_clear
                0x00000000       0x10 examples/beaconing/CMakeFiles/beaconing_nrf52840_xxAA_s140_6.0.0.dir/__/__/mesh/bearer/src/ad_type_filter.c.obj
 .text.bearer_invalid_length_amount_get
                0x00000000        0xc examples/beaconing/CMakeFiles/beaconing_nrf52840_xxAA_s140_6.0.0.dir/__/__/mesh/bearer/src/ad_type_filter.c.obj
 .text.bearer_adtype_filtered_amount_get
                0x00000000        0xc examples/beaconing/CMakeFiles/beaconing_nrf52840_xxAA_s140_6.0.0.dir/__/__/mesh/bearer/src/ad_type_filter.c.obj
 .text          0x00000000        0x0 examples/beaconing/CMakeFiles/beaconing_nrf52840_xxAA_s140_6.0.0.dir/__/__/mesh/bearer/src/adv_packet_filter.c.obj
 .data          0x00000000        0x0 examples/beaconing/CMakeFiles/beaconing_nrf52840_xxAA_s140_6.0.0.dir/__/__/mesh/bearer/src/adv_packet_filter.c.obj
 .bss           0x00000000        0x0 examples/beaconing/CMakeFiles/beaconing_nrf52840_xxAA_s140_6.0.0.dir/__/__/mesh/bearer/src/adv_packet_filter.c.obj
 .text.adv_filter_handle
                0x00000000       0x40 examples/beaconing/CMakeFiles/beaconing_nrf52840_xxAA_s140_6.0.0.dir/__/__/mesh/bearer/src/adv_packet_filter.c.obj
 .text.bearer_adv_packet_filtering_set
                0x00000000       0x1c examples/beaconing/CMakeFiles/beaconing_nrf52840_xxAA_s140_6.0.0.dir/__/__/mesh/bearer/src/adv_packet_filter.c.obj
 .text.bearer_adv_packet_remove
                0x00000000       0x18 examples/beaconing/CMakeFiles/beaconing_nrf52840_xxAA_s140_6.0.0.dir/__/__/mesh/bearer/src/adv_packet_filter.c.obj
 .text.bearer_adv_packet_add
                0x00000000       0x14 examples/beaconing/CMakeFiles/beaconing_nrf52840_xxAA_s140_6.0.0.dir/__/__/mesh/bearer/src/adv_packet_filter.c.obj
 .text.bearer_adv_packet_clear
                0x00000000        0xc examples/beaconing/CMakeFiles/beaconing_nrf52840_xxAA_s140_6.0.0.dir/__/__/mesh/bearer/src/adv_packet_filter.c.obj
 .text.bearer_adv_packet_filter_mode_set
                0x00000000       0x18 examples/beaconing/CMakeFiles/beaconing_nrf52840_xxAA_s140_6.0.0.dir/__/__/mesh/bearer/src/adv_packet_filter.c.obj
 .text.bearer_adv_packet_filtered_amount_get
                0x00000000        0xc examples/beaconing/CMakeFiles/beaconing_nrf52840_xxAA_s140_6.0.0.dir/__/__/mesh/bearer/src/adv_packet_filter.c.obj
 .bss.m_adv_packet_filter
                0x00000000       0x14 examples/beaconing/CMakeFiles/beaconing_nrf52840_xxAA_s140_6.0.0.dir/__/__/mesh/bearer/src/adv_packet_filter.c.obj
 .comment       0x00000000       0x80 examples/beaconing/CMakeFiles/beaconing_nrf52840_xxAA_s140_6.0.0.dir/__/__/mesh/bearer/src/adv_packet_filter.c.obj
 .ARM.attributes
                0x00000000       0x39 examples/beaconing/CMakeFiles/beaconing_nrf52840_xxAA_s140_6.0.0.dir/__/__/mesh/bearer/src/adv_packet_filter.c.obj
 .text          0x00000000        0x0 examples/beaconing/CMakeFiles/beaconing_nrf52840_xxAA_s140_6.0.0.dir/__/__/mesh/bearer/src/advertiser.c.obj
 .data          0x00000000        0x0 examples/beaconing/CMakeFiles/beaconing_nrf52840_xxAA_s140_6.0.0.dir/__/__/mesh/bearer/src/advertiser.c.obj
 .bss           0x00000000        0x0 examples/beaconing/CMakeFiles/beaconing_nrf52840_xxAA_s140_6.0.0.dir/__/__/mesh/bearer/src/advertiser.c.obj
 .text.advertiser_disable
                0x00000000        0xc examples/beaconing/CMakeFiles/beaconing_nrf52840_xxAA_s140_6.0.0.dir/__/__/mesh/bearer/src/advertiser.c.obj
 .text.advertiser_config_set
                0x00000000      0x180 examples/beaconing/CMakeFiles/beaconing_nrf52840_xxAA_s140_6.0.0.dir/__/__/mesh/bearer/src/advertiser.c.obj
 .text.advertiser_channels_set
                0x00000000       0x94 examples/beaconing/CMakeFiles/beaconing_nrf52840_xxAA_s140_6.0.0.dir/__/__/mesh/bearer/src/advertiser.c.obj
 .text.advertiser_address_set
                0x00000000       0x64 examples/beaconing/CMakeFiles/beaconing_nrf52840_xxAA_s140_6.0.0.dir/__/__/mesh/bearer/src/advertiser.c.obj
 .text.advertiser_config_get
                0x00000000       0x24 examples/beaconing/CMakeFiles/beaconing_nrf52840_xxAA_s140_6.0.0.dir/__/__/mesh/bearer/src/advertiser.c.obj
 .text.advertiser_address_default_get
                0x00000000       0x5c examples/beaconing/CMakeFiles/beaconing_nrf52840_xxAA_s140_6.0.0.dir/__/__/mesh/bearer/src/advertiser.c.obj
 .text          0x00000000        0x0 examples/beaconing/CMakeFiles/beaconing_nrf52840_xxAA_s140_6.0.0.dir/__/__/mesh/bearer/src/bearer_handler.c.obj
 .data          0x00000000        0x0 examples/beaconing/CMakeFiles/beaconing_nrf52840_xxAA_s140_6.0.0.dir/__/__/mesh/bearer/src/bearer_handler.c.obj
 .bss           0x00000000        0x0 examples/beaconing/CMakeFiles/beaconing_nrf52840_xxAA_s140_6.0.0.dir/__/__/mesh/bearer/src/bearer_handler.c.obj
 .text.bearer_handler_stop
                0x00000000       0x20 examples/beaconing/CMakeFiles/beaconing_nrf52840_xxAA_s140_6.0.0.dir/__/__/mesh/bearer/src/bearer_handler.c.obj
 .text.bearer_handler_action_fire
                0x00000000       0x9c examples/beaconing/CMakeFiles/beaconing_nrf52840_xxAA_s140_6.0.0.dir/__/__/mesh/bearer/src/bearer_handler.c.obj
 .text          0x00000000        0x0 examples/beaconing/CMakeFiles/beaconing_nrf52840_xxAA_s140_6.0.0.dir/__/__/mesh/bearer/src/broadcast.c.obj
 .data          0x00000000        0x0 examples/beaconing/CMakeFiles/beaconing_nrf52840_xxAA_s140_6.0.0.dir/__/__/mesh/bearer/src/broadcast.c.obj
 .bss           0x00000000        0x0 examples/beaconing/CMakeFiles/beaconing_nrf52840_xxAA_s140_6.0.0.dir/__/__/mesh/bearer/src/broadcast.c.obj
 .text          0x00000000        0x0 examples/beaconing/CMakeFiles/beaconing_nrf52840_xxAA_s140_6.0.0.dir/__/__/mesh/bearer/src/filter_engine.c.obj
 .data          0x00000000        0x0 examples/beaconing/CMakeFiles/beaconing_nrf52840_xxAA_s140_6.0.0.dir/__/__/mesh/bearer/src/filter_engine.c.obj
 .bss           0x00000000        0x0 examples/beaconing/CMakeFiles/beaconing_nrf52840_xxAA_s140_6.0.0.dir/__/__/mesh/bearer/src/filter_engine.c.obj
 .text.fen_accepted_amount_get
                0x00000000        0xc examples/beaconing/CMakeFiles/beaconing_nrf52840_xxAA_s140_6.0.0.dir/__/__/mesh/bearer/src/filter_engine.c.obj
 .text          0x00000000        0x0 examples/beaconing/CMakeFiles/beaconing_nrf52840_xxAA_s140_6.0.0.dir/__/__/mesh/bearer/src/gap_address_filter.c.obj
 .data          0x00000000        0x0 examples/beaconing/CMakeFiles/beaconing_nrf52840_xxAA_s140_6.0.0.dir/__/__/mesh/bearer/src/gap_address_filter.c.obj
 .bss           0x00000000        0x0 examples/beaconing/CMakeFiles/beaconing_nrf52840_xxAA_s140_6.0.0.dir/__/__/mesh/bearer/src/gap_address_filter.c.obj
 .text.gap_address_filter_handle
                0x00000000       0xb4 examples/beaconing/CMakeFiles/beaconing_nrf52840_xxAA_s140_6.0.0.dir/__/__/mesh/bearer/src/gap_address_filter.c.obj
 .text.bearer_filter_gap_addr_whitelist_set
                0x00000000       0x48 examples/beaconing/CMakeFiles/beaconing_nrf52840_xxAA_s140_6.0.0.dir/__/__/mesh/bearer/src/gap_address_filter.c.obj
 .text.bearer_filter_gap_addr_blacklist_set
                0x00000000       0x4c examples/beaconing/CMakeFiles/beaconing_nrf52840_xxAA_s140_6.0.0.dir/__/__/mesh/bearer/src/gap_address_filter.c.obj
 .text.bearer_filter_gap_addr_range_set
                0x00000000       0x64 examples/beaconing/CMakeFiles/beaconing_nrf52840_xxAA_s140_6.0.0.dir/__/__/mesh/bearer/src/gap_address_filter.c.obj
 .text.bearer_filter_gap_addr_clear
                0x00000000       0x24 examples/beaconing/CMakeFiles/beaconing_nrf52840_xxAA_s140_6.0.0.dir/__/__/mesh/bearer/src/gap_address_filter.c.obj
 .text.bearer_gap_addr_filtered_amount_get
                0x00000000        0xc examples/beaconing/CMakeFiles/beaconing_nrf52840_xxAA_s140_6.0.0.dir/__/__/mesh/bearer/src/gap_address_filter.c.obj
 .bss.m_addr_filter
                0x00000000       0x18 examples/beaconing/CMakeFiles/beaconing_nrf52840_xxAA_s140_6.0.0.dir/__/__/mesh/bearer/src/gap_address_filter.c.obj
 .comment       0x00000000       0x80 examples/beaconing/CMakeFiles/beaconing_nrf52840_xxAA_s140_6.0.0.dir/__/__/mesh/bearer/src/gap_address_filter.c.obj
 .ARM.attributes
                0x00000000       0x39 examples/beaconing/CMakeFiles/beaconing_nrf52840_xxAA_s140_6.0.0.dir/__/__/mesh/bearer/src/gap_address_filter.c.obj
 .text          0x00000000        0x0 examples/beaconing/CMakeFiles/beaconing_nrf52840_xxAA_s140_6.0.0.dir/__/__/mesh/bearer/src/radio_config.c.obj
 .data          0x00000000        0x0 examples/beaconing/CMakeFiles/beaconing_nrf52840_xxAA_s140_6.0.0.dir/__/__/mesh/bearer/src/radio_config.c.obj
 .bss           0x00000000        0x0 examples/beaconing/CMakeFiles/beaconing_nrf52840_xxAA_s140_6.0.0.dir/__/__/mesh/bearer/src/radio_config.c.obj
 .text.radio_config_access_addr_get
                0x00000000       0x54 examples/beaconing/CMakeFiles/beaconing_nrf52840_xxAA_s140_6.0.0.dir/__/__/mesh/bearer/src/radio_config.c.obj
 .text          0x00000000        0x0 examples/beaconing/CMakeFiles/beaconing_nrf52840_xxAA_s140_6.0.0.dir/__/__/mesh/bearer/src/rssi_filter.c.obj
 .data          0x00000000        0x0 examples/beaconing/CMakeFiles/beaconing_nrf52840_xxAA_s140_6.0.0.dir/__/__/mesh/bearer/src/rssi_filter.c.obj
 .bss           0x00000000        0x0 examples/beaconing/CMakeFiles/beaconing_nrf52840_xxAA_s140_6.0.0.dir/__/__/mesh/bearer/src/rssi_filter.c.obj
 .text.rssi_filter_handle
                0x00000000       0x20 examples/beaconing/CMakeFiles/beaconing_nrf52840_xxAA_s140_6.0.0.dir/__/__/mesh/bearer/src/rssi_filter.c.obj
 .text.bearer_rssi_filtering_set
                0x00000000       0x34 examples/beaconing/CMakeFiles/beaconing_nrf52840_xxAA_s140_6.0.0.dir/__/__/mesh/bearer/src/rssi_filter.c.obj
 .text.bearer_rssi_filtered_amount_get
                0x00000000        0xc examples/beaconing/CMakeFiles/beaconing_nrf52840_xxAA_s140_6.0.0.dir/__/__/mesh/bearer/src/rssi_filter.c.obj
 .bss.m_rssi_filter
                0x00000000       0x18 examples/beaconing/CMakeFiles/beaconing_nrf52840_xxAA_s140_6.0.0.dir/__/__/mesh/bearer/src/rssi_filter.c.obj
 .comment       0x00000000       0x80 examples/beaconing/CMakeFiles/beaconing_nrf52840_xxAA_s140_6.0.0.dir/__/__/mesh/bearer/src/rssi_filter.c.obj
 .ARM.attributes
                0x00000000       0x39 examples/beaconing/CMakeFiles/beaconing_nrf52840_xxAA_s140_6.0.0.dir/__/__/mesh/bearer/src/rssi_filter.c.obj
 .text          0x00000000        0x0 examples/beaconing/CMakeFiles/beaconing_nrf52840_xxAA_s140_6.0.0.dir/__/__/mesh/bearer/src/scanner.c.obj
 .data          0x00000000        0x0 examples/beaconing/CMakeFiles/beaconing_nrf52840_xxAA_s140_6.0.0.dir/__/__/mesh/bearer/src/scanner.c.obj
 .bss           0x00000000        0x0 examples/beaconing/CMakeFiles/beaconing_nrf52840_xxAA_s140_6.0.0.dir/__/__/mesh/bearer/src/scanner.c.obj
 .text.scanner_rx_callback_set
                0x00000000       0x20 examples/beaconing/CMakeFiles/beaconing_nrf52840_xxAA_s140_6.0.0.dir/__/__/mesh/bearer/src/scanner.c.obj
 .text.scanner_disable
                0x00000000       0x54 examples/beaconing/CMakeFiles/beaconing_nrf52840_xxAA_s140_6.0.0.dir/__/__/mesh/bearer/src/scanner.c.obj
 .text.scanner_is_enabled
                0x00000000       0x14 examples/beaconing/CMakeFiles/beaconing_nrf52840_xxAA_s140_6.0.0.dir/__/__/mesh/bearer/src/scanner.c.obj
 .text.scanner_stats_get
                0x00000000        0x8 examples/beaconing/CMakeFiles/beaconing_nrf52840_xxAA_s140_6.0.0.dir/__/__/mesh/bearer/src/scanner.c.obj
 .text.scanner_config_radio_mode_set
                0x00000000       0x10 examples/beaconing/CMakeFiles/beaconing_nrf52840_xxAA_s140_6.0.0.dir/__/__/mesh/bearer/src/scanner.c.obj
 .text.scanner_config_scan_time_set
                0x00000000       0x88 examples/beaconing/CMakeFiles/beaconing_nrf52840_xxAA_s140_6.0.0.dir/__/__/mesh/bearer/src/scanner.c.obj
 .text.scanner_config_channels_set
                0x00000000       0x50 examples/beaconing/CMakeFiles/beaconing_nrf52840_xxAA_s140_6.0.0.dir/__/__/mesh/bearer/src/scanner.c.obj
 .text.scanner_config_access_addresses_set
                0x00000000       0x38 examples/beaconing/CMakeFiles/beaconing_nrf52840_xxAA_s140_6.0.0.dir/__/__/mesh/bearer/src/scanner.c.obj
 .text          0x00000000        0x0 examples/beaconing/CMakeFiles/beaconing_nrf52840_xxAA_s140_6.0.0.dir/C_/ver/mod/nRF5_SDK_15.0.0_a53641a/modules/nrfx/mdk/system_nrf52840.c.obj
 .data          0x00000000        0x0 examples/beaconing/CMakeFiles/beaconing_nrf52840_xxAA_s140_6.0.0.dir/C_/ver/mod/nRF5_SDK_15.0.0_a53641a/modules/nrfx/mdk/system_nrf52840.c.obj
 .bss           0x00000000        0x0 examples/beaconing/CMakeFiles/beaconing_nrf52840_xxAA_s140_6.0.0.dir/C_/ver/mod/nRF5_SDK_15.0.0_a53641a/modules/nrfx/mdk/system_nrf52840.c.obj
 .text.SystemCoreClockUpdate
                0x00000000       0x10 examples/beaconing/CMakeFiles/beaconing_nrf52840_xxAA_s140_6.0.0.dir/C_/ver/mod/nRF5_SDK_15.0.0_a53641a/modules/nrfx/mdk/system_nrf52840.c.obj
 .data          0x00000000        0x0 examples/beaconing/CMakeFiles/beaconing_nrf52840_xxAA_s140_6.0.0.dir/C_/ver/mod/nRF5_SDK_15.0.0_a53641a/modules/nrfx/mdk/gcc_startup_nrf52840.S.obj
 .bss           0x00000000        0x0 examples/beaconing/CMakeFiles/beaconing_nrf52840_xxAA_s140_6.0.0.dir/C_/ver/mod/nRF5_SDK_15.0.0_a53641a/modules/nrfx/mdk/gcc_startup_nrf52840.S.obj
 .text          0x00000000        0x0 examples/beaconing/CMakeFiles/beaconing_nrf52840_xxAA_s140_6.0.0.dir/C_/ver/mod/nRF5_SDK_15.0.0_a53641a/components/libraries/util/app_error.c.obj
 .data          0x00000000        0x0 examples/beaconing/CMakeFiles/beaconing_nrf52840_xxAA_s140_6.0.0.dir/C_/ver/mod/nRF5_SDK_15.0.0_a53641a/components/libraries/util/app_error.c.obj
 .bss           0x00000000        0x0 examples/beaconing/CMakeFiles/beaconing_nrf52840_xxAA_s140_6.0.0.dir/C_/ver/mod/nRF5_SDK_15.0.0_a53641a/components/libraries/util/app_error.c.obj
 .text.app_error_save_and_stop
                0x00000000       0x64 examples/beaconing/CMakeFiles/beaconing_nrf52840_xxAA_s140_6.0.0.dir/C_/ver/mod/nRF5_SDK_15.0.0_a53641a/components/libraries/util/app_error.c.obj
 .bss.m_error_data.8119
                0x00000000       0x20 examples/beaconing/CMakeFiles/beaconing_nrf52840_xxAA_s140_6.0.0.dir/C_/ver/mod/nRF5_SDK_15.0.0_a53641a/components/libraries/util/app_error.c.obj
 .text          0x00000000        0x0 examples/beaconing/CMakeFiles/beaconing_nrf52840_xxAA_s140_6.0.0.dir/C_/ver/mod/nRF5_SDK_15.0.0_a53641a/components/libraries/util/app_error_handler_gcc.c.obj
 .data          0x00000000        0x0 examples/beaconing/CMakeFiles/beaconing_nrf52840_xxAA_s140_6.0.0.dir/C_/ver/mod/nRF5_SDK_15.0.0_a53641a/components/libraries/util/app_error_handler_gcc.c.obj
 .bss           0x00000000        0x0 examples/beaconing/CMakeFiles/beaconing_nrf52840_xxAA_s140_6.0.0.dir/C_/ver/mod/nRF5_SDK_15.0.0_a53641a/components/libraries/util/app_error_handler_gcc.c.obj
 .text          0x00000000        0x0 external/rtt/librtt_nrf52840_xxAA.a(SEGGER_RTT.c.obj)
 .data          0x00000000        0x0 external/rtt/librtt_nrf52840_xxAA.a(SEGGER_RTT.c.obj)
 .bss           0x00000000        0x0 external/rtt/librtt_nrf52840_xxAA.a(SEGGER_RTT.c.obj)
 .text.SEGGER_RTT_ReadNoLock
                0x00000000      0x100 external/rtt/librtt_nrf52840_xxAA.a(SEGGER_RTT.c.obj)
 .text.SEGGER_RTT_Read
                0x00000000      0x114 external/rtt/librtt_nrf52840_xxAA.a(SEGGER_RTT.c.obj)
 .text.SEGGER_RTT_WriteSkipNoLock
                0x00000000      0x184 external/rtt/librtt_nrf52840_xxAA.a(SEGGER_RTT.c.obj)
 .text.SEGGER_RTT_WriteNoLock
                0x00000000      0x188 external/rtt/librtt_nrf52840_xxAA.a(SEGGER_RTT.c.obj)
 .text.SEGGER_RTT_WriteString
                0x00000000      0x20c external/rtt/librtt_nrf52840_xxAA.a(SEGGER_RTT.c.obj)
 .text.SEGGER_RTT_GetKey
                0x00000000       0xec external/rtt/librtt_nrf52840_xxAA.a(SEGGER_RTT.c.obj)
 .text.SEGGER_RTT_WaitKey
                0x00000000      0x114 external/rtt/librtt_nrf52840_xxAA.a(SEGGER_RTT.c.obj)
 .text.SEGGER_RTT_HasKey
                0x00000000       0x6c external/rtt/librtt_nrf52840_xxAA.a(SEGGER_RTT.c.obj)
 .text.SEGGER_RTT_HasData
                0x00000000       0x18 external/rtt/librtt_nrf52840_xxAA.a(SEGGER_RTT.c.obj)
 .text.SEGGER_RTT_AllocDownBuffer
                0x00000000       0xbc external/rtt/librtt_nrf52840_xxAA.a(SEGGER_RTT.c.obj)
 .text.SEGGER_RTT_AllocUpBuffer
                0x00000000       0xd8 external/rtt/librtt_nrf52840_xxAA.a(SEGGER_RTT.c.obj)
 .text.SEGGER_RTT_ConfigUpBuffer
                0x00000000       0xd0 external/rtt/librtt_nrf52840_xxAA.a(SEGGER_RTT.c.obj)
 .text.SEGGER_RTT_ConfigDownBuffer
                0x00000000       0xb8 external/rtt/librtt_nrf52840_xxAA.a(SEGGER_RTT.c.obj)
 .text.SEGGER_RTT_SetNameUpBuffer
                0x00000000       0x90 external/rtt/librtt_nrf52840_xxAA.a(SEGGER_RTT.c.obj)
 .text.SEGGER_RTT_SetNameDownBuffer
                0x00000000       0x90 external/rtt/librtt_nrf52840_xxAA.a(SEGGER_RTT.c.obj)
 .text.SEGGER_RTT_Init
                0x00000000       0x60 external/rtt/librtt_nrf52840_xxAA.a(SEGGER_RTT.c.obj)
 .text.SEGGER_RTT_SetTerminal
                0x00000000      0x15c external/rtt/librtt_nrf52840_xxAA.a(SEGGER_RTT.c.obj)
 .text.SEGGER_RTT_TerminalOut
                0x00000000      0x40c external/rtt/librtt_nrf52840_xxAA.a(SEGGER_RTT.c.obj)
 .bss._ActiveTerminal
                0x00000000        0x1 external/rtt/librtt_nrf52840_xxAA.a(SEGGER_RTT.c.obj)
 .rodata._aTerminalId
                0x00000000       0x10 external/rtt/librtt_nrf52840_xxAA.a(SEGGER_RTT.c.obj)
 .text          0x00000000        0x0 external/rtt/librtt_nrf52840_xxAA.a(SEGGER_RTT_printf.c.obj)
 .data          0x00000000        0x0 external/rtt/librtt_nrf52840_xxAA.a(SEGGER_RTT_printf.c.obj)
 .bss           0x00000000        0x0 external/rtt/librtt_nrf52840_xxAA.a(SEGGER_RTT_printf.c.obj)
 .text          0x00000000        0x0 external/micro-ecc/libuECC_nrf52840_xxAA.a(uECC.c.obj)
 .data          0x00000000        0x0 external/micro-ecc/libuECC_nrf52840_xxAA.a(uECC.c.obj)
 .bss           0x00000000        0x0 external/micro-ecc/libuECC_nrf52840_xxAA.a(uECC.c.obj)
 .text.HMAC_finish
                0x00000000       0x70 external/micro-ecc/libuECC_nrf52840_xxAA.a(uECC.c.obj)
 .text.uECC_vli_mmod
                0x00000000      0x3c8 external/micro-ecc/libuECC_nrf52840_xxAA.a(uECC.c.obj)
 .text.uECC_vli_modSub.isra.2
                0x00000000       0x98 external/micro-ecc/libuECC_nrf52840_xxAA.a(uECC.c.obj)
 .text.bits2int
                0x00000000      0x14c external/micro-ecc/libuECC_nrf52840_xxAA.a(uECC.c.obj)
 .text.uECC_sign_with_k
                0x00000000      0x60c external/micro-ecc/libuECC_nrf52840_xxAA.a(uECC.c.obj)
 .text.uECC_set_rng
                0x00000000        0xc external/micro-ecc/libuECC_nrf52840_xxAA.a(uECC.c.obj)
 .text.uECC_get_rng
                0x00000000        0xc external/micro-ecc/libuECC_nrf52840_xxAA.a(uECC.c.obj)
 .text.uECC_curve_private_key_size
                0x00000000       0x10 external/micro-ecc/libuECC_nrf52840_xxAA.a(uECC.c.obj)
 .text.uECC_curve_public_key_size
                0x00000000        0x8 external/micro-ecc/libuECC_nrf52840_xxAA.a(uECC.c.obj)
 .text.uECC_compute_public_key
                0x00000000      0x2e4 external/micro-ecc/libuECC_nrf52840_xxAA.a(uECC.c.obj)
 .text.uECC_sign
                0x00000000       0x60 external/micro-ecc/libuECC_nrf52840_xxAA.a(uECC.c.obj)
 .text.uECC_sign_deterministic
                0x00000000      0x400 external/micro-ecc/libuECC_nrf52840_xxAA.a(uECC.c.obj)
 .text.uECC_verify
                0x00000000      0x95c external/micro-ecc/libuECC_nrf52840_xxAA.a(uECC.c.obj)
 .text          0x00000000        0x0 c:/mesh/arm_gcc/bin/../lib/gcc/arm-none-eabi/6.3.1/../../../../arm-none-eabi/lib/thumb/v7e-m/fpv4-sp/hard\libc_nano.a(lib_a-exit.o)
 .data          0x00000000        0x0 c:/mesh/arm_gcc/bin/../lib/gcc/arm-none-eabi/6.3.1/../../../../arm-none-eabi/lib/thumb/v7e-m/fpv4-sp/hard\libc_nano.a(lib_a-exit.o)
 .bss           0x00000000        0x0 c:/mesh/arm_gcc/bin/../lib/gcc/arm-none-eabi/6.3.1/../../../../arm-none-eabi/lib/thumb/v7e-m/fpv4-sp/hard\libc_nano.a(lib_a-exit.o)
 .text          0x00000000        0x0 c:/mesh/arm_gcc/bin/../lib/gcc/arm-none-eabi/6.3.1/../../../../arm-none-eabi/lib/thumb/v7e-m/fpv4-sp/hard\libc_nano.a(lib_a-impure.o)
 .data          0x00000000        0x0 c:/mesh/arm_gcc/bin/../lib/gcc/arm-none-eabi/6.3.1/../../../../arm-none-eabi/lib/thumb/v7e-m/fpv4-sp/hard\libc_nano.a(lib_a-impure.o)
 .bss           0x00000000        0x0 c:/mesh/arm_gcc/bin/../lib/gcc/arm-none-eabi/6.3.1/../../../../arm-none-eabi/lib/thumb/v7e-m/fpv4-sp/hard\libc_nano.a(lib_a-impure.o)
 .text          0x00000000        0x0 c:/mesh/arm_gcc/bin/../lib/gcc/arm-none-eabi/6.3.1/../../../../arm-none-eabi/lib/thumb/v7e-m/fpv4-sp/hard\libc_nano.a(lib_a-init.o)
 .data          0x00000000        0x0 c:/mesh/arm_gcc/bin/../lib/gcc/arm-none-eabi/6.3.1/../../../../arm-none-eabi/lib/thumb/v7e-m/fpv4-sp/hard\libc_nano.a(lib_a-init.o)
 .bss           0x00000000        0x0 c:/mesh/arm_gcc/bin/../lib/gcc/arm-none-eabi/6.3.1/../../../../arm-none-eabi/lib/thumb/v7e-m/fpv4-sp/hard\libc_nano.a(lib_a-init.o)
 .text          0x00000000        0x0 c:/mesh/arm_gcc/bin/../lib/gcc/arm-none-eabi/6.3.1/../../../../arm-none-eabi/lib/thumb/v7e-m/fpv4-sp/hard\libc_nano.a(lib_a-malloc.o)
 .data          0x00000000        0x0 c:/mesh/arm_gcc/bin/../lib/gcc/arm-none-eabi/6.3.1/../../../../arm-none-eabi/lib/thumb/v7e-m/fpv4-sp/hard\libc_nano.a(lib_a-malloc.o)
 .bss           0x00000000        0x0 c:/mesh/arm_gcc/bin/../lib/gcc/arm-none-eabi/6.3.1/../../../../arm-none-eabi/lib/thumb/v7e-m/fpv4-sp/hard\libc_nano.a(lib_a-malloc.o)
 .text          0x00000000        0x0 c:/mesh/arm_gcc/bin/../lib/gcc/arm-none-eabi/6.3.1/../../../../arm-none-eabi/lib/thumb/v7e-m/fpv4-sp/hard\libc_nano.a(lib_a-memcmp.o)
 .data          0x00000000        0x0 c:/mesh/arm_gcc/bin/../lib/gcc/arm-none-eabi/6.3.1/../../../../arm-none-eabi/lib/thumb/v7e-m/fpv4-sp/hard\libc_nano.a(lib_a-memcmp.o)
 .bss           0x00000000        0x0 c:/mesh/arm_gcc/bin/../lib/gcc/arm-none-eabi/6.3.1/../../../../arm-none-eabi/lib/thumb/v7e-m/fpv4-sp/hard\libc_nano.a(lib_a-memcmp.o)
 .text          0x00000000        0x0 c:/mesh/arm_gcc/bin/../lib/gcc/arm-none-eabi/6.3.1/../../../../arm-none-eabi/lib/thumb/v7e-m/fpv4-sp/hard\libc_nano.a(lib_a-memcpy-stub.o)
 .data          0x00000000        0x0 c:/mesh/arm_gcc/bin/../lib/gcc/arm-none-eabi/6.3.1/../../../../arm-none-eabi/lib/thumb/v7e-m/fpv4-sp/hard\libc_nano.a(lib_a-memcpy-stub.o)
 .bss           0x00000000        0x0 c:/mesh/arm_gcc/bin/../lib/gcc/arm-none-eabi/6.3.1/../../../../arm-none-eabi/lib/thumb/v7e-m/fpv4-sp/hard\libc_nano.a(lib_a-memcpy-stub.o)
 .text          0x00000000        0x0 c:/mesh/arm_gcc/bin/../lib/gcc/arm-none-eabi/6.3.1/../../../../arm-none-eabi/lib/thumb/v7e-m/fpv4-sp/hard\libc_nano.a(lib_a-memset.o)
 .data          0x00000000        0x0 c:/mesh/arm_gcc/bin/../lib/gcc/arm-none-eabi/6.3.1/../../../../arm-none-eabi/lib/thumb/v7e-m/fpv4-sp/hard\libc_nano.a(lib_a-memset.o)
 .bss           0x00000000        0x0 c:/mesh/arm_gcc/bin/../lib/gcc/arm-none-eabi/6.3.1/../../../../arm-none-eabi/lib/thumb/v7e-m/fpv4-sp/hard\libc_nano.a(lib_a-memset.o)
 .text          0x00000000        0x0 c:/mesh/arm_gcc/bin/../lib/gcc/arm-none-eabi/6.3.1/../../../../arm-none-eabi/lib/thumb/v7e-m/fpv4-sp/hard\libc_nano.a(lib_a-nano-freer.o)
 .data          0x00000000        0x0 c:/mesh/arm_gcc/bin/../lib/gcc/arm-none-eabi/6.3.1/../../../../arm-none-eabi/lib/thumb/v7e-m/fpv4-sp/hard\libc_nano.a(lib_a-nano-freer.o)
 .bss           0x00000000        0x0 c:/mesh/arm_gcc/bin/../lib/gcc/arm-none-eabi/6.3.1/../../../../arm-none-eabi/lib/thumb/v7e-m/fpv4-sp/hard\libc_nano.a(lib_a-nano-freer.o)
 .text          0x00000000        0x0 c:/mesh/arm_gcc/bin/../lib/gcc/arm-none-eabi/6.3.1/../../../../arm-none-eabi/lib/thumb/v7e-m/fpv4-sp/hard\libc_nano.a(lib_a-nano-mallocr.o)
 .data          0x00000000        0x0 c:/mesh/arm_gcc/bin/../lib/gcc/arm-none-eabi/6.3.1/../../../../arm-none-eabi/lib/thumb/v7e-m/fpv4-sp/hard\libc_nano.a(lib_a-nano-mallocr.o)
 .bss           0x00000000        0x0 c:/mesh/arm_gcc/bin/../lib/gcc/arm-none-eabi/6.3.1/../../../../arm-none-eabi/lib/thumb/v7e-m/fpv4-sp/hard\libc_nano.a(lib_a-nano-mallocr.o)
 .text          0x00000000        0x0 c:/mesh/arm_gcc/bin/../lib/gcc/arm-none-eabi/6.3.1/../../../../arm-none-eabi/lib/thumb/v7e-m/fpv4-sp/hard\libc_nano.a(lib_a-sbrkr.o)
 .data          0x00000000        0x0 c:/mesh/arm_gcc/bin/../lib/gcc/arm-none-eabi/6.3.1/../../../../arm-none-eabi/lib/thumb/v7e-m/fpv4-sp/hard\libc_nano.a(lib_a-sbrkr.o)
 .bss           0x00000000        0x0 c:/mesh/arm_gcc/bin/../lib/gcc/arm-none-eabi/6.3.1/../../../../arm-none-eabi/lib/thumb/v7e-m/fpv4-sp/hard\libc_nano.a(lib_a-sbrkr.o)
 .text          0x00000000        0x0 c:/mesh/arm_gcc/bin/../lib/gcc/arm-none-eabi/6.3.1/../../../../arm-none-eabi/lib/thumb/v7e-m/fpv4-sp/hard\libc_nano.a(lib_a-sprintf.o)
 .data          0x00000000        0x0 c:/mesh/arm_gcc/bin/../lib/gcc/arm-none-eabi/6.3.1/../../../../arm-none-eabi/lib/thumb/v7e-m/fpv4-sp/hard\libc_nano.a(lib_a-sprintf.o)
 .bss           0x00000000        0x0 c:/mesh/arm_gcc/bin/../lib/gcc/arm-none-eabi/6.3.1/../../../../arm-none-eabi/lib/thumb/v7e-m/fpv4-sp/hard\libc_nano.a(lib_a-sprintf.o)
 .text._sprintf_r
                0x00000000       0x40 c:/mesh/arm_gcc/bin/../lib/gcc/arm-none-eabi/6.3.1/../../../../arm-none-eabi/lib/thumb/v7e-m/fpv4-sp/hard\libc_nano.a(lib_a-sprintf.o)
 .text          0x00000000        0x0 c:/mesh/arm_gcc/bin/../lib/gcc/arm-none-eabi/6.3.1/../../../../arm-none-eabi/lib/thumb/v7e-m/fpv4-sp/hard\libc_nano.a(lib_a-strcpy.o)
 .data          0x00000000        0x0 c:/mesh/arm_gcc/bin/../lib/gcc/arm-none-eabi/6.3.1/../../../../arm-none-eabi/lib/thumb/v7e-m/fpv4-sp/hard\libc_nano.a(lib_a-strcpy.o)
 .bss           0x00000000        0x0 c:/mesh/arm_gcc/bin/../lib/gcc/arm-none-eabi/6.3.1/../../../../arm-none-eabi/lib/thumb/v7e-m/fpv4-sp/hard\libc_nano.a(lib_a-strcpy.o)
 .data          0x00000000        0x0 c:/mesh/arm_gcc/bin/../lib/gcc/arm-none-eabi/6.3.1/../../../../arm-none-eabi/lib/thumb/v7e-m/fpv4-sp/hard\libc_nano.a(lib_a-strlen.o)
 .bss           0x00000000        0x0 c:/mesh/arm_gcc/bin/../lib/gcc/arm-none-eabi/6.3.1/../../../../arm-none-eabi/lib/thumb/v7e-m/fpv4-sp/hard\libc_nano.a(lib_a-strlen.o)
 .text          0x00000000        0x0 c:/mesh/arm_gcc/bin/../lib/gcc/arm-none-eabi/6.3.1/../../../../arm-none-eabi/lib/thumb/v7e-m/fpv4-sp/hard\libc_nano.a(lib_a-strrchr.o)
 .data          0x00000000        0x0 c:/mesh/arm_gcc/bin/../lib/gcc/arm-none-eabi/6.3.1/../../../../arm-none-eabi/lib/thumb/v7e-m/fpv4-sp/hard\libc_nano.a(lib_a-strrchr.o)
 .bss           0x00000000        0x0 c:/mesh/arm_gcc/bin/../lib/gcc/arm-none-eabi/6.3.1/../../../../arm-none-eabi/lib/thumb/v7e-m/fpv4-sp/hard\libc_nano.a(lib_a-strrchr.o)
 .text          0x00000000        0x0 c:/mesh/arm_gcc/bin/../lib/gcc/arm-none-eabi/6.3.1/../../../../arm-none-eabi/lib/thumb/v7e-m/fpv4-sp/hard\libc_nano.a(lib_a-mlock.o)
 .data          0x00000000        0x0 c:/mesh/arm_gcc/bin/../lib/gcc/arm-none-eabi/6.3.1/../../../../arm-none-eabi/lib/thumb/v7e-m/fpv4-sp/hard\libc_nano.a(lib_a-mlock.o)
 .bss           0x00000000        0x0 c:/mesh/arm_gcc/bin/../lib/gcc/arm-none-eabi/6.3.1/../../../../arm-none-eabi/lib/thumb/v7e-m/fpv4-sp/hard\libc_nano.a(lib_a-mlock.o)
 .text          0x00000000        0x0 c:/mesh/arm_gcc/bin/../lib/gcc/arm-none-eabi/6.3.1/../../../../arm-none-eabi/lib/thumb/v7e-m/fpv4-sp/hard\libc_nano.a(lib_a-nano-svfprintf.o)
 .data          0x00000000        0x0 c:/mesh/arm_gcc/bin/../lib/gcc/arm-none-eabi/6.3.1/../../../../arm-none-eabi/lib/thumb/v7e-m/fpv4-sp/hard\libc_nano.a(lib_a-nano-svfprintf.o)
 .bss           0x00000000        0x0 c:/mesh/arm_gcc/bin/../lib/gcc/arm-none-eabi/6.3.1/../../../../arm-none-eabi/lib/thumb/v7e-m/fpv4-sp/hard\libc_nano.a(lib_a-nano-svfprintf.o)
 .text.__ssprint_r
                0x00000000       0xf4 c:/mesh/arm_gcc/bin/../lib/gcc/arm-none-eabi/6.3.1/../../../../arm-none-eabi/lib/thumb/v7e-m/fpv4-sp/hard\libc_nano.a(lib_a-nano-svfprintf.o)
 .text          0x00000000        0x0 c:/mesh/arm_gcc/bin/../lib/gcc/arm-none-eabi/6.3.1/../../../../arm-none-eabi/lib/thumb/v7e-m/fpv4-sp/hard\libc_nano.a(lib_a-nano-vfprintf_i.o)
 .data          0x00000000        0x0 c:/mesh/arm_gcc/bin/../lib/gcc/arm-none-eabi/6.3.1/../../../../arm-none-eabi/lib/thumb/v7e-m/fpv4-sp/hard\libc_nano.a(lib_a-nano-vfprintf_i.o)
 .bss           0x00000000        0x0 c:/mesh/arm_gcc/bin/../lib/gcc/arm-none-eabi/6.3.1/../../../../arm-none-eabi/lib/thumb/v7e-m/fpv4-sp/hard\libc_nano.a(lib_a-nano-vfprintf_i.o)
 .text          0x00000000        0x0 c:/mesh/arm_gcc/bin/../lib/gcc/arm-none-eabi/6.3.1/../../../../arm-none-eabi/lib/thumb/v7e-m/fpv4-sp/hard\libc_nano.a(lib_a-reent.o)
 .data          0x00000000        0x0 c:/mesh/arm_gcc/bin/../lib/gcc/arm-none-eabi/6.3.1/../../../../arm-none-eabi/lib/thumb/v7e-m/fpv4-sp/hard\libc_nano.a(lib_a-reent.o)
 .bss           0x00000000        0x0 c:/mesh/arm_gcc/bin/../lib/gcc/arm-none-eabi/6.3.1/../../../../arm-none-eabi/lib/thumb/v7e-m/fpv4-sp/hard\libc_nano.a(lib_a-reent.o)
 .text.cleanup_glue
                0x00000000       0x1a c:/mesh/arm_gcc/bin/../lib/gcc/arm-none-eabi/6.3.1/../../../../arm-none-eabi/lib/thumb/v7e-m/fpv4-sp/hard\libc_nano.a(lib_a-reent.o)
 .text._reclaim_reent
                0x00000000       0xb8 c:/mesh/arm_gcc/bin/../lib/gcc/arm-none-eabi/6.3.1/../../../../arm-none-eabi/lib/thumb/v7e-m/fpv4-sp/hard\libc_nano.a(lib_a-reent.o)
 .text          0x00000000        0x0 c:/mesh/arm_gcc/bin/../lib/gcc/arm-none-eabi/6.3.1/../../../../arm-none-eabi/lib/thumb/v7e-m/fpv4-sp/hard\libc_nano.a(lib_a-strchr.o)
 .data          0x00000000        0x0 c:/mesh/arm_gcc/bin/../lib/gcc/arm-none-eabi/6.3.1/../../../../arm-none-eabi/lib/thumb/v7e-m/fpv4-sp/hard\libc_nano.a(lib_a-strchr.o)
 .bss           0x00000000        0x0 c:/mesh/arm_gcc/bin/../lib/gcc/arm-none-eabi/6.3.1/../../../../arm-none-eabi/lib/thumb/v7e-m/fpv4-sp/hard\libc_nano.a(lib_a-strchr.o)
 .data          0x00000000        0x0 c:/mesh/arm_gcc/bin/../lib/gcc/arm-none-eabi/6.3.1/../../../../arm-none-eabi/lib/thumb/v7e-m/fpv4-sp/hard\libc_nano.a(lib_a-memchr.o)
 .bss           0x00000000        0x0 c:/mesh/arm_gcc/bin/../lib/gcc/arm-none-eabi/6.3.1/../../../../arm-none-eabi/lib/thumb/v7e-m/fpv4-sp/hard\libc_nano.a(lib_a-memchr.o)
 .text          0x00000000        0x0 c:/mesh/arm_gcc/bin/../lib/gcc/arm-none-eabi/6.3.1/../../../../arm-none-eabi/lib/thumb/v7e-m/fpv4-sp/hard\libc_nano.a(lib_a-memmove.o)
 .data          0x00000000        0x0 c:/mesh/arm_gcc/bin/../lib/gcc/arm-none-eabi/6.3.1/../../../../arm-none-eabi/lib/thumb/v7e-m/fpv4-sp/hard\libc_nano.a(lib_a-memmove.o)
 .bss           0x00000000        0x0 c:/mesh/arm_gcc/bin/../lib/gcc/arm-none-eabi/6.3.1/../../../../arm-none-eabi/lib/thumb/v7e-m/fpv4-sp/hard\libc_nano.a(lib_a-memmove.o)
 .text          0x00000000        0x0 c:/mesh/arm_gcc/bin/../lib/gcc/arm-none-eabi/6.3.1/../../../../arm-none-eabi/lib/thumb/v7e-m/fpv4-sp/hard\libc_nano.a(lib_a-nano-reallocr.o)
 .data          0x00000000        0x0 c:/mesh/arm_gcc/bin/../lib/gcc/arm-none-eabi/6.3.1/../../../../arm-none-eabi/lib/thumb/v7e-m/fpv4-sp/hard\libc_nano.a(lib_a-nano-reallocr.o)
 .bss           0x00000000        0x0 c:/mesh/arm_gcc/bin/../lib/gcc/arm-none-eabi/6.3.1/../../../../arm-none-eabi/lib/thumb/v7e-m/fpv4-sp/hard\libc_nano.a(lib_a-nano-reallocr.o)
 .text          0x00000000        0x0 c:/mesh/arm_gcc/bin/../lib/gcc/arm-none-eabi/6.3.1/../../../../arm-none-eabi/lib/thumb/v7e-m/fpv4-sp/hard\libc_nano.a(lib_a-nano-msizer.o)
 .data          0x00000000        0x0 c:/mesh/arm_gcc/bin/../lib/gcc/arm-none-eabi/6.3.1/../../../../arm-none-eabi/lib/thumb/v7e-m/fpv4-sp/hard\libc_nano.a(lib_a-nano-msizer.o)
 .bss           0x00000000        0x0 c:/mesh/arm_gcc/bin/../lib/gcc/arm-none-eabi/6.3.1/../../../../arm-none-eabi/lib/thumb/v7e-m/fpv4-sp/hard\libc_nano.a(lib_a-nano-msizer.o)
 .text          0x00000000        0x0 c:/mesh/arm_gcc/bin/../lib/gcc/arm-none-eabi/6.3.1/thumb/v7e-m/fpv4-sp/hard/crtend.o
 .data          0x00000000        0x0 c:/mesh/arm_gcc/bin/../lib/gcc/arm-none-eabi/6.3.1/thumb/v7e-m/fpv4-sp/hard/crtend.o
 .bss           0x00000000        0x0 c:/mesh/arm_gcc/bin/../lib/gcc/arm-none-eabi/6.3.1/thumb/v7e-m/fpv4-sp/hard/crtend.o
 .text          0x00000000        0x0 c:/mesh/arm_gcc/bin/../lib/gcc/arm-none-eabi/6.3.1/thumb/v7e-m/fpv4-sp/hard/crtn.o
 .data          0x00000000        0x0 c:/mesh/arm_gcc/bin/../lib/gcc/arm-none-eabi/6.3.1/thumb/v7e-m/fpv4-sp/hard/crtn.o
 .bss           0x00000000        0x0 c:/mesh/arm_gcc/bin/../lib/gcc/arm-none-eabi/6.3.1/thumb/v7e-m/fpv4-sp/hard/crtn.o
 .text          0x00000000        0x0 c:/mesh/arm_gcc/bin/../lib/gcc/arm-none-eabi/6.3.1/../../../../arm-none-eabi/lib/thumb/v7e-m/fpv4-sp/hard\libnosys.a(sbrk.o)
 .data          0x00000000        0x0 c:/mesh/arm_gcc/bin/../lib/gcc/arm-none-eabi/6.3.1/../../../../arm-none-eabi/lib/thumb/v7e-m/fpv4-sp/hard\libnosys.a(sbrk.o)
 .bss           0x00000000        0x0 c:/mesh/arm_gcc/bin/../lib/gcc/arm-none-eabi/6.3.1/../../../../arm-none-eabi/lib/thumb/v7e-m/fpv4-sp/hard\libnosys.a(sbrk.o)
 .text          0x00000000        0x0 c:/mesh/arm_gcc/bin/../lib/gcc/arm-none-eabi/6.3.1/../../../../arm-none-eabi/lib/thumb/v7e-m/fpv4-sp/hard\libnosys.a(_exit.o)
 .data          0x00000000        0x0 c:/mesh/arm_gcc/bin/../lib/gcc/arm-none-eabi/6.3.1/../../../../arm-none-eabi/lib/thumb/v7e-m/fpv4-sp/hard\libnosys.a(_exit.o)
 .bss           0x00000000        0x0 c:/mesh/arm_gcc/bin/../lib/gcc/arm-none-eabi/6.3.1/../../../../arm-none-eabi/lib/thumb/v7e-m/fpv4-sp/hard\libnosys.a(_exit.o)

Memory Configuration

Name             Origin             Length             Attributes
FLASH            0x00026000         0x000d1000         xr
RAM              0x200032c8         0x0003ca38         xrw
*default*        0x00000000         0xffffffff

Linker script and memory map


.text           0x00026000    0x1d8c4
 *(.isr_vector)
 .isr_vector    0x00026000      0x200 examples/beaconing/CMakeFiles/beaconing_nrf52840_xxAA_s140_6.0.0.dir/C_/ver/mod/nRF5_SDK_15.0.0_a53641a/modules/nrfx/mdk/gcc_startup_nrf52840.S.obj
                0x00026000                __isr_vector
 *(.text*)
 .text          0x00026200       0x6c c:/mesh/arm_gcc/bin/../lib/gcc/arm-none-eabi/6.3.1/thumb/v7e-m/fpv4-sp/hard/crtbegin.o
 .text          0x0002626c       0x74 c:/mesh/arm_gcc/bin/../lib/gcc/arm-none-eabi/6.3.1/../../../../arm-none-eabi/lib/thumb/v7e-m/fpv4-sp/hard/crt0.o
                0x0002626c                _start
                0x0002626c                _mainCRTStartup
 .text.sd_app_evt_wait
                0x000262e0        0x4 examples/beaconing/CMakeFiles/beaconing_nrf52840_xxAA_s140_6.0.0.dir/src/main.c.obj
 .text.provisioning_complete_cb
                0x000262e4       0xe4 examples/beaconing/CMakeFiles/beaconing_nrf52840_xxAA_s140_6.0.0.dir/src/main.c.obj
 .text.rx_cb    0x000263c8      0x11c examples/beaconing/CMakeFiles/beaconing_nrf52840_xxAA_s140_6.0.0.dir/src/main.c.obj
 .text.config_server_evt_cb
                0x000264e4       0x88 examples/beaconing/CMakeFiles/beaconing_nrf52840_xxAA_s140_6.0.0.dir/src/main.c.obj
 .text.startup.main
                0x0002656c      0x290 examples/beaconing/CMakeFiles/beaconing_nrf52840_xxAA_s140_6.0.0.dir/src/main.c.obj
                0x0002656c                main
 .text.mesh_evt_handler
                0x000267fc       0x10 examples/beaconing/CMakeFiles/beaconing_nrf52840_xxAA_s140_6.0.0.dir/__/__/mesh/stack/src/mesh_stack.c.obj
 .text.mesh_stack_init
                0x0002680c       0x94 examples/beaconing/CMakeFiles/beaconing_nrf52840_xxAA_s140_6.0.0.dir/__/__/mesh/stack/src/mesh_stack.c.obj
                0x0002680c                mesh_stack_init
 .text.mesh_stack_start
                0x000268a0        0x4 examples/beaconing/CMakeFiles/beaconing_nrf52840_xxAA_s140_6.0.0.dir/__/__/mesh/stack/src/mesh_stack.c.obj
                0x000268a0                mesh_stack_start
 .text.mesh_stack_provisioning_data_store
                0x000268a4       0x78 examples/beaconing/CMakeFiles/beaconing_nrf52840_xxAA_s140_6.0.0.dir/__/__/mesh/stack/src/mesh_stack.c.obj
                0x000268a4                mesh_stack_provisioning_data_store
 .text.mesh_stack_config_clear
                0x0002691c       0x14 examples/beaconing/CMakeFiles/beaconing_nrf52840_xxAA_s140_6.0.0.dir/__/__/mesh/stack/src/mesh_stack.c.obj
                0x0002691c                mesh_stack_config_clear
 .text.mesh_stack_device_reset
                0x00026930       0x20 examples/beaconing/CMakeFiles/beaconing_nrf52840_xxAA_s140_6.0.0.dir/__/__/mesh/stack/src/mesh_stack.c.obj
                0x00026930                mesh_stack_device_reset
 .text.sd_evt_get
                0x00026950        0x4 examples/beaconing/CMakeFiles/beaconing_nrf52840_xxAA_s140_6.0.0.dir/__/common/src/mesh_softdevice_init.c.obj
 .text.sd_softdevice_enable
                0x00026954        0x4 examples/beaconing/CMakeFiles/beaconing_nrf52840_xxAA_s140_6.0.0.dir/__/common/src/mesh_softdevice_init.c.obj
 .text.sd_ble_enable
                0x00026958        0x4 examples/beaconing/CMakeFiles/beaconing_nrf52840_xxAA_s140_6.0.0.dir/__/common/src/mesh_softdevice_init.c.obj
 .text.SWI2_EGU2_IRQHandler
                0x0002695c       0x1c examples/beaconing/CMakeFiles/beaconing_nrf52840_xxAA_s140_6.0.0.dir/__/common/src/mesh_softdevice_init.c.obj
                0x0002695c                SWI2_EGU2_IRQHandler
 .text.mesh_softdevice_init
                0x00026978      0x1f8 examples/beaconing/CMakeFiles/beaconing_nrf52840_xxAA_s140_6.0.0.dir/__/common/src/mesh_softdevice_init.c.obj
                0x00026978                mesh_softdevice_init
 .text.prov_evt_handler
                0x00026b70       0x70 examples/beaconing/CMakeFiles/beaconing_nrf52840_xxAA_s140_6.0.0.dir/__/common/src/mesh_provisionee.c.obj
 .text.mesh_provisionee_prov_start
                0x00026be0       0x88 examples/beaconing/CMakeFiles/beaconing_nrf52840_xxAA_s140_6.0.0.dir/__/common/src/mesh_provisionee.c.obj
                0x00026be0                mesh_provisionee_prov_start
 .text.hal_led_mask_set
                0x00026c68       0x14 examples/beaconing/CMakeFiles/beaconing_nrf52840_xxAA_s140_6.0.0.dir/__/common/src/simple_hal.c.obj
                0x00026c68                hal_led_mask_set
 .text.hal_led_blink_ms
                0x00026c7c       0x4c examples/beaconing/CMakeFiles/beaconing_nrf52840_xxAA_s140_6.0.0.dir/__/common/src/simple_hal.c.obj
                0x00026c7c                hal_led_blink_ms
 .text.hal_leds_init
                0x00026cc8       0x3c examples/beaconing/CMakeFiles/beaconing_nrf52840_xxAA_s140_6.0.0.dir/__/common/src/simple_hal.c.obj
                0x00026cc8                hal_leds_init
 .text.GPIOTE_IRQHandler
                0x00026d04      0x114 examples/beaconing/CMakeFiles/beaconing_nrf52840_xxAA_s140_6.0.0.dir/__/common/src/simple_hal.c.obj
                0x00026d04                GPIOTE_IRQHandler
 .text.schedule_publication_timer
                0x00026e18      0x2c4 examples/beaconing/CMakeFiles/beaconing_nrf52840_xxAA_s140_6.0.0.dir/__/__/mesh/access/src/access_publish.c.obj
 .text.publish_timer_tick
                0x000270dc      0x134 examples/beaconing/CMakeFiles/beaconing_nrf52840_xxAA_s140_6.0.0.dir/__/__/mesh/access/src/access_publish.c.obj
 .text.access_publish_init
                0x00027210       0x38 examples/beaconing/CMakeFiles/beaconing_nrf52840_xxAA_s140_6.0.0.dir/__/__/mesh/access/src/access_publish.c.obj
                0x00027210                access_publish_init
 .text.access_publish_period_set
                0x00027248      0x12c examples/beaconing/CMakeFiles/beaconing_nrf52840_xxAA_s140_6.0.0.dir/__/__/mesh/access/src/access_publish.c.obj
                0x00027248                access_publish_period_set
 .text.access_publish_period_get
                0x00027374       0x2c examples/beaconing/CMakeFiles/beaconing_nrf52840_xxAA_s140_6.0.0.dir/__/__/mesh/access/src/access_publish.c.obj
                0x00027374                access_publish_period_get
 .text.flash_manager_mem_available
                0x000273a0        0x4 examples/beaconing/CMakeFiles/beaconing_nrf52840_xxAA_s140_6.0.0.dir/__/__/mesh/access/src/access.c.obj
 .text.flash_invalidate_complete
                0x000273a4        0x8 examples/beaconing/CMakeFiles/beaconing_nrf52840_xxAA_s140_6.0.0.dir/__/__/mesh/access/src/access.c.obj
 .text.access_flash_config_clear
                0x000273ac       0x28 examples/beaconing/CMakeFiles/beaconing_nrf52840_xxAA_s140_6.0.0.dir/__/__/mesh/access/src/access.c.obj
 .text.access_flash_config_store
                0x000273d4      0x138 examples/beaconing/CMakeFiles/beaconing_nrf52840_xxAA_s140_6.0.0.dir/__/__/mesh/access/src/access.c.obj
                0x000273d4                access_flash_config_store
 .text.handle_incoming
                0x0002750c      0x198 examples/beaconing/CMakeFiles/beaconing_nrf52840_xxAA_s140_6.0.0.dir/__/__/mesh/access/src/access.c.obj
 .text.mesh_evt_cb
                0x000276a4      0x164 examples/beaconing/CMakeFiles/beaconing_nrf52840_xxAA_s140_6.0.0.dir/__/__/mesh/access/src/access.c.obj
 .text.add_flash_manager
                0x00027808       0x58 examples/beaconing/CMakeFiles/beaconing_nrf52840_xxAA_s140_6.0.0.dir/__/__/mesh/access/src/access.c.obj
 .text.flash_write_complete
                0x00027860       0x4c examples/beaconing/CMakeFiles/beaconing_nrf52840_xxAA_s140_6.0.0.dir/__/__/mesh/access/src/access.c.obj
 .text.flash_remove_complete
                0x000278ac       0xb0 examples/beaconing/CMakeFiles/beaconing_nrf52840_xxAA_s140_6.0.0.dir/__/__/mesh/access/src/access.c.obj
 .text.access_flash_config_load
                0x0002795c      0x2c8 examples/beaconing/CMakeFiles/beaconing_nrf52840_xxAA_s140_6.0.0.dir/__/__/mesh/access/src/access.c.obj
                0x0002795c                access_flash_config_load
 .text.access_clear
                0x00027c24       0x6c examples/beaconing/CMakeFiles/beaconing_nrf52840_xxAA_s140_6.0.0.dir/__/__/mesh/access/src/access.c.obj
                0x00027c24                access_clear
 .text.access_init
                0x00027c90       0xb4 examples/beaconing/CMakeFiles/beaconing_nrf52840_xxAA_s140_6.0.0.dir/__/__/mesh/access/src/access.c.obj
                0x00027c90                access_init
 .text.access_model_add
                0x00027d44      0x1f4 examples/beaconing/CMakeFiles/beaconing_nrf52840_xxAA_s140_6.0.0.dir/__/__/mesh/access/src/access.c.obj
                0x00027d44                access_model_add
 .text.access_model_publish
                0x00027f38      0x3bc examples/beaconing/CMakeFiles/beaconing_nrf52840_xxAA_s140_6.0.0.dir/__/__/mesh/access/src/access.c.obj
                0x00027f38                access_model_publish
 .text.access_model_reply
                0x000282f4      0x3dc examples/beaconing/CMakeFiles/beaconing_nrf52840_xxAA_s140_6.0.0.dir/__/__/mesh/access/src/access.c.obj
                0x000282f4                access_model_reply
 .text.access_model_publish_address_set
                0x000286d0       0x3c examples/beaconing/CMakeFiles/beaconing_nrf52840_xxAA_s140_6.0.0.dir/__/__/mesh/access/src/access.c.obj
                0x000286d0                access_model_publish_address_set
 .text.access_model_publish_address_get
                0x0002870c       0x2c examples/beaconing/CMakeFiles/beaconing_nrf52840_xxAA_s140_6.0.0.dir/__/__/mesh/access/src/access.c.obj
                0x0002870c                access_model_publish_address_get
 .text.access_model_publish_retransmit_set
                0x00028738       0x54 examples/beaconing/CMakeFiles/beaconing_nrf52840_xxAA_s140_6.0.0.dir/__/__/mesh/access/src/access.c.obj
                0x00028738                access_model_publish_retransmit_set
 .text.access_model_publish_retransmit_get
                0x0002878c       0x2c examples/beaconing/CMakeFiles/beaconing_nrf52840_xxAA_s140_6.0.0.dir/__/__/mesh/access/src/access.c.obj
                0x0002878c                access_model_publish_retransmit_get
 .text.access_model_publish_period_set
                0x000287b8       0x78 examples/beaconing/CMakeFiles/beaconing_nrf52840_xxAA_s140_6.0.0.dir/__/__/mesh/access/src/access.c.obj
                0x000287b8                access_model_publish_period_set
 .text.access_model_publish_period_get
                0x00028830       0x40 examples/beaconing/CMakeFiles/beaconing_nrf52840_xxAA_s140_6.0.0.dir/__/__/mesh/access/src/access.c.obj
                0x00028830                access_model_publish_period_get
 .text.access_model_subscription_add
                0x00028870       0x60 examples/beaconing/CMakeFiles/beaconing_nrf52840_xxAA_s140_6.0.0.dir/__/__/mesh/access/src/access.c.obj
                0x00028870                access_model_subscription_add
 .text.access_model_subscription_remove
                0x000288d0       0x60 examples/beaconing/CMakeFiles/beaconing_nrf52840_xxAA_s140_6.0.0.dir/__/__/mesh/access/src/access.c.obj
                0x000288d0                access_model_subscription_remove
 .text.access_model_subscriptions_get
                0x00028930       0x7c examples/beaconing/CMakeFiles/beaconing_nrf52840_xxAA_s140_6.0.0.dir/__/__/mesh/access/src/access.c.obj
                0x00028930                access_model_subscriptions_get
 .text.access_model_application_bind
                0x000289ac       0x58 examples/beaconing/CMakeFiles/beaconing_nrf52840_xxAA_s140_6.0.0.dir/__/__/mesh/access/src/access.c.obj
                0x000289ac                access_model_application_bind
 .text.access_model_application_unbind
                0x00028a04       0x58 examples/beaconing/CMakeFiles/beaconing_nrf52840_xxAA_s140_6.0.0.dir/__/__/mesh/access/src/access.c.obj
                0x00028a04                access_model_application_unbind
 .text.access_model_applications_get
                0x00028a5c       0xfc examples/beaconing/CMakeFiles/beaconing_nrf52840_xxAA_s140_6.0.0.dir/__/__/mesh/access/src/access.c.obj
                0x00028a5c                access_model_applications_get
 .text.access_model_publish_application_set
                0x00028b58       0x3c examples/beaconing/CMakeFiles/beaconing_nrf52840_xxAA_s140_6.0.0.dir/__/__/mesh/access/src/access.c.obj
                0x00028b58                access_model_publish_application_set
 .text.access_model_publish_application_get
                0x00028b94       0x2c examples/beaconing/CMakeFiles/beaconing_nrf52840_xxAA_s140_6.0.0.dir/__/__/mesh/access/src/access.c.obj
                0x00028b94                access_model_publish_application_get
 .text.access_default_ttl_set
                0x00028bc0       0x1c examples/beaconing/CMakeFiles/beaconing_nrf52840_xxAA_s140_6.0.0.dir/__/__/mesh/access/src/access.c.obj
                0x00028bc0                access_default_ttl_set
 .text.access_default_ttl_get
                0x00028bdc        0xc examples/beaconing/CMakeFiles/beaconing_nrf52840_xxAA_s140_6.0.0.dir/__/__/mesh/access/src/access.c.obj
                0x00028bdc                access_default_ttl_get
 .text.access_model_publish_ttl_set
                0x00028be8       0x40 examples/beaconing/CMakeFiles/beaconing_nrf52840_xxAA_s140_6.0.0.dir/__/__/mesh/access/src/access.c.obj
                0x00028be8                access_model_publish_ttl_set
 .text.access_model_publish_ttl_get
                0x00028c28       0x2c examples/beaconing/CMakeFiles/beaconing_nrf52840_xxAA_s140_6.0.0.dir/__/__/mesh/access/src/access.c.obj
                0x00028c28                access_model_publish_ttl_get
 .text.access_element_location_get
                0x00028c54       0x18 examples/beaconing/CMakeFiles/beaconing_nrf52840_xxAA_s140_6.0.0.dir/__/__/mesh/access/src/access.c.obj
                0x00028c54                access_element_location_get
 .text.access_element_sig_model_count_get
                0x00028c6c       0x18 examples/beaconing/CMakeFiles/beaconing_nrf52840_xxAA_s140_6.0.0.dir/__/__/mesh/access/src/access.c.obj
                0x00028c6c                access_element_sig_model_count_get
 .text.access_element_vendor_model_count_get
                0x00028c84       0x18 examples/beaconing/CMakeFiles/beaconing_nrf52840_xxAA_s140_6.0.0.dir/__/__/mesh/access/src/access.c.obj
                0x00028c84                access_element_vendor_model_count_get
 .text.access_model_id_get
                0x00028c9c       0x40 examples/beaconing/CMakeFiles/beaconing_nrf52840_xxAA_s140_6.0.0.dir/__/__/mesh/access/src/access.c.obj
                0x00028c9c                access_model_id_get
 .text.access_handle_get
                0x00028cdc       0x5c examples/beaconing/CMakeFiles/beaconing_nrf52840_xxAA_s140_6.0.0.dir/__/__/mesh/access/src/access.c.obj
                0x00028cdc                access_handle_get
 .text.access_element_models_get
                0x00028d38       0x60 examples/beaconing/CMakeFiles/beaconing_nrf52840_xxAA_s140_6.0.0.dir/__/__/mesh/access/src/access.c.obj
                0x00028d38                access_element_models_get
 .text.access_model_p_args_get
                0x00028d98       0x2c examples/beaconing/CMakeFiles/beaconing_nrf52840_xxAA_s140_6.0.0.dir/__/__/mesh/access/src/access.c.obj
                0x00028d98                access_model_p_args_get
 .text.access_model_publication_stop
                0x00028dc4       0x74 examples/beaconing/CMakeFiles/beaconing_nrf52840_xxAA_s140_6.0.0.dir/__/__/mesh/access/src/access.c.obj
                0x00028dc4                access_model_publication_stop
 .text.access_model_publication_by_appkey_stop
                0x00028e38       0xe0 examples/beaconing/CMakeFiles/beaconing_nrf52840_xxAA_s140_6.0.0.dir/__/__/mesh/access/src/access.c.obj
                0x00028e38                access_model_publication_by_appkey_stop
 .text.remove_and_reschedule
                0x00028f18       0xc8 examples/beaconing/CMakeFiles/beaconing_nrf52840_xxAA_s140_6.0.0.dir/__/__/mesh/access/src/access_reliable.c.obj
 .text.reliable_timer_cb
                0x00028fe0      0x19c examples/beaconing/CMakeFiles/beaconing_nrf52840_xxAA_s140_6.0.0.dir/__/__/mesh/access/src/access_reliable.c.obj
 .text.access_reliable_message_rx_cb
                0x0002917c       0x70 examples/beaconing/CMakeFiles/beaconing_nrf52840_xxAA_s140_6.0.0.dir/__/__/mesh/access/src/access_reliable.c.obj
                0x0002917c                access_reliable_message_rx_cb
 .text.access_reliable_init
                0x000291ec       0x1c examples/beaconing/CMakeFiles/beaconing_nrf52840_xxAA_s140_6.0.0.dir/__/__/mesh/access/src/access_reliable.c.obj
                0x000291ec                access_reliable_init
 .text.access_reliable_cancel_all
                0x00029208       0xa8 examples/beaconing/CMakeFiles/beaconing_nrf52840_xxAA_s140_6.0.0.dir/__/__/mesh/access/src/access_reliable.c.obj
                0x00029208                access_reliable_cancel_all
 .text.access_model_reliable_cancel
                0x000292b0       0x74 examples/beaconing/CMakeFiles/beaconing_nrf52840_xxAA_s140_6.0.0.dir/__/__/mesh/access/src/access_reliable.c.obj
                0x000292b0                access_model_reliable_cancel
 .text.addr_nonvirtual_to_dsm_entry
                0x00029324       0x48 examples/beaconing/CMakeFiles/beaconing_nrf52840_xxAA_s140_6.0.0.dir/__/__/mesh/access/src/device_state_manager.c.obj
 .text.addr_nonvirtual_to_flash_entry
                0x0002936c       0x10 examples/beaconing/CMakeFiles/beaconing_nrf52840_xxAA_s140_6.0.0.dir/__/__/mesh/access/src/device_state_manager.c.obj
 .text.devkey_to_flash_entry
                0x0002937c       0x28 examples/beaconing/CMakeFiles/beaconing_nrf52840_xxAA_s140_6.0.0.dir/__/__/mesh/access/src/device_state_manager.c.obj
 .text.addr_virtual_to_flash_entry
                0x000293a4       0x18 examples/beaconing/CMakeFiles/beaconing_nrf52840_xxAA_s140_6.0.0.dir/__/__/mesh/access/src/device_state_manager.c.obj
 .text.addr_unicast_to_dsm_entry
                0x000293bc        0xc examples/beaconing/CMakeFiles/beaconing_nrf52840_xxAA_s140_6.0.0.dir/__/__/mesh/access/src/device_state_manager.c.obj
 .text.addr_unicast_to_flash_entry
                0x000293c8       0x10 examples/beaconing/CMakeFiles/beaconing_nrf52840_xxAA_s140_6.0.0.dir/__/__/mesh/access/src/device_state_manager.c.obj
 .text.flash_mem_listener_callback
                0x000293d8       0x1c examples/beaconing/CMakeFiles/beaconing_nrf52840_xxAA_s140_6.0.0.dir/__/__/mesh/access/src/device_state_manager.c.obj
 .text.appkey_to_flash_entry
                0x000293f4       0x54 examples/beaconing/CMakeFiles/beaconing_nrf52840_xxAA_s140_6.0.0.dir/__/__/mesh/access/src/device_state_manager.c.obj
 .text.subnet_to_flash_entry
                0x00029448       0x60 examples/beaconing/CMakeFiles/beaconing_nrf52840_xxAA_s140_6.0.0.dir/__/__/mesh/access/src/device_state_manager.c.obj
 .text.reset_flash_area
                0x000294a8       0x28 examples/beaconing/CMakeFiles/beaconing_nrf52840_xxAA_s140_6.0.0.dir/__/__/mesh/access/src/device_state_manager.c.obj
 .text.flash_save
                0x000294d0       0xb0 examples/beaconing/CMakeFiles/beaconing_nrf52840_xxAA_s140_6.0.0.dir/__/__/mesh/access/src/device_state_manager.c.obj
 .text.build_flash_area
                0x00029580       0x90 examples/beaconing/CMakeFiles/beaconing_nrf52840_xxAA_s140_6.0.0.dir/__/__/mesh/access/src/device_state_manager.c.obj
 .text.flash_invalidate_complete
                0x00029610       0x54 examples/beaconing/CMakeFiles/beaconing_nrf52840_xxAA_s140_6.0.0.dir/__/__/mesh/access/src/device_state_manager.c.obj
 .text.flash_write_complete
                0x00029664       0x50 examples/beaconing/CMakeFiles/beaconing_nrf52840_xxAA_s140_6.0.0.dir/__/__/mesh/access/src/device_state_manager.c.obj
 .text.devkey_to_dsm_entry
                0x000296b4       0x70 examples/beaconing/CMakeFiles/beaconing_nrf52840_xxAA_s140_6.0.0.dir/__/__/mesh/access/src/device_state_manager.c.obj
 .text.addr_virtual_to_dsm_entry
                0x00029724       0x60 examples/beaconing/CMakeFiles/beaconing_nrf52840_xxAA_s140_6.0.0.dir/__/__/mesh/access/src/device_state_manager.c.obj
 .text.appkey_to_dsm_entry
                0x00029784       0xf4 examples/beaconing/CMakeFiles/beaconing_nrf52840_xxAA_s140_6.0.0.dir/__/__/mesh/access/src/device_state_manager.c.obj
 .text.subnet_to_dsm_entry
                0x00029878      0x11c examples/beaconing/CMakeFiles/beaconing_nrf52840_xxAA_s140_6.0.0.dir/__/__/mesh/access/src/device_state_manager.c.obj
 .text.flash_remove_complete
                0x00029994       0x90 examples/beaconing/CMakeFiles/beaconing_nrf52840_xxAA_s140_6.0.0.dir/__/__/mesh/access/src/device_state_manager.c.obj
 .text.flash_update_all
                0x00029a24      0x17c examples/beaconing/CMakeFiles/beaconing_nrf52840_xxAA_s140_6.0.0.dir/__/__/mesh/access/src/device_state_manager.c.obj
 .text.address_delete_if_unused
                0x00029ba0      0x100 examples/beaconing/CMakeFiles/beaconing_nrf52840_xxAA_s140_6.0.0.dir/__/__/mesh/access/src/device_state_manager.c.obj
 .text.mesh_evt_handler
                0x00029ca0      0x234 examples/beaconing/CMakeFiles/beaconing_nrf52840_xxAA_s140_6.0.0.dir/__/__/mesh/access/src/device_state_manager.c.obj
 .text.dsm_flash_config_load
                0x00029ed4      0x1c8 examples/beaconing/CMakeFiles/beaconing_nrf52840_xxAA_s140_6.0.0.dir/__/__/mesh/access/src/device_state_manager.c.obj
                0x00029ed4                dsm_flash_config_load
 .text.dsm_flash_area_get
                0x0002a09c        0xc examples/beaconing/CMakeFiles/beaconing_nrf52840_xxAA_s140_6.0.0.dir/__/__/mesh/access/src/device_state_manager.c.obj
                0x0002a09c                dsm_flash_area_get
 .text.dsm_clear
                0x0002a0a8      0x160 examples/beaconing/CMakeFiles/beaconing_nrf52840_xxAA_s140_6.0.0.dir/__/__/mesh/access/src/device_state_manager.c.obj
                0x0002a0a8                dsm_clear
 .text.dsm_init
                0x0002a208       0xbc examples/beaconing/CMakeFiles/beaconing_nrf52840_xxAA_s140_6.0.0.dir/__/__/mesh/access/src/device_state_manager.c.obj
                0x0002a208                dsm_init
 .text.dsm_local_unicast_addresses_set
                0x0002a2c4       0x78 examples/beaconing/CMakeFiles/beaconing_nrf52840_xxAA_s140_6.0.0.dir/__/__/mesh/access/src/device_state_manager.c.obj
                0x0002a2c4                dsm_local_unicast_addresses_set
 .text.dsm_local_unicast_addresses_get
                0x0002a33c       0x20 examples/beaconing/CMakeFiles/beaconing_nrf52840_xxAA_s140_6.0.0.dir/__/__/mesh/access/src/device_state_manager.c.obj
                0x0002a33c                dsm_local_unicast_addresses_get
 .text.dsm_address_publish_add
                0x0002a35c      0x330 examples/beaconing/CMakeFiles/beaconing_nrf52840_xxAA_s140_6.0.0.dir/__/__/mesh/access/src/device_state_manager.c.obj
                0x0002a35c                dsm_address_publish_add
 .text.dsm_address_publish_add_handle
                0x0002a68c       0x54 examples/beaconing/CMakeFiles/beaconing_nrf52840_xxAA_s140_6.0.0.dir/__/__/mesh/access/src/device_state_manager.c.obj
                0x0002a68c                dsm_address_publish_add_handle
 .text.dsm_address_publish_virtual_add
                0x0002a6e0      0x268 examples/beaconing/CMakeFiles/beaconing_nrf52840_xxAA_s140_6.0.0.dir/__/__/mesh/access/src/device_state_manager.c.obj
                0x0002a6e0                dsm_address_publish_virtual_add
 .text.dsm_address_publish_remove
                0x0002a948       0xbc examples/beaconing/CMakeFiles/beaconing_nrf52840_xxAA_s140_6.0.0.dir/__/__/mesh/access/src/device_state_manager.c.obj
                0x0002a948                dsm_address_publish_remove
 .text.dsm_address_subscription_add
                0x0002aa04      0x320 examples/beaconing/CMakeFiles/beaconing_nrf52840_xxAA_s140_6.0.0.dir/__/__/mesh/access/src/device_state_manager.c.obj
                0x0002aa04                dsm_address_subscription_add
 .text.dsm_address_subscription_virtual_add
                0x0002ad24      0x268 examples/beaconing/CMakeFiles/beaconing_nrf52840_xxAA_s140_6.0.0.dir/__/__/mesh/access/src/device_state_manager.c.obj
                0x0002ad24                dsm_address_subscription_virtual_add
 .text.dsm_address_subscription_add_handle
                0x0002af8c       0x54 examples/beaconing/CMakeFiles/beaconing_nrf52840_xxAA_s140_6.0.0.dir/__/__/mesh/access/src/device_state_manager.c.obj
                0x0002af8c                dsm_address_subscription_add_handle
 .text.dsm_address_subscription_get
                0x0002afe0       0x5c examples/beaconing/CMakeFiles/beaconing_nrf52840_xxAA_s140_6.0.0.dir/__/__/mesh/access/src/device_state_manager.c.obj
                0x0002afe0                dsm_address_subscription_get
 .text.dsm_address_subscription_remove
                0x0002b03c       0x94 examples/beaconing/CMakeFiles/beaconing_nrf52840_xxAA_s140_6.0.0.dir/__/__/mesh/access/src/device_state_manager.c.obj
                0x0002b03c                dsm_address_subscription_remove
 .text.dsm_address_get
                0x0002b0d0       0x74 examples/beaconing/CMakeFiles/beaconing_nrf52840_xxAA_s140_6.0.0.dir/__/__/mesh/access/src/device_state_manager.c.obj
                0x0002b0d0                dsm_address_get
 .text.dsm_address_handle_get
                0x0002b144      0x3cc examples/beaconing/CMakeFiles/beaconing_nrf52840_xxAA_s140_6.0.0.dir/__/__/mesh/access/src/device_state_manager.c.obj
                0x0002b144                dsm_address_handle_get
 .text.dsm_net_key_index_to_subnet_handle
                0x0002b510       0x6c examples/beaconing/CMakeFiles/beaconing_nrf52840_xxAA_s140_6.0.0.dir/__/__/mesh/access/src/device_state_manager.c.obj
                0x0002b510                dsm_net_key_index_to_subnet_handle
 .text.dsm_subnet_handle_get
                0x0002b57c       0xa4 examples/beaconing/CMakeFiles/beaconing_nrf52840_xxAA_s140_6.0.0.dir/__/__/mesh/access/src/device_state_manager.c.obj
                0x0002b57c                dsm_subnet_handle_get
 .text.dsm_appkey_index_to_appkey_handle
                0x0002b620       0xcc examples/beaconing/CMakeFiles/beaconing_nrf52840_xxAA_s140_6.0.0.dir/__/__/mesh/access/src/device_state_manager.c.obj
                0x0002b620                dsm_appkey_index_to_appkey_handle
 .text.dsm_appkey_handle_get
                0x0002b6ec       0x44 examples/beaconing/CMakeFiles/beaconing_nrf52840_xxAA_s140_6.0.0.dir/__/__/mesh/access/src/device_state_manager.c.obj
                0x0002b6ec                dsm_appkey_handle_get
 .text.dsm_appkey_handle_to_appkey_index
                0x0002b730       0x34 examples/beaconing/CMakeFiles/beaconing_nrf52840_xxAA_s140_6.0.0.dir/__/__/mesh/access/src/device_state_manager.c.obj
                0x0002b730                dsm_appkey_handle_to_appkey_index
 .text.dsm_appkey_handle_to_subnet_handle
                0x0002b764       0xb4 examples/beaconing/CMakeFiles/beaconing_nrf52840_xxAA_s140_6.0.0.dir/__/__/mesh/access/src/device_state_manager.c.obj
                0x0002b764                dsm_appkey_handle_to_subnet_handle
 .text.dsm_subnet_add
                0x0002b818      0x21c examples/beaconing/CMakeFiles/beaconing_nrf52840_xxAA_s140_6.0.0.dir/__/__/mesh/access/src/device_state_manager.c.obj
                0x0002b818                dsm_subnet_add
 .text.dsm_subnet_kr_phase_get
                0x0002ba34       0x30 examples/beaconing/CMakeFiles/beaconing_nrf52840_xxAA_s140_6.0.0.dir/__/__/mesh/access/src/device_state_manager.c.obj
                0x0002ba34                dsm_subnet_kr_phase_get
 .text.dsm_subnet_update
                0x0002ba64      0x11c examples/beaconing/CMakeFiles/beaconing_nrf52840_xxAA_s140_6.0.0.dir/__/__/mesh/access/src/device_state_manager.c.obj
                0x0002ba64                dsm_subnet_update
 .text.dsm_subnet_update_swap_keys
                0x0002bb80       0xa8 examples/beaconing/CMakeFiles/beaconing_nrf52840_xxAA_s140_6.0.0.dir/__/__/mesh/access/src/device_state_manager.c.obj
                0x0002bb80                dsm_subnet_update_swap_keys
 .text.dsm_subnet_update_commit
                0x0002bc28      0x194 examples/beaconing/CMakeFiles/beaconing_nrf52840_xxAA_s140_6.0.0.dir/__/__/mesh/access/src/device_state_manager.c.obj
                0x0002bc28                dsm_subnet_update_commit
 .text.dsm_subnet_delete
                0x0002bdbc      0x358 examples/beaconing/CMakeFiles/beaconing_nrf52840_xxAA_s140_6.0.0.dir/__/__/mesh/access/src/device_state_manager.c.obj
                0x0002bdbc                dsm_subnet_delete
 .text.dsm_subnet_get_all
                0x0002c114       0x90 examples/beaconing/CMakeFiles/beaconing_nrf52840_xxAA_s140_6.0.0.dir/__/__/mesh/access/src/device_state_manager.c.obj
                0x0002c114                dsm_subnet_get_all
 .text.dsm_devkey_add
                0x0002c1a4       0xb0 examples/beaconing/CMakeFiles/beaconing_nrf52840_xxAA_s140_6.0.0.dir/__/__/mesh/access/src/device_state_manager.c.obj
                0x0002c1a4                dsm_devkey_add
 .text.dsm_appkey_add
                0x0002c254      0x298 examples/beaconing/CMakeFiles/beaconing_nrf52840_xxAA_s140_6.0.0.dir/__/__/mesh/access/src/device_state_manager.c.obj
                0x0002c254                dsm_appkey_add
 .text.dsm_appkey_update
                0x0002c4ec       0xfc examples/beaconing/CMakeFiles/beaconing_nrf52840_xxAA_s140_6.0.0.dir/__/__/mesh/access/src/device_state_manager.c.obj
                0x0002c4ec                dsm_appkey_update
 .text.dsm_appkey_delete
                0x0002c5e8       0x68 examples/beaconing/CMakeFiles/beaconing_nrf52840_xxAA_s140_6.0.0.dir/__/__/mesh/access/src/device_state_manager.c.obj
                0x0002c5e8                dsm_appkey_delete
 .text.dsm_appkey_get_all
                0x0002c650      0x158 examples/beaconing/CMakeFiles/beaconing_nrf52840_xxAA_s140_6.0.0.dir/__/__/mesh/access/src/device_state_manager.c.obj
                0x0002c650                dsm_appkey_get_all
 .text.dsm_tx_secmat_get
                0x0002c7a8       0xd4 examples/beaconing/CMakeFiles/beaconing_nrf52840_xxAA_s140_6.0.0.dir/__/__/mesh/access/src/device_state_manager.c.obj
                0x0002c7a8                dsm_tx_secmat_get
 .text.dsm_net_secmat_from_keyindex_get
                0x0002c87c       0x98 examples/beaconing/CMakeFiles/beaconing_nrf52840_xxAA_s140_6.0.0.dir/__/__/mesh/access/src/device_state_manager.c.obj
                0x0002c87c                dsm_net_secmat_from_keyindex_get
 .text.nrf_mesh_net_secmat_next_get
                0x0002c914      0x21c examples/beaconing/CMakeFiles/beaconing_nrf52840_xxAA_s140_6.0.0.dir/__/__/mesh/access/src/device_state_manager.c.obj
                0x0002c914                nrf_mesh_net_secmat_next_get
 .text.nrf_mesh_app_secmat_next_get
                0x0002cb30      0x280 examples/beaconing/CMakeFiles/beaconing_nrf52840_xxAA_s140_6.0.0.dir/__/__/mesh/access/src/device_state_manager.c.obj
                0x0002cb30                nrf_mesh_app_secmat_next_get
 .text.nrf_mesh_devkey_secmat_get
                0x0002cdb0       0x30 examples/beaconing/CMakeFiles/beaconing_nrf52840_xxAA_s140_6.0.0.dir/__/__/mesh/access/src/device_state_manager.c.obj
                0x0002cdb0                nrf_mesh_devkey_secmat_get
 .text.nrf_mesh_beacon_info_next_get
                0x0002cde0      0x174 examples/beaconing/CMakeFiles/beaconing_nrf52840_xxAA_s140_6.0.0.dir/__/__/mesh/access/src/device_state_manager.c.obj
                0x0002cde0                nrf_mesh_beacon_info_next_get
 .text.nrf_mesh_rx_address_get
                0x0002cf54      0x558 examples/beaconing/CMakeFiles/beaconing_nrf52840_xxAA_s140_6.0.0.dir/__/__/mesh/access/src/device_state_manager.c.obj
                0x0002cf54                nrf_mesh_rx_address_get
 .text.nrf_mesh_unicast_address_get
                0x0002d4ac       0x24 examples/beaconing/CMakeFiles/beaconing_nrf52840_xxAA_s140_6.0.0.dir/__/__/mesh/access/src/device_state_manager.c.obj
                0x0002d4ac                nrf_mesh_unicast_address_get
 .text._weak_handler
                0x0002d4d0        0x4 examples/beaconing/CMakeFiles/beaconing_nrf52840_xxAA_s140_6.0.0.dir/__/nrf_mesh_weak.c.obj
                0x0002d4d0                nrf_mesh_dfu_init
                0x0002d4d0                nrf_mesh_dfu_jump_to_bootloader
                0x0002d4d0                nrf_mesh_dfu_rx
                0x0002d4d0                prov_provisioner_provision
                0x0002d4d0                nrf_mesh_dfu_bank_info_get
                0x0002d4d0                prov_provisioner_oob_pubkey
                0x0002d4d0                nrf_mesh_dfu_request
                0x0002d4d0                nrf_mesh_dfu_bank_flash
                0x0002d4d0                _weak_handler
                0x0002d4d0                nrf_mesh_dfu_relay
                0x0002d4d0                nrf_mesh_dfu_abort
                0x0002d4d0                mesh_flash_op_execute
                0x0002d4d0                prov_provisionee_init
                0x0002d4d0                nrf_mesh_dfu_state_get
                0x0002d4d0                prov_provisioner_shared_secret
                0x0002d4d0                prov_provisioner_auth_data
                0x0002d4d0                prov_provisioner_oob_use
 .text.app_error_fault_handler
                0x0002d4d4      0x240 examples/beaconing/CMakeFiles/beaconing_nrf52840_xxAA_s140_6.0.0.dir/__/common/src/app_error_weak.c.obj
                0x0002d4d4                app_error_fault_handler
 .text.mesh_assertion_handler
                0x0002d714       0x24 examples/beaconing/CMakeFiles/beaconing_nrf52840_xxAA_s140_6.0.0.dir/__/common/src/assertion_handler_weak.c.obj
                0x0002d714                mesh_assertion_handler
 .text.config_composition_data_get
                0x0002d738      0x1d4 examples/beaconing/CMakeFiles/beaconing_nrf52840_xxAA_s140_6.0.0.dir/__/__/models/config/src/composition_data.c.obj
                0x0002d738                config_composition_data_get
 .text.config_server_heartbeat_publication_count_decrement
                0x0002d90c       0x1c examples/beaconing/CMakeFiles/beaconing_nrf52840_xxAA_s140_6.0.0.dir/__/__/models/config/src/config_server.c.obj
 .text.config_server_heartbeat_publication_params_get
                0x0002d928       0x38 examples/beaconing/CMakeFiles/beaconing_nrf52840_xxAA_s140_6.0.0.dir/__/__/models/config/src/config_server.c.obj
 .text.handle_config_network_transmit_set
                0x0002d960      0x11c examples/beaconing/CMakeFiles/beaconing_nrf52840_xxAA_s140_6.0.0.dir/__/__/models/config/src/config_server.c.obj
 .text.handle_node_reset
                0x0002da7c       0x30 examples/beaconing/CMakeFiles/beaconing_nrf52840_xxAA_s140_6.0.0.dir/__/__/models/config/src/config_server.c.obj
 .text.handle_config_relay_set
                0x0002daac      0x1b0 examples/beaconing/CMakeFiles/beaconing_nrf52840_xxAA_s140_6.0.0.dir/__/__/models/config/src/config_server.c.obj
 .text.handle_config_gatt_proxy_set
                0x0002dc5c       0x38 examples/beaconing/CMakeFiles/beaconing_nrf52840_xxAA_s140_6.0.0.dir/__/__/models/config/src/config_server.c.obj
 .text.handle_netkey_get
                0x0002dc94       0x68 examples/beaconing/CMakeFiles/beaconing_nrf52840_xxAA_s140_6.0.0.dir/__/__/models/config/src/config_server.c.obj
 .text.handle_model_app_bind_unbind
                0x0002dcfc      0x22c examples/beaconing/CMakeFiles/beaconing_nrf52840_xxAA_s140_6.0.0.dir/__/__/models/config/src/config_server.c.obj
 .text.status_error_sub_send
                0x0002df28      0x184 examples/beaconing/CMakeFiles/beaconing_nrf52840_xxAA_s140_6.0.0.dir/__/__/models/config/src/config_server.c.obj
 .text.handle_config_model_subscription_overwrite
                0x0002e0ac      0x1ec examples/beaconing/CMakeFiles/beaconing_nrf52840_xxAA_s140_6.0.0.dir/__/__/models/config/src/config_server.c.obj
 .text.send_publication_status
                0x0002e298      0x1a4 examples/beaconing/CMakeFiles/beaconing_nrf52840_xxAA_s140_6.0.0.dir/__/__/models/config/src/config_server.c.obj
 .text.handle_config_key_refresh_phase_set
                0x0002e43c       0xf0 examples/beaconing/CMakeFiles/beaconing_nrf52840_xxAA_s140_6.0.0.dir/__/__/models/config/src/config_server.c.obj
 .text.handle_config_default_ttl_set
                0x0002e52c       0x70 examples/beaconing/CMakeFiles/beaconing_nrf52840_xxAA_s140_6.0.0.dir/__/__/models/config/src/config_server.c.obj
 .text.handle_heartbeat_publication_set
                0x0002e59c      0x170 examples/beaconing/CMakeFiles/beaconing_nrf52840_xxAA_s140_6.0.0.dir/__/__/models/config/src/config_server.c.obj
 .text.mesh_event_cb
                0x0002e70c       0x70 examples/beaconing/CMakeFiles/beaconing_nrf52840_xxAA_s140_6.0.0.dir/__/__/models/config/src/config_server.c.obj
 .text.handle_node_identity_set
                0x0002e77c       0x48 examples/beaconing/CMakeFiles/beaconing_nrf52840_xxAA_s140_6.0.0.dir/__/__/models/config/src/config_server.c.obj
 .text.handle_node_identity_get
                0x0002e7c4       0x44 examples/beaconing/CMakeFiles/beaconing_nrf52840_xxAA_s140_6.0.0.dir/__/__/models/config/src/config_server.c.obj
 .text.handle_config_friend_set
                0x0002e808       0x38 examples/beaconing/CMakeFiles/beaconing_nrf52840_xxAA_s140_6.0.0.dir/__/__/models/config/src/config_server.c.obj
 .text.status_error_pub_send
                0x0002e840       0xc8 examples/beaconing/CMakeFiles/beaconing_nrf52840_xxAA_s140_6.0.0.dir/__/__/models/config/src/config_server.c.obj
 .text.handle_config_model_publication_get
                0x0002e908       0xa0 examples/beaconing/CMakeFiles/beaconing_nrf52840_xxAA_s140_6.0.0.dir/__/__/models/config/src/config_server.c.obj
 .text.handle_config_model_publication_set
                0x0002e9a8      0x324 examples/beaconing/CMakeFiles/beaconing_nrf52840_xxAA_s140_6.0.0.dir/__/__/models/config/src/config_server.c.obj
 .text.handle_config_key_refresh_phase_get
                0x0002eccc       0x70 examples/beaconing/CMakeFiles/beaconing_nrf52840_xxAA_s140_6.0.0.dir/__/__/models/config/src/config_server.c.obj
 .text.handle_config_default_ttl_get
                0x0002ed3c       0x48 examples/beaconing/CMakeFiles/beaconing_nrf52840_xxAA_s140_6.0.0.dir/__/__/models/config/src/config_server.c.obj
 .text.handle_config_beacon_set
                0x0002ed84       0x80 examples/beaconing/CMakeFiles/beaconing_nrf52840_xxAA_s140_6.0.0.dir/__/__/models/config/src/config_server.c.obj
 .text.handle_composition_data_get
                0x0002ee04       0x64 examples/beaconing/CMakeFiles/beaconing_nrf52840_xxAA_s140_6.0.0.dir/__/__/models/config/src/config_server.c.obj
 .text.handle_appkey_delete
                0x0002ee68      0x124 examples/beaconing/CMakeFiles/beaconing_nrf52840_xxAA_s140_6.0.0.dir/__/__/models/config/src/config_server.c.obj
 .text.handle_model_app_get
                0x0002ef8c      0x230 examples/beaconing/CMakeFiles/beaconing_nrf52840_xxAA_s140_6.0.0.dir/__/__/models/config/src/config_server.c.obj
 .text.handle_config_vendor_model_subscription_get
                0x0002f1bc      0x18c examples/beaconing/CMakeFiles/beaconing_nrf52840_xxAA_s140_6.0.0.dir/__/__/models/config/src/config_server.c.obj
 .text.handle_appkey_get
                0x0002f348      0x104 examples/beaconing/CMakeFiles/beaconing_nrf52840_xxAA_s140_6.0.0.dir/__/__/models/config/src/config_server.c.obj
 .text.handle_heartbeat_subscription_get
                0x0002f44c       0xd8 examples/beaconing/CMakeFiles/beaconing_nrf52840_xxAA_s140_6.0.0.dir/__/__/models/config/src/config_server.c.obj
 .text.handle_config_gatt_proxy_get
                0x0002f524       0x38 examples/beaconing/CMakeFiles/beaconing_nrf52840_xxAA_s140_6.0.0.dir/__/__/models/config/src/config_server.c.obj
 .text.handle_heartbeat_subscription_set
                0x0002f55c      0x110 examples/beaconing/CMakeFiles/beaconing_nrf52840_xxAA_s140_6.0.0.dir/__/__/models/config/src/config_server.c.obj
 .text.handle_config_friend_get
                0x0002f66c       0x38 examples/beaconing/CMakeFiles/beaconing_nrf52840_xxAA_s140_6.0.0.dir/__/__/models/config/src/config_server.c.obj
 .text.handle_heartbeat_publication_get
                0x0002f6a4       0xcc examples/beaconing/CMakeFiles/beaconing_nrf52840_xxAA_s140_6.0.0.dir/__/__/models/config/src/config_server.c.obj
 .text.handle_config_beacon_get
                0x0002f770       0x40 examples/beaconing/CMakeFiles/beaconing_nrf52840_xxAA_s140_6.0.0.dir/__/__/models/config/src/config_server.c.obj
 .text.handle_config_sig_model_subscription_get
                0x0002f7b0      0x150 examples/beaconing/CMakeFiles/beaconing_nrf52840_xxAA_s140_6.0.0.dir/__/__/models/config/src/config_server.c.obj
 .text.handle_appkey_update
                0x0002f900      0x11c examples/beaconing/CMakeFiles/beaconing_nrf52840_xxAA_s140_6.0.0.dir/__/__/models/config/src/config_server.c.obj
 .text.handle_appkey_add
                0x0002fa1c      0x12c examples/beaconing/CMakeFiles/beaconing_nrf52840_xxAA_s140_6.0.0.dir/__/__/models/config/src/config_server.c.obj
 .text.handle_netkey_add_update
                0x0002fb48       0xe8 examples/beaconing/CMakeFiles/beaconing_nrf52840_xxAA_s140_6.0.0.dir/__/__/models/config/src/config_server.c.obj
 .text.handle_netkey_delete
                0x0002fc30      0x148 examples/beaconing/CMakeFiles/beaconing_nrf52840_xxAA_s140_6.0.0.dir/__/__/models/config/src/config_server.c.obj
 .text.handle_config_network_transmit_get
                0x0002fd78       0x9c examples/beaconing/CMakeFiles/beaconing_nrf52840_xxAA_s140_6.0.0.dir/__/__/models/config/src/config_server.c.obj
 .text.handle_config_relay_get
                0x0002fe14       0xd8 examples/beaconing/CMakeFiles/beaconing_nrf52840_xxAA_s140_6.0.0.dir/__/__/models/config/src/config_server.c.obj
 .text.handle_config_model_subscription_virtual_address_delete
                0x0002feec      0x17c examples/beaconing/CMakeFiles/beaconing_nrf52840_xxAA_s140_6.0.0.dir/__/__/models/config/src/config_server.c.obj
 .text.handle_config_model_subscription_delete_all
                0x00030068      0x1a8 examples/beaconing/CMakeFiles/beaconing_nrf52840_xxAA_s140_6.0.0.dir/__/__/models/config/src/config_server.c.obj
 .text.handle_config_model_subscription_virtual_address_add
                0x00030210      0x178 examples/beaconing/CMakeFiles/beaconing_nrf52840_xxAA_s140_6.0.0.dir/__/__/models/config/src/config_server.c.obj
 .text.handle_config_model_subscription_delete
                0x00030388      0x170 examples/beaconing/CMakeFiles/beaconing_nrf52840_xxAA_s140_6.0.0.dir/__/__/models/config/src/config_server.c.obj
 .text.handle_config_model_subscription_virtual_address_overwrite
                0x000304f8      0x210 examples/beaconing/CMakeFiles/beaconing_nrf52840_xxAA_s140_6.0.0.dir/__/__/models/config/src/config_server.c.obj
 .text.handle_config_model_subscription_add
                0x00030708      0x168 examples/beaconing/CMakeFiles/beaconing_nrf52840_xxAA_s140_6.0.0.dir/__/__/models/config/src/config_server.c.obj
 .text.config_server_init
                0x00030870       0x64 examples/beaconing/CMakeFiles/beaconing_nrf52840_xxAA_s140_6.0.0.dir/__/__/models/config/src/config_server.c.obj
                0x00030870                config_server_init
 .text.config_server_bind
                0x000308d4       0x10 examples/beaconing/CMakeFiles/beaconing_nrf52840_xxAA_s140_6.0.0.dir/__/__/models/config/src/config_server.c.obj
                0x000308d4                config_server_bind
 .text.packed_index_list_create
                0x000308e4       0x38 examples/beaconing/CMakeFiles/beaconing_nrf52840_xxAA_s140_6.0.0.dir/__/__/models/config/src/packed_index_list.c.obj
                0x000308e4                packed_index_list_create
 .text.attention_timer_handler
                0x0003091c       0x6c examples/beaconing/CMakeFiles/beaconing_nrf52840_xxAA_s140_6.0.0.dir/__/__/models/health/src/health_server.c.obj
 .text.handle_attention_get
                0x00030988       0x3c examples/beaconing/CMakeFiles/beaconing_nrf52840_xxAA_s140_6.0.0.dir/__/__/models/health/src/health_server.c.obj
 .text.handle_period_get
                0x000309c4       0x38 examples/beaconing/CMakeFiles/beaconing_nrf52840_xxAA_s140_6.0.0.dir/__/__/models/health/src/health_server.c.obj
 .text.handle_attention_set
                0x000309fc       0xd8 examples/beaconing/CMakeFiles/beaconing_nrf52840_xxAA_s140_6.0.0.dir/__/__/models/health/src/health_server.c.obj
 .text.handle_period_set
                0x00030ad4       0x50 examples/beaconing/CMakeFiles/beaconing_nrf52840_xxAA_s140_6.0.0.dir/__/__/models/health/src/health_server.c.obj
 .text.send_fault_status
                0x00030b24      0x37c examples/beaconing/CMakeFiles/beaconing_nrf52840_xxAA_s140_6.0.0.dir/__/__/models/health/src/health_server.c.obj
 .text.health_publish_timeout_handler
                0x00030ea0        0xc examples/beaconing/CMakeFiles/beaconing_nrf52840_xxAA_s140_6.0.0.dir/__/__/models/health/src/health_server.c.obj
 .text.handle_fault_test
                0x00030eac       0x7c examples/beaconing/CMakeFiles/beaconing_nrf52840_xxAA_s140_6.0.0.dir/__/__/models/health/src/health_server.c.obj
 .text.handle_fault_clear
                0x00030f28       0x48 examples/beaconing/CMakeFiles/beaconing_nrf52840_xxAA_s140_6.0.0.dir/__/__/models/health/src/health_server.c.obj
 .text.handle_fault_get
                0x00030f70       0x34 examples/beaconing/CMakeFiles/beaconing_nrf52840_xxAA_s140_6.0.0.dir/__/__/models/health/src/health_server.c.obj
 .text.health_server_init
                0x00030fa4       0x74 examples/beaconing/CMakeFiles/beaconing_nrf52840_xxAA_s140_6.0.0.dir/__/__/models/health/src/health_server.c.obj
                0x00030fa4                health_server_init
 .text.prov_provisionee_cb_link_established
                0x00031018       0x38 examples/beaconing/CMakeFiles/beaconing_nrf52840_xxAA_s140_6.0.0.dir/__/__/mesh/prov/src/prov_provisionee.c.obj
 .text.prov_provisionee_cb_link_closed
                0x00031050       0x54 examples/beaconing/CMakeFiles/beaconing_nrf52840_xxAA_s140_6.0.0.dir/__/__/mesh/prov/src/prov_provisionee.c.obj
 .text.request_authentication
                0x000310a4       0x90 examples/beaconing/CMakeFiles/beaconing_nrf52840_xxAA_s140_6.0.0.dir/__/__/mesh/prov/src/prov_provisionee.c.obj
 .text.prov_provisionee_cb_ack_received
                0x00031134      0x194 examples/beaconing/CMakeFiles/beaconing_nrf52840_xxAA_s140_6.0.0.dir/__/__/mesh/prov/src/prov_provisionee.c.obj
 .text.prov_provisionee_pkt_in
                0x000312c8      0x420 examples/beaconing/CMakeFiles/beaconing_nrf52840_xxAA_s140_6.0.0.dir/__/__/mesh/prov/src/prov_provisionee.c.obj
 .text.prov_provisionee_listen
                0x000316e8       0x34 examples/beaconing/CMakeFiles/beaconing_nrf52840_xxAA_s140_6.0.0.dir/__/__/mesh/prov/src/prov_provisionee.c.obj
                0x000316e8                prov_provisionee_listen
 .text.prov_provisionee_auth_data
                0x0003171c      0x104 examples/beaconing/CMakeFiles/beaconing_nrf52840_xxAA_s140_6.0.0.dir/__/__/mesh/prov/src/prov_provisionee.c.obj
                0x0003171c                prov_provisionee_auth_data
 .text.bearer_compare_callback
                0x00031820       0x10 examples/beaconing/CMakeFiles/beaconing_nrf52840_xxAA_s140_6.0.0.dir/__/__/mesh/prov/src/nrf_mesh_prov.c.obj
 .text.nrf_mesh_prov_init
                0x00031830       0x3c examples/beaconing/CMakeFiles/beaconing_nrf52840_xxAA_s140_6.0.0.dir/__/__/mesh/prov/src/nrf_mesh_prov.c.obj
                0x00031830                nrf_mesh_prov_init
 .text.nrf_mesh_prov_bearer_add
                0x0003186c       0x2c examples/beaconing/CMakeFiles/beaconing_nrf52840_xxAA_s140_6.0.0.dir/__/__/mesh/prov/src/nrf_mesh_prov.c.obj
                0x0003186c                nrf_mesh_prov_bearer_add
 .text.nrf_mesh_prov_generate_keys
                0x00031898        0x4 examples/beaconing/CMakeFiles/beaconing_nrf52840_xxAA_s140_6.0.0.dir/__/__/mesh/prov/src/nrf_mesh_prov.c.obj
                0x00031898                nrf_mesh_prov_generate_keys
 .text.nrf_mesh_prov_listen
                0x0003189c       0xf8 examples/beaconing/CMakeFiles/beaconing_nrf52840_xxAA_s140_6.0.0.dir/__/__/mesh/prov/src/nrf_mesh_prov.c.obj
                0x0003189c                nrf_mesh_prov_listen
 .text.nrf_mesh_prov_auth_data_provide
                0x00031994       0x10 examples/beaconing/CMakeFiles/beaconing_nrf52840_xxAA_s140_6.0.0.dir/__/__/mesh/prov/src/nrf_mesh_prov.c.obj
                0x00031994                nrf_mesh_prov_auth_data_provide
 .text.prov_packet_length_valid
                0x000319a4       0x20 examples/beaconing/CMakeFiles/beaconing_nrf52840_xxAA_s140_6.0.0.dir/__/__/mesh/prov/src/provisioning.c.obj
                0x000319a4                prov_packet_length_valid
 .text.prov_tx_capabilities
                0x000319c4       0x38 examples/beaconing/CMakeFiles/beaconing_nrf52840_xxAA_s140_6.0.0.dir/__/__/mesh/prov/src/provisioning.c.obj
                0x000319c4                prov_tx_capabilities
 .text.prov_tx_public_key
                0x000319fc       0x30 examples/beaconing/CMakeFiles/beaconing_nrf52840_xxAA_s140_6.0.0.dir/__/__/mesh/prov/src/provisioning.c.obj
                0x000319fc                prov_tx_public_key
 .text.prov_tx_input_complete
                0x00031a2c       0x28 examples/beaconing/CMakeFiles/beaconing_nrf52840_xxAA_s140_6.0.0.dir/__/__/mesh/prov/src/provisioning.c.obj
                0x00031a2c                prov_tx_input_complete
 .text.prov_tx_confirmation
                0x00031a54       0x30 examples/beaconing/CMakeFiles/beaconing_nrf52840_xxAA_s140_6.0.0.dir/__/__/mesh/prov/src/provisioning.c.obj
                0x00031a54                prov_tx_confirmation
 .text.prov_tx_random
                0x00031a84       0x30 examples/beaconing/CMakeFiles/beaconing_nrf52840_xxAA_s140_6.0.0.dir/__/__/mesh/prov/src/provisioning.c.obj
                0x00031a84                prov_tx_random
 .text.prov_tx_complete
                0x00031ab4       0x28 examples/beaconing/CMakeFiles/beaconing_nrf52840_xxAA_s140_6.0.0.dir/__/__/mesh/prov/src/provisioning.c.obj
                0x00031ab4                prov_tx_complete
 .text.prov_tx_failed
                0x00031adc       0x2c examples/beaconing/CMakeFiles/beaconing_nrf52840_xxAA_s140_6.0.0.dir/__/__/mesh/prov/src/provisioning.c.obj
                0x00031adc                prov_tx_failed
 .text.prov_beacon_unprov_build
                0x00031b08       0x54 examples/beaconing/CMakeFiles/beaconing_nrf52840_xxAA_s140_6.0.0.dir/__/__/mesh/prov/src/prov_beacon.c.obj
                0x00031b08                prov_beacon_unprov_build
 .text.prov_beacon_unprov_packet_in
                0x00031b5c       0xd4 examples/beaconing/CMakeFiles/beaconing_nrf52840_xxAA_s140_6.0.0.dir/__/__/mesh/prov/src/prov_beacon.c.obj
                0x00031b5c                prov_beacon_unprov_packet_in
 .text.prov_utils_opt_set
                0x00031c30       0x24 examples/beaconing/CMakeFiles/beaconing_nrf52840_xxAA_s140_6.0.0.dir/__/__/mesh/prov/src/prov_utils.c.obj
                0x00031c30                prov_utils_opt_set
 .text.prov_utils_opt_get
                0x00031c54       0x1c examples/beaconing/CMakeFiles/beaconing_nrf52840_xxAA_s140_6.0.0.dir/__/__/mesh/prov/src/prov_utils.c.obj
                0x00031c54                prov_utils_opt_get
 .text.prov_utils_use_ecdh_offloading
                0x00031c70        0xc examples/beaconing/CMakeFiles/beaconing_nrf52840_xxAA_s140_6.0.0.dir/__/__/mesh/prov/src/prov_utils.c.obj
                0x00031c70                prov_utils_use_ecdh_offloading
 .text.prov_utils_authentication_values_derive
                0x00031c7c       0xa8 examples/beaconing/CMakeFiles/beaconing_nrf52840_xxAA_s140_6.0.0.dir/__/__/mesh/prov/src/prov_utils.c.obj
                0x00031c7c                prov_utils_authentication_values_derive
 .text.prov_utils_keys_generate
                0x00031d24       0x20 examples/beaconing/CMakeFiles/beaconing_nrf52840_xxAA_s140_6.0.0.dir/__/__/mesh/prov/src/prov_utils.c.obj
                0x00031d24                prov_utils_keys_generate
 .text.prov_utils_derive_keys
                0x00031d44       0xb4 examples/beaconing/CMakeFiles/beaconing_nrf52840_xxAA_s140_6.0.0.dir/__/__/mesh/prov/src/prov_utils.c.obj
                0x00031d44                prov_utils_derive_keys
 .text.prov_utils_calculate_shared_secret
                0x00031df8       0x38 examples/beaconing/CMakeFiles/beaconing_nrf52840_xxAA_s140_6.0.0.dir/__/__/mesh/prov/src/prov_utils.c.obj
                0x00031df8                prov_utils_calculate_shared_secret
 .text.prov_utils_generate_oob_data
                0x00031e30      0x1b8 examples/beaconing/CMakeFiles/beaconing_nrf52840_xxAA_s140_6.0.0.dir/__/__/mesh/prov/src/prov_utils.c.obj
                0x00031e30                prov_utils_generate_oob_data
 .text.prov_utils_confirmation_check
                0x00031fe8       0x5c examples/beaconing/CMakeFiles/beaconing_nrf52840_xxAA_s140_6.0.0.dir/__/__/mesh/prov/src/prov_utils.c.obj
                0x00031fe8                prov_utils_confirmation_check
 .text.link_timeout_cb
                0x00032044       0x10 examples/beaconing/CMakeFiles/beaconing_nrf52840_xxAA_s140_6.0.0.dir/__/__/mesh/prov/src/prov_bearer_adv.c.obj
 .text.prov_bearer_adv_listen_stop
                0x00032054       0x8c examples/beaconing/CMakeFiles/beaconing_nrf52840_xxAA_s140_6.0.0.dir/__/__/mesh/prov/src/prov_bearer_adv.c.obj
 .text.tx_complete_cb
                0x000320e0       0x20 examples/beaconing/CMakeFiles/beaconing_nrf52840_xxAA_s140_6.0.0.dir/__/__/mesh/prov/src/prov_bearer_adv.c.obj
 .text.prov_bearer_adv_listen
                0x00032100      0x160 examples/beaconing/CMakeFiles/beaconing_nrf52840_xxAA_s140_6.0.0.dir/__/__/mesh/prov/src/prov_bearer_adv.c.obj
 .text.prov_buffer_tx
                0x00032260      0x1d8 examples/beaconing/CMakeFiles/beaconing_nrf52840_xxAA_s140_6.0.0.dir/__/__/mesh/prov/src/prov_bearer_adv.c.obj
 .text.close_link
                0x00032438       0xc0 examples/beaconing/CMakeFiles/beaconing_nrf52840_xxAA_s140_6.0.0.dir/__/__/mesh/prov/src/prov_bearer_adv.c.obj
 .text.async_process
                0x000324f8       0x60 examples/beaconing/CMakeFiles/beaconing_nrf52840_xxAA_s140_6.0.0.dir/__/__/mesh/prov/src/prov_bearer_adv.c.obj
 .text.prov_bearer_adv_tx
                0x00032558       0xe4 examples/beaconing/CMakeFiles/beaconing_nrf52840_xxAA_s140_6.0.0.dir/__/__/mesh/prov/src/prov_bearer_adv.c.obj
 .text.send_link_ack
                0x0003263c       0x80 examples/beaconing/CMakeFiles/beaconing_nrf52840_xxAA_s140_6.0.0.dir/__/__/mesh/prov/src/prov_bearer_adv.c.obj
 .text.tx_retry_cb
                0x000326bc      0x13c examples/beaconing/CMakeFiles/beaconing_nrf52840_xxAA_s140_6.0.0.dir/__/__/mesh/prov/src/prov_bearer_adv.c.obj
 .text.send_transaction_ack
                0x000327f8       0x68 examples/beaconing/CMakeFiles/beaconing_nrf52840_xxAA_s140_6.0.0.dir/__/__/mesh/prov/src/prov_bearer_adv.c.obj
 .text.prov_buffer_rx
                0x00032860       0x9c examples/beaconing/CMakeFiles/beaconing_nrf52840_xxAA_s140_6.0.0.dir/__/__/mesh/prov/src/prov_bearer_adv.c.obj
 .text.prov_bearer_adv_link_open
                0x000328fc      0x1c0 examples/beaconing/CMakeFiles/beaconing_nrf52840_xxAA_s140_6.0.0.dir/__/__/mesh/prov/src/prov_bearer_adv.c.obj
 .text.prov_bearer_adv_link_close
                0x00032abc       0xd8 examples/beaconing/CMakeFiles/beaconing_nrf52840_xxAA_s140_6.0.0.dir/__/__/mesh/prov/src/prov_bearer_adv.c.obj
 .text.nrf_mesh_prov_bearer_adv_interface_get
                0x00032b94       0x40 examples/beaconing/CMakeFiles/beaconing_nrf52840_xxAA_s140_6.0.0.dir/__/__/mesh/prov/src/prov_bearer_adv.c.obj
                0x00032b94                nrf_mesh_prov_bearer_adv_interface_get
 .text.prov_bearer_adv_packet_in
                0x00032bd4      0x950 examples/beaconing/CMakeFiles/beaconing_nrf52840_xxAA_s140_6.0.0.dir/__/__/mesh/prov/src/prov_bearer_adv.c.obj
                0x00032bd4                prov_bearer_adv_packet_in
 .text.nrf_mesh_configure_device_uuid_set
                0x00033524       0x10 examples/beaconing/CMakeFiles/beaconing_nrf52840_xxAA_s140_6.0.0.dir/__/__/mesh/core/src/nrf_mesh_configure.c.obj
                0x00033524                nrf_mesh_configure_device_uuid_set
 .text.nrf_mesh_configure_device_uuid_reset
                0x00033534       0x2c examples/beaconing/CMakeFiles/beaconing_nrf52840_xxAA_s140_6.0.0.dir/__/__/mesh/core/src/nrf_mesh_configure.c.obj
                0x00033534                nrf_mesh_configure_device_uuid_reset
 .text.nrf_mesh_configure_device_uuid_get
                0x00033560        0x8 examples/beaconing/CMakeFiles/beaconing_nrf52840_xxAA_s140_6.0.0.dir/__/__/mesh/core/src/nrf_mesh_configure.c.obj
                0x00033560                nrf_mesh_configure_device_uuid_get
 .text.sd_ecb_block_encrypt
                0x00033568        0x4 examples/beaconing/CMakeFiles/beaconing_nrf52840_xxAA_s140_6.0.0.dir/__/__/mesh/core/src/aes.c.obj
 .text.aes_encrypt
                0x0003356c       0x34 examples/beaconing/CMakeFiles/beaconing_nrf52840_xxAA_s140_6.0.0.dir/__/__/mesh/core/src/aes.c.obj
                0x0003356c                aes_encrypt
 .text.msg_cache_init
                0x000335a0       0x24 examples/beaconing/CMakeFiles/beaconing_nrf52840_xxAA_s140_6.0.0.dir/__/__/mesh/core/src/msg_cache.c.obj
                0x000335a0                msg_cache_init
 .text.msg_cache_entry_exists
                0x000335c4       0x40 examples/beaconing/CMakeFiles/beaconing_nrf52840_xxAA_s140_6.0.0.dir/__/__/mesh/core/src/msg_cache.c.obj
                0x000335c4                msg_cache_entry_exists
 .text.msg_cache_entry_add
                0x00033604       0x30 examples/beaconing/CMakeFiles/beaconing_nrf52840_xxAA_s140_6.0.0.dir/__/__/mesh/core/src/msg_cache.c.obj
                0x00033604                msg_cache_entry_add
 .text.tx_complete
                0x00033634       0x30 examples/beaconing/CMakeFiles/beaconing_nrf52840_xxAA_s140_6.0.0.dir/__/__/mesh/core/src/transport.c.obj
 .text.upper_trs_packet_encrypt
                0x00033664       0xb4 examples/beaconing/CMakeFiles/beaconing_nrf52840_xxAA_s140_6.0.0.dir/__/__/mesh/core/src/transport.c.obj
 .text.trs_sar_packet_out
                0x00033718      0x1a4 examples/beaconing/CMakeFiles/beaconing_nrf52840_xxAA_s140_6.0.0.dir/__/__/mesh/core/src/transport.c.obj
 .text.upper_transport_tx.part.25
                0x000338bc      0x34c examples/beaconing/CMakeFiles/beaconing_nrf52840_xxAA_s140_6.0.0.dir/__/__/mesh/core/src/transport.c.obj
 .text.sar_ack_send.part.29
                0x00033c08       0xd4 examples/beaconing/CMakeFiles/beaconing_nrf52840_xxAA_s140_6.0.0.dir/__/__/mesh/core/src/transport.c.obj
 .text.ack_timeout
                0x00033cdc       0x34 examples/beaconing/CMakeFiles/beaconing_nrf52840_xxAA_s140_6.0.0.dir/__/__/mesh/core/src/transport.c.obj
 .text.upper_transport_access_packet_in
                0x00033d10      0x334 examples/beaconing/CMakeFiles/beaconing_nrf52840_xxAA_s140_6.0.0.dir/__/__/mesh/core/src/transport.c.obj
 .text.sar_ctx_cancel
                0x00034044      0x148 examples/beaconing/CMakeFiles/beaconing_nrf52840_xxAA_s140_6.0.0.dir/__/__/mesh/core/src/transport.c.obj
 .text.retry_timeout
                0x0003418c       0x98 examples/beaconing/CMakeFiles/beaconing_nrf52840_xxAA_s140_6.0.0.dir/__/__/mesh/core/src/transport.c.obj
 .text.transport_sar_process
                0x00034224      0x288 examples/beaconing/CMakeFiles/beaconing_nrf52840_xxAA_s140_6.0.0.dir/__/__/mesh/core/src/transport.c.obj
 .text.upper_transport_packet_in
                0x000344ac      0x2e4 examples/beaconing/CMakeFiles/beaconing_nrf52840_xxAA_s140_6.0.0.dir/__/__/mesh/core/src/transport.c.obj
 .text.abort_timeout
                0x00034790      0x13c examples/beaconing/CMakeFiles/beaconing_nrf52840_xxAA_s140_6.0.0.dir/__/__/mesh/core/src/transport.c.obj
 .text.transport_init
                0x000348cc       0xac examples/beaconing/CMakeFiles/beaconing_nrf52840_xxAA_s140_6.0.0.dir/__/__/mesh/core/src/transport.c.obj
                0x000348cc                transport_init
 .text.transport_packet_in
                0x00034978      0x770 examples/beaconing/CMakeFiles/beaconing_nrf52840_xxAA_s140_6.0.0.dir/__/__/mesh/core/src/transport.c.obj
                0x00034978                transport_packet_in
 .text.transport_tx
                0x000350e8      0x100 examples/beaconing/CMakeFiles/beaconing_nrf52840_xxAA_s140_6.0.0.dir/__/__/mesh/core/src/transport.c.obj
                0x000350e8                transport_tx
 .text.transport_control_tx
                0x000351e8       0xc0 examples/beaconing/CMakeFiles/beaconing_nrf52840_xxAA_s140_6.0.0.dir/__/__/mesh/core/src/transport.c.obj
                0x000351e8                transport_control_tx
 .text.transport_opt_set
                0x000352a8       0xdc examples/beaconing/CMakeFiles/beaconing_nrf52840_xxAA_s140_6.0.0.dir/__/__/mesh/core/src/transport.c.obj
                0x000352a8                transport_opt_set
 .text.transport_opt_get
                0x00035384       0x84 examples/beaconing/CMakeFiles/beaconing_nrf52840_xxAA_s140_6.0.0.dir/__/__/mesh/core/src/transport.c.obj
                0x00035384                transport_opt_get
 .text.transport_control_packet_consumer_add
                0x00035408       0x60 examples/beaconing/CMakeFiles/beaconing_nrf52840_xxAA_s140_6.0.0.dir/__/__/mesh/core/src/transport.c.obj
                0x00035408                transport_control_packet_consumer_add
 .text.event_handle
                0x00035468       0x28 examples/beaconing/CMakeFiles/beaconing_nrf52840_xxAA_s140_6.0.0.dir/__/__/mesh/core/src/event.c.obj
                0x00035468                event_handle
 .text.event_handler_add
                0x00035490       0x28 examples/beaconing/CMakeFiles/beaconing_nrf52840_xxAA_s140_6.0.0.dir/__/__/mesh/core/src/event.c.obj
                0x00035490                event_handler_add
 .text.event_handler_remove
                0x000354b8       0x28 examples/beaconing/CMakeFiles/beaconing_nrf52840_xxAA_s140_6.0.0.dir/__/__/mesh/core/src/event.c.obj
                0x000354b8                event_handler_remove
 .text.packet_buffer_init
                0x000354e0       0xb4 examples/beaconing/CMakeFiles/beaconing_nrf52840_xxAA_s140_6.0.0.dir/__/__/mesh/core/src/packet_buffer.c.obj
                0x000354e0                packet_buffer_init
 .text.packet_buffer_flush
                0x00035594       0x74 examples/beaconing/CMakeFiles/beaconing_nrf52840_xxAA_s140_6.0.0.dir/__/__/mesh/core/src/packet_buffer.c.obj
                0x00035594                packet_buffer_flush
 .text.packet_buffer_reserve
                0x00035608       0x9c examples/beaconing/CMakeFiles/beaconing_nrf52840_xxAA_s140_6.0.0.dir/__/__/mesh/core/src/packet_buffer.c.obj
                0x00035608                packet_buffer_reserve
 .text.packet_buffer_commit
                0x000356a4       0x7c examples/beaconing/CMakeFiles/beaconing_nrf52840_xxAA_s140_6.0.0.dir/__/__/mesh/core/src/packet_buffer.c.obj
                0x000356a4                packet_buffer_commit
 .text.packet_buffer_pop
                0x00035720       0x50 examples/beaconing/CMakeFiles/beaconing_nrf52840_xxAA_s140_6.0.0.dir/__/__/mesh/core/src/packet_buffer.c.obj
                0x00035720                packet_buffer_pop
 .text.packet_buffer_can_pop
                0x00035770       0x24 examples/beaconing/CMakeFiles/beaconing_nrf52840_xxAA_s140_6.0.0.dir/__/__/mesh/core/src/packet_buffer.c.obj
                0x00035770                packet_buffer_can_pop
 .text.packet_buffer_packets_ready_to_pop
                0x00035794       0x48 examples/beaconing/CMakeFiles/beaconing_nrf52840_xxAA_s140_6.0.0.dir/__/__/mesh/core/src/packet_buffer.c.obj
                0x00035794                packet_buffer_packets_ready_to_pop
 .text.packet_buffer_free
                0x000357dc       0x8c examples/beaconing/CMakeFiles/beaconing_nrf52840_xxAA_s140_6.0.0.dir/__/__/mesh/core/src/packet_buffer.c.obj
                0x000357dc                packet_buffer_free
 .text.erase_source
                0x00035868       0x34 examples/beaconing/CMakeFiles/beaconing_nrf52840_xxAA_s140_6.0.0.dir/__/__/mesh/core/src/flash_manager_defrag.c.obj
 .text.erase_recovery_area
                0x0003589c       0x34 examples/beaconing/CMakeFiles/beaconing_nrf52840_xxAA_s140_6.0.0.dir/__/__/mesh/core/src/flash_manager_defrag.c.obj
 .text.write_back
                0x000358d0       0x44 examples/beaconing/CMakeFiles/beaconing_nrf52840_xxAA_s140_6.0.0.dir/__/__/mesh/core/src/flash_manager_defrag.c.obj
 .text.write_defrag_start_pointer
                0x00035914       0x38 examples/beaconing/CMakeFiles/beaconing_nrf52840_xxAA_s140_6.0.0.dir/__/__/mesh/core/src/flash_manager_defrag.c.obj
 .text.copy_metadata
                0x0003594c       0x58 examples/beaconing/CMakeFiles/beaconing_nrf52840_xxAA_s140_6.0.0.dir/__/__/mesh/core/src/flash_manager_defrag.c.obj
 .text.seal_storage_page
                0x000359a4       0x70 examples/beaconing/CMakeFiles/beaconing_nrf52840_xxAA_s140_6.0.0.dir/__/__/mesh/core/src/flash_manager_defrag.c.obj
 .text.post_process
                0x00035a14       0x64 examples/beaconing/CMakeFiles/beaconing_nrf52840_xxAA_s140_6.0.0.dir/__/__/mesh/core/src/flash_manager_defrag.c.obj
 .text.check_for_invalid_entries
                0x00035a78       0x40 examples/beaconing/CMakeFiles/beaconing_nrf52840_xxAA_s140_6.0.0.dir/__/__/mesh/core/src/flash_manager_defrag.c.obj
 .text.execute_procedure_step
                0x00035ab8       0xa0 examples/beaconing/CMakeFiles/beaconing_nrf52840_xxAA_s140_6.0.0.dir/__/__/mesh/core/src/flash_manager_defrag.c.obj
 .text.on_flash_op_end
                0x00035b58       0x4c examples/beaconing/CMakeFiles/beaconing_nrf52840_xxAA_s140_6.0.0.dir/__/__/mesh/core/src/flash_manager_defrag.c.obj
 .text.invalidate_duplicate_entries
                0x00035ba4      0x158 examples/beaconing/CMakeFiles/beaconing_nrf52840_xxAA_s140_6.0.0.dir/__/__/mesh/core/src/flash_manager_defrag.c.obj
 .text.backup_entries
                0x00035cfc      0x1c4 examples/beaconing/CMakeFiles/beaconing_nrf52840_xxAA_s140_6.0.0.dir/__/__/mesh/core/src/flash_manager_defrag.c.obj
 .text.flash_manager_defrag_init
                0x00035ec0       0x6c examples/beaconing/CMakeFiles/beaconing_nrf52840_xxAA_s140_6.0.0.dir/__/__/mesh/core/src/flash_manager_defrag.c.obj
                0x00035ec0                flash_manager_defrag_init
 .text.flash_manager_defrag_is_running
                0x00035f2c       0x10 examples/beaconing/CMakeFiles/beaconing_nrf52840_xxAA_s140_6.0.0.dir/__/__/mesh/core/src/flash_manager_defrag.c.obj
                0x00035f2c                flash_manager_defrag_is_running
 .text.flash_manager_defrag
                0x00035f3c       0x48 examples/beaconing/CMakeFiles/beaconing_nrf52840_xxAA_s140_6.0.0.dir/__/__/mesh/core/src/flash_manager_defrag.c.obj
                0x00035f3c                flash_manager_defrag
 .text.flash_manager_defrag_recovery_page_get
                0x00035f84        0xc examples/beaconing/CMakeFiles/beaconing_nrf52840_xxAA_s140_6.0.0.dir/__/__/mesh/core/src/flash_manager_defrag.c.obj
                0x00035f84                flash_manager_defrag_recovery_page_get
 .text.fifo_init
                0x00035f90       0x38 examples/beaconing/CMakeFiles/beaconing_nrf52840_xxAA_s140_6.0.0.dir/__/__/mesh/core/src/fifo.c.obj
                0x00035f90                fifo_init
 .text.fifo_push
                0x00035fc8       0x54 examples/beaconing/CMakeFiles/beaconing_nrf52840_xxAA_s140_6.0.0.dir/__/__/mesh/core/src/fifo.c.obj
                0x00035fc8                fifo_push
 .text.fifo_pop
                0x0003601c       0x58 examples/beaconing/CMakeFiles/beaconing_nrf52840_xxAA_s140_6.0.0.dir/__/__/mesh/core/src/fifo.c.obj
                0x0003601c                fifo_pop
 .text.nrf_flash_erase
                0x00036074       0x5c examples/beaconing/CMakeFiles/beaconing_nrf52840_xxAA_s140_6.0.0.dir/__/__/mesh/core/src/nrf_flash.c.obj
                0x00036074                nrf_flash_erase
 .text.nrf_flash_write
                0x000360d0       0x6c examples/beaconing/CMakeFiles/beaconing_nrf52840_xxAA_s140_6.0.0.dir/__/__/mesh/core/src/nrf_flash.c.obj
                0x000360d0                nrf_flash_write
 .text.packet_mgr_init
                0x0003613c       0x4c examples/beaconing/CMakeFiles/beaconing_nrf52840_xxAA_s140_6.0.0.dir/__/__/mesh/core/src/packet_mgr.c.obj
                0x0003613c                packet_mgr_init
 .text.flash_store_iv_index
                0x00036188       0x38 examples/beaconing/CMakeFiles/beaconing_nrf52840_xxAA_s140_6.0.0.dir/__/__/mesh/core/src/net_state.c.obj
 .text.flash_mem_available
                0x000361c0       0x1c examples/beaconing/CMakeFiles/beaconing_nrf52840_xxAA_s140_6.0.0.dir/__/__/mesh/core/src/net_state.c.obj
 .text.init_flash_storage
                0x000361dc       0x44 examples/beaconing/CMakeFiles/beaconing_nrf52840_xxAA_s140_6.0.0.dir/__/__/mesh/core/src/net_state.c.obj
 .text.flash_write_complete
                0x00036220       0x68 examples/beaconing/CMakeFiles/beaconing_nrf52840_xxAA_s140_6.0.0.dir/__/__/mesh/core/src/net_state.c.obj
 .text.seqnum_block_allocate
                0x00036288       0x4c examples/beaconing/CMakeFiles/beaconing_nrf52840_xxAA_s140_6.0.0.dir/__/__/mesh/core/src/net_state.c.obj
 .text.net_state_reset
                0x000362d4       0x78 examples/beaconing/CMakeFiles/beaconing_nrf52840_xxAA_s140_6.0.0.dir/__/__/mesh/core/src/net_state.c.obj
                0x000362d4                net_state_reset
 .text.iv_update_trigger_if_pending
                0x0003634c      0x170 examples/beaconing/CMakeFiles/beaconing_nrf52840_xxAA_s140_6.0.0.dir/__/__/mesh/core/src/net_state.c.obj
 .text.mesh_evt_handler
                0x000364bc      0x108 examples/beaconing/CMakeFiles/beaconing_nrf52840_xxAA_s140_6.0.0.dir/__/__/mesh/core/src/net_state.c.obj
 .text.iv_update_timer_handler
                0x000365c4       0x70 examples/beaconing/CMakeFiles/beaconing_nrf52840_xxAA_s140_6.0.0.dir/__/__/mesh/core/src/net_state.c.obj
 .text.net_state_recover_from_flash
                0x00036634      0x118 examples/beaconing/CMakeFiles/beaconing_nrf52840_xxAA_s140_6.0.0.dir/__/__/mesh/core/src/net_state.c.obj
                0x00036634                net_state_recover_from_flash
 .text.net_state_flash_area_get
                0x0003674c        0xc examples/beaconing/CMakeFiles/beaconing_nrf52840_xxAA_s140_6.0.0.dir/__/__/mesh/core/src/net_state.c.obj
                0x0003674c                net_state_flash_area_get
 .text.net_state_init
                0x00036758       0x94 examples/beaconing/CMakeFiles/beaconing_nrf52840_xxAA_s140_6.0.0.dir/__/__/mesh/core/src/net_state.c.obj
                0x00036758                net_state_init
 .text.net_state_seqnum_alloc
                0x000367ec       0xd4 examples/beaconing/CMakeFiles/beaconing_nrf52840_xxAA_s140_6.0.0.dir/__/__/mesh/core/src/net_state.c.obj
                0x000367ec                net_state_seqnum_alloc
 .text.net_state_iv_index_lock
                0x000368c0      0x190 examples/beaconing/CMakeFiles/beaconing_nrf52840_xxAA_s140_6.0.0.dir/__/__/mesh/core/src/net_state.c.obj
                0x000368c0                net_state_iv_index_lock
 .text.net_state_key_refresh_phase_changed
                0x00036a50       0x20 examples/beaconing/CMakeFiles/beaconing_nrf52840_xxAA_s140_6.0.0.dir/__/__/mesh/core/src/net_state.c.obj
                0x00036a50                net_state_key_refresh_phase_changed
 .text.net_state_beacon_iv_index_get
                0x00036a70        0xc examples/beaconing/CMakeFiles/beaconing_nrf52840_xxAA_s140_6.0.0.dir/__/__/mesh/core/src/net_state.c.obj
                0x00036a70                net_state_beacon_iv_index_get
 .text.net_state_tx_iv_index_get
                0x00036a7c       0x14 examples/beaconing/CMakeFiles/beaconing_nrf52840_xxAA_s140_6.0.0.dir/__/__/mesh/core/src/net_state.c.obj
                0x00036a7c                net_state_tx_iv_index_get
 .text.net_state_rx_iv_index_get
                0x00036a90       0x18 examples/beaconing/CMakeFiles/beaconing_nrf52840_xxAA_s140_6.0.0.dir/__/__/mesh/core/src/net_state.c.obj
                0x00036a90                net_state_rx_iv_index_get
 .text.net_state_iv_update_get
                0x00036aa8        0xc examples/beaconing/CMakeFiles/beaconing_nrf52840_xxAA_s140_6.0.0.dir/__/__/mesh/core/src/net_state.c.obj
                0x00036aa8                net_state_iv_update_get
 .text.net_state_iv_index_set
                0x00036ab4       0x8c examples/beaconing/CMakeFiles/beaconing_nrf52840_xxAA_s140_6.0.0.dir/__/__/mesh/core/src/net_state.c.obj
                0x00036ab4                net_state_iv_index_set
 .text.send_end_events
                0x00036b40       0x90 examples/beaconing/CMakeFiles/beaconing_nrf52840_xxAA_s140_6.0.0.dir/__/__/mesh/core/src/mesh_flash.c.obj
 .text.flash_op_start
                0x00036bd0      0x224 examples/beaconing/CMakeFiles/beaconing_nrf52840_xxAA_s140_6.0.0.dir/__/__/mesh/core/src/mesh_flash.c.obj
 .text.mesh_flash_init
                0x00036df4       0x88 examples/beaconing/CMakeFiles/beaconing_nrf52840_xxAA_s140_6.0.0.dir/__/__/mesh/core/src/mesh_flash.c.obj
                0x00036df4                mesh_flash_init
 .text.mesh_flash_user_callback_set
                0x00036e7c       0x20 examples/beaconing/CMakeFiles/beaconing_nrf52840_xxAA_s140_6.0.0.dir/__/__/mesh/core/src/mesh_flash.c.obj
                0x00036e7c                mesh_flash_user_callback_set
 .text.mesh_flash_op_push
                0x00036e9c      0x1a0 examples/beaconing/CMakeFiles/beaconing_nrf52840_xxAA_s140_6.0.0.dir/__/__/mesh/core/src/mesh_flash.c.obj
                0x00036e9c                mesh_flash_op_push
 .text.nrf_mesh_address_type_get
                0x0003703c       0x10 examples/beaconing/CMakeFiles/beaconing_nrf52840_xxAA_s140_6.0.0.dir/__/__/mesh/core/src/nrf_mesh_utils.c.obj
                0x0003703c                nrf_mesh_address_type_get
 .text.sd_softdevice_is_enabled
                0x0003704c        0x4 examples/beaconing/CMakeFiles/beaconing_nrf52840_xxAA_s140_6.0.0.dir/__/__/mesh/core/src/nrf_mesh.c.obj
 .text.nrf_mesh_listen
                0x00037050      0x1c8 examples/beaconing/CMakeFiles/beaconing_nrf52840_xxAA_s140_6.0.0.dir/__/__/mesh/core/src/nrf_mesh.c.obj
 .text.flash_stable_cb
                0x00037218       0x20 examples/beaconing/CMakeFiles/beaconing_nrf52840_xxAA_s140_6.0.0.dir/__/__/mesh/core/src/nrf_mesh.c.obj
 .text.scanner_packet_process_cb
                0x00037238       0x88 examples/beaconing/CMakeFiles/beaconing_nrf52840_xxAA_s140_6.0.0.dir/__/__/mesh/core/src/nrf_mesh.c.obj
 .text.nrf_mesh_init
                0x000372c0       0xe0 examples/beaconing/CMakeFiles/beaconing_nrf52840_xxAA_s140_6.0.0.dir/__/__/mesh/core/src/nrf_mesh.c.obj
                0x000372c0                nrf_mesh_init
 .text.nrf_mesh_enable
                0x000373a0       0x48 examples/beaconing/CMakeFiles/beaconing_nrf52840_xxAA_s140_6.0.0.dir/__/__/mesh/core/src/nrf_mesh.c.obj
                0x000373a0                nrf_mesh_enable
 .text.nrf_mesh_packet_send
                0x000373e8       0x94 examples/beaconing/CMakeFiles/beaconing_nrf52840_xxAA_s140_6.0.0.dir/__/__/mesh/core/src/nrf_mesh.c.obj
                0x000373e8                nrf_mesh_packet_send
 .text.nrf_mesh_evt_handler_add
                0x0003747c        0x4 examples/beaconing/CMakeFiles/beaconing_nrf52840_xxAA_s140_6.0.0.dir/__/__/mesh/core/src/nrf_mesh.c.obj
                0x0003747c                nrf_mesh_evt_handler_add
 .text.nrf_mesh_on_sd_evt
                0x00037480        0xc examples/beaconing/CMakeFiles/beaconing_nrf52840_xxAA_s140_6.0.0.dir/__/__/mesh/core/src/nrf_mesh.c.obj
                0x00037480                nrf_mesh_on_sd_evt
 .text.nrf_mesh_rx_cb_set
                0x0003748c        0xc examples/beaconing/CMakeFiles/beaconing_nrf52840_xxAA_s140_6.0.0.dir/__/__/mesh/core/src/nrf_mesh.c.obj
                0x0003748c                nrf_mesh_rx_cb_set
 .text.nrf_mesh_subnet_added
                0x00037498        0x4 examples/beaconing/CMakeFiles/beaconing_nrf52840_xxAA_s140_6.0.0.dir/__/__/mesh/core/src/nrf_mesh.c.obj
                0x00037498                nrf_mesh_subnet_added
 .text.queue_init
                0x0003749c       0x1c examples/beaconing/CMakeFiles/beaconing_nrf52840_xxAA_s140_6.0.0.dir/__/__/mesh/core/src/queue.c.obj
                0x0003749c                queue_init
 .text.queue_push
                0x000374b8       0x44 examples/beaconing/CMakeFiles/beaconing_nrf52840_xxAA_s140_6.0.0.dir/__/__/mesh/core/src/queue.c.obj
                0x000374b8                queue_push
 .text.queue_pop
                0x000374fc       0x2c examples/beaconing/CMakeFiles/beaconing_nrf52840_xxAA_s140_6.0.0.dir/__/__/mesh/core/src/queue.c.obj
                0x000374fc                queue_pop
 .text.queue_peek
                0x00037528       0x14 examples/beaconing/CMakeFiles/beaconing_nrf52840_xxAA_s140_6.0.0.dir/__/__/mesh/core/src/queue.c.obj
                0x00037528                queue_peek
 .text.sd_power_reset_reason_clr
                0x0003753c        0x4 examples/beaconing/CMakeFiles/beaconing_nrf52840_xxAA_s140_6.0.0.dir/__/__/mesh/core/src/hal.c.obj
 .text.hal_device_reset
                0x00037540       0x2c examples/beaconing/CMakeFiles/beaconing_nrf52840_xxAA_s140_6.0.0.dir/__/__/mesh/core/src/hal.c.obj
                0x00037540                hal_device_reset
 .text.hal_lfclk_ppm_get
                0x0003756c       0x14 examples/beaconing/CMakeFiles/beaconing_nrf52840_xxAA_s140_6.0.0.dir/__/__/mesh/core/src/hal.c.obj
                0x0003756c                hal_lfclk_ppm_get
 .text.aes_cmac_subkey_generate
                0x00037580      0x2b0 examples/beaconing/CMakeFiles/beaconing_nrf52840_xxAA_s140_6.0.0.dir/__/__/mesh/core/src/aes_cmac.c.obj
                0x00037580                aes_cmac_subkey_generate
 .text.aes_cmac
                0x00037830      0x49c examples/beaconing/CMakeFiles/beaconing_nrf52840_xxAA_s140_6.0.0.dir/__/__/mesh/core/src/aes_cmac.c.obj
                0x00037830                aes_cmac
 .text.timer_cb
                0x00037ccc        0xc examples/beaconing/CMakeFiles/beaconing_nrf52840_xxAA_s140_6.0.0.dir/__/__/mesh/core/src/timer_scheduler.c.obj
 .text.add_evt.constprop.1
                0x00037cd8       0x60 examples/beaconing/CMakeFiles/beaconing_nrf52840_xxAA_s140_6.0.0.dir/__/__/mesh/core/src/timer_scheduler.c.obj
 .text.flag_event_cb
                0x00037d38      0x328 examples/beaconing/CMakeFiles/beaconing_nrf52840_xxAA_s140_6.0.0.dir/__/__/mesh/core/src/timer_scheduler.c.obj
 .text.timer_sch_init
                0x00038060       0x24 examples/beaconing/CMakeFiles/beaconing_nrf52840_xxAA_s140_6.0.0.dir/__/__/mesh/core/src/timer_scheduler.c.obj
                0x00038060                timer_sch_init
 .text.timer_sch_schedule
                0x00038084       0x64 examples/beaconing/CMakeFiles/beaconing_nrf52840_xxAA_s140_6.0.0.dir/__/__/mesh/core/src/timer_scheduler.c.obj
                0x00038084                timer_sch_schedule
 .text.timer_sch_abort
                0x000380e8       0x5c examples/beaconing/CMakeFiles/beaconing_nrf52840_xxAA_s140_6.0.0.dir/__/__/mesh/core/src/timer_scheduler.c.obj
                0x000380e8                timer_sch_abort
 .text.timer_sch_reschedule
                0x00038144       0x88 examples/beaconing/CMakeFiles/beaconing_nrf52840_xxAA_s140_6.0.0.dir/__/__/mesh/core/src/timer_scheduler.c.obj
                0x00038144                timer_sch_reschedule
 .text.timer_event_handler
                0x000381cc       0xd0 examples/beaconing/CMakeFiles/beaconing_nrf52840_xxAA_s140_6.0.0.dir/__/__/mesh/core/src/timer.c.obj
                0x000381cc                timer_event_handler
 .text.timer_order_cb
                0x0003829c       0x98 examples/beaconing/CMakeFiles/beaconing_nrf52840_xxAA_s140_6.0.0.dir/__/__/mesh/core/src/timer.c.obj
                0x0003829c                timer_order_cb
 .text.timer_now
                0x00038334       0x58 examples/beaconing/CMakeFiles/beaconing_nrf52840_xxAA_s140_6.0.0.dir/__/__/mesh/core/src/timer.c.obj
                0x00038334                timer_now
 .text.timer_on_ts_begin
                0x0003838c      0x104 examples/beaconing/CMakeFiles/beaconing_nrf52840_xxAA_s140_6.0.0.dir/__/__/mesh/core/src/timer.c.obj
                0x0003838c                timer_on_ts_begin
 .text.timer_on_ts_end
                0x00038490       0x78 examples/beaconing/CMakeFiles/beaconing_nrf52840_xxAA_s140_6.0.0.dir/__/__/mesh/core/src/timer.c.obj
                0x00038490                timer_on_ts_end
 .text.timer_cb
                0x00038508       0x10 examples/beaconing/CMakeFiles/beaconing_nrf52840_xxAA_s140_6.0.0.dir/__/__/mesh/core/src/ticker.c.obj
 .text.ticker_init
                0x00038518       0x3c examples/beaconing/CMakeFiles/beaconing_nrf52840_xxAA_s140_6.0.0.dir/__/__/mesh/core/src/ticker.c.obj
                0x00038518                ticker_init
 .text.sd_rand_application_bytes_available_get
                0x00038554        0x4 examples/beaconing/CMakeFiles/beaconing_nrf52840_xxAA_s140_6.0.0.dir/__/__/mesh/core/src/rand.c.obj
 .text.sd_rand_application_vector_get
                0x00038558        0x4 examples/beaconing/CMakeFiles/beaconing_nrf52840_xxAA_s140_6.0.0.dir/__/__/mesh/core/src/rand.c.obj
 .text.rand_prng_seed
                0x0003855c       0x6c examples/beaconing/CMakeFiles/beaconing_nrf52840_xxAA_s140_6.0.0.dir/__/__/mesh/core/src/rand.c.obj
                0x0003855c                rand_prng_seed
 .text.rand_prng_get
                0x000385c8       0x28 examples/beaconing/CMakeFiles/beaconing_nrf52840_xxAA_s140_6.0.0.dir/__/__/mesh/core/src/rand.c.obj
                0x000385c8                rand_prng_get
 .text.rand_hw_rng_get
                0x000385f0       0x4c examples/beaconing/CMakeFiles/beaconing_nrf52840_xxAA_s140_6.0.0.dir/__/__/mesh/core/src/rand.c.obj
                0x000385f0                rand_hw_rng_get
 .text.nrf_mesh_opt_set
                0x0003863c       0x28 examples/beaconing/CMakeFiles/beaconing_nrf52840_xxAA_s140_6.0.0.dir/__/__/mesh/core/src/nrf_mesh_opt.c.obj
                0x0003863c                nrf_mesh_opt_set
 .text.nrf_mesh_opt_get
                0x00038664       0x28 examples/beaconing/CMakeFiles/beaconing_nrf52840_xxAA_s140_6.0.0.dir/__/__/mesh/core/src/nrf_mesh_opt.c.obj
                0x00038664                nrf_mesh_opt_get
 .text.sd_radio_session_open
                0x0003868c        0x4 examples/beaconing/CMakeFiles/beaconing_nrf52840_xxAA_s140_6.0.0.dir/__/__/mesh/core/src/timeslot.c.obj
 .text.sd_radio_session_close
                0x00038690        0x4 examples/beaconing/CMakeFiles/beaconing_nrf52840_xxAA_s140_6.0.0.dir/__/__/mesh/core/src/timeslot.c.obj
 .text.sd_radio_request
                0x00038694        0x4 examples/beaconing/CMakeFiles/beaconing_nrf52840_xxAA_s140_6.0.0.dir/__/__/mesh/core/src/timeslot.c.obj
 .text.end_timer_handler
                0x00038698       0x2c examples/beaconing/CMakeFiles/beaconing_nrf52840_xxAA_s140_6.0.0.dir/__/__/mesh/core/src/timeslot.c.obj
 .text.radio_signal_callback
                0x000386c4      0x2e4 examples/beaconing/CMakeFiles/beaconing_nrf52840_xxAA_s140_6.0.0.dir/__/__/mesh/core/src/timeslot.c.obj
 .text.timeslot_sd_event_handler
                0x000389a8       0x44 examples/beaconing/CMakeFiles/beaconing_nrf52840_xxAA_s140_6.0.0.dir/__/__/mesh/core/src/timeslot.c.obj
                0x000389a8                timeslot_sd_event_handler
 .text.timeslot_init
                0x000389ec       0x4c examples/beaconing/CMakeFiles/beaconing_nrf52840_xxAA_s140_6.0.0.dir/__/__/mesh/core/src/timeslot.c.obj
                0x000389ec                timeslot_init
 .text.timeslot_start
                0x00038a38       0x20 examples/beaconing/CMakeFiles/beaconing_nrf52840_xxAA_s140_6.0.0.dir/__/__/mesh/core/src/timeslot.c.obj
                0x00038a38                timeslot_start
 .text.timeslot_stop
                0x00038a58       0x30 examples/beaconing/CMakeFiles/beaconing_nrf52840_xxAA_s140_6.0.0.dir/__/__/mesh/core/src/timeslot.c.obj
                0x00038a58                timeslot_stop
 .text.timeslot_state_lock
                0x00038a88       0x44 examples/beaconing/CMakeFiles/beaconing_nrf52840_xxAA_s140_6.0.0.dir/__/__/mesh/core/src/timeslot.c.obj
                0x00038a88                timeslot_state_lock
 .text.timeslot_end_is_pending
                0x00038acc       0x24 examples/beaconing/CMakeFiles/beaconing_nrf52840_xxAA_s140_6.0.0.dir/__/__/mesh/core/src/timeslot.c.obj
                0x00038acc                timeslot_end_is_pending
 .text.timeslot_start_time_get
                0x00038af0        0xc examples/beaconing/CMakeFiles/beaconing_nrf52840_xxAA_s140_6.0.0.dir/__/__/mesh/core/src/timeslot.c.obj
                0x00038af0                timeslot_start_time_get
 .text.timeslot_remaining_time_get
                0x00038afc       0x40 examples/beaconing/CMakeFiles/beaconing_nrf52840_xxAA_s140_6.0.0.dir/__/__/mesh/core/src/timeslot.c.obj
                0x00038afc                timeslot_remaining_time_get
 .text.timeslot_is_in_cb
                0x00038b3c        0xc examples/beaconing/CMakeFiles/beaconing_nrf52840_xxAA_s140_6.0.0.dir/__/__/mesh/core/src/timeslot.c.obj
                0x00038b3c                timeslot_is_in_cb
 .text.timeslot_trigger
                0x00038b48       0x24 examples/beaconing/CMakeFiles/beaconing_nrf52840_xxAA_s140_6.0.0.dir/__/__/mesh/core/src/timeslot.c.obj
                0x00038b48                timeslot_trigger
 .text.bearer_event_init
                0x00038b6c       0x4c examples/beaconing/CMakeFiles/beaconing_nrf52840_xxAA_s140_6.0.0.dir/__/__/mesh/core/src/bearer_event.c.obj
                0x00038b6c                bearer_event_init
 .text.bearer_event_timer_post
                0x00038bb8       0x50 examples/beaconing/CMakeFiles/beaconing_nrf52840_xxAA_s140_6.0.0.dir/__/__/mesh/core/src/bearer_event.c.obj
                0x00038bb8                bearer_event_timer_post
 .text.bearer_event_critical_section_begin
                0x00038c08       0x44 examples/beaconing/CMakeFiles/beaconing_nrf52840_xxAA_s140_6.0.0.dir/__/__/mesh/core/src/bearer_event.c.obj
                0x00038c08                bearer_event_critical_section_begin
 .text.bearer_event_critical_section_end
                0x00038c4c       0x40 examples/beaconing/CMakeFiles/beaconing_nrf52840_xxAA_s140_6.0.0.dir/__/__/mesh/core/src/bearer_event.c.obj
                0x00038c4c                bearer_event_critical_section_end
 .text.bearer_event_flag_add
                0x00038c8c       0x40 examples/beaconing/CMakeFiles/beaconing_nrf52840_xxAA_s140_6.0.0.dir/__/__/mesh/core/src/bearer_event.c.obj
                0x00038c8c                bearer_event_flag_add
 .text.bearer_event_flag_set
                0x00038ccc       0x5c examples/beaconing/CMakeFiles/beaconing_nrf52840_xxAA_s140_6.0.0.dir/__/__/mesh/core/src/bearer_event.c.obj
                0x00038ccc                bearer_event_flag_set
 .text.bearer_event_sequential_add
                0x00038d28       0x44 examples/beaconing/CMakeFiles/beaconing_nrf52840_xxAA_s140_6.0.0.dir/__/__/mesh/core/src/bearer_event.c.obj
                0x00038d28                bearer_event_sequential_add
 .text.bearer_event_sequential_post
                0x00038d6c       0x64 examples/beaconing/CMakeFiles/beaconing_nrf52840_xxAA_s140_6.0.0.dir/__/__/mesh/core/src/bearer_event.c.obj
                0x00038d6c                bearer_event_sequential_post
 .text.bearer_event_sequential_pending
                0x00038dd0       0x14 examples/beaconing/CMakeFiles/beaconing_nrf52840_xxAA_s140_6.0.0.dir/__/__/mesh/core/src/bearer_event.c.obj
                0x00038dd0                bearer_event_sequential_pending
 .text.bearer_event_handler
                0x00038de4      0x154 examples/beaconing/CMakeFiles/beaconing_nrf52840_xxAA_s140_6.0.0.dir/__/__/mesh/core/src/bearer_event.c.obj
                0x00038de4                bearer_event_handler
 .text.QDEC_IRQHandler
                0x00038f38        0x4 examples/beaconing/CMakeFiles/beaconing_nrf52840_xxAA_s140_6.0.0.dir/__/__/mesh/core/src/bearer_event.c.obj
                0x00038f38                QDEC_IRQHandler
 .text.enc_aes_encrypt
                0x00038f3c        0x4 examples/beaconing/CMakeFiles/beaconing_nrf52840_xxAA_s140_6.0.0.dir/__/__/mesh/core/src/enc.c.obj
                0x00038f3c                enc_aes_encrypt
 .text.enc_aes_cmac
                0x00038f40        0x4 examples/beaconing/CMakeFiles/beaconing_nrf52840_xxAA_s140_6.0.0.dir/__/__/mesh/core/src/enc.c.obj
                0x00038f40                enc_aes_cmac
 .text.enc_aes_ccm_encrypt
                0x00038f44        0x4 examples/beaconing/CMakeFiles/beaconing_nrf52840_xxAA_s140_6.0.0.dir/__/__/mesh/core/src/enc.c.obj
                0x00038f44                enc_aes_ccm_encrypt
 .text.enc_aes_ccm_decrypt
                0x00038f48        0x4 examples/beaconing/CMakeFiles/beaconing_nrf52840_xxAA_s140_6.0.0.dir/__/__/mesh/core/src/enc.c.obj
                0x00038f48                enc_aes_ccm_decrypt
 .text.enc_nonce_generate
                0x00038f4c       0xc8 examples/beaconing/CMakeFiles/beaconing_nrf52840_xxAA_s140_6.0.0.dir/__/__/mesh/core/src/enc.c.obj
                0x00038f4c                enc_nonce_generate
 .text.enc_s1   0x00039014       0x30 examples/beaconing/CMakeFiles/beaconing_nrf52840_xxAA_s140_6.0.0.dir/__/__/mesh/core/src/enc.c.obj
                0x00039014                enc_s1
 .text.enc_k1   0x00039044       0x44 examples/beaconing/CMakeFiles/beaconing_nrf52840_xxAA_s140_6.0.0.dir/__/__/mesh/core/src/enc.c.obj
                0x00039044                enc_k1
 .text.enc_k2   0x00039088       0xe0 examples/beaconing/CMakeFiles/beaconing_nrf52840_xxAA_s140_6.0.0.dir/__/__/mesh/core/src/enc.c.obj
                0x00039088                enc_k2
 .text.enc_k3   0x00039168       0x68 examples/beaconing/CMakeFiles/beaconing_nrf52840_xxAA_s140_6.0.0.dir/__/__/mesh/core/src/enc.c.obj
                0x00039168                enc_k3
 .text.enc_k4   0x000391d0       0x60 examples/beaconing/CMakeFiles/beaconing_nrf52840_xxAA_s140_6.0.0.dir/__/__/mesh/core/src/enc.c.obj
                0x000391d0                enc_k4
 .text.network_init
                0x00039230       0x28 examples/beaconing/CMakeFiles/beaconing_nrf52840_xxAA_s140_6.0.0.dir/__/__/mesh/core/src/network.c.obj
                0x00039230                network_init
 .text.network_opt_set
                0x00039258       0x84 examples/beaconing/CMakeFiles/beaconing_nrf52840_xxAA_s140_6.0.0.dir/__/__/mesh/core/src/network.c.obj
                0x00039258                network_opt_set
 .text.network_opt_get
                0x000392dc       0x5c examples/beaconing/CMakeFiles/beaconing_nrf52840_xxAA_s140_6.0.0.dir/__/__/mesh/core/src/network.c.obj
                0x000392dc                network_opt_get
 .text.network_packet_alloc
                0x00039338       0x98 examples/beaconing/CMakeFiles/beaconing_nrf52840_xxAA_s140_6.0.0.dir/__/__/mesh/core/src/network.c.obj
                0x00039338                network_packet_alloc
 .text.network_packet_send
                0x000393d0       0x50 examples/beaconing/CMakeFiles/beaconing_nrf52840_xxAA_s140_6.0.0.dir/__/__/mesh/core/src/network.c.obj
                0x000393d0                network_packet_send
 .text.network_packet_in
                0x00039420      0x1c4 examples/beaconing/CMakeFiles/beaconing_nrf52840_xxAA_s140_6.0.0.dir/__/__/mesh/core/src/network.c.obj
                0x00039420                network_packet_in
 .text.net_packet_decrypt
                0x000395e4      0x2dc examples/beaconing/CMakeFiles/beaconing_nrf52840_xxAA_s140_6.0.0.dir/__/__/mesh/core/src/net_packet.c.obj
                0x000395e4                net_packet_decrypt
 .text.net_packet_encrypt
                0x000398c0      0x100 examples/beaconing/CMakeFiles/beaconing_nrf52840_xxAA_s140_6.0.0.dir/__/__/mesh/core/src/net_packet.c.obj
                0x000398c0                net_packet_encrypt
 .text.net_packet_header_set
                0x000399c0       0xc0 examples/beaconing/CMakeFiles/beaconing_nrf52840_xxAA_s140_6.0.0.dir/__/__/mesh/core/src/net_packet.c.obj
                0x000399c0                net_packet_header_set
 .text.net_packet_payload_len_get
                0x00039a80       0x14 examples/beaconing/CMakeFiles/beaconing_nrf52840_xxAA_s140_6.0.0.dir/__/__/mesh/core/src/net_packet.c.obj
                0x00039a80                net_packet_payload_len_get
 .text.net_packet_from_payload
                0x00039a94        0x4 examples/beaconing/CMakeFiles/beaconing_nrf52840_xxAA_s140_6.0.0.dir/__/__/mesh/core/src/net_packet.c.obj
                0x00039a94                net_packet_from_payload
 .text.net_packet_obfuscation_start_get
                0x00039a98        0x4 examples/beaconing/CMakeFiles/beaconing_nrf52840_xxAA_s140_6.0.0.dir/__/__/mesh/core/src/net_packet.c.obj
                0x00039a98                net_packet_obfuscation_start_get
 .text.msq_init
                0x00039a9c       0x64 examples/beaconing/CMakeFiles/beaconing_nrf52840_xxAA_s140_6.0.0.dir/__/__/mesh/core/src/msqueue.c.obj
                0x00039a9c                msq_init
 .text.msq_get  0x00039b00       0x54 examples/beaconing/CMakeFiles/beaconing_nrf52840_xxAA_s140_6.0.0.dir/__/__/mesh/core/src/msqueue.c.obj
                0x00039b00                msq_get
 .text.msq_move
                0x00039b54       0x4c examples/beaconing/CMakeFiles/beaconing_nrf52840_xxAA_s140_6.0.0.dir/__/__/mesh/core/src/msqueue.c.obj
                0x00039b54                msq_move
 .text.msq_available
                0x00039ba0       0x44 examples/beaconing/CMakeFiles/beaconing_nrf52840_xxAA_s140_6.0.0.dir/__/__/mesh/core/src/msqueue.c.obj
                0x00039ba0                msq_available
 .text.nrf_mesh_keygen_aid
                0x00039be4       0x18 examples/beaconing/CMakeFiles/beaconing_nrf52840_xxAA_s140_6.0.0.dir/__/__/mesh/core/src/nrf_mesh_keygen.c.obj
                0x00039be4                nrf_mesh_keygen_aid
 .text.nrf_mesh_keygen_network_secmat
                0x00039bfc       0x24 examples/beaconing/CMakeFiles/beaconing_nrf52840_xxAA_s140_6.0.0.dir/__/__/mesh/core/src/nrf_mesh_keygen.c.obj
                0x00039bfc                nrf_mesh_keygen_network_secmat
 .text.nrf_mesh_keygen_beacon_secmat
                0x00039c20       0x50 examples/beaconing/CMakeFiles/beaconing_nrf52840_xxAA_s140_6.0.0.dir/__/__/mesh/core/src/nrf_mesh_keygen.c.obj
                0x00039c20                nrf_mesh_keygen_beacon_secmat
 .text.nrf_mesh_keygen_virtual_address
                0x00039c70       0x50 examples/beaconing/CMakeFiles/beaconing_nrf52840_xxAA_s140_6.0.0.dir/__/__/mesh/core/src/nrf_mesh_keygen.c.obj
                0x00039c70                nrf_mesh_keygen_virtual_address
 .text.list_add
                0x00039cc0       0x5c examples/beaconing/CMakeFiles/beaconing_nrf52840_xxAA_s140_6.0.0.dir/__/__/mesh/core/src/list.c.obj
                0x00039cc0                list_add
 .text.list_remove
                0x00039d1c       0x44 examples/beaconing/CMakeFiles/beaconing_nrf52840_xxAA_s140_6.0.0.dir/__/__/mesh/core/src/list.c.obj
                0x00039d1c                list_remove
 .text.list_compare_add
                0x00039d60       0x78 examples/beaconing/CMakeFiles/beaconing_nrf52840_xxAA_s140_6.0.0.dir/__/__/mesh/core/src/list.c.obj
                0x00039d60                list_compare_add
 .text.log_callback_rtt
                0x00039dd8       0x2c examples/beaconing/CMakeFiles/beaconing_nrf52840_xxAA_s140_6.0.0.dir/__/__/mesh/core/src/log.c.obj
                0x00039dd8                log_callback_rtt
 .text.log_init
                0x00039e04       0x20 examples/beaconing/CMakeFiles/beaconing_nrf52840_xxAA_s140_6.0.0.dir/__/__/mesh/core/src/log.c.obj
                0x00039e04                log_init
 .text.log_printf
                0x00039e24       0x20 examples/beaconing/CMakeFiles/beaconing_nrf52840_xxAA_s140_6.0.0.dir/__/__/mesh/core/src/log.c.obj
                0x00039e24                log_printf
 .text.process_action_queue
                0x00039e44      0x644 examples/beaconing/CMakeFiles/beaconing_nrf52840_xxAA_s140_6.0.0.dir/__/__/mesh/core/src/flash_manager.c.obj
 .text.flash_op_ended_callback
                0x0003a488       0x24 examples/beaconing/CMakeFiles/beaconing_nrf52840_xxAA_s140_6.0.0.dir/__/__/mesh/core/src/flash_manager.c.obj
 .text.flash_manager_init
                0x0003a4ac       0x68 examples/beaconing/CMakeFiles/beaconing_nrf52840_xxAA_s140_6.0.0.dir/__/__/mesh/core/src/flash_manager.c.obj
                0x0003a4ac                flash_manager_init
 .text.flash_manager_remove
                0x0003a514       0x6c examples/beaconing/CMakeFiles/beaconing_nrf52840_xxAA_s140_6.0.0.dir/__/__/mesh/core/src/flash_manager.c.obj
                0x0003a514                flash_manager_remove
 .text.flash_manager_entry_get
                0x0003a580       0x48 examples/beaconing/CMakeFiles/beaconing_nrf52840_xxAA_s140_6.0.0.dir/__/__/mesh/core/src/flash_manager.c.obj
                0x0003a580                flash_manager_entry_get
 .text.flash_manager_entry_next_get
                0x0003a5c8      0x148 examples/beaconing/CMakeFiles/beaconing_nrf52840_xxAA_s140_6.0.0.dir/__/__/mesh/core/src/flash_manager.c.obj
                0x0003a5c8                flash_manager_entry_next_get
 .text.flash_manager_entry_alloc
                0x0003a710       0x88 examples/beaconing/CMakeFiles/beaconing_nrf52840_xxAA_s140_6.0.0.dir/__/__/mesh/core/src/flash_manager.c.obj
                0x0003a710                flash_manager_entry_alloc
 .text.flash_manager_entry_commit
                0x0003a798       0x58 examples/beaconing/CMakeFiles/beaconing_nrf52840_xxAA_s140_6.0.0.dir/__/__/mesh/core/src/flash_manager.c.obj
                0x0003a798                flash_manager_entry_commit
 .text.flash_manager_entry_invalidate
                0x0003a7f0       0x98 examples/beaconing/CMakeFiles/beaconing_nrf52840_xxAA_s140_6.0.0.dir/__/__/mesh/core/src/flash_manager.c.obj
                0x0003a7f0                flash_manager_entry_invalidate
 .text.flash_manager_add
                0x0003a888      0x410 examples/beaconing/CMakeFiles/beaconing_nrf52840_xxAA_s140_6.0.0.dir/__/__/mesh/core/src/flash_manager.c.obj
                0x0003a888                flash_manager_add
 .text.flash_manager_mem_listener_register
                0x0003ac98       0x34 examples/beaconing/CMakeFiles/beaconing_nrf52840_xxAA_s140_6.0.0.dir/__/__/mesh/core/src/flash_manager.c.obj
                0x0003ac98                flash_manager_mem_listener_register
 .text.flash_manager_is_stable
                0x0003accc       0x20 examples/beaconing/CMakeFiles/beaconing_nrf52840_xxAA_s140_6.0.0.dir/__/__/mesh/core/src/flash_manager.c.obj
                0x0003accc                flash_manager_is_stable
 .text.flash_manager_on_defrag_end
                0x0003acec       0x58 examples/beaconing/CMakeFiles/beaconing_nrf52840_xxAA_s140_6.0.0.dir/__/__/mesh/core/src/flash_manager.c.obj
                0x0003acec                flash_manager_on_defrag_end
 .text.flash_manager_recovery_page_get
                0x0003ad44        0x4 examples/beaconing/CMakeFiles/beaconing_nrf52840_xxAA_s140_6.0.0.dir/__/__/mesh/core/src/flash_manager.c.obj
                0x0003ad44                flash_manager_recovery_page_get
 .text.flash_manager_action_queue_empty_cb_set
                0x0003ad48       0x20 examples/beaconing/CMakeFiles/beaconing_nrf52840_xxAA_s140_6.0.0.dir/__/__/mesh/core/src/flash_manager.c.obj
                0x0003ad48                flash_manager_action_queue_empty_cb_set
 .text.ccm_soft_crypt.constprop.0
                0x0003ad68      0x298 examples/beaconing/CMakeFiles/beaconing_nrf52840_xxAA_s140_6.0.0.dir/__/__/mesh/core/src/ccm_soft.c.obj
 .text.ccm_soft_authenticate
                0x0003b000      0x324 examples/beaconing/CMakeFiles/beaconing_nrf52840_xxAA_s140_6.0.0.dir/__/__/mesh/core/src/ccm_soft.c.obj
 .text.ccm_soft_encrypt
                0x0003b324       0x78 examples/beaconing/CMakeFiles/beaconing_nrf52840_xxAA_s140_6.0.0.dir/__/__/mesh/core/src/ccm_soft.c.obj
                0x0003b324                ccm_soft_encrypt
 .text.ccm_soft_decrypt
                0x0003b39c      0x10c examples/beaconing/CMakeFiles/beaconing_nrf52840_xxAA_s140_6.0.0.dir/__/__/mesh/core/src/ccm_soft.c.obj
                0x0003b39c                ccm_soft_decrypt
 .text.replay_cache_init
                0x0003b4a8       0x20 examples/beaconing/CMakeFiles/beaconing_nrf52840_xxAA_s140_6.0.0.dir/__/__/mesh/core/src/replay_cache.c.obj
                0x0003b4a8                replay_cache_init
 .text.replay_cache_add
                0x0003b4c8       0x5c examples/beaconing/CMakeFiles/beaconing_nrf52840_xxAA_s140_6.0.0.dir/__/__/mesh/core/src/replay_cache.c.obj
                0x0003b4c8                replay_cache_add
 .text.replay_cache_has_elem
                0x0003b524       0x40 examples/beaconing/CMakeFiles/beaconing_nrf52840_xxAA_s140_6.0.0.dir/__/__/mesh/core/src/replay_cache.c.obj
                0x0003b524                replay_cache_has_elem
 .text.beacon_create
                0x0003b564       0x50 examples/beaconing/CMakeFiles/beaconing_nrf52840_xxAA_s140_6.0.0.dir/__/__/mesh/core/src/beacon.c.obj
                0x0003b564                beacon_create
 .text.beacon_packet_in
                0x0003b5b4      0x174 examples/beaconing/CMakeFiles/beaconing_nrf52840_xxAA_s140_6.0.0.dir/__/__/mesh/core/src/beacon.c.obj
                0x0003b5b4                beacon_packet_in
 .text.entry_get
                0x0003b728       0x80 examples/beaconing/CMakeFiles/beaconing_nrf52840_xxAA_s140_6.0.0.dir/__/__/mesh/core/src/flash_manager_internal.c.obj
                0x0003b728                entry_get
 .text.core_tx_complete_cb_set
                0x0003b7a8        0xc examples/beaconing/CMakeFiles/beaconing_nrf52840_xxAA_s140_6.0.0.dir/__/__/mesh/core/src/core_tx.c.obj
                0x0003b7a8                core_tx_complete_cb_set
 .text.core_tx_packet_alloc
                0x0003b7b4       0xb4 examples/beaconing/CMakeFiles/beaconing_nrf52840_xxAA_s140_6.0.0.dir/__/__/mesh/core/src/core_tx.c.obj
                0x0003b7b4                core_tx_packet_alloc
 .text.core_tx_packet_send
                0x0003b868       0x58 examples/beaconing/CMakeFiles/beaconing_nrf52840_xxAA_s140_6.0.0.dir/__/__/mesh/core/src/core_tx.c.obj
                0x0003b868                core_tx_packet_send
 .text.core_tx_packet_discard
                0x0003b8c0       0x4c examples/beaconing/CMakeFiles/beaconing_nrf52840_xxAA_s140_6.0.0.dir/__/__/mesh/core/src/core_tx.c.obj
                0x0003b8c0                core_tx_packet_discard
 .text.core_tx_complete
                0x0003b90c       0x38 examples/beaconing/CMakeFiles/beaconing_nrf52840_xxAA_s140_6.0.0.dir/__/__/mesh/core/src/core_tx.c.obj
                0x0003b90c                core_tx_complete
 .text.core_tx_bearer_add
                0x0003b944       0x84 examples/beaconing/CMakeFiles/beaconing_nrf52840_xxAA_s140_6.0.0.dir/__/__/mesh/core/src/core_tx.c.obj
                0x0003b944                core_tx_bearer_add
 .text.heartbeat_subscription_timer_cb
                0x0003b9c8       0x1c examples/beaconing/CMakeFiles/beaconing_nrf52840_xxAA_s140_6.0.0.dir/__/__/mesh/core/src/heartbeat.c.obj
 .text.heartbeat_opcode_handle
                0x0003b9e4       0x8c examples/beaconing/CMakeFiles/beaconing_nrf52840_xxAA_s140_6.0.0.dir/__/__/mesh/core/src/heartbeat.c.obj
 .text.heartbeat_send
                0x0003ba70       0xbc examples/beaconing/CMakeFiles/beaconing_nrf52840_xxAA_s140_6.0.0.dir/__/__/mesh/core/src/heartbeat.c.obj
 .text.heartbeat_core_evt_cb
                0x0003bb2c       0x94 examples/beaconing/CMakeFiles/beaconing_nrf52840_xxAA_s140_6.0.0.dir/__/__/mesh/core/src/heartbeat.c.obj
 .text.heartbeat_publication_timer_cb
                0x0003bbc0       0xb0 examples/beaconing/CMakeFiles/beaconing_nrf52840_xxAA_s140_6.0.0.dir/__/__/mesh/core/src/heartbeat.c.obj
 .text.heartbeat_on_feature_change_trigger
                0x0003bc70       0x48 examples/beaconing/CMakeFiles/beaconing_nrf52840_xxAA_s140_6.0.0.dir/__/__/mesh/core/src/heartbeat.c.obj
                0x0003bc70                heartbeat_on_feature_change_trigger
 .text.heartbeat_init
                0x0003bcb8       0x7c examples/beaconing/CMakeFiles/beaconing_nrf52840_xxAA_s140_6.0.0.dir/__/__/mesh/core/src/heartbeat.c.obj
                0x0003bcb8                heartbeat_init
 .text.heartbeat_subscription_set
                0x0003bd34       0xa4 examples/beaconing/CMakeFiles/beaconing_nrf52840_xxAA_s140_6.0.0.dir/__/__/mesh/core/src/heartbeat.c.obj
                0x0003bd34                heartbeat_subscription_set
 .text.heartbeat_subscription_get
                0x0003bdd8        0x8 examples/beaconing/CMakeFiles/beaconing_nrf52840_xxAA_s140_6.0.0.dir/__/__/mesh/core/src/heartbeat.c.obj
                0x0003bdd8                heartbeat_subscription_get
 .text.heartbeat_config_server_cb_set
                0x0003bde0       0x38 examples/beaconing/CMakeFiles/beaconing_nrf52840_xxAA_s140_6.0.0.dir/__/__/mesh/core/src/heartbeat.c.obj
                0x0003bde0                heartbeat_config_server_cb_set
 .text.heartbeat_publication_state_updated
                0x0003be18       0x78 examples/beaconing/CMakeFiles/beaconing_nrf52840_xxAA_s140_6.0.0.dir/__/__/mesh/core/src/heartbeat.c.obj
                0x0003be18                heartbeat_publication_state_updated
 .text.beacon_tx
                0x0003be90      0x194 examples/beaconing/CMakeFiles/beaconing_nrf52840_xxAA_s140_6.0.0.dir/__/__/mesh/core/src/net_beacon.c.obj
 .text.tx_complete_cb
                0x0003c024       0x10 examples/beaconing/CMakeFiles/beaconing_nrf52840_xxAA_s140_6.0.0.dir/__/__/mesh/core/src/net_beacon.c.obj
 .text.beacon_tx_timeout
                0x0003c034        0x4 examples/beaconing/CMakeFiles/beaconing_nrf52840_xxAA_s140_6.0.0.dir/__/__/mesh/core/src/net_beacon.c.obj
 .text.net_beacon_init
                0x0003c038       0x94 examples/beaconing/CMakeFiles/beaconing_nrf52840_xxAA_s140_6.0.0.dir/__/__/mesh/core/src/net_beacon.c.obj
                0x0003c038                net_beacon_init
 .text.net_beacon_state_set
                0x0003c0cc       0x3c examples/beaconing/CMakeFiles/beaconing_nrf52840_xxAA_s140_6.0.0.dir/__/__/mesh/core/src/net_beacon.c.obj
                0x0003c0cc                net_beacon_state_set
 .text.net_beacon_state_get
                0x0003c108        0xc examples/beaconing/CMakeFiles/beaconing_nrf52840_xxAA_s140_6.0.0.dir/__/__/mesh/core/src/net_beacon.c.obj
                0x0003c108                net_beacon_state_get
 .text.net_beacon_packet_in
                0x0003c114      0x14c examples/beaconing/CMakeFiles/beaconing_nrf52840_xxAA_s140_6.0.0.dir/__/__/mesh/core/src/net_beacon.c.obj
                0x0003c114                net_beacon_packet_in
 .text.packet_discard
                0x0003c260       0x40 examples/beaconing/CMakeFiles/beaconing_nrf52840_xxAA_s140_6.0.0.dir/__/__/mesh/core/src/core_tx_adv.c.obj
 .text.packet_send
                0x0003c2a0       0x58 examples/beaconing/CMakeFiles/beaconing_nrf52840_xxAA_s140_6.0.0.dir/__/__/mesh/core/src/core_tx_adv.c.obj
 .text.packet_alloc
                0x0003c2f8       0x5c examples/beaconing/CMakeFiles/beaconing_nrf52840_xxAA_s140_6.0.0.dir/__/__/mesh/core/src/core_tx_adv.c.obj
 .text.adv_tx_complete_callback
                0x0003c354       0x28 examples/beaconing/CMakeFiles/beaconing_nrf52840_xxAA_s140_6.0.0.dir/__/__/mesh/core/src/core_tx_adv.c.obj
 .text.core_tx_adv_init
                0x0003c37c       0x60 examples/beaconing/CMakeFiles/beaconing_nrf52840_xxAA_s140_6.0.0.dir/__/__/mesh/core/src/core_tx_adv.c.obj
                0x0003c37c                core_tx_adv_init
 .text.core_tx_adv_count_set
                0x0003c3dc       0x28 examples/beaconing/CMakeFiles/beaconing_nrf52840_xxAA_s140_6.0.0.dir/__/__/mesh/core/src/core_tx_adv.c.obj
                0x0003c3dc                core_tx_adv_count_set
 .text.core_tx_adv_count_get
                0x0003c404       0x20 examples/beaconing/CMakeFiles/beaconing_nrf52840_xxAA_s140_6.0.0.dir/__/__/mesh/core/src/core_tx_adv.c.obj
                0x0003c404                core_tx_adv_count_get
 .text.core_tx_adv_interval_set
                0x0003c424       0x28 examples/beaconing/CMakeFiles/beaconing_nrf52840_xxAA_s140_6.0.0.dir/__/__/mesh/core/src/core_tx_adv.c.obj
                0x0003c424                core_tx_adv_interval_set
 .text.core_tx_adv_interval_get
                0x0003c44c       0x2c examples/beaconing/CMakeFiles/beaconing_nrf52840_xxAA_s140_6.0.0.dir/__/__/mesh/core/src/core_tx_adv.c.obj
                0x0003c44c                core_tx_adv_interval_get
 .text.ad_listener_subscribe
                0x0003c478       0x60 examples/beaconing/CMakeFiles/beaconing_nrf52840_xxAA_s140_6.0.0.dir/__/__/mesh/bearer/src/ad_listener.c.obj
                0x0003c478                ad_listener_subscribe
 .text.ad_listener_process
                0x0003c4d8       0x7c examples/beaconing/CMakeFiles/beaconing_nrf52840_xxAA_s140_6.0.0.dir/__/__/mesh/bearer/src/ad_listener.c.obj
                0x0003c4d8                ad_listener_process
 .text.adtype_filter_handle
                0x0003c554       0x98 examples/beaconing/CMakeFiles/beaconing_nrf52840_xxAA_s140_6.0.0.dir/__/__/mesh/bearer/src/ad_type_filter.c.obj
 .text.bearer_adtype_filtering_set
                0x0003c5ec       0x1c examples/beaconing/CMakeFiles/beaconing_nrf52840_xxAA_s140_6.0.0.dir/__/__/mesh/bearer/src/ad_type_filter.c.obj
                0x0003c5ec                bearer_adtype_filtering_set
 .text.bearer_adtype_add
                0x0003c608       0x24 examples/beaconing/CMakeFiles/beaconing_nrf52840_xxAA_s140_6.0.0.dir/__/__/mesh/bearer/src/ad_type_filter.c.obj
                0x0003c608                bearer_adtype_add
 .text.bearer_adtype_mode_set
                0x0003c62c       0x18 examples/beaconing/CMakeFiles/beaconing_nrf52840_xxAA_s140_6.0.0.dir/__/__/mesh/bearer/src/ad_type_filter.c.obj
                0x0003c62c                bearer_adtype_mode_set
 .text.tx_complete_event_callback
                0x0003c644       0x2c examples/beaconing/CMakeFiles/beaconing_nrf52840_xxAA_s140_6.0.0.dir/__/__/mesh/bearer/src/advertiser.c.obj
 .text.broadcast_complete_cb
                0x0003c670       0x48 examples/beaconing/CMakeFiles/beaconing_nrf52840_xxAA_s140_6.0.0.dir/__/__/mesh/bearer/src/advertiser.c.obj
 .text.timeout_event
                0x0003c6b8      0x120 examples/beaconing/CMakeFiles/beaconing_nrf52840_xxAA_s140_6.0.0.dir/__/__/mesh/bearer/src/advertiser.c.obj
 .text.advertiser_init
                0x0003c7d8        0xc examples/beaconing/CMakeFiles/beaconing_nrf52840_xxAA_s140_6.0.0.dir/__/__/mesh/bearer/src/advertiser.c.obj
                0x0003c7d8                advertiser_init
 .text.advertiser_instance_init
                0x0003c7e4       0xfc examples/beaconing/CMakeFiles/beaconing_nrf52840_xxAA_s140_6.0.0.dir/__/__/mesh/bearer/src/advertiser.c.obj
                0x0003c7e4                advertiser_instance_init
 .text.advertiser_enable
                0x0003c8e0       0x44 examples/beaconing/CMakeFiles/beaconing_nrf52840_xxAA_s140_6.0.0.dir/__/__/mesh/bearer/src/advertiser.c.obj
                0x0003c8e0                advertiser_enable
 .text.advertiser_packet_alloc
                0x0003c924       0x80 examples/beaconing/CMakeFiles/beaconing_nrf52840_xxAA_s140_6.0.0.dir/__/__/mesh/bearer/src/advertiser.c.obj
                0x0003c924                advertiser_packet_alloc
 .text.advertiser_packet_send
                0x0003c9a4       0x80 examples/beaconing/CMakeFiles/beaconing_nrf52840_xxAA_s140_6.0.0.dir/__/__/mesh/bearer/src/advertiser.c.obj
                0x0003c9a4                advertiser_packet_send
 .text.advertiser_packet_discard
                0x0003ca24       0x2c examples/beaconing/CMakeFiles/beaconing_nrf52840_xxAA_s140_6.0.0.dir/__/__/mesh/bearer/src/advertiser.c.obj
                0x0003ca24                advertiser_packet_discard
 .text.advertiser_interval_set
                0x0003ca50       0x70 examples/beaconing/CMakeFiles/beaconing_nrf52840_xxAA_s140_6.0.0.dir/__/__/mesh/bearer/src/advertiser.c.obj
                0x0003ca50                advertiser_interval_set
 .text.advertiser_flush
                0x0003cac0       0x20 examples/beaconing/CMakeFiles/beaconing_nrf52840_xxAA_s140_6.0.0.dir/__/__/mesh/bearer/src/advertiser.c.obj
                0x0003cac0                advertiser_flush
 .text.action_switch.part.2
                0x0003cae0       0xb4 examples/beaconing/CMakeFiles/beaconing_nrf52840_xxAA_s140_6.0.0.dir/__/__/mesh/bearer/src/bearer_handler.c.obj
 .text.bearer_handler_init
                0x0003cb94       0x2c examples/beaconing/CMakeFiles/beaconing_nrf52840_xxAA_s140_6.0.0.dir/__/__/mesh/bearer/src/bearer_handler.c.obj
                0x0003cb94                bearer_handler_init
 .text.bearer_handler_start
                0x0003cbc0       0x1c examples/beaconing/CMakeFiles/beaconing_nrf52840_xxAA_s140_6.0.0.dir/__/__/mesh/bearer/src/bearer_handler.c.obj
                0x0003cbc0                bearer_handler_start
 .text.bearer_handler_action_enqueue
                0x0003cbdc       0x7c examples/beaconing/CMakeFiles/beaconing_nrf52840_xxAA_s140_6.0.0.dir/__/__/mesh/bearer/src/bearer_handler.c.obj
                0x0003cbdc                bearer_handler_action_enqueue
 .text.bearer_handler_action_end
                0x0003cc58       0x68 examples/beaconing/CMakeFiles/beaconing_nrf52840_xxAA_s140_6.0.0.dir/__/__/mesh/bearer/src/bearer_handler.c.obj
                0x0003cc58                bearer_handler_action_end
 .text.bearer_handler_radio_irq_handler
                0x0003ccc0       0x54 examples/beaconing/CMakeFiles/beaconing_nrf52840_xxAA_s140_6.0.0.dir/__/__/mesh/bearer/src/bearer_handler.c.obj
                0x0003ccc0                bearer_handler_radio_irq_handler
 .text.bearer_handler_timer_irq_handler
                0x0003cd14       0x34 examples/beaconing/CMakeFiles/beaconing_nrf52840_xxAA_s140_6.0.0.dir/__/__/mesh/bearer/src/bearer_handler.c.obj
                0x0003cd14                bearer_handler_timer_irq_handler
 .text.bearer_handler_on_ts_begin
                0x0003cd48       0x3c examples/beaconing/CMakeFiles/beaconing_nrf52840_xxAA_s140_6.0.0.dir/__/__/mesh/bearer/src/bearer_handler.c.obj
                0x0003cd48                bearer_handler_on_ts_begin
 .text.bearer_handler_on_ts_end
                0x0003cd84       0x34 examples/beaconing/CMakeFiles/beaconing_nrf52840_xxAA_s140_6.0.0.dir/__/__/mesh/bearer/src/bearer_handler.c.obj
                0x0003cd84                bearer_handler_on_ts_end
 .text.radio_irq_handler
                0x0003cdb8       0x98 examples/beaconing/CMakeFiles/beaconing_nrf52840_xxAA_s140_6.0.0.dir/__/__/mesh/bearer/src/broadcast.c.obj
 .text.broadcast_start
                0x0003ce50       0x8c examples/beaconing/CMakeFiles/beaconing_nrf52840_xxAA_s140_6.0.0.dir/__/__/mesh/bearer/src/broadcast.c.obj
 .text.broadcast_send
                0x0003cedc       0x74 examples/beaconing/CMakeFiles/beaconing_nrf52840_xxAA_s140_6.0.0.dir/__/__/mesh/bearer/src/broadcast.c.obj
                0x0003cedc                broadcast_send
 .text.fen_filter_start
                0x0003cf50       0x38 examples/beaconing/CMakeFiles/beaconing_nrf52840_xxAA_s140_6.0.0.dir/__/__/mesh/bearer/src/filter_engine.c.obj
                0x0003cf50                fen_filter_start
 .text.fen_filter_stop
                0x0003cf88       0x2c examples/beaconing/CMakeFiles/beaconing_nrf52840_xxAA_s140_6.0.0.dir/__/__/mesh/bearer/src/filter_engine.c.obj
                0x0003cf88                fen_filter_stop
 .text.fen_filters_apply
                0x0003cfb4       0x38 examples/beaconing/CMakeFiles/beaconing_nrf52840_xxAA_s140_6.0.0.dir/__/__/mesh/bearer/src/filter_engine.c.obj
                0x0003cfb4                fen_filters_apply
 .text.radio_config_reset
                0x0003cfec       0x38 examples/beaconing/CMakeFiles/beaconing_nrf52840_xxAA_s140_6.0.0.dir/__/__/mesh/bearer/src/radio_config.c.obj
                0x0003cfec                radio_config_reset
 .text.radio_config_channel_set
                0x0003d024       0x28 examples/beaconing/CMakeFiles/beaconing_nrf52840_xxAA_s140_6.0.0.dir/__/__/mesh/bearer/src/radio_config.c.obj
                0x0003d024                radio_config_channel_set
 .text.radio_config_config
                0x0003d04c       0x90 examples/beaconing/CMakeFiles/beaconing_nrf52840_xxAA_s140_6.0.0.dir/__/__/mesh/bearer/src/radio_config.c.obj
                0x0003d04c                radio_config_config
 .text.radio_config_access_addr_set
                0x0003d0dc       0x54 examples/beaconing/CMakeFiles/beaconing_nrf52840_xxAA_s140_6.0.0.dir/__/__/mesh/bearer/src/radio_config.c.obj
                0x0003d0dc                radio_config_access_addr_set
 .text.scan_window_end
                0x0003d130       0x28 examples/beaconing/CMakeFiles/beaconing_nrf52840_xxAA_s140_6.0.0.dir/__/__/mesh/bearer/src/scanner.c.obj
 .text.scan_window_start
                0x0003d158       0x38 examples/beaconing/CMakeFiles/beaconing_nrf52840_xxAA_s140_6.0.0.dir/__/__/mesh/bearer/src/scanner.c.obj
 .text.radio_start
                0x0003d190      0x188 examples/beaconing/CMakeFiles/beaconing_nrf52840_xxAA_s140_6.0.0.dir/__/__/mesh/bearer/src/scanner.c.obj
 .text.scanner_radio_start
                0x0003d318      0x14c examples/beaconing/CMakeFiles/beaconing_nrf52840_xxAA_s140_6.0.0.dir/__/__/mesh/bearer/src/scanner.c.obj
                0x0003d318                scanner_radio_start
 .text.scanner_radio_stop
                0x0003d464       0x34 examples/beaconing/CMakeFiles/beaconing_nrf52840_xxAA_s140_6.0.0.dir/__/__/mesh/bearer/src/scanner.c.obj
                0x0003d464                scanner_radio_stop
 .text.scanner_radio_irq_handler
                0x0003d498      0x204 examples/beaconing/CMakeFiles/beaconing_nrf52840_xxAA_s140_6.0.0.dir/__/__/mesh/bearer/src/scanner.c.obj
                0x0003d498                scanner_radio_irq_handler
 .text.scanner_enable
                0x0003d69c       0x54 examples/beaconing/CMakeFiles/beaconing_nrf52840_xxAA_s140_6.0.0.dir/__/__/mesh/bearer/src/scanner.c.obj
                0x0003d69c                scanner_enable
 .text.scanner_rx
                0x0003d6f0       0x78 examples/beaconing/CMakeFiles/beaconing_nrf52840_xxAA_s140_6.0.0.dir/__/__/mesh/bearer/src/scanner.c.obj
                0x0003d6f0                scanner_rx
 .text.scanner_packet_release
                0x0003d768       0x40 examples/beaconing/CMakeFiles/beaconing_nrf52840_xxAA_s140_6.0.0.dir/__/__/mesh/bearer/src/scanner.c.obj
                0x0003d768                scanner_packet_release
 .text.scanner_rx_pending
                0x0003d7a8        0xc examples/beaconing/CMakeFiles/beaconing_nrf52840_xxAA_s140_6.0.0.dir/__/__/mesh/bearer/src/scanner.c.obj
                0x0003d7a8                scanner_rx_pending
 .text.scanner_config_reset
                0x0003d7b4       0xa8 examples/beaconing/CMakeFiles/beaconing_nrf52840_xxAA_s140_6.0.0.dir/__/__/mesh/bearer/src/scanner.c.obj
                0x0003d7b4                scanner_config_reset
 .text.scanner_init
                0x0003d85c       0x54 examples/beaconing/CMakeFiles/beaconing_nrf52840_xxAA_s140_6.0.0.dir/__/__/mesh/bearer/src/scanner.c.obj
                0x0003d85c                scanner_init
 .text.SystemInit
                0x0003d8b0      0x1c4 examples/beaconing/CMakeFiles/beaconing_nrf52840_xxAA_s140_6.0.0.dir/C_/ver/mod/nRF5_SDK_15.0.0_a53641a/modules/nrfx/mdk/system_nrf52840.c.obj
                0x0003d8b0                SystemInit
 .text          0x0003da74       0x3c examples/beaconing/CMakeFiles/beaconing_nrf52840_xxAA_s140_6.0.0.dir/C_/ver/mod/nRF5_SDK_15.0.0_a53641a/modules/nrfx/mdk/gcc_startup_nrf52840.S.obj
                0x0003da74                Reset_Handler
                0x0003da9c                NMI_Handler
                0x0003da9e                HardFault_Handler
                0x0003daa0                MemoryManagement_Handler
                0x0003daa2                BusFault_Handler
                0x0003daa4                UsageFault_Handler
                0x0003daa6                SVC_Handler
                0x0003daa8                DebugMon_Handler
                0x0003daaa                PendSV_Handler
                0x0003daac                SysTick_Handler
                0x0003daae                RADIO_IRQHandler
                0x0003daae                PDM_IRQHandler
                0x0003daae                TEMP_IRQHandler
                0x0003daae                TIMER3_IRQHandler
                0x0003daae                PWM3_IRQHandler
                0x0003daae                FPU_IRQHandler
                0x0003daae                RTC0_IRQHandler
                0x0003daae                SPIM0_SPIS0_TWIM0_TWIS0_SPI0_TWI0_IRQHandler
                0x0003daae                PWM1_IRQHandler
                0x0003daae                UARTE0_UART0_IRQHandler
                0x0003daae                POWER_CLOCK_IRQHandler
                0x0003daae                CRYPTOCELL_IRQHandler
                0x0003daae                I2S_IRQHandler
                0x0003daae                SWI4_EGU4_IRQHandler
                0x0003daae                USBD_IRQHandler
                0x0003daae                TIMER2_IRQHandler
                0x0003daae                UARTE1_IRQHandler
                0x0003daae                TIMER1_IRQHandler
                0x0003daae                SPIM3_IRQHandler
                0x0003daae                PWM2_IRQHandler
                0x0003daae                ECB_IRQHandler
                0x0003daae                SPIM1_SPIS1_TWIM1_TWIS1_SPI1_TWI1_IRQHandler
                0x0003daae                Default_Handler
                0x0003daae                SAADC_IRQHandler
                0x0003daae                CCM_AAR_IRQHandler
                0x0003daae                WDT_IRQHandler
                0x0003daae                TIMER4_IRQHandler
                0x0003daae                SWI5_EGU5_IRQHandler
                0x0003daae                RNG_IRQHandler
                0x0003daae                RTC2_IRQHandler
                0x0003daae                PWM0_IRQHandler
                0x0003daae                SWI3_EGU3_IRQHandler
                0x0003daae                RTC1_IRQHandler
                0x0003daae                SWI1_EGU1_IRQHandler
                0x0003daae                SPIM2_SPIS2_SPI2_IRQHandler
                0x0003daae                NFCT_IRQHandler
                0x0003daae                SWI0_EGU0_IRQHandler
                0x0003daae                MWU_IRQHandler
                0x0003daae                TIMER0_IRQHandler
                0x0003daae                QSPI_IRQHandler
                0x0003daae                COMP_LPCOMP_IRQHandler
 .text.app_error_handler_bare
                0x0003dab0       0x20 examples/beaconing/CMakeFiles/beaconing_nrf52840_xxAA_s140_6.0.0.dir/C_/ver/mod/nRF5_SDK_15.0.0_a53641a/components/libraries/util/app_error.c.obj
                0x0003dab0                app_error_handler_bare
 .text.app_error_handler
                0x0003dad0       0x1c examples/beaconing/CMakeFiles/beaconing_nrf52840_xxAA_s140_6.0.0.dir/C_/ver/mod/nRF5_SDK_15.0.0_a53641a/components/libraries/util/app_error_handler_gcc.c.obj
                0x0003dad0                app_error_handler
 .text.SEGGER_RTT_Write
                0x0003daec      0x1e4 external/rtt/librtt_nrf52840_xxAA.a(SEGGER_RTT.c.obj)
                0x0003daec                SEGGER_RTT_Write
 .text._PrintUnsigned
                0x0003dcd0      0x194 external/rtt/librtt_nrf52840_xxAA.a(SEGGER_RTT_printf.c.obj)
 .text.SEGGER_RTT_vprintf
                0x0003de64      0x464 external/rtt/librtt_nrf52840_xxAA.a(SEGGER_RTT_printf.c.obj)
                0x0003de64                SEGGER_RTT_vprintf
 .text.SEGGER_RTT_printf
                0x0003e2c8       0x20 external/rtt/librtt_nrf52840_xxAA.a(SEGGER_RTT_printf.c.obj)
                0x0003e2c8                SEGGER_RTT_printf
 .text.default_RNG
                0x0003e2e8        0xc external/micro-ecc/libuECC_nrf52840_xxAA.a(uECC.c.obj)
 .text.uECC_generate_random_int
                0x0003e2f4      0x170 external/micro-ecc/libuECC_nrf52840_xxAA.a(uECC.c.obj)
 .text.apply_z  0x0003e464      0x1a8 external/micro-ecc/libuECC_nrf52840_xxAA.a(uECC.c.obj)
 .text.uECC_vli_modAdd
                0x0003e60c       0xc8 external/micro-ecc/libuECC_nrf52840_xxAA.a(uECC.c.obj)
 .text.x_side_default
                0x0003e6d4      0x254 external/micro-ecc/libuECC_nrf52840_xxAA.a(uECC.c.obj)
 .text.vli_mmod_fast_secp256r1
                0x0003e928      0x520 external/micro-ecc/libuECC_nrf52840_xxAA.a(uECC.c.obj)
 .text.XYcZ_add
                0x0003ee48      0x6dc external/micro-ecc/libuECC_nrf52840_xxAA.a(uECC.c.obj)
 .text.XYcZ_addC
                0x0003f524      0xa94 external/micro-ecc/libuECC_nrf52840_xxAA.a(uECC.c.obj)
 .text.uECC_vli_modInv.part.4
                0x0003ffb8      0x6e8 external/micro-ecc/libuECC_nrf52840_xxAA.a(uECC.c.obj)
 .text.EccPoint_mult.constprop.5
                0x000406a0      0x470 external/micro-ecc/libuECC_nrf52840_xxAA.a(uECC.c.obj)
 .text.double_jacobian_default
                0x00040b10      0x7ec external/micro-ecc/libuECC_nrf52840_xxAA.a(uECC.c.obj)
 .text.uECC_secp256r1
                0x000412fc        0x8 external/micro-ecc/libuECC_nrf52840_xxAA.a(uECC.c.obj)
                0x000412fc                uECC_secp256r1
 .text.uECC_make_key
                0x00041304      0x23c external/micro-ecc/libuECC_nrf52840_xxAA.a(uECC.c.obj)
                0x00041304                uECC_make_key
 .text.uECC_shared_secret
                0x00041540      0x788 external/micro-ecc/libuECC_nrf52840_xxAA.a(uECC.c.obj)
                0x00041540                uECC_shared_secret
 .text.uECC_valid_point
                0x00041cc8      0x134 external/micro-ecc/libuECC_nrf52840_xxAA.a(uECC.c.obj)
                0x00041cc8                uECC_valid_point
 .text.uECC_valid_public_key
                0x00041dfc       0xe8 external/micro-ecc/libuECC_nrf52840_xxAA.a(uECC.c.obj)
                0x00041dfc                uECC_valid_public_key
 .text.exit     0x00041ee4       0x28 c:/mesh/arm_gcc/bin/../lib/gcc/arm-none-eabi/6.3.1/../../../../arm-none-eabi/lib/thumb/v7e-m/fpv4-sp/hard\libc_nano.a(lib_a-exit.o)
                0x00041ee4                exit
 .text.__libc_init_array
                0x00041f0c       0x48 c:/mesh/arm_gcc/bin/../lib/gcc/arm-none-eabi/6.3.1/../../../../arm-none-eabi/lib/thumb/v7e-m/fpv4-sp/hard\libc_nano.a(lib_a-init.o)
                0x00041f0c                __libc_init_array
 .text.malloc   0x00041f54       0x10 c:/mesh/arm_gcc/bin/../lib/gcc/arm-none-eabi/6.3.1/../../../../arm-none-eabi/lib/thumb/v7e-m/fpv4-sp/hard\libc_nano.a(lib_a-malloc.o)
                0x00041f54                malloc
 .text.free     0x00041f64       0x10 c:/mesh/arm_gcc/bin/../lib/gcc/arm-none-eabi/6.3.1/../../../../arm-none-eabi/lib/thumb/v7e-m/fpv4-sp/hard\libc_nano.a(lib_a-malloc.o)
                0x00041f64                free
 .text.memcmp   0x00041f74       0x1e c:/mesh/arm_gcc/bin/../lib/gcc/arm-none-eabi/6.3.1/../../../../arm-none-eabi/lib/thumb/v7e-m/fpv4-sp/hard\libc_nano.a(lib_a-memcmp.o)
                0x00041f74                memcmp
 .text.memcpy   0x00041f92       0x16 c:/mesh/arm_gcc/bin/../lib/gcc/arm-none-eabi/6.3.1/../../../../arm-none-eabi/lib/thumb/v7e-m/fpv4-sp/hard\libc_nano.a(lib_a-memcpy-stub.o)
                0x00041f92                memcpy
 .text.memset   0x00041fa8       0x10 c:/mesh/arm_gcc/bin/../lib/gcc/arm-none-eabi/6.3.1/../../../../arm-none-eabi/lib/thumb/v7e-m/fpv4-sp/hard\libc_nano.a(lib_a-memset.o)
                0x00041fa8                memset
 .text._free_r  0x00041fb8       0x9c c:/mesh/arm_gcc/bin/../lib/gcc/arm-none-eabi/6.3.1/../../../../arm-none-eabi/lib/thumb/v7e-m/fpv4-sp/hard\libc_nano.a(lib_a-nano-freer.o)
                0x00041fb8                _free_r
 .text._malloc_r
                0x00042054       0xbc c:/mesh/arm_gcc/bin/../lib/gcc/arm-none-eabi/6.3.1/../../../../arm-none-eabi/lib/thumb/v7e-m/fpv4-sp/hard\libc_nano.a(lib_a-nano-mallocr.o)
                0x00042054                _malloc_r
 .text._sbrk_r  0x00042110       0x20 c:/mesh/arm_gcc/bin/../lib/gcc/arm-none-eabi/6.3.1/../../../../arm-none-eabi/lib/thumb/v7e-m/fpv4-sp/hard\libc_nano.a(lib_a-sbrkr.o)
                0x00042110                _sbrk_r
 .text.sprintf  0x00042130       0x48 c:/mesh/arm_gcc/bin/../lib/gcc/arm-none-eabi/6.3.1/../../../../arm-none-eabi/lib/thumb/v7e-m/fpv4-sp/hard\libc_nano.a(lib_a-sprintf.o)
                0x00042130                siprintf
                0x00042130                sprintf
 .text.strcpy   0x00042178       0x10 c:/mesh/arm_gcc/bin/../lib/gcc/arm-none-eabi/6.3.1/../../../../arm-none-eabi/lib/thumb/v7e-m/fpv4-sp/hard\libc_nano.a(lib_a-strcpy.o)
                0x00042178                strcpy
 .text          0x00042188       0x10 c:/mesh/arm_gcc/bin/../lib/gcc/arm-none-eabi/6.3.1/../../../../arm-none-eabi/lib/thumb/v7e-m/fpv4-sp/hard\libc_nano.a(lib_a-strlen.o)
                0x00042188                strlen
 .text.strrchr  0x00042198       0x26 c:/mesh/arm_gcc/bin/../lib/gcc/arm-none-eabi/6.3.1/../../../../arm-none-eabi/lib/thumb/v7e-m/fpv4-sp/hard\libc_nano.a(lib_a-strrchr.o)
                0x00042198                strrchr
 .text.__malloc_lock
                0x000421be        0x2 c:/mesh/arm_gcc/bin/../lib/gcc/arm-none-eabi/6.3.1/../../../../arm-none-eabi/lib/thumb/v7e-m/fpv4-sp/hard\libc_nano.a(lib_a-mlock.o)
                0x000421be                __malloc_lock
 .text.__malloc_unlock
                0x000421c0        0x2 c:/mesh/arm_gcc/bin/../lib/gcc/arm-none-eabi/6.3.1/../../../../arm-none-eabi/lib/thumb/v7e-m/fpv4-sp/hard\libc_nano.a(lib_a-mlock.o)
                0x000421c0                __malloc_unlock
 .text.__ssputs_r
                0x000421c2       0xb6 c:/mesh/arm_gcc/bin/../lib/gcc/arm-none-eabi/6.3.1/../../../../arm-none-eabi/lib/thumb/v7e-m/fpv4-sp/hard\libc_nano.a(lib_a-nano-svfprintf.o)
                0x000421c2                __ssputs_r
 .text._svfprintf_r
                0x00042278      0x1e8 c:/mesh/arm_gcc/bin/../lib/gcc/arm-none-eabi/6.3.1/../../../../arm-none-eabi/lib/thumb/v7e-m/fpv4-sp/hard\libc_nano.a(lib_a-nano-svfprintf.o)
                0x00042278                _svfiprintf_r
                0x00042278                _svfprintf_r
 .text._printf_common
                0x00042460       0xec c:/mesh/arm_gcc/bin/../lib/gcc/arm-none-eabi/6.3.1/../../../../arm-none-eabi/lib/thumb/v7e-m/fpv4-sp/hard\libc_nano.a(lib_a-nano-vfprintf_i.o)
                0x00042460                _printf_common
 .text._printf_i
                0x0004254c      0x240 c:/mesh/arm_gcc/bin/../lib/gcc/arm-none-eabi/6.3.1/../../../../arm-none-eabi/lib/thumb/v7e-m/fpv4-sp/hard\libc_nano.a(lib_a-nano-vfprintf_i.o)
                0x0004254c                _printf_i
 .text.strchr   0x0004278c       0x1c c:/mesh/arm_gcc/bin/../lib/gcc/arm-none-eabi/6.3.1/../../../../arm-none-eabi/lib/thumb/v7e-m/fpv4-sp/hard\libc_nano.a(lib_a-strchr.o)
                0x0004278c                strchr
 *fill*         0x000427a8        0x8 
 .text          0x000427b0       0xa0 c:/mesh/arm_gcc/bin/../lib/gcc/arm-none-eabi/6.3.1/../../../../arm-none-eabi/lib/thumb/v7e-m/fpv4-sp/hard\libc_nano.a(lib_a-memchr.o)
                0x000427b0                memchr
 .text.memmove  0x00042850       0x34 c:/mesh/arm_gcc/bin/../lib/gcc/arm-none-eabi/6.3.1/../../../../arm-none-eabi/lib/thumb/v7e-m/fpv4-sp/hard\libc_nano.a(lib_a-memmove.o)
                0x00042850                memmove
 .text._realloc_r
                0x00042884       0x4c c:/mesh/arm_gcc/bin/../lib/gcc/arm-none-eabi/6.3.1/../../../../arm-none-eabi/lib/thumb/v7e-m/fpv4-sp/hard\libc_nano.a(lib_a-nano-reallocr.o)
                0x00042884                _realloc_r
 .text._malloc_usable_size_r
                0x000428d0       0x12 c:/mesh/arm_gcc/bin/../lib/gcc/arm-none-eabi/6.3.1/../../../../arm-none-eabi/lib/thumb/v7e-m/fpv4-sp/hard\libc_nano.a(lib_a-nano-msizer.o)
                0x000428d0                _malloc_usable_size_r
 *fill*         0x000428e2        0x2 
 .text._sbrk    0x000428e4       0x1c c:/mesh/arm_gcc/bin/../lib/gcc/arm-none-eabi/6.3.1/../../../../arm-none-eabi/lib/thumb/v7e-m/fpv4-sp/hard\libnosys.a(sbrk.o)
                0x000428e4                _sbrk
 .text._exit    0x00042900        0x4 c:/mesh/arm_gcc/bin/../lib/gcc/arm-none-eabi/6.3.1/../../../../arm-none-eabi/lib/thumb/v7e-m/fpv4-sp/hard\libnosys.a(_exit.o)
                0x00042900                _exit
 *(.init)
 .init          0x00042904        0x4 c:/mesh/arm_gcc/bin/../lib/gcc/arm-none-eabi/6.3.1/thumb/v7e-m/fpv4-sp/hard/crti.o
                0x00042904                _init
 .init          0x00042908        0x8 c:/mesh/arm_gcc/bin/../lib/gcc/arm-none-eabi/6.3.1/thumb/v7e-m/fpv4-sp/hard/crtn.o
 *(.fini)
 .fini          0x00042910        0x4 c:/mesh/arm_gcc/bin/../lib/gcc/arm-none-eabi/6.3.1/thumb/v7e-m/fpv4-sp/hard/crti.o
                0x00042910                _fini
 .fini          0x00042914        0x8 c:/mesh/arm_gcc/bin/../lib/gcc/arm-none-eabi/6.3.1/thumb/v7e-m/fpv4-sp/hard/crtn.o
 *crtbegin.o(.ctors)
 *crtbegin?.o(.ctors)
 *(EXCLUDE_FILE(*crtend.o *crtend?.o) .ctors)
 *(SORT(.ctors.*))
 *(.ctors)
 *crtbegin.o(.dtors)
 *crtbegin?.o(.dtors)
 *(EXCLUDE_FILE(*crtend.o *crtend?.o) .dtors)
 *(SORT(.dtors.*))
 *(.dtors)
 *(.rodata*)
 .rodata.adv_data.12401
                0x0004291c       0x12 examples/beaconing/CMakeFiles/beaconing_nrf52840_xxAA_s140_6.0.0.dir/src/main.c.obj
 *fill*         0x0004292e        0x2 
 .rodata.config_server_evt_cb.str1.4
                0x00042930       0x19 examples/beaconing/CMakeFiles/beaconing_nrf52840_xxAA_s140_6.0.0.dir/src/main.c.obj
 *fill*         0x00042949        0x3 
 .rodata.main.str1.4
                0x0004294c       0x70 examples/beaconing/CMakeFiles/beaconing_nrf52840_xxAA_s140_6.0.0.dir/src/main.c.obj
 .rodata.provisioning_complete_cb.str1.4
                0x000429bc       0x57 examples/beaconing/CMakeFiles/beaconing_nrf52840_xxAA_s140_6.0.0.dir/src/main.c.obj
 *fill*         0x00042a13        0x1 
 .rodata.rx_cb.str1.4
                0x00042a14       0x50 examples/beaconing/CMakeFiles/beaconing_nrf52840_xxAA_s140_6.0.0.dir/src/main.c.obj
 .rodata.static_auth_data.12427
                0x00042a64       0x10 examples/beaconing/CMakeFiles/beaconing_nrf52840_xxAA_s140_6.0.0.dir/src/main.c.obj
 .rodata.mesh_softdevice_init.str1.4
                0x00042a74       0xa9 examples/beaconing/CMakeFiles/beaconing_nrf52840_xxAA_s140_6.0.0.dir/__/common/src/mesh_softdevice_init.c.obj
 *fill*         0x00042b1d        0x3 
 .rodata        0x00042b20        0xb examples/beaconing/CMakeFiles/beaconing_nrf52840_xxAA_s140_6.0.0.dir/__/common/src/mesh_provisionee.c.obj
 *fill*         0x00042b2b        0x5 
 .rodata.delay_bytecode.8707
                0x00042b30        0x6 examples/beaconing/CMakeFiles/beaconing_nrf52840_xxAA_s140_6.0.0.dir/__/common/src/simple_hal.c.obj
 *fill*         0x00042b36        0x2 
 .rodata.access_model_publish.str1.4
                0x00042b38       0x1c examples/beaconing/CMakeFiles/beaconing_nrf52840_xxAA_s140_6.0.0.dir/__/__/mesh/access/src/access.c.obj
                                 0x24 (size before relaxing)
 .rodata.mesh_evt_cb.str1.4
                0x00042b54       0x2f examples/beaconing/CMakeFiles/beaconing_nrf52840_xxAA_s140_6.0.0.dir/__/__/mesh/access/src/access.c.obj
 *fill*         0x00042b83        0x1 
 .rodata.multiply_de_bruijn_bit_position.9553
                0x00042b84       0x20 examples/beaconing/CMakeFiles/beaconing_nrf52840_xxAA_s140_6.0.0.dir/__/__/mesh/access/src/access.c.obj
 .rodata.m_flash_groups
                0x00042ba4       0xa8 examples/beaconing/CMakeFiles/beaconing_nrf52840_xxAA_s140_6.0.0.dir/__/__/mesh/access/src/device_state_manager.c.obj
 .rodata.multiply_de_bruijn_bit_position.9659
                0x00042c4c       0x20 examples/beaconing/CMakeFiles/beaconing_nrf52840_xxAA_s140_6.0.0.dir/__/__/mesh/access/src/device_state_manager.c.obj
 .rodata.app_error_fault_handler.str1.4
                0x00042c6c       0xc5 examples/beaconing/CMakeFiles/beaconing_nrf52840_xxAA_s140_6.0.0.dir/__/common/src/app_error_weak.c.obj
 .rodata.mesh_assertion_handler.str1.4
                0x00042d31       0xc5 examples/beaconing/CMakeFiles/beaconing_nrf52840_xxAA_s140_6.0.0.dir/__/common/src/assertion_handler_weak.c.obj
                                  0x1 (size before relaxing)
 *fill*         0x00042d31        0x3 
 .rodata        0x00042d34        0x8 examples/beaconing/CMakeFiles/beaconing_nrf52840_xxAA_s140_6.0.0.dir/__/__/models/config/src/config_server.c.obj
 .rodata.CSWTCH.122
                0x00042d3c       0x10 examples/beaconing/CMakeFiles/beaconing_nrf52840_xxAA_s140_6.0.0.dir/__/__/models/config/src/config_server.c.obj
 .rodata.opcode_handlers
                0x00042d4c      0x170 examples/beaconing/CMakeFiles/beaconing_nrf52840_xxAA_s140_6.0.0.dir/__/__/models/config/src/config_server.c.obj
 .rodata.m_opcode_handlers
                0x00042ebc       0x58 examples/beaconing/CMakeFiles/beaconing_nrf52840_xxAA_s140_6.0.0.dir/__/__/models/health/src/health_server.c.obj
 .rodata.multiply_de_bruijn_bit_position.9597
                0x00042f14       0x20 examples/beaconing/CMakeFiles/beaconing_nrf52840_xxAA_s140_6.0.0.dir/__/__/models/health/src/health_server.c.obj
 .rodata.m_prov_callbacks
                0x00042f34       0x10 examples/beaconing/CMakeFiles/beaconing_nrf52840_xxAA_s140_6.0.0.dir/__/__/mesh/prov/src/prov_provisionee.c.obj
 .rodata.prov_provisionee_cb_ack_received.str1.4
                0x00042f44       0x53 examples/beaconing/CMakeFiles/beaconing_nrf52840_xxAA_s140_6.0.0.dir/__/__/mesh/prov/src/prov_provisionee.c.obj
 *fill*         0x00042f97        0x1 
 .rodata.multiply_de_bruijn_bit_position.9606
                0x00042f98       0x20 examples/beaconing/CMakeFiles/beaconing_nrf52840_xxAA_s140_6.0.0.dir/__/__/mesh/prov/src/nrf_mesh_prov.c.obj
 .rodata.pdu_sizes.11531
                0x00042fb8        0xa examples/beaconing/CMakeFiles/beaconing_nrf52840_xxAA_s140_6.0.0.dir/__/__/mesh/prov/src/provisioning.c.obj
 *fill*         0x00042fc2        0x2 
 .rodata.alphanumeric.11636
                0x00042fc4       0x25 examples/beaconing/CMakeFiles/beaconing_nrf52840_xxAA_s140_6.0.0.dir/__/__/mesh/prov/src/prov_utils.c.obj
 *fill*         0x00042fe9        0x3 
 .rodata.numeric_max.11630
                0x00042fec       0x24 examples/beaconing/CMakeFiles/beaconing_nrf52840_xxAA_s140_6.0.0.dir/__/__/mesh/prov/src/prov_utils.c.obj
 .rodata.prov_utils_authentication_values_derive.str1.4
                0x00043010        0x5 examples/beaconing/CMakeFiles/beaconing_nrf52840_xxAA_s140_6.0.0.dir/__/__/mesh/prov/src/prov_utils.c.obj
 *fill*         0x00043015        0x3 
 .rodata.prov_utils_derive_keys.str1.4
                0x00043018       0x15 examples/beaconing/CMakeFiles/beaconing_nrf52840_xxAA_s140_6.0.0.dir/__/__/mesh/prov/src/prov_utils.c.obj
 *fill*         0x0004302d        0x3 
 .rodata.crctable.11265
                0x00043030      0x100 examples/beaconing/CMakeFiles/beaconing_nrf52840_xxAA_s140_6.0.0.dir/__/__/mesh/prov/src/prov_bearer_adv.c.obj
 .rodata.interface.11495
                0x00043130       0x14 examples/beaconing/CMakeFiles/beaconing_nrf52840_xxAA_s140_6.0.0.dir/__/__/mesh/prov/src/prov_bearer_adv.c.obj
 .rodata.prov_bearer_adv_listen.str1.4
                0x00043144       0x50 examples/beaconing/CMakeFiles/beaconing_nrf52840_xxAA_s140_6.0.0.dir/__/__/mesh/prov/src/prov_bearer_adv.c.obj
 .rodata.prov_bearer_adv_packet_in.str1.4
                0x00043194      0x283 examples/beaconing/CMakeFiles/beaconing_nrf52840_xxAA_s140_6.0.0.dir/__/__/mesh/prov/src/prov_bearer_adv.c.obj
 *fill*         0x00043417        0x1 
 .rodata.tx_retry_cb.str1.4
                0x00043418       0x14 examples/beaconing/CMakeFiles/beaconing_nrf52840_xxAA_s140_6.0.0.dir/__/__/mesh/prov/src/prov_bearer_adv.c.obj
 .rodata.sar_ctx_cancel.str1.4
                0x0004342c       0x23 examples/beaconing/CMakeFiles/beaconing_nrf52840_xxAA_s140_6.0.0.dir/__/__/mesh/core/src/transport.c.obj
 *fill*         0x0004344f        0x1 
 .rodata.transport_packet_in.str1.4
                0x00043450       0x24 examples/beaconing/CMakeFiles/beaconing_nrf52840_xxAA_s140_6.0.0.dir/__/__/mesh/core/src/transport.c.obj
 .rodata.upper_transport_access_packet_in.str1.4
                0x00043474       0x3d examples/beaconing/CMakeFiles/beaconing_nrf52840_xxAA_s140_6.0.0.dir/__/__/mesh/core/src/transport.c.obj
 *fill*         0x000434b1        0x3 
 .rodata.upper_transport_packet_in.str1.4
                0x000434b4       0x2e examples/beaconing/CMakeFiles/beaconing_nrf52840_xxAA_s140_6.0.0.dir/__/__/mesh/core/src/transport.c.obj
 *fill*         0x000434e2        0x2 
 .rodata.upper_transport_tx.part.25.str1.4
                0x000434e4       0x2e examples/beaconing/CMakeFiles/beaconing_nrf52840_xxAA_s140_6.0.0.dir/__/__/mesh/core/src/transport.c.obj
                                 0x38 (size before relaxing)
 *fill*         0x00043512        0x2 
 .rodata.m_procedure_steps
                0x00043514       0x28 examples/beaconing/CMakeFiles/beaconing_nrf52840_xxAA_s140_6.0.0.dir/__/__/mesh/core/src/flash_manager_defrag.c.obj
 .rodata.m_all_operations
                0x0004353c       0x10 examples/beaconing/CMakeFiles/beaconing_nrf52840_xxAA_s140_6.0.0.dir/__/__/mesh/core/src/mesh_flash.c.obj
 .rodata.types_lookup.9352
                0x0004354c        0x4 examples/beaconing/CMakeFiles/beaconing_nrf52840_xxAA_s140_6.0.0.dir/__/__/mesh/core/src/nrf_mesh_utils.c.obj
 .rodata.__func__.11824
                0x00043550       0x15 examples/beaconing/CMakeFiles/beaconing_nrf52840_xxAA_s140_6.0.0.dir/__/__/mesh/core/src/nrf_mesh.c.obj
 *fill*         0x00043565        0x3 
 .rodata.nrf_mesh_listen.str1.4
                0x00043568       0x73 examples/beaconing/CMakeFiles/beaconing_nrf52840_xxAA_s140_6.0.0.dir/__/__/mesh/core/src/nrf_mesh.c.obj
 .rodata.nrf_mesh_packet_send.str1.4
                0x000435db       0x73 examples/beaconing/CMakeFiles/beaconing_nrf52840_xxAA_s140_6.0.0.dir/__/__/mesh/core/src/nrf_mesh.c.obj
                                  0x4 (size before relaxing)
 *fill*         0x000435db        0x1 
 .rodata.CSWTCH.7
                0x000435dc       0x20 examples/beaconing/CMakeFiles/beaconing_nrf52840_xxAA_s140_6.0.0.dir/__/__/mesh/core/src/hal.c.obj
 .rodata        0x000435fc       0x18 examples/beaconing/CMakeFiles/beaconing_nrf52840_xxAA_s140_6.0.0.dir/__/__/mesh/core/src/enc.c.obj
 .rodata.network_packet_in.str1.4
                0x00043614       0x49 examples/beaconing/CMakeFiles/beaconing_nrf52840_xxAA_s140_6.0.0.dir/__/__/mesh/core/src/network.c.obj
 *fill*         0x0004365d        0x3 
 .rodata.net_packet_decrypt.str1.4
                0x00043660       0x33 examples/beaconing/CMakeFiles/beaconing_nrf52840_xxAA_s140_6.0.0.dir/__/__/mesh/core/src/net_packet.c.obj
                                 0x3c (size before relaxing)
 *fill*         0x00043693        0x1 
 .rodata        0x00043694        0x7 examples/beaconing/CMakeFiles/beaconing_nrf52840_xxAA_s140_6.0.0.dir/__/__/mesh/core/src/nrf_mesh_keygen.c.obj
 *fill*         0x0004369b        0x1 
 .rodata.log_callback_rtt.str1.4
                0x0004369c       0x15 examples/beaconing/CMakeFiles/beaconing_nrf52840_xxAA_s140_6.0.0.dir/__/__/mesh/core/src/log.c.obj
 *fill*         0x000436b1        0x3 
 .rodata.str1.4
                0x000436b4       0x11 examples/beaconing/CMakeFiles/beaconing_nrf52840_xxAA_s140_6.0.0.dir/__/__/mesh/core/src/log.c.obj
 *fill*         0x000436c5        0x3 
 .rodata.INVALID_HEADER
                0x000436c8        0x4 examples/beaconing/CMakeFiles/beaconing_nrf52840_xxAA_s140_6.0.0.dir/__/__/mesh/core/src/flash_manager.c.obj
                0x000436c8                INVALID_HEADER
 .rodata.PADDING_HEADER
                0x000436cc        0x4 examples/beaconing/CMakeFiles/beaconing_nrf52840_xxAA_s140_6.0.0.dir/__/__/mesh/core/src/flash_manager.c.obj
                0x000436cc                PADDING_HEADER
 .rodata.SEAL_HEADER
                0x000436d0        0x4 examples/beaconing/CMakeFiles/beaconing_nrf52840_xxAA_s140_6.0.0.dir/__/__/mesh/core/src/flash_manager.c.obj
                0x000436d0                SEAL_HEADER
 .rodata.beacon_packet_in.str1.4
                0x000436d4       0x55 examples/beaconing/CMakeFiles/beaconing_nrf52840_xxAA_s140_6.0.0.dir/__/__/mesh/core/src/beacon.c.obj
                                 0x60 (size before relaxing)
 *fill*         0x00043729        0x3 
 .rodata.cp_handler
                0x0004372c        0x8 examples/beaconing/CMakeFiles/beaconing_nrf52840_xxAA_s140_6.0.0.dir/__/__/mesh/core/src/heartbeat.c.obj
 .rodata.beacon_tx.str1.4
                0x00043734       0x37 examples/beaconing/CMakeFiles/beaconing_nrf52840_xxAA_s140_6.0.0.dir/__/__/mesh/core/src/net_beacon.c.obj
 *fill*         0x0004376b        0x1 
 .rodata.net_beacon_init.str1.4
                0x0004376c        0x5 examples/beaconing/CMakeFiles/beaconing_nrf52840_xxAA_s140_6.0.0.dir/__/__/mesh/core/src/net_beacon.c.obj
 *fill*         0x00043771        0x3 
 .rodata.m_interface
                0x00043774        0xc examples/beaconing/CMakeFiles/beaconing_nrf52840_xxAA_s140_6.0.0.dir/__/__/mesh/core/src/core_tx_adv.c.obj
 .rodata.radio_mode_to_us_per_byte.9745
                0x00043780        0x6 examples/beaconing/CMakeFiles/beaconing_nrf52840_xxAA_s140_6.0.0.dir/__/__/mesh/bearer/src/broadcast.c.obj
 *fill*         0x00043786        0x2 
 .rodata.channel_rf_offsets.8986
                0x00043788       0x28 examples/beaconing/CMakeFiles/beaconing_nrf52840_xxAA_s140_6.0.0.dir/__/__/mesh/bearer/src/radio_config.c.obj
 .rodata.SEGGER_RTT_ReadNoLock.str1.4
                0x000437b0       0x18 external/rtt/librtt_nrf52840_xxAA.a(SEGGER_RTT.c.obj)
                                 0x17 (size before relaxing)
 .rodata._aV2C.5497
                0x000437c8       0x10 external/rtt/librtt_nrf52840_xxAA.a(SEGGER_RTT_printf.c.obj)
 .rodata.curve_secp256r1
                0x000437d8       0xb0 external/micro-ecc/libuECC_nrf52840_xxAA.a(uECC.c.obj)
 .rodata._global_impure_ptr
                0x00043888        0x4 c:/mesh/arm_gcc/bin/../lib/gcc/arm-none-eabi/6.3.1/../../../../arm-none-eabi/lib/thumb/v7e-m/fpv4-sp/hard\libc_nano.a(lib_a-impure.o)
                0x00043888                _global_impure_ptr
 .rodata._svfprintf_r.str1.1
                0x0004388c       0x11 c:/mesh/arm_gcc/bin/../lib/gcc/arm-none-eabi/6.3.1/../../../../arm-none-eabi/lib/thumb/v7e-m/fpv4-sp/hard\libc_nano.a(lib_a-nano-svfprintf.o)
 .rodata._printf_i.str1.1
                0x0004389d       0x22 c:/mesh/arm_gcc/bin/../lib/gcc/arm-none-eabi/6.3.1/../../../../arm-none-eabi/lib/thumb/v7e-m/fpv4-sp/hard\libc_nano.a(lib_a-nano-vfprintf_i.o)
 *(.eh_frame*)
 *fill*         0x000438bf        0x1 
 .eh_frame      0x000438c0        0x0 c:/mesh/arm_gcc/bin/../lib/gcc/arm-none-eabi/6.3.1/thumb/v7e-m/fpv4-sp/hard/crtbegin.o
 .eh_frame      0x000438c0        0x4 c:/mesh/arm_gcc/bin/../lib/gcc/arm-none-eabi/6.3.1/thumb/v7e-m/fpv4-sp/hard/crtend.o

.glue_7         0x000438c4        0x0
 .glue_7        0x000438c4        0x0 linker stubs

.glue_7t        0x000438c4        0x0
 .glue_7t       0x000438c4        0x0 linker stubs

.vfp11_veneer   0x000438c4        0x0
 .vfp11_veneer  0x000438c4        0x0 linker stubs

.v4_bx          0x000438c4        0x0
 .v4_bx         0x000438c4        0x0 linker stubs

.iplt           0x000438c4        0x0
 .iplt          0x000438c4        0x0 c:/mesh/arm_gcc/bin/../lib/gcc/arm-none-eabi/6.3.1/thumb/v7e-m/fpv4-sp/hard/crtbegin.o

.pwr_mgmt_data  0x000438c4        0x0
                [!provide]                PROVIDE (__start_pwr_mgmt_data, .)
 *(SORT(.pwr_mgmt_data*))
                [!provide]                PROVIDE (__stop_pwr_mgmt_data, .)

.log_const_data
                0x000438c4        0x0
                [!provide]                PROVIDE (__start_log_const_data, .)
 *(.log_const_data)
                [!provide]                PROVIDE (__stop_log_const_data, .)

.cli_command    0x000438c4        0x0
                [!provide]                PROVIDE (__start_cli_command, .)
 *(.cli_command)
                [!provide]                PROVIDE (__stop_cli_command, .)

.sdh_stack_observers
                0x000438c4        0x0
                [!provide]                PROVIDE (__start_sdh_stack_observers, .)
 *(SORT(.sdh_stack_observers*))
                [!provide]                PROVIDE (__stop_sdh_stack_observers, .)

.sdh_req_observers
                0x000438c4        0x0
                [!provide]                PROVIDE (__start_sdh_req_observers, .)
 *(SORT(.sdh_req_observers*))
                [!provide]                PROVIDE (__stop_sdh_req_observers, .)

.sdh_state_observers
                0x000438c4        0x0
                [!provide]                PROVIDE (__start_sdh_state_observers, .)
 *(SORT(.sdh_state_observers*))
                [!provide]                PROVIDE (__stop_sdh_state_observers, .)

.sdh_ant_observers
                0x000438c4        0x0
                [!provide]                PROVIDE (__start_sdh_ant_observers, .)
 *(SORT(.sdh_ant_observers*))
                [!provide]                PROVIDE (__stop_sdh_ant_observers, .)

.sdh_ble_observers
                0x000438c4        0x0
                [!provide]                PROVIDE (__start_sdh_ble_observers, .)
 *(SORT(.sdh_ble_observers*))
                [!provide]                PROVIDE (__stop_sdh_ble_observers, .)

.sdh_soc_observers
                0x000438c4        0x0
                [!provide]                PROVIDE (__start_sdh_soc_observers, .)
 *(SORT(.sdh_soc_observers*))
                [!provide]                PROVIDE (__stop_sdh_soc_observers, .)

.ARM.extab
 *(.ARM.extab* .gnu.linkonce.armextab.*)
                0x000438c4                __exidx_start = .

.ARM.exidx      0x000438c4        0x8
 *(.ARM.exidx* .gnu.linkonce.armexidx.*)
 .ARM.exidx     0x000438c4        0x8 c:/mesh/arm_gcc/bin/../lib/gcc/arm-none-eabi/6.3.1/../../../../arm-none-eabi/lib/thumb/v7e-m/fpv4-sp/hard/crt0.o
                0x000438cc                __exidx_end = .
                0x000438cc                __etext = .

.rel.dyn        0x000438cc        0x0
 .rel.iplt      0x000438cc        0x0 c:/mesh/arm_gcc/bin/../lib/gcc/arm-none-eabi/6.3.1/thumb/v7e-m/fpv4-sp/hard/crtbegin.o

.data           0x200032c8      0x140 load address 0x000438cc
                0x200032c8                __data_start__ = .
 *(vtable)
 *(.data*)
 .data.s_evt_handler.11348
                0x200032c8        0x8 examples/beaconing/CMakeFiles/beaconing_nrf52840_xxAA_s140_6.0.0.dir/__/__/mesh/stack/src/mesh_stack.c.obj
 .data.flash_add_mem_available_struct.10677
                0x200032d0       0x10 examples/beaconing/CMakeFiles/beaconing_nrf52840_xxAA_s140_6.0.0.dir/__/__/mesh/access/src/access.c.obj
 .data.flash_clear_mem_available_struct.10766
                0x200032e0       0x10 examples/beaconing/CMakeFiles/beaconing_nrf52840_xxAA_s140_6.0.0.dir/__/__/mesh/access/src/access.c.obj
 .data.flash_store_mem_available_struct.10790
                0x200032f0       0x10 examples/beaconing/CMakeFiles/beaconing_nrf52840_xxAA_s140_6.0.0.dir/__/__/mesh/access/src/access.c.obj
 .data.m_default_ttl
                0x20003300        0x1 examples/beaconing/CMakeFiles/beaconing_nrf52840_xxAA_s140_6.0.0.dir/__/__/mesh/access/src/access.c.obj
 *fill*         0x20003301        0x3 
 .data.mem_listener.10966
                0x20003304       0x10 examples/beaconing/CMakeFiles/beaconing_nrf52840_xxAA_s140_6.0.0.dir/__/__/mesh/access/src/device_state_manager.c.obj
 .data.mem_listener.10992
                0x20003314       0x10 examples/beaconing/CMakeFiles/beaconing_nrf52840_xxAA_s140_6.0.0.dir/__/__/mesh/access/src/device_state_manager.c.obj
 .data.wait.9229
                0x20003324        0x1 examples/beaconing/CMakeFiles/beaconing_nrf52840_xxAA_s140_6.0.0.dir/__/common/src/app_error_weak.c.obj
 *fill*         0x20003325        0x1 
 .data.m_config_server_handle
                0x20003326        0x2 examples/beaconing/CMakeFiles/beaconing_nrf52840_xxAA_s140_6.0.0.dir/__/__/models/config/src/config_server.c.obj
 .data.m_mesh_evt_handler
                0x20003328        0x8 examples/beaconing/CMakeFiles/beaconing_nrf52840_xxAA_s140_6.0.0.dir/__/__/models/config/src/config_server.c.obj
 .data.m_async_process_flag
                0x20003330        0x4 examples/beaconing/CMakeFiles/beaconing_nrf52840_xxAA_s140_6.0.0.dir/__/__/mesh/prov/src/prov_bearer_adv.c.obj
 .data.mem_listener.10103
                0x20003334       0x10 examples/beaconing/CMakeFiles/beaconing_nrf52840_xxAA_s140_6.0.0.dir/__/__/mesh/core/src/net_state.c.obj
 .data.mem_listener.10108
                0x20003344       0x10 examples/beaconing/CMakeFiles/beaconing_nrf52840_xxAA_s140_6.0.0.dir/__/__/mesh/core/src/net_state.c.obj
 .data.mem_listener.10122
                0x20003354       0x10 examples/beaconing/CMakeFiles/beaconing_nrf52840_xxAA_s140_6.0.0.dir/__/__/mesh/core/src/net_state.c.obj
 .data.mem_listener.10139
                0x20003364       0x10 examples/beaconing/CMakeFiles/beaconing_nrf52840_xxAA_s140_6.0.0.dir/__/__/mesh/core/src/net_state.c.obj
 .data.m_nrf_mesh_listener
                0x20003374        0xc examples/beaconing/CMakeFiles/beaconing_nrf52840_xxAA_s140_6.0.0.dir/__/__/mesh/core/src/nrf_mesh.c.obj
 .data.g_log_dbg_lvl
                0x20003380        0x4 examples/beaconing/CMakeFiles/beaconing_nrf52840_xxAA_s140_6.0.0.dir/__/__/mesh/core/src/log.c.obj
                0x20003380                g_log_dbg_lvl
 .data.g_log_dbg_msk
                0x20003384        0x4 examples/beaconing/CMakeFiles/beaconing_nrf52840_xxAA_s140_6.0.0.dir/__/__/mesh/core/src/log.c.obj
                0x20003384                g_log_dbg_msk
 .data.g_log_hex_digits
                0x20003388        0x4 examples/beaconing/CMakeFiles/beaconing_nrf52840_xxAA_s140_6.0.0.dir/__/__/mesh/core/src/log.c.obj
                0x20003388                g_log_hex_digits
 .data.m_log_callback
                0x2000338c        0x4 examples/beaconing/CMakeFiles/beaconing_nrf52840_xxAA_s140_6.0.0.dir/__/__/mesh/core/src/log.c.obj
                0x2000338c                m_log_callback
 .data.SystemCoreClock
                0x20003390        0x4 examples/beaconing/CMakeFiles/beaconing_nrf52840_xxAA_s140_6.0.0.dir/C_/ver/mod/nRF5_SDK_15.0.0_a53641a/modules/nrfx/mdk/system_nrf52840.c.obj
                0x20003390                SystemCoreClock
 .data.g_rng_function
                0x20003394        0x4 external/micro-ecc/libuECC_nrf52840_xxAA.a(uECC.c.obj)
 .data._impure_ptr
                0x20003398        0x4 c:/mesh/arm_gcc/bin/../lib/gcc/arm-none-eabi/6.3.1/../../../../arm-none-eabi/lib/thumb/v7e-m/fpv4-sp/hard\libc_nano.a(lib_a-impure.o)
                0x20003398                _impure_ptr
 .data.impure_data
                0x2000339c       0x60 c:/mesh/arm_gcc/bin/../lib/gcc/arm-none-eabi/6.3.1/../../../../arm-none-eabi/lib/thumb/v7e-m/fpv4-sp/hard\libc_nano.a(lib_a-impure.o)
                0x200033fc                . = ALIGN (0x4)
                0x200033fc                PROVIDE (__preinit_array_start, .)
 *(.preinit_array)
                0x200033fc                PROVIDE (__preinit_array_end, .)
                0x200033fc                . = ALIGN (0x4)
                0x200033fc                PROVIDE (__init_array_start, .)
 *(SORT(.init_array.*))
 *(.init_array)
 .init_array    0x200033fc        0x4 c:/mesh/arm_gcc/bin/../lib/gcc/arm-none-eabi/6.3.1/thumb/v7e-m/fpv4-sp/hard/crtbegin.o
                0x20003400                PROVIDE (__init_array_end, .)
                0x20003400                . = ALIGN (0x4)
                [!provide]                PROVIDE (__fini_array_start, .)
 *(SORT(.fini_array.*))
 *(.fini_array)
 .fini_array    0x20003400        0x4 c:/mesh/arm_gcc/bin/../lib/gcc/arm-none-eabi/6.3.1/thumb/v7e-m/fpv4-sp/hard/crtbegin.o
                [!provide]                PROVIDE (__fini_array_end, .)
 *(.jcr*)
 .jcr           0x20003404        0x0 c:/mesh/arm_gcc/bin/../lib/gcc/arm-none-eabi/6.3.1/thumb/v7e-m/fpv4-sp/hard/crtbegin.o
 .jcr           0x20003404        0x4 c:/mesh/arm_gcc/bin/../lib/gcc/arm-none-eabi/6.3.1/thumb/v7e-m/fpv4-sp/hard/crtend.o
                0x20003408                . = ALIGN (0x4)
                0x20003408                __data_end__ = .
LOAD c:/mesh/arm_gcc/bin/../lib/gcc/arm-none-eabi/6.3.1/thumb/v7e-m/fpv4-sp/hard/crti.o
LOAD c:/mesh/arm_gcc/bin/../lib/gcc/arm-none-eabi/6.3.1/thumb/v7e-m/fpv4-sp/hard/crtbegin.o
LOAD c:/mesh/arm_gcc/bin/../lib/gcc/arm-none-eabi/6.3.1/../../../../arm-none-eabi/lib/thumb/v7e-m/fpv4-sp/hard/crt0.o
LOAD examples/beaconing/CMakeFiles/beaconing_nrf52840_xxAA_s140_6.0.0.dir/src/main.c.obj
LOAD examples/beaconing/CMakeFiles/beaconing_nrf52840_xxAA_s140_6.0.0.dir/__/__/mesh/stack/src/mesh_stack.c.obj
LOAD examples/beaconing/CMakeFiles/beaconing_nrf52840_xxAA_s140_6.0.0.dir/__/common/src/mesh_softdevice_init.c.obj
LOAD examples/beaconing/CMakeFiles/beaconing_nrf52840_xxAA_s140_6.0.0.dir/__/common/src/mesh_provisionee.c.obj
LOAD examples/beaconing/CMakeFiles/beaconing_nrf52840_xxAA_s140_6.0.0.dir/__/common/src/simple_hal.c.obj
LOAD examples/beaconing/CMakeFiles/beaconing_nrf52840_xxAA_s140_6.0.0.dir/__/__/mesh/access/src/access_publish.c.obj
LOAD examples/beaconing/CMakeFiles/beaconing_nrf52840_xxAA_s140_6.0.0.dir/__/__/mesh/access/src/access.c.obj
LOAD examples/beaconing/CMakeFiles/beaconing_nrf52840_xxAA_s140_6.0.0.dir/__/__/mesh/access/src/access_reliable.c.obj
LOAD examples/beaconing/CMakeFiles/beaconing_nrf52840_xxAA_s140_6.0.0.dir/__/__/mesh/access/src/device_state_manager.c.obj
LOAD examples/beaconing/CMakeFiles/beaconing_nrf52840_xxAA_s140_6.0.0.dir/__/nrf_mesh_weak.c.obj
LOAD examples/beaconing/CMakeFiles/beaconing_nrf52840_xxAA_s140_6.0.0.dir/__/common/src/app_error_weak.c.obj
LOAD examples/beaconing/CMakeFiles/beaconing_nrf52840_xxAA_s140_6.0.0.dir/__/common/src/assertion_handler_weak.c.obj
LOAD examples/beaconing/CMakeFiles/beaconing_nrf52840_xxAA_s140_6.0.0.dir/__/__/models/config/src/composition_data.c.obj
LOAD examples/beaconing/CMakeFiles/beaconing_nrf52840_xxAA_s140_6.0.0.dir/__/__/models/config/src/config_server.c.obj
LOAD examples/beaconing/CMakeFiles/beaconing_nrf52840_xxAA_s140_6.0.0.dir/__/__/models/config/src/packed_index_list.c.obj
LOAD examples/beaconing/CMakeFiles/beaconing_nrf52840_xxAA_s140_6.0.0.dir/__/__/models/health/src/health_server.c.obj
LOAD examples/beaconing/CMakeFiles/beaconing_nrf52840_xxAA_s140_6.0.0.dir/__/__/mesh/prov/src/prov_provisionee.c.obj
LOAD examples/beaconing/CMakeFiles/beaconing_nrf52840_xxAA_s140_6.0.0.dir/__/__/mesh/prov/src/nrf_mesh_prov.c.obj
LOAD examples/beaconing/CMakeFiles/beaconing_nrf52840_xxAA_s140_6.0.0.dir/__/__/mesh/prov/src/provisioning.c.obj
LOAD examples/beaconing/CMakeFiles/beaconing_nrf52840_xxAA_s140_6.0.0.dir/__/__/mesh/prov/src/prov_beacon.c.obj
LOAD examples/beaconing/CMakeFiles/beaconing_nrf52840_xxAA_s140_6.0.0.dir/__/__/mesh/prov/src/prov_utils.c.obj
LOAD examples/beaconing/CMakeFiles/beaconing_nrf52840_xxAA_s140_6.0.0.dir/__/__/mesh/prov/src/prov_bearer_adv.c.obj
LOAD examples/beaconing/CMakeFiles/beaconing_nrf52840_xxAA_s140_6.0.0.dir/__/__/mesh/core/src/internal_event.c.obj
LOAD examples/beaconing/CMakeFiles/beaconing_nrf52840_xxAA_s140_6.0.0.dir/__/__/mesh/core/src/nrf_mesh_configure.c.obj
LOAD examples/beaconing/CMakeFiles/beaconing_nrf52840_xxAA_s140_6.0.0.dir/__/__/mesh/core/src/aes.c.obj
LOAD examples/beaconing/CMakeFiles/beaconing_nrf52840_xxAA_s140_6.0.0.dir/__/__/mesh/core/src/msg_cache.c.obj
LOAD examples/beaconing/CMakeFiles/beaconing_nrf52840_xxAA_s140_6.0.0.dir/__/__/mesh/core/src/transport.c.obj
LOAD examples/beaconing/CMakeFiles/beaconing_nrf52840_xxAA_s140_6.0.0.dir/__/__/mesh/core/src/event.c.obj
LOAD examples/beaconing/CMakeFiles/beaconing_nrf52840_xxAA_s140_6.0.0.dir/__/__/mesh/core/src/packet_buffer.c.obj
LOAD examples/beaconing/CMakeFiles/beaconing_nrf52840_xxAA_s140_6.0.0.dir/__/__/mesh/core/src/flash_manager_defrag.c.obj
LOAD examples/beaconing/CMakeFiles/beaconing_nrf52840_xxAA_s140_6.0.0.dir/__/__/mesh/core/src/fifo.c.obj
LOAD examples/beaconing/CMakeFiles/beaconing_nrf52840_xxAA_s140_6.0.0.dir/__/__/mesh/core/src/nrf_flash.c.obj
LOAD examples/beaconing/CMakeFiles/beaconing_nrf52840_xxAA_s140_6.0.0.dir/__/__/mesh/core/src/packet_mgr.c.obj
LOAD examples/beaconing/CMakeFiles/beaconing_nrf52840_xxAA_s140_6.0.0.dir/__/__/mesh/core/src/net_state.c.obj
LOAD examples/beaconing/CMakeFiles/beaconing_nrf52840_xxAA_s140_6.0.0.dir/__/__/mesh/core/src/mesh_flash.c.obj
LOAD examples/beaconing/CMakeFiles/beaconing_nrf52840_xxAA_s140_6.0.0.dir/__/__/mesh/core/src/nrf_mesh_utils.c.obj
LOAD examples/beaconing/CMakeFiles/beaconing_nrf52840_xxAA_s140_6.0.0.dir/__/__/mesh/core/src/nrf_mesh.c.obj
LOAD examples/beaconing/CMakeFiles/beaconing_nrf52840_xxAA_s140_6.0.0.dir/__/__/mesh/core/src/queue.c.obj
LOAD examples/beaconing/CMakeFiles/beaconing_nrf52840_xxAA_s140_6.0.0.dir/__/__/mesh/core/src/hal.c.obj
LOAD examples/beaconing/CMakeFiles/beaconing_nrf52840_xxAA_s140_6.0.0.dir/__/__/mesh/core/src/aes_cmac.c.obj
LOAD examples/beaconing/CMakeFiles/beaconing_nrf52840_xxAA_s140_6.0.0.dir/__/__/mesh/core/src/timer_scheduler.c.obj
LOAD examples/beaconing/CMakeFiles/beaconing_nrf52840_xxAA_s140_6.0.0.dir/__/__/mesh/core/src/timer.c.obj
LOAD examples/beaconing/CMakeFiles/beaconing_nrf52840_xxAA_s140_6.0.0.dir/__/__/mesh/core/src/ticker.c.obj
LOAD examples/beaconing/CMakeFiles/beaconing_nrf52840_xxAA_s140_6.0.0.dir/__/__/mesh/core/src/rand.c.obj
LOAD examples/beaconing/CMakeFiles/beaconing_nrf52840_xxAA_s140_6.0.0.dir/__/__/mesh/core/src/nrf_mesh_opt.c.obj
LOAD examples/beaconing/CMakeFiles/beaconing_nrf52840_xxAA_s140_6.0.0.dir/__/__/mesh/core/src/timeslot.c.obj
LOAD examples/beaconing/CMakeFiles/beaconing_nrf52840_xxAA_s140_6.0.0.dir/__/__/mesh/core/src/bearer_event.c.obj
LOAD examples/beaconing/CMakeFiles/beaconing_nrf52840_xxAA_s140_6.0.0.dir/__/__/mesh/core/src/enc.c.obj
LOAD examples/beaconing/CMakeFiles/beaconing_nrf52840_xxAA_s140_6.0.0.dir/__/__/mesh/core/src/network.c.obj
LOAD examples/beaconing/CMakeFiles/beaconing_nrf52840_xxAA_s140_6.0.0.dir/__/__/mesh/core/src/net_packet.c.obj
LOAD examples/beaconing/CMakeFiles/beaconing_nrf52840_xxAA_s140_6.0.0.dir/__/__/mesh/core/src/msqueue.c.obj
LOAD examples/beaconing/CMakeFiles/beaconing_nrf52840_xxAA_s140_6.0.0.dir/__/__/mesh/core/src/nrf_mesh_keygen.c.obj
LOAD examples/beaconing/CMakeFiles/beaconing_nrf52840_xxAA_s140_6.0.0.dir/__/__/mesh/core/src/cache.c.obj
LOAD examples/beaconing/CMakeFiles/beaconing_nrf52840_xxAA_s140_6.0.0.dir/__/__/mesh/core/src/uri.c.obj
LOAD examples/beaconing/CMakeFiles/beaconing_nrf52840_xxAA_s140_6.0.0.dir/__/__/mesh/core/src/list.c.obj
LOAD examples/beaconing/CMakeFiles/beaconing_nrf52840_xxAA_s140_6.0.0.dir/__/__/mesh/core/src/log.c.obj
LOAD examples/beaconing/CMakeFiles/beaconing_nrf52840_xxAA_s140_6.0.0.dir/__/__/mesh/core/src/flash_manager.c.obj
LOAD examples/beaconing/CMakeFiles/beaconing_nrf52840_xxAA_s140_6.0.0.dir/__/__/mesh/core/src/ccm_soft.c.obj
LOAD examples/beaconing/CMakeFiles/beaconing_nrf52840_xxAA_s140_6.0.0.dir/__/__/mesh/core/src/toolchain.c.obj
LOAD examples/beaconing/CMakeFiles/beaconing_nrf52840_xxAA_s140_6.0.0.dir/__/__/mesh/core/src/replay_cache.c.obj
LOAD examples/beaconing/CMakeFiles/beaconing_nrf52840_xxAA_s140_6.0.0.dir/__/__/mesh/core/src/beacon.c.obj
LOAD examples/beaconing/CMakeFiles/beaconing_nrf52840_xxAA_s140_6.0.0.dir/__/__/mesh/core/src/flash_manager_internal.c.obj
LOAD examples/beaconing/CMakeFiles/beaconing_nrf52840_xxAA_s140_6.0.0.dir/__/__/mesh/core/src/core_tx.c.obj
LOAD examples/beaconing/CMakeFiles/beaconing_nrf52840_xxAA_s140_6.0.0.dir/__/__/mesh/core/src/heartbeat.c.obj
LOAD examples/beaconing/CMakeFiles/beaconing_nrf52840_xxAA_s140_6.0.0.dir/__/__/mesh/core/src/net_beacon.c.obj
LOAD examples/beaconing/CMakeFiles/beaconing_nrf52840_xxAA_s140_6.0.0.dir/__/__/mesh/core/src/fsm.c.obj
LOAD examples/beaconing/CMakeFiles/beaconing_nrf52840_xxAA_s140_6.0.0.dir/__/__/mesh/core/src/core_tx_adv.c.obj
LOAD examples/beaconing/CMakeFiles/beaconing_nrf52840_xxAA_s140_6.0.0.dir/__/__/mesh/bearer/src/ad_listener.c.obj
LOAD examples/beaconing/CMakeFiles/beaconing_nrf52840_xxAA_s140_6.0.0.dir/__/__/mesh/bearer/src/ad_type_filter.c.obj
LOAD examples/beaconing/CMakeFiles/beaconing_nrf52840_xxAA_s140_6.0.0.dir/__/__/mesh/bearer/src/adv_packet_filter.c.obj
LOAD examples/beaconing/CMakeFiles/beaconing_nrf52840_xxAA_s140_6.0.0.dir/__/__/mesh/bearer/src/advertiser.c.obj
LOAD examples/beaconing/CMakeFiles/beaconing_nrf52840_xxAA_s140_6.0.0.dir/__/__/mesh/bearer/src/bearer_handler.c.obj
LOAD examples/beaconing/CMakeFiles/beaconing_nrf52840_xxAA_s140_6.0.0.dir/__/__/mesh/bearer/src/broadcast.c.obj
LOAD examples/beaconing/CMakeFiles/beaconing_nrf52840_xxAA_s140_6.0.0.dir/__/__/mesh/bearer/src/filter_engine.c.obj
LOAD examples/beaconing/CMakeFiles/beaconing_nrf52840_xxAA_s140_6.0.0.dir/__/__/mesh/bearer/src/gap_address_filter.c.obj
LOAD examples/beaconing/CMakeFiles/beaconing_nrf52840_xxAA_s140_6.0.0.dir/__/__/mesh/bearer/src/radio_config.c.obj
LOAD examples/beaconing/CMakeFiles/beaconing_nrf52840_xxAA_s140_6.0.0.dir/__/__/mesh/bearer/src/rssi_filter.c.obj
LOAD examples/beaconing/CMakeFiles/beaconing_nrf52840_xxAA_s140_6.0.0.dir/__/__/mesh/bearer/src/scanner.c.obj
LOAD examples/beaconing/CMakeFiles/beaconing_nrf52840_xxAA_s140_6.0.0.dir/C_/ver/mod/nRF5_SDK_15.0.0_a53641a/modules/nrfx/mdk/system_nrf52840.c.obj
LOAD examples/beaconing/CMakeFiles/beaconing_nrf52840_xxAA_s140_6.0.0.dir/C_/ver/mod/nRF5_SDK_15.0.0_a53641a/modules/nrfx/mdk/gcc_startup_nrf52840.S.obj
LOAD examples/beaconing/CMakeFiles/beaconing_nrf52840_xxAA_s140_6.0.0.dir/C_/ver/mod/nRF5_SDK_15.0.0_a53641a/components/libraries/util/app_error.c.obj
LOAD examples/beaconing/CMakeFiles/beaconing_nrf52840_xxAA_s140_6.0.0.dir/C_/ver/mod/nRF5_SDK_15.0.0_a53641a/components/libraries/util/app_error_handler_gcc.c.obj
LOAD external/rtt/librtt_nrf52840_xxAA.a
LOAD external/micro-ecc/libuECC_nrf52840_xxAA.a
START GROUP
LOAD c:/mesh/arm_gcc/bin/../lib/gcc/arm-none-eabi/6.3.1/thumb/v7e-m/fpv4-sp/hard\libgcc.a
LOAD c:/mesh/arm_gcc/bin/../lib/gcc/arm-none-eabi/6.3.1/../../../../arm-none-eabi/lib/thumb/v7e-m/fpv4-sp/hard\libc_nano.a
END GROUP
START GROUP
LOAD c:/mesh/arm_gcc/bin/../lib/gcc/arm-none-eabi/6.3.1/thumb/v7e-m/fpv4-sp/hard\libgcc.a
LOAD c:/mesh/arm_gcc/bin/../lib/gcc/arm-none-eabi/6.3.1/../../../../arm-none-eabi/lib/thumb/v7e-m/fpv4-sp/hard\libc_nano.a
END GROUP
LOAD c:/mesh/arm_gcc/bin/../lib/gcc/arm-none-eabi/6.3.1/thumb/v7e-m/fpv4-sp/hard/crtend.o
LOAD c:/mesh/arm_gcc/bin/../lib/gcc/arm-none-eabi/6.3.1/thumb/v7e-m/fpv4-sp/hard/crtn.o
START GROUP
LOAD c:/mesh/arm_gcc/bin/../lib/gcc/arm-none-eabi/6.3.1/thumb/v7e-m/fpv4-sp/hard\libgcc.a
LOAD c:/mesh/arm_gcc/bin/../lib/gcc/arm-none-eabi/6.3.1/../../../../arm-none-eabi/lib/thumb/v7e-m/fpv4-sp/hard\libc.a
LOAD c:/mesh/arm_gcc/bin/../lib/gcc/arm-none-eabi/6.3.1/../../../../arm-none-eabi/lib/thumb/v7e-m/fpv4-sp/hard\libnosys.a
END GROUP

.igot.plt       0x20003408        0x0 load address 0x00043a0c
 .igot.plt      0x20003408        0x0 c:/mesh/arm_gcc/bin/../lib/gcc/arm-none-eabi/6.3.1/thumb/v7e-m/fpv4-sp/hard/crtbegin.o
                0x20003408                . = ALIGN (0x4)

.svc_data       0x20003408        0x0
                [!provide]                PROVIDE (__start_svc_data, .)
 *(.svc_data)
                [!provide]                PROVIDE (__stop_svc_data, .)

.fs_data        0x20003408        0x0
                [!provide]                PROVIDE (__start_fs_data, .)
 *(.fs_data)
                [!provide]                PROVIDE (__stop_fs_data, .)

.log_dynamic_data
                0x20003408        0x0
                [!provide]                PROVIDE (__start_log_dynamic_data, .)
 *(.log_dynamic_data)
                [!provide]                PROVIDE (__stop_log_dynamic_data, .)

.cli_sorted_cmd_ptrs
                0x20003408        0x0
                [!provide]                PROVIDE (__start_cli_sorted_cmd_ptrs, .)
 *(.cli_sorted_cmd_ptrs)
                [!provide]                PROVIDE (__stop_cli_sorted_cmd_ptrs, .)

.bss            0x20003408     0x33d0 load address 0x00043a10
                0x20003408                . = ALIGN (0x4)
                0x20003408                __bss_start__ = .
 *(.bss*)
 .bss           0x20003408       0x1c c:/mesh/arm_gcc/bin/../lib/gcc/arm-none-eabi/6.3.1/thumb/v7e-m/fpv4-sp/hard/crtbegin.o
 .bss.m_adv_buffer
                0x20003424       0x80 examples/beaconing/CMakeFiles/beaconing_nrf52840_xxAA_s140_6.0.0.dir/src/main.c.obj
 .bss.m_advertiser
                0x200034a4       0x98 examples/beaconing/CMakeFiles/beaconing_nrf52840_xxAA_s140_6.0.0.dir/src/main.c.obj
 .bss.m_device_provisioned
                0x2000353c        0x1 examples/beaconing/CMakeFiles/beaconing_nrf52840_xxAA_s140_6.0.0.dir/src/main.c.obj
 *fill*         0x2000353d        0x3 
 .bss.m_health_server
                0x20003540       0x5c examples/beaconing/CMakeFiles/beaconing_nrf52840_xxAA_s140_6.0.0.dir/__/__/mesh/stack/src/mesh_stack.c.obj
 .bss.m_init_params
                0x2000359c       0x24 examples/beaconing/CMakeFiles/beaconing_nrf52840_xxAA_s140_6.0.0.dir/__/__/mesh/stack/src/mesh_stack.c.obj
 .bss.m_device_provisioned
                0x200035c0        0x1 examples/beaconing/CMakeFiles/beaconing_nrf52840_xxAA_s140_6.0.0.dir/__/common/src/mesh_provisionee.c.obj
 *fill*         0x200035c1        0x3 
 .bss.m_params  0x200035c4        0xc examples/beaconing/CMakeFiles/beaconing_nrf52840_xxAA_s140_6.0.0.dir/__/common/src/mesh_provisionee.c.obj
 .bss.m_private_key
                0x200035d0       0x20 examples/beaconing/CMakeFiles/beaconing_nrf52840_xxAA_s140_6.0.0.dir/__/common/src/mesh_provisionee.c.obj
 .bss.m_prov_bearer_adv
                0x200035f0      0x1c4 examples/beaconing/CMakeFiles/beaconing_nrf52840_xxAA_s140_6.0.0.dir/__/common/src/mesh_provisionee.c.obj
 .bss.m_prov_ctx
                0x200037b4      0x134 examples/beaconing/CMakeFiles/beaconing_nrf52840_xxAA_s140_6.0.0.dir/__/common/src/mesh_provisionee.c.obj
 .bss.m_public_key
                0x200038e8       0x40 examples/beaconing/CMakeFiles/beaconing_nrf52840_xxAA_s140_6.0.0.dir/__/common/src/mesh_provisionee.c.obj
 .bss.m_button_handler_cb
                0x20003928        0x4 examples/beaconing/CMakeFiles/beaconing_nrf52840_xxAA_s140_6.0.0.dir/__/common/src/simple_hal.c.obj
 .bss.m_last_button_press
                0x2000392c        0x4 examples/beaconing/CMakeFiles/beaconing_nrf52840_xxAA_s140_6.0.0.dir/__/common/src/simple_hal.c.obj
 .bss.m_publish_timer
                0x20003930       0x18 examples/beaconing/CMakeFiles/beaconing_nrf52840_xxAA_s140_6.0.0.dir/__/__/mesh/access/src/access_publish.c.obj
 .bss.m_publish_timer_counter
                0x20003948        0x4 examples/beaconing/CMakeFiles/beaconing_nrf52840_xxAA_s140_6.0.0.dir/__/__/mesh/access/src/access_publish.c.obj
 .bss.m_publish_timer_running
                0x2000394c        0x1 examples/beaconing/CMakeFiles/beaconing_nrf52840_xxAA_s140_6.0.0.dir/__/__/mesh/access/src/access_publish.c.obj
 .bss.m_timer_resolution
                0x2000394d        0x1 examples/beaconing/CMakeFiles/beaconing_nrf52840_xxAA_s140_6.0.0.dir/__/__/mesh/access/src/access_publish.c.obj
 *fill*         0x2000394e        0x2 
 .bss.mp_publication_list
                0x20003950        0x4 examples/beaconing/CMakeFiles/beaconing_nrf52840_xxAA_s140_6.0.0.dir/__/__/mesh/access/src/access_publish.c.obj
 .bss.m_element_pool
                0x20003954        0x6 examples/beaconing/CMakeFiles/beaconing_nrf52840_xxAA_s140_6.0.0.dir/__/__/mesh/access/src/access.c.obj
 *fill*         0x2000395a        0x2 
 .bss.m_evt_handler
                0x2000395c        0x8 examples/beaconing/CMakeFiles/beaconing_nrf52840_xxAA_s140_6.0.0.dir/__/__/mesh/access/src/access.c.obj
 .bss.m_flash_manager
                0x20003964       0x24 examples/beaconing/CMakeFiles/beaconing_nrf52840_xxAA_s140_6.0.0.dir/__/__/mesh/access/src/access.c.obj
 .bss.m_flash_not_ready
                0x20003988        0x1 examples/beaconing/CMakeFiles/beaconing_nrf52840_xxAA_s140_6.0.0.dir/__/__/mesh/access/src/access.c.obj
 .bss.m_metadata_stored
                0x20003989        0x1 examples/beaconing/CMakeFiles/beaconing_nrf52840_xxAA_s140_6.0.0.dir/__/__/mesh/access/src/access.c.obj
 *fill*         0x2000398a        0x2 
 .bss.m_model_pool
                0x2000398c       0x68 examples/beaconing/CMakeFiles/beaconing_nrf52840_xxAA_s140_6.0.0.dir/__/__/mesh/access/src/access.c.obj
 .bss.m_subscription_list_pool
                0x200039f4       0x10 examples/beaconing/CMakeFiles/beaconing_nrf52840_xxAA_s140_6.0.0.dir/__/__/mesh/access/src/access.c.obj
 .bss.m_reliable
                0x20003a04       0x74 examples/beaconing/CMakeFiles/beaconing_nrf52840_xxAA_s140_6.0.0.dir/__/__/mesh/access/src/access_reliable.c.obj
 .bss.m_addr_nonvirtual_allocated
                0x20003a78        0x4 examples/beaconing/CMakeFiles/beaconing_nrf52840_xxAA_s140_6.0.0.dir/__/__/mesh/access/src/device_state_manager.c.obj
 .bss.m_addr_nonvirtual_needs_flashing
                0x20003a7c        0x4 examples/beaconing/CMakeFiles/beaconing_nrf52840_xxAA_s140_6.0.0.dir/__/__/mesh/access/src/device_state_manager.c.obj
 .bss.m_addr_unicast_allocated
                0x20003a80        0x4 examples/beaconing/CMakeFiles/beaconing_nrf52840_xxAA_s140_6.0.0.dir/__/__/mesh/access/src/device_state_manager.c.obj
 .bss.m_addr_unicast_needs_flashing
                0x20003a84        0x4 examples/beaconing/CMakeFiles/beaconing_nrf52840_xxAA_s140_6.0.0.dir/__/__/mesh/access/src/device_state_manager.c.obj
 .bss.m_addr_virtual_allocated
                0x20003a88        0x4 examples/beaconing/CMakeFiles/beaconing_nrf52840_xxAA_s140_6.0.0.dir/__/__/mesh/access/src/device_state_manager.c.obj
 .bss.m_addr_virtual_needs_flashing
                0x20003a8c        0x4 examples/beaconing/CMakeFiles/beaconing_nrf52840_xxAA_s140_6.0.0.dir/__/__/mesh/access/src/device_state_manager.c.obj
 .bss.m_addresses
                0x20003a90       0x40 examples/beaconing/CMakeFiles/beaconing_nrf52840_xxAA_s140_6.0.0.dir/__/__/mesh/access/src/device_state_manager.c.obj
 .bss.m_appkey_allocated
                0x20003ad0        0x4 examples/beaconing/CMakeFiles/beaconing_nrf52840_xxAA_s140_6.0.0.dir/__/__/mesh/access/src/device_state_manager.c.obj
 .bss.m_appkey_needs_flashing
                0x20003ad4        0x4 examples/beaconing/CMakeFiles/beaconing_nrf52840_xxAA_s140_6.0.0.dir/__/__/mesh/access/src/device_state_manager.c.obj
 .bss.m_appkeys
                0x20003ad8      0x150 examples/beaconing/CMakeFiles/beaconing_nrf52840_xxAA_s140_6.0.0.dir/__/__/mesh/access/src/device_state_manager.c.obj
 .bss.m_devkey_allocated
                0x20003c28        0x4 examples/beaconing/CMakeFiles/beaconing_nrf52840_xxAA_s140_6.0.0.dir/__/__/mesh/access/src/device_state_manager.c.obj
 .bss.m_devkey_needs_flashing
                0x20003c2c        0x4 examples/beaconing/CMakeFiles/beaconing_nrf52840_xxAA_s140_6.0.0.dir/__/__/mesh/access/src/device_state_manager.c.obj
 .bss.m_devkeys
                0x20003c30       0x16 examples/beaconing/CMakeFiles/beaconing_nrf52840_xxAA_s140_6.0.0.dir/__/__/mesh/access/src/device_state_manager.c.obj
 .bss.m_flash_is_available
                0x20003c46        0x1 examples/beaconing/CMakeFiles/beaconing_nrf52840_xxAA_s140_6.0.0.dir/__/__/mesh/access/src/device_state_manager.c.obj
 *fill*         0x20003c47        0x1 
 .bss.m_flash_manager
                0x20003c48       0x24 examples/beaconing/CMakeFiles/beaconing_nrf52840_xxAA_s140_6.0.0.dir/__/__/mesh/access/src/device_state_manager.c.obj
 .bss.m_flash_mem_listener_update_all
                0x20003c6c       0x10 examples/beaconing/CMakeFiles/beaconing_nrf52840_xxAA_s140_6.0.0.dir/__/__/mesh/access/src/device_state_manager.c.obj
 .bss.m_has_primary_subnet
                0x20003c7c        0x1 examples/beaconing/CMakeFiles/beaconing_nrf52840_xxAA_s140_6.0.0.dir/__/__/mesh/access/src/device_state_manager.c.obj
 *fill*         0x20003c7d        0x3 
 .bss.m_local_unicast_addr
                0x20003c80        0x4 examples/beaconing/CMakeFiles/beaconing_nrf52840_xxAA_s140_6.0.0.dir/__/__/mesh/access/src/device_state_manager.c.obj
 .bss.m_mesh_evt_handler
                0x20003c84        0x8 examples/beaconing/CMakeFiles/beaconing_nrf52840_xxAA_s140_6.0.0.dir/__/__/mesh/access/src/device_state_manager.c.obj
 .bss.m_subnet_allocated
                0x20003c8c        0x4 examples/beaconing/CMakeFiles/beaconing_nrf52840_xxAA_s140_6.0.0.dir/__/__/mesh/access/src/device_state_manager.c.obj
 .bss.m_subnet_needs_flashing
                0x20003c90        0x4 examples/beaconing/CMakeFiles/beaconing_nrf52840_xxAA_s140_6.0.0.dir/__/__/mesh/access/src/device_state_manager.c.obj
 .bss.m_subnets
                0x20003c94      0x2a0 examples/beaconing/CMakeFiles/beaconing_nrf52840_xxAA_s140_6.0.0.dir/__/__/mesh/access/src/device_state_manager.c.obj
 .bss.m_virtual_addresses
                0x20003f34       0xa0 examples/beaconing/CMakeFiles/beaconing_nrf52840_xxAA_s140_6.0.0.dir/__/__/mesh/access/src/device_state_manager.c.obj
 .bss.m_evt_cb  0x20003fd4        0x4 examples/beaconing/CMakeFiles/beaconing_nrf52840_xxAA_s140_6.0.0.dir/__/__/models/config/src/config_server.c.obj
 .bss.m_heartbeat_publication
                0x20003fd8       0x14 examples/beaconing/CMakeFiles/beaconing_nrf52840_xxAA_s140_6.0.0.dir/__/__/models/config/src/config_server.c.obj
 .bss.m_node_reset_pending
                0x20003fec        0x1 examples/beaconing/CMakeFiles/beaconing_nrf52840_xxAA_s140_6.0.0.dir/__/__/models/config/src/config_server.c.obj
 *fill*         0x20003fed        0x3 
 .bss.m_attention_timer
                0x20003ff0       0x18 examples/beaconing/CMakeFiles/beaconing_nrf52840_xxAA_s140_6.0.0.dir/__/__/models/health/src/health_server.c.obj
 .bss.mp_attention_list
                0x20004008        0x4 examples/beaconing/CMakeFiles/beaconing_nrf52840_xxAA_s140_6.0.0.dir/__/__/models/health/src/health_server.c.obj
 .bss.m_event_handler
                0x2000400c        0x4 examples/beaconing/CMakeFiles/beaconing_nrf52840_xxAA_s140_6.0.0.dir/__/__/mesh/prov/src/prov_beacon.c.obj
 .bss.m_offload_ecdh
                0x20004010        0x1 examples/beaconing/CMakeFiles/beaconing_nrf52840_xxAA_s140_6.0.0.dir/__/__/mesh/prov/src/prov_utils.c.obj
 *fill*         0x20004011        0x3 
 .bss.mp_bearer_head
                0x20004014        0x4 examples/beaconing/CMakeFiles/beaconing_nrf52840_xxAA_s140_6.0.0.dir/__/__/mesh/prov/src/prov_bearer_adv.c.obj
 .bss.m_uuid    0x20004018       0x10 examples/beaconing/CMakeFiles/beaconing_nrf52840_xxAA_s140_6.0.0.dir/__/__/mesh/core/src/nrf_mesh_configure.c.obj
 .bss.m_msg_cache
                0x20004028      0x100 examples/beaconing/CMakeFiles/beaconing_nrf52840_xxAA_s140_6.0.0.dir/__/__/mesh/core/src/msg_cache.c.obj
 .bss.m_msg_cache_head
                0x20004128        0x4 examples/beaconing/CMakeFiles/beaconing_nrf52840_xxAA_s140_6.0.0.dir/__/__/mesh/core/src/msg_cache.c.obj
 .bss.m_control_packet_consumer_count
                0x2000412c        0x4 examples/beaconing/CMakeFiles/beaconing_nrf52840_xxAA_s140_6.0.0.dir/__/__/mesh/core/src/transport.c.obj
 .bss.m_control_packet_consumers
                0x20004130        0x8 examples/beaconing/CMakeFiles/beaconing_nrf52840_xxAA_s140_6.0.0.dir/__/__/mesh/core/src/transport.c.obj
 .bss.m_sar_alloc
                0x20004138        0x4 examples/beaconing/CMakeFiles/beaconing_nrf52840_xxAA_s140_6.0.0.dir/__/__/mesh/core/src/transport.c.obj
 .bss.m_sar_process_flag
                0x2000413c        0x4 examples/beaconing/CMakeFiles/beaconing_nrf52840_xxAA_s140_6.0.0.dir/__/__/mesh/core/src/transport.c.obj
 .bss.m_sar_release
                0x20004140        0x4 examples/beaconing/CMakeFiles/beaconing_nrf52840_xxAA_s140_6.0.0.dir/__/__/mesh/core/src/transport.c.obj
 .bss.m_sar_session_cache
                0x20004144       0x40 examples/beaconing/CMakeFiles/beaconing_nrf52840_xxAA_s140_6.0.0.dir/__/__/mesh/core/src/transport.c.obj
 .bss.m_sar_session_cache_head
                0x20004184        0x4 examples/beaconing/CMakeFiles/beaconing_nrf52840_xxAA_s140_6.0.0.dir/__/__/mesh/core/src/transport.c.obj
 .bss.m_trs_config
                0x20004188       0x18 examples/beaconing/CMakeFiles/beaconing_nrf52840_xxAA_s140_6.0.0.dir/__/__/mesh/core/src/transport.c.obj
 .bss.m_trs_sar_sessions
                0x200041a0      0x1b0 examples/beaconing/CMakeFiles/beaconing_nrf52840_xxAA_s140_6.0.0.dir/__/__/mesh/core/src/transport.c.obj
 .bss.mp_evt_handlers_head
                0x20004350        0x4 examples/beaconing/CMakeFiles/beaconing_nrf52840_xxAA_s140_6.0.0.dir/__/__/mesh/core/src/event.c.obj
 .bss.m_defrag  0x20004354       0x1c examples/beaconing/CMakeFiles/beaconing_nrf52840_xxAA_s140_6.0.0.dir/__/__/mesh/core/src/flash_manager_defrag.c.obj
 .bss.m_token   0x20004370        0x2 examples/beaconing/CMakeFiles/beaconing_nrf52840_xxAA_s140_6.0.0.dir/__/__/mesh/core/src/flash_manager_defrag.c.obj
 *fill*         0x20004372        0x2 
 .bss.mp_recovery_area
                0x20004374        0x4 examples/beaconing/CMakeFiles/beaconing_nrf52840_xxAA_s140_6.0.0.dir/__/__/mesh/core/src/flash_manager_defrag.c.obj
 .bss.p_null_ptr.10534
                0x20004378        0x4 examples/beaconing/CMakeFiles/beaconing_nrf52840_xxAA_s140_6.0.0.dir/__/__/mesh/core/src/flash_manager_defrag.c.obj
 .bss.m_pool    0x2000437c     0x1000 examples/beaconing/CMakeFiles/beaconing_nrf52840_xxAA_s140_6.0.0.dir/__/__/mesh/core/src/packet_mgr.c.obj
 .bss.mp_free_head
                0x2000537c        0x4 examples/beaconing/CMakeFiles/beaconing_nrf52840_xxAA_s140_6.0.0.dir/__/__/mesh/core/src/packet_mgr.c.obj
 .bss.iv_state_set.10189
                0x20005380        0x1 examples/beaconing/CMakeFiles/beaconing_nrf52840_xxAA_s140_6.0.0.dir/__/__/mesh/core/src/net_state.c.obj
 *fill*         0x20005381        0x3 
 .bss.lock_count.10165
                0x20005384        0x4 examples/beaconing/CMakeFiles/beaconing_nrf52840_xxAA_s140_6.0.0.dir/__/__/mesh/core/src/net_state.c.obj
 .bss.m_flash_manager
                0x20005388       0x24 examples/beaconing/CMakeFiles/beaconing_nrf52840_xxAA_s140_6.0.0.dir/__/__/mesh/core/src/net_state.c.obj
 .bss.m_iv_update_timer
                0x200053ac       0x18 examples/beaconing/CMakeFiles/beaconing_nrf52840_xxAA_s140_6.0.0.dir/__/__/mesh/core/src/net_state.c.obj
 .bss.m_mesh_evt_handler
                0x200053c4        0x8 examples/beaconing/CMakeFiles/beaconing_nrf52840_xxAA_s140_6.0.0.dir/__/__/mesh/core/src/net_state.c.obj
 .bss.m_net_state
                0x200053cc       0x14 examples/beaconing/CMakeFiles/beaconing_nrf52840_xxAA_s140_6.0.0.dir/__/__/mesh/core/src/net_state.c.obj
 .bss.m_seqnum_allocation_in_progress
                0x200053e0        0x1 examples/beaconing/CMakeFiles/beaconing_nrf52840_xxAA_s140_6.0.0.dir/__/__/mesh/core/src/net_state.c.obj
 .bss.m_test_mode
                0x200053e1        0x1 examples/beaconing/CMakeFiles/beaconing_nrf52840_xxAA_s140_6.0.0.dir/__/__/mesh/core/src/net_state.c.obj
 *fill*         0x200053e2        0x2 
 .bss.m_event_flag
                0x200053e4        0x4 examples/beaconing/CMakeFiles/beaconing_nrf52840_xxAA_s140_6.0.0.dir/__/__/mesh/core/src/mesh_flash.c.obj
 .bss.m_suspended
                0x200053e8        0x1 examples/beaconing/CMakeFiles/beaconing_nrf52840_xxAA_s140_6.0.0.dir/__/__/mesh/core/src/mesh_flash.c.obj
 *fill*         0x200053e9        0x3 
 .bss.m_users   0x200053ec      0x228 examples/beaconing/CMakeFiles/beaconing_nrf52840_xxAA_s140_6.0.0.dir/__/__/mesh/core/src/mesh_flash.c.obj
 .bss.m_is_enabled
                0x20005614        0x1 examples/beaconing/CMakeFiles/beaconing_nrf52840_xxAA_s140_6.0.0.dir/__/__/mesh/core/src/nrf_mesh.c.obj
 .bss.m_is_initialized
                0x20005615        0x1 examples/beaconing/CMakeFiles/beaconing_nrf52840_xxAA_s140_6.0.0.dir/__/__/mesh/core/src/nrf_mesh.c.obj
 *fill*         0x20005616        0x2 
 .bss.m_rx_cb   0x20005618        0x4 examples/beaconing/CMakeFiles/beaconing_nrf52840_xxAA_s140_6.0.0.dir/__/__/mesh/core/src/nrf_mesh.c.obj
 .bss.m_128buf  0x2000561c       0x10 examples/beaconing/CMakeFiles/beaconing_nrf52840_xxAA_s140_6.0.0.dir/__/__/mesh/core/src/aes_cmac.c.obj
 .bss.m_subkey1
                0x2000562c       0x10 examples/beaconing/CMakeFiles/beaconing_nrf52840_xxAA_s140_6.0.0.dir/__/__/mesh/core/src/aes_cmac.c.obj
 .bss.m_subkey2
                0x2000563c       0x10 examples/beaconing/CMakeFiles/beaconing_nrf52840_xxAA_s140_6.0.0.dir/__/__/mesh/core/src/aes_cmac.c.obj
 .bss.m_event_flag
                0x2000564c        0x4 examples/beaconing/CMakeFiles/beaconing_nrf52840_xxAA_s140_6.0.0.dir/__/__/mesh/core/src/timer_scheduler.c.obj
 .bss.m_scheduler
                0x20005650       0x10 examples/beaconing/CMakeFiles/beaconing_nrf52840_xxAA_s140_6.0.0.dir/__/__/mesh/core/src/timer_scheduler.c.obj
 .bss.m_attributes
                0x20005660        0x3 examples/beaconing/CMakeFiles/beaconing_nrf52840_xxAA_s140_6.0.0.dir/__/__/mesh/core/src/timer.c.obj
 *fill*         0x20005663        0x1 
 .bss.m_callbacks
                0x20005664        0xc examples/beaconing/CMakeFiles/beaconing_nrf52840_xxAA_s140_6.0.0.dir/__/__/mesh/core/src/timer.c.obj
 .bss.m_is_in_ts
                0x20005670        0x1 examples/beaconing/CMakeFiles/beaconing_nrf52840_xxAA_s140_6.0.0.dir/__/__/mesh/core/src/timer.c.obj
 *fill*         0x20005671        0x3 
 .bss.m_reference_time
                0x20005674        0x4 examples/beaconing/CMakeFiles/beaconing_nrf52840_xxAA_s140_6.0.0.dir/__/__/mesh/core/src/timer.c.obj
 .bss.m_timeouts
                0x20005678        0xc examples/beaconing/CMakeFiles/beaconing_nrf52840_xxAA_s140_6.0.0.dir/__/__/mesh/core/src/timer.c.obj
 .bss.m_timer_mut
                0x20005684        0x4 examples/beaconing/CMakeFiles/beaconing_nrf52840_xxAA_s140_6.0.0.dir/__/__/mesh/core/src/timer.c.obj
 .bss.m_ts_end_time
                0x20005688        0x4 examples/beaconing/CMakeFiles/beaconing_nrf52840_xxAA_s140_6.0.0.dir/__/__/mesh/core/src/timer.c.obj
 .bss.mp_ppi_tasks
                0x2000568c        0xc examples/beaconing/CMakeFiles/beaconing_nrf52840_xxAA_s140_6.0.0.dir/__/__/mesh/core/src/timer.c.obj
 .bss.m_current_time
                0x20005698        0x4 examples/beaconing/CMakeFiles/beaconing_nrf52840_xxAA_s140_6.0.0.dir/__/__/mesh/core/src/ticker.c.obj
 .bss.m_timer   0x2000569c       0x18 examples/beaconing/CMakeFiles/beaconing_nrf52840_xxAA_s140_6.0.0.dir/__/__/mesh/core/src/ticker.c.obj
 .bss.m_current_timeslot
                0x200056b4       0x1c examples/beaconing/CMakeFiles/beaconing_nrf52840_xxAA_s140_6.0.0.dir/__/__/mesh/core/src/timeslot.c.obj
 .bss.m_lfclk_ppm
                0x200056d0        0x4 examples/beaconing/CMakeFiles/beaconing_nrf52840_xxAA_s140_6.0.0.dir/__/__/mesh/core/src/timeslot.c.obj
 .bss.m_radio_request_earliest
                0x200056d4       0x10 examples/beaconing/CMakeFiles/beaconing_nrf52840_xxAA_s140_6.0.0.dir/__/__/mesh/core/src/timeslot.c.obj
 .bss.m_state_lock
                0x200056e4        0x1 examples/beaconing/CMakeFiles/beaconing_nrf52840_xxAA_s140_6.0.0.dir/__/__/mesh/core/src/timeslot.c.obj
 .bss.m_timeslot_forced_command
                0x200056e5        0x1 examples/beaconing/CMakeFiles/beaconing_nrf52840_xxAA_s140_6.0.0.dir/__/__/mesh/core/src/timeslot.c.obj
 *fill*         0x200056e6        0x2 
 .bss.s_last_rtc_value.9592
                0x200056e8        0x8 examples/beaconing/CMakeFiles/beaconing_nrf52840_xxAA_s140_6.0.0.dir/__/__/mesh/core/src/timeslot.c.obj
 .bss.m_bearer_event_fifo
                0x200056f0       0x14 examples/beaconing/CMakeFiles/beaconing_nrf52840_xxAA_s140_6.0.0.dir/__/__/mesh/core/src/bearer_event.c.obj
 .bss.m_bearer_event_fifo_buffer
                0x20005704      0x100 examples/beaconing/CMakeFiles/beaconing_nrf52840_xxAA_s140_6.0.0.dir/__/__/mesh/core/src/bearer_event.c.obj
 .bss.m_critical
                0x20005804        0x4 examples/beaconing/CMakeFiles/beaconing_nrf52840_xxAA_s140_6.0.0.dir/__/__/mesh/core/src/bearer_event.c.obj
 .bss.m_flag_count
                0x20005808        0x4 examples/beaconing/CMakeFiles/beaconing_nrf52840_xxAA_s140_6.0.0.dir/__/__/mesh/core/src/bearer_event.c.obj
 .bss.m_flag_event_callbacks
                0x2000580c       0x20 examples/beaconing/CMakeFiles/beaconing_nrf52840_xxAA_s140_6.0.0.dir/__/__/mesh/core/src/bearer_event.c.obj
 .bss.m_flags   0x2000582c        0x4 examples/beaconing/CMakeFiles/beaconing_nrf52840_xxAA_s140_6.0.0.dir/__/__/mesh/core/src/bearer_event.c.obj
 .bss.m_irq_priority
                0x20005830        0x1 examples/beaconing/CMakeFiles/beaconing_nrf52840_xxAA_s140_6.0.0.dir/__/__/mesh/core/src/bearer_event.c.obj
 *fill*         0x20005831        0x3 
 .bss.m_sequential_event_queue
                0x20005834        0x8 examples/beaconing/CMakeFiles/beaconing_nrf52840_xxAA_s140_6.0.0.dir/__/__/mesh/core/src/bearer_event.c.obj
 .bss.s_recursion_guard.9723
                0x2000583c        0x1 examples/beaconing/CMakeFiles/beaconing_nrf52840_xxAA_s140_6.0.0.dir/__/__/mesh/core/src/bearer_event.c.obj
 *fill*         0x2000583d        0x3 
 .bss.m_relay_check_cb
                0x20005840        0x4 examples/beaconing/CMakeFiles/beaconing_nrf52840_xxAA_s140_6.0.0.dir/__/__/mesh/core/src/network.c.obj
 .bss.m_relay_enable
                0x20005844        0x1 examples/beaconing/CMakeFiles/beaconing_nrf52840_xxAA_s140_6.0.0.dir/__/__/mesh/core/src/network.c.obj
 *fill*         0x20005845        0x3 
 .bss.m_action_queue
                0x20005848        0xc examples/beaconing/CMakeFiles/beaconing_nrf52840_xxAA_s140_6.0.0.dir/__/__/mesh/core/src/flash_manager.c.obj
 .bss.m_action_queue_buffer
                0x20005854      0x104 examples/beaconing/CMakeFiles/beaconing_nrf52840_xxAA_s140_6.0.0.dir/__/__/mesh/core/src/flash_manager.c.obj
 .bss.m_action_state
                0x20005958        0x1 examples/beaconing/CMakeFiles/beaconing_nrf52840_xxAA_s140_6.0.0.dir/__/__/mesh/core/src/flash_manager.c.obj
 *fill*         0x20005959        0x3 
 .bss.m_memory_listener_queue
                0x2000595c        0x8 examples/beaconing/CMakeFiles/beaconing_nrf52840_xxAA_s140_6.0.0.dir/__/__/mesh/core/src/flash_manager.c.obj
 .bss.m_processing_flag
                0x20005964        0x4 examples/beaconing/CMakeFiles/beaconing_nrf52840_xxAA_s140_6.0.0.dir/__/__/mesh/core/src/flash_manager.c.obj
 .bss.m_queue_empty_cb
                0x20005968        0x4 examples/beaconing/CMakeFiles/beaconing_nrf52840_xxAA_s140_6.0.0.dir/__/__/mesh/core/src/flash_manager.c.obj
 .bss.m_state   0x2000596c        0x1 examples/beaconing/CMakeFiles/beaconing_nrf52840_xxAA_s140_6.0.0.dir/__/__/mesh/core/src/flash_manager.c.obj
 *fill*         0x2000596d        0x1 
 .bss.m_token   0x2000596e        0x2 examples/beaconing/CMakeFiles/beaconing_nrf52840_xxAA_s140_6.0.0.dir/__/__/mesh/core/src/flash_manager.c.obj
 .bss.p_current.11442
                0x20005970        0x4 examples/beaconing/CMakeFiles/beaconing_nrf52840_xxAA_s140_6.0.0.dir/__/__/mesh/core/src/flash_manager.c.obj
 .bss.result.11443
                0x20005974        0x1 examples/beaconing/CMakeFiles/beaconing_nrf52840_xxAA_s140_6.0.0.dir/__/__/mesh/core/src/flash_manager.c.obj
 .bss.m_cache_index
                0x20005975        0x1 examples/beaconing/CMakeFiles/beaconing_nrf52840_xxAA_s140_6.0.0.dir/__/__/mesh/core/src/replay_cache.c.obj
 *fill*         0x20005976        0x2 
 .bss.m_replay_cache
                0x20005978      0x200 examples/beaconing/CMakeFiles/beaconing_nrf52840_xxAA_s140_6.0.0.dir/__/__/mesh/core/src/replay_cache.c.obj
 .bss.m_bearer_count
                0x20005b78        0x1 examples/beaconing/CMakeFiles/beaconing_nrf52840_xxAA_s140_6.0.0.dir/__/__/mesh/core/src/core_tx.c.obj
 *fill*         0x20005b79        0x3 
 .bss.m_tx_complete_callback
                0x20005b7c        0x4 examples/beaconing/CMakeFiles/beaconing_nrf52840_xxAA_s140_6.0.0.dir/__/__/mesh/core/src/core_tx.c.obj
 .bss.mp_bearers
                0x20005b80        0x4 examples/beaconing/CMakeFiles/beaconing_nrf52840_xxAA_s140_6.0.0.dir/__/__/mesh/core/src/core_tx.c.obj
 .bss.m_hb_core_evt_handler
                0x20005b84        0x8 examples/beaconing/CMakeFiles/beaconing_nrf52840_xxAA_s140_6.0.0.dir/__/__/mesh/core/src/heartbeat.c.obj
 .bss.m_hb_pending_feat_msg
                0x20005b8c        0x1 examples/beaconing/CMakeFiles/beaconing_nrf52840_xxAA_s140_6.0.0.dir/__/__/mesh/core/src/heartbeat.c.obj
 .bss.m_hb_pending_pub_msg
                0x20005b8d        0x1 examples/beaconing/CMakeFiles/beaconing_nrf52840_xxAA_s140_6.0.0.dir/__/__/mesh/core/src/heartbeat.c.obj
 .bss.m_heartbeat_init_done
                0x20005b8e        0x1 examples/beaconing/CMakeFiles/beaconing_nrf52840_xxAA_s140_6.0.0.dir/__/__/mesh/core/src/heartbeat.c.obj
 *fill*         0x20005b8f        0x1 
 .bss.m_heartbeat_subscription
                0x20005b90       0x10 examples/beaconing/CMakeFiles/beaconing_nrf52840_xxAA_s140_6.0.0.dir/__/__/mesh/core/src/heartbeat.c.obj
 .bss.m_publication_count_decrement_cb
                0x20005ba0        0x4 examples/beaconing/CMakeFiles/beaconing_nrf52840_xxAA_s140_6.0.0.dir/__/__/mesh/core/src/heartbeat.c.obj
 .bss.m_publication_get_cb
                0x20005ba4        0x4 examples/beaconing/CMakeFiles/beaconing_nrf52840_xxAA_s140_6.0.0.dir/__/__/mesh/core/src/heartbeat.c.obj
 .bss.m_publication_timer
                0x20005ba8       0x1c examples/beaconing/CMakeFiles/beaconing_nrf52840_xxAA_s140_6.0.0.dir/__/__/mesh/core/src/heartbeat.c.obj
 .bss.m_subscription_timer
                0x20005bc4       0x18 examples/beaconing/CMakeFiles/beaconing_nrf52840_xxAA_s140_6.0.0.dir/__/__/mesh/core/src/heartbeat.c.obj
 .bss.m_adv     0x20005bdc       0x98 examples/beaconing/CMakeFiles/beaconing_nrf52840_xxAA_s140_6.0.0.dir/__/__/mesh/core/src/net_beacon.c.obj
 .bss.m_adv_buf
                0x20005c74       0x34 examples/beaconing/CMakeFiles/beaconing_nrf52840_xxAA_s140_6.0.0.dir/__/__/mesh/core/src/net_beacon.c.obj
 .bss.m_beacon_salt
                0x20005ca8       0x10 examples/beaconing/CMakeFiles/beaconing_nrf52840_xxAA_s140_6.0.0.dir/__/__/mesh/core/src/net_beacon.c.obj
 .bss.m_enabled
                0x20005cb8        0x1 examples/beaconing/CMakeFiles/beaconing_nrf52840_xxAA_s140_6.0.0.dir/__/__/mesh/core/src/net_beacon.c.obj
 *fill*         0x20005cb9        0x3 
 .bss.m_tx_timer
                0x20005cbc       0x18 examples/beaconing/CMakeFiles/beaconing_nrf52840_xxAA_s140_6.0.0.dir/__/__/mesh/core/src/net_beacon.c.obj
 .bss.mp_beacon_info
                0x20005cd4        0x4 examples/beaconing/CMakeFiles/beaconing_nrf52840_xxAA_s140_6.0.0.dir/__/__/mesh/core/src/net_beacon.c.obj
 .bss.m_bearer  0x20005cd8        0xc examples/beaconing/CMakeFiles/beaconing_nrf52840_xxAA_s140_6.0.0.dir/__/__/mesh/core/src/core_tx_adv.c.obj
 .bss.m_bearer_roles
                0x20005ce4      0x138 examples/beaconing/CMakeFiles/beaconing_nrf52840_xxAA_s140_6.0.0.dir/__/__/mesh/core/src/core_tx_adv.c.obj
 .bss.m_current_alloc
                0x20005e1c        0x8 examples/beaconing/CMakeFiles/beaconing_nrf52840_xxAA_s140_6.0.0.dir/__/__/mesh/core/src/core_tx_adv.c.obj
 .bss.m_originator_adv_packet_buffer
                0x20005e24      0x100 examples/beaconing/CMakeFiles/beaconing_nrf52840_xxAA_s140_6.0.0.dir/__/__/mesh/core/src/core_tx_adv.c.obj
 .bss.m_relay_adv_packet_buffer
                0x20005f24       0x80 examples/beaconing/CMakeFiles/beaconing_nrf52840_xxAA_s140_6.0.0.dir/__/__/mesh/core/src/core_tx_adv.c.obj
 .bss.m_subscribers
                0x20005fa4        0x4 examples/beaconing/CMakeFiles/beaconing_nrf52840_xxAA_s140_6.0.0.dir/__/__/mesh/bearer/src/ad_listener.c.obj
 .bss.m_adtype_filter
                0x20005fa8       0x38 examples/beaconing/CMakeFiles/beaconing_nrf52840_xxAA_s140_6.0.0.dir/__/__/mesh/bearer/src/ad_type_filter.c.obj
 .bss.m_adv_prng
                0x20005fe0       0x10 examples/beaconing/CMakeFiles/beaconing_nrf52840_xxAA_s140_6.0.0.dir/__/__/mesh/bearer/src/advertiser.c.obj
 .bss.m_action_queue
                0x20005ff0        0x8 examples/beaconing/CMakeFiles/beaconing_nrf52840_xxAA_s140_6.0.0.dir/__/__/mesh/bearer/src/bearer_handler.c.obj
 .bss.m_end_time
                0x20005ff8        0x4 examples/beaconing/CMakeFiles/beaconing_nrf52840_xxAA_s140_6.0.0.dir/__/__/mesh/bearer/src/bearer_handler.c.obj
 .bss.m_scanner_is_active
                0x20005ffc        0x1 examples/beaconing/CMakeFiles/beaconing_nrf52840_xxAA_s140_6.0.0.dir/__/__/mesh/bearer/src/bearer_handler.c.obj
 .bss.m_stopped
                0x20005ffd        0x1 examples/beaconing/CMakeFiles/beaconing_nrf52840_xxAA_s140_6.0.0.dir/__/__/mesh/bearer/src/bearer_handler.c.obj
 *fill*         0x20005ffe        0x2 
 .bss.mp_action
                0x20006000        0x4 examples/beaconing/CMakeFiles/beaconing_nrf52840_xxAA_s140_6.0.0.dir/__/__/mesh/bearer/src/bearer_handler.c.obj
 .bss.m_next_channel_index
                0x20006004        0x1 examples/beaconing/CMakeFiles/beaconing_nrf52840_xxAA_s140_6.0.0.dir/__/__/mesh/bearer/src/broadcast.c.obj
 *fill*         0x20006005        0x3 
 .bss.m_accepted_amount
                0x20006008        0x4 examples/beaconing/CMakeFiles/beaconing_nrf52840_xxAA_s140_6.0.0.dir/__/__/mesh/bearer/src/filter_engine.c.obj
 .bss.m_filter_list_head
                0x2000600c        0x4 examples/beaconing/CMakeFiles/beaconing_nrf52840_xxAA_s140_6.0.0.dir/__/__/mesh/bearer/src/filter_engine.c.obj
 .bss.m_scanner
                0x20006010      0x290 examples/beaconing/CMakeFiles/beaconing_nrf52840_xxAA_s140_6.0.0.dir/__/__/mesh/bearer/src/scanner.c.obj
 .bss._acDownBuffer
                0x200062a0       0x80 external/rtt/librtt_nrf52840_xxAA.a(SEGGER_RTT.c.obj)
 .bss._acUpBuffer
                0x20006320      0x400 external/rtt/librtt_nrf52840_xxAA.a(SEGGER_RTT.c.obj)
 .bss.__malloc_free_list
                0x20006720        0x4 c:/mesh/arm_gcc/bin/../lib/gcc/arm-none-eabi/6.3.1/../../../../arm-none-eabi/lib/thumb/v7e-m/fpv4-sp/hard\libc_nano.a(lib_a-nano-mallocr.o)
                0x20006720                __malloc_free_list
 .bss.__malloc_sbrk_start
                0x20006724        0x4 c:/mesh/arm_gcc/bin/../lib/gcc/arm-none-eabi/6.3.1/../../../../arm-none-eabi/lib/thumb/v7e-m/fpv4-sp/hard\libc_nano.a(lib_a-nano-mallocr.o)
                0x20006724                __malloc_sbrk_start
 .bss.heap_end.5239
                0x20006728        0x4 c:/mesh/arm_gcc/bin/../lib/gcc/arm-none-eabi/6.3.1/../../../../arm-none-eabi/lib/thumb/v7e-m/fpv4-sp/hard\libnosys.a(sbrk.o)
 *(COMMON)
 COMMON         0x2000672c        0xc examples/beaconing/CMakeFiles/beaconing_nrf52840_xxAA_s140_6.0.0.dir/__/common/src/mesh_softdevice_init.c.obj
                0x2000672c                nrf_nvic_state
 COMMON         0x20006738       0x24 examples/beaconing/CMakeFiles/beaconing_nrf52840_xxAA_s140_6.0.0.dir/__/__/mesh/core/src/core_tx.c.obj
                0x20006738                m_packet
 COMMON         0x2000675c       0x78 external/rtt/librtt_nrf52840_xxAA.a(SEGGER_RTT.c.obj)
                0x2000675c                _SEGGER_RTT
 COMMON         0x200067d4        0x4 c:/mesh/arm_gcc/bin/../lib/gcc/arm-none-eabi/6.3.1/../../../../arm-none-eabi/lib/thumb/v7e-m/fpv4-sp/hard\libc_nano.a(lib_a-reent.o)
                0x200067d4                errno
                0x200067d8                . = ALIGN (0x4)
                0x200067d8                __bss_end__ = .

.heap           0x200067d8     0x2000
                0x200067d8                __HeapBase = .
                0x200067d8                __end__ = .
                0x200067d8                PROVIDE (end, .)
 *(.heap*)
 .heap          0x200067d8     0x2000 examples/beaconing/CMakeFiles/beaconing_nrf52840_xxAA_s140_6.0.0.dir/C_/ver/mod/nRF5_SDK_15.0.0_a53641a/modules/nrfx/mdk/gcc_startup_nrf52840.S.obj
                0x200087d8                __HeapLimit = .

.stack_dummy    0x200067d8     0x2000
 *(.stack*)
 .stack         0x200067d8     0x2000 examples/beaconing/CMakeFiles/beaconing_nrf52840_xxAA_s140_6.0.0.dir/C_/ver/mod/nRF5_SDK_15.0.0_a53641a/modules/nrfx/mdk/gcc_startup_nrf52840.S.obj
                0x2003fd00                __StackTop = (ORIGIN (RAM) + LENGTH (RAM))
                0x2003dd00                __StackLimit = (__StackTop - SIZEOF (.stack_dummy))
                0x2003fd00                PROVIDE (__stack, __StackTop)
                0x00000001                ASSERT ((__StackLimit >= __HeapLimit), region RAM overflowed with stack)
                0x00000140                DataInitFlashUsed = (__bss_start__ - __data_start__)
                0x0001d8cc                CodeFlashUsed = (__etext - ORIGIN (FLASH))
                0x0001da0c                TotalFlashUsed = (CodeFlashUsed + DataInitFlashUsed)
                0x00000001                ASSERT ((TotalFlashUsed <= LENGTH (FLASH)), region FLASH overflowed with .data and user data)
OUTPUT(examples\beaconing\beaconing_nrf52840_xxAA_s140_6.0.0.elf elf32-littlearm)

.ARM.attributes
                0x00000000       0x30
 .ARM.attributes
                0x00000000       0x22 c:/mesh/arm_gcc/bin/../lib/gcc/arm-none-eabi/6.3.1/thumb/v7e-m/fpv4-sp/hard/crti.o
 .ARM.attributes
                0x00000022       0x34 c:/mesh/arm_gcc/bin/../lib/gcc/arm-none-eabi/6.3.1/thumb/v7e-m/fpv4-sp/hard/crtbegin.o
 .ARM.attributes
                0x00000056       0x20 c:/mesh/arm_gcc/bin/../lib/gcc/arm-none-eabi/6.3.1/../../../../arm-none-eabi/lib/thumb/v7e-m/fpv4-sp/hard/crt0.o
 .ARM.attributes
                0x00000076       0x39 examples/beaconing/CMakeFiles/beaconing_nrf52840_xxAA_s140_6.0.0.dir/src/main.c.obj
 .ARM.attributes
                0x000000af       0x39 examples/beaconing/CMakeFiles/beaconing_nrf52840_xxAA_s140_6.0.0.dir/__/__/mesh/stack/src/mesh_stack.c.obj
 .ARM.attributes
                0x000000e8       0x39 examples/beaconing/CMakeFiles/beaconing_nrf52840_xxAA_s140_6.0.0.dir/__/common/src/mesh_softdevice_init.c.obj
 .ARM.attributes
                0x00000121       0x39 examples/beaconing/CMakeFiles/beaconing_nrf52840_xxAA_s140_6.0.0.dir/__/common/src/mesh_provisionee.c.obj
 .ARM.attributes
                0x0000015a       0x39 examples/beaconing/CMakeFiles/beaconing_nrf52840_xxAA_s140_6.0.0.dir/__/common/src/simple_hal.c.obj
 .ARM.attributes
                0x00000193       0x39 examples/beaconing/CMakeFiles/beaconing_nrf52840_xxAA_s140_6.0.0.dir/__/__/mesh/access/src/access_publish.c.obj
 .ARM.attributes
                0x000001cc       0x39 examples/beaconing/CMakeFiles/beaconing_nrf52840_xxAA_s140_6.0.0.dir/__/__/mesh/access/src/access.c.obj
 .ARM.attributes
                0x00000205       0x39 examples/beaconing/CMakeFiles/beaconing_nrf52840_xxAA_s140_6.0.0.dir/__/__/mesh/access/src/access_reliable.c.obj
 .ARM.attributes
                0x0000023e       0x39 examples/beaconing/CMakeFiles/beaconing_nrf52840_xxAA_s140_6.0.0.dir/__/__/mesh/access/src/device_state_manager.c.obj
 .ARM.attributes
                0x00000277       0x39 examples/beaconing/CMakeFiles/beaconing_nrf52840_xxAA_s140_6.0.0.dir/__/nrf_mesh_weak.c.obj
 .ARM.attributes
                0x000002b0       0x39 examples/beaconing/CMakeFiles/beaconing_nrf52840_xxAA_s140_6.0.0.dir/__/common/src/app_error_weak.c.obj
 .ARM.attributes
                0x000002e9       0x39 examples/beaconing/CMakeFiles/beaconing_nrf52840_xxAA_s140_6.0.0.dir/__/common/src/assertion_handler_weak.c.obj
 .ARM.attributes
                0x00000322       0x39 examples/beaconing/CMakeFiles/beaconing_nrf52840_xxAA_s140_6.0.0.dir/__/__/models/config/src/composition_data.c.obj
 .ARM.attributes
                0x0000035b       0x39 examples/beaconing/CMakeFiles/beaconing_nrf52840_xxAA_s140_6.0.0.dir/__/__/models/config/src/config_server.c.obj
 .ARM.attributes
                0x00000394       0x39 examples/beaconing/CMakeFiles/beaconing_nrf52840_xxAA_s140_6.0.0.dir/__/__/models/config/src/packed_index_list.c.obj
 .ARM.attributes
                0x000003cd       0x39 examples/beaconing/CMakeFiles/beaconing_nrf52840_xxAA_s140_6.0.0.dir/__/__/models/health/src/health_server.c.obj
 .ARM.attributes
                0x00000406       0x39 examples/beaconing/CMakeFiles/beaconing_nrf52840_xxAA_s140_6.0.0.dir/__/__/mesh/prov/src/prov_provisionee.c.obj
 .ARM.attributes
                0x0000043f       0x39 examples/beaconing/CMakeFiles/beaconing_nrf52840_xxAA_s140_6.0.0.dir/__/__/mesh/prov/src/nrf_mesh_prov.c.obj
 .ARM.attributes
                0x00000478       0x39 examples/beaconing/CMakeFiles/beaconing_nrf52840_xxAA_s140_6.0.0.dir/__/__/mesh/prov/src/provisioning.c.obj
 .ARM.attributes
                0x000004b1       0x39 examples/beaconing/CMakeFiles/beaconing_nrf52840_xxAA_s140_6.0.0.dir/__/__/mesh/prov/src/prov_beacon.c.obj
 .ARM.attributes
                0x000004ea       0x39 examples/beaconing/CMakeFiles/beaconing_nrf52840_xxAA_s140_6.0.0.dir/__/__/mesh/prov/src/prov_utils.c.obj
 .ARM.attributes
                0x00000523       0x39 examples/beaconing/CMakeFiles/beaconing_nrf52840_xxAA_s140_6.0.0.dir/__/__/mesh/prov/src/prov_bearer_adv.c.obj
 .ARM.attributes
                0x0000055c       0x39 examples/beaconing/CMakeFiles/beaconing_nrf52840_xxAA_s140_6.0.0.dir/__/__/mesh/core/src/nrf_mesh_configure.c.obj
 .ARM.attributes
                0x00000595       0x39 examples/beaconing/CMakeFiles/beaconing_nrf52840_xxAA_s140_6.0.0.dir/__/__/mesh/core/src/aes.c.obj
 .ARM.attributes
                0x000005ce       0x39 examples/beaconing/CMakeFiles/beaconing_nrf52840_xxAA_s140_6.0.0.dir/__/__/mesh/core/src/msg_cache.c.obj
 .ARM.attributes
                0x00000607       0x39 examples/beaconing/CMakeFiles/beaconing_nrf52840_xxAA_s140_6.0.0.dir/__/__/mesh/core/src/transport.c.obj
 .ARM.attributes
                0x00000640       0x39 examples/beaconing/CMakeFiles/beaconing_nrf52840_xxAA_s140_6.0.0.dir/__/__/mesh/core/src/event.c.obj
 .ARM.attributes
                0x00000679       0x39 examples/beaconing/CMakeFiles/beaconing_nrf52840_xxAA_s140_6.0.0.dir/__/__/mesh/core/src/packet_buffer.c.obj
 .ARM.attributes
                0x000006b2       0x39 examples/beaconing/CMakeFiles/beaconing_nrf52840_xxAA_s140_6.0.0.dir/__/__/mesh/core/src/flash_manager_defrag.c.obj
 .ARM.attributes
                0x000006eb       0x39 examples/beaconing/CMakeFiles/beaconing_nrf52840_xxAA_s140_6.0.0.dir/__/__/mesh/core/src/fifo.c.obj
 .ARM.attributes
                0x00000724       0x39 examples/beaconing/CMakeFiles/beaconing_nrf52840_xxAA_s140_6.0.0.dir/__/__/mesh/core/src/nrf_flash.c.obj
 .ARM.attributes
                0x0000075d       0x39 examples/beaconing/CMakeFiles/beaconing_nrf52840_xxAA_s140_6.0.0.dir/__/__/mesh/core/src/packet_mgr.c.obj
 .ARM.attributes
                0x00000796       0x39 examples/beaconing/CMakeFiles/beaconing_nrf52840_xxAA_s140_6.0.0.dir/__/__/mesh/core/src/net_state.c.obj
 .ARM.attributes
                0x000007cf       0x39 examples/beaconing/CMakeFiles/beaconing_nrf52840_xxAA_s140_6.0.0.dir/__/__/mesh/core/src/mesh_flash.c.obj
 .ARM.attributes
                0x00000808       0x39 examples/beaconing/CMakeFiles/beaconing_nrf52840_xxAA_s140_6.0.0.dir/__/__/mesh/core/src/nrf_mesh_utils.c.obj
 .ARM.attributes
                0x00000841       0x39 examples/beaconing/CMakeFiles/beaconing_nrf52840_xxAA_s140_6.0.0.dir/__/__/mesh/core/src/nrf_mesh.c.obj
 .ARM.attributes
                0x0000087a       0x39 examples/beaconing/CMakeFiles/beaconing_nrf52840_xxAA_s140_6.0.0.dir/__/__/mesh/core/src/queue.c.obj
 .ARM.attributes
                0x000008b3       0x39 examples/beaconing/CMakeFiles/beaconing_nrf52840_xxAA_s140_6.0.0.dir/__/__/mesh/core/src/hal.c.obj
 .ARM.attributes
                0x000008ec       0x39 examples/beaconing/CMakeFiles/beaconing_nrf52840_xxAA_s140_6.0.0.dir/__/__/mesh/core/src/aes_cmac.c.obj
 .ARM.attributes
                0x00000925       0x39 examples/beaconing/CMakeFiles/beaconing_nrf52840_xxAA_s140_6.0.0.dir/__/__/mesh/core/src/timer_scheduler.c.obj
 .ARM.attributes
                0x0000095e       0x39 examples/beaconing/CMakeFiles/beaconing_nrf52840_xxAA_s140_6.0.0.dir/__/__/mesh/core/src/timer.c.obj
 .ARM.attributes
                0x00000997       0x39 examples/beaconing/CMakeFiles/beaconing_nrf52840_xxAA_s140_6.0.0.dir/__/__/mesh/core/src/ticker.c.obj
 .ARM.attributes
                0x000009d0       0x39 examples/beaconing/CMakeFiles/beaconing_nrf52840_xxAA_s140_6.0.0.dir/__/__/mesh/core/src/rand.c.obj
 .ARM.attributes
                0x00000a09       0x39 examples/beaconing/CMakeFiles/beaconing_nrf52840_xxAA_s140_6.0.0.dir/__/__/mesh/core/src/nrf_mesh_opt.c.obj
 .ARM.attributes
                0x00000a42       0x39 examples/beaconing/CMakeFiles/beaconing_nrf52840_xxAA_s140_6.0.0.dir/__/__/mesh/core/src/timeslot.c.obj
 .ARM.attributes
                0x00000a7b       0x39 examples/beaconing/CMakeFiles/beaconing_nrf52840_xxAA_s140_6.0.0.dir/__/__/mesh/core/src/bearer_event.c.obj
 .ARM.attributes
                0x00000ab4       0x39 examples/beaconing/CMakeFiles/beaconing_nrf52840_xxAA_s140_6.0.0.dir/__/__/mesh/core/src/enc.c.obj
 .ARM.attributes
                0x00000aed       0x39 examples/beaconing/CMakeFiles/beaconing_nrf52840_xxAA_s140_6.0.0.dir/__/__/mesh/core/src/network.c.obj
 .ARM.attributes
                0x00000b26       0x39 examples/beaconing/CMakeFiles/beaconing_nrf52840_xxAA_s140_6.0.0.dir/__/__/mesh/core/src/net_packet.c.obj
 .ARM.attributes
                0x00000b5f       0x39 examples/beaconing/CMakeFiles/beaconing_nrf52840_xxAA_s140_6.0.0.dir/__/__/mesh/core/src/msqueue.c.obj
 .ARM.attributes
                0x00000b98       0x39 examples/beaconing/CMakeFiles/beaconing_nrf52840_xxAA_s140_6.0.0.dir/__/__/mesh/core/src/nrf_mesh_keygen.c.obj
 .ARM.attributes
                0x00000bd1       0x39 examples/beaconing/CMakeFiles/beaconing_nrf52840_xxAA_s140_6.0.0.dir/__/__/mesh/core/src/list.c.obj
 .ARM.attributes
                0x00000c0a       0x39 examples/beaconing/CMakeFiles/beaconing_nrf52840_xxAA_s140_6.0.0.dir/__/__/mesh/core/src/log.c.obj
 .ARM.attributes
                0x00000c43       0x39 examples/beaconing/CMakeFiles/beaconing_nrf52840_xxAA_s140_6.0.0.dir/__/__/mesh/core/src/flash_manager.c.obj
 .ARM.attributes
                0x00000c7c       0x39 examples/beaconing/CMakeFiles/beaconing_nrf52840_xxAA_s140_6.0.0.dir/__/__/mesh/core/src/ccm_soft.c.obj
 .ARM.attributes
                0x00000cb5       0x39 examples/beaconing/CMakeFiles/beaconing_nrf52840_xxAA_s140_6.0.0.dir/__/__/mesh/core/src/replay_cache.c.obj
 .ARM.attributes
                0x00000cee       0x39 examples/beaconing/CMakeFiles/beaconing_nrf52840_xxAA_s140_6.0.0.dir/__/__/mesh/core/src/beacon.c.obj
 .ARM.attributes
                0x00000d27       0x39 examples/beaconing/CMakeFiles/beaconing_nrf52840_xxAA_s140_6.0.0.dir/__/__/mesh/core/src/flash_manager_internal.c.obj
 .ARM.attributes
                0x00000d60       0x39 examples/beaconing/CMakeFiles/beaconing_nrf52840_xxAA_s140_6.0.0.dir/__/__/mesh/core/src/core_tx.c.obj
 .ARM.attributes
                0x00000d99       0x39 examples/beaconing/CMakeFiles/beaconing_nrf52840_xxAA_s140_6.0.0.dir/__/__/mesh/core/src/heartbeat.c.obj
 .ARM.attributes
                0x00000dd2       0x39 examples/beaconing/CMakeFiles/beaconing_nrf52840_xxAA_s140_6.0.0.dir/__/__/mesh/core/src/net_beacon.c.obj
 .ARM.attributes
                0x00000e0b       0x39 examples/beaconing/CMakeFiles/beaconing_nrf52840_xxAA_s140_6.0.0.dir/__/__/mesh/core/src/core_tx_adv.c.obj
 .ARM.attributes
                0x00000e44       0x39 examples/beaconing/CMakeFiles/beaconing_nrf52840_xxAA_s140_6.0.0.dir/__/__/mesh/bearer/src/ad_listener.c.obj
 .ARM.attributes
                0x00000e7d       0x39 examples/beaconing/CMakeFiles/beaconing_nrf52840_xxAA_s140_6.0.0.dir/__/__/mesh/bearer/src/ad_type_filter.c.obj
 .ARM.attributes
                0x00000eb6       0x39 examples/beaconing/CMakeFiles/beaconing_nrf52840_xxAA_s140_6.0.0.dir/__/__/mesh/bearer/src/advertiser.c.obj
 .ARM.attributes
                0x00000eef       0x39 examples/beaconing/CMakeFiles/beaconing_nrf52840_xxAA_s140_6.0.0.dir/__/__/mesh/bearer/src/bearer_handler.c.obj
 .ARM.attributes
                0x00000f28       0x39 examples/beaconing/CMakeFiles/beaconing_nrf52840_xxAA_s140_6.0.0.dir/__/__/mesh/bearer/src/broadcast.c.obj
 .ARM.attributes
                0x00000f61       0x39 examples/beaconing/CMakeFiles/beaconing_nrf52840_xxAA_s140_6.0.0.dir/__/__/mesh/bearer/src/filter_engine.c.obj
 .ARM.attributes
                0x00000f9a       0x39 examples/beaconing/CMakeFiles/beaconing_nrf52840_xxAA_s140_6.0.0.dir/__/__/mesh/bearer/src/radio_config.c.obj
 .ARM.attributes
                0x00000fd3       0x39 examples/beaconing/CMakeFiles/beaconing_nrf52840_xxAA_s140_6.0.0.dir/__/__/mesh/bearer/src/scanner.c.obj
 .ARM.attributes
                0x0000100c       0x39 examples/beaconing/CMakeFiles/beaconing_nrf52840_xxAA_s140_6.0.0.dir/C_/ver/mod/nRF5_SDK_15.0.0_a53641a/modules/nrfx/mdk/system_nrf52840.c.obj
 .ARM.attributes
                0x00001045       0x20 examples/beaconing/CMakeFiles/beaconing_nrf52840_xxAA_s140_6.0.0.dir/C_/ver/mod/nRF5_SDK_15.0.0_a53641a/modules/nrfx/mdk/gcc_startup_nrf52840.S.obj
 .ARM.attributes
                0x00001065       0x39 examples/beaconing/CMakeFiles/beaconing_nrf52840_xxAA_s140_6.0.0.dir/C_/ver/mod/nRF5_SDK_15.0.0_a53641a/components/libraries/util/app_error.c.obj
 .ARM.attributes
                0x0000109e       0x39 examples/beaconing/CMakeFiles/beaconing_nrf52840_xxAA_s140_6.0.0.dir/C_/ver/mod/nRF5_SDK_15.0.0_a53641a/components/libraries/util/app_error_handler_gcc.c.obj
 .ARM.attributes
                0x000010d7       0x39 external/rtt/librtt_nrf52840_xxAA.a(SEGGER_RTT.c.obj)
 .ARM.attributes
                0x00001110       0x39 external/rtt/librtt_nrf52840_xxAA.a(SEGGER_RTT_printf.c.obj)
 .ARM.attributes
                0x00001149       0x39 external/micro-ecc/libuECC_nrf52840_xxAA.a(uECC.c.obj)
 .ARM.attributes
                0x00001182       0x34 c:/mesh/arm_gcc/bin/../lib/gcc/arm-none-eabi/6.3.1/../../../../arm-none-eabi/lib/thumb/v7e-m/fpv4-sp/hard\libc_nano.a(lib_a-exit.o)
 .ARM.attributes
                0x000011b6       0x34 c:/mesh/arm_gcc/bin/../lib/gcc/arm-none-eabi/6.3.1/../../../../arm-none-eabi/lib/thumb/v7e-m/fpv4-sp/hard\libc_nano.a(lib_a-impure.o)
 .ARM.attributes
                0x000011ea       0x34 c:/mesh/arm_gcc/bin/../lib/gcc/arm-none-eabi/6.3.1/../../../../arm-none-eabi/lib/thumb/v7e-m/fpv4-sp/hard\libc_nano.a(lib_a-init.o)
 .ARM.attributes
                0x0000121e       0x34 c:/mesh/arm_gcc/bin/../lib/gcc/arm-none-eabi/6.3.1/../../../../arm-none-eabi/lib/thumb/v7e-m/fpv4-sp/hard\libc_nano.a(lib_a-malloc.o)
 .ARM.attributes
                0x00001252       0x34 c:/mesh/arm_gcc/bin/../lib/gcc/arm-none-eabi/6.3.1/../../../../arm-none-eabi/lib/thumb/v7e-m/fpv4-sp/hard\libc_nano.a(lib_a-memcmp.o)
 .ARM.attributes
                0x00001286       0x34 c:/mesh/arm_gcc/bin/../lib/gcc/arm-none-eabi/6.3.1/../../../../arm-none-eabi/lib/thumb/v7e-m/fpv4-sp/hard\libc_nano.a(lib_a-memcpy-stub.o)
 .ARM.attributes
                0x000012ba       0x34 c:/mesh/arm_gcc/bin/../lib/gcc/arm-none-eabi/6.3.1/../../../../arm-none-eabi/lib/thumb/v7e-m/fpv4-sp/hard\libc_nano.a(lib_a-memset.o)
 .ARM.attributes
                0x000012ee       0x34 c:/mesh/arm_gcc/bin/../lib/gcc/arm-none-eabi/6.3.1/../../../../arm-none-eabi/lib/thumb/v7e-m/fpv4-sp/hard\libc_nano.a(lib_a-nano-freer.o)
 .ARM.attributes
                0x00001322       0x34 c:/mesh/arm_gcc/bin/../lib/gcc/arm-none-eabi/6.3.1/../../../../arm-none-eabi/lib/thumb/v7e-m/fpv4-sp/hard\libc_nano.a(lib_a-nano-mallocr.o)
 .ARM.attributes
                0x00001356       0x34 c:/mesh/arm_gcc/bin/../lib/gcc/arm-none-eabi/6.3.1/../../../../arm-none-eabi/lib/thumb/v7e-m/fpv4-sp/hard\libc_nano.a(lib_a-sbrkr.o)
 .ARM.attributes
                0x0000138a       0x34 c:/mesh/arm_gcc/bin/../lib/gcc/arm-none-eabi/6.3.1/../../../../arm-none-eabi/lib/thumb/v7e-m/fpv4-sp/hard\libc_nano.a(lib_a-sprintf.o)
 .ARM.attributes
                0x000013be       0x34 c:/mesh/arm_gcc/bin/../lib/gcc/arm-none-eabi/6.3.1/../../../../arm-none-eabi/lib/thumb/v7e-m/fpv4-sp/hard\libc_nano.a(lib_a-strcpy.o)
 .ARM.attributes
                0x000013f2       0x1b c:/mesh/arm_gcc/bin/../lib/gcc/arm-none-eabi/6.3.1/../../../../arm-none-eabi/lib/thumb/v7e-m/fpv4-sp/hard\libc_nano.a(lib_a-strlen.o)
 .ARM.attributes
                0x0000140d       0x34 c:/mesh/arm_gcc/bin/../lib/gcc/arm-none-eabi/6.3.1/../../../../arm-none-eabi/lib/thumb/v7e-m/fpv4-sp/hard\libc_nano.a(lib_a-strrchr.o)
 .ARM.attributes
                0x00001441       0x34 c:/mesh/arm_gcc/bin/../lib/gcc/arm-none-eabi/6.3.1/../../../../arm-none-eabi/lib/thumb/v7e-m/fpv4-sp/hard\libc_nano.a(lib_a-mlock.o)
 .ARM.attributes
                0x00001475       0x34 c:/mesh/arm_gcc/bin/../lib/gcc/arm-none-eabi/6.3.1/../../../../arm-none-eabi/lib/thumb/v7e-m/fpv4-sp/hard\libc_nano.a(lib_a-nano-svfprintf.o)
 .ARM.attributes
                0x000014a9       0x34 c:/mesh/arm_gcc/bin/../lib/gcc/arm-none-eabi/6.3.1/../../../../arm-none-eabi/lib/thumb/v7e-m/fpv4-sp/hard\libc_nano.a(lib_a-nano-vfprintf_i.o)
 .ARM.attributes
                0x000014dd       0x34 c:/mesh/arm_gcc/bin/../lib/gcc/arm-none-eabi/6.3.1/../../../../arm-none-eabi/lib/thumb/v7e-m/fpv4-sp/hard\libc_nano.a(lib_a-reent.o)
 .ARM.attributes
                0x00001511       0x34 c:/mesh/arm_gcc/bin/../lib/gcc/arm-none-eabi/6.3.1/../../../../arm-none-eabi/lib/thumb/v7e-m/fpv4-sp/hard\libc_nano.a(lib_a-strchr.o)
 .ARM.attributes
                0x00001545       0x20 c:/mesh/arm_gcc/bin/../lib/gcc/arm-none-eabi/6.3.1/../../../../arm-none-eabi/lib/thumb/v7e-m/fpv4-sp/hard\libc_nano.a(lib_a-memchr.o)
 .ARM.attributes
                0x00001565       0x34 c:/mesh/arm_gcc/bin/../lib/gcc/arm-none-eabi/6.3.1/../../../../arm-none-eabi/lib/thumb/v7e-m/fpv4-sp/hard\libc_nano.a(lib_a-memmove.o)
 .ARM.attributes
                0x00001599       0x34 c:/mesh/arm_gcc/bin/../lib/gcc/arm-none-eabi/6.3.1/../../../../arm-none-eabi/lib/thumb/v7e-m/fpv4-sp/hard\libc_nano.a(lib_a-nano-reallocr.o)
 .ARM.attributes
                0x000015cd       0x34 c:/mesh/arm_gcc/bin/../lib/gcc/arm-none-eabi/6.3.1/../../../../arm-none-eabi/lib/thumb/v7e-m/fpv4-sp/hard\libc_nano.a(lib_a-nano-msizer.o)
 .ARM.attributes
                0x00001601       0x34 c:/mesh/arm_gcc/bin/../lib/gcc/arm-none-eabi/6.3.1/thumb/v7e-m/fpv4-sp/hard/crtend.o
 .ARM.attributes
                0x00001635       0x22 c:/mesh/arm_gcc/bin/../lib/gcc/arm-none-eabi/6.3.1/thumb/v7e-m/fpv4-sp/hard/crtn.o
 .ARM.attributes
                0x00001657       0x34 c:/mesh/arm_gcc/bin/../lib/gcc/arm-none-eabi/6.3.1/../../../../arm-none-eabi/lib/thumb/v7e-m/fpv4-sp/hard\libnosys.a(sbrk.o)
 .ARM.attributes
                0x0000168b       0x34 c:/mesh/arm_gcc/bin/../lib/gcc/arm-none-eabi/6.3.1/../../../../arm-none-eabi/lib/thumb/v7e-m/fpv4-sp/hard\libnosys.a(_exit.o)

.comment        0x00000000       0x7f
 .comment       0x00000000       0x7f examples/beaconing/CMakeFiles/beaconing_nrf52840_xxAA_s140_6.0.0.dir/src/main.c.obj
                                 0x80 (size before relaxing)
 .comment       0x0000007f       0x80 examples/beaconing/CMakeFiles/beaconing_nrf52840_xxAA_s140_6.0.0.dir/__/__/mesh/stack/src/mesh_stack.c.obj
 .comment       0x0000007f       0x80 examples/beaconing/CMakeFiles/beaconing_nrf52840_xxAA_s140_6.0.0.dir/__/common/src/mesh_softdevice_init.c.obj
 .comment       0x0000007f       0x80 examples/beaconing/CMakeFiles/beaconing_nrf52840_xxAA_s140_6.0.0.dir/__/common/src/mesh_provisionee.c.obj
 .comment       0x0000007f       0x80 examples/beaconing/CMakeFiles/beaconing_nrf52840_xxAA_s140_6.0.0.dir/__/common/src/simple_hal.c.obj
 .comment       0x0000007f       0x80 examples/beaconing/CMakeFiles/beaconing_nrf52840_xxAA_s140_6.0.0.dir/__/__/mesh/access/src/access_publish.c.obj
 .comment       0x0000007f       0x80 examples/beaconing/CMakeFiles/beaconing_nrf52840_xxAA_s140_6.0.0.dir/__/__/mesh/access/src/access.c.obj
 .comment       0x0000007f       0x80 examples/beaconing/CMakeFiles/beaconing_nrf52840_xxAA_s140_6.0.0.dir/__/__/mesh/access/src/access_reliable.c.obj
 .comment       0x0000007f       0x80 examples/beaconing/CMakeFiles/beaconing_nrf52840_xxAA_s140_6.0.0.dir/__/__/mesh/access/src/device_state_manager.c.obj
 .comment       0x0000007f       0x80 examples/beaconing/CMakeFiles/beaconing_nrf52840_xxAA_s140_6.0.0.dir/__/nrf_mesh_weak.c.obj
 .comment       0x0000007f       0x80 examples/beaconing/CMakeFiles/beaconing_nrf52840_xxAA_s140_6.0.0.dir/__/common/src/app_error_weak.c.obj
 .comment       0x0000007f       0x80 examples/beaconing/CMakeFiles/beaconing_nrf52840_xxAA_s140_6.0.0.dir/__/common/src/assertion_handler_weak.c.obj
 .comment       0x0000007f       0x80 examples/beaconing/CMakeFiles/beaconing_nrf52840_xxAA_s140_6.0.0.dir/__/__/models/config/src/composition_data.c.obj
 .comment       0x0000007f       0x80 examples/beaconing/CMakeFiles/beaconing_nrf52840_xxAA_s140_6.0.0.dir/__/__/models/config/src/config_server.c.obj
 .comment       0x0000007f       0x80 examples/beaconing/CMakeFiles/beaconing_nrf52840_xxAA_s140_6.0.0.dir/__/__/models/config/src/packed_index_list.c.obj
 .comment       0x0000007f       0x80 examples/beaconing/CMakeFiles/beaconing_nrf52840_xxAA_s140_6.0.0.dir/__/__/models/health/src/health_server.c.obj
 .comment       0x0000007f       0x80 examples/beaconing/CMakeFiles/beaconing_nrf52840_xxAA_s140_6.0.0.dir/__/__/mesh/prov/src/prov_provisionee.c.obj
 .comment       0x0000007f       0x80 examples/beaconing/CMakeFiles/beaconing_nrf52840_xxAA_s140_6.0.0.dir/__/__/mesh/prov/src/nrf_mesh_prov.c.obj
 .comment       0x0000007f       0x80 examples/beaconing/CMakeFiles/beaconing_nrf52840_xxAA_s140_6.0.0.dir/__/__/mesh/prov/src/provisioning.c.obj
 .comment       0x0000007f       0x80 examples/beaconing/CMakeFiles/beaconing_nrf52840_xxAA_s140_6.0.0.dir/__/__/mesh/prov/src/prov_beacon.c.obj
 .comment       0x0000007f       0x80 examples/beaconing/CMakeFiles/beaconing_nrf52840_xxAA_s140_6.0.0.dir/__/__/mesh/prov/src/prov_utils.c.obj
 .comment       0x0000007f       0x80 examples/beaconing/CMakeFiles/beaconing_nrf52840_xxAA_s140_6.0.0.dir/__/__/mesh/prov/src/prov_bearer_adv.c.obj
 .comment       0x0000007f       0x80 examples/beaconing/CMakeFiles/beaconing_nrf52840_xxAA_s140_6.0.0.dir/__/__/mesh/core/src/nrf_mesh_configure.c.obj
 .comment       0x0000007f       0x80 examples/beaconing/CMakeFiles/beaconing_nrf52840_xxAA_s140_6.0.0.dir/__/__/mesh/core/src/aes.c.obj
 .comment       0x0000007f       0x80 examples/beaconing/CMakeFiles/beaconing_nrf52840_xxAA_s140_6.0.0.dir/__/__/mesh/core/src/msg_cache.c.obj
 .comment       0x0000007f       0x80 examples/beaconing/CMakeFiles/beaconing_nrf52840_xxAA_s140_6.0.0.dir/__/__/mesh/core/src/transport.c.obj
 .comment       0x0000007f       0x80 examples/beaconing/CMakeFiles/beaconing_nrf52840_xxAA_s140_6.0.0.dir/__/__/mesh/core/src/event.c.obj
 .comment       0x0000007f       0x80 examples/beaconing/CMakeFiles/beaconing_nrf52840_xxAA_s140_6.0.0.dir/__/__/mesh/core/src/packet_buffer.c.obj
 .comment       0x0000007f       0x80 examples/beaconing/CMakeFiles/beaconing_nrf52840_xxAA_s140_6.0.0.dir/__/__/mesh/core/src/flash_manager_defrag.c.obj
 .comment       0x0000007f       0x80 examples/beaconing/CMakeFiles/beaconing_nrf52840_xxAA_s140_6.0.0.dir/__/__/mesh/core/src/fifo.c.obj
 .comment       0x0000007f       0x80 examples/beaconing/CMakeFiles/beaconing_nrf52840_xxAA_s140_6.0.0.dir/__/__/mesh/core/src/nrf_flash.c.obj
 .comment       0x0000007f       0x80 examples/beaconing/CMakeFiles/beaconing_nrf52840_xxAA_s140_6.0.0.dir/__/__/mesh/core/src/packet_mgr.c.obj
 .comment       0x0000007f       0x80 examples/beaconing/CMakeFiles/beaconing_nrf52840_xxAA_s140_6.0.0.dir/__/__/mesh/core/src/net_state.c.obj
 .comment       0x0000007f       0x80 examples/beaconing/CMakeFiles/beaconing_nrf52840_xxAA_s140_6.0.0.dir/__/__/mesh/core/src/mesh_flash.c.obj
 .comment       0x0000007f       0x80 examples/beaconing/CMakeFiles/beaconing_nrf52840_xxAA_s140_6.0.0.dir/__/__/mesh/core/src/nrf_mesh_utils.c.obj
 .comment       0x0000007f       0x80 examples/beaconing/CMakeFiles/beaconing_nrf52840_xxAA_s140_6.0.0.dir/__/__/mesh/core/src/nrf_mesh.c.obj
 .comment       0x0000007f       0x80 examples/beaconing/CMakeFiles/beaconing_nrf52840_xxAA_s140_6.0.0.dir/__/__/mesh/core/src/queue.c.obj
 .comment       0x0000007f       0x80 examples/beaconing/CMakeFiles/beaconing_nrf52840_xxAA_s140_6.0.0.dir/__/__/mesh/core/src/hal.c.obj
 .comment       0x0000007f       0x80 examples/beaconing/CMakeFiles/beaconing_nrf52840_xxAA_s140_6.0.0.dir/__/__/mesh/core/src/aes_cmac.c.obj
 .comment       0x0000007f       0x80 examples/beaconing/CMakeFiles/beaconing_nrf52840_xxAA_s140_6.0.0.dir/__/__/mesh/core/src/timer_scheduler.c.obj
 .comment       0x0000007f       0x80 examples/beaconing/CMakeFiles/beaconing_nrf52840_xxAA_s140_6.0.0.dir/__/__/mesh/core/src/timer.c.obj
 .comment       0x0000007f       0x80 examples/beaconing/CMakeFiles/beaconing_nrf52840_xxAA_s140_6.0.0.dir/__/__/mesh/core/src/ticker.c.obj
 .comment       0x0000007f       0x80 examples/beaconing/CMakeFiles/beaconing_nrf52840_xxAA_s140_6.0.0.dir/__/__/mesh/core/src/rand.c.obj
 .comment       0x0000007f       0x80 examples/beaconing/CMakeFiles/beaconing_nrf52840_xxAA_s140_6.0.0.dir/__/__/mesh/core/src/nrf_mesh_opt.c.obj
 .comment       0x0000007f       0x80 examples/beaconing/CMakeFiles/beaconing_nrf52840_xxAA_s140_6.0.0.dir/__/__/mesh/core/src/timeslot.c.obj
 .comment       0x0000007f       0x80 examples/beaconing/CMakeFiles/beaconing_nrf52840_xxAA_s140_6.0.0.dir/__/__/mesh/core/src/bearer_event.c.obj
 .comment       0x0000007f       0x80 examples/beaconing/CMakeFiles/beaconing_nrf52840_xxAA_s140_6.0.0.dir/__/__/mesh/core/src/enc.c.obj
 .comment       0x0000007f       0x80 examples/beaconing/CMakeFiles/beaconing_nrf52840_xxAA_s140_6.0.0.dir/__/__/mesh/core/src/network.c.obj
 .comment       0x0000007f       0x80 examples/beaconing/CMakeFiles/beaconing_nrf52840_xxAA_s140_6.0.0.dir/__/__/mesh/core/src/net_packet.c.obj
 .comment       0x0000007f       0x80 examples/beaconing/CMakeFiles/beaconing_nrf52840_xxAA_s140_6.0.0.dir/__/__/mesh/core/src/msqueue.c.obj
 .comment       0x0000007f       0x80 examples/beaconing/CMakeFiles/beaconing_nrf52840_xxAA_s140_6.0.0.dir/__/__/mesh/core/src/nrf_mesh_keygen.c.obj
 .comment       0x0000007f       0x80 examples/beaconing/CMakeFiles/beaconing_nrf52840_xxAA_s140_6.0.0.dir/__/__/mesh/core/src/list.c.obj
 .comment       0x0000007f       0x80 examples/beaconing/CMakeFiles/beaconing_nrf52840_xxAA_s140_6.0.0.dir/__/__/mesh/core/src/log.c.obj
 .comment       0x0000007f       0x80 examples/beaconing/CMakeFiles/beaconing_nrf52840_xxAA_s140_6.0.0.dir/__/__/mesh/core/src/flash_manager.c.obj
 .comment       0x0000007f       0x80 examples/beaconing/CMakeFiles/beaconing_nrf52840_xxAA_s140_6.0.0.dir/__/__/mesh/core/src/ccm_soft.c.obj
 .comment       0x0000007f       0x80 examples/beaconing/CMakeFiles/beaconing_nrf52840_xxAA_s140_6.0.0.dir/__/__/mesh/core/src/replay_cache.c.obj
 .comment       0x0000007f       0x80 examples/beaconing/CMakeFiles/beaconing_nrf52840_xxAA_s140_6.0.0.dir/__/__/mesh/core/src/beacon.c.obj
 .comment       0x0000007f       0x80 examples/beaconing/CMakeFiles/beaconing_nrf52840_xxAA_s140_6.0.0.dir/__/__/mesh/core/src/flash_manager_internal.c.obj
 .comment       0x0000007f       0x80 examples/beaconing/CMakeFiles/beaconing_nrf52840_xxAA_s140_6.0.0.dir/__/__/mesh/core/src/core_tx.c.obj
 .comment       0x0000007f       0x80 examples/beaconing/CMakeFiles/beaconing_nrf52840_xxAA_s140_6.0.0.dir/__/__/mesh/core/src/heartbeat.c.obj
 .comment       0x0000007f       0x80 examples/beaconing/CMakeFiles/beaconing_nrf52840_xxAA_s140_6.0.0.dir/__/__/mesh/core/src/net_beacon.c.obj
 .comment       0x0000007f       0x80 examples/beaconing/CMakeFiles/beaconing_nrf52840_xxAA_s140_6.0.0.dir/__/__/mesh/core/src/core_tx_adv.c.obj
 .comment       0x0000007f       0x80 examples/beaconing/CMakeFiles/beaconing_nrf52840_xxAA_s140_6.0.0.dir/__/__/mesh/bearer/src/ad_listener.c.obj
 .comment       0x0000007f       0x80 examples/beaconing/CMakeFiles/beaconing_nrf52840_xxAA_s140_6.0.0.dir/__/__/mesh/bearer/src/ad_type_filter.c.obj
 .comment       0x0000007f       0x80 examples/beaconing/CMakeFiles/beaconing_nrf52840_xxAA_s140_6.0.0.dir/__/__/mesh/bearer/src/advertiser.c.obj
 .comment       0x0000007f       0x80 examples/beaconing/CMakeFiles/beaconing_nrf52840_xxAA_s140_6.0.0.dir/__/__/mesh/bearer/src/bearer_handler.c.obj
 .comment       0x0000007f       0x80 examples/beaconing/CMakeFiles/beaconing_nrf52840_xxAA_s140_6.0.0.dir/__/__/mesh/bearer/src/broadcast.c.obj
 .comment       0x0000007f       0x80 examples/beaconing/CMakeFiles/beaconing_nrf52840_xxAA_s140_6.0.0.dir/__/__/mesh/bearer/src/filter_engine.c.obj
 .comment       0x0000007f       0x80 examples/beaconing/CMakeFiles/beaconing_nrf52840_xxAA_s140_6.0.0.dir/__/__/mesh/bearer/src/radio_config.c.obj
 .comment       0x0000007f       0x80 examples/beaconing/CMakeFiles/beaconing_nrf52840_xxAA_s140_6.0.0.dir/__/__/mesh/bearer/src/scanner.c.obj
 .comment       0x0000007f       0x80 examples/beaconing/CMakeFiles/beaconing_nrf52840_xxAA_s140_6.0.0.dir/C_/ver/mod/nRF5_SDK_15.0.0_a53641a/modules/nrfx/mdk/system_nrf52840.c.obj
 .comment       0x0000007f       0x80 examples/beaconing/CMakeFiles/beaconing_nrf52840_xxAA_s140_6.0.0.dir/C_/ver/mod/nRF5_SDK_15.0.0_a53641a/components/libraries/util/app_error.c.obj
 .comment       0x0000007f       0x80 examples/beaconing/CMakeFiles/beaconing_nrf52840_xxAA_s140_6.0.0.dir/C_/ver/mod/nRF5_SDK_15.0.0_a53641a/components/libraries/util/app_error_handler_gcc.c.obj
 .comment       0x0000007f       0x80 external/rtt/librtt_nrf52840_xxAA.a(SEGGER_RTT.c.obj)
 .comment       0x0000007f       0x80 external/rtt/librtt_nrf52840_xxAA.a(SEGGER_RTT_printf.c.obj)
 .comment       0x0000007f       0x80 external/micro-ecc/libuECC_nrf52840_xxAA.a(uECC.c.obj)

.debug_frame    0x00000000      0x4a8
 .debug_frame   0x00000000       0x28 c:/mesh/arm_gcc/bin/../lib/gcc/arm-none-eabi/6.3.1/../../../../arm-none-eabi/lib/thumb/v7e-m/fpv4-sp/hard\libc_nano.a(lib_a-exit.o)
 .debug_frame   0x00000028       0x2c c:/mesh/arm_gcc/bin/../lib/gcc/arm-none-eabi/6.3.1/../../../../arm-none-eabi/lib/thumb/v7e-m/fpv4-sp/hard\libc_nano.a(lib_a-init.o)
 .debug_frame   0x00000054       0x30 c:/mesh/arm_gcc/bin/../lib/gcc/arm-none-eabi/6.3.1/../../../../arm-none-eabi/lib/thumb/v7e-m/fpv4-sp/hard\libc_nano.a(lib_a-malloc.o)
 .debug_frame   0x00000084       0x28 c:/mesh/arm_gcc/bin/../lib/gcc/arm-none-eabi/6.3.1/../../../../arm-none-eabi/lib/thumb/v7e-m/fpv4-sp/hard\libc_nano.a(lib_a-memcmp.o)
 .debug_frame   0x000000ac       0x28 c:/mesh/arm_gcc/bin/../lib/gcc/arm-none-eabi/6.3.1/../../../../arm-none-eabi/lib/thumb/v7e-m/fpv4-sp/hard\libc_nano.a(lib_a-memcpy-stub.o)
 .debug_frame   0x000000d4       0x20 c:/mesh/arm_gcc/bin/../lib/gcc/arm-none-eabi/6.3.1/../../../../arm-none-eabi/lib/thumb/v7e-m/fpv4-sp/hard\libc_nano.a(lib_a-memset.o)
 .debug_frame   0x000000f4       0x38 c:/mesh/arm_gcc/bin/../lib/gcc/arm-none-eabi/6.3.1/../../../../arm-none-eabi/lib/thumb/v7e-m/fpv4-sp/hard\libc_nano.a(lib_a-nano-freer.o)
 .debug_frame   0x0000012c       0x2c c:/mesh/arm_gcc/bin/../lib/gcc/arm-none-eabi/6.3.1/../../../../arm-none-eabi/lib/thumb/v7e-m/fpv4-sp/hard\libc_nano.a(lib_a-nano-mallocr.o)
 .debug_frame   0x00000158       0x2c c:/mesh/arm_gcc/bin/../lib/gcc/arm-none-eabi/6.3.1/../../../../arm-none-eabi/lib/thumb/v7e-m/fpv4-sp/hard\libc_nano.a(lib_a-sbrkr.o)
 .debug_frame   0x00000184       0x70 c:/mesh/arm_gcc/bin/../lib/gcc/arm-none-eabi/6.3.1/../../../../arm-none-eabi/lib/thumb/v7e-m/fpv4-sp/hard\libc_nano.a(lib_a-sprintf.o)
 .debug_frame   0x000001f4       0x20 c:/mesh/arm_gcc/bin/../lib/gcc/arm-none-eabi/6.3.1/../../../../arm-none-eabi/lib/thumb/v7e-m/fpv4-sp/hard\libc_nano.a(lib_a-strcpy.o)
 .debug_frame   0x00000214       0x34 c:/mesh/arm_gcc/bin/../lib/gcc/arm-none-eabi/6.3.1/../../../../arm-none-eabi/lib/thumb/v7e-m/fpv4-sp/hard\libc_nano.a(lib_a-strrchr.o)
 .debug_frame   0x00000248       0x30 c:/mesh/arm_gcc/bin/../lib/gcc/arm-none-eabi/6.3.1/../../../../arm-none-eabi/lib/thumb/v7e-m/fpv4-sp/hard\libc_nano.a(lib_a-mlock.o)
 .debug_frame   0x00000278       0x90 c:/mesh/arm_gcc/bin/../lib/gcc/arm-none-eabi/6.3.1/../../../../arm-none-eabi/lib/thumb/v7e-m/fpv4-sp/hard\libc_nano.a(lib_a-nano-svfprintf.o)
 .debug_frame   0x00000308       0x60 c:/mesh/arm_gcc/bin/../lib/gcc/arm-none-eabi/6.3.1/../../../../arm-none-eabi/lib/thumb/v7e-m/fpv4-sp/hard\libc_nano.a(lib_a-nano-vfprintf_i.o)
 .debug_frame   0x00000368       0x5c c:/mesh/arm_gcc/bin/../lib/gcc/arm-none-eabi/6.3.1/../../../../arm-none-eabi/lib/thumb/v7e-m/fpv4-sp/hard\libc_nano.a(lib_a-reent.o)
 .debug_frame   0x000003c4       0x20 c:/mesh/arm_gcc/bin/../lib/gcc/arm-none-eabi/6.3.1/../../../../arm-none-eabi/lib/thumb/v7e-m/fpv4-sp/hard\libc_nano.a(lib_a-strchr.o)
 .debug_frame   0x000003e4       0x28 c:/mesh/arm_gcc/bin/../lib/gcc/arm-none-eabi/6.3.1/../../../../arm-none-eabi/lib/thumb/v7e-m/fpv4-sp/hard\libc_nano.a(lib_a-memmove.o)
 .debug_frame   0x0000040c       0x3c c:/mesh/arm_gcc/bin/../lib/gcc/arm-none-eabi/6.3.1/../../../../arm-none-eabi/lib/thumb/v7e-m/fpv4-sp/hard\libc_nano.a(lib_a-nano-reallocr.o)
 .debug_frame   0x00000448       0x20 c:/mesh/arm_gcc/bin/../lib/gcc/arm-none-eabi/6.3.1/../../../../arm-none-eabi/lib/thumb/v7e-m/fpv4-sp/hard\libc_nano.a(lib_a-nano-msizer.o)
 .debug_frame   0x00000468       0x20 c:/mesh/arm_gcc/bin/../lib/gcc/arm-none-eabi/6.3.1/../../../../arm-none-eabi/lib/thumb/v7e-m/fpv4-sp/hard\libnosys.a(sbrk.o)
 .debug_frame   0x00000488       0x20 c:/mesh/arm_gcc/bin/../lib/gcc/arm-none-eabi/6.3.1/../../../../arm-none-eabi/lib/thumb/v7e-m/fpv4-sp/hard\libnosys.a(_exit.o)
