Archive member included to satisfy reference by file (symbol)

external/rtt/librtt_nrf52832_xxAA.a(SEGGER_RTT.c.obj)
                              examples/dfu/CMakeFiles/dfu_no_serial_nrf52832_xxAA_s132_6.0.0.dir/__/__/mesh/core/src/log.c.obj (SEGGER_RTT_Write)
external/rtt/librtt_nrf52832_xxAA.a(SEGGER_RTT_printf.c.obj)
                              examples/dfu/CMakeFiles/dfu_no_serial_nrf52832_xxAA_s132_6.0.0.dir/__/__/mesh/core/src/log.c.obj (SEGGER_RTT_vprintf)
external/micro-ecc/libuECC_nrf52832_xxAA.a(uECC.c.obj)
                              examples/dfu/CMakeFiles/dfu_no_serial_nrf52832_xxAA_s132_6.0.0.dir/__/__/mesh/prov/src/prov_utils.c.obj (uECC_secp256r1)
c:/mesh/arm_gcc/bin/../lib/gcc/arm-none-eabi/6.3.1/../../../../arm-none-eabi/lib/thumb/v7e-m/fpv4-sp/hard\libc_nano.a(lib_a-exit.o)
                              c:/mesh/arm_gcc/bin/../lib/gcc/arm-none-eabi/6.3.1/../../../../arm-none-eabi/lib/thumb/v7e-m/fpv4-sp/hard/crt0.o (exit)
c:/mesh/arm_gcc/bin/../lib/gcc/arm-none-eabi/6.3.1/../../../../arm-none-eabi/lib/thumb/v7e-m/fpv4-sp/hard\libc_nano.a(lib_a-impure.o)
                              c:/mesh/arm_gcc/bin/../lib/gcc/arm-none-eabi/6.3.1/../../../../arm-none-eabi/lib/thumb/v7e-m/fpv4-sp/hard\libc_nano.a(lib_a-exit.o) (_global_impure_ptr)
c:/mesh/arm_gcc/bin/../lib/gcc/arm-none-eabi/6.3.1/../../../../arm-none-eabi/lib/thumb/v7e-m/fpv4-sp/hard\libc_nano.a(lib_a-init.o)
                              c:/mesh/arm_gcc/bin/../lib/gcc/arm-none-eabi/6.3.1/../../../../arm-none-eabi/lib/thumb/v7e-m/fpv4-sp/hard/crt0.o (__libc_init_array)
c:/mesh/arm_gcc/bin/../lib/gcc/arm-none-eabi/6.3.1/../../../../arm-none-eabi/lib/thumb/v7e-m/fpv4-sp/hard\libc_nano.a(lib_a-malloc.o)
                              examples/dfu/CMakeFiles/dfu_no_serial_nrf52832_xxAA_s132_6.0.0.dir/__/__/mesh/core/src/transport.c.obj (malloc)
c:/mesh/arm_gcc/bin/../lib/gcc/arm-none-eabi/6.3.1/../../../../arm-none-eabi/lib/thumb/v7e-m/fpv4-sp/hard\libc_nano.a(lib_a-memcmp.o)
                              examples/dfu/CMakeFiles/dfu_no_serial_nrf52832_xxAA_s132_6.0.0.dir/__/__/mesh/access/src/device_state_manager.c.obj (memcmp)
c:/mesh/arm_gcc/bin/../lib/gcc/arm-none-eabi/6.3.1/../../../../arm-none-eabi/lib/thumb/v7e-m/fpv4-sp/hard\libc_nano.a(lib_a-memcpy-stub.o)
                              examples/dfu/CMakeFiles/dfu_no_serial_nrf52832_xxAA_s132_6.0.0.dir/__/__/mesh/access/src/access.c.obj (memcpy)
c:/mesh/arm_gcc/bin/../lib/gcc/arm-none-eabi/6.3.1/../../../../arm-none-eabi/lib/thumb/v7e-m/fpv4-sp/hard\libc_nano.a(lib_a-memset.o)
                              c:/mesh/arm_gcc/bin/../lib/gcc/arm-none-eabi/6.3.1/../../../../arm-none-eabi/lib/thumb/v7e-m/fpv4-sp/hard/crt0.o (memset)
c:/mesh/arm_gcc/bin/../lib/gcc/arm-none-eabi/6.3.1/../../../../arm-none-eabi/lib/thumb/v7e-m/fpv4-sp/hard\libc_nano.a(lib_a-nano-freer.o)
                              c:/mesh/arm_gcc/bin/../lib/gcc/arm-none-eabi/6.3.1/../../../../arm-none-eabi/lib/thumb/v7e-m/fpv4-sp/hard\libc_nano.a(lib_a-malloc.o) (_free_r)
c:/mesh/arm_gcc/bin/../lib/gcc/arm-none-eabi/6.3.1/../../../../arm-none-eabi/lib/thumb/v7e-m/fpv4-sp/hard\libc_nano.a(lib_a-nano-mallocr.o)
                              c:/mesh/arm_gcc/bin/../lib/gcc/arm-none-eabi/6.3.1/../../../../arm-none-eabi/lib/thumb/v7e-m/fpv4-sp/hard\libc_nano.a(lib_a-malloc.o) (_malloc_r)
c:/mesh/arm_gcc/bin/../lib/gcc/arm-none-eabi/6.3.1/../../../../arm-none-eabi/lib/thumb/v7e-m/fpv4-sp/hard\libc_nano.a(lib_a-sbrkr.o)
                              c:/mesh/arm_gcc/bin/../lib/gcc/arm-none-eabi/6.3.1/../../../../arm-none-eabi/lib/thumb/v7e-m/fpv4-sp/hard\libc_nano.a(lib_a-nano-mallocr.o) (_sbrk_r)
c:/mesh/arm_gcc/bin/../lib/gcc/arm-none-eabi/6.3.1/../../../../arm-none-eabi/lib/thumb/v7e-m/fpv4-sp/hard\libc_nano.a(lib_a-strcpy.o)
                              external/rtt/librtt_nrf52832_xxAA.a(SEGGER_RTT.c.obj) (strcpy)
c:/mesh/arm_gcc/bin/../lib/gcc/arm-none-eabi/6.3.1/../../../../arm-none-eabi/lib/thumb/v7e-m/fpv4-sp/hard\libc_nano.a(lib_a-strlen.o)
                              examples/dfu/CMakeFiles/dfu_no_serial_nrf52832_xxAA_s132_6.0.0.dir/__/__/mesh/prov/src/prov_beacon.c.obj (strlen)
c:/mesh/arm_gcc/bin/../lib/gcc/arm-none-eabi/6.3.1/../../../../arm-none-eabi/lib/thumb/v7e-m/fpv4-sp/hard\libc_nano.a(lib_a-strrchr.o)
                              examples/dfu/CMakeFiles/dfu_no_serial_nrf52832_xxAA_s132_6.0.0.dir/src/main.c.obj (strrchr)
c:/mesh/arm_gcc/bin/../lib/gcc/arm-none-eabi/6.3.1/../../../../arm-none-eabi/lib/thumb/v7e-m/fpv4-sp/hard\libc_nano.a(lib_a-mlock.o)
                              c:/mesh/arm_gcc/bin/../lib/gcc/arm-none-eabi/6.3.1/../../../../arm-none-eabi/lib/thumb/v7e-m/fpv4-sp/hard\libc_nano.a(lib_a-nano-freer.o) (__malloc_lock)
c:/mesh/arm_gcc/bin/../lib/gcc/arm-none-eabi/6.3.1/../../../../arm-none-eabi/lib/thumb/v7e-m/fpv4-sp/hard\libc_nano.a(lib_a-reent.o)
                              c:/mesh/arm_gcc/bin/../lib/gcc/arm-none-eabi/6.3.1/../../../../arm-none-eabi/lib/thumb/v7e-m/fpv4-sp/hard\libc_nano.a(lib_a-sbrkr.o) (errno)
c:/mesh/arm_gcc/bin/../lib/gcc/arm-none-eabi/6.3.1/../../../../arm-none-eabi/lib/thumb/v7e-m/fpv4-sp/hard\libc_nano.a(lib_a-strchr.o)
                              c:/mesh/arm_gcc/bin/../lib/gcc/arm-none-eabi/6.3.1/../../../../arm-none-eabi/lib/thumb/v7e-m/fpv4-sp/hard\libc_nano.a(lib_a-strrchr.o) (strchr)
c:/mesh/arm_gcc/bin/../lib/gcc/arm-none-eabi/6.3.1/../../../../arm-none-eabi/lib/thumb/v7e-m/fpv4-sp/hard\libnosys.a(sbrk.o)
                              c:/mesh/arm_gcc/bin/../lib/gcc/arm-none-eabi/6.3.1/../../../../arm-none-eabi/lib/thumb/v7e-m/fpv4-sp/hard\libc_nano.a(lib_a-sbrkr.o) (_sbrk)
c:/mesh/arm_gcc/bin/../lib/gcc/arm-none-eabi/6.3.1/../../../../arm-none-eabi/lib/thumb/v7e-m/fpv4-sp/hard\libnosys.a(_exit.o)
                              c:/mesh/arm_gcc/bin/../lib/gcc/arm-none-eabi/6.3.1/../../../../arm-none-eabi/lib/thumb/v7e-m/fpv4-sp/hard\libc_nano.a(lib_a-exit.o) (_exit)

Allocating common symbols
Common symbol       size              file

nrf_nvic_state      0xc               examples/dfu/CMakeFiles/dfu_no_serial_nrf52832_xxAA_s132_6.0.0.dir/__/common/src/mesh_softdevice_init.c.obj
m_packet            0x24              examples/dfu/CMakeFiles/dfu_no_serial_nrf52832_xxAA_s132_6.0.0.dir/__/__/mesh/core/src/core_tx.c.obj
bank_addr           0x4               examples/dfu/CMakeFiles/dfu_no_serial_nrf52832_xxAA_s132_6.0.0.dir/src/main.c.obj
rom_length          0x4               examples/dfu/CMakeFiles/dfu_no_serial_nrf52832_xxAA_s132_6.0.0.dir/src/main.c.obj
m_cmd_handler       0x4               examples/dfu/CMakeFiles/dfu_no_serial_nrf52832_xxAA_s132_6.0.0.dir/__/__/mesh/dfu/src/nrf_mesh_dfu.c.obj
errno               0x4               c:/mesh/arm_gcc/bin/../lib/gcc/arm-none-eabi/6.3.1/../../../../arm-none-eabi/lib/thumb/v7e-m/fpv4-sp/hard\libc_nano.a(lib_a-reent.o)
_SEGGER_RTT         0x78              external/rtt/librtt_nrf52832_xxAA.a(SEGGER_RTT.c.obj)

Discarded input sections

 .text          0x00000000        0x0 c:/mesh/arm_gcc/bin/../lib/gcc/arm-none-eabi/6.3.1/thumb/v7e-m/fpv4-sp/hard/crti.o
 .data          0x00000000        0x0 c:/mesh/arm_gcc/bin/../lib/gcc/arm-none-eabi/6.3.1/thumb/v7e-m/fpv4-sp/hard/crti.o
 .bss           0x00000000        0x0 c:/mesh/arm_gcc/bin/../lib/gcc/arm-none-eabi/6.3.1/thumb/v7e-m/fpv4-sp/hard/crti.o
 .data          0x00000000        0x4 c:/mesh/arm_gcc/bin/../lib/gcc/arm-none-eabi/6.3.1/thumb/v7e-m/fpv4-sp/hard/crtbegin.o
 .data          0x00000000        0x0 c:/mesh/arm_gcc/bin/../lib/gcc/arm-none-eabi/6.3.1/../../../../arm-none-eabi/lib/thumb/v7e-m/fpv4-sp/hard/crt0.o
 .bss           0x00000000        0x0 c:/mesh/arm_gcc/bin/../lib/gcc/arm-none-eabi/6.3.1/../../../../arm-none-eabi/lib/thumb/v7e-m/fpv4-sp/hard/crt0.o
 .ARM.extab     0x00000000        0x0 c:/mesh/arm_gcc/bin/../lib/gcc/arm-none-eabi/6.3.1/../../../../arm-none-eabi/lib/thumb/v7e-m/fpv4-sp/hard/crt0.o
 .text          0x00000000        0x0 examples/dfu/CMakeFiles/dfu_no_serial_nrf52832_xxAA_s132_6.0.0.dir/src/main.c.obj
 .data          0x00000000        0x0 examples/dfu/CMakeFiles/dfu_no_serial_nrf52832_xxAA_s132_6.0.0.dir/src/main.c.obj
 .bss           0x00000000        0x0 examples/dfu/CMakeFiles/dfu_no_serial_nrf52832_xxAA_s132_6.0.0.dir/src/main.c.obj
 .text          0x00000000        0x0 examples/dfu/CMakeFiles/dfu_no_serial_nrf52832_xxAA_s132_6.0.0.dir/__/__/mesh/stack/src/mesh_stack.c.obj
 .data          0x00000000        0x0 examples/dfu/CMakeFiles/dfu_no_serial_nrf52832_xxAA_s132_6.0.0.dir/__/__/mesh/stack/src/mesh_stack.c.obj
 .bss           0x00000000        0x0 examples/dfu/CMakeFiles/dfu_no_serial_nrf52832_xxAA_s132_6.0.0.dir/__/__/mesh/stack/src/mesh_stack.c.obj
 .text.mesh_stack_is_device_provisioned
                0x00000000       0x1c examples/dfu/CMakeFiles/dfu_no_serial_nrf52832_xxAA_s132_6.0.0.dir/__/__/mesh/stack/src/mesh_stack.c.obj
 .text          0x00000000        0x0 examples/dfu/CMakeFiles/dfu_no_serial_nrf52832_xxAA_s132_6.0.0.dir/__/common/src/mesh_softdevice_init.c.obj
 .data          0x00000000        0x0 examples/dfu/CMakeFiles/dfu_no_serial_nrf52832_xxAA_s132_6.0.0.dir/__/common/src/mesh_softdevice_init.c.obj
 .bss           0x00000000        0x0 examples/dfu/CMakeFiles/dfu_no_serial_nrf52832_xxAA_s132_6.0.0.dir/__/common/src/mesh_softdevice_init.c.obj
 .text          0x00000000        0x0 examples/dfu/CMakeFiles/dfu_no_serial_nrf52832_xxAA_s132_6.0.0.dir/__/common/src/mesh_provisionee.c.obj
 .data          0x00000000        0x0 examples/dfu/CMakeFiles/dfu_no_serial_nrf52832_xxAA_s132_6.0.0.dir/__/common/src/mesh_provisionee.c.obj
 .bss           0x00000000        0x0 examples/dfu/CMakeFiles/dfu_no_serial_nrf52832_xxAA_s132_6.0.0.dir/__/common/src/mesh_provisionee.c.obj
 .text          0x00000000        0x0 examples/dfu/CMakeFiles/dfu_no_serial_nrf52832_xxAA_s132_6.0.0.dir/__/common/src/simple_hal.c.obj
 .data          0x00000000        0x0 examples/dfu/CMakeFiles/dfu_no_serial_nrf52832_xxAA_s132_6.0.0.dir/__/common/src/simple_hal.c.obj
 .bss           0x00000000        0x0 examples/dfu/CMakeFiles/dfu_no_serial_nrf52832_xxAA_s132_6.0.0.dir/__/common/src/simple_hal.c.obj
 .text.hal_led_pin_get
                0x00000000       0x18 examples/dfu/CMakeFiles/dfu_no_serial_nrf52832_xxAA_s132_6.0.0.dir/__/common/src/simple_hal.c.obj
 .text.hal_led_pin_set
                0x00000000       0x18 examples/dfu/CMakeFiles/dfu_no_serial_nrf52832_xxAA_s132_6.0.0.dir/__/common/src/simple_hal.c.obj
 .text.hal_buttons_init
                0x00000000       0x54 examples/dfu/CMakeFiles/dfu_no_serial_nrf52832_xxAA_s132_6.0.0.dir/__/common/src/simple_hal.c.obj
 .text          0x00000000        0x0 examples/dfu/CMakeFiles/dfu_no_serial_nrf52832_xxAA_s132_6.0.0.dir/__/__/mesh/access/src/access_publish.c.obj
 .data          0x00000000        0x0 examples/dfu/CMakeFiles/dfu_no_serial_nrf52832_xxAA_s132_6.0.0.dir/__/__/mesh/access/src/access_publish.c.obj
 .bss           0x00000000        0x0 examples/dfu/CMakeFiles/dfu_no_serial_nrf52832_xxAA_s132_6.0.0.dir/__/__/mesh/access/src/access_publish.c.obj
 .text          0x00000000        0x0 examples/dfu/CMakeFiles/dfu_no_serial_nrf52832_xxAA_s132_6.0.0.dir/__/__/mesh/access/src/access.c.obj
 .data          0x00000000        0x0 examples/dfu/CMakeFiles/dfu_no_serial_nrf52832_xxAA_s132_6.0.0.dir/__/__/mesh/access/src/access.c.obj
 .bss           0x00000000        0x0 examples/dfu/CMakeFiles/dfu_no_serial_nrf52832_xxAA_s132_6.0.0.dir/__/__/mesh/access/src/access.c.obj
 .text.access_model_subscription_list_alloc
                0x00000000       0x60 examples/dfu/CMakeFiles/dfu_no_serial_nrf52832_xxAA_s132_6.0.0.dir/__/__/mesh/access/src/access.c.obj
 .text.access_model_subscription_lists_share
                0x00000000       0x60 examples/dfu/CMakeFiles/dfu_no_serial_nrf52832_xxAA_s132_6.0.0.dir/__/__/mesh/access/src/access.c.obj
 .text.access_element_location_set
                0x00000000       0x20 examples/dfu/CMakeFiles/dfu_no_serial_nrf52832_xxAA_s132_6.0.0.dir/__/__/mesh/access/src/access.c.obj
 .text          0x00000000        0x0 examples/dfu/CMakeFiles/dfu_no_serial_nrf52832_xxAA_s132_6.0.0.dir/__/__/mesh/access/src/access_reliable.c.obj
 .data          0x00000000        0x0 examples/dfu/CMakeFiles/dfu_no_serial_nrf52832_xxAA_s132_6.0.0.dir/__/__/mesh/access/src/access_reliable.c.obj
 .bss           0x00000000        0x0 examples/dfu/CMakeFiles/dfu_no_serial_nrf52832_xxAA_s132_6.0.0.dir/__/__/mesh/access/src/access_reliable.c.obj
 .text.access_model_reliable_publish
                0x00000000      0x1cc examples/dfu/CMakeFiles/dfu_no_serial_nrf52832_xxAA_s132_6.0.0.dir/__/__/mesh/access/src/access_reliable.c.obj
 .text          0x00000000        0x0 examples/dfu/CMakeFiles/dfu_no_serial_nrf52832_xxAA_s132_6.0.0.dir/__/__/mesh/access/src/device_state_manager.c.obj
 .data          0x00000000        0x0 examples/dfu/CMakeFiles/dfu_no_serial_nrf52832_xxAA_s132_6.0.0.dir/__/__/mesh/access/src/device_state_manager.c.obj
 .bss           0x00000000        0x0 examples/dfu/CMakeFiles/dfu_no_serial_nrf52832_xxAA_s132_6.0.0.dir/__/__/mesh/access/src/device_state_manager.c.obj
 .text.dsm_has_unflashed_data
                0x00000000       0x58 examples/dfu/CMakeFiles/dfu_no_serial_nrf52832_xxAA_s132_6.0.0.dir/__/__/mesh/access/src/device_state_manager.c.obj
 .text.dsm_address_subscription_count_get
                0x00000000       0x80 examples/dfu/CMakeFiles/dfu_no_serial_nrf52832_xxAA_s132_6.0.0.dir/__/__/mesh/access/src/device_state_manager.c.obj
 .text.dsm_address_get_all
                0x00000000      0x258 examples/dfu/CMakeFiles/dfu_no_serial_nrf52832_xxAA_s132_6.0.0.dir/__/__/mesh/access/src/device_state_manager.c.obj
 .text.dsm_subnet_handle_to_netkey_index
                0x00000000       0x34 examples/dfu/CMakeFiles/dfu_no_serial_nrf52832_xxAA_s132_6.0.0.dir/__/__/mesh/access/src/device_state_manager.c.obj
 .text.dsm_devkey_delete
                0x00000000       0x6c examples/dfu/CMakeFiles/dfu_no_serial_nrf52832_xxAA_s132_6.0.0.dir/__/__/mesh/access/src/device_state_manager.c.obj
 .text.dsm_devkey_handle_get
                0x00000000       0x3c examples/dfu/CMakeFiles/dfu_no_serial_nrf52832_xxAA_s132_6.0.0.dir/__/__/mesh/access/src/device_state_manager.c.obj
 .text.dsm_beacon_info_get
                0x00000000       0x34 examples/dfu/CMakeFiles/dfu_no_serial_nrf52832_xxAA_s132_6.0.0.dir/__/__/mesh/access/src/device_state_manager.c.obj
 .text          0x00000000        0x0 examples/dfu/CMakeFiles/dfu_no_serial_nrf52832_xxAA_s132_6.0.0.dir/__/__/models/config/src/composition_data.c.obj
 .data          0x00000000        0x0 examples/dfu/CMakeFiles/dfu_no_serial_nrf52832_xxAA_s132_6.0.0.dir/__/__/models/config/src/composition_data.c.obj
 .bss           0x00000000        0x0 examples/dfu/CMakeFiles/dfu_no_serial_nrf52832_xxAA_s132_6.0.0.dir/__/__/models/config/src/composition_data.c.obj
 .text          0x00000000        0x0 examples/dfu/CMakeFiles/dfu_no_serial_nrf52832_xxAA_s132_6.0.0.dir/__/__/models/config/src/config_server.c.obj
 .data          0x00000000        0x0 examples/dfu/CMakeFiles/dfu_no_serial_nrf52832_xxAA_s132_6.0.0.dir/__/__/models/config/src/config_server.c.obj
 .bss           0x00000000        0x0 examples/dfu/CMakeFiles/dfu_no_serial_nrf52832_xxAA_s132_6.0.0.dir/__/__/models/config/src/config_server.c.obj
 .text          0x00000000        0x0 examples/dfu/CMakeFiles/dfu_no_serial_nrf52832_xxAA_s132_6.0.0.dir/__/__/models/config/src/packed_index_list.c.obj
 .data          0x00000000        0x0 examples/dfu/CMakeFiles/dfu_no_serial_nrf52832_xxAA_s132_6.0.0.dir/__/__/models/config/src/packed_index_list.c.obj
 .bss           0x00000000        0x0 examples/dfu/CMakeFiles/dfu_no_serial_nrf52832_xxAA_s132_6.0.0.dir/__/__/models/config/src/packed_index_list.c.obj
 .text          0x00000000        0x0 examples/dfu/CMakeFiles/dfu_no_serial_nrf52832_xxAA_s132_6.0.0.dir/__/__/models/health/src/health_server.c.obj
 .data          0x00000000        0x0 examples/dfu/CMakeFiles/dfu_no_serial_nrf52832_xxAA_s132_6.0.0.dir/__/__/models/health/src/health_server.c.obj
 .bss           0x00000000        0x0 examples/dfu/CMakeFiles/dfu_no_serial_nrf52832_xxAA_s132_6.0.0.dir/__/__/models/health/src/health_server.c.obj
 .text.health_server_fault_register
                0x00000000      0x238 examples/dfu/CMakeFiles/dfu_no_serial_nrf52832_xxAA_s132_6.0.0.dir/__/__/models/health/src/health_server.c.obj
 .text.health_server_fault_clear
                0x00000000      0x2f4 examples/dfu/CMakeFiles/dfu_no_serial_nrf52832_xxAA_s132_6.0.0.dir/__/__/models/health/src/health_server.c.obj
 .text.health_server_fault_is_set
                0x00000000       0x1c examples/dfu/CMakeFiles/dfu_no_serial_nrf52832_xxAA_s132_6.0.0.dir/__/__/models/health/src/health_server.c.obj
 .text.health_server_fault_count_get
                0x00000000      0x154 examples/dfu/CMakeFiles/dfu_no_serial_nrf52832_xxAA_s132_6.0.0.dir/__/__/models/health/src/health_server.c.obj
 .text.health_server_attention_get
                0x00000000        0x8 examples/dfu/CMakeFiles/dfu_no_serial_nrf52832_xxAA_s132_6.0.0.dir/__/__/models/health/src/health_server.c.obj
 .text.health_server_attention_set
                0x00000000       0x98 examples/dfu/CMakeFiles/dfu_no_serial_nrf52832_xxAA_s132_6.0.0.dir/__/__/models/health/src/health_server.c.obj
 .text          0x00000000        0x0 examples/dfu/CMakeFiles/dfu_no_serial_nrf52832_xxAA_s132_6.0.0.dir/__/__/mesh/prov/src/prov_provisioner.c.obj
 .data          0x00000000        0x0 examples/dfu/CMakeFiles/dfu_no_serial_nrf52832_xxAA_s132_6.0.0.dir/__/__/mesh/prov/src/prov_provisioner.c.obj
 .bss           0x00000000        0x0 examples/dfu/CMakeFiles/dfu_no_serial_nrf52832_xxAA_s132_6.0.0.dir/__/__/mesh/prov/src/prov_provisioner.c.obj
 .text.prov_provisioner_cb_link_closed
                0x00000000       0x2c examples/dfu/CMakeFiles/dfu_no_serial_nrf52832_xxAA_s132_6.0.0.dir/__/__/mesh/prov/src/prov_provisioner.c.obj
 .text.prov_provisioner_cb_link_established
                0x00000000       0x44 examples/dfu/CMakeFiles/dfu_no_serial_nrf52832_xxAA_s132_6.0.0.dir/__/__/mesh/prov/src/prov_provisioner.c.obj
 .text.request_authentication
                0x00000000       0xa8 examples/dfu/CMakeFiles/dfu_no_serial_nrf52832_xxAA_s132_6.0.0.dir/__/__/mesh/prov/src/prov_provisioner.c.obj
 .text.prov_provisioner_cb_ack_received
                0x00000000       0x90 examples/dfu/CMakeFiles/dfu_no_serial_nrf52832_xxAA_s132_6.0.0.dir/__/__/mesh/prov/src/prov_provisioner.c.obj
 .text.prov_provisioner_pkt_in
                0x00000000      0x294 examples/dfu/CMakeFiles/dfu_no_serial_nrf52832_xxAA_s132_6.0.0.dir/__/__/mesh/prov/src/prov_provisioner.c.obj
 .text.prov_provisioner_provision
                0x00000000       0x48 examples/dfu/CMakeFiles/dfu_no_serial_nrf52832_xxAA_s132_6.0.0.dir/__/__/mesh/prov/src/prov_provisioner.c.obj
 .text.prov_provisioner_oob_use
                0x00000000       0xbc examples/dfu/CMakeFiles/dfu_no_serial_nrf52832_xxAA_s132_6.0.0.dir/__/__/mesh/prov/src/prov_provisioner.c.obj
 .text.prov_provisioner_shared_secret
                0x00000000       0xb8 examples/dfu/CMakeFiles/dfu_no_serial_nrf52832_xxAA_s132_6.0.0.dir/__/__/mesh/prov/src/prov_provisioner.c.obj
 .text.prov_provisioner_oob_pubkey
                0x00000000       0x34 examples/dfu/CMakeFiles/dfu_no_serial_nrf52832_xxAA_s132_6.0.0.dir/__/__/mesh/prov/src/prov_provisioner.c.obj
 .rodata.m_prov_callbacks
                0x00000000       0x10 examples/dfu/CMakeFiles/dfu_no_serial_nrf52832_xxAA_s132_6.0.0.dir/__/__/mesh/prov/src/prov_provisioner.c.obj
 .text          0x00000000        0x0 examples/dfu/CMakeFiles/dfu_no_serial_nrf52832_xxAA_s132_6.0.0.dir/__/__/mesh/prov/src/prov_provisionee.c.obj
 .data          0x00000000        0x0 examples/dfu/CMakeFiles/dfu_no_serial_nrf52832_xxAA_s132_6.0.0.dir/__/__/mesh/prov/src/prov_provisionee.c.obj
 .bss           0x00000000        0x0 examples/dfu/CMakeFiles/dfu_no_serial_nrf52832_xxAA_s132_6.0.0.dir/__/__/mesh/prov/src/prov_provisionee.c.obj
 .text.prov_provisionee_shared_secret
                0x00000000       0xa0 examples/dfu/CMakeFiles/dfu_no_serial_nrf52832_xxAA_s132_6.0.0.dir/__/__/mesh/prov/src/prov_provisionee.c.obj
 .text          0x00000000        0x0 examples/dfu/CMakeFiles/dfu_no_serial_nrf52832_xxAA_s132_6.0.0.dir/__/__/mesh/prov/src/nrf_mesh_prov.c.obj
 .data          0x00000000        0x0 examples/dfu/CMakeFiles/dfu_no_serial_nrf52832_xxAA_s132_6.0.0.dir/__/__/mesh/prov/src/nrf_mesh_prov.c.obj
 .bss           0x00000000        0x0 examples/dfu/CMakeFiles/dfu_no_serial_nrf52832_xxAA_s132_6.0.0.dir/__/__/mesh/prov/src/nrf_mesh_prov.c.obj
 .text.nrf_mesh_prov_listen_stop
                0x00000000       0x30 examples/dfu/CMakeFiles/dfu_no_serial_nrf52832_xxAA_s132_6.0.0.dir/__/__/mesh/prov/src/nrf_mesh_prov.c.obj
 .text.nrf_mesh_prov_provision
                0x00000000       0x58 examples/dfu/CMakeFiles/dfu_no_serial_nrf52832_xxAA_s132_6.0.0.dir/__/__/mesh/prov/src/nrf_mesh_prov.c.obj
 .text.nrf_mesh_prov_oob_use
                0x00000000       0x18 examples/dfu/CMakeFiles/dfu_no_serial_nrf52832_xxAA_s132_6.0.0.dir/__/__/mesh/prov/src/nrf_mesh_prov.c.obj
 .text.nrf_mesh_prov_shared_secret_provide
                0x00000000       0x10 examples/dfu/CMakeFiles/dfu_no_serial_nrf52832_xxAA_s132_6.0.0.dir/__/__/mesh/prov/src/nrf_mesh_prov.c.obj
 .text.nrf_mesh_prov_pubkey_provide
                0x00000000       0x10 examples/dfu/CMakeFiles/dfu_no_serial_nrf52832_xxAA_s132_6.0.0.dir/__/__/mesh/prov/src/nrf_mesh_prov.c.obj
 .text.nrf_mesh_prov_scan_start
                0x00000000       0x10 examples/dfu/CMakeFiles/dfu_no_serial_nrf52832_xxAA_s132_6.0.0.dir/__/__/mesh/prov/src/nrf_mesh_prov.c.obj
 .text.nrf_mesh_prov_scan_stop
                0x00000000        0x4 examples/dfu/CMakeFiles/dfu_no_serial_nrf52832_xxAA_s132_6.0.0.dir/__/__/mesh/prov/src/nrf_mesh_prov.c.obj
 .text          0x00000000        0x0 examples/dfu/CMakeFiles/dfu_no_serial_nrf52832_xxAA_s132_6.0.0.dir/__/__/mesh/prov/src/provisioning.c.obj
 .data          0x00000000        0x0 examples/dfu/CMakeFiles/dfu_no_serial_nrf52832_xxAA_s132_6.0.0.dir/__/__/mesh/prov/src/provisioning.c.obj
 .bss           0x00000000        0x0 examples/dfu/CMakeFiles/dfu_no_serial_nrf52832_xxAA_s132_6.0.0.dir/__/__/mesh/prov/src/provisioning.c.obj
 .text.prov_tx_invite
                0x00000000       0x38 examples/dfu/CMakeFiles/dfu_no_serial_nrf52832_xxAA_s132_6.0.0.dir/__/__/mesh/prov/src/provisioning.c.obj
 .text.prov_tx_start
                0x00000000       0x38 examples/dfu/CMakeFiles/dfu_no_serial_nrf52832_xxAA_s132_6.0.0.dir/__/__/mesh/prov/src/provisioning.c.obj
 .text.prov_tx_data
                0x00000000       0x34 examples/dfu/CMakeFiles/dfu_no_serial_nrf52832_xxAA_s132_6.0.0.dir/__/__/mesh/prov/src/provisioning.c.obj
 .text.prov_tx  0x00000000       0x3c examples/dfu/CMakeFiles/dfu_no_serial_nrf52832_xxAA_s132_6.0.0.dir/__/__/mesh/prov/src/provisioning.c.obj
 .text          0x00000000        0x0 examples/dfu/CMakeFiles/dfu_no_serial_nrf52832_xxAA_s132_6.0.0.dir/__/__/mesh/prov/src/prov_beacon.c.obj
 .data          0x00000000        0x0 examples/dfu/CMakeFiles/dfu_no_serial_nrf52832_xxAA_s132_6.0.0.dir/__/__/mesh/prov/src/prov_beacon.c.obj
 .bss           0x00000000        0x0 examples/dfu/CMakeFiles/dfu_no_serial_nrf52832_xxAA_s132_6.0.0.dir/__/__/mesh/prov/src/prov_beacon.c.obj
 .text.prov_beacon_scan_start
                0x00000000       0x1c examples/dfu/CMakeFiles/dfu_no_serial_nrf52832_xxAA_s132_6.0.0.dir/__/__/mesh/prov/src/prov_beacon.c.obj
 .text.prov_beacon_scan_stop
                0x00000000        0xc examples/dfu/CMakeFiles/dfu_no_serial_nrf52832_xxAA_s132_6.0.0.dir/__/__/mesh/prov/src/prov_beacon.c.obj
 .text          0x00000000        0x0 examples/dfu/CMakeFiles/dfu_no_serial_nrf52832_xxAA_s132_6.0.0.dir/__/__/mesh/prov/src/prov_utils.c.obj
 .data          0x00000000        0x0 examples/dfu/CMakeFiles/dfu_no_serial_nrf52832_xxAA_s132_6.0.0.dir/__/__/mesh/prov/src/prov_utils.c.obj
 .bss           0x00000000        0x0 examples/dfu/CMakeFiles/dfu_no_serial_nrf52832_xxAA_s132_6.0.0.dir/__/__/mesh/prov/src/prov_utils.c.obj
 .text          0x00000000        0x0 examples/dfu/CMakeFiles/dfu_no_serial_nrf52832_xxAA_s132_6.0.0.dir/__/__/mesh/prov/src/prov_bearer_adv.c.obj
 .data          0x00000000        0x0 examples/dfu/CMakeFiles/dfu_no_serial_nrf52832_xxAA_s132_6.0.0.dir/__/__/mesh/prov/src/prov_bearer_adv.c.obj
 .bss           0x00000000        0x0 examples/dfu/CMakeFiles/dfu_no_serial_nrf52832_xxAA_s132_6.0.0.dir/__/__/mesh/prov/src/prov_bearer_adv.c.obj
 .text.calculate_3GPP_CRC
                0x00000000       0x28 examples/dfu/CMakeFiles/dfu_no_serial_nrf52832_xxAA_s132_6.0.0.dir/__/__/mesh/prov/src/prov_bearer_adv.c.obj
 .text          0x00000000        0x0 examples/dfu/CMakeFiles/dfu_no_serial_nrf52832_xxAA_s132_6.0.0.dir/__/__/mesh/dfu/src/nrf_mesh_dfu.c.obj
 .data          0x00000000        0x0 examples/dfu/CMakeFiles/dfu_no_serial_nrf52832_xxAA_s132_6.0.0.dir/__/__/mesh/dfu/src/nrf_mesh_dfu.c.obj
 .bss           0x00000000        0x0 examples/dfu/CMakeFiles/dfu_no_serial_nrf52832_xxAA_s132_6.0.0.dir/__/__/mesh/dfu/src/nrf_mesh_dfu.c.obj
 .text.nrf_mesh_dfu_jump_to_bootloader
                0x00000000       0x40 examples/dfu/CMakeFiles/dfu_no_serial_nrf52832_xxAA_s132_6.0.0.dir/__/__/mesh/dfu/src/nrf_mesh_dfu.c.obj
 .text.nrf_mesh_dfu_abort
                0x00000000       0xc4 examples/dfu/CMakeFiles/dfu_no_serial_nrf52832_xxAA_s132_6.0.0.dir/__/__/mesh/dfu/src/nrf_mesh_dfu.c.obj
 .text.nrf_mesh_dfu_bank_info_get
                0x00000000       0xc0 examples/dfu/CMakeFiles/dfu_no_serial_nrf52832_xxAA_s132_6.0.0.dir/__/__/mesh/dfu/src/nrf_mesh_dfu.c.obj
 .text.nrf_mesh_dfu_state_get
                0x00000000       0x4c examples/dfu/CMakeFiles/dfu_no_serial_nrf52832_xxAA_s132_6.0.0.dir/__/__/mesh/dfu/src/nrf_mesh_dfu.c.obj
 .text          0x00000000        0x0 examples/dfu/CMakeFiles/dfu_no_serial_nrf52832_xxAA_s132_6.0.0.dir/__/nrf_mesh_weak.c.obj
 .data          0x00000000        0x0 examples/dfu/CMakeFiles/dfu_no_serial_nrf52832_xxAA_s132_6.0.0.dir/__/nrf_mesh_weak.c.obj
 .bss           0x00000000        0x0 examples/dfu/CMakeFiles/dfu_no_serial_nrf52832_xxAA_s132_6.0.0.dir/__/nrf_mesh_weak.c.obj
 .text._weak_handler
                0x00000000        0x4 examples/dfu/CMakeFiles/dfu_no_serial_nrf52832_xxAA_s132_6.0.0.dir/__/nrf_mesh_weak.c.obj
 .text._weak_handler_ptr
                0x00000000        0x4 examples/dfu/CMakeFiles/dfu_no_serial_nrf52832_xxAA_s132_6.0.0.dir/__/nrf_mesh_weak.c.obj
 .comment       0x00000000       0x80 examples/dfu/CMakeFiles/dfu_no_serial_nrf52832_xxAA_s132_6.0.0.dir/__/nrf_mesh_weak.c.obj
 .ARM.attributes
                0x00000000       0x39 examples/dfu/CMakeFiles/dfu_no_serial_nrf52832_xxAA_s132_6.0.0.dir/__/nrf_mesh_weak.c.obj
 .text          0x00000000        0x0 examples/dfu/CMakeFiles/dfu_no_serial_nrf52832_xxAA_s132_6.0.0.dir/__/common/src/app_error_weak.c.obj
 .data          0x00000000        0x0 examples/dfu/CMakeFiles/dfu_no_serial_nrf52832_xxAA_s132_6.0.0.dir/__/common/src/app_error_weak.c.obj
 .bss           0x00000000        0x0 examples/dfu/CMakeFiles/dfu_no_serial_nrf52832_xxAA_s132_6.0.0.dir/__/common/src/app_error_weak.c.obj
 .text          0x00000000        0x0 examples/dfu/CMakeFiles/dfu_no_serial_nrf52832_xxAA_s132_6.0.0.dir/__/common/src/assertion_handler_weak.c.obj
 .data          0x00000000        0x0 examples/dfu/CMakeFiles/dfu_no_serial_nrf52832_xxAA_s132_6.0.0.dir/__/common/src/assertion_handler_weak.c.obj
 .bss           0x00000000        0x0 examples/dfu/CMakeFiles/dfu_no_serial_nrf52832_xxAA_s132_6.0.0.dir/__/common/src/assertion_handler_weak.c.obj
 .text          0x00000000        0x0 examples/dfu/CMakeFiles/dfu_no_serial_nrf52832_xxAA_s132_6.0.0.dir/__/__/mesh/core/src/internal_event.c.obj
 .data          0x00000000        0x0 examples/dfu/CMakeFiles/dfu_no_serial_nrf52832_xxAA_s132_6.0.0.dir/__/__/mesh/core/src/internal_event.c.obj
 .bss           0x00000000        0x0 examples/dfu/CMakeFiles/dfu_no_serial_nrf52832_xxAA_s132_6.0.0.dir/__/__/mesh/core/src/internal_event.c.obj
 .comment       0x00000000       0x80 examples/dfu/CMakeFiles/dfu_no_serial_nrf52832_xxAA_s132_6.0.0.dir/__/__/mesh/core/src/internal_event.c.obj
 .ARM.attributes
                0x00000000       0x39 examples/dfu/CMakeFiles/dfu_no_serial_nrf52832_xxAA_s132_6.0.0.dir/__/__/mesh/core/src/internal_event.c.obj
 .text          0x00000000        0x0 examples/dfu/CMakeFiles/dfu_no_serial_nrf52832_xxAA_s132_6.0.0.dir/__/__/mesh/core/src/nrf_mesh_configure.c.obj
 .data          0x00000000        0x0 examples/dfu/CMakeFiles/dfu_no_serial_nrf52832_xxAA_s132_6.0.0.dir/__/__/mesh/core/src/nrf_mesh_configure.c.obj
 .bss           0x00000000        0x0 examples/dfu/CMakeFiles/dfu_no_serial_nrf52832_xxAA_s132_6.0.0.dir/__/__/mesh/core/src/nrf_mesh_configure.c.obj
 .text          0x00000000        0x0 examples/dfu/CMakeFiles/dfu_no_serial_nrf52832_xxAA_s132_6.0.0.dir/__/__/mesh/core/src/aes.c.obj
 .data          0x00000000        0x0 examples/dfu/CMakeFiles/dfu_no_serial_nrf52832_xxAA_s132_6.0.0.dir/__/__/mesh/core/src/aes.c.obj
 .bss           0x00000000        0x0 examples/dfu/CMakeFiles/dfu_no_serial_nrf52832_xxAA_s132_6.0.0.dir/__/__/mesh/core/src/aes.c.obj
 .text          0x00000000        0x0 examples/dfu/CMakeFiles/dfu_no_serial_nrf52832_xxAA_s132_6.0.0.dir/__/__/mesh/core/src/msg_cache.c.obj
 .data          0x00000000        0x0 examples/dfu/CMakeFiles/dfu_no_serial_nrf52832_xxAA_s132_6.0.0.dir/__/__/mesh/core/src/msg_cache.c.obj
 .bss           0x00000000        0x0 examples/dfu/CMakeFiles/dfu_no_serial_nrf52832_xxAA_s132_6.0.0.dir/__/__/mesh/core/src/msg_cache.c.obj
 .text.msg_cache_clear
                0x00000000       0x18 examples/dfu/CMakeFiles/dfu_no_serial_nrf52832_xxAA_s132_6.0.0.dir/__/__/mesh/core/src/msg_cache.c.obj
 .text          0x00000000        0x0 examples/dfu/CMakeFiles/dfu_no_serial_nrf52832_xxAA_s132_6.0.0.dir/__/__/mesh/core/src/transport.c.obj
 .data          0x00000000        0x0 examples/dfu/CMakeFiles/dfu_no_serial_nrf52832_xxAA_s132_6.0.0.dir/__/__/mesh/core/src/transport.c.obj
 .bss           0x00000000        0x0 examples/dfu/CMakeFiles/dfu_no_serial_nrf52832_xxAA_s132_6.0.0.dir/__/__/mesh/core/src/transport.c.obj
 .text.transport_sar_mem_funcs_reset
                0x00000000       0x30 examples/dfu/CMakeFiles/dfu_no_serial_nrf52832_xxAA_s132_6.0.0.dir/__/__/mesh/core/src/transport.c.obj
 .text.transport_sar_mem_funcs_set
                0x00000000       0x48 examples/dfu/CMakeFiles/dfu_no_serial_nrf52832_xxAA_s132_6.0.0.dir/__/__/mesh/core/src/transport.c.obj
 .text          0x00000000        0x0 examples/dfu/CMakeFiles/dfu_no_serial_nrf52832_xxAA_s132_6.0.0.dir/__/__/mesh/core/src/event.c.obj
 .data          0x00000000        0x0 examples/dfu/CMakeFiles/dfu_no_serial_nrf52832_xxAA_s132_6.0.0.dir/__/__/mesh/core/src/event.c.obj
 .bss           0x00000000        0x0 examples/dfu/CMakeFiles/dfu_no_serial_nrf52832_xxAA_s132_6.0.0.dir/__/__/mesh/core/src/event.c.obj
 .text          0x00000000        0x0 examples/dfu/CMakeFiles/dfu_no_serial_nrf52832_xxAA_s132_6.0.0.dir/__/__/mesh/core/src/packet_buffer.c.obj
 .data          0x00000000        0x0 examples/dfu/CMakeFiles/dfu_no_serial_nrf52832_xxAA_s132_6.0.0.dir/__/__/mesh/core/src/packet_buffer.c.obj
 .bss           0x00000000        0x0 examples/dfu/CMakeFiles/dfu_no_serial_nrf52832_xxAA_s132_6.0.0.dir/__/__/mesh/core/src/packet_buffer.c.obj
 .text.packet_buffer_max_packet_len_get
                0x00000000       0x24 examples/dfu/CMakeFiles/dfu_no_serial_nrf52832_xxAA_s132_6.0.0.dir/__/__/mesh/core/src/packet_buffer.c.obj
 .text          0x00000000        0x0 examples/dfu/CMakeFiles/dfu_no_serial_nrf52832_xxAA_s132_6.0.0.dir/__/__/mesh/core/src/flash_manager_defrag.c.obj
 .data          0x00000000        0x0 examples/dfu/CMakeFiles/dfu_no_serial_nrf52832_xxAA_s132_6.0.0.dir/__/__/mesh/core/src/flash_manager_defrag.c.obj
 .bss           0x00000000        0x0 examples/dfu/CMakeFiles/dfu_no_serial_nrf52832_xxAA_s132_6.0.0.dir/__/__/mesh/core/src/flash_manager_defrag.c.obj
 .text.flash_manager_defragging
                0x00000000       0x44 examples/dfu/CMakeFiles/dfu_no_serial_nrf52832_xxAA_s132_6.0.0.dir/__/__/mesh/core/src/flash_manager_defrag.c.obj
 .text          0x00000000        0x0 examples/dfu/CMakeFiles/dfu_no_serial_nrf52832_xxAA_s132_6.0.0.dir/__/__/mesh/core/src/fifo.c.obj
 .data          0x00000000        0x0 examples/dfu/CMakeFiles/dfu_no_serial_nrf52832_xxAA_s132_6.0.0.dir/__/__/mesh/core/src/fifo.c.obj
 .bss           0x00000000        0x0 examples/dfu/CMakeFiles/dfu_no_serial_nrf52832_xxAA_s132_6.0.0.dir/__/__/mesh/core/src/fifo.c.obj
 .text.fifo_peek_at
                0x00000000       0x54 examples/dfu/CMakeFiles/dfu_no_serial_nrf52832_xxAA_s132_6.0.0.dir/__/__/mesh/core/src/fifo.c.obj
 .text.fifo_peek
                0x00000000       0x50 examples/dfu/CMakeFiles/dfu_no_serial_nrf52832_xxAA_s132_6.0.0.dir/__/__/mesh/core/src/fifo.c.obj
 .text.fifo_flush
                0x00000000        0x8 examples/dfu/CMakeFiles/dfu_no_serial_nrf52832_xxAA_s132_6.0.0.dir/__/__/mesh/core/src/fifo.c.obj
 .text.fifo_get_len
                0x00000000        0x8 examples/dfu/CMakeFiles/dfu_no_serial_nrf52832_xxAA_s132_6.0.0.dir/__/__/mesh/core/src/fifo.c.obj
 .text.fifo_is_full
                0x00000000       0x14 examples/dfu/CMakeFiles/dfu_no_serial_nrf52832_xxAA_s132_6.0.0.dir/__/__/mesh/core/src/fifo.c.obj
 .text.fifo_is_empty
                0x00000000       0x10 examples/dfu/CMakeFiles/dfu_no_serial_nrf52832_xxAA_s132_6.0.0.dir/__/__/mesh/core/src/fifo.c.obj
 .text          0x00000000        0x0 examples/dfu/CMakeFiles/dfu_no_serial_nrf52832_xxAA_s132_6.0.0.dir/__/__/mesh/core/src/nrf_flash.c.obj
 .data          0x00000000        0x0 examples/dfu/CMakeFiles/dfu_no_serial_nrf52832_xxAA_s132_6.0.0.dir/__/__/mesh/core/src/nrf_flash.c.obj
 .bss           0x00000000        0x0 examples/dfu/CMakeFiles/dfu_no_serial_nrf52832_xxAA_s132_6.0.0.dir/__/__/mesh/core/src/nrf_flash.c.obj
 .text          0x00000000        0x0 examples/dfu/CMakeFiles/dfu_no_serial_nrf52832_xxAA_s132_6.0.0.dir/__/__/mesh/core/src/packet_mgr.c.obj
 .data          0x00000000        0x0 examples/dfu/CMakeFiles/dfu_no_serial_nrf52832_xxAA_s132_6.0.0.dir/__/__/mesh/core/src/packet_mgr.c.obj
 .bss           0x00000000        0x0 examples/dfu/CMakeFiles/dfu_no_serial_nrf52832_xxAA_s132_6.0.0.dir/__/__/mesh/core/src/packet_mgr.c.obj
 .text.packet_mgr_alloc
                0x00000000      0x1a0 examples/dfu/CMakeFiles/dfu_no_serial_nrf52832_xxAA_s132_6.0.0.dir/__/__/mesh/core/src/packet_mgr.c.obj
 .text.packet_mgr_free
                0x00000000       0x5c examples/dfu/CMakeFiles/dfu_no_serial_nrf52832_xxAA_s132_6.0.0.dir/__/__/mesh/core/src/packet_mgr.c.obj
 .text.packet_mgr_get_free_space
                0x00000000       0x1c examples/dfu/CMakeFiles/dfu_no_serial_nrf52832_xxAA_s132_6.0.0.dir/__/__/mesh/core/src/packet_mgr.c.obj
 .text.packet_mgr_refcount_get
                0x00000000        0x8 examples/dfu/CMakeFiles/dfu_no_serial_nrf52832_xxAA_s132_6.0.0.dir/__/__/mesh/core/src/packet_mgr.c.obj
 .text.packet_mgr_size_get
                0x00000000        0x8 examples/dfu/CMakeFiles/dfu_no_serial_nrf52832_xxAA_s132_6.0.0.dir/__/__/mesh/core/src/packet_mgr.c.obj
 .text          0x00000000        0x0 examples/dfu/CMakeFiles/dfu_no_serial_nrf52832_xxAA_s132_6.0.0.dir/__/__/mesh/core/src/net_state.c.obj
 .data          0x00000000        0x0 examples/dfu/CMakeFiles/dfu_no_serial_nrf52832_xxAA_s132_6.0.0.dir/__/__/mesh/core/src/net_state.c.obj
 .bss           0x00000000        0x0 examples/dfu/CMakeFiles/dfu_no_serial_nrf52832_xxAA_s132_6.0.0.dir/__/__/mesh/core/src/net_state.c.obj
 .text.net_state_iv_update_start
                0x00000000       0x90 examples/dfu/CMakeFiles/dfu_no_serial_nrf52832_xxAA_s132_6.0.0.dir/__/__/mesh/core/src/net_state.c.obj
 .text.net_state_iv_update_test_mode_set
                0x00000000        0xc examples/dfu/CMakeFiles/dfu_no_serial_nrf52832_xxAA_s132_6.0.0.dir/__/__/mesh/core/src/net_state.c.obj
 .text.net_state_test_mode_transition_run
                0x00000000      0x170 examples/dfu/CMakeFiles/dfu_no_serial_nrf52832_xxAA_s132_6.0.0.dir/__/__/mesh/core/src/net_state.c.obj
 .text          0x00000000        0x0 examples/dfu/CMakeFiles/dfu_no_serial_nrf52832_xxAA_s132_6.0.0.dir/__/__/mesh/core/src/mesh_flash.c.obj
 .data          0x00000000        0x0 examples/dfu/CMakeFiles/dfu_no_serial_nrf52832_xxAA_s132_6.0.0.dir/__/__/mesh/core/src/mesh_flash.c.obj
 .bss           0x00000000        0x0 examples/dfu/CMakeFiles/dfu_no_serial_nrf52832_xxAA_s132_6.0.0.dir/__/__/mesh/core/src/mesh_flash.c.obj
 .text.mesh_flash_op_available_slots
                0x00000000       0x2c examples/dfu/CMakeFiles/dfu_no_serial_nrf52832_xxAA_s132_6.0.0.dir/__/__/mesh/core/src/mesh_flash.c.obj
 .text          0x00000000        0x0 examples/dfu/CMakeFiles/dfu_no_serial_nrf52832_xxAA_s132_6.0.0.dir/__/__/mesh/core/src/nrf_mesh_utils.c.obj
 .data          0x00000000        0x0 examples/dfu/CMakeFiles/dfu_no_serial_nrf52832_xxAA_s132_6.0.0.dir/__/__/mesh/core/src/nrf_mesh_utils.c.obj
 .bss           0x00000000        0x0 examples/dfu/CMakeFiles/dfu_no_serial_nrf52832_xxAA_s132_6.0.0.dir/__/__/mesh/core/src/nrf_mesh_utils.c.obj
 .text.nrf_mesh_rand_get
                0x00000000       0x10 examples/dfu/CMakeFiles/dfu_no_serial_nrf52832_xxAA_s132_6.0.0.dir/__/__/mesh/core/src/nrf_mesh_utils.c.obj
 .text.nrf_mesh_gap_address_type_get
                0x00000000       0x34 examples/dfu/CMakeFiles/dfu_no_serial_nrf52832_xxAA_s132_6.0.0.dir/__/__/mesh/core/src/nrf_mesh_utils.c.obj
 .text          0x00000000        0x0 examples/dfu/CMakeFiles/dfu_no_serial_nrf52832_xxAA_s132_6.0.0.dir/__/__/mesh/core/src/nrf_mesh.c.obj
 .data          0x00000000        0x0 examples/dfu/CMakeFiles/dfu_no_serial_nrf52832_xxAA_s132_6.0.0.dir/__/__/mesh/core/src/nrf_mesh.c.obj
 .bss           0x00000000        0x0 examples/dfu/CMakeFiles/dfu_no_serial_nrf52832_xxAA_s132_6.0.0.dir/__/__/mesh/core/src/nrf_mesh.c.obj
 .text.nrf_mesh_disable
                0x00000000       0x2c examples/dfu/CMakeFiles/dfu_no_serial_nrf52832_xxAA_s132_6.0.0.dir/__/__/mesh/core/src/nrf_mesh.c.obj
 .text.nrf_mesh_process
                0x00000000        0x4 examples/dfu/CMakeFiles/dfu_no_serial_nrf52832_xxAA_s132_6.0.0.dir/__/__/mesh/core/src/nrf_mesh.c.obj
 .text.nrf_mesh_evt_handler_remove
                0x00000000        0x4 examples/dfu/CMakeFiles/dfu_no_serial_nrf52832_xxAA_s132_6.0.0.dir/__/__/mesh/core/src/nrf_mesh.c.obj
 .text.nrf_mesh_rx_cb_set
                0x00000000        0xc examples/dfu/CMakeFiles/dfu_no_serial_nrf52832_xxAA_s132_6.0.0.dir/__/__/mesh/core/src/nrf_mesh.c.obj
 .text.nrf_mesh_rx_cb_clear
                0x00000000        0xc examples/dfu/CMakeFiles/dfu_no_serial_nrf52832_xxAA_s132_6.0.0.dir/__/__/mesh/core/src/nrf_mesh.c.obj
 .text          0x00000000        0x0 examples/dfu/CMakeFiles/dfu_no_serial_nrf52832_xxAA_s132_6.0.0.dir/__/__/mesh/core/src/queue.c.obj
 .data          0x00000000        0x0 examples/dfu/CMakeFiles/dfu_no_serial_nrf52832_xxAA_s132_6.0.0.dir/__/__/mesh/core/src/queue.c.obj
 .bss           0x00000000        0x0 examples/dfu/CMakeFiles/dfu_no_serial_nrf52832_xxAA_s132_6.0.0.dir/__/__/mesh/core/src/queue.c.obj
 .text          0x00000000        0x0 examples/dfu/CMakeFiles/dfu_no_serial_nrf52832_xxAA_s132_6.0.0.dir/__/__/mesh/core/src/hal.c.obj
 .data          0x00000000        0x0 examples/dfu/CMakeFiles/dfu_no_serial_nrf52832_xxAA_s132_6.0.0.dir/__/__/mesh/core/src/hal.c.obj
 .bss           0x00000000        0x0 examples/dfu/CMakeFiles/dfu_no_serial_nrf52832_xxAA_s132_6.0.0.dir/__/__/mesh/core/src/hal.c.obj
 .text          0x00000000        0x0 examples/dfu/CMakeFiles/dfu_no_serial_nrf52832_xxAA_s132_6.0.0.dir/__/__/mesh/core/src/aes_cmac.c.obj
 .data          0x00000000        0x0 examples/dfu/CMakeFiles/dfu_no_serial_nrf52832_xxAA_s132_6.0.0.dir/__/__/mesh/core/src/aes_cmac.c.obj
 .bss           0x00000000        0x0 examples/dfu/CMakeFiles/dfu_no_serial_nrf52832_xxAA_s132_6.0.0.dir/__/__/mesh/core/src/aes_cmac.c.obj
 .text          0x00000000        0x0 examples/dfu/CMakeFiles/dfu_no_serial_nrf52832_xxAA_s132_6.0.0.dir/__/__/mesh/core/src/timer_scheduler.c.obj
 .data          0x00000000        0x0 examples/dfu/CMakeFiles/dfu_no_serial_nrf52832_xxAA_s132_6.0.0.dir/__/__/mesh/core/src/timer_scheduler.c.obj
 .bss           0x00000000        0x0 examples/dfu/CMakeFiles/dfu_no_serial_nrf52832_xxAA_s132_6.0.0.dir/__/__/mesh/core/src/timer_scheduler.c.obj
 .text          0x00000000        0x0 examples/dfu/CMakeFiles/dfu_no_serial_nrf52832_xxAA_s132_6.0.0.dir/__/__/mesh/core/src/timer.c.obj
 .data          0x00000000        0x0 examples/dfu/CMakeFiles/dfu_no_serial_nrf52832_xxAA_s132_6.0.0.dir/__/__/mesh/core/src/timer.c.obj
 .bss           0x00000000        0x0 examples/dfu/CMakeFiles/dfu_no_serial_nrf52832_xxAA_s132_6.0.0.dir/__/__/mesh/core/src/timer.c.obj
 .text.timer_order_cb_ppi
                0x00000000       0xd8 examples/dfu/CMakeFiles/dfu_no_serial_nrf52832_xxAA_s132_6.0.0.dir/__/__/mesh/core/src/timer.c.obj
 .text.timer_order_ppi
                0x00000000       0xc8 examples/dfu/CMakeFiles/dfu_no_serial_nrf52832_xxAA_s132_6.0.0.dir/__/__/mesh/core/src/timer.c.obj
 .text.timer_abort
                0x00000000       0x84 examples/dfu/CMakeFiles/dfu_no_serial_nrf52832_xxAA_s132_6.0.0.dir/__/__/mesh/core/src/timer.c.obj
 .text          0x00000000        0x0 examples/dfu/CMakeFiles/dfu_no_serial_nrf52832_xxAA_s132_6.0.0.dir/__/__/mesh/core/src/ticker.c.obj
 .data          0x00000000        0x0 examples/dfu/CMakeFiles/dfu_no_serial_nrf52832_xxAA_s132_6.0.0.dir/__/__/mesh/core/src/ticker.c.obj
 .bss           0x00000000        0x0 examples/dfu/CMakeFiles/dfu_no_serial_nrf52832_xxAA_s132_6.0.0.dir/__/__/mesh/core/src/ticker.c.obj
 .text.ticker_get
                0x00000000        0xc examples/dfu/CMakeFiles/dfu_no_serial_nrf52832_xxAA_s132_6.0.0.dir/__/__/mesh/core/src/ticker.c.obj
 .text          0x00000000        0x0 examples/dfu/CMakeFiles/dfu_no_serial_nrf52832_xxAA_s132_6.0.0.dir/__/__/mesh/core/src/rand.c.obj
 .data          0x00000000        0x0 examples/dfu/CMakeFiles/dfu_no_serial_nrf52832_xxAA_s132_6.0.0.dir/__/__/mesh/core/src/rand.c.obj
 .bss           0x00000000        0x0 examples/dfu/CMakeFiles/dfu_no_serial_nrf52832_xxAA_s132_6.0.0.dir/__/__/mesh/core/src/rand.c.obj
 .text          0x00000000        0x0 examples/dfu/CMakeFiles/dfu_no_serial_nrf52832_xxAA_s132_6.0.0.dir/__/__/mesh/core/src/nrf_mesh_opt.c.obj
 .data          0x00000000        0x0 examples/dfu/CMakeFiles/dfu_no_serial_nrf52832_xxAA_s132_6.0.0.dir/__/__/mesh/core/src/nrf_mesh_opt.c.obj
 .bss           0x00000000        0x0 examples/dfu/CMakeFiles/dfu_no_serial_nrf52832_xxAA_s132_6.0.0.dir/__/__/mesh/core/src/nrf_mesh_opt.c.obj
 .text          0x00000000        0x0 examples/dfu/CMakeFiles/dfu_no_serial_nrf52832_xxAA_s132_6.0.0.dir/__/__/mesh/core/src/timeslot.c.obj
 .data          0x00000000        0x0 examples/dfu/CMakeFiles/dfu_no_serial_nrf52832_xxAA_s132_6.0.0.dir/__/__/mesh/core/src/timeslot.c.obj
 .bss           0x00000000        0x0 examples/dfu/CMakeFiles/dfu_no_serial_nrf52832_xxAA_s132_6.0.0.dir/__/__/mesh/core/src/timeslot.c.obj
 .text.timeslot_restart
                0x00000000       0x30 examples/dfu/CMakeFiles/dfu_no_serial_nrf52832_xxAA_s132_6.0.0.dir/__/__/mesh/core/src/timeslot.c.obj
 .text.timeslot_end_time_get
                0x00000000       0x30 examples/dfu/CMakeFiles/dfu_no_serial_nrf52832_xxAA_s132_6.0.0.dir/__/__/mesh/core/src/timeslot.c.obj
 .text.timeslot_is_in_ts
                0x00000000        0xc examples/dfu/CMakeFiles/dfu_no_serial_nrf52832_xxAA_s132_6.0.0.dir/__/__/mesh/core/src/timeslot.c.obj
 .text          0x00000000        0x0 examples/dfu/CMakeFiles/dfu_no_serial_nrf52832_xxAA_s132_6.0.0.dir/__/__/mesh/core/src/bearer_event.c.obj
 .data          0x00000000        0x0 examples/dfu/CMakeFiles/dfu_no_serial_nrf52832_xxAA_s132_6.0.0.dir/__/__/mesh/core/src/bearer_event.c.obj
 .bss           0x00000000        0x0 examples/dfu/CMakeFiles/dfu_no_serial_nrf52832_xxAA_s132_6.0.0.dir/__/__/mesh/core/src/bearer_event.c.obj
 .text.bearer_event_generic_post
                0x00000000       0x50 examples/dfu/CMakeFiles/dfu_no_serial_nrf52832_xxAA_s132_6.0.0.dir/__/__/mesh/core/src/bearer_event.c.obj
 .text.bearer_event_timer_sch_post
                0x00000000       0x54 examples/dfu/CMakeFiles/dfu_no_serial_nrf52832_xxAA_s132_6.0.0.dir/__/__/mesh/core/src/bearer_event.c.obj
 .text.bearer_event_in_correct_irq_priority
                0x00000000       0x54 examples/dfu/CMakeFiles/dfu_no_serial_nrf52832_xxAA_s132_6.0.0.dir/__/__/mesh/core/src/bearer_event.c.obj
 .text          0x00000000        0x0 examples/dfu/CMakeFiles/dfu_no_serial_nrf52832_xxAA_s132_6.0.0.dir/__/__/mesh/core/src/enc.c.obj
 .data          0x00000000        0x0 examples/dfu/CMakeFiles/dfu_no_serial_nrf52832_xxAA_s132_6.0.0.dir/__/__/mesh/core/src/enc.c.obj
 .bss           0x00000000        0x0 examples/dfu/CMakeFiles/dfu_no_serial_nrf52832_xxAA_s132_6.0.0.dir/__/__/mesh/core/src/enc.c.obj
 .text.enc_key_generate
                0x00000000        0x8 examples/dfu/CMakeFiles/dfu_no_serial_nrf52832_xxAA_s132_6.0.0.dir/__/__/mesh/core/src/enc.c.obj
 .text          0x00000000        0x0 examples/dfu/CMakeFiles/dfu_no_serial_nrf52832_xxAA_s132_6.0.0.dir/__/__/mesh/core/src/network.c.obj
 .data          0x00000000        0x0 examples/dfu/CMakeFiles/dfu_no_serial_nrf52832_xxAA_s132_6.0.0.dir/__/__/mesh/core/src/network.c.obj
 .bss           0x00000000        0x0 examples/dfu/CMakeFiles/dfu_no_serial_nrf52832_xxAA_s132_6.0.0.dir/__/__/mesh/core/src/network.c.obj
 .text.network_packet_discard
                0x00000000       0x28 examples/dfu/CMakeFiles/dfu_no_serial_nrf52832_xxAA_s132_6.0.0.dir/__/__/mesh/core/src/network.c.obj
 .text          0x00000000        0x0 examples/dfu/CMakeFiles/dfu_no_serial_nrf52832_xxAA_s132_6.0.0.dir/__/__/mesh/core/src/net_packet.c.obj
 .data          0x00000000        0x0 examples/dfu/CMakeFiles/dfu_no_serial_nrf52832_xxAA_s132_6.0.0.dir/__/__/mesh/core/src/net_packet.c.obj
 .bss           0x00000000        0x0 examples/dfu/CMakeFiles/dfu_no_serial_nrf52832_xxAA_s132_6.0.0.dir/__/__/mesh/core/src/net_packet.c.obj
 .text.net_packet_enc_start_get
                0x00000000        0x4 examples/dfu/CMakeFiles/dfu_no_serial_nrf52832_xxAA_s132_6.0.0.dir/__/__/mesh/core/src/net_packet.c.obj
 .text.net_packet_payload_get
                0x00000000        0x4 examples/dfu/CMakeFiles/dfu_no_serial_nrf52832_xxAA_s132_6.0.0.dir/__/__/mesh/core/src/net_packet.c.obj
 .text          0x00000000        0x0 examples/dfu/CMakeFiles/dfu_no_serial_nrf52832_xxAA_s132_6.0.0.dir/__/__/mesh/core/src/msqueue.c.obj
 .data          0x00000000        0x0 examples/dfu/CMakeFiles/dfu_no_serial_nrf52832_xxAA_s132_6.0.0.dir/__/__/mesh/core/src/msqueue.c.obj
 .bss           0x00000000        0x0 examples/dfu/CMakeFiles/dfu_no_serial_nrf52832_xxAA_s132_6.0.0.dir/__/__/mesh/core/src/msqueue.c.obj
 .text.msq_reset
                0x00000000       0x24 examples/dfu/CMakeFiles/dfu_no_serial_nrf52832_xxAA_s132_6.0.0.dir/__/__/mesh/core/src/msqueue.c.obj
 .text          0x00000000        0x0 examples/dfu/CMakeFiles/dfu_no_serial_nrf52832_xxAA_s132_6.0.0.dir/__/__/mesh/core/src/nrf_mesh_keygen.c.obj
 .data          0x00000000        0x0 examples/dfu/CMakeFiles/dfu_no_serial_nrf52832_xxAA_s132_6.0.0.dir/__/__/mesh/core/src/nrf_mesh_keygen.c.obj
 .bss           0x00000000        0x0 examples/dfu/CMakeFiles/dfu_no_serial_nrf52832_xxAA_s132_6.0.0.dir/__/__/mesh/core/src/nrf_mesh_keygen.c.obj
 .text.nrf_mesh_keygen_identitykey
                0x00000000       0x4c examples/dfu/CMakeFiles/dfu_no_serial_nrf52832_xxAA_s132_6.0.0.dir/__/__/mesh/core/src/nrf_mesh_keygen.c.obj
 .text          0x00000000        0x0 examples/dfu/CMakeFiles/dfu_no_serial_nrf52832_xxAA_s132_6.0.0.dir/__/__/mesh/core/src/cache.c.obj
 .data          0x00000000        0x0 examples/dfu/CMakeFiles/dfu_no_serial_nrf52832_xxAA_s132_6.0.0.dir/__/__/mesh/core/src/cache.c.obj
 .bss           0x00000000        0x0 examples/dfu/CMakeFiles/dfu_no_serial_nrf52832_xxAA_s132_6.0.0.dir/__/__/mesh/core/src/cache.c.obj
 .text.cache_init
                0x00000000       0x44 examples/dfu/CMakeFiles/dfu_no_serial_nrf52832_xxAA_s132_6.0.0.dir/__/__/mesh/core/src/cache.c.obj
 .text.cache_has_elem
                0x00000000       0x5c examples/dfu/CMakeFiles/dfu_no_serial_nrf52832_xxAA_s132_6.0.0.dir/__/__/mesh/core/src/cache.c.obj
 .text.cache_put
                0x00000000       0x2c examples/dfu/CMakeFiles/dfu_no_serial_nrf52832_xxAA_s132_6.0.0.dir/__/__/mesh/core/src/cache.c.obj
 .text.cache_erase_elem
                0x00000000       0x80 examples/dfu/CMakeFiles/dfu_no_serial_nrf52832_xxAA_s132_6.0.0.dir/__/__/mesh/core/src/cache.c.obj
 .comment       0x00000000       0x80 examples/dfu/CMakeFiles/dfu_no_serial_nrf52832_xxAA_s132_6.0.0.dir/__/__/mesh/core/src/cache.c.obj
 .ARM.attributes
                0x00000000       0x39 examples/dfu/CMakeFiles/dfu_no_serial_nrf52832_xxAA_s132_6.0.0.dir/__/__/mesh/core/src/cache.c.obj
 .text          0x00000000        0x0 examples/dfu/CMakeFiles/dfu_no_serial_nrf52832_xxAA_s132_6.0.0.dir/__/__/mesh/core/src/uri.c.obj
 .data          0x00000000        0x0 examples/dfu/CMakeFiles/dfu_no_serial_nrf52832_xxAA_s132_6.0.0.dir/__/__/mesh/core/src/uri.c.obj
 .bss           0x00000000        0x0 examples/dfu/CMakeFiles/dfu_no_serial_nrf52832_xxAA_s132_6.0.0.dir/__/__/mesh/core/src/uri.c.obj
 .text.uri_data_generate
                0x00000000       0x88 examples/dfu/CMakeFiles/dfu_no_serial_nrf52832_xxAA_s132_6.0.0.dir/__/__/mesh/core/src/uri.c.obj
 .text.uri_data_parse
                0x00000000       0x80 examples/dfu/CMakeFiles/dfu_no_serial_nrf52832_xxAA_s132_6.0.0.dir/__/__/mesh/core/src/uri.c.obj
 .text.uri_scheme_name_code_point
                0x00000000       0x5c examples/dfu/CMakeFiles/dfu_no_serial_nrf52832_xxAA_s132_6.0.0.dir/__/__/mesh/core/src/uri.c.obj
 .text.uri_scheme_name_string
                0x00000000       0x14 examples/dfu/CMakeFiles/dfu_no_serial_nrf52832_xxAA_s132_6.0.0.dir/__/__/mesh/core/src/uri.c.obj
 .rodata.m_code_point_strings
                0x00000000      0x2ec examples/dfu/CMakeFiles/dfu_no_serial_nrf52832_xxAA_s132_6.0.0.dir/__/__/mesh/core/src/uri.c.obj
 .rodata.str1.4
                0x00000000      0x6ba examples/dfu/CMakeFiles/dfu_no_serial_nrf52832_xxAA_s132_6.0.0.dir/__/__/mesh/core/src/uri.c.obj
 .comment       0x00000000       0x80 examples/dfu/CMakeFiles/dfu_no_serial_nrf52832_xxAA_s132_6.0.0.dir/__/__/mesh/core/src/uri.c.obj
 .ARM.attributes
                0x00000000       0x39 examples/dfu/CMakeFiles/dfu_no_serial_nrf52832_xxAA_s132_6.0.0.dir/__/__/mesh/core/src/uri.c.obj
 .text          0x00000000        0x0 examples/dfu/CMakeFiles/dfu_no_serial_nrf52832_xxAA_s132_6.0.0.dir/__/__/mesh/core/src/list.c.obj
 .data          0x00000000        0x0 examples/dfu/CMakeFiles/dfu_no_serial_nrf52832_xxAA_s132_6.0.0.dir/__/__/mesh/core/src/list.c.obj
 .bss           0x00000000        0x0 examples/dfu/CMakeFiles/dfu_no_serial_nrf52832_xxAA_s132_6.0.0.dir/__/__/mesh/core/src/list.c.obj
 .text.list_size_get
                0x00000000       0x14 examples/dfu/CMakeFiles/dfu_no_serial_nrf52832_xxAA_s132_6.0.0.dir/__/__/mesh/core/src/list.c.obj
 .text.list_sorted_add
                0x00000000       0x8c examples/dfu/CMakeFiles/dfu_no_serial_nrf52832_xxAA_s132_6.0.0.dir/__/__/mesh/core/src/list.c.obj
 .text          0x00000000        0x0 examples/dfu/CMakeFiles/dfu_no_serial_nrf52832_xxAA_s132_6.0.0.dir/__/__/mesh/core/src/log.c.obj
 .data          0x00000000        0x0 examples/dfu/CMakeFiles/dfu_no_serial_nrf52832_xxAA_s132_6.0.0.dir/__/__/mesh/core/src/log.c.obj
 .bss           0x00000000        0x0 examples/dfu/CMakeFiles/dfu_no_serial_nrf52832_xxAA_s132_6.0.0.dir/__/__/mesh/core/src/log.c.obj
 .text.log_callback_logview
                0x00000000       0x38 examples/dfu/CMakeFiles/dfu_no_serial_nrf52832_xxAA_s132_6.0.0.dir/__/__/mesh/core/src/log.c.obj
 .text.log_set_callback
                0x00000000        0xc examples/dfu/CMakeFiles/dfu_no_serial_nrf52832_xxAA_s132_6.0.0.dir/__/__/mesh/core/src/log.c.obj
 .text.log_vprintf
                0x00000000       0x18 examples/dfu/CMakeFiles/dfu_no_serial_nrf52832_xxAA_s132_6.0.0.dir/__/__/mesh/core/src/log.c.obj
 .rodata.log_callback_logview.str1.4
                0x00000000       0x12 examples/dfu/CMakeFiles/dfu_no_serial_nrf52832_xxAA_s132_6.0.0.dir/__/__/mesh/core/src/log.c.obj
 .text          0x00000000        0x0 examples/dfu/CMakeFiles/dfu_no_serial_nrf52832_xxAA_s132_6.0.0.dir/__/__/mesh/core/src/flash_manager.c.obj
 .data          0x00000000        0x0 examples/dfu/CMakeFiles/dfu_no_serial_nrf52832_xxAA_s132_6.0.0.dir/__/__/mesh/core/src/flash_manager.c.obj
 .bss           0x00000000        0x0 examples/dfu/CMakeFiles/dfu_no_serial_nrf52832_xxAA_s132_6.0.0.dir/__/__/mesh/core/src/flash_manager.c.obj
 .text.flash_manager_entry_count_get
                0x00000000       0xf4 examples/dfu/CMakeFiles/dfu_no_serial_nrf52832_xxAA_s132_6.0.0.dir/__/__/mesh/core/src/flash_manager.c.obj
 .text.flash_manager_entry_release
                0x00000000       0x74 examples/dfu/CMakeFiles/dfu_no_serial_nrf52832_xxAA_s132_6.0.0.dir/__/__/mesh/core/src/flash_manager.c.obj
 .text          0x00000000        0x0 examples/dfu/CMakeFiles/dfu_no_serial_nrf52832_xxAA_s132_6.0.0.dir/__/__/mesh/core/src/ccm_soft.c.obj
 .data          0x00000000        0x0 examples/dfu/CMakeFiles/dfu_no_serial_nrf52832_xxAA_s132_6.0.0.dir/__/__/mesh/core/src/ccm_soft.c.obj
 .bss           0x00000000        0x0 examples/dfu/CMakeFiles/dfu_no_serial_nrf52832_xxAA_s132_6.0.0.dir/__/__/mesh/core/src/ccm_soft.c.obj
 .text          0x00000000        0x0 examples/dfu/CMakeFiles/dfu_no_serial_nrf52832_xxAA_s132_6.0.0.dir/__/__/mesh/core/src/toolchain.c.obj
 .data          0x00000000        0x0 examples/dfu/CMakeFiles/dfu_no_serial_nrf52832_xxAA_s132_6.0.0.dir/__/__/mesh/core/src/toolchain.c.obj
 .bss           0x00000000        0x0 examples/dfu/CMakeFiles/dfu_no_serial_nrf52832_xxAA_s132_6.0.0.dir/__/__/mesh/core/src/toolchain.c.obj
 .comment       0x00000000       0x80 examples/dfu/CMakeFiles/dfu_no_serial_nrf52832_xxAA_s132_6.0.0.dir/__/__/mesh/core/src/toolchain.c.obj
 .ARM.attributes
                0x00000000       0x39 examples/dfu/CMakeFiles/dfu_no_serial_nrf52832_xxAA_s132_6.0.0.dir/__/__/mesh/core/src/toolchain.c.obj
 .text          0x00000000        0x0 examples/dfu/CMakeFiles/dfu_no_serial_nrf52832_xxAA_s132_6.0.0.dir/__/__/mesh/core/src/replay_cache.c.obj
 .data          0x00000000        0x0 examples/dfu/CMakeFiles/dfu_no_serial_nrf52832_xxAA_s132_6.0.0.dir/__/__/mesh/core/src/replay_cache.c.obj
 .bss           0x00000000        0x0 examples/dfu/CMakeFiles/dfu_no_serial_nrf52832_xxAA_s132_6.0.0.dir/__/__/mesh/core/src/replay_cache.c.obj
 .text.replay_cache_on_iv_update
                0x00000000       0x2c examples/dfu/CMakeFiles/dfu_no_serial_nrf52832_xxAA_s132_6.0.0.dir/__/__/mesh/core/src/replay_cache.c.obj
 .text.replay_cache_clear
                0x00000000       0x20 examples/dfu/CMakeFiles/dfu_no_serial_nrf52832_xxAA_s132_6.0.0.dir/__/__/mesh/core/src/replay_cache.c.obj
 .text          0x00000000        0x0 examples/dfu/CMakeFiles/dfu_no_serial_nrf52832_xxAA_s132_6.0.0.dir/__/__/mesh/core/src/beacon.c.obj
 .data          0x00000000        0x0 examples/dfu/CMakeFiles/dfu_no_serial_nrf52832_xxAA_s132_6.0.0.dir/__/__/mesh/core/src/beacon.c.obj
 .bss           0x00000000        0x0 examples/dfu/CMakeFiles/dfu_no_serial_nrf52832_xxAA_s132_6.0.0.dir/__/__/mesh/core/src/beacon.c.obj
 .text          0x00000000        0x0 examples/dfu/CMakeFiles/dfu_no_serial_nrf52832_xxAA_s132_6.0.0.dir/__/__/mesh/core/src/flash_manager_internal.c.obj
 .data          0x00000000        0x0 examples/dfu/CMakeFiles/dfu_no_serial_nrf52832_xxAA_s132_6.0.0.dir/__/__/mesh/core/src/flash_manager_internal.c.obj
 .bss           0x00000000        0x0 examples/dfu/CMakeFiles/dfu_no_serial_nrf52832_xxAA_s132_6.0.0.dir/__/__/mesh/core/src/flash_manager_internal.c.obj
 .text          0x00000000        0x0 examples/dfu/CMakeFiles/dfu_no_serial_nrf52832_xxAA_s132_6.0.0.dir/__/__/mesh/core/src/core_tx.c.obj
 .data          0x00000000        0x0 examples/dfu/CMakeFiles/dfu_no_serial_nrf52832_xxAA_s132_6.0.0.dir/__/__/mesh/core/src/core_tx.c.obj
 .bss           0x00000000        0x0 examples/dfu/CMakeFiles/dfu_no_serial_nrf52832_xxAA_s132_6.0.0.dir/__/__/mesh/core/src/core_tx.c.obj
 .text.core_tx_bearer_type_get
                0x00000000       0x2c examples/dfu/CMakeFiles/dfu_no_serial_nrf52832_xxAA_s132_6.0.0.dir/__/__/mesh/core/src/core_tx.c.obj
 .text.core_tx_bearer_count_get
                0x00000000        0xc examples/dfu/CMakeFiles/dfu_no_serial_nrf52832_xxAA_s132_6.0.0.dir/__/__/mesh/core/src/core_tx.c.obj
 .text          0x00000000        0x0 examples/dfu/CMakeFiles/dfu_no_serial_nrf52832_xxAA_s132_6.0.0.dir/__/__/mesh/core/src/heartbeat.c.obj
 .data          0x00000000        0x0 examples/dfu/CMakeFiles/dfu_no_serial_nrf52832_xxAA_s132_6.0.0.dir/__/__/mesh/core/src/heartbeat.c.obj
 .bss           0x00000000        0x0 examples/dfu/CMakeFiles/dfu_no_serial_nrf52832_xxAA_s132_6.0.0.dir/__/__/mesh/core/src/heartbeat.c.obj
 .text          0x00000000        0x0 examples/dfu/CMakeFiles/dfu_no_serial_nrf52832_xxAA_s132_6.0.0.dir/__/__/mesh/core/src/net_beacon.c.obj
 .data          0x00000000        0x0 examples/dfu/CMakeFiles/dfu_no_serial_nrf52832_xxAA_s132_6.0.0.dir/__/__/mesh/core/src/net_beacon.c.obj
 .bss           0x00000000        0x0 examples/dfu/CMakeFiles/dfu_no_serial_nrf52832_xxAA_s132_6.0.0.dir/__/__/mesh/core/src/net_beacon.c.obj
 .text.net_beacon_build
                0x00000000       0x68 examples/dfu/CMakeFiles/dfu_no_serial_nrf52832_xxAA_s132_6.0.0.dir/__/__/mesh/core/src/net_beacon.c.obj
 .text          0x00000000        0x0 examples/dfu/CMakeFiles/dfu_no_serial_nrf52832_xxAA_s132_6.0.0.dir/__/__/mesh/core/src/fsm.c.obj
 .data          0x00000000        0x0 examples/dfu/CMakeFiles/dfu_no_serial_nrf52832_xxAA_s132_6.0.0.dir/__/__/mesh/core/src/fsm.c.obj
 .bss           0x00000000        0x0 examples/dfu/CMakeFiles/dfu_no_serial_nrf52832_xxAA_s132_6.0.0.dir/__/__/mesh/core/src/fsm.c.obj
 .text.fsm_event_post_try
                0x00000000      0x238 examples/dfu/CMakeFiles/dfu_no_serial_nrf52832_xxAA_s132_6.0.0.dir/__/__/mesh/core/src/fsm.c.obj
 .text.fsm_init
                0x00000000      0x100 examples/dfu/CMakeFiles/dfu_no_serial_nrf52832_xxAA_s132_6.0.0.dir/__/__/mesh/core/src/fsm.c.obj
 .text.fsm_event_post
                0x00000000       0xbc examples/dfu/CMakeFiles/dfu_no_serial_nrf52832_xxAA_s132_6.0.0.dir/__/__/mesh/core/src/fsm.c.obj
 .text.fsm_is_processing
                0x00000000        0xc examples/dfu/CMakeFiles/dfu_no_serial_nrf52832_xxAA_s132_6.0.0.dir/__/__/mesh/core/src/fsm.c.obj
 .rodata.fsm_event_post.str1.4
                0x00000000        0xb examples/dfu/CMakeFiles/dfu_no_serial_nrf52832_xxAA_s132_6.0.0.dir/__/__/mesh/core/src/fsm.c.obj
 .rodata.fsm_event_post_try.str1.4
                0x00000000       0x44 examples/dfu/CMakeFiles/dfu_no_serial_nrf52832_xxAA_s132_6.0.0.dir/__/__/mesh/core/src/fsm.c.obj
 .rodata.fsm_init.str1.4
                0x00000000        0xa examples/dfu/CMakeFiles/dfu_no_serial_nrf52832_xxAA_s132_6.0.0.dir/__/__/mesh/core/src/fsm.c.obj
 .comment       0x00000000       0x80 examples/dfu/CMakeFiles/dfu_no_serial_nrf52832_xxAA_s132_6.0.0.dir/__/__/mesh/core/src/fsm.c.obj
 .ARM.attributes
                0x00000000       0x39 examples/dfu/CMakeFiles/dfu_no_serial_nrf52832_xxAA_s132_6.0.0.dir/__/__/mesh/core/src/fsm.c.obj
 .text          0x00000000        0x0 examples/dfu/CMakeFiles/dfu_no_serial_nrf52832_xxAA_s132_6.0.0.dir/__/__/mesh/core/src/core_tx_adv.c.obj
 .data          0x00000000        0x0 examples/dfu/CMakeFiles/dfu_no_serial_nrf52832_xxAA_s132_6.0.0.dir/__/__/mesh/core/src/core_tx_adv.c.obj
 .bss           0x00000000        0x0 examples/dfu/CMakeFiles/dfu_no_serial_nrf52832_xxAA_s132_6.0.0.dir/__/__/mesh/core/src/core_tx_adv.c.obj
 .text.core_tx_adv_address_set
                0x00000000       0x28 examples/dfu/CMakeFiles/dfu_no_serial_nrf52832_xxAA_s132_6.0.0.dir/__/__/mesh/core/src/core_tx_adv.c.obj
 .text          0x00000000        0x0 examples/dfu/CMakeFiles/dfu_no_serial_nrf52832_xxAA_s132_6.0.0.dir/__/__/mesh/bearer/src/ad_listener.c.obj
 .data          0x00000000        0x0 examples/dfu/CMakeFiles/dfu_no_serial_nrf52832_xxAA_s132_6.0.0.dir/__/__/mesh/bearer/src/ad_listener.c.obj
 .bss           0x00000000        0x0 examples/dfu/CMakeFiles/dfu_no_serial_nrf52832_xxAA_s132_6.0.0.dir/__/__/mesh/bearer/src/ad_listener.c.obj
 .text.ad_listener_unsubscribe
                0x00000000       0x7c examples/dfu/CMakeFiles/dfu_no_serial_nrf52832_xxAA_s132_6.0.0.dir/__/__/mesh/bearer/src/ad_listener.c.obj
 .text          0x00000000        0x0 examples/dfu/CMakeFiles/dfu_no_serial_nrf52832_xxAA_s132_6.0.0.dir/__/__/mesh/bearer/src/ad_type_filter.c.obj
 .data          0x00000000        0x0 examples/dfu/CMakeFiles/dfu_no_serial_nrf52832_xxAA_s132_6.0.0.dir/__/__/mesh/bearer/src/ad_type_filter.c.obj
 .bss           0x00000000        0x0 examples/dfu/CMakeFiles/dfu_no_serial_nrf52832_xxAA_s132_6.0.0.dir/__/__/mesh/bearer/src/ad_type_filter.c.obj
 .text.bearer_adtype_remove
                0x00000000       0x28 examples/dfu/CMakeFiles/dfu_no_serial_nrf52832_xxAA_s132_6.0.0.dir/__/__/mesh/bearer/src/ad_type_filter.c.obj
 .text.bearer_adtype_clear
                0x00000000       0x10 examples/dfu/CMakeFiles/dfu_no_serial_nrf52832_xxAA_s132_6.0.0.dir/__/__/mesh/bearer/src/ad_type_filter.c.obj
 .text.bearer_invalid_length_amount_get
                0x00000000        0xc examples/dfu/CMakeFiles/dfu_no_serial_nrf52832_xxAA_s132_6.0.0.dir/__/__/mesh/bearer/src/ad_type_filter.c.obj
 .text.bearer_adtype_filtered_amount_get
                0x00000000        0xc examples/dfu/CMakeFiles/dfu_no_serial_nrf52832_xxAA_s132_6.0.0.dir/__/__/mesh/bearer/src/ad_type_filter.c.obj
 .text          0x00000000        0x0 examples/dfu/CMakeFiles/dfu_no_serial_nrf52832_xxAA_s132_6.0.0.dir/__/__/mesh/bearer/src/adv_packet_filter.c.obj
 .data          0x00000000        0x0 examples/dfu/CMakeFiles/dfu_no_serial_nrf52832_xxAA_s132_6.0.0.dir/__/__/mesh/bearer/src/adv_packet_filter.c.obj
 .bss           0x00000000        0x0 examples/dfu/CMakeFiles/dfu_no_serial_nrf52832_xxAA_s132_6.0.0.dir/__/__/mesh/bearer/src/adv_packet_filter.c.obj
 .text.adv_filter_handle
                0x00000000       0x40 examples/dfu/CMakeFiles/dfu_no_serial_nrf52832_xxAA_s132_6.0.0.dir/__/__/mesh/bearer/src/adv_packet_filter.c.obj
 .text.bearer_adv_packet_filtering_set
                0x00000000       0x1c examples/dfu/CMakeFiles/dfu_no_serial_nrf52832_xxAA_s132_6.0.0.dir/__/__/mesh/bearer/src/adv_packet_filter.c.obj
 .text.bearer_adv_packet_remove
                0x00000000       0x18 examples/dfu/CMakeFiles/dfu_no_serial_nrf52832_xxAA_s132_6.0.0.dir/__/__/mesh/bearer/src/adv_packet_filter.c.obj
 .text.bearer_adv_packet_add
                0x00000000       0x14 examples/dfu/CMakeFiles/dfu_no_serial_nrf52832_xxAA_s132_6.0.0.dir/__/__/mesh/bearer/src/adv_packet_filter.c.obj
 .text.bearer_adv_packet_clear
                0x00000000        0xc examples/dfu/CMakeFiles/dfu_no_serial_nrf52832_xxAA_s132_6.0.0.dir/__/__/mesh/bearer/src/adv_packet_filter.c.obj
 .text.bearer_adv_packet_filter_mode_set
                0x00000000       0x18 examples/dfu/CMakeFiles/dfu_no_serial_nrf52832_xxAA_s132_6.0.0.dir/__/__/mesh/bearer/src/adv_packet_filter.c.obj
 .text.bearer_adv_packet_filtered_amount_get
                0x00000000        0xc examples/dfu/CMakeFiles/dfu_no_serial_nrf52832_xxAA_s132_6.0.0.dir/__/__/mesh/bearer/src/adv_packet_filter.c.obj
 .bss.m_adv_packet_filter
                0x00000000       0x14 examples/dfu/CMakeFiles/dfu_no_serial_nrf52832_xxAA_s132_6.0.0.dir/__/__/mesh/bearer/src/adv_packet_filter.c.obj
 .comment       0x00000000       0x80 examples/dfu/CMakeFiles/dfu_no_serial_nrf52832_xxAA_s132_6.0.0.dir/__/__/mesh/bearer/src/adv_packet_filter.c.obj
 .ARM.attributes
                0x00000000       0x39 examples/dfu/CMakeFiles/dfu_no_serial_nrf52832_xxAA_s132_6.0.0.dir/__/__/mesh/bearer/src/adv_packet_filter.c.obj
 .text          0x00000000        0x0 examples/dfu/CMakeFiles/dfu_no_serial_nrf52832_xxAA_s132_6.0.0.dir/__/__/mesh/bearer/src/advertiser.c.obj
 .data          0x00000000        0x0 examples/dfu/CMakeFiles/dfu_no_serial_nrf52832_xxAA_s132_6.0.0.dir/__/__/mesh/bearer/src/advertiser.c.obj
 .bss           0x00000000        0x0 examples/dfu/CMakeFiles/dfu_no_serial_nrf52832_xxAA_s132_6.0.0.dir/__/__/mesh/bearer/src/advertiser.c.obj
 .text.advertiser_disable
                0x00000000        0xc examples/dfu/CMakeFiles/dfu_no_serial_nrf52832_xxAA_s132_6.0.0.dir/__/__/mesh/bearer/src/advertiser.c.obj
 .text.advertiser_config_set
                0x00000000      0x180 examples/dfu/CMakeFiles/dfu_no_serial_nrf52832_xxAA_s132_6.0.0.dir/__/__/mesh/bearer/src/advertiser.c.obj
 .text.advertiser_channels_set
                0x00000000       0x94 examples/dfu/CMakeFiles/dfu_no_serial_nrf52832_xxAA_s132_6.0.0.dir/__/__/mesh/bearer/src/advertiser.c.obj
 .text.advertiser_address_set
                0x00000000       0x64 examples/dfu/CMakeFiles/dfu_no_serial_nrf52832_xxAA_s132_6.0.0.dir/__/__/mesh/bearer/src/advertiser.c.obj
 .text.advertiser_config_get
                0x00000000       0x24 examples/dfu/CMakeFiles/dfu_no_serial_nrf52832_xxAA_s132_6.0.0.dir/__/__/mesh/bearer/src/advertiser.c.obj
 .text          0x00000000        0x0 examples/dfu/CMakeFiles/dfu_no_serial_nrf52832_xxAA_s132_6.0.0.dir/__/__/mesh/bearer/src/bearer_handler.c.obj
 .data          0x00000000        0x0 examples/dfu/CMakeFiles/dfu_no_serial_nrf52832_xxAA_s132_6.0.0.dir/__/__/mesh/bearer/src/bearer_handler.c.obj
 .bss           0x00000000        0x0 examples/dfu/CMakeFiles/dfu_no_serial_nrf52832_xxAA_s132_6.0.0.dir/__/__/mesh/bearer/src/bearer_handler.c.obj
 .text.bearer_handler_stop
                0x00000000       0x20 examples/dfu/CMakeFiles/dfu_no_serial_nrf52832_xxAA_s132_6.0.0.dir/__/__/mesh/bearer/src/bearer_handler.c.obj
 .text.bearer_handler_action_fire
                0x00000000       0x9c examples/dfu/CMakeFiles/dfu_no_serial_nrf52832_xxAA_s132_6.0.0.dir/__/__/mesh/bearer/src/bearer_handler.c.obj
 .text          0x00000000        0x0 examples/dfu/CMakeFiles/dfu_no_serial_nrf52832_xxAA_s132_6.0.0.dir/__/__/mesh/bearer/src/broadcast.c.obj
 .data          0x00000000        0x0 examples/dfu/CMakeFiles/dfu_no_serial_nrf52832_xxAA_s132_6.0.0.dir/__/__/mesh/bearer/src/broadcast.c.obj
 .bss           0x00000000        0x0 examples/dfu/CMakeFiles/dfu_no_serial_nrf52832_xxAA_s132_6.0.0.dir/__/__/mesh/bearer/src/broadcast.c.obj
 .text          0x00000000        0x0 examples/dfu/CMakeFiles/dfu_no_serial_nrf52832_xxAA_s132_6.0.0.dir/__/__/mesh/bearer/src/filter_engine.c.obj
 .data          0x00000000        0x0 examples/dfu/CMakeFiles/dfu_no_serial_nrf52832_xxAA_s132_6.0.0.dir/__/__/mesh/bearer/src/filter_engine.c.obj
 .bss           0x00000000        0x0 examples/dfu/CMakeFiles/dfu_no_serial_nrf52832_xxAA_s132_6.0.0.dir/__/__/mesh/bearer/src/filter_engine.c.obj
 .text.fen_accepted_amount_get
                0x00000000        0xc examples/dfu/CMakeFiles/dfu_no_serial_nrf52832_xxAA_s132_6.0.0.dir/__/__/mesh/bearer/src/filter_engine.c.obj
 .text          0x00000000        0x0 examples/dfu/CMakeFiles/dfu_no_serial_nrf52832_xxAA_s132_6.0.0.dir/__/__/mesh/bearer/src/gap_address_filter.c.obj
 .data          0x00000000        0x0 examples/dfu/CMakeFiles/dfu_no_serial_nrf52832_xxAA_s132_6.0.0.dir/__/__/mesh/bearer/src/gap_address_filter.c.obj
 .bss           0x00000000        0x0 examples/dfu/CMakeFiles/dfu_no_serial_nrf52832_xxAA_s132_6.0.0.dir/__/__/mesh/bearer/src/gap_address_filter.c.obj
 .text.gap_address_filter_handle
                0x00000000       0xb4 examples/dfu/CMakeFiles/dfu_no_serial_nrf52832_xxAA_s132_6.0.0.dir/__/__/mesh/bearer/src/gap_address_filter.c.obj
 .text.bearer_filter_gap_addr_whitelist_set
                0x00000000       0x48 examples/dfu/CMakeFiles/dfu_no_serial_nrf52832_xxAA_s132_6.0.0.dir/__/__/mesh/bearer/src/gap_address_filter.c.obj
 .text.bearer_filter_gap_addr_blacklist_set
                0x00000000       0x4c examples/dfu/CMakeFiles/dfu_no_serial_nrf52832_xxAA_s132_6.0.0.dir/__/__/mesh/bearer/src/gap_address_filter.c.obj
 .text.bearer_filter_gap_addr_range_set
                0x00000000       0x64 examples/dfu/CMakeFiles/dfu_no_serial_nrf52832_xxAA_s132_6.0.0.dir/__/__/mesh/bearer/src/gap_address_filter.c.obj
 .text.bearer_filter_gap_addr_clear
                0x00000000       0x24 examples/dfu/CMakeFiles/dfu_no_serial_nrf52832_xxAA_s132_6.0.0.dir/__/__/mesh/bearer/src/gap_address_filter.c.obj
 .text.bearer_gap_addr_filtered_amount_get
                0x00000000        0xc examples/dfu/CMakeFiles/dfu_no_serial_nrf52832_xxAA_s132_6.0.0.dir/__/__/mesh/bearer/src/gap_address_filter.c.obj
 .bss.m_addr_filter
                0x00000000       0x18 examples/dfu/CMakeFiles/dfu_no_serial_nrf52832_xxAA_s132_6.0.0.dir/__/__/mesh/bearer/src/gap_address_filter.c.obj
 .comment       0x00000000       0x80 examples/dfu/CMakeFiles/dfu_no_serial_nrf52832_xxAA_s132_6.0.0.dir/__/__/mesh/bearer/src/gap_address_filter.c.obj
 .ARM.attributes
                0x00000000       0x39 examples/dfu/CMakeFiles/dfu_no_serial_nrf52832_xxAA_s132_6.0.0.dir/__/__/mesh/bearer/src/gap_address_filter.c.obj
 .text          0x00000000        0x0 examples/dfu/CMakeFiles/dfu_no_serial_nrf52832_xxAA_s132_6.0.0.dir/__/__/mesh/bearer/src/radio_config.c.obj
 .data          0x00000000        0x0 examples/dfu/CMakeFiles/dfu_no_serial_nrf52832_xxAA_s132_6.0.0.dir/__/__/mesh/bearer/src/radio_config.c.obj
 .bss           0x00000000        0x0 examples/dfu/CMakeFiles/dfu_no_serial_nrf52832_xxAA_s132_6.0.0.dir/__/__/mesh/bearer/src/radio_config.c.obj
 .text.radio_config_access_addr_get
                0x00000000       0x54 examples/dfu/CMakeFiles/dfu_no_serial_nrf52832_xxAA_s132_6.0.0.dir/__/__/mesh/bearer/src/radio_config.c.obj
 .text          0x00000000        0x0 examples/dfu/CMakeFiles/dfu_no_serial_nrf52832_xxAA_s132_6.0.0.dir/__/__/mesh/bearer/src/rssi_filter.c.obj
 .data          0x00000000        0x0 examples/dfu/CMakeFiles/dfu_no_serial_nrf52832_xxAA_s132_6.0.0.dir/__/__/mesh/bearer/src/rssi_filter.c.obj
 .bss           0x00000000        0x0 examples/dfu/CMakeFiles/dfu_no_serial_nrf52832_xxAA_s132_6.0.0.dir/__/__/mesh/bearer/src/rssi_filter.c.obj
 .text.rssi_filter_handle
                0x00000000       0x20 examples/dfu/CMakeFiles/dfu_no_serial_nrf52832_xxAA_s132_6.0.0.dir/__/__/mesh/bearer/src/rssi_filter.c.obj
 .text.bearer_rssi_filtering_set
                0x00000000       0x34 examples/dfu/CMakeFiles/dfu_no_serial_nrf52832_xxAA_s132_6.0.0.dir/__/__/mesh/bearer/src/rssi_filter.c.obj
 .text.bearer_rssi_filtered_amount_get
                0x00000000        0xc examples/dfu/CMakeFiles/dfu_no_serial_nrf52832_xxAA_s132_6.0.0.dir/__/__/mesh/bearer/src/rssi_filter.c.obj
 .bss.m_rssi_filter
                0x00000000       0x18 examples/dfu/CMakeFiles/dfu_no_serial_nrf52832_xxAA_s132_6.0.0.dir/__/__/mesh/bearer/src/rssi_filter.c.obj
 .comment       0x00000000       0x80 examples/dfu/CMakeFiles/dfu_no_serial_nrf52832_xxAA_s132_6.0.0.dir/__/__/mesh/bearer/src/rssi_filter.c.obj
 .ARM.attributes
                0x00000000       0x39 examples/dfu/CMakeFiles/dfu_no_serial_nrf52832_xxAA_s132_6.0.0.dir/__/__/mesh/bearer/src/rssi_filter.c.obj
 .text          0x00000000        0x0 examples/dfu/CMakeFiles/dfu_no_serial_nrf52832_xxAA_s132_6.0.0.dir/__/__/mesh/bearer/src/scanner.c.obj
 .data          0x00000000        0x0 examples/dfu/CMakeFiles/dfu_no_serial_nrf52832_xxAA_s132_6.0.0.dir/__/__/mesh/bearer/src/scanner.c.obj
 .bss           0x00000000        0x0 examples/dfu/CMakeFiles/dfu_no_serial_nrf52832_xxAA_s132_6.0.0.dir/__/__/mesh/bearer/src/scanner.c.obj
 .text.scanner_rx_callback_set
                0x00000000       0x20 examples/dfu/CMakeFiles/dfu_no_serial_nrf52832_xxAA_s132_6.0.0.dir/__/__/mesh/bearer/src/scanner.c.obj
 .text.scanner_disable
                0x00000000       0x54 examples/dfu/CMakeFiles/dfu_no_serial_nrf52832_xxAA_s132_6.0.0.dir/__/__/mesh/bearer/src/scanner.c.obj
 .text.scanner_is_enabled
                0x00000000       0x14 examples/dfu/CMakeFiles/dfu_no_serial_nrf52832_xxAA_s132_6.0.0.dir/__/__/mesh/bearer/src/scanner.c.obj
 .text.scanner_stats_get
                0x00000000        0x8 examples/dfu/CMakeFiles/dfu_no_serial_nrf52832_xxAA_s132_6.0.0.dir/__/__/mesh/bearer/src/scanner.c.obj
 .text.scanner_config_radio_mode_set
                0x00000000       0x10 examples/dfu/CMakeFiles/dfu_no_serial_nrf52832_xxAA_s132_6.0.0.dir/__/__/mesh/bearer/src/scanner.c.obj
 .text.scanner_config_scan_time_set
                0x00000000       0x88 examples/dfu/CMakeFiles/dfu_no_serial_nrf52832_xxAA_s132_6.0.0.dir/__/__/mesh/bearer/src/scanner.c.obj
 .text.scanner_config_channels_set
                0x00000000       0x50 examples/dfu/CMakeFiles/dfu_no_serial_nrf52832_xxAA_s132_6.0.0.dir/__/__/mesh/bearer/src/scanner.c.obj
 .text.scanner_config_access_addresses_set
                0x00000000       0x38 examples/dfu/CMakeFiles/dfu_no_serial_nrf52832_xxAA_s132_6.0.0.dir/__/__/mesh/bearer/src/scanner.c.obj
 .text          0x00000000        0x0 examples/dfu/CMakeFiles/dfu_no_serial_nrf52832_xxAA_s132_6.0.0.dir/C_/b/nRF5_SDK_15.0.0_a53641a/modules/nrfx/mdk/system_nrf52.c.obj
 .data          0x00000000        0x0 examples/dfu/CMakeFiles/dfu_no_serial_nrf52832_xxAA_s132_6.0.0.dir/C_/b/nRF5_SDK_15.0.0_a53641a/modules/nrfx/mdk/system_nrf52.c.obj
 .bss           0x00000000        0x0 examples/dfu/CMakeFiles/dfu_no_serial_nrf52832_xxAA_s132_6.0.0.dir/C_/b/nRF5_SDK_15.0.0_a53641a/modules/nrfx/mdk/system_nrf52.c.obj
 .text.SystemCoreClockUpdate
                0x00000000       0x10 examples/dfu/CMakeFiles/dfu_no_serial_nrf52832_xxAA_s132_6.0.0.dir/C_/b/nRF5_SDK_15.0.0_a53641a/modules/nrfx/mdk/system_nrf52.c.obj
 .data          0x00000000        0x0 examples/dfu/CMakeFiles/dfu_no_serial_nrf52832_xxAA_s132_6.0.0.dir/C_/b/nRF5_SDK_15.0.0_a53641a/modules/nrfx/mdk/gcc_startup_nrf52.S.obj
 .bss           0x00000000        0x0 examples/dfu/CMakeFiles/dfu_no_serial_nrf52832_xxAA_s132_6.0.0.dir/C_/b/nRF5_SDK_15.0.0_a53641a/modules/nrfx/mdk/gcc_startup_nrf52.S.obj
 .text          0x00000000        0x0 examples/dfu/CMakeFiles/dfu_no_serial_nrf52832_xxAA_s132_6.0.0.dir/C_/b/nRF5_SDK_15.0.0_a53641a/components/libraries/util/app_error.c.obj
 .data          0x00000000        0x0 examples/dfu/CMakeFiles/dfu_no_serial_nrf52832_xxAA_s132_6.0.0.dir/C_/b/nRF5_SDK_15.0.0_a53641a/components/libraries/util/app_error.c.obj
 .bss           0x00000000        0x0 examples/dfu/CMakeFiles/dfu_no_serial_nrf52832_xxAA_s132_6.0.0.dir/C_/b/nRF5_SDK_15.0.0_a53641a/components/libraries/util/app_error.c.obj
 .text.app_error_save_and_stop
                0x00000000       0x64 examples/dfu/CMakeFiles/dfu_no_serial_nrf52832_xxAA_s132_6.0.0.dir/C_/b/nRF5_SDK_15.0.0_a53641a/components/libraries/util/app_error.c.obj
 .bss.m_error_data.7863
                0x00000000       0x20 examples/dfu/CMakeFiles/dfu_no_serial_nrf52832_xxAA_s132_6.0.0.dir/C_/b/nRF5_SDK_15.0.0_a53641a/components/libraries/util/app_error.c.obj
 .text          0x00000000        0x0 examples/dfu/CMakeFiles/dfu_no_serial_nrf52832_xxAA_s132_6.0.0.dir/C_/b/nRF5_SDK_15.0.0_a53641a/components/libraries/util/app_error_handler_gcc.c.obj
 .data          0x00000000        0x0 examples/dfu/CMakeFiles/dfu_no_serial_nrf52832_xxAA_s132_6.0.0.dir/C_/b/nRF5_SDK_15.0.0_a53641a/components/libraries/util/app_error_handler_gcc.c.obj
 .bss           0x00000000        0x0 examples/dfu/CMakeFiles/dfu_no_serial_nrf52832_xxAA_s132_6.0.0.dir/C_/b/nRF5_SDK_15.0.0_a53641a/components/libraries/util/app_error_handler_gcc.c.obj
 .text          0x00000000        0x0 external/rtt/librtt_nrf52832_xxAA.a(SEGGER_RTT.c.obj)
 .data          0x00000000        0x0 external/rtt/librtt_nrf52832_xxAA.a(SEGGER_RTT.c.obj)
 .bss           0x00000000        0x0 external/rtt/librtt_nrf52832_xxAA.a(SEGGER_RTT.c.obj)
 .text.SEGGER_RTT_ReadNoLock
                0x00000000      0x100 external/rtt/librtt_nrf52832_xxAA.a(SEGGER_RTT.c.obj)
 .text.SEGGER_RTT_Read
                0x00000000      0x114 external/rtt/librtt_nrf52832_xxAA.a(SEGGER_RTT.c.obj)
 .text.SEGGER_RTT_WriteSkipNoLock
                0x00000000      0x184 external/rtt/librtt_nrf52832_xxAA.a(SEGGER_RTT.c.obj)
 .text.SEGGER_RTT_WriteNoLock
                0x00000000      0x188 external/rtt/librtt_nrf52832_xxAA.a(SEGGER_RTT.c.obj)
 .text.SEGGER_RTT_WriteString
                0x00000000      0x20c external/rtt/librtt_nrf52832_xxAA.a(SEGGER_RTT.c.obj)
 .text.SEGGER_RTT_GetKey
                0x00000000       0xec external/rtt/librtt_nrf52832_xxAA.a(SEGGER_RTT.c.obj)
 .text.SEGGER_RTT_WaitKey
                0x00000000      0x114 external/rtt/librtt_nrf52832_xxAA.a(SEGGER_RTT.c.obj)
 .text.SEGGER_RTT_HasKey
                0x00000000       0x6c external/rtt/librtt_nrf52832_xxAA.a(SEGGER_RTT.c.obj)
 .text.SEGGER_RTT_HasData
                0x00000000       0x18 external/rtt/librtt_nrf52832_xxAA.a(SEGGER_RTT.c.obj)
 .text.SEGGER_RTT_AllocDownBuffer
                0x00000000       0xbc external/rtt/librtt_nrf52832_xxAA.a(SEGGER_RTT.c.obj)
 .text.SEGGER_RTT_AllocUpBuffer
                0x00000000       0xd8 external/rtt/librtt_nrf52832_xxAA.a(SEGGER_RTT.c.obj)
 .text.SEGGER_RTT_ConfigUpBuffer
                0x00000000       0xd0 external/rtt/librtt_nrf52832_xxAA.a(SEGGER_RTT.c.obj)
 .text.SEGGER_RTT_ConfigDownBuffer
                0x00000000       0xb8 external/rtt/librtt_nrf52832_xxAA.a(SEGGER_RTT.c.obj)
 .text.SEGGER_RTT_SetNameUpBuffer
                0x00000000       0x90 external/rtt/librtt_nrf52832_xxAA.a(SEGGER_RTT.c.obj)
 .text.SEGGER_RTT_SetNameDownBuffer
                0x00000000       0x90 external/rtt/librtt_nrf52832_xxAA.a(SEGGER_RTT.c.obj)
 .text.SEGGER_RTT_Init
                0x00000000       0x60 external/rtt/librtt_nrf52832_xxAA.a(SEGGER_RTT.c.obj)
 .text.SEGGER_RTT_SetTerminal
                0x00000000      0x15c external/rtt/librtt_nrf52832_xxAA.a(SEGGER_RTT.c.obj)
 .text.SEGGER_RTT_TerminalOut
                0x00000000      0x40c external/rtt/librtt_nrf52832_xxAA.a(SEGGER_RTT.c.obj)
 .bss._ActiveTerminal
                0x00000000        0x1 external/rtt/librtt_nrf52832_xxAA.a(SEGGER_RTT.c.obj)
 .rodata._aTerminalId
                0x00000000       0x10 external/rtt/librtt_nrf52832_xxAA.a(SEGGER_RTT.c.obj)
 .text          0x00000000        0x0 external/rtt/librtt_nrf52832_xxAA.a(SEGGER_RTT_printf.c.obj)
 .data          0x00000000        0x0 external/rtt/librtt_nrf52832_xxAA.a(SEGGER_RTT_printf.c.obj)
 .bss           0x00000000        0x0 external/rtt/librtt_nrf52832_xxAA.a(SEGGER_RTT_printf.c.obj)
 .text          0x00000000        0x0 external/micro-ecc/libuECC_nrf52832_xxAA.a(uECC.c.obj)
 .data          0x00000000        0x0 external/micro-ecc/libuECC_nrf52832_xxAA.a(uECC.c.obj)
 .bss           0x00000000        0x0 external/micro-ecc/libuECC_nrf52832_xxAA.a(uECC.c.obj)
 .text.HMAC_finish
                0x00000000       0x70 external/micro-ecc/libuECC_nrf52832_xxAA.a(uECC.c.obj)
 .text.uECC_vli_mmod
                0x00000000      0x3c8 external/micro-ecc/libuECC_nrf52832_xxAA.a(uECC.c.obj)
 .text.uECC_vli_modSub.isra.2
                0x00000000       0x98 external/micro-ecc/libuECC_nrf52832_xxAA.a(uECC.c.obj)
 .text.bits2int
                0x00000000      0x14c external/micro-ecc/libuECC_nrf52832_xxAA.a(uECC.c.obj)
 .text.uECC_sign_with_k
                0x00000000      0x60c external/micro-ecc/libuECC_nrf52832_xxAA.a(uECC.c.obj)
 .text.uECC_set_rng
                0x00000000        0xc external/micro-ecc/libuECC_nrf52832_xxAA.a(uECC.c.obj)
 .text.uECC_get_rng
                0x00000000        0xc external/micro-ecc/libuECC_nrf52832_xxAA.a(uECC.c.obj)
 .text.uECC_curve_private_key_size
                0x00000000       0x10 external/micro-ecc/libuECC_nrf52832_xxAA.a(uECC.c.obj)
 .text.uECC_curve_public_key_size
                0x00000000        0x8 external/micro-ecc/libuECC_nrf52832_xxAA.a(uECC.c.obj)
 .text.uECC_compute_public_key
                0x00000000      0x2e4 external/micro-ecc/libuECC_nrf52832_xxAA.a(uECC.c.obj)
 .text.uECC_sign
                0x00000000       0x60 external/micro-ecc/libuECC_nrf52832_xxAA.a(uECC.c.obj)
 .text.uECC_sign_deterministic
                0x00000000      0x400 external/micro-ecc/libuECC_nrf52832_xxAA.a(uECC.c.obj)
 .text.uECC_verify
                0x00000000      0x95c external/micro-ecc/libuECC_nrf52832_xxAA.a(uECC.c.obj)
 .text          0x00000000        0x0 c:/mesh/arm_gcc/bin/../lib/gcc/arm-none-eabi/6.3.1/../../../../arm-none-eabi/lib/thumb/v7e-m/fpv4-sp/hard\libc_nano.a(lib_a-exit.o)
 .data          0x00000000        0x0 c:/mesh/arm_gcc/bin/../lib/gcc/arm-none-eabi/6.3.1/../../../../arm-none-eabi/lib/thumb/v7e-m/fpv4-sp/hard\libc_nano.a(lib_a-exit.o)
 .bss           0x00000000        0x0 c:/mesh/arm_gcc/bin/../lib/gcc/arm-none-eabi/6.3.1/../../../../arm-none-eabi/lib/thumb/v7e-m/fpv4-sp/hard\libc_nano.a(lib_a-exit.o)
 .text          0x00000000        0x0 c:/mesh/arm_gcc/bin/../lib/gcc/arm-none-eabi/6.3.1/../../../../arm-none-eabi/lib/thumb/v7e-m/fpv4-sp/hard\libc_nano.a(lib_a-impure.o)
 .data          0x00000000        0x0 c:/mesh/arm_gcc/bin/../lib/gcc/arm-none-eabi/6.3.1/../../../../arm-none-eabi/lib/thumb/v7e-m/fpv4-sp/hard\libc_nano.a(lib_a-impure.o)
 .bss           0x00000000        0x0 c:/mesh/arm_gcc/bin/../lib/gcc/arm-none-eabi/6.3.1/../../../../arm-none-eabi/lib/thumb/v7e-m/fpv4-sp/hard\libc_nano.a(lib_a-impure.o)
 .text          0x00000000        0x0 c:/mesh/arm_gcc/bin/../lib/gcc/arm-none-eabi/6.3.1/../../../../arm-none-eabi/lib/thumb/v7e-m/fpv4-sp/hard\libc_nano.a(lib_a-init.o)
 .data          0x00000000        0x0 c:/mesh/arm_gcc/bin/../lib/gcc/arm-none-eabi/6.3.1/../../../../arm-none-eabi/lib/thumb/v7e-m/fpv4-sp/hard\libc_nano.a(lib_a-init.o)
 .bss           0x00000000        0x0 c:/mesh/arm_gcc/bin/../lib/gcc/arm-none-eabi/6.3.1/../../../../arm-none-eabi/lib/thumb/v7e-m/fpv4-sp/hard\libc_nano.a(lib_a-init.o)
 .text          0x00000000        0x0 c:/mesh/arm_gcc/bin/../lib/gcc/arm-none-eabi/6.3.1/../../../../arm-none-eabi/lib/thumb/v7e-m/fpv4-sp/hard\libc_nano.a(lib_a-malloc.o)
 .data          0x00000000        0x0 c:/mesh/arm_gcc/bin/../lib/gcc/arm-none-eabi/6.3.1/../../../../arm-none-eabi/lib/thumb/v7e-m/fpv4-sp/hard\libc_nano.a(lib_a-malloc.o)
 .bss           0x00000000        0x0 c:/mesh/arm_gcc/bin/../lib/gcc/arm-none-eabi/6.3.1/../../../../arm-none-eabi/lib/thumb/v7e-m/fpv4-sp/hard\libc_nano.a(lib_a-malloc.o)
 .text          0x00000000        0x0 c:/mesh/arm_gcc/bin/../lib/gcc/arm-none-eabi/6.3.1/../../../../arm-none-eabi/lib/thumb/v7e-m/fpv4-sp/hard\libc_nano.a(lib_a-memcmp.o)
 .data          0x00000000        0x0 c:/mesh/arm_gcc/bin/../lib/gcc/arm-none-eabi/6.3.1/../../../../arm-none-eabi/lib/thumb/v7e-m/fpv4-sp/hard\libc_nano.a(lib_a-memcmp.o)
 .bss           0x00000000        0x0 c:/mesh/arm_gcc/bin/../lib/gcc/arm-none-eabi/6.3.1/../../../../arm-none-eabi/lib/thumb/v7e-m/fpv4-sp/hard\libc_nano.a(lib_a-memcmp.o)
 .text          0x00000000        0x0 c:/mesh/arm_gcc/bin/../lib/gcc/arm-none-eabi/6.3.1/../../../../arm-none-eabi/lib/thumb/v7e-m/fpv4-sp/hard\libc_nano.a(lib_a-memcpy-stub.o)
 .data          0x00000000        0x0 c:/mesh/arm_gcc/bin/../lib/gcc/arm-none-eabi/6.3.1/../../../../arm-none-eabi/lib/thumb/v7e-m/fpv4-sp/hard\libc_nano.a(lib_a-memcpy-stub.o)
 .bss           0x00000000        0x0 c:/mesh/arm_gcc/bin/../lib/gcc/arm-none-eabi/6.3.1/../../../../arm-none-eabi/lib/thumb/v7e-m/fpv4-sp/hard\libc_nano.a(lib_a-memcpy-stub.o)
 .text          0x00000000        0x0 c:/mesh/arm_gcc/bin/../lib/gcc/arm-none-eabi/6.3.1/../../../../arm-none-eabi/lib/thumb/v7e-m/fpv4-sp/hard\libc_nano.a(lib_a-memset.o)
 .data          0x00000000        0x0 c:/mesh/arm_gcc/bin/../lib/gcc/arm-none-eabi/6.3.1/../../../../arm-none-eabi/lib/thumb/v7e-m/fpv4-sp/hard\libc_nano.a(lib_a-memset.o)
 .bss           0x00000000        0x0 c:/mesh/arm_gcc/bin/../lib/gcc/arm-none-eabi/6.3.1/../../../../arm-none-eabi/lib/thumb/v7e-m/fpv4-sp/hard\libc_nano.a(lib_a-memset.o)
 .text          0x00000000        0x0 c:/mesh/arm_gcc/bin/../lib/gcc/arm-none-eabi/6.3.1/../../../../arm-none-eabi/lib/thumb/v7e-m/fpv4-sp/hard\libc_nano.a(lib_a-nano-freer.o)
 .data          0x00000000        0x0 c:/mesh/arm_gcc/bin/../lib/gcc/arm-none-eabi/6.3.1/../../../../arm-none-eabi/lib/thumb/v7e-m/fpv4-sp/hard\libc_nano.a(lib_a-nano-freer.o)
 .bss           0x00000000        0x0 c:/mesh/arm_gcc/bin/../lib/gcc/arm-none-eabi/6.3.1/../../../../arm-none-eabi/lib/thumb/v7e-m/fpv4-sp/hard\libc_nano.a(lib_a-nano-freer.o)
 .text          0x00000000        0x0 c:/mesh/arm_gcc/bin/../lib/gcc/arm-none-eabi/6.3.1/../../../../arm-none-eabi/lib/thumb/v7e-m/fpv4-sp/hard\libc_nano.a(lib_a-nano-mallocr.o)
 .data          0x00000000        0x0 c:/mesh/arm_gcc/bin/../lib/gcc/arm-none-eabi/6.3.1/../../../../arm-none-eabi/lib/thumb/v7e-m/fpv4-sp/hard\libc_nano.a(lib_a-nano-mallocr.o)
 .bss           0x00000000        0x0 c:/mesh/arm_gcc/bin/../lib/gcc/arm-none-eabi/6.3.1/../../../../arm-none-eabi/lib/thumb/v7e-m/fpv4-sp/hard\libc_nano.a(lib_a-nano-mallocr.o)
 .text          0x00000000        0x0 c:/mesh/arm_gcc/bin/../lib/gcc/arm-none-eabi/6.3.1/../../../../arm-none-eabi/lib/thumb/v7e-m/fpv4-sp/hard\libc_nano.a(lib_a-sbrkr.o)
 .data          0x00000000        0x0 c:/mesh/arm_gcc/bin/../lib/gcc/arm-none-eabi/6.3.1/../../../../arm-none-eabi/lib/thumb/v7e-m/fpv4-sp/hard\libc_nano.a(lib_a-sbrkr.o)
 .bss           0x00000000        0x0 c:/mesh/arm_gcc/bin/../lib/gcc/arm-none-eabi/6.3.1/../../../../arm-none-eabi/lib/thumb/v7e-m/fpv4-sp/hard\libc_nano.a(lib_a-sbrkr.o)
 .text          0x00000000        0x0 c:/mesh/arm_gcc/bin/../lib/gcc/arm-none-eabi/6.3.1/../../../../arm-none-eabi/lib/thumb/v7e-m/fpv4-sp/hard\libc_nano.a(lib_a-strcpy.o)
 .data          0x00000000        0x0 c:/mesh/arm_gcc/bin/../lib/gcc/arm-none-eabi/6.3.1/../../../../arm-none-eabi/lib/thumb/v7e-m/fpv4-sp/hard\libc_nano.a(lib_a-strcpy.o)
 .bss           0x00000000        0x0 c:/mesh/arm_gcc/bin/../lib/gcc/arm-none-eabi/6.3.1/../../../../arm-none-eabi/lib/thumb/v7e-m/fpv4-sp/hard\libc_nano.a(lib_a-strcpy.o)
 .data          0x00000000        0x0 c:/mesh/arm_gcc/bin/../lib/gcc/arm-none-eabi/6.3.1/../../../../arm-none-eabi/lib/thumb/v7e-m/fpv4-sp/hard\libc_nano.a(lib_a-strlen.o)
 .bss           0x00000000        0x0 c:/mesh/arm_gcc/bin/../lib/gcc/arm-none-eabi/6.3.1/../../../../arm-none-eabi/lib/thumb/v7e-m/fpv4-sp/hard\libc_nano.a(lib_a-strlen.o)
 .text          0x00000000        0x0 c:/mesh/arm_gcc/bin/../lib/gcc/arm-none-eabi/6.3.1/../../../../arm-none-eabi/lib/thumb/v7e-m/fpv4-sp/hard\libc_nano.a(lib_a-strrchr.o)
 .data          0x00000000        0x0 c:/mesh/arm_gcc/bin/../lib/gcc/arm-none-eabi/6.3.1/../../../../arm-none-eabi/lib/thumb/v7e-m/fpv4-sp/hard\libc_nano.a(lib_a-strrchr.o)
 .bss           0x00000000        0x0 c:/mesh/arm_gcc/bin/../lib/gcc/arm-none-eabi/6.3.1/../../../../arm-none-eabi/lib/thumb/v7e-m/fpv4-sp/hard\libc_nano.a(lib_a-strrchr.o)
 .text          0x00000000        0x0 c:/mesh/arm_gcc/bin/../lib/gcc/arm-none-eabi/6.3.1/../../../../arm-none-eabi/lib/thumb/v7e-m/fpv4-sp/hard\libc_nano.a(lib_a-mlock.o)
 .data          0x00000000        0x0 c:/mesh/arm_gcc/bin/../lib/gcc/arm-none-eabi/6.3.1/../../../../arm-none-eabi/lib/thumb/v7e-m/fpv4-sp/hard\libc_nano.a(lib_a-mlock.o)
 .bss           0x00000000        0x0 c:/mesh/arm_gcc/bin/../lib/gcc/arm-none-eabi/6.3.1/../../../../arm-none-eabi/lib/thumb/v7e-m/fpv4-sp/hard\libc_nano.a(lib_a-mlock.o)
 .text          0x00000000        0x0 c:/mesh/arm_gcc/bin/../lib/gcc/arm-none-eabi/6.3.1/../../../../arm-none-eabi/lib/thumb/v7e-m/fpv4-sp/hard\libc_nano.a(lib_a-reent.o)
 .data          0x00000000        0x0 c:/mesh/arm_gcc/bin/../lib/gcc/arm-none-eabi/6.3.1/../../../../arm-none-eabi/lib/thumb/v7e-m/fpv4-sp/hard\libc_nano.a(lib_a-reent.o)
 .bss           0x00000000        0x0 c:/mesh/arm_gcc/bin/../lib/gcc/arm-none-eabi/6.3.1/../../../../arm-none-eabi/lib/thumb/v7e-m/fpv4-sp/hard\libc_nano.a(lib_a-reent.o)
 .text.cleanup_glue
                0x00000000       0x1a c:/mesh/arm_gcc/bin/../lib/gcc/arm-none-eabi/6.3.1/../../../../arm-none-eabi/lib/thumb/v7e-m/fpv4-sp/hard\libc_nano.a(lib_a-reent.o)
 .text._reclaim_reent
                0x00000000       0xb8 c:/mesh/arm_gcc/bin/../lib/gcc/arm-none-eabi/6.3.1/../../../../arm-none-eabi/lib/thumb/v7e-m/fpv4-sp/hard\libc_nano.a(lib_a-reent.o)
 .text          0x00000000        0x0 c:/mesh/arm_gcc/bin/../lib/gcc/arm-none-eabi/6.3.1/../../../../arm-none-eabi/lib/thumb/v7e-m/fpv4-sp/hard\libc_nano.a(lib_a-strchr.o)
 .data          0x00000000        0x0 c:/mesh/arm_gcc/bin/../lib/gcc/arm-none-eabi/6.3.1/../../../../arm-none-eabi/lib/thumb/v7e-m/fpv4-sp/hard\libc_nano.a(lib_a-strchr.o)
 .bss           0x00000000        0x0 c:/mesh/arm_gcc/bin/../lib/gcc/arm-none-eabi/6.3.1/../../../../arm-none-eabi/lib/thumb/v7e-m/fpv4-sp/hard\libc_nano.a(lib_a-strchr.o)
 .text          0x00000000        0x0 c:/mesh/arm_gcc/bin/../lib/gcc/arm-none-eabi/6.3.1/thumb/v7e-m/fpv4-sp/hard/crtend.o
 .data          0x00000000        0x0 c:/mesh/arm_gcc/bin/../lib/gcc/arm-none-eabi/6.3.1/thumb/v7e-m/fpv4-sp/hard/crtend.o
 .bss           0x00000000        0x0 c:/mesh/arm_gcc/bin/../lib/gcc/arm-none-eabi/6.3.1/thumb/v7e-m/fpv4-sp/hard/crtend.o
 .text          0x00000000        0x0 c:/mesh/arm_gcc/bin/../lib/gcc/arm-none-eabi/6.3.1/thumb/v7e-m/fpv4-sp/hard/crtn.o
 .data          0x00000000        0x0 c:/mesh/arm_gcc/bin/../lib/gcc/arm-none-eabi/6.3.1/thumb/v7e-m/fpv4-sp/hard/crtn.o
 .bss           0x00000000        0x0 c:/mesh/arm_gcc/bin/../lib/gcc/arm-none-eabi/6.3.1/thumb/v7e-m/fpv4-sp/hard/crtn.o
 .text          0x00000000        0x0 c:/mesh/arm_gcc/bin/../lib/gcc/arm-none-eabi/6.3.1/../../../../arm-none-eabi/lib/thumb/v7e-m/fpv4-sp/hard\libnosys.a(sbrk.o)
 .data          0x00000000        0x0 c:/mesh/arm_gcc/bin/../lib/gcc/arm-none-eabi/6.3.1/../../../../arm-none-eabi/lib/thumb/v7e-m/fpv4-sp/hard\libnosys.a(sbrk.o)
 .bss           0x00000000        0x0 c:/mesh/arm_gcc/bin/../lib/gcc/arm-none-eabi/6.3.1/../../../../arm-none-eabi/lib/thumb/v7e-m/fpv4-sp/hard\libnosys.a(sbrk.o)
 .text          0x00000000        0x0 c:/mesh/arm_gcc/bin/../lib/gcc/arm-none-eabi/6.3.1/../../../../arm-none-eabi/lib/thumb/v7e-m/fpv4-sp/hard\libnosys.a(_exit.o)
 .data          0x00000000        0x0 c:/mesh/arm_gcc/bin/../lib/gcc/arm-none-eabi/6.3.1/../../../../arm-none-eabi/lib/thumb/v7e-m/fpv4-sp/hard\libnosys.a(_exit.o)
 .bss           0x00000000        0x0 c:/mesh/arm_gcc/bin/../lib/gcc/arm-none-eabi/6.3.1/../../../../arm-none-eabi/lib/thumb/v7e-m/fpv4-sp/hard\libnosys.a(_exit.o)

Memory Configuration

Name             Origin             Length             Attributes
FLASH            0x00026000         0x00051000         xr
RAM              0x200032c8         0x0000ca38         xrw
*default*        0x00000000         0xffffffff

Linker script and memory map


.text           0x00026000    0x1f198
 *(.isr_vector)
 .isr_vector    0x00026000      0x200 examples/dfu/CMakeFiles/dfu_no_serial_nrf52832_xxAA_s132_6.0.0.dir/C_/b/nRF5_SDK_15.0.0_a53641a/modules/nrfx/mdk/gcc_startup_nrf52.S.obj
                0x00026000                __isr_vector
 *(.text*)
 .text          0x00026200       0x6c c:/mesh/arm_gcc/bin/../lib/gcc/arm-none-eabi/6.3.1/thumb/v7e-m/fpv4-sp/hard/crtbegin.o
 .text          0x0002626c       0x74 c:/mesh/arm_gcc/bin/../lib/gcc/arm-none-eabi/6.3.1/../../../../arm-none-eabi/lib/thumb/v7e-m/fpv4-sp/hard/crt0.o
                0x0002626c                _start
                0x0002626c                _mainCRTStartup
 .text.sd_app_evt_wait
                0x000262e0        0x4 examples/dfu/CMakeFiles/dfu_no_serial_nrf52832_xxAA_s132_6.0.0.dir/src/main.c.obj
 .text.config_server_evt_cb
                0x000262e4       0x88 examples/dfu/CMakeFiles/dfu_no_serial_nrf52832_xxAA_s132_6.0.0.dir/src/main.c.obj
 .text.mesh_evt_handler
                0x0002636c       0xe0 examples/dfu/CMakeFiles/dfu_no_serial_nrf52832_xxAA_s132_6.0.0.dir/src/main.c.obj
 .text.startup.main
                0x0002644c      0x45c examples/dfu/CMakeFiles/dfu_no_serial_nrf52832_xxAA_s132_6.0.0.dir/src/main.c.obj
                0x0002644c                main
 .text.mesh_evt_handler
                0x000268a8       0x10 examples/dfu/CMakeFiles/dfu_no_serial_nrf52832_xxAA_s132_6.0.0.dir/__/__/mesh/stack/src/mesh_stack.c.obj
 .text.mesh_stack_init
                0x000268b8       0x94 examples/dfu/CMakeFiles/dfu_no_serial_nrf52832_xxAA_s132_6.0.0.dir/__/__/mesh/stack/src/mesh_stack.c.obj
                0x000268b8                mesh_stack_init
 .text.mesh_stack_start
                0x0002694c        0x4 examples/dfu/CMakeFiles/dfu_no_serial_nrf52832_xxAA_s132_6.0.0.dir/__/__/mesh/stack/src/mesh_stack.c.obj
                0x0002694c                mesh_stack_start
 .text.mesh_stack_provisioning_data_store
                0x00026950       0x78 examples/dfu/CMakeFiles/dfu_no_serial_nrf52832_xxAA_s132_6.0.0.dir/__/__/mesh/stack/src/mesh_stack.c.obj
                0x00026950                mesh_stack_provisioning_data_store
 .text.mesh_stack_config_clear
                0x000269c8       0x14 examples/dfu/CMakeFiles/dfu_no_serial_nrf52832_xxAA_s132_6.0.0.dir/__/__/mesh/stack/src/mesh_stack.c.obj
                0x000269c8                mesh_stack_config_clear
 .text.mesh_stack_device_reset
                0x000269dc       0x20 examples/dfu/CMakeFiles/dfu_no_serial_nrf52832_xxAA_s132_6.0.0.dir/__/__/mesh/stack/src/mesh_stack.c.obj
                0x000269dc                mesh_stack_device_reset
 .text.sd_evt_get
                0x000269fc        0x4 examples/dfu/CMakeFiles/dfu_no_serial_nrf52832_xxAA_s132_6.0.0.dir/__/common/src/mesh_softdevice_init.c.obj
 .text.sd_softdevice_enable
                0x00026a00        0x4 examples/dfu/CMakeFiles/dfu_no_serial_nrf52832_xxAA_s132_6.0.0.dir/__/common/src/mesh_softdevice_init.c.obj
 .text.sd_ble_enable
                0x00026a04        0x4 examples/dfu/CMakeFiles/dfu_no_serial_nrf52832_xxAA_s132_6.0.0.dir/__/common/src/mesh_softdevice_init.c.obj
 .text.SWI2_EGU2_IRQHandler
                0x00026a08       0x1c examples/dfu/CMakeFiles/dfu_no_serial_nrf52832_xxAA_s132_6.0.0.dir/__/common/src/mesh_softdevice_init.c.obj
                0x00026a08                SWI2_EGU2_IRQHandler
 .text.mesh_softdevice_init
                0x00026a24      0x1f8 examples/dfu/CMakeFiles/dfu_no_serial_nrf52832_xxAA_s132_6.0.0.dir/__/common/src/mesh_softdevice_init.c.obj
                0x00026a24                mesh_softdevice_init
 .text.prov_evt_handler
                0x00026c1c       0x70 examples/dfu/CMakeFiles/dfu_no_serial_nrf52832_xxAA_s132_6.0.0.dir/__/common/src/mesh_provisionee.c.obj
 .text.mesh_provisionee_prov_start
                0x00026c8c       0x88 examples/dfu/CMakeFiles/dfu_no_serial_nrf52832_xxAA_s132_6.0.0.dir/__/common/src/mesh_provisionee.c.obj
                0x00026c8c                mesh_provisionee_prov_start
 .text.hal_led_mask_set
                0x00026d14       0x14 examples/dfu/CMakeFiles/dfu_no_serial_nrf52832_xxAA_s132_6.0.0.dir/__/common/src/simple_hal.c.obj
                0x00026d14                hal_led_mask_set
 .text.hal_led_blink_ms
                0x00026d28       0x4c examples/dfu/CMakeFiles/dfu_no_serial_nrf52832_xxAA_s132_6.0.0.dir/__/common/src/simple_hal.c.obj
                0x00026d28                hal_led_blink_ms
 .text.hal_leds_init
                0x00026d74       0x3c examples/dfu/CMakeFiles/dfu_no_serial_nrf52832_xxAA_s132_6.0.0.dir/__/common/src/simple_hal.c.obj
                0x00026d74                hal_leds_init
 .text.GPIOTE_IRQHandler
                0x00026db0      0x114 examples/dfu/CMakeFiles/dfu_no_serial_nrf52832_xxAA_s132_6.0.0.dir/__/common/src/simple_hal.c.obj
                0x00026db0                GPIOTE_IRQHandler
 .text.schedule_publication_timer
                0x00026ec4      0x2c4 examples/dfu/CMakeFiles/dfu_no_serial_nrf52832_xxAA_s132_6.0.0.dir/__/__/mesh/access/src/access_publish.c.obj
 .text.publish_timer_tick
                0x00027188      0x134 examples/dfu/CMakeFiles/dfu_no_serial_nrf52832_xxAA_s132_6.0.0.dir/__/__/mesh/access/src/access_publish.c.obj
 .text.access_publish_init
                0x000272bc       0x38 examples/dfu/CMakeFiles/dfu_no_serial_nrf52832_xxAA_s132_6.0.0.dir/__/__/mesh/access/src/access_publish.c.obj
                0x000272bc                access_publish_init
 .text.access_publish_period_set
                0x000272f4      0x12c examples/dfu/CMakeFiles/dfu_no_serial_nrf52832_xxAA_s132_6.0.0.dir/__/__/mesh/access/src/access_publish.c.obj
                0x000272f4                access_publish_period_set
 .text.access_publish_period_get
                0x00027420       0x2c examples/dfu/CMakeFiles/dfu_no_serial_nrf52832_xxAA_s132_6.0.0.dir/__/__/mesh/access/src/access_publish.c.obj
                0x00027420                access_publish_period_get
 .text.flash_manager_mem_available
                0x0002744c        0x4 examples/dfu/CMakeFiles/dfu_no_serial_nrf52832_xxAA_s132_6.0.0.dir/__/__/mesh/access/src/access.c.obj
 .text.flash_invalidate_complete
                0x00027450        0x8 examples/dfu/CMakeFiles/dfu_no_serial_nrf52832_xxAA_s132_6.0.0.dir/__/__/mesh/access/src/access.c.obj
 .text.access_flash_config_clear
                0x00027458       0x28 examples/dfu/CMakeFiles/dfu_no_serial_nrf52832_xxAA_s132_6.0.0.dir/__/__/mesh/access/src/access.c.obj
 .text.access_flash_config_store
                0x00027480      0x138 examples/dfu/CMakeFiles/dfu_no_serial_nrf52832_xxAA_s132_6.0.0.dir/__/__/mesh/access/src/access.c.obj
                0x00027480                access_flash_config_store
 .text.handle_incoming
                0x000275b8      0x198 examples/dfu/CMakeFiles/dfu_no_serial_nrf52832_xxAA_s132_6.0.0.dir/__/__/mesh/access/src/access.c.obj
 .text.mesh_evt_cb
                0x00027750      0x164 examples/dfu/CMakeFiles/dfu_no_serial_nrf52832_xxAA_s132_6.0.0.dir/__/__/mesh/access/src/access.c.obj
 .text.add_flash_manager
                0x000278b4       0x58 examples/dfu/CMakeFiles/dfu_no_serial_nrf52832_xxAA_s132_6.0.0.dir/__/__/mesh/access/src/access.c.obj
 .text.flash_write_complete
                0x0002790c       0x4c examples/dfu/CMakeFiles/dfu_no_serial_nrf52832_xxAA_s132_6.0.0.dir/__/__/mesh/access/src/access.c.obj
 .text.flash_remove_complete
                0x00027958       0xb0 examples/dfu/CMakeFiles/dfu_no_serial_nrf52832_xxAA_s132_6.0.0.dir/__/__/mesh/access/src/access.c.obj
 .text.access_flash_config_load
                0x00027a08      0x2c8 examples/dfu/CMakeFiles/dfu_no_serial_nrf52832_xxAA_s132_6.0.0.dir/__/__/mesh/access/src/access.c.obj
                0x00027a08                access_flash_config_load
 .text.access_clear
                0x00027cd0       0x6c examples/dfu/CMakeFiles/dfu_no_serial_nrf52832_xxAA_s132_6.0.0.dir/__/__/mesh/access/src/access.c.obj
                0x00027cd0                access_clear
 .text.access_init
                0x00027d3c       0xb4 examples/dfu/CMakeFiles/dfu_no_serial_nrf52832_xxAA_s132_6.0.0.dir/__/__/mesh/access/src/access.c.obj
                0x00027d3c                access_init
 .text.access_model_add
                0x00027df0      0x1f4 examples/dfu/CMakeFiles/dfu_no_serial_nrf52832_xxAA_s132_6.0.0.dir/__/__/mesh/access/src/access.c.obj
                0x00027df0                access_model_add
 .text.access_model_publish
                0x00027fe4      0x3bc examples/dfu/CMakeFiles/dfu_no_serial_nrf52832_xxAA_s132_6.0.0.dir/__/__/mesh/access/src/access.c.obj
                0x00027fe4                access_model_publish
 .text.access_model_reply
                0x000283a0      0x3dc examples/dfu/CMakeFiles/dfu_no_serial_nrf52832_xxAA_s132_6.0.0.dir/__/__/mesh/access/src/access.c.obj
                0x000283a0                access_model_reply
 .text.access_model_publish_address_set
                0x0002877c       0x3c examples/dfu/CMakeFiles/dfu_no_serial_nrf52832_xxAA_s132_6.0.0.dir/__/__/mesh/access/src/access.c.obj
                0x0002877c                access_model_publish_address_set
 .text.access_model_publish_address_get
                0x000287b8       0x2c examples/dfu/CMakeFiles/dfu_no_serial_nrf52832_xxAA_s132_6.0.0.dir/__/__/mesh/access/src/access.c.obj
                0x000287b8                access_model_publish_address_get
 .text.access_model_publish_retransmit_set
                0x000287e4       0x54 examples/dfu/CMakeFiles/dfu_no_serial_nrf52832_xxAA_s132_6.0.0.dir/__/__/mesh/access/src/access.c.obj
                0x000287e4                access_model_publish_retransmit_set
 .text.access_model_publish_retransmit_get
                0x00028838       0x2c examples/dfu/CMakeFiles/dfu_no_serial_nrf52832_xxAA_s132_6.0.0.dir/__/__/mesh/access/src/access.c.obj
                0x00028838                access_model_publish_retransmit_get
 .text.access_model_publish_period_set
                0x00028864       0x78 examples/dfu/CMakeFiles/dfu_no_serial_nrf52832_xxAA_s132_6.0.0.dir/__/__/mesh/access/src/access.c.obj
                0x00028864                access_model_publish_period_set
 .text.access_model_publish_period_get
                0x000288dc       0x40 examples/dfu/CMakeFiles/dfu_no_serial_nrf52832_xxAA_s132_6.0.0.dir/__/__/mesh/access/src/access.c.obj
                0x000288dc                access_model_publish_period_get
 .text.access_model_subscription_add
                0x0002891c       0x60 examples/dfu/CMakeFiles/dfu_no_serial_nrf52832_xxAA_s132_6.0.0.dir/__/__/mesh/access/src/access.c.obj
                0x0002891c                access_model_subscription_add
 .text.access_model_subscription_remove
                0x0002897c       0x60 examples/dfu/CMakeFiles/dfu_no_serial_nrf52832_xxAA_s132_6.0.0.dir/__/__/mesh/access/src/access.c.obj
                0x0002897c                access_model_subscription_remove
 .text.access_model_subscriptions_get
                0x000289dc       0x7c examples/dfu/CMakeFiles/dfu_no_serial_nrf52832_xxAA_s132_6.0.0.dir/__/__/mesh/access/src/access.c.obj
                0x000289dc                access_model_subscriptions_get
 .text.access_model_application_bind
                0x00028a58       0x58 examples/dfu/CMakeFiles/dfu_no_serial_nrf52832_xxAA_s132_6.0.0.dir/__/__/mesh/access/src/access.c.obj
                0x00028a58                access_model_application_bind
 .text.access_model_application_unbind
                0x00028ab0       0x58 examples/dfu/CMakeFiles/dfu_no_serial_nrf52832_xxAA_s132_6.0.0.dir/__/__/mesh/access/src/access.c.obj
                0x00028ab0                access_model_application_unbind
 .text.access_model_applications_get
                0x00028b08       0xfc examples/dfu/CMakeFiles/dfu_no_serial_nrf52832_xxAA_s132_6.0.0.dir/__/__/mesh/access/src/access.c.obj
                0x00028b08                access_model_applications_get
 .text.access_model_publish_application_set
                0x00028c04       0x3c examples/dfu/CMakeFiles/dfu_no_serial_nrf52832_xxAA_s132_6.0.0.dir/__/__/mesh/access/src/access.c.obj
                0x00028c04                access_model_publish_application_set
 .text.access_model_publish_application_get
                0x00028c40       0x2c examples/dfu/CMakeFiles/dfu_no_serial_nrf52832_xxAA_s132_6.0.0.dir/__/__/mesh/access/src/access.c.obj
                0x00028c40                access_model_publish_application_get
 .text.access_default_ttl_set
                0x00028c6c       0x1c examples/dfu/CMakeFiles/dfu_no_serial_nrf52832_xxAA_s132_6.0.0.dir/__/__/mesh/access/src/access.c.obj
                0x00028c6c                access_default_ttl_set
 .text.access_default_ttl_get
                0x00028c88        0xc examples/dfu/CMakeFiles/dfu_no_serial_nrf52832_xxAA_s132_6.0.0.dir/__/__/mesh/access/src/access.c.obj
                0x00028c88                access_default_ttl_get
 .text.access_model_publish_ttl_set
                0x00028c94       0x40 examples/dfu/CMakeFiles/dfu_no_serial_nrf52832_xxAA_s132_6.0.0.dir/__/__/mesh/access/src/access.c.obj
                0x00028c94                access_model_publish_ttl_set
 .text.access_model_publish_ttl_get
                0x00028cd4       0x2c examples/dfu/CMakeFiles/dfu_no_serial_nrf52832_xxAA_s132_6.0.0.dir/__/__/mesh/access/src/access.c.obj
                0x00028cd4                access_model_publish_ttl_get
 .text.access_element_location_get
                0x00028d00       0x18 examples/dfu/CMakeFiles/dfu_no_serial_nrf52832_xxAA_s132_6.0.0.dir/__/__/mesh/access/src/access.c.obj
                0x00028d00                access_element_location_get
 .text.access_element_sig_model_count_get
                0x00028d18       0x18 examples/dfu/CMakeFiles/dfu_no_serial_nrf52832_xxAA_s132_6.0.0.dir/__/__/mesh/access/src/access.c.obj
                0x00028d18                access_element_sig_model_count_get
 .text.access_element_vendor_model_count_get
                0x00028d30       0x18 examples/dfu/CMakeFiles/dfu_no_serial_nrf52832_xxAA_s132_6.0.0.dir/__/__/mesh/access/src/access.c.obj
                0x00028d30                access_element_vendor_model_count_get
 .text.access_model_id_get
                0x00028d48       0x40 examples/dfu/CMakeFiles/dfu_no_serial_nrf52832_xxAA_s132_6.0.0.dir/__/__/mesh/access/src/access.c.obj
                0x00028d48                access_model_id_get
 .text.access_handle_get
                0x00028d88       0x5c examples/dfu/CMakeFiles/dfu_no_serial_nrf52832_xxAA_s132_6.0.0.dir/__/__/mesh/access/src/access.c.obj
                0x00028d88                access_handle_get
 .text.access_element_models_get
                0x00028de4       0x60 examples/dfu/CMakeFiles/dfu_no_serial_nrf52832_xxAA_s132_6.0.0.dir/__/__/mesh/access/src/access.c.obj
                0x00028de4                access_element_models_get
 .text.access_model_p_args_get
                0x00028e44       0x2c examples/dfu/CMakeFiles/dfu_no_serial_nrf52832_xxAA_s132_6.0.0.dir/__/__/mesh/access/src/access.c.obj
                0x00028e44                access_model_p_args_get
 .text.access_model_publication_stop
                0x00028e70       0x74 examples/dfu/CMakeFiles/dfu_no_serial_nrf52832_xxAA_s132_6.0.0.dir/__/__/mesh/access/src/access.c.obj
                0x00028e70                access_model_publication_stop
 .text.access_model_publication_by_appkey_stop
                0x00028ee4       0xe0 examples/dfu/CMakeFiles/dfu_no_serial_nrf52832_xxAA_s132_6.0.0.dir/__/__/mesh/access/src/access.c.obj
                0x00028ee4                access_model_publication_by_appkey_stop
 .text.remove_and_reschedule
                0x00028fc4       0xc8 examples/dfu/CMakeFiles/dfu_no_serial_nrf52832_xxAA_s132_6.0.0.dir/__/__/mesh/access/src/access_reliable.c.obj
 .text.reliable_timer_cb
                0x0002908c      0x19c examples/dfu/CMakeFiles/dfu_no_serial_nrf52832_xxAA_s132_6.0.0.dir/__/__/mesh/access/src/access_reliable.c.obj
 .text.access_reliable_message_rx_cb
                0x00029228       0x70 examples/dfu/CMakeFiles/dfu_no_serial_nrf52832_xxAA_s132_6.0.0.dir/__/__/mesh/access/src/access_reliable.c.obj
                0x00029228                access_reliable_message_rx_cb
 .text.access_reliable_init
                0x00029298       0x1c examples/dfu/CMakeFiles/dfu_no_serial_nrf52832_xxAA_s132_6.0.0.dir/__/__/mesh/access/src/access_reliable.c.obj
                0x00029298                access_reliable_init
 .text.access_reliable_cancel_all
                0x000292b4       0xa8 examples/dfu/CMakeFiles/dfu_no_serial_nrf52832_xxAA_s132_6.0.0.dir/__/__/mesh/access/src/access_reliable.c.obj
                0x000292b4                access_reliable_cancel_all
 .text.access_model_reliable_cancel
                0x0002935c       0x74 examples/dfu/CMakeFiles/dfu_no_serial_nrf52832_xxAA_s132_6.0.0.dir/__/__/mesh/access/src/access_reliable.c.obj
                0x0002935c                access_model_reliable_cancel
 .text.addr_nonvirtual_to_dsm_entry
                0x000293d0       0x48 examples/dfu/CMakeFiles/dfu_no_serial_nrf52832_xxAA_s132_6.0.0.dir/__/__/mesh/access/src/device_state_manager.c.obj
 .text.addr_nonvirtual_to_flash_entry
                0x00029418       0x10 examples/dfu/CMakeFiles/dfu_no_serial_nrf52832_xxAA_s132_6.0.0.dir/__/__/mesh/access/src/device_state_manager.c.obj
 .text.devkey_to_flash_entry
                0x00029428       0x28 examples/dfu/CMakeFiles/dfu_no_serial_nrf52832_xxAA_s132_6.0.0.dir/__/__/mesh/access/src/device_state_manager.c.obj
 .text.addr_virtual_to_flash_entry
                0x00029450       0x18 examples/dfu/CMakeFiles/dfu_no_serial_nrf52832_xxAA_s132_6.0.0.dir/__/__/mesh/access/src/device_state_manager.c.obj
 .text.addr_unicast_to_dsm_entry
                0x00029468        0xc examples/dfu/CMakeFiles/dfu_no_serial_nrf52832_xxAA_s132_6.0.0.dir/__/__/mesh/access/src/device_state_manager.c.obj
 .text.addr_unicast_to_flash_entry
                0x00029474       0x10 examples/dfu/CMakeFiles/dfu_no_serial_nrf52832_xxAA_s132_6.0.0.dir/__/__/mesh/access/src/device_state_manager.c.obj
 .text.flash_mem_listener_callback
                0x00029484       0x1c examples/dfu/CMakeFiles/dfu_no_serial_nrf52832_xxAA_s132_6.0.0.dir/__/__/mesh/access/src/device_state_manager.c.obj
 .text.appkey_to_flash_entry
                0x000294a0       0x54 examples/dfu/CMakeFiles/dfu_no_serial_nrf52832_xxAA_s132_6.0.0.dir/__/__/mesh/access/src/device_state_manager.c.obj
 .text.subnet_to_flash_entry
                0x000294f4       0x60 examples/dfu/CMakeFiles/dfu_no_serial_nrf52832_xxAA_s132_6.0.0.dir/__/__/mesh/access/src/device_state_manager.c.obj
 .text.reset_flash_area
                0x00029554       0x28 examples/dfu/CMakeFiles/dfu_no_serial_nrf52832_xxAA_s132_6.0.0.dir/__/__/mesh/access/src/device_state_manager.c.obj
 .text.flash_save
                0x0002957c       0xb0 examples/dfu/CMakeFiles/dfu_no_serial_nrf52832_xxAA_s132_6.0.0.dir/__/__/mesh/access/src/device_state_manager.c.obj
 .text.build_flash_area
                0x0002962c       0x90 examples/dfu/CMakeFiles/dfu_no_serial_nrf52832_xxAA_s132_6.0.0.dir/__/__/mesh/access/src/device_state_manager.c.obj
 .text.flash_invalidate_complete
                0x000296bc       0x54 examples/dfu/CMakeFiles/dfu_no_serial_nrf52832_xxAA_s132_6.0.0.dir/__/__/mesh/access/src/device_state_manager.c.obj
 .text.flash_write_complete
                0x00029710       0x50 examples/dfu/CMakeFiles/dfu_no_serial_nrf52832_xxAA_s132_6.0.0.dir/__/__/mesh/access/src/device_state_manager.c.obj
 .text.devkey_to_dsm_entry
                0x00029760       0x70 examples/dfu/CMakeFiles/dfu_no_serial_nrf52832_xxAA_s132_6.0.0.dir/__/__/mesh/access/src/device_state_manager.c.obj
 .text.addr_virtual_to_dsm_entry
                0x000297d0       0x60 examples/dfu/CMakeFiles/dfu_no_serial_nrf52832_xxAA_s132_6.0.0.dir/__/__/mesh/access/src/device_state_manager.c.obj
 .text.appkey_to_dsm_entry
                0x00029830       0xf4 examples/dfu/CMakeFiles/dfu_no_serial_nrf52832_xxAA_s132_6.0.0.dir/__/__/mesh/access/src/device_state_manager.c.obj
 .text.subnet_to_dsm_entry
                0x00029924      0x11c examples/dfu/CMakeFiles/dfu_no_serial_nrf52832_xxAA_s132_6.0.0.dir/__/__/mesh/access/src/device_state_manager.c.obj
 .text.flash_remove_complete
                0x00029a40       0x90 examples/dfu/CMakeFiles/dfu_no_serial_nrf52832_xxAA_s132_6.0.0.dir/__/__/mesh/access/src/device_state_manager.c.obj
 .text.flash_update_all
                0x00029ad0      0x17c examples/dfu/CMakeFiles/dfu_no_serial_nrf52832_xxAA_s132_6.0.0.dir/__/__/mesh/access/src/device_state_manager.c.obj
 .text.address_delete_if_unused
                0x00029c4c      0x100 examples/dfu/CMakeFiles/dfu_no_serial_nrf52832_xxAA_s132_6.0.0.dir/__/__/mesh/access/src/device_state_manager.c.obj
 .text.mesh_evt_handler
                0x00029d4c      0x234 examples/dfu/CMakeFiles/dfu_no_serial_nrf52832_xxAA_s132_6.0.0.dir/__/__/mesh/access/src/device_state_manager.c.obj
 .text.dsm_flash_config_load
                0x00029f80      0x1c8 examples/dfu/CMakeFiles/dfu_no_serial_nrf52832_xxAA_s132_6.0.0.dir/__/__/mesh/access/src/device_state_manager.c.obj
                0x00029f80                dsm_flash_config_load
 .text.dsm_flash_area_get
                0x0002a148        0xc examples/dfu/CMakeFiles/dfu_no_serial_nrf52832_xxAA_s132_6.0.0.dir/__/__/mesh/access/src/device_state_manager.c.obj
                0x0002a148                dsm_flash_area_get
 .text.dsm_clear
                0x0002a154      0x160 examples/dfu/CMakeFiles/dfu_no_serial_nrf52832_xxAA_s132_6.0.0.dir/__/__/mesh/access/src/device_state_manager.c.obj
                0x0002a154                dsm_clear
 .text.dsm_init
                0x0002a2b4       0xbc examples/dfu/CMakeFiles/dfu_no_serial_nrf52832_xxAA_s132_6.0.0.dir/__/__/mesh/access/src/device_state_manager.c.obj
                0x0002a2b4                dsm_init
 .text.dsm_local_unicast_addresses_set
                0x0002a370       0x78 examples/dfu/CMakeFiles/dfu_no_serial_nrf52832_xxAA_s132_6.0.0.dir/__/__/mesh/access/src/device_state_manager.c.obj
                0x0002a370                dsm_local_unicast_addresses_set
 .text.dsm_local_unicast_addresses_get
                0x0002a3e8       0x20 examples/dfu/CMakeFiles/dfu_no_serial_nrf52832_xxAA_s132_6.0.0.dir/__/__/mesh/access/src/device_state_manager.c.obj
                0x0002a3e8                dsm_local_unicast_addresses_get
 .text.dsm_address_publish_add
                0x0002a408      0x330 examples/dfu/CMakeFiles/dfu_no_serial_nrf52832_xxAA_s132_6.0.0.dir/__/__/mesh/access/src/device_state_manager.c.obj
                0x0002a408                dsm_address_publish_add
 .text.dsm_address_publish_add_handle
                0x0002a738       0x54 examples/dfu/CMakeFiles/dfu_no_serial_nrf52832_xxAA_s132_6.0.0.dir/__/__/mesh/access/src/device_state_manager.c.obj
                0x0002a738                dsm_address_publish_add_handle
 .text.dsm_address_publish_virtual_add
                0x0002a78c      0x268 examples/dfu/CMakeFiles/dfu_no_serial_nrf52832_xxAA_s132_6.0.0.dir/__/__/mesh/access/src/device_state_manager.c.obj
                0x0002a78c                dsm_address_publish_virtual_add
 .text.dsm_address_publish_remove
                0x0002a9f4       0xbc examples/dfu/CMakeFiles/dfu_no_serial_nrf52832_xxAA_s132_6.0.0.dir/__/__/mesh/access/src/device_state_manager.c.obj
                0x0002a9f4                dsm_address_publish_remove
 .text.dsm_address_subscription_add
                0x0002aab0      0x320 examples/dfu/CMakeFiles/dfu_no_serial_nrf52832_xxAA_s132_6.0.0.dir/__/__/mesh/access/src/device_state_manager.c.obj
                0x0002aab0                dsm_address_subscription_add
 .text.dsm_address_subscription_virtual_add
                0x0002add0      0x268 examples/dfu/CMakeFiles/dfu_no_serial_nrf52832_xxAA_s132_6.0.0.dir/__/__/mesh/access/src/device_state_manager.c.obj
                0x0002add0                dsm_address_subscription_virtual_add
 .text.dsm_address_subscription_add_handle
                0x0002b038       0x54 examples/dfu/CMakeFiles/dfu_no_serial_nrf52832_xxAA_s132_6.0.0.dir/__/__/mesh/access/src/device_state_manager.c.obj
                0x0002b038                dsm_address_subscription_add_handle
 .text.dsm_address_subscription_get
                0x0002b08c       0x5c examples/dfu/CMakeFiles/dfu_no_serial_nrf52832_xxAA_s132_6.0.0.dir/__/__/mesh/access/src/device_state_manager.c.obj
                0x0002b08c                dsm_address_subscription_get
 .text.dsm_address_subscription_remove
                0x0002b0e8       0x94 examples/dfu/CMakeFiles/dfu_no_serial_nrf52832_xxAA_s132_6.0.0.dir/__/__/mesh/access/src/device_state_manager.c.obj
                0x0002b0e8                dsm_address_subscription_remove
 .text.dsm_address_get
                0x0002b17c       0x74 examples/dfu/CMakeFiles/dfu_no_serial_nrf52832_xxAA_s132_6.0.0.dir/__/__/mesh/access/src/device_state_manager.c.obj
                0x0002b17c                dsm_address_get
 .text.dsm_address_handle_get
                0x0002b1f0      0x3cc examples/dfu/CMakeFiles/dfu_no_serial_nrf52832_xxAA_s132_6.0.0.dir/__/__/mesh/access/src/device_state_manager.c.obj
                0x0002b1f0                dsm_address_handle_get
 .text.dsm_net_key_index_to_subnet_handle
                0x0002b5bc       0x6c examples/dfu/CMakeFiles/dfu_no_serial_nrf52832_xxAA_s132_6.0.0.dir/__/__/mesh/access/src/device_state_manager.c.obj
                0x0002b5bc                dsm_net_key_index_to_subnet_handle
 .text.dsm_subnet_handle_get
                0x0002b628       0xa4 examples/dfu/CMakeFiles/dfu_no_serial_nrf52832_xxAA_s132_6.0.0.dir/__/__/mesh/access/src/device_state_manager.c.obj
                0x0002b628                dsm_subnet_handle_get
 .text.dsm_appkey_index_to_appkey_handle
                0x0002b6cc       0xcc examples/dfu/CMakeFiles/dfu_no_serial_nrf52832_xxAA_s132_6.0.0.dir/__/__/mesh/access/src/device_state_manager.c.obj
                0x0002b6cc                dsm_appkey_index_to_appkey_handle
 .text.dsm_appkey_handle_get
                0x0002b798       0x44 examples/dfu/CMakeFiles/dfu_no_serial_nrf52832_xxAA_s132_6.0.0.dir/__/__/mesh/access/src/device_state_manager.c.obj
                0x0002b798                dsm_appkey_handle_get
 .text.dsm_appkey_handle_to_appkey_index
                0x0002b7dc       0x34 examples/dfu/CMakeFiles/dfu_no_serial_nrf52832_xxAA_s132_6.0.0.dir/__/__/mesh/access/src/device_state_manager.c.obj
                0x0002b7dc                dsm_appkey_handle_to_appkey_index
 .text.dsm_appkey_handle_to_subnet_handle
                0x0002b810       0xb4 examples/dfu/CMakeFiles/dfu_no_serial_nrf52832_xxAA_s132_6.0.0.dir/__/__/mesh/access/src/device_state_manager.c.obj
                0x0002b810                dsm_appkey_handle_to_subnet_handle
 .text.dsm_subnet_add
                0x0002b8c4      0x21c examples/dfu/CMakeFiles/dfu_no_serial_nrf52832_xxAA_s132_6.0.0.dir/__/__/mesh/access/src/device_state_manager.c.obj
                0x0002b8c4                dsm_subnet_add
 .text.dsm_subnet_kr_phase_get
                0x0002bae0       0x30 examples/dfu/CMakeFiles/dfu_no_serial_nrf52832_xxAA_s132_6.0.0.dir/__/__/mesh/access/src/device_state_manager.c.obj
                0x0002bae0                dsm_subnet_kr_phase_get
 .text.dsm_subnet_update
                0x0002bb10      0x11c examples/dfu/CMakeFiles/dfu_no_serial_nrf52832_xxAA_s132_6.0.0.dir/__/__/mesh/access/src/device_state_manager.c.obj
                0x0002bb10                dsm_subnet_update
 .text.dsm_subnet_update_swap_keys
                0x0002bc2c       0xa8 examples/dfu/CMakeFiles/dfu_no_serial_nrf52832_xxAA_s132_6.0.0.dir/__/__/mesh/access/src/device_state_manager.c.obj
                0x0002bc2c                dsm_subnet_update_swap_keys
 .text.dsm_subnet_update_commit
                0x0002bcd4      0x194 examples/dfu/CMakeFiles/dfu_no_serial_nrf52832_xxAA_s132_6.0.0.dir/__/__/mesh/access/src/device_state_manager.c.obj
                0x0002bcd4                dsm_subnet_update_commit
 .text.dsm_subnet_delete
                0x0002be68      0x358 examples/dfu/CMakeFiles/dfu_no_serial_nrf52832_xxAA_s132_6.0.0.dir/__/__/mesh/access/src/device_state_manager.c.obj
                0x0002be68                dsm_subnet_delete
 .text.dsm_subnet_get_all
                0x0002c1c0       0x90 examples/dfu/CMakeFiles/dfu_no_serial_nrf52832_xxAA_s132_6.0.0.dir/__/__/mesh/access/src/device_state_manager.c.obj
                0x0002c1c0                dsm_subnet_get_all
 .text.dsm_devkey_add
                0x0002c250       0xb0 examples/dfu/CMakeFiles/dfu_no_serial_nrf52832_xxAA_s132_6.0.0.dir/__/__/mesh/access/src/device_state_manager.c.obj
                0x0002c250                dsm_devkey_add
 .text.dsm_appkey_add
                0x0002c300      0x298 examples/dfu/CMakeFiles/dfu_no_serial_nrf52832_xxAA_s132_6.0.0.dir/__/__/mesh/access/src/device_state_manager.c.obj
                0x0002c300                dsm_appkey_add
 .text.dsm_appkey_update
                0x0002c598       0xfc examples/dfu/CMakeFiles/dfu_no_serial_nrf52832_xxAA_s132_6.0.0.dir/__/__/mesh/access/src/device_state_manager.c.obj
                0x0002c598                dsm_appkey_update
 .text.dsm_appkey_delete
                0x0002c694       0x68 examples/dfu/CMakeFiles/dfu_no_serial_nrf52832_xxAA_s132_6.0.0.dir/__/__/mesh/access/src/device_state_manager.c.obj
                0x0002c694                dsm_appkey_delete
 .text.dsm_appkey_get_all
                0x0002c6fc      0x158 examples/dfu/CMakeFiles/dfu_no_serial_nrf52832_xxAA_s132_6.0.0.dir/__/__/mesh/access/src/device_state_manager.c.obj
                0x0002c6fc                dsm_appkey_get_all
 .text.dsm_tx_secmat_get
                0x0002c854       0xd4 examples/dfu/CMakeFiles/dfu_no_serial_nrf52832_xxAA_s132_6.0.0.dir/__/__/mesh/access/src/device_state_manager.c.obj
                0x0002c854                dsm_tx_secmat_get
 .text.dsm_net_secmat_from_keyindex_get
                0x0002c928       0x98 examples/dfu/CMakeFiles/dfu_no_serial_nrf52832_xxAA_s132_6.0.0.dir/__/__/mesh/access/src/device_state_manager.c.obj
                0x0002c928                dsm_net_secmat_from_keyindex_get
 .text.nrf_mesh_net_secmat_next_get
                0x0002c9c0      0x21c examples/dfu/CMakeFiles/dfu_no_serial_nrf52832_xxAA_s132_6.0.0.dir/__/__/mesh/access/src/device_state_manager.c.obj
                0x0002c9c0                nrf_mesh_net_secmat_next_get
 .text.nrf_mesh_app_secmat_next_get
                0x0002cbdc      0x280 examples/dfu/CMakeFiles/dfu_no_serial_nrf52832_xxAA_s132_6.0.0.dir/__/__/mesh/access/src/device_state_manager.c.obj
                0x0002cbdc                nrf_mesh_app_secmat_next_get
 .text.nrf_mesh_devkey_secmat_get
                0x0002ce5c       0x30 examples/dfu/CMakeFiles/dfu_no_serial_nrf52832_xxAA_s132_6.0.0.dir/__/__/mesh/access/src/device_state_manager.c.obj
                0x0002ce5c                nrf_mesh_devkey_secmat_get
 .text.nrf_mesh_beacon_info_next_get
                0x0002ce8c      0x174 examples/dfu/CMakeFiles/dfu_no_serial_nrf52832_xxAA_s132_6.0.0.dir/__/__/mesh/access/src/device_state_manager.c.obj
                0x0002ce8c                nrf_mesh_beacon_info_next_get
 .text.nrf_mesh_rx_address_get
                0x0002d000      0x558 examples/dfu/CMakeFiles/dfu_no_serial_nrf52832_xxAA_s132_6.0.0.dir/__/__/mesh/access/src/device_state_manager.c.obj
                0x0002d000                nrf_mesh_rx_address_get
 .text.nrf_mesh_unicast_address_get
                0x0002d558       0x24 examples/dfu/CMakeFiles/dfu_no_serial_nrf52832_xxAA_s132_6.0.0.dir/__/__/mesh/access/src/device_state_manager.c.obj
                0x0002d558                nrf_mesh_unicast_address_get
 .text.config_composition_data_get
                0x0002d57c      0x1d4 examples/dfu/CMakeFiles/dfu_no_serial_nrf52832_xxAA_s132_6.0.0.dir/__/__/models/config/src/composition_data.c.obj
                0x0002d57c                config_composition_data_get
 .text.config_server_heartbeat_publication_count_decrement
                0x0002d750       0x1c examples/dfu/CMakeFiles/dfu_no_serial_nrf52832_xxAA_s132_6.0.0.dir/__/__/models/config/src/config_server.c.obj
 .text.config_server_heartbeat_publication_params_get
                0x0002d76c       0x38 examples/dfu/CMakeFiles/dfu_no_serial_nrf52832_xxAA_s132_6.0.0.dir/__/__/models/config/src/config_server.c.obj
 .text.handle_config_network_transmit_set
                0x0002d7a4      0x11c examples/dfu/CMakeFiles/dfu_no_serial_nrf52832_xxAA_s132_6.0.0.dir/__/__/models/config/src/config_server.c.obj
 .text.handle_node_reset
                0x0002d8c0       0x30 examples/dfu/CMakeFiles/dfu_no_serial_nrf52832_xxAA_s132_6.0.0.dir/__/__/models/config/src/config_server.c.obj
 .text.handle_config_relay_set
                0x0002d8f0      0x1b0 examples/dfu/CMakeFiles/dfu_no_serial_nrf52832_xxAA_s132_6.0.0.dir/__/__/models/config/src/config_server.c.obj
 .text.handle_netkey_get
                0x0002daa0       0x68 examples/dfu/CMakeFiles/dfu_no_serial_nrf52832_xxAA_s132_6.0.0.dir/__/__/models/config/src/config_server.c.obj
 .text.handle_model_app_bind_unbind
                0x0002db08      0x22c examples/dfu/CMakeFiles/dfu_no_serial_nrf52832_xxAA_s132_6.0.0.dir/__/__/models/config/src/config_server.c.obj
 .text.status_error_sub_send
                0x0002dd34      0x184 examples/dfu/CMakeFiles/dfu_no_serial_nrf52832_xxAA_s132_6.0.0.dir/__/__/models/config/src/config_server.c.obj
 .text.handle_config_model_subscription_overwrite
                0x0002deb8      0x1ec examples/dfu/CMakeFiles/dfu_no_serial_nrf52832_xxAA_s132_6.0.0.dir/__/__/models/config/src/config_server.c.obj
 .text.send_publication_status
                0x0002e0a4      0x1a4 examples/dfu/CMakeFiles/dfu_no_serial_nrf52832_xxAA_s132_6.0.0.dir/__/__/models/config/src/config_server.c.obj
 .text.handle_config_key_refresh_phase_set
                0x0002e248       0xf0 examples/dfu/CMakeFiles/dfu_no_serial_nrf52832_xxAA_s132_6.0.0.dir/__/__/models/config/src/config_server.c.obj
 .text.handle_config_default_ttl_set
                0x0002e338       0x70 examples/dfu/CMakeFiles/dfu_no_serial_nrf52832_xxAA_s132_6.0.0.dir/__/__/models/config/src/config_server.c.obj
 .text.handle_heartbeat_publication_set
                0x0002e3a8      0x170 examples/dfu/CMakeFiles/dfu_no_serial_nrf52832_xxAA_s132_6.0.0.dir/__/__/models/config/src/config_server.c.obj
 .text.mesh_event_cb
                0x0002e518       0x70 examples/dfu/CMakeFiles/dfu_no_serial_nrf52832_xxAA_s132_6.0.0.dir/__/__/models/config/src/config_server.c.obj
 .text.handle_node_identity_set
                0x0002e588       0x48 examples/dfu/CMakeFiles/dfu_no_serial_nrf52832_xxAA_s132_6.0.0.dir/__/__/models/config/src/config_server.c.obj
 .text.handle_node_identity_get
                0x0002e5d0       0x44 examples/dfu/CMakeFiles/dfu_no_serial_nrf52832_xxAA_s132_6.0.0.dir/__/__/models/config/src/config_server.c.obj
 .text.handle_config_gatt_proxy_set
                0x0002e614       0x40 examples/dfu/CMakeFiles/dfu_no_serial_nrf52832_xxAA_s132_6.0.0.dir/__/__/models/config/src/config_server.c.obj
 .text.handle_config_friend_set
                0x0002e654       0x40 examples/dfu/CMakeFiles/dfu_no_serial_nrf52832_xxAA_s132_6.0.0.dir/__/__/models/config/src/config_server.c.obj
 .text.status_error_pub_send
                0x0002e694       0xc8 examples/dfu/CMakeFiles/dfu_no_serial_nrf52832_xxAA_s132_6.0.0.dir/__/__/models/config/src/config_server.c.obj
 .text.handle_config_model_publication_get
                0x0002e75c       0xa0 examples/dfu/CMakeFiles/dfu_no_serial_nrf52832_xxAA_s132_6.0.0.dir/__/__/models/config/src/config_server.c.obj
 .text.handle_config_model_publication_set
                0x0002e7fc      0x324 examples/dfu/CMakeFiles/dfu_no_serial_nrf52832_xxAA_s132_6.0.0.dir/__/__/models/config/src/config_server.c.obj
 .text.handle_config_key_refresh_phase_get
                0x0002eb20       0x70 examples/dfu/CMakeFiles/dfu_no_serial_nrf52832_xxAA_s132_6.0.0.dir/__/__/models/config/src/config_server.c.obj
 .text.handle_config_default_ttl_get
                0x0002eb90       0x48 examples/dfu/CMakeFiles/dfu_no_serial_nrf52832_xxAA_s132_6.0.0.dir/__/__/models/config/src/config_server.c.obj
 .text.handle_config_beacon_set
                0x0002ebd8       0x80 examples/dfu/CMakeFiles/dfu_no_serial_nrf52832_xxAA_s132_6.0.0.dir/__/__/models/config/src/config_server.c.obj
 .text.handle_composition_data_get
                0x0002ec58       0x64 examples/dfu/CMakeFiles/dfu_no_serial_nrf52832_xxAA_s132_6.0.0.dir/__/__/models/config/src/config_server.c.obj
 .text.handle_appkey_delete
                0x0002ecbc      0x124 examples/dfu/CMakeFiles/dfu_no_serial_nrf52832_xxAA_s132_6.0.0.dir/__/__/models/config/src/config_server.c.obj
 .text.handle_model_app_get
                0x0002ede0      0x230 examples/dfu/CMakeFiles/dfu_no_serial_nrf52832_xxAA_s132_6.0.0.dir/__/__/models/config/src/config_server.c.obj
 .text.handle_config_vendor_model_subscription_get
                0x0002f010      0x18c examples/dfu/CMakeFiles/dfu_no_serial_nrf52832_xxAA_s132_6.0.0.dir/__/__/models/config/src/config_server.c.obj
 .text.handle_appkey_get
                0x0002f19c      0x104 examples/dfu/CMakeFiles/dfu_no_serial_nrf52832_xxAA_s132_6.0.0.dir/__/__/models/config/src/config_server.c.obj
 .text.handle_heartbeat_subscription_get
                0x0002f2a0       0xd8 examples/dfu/CMakeFiles/dfu_no_serial_nrf52832_xxAA_s132_6.0.0.dir/__/__/models/config/src/config_server.c.obj
 .text.handle_heartbeat_subscription_set
                0x0002f378      0x110 examples/dfu/CMakeFiles/dfu_no_serial_nrf52832_xxAA_s132_6.0.0.dir/__/__/models/config/src/config_server.c.obj
 .text.handle_config_gatt_proxy_get
                0x0002f488       0x38 examples/dfu/CMakeFiles/dfu_no_serial_nrf52832_xxAA_s132_6.0.0.dir/__/__/models/config/src/config_server.c.obj
 .text.handle_config_friend_get
                0x0002f4c0       0x38 examples/dfu/CMakeFiles/dfu_no_serial_nrf52832_xxAA_s132_6.0.0.dir/__/__/models/config/src/config_server.c.obj
 .text.handle_heartbeat_publication_get
                0x0002f4f8       0xcc examples/dfu/CMakeFiles/dfu_no_serial_nrf52832_xxAA_s132_6.0.0.dir/__/__/models/config/src/config_server.c.obj
 .text.handle_config_beacon_get
                0x0002f5c4       0x40 examples/dfu/CMakeFiles/dfu_no_serial_nrf52832_xxAA_s132_6.0.0.dir/__/__/models/config/src/config_server.c.obj
 .text.handle_config_sig_model_subscription_get
                0x0002f604      0x150 examples/dfu/CMakeFiles/dfu_no_serial_nrf52832_xxAA_s132_6.0.0.dir/__/__/models/config/src/config_server.c.obj
 .text.handle_appkey_update
                0x0002f754      0x11c examples/dfu/CMakeFiles/dfu_no_serial_nrf52832_xxAA_s132_6.0.0.dir/__/__/models/config/src/config_server.c.obj
 .text.handle_appkey_add
                0x0002f870      0x12c examples/dfu/CMakeFiles/dfu_no_serial_nrf52832_xxAA_s132_6.0.0.dir/__/__/models/config/src/config_server.c.obj
 .text.handle_netkey_add_update
                0x0002f99c       0xe8 examples/dfu/CMakeFiles/dfu_no_serial_nrf52832_xxAA_s132_6.0.0.dir/__/__/models/config/src/config_server.c.obj
 .text.handle_netkey_delete
                0x0002fa84      0x148 examples/dfu/CMakeFiles/dfu_no_serial_nrf52832_xxAA_s132_6.0.0.dir/__/__/models/config/src/config_server.c.obj
 .text.handle_config_network_transmit_get
                0x0002fbcc       0x9c examples/dfu/CMakeFiles/dfu_no_serial_nrf52832_xxAA_s132_6.0.0.dir/__/__/models/config/src/config_server.c.obj
 .text.handle_config_relay_get
                0x0002fc68       0xd8 examples/dfu/CMakeFiles/dfu_no_serial_nrf52832_xxAA_s132_6.0.0.dir/__/__/models/config/src/config_server.c.obj
 .text.handle_config_model_subscription_virtual_address_delete
                0x0002fd40      0x17c examples/dfu/CMakeFiles/dfu_no_serial_nrf52832_xxAA_s132_6.0.0.dir/__/__/models/config/src/config_server.c.obj
 .text.handle_config_model_subscription_delete_all
                0x0002febc      0x1a8 examples/dfu/CMakeFiles/dfu_no_serial_nrf52832_xxAA_s132_6.0.0.dir/__/__/models/config/src/config_server.c.obj
 .text.handle_config_model_subscription_virtual_address_add
                0x00030064      0x178 examples/dfu/CMakeFiles/dfu_no_serial_nrf52832_xxAA_s132_6.0.0.dir/__/__/models/config/src/config_server.c.obj
 .text.handle_config_model_subscription_delete
                0x000301dc      0x170 examples/dfu/CMakeFiles/dfu_no_serial_nrf52832_xxAA_s132_6.0.0.dir/__/__/models/config/src/config_server.c.obj
 .text.handle_config_model_subscription_virtual_address_overwrite
                0x0003034c      0x210 examples/dfu/CMakeFiles/dfu_no_serial_nrf52832_xxAA_s132_6.0.0.dir/__/__/models/config/src/config_server.c.obj
 .text.handle_config_model_subscription_add
                0x0003055c      0x168 examples/dfu/CMakeFiles/dfu_no_serial_nrf52832_xxAA_s132_6.0.0.dir/__/__/models/config/src/config_server.c.obj
 .text.config_server_init
                0x000306c4       0x64 examples/dfu/CMakeFiles/dfu_no_serial_nrf52832_xxAA_s132_6.0.0.dir/__/__/models/config/src/config_server.c.obj
                0x000306c4                config_server_init
 .text.config_server_bind
                0x00030728       0x10 examples/dfu/CMakeFiles/dfu_no_serial_nrf52832_xxAA_s132_6.0.0.dir/__/__/models/config/src/config_server.c.obj
                0x00030728                config_server_bind
 .text.packed_index_list_create
                0x00030738       0x38 examples/dfu/CMakeFiles/dfu_no_serial_nrf52832_xxAA_s132_6.0.0.dir/__/__/models/config/src/packed_index_list.c.obj
                0x00030738                packed_index_list_create
 .text.attention_timer_handler
                0x00030770       0x6c examples/dfu/CMakeFiles/dfu_no_serial_nrf52832_xxAA_s132_6.0.0.dir/__/__/models/health/src/health_server.c.obj
 .text.handle_attention_get
                0x000307dc       0x3c examples/dfu/CMakeFiles/dfu_no_serial_nrf52832_xxAA_s132_6.0.0.dir/__/__/models/health/src/health_server.c.obj
 .text.handle_period_get
                0x00030818       0x38 examples/dfu/CMakeFiles/dfu_no_serial_nrf52832_xxAA_s132_6.0.0.dir/__/__/models/health/src/health_server.c.obj
 .text.handle_attention_set
                0x00030850       0xd8 examples/dfu/CMakeFiles/dfu_no_serial_nrf52832_xxAA_s132_6.0.0.dir/__/__/models/health/src/health_server.c.obj
 .text.handle_period_set
                0x00030928       0x50 examples/dfu/CMakeFiles/dfu_no_serial_nrf52832_xxAA_s132_6.0.0.dir/__/__/models/health/src/health_server.c.obj
 .text.send_fault_status
                0x00030978      0x37c examples/dfu/CMakeFiles/dfu_no_serial_nrf52832_xxAA_s132_6.0.0.dir/__/__/models/health/src/health_server.c.obj
 .text.health_publish_timeout_handler
                0x00030cf4        0xc examples/dfu/CMakeFiles/dfu_no_serial_nrf52832_xxAA_s132_6.0.0.dir/__/__/models/health/src/health_server.c.obj
 .text.handle_fault_test
                0x00030d00       0x7c examples/dfu/CMakeFiles/dfu_no_serial_nrf52832_xxAA_s132_6.0.0.dir/__/__/models/health/src/health_server.c.obj
 .text.handle_fault_clear
                0x00030d7c       0x48 examples/dfu/CMakeFiles/dfu_no_serial_nrf52832_xxAA_s132_6.0.0.dir/__/__/models/health/src/health_server.c.obj
 .text.handle_fault_get
                0x00030dc4       0x34 examples/dfu/CMakeFiles/dfu_no_serial_nrf52832_xxAA_s132_6.0.0.dir/__/__/models/health/src/health_server.c.obj
 .text.health_server_init
                0x00030df8       0x74 examples/dfu/CMakeFiles/dfu_no_serial_nrf52832_xxAA_s132_6.0.0.dir/__/__/models/health/src/health_server.c.obj
                0x00030df8                health_server_init
 .text.prov_provisioner_auth_data
                0x00030e6c       0xec examples/dfu/CMakeFiles/dfu_no_serial_nrf52832_xxAA_s132_6.0.0.dir/__/__/mesh/prov/src/prov_provisioner.c.obj
                0x00030e6c                prov_provisioner_auth_data
 .text.prov_provisionee_cb_link_established
                0x00030f58       0x38 examples/dfu/CMakeFiles/dfu_no_serial_nrf52832_xxAA_s132_6.0.0.dir/__/__/mesh/prov/src/prov_provisionee.c.obj
 .text.prov_provisionee_cb_link_closed
                0x00030f90       0x54 examples/dfu/CMakeFiles/dfu_no_serial_nrf52832_xxAA_s132_6.0.0.dir/__/__/mesh/prov/src/prov_provisionee.c.obj
 .text.request_authentication
                0x00030fe4       0x90 examples/dfu/CMakeFiles/dfu_no_serial_nrf52832_xxAA_s132_6.0.0.dir/__/__/mesh/prov/src/prov_provisionee.c.obj
 .text.prov_provisionee_cb_ack_received
                0x00031074      0x194 examples/dfu/CMakeFiles/dfu_no_serial_nrf52832_xxAA_s132_6.0.0.dir/__/__/mesh/prov/src/prov_provisionee.c.obj
 .text.prov_provisionee_pkt_in
                0x00031208      0x420 examples/dfu/CMakeFiles/dfu_no_serial_nrf52832_xxAA_s132_6.0.0.dir/__/__/mesh/prov/src/prov_provisionee.c.obj
 .text.prov_provisionee_listen
                0x00031628       0x34 examples/dfu/CMakeFiles/dfu_no_serial_nrf52832_xxAA_s132_6.0.0.dir/__/__/mesh/prov/src/prov_provisionee.c.obj
                0x00031628                prov_provisionee_listen
 .text.prov_provisionee_auth_data
                0x0003165c      0x104 examples/dfu/CMakeFiles/dfu_no_serial_nrf52832_xxAA_s132_6.0.0.dir/__/__/mesh/prov/src/prov_provisionee.c.obj
                0x0003165c                prov_provisionee_auth_data
 .text.bearer_compare_callback
                0x00031760       0x10 examples/dfu/CMakeFiles/dfu_no_serial_nrf52832_xxAA_s132_6.0.0.dir/__/__/mesh/prov/src/nrf_mesh_prov.c.obj
 .text.nrf_mesh_prov_init
                0x00031770       0x3c examples/dfu/CMakeFiles/dfu_no_serial_nrf52832_xxAA_s132_6.0.0.dir/__/__/mesh/prov/src/nrf_mesh_prov.c.obj
                0x00031770                nrf_mesh_prov_init
 .text.nrf_mesh_prov_bearer_add
                0x000317ac       0x2c examples/dfu/CMakeFiles/dfu_no_serial_nrf52832_xxAA_s132_6.0.0.dir/__/__/mesh/prov/src/nrf_mesh_prov.c.obj
                0x000317ac                nrf_mesh_prov_bearer_add
 .text.nrf_mesh_prov_generate_keys
                0x000317d8        0x4 examples/dfu/CMakeFiles/dfu_no_serial_nrf52832_xxAA_s132_6.0.0.dir/__/__/mesh/prov/src/nrf_mesh_prov.c.obj
                0x000317d8                nrf_mesh_prov_generate_keys
 .text.nrf_mesh_prov_listen
                0x000317dc       0xf8 examples/dfu/CMakeFiles/dfu_no_serial_nrf52832_xxAA_s132_6.0.0.dir/__/__/mesh/prov/src/nrf_mesh_prov.c.obj
                0x000317dc                nrf_mesh_prov_listen
 .text.nrf_mesh_prov_auth_data_provide
                0x000318d4       0x10 examples/dfu/CMakeFiles/dfu_no_serial_nrf52832_xxAA_s132_6.0.0.dir/__/__/mesh/prov/src/nrf_mesh_prov.c.obj
                0x000318d4                nrf_mesh_prov_auth_data_provide
 .text.prov_packet_length_valid
                0x000318e4       0x20 examples/dfu/CMakeFiles/dfu_no_serial_nrf52832_xxAA_s132_6.0.0.dir/__/__/mesh/prov/src/provisioning.c.obj
                0x000318e4                prov_packet_length_valid
 .text.prov_tx_capabilities
                0x00031904       0x38 examples/dfu/CMakeFiles/dfu_no_serial_nrf52832_xxAA_s132_6.0.0.dir/__/__/mesh/prov/src/provisioning.c.obj
                0x00031904                prov_tx_capabilities
 .text.prov_tx_public_key
                0x0003193c       0x30 examples/dfu/CMakeFiles/dfu_no_serial_nrf52832_xxAA_s132_6.0.0.dir/__/__/mesh/prov/src/provisioning.c.obj
                0x0003193c                prov_tx_public_key
 .text.prov_tx_input_complete
                0x0003196c       0x28 examples/dfu/CMakeFiles/dfu_no_serial_nrf52832_xxAA_s132_6.0.0.dir/__/__/mesh/prov/src/provisioning.c.obj
                0x0003196c                prov_tx_input_complete
 .text.prov_tx_confirmation
                0x00031994       0x30 examples/dfu/CMakeFiles/dfu_no_serial_nrf52832_xxAA_s132_6.0.0.dir/__/__/mesh/prov/src/provisioning.c.obj
                0x00031994                prov_tx_confirmation
 .text.prov_tx_random
                0x000319c4       0x30 examples/dfu/CMakeFiles/dfu_no_serial_nrf52832_xxAA_s132_6.0.0.dir/__/__/mesh/prov/src/provisioning.c.obj
                0x000319c4                prov_tx_random
 .text.prov_tx_complete
                0x000319f4       0x28 examples/dfu/CMakeFiles/dfu_no_serial_nrf52832_xxAA_s132_6.0.0.dir/__/__/mesh/prov/src/provisioning.c.obj
                0x000319f4                prov_tx_complete
 .text.prov_tx_failed
                0x00031a1c       0x2c examples/dfu/CMakeFiles/dfu_no_serial_nrf52832_xxAA_s132_6.0.0.dir/__/__/mesh/prov/src/provisioning.c.obj
                0x00031a1c                prov_tx_failed
 .text.prov_beacon_unprov_build
                0x00031a48       0x54 examples/dfu/CMakeFiles/dfu_no_serial_nrf52832_xxAA_s132_6.0.0.dir/__/__/mesh/prov/src/prov_beacon.c.obj
                0x00031a48                prov_beacon_unprov_build
 .text.prov_beacon_unprov_packet_in
                0x00031a9c       0xd4 examples/dfu/CMakeFiles/dfu_no_serial_nrf52832_xxAA_s132_6.0.0.dir/__/__/mesh/prov/src/prov_beacon.c.obj
                0x00031a9c                prov_beacon_unprov_packet_in
 .text.prov_utils_opt_set
                0x00031b70       0x24 examples/dfu/CMakeFiles/dfu_no_serial_nrf52832_xxAA_s132_6.0.0.dir/__/__/mesh/prov/src/prov_utils.c.obj
                0x00031b70                prov_utils_opt_set
 .text.prov_utils_opt_get
                0x00031b94       0x1c examples/dfu/CMakeFiles/dfu_no_serial_nrf52832_xxAA_s132_6.0.0.dir/__/__/mesh/prov/src/prov_utils.c.obj
                0x00031b94                prov_utils_opt_get
 .text.prov_utils_use_ecdh_offloading
                0x00031bb0        0xc examples/dfu/CMakeFiles/dfu_no_serial_nrf52832_xxAA_s132_6.0.0.dir/__/__/mesh/prov/src/prov_utils.c.obj
                0x00031bb0                prov_utils_use_ecdh_offloading
 .text.prov_utils_authentication_values_derive
                0x00031bbc       0xa8 examples/dfu/CMakeFiles/dfu_no_serial_nrf52832_xxAA_s132_6.0.0.dir/__/__/mesh/prov/src/prov_utils.c.obj
                0x00031bbc                prov_utils_authentication_values_derive
 .text.prov_utils_keys_generate
                0x00031c64       0x20 examples/dfu/CMakeFiles/dfu_no_serial_nrf52832_xxAA_s132_6.0.0.dir/__/__/mesh/prov/src/prov_utils.c.obj
                0x00031c64                prov_utils_keys_generate
 .text.prov_utils_derive_keys
                0x00031c84       0xb4 examples/dfu/CMakeFiles/dfu_no_serial_nrf52832_xxAA_s132_6.0.0.dir/__/__/mesh/prov/src/prov_utils.c.obj
                0x00031c84                prov_utils_derive_keys
 .text.prov_utils_calculate_shared_secret
                0x00031d38       0x38 examples/dfu/CMakeFiles/dfu_no_serial_nrf52832_xxAA_s132_6.0.0.dir/__/__/mesh/prov/src/prov_utils.c.obj
                0x00031d38                prov_utils_calculate_shared_secret
 .text.prov_utils_generate_oob_data
                0x00031d70      0x1b8 examples/dfu/CMakeFiles/dfu_no_serial_nrf52832_xxAA_s132_6.0.0.dir/__/__/mesh/prov/src/prov_utils.c.obj
                0x00031d70                prov_utils_generate_oob_data
 .text.prov_utils_confirmation_check
                0x00031f28       0x5c examples/dfu/CMakeFiles/dfu_no_serial_nrf52832_xxAA_s132_6.0.0.dir/__/__/mesh/prov/src/prov_utils.c.obj
                0x00031f28                prov_utils_confirmation_check
 .text.link_timeout_cb
                0x00031f84       0x10 examples/dfu/CMakeFiles/dfu_no_serial_nrf52832_xxAA_s132_6.0.0.dir/__/__/mesh/prov/src/prov_bearer_adv.c.obj
 .text.prov_bearer_adv_listen_stop
                0x00031f94       0x8c examples/dfu/CMakeFiles/dfu_no_serial_nrf52832_xxAA_s132_6.0.0.dir/__/__/mesh/prov/src/prov_bearer_adv.c.obj
 .text.tx_complete_cb
                0x00032020       0x20 examples/dfu/CMakeFiles/dfu_no_serial_nrf52832_xxAA_s132_6.0.0.dir/__/__/mesh/prov/src/prov_bearer_adv.c.obj
 .text.prov_bearer_adv_listen
                0x00032040      0x160 examples/dfu/CMakeFiles/dfu_no_serial_nrf52832_xxAA_s132_6.0.0.dir/__/__/mesh/prov/src/prov_bearer_adv.c.obj
 .text.prov_buffer_tx
                0x000321a0      0x1d8 examples/dfu/CMakeFiles/dfu_no_serial_nrf52832_xxAA_s132_6.0.0.dir/__/__/mesh/prov/src/prov_bearer_adv.c.obj
 .text.close_link
                0x00032378       0xc0 examples/dfu/CMakeFiles/dfu_no_serial_nrf52832_xxAA_s132_6.0.0.dir/__/__/mesh/prov/src/prov_bearer_adv.c.obj
 .text.async_process
                0x00032438       0x60 examples/dfu/CMakeFiles/dfu_no_serial_nrf52832_xxAA_s132_6.0.0.dir/__/__/mesh/prov/src/prov_bearer_adv.c.obj
 .text.prov_bearer_adv_tx
                0x00032498       0xe4 examples/dfu/CMakeFiles/dfu_no_serial_nrf52832_xxAA_s132_6.0.0.dir/__/__/mesh/prov/src/prov_bearer_adv.c.obj
 .text.send_link_ack
                0x0003257c       0x80 examples/dfu/CMakeFiles/dfu_no_serial_nrf52832_xxAA_s132_6.0.0.dir/__/__/mesh/prov/src/prov_bearer_adv.c.obj
 .text.tx_retry_cb
                0x000325fc      0x13c examples/dfu/CMakeFiles/dfu_no_serial_nrf52832_xxAA_s132_6.0.0.dir/__/__/mesh/prov/src/prov_bearer_adv.c.obj
 .text.send_transaction_ack
                0x00032738       0x68 examples/dfu/CMakeFiles/dfu_no_serial_nrf52832_xxAA_s132_6.0.0.dir/__/__/mesh/prov/src/prov_bearer_adv.c.obj
 .text.prov_buffer_rx
                0x000327a0       0x9c examples/dfu/CMakeFiles/dfu_no_serial_nrf52832_xxAA_s132_6.0.0.dir/__/__/mesh/prov/src/prov_bearer_adv.c.obj
 .text.prov_bearer_adv_link_open
                0x0003283c      0x1c0 examples/dfu/CMakeFiles/dfu_no_serial_nrf52832_xxAA_s132_6.0.0.dir/__/__/mesh/prov/src/prov_bearer_adv.c.obj
 .text.prov_bearer_adv_link_close
                0x000329fc       0xd8 examples/dfu/CMakeFiles/dfu_no_serial_nrf52832_xxAA_s132_6.0.0.dir/__/__/mesh/prov/src/prov_bearer_adv.c.obj
 .text.nrf_mesh_prov_bearer_adv_interface_get
                0x00032ad4       0x40 examples/dfu/CMakeFiles/dfu_no_serial_nrf52832_xxAA_s132_6.0.0.dir/__/__/mesh/prov/src/prov_bearer_adv.c.obj
                0x00032ad4                nrf_mesh_prov_bearer_adv_interface_get
 .text.prov_bearer_adv_packet_in
                0x00032b14      0x950 examples/dfu/CMakeFiles/dfu_no_serial_nrf52832_xxAA_s132_6.0.0.dir/__/__/mesh/prov/src/prov_bearer_adv.c.obj
                0x00032b14                prov_bearer_adv_packet_in
 .text.tx_complete_cb
                0x00033464        0x4 examples/dfu/CMakeFiles/dfu_no_serial_nrf52832_xxAA_s132_6.0.0.dir/__/__/mesh/dfu/src/nrf_mesh_dfu.c.obj
 .text.tx_timeout
                0x00033468      0x1dc examples/dfu/CMakeFiles/dfu_no_serial_nrf52832_xxAA_s132_6.0.0.dir/__/__/mesh/dfu/src/nrf_mesh_dfu.c.obj
 .text.abort_timeout
                0x00033644      0x148 examples/dfu/CMakeFiles/dfu_no_serial_nrf52832_xxAA_s132_6.0.0.dir/__/__/mesh/dfu/src/nrf_mesh_dfu.c.obj
 .text.timer_timeout
                0x0003378c       0xf4 examples/dfu/CMakeFiles/dfu_no_serial_nrf52832_xxAA_s132_6.0.0.dir/__/__/mesh/dfu/src/nrf_mesh_dfu.c.obj
 .text.flash_op_complete
                0x00033880      0x200 examples/dfu/CMakeFiles/dfu_no_serial_nrf52832_xxAA_s132_6.0.0.dir/__/__/mesh/dfu/src/nrf_mesh_dfu.c.obj
 .text.dfu_evt_handler
                0x00033a80      0xa80 examples/dfu/CMakeFiles/dfu_no_serial_nrf52832_xxAA_s132_6.0.0.dir/__/__/mesh/dfu/src/nrf_mesh_dfu.c.obj
 .text.nrf_mesh_dfu_request
                0x00034500      0x124 examples/dfu/CMakeFiles/dfu_no_serial_nrf52832_xxAA_s132_6.0.0.dir/__/__/mesh/dfu/src/nrf_mesh_dfu.c.obj
                0x00034500                nrf_mesh_dfu_request
 .text.nrf_mesh_dfu_relay
                0x00034624      0x10c examples/dfu/CMakeFiles/dfu_no_serial_nrf52832_xxAA_s132_6.0.0.dir/__/__/mesh/dfu/src/nrf_mesh_dfu.c.obj
                0x00034624                nrf_mesh_dfu_relay
 .text.nrf_mesh_dfu_bank_flash
                0x00034730       0xb4 examples/dfu/CMakeFiles/dfu_no_serial_nrf52832_xxAA_s132_6.0.0.dir/__/__/mesh/dfu/src/nrf_mesh_dfu.c.obj
                0x00034730                nrf_mesh_dfu_bank_flash
 .text.nrf_mesh_dfu_cmd_send
                0x000347e4       0xa8 examples/dfu/CMakeFiles/dfu_no_serial_nrf52832_xxAA_s132_6.0.0.dir/__/__/mesh/dfu/src/nrf_mesh_dfu.c.obj
                0x000347e4                nrf_mesh_dfu_cmd_send
 .text.nrf_mesh_dfu_init
                0x0003488c      0x1f0 examples/dfu/CMakeFiles/dfu_no_serial_nrf52832_xxAA_s132_6.0.0.dir/__/__/mesh/dfu/src/nrf_mesh_dfu.c.obj
                0x0003488c                nrf_mesh_dfu_init
 .text.nrf_mesh_dfu_rx
                0x00034a7c      0x224 examples/dfu/CMakeFiles/dfu_no_serial_nrf52832_xxAA_s132_6.0.0.dir/__/__/mesh/dfu/src/nrf_mesh_dfu.c.obj
                0x00034a7c                nrf_mesh_dfu_rx
 .text.app_error_fault_handler
                0x00034ca0      0x240 examples/dfu/CMakeFiles/dfu_no_serial_nrf52832_xxAA_s132_6.0.0.dir/__/common/src/app_error_weak.c.obj
                0x00034ca0                app_error_fault_handler
 .text.mesh_assertion_handler
                0x00034ee0       0x24 examples/dfu/CMakeFiles/dfu_no_serial_nrf52832_xxAA_s132_6.0.0.dir/__/common/src/assertion_handler_weak.c.obj
                0x00034ee0                mesh_assertion_handler
 .text.nrf_mesh_configure_device_uuid_set
                0x00034f04       0x10 examples/dfu/CMakeFiles/dfu_no_serial_nrf52832_xxAA_s132_6.0.0.dir/__/__/mesh/core/src/nrf_mesh_configure.c.obj
                0x00034f04                nrf_mesh_configure_device_uuid_set
 .text.nrf_mesh_configure_device_uuid_reset
                0x00034f14       0x2c examples/dfu/CMakeFiles/dfu_no_serial_nrf52832_xxAA_s132_6.0.0.dir/__/__/mesh/core/src/nrf_mesh_configure.c.obj
                0x00034f14                nrf_mesh_configure_device_uuid_reset
 .text.nrf_mesh_configure_device_uuid_get
                0x00034f40        0x8 examples/dfu/CMakeFiles/dfu_no_serial_nrf52832_xxAA_s132_6.0.0.dir/__/__/mesh/core/src/nrf_mesh_configure.c.obj
                0x00034f40                nrf_mesh_configure_device_uuid_get
 .text.sd_ecb_block_encrypt
                0x00034f48        0x4 examples/dfu/CMakeFiles/dfu_no_serial_nrf52832_xxAA_s132_6.0.0.dir/__/__/mesh/core/src/aes.c.obj
 .text.aes_encrypt
                0x00034f4c       0x34 examples/dfu/CMakeFiles/dfu_no_serial_nrf52832_xxAA_s132_6.0.0.dir/__/__/mesh/core/src/aes.c.obj
                0x00034f4c                aes_encrypt
 .text.msg_cache_init
                0x00034f80       0x24 examples/dfu/CMakeFiles/dfu_no_serial_nrf52832_xxAA_s132_6.0.0.dir/__/__/mesh/core/src/msg_cache.c.obj
                0x00034f80                msg_cache_init
 .text.msg_cache_entry_exists
                0x00034fa4       0x40 examples/dfu/CMakeFiles/dfu_no_serial_nrf52832_xxAA_s132_6.0.0.dir/__/__/mesh/core/src/msg_cache.c.obj
                0x00034fa4                msg_cache_entry_exists
 .text.msg_cache_entry_add
                0x00034fe4       0x30 examples/dfu/CMakeFiles/dfu_no_serial_nrf52832_xxAA_s132_6.0.0.dir/__/__/mesh/core/src/msg_cache.c.obj
                0x00034fe4                msg_cache_entry_add
 .text.tx_complete
                0x00035014       0x30 examples/dfu/CMakeFiles/dfu_no_serial_nrf52832_xxAA_s132_6.0.0.dir/__/__/mesh/core/src/transport.c.obj
 .text.upper_trs_packet_encrypt
                0x00035044       0xb4 examples/dfu/CMakeFiles/dfu_no_serial_nrf52832_xxAA_s132_6.0.0.dir/__/__/mesh/core/src/transport.c.obj
 .text.trs_sar_packet_out
                0x000350f8      0x1a4 examples/dfu/CMakeFiles/dfu_no_serial_nrf52832_xxAA_s132_6.0.0.dir/__/__/mesh/core/src/transport.c.obj
 .text.upper_transport_tx.part.25
                0x0003529c      0x34c examples/dfu/CMakeFiles/dfu_no_serial_nrf52832_xxAA_s132_6.0.0.dir/__/__/mesh/core/src/transport.c.obj
 .text.sar_ack_send.part.29
                0x000355e8       0xd4 examples/dfu/CMakeFiles/dfu_no_serial_nrf52832_xxAA_s132_6.0.0.dir/__/__/mesh/core/src/transport.c.obj
 .text.ack_timeout
                0x000356bc       0x34 examples/dfu/CMakeFiles/dfu_no_serial_nrf52832_xxAA_s132_6.0.0.dir/__/__/mesh/core/src/transport.c.obj
 .text.upper_transport_access_packet_in
                0x000356f0      0x334 examples/dfu/CMakeFiles/dfu_no_serial_nrf52832_xxAA_s132_6.0.0.dir/__/__/mesh/core/src/transport.c.obj
 .text.sar_ctx_cancel
                0x00035a24      0x148 examples/dfu/CMakeFiles/dfu_no_serial_nrf52832_xxAA_s132_6.0.0.dir/__/__/mesh/core/src/transport.c.obj
 .text.retry_timeout
                0x00035b6c       0x98 examples/dfu/CMakeFiles/dfu_no_serial_nrf52832_xxAA_s132_6.0.0.dir/__/__/mesh/core/src/transport.c.obj
 .text.transport_sar_process
                0x00035c04      0x288 examples/dfu/CMakeFiles/dfu_no_serial_nrf52832_xxAA_s132_6.0.0.dir/__/__/mesh/core/src/transport.c.obj
 .text.upper_transport_packet_in
                0x00035e8c      0x2e4 examples/dfu/CMakeFiles/dfu_no_serial_nrf52832_xxAA_s132_6.0.0.dir/__/__/mesh/core/src/transport.c.obj
 .text.abort_timeout
                0x00036170      0x13c examples/dfu/CMakeFiles/dfu_no_serial_nrf52832_xxAA_s132_6.0.0.dir/__/__/mesh/core/src/transport.c.obj
 .text.transport_init
                0x000362ac       0xac examples/dfu/CMakeFiles/dfu_no_serial_nrf52832_xxAA_s132_6.0.0.dir/__/__/mesh/core/src/transport.c.obj
                0x000362ac                transport_init
 .text.transport_packet_in
                0x00036358      0x770 examples/dfu/CMakeFiles/dfu_no_serial_nrf52832_xxAA_s132_6.0.0.dir/__/__/mesh/core/src/transport.c.obj
                0x00036358                transport_packet_in
 .text.transport_tx
                0x00036ac8      0x100 examples/dfu/CMakeFiles/dfu_no_serial_nrf52832_xxAA_s132_6.0.0.dir/__/__/mesh/core/src/transport.c.obj
                0x00036ac8                transport_tx
 .text.transport_control_tx
                0x00036bc8       0xc0 examples/dfu/CMakeFiles/dfu_no_serial_nrf52832_xxAA_s132_6.0.0.dir/__/__/mesh/core/src/transport.c.obj
                0x00036bc8                transport_control_tx
 .text.transport_opt_set
                0x00036c88       0xdc examples/dfu/CMakeFiles/dfu_no_serial_nrf52832_xxAA_s132_6.0.0.dir/__/__/mesh/core/src/transport.c.obj
                0x00036c88                transport_opt_set
 .text.transport_opt_get
                0x00036d64       0x84 examples/dfu/CMakeFiles/dfu_no_serial_nrf52832_xxAA_s132_6.0.0.dir/__/__/mesh/core/src/transport.c.obj
                0x00036d64                transport_opt_get
 .text.transport_control_packet_consumer_add
                0x00036de8       0x60 examples/dfu/CMakeFiles/dfu_no_serial_nrf52832_xxAA_s132_6.0.0.dir/__/__/mesh/core/src/transport.c.obj
                0x00036de8                transport_control_packet_consumer_add
 .text.event_handle
                0x00036e48       0x28 examples/dfu/CMakeFiles/dfu_no_serial_nrf52832_xxAA_s132_6.0.0.dir/__/__/mesh/core/src/event.c.obj
                0x00036e48                event_handle
 .text.event_handler_add
                0x00036e70       0x28 examples/dfu/CMakeFiles/dfu_no_serial_nrf52832_xxAA_s132_6.0.0.dir/__/__/mesh/core/src/event.c.obj
                0x00036e70                event_handler_add
 .text.event_handler_remove
                0x00036e98       0x28 examples/dfu/CMakeFiles/dfu_no_serial_nrf52832_xxAA_s132_6.0.0.dir/__/__/mesh/core/src/event.c.obj
                0x00036e98                event_handler_remove
 .text.packet_buffer_init
                0x00036ec0       0xb4 examples/dfu/CMakeFiles/dfu_no_serial_nrf52832_xxAA_s132_6.0.0.dir/__/__/mesh/core/src/packet_buffer.c.obj
                0x00036ec0                packet_buffer_init
 .text.packet_buffer_flush
                0x00036f74       0x74 examples/dfu/CMakeFiles/dfu_no_serial_nrf52832_xxAA_s132_6.0.0.dir/__/__/mesh/core/src/packet_buffer.c.obj
                0x00036f74                packet_buffer_flush
 .text.packet_buffer_reserve
                0x00036fe8       0x9c examples/dfu/CMakeFiles/dfu_no_serial_nrf52832_xxAA_s132_6.0.0.dir/__/__/mesh/core/src/packet_buffer.c.obj
                0x00036fe8                packet_buffer_reserve
 .text.packet_buffer_commit
                0x00037084       0x7c examples/dfu/CMakeFiles/dfu_no_serial_nrf52832_xxAA_s132_6.0.0.dir/__/__/mesh/core/src/packet_buffer.c.obj
                0x00037084                packet_buffer_commit
 .text.packet_buffer_pop
                0x00037100       0x50 examples/dfu/CMakeFiles/dfu_no_serial_nrf52832_xxAA_s132_6.0.0.dir/__/__/mesh/core/src/packet_buffer.c.obj
                0x00037100                packet_buffer_pop
 .text.packet_buffer_can_pop
                0x00037150       0x24 examples/dfu/CMakeFiles/dfu_no_serial_nrf52832_xxAA_s132_6.0.0.dir/__/__/mesh/core/src/packet_buffer.c.obj
                0x00037150                packet_buffer_can_pop
 .text.packet_buffer_packets_ready_to_pop
                0x00037174       0x48 examples/dfu/CMakeFiles/dfu_no_serial_nrf52832_xxAA_s132_6.0.0.dir/__/__/mesh/core/src/packet_buffer.c.obj
                0x00037174                packet_buffer_packets_ready_to_pop
 .text.packet_buffer_free
                0x000371bc       0x8c examples/dfu/CMakeFiles/dfu_no_serial_nrf52832_xxAA_s132_6.0.0.dir/__/__/mesh/core/src/packet_buffer.c.obj
                0x000371bc                packet_buffer_free
 .text.erase_source
                0x00037248       0x34 examples/dfu/CMakeFiles/dfu_no_serial_nrf52832_xxAA_s132_6.0.0.dir/__/__/mesh/core/src/flash_manager_defrag.c.obj
 .text.erase_recovery_area
                0x0003727c       0x34 examples/dfu/CMakeFiles/dfu_no_serial_nrf52832_xxAA_s132_6.0.0.dir/__/__/mesh/core/src/flash_manager_defrag.c.obj
 .text.write_back
                0x000372b0       0x44 examples/dfu/CMakeFiles/dfu_no_serial_nrf52832_xxAA_s132_6.0.0.dir/__/__/mesh/core/src/flash_manager_defrag.c.obj
 .text.write_defrag_start_pointer
                0x000372f4       0x38 examples/dfu/CMakeFiles/dfu_no_serial_nrf52832_xxAA_s132_6.0.0.dir/__/__/mesh/core/src/flash_manager_defrag.c.obj
 .text.copy_metadata
                0x0003732c       0x58 examples/dfu/CMakeFiles/dfu_no_serial_nrf52832_xxAA_s132_6.0.0.dir/__/__/mesh/core/src/flash_manager_defrag.c.obj
 .text.seal_storage_page
                0x00037384       0x70 examples/dfu/CMakeFiles/dfu_no_serial_nrf52832_xxAA_s132_6.0.0.dir/__/__/mesh/core/src/flash_manager_defrag.c.obj
 .text.post_process
                0x000373f4       0x64 examples/dfu/CMakeFiles/dfu_no_serial_nrf52832_xxAA_s132_6.0.0.dir/__/__/mesh/core/src/flash_manager_defrag.c.obj
 .text.check_for_invalid_entries
                0x00037458       0x40 examples/dfu/CMakeFiles/dfu_no_serial_nrf52832_xxAA_s132_6.0.0.dir/__/__/mesh/core/src/flash_manager_defrag.c.obj
 .text.execute_procedure_step
                0x00037498       0xa0 examples/dfu/CMakeFiles/dfu_no_serial_nrf52832_xxAA_s132_6.0.0.dir/__/__/mesh/core/src/flash_manager_defrag.c.obj
 .text.on_flash_op_end
                0x00037538       0x4c examples/dfu/CMakeFiles/dfu_no_serial_nrf52832_xxAA_s132_6.0.0.dir/__/__/mesh/core/src/flash_manager_defrag.c.obj
 .text.invalidate_duplicate_entries
                0x00037584      0x158 examples/dfu/CMakeFiles/dfu_no_serial_nrf52832_xxAA_s132_6.0.0.dir/__/__/mesh/core/src/flash_manager_defrag.c.obj
 .text.backup_entries
                0x000376dc      0x1c4 examples/dfu/CMakeFiles/dfu_no_serial_nrf52832_xxAA_s132_6.0.0.dir/__/__/mesh/core/src/flash_manager_defrag.c.obj
 .text.flash_manager_defrag_init
                0x000378a0       0x6c examples/dfu/CMakeFiles/dfu_no_serial_nrf52832_xxAA_s132_6.0.0.dir/__/__/mesh/core/src/flash_manager_defrag.c.obj
                0x000378a0                flash_manager_defrag_init
 .text.flash_manager_defrag_is_running
                0x0003790c       0x10 examples/dfu/CMakeFiles/dfu_no_serial_nrf52832_xxAA_s132_6.0.0.dir/__/__/mesh/core/src/flash_manager_defrag.c.obj
                0x0003790c                flash_manager_defrag_is_running
 .text.flash_manager_defrag
                0x0003791c       0x48 examples/dfu/CMakeFiles/dfu_no_serial_nrf52832_xxAA_s132_6.0.0.dir/__/__/mesh/core/src/flash_manager_defrag.c.obj
                0x0003791c                flash_manager_defrag
 .text.flash_manager_defrag_recovery_page_get
                0x00037964        0xc examples/dfu/CMakeFiles/dfu_no_serial_nrf52832_xxAA_s132_6.0.0.dir/__/__/mesh/core/src/flash_manager_defrag.c.obj
                0x00037964                flash_manager_defrag_recovery_page_get
 .text.fifo_init
                0x00037970       0x38 examples/dfu/CMakeFiles/dfu_no_serial_nrf52832_xxAA_s132_6.0.0.dir/__/__/mesh/core/src/fifo.c.obj
                0x00037970                fifo_init
 .text.fifo_push
                0x000379a8       0x54 examples/dfu/CMakeFiles/dfu_no_serial_nrf52832_xxAA_s132_6.0.0.dir/__/__/mesh/core/src/fifo.c.obj
                0x000379a8                fifo_push
 .text.fifo_pop
                0x000379fc       0x58 examples/dfu/CMakeFiles/dfu_no_serial_nrf52832_xxAA_s132_6.0.0.dir/__/__/mesh/core/src/fifo.c.obj
                0x000379fc                fifo_pop
 .text.nrf_flash_erase
                0x00037a54       0x5c examples/dfu/CMakeFiles/dfu_no_serial_nrf52832_xxAA_s132_6.0.0.dir/__/__/mesh/core/src/nrf_flash.c.obj
                0x00037a54                nrf_flash_erase
 .text.nrf_flash_write
                0x00037ab0       0x6c examples/dfu/CMakeFiles/dfu_no_serial_nrf52832_xxAA_s132_6.0.0.dir/__/__/mesh/core/src/nrf_flash.c.obj
                0x00037ab0                nrf_flash_write
 .text.packet_mgr_init
                0x00037b1c       0x4c examples/dfu/CMakeFiles/dfu_no_serial_nrf52832_xxAA_s132_6.0.0.dir/__/__/mesh/core/src/packet_mgr.c.obj
                0x00037b1c                packet_mgr_init
 .text.flash_store_iv_index
                0x00037b68       0x38 examples/dfu/CMakeFiles/dfu_no_serial_nrf52832_xxAA_s132_6.0.0.dir/__/__/mesh/core/src/net_state.c.obj
 .text.flash_mem_available
                0x00037ba0       0x1c examples/dfu/CMakeFiles/dfu_no_serial_nrf52832_xxAA_s132_6.0.0.dir/__/__/mesh/core/src/net_state.c.obj
 .text.init_flash_storage
                0x00037bbc       0x44 examples/dfu/CMakeFiles/dfu_no_serial_nrf52832_xxAA_s132_6.0.0.dir/__/__/mesh/core/src/net_state.c.obj
 .text.flash_write_complete
                0x00037c00       0x68 examples/dfu/CMakeFiles/dfu_no_serial_nrf52832_xxAA_s132_6.0.0.dir/__/__/mesh/core/src/net_state.c.obj
 .text.seqnum_block_allocate
                0x00037c68       0x4c examples/dfu/CMakeFiles/dfu_no_serial_nrf52832_xxAA_s132_6.0.0.dir/__/__/mesh/core/src/net_state.c.obj
 .text.net_state_reset
                0x00037cb4       0x78 examples/dfu/CMakeFiles/dfu_no_serial_nrf52832_xxAA_s132_6.0.0.dir/__/__/mesh/core/src/net_state.c.obj
                0x00037cb4                net_state_reset
 .text.iv_update_trigger_if_pending
                0x00037d2c      0x170 examples/dfu/CMakeFiles/dfu_no_serial_nrf52832_xxAA_s132_6.0.0.dir/__/__/mesh/core/src/net_state.c.obj
 .text.mesh_evt_handler
                0x00037e9c      0x108 examples/dfu/CMakeFiles/dfu_no_serial_nrf52832_xxAA_s132_6.0.0.dir/__/__/mesh/core/src/net_state.c.obj
 .text.iv_update_timer_handler
                0x00037fa4       0x70 examples/dfu/CMakeFiles/dfu_no_serial_nrf52832_xxAA_s132_6.0.0.dir/__/__/mesh/core/src/net_state.c.obj
 .text.net_state_recover_from_flash
                0x00038014      0x118 examples/dfu/CMakeFiles/dfu_no_serial_nrf52832_xxAA_s132_6.0.0.dir/__/__/mesh/core/src/net_state.c.obj
                0x00038014                net_state_recover_from_flash
 .text.net_state_flash_area_get
                0x0003812c        0xc examples/dfu/CMakeFiles/dfu_no_serial_nrf52832_xxAA_s132_6.0.0.dir/__/__/mesh/core/src/net_state.c.obj
                0x0003812c                net_state_flash_area_get
 .text.net_state_init
                0x00038138       0x94 examples/dfu/CMakeFiles/dfu_no_serial_nrf52832_xxAA_s132_6.0.0.dir/__/__/mesh/core/src/net_state.c.obj
                0x00038138                net_state_init
 .text.net_state_seqnum_alloc
                0x000381cc       0xd4 examples/dfu/CMakeFiles/dfu_no_serial_nrf52832_xxAA_s132_6.0.0.dir/__/__/mesh/core/src/net_state.c.obj
                0x000381cc                net_state_seqnum_alloc
 .text.net_state_iv_index_lock
                0x000382a0      0x190 examples/dfu/CMakeFiles/dfu_no_serial_nrf52832_xxAA_s132_6.0.0.dir/__/__/mesh/core/src/net_state.c.obj
                0x000382a0                net_state_iv_index_lock
 .text.net_state_key_refresh_phase_changed
                0x00038430       0x20 examples/dfu/CMakeFiles/dfu_no_serial_nrf52832_xxAA_s132_6.0.0.dir/__/__/mesh/core/src/net_state.c.obj
                0x00038430                net_state_key_refresh_phase_changed
 .text.net_state_beacon_iv_index_get
                0x00038450        0xc examples/dfu/CMakeFiles/dfu_no_serial_nrf52832_xxAA_s132_6.0.0.dir/__/__/mesh/core/src/net_state.c.obj
                0x00038450                net_state_beacon_iv_index_get
 .text.net_state_tx_iv_index_get
                0x0003845c       0x14 examples/dfu/CMakeFiles/dfu_no_serial_nrf52832_xxAA_s132_6.0.0.dir/__/__/mesh/core/src/net_state.c.obj
                0x0003845c                net_state_tx_iv_index_get
 .text.net_state_rx_iv_index_get
                0x00038470       0x18 examples/dfu/CMakeFiles/dfu_no_serial_nrf52832_xxAA_s132_6.0.0.dir/__/__/mesh/core/src/net_state.c.obj
                0x00038470                net_state_rx_iv_index_get
 .text.net_state_iv_update_get
                0x00038488        0xc examples/dfu/CMakeFiles/dfu_no_serial_nrf52832_xxAA_s132_6.0.0.dir/__/__/mesh/core/src/net_state.c.obj
                0x00038488                net_state_iv_update_get
 .text.net_state_iv_index_set
                0x00038494       0x8c examples/dfu/CMakeFiles/dfu_no_serial_nrf52832_xxAA_s132_6.0.0.dir/__/__/mesh/core/src/net_state.c.obj
                0x00038494                net_state_iv_index_set
 .text.send_end_events
                0x00038520       0x90 examples/dfu/CMakeFiles/dfu_no_serial_nrf52832_xxAA_s132_6.0.0.dir/__/__/mesh/core/src/mesh_flash.c.obj
 .text.flash_op_start
                0x000385b0      0x224 examples/dfu/CMakeFiles/dfu_no_serial_nrf52832_xxAA_s132_6.0.0.dir/__/__/mesh/core/src/mesh_flash.c.obj
 .text.mesh_flash_init
                0x000387d4       0x88 examples/dfu/CMakeFiles/dfu_no_serial_nrf52832_xxAA_s132_6.0.0.dir/__/__/mesh/core/src/mesh_flash.c.obj
                0x000387d4                mesh_flash_init
 .text.mesh_flash_user_callback_set
                0x0003885c       0x20 examples/dfu/CMakeFiles/dfu_no_serial_nrf52832_xxAA_s132_6.0.0.dir/__/__/mesh/core/src/mesh_flash.c.obj
                0x0003885c                mesh_flash_user_callback_set
 .text.mesh_flash_op_push
                0x0003887c      0x1a0 examples/dfu/CMakeFiles/dfu_no_serial_nrf52832_xxAA_s132_6.0.0.dir/__/__/mesh/core/src/mesh_flash.c.obj
                0x0003887c                mesh_flash_op_push
 .text.mesh_flash_in_progress
                0x00038a1c       0x34 examples/dfu/CMakeFiles/dfu_no_serial_nrf52832_xxAA_s132_6.0.0.dir/__/__/mesh/core/src/mesh_flash.c.obj
                0x00038a1c                mesh_flash_in_progress
 .text.mesh_flash_set_suspended
                0x00038a50      0x228 examples/dfu/CMakeFiles/dfu_no_serial_nrf52832_xxAA_s132_6.0.0.dir/__/__/mesh/core/src/mesh_flash.c.obj
                0x00038a50                mesh_flash_set_suspended
 .text.nrf_mesh_address_type_get
                0x00038c78       0x10 examples/dfu/CMakeFiles/dfu_no_serial_nrf52832_xxAA_s132_6.0.0.dir/__/__/mesh/core/src/nrf_mesh_utils.c.obj
                0x00038c78                nrf_mesh_address_type_get
 .text.sd_softdevice_is_enabled
                0x00038c88        0x4 examples/dfu/CMakeFiles/dfu_no_serial_nrf52832_xxAA_s132_6.0.0.dir/__/__/mesh/core/src/nrf_mesh.c.obj
 .text.nrf_mesh_listen
                0x00038c8c      0x1c8 examples/dfu/CMakeFiles/dfu_no_serial_nrf52832_xxAA_s132_6.0.0.dir/__/__/mesh/core/src/nrf_mesh.c.obj
 .text.flash_stable_cb
                0x00038e54       0x20 examples/dfu/CMakeFiles/dfu_no_serial_nrf52832_xxAA_s132_6.0.0.dir/__/__/mesh/core/src/nrf_mesh.c.obj
 .text.scanner_packet_process_cb
                0x00038e74       0x88 examples/dfu/CMakeFiles/dfu_no_serial_nrf52832_xxAA_s132_6.0.0.dir/__/__/mesh/core/src/nrf_mesh.c.obj
 .text.nrf_mesh_init
                0x00038efc       0xe0 examples/dfu/CMakeFiles/dfu_no_serial_nrf52832_xxAA_s132_6.0.0.dir/__/__/mesh/core/src/nrf_mesh.c.obj
                0x00038efc                nrf_mesh_init
 .text.nrf_mesh_enable
                0x00038fdc       0x48 examples/dfu/CMakeFiles/dfu_no_serial_nrf52832_xxAA_s132_6.0.0.dir/__/__/mesh/core/src/nrf_mesh.c.obj
                0x00038fdc                nrf_mesh_enable
 .text.nrf_mesh_packet_send
                0x00039024       0x94 examples/dfu/CMakeFiles/dfu_no_serial_nrf52832_xxAA_s132_6.0.0.dir/__/__/mesh/core/src/nrf_mesh.c.obj
                0x00039024                nrf_mesh_packet_send
 .text.nrf_mesh_evt_handler_add
                0x000390b8        0x4 examples/dfu/CMakeFiles/dfu_no_serial_nrf52832_xxAA_s132_6.0.0.dir/__/__/mesh/core/src/nrf_mesh.c.obj
                0x000390b8                nrf_mesh_evt_handler_add
 .text.nrf_mesh_on_sd_evt
                0x000390bc        0xc examples/dfu/CMakeFiles/dfu_no_serial_nrf52832_xxAA_s132_6.0.0.dir/__/__/mesh/core/src/nrf_mesh.c.obj
                0x000390bc                nrf_mesh_on_sd_evt
 .text.nrf_mesh_subnet_added
                0x000390c8        0x4 examples/dfu/CMakeFiles/dfu_no_serial_nrf52832_xxAA_s132_6.0.0.dir/__/__/mesh/core/src/nrf_mesh.c.obj
                0x000390c8                nrf_mesh_subnet_added
 .text.queue_init
                0x000390cc       0x1c examples/dfu/CMakeFiles/dfu_no_serial_nrf52832_xxAA_s132_6.0.0.dir/__/__/mesh/core/src/queue.c.obj
                0x000390cc                queue_init
 .text.queue_push
                0x000390e8       0x44 examples/dfu/CMakeFiles/dfu_no_serial_nrf52832_xxAA_s132_6.0.0.dir/__/__/mesh/core/src/queue.c.obj
                0x000390e8                queue_push
 .text.queue_pop
                0x0003912c       0x2c examples/dfu/CMakeFiles/dfu_no_serial_nrf52832_xxAA_s132_6.0.0.dir/__/__/mesh/core/src/queue.c.obj
                0x0003912c                queue_pop
 .text.queue_peek
                0x00039158       0x14 examples/dfu/CMakeFiles/dfu_no_serial_nrf52832_xxAA_s132_6.0.0.dir/__/__/mesh/core/src/queue.c.obj
                0x00039158                queue_peek
 .text.sd_power_reset_reason_clr
                0x0003916c        0x4 examples/dfu/CMakeFiles/dfu_no_serial_nrf52832_xxAA_s132_6.0.0.dir/__/__/mesh/core/src/hal.c.obj
 .text.sd_power_gpregret_set
                0x00039170        0x4 examples/dfu/CMakeFiles/dfu_no_serial_nrf52832_xxAA_s132_6.0.0.dir/__/__/mesh/core/src/hal.c.obj
 .text.hal_device_reset
                0x00039174       0x38 examples/dfu/CMakeFiles/dfu_no_serial_nrf52832_xxAA_s132_6.0.0.dir/__/__/mesh/core/src/hal.c.obj
                0x00039174                hal_device_reset
 .text.hal_lfclk_ppm_get
                0x000391ac       0x14 examples/dfu/CMakeFiles/dfu_no_serial_nrf52832_xxAA_s132_6.0.0.dir/__/__/mesh/core/src/hal.c.obj
                0x000391ac                hal_lfclk_ppm_get
 .text.aes_cmac_subkey_generate
                0x000391c0      0x2b0 examples/dfu/CMakeFiles/dfu_no_serial_nrf52832_xxAA_s132_6.0.0.dir/__/__/mesh/core/src/aes_cmac.c.obj
                0x000391c0                aes_cmac_subkey_generate
 .text.aes_cmac
                0x00039470      0x49c examples/dfu/CMakeFiles/dfu_no_serial_nrf52832_xxAA_s132_6.0.0.dir/__/__/mesh/core/src/aes_cmac.c.obj
                0x00039470                aes_cmac
 .text.timer_cb
                0x0003990c        0xc examples/dfu/CMakeFiles/dfu_no_serial_nrf52832_xxAA_s132_6.0.0.dir/__/__/mesh/core/src/timer_scheduler.c.obj
 .text.add_evt.constprop.1
                0x00039918       0x60 examples/dfu/CMakeFiles/dfu_no_serial_nrf52832_xxAA_s132_6.0.0.dir/__/__/mesh/core/src/timer_scheduler.c.obj
 .text.flag_event_cb
                0x00039978      0x328 examples/dfu/CMakeFiles/dfu_no_serial_nrf52832_xxAA_s132_6.0.0.dir/__/__/mesh/core/src/timer_scheduler.c.obj
 .text.timer_sch_init
                0x00039ca0       0x24 examples/dfu/CMakeFiles/dfu_no_serial_nrf52832_xxAA_s132_6.0.0.dir/__/__/mesh/core/src/timer_scheduler.c.obj
                0x00039ca0                timer_sch_init
 .text.timer_sch_schedule
                0x00039cc4       0x64 examples/dfu/CMakeFiles/dfu_no_serial_nrf52832_xxAA_s132_6.0.0.dir/__/__/mesh/core/src/timer_scheduler.c.obj
                0x00039cc4                timer_sch_schedule
 .text.timer_sch_abort
                0x00039d28       0x5c examples/dfu/CMakeFiles/dfu_no_serial_nrf52832_xxAA_s132_6.0.0.dir/__/__/mesh/core/src/timer_scheduler.c.obj
                0x00039d28                timer_sch_abort
 .text.timer_sch_reschedule
                0x00039d84       0x88 examples/dfu/CMakeFiles/dfu_no_serial_nrf52832_xxAA_s132_6.0.0.dir/__/__/mesh/core/src/timer_scheduler.c.obj
                0x00039d84                timer_sch_reschedule
 .text.timer_event_handler
                0x00039e0c       0xd0 examples/dfu/CMakeFiles/dfu_no_serial_nrf52832_xxAA_s132_6.0.0.dir/__/__/mesh/core/src/timer.c.obj
                0x00039e0c                timer_event_handler
 .text.timer_order_cb
                0x00039edc       0x98 examples/dfu/CMakeFiles/dfu_no_serial_nrf52832_xxAA_s132_6.0.0.dir/__/__/mesh/core/src/timer.c.obj
                0x00039edc                timer_order_cb
 .text.timer_now
                0x00039f74       0x58 examples/dfu/CMakeFiles/dfu_no_serial_nrf52832_xxAA_s132_6.0.0.dir/__/__/mesh/core/src/timer.c.obj
                0x00039f74                timer_now
 .text.timer_on_ts_begin
                0x00039fcc      0x104 examples/dfu/CMakeFiles/dfu_no_serial_nrf52832_xxAA_s132_6.0.0.dir/__/__/mesh/core/src/timer.c.obj
                0x00039fcc                timer_on_ts_begin
 .text.timer_on_ts_end
                0x0003a0d0       0x78 examples/dfu/CMakeFiles/dfu_no_serial_nrf52832_xxAA_s132_6.0.0.dir/__/__/mesh/core/src/timer.c.obj
                0x0003a0d0                timer_on_ts_end
 .text.timer_cb
                0x0003a148       0x10 examples/dfu/CMakeFiles/dfu_no_serial_nrf52832_xxAA_s132_6.0.0.dir/__/__/mesh/core/src/ticker.c.obj
 .text.ticker_init
                0x0003a158       0x3c examples/dfu/CMakeFiles/dfu_no_serial_nrf52832_xxAA_s132_6.0.0.dir/__/__/mesh/core/src/ticker.c.obj
                0x0003a158                ticker_init
 .text.sd_rand_application_bytes_available_get
                0x0003a194        0x4 examples/dfu/CMakeFiles/dfu_no_serial_nrf52832_xxAA_s132_6.0.0.dir/__/__/mesh/core/src/rand.c.obj
 .text.sd_rand_application_vector_get
                0x0003a198        0x4 examples/dfu/CMakeFiles/dfu_no_serial_nrf52832_xxAA_s132_6.0.0.dir/__/__/mesh/core/src/rand.c.obj
 .text.rand_prng_seed
                0x0003a19c       0x6c examples/dfu/CMakeFiles/dfu_no_serial_nrf52832_xxAA_s132_6.0.0.dir/__/__/mesh/core/src/rand.c.obj
                0x0003a19c                rand_prng_seed
 .text.rand_prng_get
                0x0003a208       0x28 examples/dfu/CMakeFiles/dfu_no_serial_nrf52832_xxAA_s132_6.0.0.dir/__/__/mesh/core/src/rand.c.obj
                0x0003a208                rand_prng_get
 .text.rand_hw_rng_get
                0x0003a230       0x4c examples/dfu/CMakeFiles/dfu_no_serial_nrf52832_xxAA_s132_6.0.0.dir/__/__/mesh/core/src/rand.c.obj
                0x0003a230                rand_hw_rng_get
 .text.nrf_mesh_opt_set
                0x0003a27c       0x28 examples/dfu/CMakeFiles/dfu_no_serial_nrf52832_xxAA_s132_6.0.0.dir/__/__/mesh/core/src/nrf_mesh_opt.c.obj
                0x0003a27c                nrf_mesh_opt_set
 .text.nrf_mesh_opt_get
                0x0003a2a4       0x28 examples/dfu/CMakeFiles/dfu_no_serial_nrf52832_xxAA_s132_6.0.0.dir/__/__/mesh/core/src/nrf_mesh_opt.c.obj
                0x0003a2a4                nrf_mesh_opt_get
 .text.sd_radio_session_open
                0x0003a2cc        0x4 examples/dfu/CMakeFiles/dfu_no_serial_nrf52832_xxAA_s132_6.0.0.dir/__/__/mesh/core/src/timeslot.c.obj
 .text.sd_radio_session_close
                0x0003a2d0        0x4 examples/dfu/CMakeFiles/dfu_no_serial_nrf52832_xxAA_s132_6.0.0.dir/__/__/mesh/core/src/timeslot.c.obj
 .text.sd_radio_request
                0x0003a2d4        0x4 examples/dfu/CMakeFiles/dfu_no_serial_nrf52832_xxAA_s132_6.0.0.dir/__/__/mesh/core/src/timeslot.c.obj
 .text.end_timer_handler
                0x0003a2d8       0x2c examples/dfu/CMakeFiles/dfu_no_serial_nrf52832_xxAA_s132_6.0.0.dir/__/__/mesh/core/src/timeslot.c.obj
 .text.radio_signal_callback
                0x0003a304      0x2e4 examples/dfu/CMakeFiles/dfu_no_serial_nrf52832_xxAA_s132_6.0.0.dir/__/__/mesh/core/src/timeslot.c.obj
 .text.timeslot_sd_event_handler
                0x0003a5e8       0x44 examples/dfu/CMakeFiles/dfu_no_serial_nrf52832_xxAA_s132_6.0.0.dir/__/__/mesh/core/src/timeslot.c.obj
                0x0003a5e8                timeslot_sd_event_handler
 .text.timeslot_init
                0x0003a62c       0x4c examples/dfu/CMakeFiles/dfu_no_serial_nrf52832_xxAA_s132_6.0.0.dir/__/__/mesh/core/src/timeslot.c.obj
                0x0003a62c                timeslot_init
 .text.timeslot_start
                0x0003a678       0x20 examples/dfu/CMakeFiles/dfu_no_serial_nrf52832_xxAA_s132_6.0.0.dir/__/__/mesh/core/src/timeslot.c.obj
                0x0003a678                timeslot_start
 .text.timeslot_stop
                0x0003a698       0x30 examples/dfu/CMakeFiles/dfu_no_serial_nrf52832_xxAA_s132_6.0.0.dir/__/__/mesh/core/src/timeslot.c.obj
                0x0003a698                timeslot_stop
 .text.timeslot_state_lock
                0x0003a6c8       0x44 examples/dfu/CMakeFiles/dfu_no_serial_nrf52832_xxAA_s132_6.0.0.dir/__/__/mesh/core/src/timeslot.c.obj
                0x0003a6c8                timeslot_state_lock
 .text.timeslot_end_is_pending
                0x0003a70c       0x24 examples/dfu/CMakeFiles/dfu_no_serial_nrf52832_xxAA_s132_6.0.0.dir/__/__/mesh/core/src/timeslot.c.obj
                0x0003a70c                timeslot_end_is_pending
 .text.timeslot_start_time_get
                0x0003a730        0xc examples/dfu/CMakeFiles/dfu_no_serial_nrf52832_xxAA_s132_6.0.0.dir/__/__/mesh/core/src/timeslot.c.obj
                0x0003a730                timeslot_start_time_get
 .text.timeslot_remaining_time_get
                0x0003a73c       0x40 examples/dfu/CMakeFiles/dfu_no_serial_nrf52832_xxAA_s132_6.0.0.dir/__/__/mesh/core/src/timeslot.c.obj
                0x0003a73c                timeslot_remaining_time_get
 .text.timeslot_is_in_cb
                0x0003a77c        0xc examples/dfu/CMakeFiles/dfu_no_serial_nrf52832_xxAA_s132_6.0.0.dir/__/__/mesh/core/src/timeslot.c.obj
                0x0003a77c                timeslot_is_in_cb
 .text.timeslot_trigger
                0x0003a788       0x24 examples/dfu/CMakeFiles/dfu_no_serial_nrf52832_xxAA_s132_6.0.0.dir/__/__/mesh/core/src/timeslot.c.obj
                0x0003a788                timeslot_trigger
 .text.bearer_event_init
                0x0003a7ac       0x4c examples/dfu/CMakeFiles/dfu_no_serial_nrf52832_xxAA_s132_6.0.0.dir/__/__/mesh/core/src/bearer_event.c.obj
                0x0003a7ac                bearer_event_init
 .text.bearer_event_timer_post
                0x0003a7f8       0x50 examples/dfu/CMakeFiles/dfu_no_serial_nrf52832_xxAA_s132_6.0.0.dir/__/__/mesh/core/src/bearer_event.c.obj
                0x0003a7f8                bearer_event_timer_post
 .text.bearer_event_critical_section_begin
                0x0003a848       0x44 examples/dfu/CMakeFiles/dfu_no_serial_nrf52832_xxAA_s132_6.0.0.dir/__/__/mesh/core/src/bearer_event.c.obj
                0x0003a848                bearer_event_critical_section_begin
 .text.bearer_event_critical_section_end
                0x0003a88c       0x40 examples/dfu/CMakeFiles/dfu_no_serial_nrf52832_xxAA_s132_6.0.0.dir/__/__/mesh/core/src/bearer_event.c.obj
                0x0003a88c                bearer_event_critical_section_end
 .text.bearer_event_flag_add
                0x0003a8cc       0x40 examples/dfu/CMakeFiles/dfu_no_serial_nrf52832_xxAA_s132_6.0.0.dir/__/__/mesh/core/src/bearer_event.c.obj
                0x0003a8cc                bearer_event_flag_add
 .text.bearer_event_flag_set
                0x0003a90c       0x5c examples/dfu/CMakeFiles/dfu_no_serial_nrf52832_xxAA_s132_6.0.0.dir/__/__/mesh/core/src/bearer_event.c.obj
                0x0003a90c                bearer_event_flag_set
 .text.bearer_event_sequential_add
                0x0003a968       0x44 examples/dfu/CMakeFiles/dfu_no_serial_nrf52832_xxAA_s132_6.0.0.dir/__/__/mesh/core/src/bearer_event.c.obj
                0x0003a968                bearer_event_sequential_add
 .text.bearer_event_sequential_post
                0x0003a9ac       0x64 examples/dfu/CMakeFiles/dfu_no_serial_nrf52832_xxAA_s132_6.0.0.dir/__/__/mesh/core/src/bearer_event.c.obj
                0x0003a9ac                bearer_event_sequential_post
 .text.bearer_event_sequential_pending
                0x0003aa10       0x14 examples/dfu/CMakeFiles/dfu_no_serial_nrf52832_xxAA_s132_6.0.0.dir/__/__/mesh/core/src/bearer_event.c.obj
                0x0003aa10                bearer_event_sequential_pending
 .text.bearer_event_handler
                0x0003aa24      0x154 examples/dfu/CMakeFiles/dfu_no_serial_nrf52832_xxAA_s132_6.0.0.dir/__/__/mesh/core/src/bearer_event.c.obj
                0x0003aa24                bearer_event_handler
 .text.QDEC_IRQHandler
                0x0003ab78        0x4 examples/dfu/CMakeFiles/dfu_no_serial_nrf52832_xxAA_s132_6.0.0.dir/__/__/mesh/core/src/bearer_event.c.obj
                0x0003ab78                QDEC_IRQHandler
 .text.enc_aes_encrypt
                0x0003ab7c        0x4 examples/dfu/CMakeFiles/dfu_no_serial_nrf52832_xxAA_s132_6.0.0.dir/__/__/mesh/core/src/enc.c.obj
                0x0003ab7c                enc_aes_encrypt
 .text.enc_aes_cmac
                0x0003ab80        0x4 examples/dfu/CMakeFiles/dfu_no_serial_nrf52832_xxAA_s132_6.0.0.dir/__/__/mesh/core/src/enc.c.obj
                0x0003ab80                enc_aes_cmac
 .text.enc_aes_ccm_encrypt
                0x0003ab84        0x4 examples/dfu/CMakeFiles/dfu_no_serial_nrf52832_xxAA_s132_6.0.0.dir/__/__/mesh/core/src/enc.c.obj
                0x0003ab84                enc_aes_ccm_encrypt
 .text.enc_aes_ccm_decrypt
                0x0003ab88        0x4 examples/dfu/CMakeFiles/dfu_no_serial_nrf52832_xxAA_s132_6.0.0.dir/__/__/mesh/core/src/enc.c.obj
                0x0003ab88                enc_aes_ccm_decrypt
 .text.enc_nonce_generate
                0x0003ab8c       0xc8 examples/dfu/CMakeFiles/dfu_no_serial_nrf52832_xxAA_s132_6.0.0.dir/__/__/mesh/core/src/enc.c.obj
                0x0003ab8c                enc_nonce_generate
 .text.enc_s1   0x0003ac54       0x30 examples/dfu/CMakeFiles/dfu_no_serial_nrf52832_xxAA_s132_6.0.0.dir/__/__/mesh/core/src/enc.c.obj
                0x0003ac54                enc_s1
 .text.enc_k1   0x0003ac84       0x44 examples/dfu/CMakeFiles/dfu_no_serial_nrf52832_xxAA_s132_6.0.0.dir/__/__/mesh/core/src/enc.c.obj
                0x0003ac84                enc_k1
 .text.enc_k2   0x0003acc8       0xe0 examples/dfu/CMakeFiles/dfu_no_serial_nrf52832_xxAA_s132_6.0.0.dir/__/__/mesh/core/src/enc.c.obj
                0x0003acc8                enc_k2
 .text.enc_k3   0x0003ada8       0x68 examples/dfu/CMakeFiles/dfu_no_serial_nrf52832_xxAA_s132_6.0.0.dir/__/__/mesh/core/src/enc.c.obj
                0x0003ada8                enc_k3
 .text.enc_k4   0x0003ae10       0x60 examples/dfu/CMakeFiles/dfu_no_serial_nrf52832_xxAA_s132_6.0.0.dir/__/__/mesh/core/src/enc.c.obj
                0x0003ae10                enc_k4
 .text.network_init
                0x0003ae70       0x28 examples/dfu/CMakeFiles/dfu_no_serial_nrf52832_xxAA_s132_6.0.0.dir/__/__/mesh/core/src/network.c.obj
                0x0003ae70                network_init
 .text.network_opt_set
                0x0003ae98       0x84 examples/dfu/CMakeFiles/dfu_no_serial_nrf52832_xxAA_s132_6.0.0.dir/__/__/mesh/core/src/network.c.obj
                0x0003ae98                network_opt_set
 .text.network_opt_get
                0x0003af1c       0x5c examples/dfu/CMakeFiles/dfu_no_serial_nrf52832_xxAA_s132_6.0.0.dir/__/__/mesh/core/src/network.c.obj
                0x0003af1c                network_opt_get
 .text.network_packet_alloc
                0x0003af78       0x98 examples/dfu/CMakeFiles/dfu_no_serial_nrf52832_xxAA_s132_6.0.0.dir/__/__/mesh/core/src/network.c.obj
                0x0003af78                network_packet_alloc
 .text.network_packet_send
                0x0003b010       0x50 examples/dfu/CMakeFiles/dfu_no_serial_nrf52832_xxAA_s132_6.0.0.dir/__/__/mesh/core/src/network.c.obj
                0x0003b010                network_packet_send
 .text.network_packet_in
                0x0003b060      0x1c4 examples/dfu/CMakeFiles/dfu_no_serial_nrf52832_xxAA_s132_6.0.0.dir/__/__/mesh/core/src/network.c.obj
                0x0003b060                network_packet_in
 .text.net_packet_decrypt
                0x0003b224      0x2dc examples/dfu/CMakeFiles/dfu_no_serial_nrf52832_xxAA_s132_6.0.0.dir/__/__/mesh/core/src/net_packet.c.obj
                0x0003b224                net_packet_decrypt
 .text.net_packet_encrypt
                0x0003b500      0x100 examples/dfu/CMakeFiles/dfu_no_serial_nrf52832_xxAA_s132_6.0.0.dir/__/__/mesh/core/src/net_packet.c.obj
                0x0003b500                net_packet_encrypt
 .text.net_packet_header_set
                0x0003b600       0xc0 examples/dfu/CMakeFiles/dfu_no_serial_nrf52832_xxAA_s132_6.0.0.dir/__/__/mesh/core/src/net_packet.c.obj
                0x0003b600                net_packet_header_set
 .text.net_packet_payload_len_get
                0x0003b6c0       0x14 examples/dfu/CMakeFiles/dfu_no_serial_nrf52832_xxAA_s132_6.0.0.dir/__/__/mesh/core/src/net_packet.c.obj
                0x0003b6c0                net_packet_payload_len_get
 .text.net_packet_from_payload
                0x0003b6d4        0x4 examples/dfu/CMakeFiles/dfu_no_serial_nrf52832_xxAA_s132_6.0.0.dir/__/__/mesh/core/src/net_packet.c.obj
                0x0003b6d4                net_packet_from_payload
 .text.net_packet_obfuscation_start_get
                0x0003b6d8        0x4 examples/dfu/CMakeFiles/dfu_no_serial_nrf52832_xxAA_s132_6.0.0.dir/__/__/mesh/core/src/net_packet.c.obj
                0x0003b6d8                net_packet_obfuscation_start_get
 .text.msq_init
                0x0003b6dc       0x64 examples/dfu/CMakeFiles/dfu_no_serial_nrf52832_xxAA_s132_6.0.0.dir/__/__/mesh/core/src/msqueue.c.obj
                0x0003b6dc                msq_init
 .text.msq_get  0x0003b740       0x54 examples/dfu/CMakeFiles/dfu_no_serial_nrf52832_xxAA_s132_6.0.0.dir/__/__/mesh/core/src/msqueue.c.obj
                0x0003b740                msq_get
 .text.msq_move
                0x0003b794       0x4c examples/dfu/CMakeFiles/dfu_no_serial_nrf52832_xxAA_s132_6.0.0.dir/__/__/mesh/core/src/msqueue.c.obj
                0x0003b794                msq_move
 .text.msq_available
                0x0003b7e0       0x44 examples/dfu/CMakeFiles/dfu_no_serial_nrf52832_xxAA_s132_6.0.0.dir/__/__/mesh/core/src/msqueue.c.obj
                0x0003b7e0                msq_available
 .text.nrf_mesh_keygen_aid
                0x0003b824       0x18 examples/dfu/CMakeFiles/dfu_no_serial_nrf52832_xxAA_s132_6.0.0.dir/__/__/mesh/core/src/nrf_mesh_keygen.c.obj
                0x0003b824                nrf_mesh_keygen_aid
 .text.nrf_mesh_keygen_network_secmat
                0x0003b83c       0x24 examples/dfu/CMakeFiles/dfu_no_serial_nrf52832_xxAA_s132_6.0.0.dir/__/__/mesh/core/src/nrf_mesh_keygen.c.obj
                0x0003b83c                nrf_mesh_keygen_network_secmat
 .text.nrf_mesh_keygen_beacon_secmat
                0x0003b860       0x50 examples/dfu/CMakeFiles/dfu_no_serial_nrf52832_xxAA_s132_6.0.0.dir/__/__/mesh/core/src/nrf_mesh_keygen.c.obj
                0x0003b860                nrf_mesh_keygen_beacon_secmat
 .text.nrf_mesh_keygen_virtual_address
                0x0003b8b0       0x50 examples/dfu/CMakeFiles/dfu_no_serial_nrf52832_xxAA_s132_6.0.0.dir/__/__/mesh/core/src/nrf_mesh_keygen.c.obj
                0x0003b8b0                nrf_mesh_keygen_virtual_address
 .text.list_add
                0x0003b900       0x5c examples/dfu/CMakeFiles/dfu_no_serial_nrf52832_xxAA_s132_6.0.0.dir/__/__/mesh/core/src/list.c.obj
                0x0003b900                list_add
 .text.list_remove
                0x0003b95c       0x44 examples/dfu/CMakeFiles/dfu_no_serial_nrf52832_xxAA_s132_6.0.0.dir/__/__/mesh/core/src/list.c.obj
                0x0003b95c                list_remove
 .text.list_compare_add
                0x0003b9a0       0x78 examples/dfu/CMakeFiles/dfu_no_serial_nrf52832_xxAA_s132_6.0.0.dir/__/__/mesh/core/src/list.c.obj
                0x0003b9a0                list_compare_add
 .text.log_callback_rtt
                0x0003ba18       0x2c examples/dfu/CMakeFiles/dfu_no_serial_nrf52832_xxAA_s132_6.0.0.dir/__/__/mesh/core/src/log.c.obj
                0x0003ba18                log_callback_rtt
 .text.log_init
                0x0003ba44       0x20 examples/dfu/CMakeFiles/dfu_no_serial_nrf52832_xxAA_s132_6.0.0.dir/__/__/mesh/core/src/log.c.obj
                0x0003ba44                log_init
 .text.log_printf
                0x0003ba64       0x20 examples/dfu/CMakeFiles/dfu_no_serial_nrf52832_xxAA_s132_6.0.0.dir/__/__/mesh/core/src/log.c.obj
                0x0003ba64                log_printf
 .text.process_action_queue
                0x0003ba84      0x644 examples/dfu/CMakeFiles/dfu_no_serial_nrf52832_xxAA_s132_6.0.0.dir/__/__/mesh/core/src/flash_manager.c.obj
 .text.flash_op_ended_callback
                0x0003c0c8       0x24 examples/dfu/CMakeFiles/dfu_no_serial_nrf52832_xxAA_s132_6.0.0.dir/__/__/mesh/core/src/flash_manager.c.obj
 .text.flash_manager_init
                0x0003c0ec       0x68 examples/dfu/CMakeFiles/dfu_no_serial_nrf52832_xxAA_s132_6.0.0.dir/__/__/mesh/core/src/flash_manager.c.obj
                0x0003c0ec                flash_manager_init
 .text.flash_manager_remove
                0x0003c154       0x6c examples/dfu/CMakeFiles/dfu_no_serial_nrf52832_xxAA_s132_6.0.0.dir/__/__/mesh/core/src/flash_manager.c.obj
                0x0003c154                flash_manager_remove
 .text.flash_manager_entry_get
                0x0003c1c0       0x48 examples/dfu/CMakeFiles/dfu_no_serial_nrf52832_xxAA_s132_6.0.0.dir/__/__/mesh/core/src/flash_manager.c.obj
                0x0003c1c0                flash_manager_entry_get
 .text.flash_manager_entry_next_get
                0x0003c208      0x148 examples/dfu/CMakeFiles/dfu_no_serial_nrf52832_xxAA_s132_6.0.0.dir/__/__/mesh/core/src/flash_manager.c.obj
                0x0003c208                flash_manager_entry_next_get
 .text.flash_manager_entry_alloc
                0x0003c350       0x88 examples/dfu/CMakeFiles/dfu_no_serial_nrf52832_xxAA_s132_6.0.0.dir/__/__/mesh/core/src/flash_manager.c.obj
                0x0003c350                flash_manager_entry_alloc
 .text.flash_manager_entry_commit
                0x0003c3d8       0x58 examples/dfu/CMakeFiles/dfu_no_serial_nrf52832_xxAA_s132_6.0.0.dir/__/__/mesh/core/src/flash_manager.c.obj
                0x0003c3d8                flash_manager_entry_commit
 .text.flash_manager_entry_invalidate
                0x0003c430       0x98 examples/dfu/CMakeFiles/dfu_no_serial_nrf52832_xxAA_s132_6.0.0.dir/__/__/mesh/core/src/flash_manager.c.obj
                0x0003c430                flash_manager_entry_invalidate
 .text.flash_manager_add
                0x0003c4c8      0x410 examples/dfu/CMakeFiles/dfu_no_serial_nrf52832_xxAA_s132_6.0.0.dir/__/__/mesh/core/src/flash_manager.c.obj
                0x0003c4c8                flash_manager_add
 .text.flash_manager_mem_listener_register
                0x0003c8d8       0x34 examples/dfu/CMakeFiles/dfu_no_serial_nrf52832_xxAA_s132_6.0.0.dir/__/__/mesh/core/src/flash_manager.c.obj
                0x0003c8d8                flash_manager_mem_listener_register
 .text.flash_manager_is_stable
                0x0003c90c       0x20 examples/dfu/CMakeFiles/dfu_no_serial_nrf52832_xxAA_s132_6.0.0.dir/__/__/mesh/core/src/flash_manager.c.obj
                0x0003c90c                flash_manager_is_stable
 .text.flash_manager_on_defrag_end
                0x0003c92c       0x58 examples/dfu/CMakeFiles/dfu_no_serial_nrf52832_xxAA_s132_6.0.0.dir/__/__/mesh/core/src/flash_manager.c.obj
                0x0003c92c                flash_manager_on_defrag_end
 .text.flash_manager_recovery_page_get
                0x0003c984        0x4 examples/dfu/CMakeFiles/dfu_no_serial_nrf52832_xxAA_s132_6.0.0.dir/__/__/mesh/core/src/flash_manager.c.obj
                0x0003c984                flash_manager_recovery_page_get
 .text.flash_manager_action_queue_empty_cb_set
                0x0003c988       0x20 examples/dfu/CMakeFiles/dfu_no_serial_nrf52832_xxAA_s132_6.0.0.dir/__/__/mesh/core/src/flash_manager.c.obj
                0x0003c988                flash_manager_action_queue_empty_cb_set
 .text.ccm_soft_crypt.constprop.0
                0x0003c9a8      0x298 examples/dfu/CMakeFiles/dfu_no_serial_nrf52832_xxAA_s132_6.0.0.dir/__/__/mesh/core/src/ccm_soft.c.obj
 .text.ccm_soft_authenticate
                0x0003cc40      0x324 examples/dfu/CMakeFiles/dfu_no_serial_nrf52832_xxAA_s132_6.0.0.dir/__/__/mesh/core/src/ccm_soft.c.obj
 .text.ccm_soft_encrypt
                0x0003cf64       0x78 examples/dfu/CMakeFiles/dfu_no_serial_nrf52832_xxAA_s132_6.0.0.dir/__/__/mesh/core/src/ccm_soft.c.obj
                0x0003cf64                ccm_soft_encrypt
 .text.ccm_soft_decrypt
                0x0003cfdc      0x10c examples/dfu/CMakeFiles/dfu_no_serial_nrf52832_xxAA_s132_6.0.0.dir/__/__/mesh/core/src/ccm_soft.c.obj
                0x0003cfdc                ccm_soft_decrypt
 .text.replay_cache_init
                0x0003d0e8       0x20 examples/dfu/CMakeFiles/dfu_no_serial_nrf52832_xxAA_s132_6.0.0.dir/__/__/mesh/core/src/replay_cache.c.obj
                0x0003d0e8                replay_cache_init
 .text.replay_cache_add
                0x0003d108       0x5c examples/dfu/CMakeFiles/dfu_no_serial_nrf52832_xxAA_s132_6.0.0.dir/__/__/mesh/core/src/replay_cache.c.obj
                0x0003d108                replay_cache_add
 .text.replay_cache_has_elem
                0x0003d164       0x40 examples/dfu/CMakeFiles/dfu_no_serial_nrf52832_xxAA_s132_6.0.0.dir/__/__/mesh/core/src/replay_cache.c.obj
                0x0003d164                replay_cache_has_elem
 .text.beacon_create
                0x0003d1a4       0x50 examples/dfu/CMakeFiles/dfu_no_serial_nrf52832_xxAA_s132_6.0.0.dir/__/__/mesh/core/src/beacon.c.obj
                0x0003d1a4                beacon_create
 .text.beacon_packet_in
                0x0003d1f4      0x174 examples/dfu/CMakeFiles/dfu_no_serial_nrf52832_xxAA_s132_6.0.0.dir/__/__/mesh/core/src/beacon.c.obj
                0x0003d1f4                beacon_packet_in
 .text.entry_get
                0x0003d368       0x80 examples/dfu/CMakeFiles/dfu_no_serial_nrf52832_xxAA_s132_6.0.0.dir/__/__/mesh/core/src/flash_manager_internal.c.obj
                0x0003d368                entry_get
 .text.core_tx_complete_cb_set
                0x0003d3e8        0xc examples/dfu/CMakeFiles/dfu_no_serial_nrf52832_xxAA_s132_6.0.0.dir/__/__/mesh/core/src/core_tx.c.obj
                0x0003d3e8                core_tx_complete_cb_set
 .text.core_tx_packet_alloc
                0x0003d3f4       0xb4 examples/dfu/CMakeFiles/dfu_no_serial_nrf52832_xxAA_s132_6.0.0.dir/__/__/mesh/core/src/core_tx.c.obj
                0x0003d3f4                core_tx_packet_alloc
 .text.core_tx_packet_send
                0x0003d4a8       0x58 examples/dfu/CMakeFiles/dfu_no_serial_nrf52832_xxAA_s132_6.0.0.dir/__/__/mesh/core/src/core_tx.c.obj
                0x0003d4a8                core_tx_packet_send
 .text.core_tx_packet_discard
                0x0003d500       0x4c examples/dfu/CMakeFiles/dfu_no_serial_nrf52832_xxAA_s132_6.0.0.dir/__/__/mesh/core/src/core_tx.c.obj
                0x0003d500                core_tx_packet_discard
 .text.core_tx_complete
                0x0003d54c       0x38 examples/dfu/CMakeFiles/dfu_no_serial_nrf52832_xxAA_s132_6.0.0.dir/__/__/mesh/core/src/core_tx.c.obj
                0x0003d54c                core_tx_complete
 .text.core_tx_bearer_add
                0x0003d584       0x84 examples/dfu/CMakeFiles/dfu_no_serial_nrf52832_xxAA_s132_6.0.0.dir/__/__/mesh/core/src/core_tx.c.obj
                0x0003d584                core_tx_bearer_add
 .text.heartbeat_subscription_timer_cb
                0x0003d608       0x1c examples/dfu/CMakeFiles/dfu_no_serial_nrf52832_xxAA_s132_6.0.0.dir/__/__/mesh/core/src/heartbeat.c.obj
 .text.heartbeat_opcode_handle
                0x0003d624       0x8c examples/dfu/CMakeFiles/dfu_no_serial_nrf52832_xxAA_s132_6.0.0.dir/__/__/mesh/core/src/heartbeat.c.obj
 .text.heartbeat_send
                0x0003d6b0       0xbc examples/dfu/CMakeFiles/dfu_no_serial_nrf52832_xxAA_s132_6.0.0.dir/__/__/mesh/core/src/heartbeat.c.obj
 .text.heartbeat_core_evt_cb
                0x0003d76c       0x94 examples/dfu/CMakeFiles/dfu_no_serial_nrf52832_xxAA_s132_6.0.0.dir/__/__/mesh/core/src/heartbeat.c.obj
 .text.heartbeat_publication_timer_cb
                0x0003d800       0xb0 examples/dfu/CMakeFiles/dfu_no_serial_nrf52832_xxAA_s132_6.0.0.dir/__/__/mesh/core/src/heartbeat.c.obj
 .text.heartbeat_on_feature_change_trigger
                0x0003d8b0       0x48 examples/dfu/CMakeFiles/dfu_no_serial_nrf52832_xxAA_s132_6.0.0.dir/__/__/mesh/core/src/heartbeat.c.obj
                0x0003d8b0                heartbeat_on_feature_change_trigger
 .text.heartbeat_init
                0x0003d8f8       0x7c examples/dfu/CMakeFiles/dfu_no_serial_nrf52832_xxAA_s132_6.0.0.dir/__/__/mesh/core/src/heartbeat.c.obj
                0x0003d8f8                heartbeat_init
 .text.heartbeat_subscription_set
                0x0003d974       0xa4 examples/dfu/CMakeFiles/dfu_no_serial_nrf52832_xxAA_s132_6.0.0.dir/__/__/mesh/core/src/heartbeat.c.obj
                0x0003d974                heartbeat_subscription_set
 .text.heartbeat_subscription_get
                0x0003da18        0x8 examples/dfu/CMakeFiles/dfu_no_serial_nrf52832_xxAA_s132_6.0.0.dir/__/__/mesh/core/src/heartbeat.c.obj
                0x0003da18                heartbeat_subscription_get
 .text.heartbeat_config_server_cb_set
                0x0003da20       0x38 examples/dfu/CMakeFiles/dfu_no_serial_nrf52832_xxAA_s132_6.0.0.dir/__/__/mesh/core/src/heartbeat.c.obj
                0x0003da20                heartbeat_config_server_cb_set
 .text.heartbeat_publication_state_updated
                0x0003da58       0x78 examples/dfu/CMakeFiles/dfu_no_serial_nrf52832_xxAA_s132_6.0.0.dir/__/__/mesh/core/src/heartbeat.c.obj
                0x0003da58                heartbeat_publication_state_updated
 .text.beacon_tx
                0x0003dad0      0x194 examples/dfu/CMakeFiles/dfu_no_serial_nrf52832_xxAA_s132_6.0.0.dir/__/__/mesh/core/src/net_beacon.c.obj
 .text.tx_complete_cb
                0x0003dc64       0x10 examples/dfu/CMakeFiles/dfu_no_serial_nrf52832_xxAA_s132_6.0.0.dir/__/__/mesh/core/src/net_beacon.c.obj
 .text.beacon_tx_timeout
                0x0003dc74        0x4 examples/dfu/CMakeFiles/dfu_no_serial_nrf52832_xxAA_s132_6.0.0.dir/__/__/mesh/core/src/net_beacon.c.obj
 .text.net_beacon_init
                0x0003dc78       0x94 examples/dfu/CMakeFiles/dfu_no_serial_nrf52832_xxAA_s132_6.0.0.dir/__/__/mesh/core/src/net_beacon.c.obj
                0x0003dc78                net_beacon_init
 .text.net_beacon_state_set
                0x0003dd0c       0x3c examples/dfu/CMakeFiles/dfu_no_serial_nrf52832_xxAA_s132_6.0.0.dir/__/__/mesh/core/src/net_beacon.c.obj
                0x0003dd0c                net_beacon_state_set
 .text.net_beacon_state_get
                0x0003dd48        0xc examples/dfu/CMakeFiles/dfu_no_serial_nrf52832_xxAA_s132_6.0.0.dir/__/__/mesh/core/src/net_beacon.c.obj
                0x0003dd48                net_beacon_state_get
 .text.net_beacon_packet_in
                0x0003dd54      0x14c examples/dfu/CMakeFiles/dfu_no_serial_nrf52832_xxAA_s132_6.0.0.dir/__/__/mesh/core/src/net_beacon.c.obj
                0x0003dd54                net_beacon_packet_in
 .text.packet_discard
                0x0003dea0       0x40 examples/dfu/CMakeFiles/dfu_no_serial_nrf52832_xxAA_s132_6.0.0.dir/__/__/mesh/core/src/core_tx_adv.c.obj
 .text.packet_send
                0x0003dee0       0x58 examples/dfu/CMakeFiles/dfu_no_serial_nrf52832_xxAA_s132_6.0.0.dir/__/__/mesh/core/src/core_tx_adv.c.obj
 .text.packet_alloc
                0x0003df38       0x5c examples/dfu/CMakeFiles/dfu_no_serial_nrf52832_xxAA_s132_6.0.0.dir/__/__/mesh/core/src/core_tx_adv.c.obj
 .text.adv_tx_complete_callback
                0x0003df94       0x28 examples/dfu/CMakeFiles/dfu_no_serial_nrf52832_xxAA_s132_6.0.0.dir/__/__/mesh/core/src/core_tx_adv.c.obj
 .text.core_tx_adv_init
                0x0003dfbc       0x60 examples/dfu/CMakeFiles/dfu_no_serial_nrf52832_xxAA_s132_6.0.0.dir/__/__/mesh/core/src/core_tx_adv.c.obj
                0x0003dfbc                core_tx_adv_init
 .text.core_tx_adv_count_set
                0x0003e01c       0x28 examples/dfu/CMakeFiles/dfu_no_serial_nrf52832_xxAA_s132_6.0.0.dir/__/__/mesh/core/src/core_tx_adv.c.obj
                0x0003e01c                core_tx_adv_count_set
 .text.core_tx_adv_count_get
                0x0003e044       0x20 examples/dfu/CMakeFiles/dfu_no_serial_nrf52832_xxAA_s132_6.0.0.dir/__/__/mesh/core/src/core_tx_adv.c.obj
                0x0003e044                core_tx_adv_count_get
 .text.core_tx_adv_interval_set
                0x0003e064       0x28 examples/dfu/CMakeFiles/dfu_no_serial_nrf52832_xxAA_s132_6.0.0.dir/__/__/mesh/core/src/core_tx_adv.c.obj
                0x0003e064                core_tx_adv_interval_set
 .text.core_tx_adv_interval_get
                0x0003e08c       0x2c examples/dfu/CMakeFiles/dfu_no_serial_nrf52832_xxAA_s132_6.0.0.dir/__/__/mesh/core/src/core_tx_adv.c.obj
                0x0003e08c                core_tx_adv_interval_get
 .text.ad_listener_subscribe
                0x0003e0b8       0x60 examples/dfu/CMakeFiles/dfu_no_serial_nrf52832_xxAA_s132_6.0.0.dir/__/__/mesh/bearer/src/ad_listener.c.obj
                0x0003e0b8                ad_listener_subscribe
 .text.ad_listener_process
                0x0003e118       0x7c examples/dfu/CMakeFiles/dfu_no_serial_nrf52832_xxAA_s132_6.0.0.dir/__/__/mesh/bearer/src/ad_listener.c.obj
                0x0003e118                ad_listener_process
 .text.adtype_filter_handle
                0x0003e194       0x98 examples/dfu/CMakeFiles/dfu_no_serial_nrf52832_xxAA_s132_6.0.0.dir/__/__/mesh/bearer/src/ad_type_filter.c.obj
 .text.bearer_adtype_filtering_set
                0x0003e22c       0x1c examples/dfu/CMakeFiles/dfu_no_serial_nrf52832_xxAA_s132_6.0.0.dir/__/__/mesh/bearer/src/ad_type_filter.c.obj
                0x0003e22c                bearer_adtype_filtering_set
 .text.bearer_adtype_add
                0x0003e248       0x24 examples/dfu/CMakeFiles/dfu_no_serial_nrf52832_xxAA_s132_6.0.0.dir/__/__/mesh/bearer/src/ad_type_filter.c.obj
                0x0003e248                bearer_adtype_add
 .text.bearer_adtype_mode_set
                0x0003e26c       0x18 examples/dfu/CMakeFiles/dfu_no_serial_nrf52832_xxAA_s132_6.0.0.dir/__/__/mesh/bearer/src/ad_type_filter.c.obj
                0x0003e26c                bearer_adtype_mode_set
 .text.tx_complete_event_callback
                0x0003e284       0x2c examples/dfu/CMakeFiles/dfu_no_serial_nrf52832_xxAA_s132_6.0.0.dir/__/__/mesh/bearer/src/advertiser.c.obj
 .text.broadcast_complete_cb
                0x0003e2b0       0x48 examples/dfu/CMakeFiles/dfu_no_serial_nrf52832_xxAA_s132_6.0.0.dir/__/__/mesh/bearer/src/advertiser.c.obj
 .text.timeout_event
                0x0003e2f8      0x120 examples/dfu/CMakeFiles/dfu_no_serial_nrf52832_xxAA_s132_6.0.0.dir/__/__/mesh/bearer/src/advertiser.c.obj
 .text.advertiser_init
                0x0003e418        0xc examples/dfu/CMakeFiles/dfu_no_serial_nrf52832_xxAA_s132_6.0.0.dir/__/__/mesh/bearer/src/advertiser.c.obj
                0x0003e418                advertiser_init
 .text.advertiser_instance_init
                0x0003e424       0xfc examples/dfu/CMakeFiles/dfu_no_serial_nrf52832_xxAA_s132_6.0.0.dir/__/__/mesh/bearer/src/advertiser.c.obj
                0x0003e424                advertiser_instance_init
 .text.advertiser_enable
                0x0003e520       0x44 examples/dfu/CMakeFiles/dfu_no_serial_nrf52832_xxAA_s132_6.0.0.dir/__/__/mesh/bearer/src/advertiser.c.obj
                0x0003e520                advertiser_enable
 .text.advertiser_packet_alloc
                0x0003e564       0x80 examples/dfu/CMakeFiles/dfu_no_serial_nrf52832_xxAA_s132_6.0.0.dir/__/__/mesh/bearer/src/advertiser.c.obj
                0x0003e564                advertiser_packet_alloc
 .text.advertiser_packet_send
                0x0003e5e4       0x80 examples/dfu/CMakeFiles/dfu_no_serial_nrf52832_xxAA_s132_6.0.0.dir/__/__/mesh/bearer/src/advertiser.c.obj
                0x0003e5e4                advertiser_packet_send
 .text.advertiser_packet_discard
                0x0003e664       0x2c examples/dfu/CMakeFiles/dfu_no_serial_nrf52832_xxAA_s132_6.0.0.dir/__/__/mesh/bearer/src/advertiser.c.obj
                0x0003e664                advertiser_packet_discard
 .text.advertiser_interval_set
                0x0003e690       0x70 examples/dfu/CMakeFiles/dfu_no_serial_nrf52832_xxAA_s132_6.0.0.dir/__/__/mesh/bearer/src/advertiser.c.obj
                0x0003e690                advertiser_interval_set
 .text.advertiser_flush
                0x0003e700       0x20 examples/dfu/CMakeFiles/dfu_no_serial_nrf52832_xxAA_s132_6.0.0.dir/__/__/mesh/bearer/src/advertiser.c.obj
                0x0003e700                advertiser_flush
 .text.advertiser_address_default_get
                0x0003e720       0x5c examples/dfu/CMakeFiles/dfu_no_serial_nrf52832_xxAA_s132_6.0.0.dir/__/__/mesh/bearer/src/advertiser.c.obj
                0x0003e720                advertiser_address_default_get
 .text.action_switch.part.2
                0x0003e77c       0xb4 examples/dfu/CMakeFiles/dfu_no_serial_nrf52832_xxAA_s132_6.0.0.dir/__/__/mesh/bearer/src/bearer_handler.c.obj
 .text.bearer_handler_init
                0x0003e830       0x2c examples/dfu/CMakeFiles/dfu_no_serial_nrf52832_xxAA_s132_6.0.0.dir/__/__/mesh/bearer/src/bearer_handler.c.obj
                0x0003e830                bearer_handler_init
 .text.bearer_handler_start
                0x0003e85c       0x1c examples/dfu/CMakeFiles/dfu_no_serial_nrf52832_xxAA_s132_6.0.0.dir/__/__/mesh/bearer/src/bearer_handler.c.obj
                0x0003e85c                bearer_handler_start
 .text.bearer_handler_action_enqueue
                0x0003e878       0x7c examples/dfu/CMakeFiles/dfu_no_serial_nrf52832_xxAA_s132_6.0.0.dir/__/__/mesh/bearer/src/bearer_handler.c.obj
                0x0003e878                bearer_handler_action_enqueue
 .text.bearer_handler_action_end
                0x0003e8f4       0x68 examples/dfu/CMakeFiles/dfu_no_serial_nrf52832_xxAA_s132_6.0.0.dir/__/__/mesh/bearer/src/bearer_handler.c.obj
                0x0003e8f4                bearer_handler_action_end
 .text.bearer_handler_radio_irq_handler
                0x0003e95c       0x54 examples/dfu/CMakeFiles/dfu_no_serial_nrf52832_xxAA_s132_6.0.0.dir/__/__/mesh/bearer/src/bearer_handler.c.obj
                0x0003e95c                bearer_handler_radio_irq_handler
 .text.bearer_handler_timer_irq_handler
                0x0003e9b0       0x34 examples/dfu/CMakeFiles/dfu_no_serial_nrf52832_xxAA_s132_6.0.0.dir/__/__/mesh/bearer/src/bearer_handler.c.obj
                0x0003e9b0                bearer_handler_timer_irq_handler
 .text.bearer_handler_on_ts_begin
                0x0003e9e4       0x3c examples/dfu/CMakeFiles/dfu_no_serial_nrf52832_xxAA_s132_6.0.0.dir/__/__/mesh/bearer/src/bearer_handler.c.obj
                0x0003e9e4                bearer_handler_on_ts_begin
 .text.bearer_handler_on_ts_end
                0x0003ea20       0x34 examples/dfu/CMakeFiles/dfu_no_serial_nrf52832_xxAA_s132_6.0.0.dir/__/__/mesh/bearer/src/bearer_handler.c.obj
                0x0003ea20                bearer_handler_on_ts_end
 .text.radio_irq_handler
                0x0003ea54       0x98 examples/dfu/CMakeFiles/dfu_no_serial_nrf52832_xxAA_s132_6.0.0.dir/__/__/mesh/bearer/src/broadcast.c.obj
 .text.broadcast_start
                0x0003eaec       0x8c examples/dfu/CMakeFiles/dfu_no_serial_nrf52832_xxAA_s132_6.0.0.dir/__/__/mesh/bearer/src/broadcast.c.obj
 .text.broadcast_send
                0x0003eb78       0x74 examples/dfu/CMakeFiles/dfu_no_serial_nrf52832_xxAA_s132_6.0.0.dir/__/__/mesh/bearer/src/broadcast.c.obj
                0x0003eb78                broadcast_send
 .text.fen_filter_start
                0x0003ebec       0x38 examples/dfu/CMakeFiles/dfu_no_serial_nrf52832_xxAA_s132_6.0.0.dir/__/__/mesh/bearer/src/filter_engine.c.obj
                0x0003ebec                fen_filter_start
 .text.fen_filter_stop
                0x0003ec24       0x2c examples/dfu/CMakeFiles/dfu_no_serial_nrf52832_xxAA_s132_6.0.0.dir/__/__/mesh/bearer/src/filter_engine.c.obj
                0x0003ec24                fen_filter_stop
 .text.fen_filters_apply
                0x0003ec50       0x38 examples/dfu/CMakeFiles/dfu_no_serial_nrf52832_xxAA_s132_6.0.0.dir/__/__/mesh/bearer/src/filter_engine.c.obj
                0x0003ec50                fen_filters_apply
 .text.radio_config_reset
                0x0003ec88       0x38 examples/dfu/CMakeFiles/dfu_no_serial_nrf52832_xxAA_s132_6.0.0.dir/__/__/mesh/bearer/src/radio_config.c.obj
                0x0003ec88                radio_config_reset
 .text.radio_config_channel_set
                0x0003ecc0       0x28 examples/dfu/CMakeFiles/dfu_no_serial_nrf52832_xxAA_s132_6.0.0.dir/__/__/mesh/bearer/src/radio_config.c.obj
                0x0003ecc0                radio_config_channel_set
 .text.radio_config_config
                0x0003ece8       0x90 examples/dfu/CMakeFiles/dfu_no_serial_nrf52832_xxAA_s132_6.0.0.dir/__/__/mesh/bearer/src/radio_config.c.obj
                0x0003ece8                radio_config_config
 .text.radio_config_access_addr_set
                0x0003ed78       0x54 examples/dfu/CMakeFiles/dfu_no_serial_nrf52832_xxAA_s132_6.0.0.dir/__/__/mesh/bearer/src/radio_config.c.obj
                0x0003ed78                radio_config_access_addr_set
 .text.scan_window_end
                0x0003edcc       0x28 examples/dfu/CMakeFiles/dfu_no_serial_nrf52832_xxAA_s132_6.0.0.dir/__/__/mesh/bearer/src/scanner.c.obj
 .text.scan_window_start
                0x0003edf4       0x38 examples/dfu/CMakeFiles/dfu_no_serial_nrf52832_xxAA_s132_6.0.0.dir/__/__/mesh/bearer/src/scanner.c.obj
 .text.radio_start
                0x0003ee2c      0x188 examples/dfu/CMakeFiles/dfu_no_serial_nrf52832_xxAA_s132_6.0.0.dir/__/__/mesh/bearer/src/scanner.c.obj
 .text.scanner_radio_start
                0x0003efb4      0x14c examples/dfu/CMakeFiles/dfu_no_serial_nrf52832_xxAA_s132_6.0.0.dir/__/__/mesh/bearer/src/scanner.c.obj
                0x0003efb4                scanner_radio_start
 .text.scanner_radio_stop
                0x0003f100       0x34 examples/dfu/CMakeFiles/dfu_no_serial_nrf52832_xxAA_s132_6.0.0.dir/__/__/mesh/bearer/src/scanner.c.obj
                0x0003f100                scanner_radio_stop
 .text.scanner_radio_irq_handler
                0x0003f134      0x204 examples/dfu/CMakeFiles/dfu_no_serial_nrf52832_xxAA_s132_6.0.0.dir/__/__/mesh/bearer/src/scanner.c.obj
                0x0003f134                scanner_radio_irq_handler
 .text.scanner_enable
                0x0003f338       0x54 examples/dfu/CMakeFiles/dfu_no_serial_nrf52832_xxAA_s132_6.0.0.dir/__/__/mesh/bearer/src/scanner.c.obj
                0x0003f338                scanner_enable
 .text.scanner_rx
                0x0003f38c       0x78 examples/dfu/CMakeFiles/dfu_no_serial_nrf52832_xxAA_s132_6.0.0.dir/__/__/mesh/bearer/src/scanner.c.obj
                0x0003f38c                scanner_rx
 .text.scanner_packet_release
                0x0003f404       0x40 examples/dfu/CMakeFiles/dfu_no_serial_nrf52832_xxAA_s132_6.0.0.dir/__/__/mesh/bearer/src/scanner.c.obj
                0x0003f404                scanner_packet_release
 .text.scanner_rx_pending
                0x0003f444        0xc examples/dfu/CMakeFiles/dfu_no_serial_nrf52832_xxAA_s132_6.0.0.dir/__/__/mesh/bearer/src/scanner.c.obj
                0x0003f444                scanner_rx_pending
 .text.scanner_config_reset
                0x0003f450       0xa8 examples/dfu/CMakeFiles/dfu_no_serial_nrf52832_xxAA_s132_6.0.0.dir/__/__/mesh/bearer/src/scanner.c.obj
                0x0003f450                scanner_config_reset
 .text.scanner_init
                0x0003f4f8       0x54 examples/dfu/CMakeFiles/dfu_no_serial_nrf52832_xxAA_s132_6.0.0.dir/__/__/mesh/bearer/src/scanner.c.obj
                0x0003f4f8                scanner_init
 .text.SystemInit
                0x0003f54c      0x3cc examples/dfu/CMakeFiles/dfu_no_serial_nrf52832_xxAA_s132_6.0.0.dir/C_/b/nRF5_SDK_15.0.0_a53641a/modules/nrfx/mdk/system_nrf52.c.obj
                0x0003f54c                SystemInit
 .text          0x0003f918       0x3c examples/dfu/CMakeFiles/dfu_no_serial_nrf52832_xxAA_s132_6.0.0.dir/C_/b/nRF5_SDK_15.0.0_a53641a/modules/nrfx/mdk/gcc_startup_nrf52.S.obj
                0x0003f918                Reset_Handler
                0x0003f940                NMI_Handler
                0x0003f942                HardFault_Handler
                0x0003f944                MemoryManagement_Handler
                0x0003f946                BusFault_Handler
                0x0003f948                UsageFault_Handler
                0x0003f94a                SVC_Handler
                0x0003f94c                DebugMon_Handler
                0x0003f94e                PendSV_Handler
                0x0003f950                SysTick_Handler
                0x0003f952                RADIO_IRQHandler
                0x0003f952                PDM_IRQHandler
                0x0003f952                TEMP_IRQHandler
                0x0003f952                TIMER3_IRQHandler
                0x0003f952                FPU_IRQHandler
                0x0003f952                RTC0_IRQHandler
                0x0003f952                PWM1_IRQHandler
                0x0003f952                UARTE0_UART0_IRQHandler
                0x0003f952                POWER_CLOCK_IRQHandler
                0x0003f952                I2S_IRQHandler
                0x0003f952                SWI4_EGU4_IRQHandler
                0x0003f952                TIMER0_IRQHandler
                0x0003f952                SPIM0_SPIS0_TWIM0_TWIS0_SPI0_TWI0_IRQHandler
                0x0003f952                TIMER1_IRQHandler
                0x0003f952                PWM2_IRQHandler
                0x0003f952                ECB_IRQHandler
                0x0003f952                SPIM1_SPIS1_TWIM1_TWIS1_SPI1_TWI1_IRQHandler
                0x0003f952                Default_Handler
                0x0003f952                SAADC_IRQHandler
                0x0003f952                CCM_AAR_IRQHandler
                0x0003f952                WDT_IRQHandler
                0x0003f952                TIMER4_IRQHandler
                0x0003f952                SWI5_EGU5_IRQHandler
                0x0003f952                RNG_IRQHandler
                0x0003f952                RTC2_IRQHandler
                0x0003f952                PWM0_IRQHandler
                0x0003f952                SWI3_EGU3_IRQHandler
                0x0003f952                RTC1_IRQHandler
                0x0003f952                SWI1_EGU1_IRQHandler
                0x0003f952                SPIM2_SPIS2_SPI2_IRQHandler
                0x0003f952                NFCT_IRQHandler
                0x0003f952                SWI0_EGU0_IRQHandler
                0x0003f952                MWU_IRQHandler
                0x0003f952                TIMER2_IRQHandler
                0x0003f952                COMP_LPCOMP_IRQHandler
 .text.app_error_handler_bare
                0x0003f954       0x20 examples/dfu/CMakeFiles/dfu_no_serial_nrf52832_xxAA_s132_6.0.0.dir/C_/b/nRF5_SDK_15.0.0_a53641a/components/libraries/util/app_error.c.obj
                0x0003f954                app_error_handler_bare
 .text.app_error_handler
                0x0003f974       0x1c examples/dfu/CMakeFiles/dfu_no_serial_nrf52832_xxAA_s132_6.0.0.dir/C_/b/nRF5_SDK_15.0.0_a53641a/components/libraries/util/app_error_handler_gcc.c.obj
                0x0003f974                app_error_handler
 .text.SEGGER_RTT_Write
                0x0003f990      0x1e4 external/rtt/librtt_nrf52832_xxAA.a(SEGGER_RTT.c.obj)
                0x0003f990                SEGGER_RTT_Write
 .text._PrintUnsigned
                0x0003fb74      0x194 external/rtt/librtt_nrf52832_xxAA.a(SEGGER_RTT_printf.c.obj)
 .text.SEGGER_RTT_vprintf
                0x0003fd08      0x464 external/rtt/librtt_nrf52832_xxAA.a(SEGGER_RTT_printf.c.obj)
                0x0003fd08                SEGGER_RTT_vprintf
 .text.SEGGER_RTT_printf
                0x0004016c       0x20 external/rtt/librtt_nrf52832_xxAA.a(SEGGER_RTT_printf.c.obj)
                0x0004016c                SEGGER_RTT_printf
 .text.default_RNG
                0x0004018c        0xc external/micro-ecc/libuECC_nrf52832_xxAA.a(uECC.c.obj)
 .text.uECC_generate_random_int
                0x00040198      0x170 external/micro-ecc/libuECC_nrf52832_xxAA.a(uECC.c.obj)
 .text.apply_z  0x00040308      0x1a8 external/micro-ecc/libuECC_nrf52832_xxAA.a(uECC.c.obj)
 .text.uECC_vli_modAdd
                0x000404b0       0xc8 external/micro-ecc/libuECC_nrf52832_xxAA.a(uECC.c.obj)
 .text.x_side_default
                0x00040578      0x254 external/micro-ecc/libuECC_nrf52832_xxAA.a(uECC.c.obj)
 .text.vli_mmod_fast_secp256r1
                0x000407cc      0x520 external/micro-ecc/libuECC_nrf52832_xxAA.a(uECC.c.obj)
 .text.XYcZ_add
                0x00040cec      0x6dc external/micro-ecc/libuECC_nrf52832_xxAA.a(uECC.c.obj)
 .text.XYcZ_addC
                0x000413c8      0xa94 external/micro-ecc/libuECC_nrf52832_xxAA.a(uECC.c.obj)
 .text.uECC_vli_modInv.part.4
                0x00041e5c      0x6e8 external/micro-ecc/libuECC_nrf52832_xxAA.a(uECC.c.obj)
 .text.EccPoint_mult.constprop.5
                0x00042544      0x470 external/micro-ecc/libuECC_nrf52832_xxAA.a(uECC.c.obj)
 .text.double_jacobian_default
                0x000429b4      0x7ec external/micro-ecc/libuECC_nrf52832_xxAA.a(uECC.c.obj)
 .text.uECC_secp256r1
                0x000431a0        0x8 external/micro-ecc/libuECC_nrf52832_xxAA.a(uECC.c.obj)
                0x000431a0                uECC_secp256r1
 .text.uECC_make_key
                0x000431a8      0x23c external/micro-ecc/libuECC_nrf52832_xxAA.a(uECC.c.obj)
                0x000431a8                uECC_make_key
 .text.uECC_shared_secret
                0x000433e4      0x788 external/micro-ecc/libuECC_nrf52832_xxAA.a(uECC.c.obj)
                0x000433e4                uECC_shared_secret
 .text.uECC_valid_point
                0x00043b6c      0x134 external/micro-ecc/libuECC_nrf52832_xxAA.a(uECC.c.obj)
                0x00043b6c                uECC_valid_point
 .text.uECC_valid_public_key
                0x00043ca0       0xe8 external/micro-ecc/libuECC_nrf52832_xxAA.a(uECC.c.obj)
                0x00043ca0                uECC_valid_public_key
 .text.exit     0x00043d88       0x28 c:/mesh/arm_gcc/bin/../lib/gcc/arm-none-eabi/6.3.1/../../../../arm-none-eabi/lib/thumb/v7e-m/fpv4-sp/hard\libc_nano.a(lib_a-exit.o)
                0x00043d88                exit
 .text.__libc_init_array
                0x00043db0       0x48 c:/mesh/arm_gcc/bin/../lib/gcc/arm-none-eabi/6.3.1/../../../../arm-none-eabi/lib/thumb/v7e-m/fpv4-sp/hard\libc_nano.a(lib_a-init.o)
                0x00043db0                __libc_init_array
 .text.malloc   0x00043df8       0x10 c:/mesh/arm_gcc/bin/../lib/gcc/arm-none-eabi/6.3.1/../../../../arm-none-eabi/lib/thumb/v7e-m/fpv4-sp/hard\libc_nano.a(lib_a-malloc.o)
                0x00043df8                malloc
 .text.free     0x00043e08       0x10 c:/mesh/arm_gcc/bin/../lib/gcc/arm-none-eabi/6.3.1/../../../../arm-none-eabi/lib/thumb/v7e-m/fpv4-sp/hard\libc_nano.a(lib_a-malloc.o)
                0x00043e08                free
 .text.memcmp   0x00043e18       0x1e c:/mesh/arm_gcc/bin/../lib/gcc/arm-none-eabi/6.3.1/../../../../arm-none-eabi/lib/thumb/v7e-m/fpv4-sp/hard\libc_nano.a(lib_a-memcmp.o)
                0x00043e18                memcmp
 .text.memcpy   0x00043e36       0x16 c:/mesh/arm_gcc/bin/../lib/gcc/arm-none-eabi/6.3.1/../../../../arm-none-eabi/lib/thumb/v7e-m/fpv4-sp/hard\libc_nano.a(lib_a-memcpy-stub.o)
                0x00043e36                memcpy
 .text.memset   0x00043e4c       0x10 c:/mesh/arm_gcc/bin/../lib/gcc/arm-none-eabi/6.3.1/../../../../arm-none-eabi/lib/thumb/v7e-m/fpv4-sp/hard\libc_nano.a(lib_a-memset.o)
                0x00043e4c                memset
 .text._free_r  0x00043e5c       0x9c c:/mesh/arm_gcc/bin/../lib/gcc/arm-none-eabi/6.3.1/../../../../arm-none-eabi/lib/thumb/v7e-m/fpv4-sp/hard\libc_nano.a(lib_a-nano-freer.o)
                0x00043e5c                _free_r
 .text._malloc_r
                0x00043ef8       0xbc c:/mesh/arm_gcc/bin/../lib/gcc/arm-none-eabi/6.3.1/../../../../arm-none-eabi/lib/thumb/v7e-m/fpv4-sp/hard\libc_nano.a(lib_a-nano-mallocr.o)
                0x00043ef8                _malloc_r
 .text._sbrk_r  0x00043fb4       0x20 c:/mesh/arm_gcc/bin/../lib/gcc/arm-none-eabi/6.3.1/../../../../arm-none-eabi/lib/thumb/v7e-m/fpv4-sp/hard\libc_nano.a(lib_a-sbrkr.o)
                0x00043fb4                _sbrk_r
 .text.strcpy   0x00043fd4       0x10 c:/mesh/arm_gcc/bin/../lib/gcc/arm-none-eabi/6.3.1/../../../../arm-none-eabi/lib/thumb/v7e-m/fpv4-sp/hard\libc_nano.a(lib_a-strcpy.o)
                0x00043fd4                strcpy
 .text          0x00043fe4       0x10 c:/mesh/arm_gcc/bin/../lib/gcc/arm-none-eabi/6.3.1/../../../../arm-none-eabi/lib/thumb/v7e-m/fpv4-sp/hard\libc_nano.a(lib_a-strlen.o)
                0x00043fe4                strlen
 .text.strrchr  0x00043ff4       0x26 c:/mesh/arm_gcc/bin/../lib/gcc/arm-none-eabi/6.3.1/../../../../arm-none-eabi/lib/thumb/v7e-m/fpv4-sp/hard\libc_nano.a(lib_a-strrchr.o)
                0x00043ff4                strrchr
 .text.__malloc_lock
                0x0004401a        0x2 c:/mesh/arm_gcc/bin/../lib/gcc/arm-none-eabi/6.3.1/../../../../arm-none-eabi/lib/thumb/v7e-m/fpv4-sp/hard\libc_nano.a(lib_a-mlock.o)
                0x0004401a                __malloc_lock
 .text.__malloc_unlock
                0x0004401c        0x2 c:/mesh/arm_gcc/bin/../lib/gcc/arm-none-eabi/6.3.1/../../../../arm-none-eabi/lib/thumb/v7e-m/fpv4-sp/hard\libc_nano.a(lib_a-mlock.o)
                0x0004401c                __malloc_unlock
 .text.strchr   0x0004401e       0x1c c:/mesh/arm_gcc/bin/../lib/gcc/arm-none-eabi/6.3.1/../../../../arm-none-eabi/lib/thumb/v7e-m/fpv4-sp/hard\libc_nano.a(lib_a-strchr.o)
                0x0004401e                strchr
 *fill*         0x0004403a        0x2 
 .text._sbrk    0x0004403c       0x1c c:/mesh/arm_gcc/bin/../lib/gcc/arm-none-eabi/6.3.1/../../../../arm-none-eabi/lib/thumb/v7e-m/fpv4-sp/hard\libnosys.a(sbrk.o)
                0x0004403c                _sbrk
 .text._exit    0x00044058        0x4 c:/mesh/arm_gcc/bin/../lib/gcc/arm-none-eabi/6.3.1/../../../../arm-none-eabi/lib/thumb/v7e-m/fpv4-sp/hard\libnosys.a(_exit.o)
                0x00044058                _exit
 *(.init)
 .init          0x0004405c        0x4 c:/mesh/arm_gcc/bin/../lib/gcc/arm-none-eabi/6.3.1/thumb/v7e-m/fpv4-sp/hard/crti.o
                0x0004405c                _init
 .init          0x00044060        0x8 c:/mesh/arm_gcc/bin/../lib/gcc/arm-none-eabi/6.3.1/thumb/v7e-m/fpv4-sp/hard/crtn.o
 *(.fini)
 .fini          0x00044068        0x4 c:/mesh/arm_gcc/bin/../lib/gcc/arm-none-eabi/6.3.1/thumb/v7e-m/fpv4-sp/hard/crti.o
                0x00044068                _fini
 .fini          0x0004406c        0x8 c:/mesh/arm_gcc/bin/../lib/gcc/arm-none-eabi/6.3.1/thumb/v7e-m/fpv4-sp/hard/crtn.o
 *crtbegin.o(.ctors)
 *crtbegin?.o(.ctors)
 *(EXCLUDE_FILE(*crtend.o *crtend?.o) .ctors)
 *(SORT(.ctors.*))
 *(.ctors)
 *crtbegin.o(.dtors)
 *crtbegin?.o(.dtors)
 *(EXCLUDE_FILE(*crtend.o *crtend?.o) .dtors)
 *(SORT(.dtors.*))
 *(.dtors)
 *(.rodata*)
 .rodata.config_server_evt_cb.str1.4
                0x00044074       0x35 examples/dfu/CMakeFiles/dfu_no_serial_nrf52832_xxAA_s132_6.0.0.dir/src/main.c.obj
 *fill*         0x000440a9        0x3 
 .rodata.main.str1.4
                0x000440ac       0x9a examples/dfu/CMakeFiles/dfu_no_serial_nrf52832_xxAA_s132_6.0.0.dir/src/main.c.obj
 *fill*         0x00044146        0x2 
 .rodata.static_auth_data.12554
                0x00044148       0x10 examples/dfu/CMakeFiles/dfu_no_serial_nrf52832_xxAA_s132_6.0.0.dir/src/main.c.obj
 .rodata.mesh_softdevice_init.str1.4
                0x00044158       0xa9 examples/dfu/CMakeFiles/dfu_no_serial_nrf52832_xxAA_s132_6.0.0.dir/__/common/src/mesh_softdevice_init.c.obj
 *fill*         0x00044201        0x3 
 .rodata        0x00044204        0xb examples/dfu/CMakeFiles/dfu_no_serial_nrf52832_xxAA_s132_6.0.0.dir/__/common/src/mesh_provisionee.c.obj
 *fill*         0x0004420f        0x1 
 .rodata.delay_bytecode.8414
                0x00044210        0x6 examples/dfu/CMakeFiles/dfu_no_serial_nrf52832_xxAA_s132_6.0.0.dir/__/common/src/simple_hal.c.obj
 *fill*         0x00044216        0x2 
 .rodata.access_model_publish.str1.4
                0x00044218       0x24 examples/dfu/CMakeFiles/dfu_no_serial_nrf52832_xxAA_s132_6.0.0.dir/__/__/mesh/access/src/access.c.obj
 .rodata.mesh_evt_cb.str1.4
                0x0004423c       0x2f examples/dfu/CMakeFiles/dfu_no_serial_nrf52832_xxAA_s132_6.0.0.dir/__/__/mesh/access/src/access.c.obj
 *fill*         0x0004426b        0x1 
 .rodata.multiply_de_bruijn_bit_position.9260
                0x0004426c       0x20 examples/dfu/CMakeFiles/dfu_no_serial_nrf52832_xxAA_s132_6.0.0.dir/__/__/mesh/access/src/access.c.obj
 .rodata.m_flash_groups
                0x0004428c       0xa8 examples/dfu/CMakeFiles/dfu_no_serial_nrf52832_xxAA_s132_6.0.0.dir/__/__/mesh/access/src/device_state_manager.c.obj
 .rodata.multiply_de_bruijn_bit_position.9366
                0x00044334       0x20 examples/dfu/CMakeFiles/dfu_no_serial_nrf52832_xxAA_s132_6.0.0.dir/__/__/mesh/access/src/device_state_manager.c.obj
 .rodata        0x00044354        0x8 examples/dfu/CMakeFiles/dfu_no_serial_nrf52832_xxAA_s132_6.0.0.dir/__/__/models/config/src/config_server.c.obj
 .rodata.CSWTCH.121
                0x0004435c       0x10 examples/dfu/CMakeFiles/dfu_no_serial_nrf52832_xxAA_s132_6.0.0.dir/__/__/models/config/src/config_server.c.obj
 .rodata.opcode_handlers
                0x0004436c      0x170 examples/dfu/CMakeFiles/dfu_no_serial_nrf52832_xxAA_s132_6.0.0.dir/__/__/models/config/src/config_server.c.obj
 .rodata.m_opcode_handlers
                0x000444dc       0x58 examples/dfu/CMakeFiles/dfu_no_serial_nrf52832_xxAA_s132_6.0.0.dir/__/__/models/health/src/health_server.c.obj
 .rodata.multiply_de_bruijn_bit_position.9304
                0x00044534       0x20 examples/dfu/CMakeFiles/dfu_no_serial_nrf52832_xxAA_s132_6.0.0.dir/__/__/models/health/src/health_server.c.obj
 .rodata.m_prov_callbacks
                0x00044554       0x10 examples/dfu/CMakeFiles/dfu_no_serial_nrf52832_xxAA_s132_6.0.0.dir/__/__/mesh/prov/src/prov_provisionee.c.obj
 .rodata.prov_provisionee_cb_ack_received.str1.4
                0x00044564       0x53 examples/dfu/CMakeFiles/dfu_no_serial_nrf52832_xxAA_s132_6.0.0.dir/__/__/mesh/prov/src/prov_provisionee.c.obj
 *fill*         0x000445b7        0x1 
 .rodata.multiply_de_bruijn_bit_position.9313
                0x000445b8       0x20 examples/dfu/CMakeFiles/dfu_no_serial_nrf52832_xxAA_s132_6.0.0.dir/__/__/mesh/prov/src/nrf_mesh_prov.c.obj
 .rodata.pdu_sizes.11238
                0x000445d8        0xa examples/dfu/CMakeFiles/dfu_no_serial_nrf52832_xxAA_s132_6.0.0.dir/__/__/mesh/prov/src/provisioning.c.obj
 *fill*         0x000445e2        0x2 
 .rodata.alphanumeric.11343
                0x000445e4       0x25 examples/dfu/CMakeFiles/dfu_no_serial_nrf52832_xxAA_s132_6.0.0.dir/__/__/mesh/prov/src/prov_utils.c.obj
 *fill*         0x00044609        0x3 
 .rodata.numeric_max.11337
                0x0004460c       0x24 examples/dfu/CMakeFiles/dfu_no_serial_nrf52832_xxAA_s132_6.0.0.dir/__/__/mesh/prov/src/prov_utils.c.obj
 .rodata.prov_utils_authentication_values_derive.str1.4
                0x00044630        0x5 examples/dfu/CMakeFiles/dfu_no_serial_nrf52832_xxAA_s132_6.0.0.dir/__/__/mesh/prov/src/prov_utils.c.obj
 *fill*         0x00044635        0x3 
 .rodata.prov_utils_derive_keys.str1.4
                0x00044638       0x15 examples/dfu/CMakeFiles/dfu_no_serial_nrf52832_xxAA_s132_6.0.0.dir/__/__/mesh/prov/src/prov_utils.c.obj
 *fill*         0x0004464d        0x3 
 .rodata.crctable.10972
                0x00044650      0x100 examples/dfu/CMakeFiles/dfu_no_serial_nrf52832_xxAA_s132_6.0.0.dir/__/__/mesh/prov/src/prov_bearer_adv.c.obj
 .rodata.interface.11202
                0x00044750       0x14 examples/dfu/CMakeFiles/dfu_no_serial_nrf52832_xxAA_s132_6.0.0.dir/__/__/mesh/prov/src/prov_bearer_adv.c.obj
 .rodata.prov_bearer_adv_listen.str1.4
                0x00044764       0x50 examples/dfu/CMakeFiles/dfu_no_serial_nrf52832_xxAA_s132_6.0.0.dir/__/__/mesh/prov/src/prov_bearer_adv.c.obj
 .rodata.prov_bearer_adv_packet_in.str1.4
                0x000447b4      0x283 examples/dfu/CMakeFiles/dfu_no_serial_nrf52832_xxAA_s132_6.0.0.dir/__/__/mesh/prov/src/prov_bearer_adv.c.obj
 *fill*         0x00044a37        0x1 
 .rodata.tx_retry_cb.str1.4
                0x00044a38       0x14 examples/dfu/CMakeFiles/dfu_no_serial_nrf52832_xxAA_s132_6.0.0.dir/__/__/mesh/prov/src/prov_bearer_adv.c.obj
 .rodata.abort_timeout.str1.4
                0x00044a4c       0x54 examples/dfu/CMakeFiles/dfu_no_serial_nrf52832_xxAA_s132_6.0.0.dir/__/__/mesh/dfu/src/nrf_mesh_dfu.c.obj
 .rodata.dfu_evt_handler.str1.4
                0x00044aa0      0x174 examples/dfu/CMakeFiles/dfu_no_serial_nrf52832_xxAA_s132_6.0.0.dir/__/__/mesh/dfu/src/nrf_mesh_dfu.c.obj
 .rodata.flash_op_complete.str1.4
                0x00044c14       0x3d examples/dfu/CMakeFiles/dfu_no_serial_nrf52832_xxAA_s132_6.0.0.dir/__/__/mesh/dfu/src/nrf_mesh_dfu.c.obj
 *fill*         0x00044c51        0x3 
 .rodata.m_adv_channels
                0x00044c54        0x3 examples/dfu/CMakeFiles/dfu_no_serial_nrf52832_xxAA_s132_6.0.0.dir/__/__/mesh/dfu/src/nrf_mesh_dfu.c.obj
 *fill*         0x00044c57        0x1 
 .rodata.timer_timeout.str1.4
                0x00044c58       0x13 examples/dfu/CMakeFiles/dfu_no_serial_nrf52832_xxAA_s132_6.0.0.dir/__/__/mesh/dfu/src/nrf_mesh_dfu.c.obj
 *fill*         0x00044c6b        0x1 
 .rodata.app_error_fault_handler.str1.4
                0x00044c6c       0xc5 examples/dfu/CMakeFiles/dfu_no_serial_nrf52832_xxAA_s132_6.0.0.dir/__/common/src/app_error_weak.c.obj
 .rodata.mesh_assertion_handler.str1.4
                0x00044d31       0xc5 examples/dfu/CMakeFiles/dfu_no_serial_nrf52832_xxAA_s132_6.0.0.dir/__/common/src/assertion_handler_weak.c.obj
                                  0x1 (size before relaxing)
 *fill*         0x00044d31        0x3 
 .rodata.sar_ctx_cancel.str1.4
                0x00044d34       0x23 examples/dfu/CMakeFiles/dfu_no_serial_nrf52832_xxAA_s132_6.0.0.dir/__/__/mesh/core/src/transport.c.obj
 *fill*         0x00044d57        0x1 
 .rodata.transport_packet_in.str1.4
                0x00044d58       0x24 examples/dfu/CMakeFiles/dfu_no_serial_nrf52832_xxAA_s132_6.0.0.dir/__/__/mesh/core/src/transport.c.obj
 .rodata.upper_transport_access_packet_in.str1.4
                0x00044d7c       0x3d examples/dfu/CMakeFiles/dfu_no_serial_nrf52832_xxAA_s132_6.0.0.dir/__/__/mesh/core/src/transport.c.obj
 *fill*         0x00044db9        0x3 
 .rodata.upper_transport_packet_in.str1.4
                0x00044dbc       0x2e examples/dfu/CMakeFiles/dfu_no_serial_nrf52832_xxAA_s132_6.0.0.dir/__/__/mesh/core/src/transport.c.obj
 *fill*         0x00044dea        0x2 
 .rodata.upper_transport_tx.part.25.str1.4
                0x00044dec       0x2e examples/dfu/CMakeFiles/dfu_no_serial_nrf52832_xxAA_s132_6.0.0.dir/__/__/mesh/core/src/transport.c.obj
                                 0x38 (size before relaxing)
 *fill*         0x00044e1a        0x2 
 .rodata.m_procedure_steps
                0x00044e1c       0x28 examples/dfu/CMakeFiles/dfu_no_serial_nrf52832_xxAA_s132_6.0.0.dir/__/__/mesh/core/src/flash_manager_defrag.c.obj
 .rodata.m_all_operations
                0x00044e44       0x10 examples/dfu/CMakeFiles/dfu_no_serial_nrf52832_xxAA_s132_6.0.0.dir/__/__/mesh/core/src/mesh_flash.c.obj
 .rodata.types_lookup.9059
                0x00044e54        0x4 examples/dfu/CMakeFiles/dfu_no_serial_nrf52832_xxAA_s132_6.0.0.dir/__/__/mesh/core/src/nrf_mesh_utils.c.obj
 .rodata.__func__.11531
                0x00044e58       0x15 examples/dfu/CMakeFiles/dfu_no_serial_nrf52832_xxAA_s132_6.0.0.dir/__/__/mesh/core/src/nrf_mesh.c.obj
 *fill*         0x00044e6d        0x3 
 .rodata.nrf_mesh_listen.str1.4
                0x00044e70       0x73 examples/dfu/CMakeFiles/dfu_no_serial_nrf52832_xxAA_s132_6.0.0.dir/__/__/mesh/core/src/nrf_mesh.c.obj
 .rodata.nrf_mesh_packet_send.str1.4
                0x00044ee3       0x73 examples/dfu/CMakeFiles/dfu_no_serial_nrf52832_xxAA_s132_6.0.0.dir/__/__/mesh/core/src/nrf_mesh.c.obj
                                  0x4 (size before relaxing)
 *fill*         0x00044ee3        0x1 
 .rodata.CSWTCH.8
                0x00044ee4       0x20 examples/dfu/CMakeFiles/dfu_no_serial_nrf52832_xxAA_s132_6.0.0.dir/__/__/mesh/core/src/hal.c.obj
 .rodata        0x00044f04       0x18 examples/dfu/CMakeFiles/dfu_no_serial_nrf52832_xxAA_s132_6.0.0.dir/__/__/mesh/core/src/enc.c.obj
 .rodata.network_packet_in.str1.4
                0x00044f1c       0x49 examples/dfu/CMakeFiles/dfu_no_serial_nrf52832_xxAA_s132_6.0.0.dir/__/__/mesh/core/src/network.c.obj
 *fill*         0x00044f65        0x3 
 .rodata.net_packet_decrypt.str1.4
                0x00044f68       0x33 examples/dfu/CMakeFiles/dfu_no_serial_nrf52832_xxAA_s132_6.0.0.dir/__/__/mesh/core/src/net_packet.c.obj
                                 0x3c (size before relaxing)
 *fill*         0x00044f9b        0x1 
 .rodata        0x00044f9c        0x7 examples/dfu/CMakeFiles/dfu_no_serial_nrf52832_xxAA_s132_6.0.0.dir/__/__/mesh/core/src/nrf_mesh_keygen.c.obj
 *fill*         0x00044fa3        0x1 
 .rodata.log_callback_rtt.str1.4
                0x00044fa4       0x15 examples/dfu/CMakeFiles/dfu_no_serial_nrf52832_xxAA_s132_6.0.0.dir/__/__/mesh/core/src/log.c.obj
 *fill*         0x00044fb9        0x3 
 .rodata.str1.4
                0x00044fbc       0x11 examples/dfu/CMakeFiles/dfu_no_serial_nrf52832_xxAA_s132_6.0.0.dir/__/__/mesh/core/src/log.c.obj
 *fill*         0x00044fcd        0x3 
 .rodata.INVALID_HEADER
                0x00044fd0        0x4 examples/dfu/CMakeFiles/dfu_no_serial_nrf52832_xxAA_s132_6.0.0.dir/__/__/mesh/core/src/flash_manager.c.obj
                0x00044fd0                INVALID_HEADER
 .rodata.PADDING_HEADER
                0x00044fd4        0x4 examples/dfu/CMakeFiles/dfu_no_serial_nrf52832_xxAA_s132_6.0.0.dir/__/__/mesh/core/src/flash_manager.c.obj
                0x00044fd4                PADDING_HEADER
 .rodata.SEAL_HEADER
                0x00044fd8        0x4 examples/dfu/CMakeFiles/dfu_no_serial_nrf52832_xxAA_s132_6.0.0.dir/__/__/mesh/core/src/flash_manager.c.obj
                0x00044fd8                SEAL_HEADER
 .rodata.beacon_packet_in.str1.4
                0x00044fdc       0x55 examples/dfu/CMakeFiles/dfu_no_serial_nrf52832_xxAA_s132_6.0.0.dir/__/__/mesh/core/src/beacon.c.obj
                                 0x60 (size before relaxing)
 *fill*         0x00045031        0x3 
 .rodata.cp_handler
                0x00045034        0x8 examples/dfu/CMakeFiles/dfu_no_serial_nrf52832_xxAA_s132_6.0.0.dir/__/__/mesh/core/src/heartbeat.c.obj
 .rodata.beacon_tx.str1.4
                0x0004503c       0x37 examples/dfu/CMakeFiles/dfu_no_serial_nrf52832_xxAA_s132_6.0.0.dir/__/__/mesh/core/src/net_beacon.c.obj
 *fill*         0x00045073        0x1 
 .rodata.net_beacon_init.str1.4
                0x00045074        0x5 examples/dfu/CMakeFiles/dfu_no_serial_nrf52832_xxAA_s132_6.0.0.dir/__/__/mesh/core/src/net_beacon.c.obj
 *fill*         0x00045079        0x3 
 .rodata.m_interface
                0x0004507c        0xc examples/dfu/CMakeFiles/dfu_no_serial_nrf52832_xxAA_s132_6.0.0.dir/__/__/mesh/core/src/core_tx_adv.c.obj
 .rodata.radio_mode_to_us_per_byte.9452
                0x00045088        0x6 examples/dfu/CMakeFiles/dfu_no_serial_nrf52832_xxAA_s132_6.0.0.dir/__/__/mesh/bearer/src/broadcast.c.obj
 *fill*         0x0004508e        0x2 
 .rodata.channel_rf_offsets.8693
                0x00045090       0x28 examples/dfu/CMakeFiles/dfu_no_serial_nrf52832_xxAA_s132_6.0.0.dir/__/__/mesh/bearer/src/radio_config.c.obj
 .rodata.SEGGER_RTT_ReadNoLock.str1.4
                0x000450b8       0x18 external/rtt/librtt_nrf52832_xxAA.a(SEGGER_RTT.c.obj)
                                 0x17 (size before relaxing)
 .rodata._aV2C.5497
                0x000450d0       0x10 external/rtt/librtt_nrf52832_xxAA.a(SEGGER_RTT_printf.c.obj)
 .rodata.curve_secp256r1
                0x000450e0       0xb0 external/micro-ecc/libuECC_nrf52832_xxAA.a(uECC.c.obj)
 .rodata._global_impure_ptr
                0x00045190        0x4 c:/mesh/arm_gcc/bin/../lib/gcc/arm-none-eabi/6.3.1/../../../../arm-none-eabi/lib/thumb/v7e-m/fpv4-sp/hard\libc_nano.a(lib_a-impure.o)
                0x00045190                _global_impure_ptr
 *(.eh_frame*)
 .eh_frame      0x00045194        0x0 c:/mesh/arm_gcc/bin/../lib/gcc/arm-none-eabi/6.3.1/thumb/v7e-m/fpv4-sp/hard/crtbegin.o
 .eh_frame      0x00045194        0x4 c:/mesh/arm_gcc/bin/../lib/gcc/arm-none-eabi/6.3.1/thumb/v7e-m/fpv4-sp/hard/crtend.o

.glue_7         0x00045198        0x0
 .glue_7        0x00045198        0x0 linker stubs

.glue_7t        0x00045198        0x0
 .glue_7t       0x00045198        0x0 linker stubs

.vfp11_veneer   0x00045198        0x0
 .vfp11_veneer  0x00045198        0x0 linker stubs

.v4_bx          0x00045198        0x0
 .v4_bx         0x00045198        0x0 linker stubs

.iplt           0x00045198        0x0
 .iplt          0x00045198        0x0 c:/mesh/arm_gcc/bin/../lib/gcc/arm-none-eabi/6.3.1/thumb/v7e-m/fpv4-sp/hard/crtbegin.o

.pwr_mgmt_data  0x00045198        0x0
                [!provide]                PROVIDE (__start_pwr_mgmt_data, .)
 *(SORT(.pwr_mgmt_data*))
                [!provide]                PROVIDE (__stop_pwr_mgmt_data, .)

.log_const_data
                0x00045198        0x0
                [!provide]                PROVIDE (__start_log_const_data, .)
 *(.log_const_data)
                [!provide]                PROVIDE (__stop_log_const_data, .)

.cli_command    0x00045198        0x0
                [!provide]                PROVIDE (__start_cli_command, .)
 *(.cli_command)
                [!provide]                PROVIDE (__stop_cli_command, .)

.sdh_stack_observers
                0x00045198        0x0
                [!provide]                PROVIDE (__start_sdh_stack_observers, .)
 *(SORT(.sdh_stack_observers*))
                [!provide]                PROVIDE (__stop_sdh_stack_observers, .)

.sdh_req_observers
                0x00045198        0x0
                [!provide]                PROVIDE (__start_sdh_req_observers, .)
 *(SORT(.sdh_req_observers*))
                [!provide]                PROVIDE (__stop_sdh_req_observers, .)

.sdh_state_observers
                0x00045198        0x0
                [!provide]                PROVIDE (__start_sdh_state_observers, .)
 *(SORT(.sdh_state_observers*))
                [!provide]                PROVIDE (__stop_sdh_state_observers, .)

.sdh_ant_observers
                0x00045198        0x0
                [!provide]                PROVIDE (__start_sdh_ant_observers, .)
 *(SORT(.sdh_ant_observers*))
                [!provide]                PROVIDE (__stop_sdh_ant_observers, .)

.sdh_ble_observers
                0x00045198        0x0
                [!provide]                PROVIDE (__start_sdh_ble_observers, .)
 *(SORT(.sdh_ble_observers*))
                [!provide]                PROVIDE (__stop_sdh_ble_observers, .)

.sdh_soc_observers
                0x00045198        0x0
                [!provide]                PROVIDE (__start_sdh_soc_observers, .)
 *(SORT(.sdh_soc_observers*))
                [!provide]                PROVIDE (__stop_sdh_soc_observers, .)

.ARM.extab
 *(.ARM.extab* .gnu.linkonce.armextab.*)
                0x00045198                __exidx_start = .

.ARM.exidx      0x00045198        0x8
 *(.ARM.exidx* .gnu.linkonce.armexidx.*)
 .ARM.exidx     0x00045198        0x8 c:/mesh/arm_gcc/bin/../lib/gcc/arm-none-eabi/6.3.1/../../../../arm-none-eabi/lib/thumb/v7e-m/fpv4-sp/hard/crt0.o
                0x000451a0                __exidx_end = .
                0x000451a0                __etext = .

.rel.dyn        0x000451a0        0x0
 .rel.iplt      0x000451a0        0x0 c:/mesh/arm_gcc/bin/../lib/gcc/arm-none-eabi/6.3.1/thumb/v7e-m/fpv4-sp/hard/crtbegin.o

.data           0x200032c8      0x14c load address 0x000451a0
                0x200032c8                __data_start__ = .
 *(vtable)
 *(.data*)
 .data.rom_base
                0x200032c8        0x4 examples/dfu/CMakeFiles/dfu_no_serial_nrf52832_xxAA_s132_6.0.0.dir/src/main.c.obj
                0x200032c8                rom_base
 .data.rom_end  0x200032cc        0x4 examples/dfu/CMakeFiles/dfu_no_serial_nrf52832_xxAA_s132_6.0.0.dir/src/main.c.obj
                0x200032cc                rom_end
 .data.s_evt_handler.11055
                0x200032d0        0x8 examples/dfu/CMakeFiles/dfu_no_serial_nrf52832_xxAA_s132_6.0.0.dir/__/__/mesh/stack/src/mesh_stack.c.obj
 .data.flash_add_mem_available_struct.10384
                0x200032d8       0x10 examples/dfu/CMakeFiles/dfu_no_serial_nrf52832_xxAA_s132_6.0.0.dir/__/__/mesh/access/src/access.c.obj
 .data.flash_clear_mem_available_struct.10473
                0x200032e8       0x10 examples/dfu/CMakeFiles/dfu_no_serial_nrf52832_xxAA_s132_6.0.0.dir/__/__/mesh/access/src/access.c.obj
 .data.flash_store_mem_available_struct.10497
                0x200032f8       0x10 examples/dfu/CMakeFiles/dfu_no_serial_nrf52832_xxAA_s132_6.0.0.dir/__/__/mesh/access/src/access.c.obj
 .data.m_default_ttl
                0x20003308        0x1 examples/dfu/CMakeFiles/dfu_no_serial_nrf52832_xxAA_s132_6.0.0.dir/__/__/mesh/access/src/access.c.obj
 *fill*         0x20003309        0x3 
 .data.mem_listener.10673
                0x2000330c       0x10 examples/dfu/CMakeFiles/dfu_no_serial_nrf52832_xxAA_s132_6.0.0.dir/__/__/mesh/access/src/device_state_manager.c.obj
 .data.mem_listener.10699
                0x2000331c       0x10 examples/dfu/CMakeFiles/dfu_no_serial_nrf52832_xxAA_s132_6.0.0.dir/__/__/mesh/access/src/device_state_manager.c.obj
 .data.m_config_server_handle
                0x2000332c        0x2 examples/dfu/CMakeFiles/dfu_no_serial_nrf52832_xxAA_s132_6.0.0.dir/__/__/models/config/src/config_server.c.obj
 *fill*         0x2000332e        0x2 
 .data.m_mesh_evt_handler
                0x20003330        0x8 examples/dfu/CMakeFiles/dfu_no_serial_nrf52832_xxAA_s132_6.0.0.dir/__/__/models/config/src/config_server.c.obj
 .data.m_async_process_flag
                0x20003338        0x4 examples/dfu/CMakeFiles/dfu_no_serial_nrf52832_xxAA_s132_6.0.0.dir/__/__/mesh/prov/src/prov_bearer_adv.c.obj
 .data.wait.8936
                0x2000333c        0x1 examples/dfu/CMakeFiles/dfu_no_serial_nrf52832_xxAA_s132_6.0.0.dir/__/common/src/app_error_weak.c.obj
 *fill*         0x2000333d        0x3 
 .data.mem_listener.9810
                0x20003340       0x10 examples/dfu/CMakeFiles/dfu_no_serial_nrf52832_xxAA_s132_6.0.0.dir/__/__/mesh/core/src/net_state.c.obj
 .data.mem_listener.9815
                0x20003350       0x10 examples/dfu/CMakeFiles/dfu_no_serial_nrf52832_xxAA_s132_6.0.0.dir/__/__/mesh/core/src/net_state.c.obj
 .data.mem_listener.9829
                0x20003360       0x10 examples/dfu/CMakeFiles/dfu_no_serial_nrf52832_xxAA_s132_6.0.0.dir/__/__/mesh/core/src/net_state.c.obj
 .data.mem_listener.9846
                0x20003370       0x10 examples/dfu/CMakeFiles/dfu_no_serial_nrf52832_xxAA_s132_6.0.0.dir/__/__/mesh/core/src/net_state.c.obj
 .data.m_nrf_mesh_listener
                0x20003380        0xc examples/dfu/CMakeFiles/dfu_no_serial_nrf52832_xxAA_s132_6.0.0.dir/__/__/mesh/core/src/nrf_mesh.c.obj
 .data.g_log_dbg_lvl
                0x2000338c        0x4 examples/dfu/CMakeFiles/dfu_no_serial_nrf52832_xxAA_s132_6.0.0.dir/__/__/mesh/core/src/log.c.obj
                0x2000338c                g_log_dbg_lvl
 .data.g_log_dbg_msk
                0x20003390        0x4 examples/dfu/CMakeFiles/dfu_no_serial_nrf52832_xxAA_s132_6.0.0.dir/__/__/mesh/core/src/log.c.obj
                0x20003390                g_log_dbg_msk
 .data.g_log_hex_digits
                0x20003394        0x4 examples/dfu/CMakeFiles/dfu_no_serial_nrf52832_xxAA_s132_6.0.0.dir/__/__/mesh/core/src/log.c.obj
                0x20003394                g_log_hex_digits
 .data.m_log_callback
                0x20003398        0x4 examples/dfu/CMakeFiles/dfu_no_serial_nrf52832_xxAA_s132_6.0.0.dir/__/__/mesh/core/src/log.c.obj
                0x20003398                m_log_callback
 .data.SystemCoreClock
                0x2000339c        0x4 examples/dfu/CMakeFiles/dfu_no_serial_nrf52832_xxAA_s132_6.0.0.dir/C_/b/nRF5_SDK_15.0.0_a53641a/modules/nrfx/mdk/system_nrf52.c.obj
                0x2000339c                SystemCoreClock
 .data.g_rng_function
                0x200033a0        0x4 external/micro-ecc/libuECC_nrf52832_xxAA.a(uECC.c.obj)
 .data._impure_ptr
                0x200033a4        0x4 c:/mesh/arm_gcc/bin/../lib/gcc/arm-none-eabi/6.3.1/../../../../arm-none-eabi/lib/thumb/v7e-m/fpv4-sp/hard\libc_nano.a(lib_a-impure.o)
                0x200033a4                _impure_ptr
 .data.impure_data
                0x200033a8       0x60 c:/mesh/arm_gcc/bin/../lib/gcc/arm-none-eabi/6.3.1/../../../../arm-none-eabi/lib/thumb/v7e-m/fpv4-sp/hard\libc_nano.a(lib_a-impure.o)
                0x20003408                . = ALIGN (0x4)
                0x20003408                PROVIDE (__preinit_array_start, .)
 *(.preinit_array)
                0x20003408                PROVIDE (__preinit_array_end, .)
                0x20003408                . = ALIGN (0x4)
                0x20003408                PROVIDE (__init_array_start, .)
 *(SORT(.init_array.*))
 *(.init_array)
 .init_array    0x20003408        0x4 c:/mesh/arm_gcc/bin/../lib/gcc/arm-none-eabi/6.3.1/thumb/v7e-m/fpv4-sp/hard/crtbegin.o
                0x2000340c                PROVIDE (__init_array_end, .)
                0x2000340c                . = ALIGN (0x4)
                [!provide]                PROVIDE (__fini_array_start, .)
 *(SORT(.fini_array.*))
 *(.fini_array)
 .fini_array    0x2000340c        0x4 c:/mesh/arm_gcc/bin/../lib/gcc/arm-none-eabi/6.3.1/thumb/v7e-m/fpv4-sp/hard/crtbegin.o
                [!provide]                PROVIDE (__fini_array_end, .)
 *(.jcr*)
 .jcr           0x20003410        0x0 c:/mesh/arm_gcc/bin/../lib/gcc/arm-none-eabi/6.3.1/thumb/v7e-m/fpv4-sp/hard/crtbegin.o
 .jcr           0x20003410        0x4 c:/mesh/arm_gcc/bin/../lib/gcc/arm-none-eabi/6.3.1/thumb/v7e-m/fpv4-sp/hard/crtend.o
                0x20003414                . = ALIGN (0x4)
                0x20003414                __data_end__ = .
LOAD c:/mesh/arm_gcc/bin/../lib/gcc/arm-none-eabi/6.3.1/thumb/v7e-m/fpv4-sp/hard/crti.o
LOAD c:/mesh/arm_gcc/bin/../lib/gcc/arm-none-eabi/6.3.1/thumb/v7e-m/fpv4-sp/hard/crtbegin.o
LOAD c:/mesh/arm_gcc/bin/../lib/gcc/arm-none-eabi/6.3.1/../../../../arm-none-eabi/lib/thumb/v7e-m/fpv4-sp/hard/crt0.o
LOAD examples/dfu/CMakeFiles/dfu_no_serial_nrf52832_xxAA_s132_6.0.0.dir/src/main.c.obj
LOAD examples/dfu/CMakeFiles/dfu_no_serial_nrf52832_xxAA_s132_6.0.0.dir/__/__/mesh/stack/src/mesh_stack.c.obj
LOAD examples/dfu/CMakeFiles/dfu_no_serial_nrf52832_xxAA_s132_6.0.0.dir/__/common/src/mesh_softdevice_init.c.obj
LOAD examples/dfu/CMakeFiles/dfu_no_serial_nrf52832_xxAA_s132_6.0.0.dir/__/common/src/mesh_provisionee.c.obj
LOAD examples/dfu/CMakeFiles/dfu_no_serial_nrf52832_xxAA_s132_6.0.0.dir/__/common/src/simple_hal.c.obj
LOAD examples/dfu/CMakeFiles/dfu_no_serial_nrf52832_xxAA_s132_6.0.0.dir/__/__/mesh/access/src/access_publish.c.obj
LOAD examples/dfu/CMakeFiles/dfu_no_serial_nrf52832_xxAA_s132_6.0.0.dir/__/__/mesh/access/src/access.c.obj
LOAD examples/dfu/CMakeFiles/dfu_no_serial_nrf52832_xxAA_s132_6.0.0.dir/__/__/mesh/access/src/access_reliable.c.obj
LOAD examples/dfu/CMakeFiles/dfu_no_serial_nrf52832_xxAA_s132_6.0.0.dir/__/__/mesh/access/src/device_state_manager.c.obj
LOAD examples/dfu/CMakeFiles/dfu_no_serial_nrf52832_xxAA_s132_6.0.0.dir/__/__/models/config/src/composition_data.c.obj
LOAD examples/dfu/CMakeFiles/dfu_no_serial_nrf52832_xxAA_s132_6.0.0.dir/__/__/models/config/src/config_server.c.obj
LOAD examples/dfu/CMakeFiles/dfu_no_serial_nrf52832_xxAA_s132_6.0.0.dir/__/__/models/config/src/packed_index_list.c.obj
LOAD examples/dfu/CMakeFiles/dfu_no_serial_nrf52832_xxAA_s132_6.0.0.dir/__/__/models/health/src/health_server.c.obj
LOAD examples/dfu/CMakeFiles/dfu_no_serial_nrf52832_xxAA_s132_6.0.0.dir/__/__/mesh/prov/src/prov_provisioner.c.obj
LOAD examples/dfu/CMakeFiles/dfu_no_serial_nrf52832_xxAA_s132_6.0.0.dir/__/__/mesh/prov/src/prov_provisionee.c.obj
LOAD examples/dfu/CMakeFiles/dfu_no_serial_nrf52832_xxAA_s132_6.0.0.dir/__/__/mesh/prov/src/nrf_mesh_prov.c.obj
LOAD examples/dfu/CMakeFiles/dfu_no_serial_nrf52832_xxAA_s132_6.0.0.dir/__/__/mesh/prov/src/provisioning.c.obj
LOAD examples/dfu/CMakeFiles/dfu_no_serial_nrf52832_xxAA_s132_6.0.0.dir/__/__/mesh/prov/src/prov_beacon.c.obj
LOAD examples/dfu/CMakeFiles/dfu_no_serial_nrf52832_xxAA_s132_6.0.0.dir/__/__/mesh/prov/src/prov_utils.c.obj
LOAD examples/dfu/CMakeFiles/dfu_no_serial_nrf52832_xxAA_s132_6.0.0.dir/__/__/mesh/prov/src/prov_bearer_adv.c.obj
LOAD examples/dfu/CMakeFiles/dfu_no_serial_nrf52832_xxAA_s132_6.0.0.dir/__/__/mesh/dfu/src/nrf_mesh_dfu.c.obj
LOAD examples/dfu/CMakeFiles/dfu_no_serial_nrf52832_xxAA_s132_6.0.0.dir/__/nrf_mesh_weak.c.obj
LOAD examples/dfu/CMakeFiles/dfu_no_serial_nrf52832_xxAA_s132_6.0.0.dir/__/common/src/app_error_weak.c.obj
LOAD examples/dfu/CMakeFiles/dfu_no_serial_nrf52832_xxAA_s132_6.0.0.dir/__/common/src/assertion_handler_weak.c.obj
LOAD examples/dfu/CMakeFiles/dfu_no_serial_nrf52832_xxAA_s132_6.0.0.dir/__/__/mesh/core/src/internal_event.c.obj
LOAD examples/dfu/CMakeFiles/dfu_no_serial_nrf52832_xxAA_s132_6.0.0.dir/__/__/mesh/core/src/nrf_mesh_configure.c.obj
LOAD examples/dfu/CMakeFiles/dfu_no_serial_nrf52832_xxAA_s132_6.0.0.dir/__/__/mesh/core/src/aes.c.obj
LOAD examples/dfu/CMakeFiles/dfu_no_serial_nrf52832_xxAA_s132_6.0.0.dir/__/__/mesh/core/src/msg_cache.c.obj
LOAD examples/dfu/CMakeFiles/dfu_no_serial_nrf52832_xxAA_s132_6.0.0.dir/__/__/mesh/core/src/transport.c.obj
LOAD examples/dfu/CMakeFiles/dfu_no_serial_nrf52832_xxAA_s132_6.0.0.dir/__/__/mesh/core/src/event.c.obj
LOAD examples/dfu/CMakeFiles/dfu_no_serial_nrf52832_xxAA_s132_6.0.0.dir/__/__/mesh/core/src/packet_buffer.c.obj
LOAD examples/dfu/CMakeFiles/dfu_no_serial_nrf52832_xxAA_s132_6.0.0.dir/__/__/mesh/core/src/flash_manager_defrag.c.obj
LOAD examples/dfu/CMakeFiles/dfu_no_serial_nrf52832_xxAA_s132_6.0.0.dir/__/__/mesh/core/src/fifo.c.obj
LOAD examples/dfu/CMakeFiles/dfu_no_serial_nrf52832_xxAA_s132_6.0.0.dir/__/__/mesh/core/src/nrf_flash.c.obj
LOAD examples/dfu/CMakeFiles/dfu_no_serial_nrf52832_xxAA_s132_6.0.0.dir/__/__/mesh/core/src/packet_mgr.c.obj
LOAD examples/dfu/CMakeFiles/dfu_no_serial_nrf52832_xxAA_s132_6.0.0.dir/__/__/mesh/core/src/net_state.c.obj
LOAD examples/dfu/CMakeFiles/dfu_no_serial_nrf52832_xxAA_s132_6.0.0.dir/__/__/mesh/core/src/mesh_flash.c.obj
LOAD examples/dfu/CMakeFiles/dfu_no_serial_nrf52832_xxAA_s132_6.0.0.dir/__/__/mesh/core/src/nrf_mesh_utils.c.obj
LOAD examples/dfu/CMakeFiles/dfu_no_serial_nrf52832_xxAA_s132_6.0.0.dir/__/__/mesh/core/src/nrf_mesh.c.obj
LOAD examples/dfu/CMakeFiles/dfu_no_serial_nrf52832_xxAA_s132_6.0.0.dir/__/__/mesh/core/src/queue.c.obj
LOAD examples/dfu/CMakeFiles/dfu_no_serial_nrf52832_xxAA_s132_6.0.0.dir/__/__/mesh/core/src/hal.c.obj
LOAD examples/dfu/CMakeFiles/dfu_no_serial_nrf52832_xxAA_s132_6.0.0.dir/__/__/mesh/core/src/aes_cmac.c.obj
LOAD examples/dfu/CMakeFiles/dfu_no_serial_nrf52832_xxAA_s132_6.0.0.dir/__/__/mesh/core/src/timer_scheduler.c.obj
LOAD examples/dfu/CMakeFiles/dfu_no_serial_nrf52832_xxAA_s132_6.0.0.dir/__/__/mesh/core/src/timer.c.obj
LOAD examples/dfu/CMakeFiles/dfu_no_serial_nrf52832_xxAA_s132_6.0.0.dir/__/__/mesh/core/src/ticker.c.obj
LOAD examples/dfu/CMakeFiles/dfu_no_serial_nrf52832_xxAA_s132_6.0.0.dir/__/__/mesh/core/src/rand.c.obj
LOAD examples/dfu/CMakeFiles/dfu_no_serial_nrf52832_xxAA_s132_6.0.0.dir/__/__/mesh/core/src/nrf_mesh_opt.c.obj
LOAD examples/dfu/CMakeFiles/dfu_no_serial_nrf52832_xxAA_s132_6.0.0.dir/__/__/mesh/core/src/timeslot.c.obj
LOAD examples/dfu/CMakeFiles/dfu_no_serial_nrf52832_xxAA_s132_6.0.0.dir/__/__/mesh/core/src/bearer_event.c.obj
LOAD examples/dfu/CMakeFiles/dfu_no_serial_nrf52832_xxAA_s132_6.0.0.dir/__/__/mesh/core/src/enc.c.obj
LOAD examples/dfu/CMakeFiles/dfu_no_serial_nrf52832_xxAA_s132_6.0.0.dir/__/__/mesh/core/src/network.c.obj
LOAD examples/dfu/CMakeFiles/dfu_no_serial_nrf52832_xxAA_s132_6.0.0.dir/__/__/mesh/core/src/net_packet.c.obj
LOAD examples/dfu/CMakeFiles/dfu_no_serial_nrf52832_xxAA_s132_6.0.0.dir/__/__/mesh/core/src/msqueue.c.obj
LOAD examples/dfu/CMakeFiles/dfu_no_serial_nrf52832_xxAA_s132_6.0.0.dir/__/__/mesh/core/src/nrf_mesh_keygen.c.obj
LOAD examples/dfu/CMakeFiles/dfu_no_serial_nrf52832_xxAA_s132_6.0.0.dir/__/__/mesh/core/src/cache.c.obj
LOAD examples/dfu/CMakeFiles/dfu_no_serial_nrf52832_xxAA_s132_6.0.0.dir/__/__/mesh/core/src/uri.c.obj
LOAD examples/dfu/CMakeFiles/dfu_no_serial_nrf52832_xxAA_s132_6.0.0.dir/__/__/mesh/core/src/list.c.obj
LOAD examples/dfu/CMakeFiles/dfu_no_serial_nrf52832_xxAA_s132_6.0.0.dir/__/__/mesh/core/src/log.c.obj
LOAD examples/dfu/CMakeFiles/dfu_no_serial_nrf52832_xxAA_s132_6.0.0.dir/__/__/mesh/core/src/flash_manager.c.obj
LOAD examples/dfu/CMakeFiles/dfu_no_serial_nrf52832_xxAA_s132_6.0.0.dir/__/__/mesh/core/src/ccm_soft.c.obj
LOAD examples/dfu/CMakeFiles/dfu_no_serial_nrf52832_xxAA_s132_6.0.0.dir/__/__/mesh/core/src/toolchain.c.obj
LOAD examples/dfu/CMakeFiles/dfu_no_serial_nrf52832_xxAA_s132_6.0.0.dir/__/__/mesh/core/src/replay_cache.c.obj
LOAD examples/dfu/CMakeFiles/dfu_no_serial_nrf52832_xxAA_s132_6.0.0.dir/__/__/mesh/core/src/beacon.c.obj
LOAD examples/dfu/CMakeFiles/dfu_no_serial_nrf52832_xxAA_s132_6.0.0.dir/__/__/mesh/core/src/flash_manager_internal.c.obj
LOAD examples/dfu/CMakeFiles/dfu_no_serial_nrf52832_xxAA_s132_6.0.0.dir/__/__/mesh/core/src/core_tx.c.obj
LOAD examples/dfu/CMakeFiles/dfu_no_serial_nrf52832_xxAA_s132_6.0.0.dir/__/__/mesh/core/src/heartbeat.c.obj
LOAD examples/dfu/CMakeFiles/dfu_no_serial_nrf52832_xxAA_s132_6.0.0.dir/__/__/mesh/core/src/net_beacon.c.obj
LOAD examples/dfu/CMakeFiles/dfu_no_serial_nrf52832_xxAA_s132_6.0.0.dir/__/__/mesh/core/src/fsm.c.obj
LOAD examples/dfu/CMakeFiles/dfu_no_serial_nrf52832_xxAA_s132_6.0.0.dir/__/__/mesh/core/src/core_tx_adv.c.obj
LOAD examples/dfu/CMakeFiles/dfu_no_serial_nrf52832_xxAA_s132_6.0.0.dir/__/__/mesh/bearer/src/ad_listener.c.obj
LOAD examples/dfu/CMakeFiles/dfu_no_serial_nrf52832_xxAA_s132_6.0.0.dir/__/__/mesh/bearer/src/ad_type_filter.c.obj
LOAD examples/dfu/CMakeFiles/dfu_no_serial_nrf52832_xxAA_s132_6.0.0.dir/__/__/mesh/bearer/src/adv_packet_filter.c.obj
LOAD examples/dfu/CMakeFiles/dfu_no_serial_nrf52832_xxAA_s132_6.0.0.dir/__/__/mesh/bearer/src/advertiser.c.obj
LOAD examples/dfu/CMakeFiles/dfu_no_serial_nrf52832_xxAA_s132_6.0.0.dir/__/__/mesh/bearer/src/bearer_handler.c.obj
LOAD examples/dfu/CMakeFiles/dfu_no_serial_nrf52832_xxAA_s132_6.0.0.dir/__/__/mesh/bearer/src/broadcast.c.obj
LOAD examples/dfu/CMakeFiles/dfu_no_serial_nrf52832_xxAA_s132_6.0.0.dir/__/__/mesh/bearer/src/filter_engine.c.obj
LOAD examples/dfu/CMakeFiles/dfu_no_serial_nrf52832_xxAA_s132_6.0.0.dir/__/__/mesh/bearer/src/gap_address_filter.c.obj
LOAD examples/dfu/CMakeFiles/dfu_no_serial_nrf52832_xxAA_s132_6.0.0.dir/__/__/mesh/bearer/src/radio_config.c.obj
LOAD examples/dfu/CMakeFiles/dfu_no_serial_nrf52832_xxAA_s132_6.0.0.dir/__/__/mesh/bearer/src/rssi_filter.c.obj
LOAD examples/dfu/CMakeFiles/dfu_no_serial_nrf52832_xxAA_s132_6.0.0.dir/__/__/mesh/bearer/src/scanner.c.obj
LOAD examples/dfu/CMakeFiles/dfu_no_serial_nrf52832_xxAA_s132_6.0.0.dir/C_/b/nRF5_SDK_15.0.0_a53641a/modules/nrfx/mdk/system_nrf52.c.obj
LOAD examples/dfu/CMakeFiles/dfu_no_serial_nrf52832_xxAA_s132_6.0.0.dir/C_/b/nRF5_SDK_15.0.0_a53641a/modules/nrfx/mdk/gcc_startup_nrf52.S.obj
LOAD examples/dfu/CMakeFiles/dfu_no_serial_nrf52832_xxAA_s132_6.0.0.dir/C_/b/nRF5_SDK_15.0.0_a53641a/components/libraries/util/app_error.c.obj
LOAD examples/dfu/CMakeFiles/dfu_no_serial_nrf52832_xxAA_s132_6.0.0.dir/C_/b/nRF5_SDK_15.0.0_a53641a/components/libraries/util/app_error_handler_gcc.c.obj
LOAD external/rtt/librtt_nrf52832_xxAA.a
LOAD external/micro-ecc/libuECC_nrf52832_xxAA.a
START GROUP
LOAD c:/mesh/arm_gcc/bin/../lib/gcc/arm-none-eabi/6.3.1/thumb/v7e-m/fpv4-sp/hard\libgcc.a
LOAD c:/mesh/arm_gcc/bin/../lib/gcc/arm-none-eabi/6.3.1/../../../../arm-none-eabi/lib/thumb/v7e-m/fpv4-sp/hard\libc_nano.a
END GROUP
START GROUP
LOAD c:/mesh/arm_gcc/bin/../lib/gcc/arm-none-eabi/6.3.1/thumb/v7e-m/fpv4-sp/hard\libgcc.a
LOAD c:/mesh/arm_gcc/bin/../lib/gcc/arm-none-eabi/6.3.1/../../../../arm-none-eabi/lib/thumb/v7e-m/fpv4-sp/hard\libc_nano.a
END GROUP
LOAD c:/mesh/arm_gcc/bin/../lib/gcc/arm-none-eabi/6.3.1/thumb/v7e-m/fpv4-sp/hard/crtend.o
LOAD c:/mesh/arm_gcc/bin/../lib/gcc/arm-none-eabi/6.3.1/thumb/v7e-m/fpv4-sp/hard/crtn.o
START GROUP
LOAD c:/mesh/arm_gcc/bin/../lib/gcc/arm-none-eabi/6.3.1/thumb/v7e-m/fpv4-sp/hard\libgcc.a
LOAD c:/mesh/arm_gcc/bin/../lib/gcc/arm-none-eabi/6.3.1/../../../../arm-none-eabi/lib/thumb/v7e-m/fpv4-sp/hard\libc.a
LOAD c:/mesh/arm_gcc/bin/../lib/gcc/arm-none-eabi/6.3.1/../../../../arm-none-eabi/lib/thumb/v7e-m/fpv4-sp/hard\libnosys.a
END GROUP

.igot.plt       0x20003414        0x0 load address 0x000452ec
 .igot.plt      0x20003414        0x0 c:/mesh/arm_gcc/bin/../lib/gcc/arm-none-eabi/6.3.1/thumb/v7e-m/fpv4-sp/hard/crtbegin.o
                0x20003414                . = ALIGN (0x4)

.svc_data       0x20003414        0x0
                [!provide]                PROVIDE (__start_svc_data, .)
 *(.svc_data)
                [!provide]                PROVIDE (__stop_svc_data, .)

.fs_data        0x20003414        0x0
                [!provide]                PROVIDE (__start_fs_data, .)
 *(.fs_data)
                [!provide]                PROVIDE (__stop_fs_data, .)

.log_dynamic_data
                0x20003414        0x0
                [!provide]                PROVIDE (__start_log_dynamic_data, .)
 *(.log_dynamic_data)
                [!provide]                PROVIDE (__stop_log_dynamic_data, .)

.cli_sorted_cmd_ptrs
                0x20003414        0x0
                [!provide]                PROVIDE (__start_cli_sorted_cmd_ptrs, .)
 *(.cli_sorted_cmd_ptrs)
                [!provide]                PROVIDE (__stop_cli_sorted_cmd_ptrs, .)

.bss            0x20003418     0x34ac load address 0x000452f0
                0x20003418                . = ALIGN (0x4)
                0x20003418                __bss_start__ = .
 *(.bss*)
 .bss           0x20003418       0x1c c:/mesh/arm_gcc/bin/../lib/gcc/arm-none-eabi/6.3.1/thumb/v7e-m/fpv4-sp/hard/crtbegin.o
 .bss.m_device_provisioned
                0x20003434        0x1 examples/dfu/CMakeFiles/dfu_no_serial_nrf52832_xxAA_s132_6.0.0.dir/src/main.c.obj
 *fill*         0x20003435        0x3 
 .bss.m_evt_handler
                0x20003438        0x8 examples/dfu/CMakeFiles/dfu_no_serial_nrf52832_xxAA_s132_6.0.0.dir/src/main.c.obj
 .bss.m_health_server
                0x20003440       0x5c examples/dfu/CMakeFiles/dfu_no_serial_nrf52832_xxAA_s132_6.0.0.dir/__/__/mesh/stack/src/mesh_stack.c.obj
 .bss.m_init_params
                0x2000349c       0x24 examples/dfu/CMakeFiles/dfu_no_serial_nrf52832_xxAA_s132_6.0.0.dir/__/__/mesh/stack/src/mesh_stack.c.obj
 .bss.m_device_provisioned
                0x200034c0        0x1 examples/dfu/CMakeFiles/dfu_no_serial_nrf52832_xxAA_s132_6.0.0.dir/__/common/src/mesh_provisionee.c.obj
 *fill*         0x200034c1        0x3 
 .bss.m_params  0x200034c4        0xc examples/dfu/CMakeFiles/dfu_no_serial_nrf52832_xxAA_s132_6.0.0.dir/__/common/src/mesh_provisionee.c.obj
 .bss.m_private_key
                0x200034d0       0x20 examples/dfu/CMakeFiles/dfu_no_serial_nrf52832_xxAA_s132_6.0.0.dir/__/common/src/mesh_provisionee.c.obj
 .bss.m_prov_bearer_adv
                0x200034f0      0x1c4 examples/dfu/CMakeFiles/dfu_no_serial_nrf52832_xxAA_s132_6.0.0.dir/__/common/src/mesh_provisionee.c.obj
 .bss.m_prov_ctx
                0x200036b4      0x134 examples/dfu/CMakeFiles/dfu_no_serial_nrf52832_xxAA_s132_6.0.0.dir/__/common/src/mesh_provisionee.c.obj
 .bss.m_public_key
                0x200037e8       0x40 examples/dfu/CMakeFiles/dfu_no_serial_nrf52832_xxAA_s132_6.0.0.dir/__/common/src/mesh_provisionee.c.obj
 .bss.m_button_handler_cb
                0x20003828        0x4 examples/dfu/CMakeFiles/dfu_no_serial_nrf52832_xxAA_s132_6.0.0.dir/__/common/src/simple_hal.c.obj
 .bss.m_last_button_press
                0x2000382c        0x4 examples/dfu/CMakeFiles/dfu_no_serial_nrf52832_xxAA_s132_6.0.0.dir/__/common/src/simple_hal.c.obj
 .bss.m_publish_timer
                0x20003830       0x18 examples/dfu/CMakeFiles/dfu_no_serial_nrf52832_xxAA_s132_6.0.0.dir/__/__/mesh/access/src/access_publish.c.obj
 .bss.m_publish_timer_counter
                0x20003848        0x4 examples/dfu/CMakeFiles/dfu_no_serial_nrf52832_xxAA_s132_6.0.0.dir/__/__/mesh/access/src/access_publish.c.obj
 .bss.m_publish_timer_running
                0x2000384c        0x1 examples/dfu/CMakeFiles/dfu_no_serial_nrf52832_xxAA_s132_6.0.0.dir/__/__/mesh/access/src/access_publish.c.obj
 .bss.m_timer_resolution
                0x2000384d        0x1 examples/dfu/CMakeFiles/dfu_no_serial_nrf52832_xxAA_s132_6.0.0.dir/__/__/mesh/access/src/access_publish.c.obj
 *fill*         0x2000384e        0x2 
 .bss.mp_publication_list
                0x20003850        0x4 examples/dfu/CMakeFiles/dfu_no_serial_nrf52832_xxAA_s132_6.0.0.dir/__/__/mesh/access/src/access_publish.c.obj
 .bss.m_element_pool
                0x20003854        0x6 examples/dfu/CMakeFiles/dfu_no_serial_nrf52832_xxAA_s132_6.0.0.dir/__/__/mesh/access/src/access.c.obj
 *fill*         0x2000385a        0x2 
 .bss.m_evt_handler
                0x2000385c        0x8 examples/dfu/CMakeFiles/dfu_no_serial_nrf52832_xxAA_s132_6.0.0.dir/__/__/mesh/access/src/access.c.obj
 .bss.m_flash_manager
                0x20003864       0x24 examples/dfu/CMakeFiles/dfu_no_serial_nrf52832_xxAA_s132_6.0.0.dir/__/__/mesh/access/src/access.c.obj
 .bss.m_flash_not_ready
                0x20003888        0x1 examples/dfu/CMakeFiles/dfu_no_serial_nrf52832_xxAA_s132_6.0.0.dir/__/__/mesh/access/src/access.c.obj
 .bss.m_metadata_stored
                0x20003889        0x1 examples/dfu/CMakeFiles/dfu_no_serial_nrf52832_xxAA_s132_6.0.0.dir/__/__/mesh/access/src/access.c.obj
 *fill*         0x2000388a        0x2 
 .bss.m_model_pool
                0x2000388c       0x68 examples/dfu/CMakeFiles/dfu_no_serial_nrf52832_xxAA_s132_6.0.0.dir/__/__/mesh/access/src/access.c.obj
 .bss.m_subscription_list_pool
                0x200038f4       0x10 examples/dfu/CMakeFiles/dfu_no_serial_nrf52832_xxAA_s132_6.0.0.dir/__/__/mesh/access/src/access.c.obj
 .bss.m_reliable
                0x20003904       0x74 examples/dfu/CMakeFiles/dfu_no_serial_nrf52832_xxAA_s132_6.0.0.dir/__/__/mesh/access/src/access_reliable.c.obj
 .bss.m_addr_nonvirtual_allocated
                0x20003978        0x4 examples/dfu/CMakeFiles/dfu_no_serial_nrf52832_xxAA_s132_6.0.0.dir/__/__/mesh/access/src/device_state_manager.c.obj
 .bss.m_addr_nonvirtual_needs_flashing
                0x2000397c        0x4 examples/dfu/CMakeFiles/dfu_no_serial_nrf52832_xxAA_s132_6.0.0.dir/__/__/mesh/access/src/device_state_manager.c.obj
 .bss.m_addr_unicast_allocated
                0x20003980        0x4 examples/dfu/CMakeFiles/dfu_no_serial_nrf52832_xxAA_s132_6.0.0.dir/__/__/mesh/access/src/device_state_manager.c.obj
 .bss.m_addr_unicast_needs_flashing
                0x20003984        0x4 examples/dfu/CMakeFiles/dfu_no_serial_nrf52832_xxAA_s132_6.0.0.dir/__/__/mesh/access/src/device_state_manager.c.obj
 .bss.m_addr_virtual_allocated
                0x20003988        0x4 examples/dfu/CMakeFiles/dfu_no_serial_nrf52832_xxAA_s132_6.0.0.dir/__/__/mesh/access/src/device_state_manager.c.obj
 .bss.m_addr_virtual_needs_flashing
                0x2000398c        0x4 examples/dfu/CMakeFiles/dfu_no_serial_nrf52832_xxAA_s132_6.0.0.dir/__/__/mesh/access/src/device_state_manager.c.obj
 .bss.m_addresses
                0x20003990       0x40 examples/dfu/CMakeFiles/dfu_no_serial_nrf52832_xxAA_s132_6.0.0.dir/__/__/mesh/access/src/device_state_manager.c.obj
 .bss.m_appkey_allocated
                0x200039d0        0x4 examples/dfu/CMakeFiles/dfu_no_serial_nrf52832_xxAA_s132_6.0.0.dir/__/__/mesh/access/src/device_state_manager.c.obj
 .bss.m_appkey_needs_flashing
                0x200039d4        0x4 examples/dfu/CMakeFiles/dfu_no_serial_nrf52832_xxAA_s132_6.0.0.dir/__/__/mesh/access/src/device_state_manager.c.obj
 .bss.m_appkeys
                0x200039d8      0x150 examples/dfu/CMakeFiles/dfu_no_serial_nrf52832_xxAA_s132_6.0.0.dir/__/__/mesh/access/src/device_state_manager.c.obj
 .bss.m_devkey_allocated
                0x20003b28        0x4 examples/dfu/CMakeFiles/dfu_no_serial_nrf52832_xxAA_s132_6.0.0.dir/__/__/mesh/access/src/device_state_manager.c.obj
 .bss.m_devkey_needs_flashing
                0x20003b2c        0x4 examples/dfu/CMakeFiles/dfu_no_serial_nrf52832_xxAA_s132_6.0.0.dir/__/__/mesh/access/src/device_state_manager.c.obj
 .bss.m_devkeys
                0x20003b30       0x16 examples/dfu/CMakeFiles/dfu_no_serial_nrf52832_xxAA_s132_6.0.0.dir/__/__/mesh/access/src/device_state_manager.c.obj
 .bss.m_flash_is_available
                0x20003b46        0x1 examples/dfu/CMakeFiles/dfu_no_serial_nrf52832_xxAA_s132_6.0.0.dir/__/__/mesh/access/src/device_state_manager.c.obj
 *fill*         0x20003b47        0x1 
 .bss.m_flash_manager
                0x20003b48       0x24 examples/dfu/CMakeFiles/dfu_no_serial_nrf52832_xxAA_s132_6.0.0.dir/__/__/mesh/access/src/device_state_manager.c.obj
 .bss.m_flash_mem_listener_update_all
                0x20003b6c       0x10 examples/dfu/CMakeFiles/dfu_no_serial_nrf52832_xxAA_s132_6.0.0.dir/__/__/mesh/access/src/device_state_manager.c.obj
 .bss.m_has_primary_subnet
                0x20003b7c        0x1 examples/dfu/CMakeFiles/dfu_no_serial_nrf52832_xxAA_s132_6.0.0.dir/__/__/mesh/access/src/device_state_manager.c.obj
 *fill*         0x20003b7d        0x3 
 .bss.m_local_unicast_addr
                0x20003b80        0x4 examples/dfu/CMakeFiles/dfu_no_serial_nrf52832_xxAA_s132_6.0.0.dir/__/__/mesh/access/src/device_state_manager.c.obj
 .bss.m_mesh_evt_handler
                0x20003b84        0x8 examples/dfu/CMakeFiles/dfu_no_serial_nrf52832_xxAA_s132_6.0.0.dir/__/__/mesh/access/src/device_state_manager.c.obj
 .bss.m_subnet_allocated
                0x20003b8c        0x4 examples/dfu/CMakeFiles/dfu_no_serial_nrf52832_xxAA_s132_6.0.0.dir/__/__/mesh/access/src/device_state_manager.c.obj
 .bss.m_subnet_needs_flashing
                0x20003b90        0x4 examples/dfu/CMakeFiles/dfu_no_serial_nrf52832_xxAA_s132_6.0.0.dir/__/__/mesh/access/src/device_state_manager.c.obj
 .bss.m_subnets
                0x20003b94      0x2a0 examples/dfu/CMakeFiles/dfu_no_serial_nrf52832_xxAA_s132_6.0.0.dir/__/__/mesh/access/src/device_state_manager.c.obj
 .bss.m_virtual_addresses
                0x20003e34       0xa0 examples/dfu/CMakeFiles/dfu_no_serial_nrf52832_xxAA_s132_6.0.0.dir/__/__/mesh/access/src/device_state_manager.c.obj
 .bss.m_evt_cb  0x20003ed4        0x4 examples/dfu/CMakeFiles/dfu_no_serial_nrf52832_xxAA_s132_6.0.0.dir/__/__/models/config/src/config_server.c.obj
 .bss.m_heartbeat_publication
                0x20003ed8       0x14 examples/dfu/CMakeFiles/dfu_no_serial_nrf52832_xxAA_s132_6.0.0.dir/__/__/models/config/src/config_server.c.obj
 .bss.m_node_reset_pending
                0x20003eec        0x1 examples/dfu/CMakeFiles/dfu_no_serial_nrf52832_xxAA_s132_6.0.0.dir/__/__/models/config/src/config_server.c.obj
 *fill*         0x20003eed        0x3 
 .bss.m_attention_timer
                0x20003ef0       0x18 examples/dfu/CMakeFiles/dfu_no_serial_nrf52832_xxAA_s132_6.0.0.dir/__/__/models/health/src/health_server.c.obj
 .bss.mp_attention_list
                0x20003f08        0x4 examples/dfu/CMakeFiles/dfu_no_serial_nrf52832_xxAA_s132_6.0.0.dir/__/__/models/health/src/health_server.c.obj
 .bss.m_event_handler
                0x20003f0c        0x4 examples/dfu/CMakeFiles/dfu_no_serial_nrf52832_xxAA_s132_6.0.0.dir/__/__/mesh/prov/src/prov_beacon.c.obj
 .bss.m_offload_ecdh
                0x20003f10        0x1 examples/dfu/CMakeFiles/dfu_no_serial_nrf52832_xxAA_s132_6.0.0.dir/__/__/mesh/prov/src/prov_utils.c.obj
 *fill*         0x20003f11        0x3 
 .bss.mp_bearer_head
                0x20003f14        0x4 examples/dfu/CMakeFiles/dfu_no_serial_nrf52832_xxAA_s132_6.0.0.dir/__/__/mesh/prov/src/prov_bearer_adv.c.obj
 .bss.m_adv_packet
                0x20003f18       0x28 examples/dfu/CMakeFiles/dfu_no_serial_nrf52832_xxAA_s132_6.0.0.dir/__/__/mesh/dfu/src/nrf_mesh_dfu.c.obj
 .bss.m_broadcast
                0x20003f40       0x38 examples/dfu/CMakeFiles/dfu_no_serial_nrf52832_xxAA_s132_6.0.0.dir/__/__/mesh/dfu/src/nrf_mesh_dfu.c.obj
 .bss.m_prng    0x20003f78       0x10 examples/dfu/CMakeFiles/dfu_no_serial_nrf52832_xxAA_s132_6.0.0.dir/__/__/mesh/dfu/src/nrf_mesh_dfu.c.obj
 .bss.m_timer_evt
                0x20003f88       0x18 examples/dfu/CMakeFiles/dfu_no_serial_nrf52832_xxAA_s132_6.0.0.dir/__/__/mesh/dfu/src/nrf_mesh_dfu.c.obj
 .bss.m_transfer_state
                0x20003fa0       0x12 examples/dfu/CMakeFiles/dfu_no_serial_nrf52832_xxAA_s132_6.0.0.dir/__/__/mesh/dfu/src/nrf_mesh_dfu.c.obj
 *fill*         0x20003fb2        0x2 
 .bss.m_tx_slots
                0x20003fb4      0x120 examples/dfu/CMakeFiles/dfu_no_serial_nrf52832_xxAA_s132_6.0.0.dir/__/__/mesh/dfu/src/nrf_mesh_dfu.c.obj
 .bss.m_tx_timer_evt
                0x200040d4       0x18 examples/dfu/CMakeFiles/dfu_no_serial_nrf52832_xxAA_s132_6.0.0.dir/__/__/mesh/dfu/src/nrf_mesh_dfu.c.obj
 .bss.mp_curr_fwid
                0x200040ec        0x4 examples/dfu/CMakeFiles/dfu_no_serial_nrf52832_xxAA_s132_6.0.0.dir/__/__/mesh/dfu/src/nrf_mesh_dfu.c.obj
 .bss.m_uuid    0x200040f0       0x10 examples/dfu/CMakeFiles/dfu_no_serial_nrf52832_xxAA_s132_6.0.0.dir/__/__/mesh/core/src/nrf_mesh_configure.c.obj
 .bss.m_msg_cache
                0x20004100      0x100 examples/dfu/CMakeFiles/dfu_no_serial_nrf52832_xxAA_s132_6.0.0.dir/__/__/mesh/core/src/msg_cache.c.obj
 .bss.m_msg_cache_head
                0x20004200        0x4 examples/dfu/CMakeFiles/dfu_no_serial_nrf52832_xxAA_s132_6.0.0.dir/__/__/mesh/core/src/msg_cache.c.obj
 .bss.m_control_packet_consumer_count
                0x20004204        0x4 examples/dfu/CMakeFiles/dfu_no_serial_nrf52832_xxAA_s132_6.0.0.dir/__/__/mesh/core/src/transport.c.obj
 .bss.m_control_packet_consumers
                0x20004208        0x8 examples/dfu/CMakeFiles/dfu_no_serial_nrf52832_xxAA_s132_6.0.0.dir/__/__/mesh/core/src/transport.c.obj
 .bss.m_sar_alloc
                0x20004210        0x4 examples/dfu/CMakeFiles/dfu_no_serial_nrf52832_xxAA_s132_6.0.0.dir/__/__/mesh/core/src/transport.c.obj
 .bss.m_sar_process_flag
                0x20004214        0x4 examples/dfu/CMakeFiles/dfu_no_serial_nrf52832_xxAA_s132_6.0.0.dir/__/__/mesh/core/src/transport.c.obj
 .bss.m_sar_release
                0x20004218        0x4 examples/dfu/CMakeFiles/dfu_no_serial_nrf52832_xxAA_s132_6.0.0.dir/__/__/mesh/core/src/transport.c.obj
 .bss.m_sar_session_cache
                0x2000421c       0x40 examples/dfu/CMakeFiles/dfu_no_serial_nrf52832_xxAA_s132_6.0.0.dir/__/__/mesh/core/src/transport.c.obj
 .bss.m_sar_session_cache_head
                0x2000425c        0x4 examples/dfu/CMakeFiles/dfu_no_serial_nrf52832_xxAA_s132_6.0.0.dir/__/__/mesh/core/src/transport.c.obj
 .bss.m_trs_config
                0x20004260       0x18 examples/dfu/CMakeFiles/dfu_no_serial_nrf52832_xxAA_s132_6.0.0.dir/__/__/mesh/core/src/transport.c.obj
 .bss.m_trs_sar_sessions
                0x20004278      0x1b0 examples/dfu/CMakeFiles/dfu_no_serial_nrf52832_xxAA_s132_6.0.0.dir/__/__/mesh/core/src/transport.c.obj
 .bss.mp_evt_handlers_head
                0x20004428        0x4 examples/dfu/CMakeFiles/dfu_no_serial_nrf52832_xxAA_s132_6.0.0.dir/__/__/mesh/core/src/event.c.obj
 .bss.m_defrag  0x2000442c       0x1c examples/dfu/CMakeFiles/dfu_no_serial_nrf52832_xxAA_s132_6.0.0.dir/__/__/mesh/core/src/flash_manager_defrag.c.obj
 .bss.m_token   0x20004448        0x2 examples/dfu/CMakeFiles/dfu_no_serial_nrf52832_xxAA_s132_6.0.0.dir/__/__/mesh/core/src/flash_manager_defrag.c.obj
 *fill*         0x2000444a        0x2 
 .bss.mp_recovery_area
                0x2000444c        0x4 examples/dfu/CMakeFiles/dfu_no_serial_nrf52832_xxAA_s132_6.0.0.dir/__/__/mesh/core/src/flash_manager_defrag.c.obj
 .bss.p_null_ptr.10241
                0x20004450        0x4 examples/dfu/CMakeFiles/dfu_no_serial_nrf52832_xxAA_s132_6.0.0.dir/__/__/mesh/core/src/flash_manager_defrag.c.obj
 .bss.m_pool    0x20004454     0x1000 examples/dfu/CMakeFiles/dfu_no_serial_nrf52832_xxAA_s132_6.0.0.dir/__/__/mesh/core/src/packet_mgr.c.obj
 .bss.mp_free_head
                0x20005454        0x4 examples/dfu/CMakeFiles/dfu_no_serial_nrf52832_xxAA_s132_6.0.0.dir/__/__/mesh/core/src/packet_mgr.c.obj
 .bss.iv_state_set.9896
                0x20005458        0x1 examples/dfu/CMakeFiles/dfu_no_serial_nrf52832_xxAA_s132_6.0.0.dir/__/__/mesh/core/src/net_state.c.obj
 *fill*         0x20005459        0x3 
 .bss.lock_count.9872
                0x2000545c        0x4 examples/dfu/CMakeFiles/dfu_no_serial_nrf52832_xxAA_s132_6.0.0.dir/__/__/mesh/core/src/net_state.c.obj
 .bss.m_flash_manager
                0x20005460       0x24 examples/dfu/CMakeFiles/dfu_no_serial_nrf52832_xxAA_s132_6.0.0.dir/__/__/mesh/core/src/net_state.c.obj
 .bss.m_iv_update_timer
                0x20005484       0x18 examples/dfu/CMakeFiles/dfu_no_serial_nrf52832_xxAA_s132_6.0.0.dir/__/__/mesh/core/src/net_state.c.obj
 .bss.m_mesh_evt_handler
                0x2000549c        0x8 examples/dfu/CMakeFiles/dfu_no_serial_nrf52832_xxAA_s132_6.0.0.dir/__/__/mesh/core/src/net_state.c.obj
 .bss.m_net_state
                0x200054a4       0x14 examples/dfu/CMakeFiles/dfu_no_serial_nrf52832_xxAA_s132_6.0.0.dir/__/__/mesh/core/src/net_state.c.obj
 .bss.m_seqnum_allocation_in_progress
                0x200054b8        0x1 examples/dfu/CMakeFiles/dfu_no_serial_nrf52832_xxAA_s132_6.0.0.dir/__/__/mesh/core/src/net_state.c.obj
 .bss.m_test_mode
                0x200054b9        0x1 examples/dfu/CMakeFiles/dfu_no_serial_nrf52832_xxAA_s132_6.0.0.dir/__/__/mesh/core/src/net_state.c.obj
 *fill*         0x200054ba        0x2 
 .bss.m_event_flag
                0x200054bc        0x4 examples/dfu/CMakeFiles/dfu_no_serial_nrf52832_xxAA_s132_6.0.0.dir/__/__/mesh/core/src/mesh_flash.c.obj
 .bss.m_suspended
                0x200054c0        0x1 examples/dfu/CMakeFiles/dfu_no_serial_nrf52832_xxAA_s132_6.0.0.dir/__/__/mesh/core/src/mesh_flash.c.obj
 *fill*         0x200054c1        0x3 
 .bss.m_users   0x200054c4      0x228 examples/dfu/CMakeFiles/dfu_no_serial_nrf52832_xxAA_s132_6.0.0.dir/__/__/mesh/core/src/mesh_flash.c.obj
 .bss.suspend_count.10123
                0x200056ec        0x4 examples/dfu/CMakeFiles/dfu_no_serial_nrf52832_xxAA_s132_6.0.0.dir/__/__/mesh/core/src/mesh_flash.c.obj
 .bss.m_is_enabled
                0x200056f0        0x1 examples/dfu/CMakeFiles/dfu_no_serial_nrf52832_xxAA_s132_6.0.0.dir/__/__/mesh/core/src/nrf_mesh.c.obj
 .bss.m_is_initialized
                0x200056f1        0x1 examples/dfu/CMakeFiles/dfu_no_serial_nrf52832_xxAA_s132_6.0.0.dir/__/__/mesh/core/src/nrf_mesh.c.obj
 *fill*         0x200056f2        0x2 
 .bss.m_rx_cb   0x200056f4        0x4 examples/dfu/CMakeFiles/dfu_no_serial_nrf52832_xxAA_s132_6.0.0.dir/__/__/mesh/core/src/nrf_mesh.c.obj
 .bss.m_128buf  0x200056f8       0x10 examples/dfu/CMakeFiles/dfu_no_serial_nrf52832_xxAA_s132_6.0.0.dir/__/__/mesh/core/src/aes_cmac.c.obj
 .bss.m_subkey1
                0x20005708       0x10 examples/dfu/CMakeFiles/dfu_no_serial_nrf52832_xxAA_s132_6.0.0.dir/__/__/mesh/core/src/aes_cmac.c.obj
 .bss.m_subkey2
                0x20005718       0x10 examples/dfu/CMakeFiles/dfu_no_serial_nrf52832_xxAA_s132_6.0.0.dir/__/__/mesh/core/src/aes_cmac.c.obj
 .bss.m_event_flag
                0x20005728        0x4 examples/dfu/CMakeFiles/dfu_no_serial_nrf52832_xxAA_s132_6.0.0.dir/__/__/mesh/core/src/timer_scheduler.c.obj
 .bss.m_scheduler
                0x2000572c       0x10 examples/dfu/CMakeFiles/dfu_no_serial_nrf52832_xxAA_s132_6.0.0.dir/__/__/mesh/core/src/timer_scheduler.c.obj
 .bss.m_attributes
                0x2000573c        0x3 examples/dfu/CMakeFiles/dfu_no_serial_nrf52832_xxAA_s132_6.0.0.dir/__/__/mesh/core/src/timer.c.obj
 *fill*         0x2000573f        0x1 
 .bss.m_callbacks
                0x20005740        0xc examples/dfu/CMakeFiles/dfu_no_serial_nrf52832_xxAA_s132_6.0.0.dir/__/__/mesh/core/src/timer.c.obj
 .bss.m_is_in_ts
                0x2000574c        0x1 examples/dfu/CMakeFiles/dfu_no_serial_nrf52832_xxAA_s132_6.0.0.dir/__/__/mesh/core/src/timer.c.obj
 *fill*         0x2000574d        0x3 
 .bss.m_reference_time
                0x20005750        0x4 examples/dfu/CMakeFiles/dfu_no_serial_nrf52832_xxAA_s132_6.0.0.dir/__/__/mesh/core/src/timer.c.obj
 .bss.m_timeouts
                0x20005754        0xc examples/dfu/CMakeFiles/dfu_no_serial_nrf52832_xxAA_s132_6.0.0.dir/__/__/mesh/core/src/timer.c.obj
 .bss.m_timer_mut
                0x20005760        0x4 examples/dfu/CMakeFiles/dfu_no_serial_nrf52832_xxAA_s132_6.0.0.dir/__/__/mesh/core/src/timer.c.obj
 .bss.m_ts_end_time
                0x20005764        0x4 examples/dfu/CMakeFiles/dfu_no_serial_nrf52832_xxAA_s132_6.0.0.dir/__/__/mesh/core/src/timer.c.obj
 .bss.mp_ppi_tasks
                0x20005768        0xc examples/dfu/CMakeFiles/dfu_no_serial_nrf52832_xxAA_s132_6.0.0.dir/__/__/mesh/core/src/timer.c.obj
 .bss.m_current_time
                0x20005774        0x4 examples/dfu/CMakeFiles/dfu_no_serial_nrf52832_xxAA_s132_6.0.0.dir/__/__/mesh/core/src/ticker.c.obj
 .bss.m_timer   0x20005778       0x18 examples/dfu/CMakeFiles/dfu_no_serial_nrf52832_xxAA_s132_6.0.0.dir/__/__/mesh/core/src/ticker.c.obj
 .bss.m_current_timeslot
                0x20005790       0x1c examples/dfu/CMakeFiles/dfu_no_serial_nrf52832_xxAA_s132_6.0.0.dir/__/__/mesh/core/src/timeslot.c.obj
 .bss.m_lfclk_ppm
                0x200057ac        0x4 examples/dfu/CMakeFiles/dfu_no_serial_nrf52832_xxAA_s132_6.0.0.dir/__/__/mesh/core/src/timeslot.c.obj
 .bss.m_radio_request_earliest
                0x200057b0       0x10 examples/dfu/CMakeFiles/dfu_no_serial_nrf52832_xxAA_s132_6.0.0.dir/__/__/mesh/core/src/timeslot.c.obj
 .bss.m_state_lock
                0x200057c0        0x1 examples/dfu/CMakeFiles/dfu_no_serial_nrf52832_xxAA_s132_6.0.0.dir/__/__/mesh/core/src/timeslot.c.obj
 .bss.m_timeslot_forced_command
                0x200057c1        0x1 examples/dfu/CMakeFiles/dfu_no_serial_nrf52832_xxAA_s132_6.0.0.dir/__/__/mesh/core/src/timeslot.c.obj
 *fill*         0x200057c2        0x6 
 .bss.s_last_rtc_value.9299
                0x200057c8        0x8 examples/dfu/CMakeFiles/dfu_no_serial_nrf52832_xxAA_s132_6.0.0.dir/__/__/mesh/core/src/timeslot.c.obj
 .bss.m_bearer_event_fifo
                0x200057d0       0x14 examples/dfu/CMakeFiles/dfu_no_serial_nrf52832_xxAA_s132_6.0.0.dir/__/__/mesh/core/src/bearer_event.c.obj
 .bss.m_bearer_event_fifo_buffer
                0x200057e4      0x100 examples/dfu/CMakeFiles/dfu_no_serial_nrf52832_xxAA_s132_6.0.0.dir/__/__/mesh/core/src/bearer_event.c.obj
 .bss.m_critical
                0x200058e4        0x4 examples/dfu/CMakeFiles/dfu_no_serial_nrf52832_xxAA_s132_6.0.0.dir/__/__/mesh/core/src/bearer_event.c.obj
 .bss.m_flag_count
                0x200058e8        0x4 examples/dfu/CMakeFiles/dfu_no_serial_nrf52832_xxAA_s132_6.0.0.dir/__/__/mesh/core/src/bearer_event.c.obj
 .bss.m_flag_event_callbacks
                0x200058ec       0x20 examples/dfu/CMakeFiles/dfu_no_serial_nrf52832_xxAA_s132_6.0.0.dir/__/__/mesh/core/src/bearer_event.c.obj
 .bss.m_flags   0x2000590c        0x4 examples/dfu/CMakeFiles/dfu_no_serial_nrf52832_xxAA_s132_6.0.0.dir/__/__/mesh/core/src/bearer_event.c.obj
 .bss.m_irq_priority
                0x20005910        0x1 examples/dfu/CMakeFiles/dfu_no_serial_nrf52832_xxAA_s132_6.0.0.dir/__/__/mesh/core/src/bearer_event.c.obj
 *fill*         0x20005911        0x3 
 .bss.m_sequential_event_queue
                0x20005914        0x8 examples/dfu/CMakeFiles/dfu_no_serial_nrf52832_xxAA_s132_6.0.0.dir/__/__/mesh/core/src/bearer_event.c.obj
 .bss.s_recursion_guard.9430
                0x2000591c        0x1 examples/dfu/CMakeFiles/dfu_no_serial_nrf52832_xxAA_s132_6.0.0.dir/__/__/mesh/core/src/bearer_event.c.obj
 *fill*         0x2000591d        0x3 
 .bss.m_relay_check_cb
                0x20005920        0x4 examples/dfu/CMakeFiles/dfu_no_serial_nrf52832_xxAA_s132_6.0.0.dir/__/__/mesh/core/src/network.c.obj
 .bss.m_relay_enable
                0x20005924        0x1 examples/dfu/CMakeFiles/dfu_no_serial_nrf52832_xxAA_s132_6.0.0.dir/__/__/mesh/core/src/network.c.obj
 *fill*         0x20005925        0x3 
 .bss.m_action_queue
                0x20005928        0xc examples/dfu/CMakeFiles/dfu_no_serial_nrf52832_xxAA_s132_6.0.0.dir/__/__/mesh/core/src/flash_manager.c.obj
 .bss.m_action_queue_buffer
                0x20005934      0x104 examples/dfu/CMakeFiles/dfu_no_serial_nrf52832_xxAA_s132_6.0.0.dir/__/__/mesh/core/src/flash_manager.c.obj
 .bss.m_action_state
                0x20005a38        0x1 examples/dfu/CMakeFiles/dfu_no_serial_nrf52832_xxAA_s132_6.0.0.dir/__/__/mesh/core/src/flash_manager.c.obj
 *fill*         0x20005a39        0x3 
 .bss.m_memory_listener_queue
                0x20005a3c        0x8 examples/dfu/CMakeFiles/dfu_no_serial_nrf52832_xxAA_s132_6.0.0.dir/__/__/mesh/core/src/flash_manager.c.obj
 .bss.m_processing_flag
                0x20005a44        0x4 examples/dfu/CMakeFiles/dfu_no_serial_nrf52832_xxAA_s132_6.0.0.dir/__/__/mesh/core/src/flash_manager.c.obj
 .bss.m_queue_empty_cb
                0x20005a48        0x4 examples/dfu/CMakeFiles/dfu_no_serial_nrf52832_xxAA_s132_6.0.0.dir/__/__/mesh/core/src/flash_manager.c.obj
 .bss.m_state   0x20005a4c        0x1 examples/dfu/CMakeFiles/dfu_no_serial_nrf52832_xxAA_s132_6.0.0.dir/__/__/mesh/core/src/flash_manager.c.obj
 *fill*         0x20005a4d        0x1 
 .bss.m_token   0x20005a4e        0x2 examples/dfu/CMakeFiles/dfu_no_serial_nrf52832_xxAA_s132_6.0.0.dir/__/__/mesh/core/src/flash_manager.c.obj
 .bss.p_current.11149
                0x20005a50        0x4 examples/dfu/CMakeFiles/dfu_no_serial_nrf52832_xxAA_s132_6.0.0.dir/__/__/mesh/core/src/flash_manager.c.obj
 .bss.result.11150
                0x20005a54        0x1 examples/dfu/CMakeFiles/dfu_no_serial_nrf52832_xxAA_s132_6.0.0.dir/__/__/mesh/core/src/flash_manager.c.obj
 .bss.m_cache_index
                0x20005a55        0x1 examples/dfu/CMakeFiles/dfu_no_serial_nrf52832_xxAA_s132_6.0.0.dir/__/__/mesh/core/src/replay_cache.c.obj
 *fill*         0x20005a56        0x2 
 .bss.m_replay_cache
                0x20005a58      0x200 examples/dfu/CMakeFiles/dfu_no_serial_nrf52832_xxAA_s132_6.0.0.dir/__/__/mesh/core/src/replay_cache.c.obj
 .bss.m_bearer_count
                0x20005c58        0x1 examples/dfu/CMakeFiles/dfu_no_serial_nrf52832_xxAA_s132_6.0.0.dir/__/__/mesh/core/src/core_tx.c.obj
 *fill*         0x20005c59        0x3 
 .bss.m_tx_complete_callback
                0x20005c5c        0x4 examples/dfu/CMakeFiles/dfu_no_serial_nrf52832_xxAA_s132_6.0.0.dir/__/__/mesh/core/src/core_tx.c.obj
 .bss.mp_bearers
                0x20005c60        0x4 examples/dfu/CMakeFiles/dfu_no_serial_nrf52832_xxAA_s132_6.0.0.dir/__/__/mesh/core/src/core_tx.c.obj
 .bss.m_hb_core_evt_handler
                0x20005c64        0x8 examples/dfu/CMakeFiles/dfu_no_serial_nrf52832_xxAA_s132_6.0.0.dir/__/__/mesh/core/src/heartbeat.c.obj
 .bss.m_hb_pending_feat_msg
                0x20005c6c        0x1 examples/dfu/CMakeFiles/dfu_no_serial_nrf52832_xxAA_s132_6.0.0.dir/__/__/mesh/core/src/heartbeat.c.obj
 .bss.m_hb_pending_pub_msg
                0x20005c6d        0x1 examples/dfu/CMakeFiles/dfu_no_serial_nrf52832_xxAA_s132_6.0.0.dir/__/__/mesh/core/src/heartbeat.c.obj
 .bss.m_heartbeat_init_done
                0x20005c6e        0x1 examples/dfu/CMakeFiles/dfu_no_serial_nrf52832_xxAA_s132_6.0.0.dir/__/__/mesh/core/src/heartbeat.c.obj
 *fill*         0x20005c6f        0x1 
 .bss.m_heartbeat_subscription
                0x20005c70       0x10 examples/dfu/CMakeFiles/dfu_no_serial_nrf52832_xxAA_s132_6.0.0.dir/__/__/mesh/core/src/heartbeat.c.obj
 .bss.m_publication_count_decrement_cb
                0x20005c80        0x4 examples/dfu/CMakeFiles/dfu_no_serial_nrf52832_xxAA_s132_6.0.0.dir/__/__/mesh/core/src/heartbeat.c.obj
 .bss.m_publication_get_cb
                0x20005c84        0x4 examples/dfu/CMakeFiles/dfu_no_serial_nrf52832_xxAA_s132_6.0.0.dir/__/__/mesh/core/src/heartbeat.c.obj
 .bss.m_publication_timer
                0x20005c88       0x1c examples/dfu/CMakeFiles/dfu_no_serial_nrf52832_xxAA_s132_6.0.0.dir/__/__/mesh/core/src/heartbeat.c.obj
 .bss.m_subscription_timer
                0x20005ca4       0x18 examples/dfu/CMakeFiles/dfu_no_serial_nrf52832_xxAA_s132_6.0.0.dir/__/__/mesh/core/src/heartbeat.c.obj
 .bss.m_adv     0x20005cbc       0x98 examples/dfu/CMakeFiles/dfu_no_serial_nrf52832_xxAA_s132_6.0.0.dir/__/__/mesh/core/src/net_beacon.c.obj
 .bss.m_adv_buf
                0x20005d54       0x34 examples/dfu/CMakeFiles/dfu_no_serial_nrf52832_xxAA_s132_6.0.0.dir/__/__/mesh/core/src/net_beacon.c.obj
 .bss.m_beacon_salt
                0x20005d88       0x10 examples/dfu/CMakeFiles/dfu_no_serial_nrf52832_xxAA_s132_6.0.0.dir/__/__/mesh/core/src/net_beacon.c.obj
 .bss.m_enabled
                0x20005d98        0x1 examples/dfu/CMakeFiles/dfu_no_serial_nrf52832_xxAA_s132_6.0.0.dir/__/__/mesh/core/src/net_beacon.c.obj
 *fill*         0x20005d99        0x3 
 .bss.m_tx_timer
                0x20005d9c       0x18 examples/dfu/CMakeFiles/dfu_no_serial_nrf52832_xxAA_s132_6.0.0.dir/__/__/mesh/core/src/net_beacon.c.obj
 .bss.mp_beacon_info
                0x20005db4        0x4 examples/dfu/CMakeFiles/dfu_no_serial_nrf52832_xxAA_s132_6.0.0.dir/__/__/mesh/core/src/net_beacon.c.obj
 .bss.m_bearer  0x20005db8        0xc examples/dfu/CMakeFiles/dfu_no_serial_nrf52832_xxAA_s132_6.0.0.dir/__/__/mesh/core/src/core_tx_adv.c.obj
 .bss.m_bearer_roles
                0x20005dc4      0x138 examples/dfu/CMakeFiles/dfu_no_serial_nrf52832_xxAA_s132_6.0.0.dir/__/__/mesh/core/src/core_tx_adv.c.obj
 .bss.m_current_alloc
                0x20005efc        0x8 examples/dfu/CMakeFiles/dfu_no_serial_nrf52832_xxAA_s132_6.0.0.dir/__/__/mesh/core/src/core_tx_adv.c.obj
 .bss.m_originator_adv_packet_buffer
                0x20005f04      0x100 examples/dfu/CMakeFiles/dfu_no_serial_nrf52832_xxAA_s132_6.0.0.dir/__/__/mesh/core/src/core_tx_adv.c.obj
 .bss.m_relay_adv_packet_buffer
                0x20006004       0x80 examples/dfu/CMakeFiles/dfu_no_serial_nrf52832_xxAA_s132_6.0.0.dir/__/__/mesh/core/src/core_tx_adv.c.obj
 .bss.m_subscribers
                0x20006084        0x4 examples/dfu/CMakeFiles/dfu_no_serial_nrf52832_xxAA_s132_6.0.0.dir/__/__/mesh/bearer/src/ad_listener.c.obj
 .bss.m_adtype_filter
                0x20006088       0x38 examples/dfu/CMakeFiles/dfu_no_serial_nrf52832_xxAA_s132_6.0.0.dir/__/__/mesh/bearer/src/ad_type_filter.c.obj
 .bss.m_adv_prng
                0x200060c0       0x10 examples/dfu/CMakeFiles/dfu_no_serial_nrf52832_xxAA_s132_6.0.0.dir/__/__/mesh/bearer/src/advertiser.c.obj
 .bss.m_action_queue
                0x200060d0        0x8 examples/dfu/CMakeFiles/dfu_no_serial_nrf52832_xxAA_s132_6.0.0.dir/__/__/mesh/bearer/src/bearer_handler.c.obj
 .bss.m_end_time
                0x200060d8        0x4 examples/dfu/CMakeFiles/dfu_no_serial_nrf52832_xxAA_s132_6.0.0.dir/__/__/mesh/bearer/src/bearer_handler.c.obj
 .bss.m_scanner_is_active
                0x200060dc        0x1 examples/dfu/CMakeFiles/dfu_no_serial_nrf52832_xxAA_s132_6.0.0.dir/__/__/mesh/bearer/src/bearer_handler.c.obj
 .bss.m_stopped
                0x200060dd        0x1 examples/dfu/CMakeFiles/dfu_no_serial_nrf52832_xxAA_s132_6.0.0.dir/__/__/mesh/bearer/src/bearer_handler.c.obj
 *fill*         0x200060de        0x2 
 .bss.mp_action
                0x200060e0        0x4 examples/dfu/CMakeFiles/dfu_no_serial_nrf52832_xxAA_s132_6.0.0.dir/__/__/mesh/bearer/src/bearer_handler.c.obj
 .bss.m_next_channel_index
                0x200060e4        0x1 examples/dfu/CMakeFiles/dfu_no_serial_nrf52832_xxAA_s132_6.0.0.dir/__/__/mesh/bearer/src/broadcast.c.obj
 *fill*         0x200060e5        0x3 
 .bss.m_accepted_amount
                0x200060e8        0x4 examples/dfu/CMakeFiles/dfu_no_serial_nrf52832_xxAA_s132_6.0.0.dir/__/__/mesh/bearer/src/filter_engine.c.obj
 .bss.m_filter_list_head
                0x200060ec        0x4 examples/dfu/CMakeFiles/dfu_no_serial_nrf52832_xxAA_s132_6.0.0.dir/__/__/mesh/bearer/src/filter_engine.c.obj
 .bss.m_scanner
                0x200060f0      0x290 examples/dfu/CMakeFiles/dfu_no_serial_nrf52832_xxAA_s132_6.0.0.dir/__/__/mesh/bearer/src/scanner.c.obj
 .bss._acDownBuffer
                0x20006380       0x80 external/rtt/librtt_nrf52832_xxAA.a(SEGGER_RTT.c.obj)
 .bss._acUpBuffer
                0x20006400      0x400 external/rtt/librtt_nrf52832_xxAA.a(SEGGER_RTT.c.obj)
 .bss.__malloc_free_list
                0x20006800        0x4 c:/mesh/arm_gcc/bin/../lib/gcc/arm-none-eabi/6.3.1/../../../../arm-none-eabi/lib/thumb/v7e-m/fpv4-sp/hard\libc_nano.a(lib_a-nano-mallocr.o)
                0x20006800                __malloc_free_list
 .bss.__malloc_sbrk_start
                0x20006804        0x4 c:/mesh/arm_gcc/bin/../lib/gcc/arm-none-eabi/6.3.1/../../../../arm-none-eabi/lib/thumb/v7e-m/fpv4-sp/hard\libc_nano.a(lib_a-nano-mallocr.o)
                0x20006804                __malloc_sbrk_start
 .bss.heap_end.5239
                0x20006808        0x4 c:/mesh/arm_gcc/bin/../lib/gcc/arm-none-eabi/6.3.1/../../../../arm-none-eabi/lib/thumb/v7e-m/fpv4-sp/hard\libnosys.a(sbrk.o)
 *(COMMON)
 COMMON         0x2000680c        0x8 examples/dfu/CMakeFiles/dfu_no_serial_nrf52832_xxAA_s132_6.0.0.dir/src/main.c.obj
                0x2000680c                bank_addr
                0x20006810                rom_length
 COMMON         0x20006814        0xc examples/dfu/CMakeFiles/dfu_no_serial_nrf52832_xxAA_s132_6.0.0.dir/__/common/src/mesh_softdevice_init.c.obj
                0x20006814                nrf_nvic_state
 COMMON         0x20006820        0x4 examples/dfu/CMakeFiles/dfu_no_serial_nrf52832_xxAA_s132_6.0.0.dir/__/__/mesh/dfu/src/nrf_mesh_dfu.c.obj
                0x20006820                m_cmd_handler
 COMMON         0x20006824       0x24 examples/dfu/CMakeFiles/dfu_no_serial_nrf52832_xxAA_s132_6.0.0.dir/__/__/mesh/core/src/core_tx.c.obj
                0x20006824                m_packet
 COMMON         0x20006848       0x78 external/rtt/librtt_nrf52832_xxAA.a(SEGGER_RTT.c.obj)
                0x20006848                _SEGGER_RTT
 COMMON         0x200068c0        0x4 c:/mesh/arm_gcc/bin/../lib/gcc/arm-none-eabi/6.3.1/../../../../arm-none-eabi/lib/thumb/v7e-m/fpv4-sp/hard\libc_nano.a(lib_a-reent.o)
                0x200068c0                errno
                0x200068c4                . = ALIGN (0x4)
                0x200068c4                __bss_end__ = .

.heap           0x200068c8     0x2000
                0x200068c8                __HeapBase = .
                0x200068c8                __end__ = .
                0x200068c8                PROVIDE (end, .)
 *(.heap*)
 .heap          0x200068c8     0x2000 examples/dfu/CMakeFiles/dfu_no_serial_nrf52832_xxAA_s132_6.0.0.dir/C_/b/nRF5_SDK_15.0.0_a53641a/modules/nrfx/mdk/gcc_startup_nrf52.S.obj
                0x200088c8                __HeapLimit = .

.stack_dummy    0x200068c8     0x2000
 *(.stack*)
 .stack         0x200068c8     0x2000 examples/dfu/CMakeFiles/dfu_no_serial_nrf52832_xxAA_s132_6.0.0.dir/C_/b/nRF5_SDK_15.0.0_a53641a/modules/nrfx/mdk/gcc_startup_nrf52.S.obj
                0x2000fd00                __StackTop = (ORIGIN (RAM) + LENGTH (RAM))
                0x2000dd00                __StackLimit = (__StackTop - SIZEOF (.stack_dummy))
                0x2000fd00                PROVIDE (__stack, __StackTop)
                0x00000001                ASSERT ((__StackLimit >= __HeapLimit), region RAM overflowed with stack)
                0x00000150                DataInitFlashUsed = (__bss_start__ - __data_start__)
                0x0001f1a0                CodeFlashUsed = (__etext - ORIGIN (FLASH))
                0x0001f2f0                TotalFlashUsed = (CodeFlashUsed + DataInitFlashUsed)
                0x00000001                ASSERT ((TotalFlashUsed <= LENGTH (FLASH)), region FLASH overflowed with .data and user data)
OUTPUT(examples\dfu\dfu_no_serial_nrf52832_xxAA_s132_6.0.0.elf elf32-littlearm)

.ARM.attributes
                0x00000000       0x30
 .ARM.attributes
                0x00000000       0x22 c:/mesh/arm_gcc/bin/../lib/gcc/arm-none-eabi/6.3.1/thumb/v7e-m/fpv4-sp/hard/crti.o
 .ARM.attributes
                0x00000022       0x34 c:/mesh/arm_gcc/bin/../lib/gcc/arm-none-eabi/6.3.1/thumb/v7e-m/fpv4-sp/hard/crtbegin.o
 .ARM.attributes
                0x00000056       0x20 c:/mesh/arm_gcc/bin/../lib/gcc/arm-none-eabi/6.3.1/../../../../arm-none-eabi/lib/thumb/v7e-m/fpv4-sp/hard/crt0.o
 .ARM.attributes
                0x00000076       0x39 examples/dfu/CMakeFiles/dfu_no_serial_nrf52832_xxAA_s132_6.0.0.dir/src/main.c.obj
 .ARM.attributes
                0x000000af       0x39 examples/dfu/CMakeFiles/dfu_no_serial_nrf52832_xxAA_s132_6.0.0.dir/__/__/mesh/stack/src/mesh_stack.c.obj
 .ARM.attributes
                0x000000e8       0x39 examples/dfu/CMakeFiles/dfu_no_serial_nrf52832_xxAA_s132_6.0.0.dir/__/common/src/mesh_softdevice_init.c.obj
 .ARM.attributes
                0x00000121       0x39 examples/dfu/CMakeFiles/dfu_no_serial_nrf52832_xxAA_s132_6.0.0.dir/__/common/src/mesh_provisionee.c.obj
 .ARM.attributes
                0x0000015a       0x39 examples/dfu/CMakeFiles/dfu_no_serial_nrf52832_xxAA_s132_6.0.0.dir/__/common/src/simple_hal.c.obj
 .ARM.attributes
                0x00000193       0x39 examples/dfu/CMakeFiles/dfu_no_serial_nrf52832_xxAA_s132_6.0.0.dir/__/__/mesh/access/src/access_publish.c.obj
 .ARM.attributes
                0x000001cc       0x39 examples/dfu/CMakeFiles/dfu_no_serial_nrf52832_xxAA_s132_6.0.0.dir/__/__/mesh/access/src/access.c.obj
 .ARM.attributes
                0x00000205       0x39 examples/dfu/CMakeFiles/dfu_no_serial_nrf52832_xxAA_s132_6.0.0.dir/__/__/mesh/access/src/access_reliable.c.obj
 .ARM.attributes
                0x0000023e       0x39 examples/dfu/CMakeFiles/dfu_no_serial_nrf52832_xxAA_s132_6.0.0.dir/__/__/mesh/access/src/device_state_manager.c.obj
 .ARM.attributes
                0x00000277       0x39 examples/dfu/CMakeFiles/dfu_no_serial_nrf52832_xxAA_s132_6.0.0.dir/__/__/models/config/src/composition_data.c.obj
 .ARM.attributes
                0x000002b0       0x39 examples/dfu/CMakeFiles/dfu_no_serial_nrf52832_xxAA_s132_6.0.0.dir/__/__/models/config/src/config_server.c.obj
 .ARM.attributes
                0x000002e9       0x39 examples/dfu/CMakeFiles/dfu_no_serial_nrf52832_xxAA_s132_6.0.0.dir/__/__/models/config/src/packed_index_list.c.obj
 .ARM.attributes
                0x00000322       0x39 examples/dfu/CMakeFiles/dfu_no_serial_nrf52832_xxAA_s132_6.0.0.dir/__/__/models/health/src/health_server.c.obj
 .ARM.attributes
                0x0000035b       0x39 examples/dfu/CMakeFiles/dfu_no_serial_nrf52832_xxAA_s132_6.0.0.dir/__/__/mesh/prov/src/prov_provisioner.c.obj
 .ARM.attributes
                0x00000394       0x39 examples/dfu/CMakeFiles/dfu_no_serial_nrf52832_xxAA_s132_6.0.0.dir/__/__/mesh/prov/src/prov_provisionee.c.obj
 .ARM.attributes
                0x000003cd       0x39 examples/dfu/CMakeFiles/dfu_no_serial_nrf52832_xxAA_s132_6.0.0.dir/__/__/mesh/prov/src/nrf_mesh_prov.c.obj
 .ARM.attributes
                0x00000406       0x39 examples/dfu/CMakeFiles/dfu_no_serial_nrf52832_xxAA_s132_6.0.0.dir/__/__/mesh/prov/src/provisioning.c.obj
 .ARM.attributes
                0x0000043f       0x39 examples/dfu/CMakeFiles/dfu_no_serial_nrf52832_xxAA_s132_6.0.0.dir/__/__/mesh/prov/src/prov_beacon.c.obj
 .ARM.attributes
                0x00000478       0x39 examples/dfu/CMakeFiles/dfu_no_serial_nrf52832_xxAA_s132_6.0.0.dir/__/__/mesh/prov/src/prov_utils.c.obj
 .ARM.attributes
                0x000004b1       0x39 examples/dfu/CMakeFiles/dfu_no_serial_nrf52832_xxAA_s132_6.0.0.dir/__/__/mesh/prov/src/prov_bearer_adv.c.obj
 .ARM.attributes
                0x000004ea       0x39 examples/dfu/CMakeFiles/dfu_no_serial_nrf52832_xxAA_s132_6.0.0.dir/__/__/mesh/dfu/src/nrf_mesh_dfu.c.obj
 .ARM.attributes
                0x00000523       0x39 examples/dfu/CMakeFiles/dfu_no_serial_nrf52832_xxAA_s132_6.0.0.dir/__/common/src/app_error_weak.c.obj
 .ARM.attributes
                0x0000055c       0x39 examples/dfu/CMakeFiles/dfu_no_serial_nrf52832_xxAA_s132_6.0.0.dir/__/common/src/assertion_handler_weak.c.obj
 .ARM.attributes
                0x00000595       0x39 examples/dfu/CMakeFiles/dfu_no_serial_nrf52832_xxAA_s132_6.0.0.dir/__/__/mesh/core/src/nrf_mesh_configure.c.obj
 .ARM.attributes
                0x000005ce       0x39 examples/dfu/CMakeFiles/dfu_no_serial_nrf52832_xxAA_s132_6.0.0.dir/__/__/mesh/core/src/aes.c.obj
 .ARM.attributes
                0x00000607       0x39 examples/dfu/CMakeFiles/dfu_no_serial_nrf52832_xxAA_s132_6.0.0.dir/__/__/mesh/core/src/msg_cache.c.obj
 .ARM.attributes
                0x00000640       0x39 examples/dfu/CMakeFiles/dfu_no_serial_nrf52832_xxAA_s132_6.0.0.dir/__/__/mesh/core/src/transport.c.obj
 .ARM.attributes
                0x00000679       0x39 examples/dfu/CMakeFiles/dfu_no_serial_nrf52832_xxAA_s132_6.0.0.dir/__/__/mesh/core/src/event.c.obj
 .ARM.attributes
                0x000006b2       0x39 examples/dfu/CMakeFiles/dfu_no_serial_nrf52832_xxAA_s132_6.0.0.dir/__/__/mesh/core/src/packet_buffer.c.obj
 .ARM.attributes
                0x000006eb       0x39 examples/dfu/CMakeFiles/dfu_no_serial_nrf52832_xxAA_s132_6.0.0.dir/__/__/mesh/core/src/flash_manager_defrag.c.obj
 .ARM.attributes
                0x00000724       0x39 examples/dfu/CMakeFiles/dfu_no_serial_nrf52832_xxAA_s132_6.0.0.dir/__/__/mesh/core/src/fifo.c.obj
 .ARM.attributes
                0x0000075d       0x39 examples/dfu/CMakeFiles/dfu_no_serial_nrf52832_xxAA_s132_6.0.0.dir/__/__/mesh/core/src/nrf_flash.c.obj
 .ARM.attributes
                0x00000796       0x39 examples/dfu/CMakeFiles/dfu_no_serial_nrf52832_xxAA_s132_6.0.0.dir/__/__/mesh/core/src/packet_mgr.c.obj
 .ARM.attributes
                0x000007cf       0x39 examples/dfu/CMakeFiles/dfu_no_serial_nrf52832_xxAA_s132_6.0.0.dir/__/__/mesh/core/src/net_state.c.obj
 .ARM.attributes
                0x00000808       0x39 examples/dfu/CMakeFiles/dfu_no_serial_nrf52832_xxAA_s132_6.0.0.dir/__/__/mesh/core/src/mesh_flash.c.obj
 .ARM.attributes
                0x00000841       0x39 examples/dfu/CMakeFiles/dfu_no_serial_nrf52832_xxAA_s132_6.0.0.dir/__/__/mesh/core/src/nrf_mesh_utils.c.obj
 .ARM.attributes
                0x0000087a       0x39 examples/dfu/CMakeFiles/dfu_no_serial_nrf52832_xxAA_s132_6.0.0.dir/__/__/mesh/core/src/nrf_mesh.c.obj
 .ARM.attributes
                0x000008b3       0x39 examples/dfu/CMakeFiles/dfu_no_serial_nrf52832_xxAA_s132_6.0.0.dir/__/__/mesh/core/src/queue.c.obj
 .ARM.attributes
                0x000008ec       0x39 examples/dfu/CMakeFiles/dfu_no_serial_nrf52832_xxAA_s132_6.0.0.dir/__/__/mesh/core/src/hal.c.obj
 .ARM.attributes
                0x00000925       0x39 examples/dfu/CMakeFiles/dfu_no_serial_nrf52832_xxAA_s132_6.0.0.dir/__/__/mesh/core/src/aes_cmac.c.obj
 .ARM.attributes
                0x0000095e       0x39 examples/dfu/CMakeFiles/dfu_no_serial_nrf52832_xxAA_s132_6.0.0.dir/__/__/mesh/core/src/timer_scheduler.c.obj
 .ARM.attributes
                0x00000997       0x39 examples/dfu/CMakeFiles/dfu_no_serial_nrf52832_xxAA_s132_6.0.0.dir/__/__/mesh/core/src/timer.c.obj
 .ARM.attributes
                0x000009d0       0x39 examples/dfu/CMakeFiles/dfu_no_serial_nrf52832_xxAA_s132_6.0.0.dir/__/__/mesh/core/src/ticker.c.obj
 .ARM.attributes
                0x00000a09       0x39 examples/dfu/CMakeFiles/dfu_no_serial_nrf52832_xxAA_s132_6.0.0.dir/__/__/mesh/core/src/rand.c.obj
 .ARM.attributes
                0x00000a42       0x39 examples/dfu/CMakeFiles/dfu_no_serial_nrf52832_xxAA_s132_6.0.0.dir/__/__/mesh/core/src/nrf_mesh_opt.c.obj
 .ARM.attributes
                0x00000a7b       0x39 examples/dfu/CMakeFiles/dfu_no_serial_nrf52832_xxAA_s132_6.0.0.dir/__/__/mesh/core/src/timeslot.c.obj
 .ARM.attributes
                0x00000ab4       0x39 examples/dfu/CMakeFiles/dfu_no_serial_nrf52832_xxAA_s132_6.0.0.dir/__/__/mesh/core/src/bearer_event.c.obj
 .ARM.attributes
                0x00000aed       0x39 examples/dfu/CMakeFiles/dfu_no_serial_nrf52832_xxAA_s132_6.0.0.dir/__/__/mesh/core/src/enc.c.obj
 .ARM.attributes
                0x00000b26       0x39 examples/dfu/CMakeFiles/dfu_no_serial_nrf52832_xxAA_s132_6.0.0.dir/__/__/mesh/core/src/network.c.obj
 .ARM.attributes
                0x00000b5f       0x39 examples/dfu/CMakeFiles/dfu_no_serial_nrf52832_xxAA_s132_6.0.0.dir/__/__/mesh/core/src/net_packet.c.obj
 .ARM.attributes
                0x00000b98       0x39 examples/dfu/CMakeFiles/dfu_no_serial_nrf52832_xxAA_s132_6.0.0.dir/__/__/mesh/core/src/msqueue.c.obj
 .ARM.attributes
                0x00000bd1       0x39 examples/dfu/CMakeFiles/dfu_no_serial_nrf52832_xxAA_s132_6.0.0.dir/__/__/mesh/core/src/nrf_mesh_keygen.c.obj
 .ARM.attributes
                0x00000c0a       0x39 examples/dfu/CMakeFiles/dfu_no_serial_nrf52832_xxAA_s132_6.0.0.dir/__/__/mesh/core/src/list.c.obj
 .ARM.attributes
                0x00000c43       0x39 examples/dfu/CMakeFiles/dfu_no_serial_nrf52832_xxAA_s132_6.0.0.dir/__/__/mesh/core/src/log.c.obj
 .ARM.attributes
                0x00000c7c       0x39 examples/dfu/CMakeFiles/dfu_no_serial_nrf52832_xxAA_s132_6.0.0.dir/__/__/mesh/core/src/flash_manager.c.obj
 .ARM.attributes
                0x00000cb5       0x39 examples/dfu/CMakeFiles/dfu_no_serial_nrf52832_xxAA_s132_6.0.0.dir/__/__/mesh/core/src/ccm_soft.c.obj
 .ARM.attributes
                0x00000cee       0x39 examples/dfu/CMakeFiles/dfu_no_serial_nrf52832_xxAA_s132_6.0.0.dir/__/__/mesh/core/src/replay_cache.c.obj
 .ARM.attributes
                0x00000d27       0x39 examples/dfu/CMakeFiles/dfu_no_serial_nrf52832_xxAA_s132_6.0.0.dir/__/__/mesh/core/src/beacon.c.obj
 .ARM.attributes
                0x00000d60       0x39 examples/dfu/CMakeFiles/dfu_no_serial_nrf52832_xxAA_s132_6.0.0.dir/__/__/mesh/core/src/flash_manager_internal.c.obj
 .ARM.attributes
                0x00000d99       0x39 examples/dfu/CMakeFiles/dfu_no_serial_nrf52832_xxAA_s132_6.0.0.dir/__/__/mesh/core/src/core_tx.c.obj
 .ARM.attributes
                0x00000dd2       0x39 examples/dfu/CMakeFiles/dfu_no_serial_nrf52832_xxAA_s132_6.0.0.dir/__/__/mesh/core/src/heartbeat.c.obj
 .ARM.attributes
                0x00000e0b       0x39 examples/dfu/CMakeFiles/dfu_no_serial_nrf52832_xxAA_s132_6.0.0.dir/__/__/mesh/core/src/net_beacon.c.obj
 .ARM.attributes
                0x00000e44       0x39 examples/dfu/CMakeFiles/dfu_no_serial_nrf52832_xxAA_s132_6.0.0.dir/__/__/mesh/core/src/core_tx_adv.c.obj
 .ARM.attributes
                0x00000e7d       0x39 examples/dfu/CMakeFiles/dfu_no_serial_nrf52832_xxAA_s132_6.0.0.dir/__/__/mesh/bearer/src/ad_listener.c.obj
 .ARM.attributes
                0x00000eb6       0x39 examples/dfu/CMakeFiles/dfu_no_serial_nrf52832_xxAA_s132_6.0.0.dir/__/__/mesh/bearer/src/ad_type_filter.c.obj
 .ARM.attributes
                0x00000eef       0x39 examples/dfu/CMakeFiles/dfu_no_serial_nrf52832_xxAA_s132_6.0.0.dir/__/__/mesh/bearer/src/advertiser.c.obj
 .ARM.attributes
                0x00000f28       0x39 examples/dfu/CMakeFiles/dfu_no_serial_nrf52832_xxAA_s132_6.0.0.dir/__/__/mesh/bearer/src/bearer_handler.c.obj
 .ARM.attributes
                0x00000f61       0x39 examples/dfu/CMakeFiles/dfu_no_serial_nrf52832_xxAA_s132_6.0.0.dir/__/__/mesh/bearer/src/broadcast.c.obj
 .ARM.attributes
                0x00000f9a       0x39 examples/dfu/CMakeFiles/dfu_no_serial_nrf52832_xxAA_s132_6.0.0.dir/__/__/mesh/bearer/src/filter_engine.c.obj
 .ARM.attributes
                0x00000fd3       0x39 examples/dfu/CMakeFiles/dfu_no_serial_nrf52832_xxAA_s132_6.0.0.dir/__/__/mesh/bearer/src/radio_config.c.obj
 .ARM.attributes
                0x0000100c       0x39 examples/dfu/CMakeFiles/dfu_no_serial_nrf52832_xxAA_s132_6.0.0.dir/__/__/mesh/bearer/src/scanner.c.obj
 .ARM.attributes
                0x00001045       0x39 examples/dfu/CMakeFiles/dfu_no_serial_nrf52832_xxAA_s132_6.0.0.dir/C_/b/nRF5_SDK_15.0.0_a53641a/modules/nrfx/mdk/system_nrf52.c.obj
 .ARM.attributes
                0x0000107e       0x20 examples/dfu/CMakeFiles/dfu_no_serial_nrf52832_xxAA_s132_6.0.0.dir/C_/b/nRF5_SDK_15.0.0_a53641a/modules/nrfx/mdk/gcc_startup_nrf52.S.obj
 .ARM.attributes
                0x0000109e       0x39 examples/dfu/CMakeFiles/dfu_no_serial_nrf52832_xxAA_s132_6.0.0.dir/C_/b/nRF5_SDK_15.0.0_a53641a/components/libraries/util/app_error.c.obj
 .ARM.attributes
                0x000010d7       0x39 examples/dfu/CMakeFiles/dfu_no_serial_nrf52832_xxAA_s132_6.0.0.dir/C_/b/nRF5_SDK_15.0.0_a53641a/components/libraries/util/app_error_handler_gcc.c.obj
 .ARM.attributes
                0x00001110       0x39 external/rtt/librtt_nrf52832_xxAA.a(SEGGER_RTT.c.obj)
 .ARM.attributes
                0x00001149       0x39 external/rtt/librtt_nrf52832_xxAA.a(SEGGER_RTT_printf.c.obj)
 .ARM.attributes
                0x00001182       0x39 external/micro-ecc/libuECC_nrf52832_xxAA.a(uECC.c.obj)
 .ARM.attributes
                0x000011bb       0x34 c:/mesh/arm_gcc/bin/../lib/gcc/arm-none-eabi/6.3.1/../../../../arm-none-eabi/lib/thumb/v7e-m/fpv4-sp/hard\libc_nano.a(lib_a-exit.o)
 .ARM.attributes
                0x000011ef       0x34 c:/mesh/arm_gcc/bin/../lib/gcc/arm-none-eabi/6.3.1/../../../../arm-none-eabi/lib/thumb/v7e-m/fpv4-sp/hard\libc_nano.a(lib_a-impure.o)
 .ARM.attributes
                0x00001223       0x34 c:/mesh/arm_gcc/bin/../lib/gcc/arm-none-eabi/6.3.1/../../../../arm-none-eabi/lib/thumb/v7e-m/fpv4-sp/hard\libc_nano.a(lib_a-init.o)
 .ARM.attributes
                0x00001257       0x34 c:/mesh/arm_gcc/bin/../lib/gcc/arm-none-eabi/6.3.1/../../../../arm-none-eabi/lib/thumb/v7e-m/fpv4-sp/hard\libc_nano.a(lib_a-malloc.o)
 .ARM.attributes
                0x0000128b       0x34 c:/mesh/arm_gcc/bin/../lib/gcc/arm-none-eabi/6.3.1/../../../../arm-none-eabi/lib/thumb/v7e-m/fpv4-sp/hard\libc_nano.a(lib_a-memcmp.o)
 .ARM.attributes
                0x000012bf       0x34 c:/mesh/arm_gcc/bin/../lib/gcc/arm-none-eabi/6.3.1/../../../../arm-none-eabi/lib/thumb/v7e-m/fpv4-sp/hard\libc_nano.a(lib_a-memcpy-stub.o)
 .ARM.attributes
                0x000012f3       0x34 c:/mesh/arm_gcc/bin/../lib/gcc/arm-none-eabi/6.3.1/../../../../arm-none-eabi/lib/thumb/v7e-m/fpv4-sp/hard\libc_nano.a(lib_a-memset.o)
 .ARM.attributes
                0x00001327       0x34 c:/mesh/arm_gcc/bin/../lib/gcc/arm-none-eabi/6.3.1/../../../../arm-none-eabi/lib/thumb/v7e-m/fpv4-sp/hard\libc_nano.a(lib_a-nano-freer.o)
 .ARM.attributes
                0x0000135b       0x34 c:/mesh/arm_gcc/bin/../lib/gcc/arm-none-eabi/6.3.1/../../../../arm-none-eabi/lib/thumb/v7e-m/fpv4-sp/hard\libc_nano.a(lib_a-nano-mallocr.o)
 .ARM.attributes
                0x0000138f       0x34 c:/mesh/arm_gcc/bin/../lib/gcc/arm-none-eabi/6.3.1/../../../../arm-none-eabi/lib/thumb/v7e-m/fpv4-sp/hard\libc_nano.a(lib_a-sbrkr.o)
 .ARM.attributes
                0x000013c3       0x34 c:/mesh/arm_gcc/bin/../lib/gcc/arm-none-eabi/6.3.1/../../../../arm-none-eabi/lib/thumb/v7e-m/fpv4-sp/hard\libc_nano.a(lib_a-strcpy.o)
 .ARM.attributes
                0x000013f7       0x1b c:/mesh/arm_gcc/bin/../lib/gcc/arm-none-eabi/6.3.1/../../../../arm-none-eabi/lib/thumb/v7e-m/fpv4-sp/hard\libc_nano.a(lib_a-strlen.o)
 .ARM.attributes
                0x00001412       0x34 c:/mesh/arm_gcc/bin/../lib/gcc/arm-none-eabi/6.3.1/../../../../arm-none-eabi/lib/thumb/v7e-m/fpv4-sp/hard\libc_nano.a(lib_a-strrchr.o)
 .ARM.attributes
                0x00001446       0x34 c:/mesh/arm_gcc/bin/../lib/gcc/arm-none-eabi/6.3.1/../../../../arm-none-eabi/lib/thumb/v7e-m/fpv4-sp/hard\libc_nano.a(lib_a-mlock.o)
 .ARM.attributes
                0x0000147a       0x34 c:/mesh/arm_gcc/bin/../lib/gcc/arm-none-eabi/6.3.1/../../../../arm-none-eabi/lib/thumb/v7e-m/fpv4-sp/hard\libc_nano.a(lib_a-reent.o)
 .ARM.attributes
                0x000014ae       0x34 c:/mesh/arm_gcc/bin/../lib/gcc/arm-none-eabi/6.3.1/../../../../arm-none-eabi/lib/thumb/v7e-m/fpv4-sp/hard\libc_nano.a(lib_a-strchr.o)
 .ARM.attributes
                0x000014e2       0x34 c:/mesh/arm_gcc/bin/../lib/gcc/arm-none-eabi/6.3.1/thumb/v7e-m/fpv4-sp/hard/crtend.o
 .ARM.attributes
                0x00001516       0x22 c:/mesh/arm_gcc/bin/../lib/gcc/arm-none-eabi/6.3.1/thumb/v7e-m/fpv4-sp/hard/crtn.o
 .ARM.attributes
                0x00001538       0x34 c:/mesh/arm_gcc/bin/../lib/gcc/arm-none-eabi/6.3.1/../../../../arm-none-eabi/lib/thumb/v7e-m/fpv4-sp/hard\libnosys.a(sbrk.o)
 .ARM.attributes
                0x0000156c       0x34 c:/mesh/arm_gcc/bin/../lib/gcc/arm-none-eabi/6.3.1/../../../../arm-none-eabi/lib/thumb/v7e-m/fpv4-sp/hard\libnosys.a(_exit.o)

.comment        0x00000000       0x7f
 .comment       0x00000000       0x7f examples/dfu/CMakeFiles/dfu_no_serial_nrf52832_xxAA_s132_6.0.0.dir/src/main.c.obj
                                 0x80 (size before relaxing)
 .comment       0x0000007f       0x80 examples/dfu/CMakeFiles/dfu_no_serial_nrf52832_xxAA_s132_6.0.0.dir/__/__/mesh/stack/src/mesh_stack.c.obj
 .comment       0x0000007f       0x80 examples/dfu/CMakeFiles/dfu_no_serial_nrf52832_xxAA_s132_6.0.0.dir/__/common/src/mesh_softdevice_init.c.obj
 .comment       0x0000007f       0x80 examples/dfu/CMakeFiles/dfu_no_serial_nrf52832_xxAA_s132_6.0.0.dir/__/common/src/mesh_provisionee.c.obj
 .comment       0x0000007f       0x80 examples/dfu/CMakeFiles/dfu_no_serial_nrf52832_xxAA_s132_6.0.0.dir/__/common/src/simple_hal.c.obj
 .comment       0x0000007f       0x80 examples/dfu/CMakeFiles/dfu_no_serial_nrf52832_xxAA_s132_6.0.0.dir/__/__/mesh/access/src/access_publish.c.obj
 .comment       0x0000007f       0x80 examples/dfu/CMakeFiles/dfu_no_serial_nrf52832_xxAA_s132_6.0.0.dir/__/__/mesh/access/src/access.c.obj
 .comment       0x0000007f       0x80 examples/dfu/CMakeFiles/dfu_no_serial_nrf52832_xxAA_s132_6.0.0.dir/__/__/mesh/access/src/access_reliable.c.obj
 .comment       0x0000007f       0x80 examples/dfu/CMakeFiles/dfu_no_serial_nrf52832_xxAA_s132_6.0.0.dir/__/__/mesh/access/src/device_state_manager.c.obj
 .comment       0x0000007f       0x80 examples/dfu/CMakeFiles/dfu_no_serial_nrf52832_xxAA_s132_6.0.0.dir/__/__/models/config/src/composition_data.c.obj
 .comment       0x0000007f       0x80 examples/dfu/CMakeFiles/dfu_no_serial_nrf52832_xxAA_s132_6.0.0.dir/__/__/models/config/src/config_server.c.obj
 .comment       0x0000007f       0x80 examples/dfu/CMakeFiles/dfu_no_serial_nrf52832_xxAA_s132_6.0.0.dir/__/__/models/config/src/packed_index_list.c.obj
 .comment       0x0000007f       0x80 examples/dfu/CMakeFiles/dfu_no_serial_nrf52832_xxAA_s132_6.0.0.dir/__/__/models/health/src/health_server.c.obj
 .comment       0x0000007f       0x80 examples/dfu/CMakeFiles/dfu_no_serial_nrf52832_xxAA_s132_6.0.0.dir/__/__/mesh/prov/src/prov_provisioner.c.obj
 .comment       0x0000007f       0x80 examples/dfu/CMakeFiles/dfu_no_serial_nrf52832_xxAA_s132_6.0.0.dir/__/__/mesh/prov/src/prov_provisionee.c.obj
 .comment       0x0000007f       0x80 examples/dfu/CMakeFiles/dfu_no_serial_nrf52832_xxAA_s132_6.0.0.dir/__/__/mesh/prov/src/nrf_mesh_prov.c.obj
 .comment       0x0000007f       0x80 examples/dfu/CMakeFiles/dfu_no_serial_nrf52832_xxAA_s132_6.0.0.dir/__/__/mesh/prov/src/provisioning.c.obj
 .comment       0x0000007f       0x80 examples/dfu/CMakeFiles/dfu_no_serial_nrf52832_xxAA_s132_6.0.0.dir/__/__/mesh/prov/src/prov_beacon.c.obj
 .comment       0x0000007f       0x80 examples/dfu/CMakeFiles/dfu_no_serial_nrf52832_xxAA_s132_6.0.0.dir/__/__/mesh/prov/src/prov_utils.c.obj
 .comment       0x0000007f       0x80 examples/dfu/CMakeFiles/dfu_no_serial_nrf52832_xxAA_s132_6.0.0.dir/__/__/mesh/prov/src/prov_bearer_adv.c.obj
 .comment       0x0000007f       0x80 examples/dfu/CMakeFiles/dfu_no_serial_nrf52832_xxAA_s132_6.0.0.dir/__/__/mesh/dfu/src/nrf_mesh_dfu.c.obj
 .comment       0x0000007f       0x80 examples/dfu/CMakeFiles/dfu_no_serial_nrf52832_xxAA_s132_6.0.0.dir/__/common/src/app_error_weak.c.obj
 .comment       0x0000007f       0x80 examples/dfu/CMakeFiles/dfu_no_serial_nrf52832_xxAA_s132_6.0.0.dir/__/common/src/assertion_handler_weak.c.obj
 .comment       0x0000007f       0x80 examples/dfu/CMakeFiles/dfu_no_serial_nrf52832_xxAA_s132_6.0.0.dir/__/__/mesh/core/src/nrf_mesh_configure.c.obj
 .comment       0x0000007f       0x80 examples/dfu/CMakeFiles/dfu_no_serial_nrf52832_xxAA_s132_6.0.0.dir/__/__/mesh/core/src/aes.c.obj
 .comment       0x0000007f       0x80 examples/dfu/CMakeFiles/dfu_no_serial_nrf52832_xxAA_s132_6.0.0.dir/__/__/mesh/core/src/msg_cache.c.obj
 .comment       0x0000007f       0x80 examples/dfu/CMakeFiles/dfu_no_serial_nrf52832_xxAA_s132_6.0.0.dir/__/__/mesh/core/src/transport.c.obj
 .comment       0x0000007f       0x80 examples/dfu/CMakeFiles/dfu_no_serial_nrf52832_xxAA_s132_6.0.0.dir/__/__/mesh/core/src/event.c.obj
 .comment       0x0000007f       0x80 examples/dfu/CMakeFiles/dfu_no_serial_nrf52832_xxAA_s132_6.0.0.dir/__/__/mesh/core/src/packet_buffer.c.obj
 .comment       0x0000007f       0x80 examples/dfu/CMakeFiles/dfu_no_serial_nrf52832_xxAA_s132_6.0.0.dir/__/__/mesh/core/src/flash_manager_defrag.c.obj
 .comment       0x0000007f       0x80 examples/dfu/CMakeFiles/dfu_no_serial_nrf52832_xxAA_s132_6.0.0.dir/__/__/mesh/core/src/fifo.c.obj
 .comment       0x0000007f       0x80 examples/dfu/CMakeFiles/dfu_no_serial_nrf52832_xxAA_s132_6.0.0.dir/__/__/mesh/core/src/nrf_flash.c.obj
 .comment       0x0000007f       0x80 examples/dfu/CMakeFiles/dfu_no_serial_nrf52832_xxAA_s132_6.0.0.dir/__/__/mesh/core/src/packet_mgr.c.obj
 .comment       0x0000007f       0x80 examples/dfu/CMakeFiles/dfu_no_serial_nrf52832_xxAA_s132_6.0.0.dir/__/__/mesh/core/src/net_state.c.obj
 .comment       0x0000007f       0x80 examples/dfu/CMakeFiles/dfu_no_serial_nrf52832_xxAA_s132_6.0.0.dir/__/__/mesh/core/src/mesh_flash.c.obj
 .comment       0x0000007f       0x80 examples/dfu/CMakeFiles/dfu_no_serial_nrf52832_xxAA_s132_6.0.0.dir/__/__/mesh/core/src/nrf_mesh_utils.c.obj
 .comment       0x0000007f       0x80 examples/dfu/CMakeFiles/dfu_no_serial_nrf52832_xxAA_s132_6.0.0.dir/__/__/mesh/core/src/nrf_mesh.c.obj
 .comment       0x0000007f       0x80 examples/dfu/CMakeFiles/dfu_no_serial_nrf52832_xxAA_s132_6.0.0.dir/__/__/mesh/core/src/queue.c.obj
 .comment       0x0000007f       0x80 examples/dfu/CMakeFiles/dfu_no_serial_nrf52832_xxAA_s132_6.0.0.dir/__/__/mesh/core/src/hal.c.obj
 .comment       0x0000007f       0x80 examples/dfu/CMakeFiles/dfu_no_serial_nrf52832_xxAA_s132_6.0.0.dir/__/__/mesh/core/src/aes_cmac.c.obj
 .comment       0x0000007f       0x80 examples/dfu/CMakeFiles/dfu_no_serial_nrf52832_xxAA_s132_6.0.0.dir/__/__/mesh/core/src/timer_scheduler.c.obj
 .comment       0x0000007f       0x80 examples/dfu/CMakeFiles/dfu_no_serial_nrf52832_xxAA_s132_6.0.0.dir/__/__/mesh/core/src/timer.c.obj
 .comment       0x0000007f       0x80 examples/dfu/CMakeFiles/dfu_no_serial_nrf52832_xxAA_s132_6.0.0.dir/__/__/mesh/core/src/ticker.c.obj
 .comment       0x0000007f       0x80 examples/dfu/CMakeFiles/dfu_no_serial_nrf52832_xxAA_s132_6.0.0.dir/__/__/mesh/core/src/rand.c.obj
 .comment       0x0000007f       0x80 examples/dfu/CMakeFiles/dfu_no_serial_nrf52832_xxAA_s132_6.0.0.dir/__/__/mesh/core/src/nrf_mesh_opt.c.obj
 .comment       0x0000007f       0x80 examples/dfu/CMakeFiles/dfu_no_serial_nrf52832_xxAA_s132_6.0.0.dir/__/__/mesh/core/src/timeslot.c.obj
 .comment       0x0000007f       0x80 examples/dfu/CMakeFiles/dfu_no_serial_nrf52832_xxAA_s132_6.0.0.dir/__/__/mesh/core/src/bearer_event.c.obj
 .comment       0x0000007f       0x80 examples/dfu/CMakeFiles/dfu_no_serial_nrf52832_xxAA_s132_6.0.0.dir/__/__/mesh/core/src/enc.c.obj
 .comment       0x0000007f       0x80 examples/dfu/CMakeFiles/dfu_no_serial_nrf52832_xxAA_s132_6.0.0.dir/__/__/mesh/core/src/network.c.obj
 .comment       0x0000007f       0x80 examples/dfu/CMakeFiles/dfu_no_serial_nrf52832_xxAA_s132_6.0.0.dir/__/__/mesh/core/src/net_packet.c.obj
 .comment       0x0000007f       0x80 examples/dfu/CMakeFiles/dfu_no_serial_nrf52832_xxAA_s132_6.0.0.dir/__/__/mesh/core/src/msqueue.c.obj
 .comment       0x0000007f       0x80 examples/dfu/CMakeFiles/dfu_no_serial_nrf52832_xxAA_s132_6.0.0.dir/__/__/mesh/core/src/nrf_mesh_keygen.c.obj
 .comment       0x0000007f       0x80 examples/dfu/CMakeFiles/dfu_no_serial_nrf52832_xxAA_s132_6.0.0.dir/__/__/mesh/core/src/list.c.obj
 .comment       0x0000007f       0x80 examples/dfu/CMakeFiles/dfu_no_serial_nrf52832_xxAA_s132_6.0.0.dir/__/__/mesh/core/src/log.c.obj
 .comment       0x0000007f       0x80 examples/dfu/CMakeFiles/dfu_no_serial_nrf52832_xxAA_s132_6.0.0.dir/__/__/mesh/core/src/flash_manager.c.obj
 .comment       0x0000007f       0x80 examples/dfu/CMakeFiles/dfu_no_serial_nrf52832_xxAA_s132_6.0.0.dir/__/__/mesh/core/src/ccm_soft.c.obj
 .comment       0x0000007f       0x80 examples/dfu/CMakeFiles/dfu_no_serial_nrf52832_xxAA_s132_6.0.0.dir/__/__/mesh/core/src/replay_cache.c.obj
 .comment       0x0000007f       0x80 examples/dfu/CMakeFiles/dfu_no_serial_nrf52832_xxAA_s132_6.0.0.dir/__/__/mesh/core/src/beacon.c.obj
 .comment       0x0000007f       0x80 examples/dfu/CMakeFiles/dfu_no_serial_nrf52832_xxAA_s132_6.0.0.dir/__/__/mesh/core/src/flash_manager_internal.c.obj
 .comment       0x0000007f       0x80 examples/dfu/CMakeFiles/dfu_no_serial_nrf52832_xxAA_s132_6.0.0.dir/__/__/mesh/core/src/core_tx.c.obj
 .comment       0x0000007f       0x80 examples/dfu/CMakeFiles/dfu_no_serial_nrf52832_xxAA_s132_6.0.0.dir/__/__/mesh/core/src/heartbeat.c.obj
 .comment       0x0000007f       0x80 examples/dfu/CMakeFiles/dfu_no_serial_nrf52832_xxAA_s132_6.0.0.dir/__/__/mesh/core/src/net_beacon.c.obj
 .comment       0x0000007f       0x80 examples/dfu/CMakeFiles/dfu_no_serial_nrf52832_xxAA_s132_6.0.0.dir/__/__/mesh/core/src/core_tx_adv.c.obj
 .comment       0x0000007f       0x80 examples/dfu/CMakeFiles/dfu_no_serial_nrf52832_xxAA_s132_6.0.0.dir/__/__/mesh/bearer/src/ad_listener.c.obj
 .comment       0x0000007f       0x80 examples/dfu/CMakeFiles/dfu_no_serial_nrf52832_xxAA_s132_6.0.0.dir/__/__/mesh/bearer/src/ad_type_filter.c.obj
 .comment       0x0000007f       0x80 examples/dfu/CMakeFiles/dfu_no_serial_nrf52832_xxAA_s132_6.0.0.dir/__/__/mesh/bearer/src/advertiser.c.obj
 .comment       0x0000007f       0x80 examples/dfu/CMakeFiles/dfu_no_serial_nrf52832_xxAA_s132_6.0.0.dir/__/__/mesh/bearer/src/bearer_handler.c.obj
 .comment       0x0000007f       0x80 examples/dfu/CMakeFiles/dfu_no_serial_nrf52832_xxAA_s132_6.0.0.dir/__/__/mesh/bearer/src/broadcast.c.obj
 .comment       0x0000007f       0x80 examples/dfu/CMakeFiles/dfu_no_serial_nrf52832_xxAA_s132_6.0.0.dir/__/__/mesh/bearer/src/filter_engine.c.obj
 .comment       0x0000007f       0x80 examples/dfu/CMakeFiles/dfu_no_serial_nrf52832_xxAA_s132_6.0.0.dir/__/__/mesh/bearer/src/radio_config.c.obj
 .comment       0x0000007f       0x80 examples/dfu/CMakeFiles/dfu_no_serial_nrf52832_xxAA_s132_6.0.0.dir/__/__/mesh/bearer/src/scanner.c.obj
 .comment       0x0000007f       0x80 examples/dfu/CMakeFiles/dfu_no_serial_nrf52832_xxAA_s132_6.0.0.dir/C_/b/nRF5_SDK_15.0.0_a53641a/modules/nrfx/mdk/system_nrf52.c.obj
 .comment       0x0000007f       0x80 examples/dfu/CMakeFiles/dfu_no_serial_nrf52832_xxAA_s132_6.0.0.dir/C_/b/nRF5_SDK_15.0.0_a53641a/components/libraries/util/app_error.c.obj
 .comment       0x0000007f       0x80 examples/dfu/CMakeFiles/dfu_no_serial_nrf52832_xxAA_s132_6.0.0.dir/C_/b/nRF5_SDK_15.0.0_a53641a/components/libraries/util/app_error_handler_gcc.c.obj
 .comment       0x0000007f       0x80 external/rtt/librtt_nrf52832_xxAA.a(SEGGER_RTT.c.obj)
 .comment       0x0000007f       0x80 external/rtt/librtt_nrf52832_xxAA.a(SEGGER_RTT_printf.c.obj)
 .comment       0x0000007f       0x80 external/micro-ecc/libuECC_nrf52832_xxAA.a(uECC.c.obj)

.debug_frame    0x00000000      0x2c4
 .debug_frame   0x00000000       0x28 c:/mesh/arm_gcc/bin/../lib/gcc/arm-none-eabi/6.3.1/../../../../arm-none-eabi/lib/thumb/v7e-m/fpv4-sp/hard\libc_nano.a(lib_a-exit.o)
 .debug_frame   0x00000028       0x2c c:/mesh/arm_gcc/bin/../lib/gcc/arm-none-eabi/6.3.1/../../../../arm-none-eabi/lib/thumb/v7e-m/fpv4-sp/hard\libc_nano.a(lib_a-init.o)
 .debug_frame   0x00000054       0x30 c:/mesh/arm_gcc/bin/../lib/gcc/arm-none-eabi/6.3.1/../../../../arm-none-eabi/lib/thumb/v7e-m/fpv4-sp/hard\libc_nano.a(lib_a-malloc.o)
 .debug_frame   0x00000084       0x28 c:/mesh/arm_gcc/bin/../lib/gcc/arm-none-eabi/6.3.1/../../../../arm-none-eabi/lib/thumb/v7e-m/fpv4-sp/hard\libc_nano.a(lib_a-memcmp.o)
 .debug_frame   0x000000ac       0x28 c:/mesh/arm_gcc/bin/../lib/gcc/arm-none-eabi/6.3.1/../../../../arm-none-eabi/lib/thumb/v7e-m/fpv4-sp/hard\libc_nano.a(lib_a-memcpy-stub.o)
 .debug_frame   0x000000d4       0x20 c:/mesh/arm_gcc/bin/../lib/gcc/arm-none-eabi/6.3.1/../../../../arm-none-eabi/lib/thumb/v7e-m/fpv4-sp/hard\libc_nano.a(lib_a-memset.o)
 .debug_frame   0x000000f4       0x38 c:/mesh/arm_gcc/bin/../lib/gcc/arm-none-eabi/6.3.1/../../../../arm-none-eabi/lib/thumb/v7e-m/fpv4-sp/hard\libc_nano.a(lib_a-nano-freer.o)
 .debug_frame   0x0000012c       0x2c c:/mesh/arm_gcc/bin/../lib/gcc/arm-none-eabi/6.3.1/../../../../arm-none-eabi/lib/thumb/v7e-m/fpv4-sp/hard\libc_nano.a(lib_a-nano-mallocr.o)
 .debug_frame   0x00000158       0x2c c:/mesh/arm_gcc/bin/../lib/gcc/arm-none-eabi/6.3.1/../../../../arm-none-eabi/lib/thumb/v7e-m/fpv4-sp/hard\libc_nano.a(lib_a-sbrkr.o)
 .debug_frame   0x00000184       0x20 c:/mesh/arm_gcc/bin/../lib/gcc/arm-none-eabi/6.3.1/../../../../arm-none-eabi/lib/thumb/v7e-m/fpv4-sp/hard\libc_nano.a(lib_a-strcpy.o)
 .debug_frame   0x000001a4       0x34 c:/mesh/arm_gcc/bin/../lib/gcc/arm-none-eabi/6.3.1/../../../../arm-none-eabi/lib/thumb/v7e-m/fpv4-sp/hard\libc_nano.a(lib_a-strrchr.o)
 .debug_frame   0x000001d8       0x30 c:/mesh/arm_gcc/bin/../lib/gcc/arm-none-eabi/6.3.1/../../../../arm-none-eabi/lib/thumb/v7e-m/fpv4-sp/hard\libc_nano.a(lib_a-mlock.o)
 .debug_frame   0x00000208       0x5c c:/mesh/arm_gcc/bin/../lib/gcc/arm-none-eabi/6.3.1/../../../../arm-none-eabi/lib/thumb/v7e-m/fpv4-sp/hard\libc_nano.a(lib_a-reent.o)
 .debug_frame   0x00000264       0x20 c:/mesh/arm_gcc/bin/../lib/gcc/arm-none-eabi/6.3.1/../../../../arm-none-eabi/lib/thumb/v7e-m/fpv4-sp/hard\libc_nano.a(lib_a-strchr.o)
 .debug_frame   0x00000284       0x20 c:/mesh/arm_gcc/bin/../lib/gcc/arm-none-eabi/6.3.1/../../../../arm-none-eabi/lib/thumb/v7e-m/fpv4-sp/hard\libnosys.a(sbrk.o)
 .debug_frame   0x000002a4       0x20 c:/mesh/arm_gcc/bin/../lib/gcc/arm-none-eabi/6.3.1/../../../../arm-none-eabi/lib/thumb/v7e-m/fpv4-sp/hard\libnosys.a(_exit.o)
