Archive member included to satisfy reference by file (symbol)

mesh/core/libmesh_core_nrf52840_xxAA.a(internal_event.c.obj)
                              examples/dfu/CMakeFiles/dfu_nrf52840_xxAA_s140_5.0.0-3.alpha.dir/__/__/mesh/serial/src/serial_handler_device.c.obj (internal_event_init)
mesh/core/libmesh_core_nrf52840_xxAA.a(nrf_mesh_configure.c.obj)
                              examples/dfu/CMakeFiles/dfu_nrf52840_xxAA_s140_5.0.0-3.alpha.dir/__/__/mesh/serial/src/serial_handler_config.c.obj (nrf_mesh_configure_device_uuid_set)
mesh/core/libmesh_core_nrf52840_xxAA.a(event.c.obj)
                              examples/dfu/CMakeFiles/dfu_nrf52840_xxAA_s140_5.0.0-3.alpha.dir/__/__/mesh/access/src/access.c.obj (event_handle)
mesh/core/libmesh_core_nrf52840_xxAA.a(packet_buffer.c.obj)
                              examples/dfu/CMakeFiles/dfu_nrf52840_xxAA_s140_5.0.0-3.alpha.dir/__/__/mesh/serial/src/serial_bearer.c.obj (packet_buffer_max_packet_len_get)
mesh/core/libmesh_core_nrf52840_xxAA.a(fifo.c.obj)
                              mesh/core/libmesh_core_nrf52840_xxAA.a(internal_event.c.obj) (fifo_init)
mesh/core/libmesh_core_nrf52840_xxAA.a(net_state.c.obj)
                              examples/dfu/CMakeFiles/dfu_nrf52840_xxAA_s140_5.0.0-3.alpha.dir/__/__/mesh/serial/src/serial_handler_mesh.c.obj (net_state_reset)
mesh/core/libmesh_core_nrf52840_xxAA.a(mesh_flash.c.obj)
                              examples/dfu/CMakeFiles/dfu_nrf52840_xxAA_s140_5.0.0-3.alpha.dir/__/__/mesh/dfu/src/nrf_mesh_dfu.c.obj (mesh_flash_user_callback_set)
mesh/core/libmesh_core_nrf52840_xxAA.a(nrf_mesh_utils.c.obj)
                              examples/dfu/CMakeFiles/dfu_nrf52840_xxAA_s140_5.0.0-3.alpha.dir/__/__/mesh/access/src/device_state_manager.c.obj (nrf_mesh_address_type_get)
mesh/core/libmesh_core_nrf52840_xxAA.a(nrf_mesh.c.obj)
                              examples/dfu/CMakeFiles/dfu_nrf52840_xxAA_s140_5.0.0-3.alpha.dir/__/nrf_mesh_sdk.c.obj (nrf_mesh_init)
mesh/core/libmesh_core_nrf52840_xxAA.a(hal.c.obj)
                              examples/dfu/CMakeFiles/dfu_nrf52840_xxAA_s140_5.0.0-3.alpha.dir/__/__/mesh/serial/src/serial_handler_device.c.obj (hal_device_reset)
mesh/core/libmesh_core_nrf52840_xxAA.a(timer_scheduler.c.obj)
                              mesh/core/libmesh_core_nrf52840_xxAA.a(nrf_mesh.c.obj) (timer_sch_init)
mesh/core/libmesh_core_nrf52840_xxAA.a(timer.c.obj)
                              mesh/core/libmesh_core_nrf52840_xxAA.a(timer_scheduler.c.obj) (timer_order_cb)
mesh/core/libmesh_core_nrf52840_xxAA.a(ticker.c.obj)
                              mesh/core/libmesh_core_nrf52840_xxAA.a(nrf_mesh.c.obj) (ticker_init)
mesh/core/libmesh_core_nrf52840_xxAA.a(rand.c.obj)
                              examples/dfu/CMakeFiles/dfu_nrf52840_xxAA_s140_5.0.0-3.alpha.dir/__/__/mesh/dfu/src/nrf_mesh_dfu.c.obj (rand_prng_get)
mesh/core/libmesh_core_nrf52840_xxAA.a(timeslot.c.obj)
                              mesh/core/libmesh_core_nrf52840_xxAA.a(nrf_mesh.c.obj) (timeslot_sd_event_handler)
mesh/core/libmesh_core_nrf52840_xxAA.a(bearer_event.c.obj)
                              mesh/core/libmesh_core_nrf52840_xxAA.a(nrf_mesh.c.obj) (bearer_event_init)
mesh/core/libmesh_core_nrf52840_xxAA.a(enc.c.obj)
                              examples/dfu/CMakeFiles/dfu_nrf52840_xxAA_s140_5.0.0-3.alpha.dir/__/__/mesh/prov/src/prov_utils.c.obj (enc_aes_cmac)
mesh/core/libmesh_core_nrf52840_xxAA.a(network.c.obj)
                              mesh/core/libmesh_core_nrf52840_xxAA.a(nrf_mesh.c.obj) (network_init)
mesh/core/libmesh_core_nrf52840_xxAA.a(msqueue.c.obj)
                              mesh/core/libmesh_core_nrf52840_xxAA.a(mesh_flash.c.obj) (msq_get)
mesh/core/libmesh_core_nrf52840_xxAA.a(nrf_mesh_keygen.c.obj)
                              examples/dfu/CMakeFiles/dfu_nrf52840_xxAA_s140_5.0.0-3.alpha.dir/__/__/mesh/access/src/device_state_manager.c.obj (nrf_mesh_keygen_aid)
mesh/core/libmesh_core_nrf52840_xxAA.a(list.c.obj)
                              mesh/core/libmesh_core_nrf52840_xxAA.a(event.c.obj) (list_add)
mesh/core/libmesh_core_nrf52840_xxAA.a(log.c.obj)
                              examples/dfu/CMakeFiles/dfu_nrf52840_xxAA_s140_5.0.0-3.alpha.dir/src/main.c.obj (log_callback_rtt)
mesh/core/libmesh_core_nrf52840_xxAA.a(flash_manager.c.obj)
                              mesh/core/libmesh_core_nrf52840_xxAA.a(nrf_mesh.c.obj) (flash_manager_init)
mesh/core/libmesh_core_nrf52840_xxAA.a(ccm_soft.c.obj)
                              mesh/core/libmesh_core_nrf52840_xxAA.a(enc.c.obj) (ccm_soft_encrypt)
mesh/core/libmesh_core_nrf52840_xxAA.a(beacon.c.obj)
                              mesh/core/libmesh_core_nrf52840_xxAA.a(nrf_mesh.c.obj) (beacon_init)
mesh/core/libmesh_core_nrf52840_xxAA.a(flash_manager_internal.c.obj)
                              mesh/core/libmesh_core_nrf52840_xxAA.a(flash_manager.c.obj) (entry_get)
mesh/core/libmesh_core_nrf52840_xxAA.a(core_tx.c.obj)
                              mesh/core/libmesh_core_nrf52840_xxAA.a(network.c.obj) (core_tx_packet_alloc)
mesh/core/libmesh_core_nrf52840_xxAA.a(heartbeat.c.obj)
                              mesh/core/libmesh_core_nrf52840_xxAA.a(network.c.obj) (heartbeat_on_feature_change_trigger)
mesh/core/libmesh_core_nrf52840_xxAA.a(net_beacon.c.obj)
                              mesh/core/libmesh_core_nrf52840_xxAA.a(network.c.obj) (net_beacon_init)
mesh/core/libmesh_core_nrf52840_xxAA.a(core_tx_adv.c.obj)
                              mesh/core/libmesh_core_nrf52840_xxAA.a(nrf_mesh.c.obj) (core_tx_adv_init)
mesh/core/libmesh_core_nrf52840_xxAA.a(ad_listener.c.obj)
                              mesh/core/libmesh_core_nrf52840_xxAA.a(nrf_mesh.c.obj) (ad_listener_subscribe)
mesh/core/libmesh_core_nrf52840_xxAA.a(ad_type_filter.c.obj)
                              mesh/core/libmesh_core_nrf52840_xxAA.a(ad_listener.c.obj) (bearer_adtype_filtering_set)
mesh/core/libmesh_core_nrf52840_xxAA.a(advertiser.c.obj)
                              mesh/core/libmesh_core_nrf52840_xxAA.a(nrf_mesh.c.obj) (advertiser_init)
mesh/core/libmesh_core_nrf52840_xxAA.a(bearer_handler.c.obj)
                              mesh/core/libmesh_core_nrf52840_xxAA.a(nrf_mesh.c.obj) (bearer_handler_init)
mesh/core/libmesh_core_nrf52840_xxAA.a(broadcast.c.obj)
                              examples/dfu/CMakeFiles/dfu_nrf52840_xxAA_s140_5.0.0-3.alpha.dir/__/__/mesh/dfu/src/nrf_mesh_dfu.c.obj (broadcast_send)
mesh/core/libmesh_core_nrf52840_xxAA.a(filter_engine.c.obj)
                              mesh/core/libmesh_core_nrf52840_xxAA.a(ad_type_filter.c.obj) (fen_filter_start)
mesh/core/libmesh_core_nrf52840_xxAA.a(radio_config.c.obj)
                              mesh/core/libmesh_core_nrf52840_xxAA.a(broadcast.c.obj) (radio_config_reset)
mesh/core/libmesh_core_nrf52840_xxAA.a(scanner.c.obj)
                              mesh/core/libmesh_core_nrf52840_xxAA.a(bearer_handler.c.obj) (scanner_radio_start)
mesh/core/libmesh_core_nrf52840_xxAA.a(aes.c.obj)
                              mesh/core/libmesh_core_nrf52840_xxAA.a(enc.c.obj) (aes_encrypt)
mesh/core/libmesh_core_nrf52840_xxAA.a(msg_cache.c.obj)
                              mesh/core/libmesh_core_nrf52840_xxAA.a(nrf_mesh.c.obj) (msg_cache_init)
mesh/core/libmesh_core_nrf52840_xxAA.a(transport.c.obj)
                              mesh/core/libmesh_core_nrf52840_xxAA.a(nrf_mesh.c.obj) (transport_init)
mesh/core/libmesh_core_nrf52840_xxAA.a(flash_manager_defrag.c.obj)
                              mesh/core/libmesh_core_nrf52840_xxAA.a(flash_manager.c.obj) (flash_manager_defrag_init)
mesh/core/libmesh_core_nrf52840_xxAA.a(nrf_flash.c.obj)
                              mesh/core/libmesh_core_nrf52840_xxAA.a(mesh_flash.c.obj) (nrf_flash_erase)
mesh/core/libmesh_core_nrf52840_xxAA.a(packet_mgr.c.obj)
                              mesh/core/libmesh_core_nrf52840_xxAA.a(nrf_mesh.c.obj) (packet_mgr_init)
mesh/core/libmesh_core_nrf52840_xxAA.a(queue.c.obj)
                              mesh/core/libmesh_core_nrf52840_xxAA.a(bearer_event.c.obj) (queue_init)
mesh/core/libmesh_core_nrf52840_xxAA.a(aes_cmac.c.obj)
                              mesh/core/libmesh_core_nrf52840_xxAA.a(enc.c.obj) (aes_cmac)
mesh/core/libmesh_core_nrf52840_xxAA.a(nrf_mesh_opt.c.obj)
                              mesh/core/libmesh_core_nrf52840_xxAA.a(heartbeat.c.obj) (nrf_mesh_opt_get)
mesh/core/libmesh_core_nrf52840_xxAA.a(replay_cache.c.obj)
                              mesh/core/libmesh_core_nrf52840_xxAA.a(transport.c.obj) (replay_cache_add)
external/rtt/librtt_nrf52840_xxAA.a(SEGGER_RTT.c.obj)
                              mesh/core/libmesh_core_nrf52840_xxAA.a(log.c.obj) (SEGGER_RTT_Write)
external/rtt/librtt_nrf52840_xxAA.a(SEGGER_RTT_printf.c.obj)
                              mesh/core/libmesh_core_nrf52840_xxAA.a(log.c.obj) (SEGGER_RTT_vprintf)
external/micro-ecc/libuECC_nrf52840_xxAA.a(uECC.c.obj)
                              examples/dfu/CMakeFiles/dfu_nrf52840_xxAA_s140_5.0.0-3.alpha.dir/__/__/mesh/prov/src/prov_utils.c.obj (uECC_secp256r1)
c:/a/gcc_arm/6/bin/../lib/gcc/arm-none-eabi/6.3.1/../../../../arm-none-eabi/lib/thumb/v7e-m/fpv4-sp/hard\libg_nano.a(lib_a-exit.o)
                              c:/a/gcc_arm/6/bin/../lib/gcc/arm-none-eabi/6.3.1/../../../../arm-none-eabi/lib/thumb/v7e-m/fpv4-sp/hard/crt0.o (exit)
c:/a/gcc_arm/6/bin/../lib/gcc/arm-none-eabi/6.3.1/../../../../arm-none-eabi/lib/thumb/v7e-m/fpv4-sp/hard\libg_nano.a(lib_a-impure.o)
                              c:/a/gcc_arm/6/bin/../lib/gcc/arm-none-eabi/6.3.1/../../../../arm-none-eabi/lib/thumb/v7e-m/fpv4-sp/hard\libg_nano.a(lib_a-exit.o) (_global_impure_ptr)
c:/a/gcc_arm/6/bin/../lib/gcc/arm-none-eabi/6.3.1/../../../../arm-none-eabi/lib/thumb/v7e-m/fpv4-sp/hard\libg_nano.a(lib_a-init.o)
                              c:/a/gcc_arm/6/bin/../lib/gcc/arm-none-eabi/6.3.1/../../../../arm-none-eabi/lib/thumb/v7e-m/fpv4-sp/hard/crt0.o (__libc_init_array)
c:/a/gcc_arm/6/bin/../lib/gcc/arm-none-eabi/6.3.1/../../../../arm-none-eabi/lib/thumb/v7e-m/fpv4-sp/hard\libg_nano.a(lib_a-malloc.o)
                              mesh/core/libmesh_core_nrf52840_xxAA.a(transport.c.obj) (malloc)
c:/a/gcc_arm/6/bin/../lib/gcc/arm-none-eabi/6.3.1/../../../../arm-none-eabi/lib/thumb/v7e-m/fpv4-sp/hard\libg_nano.a(lib_a-memcmp.o)
                              examples/dfu/CMakeFiles/dfu_nrf52840_xxAA_s140_5.0.0-3.alpha.dir/__/__/mesh/access/src/device_state_manager.c.obj (memcmp)
c:/a/gcc_arm/6/bin/../lib/gcc/arm-none-eabi/6.3.1/../../../../arm-none-eabi/lib/thumb/v7e-m/fpv4-sp/hard\libg_nano.a(lib_a-memcpy-stub.o)
                              examples/dfu/CMakeFiles/dfu_nrf52840_xxAA_s140_5.0.0-3.alpha.dir/__/__/mesh/access/src/access.c.obj (memcpy)
c:/a/gcc_arm/6/bin/../lib/gcc/arm-none-eabi/6.3.1/../../../../arm-none-eabi/lib/thumb/v7e-m/fpv4-sp/hard\libg_nano.a(lib_a-memset.o)
                              c:/a/gcc_arm/6/bin/../lib/gcc/arm-none-eabi/6.3.1/../../../../arm-none-eabi/lib/thumb/v7e-m/fpv4-sp/hard/crt0.o (memset)
c:/a/gcc_arm/6/bin/../lib/gcc/arm-none-eabi/6.3.1/../../../../arm-none-eabi/lib/thumb/v7e-m/fpv4-sp/hard\libg_nano.a(lib_a-nano-freer.o)
                              c:/a/gcc_arm/6/bin/../lib/gcc/arm-none-eabi/6.3.1/../../../../arm-none-eabi/lib/thumb/v7e-m/fpv4-sp/hard\libg_nano.a(lib_a-malloc.o) (_free_r)
c:/a/gcc_arm/6/bin/../lib/gcc/arm-none-eabi/6.3.1/../../../../arm-none-eabi/lib/thumb/v7e-m/fpv4-sp/hard\libg_nano.a(lib_a-nano-mallocr.o)
                              c:/a/gcc_arm/6/bin/../lib/gcc/arm-none-eabi/6.3.1/../../../../arm-none-eabi/lib/thumb/v7e-m/fpv4-sp/hard\libg_nano.a(lib_a-malloc.o) (_malloc_r)
c:/a/gcc_arm/6/bin/../lib/gcc/arm-none-eabi/6.3.1/../../../../arm-none-eabi/lib/thumb/v7e-m/fpv4-sp/hard\libg_nano.a(lib_a-sbrkr.o)
                              c:/a/gcc_arm/6/bin/../lib/gcc/arm-none-eabi/6.3.1/../../../../arm-none-eabi/lib/thumb/v7e-m/fpv4-sp/hard\libg_nano.a(lib_a-nano-mallocr.o) (_sbrk_r)
c:/a/gcc_arm/6/bin/../lib/gcc/arm-none-eabi/6.3.1/../../../../arm-none-eabi/lib/thumb/v7e-m/fpv4-sp/hard\libg_nano.a(lib_a-strcpy.o)
                              external/rtt/librtt_nrf52840_xxAA.a(SEGGER_RTT.c.obj) (strcpy)
c:/a/gcc_arm/6/bin/../lib/gcc/arm-none-eabi/6.3.1/../../../../arm-none-eabi/lib/thumb/v7e-m/fpv4-sp/hard\libg_nano.a(lib_a-strlen.o)
                              examples/dfu/CMakeFiles/dfu_nrf52840_xxAA_s140_5.0.0-3.alpha.dir/__/__/mesh/prov/src/prov_beacon.c.obj (strlen)
c:/a/gcc_arm/6/bin/../lib/gcc/arm-none-eabi/6.3.1/../../../../arm-none-eabi/lib/thumb/v7e-m/fpv4-sp/hard\libg_nano.a(lib_a-strrchr.o)
                              examples/dfu/CMakeFiles/dfu_nrf52840_xxAA_s140_5.0.0-3.alpha.dir/src/main.c.obj (strrchr)
c:/a/gcc_arm/6/bin/../lib/gcc/arm-none-eabi/6.3.1/../../../../arm-none-eabi/lib/thumb/v7e-m/fpv4-sp/hard\libg_nano.a(lib_a-mlock.o)
                              c:/a/gcc_arm/6/bin/../lib/gcc/arm-none-eabi/6.3.1/../../../../arm-none-eabi/lib/thumb/v7e-m/fpv4-sp/hard\libg_nano.a(lib_a-nano-freer.o) (__malloc_lock)
c:/a/gcc_arm/6/bin/../lib/gcc/arm-none-eabi/6.3.1/../../../../arm-none-eabi/lib/thumb/v7e-m/fpv4-sp/hard\libg_nano.a(lib_a-reent.o)
                              c:/a/gcc_arm/6/bin/../lib/gcc/arm-none-eabi/6.3.1/../../../../arm-none-eabi/lib/thumb/v7e-m/fpv4-sp/hard\libg_nano.a(lib_a-sbrkr.o) (errno)
c:/a/gcc_arm/6/bin/../lib/gcc/arm-none-eabi/6.3.1/../../../../arm-none-eabi/lib/thumb/v7e-m/fpv4-sp/hard\libg_nano.a(lib_a-strchr.o)
                              c:/a/gcc_arm/6/bin/../lib/gcc/arm-none-eabi/6.3.1/../../../../arm-none-eabi/lib/thumb/v7e-m/fpv4-sp/hard\libg_nano.a(lib_a-strrchr.o) (strchr)
c:/a/gcc_arm/6/bin/../lib/gcc/arm-none-eabi/6.3.1/../../../../arm-none-eabi/lib/thumb/v7e-m/fpv4-sp/hard\libnosys.a(sbrk.o)
                              c:/a/gcc_arm/6/bin/../lib/gcc/arm-none-eabi/6.3.1/../../../../arm-none-eabi/lib/thumb/v7e-m/fpv4-sp/hard\libg_nano.a(lib_a-sbrkr.o) (_sbrk)
c:/a/gcc_arm/6/bin/../lib/gcc/arm-none-eabi/6.3.1/../../../../arm-none-eabi/lib/thumb/v7e-m/fpv4-sp/hard\libnosys.a(_exit.o)
                              c:/a/gcc_arm/6/bin/../lib/gcc/arm-none-eabi/6.3.1/../../../../arm-none-eabi/lib/thumb/v7e-m/fpv4-sp/hard\libg_nano.a(lib_a-exit.o) (_exit)

Allocating common symbols
Common symbol       size              file

nrf_nvic_state      0xc               examples/dfu/CMakeFiles/dfu_nrf52840_xxAA_s140_5.0.0-3.alpha.dir/__/nrf_mesh_sdk.c.obj
bank_addr           0x4               examples/dfu/CMakeFiles/dfu_nrf52840_xxAA_s140_5.0.0-3.alpha.dir/src/main.c.obj
rom_length          0x4               examples/dfu/CMakeFiles/dfu_nrf52840_xxAA_s140_5.0.0-3.alpha.dir/src/main.c.obj
m_cmd_handler       0x4               examples/dfu/CMakeFiles/dfu_nrf52840_xxAA_s140_5.0.0-3.alpha.dir/__/__/mesh/dfu/src/nrf_mesh_dfu.c.obj
errno               0x4               c:/a/gcc_arm/6/bin/../lib/gcc/arm-none-eabi/6.3.1/../../../../arm-none-eabi/lib/thumb/v7e-m/fpv4-sp/hard\libg_nano.a(lib_a-reent.o)
m_assertion_handler
                    0x4               mesh/core/libmesh_core_nrf52840_xxAA.a(nrf_mesh.c.obj)
_SEGGER_RTT         0x78              external/rtt/librtt_nrf52840_xxAA.a(SEGGER_RTT.c.obj)

Discarded input sections

 .text          0x00000000        0x0 c:/a/gcc_arm/6/bin/../lib/gcc/arm-none-eabi/6.3.1/thumb/v7e-m/fpv4-sp/hard/crti.o
 .data          0x00000000        0x0 c:/a/gcc_arm/6/bin/../lib/gcc/arm-none-eabi/6.3.1/thumb/v7e-m/fpv4-sp/hard/crti.o
 .bss           0x00000000        0x0 c:/a/gcc_arm/6/bin/../lib/gcc/arm-none-eabi/6.3.1/thumb/v7e-m/fpv4-sp/hard/crti.o
 .data          0x00000000        0x4 c:/a/gcc_arm/6/bin/../lib/gcc/arm-none-eabi/6.3.1/thumb/v7e-m/fpv4-sp/hard/crtbegin.o
 .data          0x00000000        0x0 c:/a/gcc_arm/6/bin/../lib/gcc/arm-none-eabi/6.3.1/../../../../arm-none-eabi/lib/thumb/v7e-m/fpv4-sp/hard/crt0.o
 .bss           0x00000000        0x0 c:/a/gcc_arm/6/bin/../lib/gcc/arm-none-eabi/6.3.1/../../../../arm-none-eabi/lib/thumb/v7e-m/fpv4-sp/hard/crt0.o
 .ARM.extab     0x00000000        0x0 c:/a/gcc_arm/6/bin/../lib/gcc/arm-none-eabi/6.3.1/../../../../arm-none-eabi/lib/thumb/v7e-m/fpv4-sp/hard/crt0.o
 .text          0x00000000        0x0 examples/dfu/CMakeFiles/dfu_nrf52840_xxAA_s140_5.0.0-3.alpha.dir/src/main.c.obj
 .data          0x00000000        0x0 examples/dfu/CMakeFiles/dfu_nrf52840_xxAA_s140_5.0.0-3.alpha.dir/src/main.c.obj
 .bss           0x00000000        0x0 examples/dfu/CMakeFiles/dfu_nrf52840_xxAA_s140_5.0.0-3.alpha.dir/src/main.c.obj
 .text          0x00000000        0x0 examples/dfu/CMakeFiles/dfu_nrf52840_xxAA_s140_5.0.0-3.alpha.dir/__/nrf_mesh_sdk.c.obj
 .data          0x00000000        0x0 examples/dfu/CMakeFiles/dfu_nrf52840_xxAA_s140_5.0.0-3.alpha.dir/__/nrf_mesh_sdk.c.obj
 .bss           0x00000000        0x0 examples/dfu/CMakeFiles/dfu_nrf52840_xxAA_s140_5.0.0-3.alpha.dir/__/nrf_mesh_sdk.c.obj
 .text          0x00000000        0x0 examples/dfu/CMakeFiles/dfu_nrf52840_xxAA_s140_5.0.0-3.alpha.dir/__/__/mesh/access/src/access_publish.c.obj
 .data          0x00000000        0x0 examples/dfu/CMakeFiles/dfu_nrf52840_xxAA_s140_5.0.0-3.alpha.dir/__/__/mesh/access/src/access_publish.c.obj
 .bss           0x00000000        0x0 examples/dfu/CMakeFiles/dfu_nrf52840_xxAA_s140_5.0.0-3.alpha.dir/__/__/mesh/access/src/access_publish.c.obj
 .text.publish_timer_tick
                0x00000000       0xbc examples/dfu/CMakeFiles/dfu_nrf52840_xxAA_s140_5.0.0-3.alpha.dir/__/__/mesh/access/src/access_publish.c.obj
 .text.access_publish_init
                0x00000000       0x38 examples/dfu/CMakeFiles/dfu_nrf52840_xxAA_s140_5.0.0-3.alpha.dir/__/__/mesh/access/src/access_publish.c.obj
 .text          0x00000000        0x0 examples/dfu/CMakeFiles/dfu_nrf52840_xxAA_s140_5.0.0-3.alpha.dir/__/__/mesh/access/src/access.c.obj
 .data          0x00000000        0x0 examples/dfu/CMakeFiles/dfu_nrf52840_xxAA_s140_5.0.0-3.alpha.dir/__/__/mesh/access/src/access.c.obj
 .bss           0x00000000        0x0 examples/dfu/CMakeFiles/dfu_nrf52840_xxAA_s140_5.0.0-3.alpha.dir/__/__/mesh/access/src/access.c.obj
 .text.is_valid_opcode
                0x00000000       0x42 examples/dfu/CMakeFiles/dfu_nrf52840_xxAA_s140_5.0.0-3.alpha.dir/__/__/mesh/access/src/access.c.obj
 .text.flash_invalidate_complete
                0x00000000       0x14 examples/dfu/CMakeFiles/dfu_nrf52840_xxAA_s140_5.0.0-3.alpha.dir/__/__/mesh/access/src/access.c.obj
 .text.restore_acquired_subscription
                0x00000000       0x30 examples/dfu/CMakeFiles/dfu_nrf52840_xxAA_s140_5.0.0-3.alpha.dir/__/__/mesh/access/src/access.c.obj
 .text.restore_acquired_element
                0x00000000       0x1c examples/dfu/CMakeFiles/dfu_nrf52840_xxAA_s140_5.0.0-3.alpha.dir/__/__/mesh/access/src/access.c.obj
 .text.restore_flash_data
                0x00000000       0x5c examples/dfu/CMakeFiles/dfu_nrf52840_xxAA_s140_5.0.0-3.alpha.dir/__/__/mesh/access/src/access.c.obj
 .text.add_flash_manager
                0x00000000       0x58 examples/dfu/CMakeFiles/dfu_nrf52840_xxAA_s140_5.0.0-3.alpha.dir/__/__/mesh/access/src/access.c.obj
 .text.flash_remove_complete
                0x00000000       0x5c examples/dfu/CMakeFiles/dfu_nrf52840_xxAA_s140_5.0.0-3.alpha.dir/__/__/mesh/access/src/access.c.obj
 .text.flash_write_complete
                0x00000000       0x54 examples/dfu/CMakeFiles/dfu_nrf52840_xxAA_s140_5.0.0-3.alpha.dir/__/__/mesh/access/src/access.c.obj
 .text.unlikely.bitfield_next_get.part.0.constprop.3
                0x00000000       0x34 examples/dfu/CMakeFiles/dfu_nrf52840_xxAA_s140_5.0.0-3.alpha.dir/__/__/mesh/access/src/access.c.obj
 .text.restore_acquired_model
                0x00000000       0x94 examples/dfu/CMakeFiles/dfu_nrf52840_xxAA_s140_5.0.0-3.alpha.dir/__/__/mesh/access/src/access.c.obj
 .text.handle_incoming
                0x00000000      0x158 examples/dfu/CMakeFiles/dfu_nrf52840_xxAA_s140_5.0.0-3.alpha.dir/__/__/mesh/access/src/access.c.obj
 .text.mesh_evt_cb
                0x00000000      0x134 examples/dfu/CMakeFiles/dfu_nrf52840_xxAA_s140_5.0.0-3.alpha.dir/__/__/mesh/access/src/access.c.obj
 .text.packet_tx
                0x00000000      0x2c4 examples/dfu/CMakeFiles/dfu_nrf52840_xxAA_s140_5.0.0-3.alpha.dir/__/__/mesh/access/src/access.c.obj
 .text.access_flash_config_load
                0x00000000      0x130 examples/dfu/CMakeFiles/dfu_nrf52840_xxAA_s140_5.0.0-3.alpha.dir/__/__/mesh/access/src/access.c.obj
 .text.access_init
                0x00000000       0x28 examples/dfu/CMakeFiles/dfu_nrf52840_xxAA_s140_5.0.0-3.alpha.dir/__/__/mesh/access/src/access.c.obj
 .text.access_model_add
                0x00000000      0x1b4 examples/dfu/CMakeFiles/dfu_nrf52840_xxAA_s140_5.0.0-3.alpha.dir/__/__/mesh/access/src/access.c.obj
 .text.access_model_publish
                0x00000000        0xc examples/dfu/CMakeFiles/dfu_nrf52840_xxAA_s140_5.0.0-3.alpha.dir/__/__/mesh/access/src/access.c.obj
 .text.access_model_reply
                0x00000000       0x12 examples/dfu/CMakeFiles/dfu_nrf52840_xxAA_s140_5.0.0-3.alpha.dir/__/__/mesh/access/src/access.c.obj
 .text.access_model_subscription_list_alloc
                0x00000000       0x50 examples/dfu/CMakeFiles/dfu_nrf52840_xxAA_s140_5.0.0-3.alpha.dir/__/__/mesh/access/src/access.c.obj
 .text.access_model_subscription_lists_share
                0x00000000       0x4c examples/dfu/CMakeFiles/dfu_nrf52840_xxAA_s140_5.0.0-3.alpha.dir/__/__/mesh/access/src/access.c.obj
 .text.access_default_ttl_set
                0x00000000       0x10 examples/dfu/CMakeFiles/dfu_nrf52840_xxAA_s140_5.0.0-3.alpha.dir/__/__/mesh/access/src/access.c.obj
 .text.access_default_ttl_get
                0x00000000        0xc examples/dfu/CMakeFiles/dfu_nrf52840_xxAA_s140_5.0.0-3.alpha.dir/__/__/mesh/access/src/access.c.obj
 .text.access_model_p_args_get
                0x00000000       0x28 examples/dfu/CMakeFiles/dfu_nrf52840_xxAA_s140_5.0.0-3.alpha.dir/__/__/mesh/access/src/access.c.obj
 .bss.m_evt_handler
                0x00000000        0x8 examples/dfu/CMakeFiles/dfu_nrf52840_xxAA_s140_5.0.0-3.alpha.dir/__/__/mesh/access/src/access.c.obj
 .data.flash_add_mem_available_struct.10422
                0x00000000       0x10 examples/dfu/CMakeFiles/dfu_nrf52840_xxAA_s140_5.0.0-3.alpha.dir/__/__/mesh/access/src/access.c.obj
 .data.m_default_ttl
                0x00000000        0x1 examples/dfu/CMakeFiles/dfu_nrf52840_xxAA_s140_5.0.0-3.alpha.dir/__/__/mesh/access/src/access.c.obj
 .rodata.mesh_evt_cb.str1.1
                0x00000000       0x2f examples/dfu/CMakeFiles/dfu_nrf52840_xxAA_s140_5.0.0-3.alpha.dir/__/__/mesh/access/src/access.c.obj
 .rodata.multiply_de_bruijn_bit_position.9350
                0x00000000       0x20 examples/dfu/CMakeFiles/dfu_nrf52840_xxAA_s140_5.0.0-3.alpha.dir/__/__/mesh/access/src/access.c.obj
 .rodata.packet_tx.str1.1
                0x00000000       0x13 examples/dfu/CMakeFiles/dfu_nrf52840_xxAA_s140_5.0.0-3.alpha.dir/__/__/mesh/access/src/access.c.obj
 .text          0x00000000        0x0 examples/dfu/CMakeFiles/dfu_nrf52840_xxAA_s140_5.0.0-3.alpha.dir/__/__/mesh/access/src/access_reliable.c.obj
 .data          0x00000000        0x0 examples/dfu/CMakeFiles/dfu_nrf52840_xxAA_s140_5.0.0-3.alpha.dir/__/__/mesh/access/src/access_reliable.c.obj
 .bss           0x00000000        0x0 examples/dfu/CMakeFiles/dfu_nrf52840_xxAA_s140_5.0.0-3.alpha.dir/__/__/mesh/access/src/access_reliable.c.obj
 .text.remove_and_reschedule
                0x00000000       0xd8 examples/dfu/CMakeFiles/dfu_nrf52840_xxAA_s140_5.0.0-3.alpha.dir/__/__/mesh/access/src/access_reliable.c.obj
 .text.reliable_timer_cb
                0x00000000      0x148 examples/dfu/CMakeFiles/dfu_nrf52840_xxAA_s140_5.0.0-3.alpha.dir/__/__/mesh/access/src/access_reliable.c.obj
 .text.access_reliable_message_rx_cb
                0x00000000       0x74 examples/dfu/CMakeFiles/dfu_nrf52840_xxAA_s140_5.0.0-3.alpha.dir/__/__/mesh/access/src/access_reliable.c.obj
 .text.access_reliable_init
                0x00000000       0x1c examples/dfu/CMakeFiles/dfu_nrf52840_xxAA_s140_5.0.0-3.alpha.dir/__/__/mesh/access/src/access_reliable.c.obj
 .text.access_model_reliable_cancel
                0x00000000       0x4c examples/dfu/CMakeFiles/dfu_nrf52840_xxAA_s140_5.0.0-3.alpha.dir/__/__/mesh/access/src/access_reliable.c.obj
 .text.access_model_reliable_publish
                0x00000000      0x1ac examples/dfu/CMakeFiles/dfu_nrf52840_xxAA_s140_5.0.0-3.alpha.dir/__/__/mesh/access/src/access_reliable.c.obj
 .text          0x00000000        0x0 examples/dfu/CMakeFiles/dfu_nrf52840_xxAA_s140_5.0.0-3.alpha.dir/__/__/mesh/access/src/device_state_manager.c.obj
 .data          0x00000000        0x0 examples/dfu/CMakeFiles/dfu_nrf52840_xxAA_s140_5.0.0-3.alpha.dir/__/__/mesh/access/src/device_state_manager.c.obj
 .bss           0x00000000        0x0 examples/dfu/CMakeFiles/dfu_nrf52840_xxAA_s140_5.0.0-3.alpha.dir/__/__/mesh/access/src/device_state_manager.c.obj
 .text.bitfield_is_all_clear
                0x00000000       0x3c examples/dfu/CMakeFiles/dfu_nrf52840_xxAA_s140_5.0.0-3.alpha.dir/__/__/mesh/access/src/device_state_manager.c.obj
 .text.flash_update_all
                0x00000000       0x6c examples/dfu/CMakeFiles/dfu_nrf52840_xxAA_s140_5.0.0-3.alpha.dir/__/__/mesh/access/src/device_state_manager.c.obj
 .text.flash_operation_complete
                0x00000000       0x58 examples/dfu/CMakeFiles/dfu_nrf52840_xxAA_s140_5.0.0-3.alpha.dir/__/__/mesh/access/src/device_state_manager.c.obj
 .text.flash_invalidate_complete
                0x00000000        0x8 examples/dfu/CMakeFiles/dfu_nrf52840_xxAA_s140_5.0.0-3.alpha.dir/__/__/mesh/access/src/device_state_manager.c.obj
 .text.flash_write_complete
                0x00000000        0x8 examples/dfu/CMakeFiles/dfu_nrf52840_xxAA_s140_5.0.0-3.alpha.dir/__/__/mesh/access/src/device_state_manager.c.obj
 .text.dsm_flash_config_load
                0x00000000      0x134 examples/dfu/CMakeFiles/dfu_nrf52840_xxAA_s140_5.0.0-3.alpha.dir/__/__/mesh/access/src/device_state_manager.c.obj
 .text.dsm_has_unflashed_data
                0x00000000       0x24 examples/dfu/CMakeFiles/dfu_nrf52840_xxAA_s140_5.0.0-3.alpha.dir/__/__/mesh/access/src/device_state_manager.c.obj
 .text.dsm_flash_area_get
                0x00000000        0xc examples/dfu/CMakeFiles/dfu_nrf52840_xxAA_s140_5.0.0-3.alpha.dir/__/__/mesh/access/src/device_state_manager.c.obj
 .text.build_flash_area
                0x00000000       0x8c examples/dfu/CMakeFiles/dfu_nrf52840_xxAA_s140_5.0.0-3.alpha.dir/__/__/mesh/access/src/device_state_manager.c.obj
 .text.flash_remove_complete
                0x00000000        0x4 examples/dfu/CMakeFiles/dfu_nrf52840_xxAA_s140_5.0.0-3.alpha.dir/__/__/mesh/access/src/device_state_manager.c.obj
 .text.dsm_init
                0x00000000       0x24 examples/dfu/CMakeFiles/dfu_nrf52840_xxAA_s140_5.0.0-3.alpha.dir/__/__/mesh/access/src/device_state_manager.c.obj
 .text.dsm_address_publish_add_handle
                0x00000000       0x38 examples/dfu/CMakeFiles/dfu_nrf52840_xxAA_s140_5.0.0-3.alpha.dir/__/__/mesh/access/src/device_state_manager.c.obj
 .text.dsm_address_subscription_add_handle
                0x00000000       0x38 examples/dfu/CMakeFiles/dfu_nrf52840_xxAA_s140_5.0.0-3.alpha.dir/__/__/mesh/access/src/device_state_manager.c.obj
 .text.dsm_address_subscription_count_get
                0x00000000       0x58 examples/dfu/CMakeFiles/dfu_nrf52840_xxAA_s140_5.0.0-3.alpha.dir/__/__/mesh/access/src/device_state_manager.c.obj
 .text.dsm_net_key_index_to_subnet_handle
                0x00000000       0x1c examples/dfu/CMakeFiles/dfu_nrf52840_xxAA_s140_5.0.0-3.alpha.dir/__/__/mesh/access/src/device_state_manager.c.obj
 .text.dsm_subnet_handle_to_netkey_index
                0x00000000       0x34 examples/dfu/CMakeFiles/dfu_nrf52840_xxAA_s140_5.0.0-3.alpha.dir/__/__/mesh/access/src/device_state_manager.c.obj
 .text.dsm_appkey_index_to_appkey_handle
                0x00000000       0x1c examples/dfu/CMakeFiles/dfu_nrf52840_xxAA_s140_5.0.0-3.alpha.dir/__/__/mesh/access/src/device_state_manager.c.obj
 .text.dsm_appkey_handle_to_appkey_index
                0x00000000       0x34 examples/dfu/CMakeFiles/dfu_nrf52840_xxAA_s140_5.0.0-3.alpha.dir/__/__/mesh/access/src/device_state_manager.c.obj
 .text.dsm_subnet_kr_phase_get
                0x00000000       0x34 examples/dfu/CMakeFiles/dfu_nrf52840_xxAA_s140_5.0.0-3.alpha.dir/__/__/mesh/access/src/device_state_manager.c.obj
 .text.dsm_devkey_handle_get
                0x00000000       0x34 examples/dfu/CMakeFiles/dfu_nrf52840_xxAA_s140_5.0.0-3.alpha.dir/__/__/mesh/access/src/device_state_manager.c.obj
 .text.dsm_beacon_secmat_get
                0x00000000       0x38 examples/dfu/CMakeFiles/dfu_nrf52840_xxAA_s140_5.0.0-3.alpha.dir/__/__/mesh/access/src/device_state_manager.c.obj
 .text.dsm_net_secmat_from_keyindex_get
                0x00000000       0x3c examples/dfu/CMakeFiles/dfu_nrf52840_xxAA_s140_5.0.0-3.alpha.dir/__/__/mesh/access/src/device_state_manager.c.obj
 .text.dsm_proxy_identity_get
                0x00000000        0x4 examples/dfu/CMakeFiles/dfu_nrf52840_xxAA_s140_5.0.0-3.alpha.dir/__/__/mesh/access/src/device_state_manager.c.obj
 .data.mem_listener.10756
                0x00000000       0x10 examples/dfu/CMakeFiles/dfu_nrf52840_xxAA_s140_5.0.0-3.alpha.dir/__/__/mesh/access/src/device_state_manager.c.obj
 .text          0x00000000        0x0 examples/dfu/CMakeFiles/dfu_nrf52840_xxAA_s140_5.0.0-3.alpha.dir/__/__/mesh/serial/src/serial_uart.c.obj
 .data          0x00000000        0x0 examples/dfu/CMakeFiles/dfu_nrf52840_xxAA_s140_5.0.0-3.alpha.dir/__/__/mesh/serial/src/serial_uart.c.obj
 .bss           0x00000000        0x0 examples/dfu/CMakeFiles/dfu_nrf52840_xxAA_s140_5.0.0-3.alpha.dir/__/__/mesh/serial/src/serial_uart.c.obj
 .text          0x00000000        0x0 examples/dfu/CMakeFiles/dfu_nrf52840_xxAA_s140_5.0.0-3.alpha.dir/__/__/mesh/serial/src/serial_bearer.c.obj
 .data          0x00000000        0x0 examples/dfu/CMakeFiles/dfu_nrf52840_xxAA_s140_5.0.0-3.alpha.dir/__/__/mesh/serial/src/serial_bearer.c.obj
 .bss           0x00000000        0x0 examples/dfu/CMakeFiles/dfu_nrf52840_xxAA_s140_5.0.0-3.alpha.dir/__/__/mesh/serial/src/serial_bearer.c.obj
 .text.serial_bearer_rx_pending
                0x00000000        0xc examples/dfu/CMakeFiles/dfu_nrf52840_xxAA_s140_5.0.0-3.alpha.dir/__/__/mesh/serial/src/serial_bearer.c.obj
 .text          0x00000000        0x0 examples/dfu/CMakeFiles/dfu_nrf52840_xxAA_s140_5.0.0-3.alpha.dir/__/__/mesh/serial/src/serial_handler_common.c.obj
 .data          0x00000000        0x0 examples/dfu/CMakeFiles/dfu_nrf52840_xxAA_s140_5.0.0-3.alpha.dir/__/__/mesh/serial/src/serial_handler_common.c.obj
 .bss           0x00000000        0x0 examples/dfu/CMakeFiles/dfu_nrf52840_xxAA_s140_5.0.0-3.alpha.dir/__/__/mesh/serial/src/serial_handler_common.c.obj
 .text          0x00000000        0x0 examples/dfu/CMakeFiles/dfu_nrf52840_xxAA_s140_5.0.0-3.alpha.dir/__/__/mesh/serial/src/serial_handler_access.c.obj
 .data          0x00000000        0x0 examples/dfu/CMakeFiles/dfu_nrf52840_xxAA_s140_5.0.0-3.alpha.dir/__/__/mesh/serial/src/serial_handler_access.c.obj
 .bss           0x00000000        0x0 examples/dfu/CMakeFiles/dfu_nrf52840_xxAA_s140_5.0.0-3.alpha.dir/__/__/mesh/serial/src/serial_handler_access.c.obj
 .text          0x00000000        0x0 examples/dfu/CMakeFiles/dfu_nrf52840_xxAA_s140_5.0.0-3.alpha.dir/__/__/mesh/serial/src/serial_handler_config.c.obj
 .data          0x00000000        0x0 examples/dfu/CMakeFiles/dfu_nrf52840_xxAA_s140_5.0.0-3.alpha.dir/__/__/mesh/serial/src/serial_handler_config.c.obj
 .bss           0x00000000        0x0 examples/dfu/CMakeFiles/dfu_nrf52840_xxAA_s140_5.0.0-3.alpha.dir/__/__/mesh/serial/src/serial_handler_config.c.obj
 .text          0x00000000        0x0 examples/dfu/CMakeFiles/dfu_nrf52840_xxAA_s140_5.0.0-3.alpha.dir/__/__/mesh/serial/src/serial_handler_openmesh.c.obj
 .data          0x00000000        0x0 examples/dfu/CMakeFiles/dfu_nrf52840_xxAA_s140_5.0.0-3.alpha.dir/__/__/mesh/serial/src/serial_handler_openmesh.c.obj
 .bss           0x00000000        0x0 examples/dfu/CMakeFiles/dfu_nrf52840_xxAA_s140_5.0.0-3.alpha.dir/__/__/mesh/serial/src/serial_handler_openmesh.c.obj
 .text          0x00000000        0x0 examples/dfu/CMakeFiles/dfu_nrf52840_xxAA_s140_5.0.0-3.alpha.dir/__/__/mesh/serial/src/serial.c.obj
 .data          0x00000000        0x0 examples/dfu/CMakeFiles/dfu_nrf52840_xxAA_s140_5.0.0-3.alpha.dir/__/__/mesh/serial/src/serial.c.obj
 .bss           0x00000000        0x0 examples/dfu/CMakeFiles/dfu_nrf52840_xxAA_s140_5.0.0-3.alpha.dir/__/__/mesh/serial/src/serial.c.obj
 .text          0x00000000        0x0 examples/dfu/CMakeFiles/dfu_nrf52840_xxAA_s140_5.0.0-3.alpha.dir/__/__/mesh/serial/src/serial_handler_prov.c.obj
 .data          0x00000000        0x0 examples/dfu/CMakeFiles/dfu_nrf52840_xxAA_s140_5.0.0-3.alpha.dir/__/__/mesh/serial/src/serial_handler_prov.c.obj
 .bss           0x00000000        0x0 examples/dfu/CMakeFiles/dfu_nrf52840_xxAA_s140_5.0.0-3.alpha.dir/__/__/mesh/serial/src/serial_handler_prov.c.obj
 .text.serial_handler_prov_context_get
                0x00000000       0x1c examples/dfu/CMakeFiles/dfu_nrf52840_xxAA_s140_5.0.0-3.alpha.dir/__/__/mesh/serial/src/serial_handler_prov.c.obj
 .text.serial_handler_prov_keys_get
                0x00000000       0x14 examples/dfu/CMakeFiles/dfu_nrf52840_xxAA_s140_5.0.0-3.alpha.dir/__/__/mesh/serial/src/serial_handler_prov.c.obj
 .text.serial_handler_prov_oob_caps_get
                0x00000000        0xc examples/dfu/CMakeFiles/dfu_nrf52840_xxAA_s140_5.0.0-3.alpha.dir/__/__/mesh/serial/src/serial_handler_prov.c.obj
 .text          0x00000000        0x0 examples/dfu/CMakeFiles/dfu_nrf52840_xxAA_s140_5.0.0-3.alpha.dir/__/__/mesh/serial/src/serial_handler_dfu.c.obj
 .data          0x00000000        0x0 examples/dfu/CMakeFiles/dfu_nrf52840_xxAA_s140_5.0.0-3.alpha.dir/__/__/mesh/serial/src/serial_handler_dfu.c.obj
 .bss           0x00000000        0x0 examples/dfu/CMakeFiles/dfu_nrf52840_xxAA_s140_5.0.0-3.alpha.dir/__/__/mesh/serial/src/serial_handler_dfu.c.obj
 .text          0x00000000        0x0 examples/dfu/CMakeFiles/dfu_nrf52840_xxAA_s140_5.0.0-3.alpha.dir/__/__/mesh/serial/src/serial_handler_mesh.c.obj
 .data          0x00000000        0x0 examples/dfu/CMakeFiles/dfu_nrf52840_xxAA_s140_5.0.0-3.alpha.dir/__/__/mesh/serial/src/serial_handler_mesh.c.obj
 .bss           0x00000000        0x0 examples/dfu/CMakeFiles/dfu_nrf52840_xxAA_s140_5.0.0-3.alpha.dir/__/__/mesh/serial/src/serial_handler_mesh.c.obj
 .text          0x00000000        0x0 examples/dfu/CMakeFiles/dfu_nrf52840_xxAA_s140_5.0.0-3.alpha.dir/__/__/mesh/serial/src/serial_handler_models.c.obj
 .data          0x00000000        0x0 examples/dfu/CMakeFiles/dfu_nrf52840_xxAA_s140_5.0.0-3.alpha.dir/__/__/mesh/serial/src/serial_handler_models.c.obj
 .bss           0x00000000        0x0 examples/dfu/CMakeFiles/dfu_nrf52840_xxAA_s140_5.0.0-3.alpha.dir/__/__/mesh/serial/src/serial_handler_models.c.obj
 .text.serial_handler_models_register
                0x00000000       0x34 examples/dfu/CMakeFiles/dfu_nrf52840_xxAA_s140_5.0.0-3.alpha.dir/__/__/mesh/serial/src/serial_handler_models.c.obj
 .text          0x00000000        0x0 examples/dfu/CMakeFiles/dfu_nrf52840_xxAA_s140_5.0.0-3.alpha.dir/__/__/mesh/serial/src/serial_handler_device.c.obj
 .data          0x00000000        0x0 examples/dfu/CMakeFiles/dfu_nrf52840_xxAA_s140_5.0.0-3.alpha.dir/__/__/mesh/serial/src/serial_handler_device.c.obj
 .bss           0x00000000        0x0 examples/dfu/CMakeFiles/dfu_nrf52840_xxAA_s140_5.0.0-3.alpha.dir/__/__/mesh/serial/src/serial_handler_device.c.obj
 .text          0x00000000        0x0 examples/dfu/CMakeFiles/dfu_nrf52840_xxAA_s140_5.0.0-3.alpha.dir/__/__/mesh/serial/src/nrf_mesh_serial.c.obj
 .data          0x00000000        0x0 examples/dfu/CMakeFiles/dfu_nrf52840_xxAA_s140_5.0.0-3.alpha.dir/__/__/mesh/serial/src/nrf_mesh_serial.c.obj
 .bss           0x00000000        0x0 examples/dfu/CMakeFiles/dfu_nrf52840_xxAA_s140_5.0.0-3.alpha.dir/__/__/mesh/serial/src/nrf_mesh_serial.c.obj
 .text.nrf_mesh_serial_state_get
                0x00000000        0x4 examples/dfu/CMakeFiles/dfu_nrf52840_xxAA_s140_5.0.0-3.alpha.dir/__/__/mesh/serial/src/nrf_mesh_serial.c.obj
 .text.nrf_mesh_serial_tx
                0x00000000       0x60 examples/dfu/CMakeFiles/dfu_nrf52840_xxAA_s140_5.0.0-3.alpha.dir/__/__/mesh/serial/src/nrf_mesh_serial.c.obj
 .text          0x00000000        0x0 examples/dfu/CMakeFiles/dfu_nrf52840_xxAA_s140_5.0.0-3.alpha.dir/__/__/mesh/serial/src/serial_handler_app.c.obj
 .data          0x00000000        0x0 examples/dfu/CMakeFiles/dfu_nrf52840_xxAA_s140_5.0.0-3.alpha.dir/__/__/mesh/serial/src/serial_handler_app.c.obj
 .bss           0x00000000        0x0 examples/dfu/CMakeFiles/dfu_nrf52840_xxAA_s140_5.0.0-3.alpha.dir/__/__/mesh/serial/src/serial_handler_app.c.obj
 .text          0x00000000        0x0 examples/dfu/CMakeFiles/dfu_nrf52840_xxAA_s140_5.0.0-3.alpha.dir/__/__/mesh/prov/src/prov_provisioner.c.obj
 .data          0x00000000        0x0 examples/dfu/CMakeFiles/dfu_nrf52840_xxAA_s140_5.0.0-3.alpha.dir/__/__/mesh/prov/src/prov_provisioner.c.obj
 .bss           0x00000000        0x0 examples/dfu/CMakeFiles/dfu_nrf52840_xxAA_s140_5.0.0-3.alpha.dir/__/__/mesh/prov/src/prov_provisioner.c.obj
 .text.prov_provisioner_oob_pubkey
                0x00000000       0x30 examples/dfu/CMakeFiles/dfu_nrf52840_xxAA_s140_5.0.0-3.alpha.dir/__/__/mesh/prov/src/prov_provisioner.c.obj
 .text          0x00000000        0x0 examples/dfu/CMakeFiles/dfu_nrf52840_xxAA_s140_5.0.0-3.alpha.dir/__/__/mesh/prov/src/prov_provisionee.c.obj
 .data          0x00000000        0x0 examples/dfu/CMakeFiles/dfu_nrf52840_xxAA_s140_5.0.0-3.alpha.dir/__/__/mesh/prov/src/prov_provisionee.c.obj
 .bss           0x00000000        0x0 examples/dfu/CMakeFiles/dfu_nrf52840_xxAA_s140_5.0.0-3.alpha.dir/__/__/mesh/prov/src/prov_provisionee.c.obj
 .text          0x00000000        0x0 examples/dfu/CMakeFiles/dfu_nrf52840_xxAA_s140_5.0.0-3.alpha.dir/__/__/mesh/prov/src/nrf_mesh_prov.c.obj
 .data          0x00000000        0x0 examples/dfu/CMakeFiles/dfu_nrf52840_xxAA_s140_5.0.0-3.alpha.dir/__/__/mesh/prov/src/nrf_mesh_prov.c.obj
 .bss           0x00000000        0x0 examples/dfu/CMakeFiles/dfu_nrf52840_xxAA_s140_5.0.0-3.alpha.dir/__/__/mesh/prov/src/nrf_mesh_prov.c.obj
 .text.nrf_mesh_prov_pubkey_provide
                0x00000000       0x10 examples/dfu/CMakeFiles/dfu_nrf52840_xxAA_s140_5.0.0-3.alpha.dir/__/__/mesh/prov/src/nrf_mesh_prov.c.obj
 .text          0x00000000        0x0 examples/dfu/CMakeFiles/dfu_nrf52840_xxAA_s140_5.0.0-3.alpha.dir/__/__/mesh/prov/src/provisioning.c.obj
 .data          0x00000000        0x0 examples/dfu/CMakeFiles/dfu_nrf52840_xxAA_s140_5.0.0-3.alpha.dir/__/__/mesh/prov/src/provisioning.c.obj
 .bss           0x00000000        0x0 examples/dfu/CMakeFiles/dfu_nrf52840_xxAA_s140_5.0.0-3.alpha.dir/__/__/mesh/prov/src/provisioning.c.obj
 .text.prov_tx  0x00000000        0x4 examples/dfu/CMakeFiles/dfu_nrf52840_xxAA_s140_5.0.0-3.alpha.dir/__/__/mesh/prov/src/provisioning.c.obj
 .text          0x00000000        0x0 examples/dfu/CMakeFiles/dfu_nrf52840_xxAA_s140_5.0.0-3.alpha.dir/__/__/mesh/prov/src/prov_beacon.c.obj
 .data          0x00000000        0x0 examples/dfu/CMakeFiles/dfu_nrf52840_xxAA_s140_5.0.0-3.alpha.dir/__/__/mesh/prov/src/prov_beacon.c.obj
 .bss           0x00000000        0x0 examples/dfu/CMakeFiles/dfu_nrf52840_xxAA_s140_5.0.0-3.alpha.dir/__/__/mesh/prov/src/prov_beacon.c.obj
 .text          0x00000000        0x0 examples/dfu/CMakeFiles/dfu_nrf52840_xxAA_s140_5.0.0-3.alpha.dir/__/__/mesh/prov/src/prov_utils.c.obj
 .data          0x00000000        0x0 examples/dfu/CMakeFiles/dfu_nrf52840_xxAA_s140_5.0.0-3.alpha.dir/__/__/mesh/prov/src/prov_utils.c.obj
 .bss           0x00000000        0x0 examples/dfu/CMakeFiles/dfu_nrf52840_xxAA_s140_5.0.0-3.alpha.dir/__/__/mesh/prov/src/prov_utils.c.obj
 .text.prov_utils_opt_set
                0x00000000       0x20 examples/dfu/CMakeFiles/dfu_nrf52840_xxAA_s140_5.0.0-3.alpha.dir/__/__/mesh/prov/src/prov_utils.c.obj
 .text          0x00000000        0x0 examples/dfu/CMakeFiles/dfu_nrf52840_xxAA_s140_5.0.0-3.alpha.dir/__/__/mesh/prov/src/prov_bearer_adv.c.obj
 .data          0x00000000        0x0 examples/dfu/CMakeFiles/dfu_nrf52840_xxAA_s140_5.0.0-3.alpha.dir/__/__/mesh/prov/src/prov_bearer_adv.c.obj
 .bss           0x00000000        0x0 examples/dfu/CMakeFiles/dfu_nrf52840_xxAA_s140_5.0.0-3.alpha.dir/__/__/mesh/prov/src/prov_bearer_adv.c.obj
 .text          0x00000000        0x0 examples/dfu/CMakeFiles/dfu_nrf52840_xxAA_s140_5.0.0-3.alpha.dir/__/__/mesh/dfu/src/nrf_mesh_dfu.c.obj
 .data          0x00000000        0x0 examples/dfu/CMakeFiles/dfu_nrf52840_xxAA_s140_5.0.0-3.alpha.dir/__/__/mesh/dfu/src/nrf_mesh_dfu.c.obj
 .bss           0x00000000        0x0 examples/dfu/CMakeFiles/dfu_nrf52840_xxAA_s140_5.0.0-3.alpha.dir/__/__/mesh/dfu/src/nrf_mesh_dfu.c.obj
 .text          0x00000000        0x0 examples/dfu/CMakeFiles/dfu_nrf52840_xxAA_s140_5.0.0-3.alpha.dir/__/nrf_mesh_weak.c.obj
 .data          0x00000000        0x0 examples/dfu/CMakeFiles/dfu_nrf52840_xxAA_s140_5.0.0-3.alpha.dir/__/nrf_mesh_weak.c.obj
 .bss           0x00000000        0x0 examples/dfu/CMakeFiles/dfu_nrf52840_xxAA_s140_5.0.0-3.alpha.dir/__/nrf_mesh_weak.c.obj
 .text._weak_handler
                0x00000000        0x4 examples/dfu/CMakeFiles/dfu_nrf52840_xxAA_s140_5.0.0-3.alpha.dir/__/nrf_mesh_weak.c.obj
 .text._weak_handler_ptr
                0x00000000        0x4 examples/dfu/CMakeFiles/dfu_nrf52840_xxAA_s140_5.0.0-3.alpha.dir/__/nrf_mesh_weak.c.obj
 .debug_info    0x00000000      0x94b examples/dfu/CMakeFiles/dfu_nrf52840_xxAA_s140_5.0.0-3.alpha.dir/__/nrf_mesh_weak.c.obj
 .debug_abbrev  0x00000000      0x1ae examples/dfu/CMakeFiles/dfu_nrf52840_xxAA_s140_5.0.0-3.alpha.dir/__/nrf_mesh_weak.c.obj
 .debug_aranges
                0x00000000       0x28 examples/dfu/CMakeFiles/dfu_nrf52840_xxAA_s140_5.0.0-3.alpha.dir/__/nrf_mesh_weak.c.obj
 .debug_ranges  0x00000000       0x18 examples/dfu/CMakeFiles/dfu_nrf52840_xxAA_s140_5.0.0-3.alpha.dir/__/nrf_mesh_weak.c.obj
 .debug_line    0x00000000      0x228 examples/dfu/CMakeFiles/dfu_nrf52840_xxAA_s140_5.0.0-3.alpha.dir/__/nrf_mesh_weak.c.obj
 .debug_str     0x00000000      0x64d examples/dfu/CMakeFiles/dfu_nrf52840_xxAA_s140_5.0.0-3.alpha.dir/__/nrf_mesh_weak.c.obj
 .comment       0x00000000       0x80 examples/dfu/CMakeFiles/dfu_nrf52840_xxAA_s140_5.0.0-3.alpha.dir/__/nrf_mesh_weak.c.obj
 .debug_frame   0x00000000       0x30 examples/dfu/CMakeFiles/dfu_nrf52840_xxAA_s140_5.0.0-3.alpha.dir/__/nrf_mesh_weak.c.obj
 .ARM.attributes
                0x00000000       0x39 examples/dfu/CMakeFiles/dfu_nrf52840_xxAA_s140_5.0.0-3.alpha.dir/__/nrf_mesh_weak.c.obj
 .text          0x00000000        0x0 examples/dfu/CMakeFiles/dfu_nrf52840_xxAA_s140_5.0.0-3.alpha.dir/__/__/external/nRF5_SDK_14.2.0_17b948a/components/toolchain/system_nrf52840.c.obj
 .data          0x00000000        0x0 examples/dfu/CMakeFiles/dfu_nrf52840_xxAA_s140_5.0.0-3.alpha.dir/__/__/external/nRF5_SDK_14.2.0_17b948a/components/toolchain/system_nrf52840.c.obj
 .bss           0x00000000        0x0 examples/dfu/CMakeFiles/dfu_nrf52840_xxAA_s140_5.0.0-3.alpha.dir/__/__/external/nRF5_SDK_14.2.0_17b948a/components/toolchain/system_nrf52840.c.obj
 .text.SystemCoreClockUpdate
                0x00000000       0x10 examples/dfu/CMakeFiles/dfu_nrf52840_xxAA_s140_5.0.0-3.alpha.dir/__/__/external/nRF5_SDK_14.2.0_17b948a/components/toolchain/system_nrf52840.c.obj
 .data          0x00000000        0x0 examples/dfu/CMakeFiles/dfu_nrf52840_xxAA_s140_5.0.0-3.alpha.dir/__/__/external/nRF5_SDK_14.2.0_17b948a/components/toolchain/gcc/gcc_startup_nrf52840.S.obj
 .bss           0x00000000        0x0 examples/dfu/CMakeFiles/dfu_nrf52840_xxAA_s140_5.0.0-3.alpha.dir/__/__/external/nRF5_SDK_14.2.0_17b948a/components/toolchain/gcc/gcc_startup_nrf52840.S.obj
 .text          0x00000000        0x0 mesh/core/libmesh_core_nrf52840_xxAA.a(internal_event.c.obj)
 .data          0x00000000        0x0 mesh/core/libmesh_core_nrf52840_xxAA.a(internal_event.c.obj)
 .bss           0x00000000        0x0 mesh/core/libmesh_core_nrf52840_xxAA.a(internal_event.c.obj)
 .text.internal_event_pop
                0x00000000       0x1c mesh/core/libmesh_core_nrf52840_xxAA.a(internal_event.c.obj)
 .text          0x00000000        0x0 mesh/core/libmesh_core_nrf52840_xxAA.a(nrf_mesh_configure.c.obj)
 .data          0x00000000        0x0 mesh/core/libmesh_core_nrf52840_xxAA.a(nrf_mesh_configure.c.obj)
 .bss           0x00000000        0x0 mesh/core/libmesh_core_nrf52840_xxAA.a(nrf_mesh_configure.c.obj)
 .text          0x00000000        0x0 mesh/core/libmesh_core_nrf52840_xxAA.a(event.c.obj)
 .data          0x00000000        0x0 mesh/core/libmesh_core_nrf52840_xxAA.a(event.c.obj)
 .bss           0x00000000        0x0 mesh/core/libmesh_core_nrf52840_xxAA.a(event.c.obj)
 .text          0x00000000        0x0 mesh/core/libmesh_core_nrf52840_xxAA.a(packet_buffer.c.obj)
 .data          0x00000000        0x0 mesh/core/libmesh_core_nrf52840_xxAA.a(packet_buffer.c.obj)
 .bss           0x00000000        0x0 mesh/core/libmesh_core_nrf52840_xxAA.a(packet_buffer.c.obj)
 .text          0x00000000        0x0 mesh/core/libmesh_core_nrf52840_xxAA.a(fifo.c.obj)
 .data          0x00000000        0x0 mesh/core/libmesh_core_nrf52840_xxAA.a(fifo.c.obj)
 .bss           0x00000000        0x0 mesh/core/libmesh_core_nrf52840_xxAA.a(fifo.c.obj)
 .text.fifo_peek_at
                0x00000000       0x50 mesh/core/libmesh_core_nrf52840_xxAA.a(fifo.c.obj)
 .text.fifo_peek
                0x00000000        0x6 mesh/core/libmesh_core_nrf52840_xxAA.a(fifo.c.obj)
 .text.fifo_flush
                0x00000000        0x6 mesh/core/libmesh_core_nrf52840_xxAA.a(fifo.c.obj)
 .text.fifo_get_len
                0x00000000        0x8 mesh/core/libmesh_core_nrf52840_xxAA.a(fifo.c.obj)
 .text.fifo_is_full
                0x00000000       0x10 mesh/core/libmesh_core_nrf52840_xxAA.a(fifo.c.obj)
 .text.fifo_is_empty
                0x00000000        0xc mesh/core/libmesh_core_nrf52840_xxAA.a(fifo.c.obj)
 .text          0x00000000        0x0 mesh/core/libmesh_core_nrf52840_xxAA.a(net_state.c.obj)
 .data          0x00000000        0x0 mesh/core/libmesh_core_nrf52840_xxAA.a(net_state.c.obj)
 .bss           0x00000000        0x0 mesh/core/libmesh_core_nrf52840_xxAA.a(net_state.c.obj)
 .text.net_state_iv_update_test_mode_set
                0x00000000        0xc mesh/core/libmesh_core_nrf52840_xxAA.a(net_state.c.obj)
 .text          0x00000000        0x0 mesh/core/libmesh_core_nrf52840_xxAA.a(mesh_flash.c.obj)
 .data          0x00000000        0x0 mesh/core/libmesh_core_nrf52840_xxAA.a(mesh_flash.c.obj)
 .bss           0x00000000        0x0 mesh/core/libmesh_core_nrf52840_xxAA.a(mesh_flash.c.obj)
 .text.mesh_flash_op_available_slots
                0x00000000       0x2c mesh/core/libmesh_core_nrf52840_xxAA.a(mesh_flash.c.obj)
 .text          0x00000000        0x0 mesh/core/libmesh_core_nrf52840_xxAA.a(nrf_mesh_utils.c.obj)
 .data          0x00000000        0x0 mesh/core/libmesh_core_nrf52840_xxAA.a(nrf_mesh_utils.c.obj)
 .bss           0x00000000        0x0 mesh/core/libmesh_core_nrf52840_xxAA.a(nrf_mesh_utils.c.obj)
 .text.nrf_mesh_rand_get
                0x00000000       0x10 mesh/core/libmesh_core_nrf52840_xxAA.a(nrf_mesh_utils.c.obj)
 .text.nrf_mesh_gap_address_type_get
                0x00000000       0x3c mesh/core/libmesh_core_nrf52840_xxAA.a(nrf_mesh_utils.c.obj)
 .text          0x00000000        0x0 mesh/core/libmesh_core_nrf52840_xxAA.a(nrf_mesh.c.obj)
 .data          0x00000000        0x0 mesh/core/libmesh_core_nrf52840_xxAA.a(nrf_mesh.c.obj)
 .bss           0x00000000        0x0 mesh/core/libmesh_core_nrf52840_xxAA.a(nrf_mesh.c.obj)
 .text.nrf_mesh_process
                0x00000000        0x4 mesh/core/libmesh_core_nrf52840_xxAA.a(nrf_mesh.c.obj)
 .text.nrf_mesh_evt_handler_remove
                0x00000000        0x4 mesh/core/libmesh_core_nrf52840_xxAA.a(nrf_mesh.c.obj)
 .text.nrf_mesh_rx_cb_set
                0x00000000        0xc mesh/core/libmesh_core_nrf52840_xxAA.a(nrf_mesh.c.obj)
 .text.nrf_mesh_rx_cb_clear
                0x00000000        0xc mesh/core/libmesh_core_nrf52840_xxAA.a(nrf_mesh.c.obj)
 .text          0x00000000        0x0 mesh/core/libmesh_core_nrf52840_xxAA.a(hal.c.obj)
 .data          0x00000000        0x0 mesh/core/libmesh_core_nrf52840_xxAA.a(hal.c.obj)
 .bss           0x00000000        0x0 mesh/core/libmesh_core_nrf52840_xxAA.a(hal.c.obj)
 .text          0x00000000        0x0 mesh/core/libmesh_core_nrf52840_xxAA.a(timer_scheduler.c.obj)
 .data          0x00000000        0x0 mesh/core/libmesh_core_nrf52840_xxAA.a(timer_scheduler.c.obj)
 .bss           0x00000000        0x0 mesh/core/libmesh_core_nrf52840_xxAA.a(timer_scheduler.c.obj)
 .text          0x00000000        0x0 mesh/core/libmesh_core_nrf52840_xxAA.a(timer.c.obj)
 .data          0x00000000        0x0 mesh/core/libmesh_core_nrf52840_xxAA.a(timer.c.obj)
 .bss           0x00000000        0x0 mesh/core/libmesh_core_nrf52840_xxAA.a(timer.c.obj)
 .text.timer_order_cb_ppi
                0x00000000       0xc4 mesh/core/libmesh_core_nrf52840_xxAA.a(timer.c.obj)
 .text.timer_order_ppi
                0x00000000       0xc0 mesh/core/libmesh_core_nrf52840_xxAA.a(timer.c.obj)
 .text.timer_abort
                0x00000000       0x78 mesh/core/libmesh_core_nrf52840_xxAA.a(timer.c.obj)
 .text          0x00000000        0x0 mesh/core/libmesh_core_nrf52840_xxAA.a(ticker.c.obj)
 .data          0x00000000        0x0 mesh/core/libmesh_core_nrf52840_xxAA.a(ticker.c.obj)
 .bss           0x00000000        0x0 mesh/core/libmesh_core_nrf52840_xxAA.a(ticker.c.obj)
 .text.ticker_get
                0x00000000        0xc mesh/core/libmesh_core_nrf52840_xxAA.a(ticker.c.obj)
 .text          0x00000000        0x0 mesh/core/libmesh_core_nrf52840_xxAA.a(rand.c.obj)
 .data          0x00000000        0x0 mesh/core/libmesh_core_nrf52840_xxAA.a(rand.c.obj)
 .bss           0x00000000        0x0 mesh/core/libmesh_core_nrf52840_xxAA.a(rand.c.obj)
 .text          0x00000000        0x0 mesh/core/libmesh_core_nrf52840_xxAA.a(timeslot.c.obj)
 .data          0x00000000        0x0 mesh/core/libmesh_core_nrf52840_xxAA.a(timeslot.c.obj)
 .bss           0x00000000        0x0 mesh/core/libmesh_core_nrf52840_xxAA.a(timeslot.c.obj)
 .text.timeslot_end_time_get
                0x00000000       0x10 mesh/core/libmesh_core_nrf52840_xxAA.a(timeslot.c.obj)
 .text.timeslot_is_in_ts
                0x00000000        0xc mesh/core/libmesh_core_nrf52840_xxAA.a(timeslot.c.obj)
 .text.timeslot_restart
                0x00000000       0x10 mesh/core/libmesh_core_nrf52840_xxAA.a(timeslot.c.obj)
 .text          0x00000000        0x0 mesh/core/libmesh_core_nrf52840_xxAA.a(bearer_event.c.obj)
 .data          0x00000000        0x0 mesh/core/libmesh_core_nrf52840_xxAA.a(bearer_event.c.obj)
 .bss           0x00000000        0x0 mesh/core/libmesh_core_nrf52840_xxAA.a(bearer_event.c.obj)
 .text.bearer_event_timer_sch_post
                0x00000000       0x34 mesh/core/libmesh_core_nrf52840_xxAA.a(bearer_event.c.obj)
 .text.bearer_event_in_correct_irq_priority
                0x00000000       0x48 mesh/core/libmesh_core_nrf52840_xxAA.a(bearer_event.c.obj)
 .text          0x00000000        0x0 mesh/core/libmesh_core_nrf52840_xxAA.a(enc.c.obj)
 .data          0x00000000        0x0 mesh/core/libmesh_core_nrf52840_xxAA.a(enc.c.obj)
 .bss           0x00000000        0x0 mesh/core/libmesh_core_nrf52840_xxAA.a(enc.c.obj)
 .text.enc_key_generate
                0x00000000        0x6 mesh/core/libmesh_core_nrf52840_xxAA.a(enc.c.obj)
 .text          0x00000000        0x0 mesh/core/libmesh_core_nrf52840_xxAA.a(network.c.obj)
 .data          0x00000000        0x0 mesh/core/libmesh_core_nrf52840_xxAA.a(network.c.obj)
 .bss           0x00000000        0x0 mesh/core/libmesh_core_nrf52840_xxAA.a(network.c.obj)
 .text.network_opt_set
                0x00000000       0x68 mesh/core/libmesh_core_nrf52840_xxAA.a(network.c.obj)
 .text.network_packet_discard
                0x00000000       0x3c mesh/core/libmesh_core_nrf52840_xxAA.a(network.c.obj)
 .text          0x00000000        0x0 mesh/core/libmesh_core_nrf52840_xxAA.a(msqueue.c.obj)
 .data          0x00000000        0x0 mesh/core/libmesh_core_nrf52840_xxAA.a(msqueue.c.obj)
 .bss           0x00000000        0x0 mesh/core/libmesh_core_nrf52840_xxAA.a(msqueue.c.obj)
 .text          0x00000000        0x0 mesh/core/libmesh_core_nrf52840_xxAA.a(nrf_mesh_keygen.c.obj)
 .data          0x00000000        0x0 mesh/core/libmesh_core_nrf52840_xxAA.a(nrf_mesh_keygen.c.obj)
 .bss           0x00000000        0x0 mesh/core/libmesh_core_nrf52840_xxAA.a(nrf_mesh_keygen.c.obj)
 .text.nrf_mesh_keygen_identitykey
                0x00000000       0x4c mesh/core/libmesh_core_nrf52840_xxAA.a(nrf_mesh_keygen.c.obj)
 .text          0x00000000        0x0 mesh/core/libmesh_core_nrf52840_xxAA.a(list.c.obj)
 .data          0x00000000        0x0 mesh/core/libmesh_core_nrf52840_xxAA.a(list.c.obj)
 .bss           0x00000000        0x0 mesh/core/libmesh_core_nrf52840_xxAA.a(list.c.obj)
 .text.list_size_get
                0x00000000       0x12 mesh/core/libmesh_core_nrf52840_xxAA.a(list.c.obj)
 .text.list_sorted_add
                0x00000000       0x90 mesh/core/libmesh_core_nrf52840_xxAA.a(list.c.obj)
 .text          0x00000000        0x0 mesh/core/libmesh_core_nrf52840_xxAA.a(log.c.obj)
 .data          0x00000000        0x0 mesh/core/libmesh_core_nrf52840_xxAA.a(log.c.obj)
 .bss           0x00000000        0x0 mesh/core/libmesh_core_nrf52840_xxAA.a(log.c.obj)
 .text.log_callback_logview
                0x00000000       0x38 mesh/core/libmesh_core_nrf52840_xxAA.a(log.c.obj)
 .text.log_set_callback
                0x00000000        0xc mesh/core/libmesh_core_nrf52840_xxAA.a(log.c.obj)
 .rodata.log_callback_logview.str1.1
                0x00000000        0xf mesh/core/libmesh_core_nrf52840_xxAA.a(log.c.obj)
 .text          0x00000000        0x0 mesh/core/libmesh_core_nrf52840_xxAA.a(flash_manager.c.obj)
 .data          0x00000000        0x0 mesh/core/libmesh_core_nrf52840_xxAA.a(flash_manager.c.obj)
 .bss           0x00000000        0x0 mesh/core/libmesh_core_nrf52840_xxAA.a(flash_manager.c.obj)
 .text.flash_manager_entry_get
                0x00000000       0x48 mesh/core/libmesh_core_nrf52840_xxAA.a(flash_manager.c.obj)
 .text.flash_manager_entry_count_get
                0x00000000       0x5c mesh/core/libmesh_core_nrf52840_xxAA.a(flash_manager.c.obj)
 .text.flash_manager_entry_release
                0x00000000       0x12 mesh/core/libmesh_core_nrf52840_xxAA.a(flash_manager.c.obj)
 .text.flash_manager_action_queue_empty_cb_set
                0x00000000       0x28 mesh/core/libmesh_core_nrf52840_xxAA.a(flash_manager.c.obj)
 .text          0x00000000        0x0 mesh/core/libmesh_core_nrf52840_xxAA.a(ccm_soft.c.obj)
 .data          0x00000000        0x0 mesh/core/libmesh_core_nrf52840_xxAA.a(ccm_soft.c.obj)
 .bss           0x00000000        0x0 mesh/core/libmesh_core_nrf52840_xxAA.a(ccm_soft.c.obj)
 .text          0x00000000        0x0 mesh/core/libmesh_core_nrf52840_xxAA.a(beacon.c.obj)
 .data          0x00000000        0x0 mesh/core/libmesh_core_nrf52840_xxAA.a(beacon.c.obj)
 .bss           0x00000000        0x0 mesh/core/libmesh_core_nrf52840_xxAA.a(beacon.c.obj)
 .text          0x00000000        0x0 mesh/core/libmesh_core_nrf52840_xxAA.a(flash_manager_internal.c.obj)
 .data          0x00000000        0x0 mesh/core/libmesh_core_nrf52840_xxAA.a(flash_manager_internal.c.obj)
 .bss           0x00000000        0x0 mesh/core/libmesh_core_nrf52840_xxAA.a(flash_manager_internal.c.obj)
 .text          0x00000000        0x0 mesh/core/libmesh_core_nrf52840_xxAA.a(core_tx.c.obj)
 .data          0x00000000        0x0 mesh/core/libmesh_core_nrf52840_xxAA.a(core_tx.c.obj)
 .bss           0x00000000        0x0 mesh/core/libmesh_core_nrf52840_xxAA.a(core_tx.c.obj)
 .text          0x00000000        0x0 mesh/core/libmesh_core_nrf52840_xxAA.a(heartbeat.c.obj)
 .data          0x00000000        0x0 mesh/core/libmesh_core_nrf52840_xxAA.a(heartbeat.c.obj)
 .bss           0x00000000        0x0 mesh/core/libmesh_core_nrf52840_xxAA.a(heartbeat.c.obj)
 .text.heartbeat_on_feature_change_trigger
                0x00000000       0x50 mesh/core/libmesh_core_nrf52840_xxAA.a(heartbeat.c.obj)
 .text.heartbeat_subscription_set
                0x00000000       0x90 mesh/core/libmesh_core_nrf52840_xxAA.a(heartbeat.c.obj)
 .text.heartbeat_subscription_get
                0x00000000        0x8 mesh/core/libmesh_core_nrf52840_xxAA.a(heartbeat.c.obj)
 .text.heartbeat_config_server_cb_set
                0x00000000       0x3c mesh/core/libmesh_core_nrf52840_xxAA.a(heartbeat.c.obj)
 .text.heartbeat_publication_state_updated
                0x00000000       0x80 mesh/core/libmesh_core_nrf52840_xxAA.a(heartbeat.c.obj)
 .text          0x00000000        0x0 mesh/core/libmesh_core_nrf52840_xxAA.a(net_beacon.c.obj)
 .data          0x00000000        0x0 mesh/core/libmesh_core_nrf52840_xxAA.a(net_beacon.c.obj)
 .bss           0x00000000        0x0 mesh/core/libmesh_core_nrf52840_xxAA.a(net_beacon.c.obj)
 .text.net_beacon_state_set
                0x00000000       0x34 mesh/core/libmesh_core_nrf52840_xxAA.a(net_beacon.c.obj)
 .text.net_beacon_state_get
                0x00000000        0xc mesh/core/libmesh_core_nrf52840_xxAA.a(net_beacon.c.obj)
 .text          0x00000000        0x0 mesh/core/libmesh_core_nrf52840_xxAA.a(core_tx_adv.c.obj)
 .data          0x00000000        0x0 mesh/core/libmesh_core_nrf52840_xxAA.a(core_tx_adv.c.obj)
 .bss           0x00000000        0x0 mesh/core/libmesh_core_nrf52840_xxAA.a(core_tx_adv.c.obj)
 .text.core_tx_adv_count_set
                0x00000000       0x38 mesh/core/libmesh_core_nrf52840_xxAA.a(core_tx_adv.c.obj)
 .text.core_tx_adv_interval_set
                0x00000000       0x34 mesh/core/libmesh_core_nrf52840_xxAA.a(core_tx_adv.c.obj)
 .text.core_tx_adv_address_set
                0x00000000       0x34 mesh/core/libmesh_core_nrf52840_xxAA.a(core_tx_adv.c.obj)
 .text          0x00000000        0x0 mesh/core/libmesh_core_nrf52840_xxAA.a(ad_listener.c.obj)
 .data          0x00000000        0x0 mesh/core/libmesh_core_nrf52840_xxAA.a(ad_listener.c.obj)
 .bss           0x00000000        0x0 mesh/core/libmesh_core_nrf52840_xxAA.a(ad_listener.c.obj)
 .text.ad_listener_unsubscribe
                0x00000000       0x6c mesh/core/libmesh_core_nrf52840_xxAA.a(ad_listener.c.obj)
 .text          0x00000000        0x0 mesh/core/libmesh_core_nrf52840_xxAA.a(ad_type_filter.c.obj)
 .data          0x00000000        0x0 mesh/core/libmesh_core_nrf52840_xxAA.a(ad_type_filter.c.obj)
 .bss           0x00000000        0x0 mesh/core/libmesh_core_nrf52840_xxAA.a(ad_type_filter.c.obj)
 .text.bearer_adtype_remove
                0x00000000       0x20 mesh/core/libmesh_core_nrf52840_xxAA.a(ad_type_filter.c.obj)
 .text.bearer_adtype_clear
                0x00000000       0x10 mesh/core/libmesh_core_nrf52840_xxAA.a(ad_type_filter.c.obj)
 .text.bearer_invalid_length_amount_get
                0x00000000        0xc mesh/core/libmesh_core_nrf52840_xxAA.a(ad_type_filter.c.obj)
 .text.bearer_adtype_filtered_amount_get
                0x00000000        0xc mesh/core/libmesh_core_nrf52840_xxAA.a(ad_type_filter.c.obj)
 .text          0x00000000        0x0 mesh/core/libmesh_core_nrf52840_xxAA.a(advertiser.c.obj)
 .data          0x00000000        0x0 mesh/core/libmesh_core_nrf52840_xxAA.a(advertiser.c.obj)
 .bss           0x00000000        0x0 mesh/core/libmesh_core_nrf52840_xxAA.a(advertiser.c.obj)
 .text.advertiser_address_set
                0x00000000       0x50 mesh/core/libmesh_core_nrf52840_xxAA.a(advertiser.c.obj)
 .text.advertiser_config_set
                0x00000000       0x44 mesh/core/libmesh_core_nrf52840_xxAA.a(advertiser.c.obj)
 .text.advertiser_config_get
                0x00000000       0x2c mesh/core/libmesh_core_nrf52840_xxAA.a(advertiser.c.obj)
 .text          0x00000000        0x0 mesh/core/libmesh_core_nrf52840_xxAA.a(bearer_handler.c.obj)
 .data          0x00000000        0x0 mesh/core/libmesh_core_nrf52840_xxAA.a(bearer_handler.c.obj)
 .bss           0x00000000        0x0 mesh/core/libmesh_core_nrf52840_xxAA.a(bearer_handler.c.obj)
 .text.bearer_handler_action_fire
                0x00000000       0xbc mesh/core/libmesh_core_nrf52840_xxAA.a(bearer_handler.c.obj)
 .text          0x00000000        0x0 mesh/core/libmesh_core_nrf52840_xxAA.a(broadcast.c.obj)
 .data          0x00000000        0x0 mesh/core/libmesh_core_nrf52840_xxAA.a(broadcast.c.obj)
 .bss           0x00000000        0x0 mesh/core/libmesh_core_nrf52840_xxAA.a(broadcast.c.obj)
 .text          0x00000000        0x0 mesh/core/libmesh_core_nrf52840_xxAA.a(filter_engine.c.obj)
 .data          0x00000000        0x0 mesh/core/libmesh_core_nrf52840_xxAA.a(filter_engine.c.obj)
 .bss           0x00000000        0x0 mesh/core/libmesh_core_nrf52840_xxAA.a(filter_engine.c.obj)
 .text.fen_accepted_amount_get
                0x00000000        0xc mesh/core/libmesh_core_nrf52840_xxAA.a(filter_engine.c.obj)
 .text          0x00000000        0x0 mesh/core/libmesh_core_nrf52840_xxAA.a(radio_config.c.obj)
 .data          0x00000000        0x0 mesh/core/libmesh_core_nrf52840_xxAA.a(radio_config.c.obj)
 .bss           0x00000000        0x0 mesh/core/libmesh_core_nrf52840_xxAA.a(radio_config.c.obj)
 .text.radio_config_access_addr_get
                0x00000000       0x64 mesh/core/libmesh_core_nrf52840_xxAA.a(radio_config.c.obj)
 .text          0x00000000        0x0 mesh/core/libmesh_core_nrf52840_xxAA.a(scanner.c.obj)
 .data          0x00000000        0x0 mesh/core/libmesh_core_nrf52840_xxAA.a(scanner.c.obj)
 .bss           0x00000000        0x0 mesh/core/libmesh_core_nrf52840_xxAA.a(scanner.c.obj)
 .text.scanner_rx_callback_set
                0x00000000       0x2c mesh/core/libmesh_core_nrf52840_xxAA.a(scanner.c.obj)
 .text.scanner_is_enabled
                0x00000000       0x10 mesh/core/libmesh_core_nrf52840_xxAA.a(scanner.c.obj)
 .text.scanner_stats_get
                0x00000000        0x8 mesh/core/libmesh_core_nrf52840_xxAA.a(scanner.c.obj)
 .text.scanner_config_radio_mode_set
                0x00000000       0x10 mesh/core/libmesh_core_nrf52840_xxAA.a(scanner.c.obj)
 .text          0x00000000        0x0 mesh/core/libmesh_core_nrf52840_xxAA.a(aes.c.obj)
 .data          0x00000000        0x0 mesh/core/libmesh_core_nrf52840_xxAA.a(aes.c.obj)
 .bss           0x00000000        0x0 mesh/core/libmesh_core_nrf52840_xxAA.a(aes.c.obj)
 .text          0x00000000        0x0 mesh/core/libmesh_core_nrf52840_xxAA.a(msg_cache.c.obj)
 .data          0x00000000        0x0 mesh/core/libmesh_core_nrf52840_xxAA.a(msg_cache.c.obj)
 .bss           0x00000000        0x0 mesh/core/libmesh_core_nrf52840_xxAA.a(msg_cache.c.obj)
 .text.msg_cache_clear
                0x00000000       0x18 mesh/core/libmesh_core_nrf52840_xxAA.a(msg_cache.c.obj)
 .text          0x00000000        0x0 mesh/core/libmesh_core_nrf52840_xxAA.a(transport.c.obj)
 .data          0x00000000        0x0 mesh/core/libmesh_core_nrf52840_xxAA.a(transport.c.obj)
 .bss           0x00000000        0x0 mesh/core/libmesh_core_nrf52840_xxAA.a(transport.c.obj)
 .text.transport_sar_mem_funcs_set
                0x00000000       0x44 mesh/core/libmesh_core_nrf52840_xxAA.a(transport.c.obj)
 .text.transport_opt_set
                0x00000000       0xd0 mesh/core/libmesh_core_nrf52840_xxAA.a(transport.c.obj)
 .text          0x00000000        0x0 mesh/core/libmesh_core_nrf52840_xxAA.a(flash_manager_defrag.c.obj)
 .data          0x00000000        0x0 mesh/core/libmesh_core_nrf52840_xxAA.a(flash_manager_defrag.c.obj)
 .bss           0x00000000        0x0 mesh/core/libmesh_core_nrf52840_xxAA.a(flash_manager_defrag.c.obj)
 .text.flash_manager_defragging
                0x00000000       0x44 mesh/core/libmesh_core_nrf52840_xxAA.a(flash_manager_defrag.c.obj)
 .text          0x00000000        0x0 mesh/core/libmesh_core_nrf52840_xxAA.a(nrf_flash.c.obj)
 .data          0x00000000        0x0 mesh/core/libmesh_core_nrf52840_xxAA.a(nrf_flash.c.obj)
 .bss           0x00000000        0x0 mesh/core/libmesh_core_nrf52840_xxAA.a(nrf_flash.c.obj)
 .text          0x00000000        0x0 mesh/core/libmesh_core_nrf52840_xxAA.a(packet_mgr.c.obj)
 .data          0x00000000        0x0 mesh/core/libmesh_core_nrf52840_xxAA.a(packet_mgr.c.obj)
 .bss           0x00000000        0x0 mesh/core/libmesh_core_nrf52840_xxAA.a(packet_mgr.c.obj)
 .text.packet_mgr_alloc
                0x00000000      0x19c mesh/core/libmesh_core_nrf52840_xxAA.a(packet_mgr.c.obj)
 .text.packet_mgr_free
                0x00000000       0x6c mesh/core/libmesh_core_nrf52840_xxAA.a(packet_mgr.c.obj)
 .text.packet_mgr_get_free_space
                0x00000000       0x1c mesh/core/libmesh_core_nrf52840_xxAA.a(packet_mgr.c.obj)
 .text.packet_mgr_refcount_get
                0x00000000        0x6 mesh/core/libmesh_core_nrf52840_xxAA.a(packet_mgr.c.obj)
 .text.packet_mgr_size_get
                0x00000000        0x6 mesh/core/libmesh_core_nrf52840_xxAA.a(packet_mgr.c.obj)
 .text          0x00000000        0x0 mesh/core/libmesh_core_nrf52840_xxAA.a(queue.c.obj)
 .data          0x00000000        0x0 mesh/core/libmesh_core_nrf52840_xxAA.a(queue.c.obj)
 .bss           0x00000000        0x0 mesh/core/libmesh_core_nrf52840_xxAA.a(queue.c.obj)
 .text          0x00000000        0x0 mesh/core/libmesh_core_nrf52840_xxAA.a(aes_cmac.c.obj)
 .data          0x00000000        0x0 mesh/core/libmesh_core_nrf52840_xxAA.a(aes_cmac.c.obj)
 .bss           0x00000000        0x0 mesh/core/libmesh_core_nrf52840_xxAA.a(aes_cmac.c.obj)
 .text          0x00000000        0x0 mesh/core/libmesh_core_nrf52840_xxAA.a(nrf_mesh_opt.c.obj)
 .data          0x00000000        0x0 mesh/core/libmesh_core_nrf52840_xxAA.a(nrf_mesh_opt.c.obj)
 .bss           0x00000000        0x0 mesh/core/libmesh_core_nrf52840_xxAA.a(nrf_mesh_opt.c.obj)
 .text.nrf_mesh_opt_set
                0x00000000       0x26 mesh/core/libmesh_core_nrf52840_xxAA.a(nrf_mesh_opt.c.obj)
 .text          0x00000000        0x0 mesh/core/libmesh_core_nrf52840_xxAA.a(replay_cache.c.obj)
 .data          0x00000000        0x0 mesh/core/libmesh_core_nrf52840_xxAA.a(replay_cache.c.obj)
 .bss           0x00000000        0x0 mesh/core/libmesh_core_nrf52840_xxAA.a(replay_cache.c.obj)
 .text.replay_cache_on_iv_update
                0x00000000       0x24 mesh/core/libmesh_core_nrf52840_xxAA.a(replay_cache.c.obj)
 .text          0x00000000        0x0 external/rtt/librtt_nrf52840_xxAA.a(SEGGER_RTT.c.obj)
 .data          0x00000000        0x0 external/rtt/librtt_nrf52840_xxAA.a(SEGGER_RTT.c.obj)
 .bss           0x00000000        0x0 external/rtt/librtt_nrf52840_xxAA.a(SEGGER_RTT.c.obj)
 .text._PostTerminalSwitch.constprop.0
                0x00000000       0x28 external/rtt/librtt_nrf52840_xxAA.a(SEGGER_RTT.c.obj)
 .text.SEGGER_RTT_ReadNoLock
                0x00000000       0x88 external/rtt/librtt_nrf52840_xxAA.a(SEGGER_RTT.c.obj)
 .text.SEGGER_RTT_Read
                0x00000000       0x1c external/rtt/librtt_nrf52840_xxAA.a(SEGGER_RTT.c.obj)
 .text.SEGGER_RTT_WriteSkipNoLock
                0x00000000       0xb4 external/rtt/librtt_nrf52840_xxAA.a(SEGGER_RTT.c.obj)
 .text.SEGGER_RTT_WriteString
                0x00000000       0x1a external/rtt/librtt_nrf52840_xxAA.a(SEGGER_RTT.c.obj)
 .text.SEGGER_RTT_GetKey
                0x00000000       0x20 external/rtt/librtt_nrf52840_xxAA.a(SEGGER_RTT.c.obj)
 .text.SEGGER_RTT_WaitKey
                0x00000000        0xc external/rtt/librtt_nrf52840_xxAA.a(SEGGER_RTT.c.obj)
 .text.SEGGER_RTT_HasKey
                0x00000000       0x1c external/rtt/librtt_nrf52840_xxAA.a(SEGGER_RTT.c.obj)
 .text.SEGGER_RTT_HasData
                0x00000000       0x14 external/rtt/librtt_nrf52840_xxAA.a(SEGGER_RTT.c.obj)
 .text.SEGGER_RTT_AllocDownBuffer
                0x00000000       0x68 external/rtt/librtt_nrf52840_xxAA.a(SEGGER_RTT.c.obj)
 .text.SEGGER_RTT_AllocUpBuffer
                0x00000000       0x70 external/rtt/librtt_nrf52840_xxAA.a(SEGGER_RTT.c.obj)
 .text.SEGGER_RTT_ConfigUpBuffer
                0x00000000       0x68 external/rtt/librtt_nrf52840_xxAA.a(SEGGER_RTT.c.obj)
 .text.SEGGER_RTT_ConfigDownBuffer
                0x00000000       0x60 external/rtt/librtt_nrf52840_xxAA.a(SEGGER_RTT.c.obj)
 .text.SEGGER_RTT_SetNameUpBuffer
                0x00000000       0x3c external/rtt/librtt_nrf52840_xxAA.a(SEGGER_RTT.c.obj)
 .text.SEGGER_RTT_SetNameDownBuffer
                0x00000000       0x3c external/rtt/librtt_nrf52840_xxAA.a(SEGGER_RTT.c.obj)
 .text.SEGGER_RTT_Init
                0x00000000       0x10 external/rtt/librtt_nrf52840_xxAA.a(SEGGER_RTT.c.obj)
 .text.SEGGER_RTT_SetTerminal
                0x00000000       0x84 external/rtt/librtt_nrf52840_xxAA.a(SEGGER_RTT.c.obj)
 .text.SEGGER_RTT_TerminalOut
                0x00000000       0xa0 external/rtt/librtt_nrf52840_xxAA.a(SEGGER_RTT.c.obj)
 .bss._ActiveTerminal
                0x00000000        0x1 external/rtt/librtt_nrf52840_xxAA.a(SEGGER_RTT.c.obj)
 .rodata._aTerminalId
                0x00000000       0x10 external/rtt/librtt_nrf52840_xxAA.a(SEGGER_RTT.c.obj)
 .text          0x00000000        0x0 external/rtt/librtt_nrf52840_xxAA.a(SEGGER_RTT_printf.c.obj)
 .data          0x00000000        0x0 external/rtt/librtt_nrf52840_xxAA.a(SEGGER_RTT_printf.c.obj)
 .bss           0x00000000        0x0 external/rtt/librtt_nrf52840_xxAA.a(SEGGER_RTT_printf.c.obj)
 .text          0x00000000        0x0 external/micro-ecc/libuECC_nrf52840_xxAA.a(uECC.c.obj)
 .data          0x00000000        0x0 external/micro-ecc/libuECC_nrf52840_xxAA.a(uECC.c.obj)
 .bss           0x00000000        0x0 external/micro-ecc/libuECC_nrf52840_xxAA.a(uECC.c.obj)
 .text.uECC_vli_modMult
                0x00000000      0x148 external/micro-ecc/libuECC_nrf52840_xxAA.a(uECC.c.obj)
 .text.HMAC_init
                0x00000000       0x46 external/micro-ecc/libuECC_nrf52840_xxAA.a(uECC.c.obj)
 .text.HMAC_update
                0x00000000        0x4 external/micro-ecc/libuECC_nrf52840_xxAA.a(uECC.c.obj)
 .text.HMAC_finish
                0x00000000       0x62 external/micro-ecc/libuECC_nrf52840_xxAA.a(uECC.c.obj)
 .text.update_V
                0x00000000       0x24 external/micro-ecc/libuECC_nrf52840_xxAA.a(uECC.c.obj)
 .text.bits2int
                0x00000000       0x88 external/micro-ecc/libuECC_nrf52840_xxAA.a(uECC.c.obj)
 .text.uECC_sign_with_k
                0x00000000      0x17c external/micro-ecc/libuECC_nrf52840_xxAA.a(uECC.c.obj)
 .text.uECC_set_rng
                0x00000000        0xc external/micro-ecc/libuECC_nrf52840_xxAA.a(uECC.c.obj)
 .text.uECC_get_rng
                0x00000000        0xc external/micro-ecc/libuECC_nrf52840_xxAA.a(uECC.c.obj)
 .text.uECC_curve_private_key_size
                0x00000000        0xe external/micro-ecc/libuECC_nrf52840_xxAA.a(uECC.c.obj)
 .text.uECC_curve_public_key_size
                0x00000000        0x8 external/micro-ecc/libuECC_nrf52840_xxAA.a(uECC.c.obj)
 .text.uECC_compute_public_key
                0x00000000       0x7e external/micro-ecc/libuECC_nrf52840_xxAA.a(uECC.c.obj)
 .text.uECC_sign
                0x00000000       0x56 external/micro-ecc/libuECC_nrf52840_xxAA.a(uECC.c.obj)
 .text.uECC_sign_deterministic
                0x00000000      0x192 external/micro-ecc/libuECC_nrf52840_xxAA.a(uECC.c.obj)
 .text.uECC_verify
                0x00000000      0x2f0 external/micro-ecc/libuECC_nrf52840_xxAA.a(uECC.c.obj)
 .text          0x00000000        0x0 c:/a/gcc_arm/6/bin/../lib/gcc/arm-none-eabi/6.3.1/../../../../arm-none-eabi/lib/thumb/v7e-m/fpv4-sp/hard\libg_nano.a(lib_a-exit.o)
 .data          0x00000000        0x0 c:/a/gcc_arm/6/bin/../lib/gcc/arm-none-eabi/6.3.1/../../../../arm-none-eabi/lib/thumb/v7e-m/fpv4-sp/hard\libg_nano.a(lib_a-exit.o)
 .bss           0x00000000        0x0 c:/a/gcc_arm/6/bin/../lib/gcc/arm-none-eabi/6.3.1/../../../../arm-none-eabi/lib/thumb/v7e-m/fpv4-sp/hard\libg_nano.a(lib_a-exit.o)
 .text          0x00000000        0x0 c:/a/gcc_arm/6/bin/../lib/gcc/arm-none-eabi/6.3.1/../../../../arm-none-eabi/lib/thumb/v7e-m/fpv4-sp/hard\libg_nano.a(lib_a-impure.o)
 .data          0x00000000        0x0 c:/a/gcc_arm/6/bin/../lib/gcc/arm-none-eabi/6.3.1/../../../../arm-none-eabi/lib/thumb/v7e-m/fpv4-sp/hard\libg_nano.a(lib_a-impure.o)
 .bss           0x00000000        0x0 c:/a/gcc_arm/6/bin/../lib/gcc/arm-none-eabi/6.3.1/../../../../arm-none-eabi/lib/thumb/v7e-m/fpv4-sp/hard\libg_nano.a(lib_a-impure.o)
 .text          0x00000000        0x0 c:/a/gcc_arm/6/bin/../lib/gcc/arm-none-eabi/6.3.1/../../../../arm-none-eabi/lib/thumb/v7e-m/fpv4-sp/hard\libg_nano.a(lib_a-init.o)
 .data          0x00000000        0x0 c:/a/gcc_arm/6/bin/../lib/gcc/arm-none-eabi/6.3.1/../../../../arm-none-eabi/lib/thumb/v7e-m/fpv4-sp/hard\libg_nano.a(lib_a-init.o)
 .bss           0x00000000        0x0 c:/a/gcc_arm/6/bin/../lib/gcc/arm-none-eabi/6.3.1/../../../../arm-none-eabi/lib/thumb/v7e-m/fpv4-sp/hard\libg_nano.a(lib_a-init.o)
 .text          0x00000000        0x0 c:/a/gcc_arm/6/bin/../lib/gcc/arm-none-eabi/6.3.1/../../../../arm-none-eabi/lib/thumb/v7e-m/fpv4-sp/hard\libg_nano.a(lib_a-malloc.o)
 .data          0x00000000        0x0 c:/a/gcc_arm/6/bin/../lib/gcc/arm-none-eabi/6.3.1/../../../../arm-none-eabi/lib/thumb/v7e-m/fpv4-sp/hard\libg_nano.a(lib_a-malloc.o)
 .bss           0x00000000        0x0 c:/a/gcc_arm/6/bin/../lib/gcc/arm-none-eabi/6.3.1/../../../../arm-none-eabi/lib/thumb/v7e-m/fpv4-sp/hard\libg_nano.a(lib_a-malloc.o)
 .text          0x00000000        0x0 c:/a/gcc_arm/6/bin/../lib/gcc/arm-none-eabi/6.3.1/../../../../arm-none-eabi/lib/thumb/v7e-m/fpv4-sp/hard\libg_nano.a(lib_a-memcmp.o)
 .data          0x00000000        0x0 c:/a/gcc_arm/6/bin/../lib/gcc/arm-none-eabi/6.3.1/../../../../arm-none-eabi/lib/thumb/v7e-m/fpv4-sp/hard\libg_nano.a(lib_a-memcmp.o)
 .bss           0x00000000        0x0 c:/a/gcc_arm/6/bin/../lib/gcc/arm-none-eabi/6.3.1/../../../../arm-none-eabi/lib/thumb/v7e-m/fpv4-sp/hard\libg_nano.a(lib_a-memcmp.o)
 .text          0x00000000        0x0 c:/a/gcc_arm/6/bin/../lib/gcc/arm-none-eabi/6.3.1/../../../../arm-none-eabi/lib/thumb/v7e-m/fpv4-sp/hard\libg_nano.a(lib_a-memcpy-stub.o)
 .data          0x00000000        0x0 c:/a/gcc_arm/6/bin/../lib/gcc/arm-none-eabi/6.3.1/../../../../arm-none-eabi/lib/thumb/v7e-m/fpv4-sp/hard\libg_nano.a(lib_a-memcpy-stub.o)
 .bss           0x00000000        0x0 c:/a/gcc_arm/6/bin/../lib/gcc/arm-none-eabi/6.3.1/../../../../arm-none-eabi/lib/thumb/v7e-m/fpv4-sp/hard\libg_nano.a(lib_a-memcpy-stub.o)
 .text          0x00000000        0x0 c:/a/gcc_arm/6/bin/../lib/gcc/arm-none-eabi/6.3.1/../../../../arm-none-eabi/lib/thumb/v7e-m/fpv4-sp/hard\libg_nano.a(lib_a-memset.o)
 .data          0x00000000        0x0 c:/a/gcc_arm/6/bin/../lib/gcc/arm-none-eabi/6.3.1/../../../../arm-none-eabi/lib/thumb/v7e-m/fpv4-sp/hard\libg_nano.a(lib_a-memset.o)
 .bss           0x00000000        0x0 c:/a/gcc_arm/6/bin/../lib/gcc/arm-none-eabi/6.3.1/../../../../arm-none-eabi/lib/thumb/v7e-m/fpv4-sp/hard\libg_nano.a(lib_a-memset.o)
 .text          0x00000000        0x0 c:/a/gcc_arm/6/bin/../lib/gcc/arm-none-eabi/6.3.1/../../../../arm-none-eabi/lib/thumb/v7e-m/fpv4-sp/hard\libg_nano.a(lib_a-nano-freer.o)
 .data          0x00000000        0x0 c:/a/gcc_arm/6/bin/../lib/gcc/arm-none-eabi/6.3.1/../../../../arm-none-eabi/lib/thumb/v7e-m/fpv4-sp/hard\libg_nano.a(lib_a-nano-freer.o)
 .bss           0x00000000        0x0 c:/a/gcc_arm/6/bin/../lib/gcc/arm-none-eabi/6.3.1/../../../../arm-none-eabi/lib/thumb/v7e-m/fpv4-sp/hard\libg_nano.a(lib_a-nano-freer.o)
 .text          0x00000000        0x0 c:/a/gcc_arm/6/bin/../lib/gcc/arm-none-eabi/6.3.1/../../../../arm-none-eabi/lib/thumb/v7e-m/fpv4-sp/hard\libg_nano.a(lib_a-nano-mallocr.o)
 .data          0x00000000        0x0 c:/a/gcc_arm/6/bin/../lib/gcc/arm-none-eabi/6.3.1/../../../../arm-none-eabi/lib/thumb/v7e-m/fpv4-sp/hard\libg_nano.a(lib_a-nano-mallocr.o)
 .bss           0x00000000        0x0 c:/a/gcc_arm/6/bin/../lib/gcc/arm-none-eabi/6.3.1/../../../../arm-none-eabi/lib/thumb/v7e-m/fpv4-sp/hard\libg_nano.a(lib_a-nano-mallocr.o)
 .text          0x00000000        0x0 c:/a/gcc_arm/6/bin/../lib/gcc/arm-none-eabi/6.3.1/../../../../arm-none-eabi/lib/thumb/v7e-m/fpv4-sp/hard\libg_nano.a(lib_a-sbrkr.o)
 .data          0x00000000        0x0 c:/a/gcc_arm/6/bin/../lib/gcc/arm-none-eabi/6.3.1/../../../../arm-none-eabi/lib/thumb/v7e-m/fpv4-sp/hard\libg_nano.a(lib_a-sbrkr.o)
 .bss           0x00000000        0x0 c:/a/gcc_arm/6/bin/../lib/gcc/arm-none-eabi/6.3.1/../../../../arm-none-eabi/lib/thumb/v7e-m/fpv4-sp/hard\libg_nano.a(lib_a-sbrkr.o)
 .text          0x00000000        0x0 c:/a/gcc_arm/6/bin/../lib/gcc/arm-none-eabi/6.3.1/../../../../arm-none-eabi/lib/thumb/v7e-m/fpv4-sp/hard\libg_nano.a(lib_a-strcpy.o)
 .data          0x00000000        0x0 c:/a/gcc_arm/6/bin/../lib/gcc/arm-none-eabi/6.3.1/../../../../arm-none-eabi/lib/thumb/v7e-m/fpv4-sp/hard\libg_nano.a(lib_a-strcpy.o)
 .bss           0x00000000        0x0 c:/a/gcc_arm/6/bin/../lib/gcc/arm-none-eabi/6.3.1/../../../../arm-none-eabi/lib/thumb/v7e-m/fpv4-sp/hard\libg_nano.a(lib_a-strcpy.o)
 .data          0x00000000        0x0 c:/a/gcc_arm/6/bin/../lib/gcc/arm-none-eabi/6.3.1/../../../../arm-none-eabi/lib/thumb/v7e-m/fpv4-sp/hard\libg_nano.a(lib_a-strlen.o)
 .bss           0x00000000        0x0 c:/a/gcc_arm/6/bin/../lib/gcc/arm-none-eabi/6.3.1/../../../../arm-none-eabi/lib/thumb/v7e-m/fpv4-sp/hard\libg_nano.a(lib_a-strlen.o)
 .text          0x00000000        0x0 c:/a/gcc_arm/6/bin/../lib/gcc/arm-none-eabi/6.3.1/../../../../arm-none-eabi/lib/thumb/v7e-m/fpv4-sp/hard\libg_nano.a(lib_a-strrchr.o)
 .data          0x00000000        0x0 c:/a/gcc_arm/6/bin/../lib/gcc/arm-none-eabi/6.3.1/../../../../arm-none-eabi/lib/thumb/v7e-m/fpv4-sp/hard\libg_nano.a(lib_a-strrchr.o)
 .bss           0x00000000        0x0 c:/a/gcc_arm/6/bin/../lib/gcc/arm-none-eabi/6.3.1/../../../../arm-none-eabi/lib/thumb/v7e-m/fpv4-sp/hard\libg_nano.a(lib_a-strrchr.o)
 .text          0x00000000        0x0 c:/a/gcc_arm/6/bin/../lib/gcc/arm-none-eabi/6.3.1/../../../../arm-none-eabi/lib/thumb/v7e-m/fpv4-sp/hard\libg_nano.a(lib_a-mlock.o)
 .data          0x00000000        0x0 c:/a/gcc_arm/6/bin/../lib/gcc/arm-none-eabi/6.3.1/../../../../arm-none-eabi/lib/thumb/v7e-m/fpv4-sp/hard\libg_nano.a(lib_a-mlock.o)
 .bss           0x00000000        0x0 c:/a/gcc_arm/6/bin/../lib/gcc/arm-none-eabi/6.3.1/../../../../arm-none-eabi/lib/thumb/v7e-m/fpv4-sp/hard\libg_nano.a(lib_a-mlock.o)
 .text          0x00000000        0x0 c:/a/gcc_arm/6/bin/../lib/gcc/arm-none-eabi/6.3.1/../../../../arm-none-eabi/lib/thumb/v7e-m/fpv4-sp/hard\libg_nano.a(lib_a-reent.o)
 .data          0x00000000        0x0 c:/a/gcc_arm/6/bin/../lib/gcc/arm-none-eabi/6.3.1/../../../../arm-none-eabi/lib/thumb/v7e-m/fpv4-sp/hard\libg_nano.a(lib_a-reent.o)
 .bss           0x00000000        0x0 c:/a/gcc_arm/6/bin/../lib/gcc/arm-none-eabi/6.3.1/../../../../arm-none-eabi/lib/thumb/v7e-m/fpv4-sp/hard\libg_nano.a(lib_a-reent.o)
 .text.cleanup_glue
                0x00000000       0x1a c:/a/gcc_arm/6/bin/../lib/gcc/arm-none-eabi/6.3.1/../../../../arm-none-eabi/lib/thumb/v7e-m/fpv4-sp/hard\libg_nano.a(lib_a-reent.o)
 .text._reclaim_reent
                0x00000000       0xb8 c:/a/gcc_arm/6/bin/../lib/gcc/arm-none-eabi/6.3.1/../../../../arm-none-eabi/lib/thumb/v7e-m/fpv4-sp/hard\libg_nano.a(lib_a-reent.o)
 .text          0x00000000        0x0 c:/a/gcc_arm/6/bin/../lib/gcc/arm-none-eabi/6.3.1/../../../../arm-none-eabi/lib/thumb/v7e-m/fpv4-sp/hard\libg_nano.a(lib_a-strchr.o)
 .data          0x00000000        0x0 c:/a/gcc_arm/6/bin/../lib/gcc/arm-none-eabi/6.3.1/../../../../arm-none-eabi/lib/thumb/v7e-m/fpv4-sp/hard\libg_nano.a(lib_a-strchr.o)
 .bss           0x00000000        0x0 c:/a/gcc_arm/6/bin/../lib/gcc/arm-none-eabi/6.3.1/../../../../arm-none-eabi/lib/thumb/v7e-m/fpv4-sp/hard\libg_nano.a(lib_a-strchr.o)
 .text          0x00000000        0x0 c:/a/gcc_arm/6/bin/../lib/gcc/arm-none-eabi/6.3.1/thumb/v7e-m/fpv4-sp/hard/crtend.o
 .data          0x00000000        0x0 c:/a/gcc_arm/6/bin/../lib/gcc/arm-none-eabi/6.3.1/thumb/v7e-m/fpv4-sp/hard/crtend.o
 .bss           0x00000000        0x0 c:/a/gcc_arm/6/bin/../lib/gcc/arm-none-eabi/6.3.1/thumb/v7e-m/fpv4-sp/hard/crtend.o
 .text          0x00000000        0x0 c:/a/gcc_arm/6/bin/../lib/gcc/arm-none-eabi/6.3.1/thumb/v7e-m/fpv4-sp/hard/crtn.o
 .data          0x00000000        0x0 c:/a/gcc_arm/6/bin/../lib/gcc/arm-none-eabi/6.3.1/thumb/v7e-m/fpv4-sp/hard/crtn.o
 .bss           0x00000000        0x0 c:/a/gcc_arm/6/bin/../lib/gcc/arm-none-eabi/6.3.1/thumb/v7e-m/fpv4-sp/hard/crtn.o
 .text          0x00000000        0x0 c:/a/gcc_arm/6/bin/../lib/gcc/arm-none-eabi/6.3.1/../../../../arm-none-eabi/lib/thumb/v7e-m/fpv4-sp/hard\libnosys.a(sbrk.o)
 .data          0x00000000        0x0 c:/a/gcc_arm/6/bin/../lib/gcc/arm-none-eabi/6.3.1/../../../../arm-none-eabi/lib/thumb/v7e-m/fpv4-sp/hard\libnosys.a(sbrk.o)
 .bss           0x00000000        0x0 c:/a/gcc_arm/6/bin/../lib/gcc/arm-none-eabi/6.3.1/../../../../arm-none-eabi/lib/thumb/v7e-m/fpv4-sp/hard\libnosys.a(sbrk.o)
 .text          0x00000000        0x0 c:/a/gcc_arm/6/bin/../lib/gcc/arm-none-eabi/6.3.1/../../../../arm-none-eabi/lib/thumb/v7e-m/fpv4-sp/hard\libnosys.a(_exit.o)
 .data          0x00000000        0x0 c:/a/gcc_arm/6/bin/../lib/gcc/arm-none-eabi/6.3.1/../../../../arm-none-eabi/lib/thumb/v7e-m/fpv4-sp/hard\libnosys.a(_exit.o)
 .bss           0x00000000        0x0 c:/a/gcc_arm/6/bin/../lib/gcc/arm-none-eabi/6.3.1/../../../../arm-none-eabi/lib/thumb/v7e-m/fpv4-sp/hard\libnosys.a(_exit.o)

Memory Configuration

Name             Origin             Length             Attributes
FLASH            0x00024000         0x000d4000         xr
RAM              0x200031b8         0x0003cb48         xrw
*default*        0x00000000         0xffffffff

Linker script and memory map


.text           0x00024000    0x13474
 *(.isr_vector)
 .isr_vector    0x00024000      0x200 examples/dfu/CMakeFiles/dfu_nrf52840_xxAA_s140_5.0.0-3.alpha.dir/__/__/external/nRF5_SDK_14.2.0_17b948a/components/toolchain/gcc/gcc_startup_nrf52840.S.obj
                0x00024000                __isr_vector
 *(.text*)
 .text          0x00024200       0x6c c:/a/gcc_arm/6/bin/../lib/gcc/arm-none-eabi/6.3.1/thumb/v7e-m/fpv4-sp/hard/crtbegin.o
 .text          0x0002426c       0x74 c:/a/gcc_arm/6/bin/../lib/gcc/arm-none-eabi/6.3.1/../../../../arm-none-eabi/lib/thumb/v7e-m/fpv4-sp/hard/crt0.o
                0x0002426c                _start
                0x0002426c                _mainCRTStartup
 .text.sd_app_evt_wait
                0x000242e0        0x4 examples/dfu/CMakeFiles/dfu_nrf52840_xxAA_s140_5.0.0-3.alpha.dir/src/main.c.obj
 .text.mesh_evt_handler
                0x000242e4       0xd8 examples/dfu/CMakeFiles/dfu_nrf52840_xxAA_s140_5.0.0-3.alpha.dir/src/main.c.obj
 .text.startup.main
                0x000243bc      0x300 examples/dfu/CMakeFiles/dfu_nrf52840_xxAA_s140_5.0.0-3.alpha.dir/src/main.c.obj
                0x000243bc                main
 .text.sd_evt_get
                0x000246bc        0x4 examples/dfu/CMakeFiles/dfu_nrf52840_xxAA_s140_5.0.0-3.alpha.dir/__/nrf_mesh_sdk.c.obj
 .text.sd_softdevice_enable
                0x000246c0        0x4 examples/dfu/CMakeFiles/dfu_nrf52840_xxAA_s140_5.0.0-3.alpha.dir/__/nrf_mesh_sdk.c.obj
 .text.sd_ble_enable
                0x000246c4        0x4 examples/dfu/CMakeFiles/dfu_nrf52840_xxAA_s140_5.0.0-3.alpha.dir/__/nrf_mesh_sdk.c.obj
 .text.sd_ble_evt_get
                0x000246c8        0x4 examples/dfu/CMakeFiles/dfu_nrf52840_xxAA_s140_5.0.0-3.alpha.dir/__/nrf_mesh_sdk.c.obj
 .text.sleep_forever
                0x000246cc       0x1c examples/dfu/CMakeFiles/dfu_nrf52840_xxAA_s140_5.0.0-3.alpha.dir/__/nrf_mesh_sdk.c.obj
 .text.mesh_assert_handler
                0x000246e8       0x70 examples/dfu/CMakeFiles/dfu_nrf52840_xxAA_s140_5.0.0-3.alpha.dir/__/nrf_mesh_sdk.c.obj
                0x000246e8                mesh_assert_handler
 .text.softdevice_assert_handler
                0x00024758       0x78 examples/dfu/CMakeFiles/dfu_nrf52840_xxAA_s140_5.0.0-3.alpha.dir/__/nrf_mesh_sdk.c.obj
                0x00024758                softdevice_assert_handler
 .text.app_error_handler
                0x000247d0       0x78 examples/dfu/CMakeFiles/dfu_nrf52840_xxAA_s140_5.0.0-3.alpha.dir/__/nrf_mesh_sdk.c.obj
                0x000247d0                app_error_handler
 .text.HardFault_Handler
                0x00024848       0x6c examples/dfu/CMakeFiles/dfu_nrf52840_xxAA_s140_5.0.0-3.alpha.dir/__/nrf_mesh_sdk.c.obj
                0x00024848                HardFault_Handler
 .text.SWI2_EGU2_IRQHandler
                0x000248b4       0x3c examples/dfu/CMakeFiles/dfu_nrf52840_xxAA_s140_5.0.0-3.alpha.dir/__/nrf_mesh_sdk.c.obj
                0x000248b4                SWI2_EGU2_IRQHandler
 .text.mesh_softdevice_enable
                0x000248f0      0x124 examples/dfu/CMakeFiles/dfu_nrf52840_xxAA_s140_5.0.0-3.alpha.dir/__/nrf_mesh_sdk.c.obj
                0x000248f0                mesh_softdevice_enable
 .text.mesh_softdevice_setup
                0x00024a14       0x78 examples/dfu/CMakeFiles/dfu_nrf52840_xxAA_s140_5.0.0-3.alpha.dir/__/nrf_mesh_sdk.c.obj
                0x00024a14                mesh_softdevice_setup
 .text.mesh_core_setup
                0x00024a8c      0x15c examples/dfu/CMakeFiles/dfu_nrf52840_xxAA_s140_5.0.0-3.alpha.dir/__/nrf_mesh_sdk.c.obj
                0x00024a8c                mesh_core_setup
 .text.add_to_publication_list
                0x00024be8       0x84 examples/dfu/CMakeFiles/dfu_nrf52840_xxAA_s140_5.0.0-3.alpha.dir/__/__/mesh/access/src/access_publish.c.obj
 .text.step_resolution_to_us
                0x00024c6c       0x44 examples/dfu/CMakeFiles/dfu_nrf52840_xxAA_s140_5.0.0-3.alpha.dir/__/__/mesh/access/src/access_publish.c.obj
 .text.schedule_publication_timer
                0x00024cb0      0x184 examples/dfu/CMakeFiles/dfu_nrf52840_xxAA_s140_5.0.0-3.alpha.dir/__/__/mesh/access/src/access_publish.c.obj
 .text.access_publish_period_set
                0x00024e34       0x6c examples/dfu/CMakeFiles/dfu_nrf52840_xxAA_s140_5.0.0-3.alpha.dir/__/__/mesh/access/src/access_publish.c.obj
                0x00024e34                access_publish_period_set
 .text.access_publish_period_get
                0x00024ea0       0x30 examples/dfu/CMakeFiles/dfu_nrf52840_xxAA_s140_5.0.0-3.alpha.dir/__/__/mesh/access/src/access_publish.c.obj
                0x00024ea0                access_publish_period_get
 .text.bitfield_get
                0x00024ed0       0x1a examples/dfu/CMakeFiles/dfu_nrf52840_xxAA_s140_5.0.0-3.alpha.dir/__/__/mesh/access/src/access.c.obj
 *fill*         0x00024eea        0x2 
 .text.model_handle_valid_and_allocated
                0x00024eec       0x20 examples/dfu/CMakeFiles/dfu_nrf52840_xxAA_s140_5.0.0-3.alpha.dir/__/__/mesh/access/src/access.c.obj
 .text.flash_manager_mem_available
                0x00024f0c        0x2 examples/dfu/CMakeFiles/dfu_nrf52840_xxAA_s140_5.0.0-3.alpha.dir/__/__/mesh/access/src/access.c.obj
 *fill*         0x00024f0e        0x2 
 .text.access_flash_config_clear
                0x00024f10       0x28 examples/dfu/CMakeFiles/dfu_nrf52840_xxAA_s140_5.0.0-3.alpha.dir/__/__/mesh/access/src/access.c.obj
 .text.access_flash_config_store
                0x00024f38      0x14c examples/dfu/CMakeFiles/dfu_nrf52840_xxAA_s140_5.0.0-3.alpha.dir/__/__/mesh/access/src/access.c.obj
                0x00024f38                access_flash_config_store
 .text.access_state_clear
                0x00025084       0x4c examples/dfu/CMakeFiles/dfu_nrf52840_xxAA_s140_5.0.0-3.alpha.dir/__/__/mesh/access/src/access.c.obj
 .text.access_clear
                0x000250d0       0x12 examples/dfu/CMakeFiles/dfu_nrf52840_xxAA_s140_5.0.0-3.alpha.dir/__/__/mesh/access/src/access.c.obj
                0x000250d0                access_clear
 *fill*         0x000250e2        0x2 
 .text.access_model_publish_address_set
                0x000250e4       0x3c examples/dfu/CMakeFiles/dfu_nrf52840_xxAA_s140_5.0.0-3.alpha.dir/__/__/mesh/access/src/access.c.obj
                0x000250e4                access_model_publish_address_set
 .text.access_model_publish_address_get
                0x00025120       0x28 examples/dfu/CMakeFiles/dfu_nrf52840_xxAA_s140_5.0.0-3.alpha.dir/__/__/mesh/access/src/access.c.obj
                0x00025120                access_model_publish_address_get
 .text.access_model_publish_period_set
                0x00025148       0x6c examples/dfu/CMakeFiles/dfu_nrf52840_xxAA_s140_5.0.0-3.alpha.dir/__/__/mesh/access/src/access.c.obj
                0x00025148                access_model_publish_period_set
 .text.access_model_publish_period_get
                0x000251b4       0x3c examples/dfu/CMakeFiles/dfu_nrf52840_xxAA_s140_5.0.0-3.alpha.dir/__/__/mesh/access/src/access.c.obj
                0x000251b4                access_model_publish_period_get
 .text.access_model_subscription_add
                0x000251f0       0x60 examples/dfu/CMakeFiles/dfu_nrf52840_xxAA_s140_5.0.0-3.alpha.dir/__/__/mesh/access/src/access.c.obj
                0x000251f0                access_model_subscription_add
 .text.access_model_subscription_remove
                0x00025250       0x60 examples/dfu/CMakeFiles/dfu_nrf52840_xxAA_s140_5.0.0-3.alpha.dir/__/__/mesh/access/src/access.c.obj
                0x00025250                access_model_subscription_remove
 .text.access_model_subscriptions_get
                0x000252b0       0x80 examples/dfu/CMakeFiles/dfu_nrf52840_xxAA_s140_5.0.0-3.alpha.dir/__/__/mesh/access/src/access.c.obj
                0x000252b0                access_model_subscriptions_get
 .text.access_model_application_bind
                0x00025330       0x50 examples/dfu/CMakeFiles/dfu_nrf52840_xxAA_s140_5.0.0-3.alpha.dir/__/__/mesh/access/src/access.c.obj
                0x00025330                access_model_application_bind
 .text.access_model_application_unbind
                0x00025380       0x50 examples/dfu/CMakeFiles/dfu_nrf52840_xxAA_s140_5.0.0-3.alpha.dir/__/__/mesh/access/src/access.c.obj
                0x00025380                access_model_application_unbind
 .text.access_model_applications_get
                0x000253d0       0x64 examples/dfu/CMakeFiles/dfu_nrf52840_xxAA_s140_5.0.0-3.alpha.dir/__/__/mesh/access/src/access.c.obj
                0x000253d0                access_model_applications_get
 .text.access_model_publish_application_set
                0x00025434       0x3c examples/dfu/CMakeFiles/dfu_nrf52840_xxAA_s140_5.0.0-3.alpha.dir/__/__/mesh/access/src/access.c.obj
                0x00025434                access_model_publish_application_set
 .text.access_model_publish_application_get
                0x00025470       0x28 examples/dfu/CMakeFiles/dfu_nrf52840_xxAA_s140_5.0.0-3.alpha.dir/__/__/mesh/access/src/access.c.obj
                0x00025470                access_model_publish_application_get
 .text.access_model_publish_ttl_set
                0x00025498       0x40 examples/dfu/CMakeFiles/dfu_nrf52840_xxAA_s140_5.0.0-3.alpha.dir/__/__/mesh/access/src/access.c.obj
                0x00025498                access_model_publish_ttl_set
 .text.access_model_publish_ttl_get
                0x000254d8       0x28 examples/dfu/CMakeFiles/dfu_nrf52840_xxAA_s140_5.0.0-3.alpha.dir/__/__/mesh/access/src/access.c.obj
                0x000254d8                access_model_publish_ttl_get
 .text.access_element_location_set
                0x00025500       0x20 examples/dfu/CMakeFiles/dfu_nrf52840_xxAA_s140_5.0.0-3.alpha.dir/__/__/mesh/access/src/access.c.obj
                0x00025500                access_element_location_set
 .text.access_element_location_get
                0x00025520       0x18 examples/dfu/CMakeFiles/dfu_nrf52840_xxAA_s140_5.0.0-3.alpha.dir/__/__/mesh/access/src/access.c.obj
                0x00025520                access_element_location_get
 .text.access_element_sig_model_count_get
                0x00025538       0x18 examples/dfu/CMakeFiles/dfu_nrf52840_xxAA_s140_5.0.0-3.alpha.dir/__/__/mesh/access/src/access.c.obj
                0x00025538                access_element_sig_model_count_get
 .text.access_element_vendor_model_count_get
                0x00025550       0x18 examples/dfu/CMakeFiles/dfu_nrf52840_xxAA_s140_5.0.0-3.alpha.dir/__/__/mesh/access/src/access.c.obj
                0x00025550                access_element_vendor_model_count_get
 .text.access_model_id_get
                0x00025568       0x2c examples/dfu/CMakeFiles/dfu_nrf52840_xxAA_s140_5.0.0-3.alpha.dir/__/__/mesh/access/src/access.c.obj
                0x00025568                access_model_id_get
 .text.access_handle_get
                0x00025594       0x54 examples/dfu/CMakeFiles/dfu_nrf52840_xxAA_s140_5.0.0-3.alpha.dir/__/__/mesh/access/src/access.c.obj
                0x00025594                access_handle_get
 .text.access_element_models_get
                0x000255e8       0x48 examples/dfu/CMakeFiles/dfu_nrf52840_xxAA_s140_5.0.0-3.alpha.dir/__/__/mesh/access/src/access.c.obj
                0x000255e8                access_element_models_get
 .text.access_reliable_cancel_all
                0x00025630       0x34 examples/dfu/CMakeFiles/dfu_nrf52840_xxAA_s140_5.0.0-3.alpha.dir/__/__/mesh/access/src/access_reliable.c.obj
                0x00025630                access_reliable_cancel_all
 .text.bitfield_get
                0x00025664       0x1a examples/dfu/CMakeFiles/dfu_nrf52840_xxAA_s140_5.0.0-3.alpha.dir/__/__/mesh/access/src/device_state_manager.c.obj
 .text.bitfield_set
                0x0002567e       0x18 examples/dfu/CMakeFiles/dfu_nrf52840_xxAA_s140_5.0.0-3.alpha.dir/__/__/mesh/access/src/device_state_manager.c.obj
 .text.bitfield_clear
                0x00025696       0x1a examples/dfu/CMakeFiles/dfu_nrf52840_xxAA_s140_5.0.0-3.alpha.dir/__/__/mesh/access/src/device_state_manager.c.obj
 .text.address_handle_virtual_valid
                0x000256b0       0x18 examples/dfu/CMakeFiles/dfu_nrf52840_xxAA_s140_5.0.0-3.alpha.dir/__/__/mesh/access/src/device_state_manager.c.obj
 .text.net_key_handle_get
                0x000256c8       0x58 examples/dfu/CMakeFiles/dfu_nrf52840_xxAA_s140_5.0.0-3.alpha.dir/__/__/mesh/access/src/device_state_manager.c.obj
 .text.dev_key_handle_get
                0x00025720       0x30 examples/dfu/CMakeFiles/dfu_nrf52840_xxAA_s140_5.0.0-3.alpha.dir/__/__/mesh/access/src/device_state_manager.c.obj
 .text.app_key_handle_get
                0x00025750       0x58 examples/dfu/CMakeFiles/dfu_nrf52840_xxAA_s140_5.0.0-3.alpha.dir/__/__/mesh/access/src/device_state_manager.c.obj
 .text.get_subnet_handle
                0x000257a8       0x4c examples/dfu/CMakeFiles/dfu_nrf52840_xxAA_s140_5.0.0-3.alpha.dir/__/__/mesh/access/src/device_state_manager.c.obj
 .text.addr_nonvirtual_to_flash_entry
                0x000257f4       0x10 examples/dfu/CMakeFiles/dfu_nrf52840_xxAA_s140_5.0.0-3.alpha.dir/__/__/mesh/access/src/device_state_manager.c.obj
 .text.flash_mem_listener_callback
                0x00025804       0x20 examples/dfu/CMakeFiles/dfu_nrf52840_xxAA_s140_5.0.0-3.alpha.dir/__/__/mesh/access/src/device_state_manager.c.obj
 .text.devkey_set
                0x00025824       0x50 examples/dfu/CMakeFiles/dfu_nrf52840_xxAA_s140_5.0.0-3.alpha.dir/__/__/mesh/access/src/device_state_manager.c.obj
 .text.devkey_to_dsm_entry
                0x00025874       0x18 examples/dfu/CMakeFiles/dfu_nrf52840_xxAA_s140_5.0.0-3.alpha.dir/__/__/mesh/access/src/device_state_manager.c.obj
 .text.devkey_to_flash_entry
                0x0002588c       0x28 examples/dfu/CMakeFiles/dfu_nrf52840_xxAA_s140_5.0.0-3.alpha.dir/__/__/mesh/access/src/device_state_manager.c.obj
 .text.addr_virtual_to_flash_entry
                0x000258b4       0x18 examples/dfu/CMakeFiles/dfu_nrf52840_xxAA_s140_5.0.0-3.alpha.dir/__/__/mesh/access/src/device_state_manager.c.obj
 .text.addr_unicast_to_dsm_entry
                0x000258cc        0xc examples/dfu/CMakeFiles/dfu_nrf52840_xxAA_s140_5.0.0-3.alpha.dir/__/__/mesh/access/src/device_state_manager.c.obj
 .text.addr_unicast_to_flash_entry
                0x000258d8       0x10 examples/dfu/CMakeFiles/dfu_nrf52840_xxAA_s140_5.0.0-3.alpha.dir/__/__/mesh/access/src/device_state_manager.c.obj
 .text.appkey_set
                0x000258e8       0x7c examples/dfu/CMakeFiles/dfu_nrf52840_xxAA_s140_5.0.0-3.alpha.dir/__/__/mesh/access/src/device_state_manager.c.obj
 .text.appkey_to_flash_entry
                0x00025964       0x54 examples/dfu/CMakeFiles/dfu_nrf52840_xxAA_s140_5.0.0-3.alpha.dir/__/__/mesh/access/src/device_state_manager.c.obj
 .text.subnet_to_flash_entry
                0x000259b8       0x60 examples/dfu/CMakeFiles/dfu_nrf52840_xxAA_s140_5.0.0-3.alpha.dir/__/__/mesh/access/src/device_state_manager.c.obj
 .text.subnet_set
                0x00025a18       0xb4 examples/dfu/CMakeFiles/dfu_nrf52840_xxAA_s140_5.0.0-3.alpha.dir/__/__/mesh/access/src/device_state_manager.c.obj
 .text.virtual_address_set
                0x00025acc       0x58 examples/dfu/CMakeFiles/dfu_nrf52840_xxAA_s140_5.0.0-3.alpha.dir/__/__/mesh/access/src/device_state_manager.c.obj
 .text.addr_virtual_to_dsm_entry
                0x00025b24        0xe examples/dfu/CMakeFiles/dfu_nrf52840_xxAA_s140_5.0.0-3.alpha.dir/__/__/mesh/access/src/device_state_manager.c.obj
 *fill*         0x00025b32        0x2 
 .text.reset_flash_area
                0x00025b34       0x28 examples/dfu/CMakeFiles/dfu_nrf52840_xxAA_s140_5.0.0-3.alpha.dir/__/__/mesh/access/src/device_state_manager.c.obj
 .text.flash_save
                0x00025b5c       0x88 examples/dfu/CMakeFiles/dfu_nrf52840_xxAA_s140_5.0.0-3.alpha.dir/__/__/mesh/access/src/device_state_manager.c.obj
 .text.flash_invalidate
                0x00025be4       0x70 examples/dfu/CMakeFiles/dfu_nrf52840_xxAA_s140_5.0.0-3.alpha.dir/__/__/mesh/access/src/device_state_manager.c.obj
 .text.virtual_address_uuid_index_get
                0x00025c54       0x60 examples/dfu/CMakeFiles/dfu_nrf52840_xxAA_s140_5.0.0-3.alpha.dir/__/__/mesh/access/src/device_state_manager.c.obj
 .text.add_address_virtual
                0x00025cb4       0x74 examples/dfu/CMakeFiles/dfu_nrf52840_xxAA_s140_5.0.0-3.alpha.dir/__/__/mesh/access/src/device_state_manager.c.obj
 .text.get_subnet_handle_by_beacon_info
                0x00025d28       0x3c examples/dfu/CMakeFiles/dfu_nrf52840_xxAA_s140_5.0.0-3.alpha.dir/__/__/mesh/access/src/device_state_manager.c.obj
 .text.get_app_handle
                0x00025d64       0x48 examples/dfu/CMakeFiles/dfu_nrf52840_xxAA_s140_5.0.0-3.alpha.dir/__/__/mesh/access/src/device_state_manager.c.obj
 .text.appkey_to_dsm_entry
                0x00025dac       0x80 examples/dfu/CMakeFiles/dfu_nrf52840_xxAA_s140_5.0.0-3.alpha.dir/__/__/mesh/access/src/device_state_manager.c.obj
 .text.subnet_to_dsm_entry
                0x00025e2c       0x7c examples/dfu/CMakeFiles/dfu_nrf52840_xxAA_s140_5.0.0-3.alpha.dir/__/__/mesh/access/src/device_state_manager.c.obj
 .text.add_address.part.7
                0x00025ea8      0x164 examples/dfu/CMakeFiles/dfu_nrf52840_xxAA_s140_5.0.0-3.alpha.dir/__/__/mesh/access/src/device_state_manager.c.obj
 .text.address_handle_valid
                0x0002600c       0x28 examples/dfu/CMakeFiles/dfu_nrf52840_xxAA_s140_5.0.0-3.alpha.dir/__/__/mesh/access/src/device_state_manager.c.obj
 .text.address_handle_nonvirtual_valid
                0x00026034       0x14 examples/dfu/CMakeFiles/dfu_nrf52840_xxAA_s140_5.0.0-3.alpha.dir/__/__/mesh/access/src/device_state_manager.c.obj
 .text.address_delete_if_unused
                0x00026048       0x78 examples/dfu/CMakeFiles/dfu_nrf52840_xxAA_s140_5.0.0-3.alpha.dir/__/__/mesh/access/src/device_state_manager.c.obj
 .text.addr_nonvirtual_to_dsm_entry
                0x000260c0       0x38 examples/dfu/CMakeFiles/dfu_nrf52840_xxAA_s140_5.0.0-3.alpha.dir/__/__/mesh/access/src/device_state_manager.c.obj
 .text.dsm_clear
                0x000260f8       0x74 examples/dfu/CMakeFiles/dfu_nrf52840_xxAA_s140_5.0.0-3.alpha.dir/__/__/mesh/access/src/device_state_manager.c.obj
                0x000260f8                dsm_clear
 .text.dsm_local_unicast_addresses_set
                0x0002616c       0x84 examples/dfu/CMakeFiles/dfu_nrf52840_xxAA_s140_5.0.0-3.alpha.dir/__/__/mesh/access/src/device_state_manager.c.obj
                0x0002616c                dsm_local_unicast_addresses_set
 .text.dsm_local_unicast_addresses_get
                0x000261f0       0x2c examples/dfu/CMakeFiles/dfu_nrf52840_xxAA_s140_5.0.0-3.alpha.dir/__/__/mesh/access/src/device_state_manager.c.obj
                0x000261f0                dsm_local_unicast_addresses_get
 .text.dsm_address_publish_add
                0x0002621c        0xc examples/dfu/CMakeFiles/dfu_nrf52840_xxAA_s140_5.0.0-3.alpha.dir/__/__/mesh/access/src/device_state_manager.c.obj
                0x0002621c                dsm_address_publish_add
 .text.dsm_address_publish_virtual_add
                0x00026228        0x6 examples/dfu/CMakeFiles/dfu_nrf52840_xxAA_s140_5.0.0-3.alpha.dir/__/__/mesh/access/src/device_state_manager.c.obj
                0x00026228                dsm_address_publish_virtual_add
 *fill*         0x0002622e        0x2 
 .text.dsm_address_publish_remove
                0x00026230       0x44 examples/dfu/CMakeFiles/dfu_nrf52840_xxAA_s140_5.0.0-3.alpha.dir/__/__/mesh/access/src/device_state_manager.c.obj
                0x00026230                dsm_address_publish_remove
 .text.dsm_address_subscription_add
                0x00026274        0xc examples/dfu/CMakeFiles/dfu_nrf52840_xxAA_s140_5.0.0-3.alpha.dir/__/__/mesh/access/src/device_state_manager.c.obj
                0x00026274                dsm_address_subscription_add
 .text.dsm_address_subscription_virtual_add
                0x00026280        0x6 examples/dfu/CMakeFiles/dfu_nrf52840_xxAA_s140_5.0.0-3.alpha.dir/__/__/mesh/access/src/device_state_manager.c.obj
                0x00026280                dsm_address_subscription_virtual_add
 *fill*         0x00026286        0x2 
 .text.dsm_address_subscription_get
                0x00026288       0x34 examples/dfu/CMakeFiles/dfu_nrf52840_xxAA_s140_5.0.0-3.alpha.dir/__/__/mesh/access/src/device_state_manager.c.obj
                0x00026288                dsm_address_subscription_get
 .text.dsm_address_get
                0x000262bc       0x5c examples/dfu/CMakeFiles/dfu_nrf52840_xxAA_s140_5.0.0-3.alpha.dir/__/__/mesh/access/src/device_state_manager.c.obj
                0x000262bc                dsm_address_get
 .text.dsm_address_subscription_remove
                0x00026318       0x5c examples/dfu/CMakeFiles/dfu_nrf52840_xxAA_s140_5.0.0-3.alpha.dir/__/__/mesh/access/src/device_state_manager.c.obj
                0x00026318                dsm_address_subscription_remove
 .text.dsm_address_get_all
                0x00026374       0x74 examples/dfu/CMakeFiles/dfu_nrf52840_xxAA_s140_5.0.0-3.alpha.dir/__/__/mesh/access/src/device_state_manager.c.obj
                0x00026374                dsm_address_get_all
 .text.dsm_address_handle_get
                0x000263e8       0x98 examples/dfu/CMakeFiles/dfu_nrf52840_xxAA_s140_5.0.0-3.alpha.dir/__/__/mesh/access/src/device_state_manager.c.obj
                0x000263e8                dsm_address_handle_get
 .text.dsm_subnet_handle_get
                0x00026480        0xc examples/dfu/CMakeFiles/dfu_nrf52840_xxAA_s140_5.0.0-3.alpha.dir/__/__/mesh/access/src/device_state_manager.c.obj
                0x00026480                dsm_subnet_handle_get
 .text.dsm_appkey_handle_get
                0x0002648c        0xc examples/dfu/CMakeFiles/dfu_nrf52840_xxAA_s140_5.0.0-3.alpha.dir/__/__/mesh/access/src/device_state_manager.c.obj
                0x0002648c                dsm_appkey_handle_get
 .text.dsm_subnet_add
                0x00026498       0x58 examples/dfu/CMakeFiles/dfu_nrf52840_xxAA_s140_5.0.0-3.alpha.dir/__/__/mesh/access/src/device_state_manager.c.obj
                0x00026498                dsm_subnet_add
 .text.dsm_subnet_update
                0x000264f0       0xc0 examples/dfu/CMakeFiles/dfu_nrf52840_xxAA_s140_5.0.0-3.alpha.dir/__/__/mesh/access/src/device_state_manager.c.obj
                0x000264f0                dsm_subnet_update
 .text.dsm_subnet_update_swap_keys
                0x000265b0       0x58 examples/dfu/CMakeFiles/dfu_nrf52840_xxAA_s140_5.0.0-3.alpha.dir/__/__/mesh/access/src/device_state_manager.c.obj
                0x000265b0                dsm_subnet_update_swap_keys
 .text.dsm_subnet_update_commit
                0x00026608       0xec examples/dfu/CMakeFiles/dfu_nrf52840_xxAA_s140_5.0.0-3.alpha.dir/__/__/mesh/access/src/device_state_manager.c.obj
                0x00026608                dsm_subnet_update_commit
 .text.net_beacon_callback
                0x000266f4       0x74 examples/dfu/CMakeFiles/dfu_nrf52840_xxAA_s140_5.0.0-3.alpha.dir/__/__/mesh/access/src/device_state_manager.c.obj
 .text.dsm_subnet_get_all
                0x00026768       0x60 examples/dfu/CMakeFiles/dfu_nrf52840_xxAA_s140_5.0.0-3.alpha.dir/__/__/mesh/access/src/device_state_manager.c.obj
                0x00026768                dsm_subnet_get_all
 .text.dsm_devkey_add
                0x000267c8       0x7c examples/dfu/CMakeFiles/dfu_nrf52840_xxAA_s140_5.0.0-3.alpha.dir/__/__/mesh/access/src/device_state_manager.c.obj
                0x000267c8                dsm_devkey_add
 .text.dsm_devkey_delete
                0x00026844       0x38 examples/dfu/CMakeFiles/dfu_nrf52840_xxAA_s140_5.0.0-3.alpha.dir/__/__/mesh/access/src/device_state_manager.c.obj
                0x00026844                dsm_devkey_delete
 .text.dsm_appkey_add
                0x0002687c       0x78 examples/dfu/CMakeFiles/dfu_nrf52840_xxAA_s140_5.0.0-3.alpha.dir/__/__/mesh/access/src/device_state_manager.c.obj
                0x0002687c                dsm_appkey_add
 .text.dsm_appkey_update
                0x000268f4       0xa0 examples/dfu/CMakeFiles/dfu_nrf52840_xxAA_s140_5.0.0-3.alpha.dir/__/__/mesh/access/src/device_state_manager.c.obj
                0x000268f4                dsm_appkey_update
 .text.dsm_appkey_delete
                0x00026994       0x30 examples/dfu/CMakeFiles/dfu_nrf52840_xxAA_s140_5.0.0-3.alpha.dir/__/__/mesh/access/src/device_state_manager.c.obj
                0x00026994                dsm_appkey_delete
 .text.dsm_subnet_delete
                0x000269c4       0xa4 examples/dfu/CMakeFiles/dfu_nrf52840_xxAA_s140_5.0.0-3.alpha.dir/__/__/mesh/access/src/device_state_manager.c.obj
                0x000269c4                dsm_subnet_delete
 .text.dsm_appkey_get_all
                0x00026a68       0x88 examples/dfu/CMakeFiles/dfu_nrf52840_xxAA_s140_5.0.0-3.alpha.dir/__/__/mesh/access/src/device_state_manager.c.obj
                0x00026a68                dsm_appkey_get_all
 .text.dsm_tx_secmat_get
                0x00026af0      0x10c examples/dfu/CMakeFiles/dfu_nrf52840_xxAA_s140_5.0.0-3.alpha.dir/__/__/mesh/access/src/device_state_manager.c.obj
                0x00026af0                dsm_tx_secmat_get
 .text.nrf_mesh_net_secmat_next_get
                0x00026bfc       0xc8 examples/dfu/CMakeFiles/dfu_nrf52840_xxAA_s140_5.0.0-3.alpha.dir/__/__/mesh/access/src/device_state_manager.c.obj
                0x00026bfc                nrf_mesh_net_secmat_next_get
 .text.nrf_mesh_app_secmat_next_get
                0x00026cc4       0x9c examples/dfu/CMakeFiles/dfu_nrf52840_xxAA_s140_5.0.0-3.alpha.dir/__/__/mesh/access/src/device_state_manager.c.obj
                0x00026cc4                nrf_mesh_app_secmat_next_get
 .text.nrf_mesh_devkey_secmat_get
                0x00026d60       0x34 examples/dfu/CMakeFiles/dfu_nrf52840_xxAA_s140_5.0.0-3.alpha.dir/__/__/mesh/access/src/device_state_manager.c.obj
                0x00026d60                nrf_mesh_devkey_secmat_get
 .text.nrf_mesh_beacon_info_next_get
                0x00026d94       0xe8 examples/dfu/CMakeFiles/dfu_nrf52840_xxAA_s140_5.0.0-3.alpha.dir/__/__/mesh/access/src/device_state_manager.c.obj
                0x00026d94                nrf_mesh_beacon_info_next_get
 .text.nrf_mesh_rx_address_get
                0x00026e7c      0x118 examples/dfu/CMakeFiles/dfu_nrf52840_xxAA_s140_5.0.0-3.alpha.dir/__/__/mesh/access/src/device_state_manager.c.obj
                0x00026e7c                nrf_mesh_rx_address_get
 .text.serial_uart_init
                0x00026f94       0xa0 examples/dfu/CMakeFiles/dfu_nrf52840_xxAA_s140_5.0.0-3.alpha.dir/__/__/mesh/serial/src/serial_uart.c.obj
                0x00026f94                serial_uart_init
 .text.serial_uart_process
                0x00027034       0x5c examples/dfu/CMakeFiles/dfu_nrf52840_xxAA_s140_5.0.0-3.alpha.dir/__/__/mesh/serial/src/serial_uart.c.obj
                0x00027034                serial_uart_process
 .text.UARTE0_UART0_IRQHandler
                0x00027090        0x4 examples/dfu/CMakeFiles/dfu_nrf52840_xxAA_s140_5.0.0-3.alpha.dir/__/__/mesh/serial/src/serial_uart.c.obj
                0x00027090                UARTE0_UART0_IRQHandler
 .text.serial_uart_receive_set
                0x00027094        0xc examples/dfu/CMakeFiles/dfu_nrf52840_xxAA_s140_5.0.0-3.alpha.dir/__/__/mesh/serial/src/serial_uart.c.obj
                0x00027094                serial_uart_receive_set
 .text.do_transmit
                0x000270a0       0x44 examples/dfu/CMakeFiles/dfu_nrf52840_xxAA_s140_5.0.0-3.alpha.dir/__/__/mesh/serial/src/serial_bearer.c.obj
 .text.char_tx  0x000270e4       0x84 examples/dfu/CMakeFiles/dfu_nrf52840_xxAA_s140_5.0.0-3.alpha.dir/__/__/mesh/serial/src/serial_bearer.c.obj
 .text.serial_bearer_init
                0x00027168       0x80 examples/dfu/CMakeFiles/dfu_nrf52840_xxAA_s140_5.0.0-3.alpha.dir/__/__/mesh/serial/src/serial_bearer.c.obj
                0x00027168                serial_bearer_init
 .text.serial_bearer_packet_buffer_get
                0x000271e8       0x24 examples/dfu/CMakeFiles/dfu_nrf52840_xxAA_s140_5.0.0-3.alpha.dir/__/__/mesh/serial/src/serial_bearer.c.obj
                0x000271e8                serial_bearer_packet_buffer_get
 .text.serial_bearer_blocking_buffer_get
                0x0002720c       0x38 examples/dfu/CMakeFiles/dfu_nrf52840_xxAA_s140_5.0.0-3.alpha.dir/__/__/mesh/serial/src/serial_bearer.c.obj
                0x0002720c                serial_bearer_blocking_buffer_get
 .text.serial_bearer_tx
                0x00027244       0x70 examples/dfu/CMakeFiles/dfu_nrf52840_xxAA_s140_5.0.0-3.alpha.dir/__/__/mesh/serial/src/serial_bearer.c.obj
                0x00027244                serial_bearer_tx
 .text.send_cmd_response.constprop.5
                0x000272b4       0x26 examples/dfu/CMakeFiles/dfu_nrf52840_xxAA_s140_5.0.0-3.alpha.dir/__/__/mesh/serial/src/serial_bearer.c.obj
 *fill*         0x000272da        0x2 
 .text.char_rx  0x000272dc       0xc0 examples/dfu/CMakeFiles/dfu_nrf52840_xxAA_s140_5.0.0-3.alpha.dir/__/__/mesh/serial/src/serial_bearer.c.obj
 .text.serial_bearer_rx_get
                0x0002739c       0x38 examples/dfu/CMakeFiles/dfu_nrf52840_xxAA_s140_5.0.0-3.alpha.dir/__/__/mesh/serial/src/serial_bearer.c.obj
                0x0002739c                serial_bearer_rx_get
 .text.serial_handler_common_cmd_rsp_nodata_on_error
                0x000273d4       0x2a examples/dfu/CMakeFiles/dfu_nrf52840_xxAA_s140_5.0.0-3.alpha.dir/__/__/mesh/serial/src/serial_handler_common.c.obj
                0x000273d4                serial_handler_common_cmd_rsp_nodata_on_error
 .text.serial_handler_common_rx
                0x000273fe       0x4a examples/dfu/CMakeFiles/dfu_nrf52840_xxAA_s140_5.0.0-3.alpha.dir/__/__/mesh/serial/src/serial_handler_common.c.obj
                0x000273fe                serial_handler_common_rx
 .text.access_flash_store
                0x00027448       0x18 examples/dfu/CMakeFiles/dfu_nrf52840_xxAA_s140_5.0.0-3.alpha.dir/__/__/mesh/serial/src/serial_handler_access.c.obj
 .text.elem_models_get
                0x00027460       0x44 examples/dfu/CMakeFiles/dfu_nrf52840_xxAA_s140_5.0.0-3.alpha.dir/__/__/mesh/serial/src/serial_handler_access.c.obj
 .text.handle_get
                0x000274a4       0x1e examples/dfu/CMakeFiles/dfu_nrf52840_xxAA_s140_5.0.0-3.alpha.dir/__/__/mesh/serial/src/serial_handler_access.c.obj
 .text.model_id_get
                0x000274c2       0x1e examples/dfu/CMakeFiles/dfu_nrf52840_xxAA_s140_5.0.0-3.alpha.dir/__/__/mesh/serial/src/serial_handler_access.c.obj
 .text.elem_vendor_model_cnt_get
                0x000274e0       0x1c examples/dfu/CMakeFiles/dfu_nrf52840_xxAA_s140_5.0.0-3.alpha.dir/__/__/mesh/serial/src/serial_handler_access.c.obj
 .text.elem_sig_model_cnt_get
                0x000274fc       0x1c examples/dfu/CMakeFiles/dfu_nrf52840_xxAA_s140_5.0.0-3.alpha.dir/__/__/mesh/serial/src/serial_handler_access.c.obj
 .text.elem_loc_get
                0x00027518       0x1c examples/dfu/CMakeFiles/dfu_nrf52840_xxAA_s140_5.0.0-3.alpha.dir/__/__/mesh/serial/src/serial_handler_access.c.obj
 .text.elem_loc_set
                0x00027534       0x22 examples/dfu/CMakeFiles/dfu_nrf52840_xxAA_s140_5.0.0-3.alpha.dir/__/__/mesh/serial/src/serial_handler_access.c.obj
 .text.model_pub_ttl_get
                0x00027556       0x1c examples/dfu/CMakeFiles/dfu_nrf52840_xxAA_s140_5.0.0-3.alpha.dir/__/__/mesh/serial/src/serial_handler_access.c.obj
 .text.model_pub_ttl_set
                0x00027572       0x22 examples/dfu/CMakeFiles/dfu_nrf52840_xxAA_s140_5.0.0-3.alpha.dir/__/__/mesh/serial/src/serial_handler_access.c.obj
 .text.model_pub_app_get
                0x00027594       0x1c examples/dfu/CMakeFiles/dfu_nrf52840_xxAA_s140_5.0.0-3.alpha.dir/__/__/mesh/serial/src/serial_handler_access.c.obj
 .text.model_pub_app_set
                0x000275b0       0x22 examples/dfu/CMakeFiles/dfu_nrf52840_xxAA_s140_5.0.0-3.alpha.dir/__/__/mesh/serial/src/serial_handler_access.c.obj
 .text.model_app_get
                0x000275d2       0x44 examples/dfu/CMakeFiles/dfu_nrf52840_xxAA_s140_5.0.0-3.alpha.dir/__/__/mesh/serial/src/serial_handler_access.c.obj
 .text.model_app_unbind
                0x00027616       0x22 examples/dfu/CMakeFiles/dfu_nrf52840_xxAA_s140_5.0.0-3.alpha.dir/__/__/mesh/serial/src/serial_handler_access.c.obj
 .text.model_app_bind
                0x00027638       0x22 examples/dfu/CMakeFiles/dfu_nrf52840_xxAA_s140_5.0.0-3.alpha.dir/__/__/mesh/serial/src/serial_handler_access.c.obj
 .text.model_subs_get
                0x0002765a       0x44 examples/dfu/CMakeFiles/dfu_nrf52840_xxAA_s140_5.0.0-3.alpha.dir/__/__/mesh/serial/src/serial_handler_access.c.obj
 .text.model_subs_remove
                0x0002769e       0x22 examples/dfu/CMakeFiles/dfu_nrf52840_xxAA_s140_5.0.0-3.alpha.dir/__/__/mesh/serial/src/serial_handler_access.c.obj
 .text.model_subs_add
                0x000276c0       0x22 examples/dfu/CMakeFiles/dfu_nrf52840_xxAA_s140_5.0.0-3.alpha.dir/__/__/mesh/serial/src/serial_handler_access.c.obj
 .text.model_pub_period_get
                0x000276e2       0x20 examples/dfu/CMakeFiles/dfu_nrf52840_xxAA_s140_5.0.0-3.alpha.dir/__/__/mesh/serial/src/serial_handler_access.c.obj
 .text.model_pub_period_set
                0x00027702       0x24 examples/dfu/CMakeFiles/dfu_nrf52840_xxAA_s140_5.0.0-3.alpha.dir/__/__/mesh/serial/src/serial_handler_access.c.obj
 .text.model_pub_addr_get
                0x00027726       0x1c examples/dfu/CMakeFiles/dfu_nrf52840_xxAA_s140_5.0.0-3.alpha.dir/__/__/mesh/serial/src/serial_handler_access.c.obj
 .text.model_pub_addr_set
                0x00027742       0x22 examples/dfu/CMakeFiles/dfu_nrf52840_xxAA_s140_5.0.0-3.alpha.dir/__/__/mesh/serial/src/serial_handler_access.c.obj
 .text.serial_handler_access_rx
                0x00027764       0x30 examples/dfu/CMakeFiles/dfu_nrf52840_xxAA_s140_5.0.0-3.alpha.dir/__/__/mesh/serial/src/serial_handler_access.c.obj
                0x00027764                serial_handler_access_rx
 .text.serial_handler_config_rx
                0x00027794       0xb4 examples/dfu/CMakeFiles/dfu_nrf52840_xxAA_s140_5.0.0-3.alpha.dir/__/__/mesh/serial/src/serial_handler_config.c.obj
                0x00027794                serial_handler_config_rx
 .text.serial_handler_openmesh_rx
                0x00027848       0x36 examples/dfu/CMakeFiles/dfu_nrf52840_xxAA_s140_5.0.0-3.alpha.dir/__/__/mesh/serial/src/serial_handler_openmesh.c.obj
                0x00027848                serial_handler_openmesh_rx
 *fill*         0x0002787e        0x2 
 .text.serial_init
                0x00027880       0x1c examples/dfu/CMakeFiles/dfu_nrf52840_xxAA_s140_5.0.0-3.alpha.dir/__/__/mesh/serial/src/serial.c.obj
                0x00027880                serial_init
 .text.serial_packet_buffer_get
                0x0002789c       0x14 examples/dfu/CMakeFiles/dfu_nrf52840_xxAA_s140_5.0.0-3.alpha.dir/__/__/mesh/serial/src/serial.c.obj
                0x0002789c                serial_packet_buffer_get
 .text.serial_tx
                0x000278b0       0x2c examples/dfu/CMakeFiles/dfu_nrf52840_xxAA_s140_5.0.0-3.alpha.dir/__/__/mesh/serial/src/serial.c.obj
                0x000278b0                serial_tx
 .text.serial_start
                0x000278dc       0xfc examples/dfu/CMakeFiles/dfu_nrf52840_xxAA_s140_5.0.0-3.alpha.dir/__/__/mesh/serial/src/serial.c.obj
                0x000278dc                serial_start
 .text.serial_process_cmd
                0x000279d8      0x124 examples/dfu/CMakeFiles/dfu_nrf52840_xxAA_s140_5.0.0-3.alpha.dir/__/__/mesh/serial/src/serial.c.obj
 .text.serial_process
                0x00027afc       0x30 examples/dfu/CMakeFiles/dfu_nrf52840_xxAA_s140_5.0.0-3.alpha.dir/__/__/mesh/serial/src/serial.c.obj
                0x00027afc                serial_process
 .text.serial_translate_error
                0x00027b2c       0x6e examples/dfu/CMakeFiles/dfu_nrf52840_xxAA_s140_5.0.0-3.alpha.dir/__/__/mesh/serial/src/serial.c.obj
                0x00027b2c                serial_translate_error
 *fill*         0x00027b9a        0x2 
 .text.serial_state_get
                0x00027b9c        0xc examples/dfu/CMakeFiles/dfu_nrf52840_xxAA_s140_5.0.0-3.alpha.dir/__/__/mesh/serial/src/serial.c.obj
                0x00027b9c                serial_state_get
 .text.serial_cmd_rsp_send
                0x00027ba8       0x64 examples/dfu/CMakeFiles/dfu_nrf52840_xxAA_s140_5.0.0-3.alpha.dir/__/__/mesh/serial/src/serial.c.obj
                0x00027ba8                serial_cmd_rsp_send
 .text.find_context_id
                0x00027c0c       0x20 examples/dfu/CMakeFiles/dfu_nrf52840_xxAA_s140_5.0.0-3.alpha.dir/__/__/mesh/serial/src/serial_handler_prov.c.obj
 .text.serial_handler_prov_evt_in
                0x00027c2c      0x288 examples/dfu/CMakeFiles/dfu_nrf52840_xxAA_s140_5.0.0-3.alpha.dir/__/__/mesh/serial/src/serial_handler_prov.c.obj
 .text.serial_handler_prov_init
                0x00027eb4       0xdc examples/dfu/CMakeFiles/dfu_nrf52840_xxAA_s140_5.0.0-3.alpha.dir/__/__/mesh/serial/src/serial_handler_prov.c.obj
                0x00027eb4                serial_handler_prov_init
 .text.serial_handler_prov_pkt_in
                0x00027f90      0x230 examples/dfu/CMakeFiles/dfu_nrf52840_xxAA_s140_5.0.0-3.alpha.dir/__/__/mesh/serial/src/serial_handler_prov.c.obj
                0x00027f90                serial_handler_prov_pkt_in
 .text.serial_handler_mesh_evt_handle
                0x000281c0      0x1d4 examples/dfu/CMakeFiles/dfu_nrf52840_xxAA_s140_5.0.0-3.alpha.dir/__/__/mesh/serial/src/serial_handler_dfu.c.obj
 .text.serial_handler_dfu_init
                0x00028394       0x14 examples/dfu/CMakeFiles/dfu_nrf52840_xxAA_s140_5.0.0-3.alpha.dir/__/__/mesh/serial/src/serial_handler_dfu.c.obj
                0x00028394                serial_handler_dfu_init
 .text.serial_handler_dfu_rx
                0x000283a8      0x15c examples/dfu/CMakeFiles/dfu_nrf52840_xxAA_s140_5.0.0-3.alpha.dir/__/__/mesh/serial/src/serial_handler_dfu.c.obj
                0x000283a8                serial_handler_dfu_rx
 .text.serial_handler_mesh_evt_handle
                0x00028504      0x12c examples/dfu/CMakeFiles/dfu_nrf52840_xxAA_s140_5.0.0-3.alpha.dir/__/__/mesh/serial/src/serial_handler_mesh.c.obj
 .text.handle_cmd_clear
                0x00028630       0x20 examples/dfu/CMakeFiles/dfu_nrf52840_xxAA_s140_5.0.0-3.alpha.dir/__/__/mesh/serial/src/serial_handler_mesh.c.obj
 .text.handle_cmd_packet_send
                0x00028650       0x8c examples/dfu/CMakeFiles/dfu_nrf52840_xxAA_s140_5.0.0-3.alpha.dir/__/__/mesh/serial/src/serial_handler_mesh.c.obj
 .text.handle_cmd_addr_virtual_count_max_get
                0x000286dc       0x1a examples/dfu/CMakeFiles/dfu_nrf52840_xxAA_s140_5.0.0-3.alpha.dir/__/__/mesh/serial/src/serial_handler_mesh.c.obj
 .text.handle_cmd_appkey_count_max_get
                0x000286f6        0x4 examples/dfu/CMakeFiles/dfu_nrf52840_xxAA_s140_5.0.0-3.alpha.dir/__/__/mesh/serial/src/serial_handler_mesh.c.obj
 .text.handle_cmd_addr_nonvirtual_count_max_get
                0x000286fa       0x1a examples/dfu/CMakeFiles/dfu_nrf52840_xxAA_s140_5.0.0-3.alpha.dir/__/__/mesh/serial/src/serial_handler_mesh.c.obj
 .text.handle_cmd_addr_local_unicast_get
                0x00028714       0x2c examples/dfu/CMakeFiles/dfu_nrf52840_xxAA_s140_5.0.0-3.alpha.dir/__/__/mesh/serial/src/serial_handler_mesh.c.obj
 .text.handle_cmd_devkey_count_max_get
                0x00028740       0x1a examples/dfu/CMakeFiles/dfu_nrf52840_xxAA_s140_5.0.0-3.alpha.dir/__/__/mesh/serial/src/serial_handler_mesh.c.obj
 .text.handle_cmd_subnet_count_max_get
                0x0002875a       0x1a examples/dfu/CMakeFiles/dfu_nrf52840_xxAA_s140_5.0.0-3.alpha.dir/__/__/mesh/serial/src/serial_handler_mesh.c.obj
 .text.handle_cmd_addr_get_all
                0x00028774       0x28 examples/dfu/CMakeFiles/dfu_nrf52840_xxAA_s140_5.0.0-3.alpha.dir/__/__/mesh/serial/src/serial_handler_mesh.c.obj
 .text.handle_cmd_addr_get
                0x0002879c       0x60 examples/dfu/CMakeFiles/dfu_nrf52840_xxAA_s140_5.0.0-3.alpha.dir/__/__/mesh/serial/src/serial_handler_mesh.c.obj
 .text.handle_cmd_addr_publication_remove
                0x000287fc       0x26 examples/dfu/CMakeFiles/dfu_nrf52840_xxAA_s140_5.0.0-3.alpha.dir/__/__/mesh/serial/src/serial_handler_mesh.c.obj
 .text.handle_cmd_addr_publication_add_virtual
                0x00028822       0x26 examples/dfu/CMakeFiles/dfu_nrf52840_xxAA_s140_5.0.0-3.alpha.dir/__/__/mesh/serial/src/serial_handler_mesh.c.obj
 .text.handle_cmd_addr_publication_add
                0x00028848       0x26 examples/dfu/CMakeFiles/dfu_nrf52840_xxAA_s140_5.0.0-3.alpha.dir/__/__/mesh/serial/src/serial_handler_mesh.c.obj
 .text.handle_cmd_addr_subscription_remove
                0x0002886e       0x26 examples/dfu/CMakeFiles/dfu_nrf52840_xxAA_s140_5.0.0-3.alpha.dir/__/__/mesh/serial/src/serial_handler_mesh.c.obj
 .text.handle_cmd_addr_subscription_add_virtual
                0x00028894       0x26 examples/dfu/CMakeFiles/dfu_nrf52840_xxAA_s140_5.0.0-3.alpha.dir/__/__/mesh/serial/src/serial_handler_mesh.c.obj
 .text.handle_cmd_addr_subscription_add
                0x000288ba       0x26 examples/dfu/CMakeFiles/dfu_nrf52840_xxAA_s140_5.0.0-3.alpha.dir/__/__/mesh/serial/src/serial_handler_mesh.c.obj
 .text.handle_cmd_addr_local_unicast_set
                0x000288e0       0x32 examples/dfu/CMakeFiles/dfu_nrf52840_xxAA_s140_5.0.0-3.alpha.dir/__/__/mesh/serial/src/serial_handler_mesh.c.obj
 .text.handle_cmd_devkey_delete
                0x00028912       0x26 examples/dfu/CMakeFiles/dfu_nrf52840_xxAA_s140_5.0.0-3.alpha.dir/__/__/mesh/serial/src/serial_handler_mesh.c.obj
 .text.handle_cmd_devkey_add
                0x00028938       0x20 examples/dfu/CMakeFiles/dfu_nrf52840_xxAA_s140_5.0.0-3.alpha.dir/__/__/mesh/serial/src/serial_handler_mesh.c.obj
 .text.handle_cmd_appkey_get_all
                0x00028958       0x36 examples/dfu/CMakeFiles/dfu_nrf52840_xxAA_s140_5.0.0-3.alpha.dir/__/__/mesh/serial/src/serial_handler_mesh.c.obj
 .text.handle_cmd_appkey_delete
                0x0002898e       0x26 examples/dfu/CMakeFiles/dfu_nrf52840_xxAA_s140_5.0.0-3.alpha.dir/__/__/mesh/serial/src/serial_handler_mesh.c.obj
 .text.handle_cmd_appkey_update
                0x000289b4       0x28 examples/dfu/CMakeFiles/dfu_nrf52840_xxAA_s140_5.0.0-3.alpha.dir/__/__/mesh/serial/src/serial_handler_mesh.c.obj
 .text.handle_cmd_appkey_add
                0x000289dc       0x2a examples/dfu/CMakeFiles/dfu_nrf52840_xxAA_s140_5.0.0-3.alpha.dir/__/__/mesh/serial/src/serial_handler_mesh.c.obj
 .text.handle_cmd_subnet_get_all
                0x00028a06       0x2e examples/dfu/CMakeFiles/dfu_nrf52840_xxAA_s140_5.0.0-3.alpha.dir/__/__/mesh/serial/src/serial_handler_mesh.c.obj
 .text.handle_cmd_subnet_delete
                0x00028a34       0x26 examples/dfu/CMakeFiles/dfu_nrf52840_xxAA_s140_5.0.0-3.alpha.dir/__/__/mesh/serial/src/serial_handler_mesh.c.obj
 .text.handle_cmd_subnet_update
                0x00028a5a       0x28 examples/dfu/CMakeFiles/dfu_nrf52840_xxAA_s140_5.0.0-3.alpha.dir/__/__/mesh/serial/src/serial_handler_mesh.c.obj
 .text.handle_cmd_subnet_add
                0x00028a82       0x28 examples/dfu/CMakeFiles/dfu_nrf52840_xxAA_s140_5.0.0-3.alpha.dir/__/__/mesh/serial/src/serial_handler_mesh.c.obj
 .text.handle_cmd_disable
                0x00028aaa       0x18 examples/dfu/CMakeFiles/dfu_nrf52840_xxAA_s140_5.0.0-3.alpha.dir/__/__/mesh/serial/src/serial_handler_mesh.c.obj
 .text.handle_cmd_enable
                0x00028ac2       0x18 examples/dfu/CMakeFiles/dfu_nrf52840_xxAA_s140_5.0.0-3.alpha.dir/__/__/mesh/serial/src/serial_handler_mesh.c.obj
 *fill*         0x00028ada        0x2 
 .text.serial_handler_mesh_init
                0x00028adc       0x14 examples/dfu/CMakeFiles/dfu_nrf52840_xxAA_s140_5.0.0-3.alpha.dir/__/__/mesh/serial/src/serial_handler_mesh.c.obj
                0x00028adc                serial_handler_mesh_init
 .text.serial_handler_mesh_rx
                0x00028af0       0x80 examples/dfu/CMakeFiles/dfu_nrf52840_xxAA_s140_5.0.0-3.alpha.dir/__/__/mesh/serial/src/serial_handler_mesh.c.obj
                0x00028af0                serial_handler_mesh_rx
 .text.registered_model_get
                0x00028b70       0x3c examples/dfu/CMakeFiles/dfu_nrf52840_xxAA_s140_5.0.0-3.alpha.dir/__/__/mesh/serial/src/serial_handler_models.c.obj
 .text.model_command
                0x00028bac       0x5e examples/dfu/CMakeFiles/dfu_nrf52840_xxAA_s140_5.0.0-3.alpha.dir/__/__/mesh/serial/src/serial_handler_models.c.obj
 .text.model_init
                0x00028c0a       0x3a examples/dfu/CMakeFiles/dfu_nrf52840_xxAA_s140_5.0.0-3.alpha.dir/__/__/mesh/serial/src/serial_handler_models.c.obj
 .text.models_get
                0x00028c44       0x7c examples/dfu/CMakeFiles/dfu_nrf52840_xxAA_s140_5.0.0-3.alpha.dir/__/__/mesh/serial/src/serial_handler_models.c.obj
 .text.serial_handler_models_rx
                0x00028cc0       0x30 examples/dfu/CMakeFiles/dfu_nrf52840_xxAA_s140_5.0.0-3.alpha.dir/__/__/mesh/serial/src/serial_handler_models.c.obj
                0x00028cc0                serial_handler_models_rx
 .text.handle_cmd_device_beacon_params_get
                0x00028cf0       0x90 examples/dfu/CMakeFiles/dfu_nrf52840_xxAA_s140_5.0.0-3.alpha.dir/__/__/mesh/serial/src/serial_handler_device.c.obj
 .text.handle_cmd_device_fw_info_get
                0x00028d80        0xc examples/dfu/CMakeFiles/dfu_nrf52840_xxAA_s140_5.0.0-3.alpha.dir/__/__/mesh/serial/src/serial_handler_device.c.obj
 .text.handle_cmd_device_serial_version_get
                0x00028d8c       0x1a examples/dfu/CMakeFiles/dfu_nrf52840_xxAA_s140_5.0.0-3.alpha.dir/__/__/mesh/serial/src/serial_handler_device.c.obj
 *fill*         0x00028da6        0x2 
 .text.handle_cmd_device_beacon_params_set
                0x00028da8       0x6c examples/dfu/CMakeFiles/dfu_nrf52840_xxAA_s140_5.0.0-3.alpha.dir/__/__/mesh/serial/src/serial_handler_device.c.obj
 .text.handle_cmd_device_beacon_stop
                0x00028e14       0x44 examples/dfu/CMakeFiles/dfu_nrf52840_xxAA_s140_5.0.0-3.alpha.dir/__/__/mesh/serial/src/serial_handler_device.c.obj
 .text.handle_cmd_device_beacon_start
                0x00028e58       0x70 examples/dfu/CMakeFiles/dfu_nrf52840_xxAA_s140_5.0.0-3.alpha.dir/__/__/mesh/serial/src/serial_handler_device.c.obj
 .text.handle_cmd_device_radio_reset
                0x00028ec8       0x1a examples/dfu/CMakeFiles/dfu_nrf52840_xxAA_s140_5.0.0-3.alpha.dir/__/__/mesh/serial/src/serial_handler_device.c.obj
 *fill*         0x00028ee2        0x2 
 .text.handle_cmd_device_internal_events_report
                0x00028ee4       0x20 examples/dfu/CMakeFiles/dfu_nrf52840_xxAA_s140_5.0.0-3.alpha.dir/__/__/mesh/serial/src/serial_handler_device.c.obj
 .text.event_report_cb
                0x00028f04       0x58 examples/dfu/CMakeFiles/dfu_nrf52840_xxAA_s140_5.0.0-3.alpha.dir/__/__/mesh/serial/src/serial_handler_device.c.obj
 .text.handle_cmd_device_echo
                0x00028f5c       0x40 examples/dfu/CMakeFiles/dfu_nrf52840_xxAA_s140_5.0.0-3.alpha.dir/__/__/mesh/serial/src/serial_handler_device.c.obj
 .text.serial_handler_device_init
                0x00028f9c       0x14 examples/dfu/CMakeFiles/dfu_nrf52840_xxAA_s140_5.0.0-3.alpha.dir/__/__/mesh/serial/src/serial_handler_device.c.obj
                0x00028f9c                serial_handler_device_init
 .text.serial_handler_device_rx
                0x00028fb0       0x30 examples/dfu/CMakeFiles/dfu_nrf52840_xxAA_s140_5.0.0-3.alpha.dir/__/__/mesh/serial/src/serial_handler_device.c.obj
                0x00028fb0                serial_handler_device_rx
 .text.nrf_mesh_serial_init
                0x00028fe0       0x36 examples/dfu/CMakeFiles/dfu_nrf52840_xxAA_s140_5.0.0-3.alpha.dir/__/__/mesh/serial/src/nrf_mesh_serial.c.obj
                0x00028fe0                nrf_mesh_serial_init
 .text.nrf_mesh_serial_enable
                0x00029016        0x4 examples/dfu/CMakeFiles/dfu_nrf52840_xxAA_s140_5.0.0-3.alpha.dir/__/__/mesh/serial/src/nrf_mesh_serial.c.obj
                0x00029016                nrf_mesh_serial_enable
 *fill*         0x0002901a        0x2 
 .text.serial_handler_app_cb_set
                0x0002901c        0xc examples/dfu/CMakeFiles/dfu_nrf52840_xxAA_s140_5.0.0-3.alpha.dir/__/__/mesh/serial/src/serial_handler_app.c.obj
                0x0002901c                serial_handler_app_cb_set
 .text.serial_handler_app_rx
                0x00029028       0x2c examples/dfu/CMakeFiles/dfu_nrf52840_xxAA_s140_5.0.0-3.alpha.dir/__/__/mesh/serial/src/serial_handler_app.c.obj
                0x00029028                serial_handler_app_rx
 .text.prov_provisioner_cb_link_closed
                0x00029054       0x2a examples/dfu/CMakeFiles/dfu_nrf52840_xxAA_s140_5.0.0-3.alpha.dir/__/__/mesh/prov/src/prov_provisioner.c.obj
 .text.prov_provisioner_cb_link_established
                0x0002907e       0x3e examples/dfu/CMakeFiles/dfu_nrf52840_xxAA_s140_5.0.0-3.alpha.dir/__/__/mesh/prov/src/prov_provisioner.c.obj
 .text.prov_provisioner_cb_ack_received
                0x000290bc       0x48 examples/dfu/CMakeFiles/dfu_nrf52840_xxAA_s140_5.0.0-3.alpha.dir/__/__/mesh/prov/src/prov_provisioner.c.obj
 .text.send_confirmation
                0x00029104       0x26 examples/dfu/CMakeFiles/dfu_nrf52840_xxAA_s140_5.0.0-3.alpha.dir/__/__/mesh/prov/src/prov_provisioner.c.obj
 .text.request_authentication
                0x0002912a       0x8a examples/dfu/CMakeFiles/dfu_nrf52840_xxAA_s140_5.0.0-3.alpha.dir/__/__/mesh/prov/src/prov_provisioner.c.obj
 .text.prov_provisioner_pkt_in
                0x000291b4      0x2a4 examples/dfu/CMakeFiles/dfu_nrf52840_xxAA_s140_5.0.0-3.alpha.dir/__/__/mesh/prov/src/prov_provisioner.c.obj
 .text.prov_provisioner_provision
                0x00029458       0x44 examples/dfu/CMakeFiles/dfu_nrf52840_xxAA_s140_5.0.0-3.alpha.dir/__/__/mesh/prov/src/prov_provisioner.c.obj
                0x00029458                prov_provisioner_provision
 .text.prov_provisioner_oob_use
                0x0002949c       0x7a examples/dfu/CMakeFiles/dfu_nrf52840_xxAA_s140_5.0.0-3.alpha.dir/__/__/mesh/prov/src/prov_provisioner.c.obj
                0x0002949c                prov_provisioner_oob_use
 .text.prov_provisioner_auth_data
                0x00029516       0x44 examples/dfu/CMakeFiles/dfu_nrf52840_xxAA_s140_5.0.0-3.alpha.dir/__/__/mesh/prov/src/prov_provisioner.c.obj
                0x00029516                prov_provisioner_auth_data
 .text.prov_provisioner_shared_secret
                0x0002955a       0x28 examples/dfu/CMakeFiles/dfu_nrf52840_xxAA_s140_5.0.0-3.alpha.dir/__/__/mesh/prov/src/prov_provisioner.c.obj
                0x0002955a                prov_provisioner_shared_secret
 .text.complete_provisioning
                0x00029582       0x52 examples/dfu/CMakeFiles/dfu_nrf52840_xxAA_s140_5.0.0-3.alpha.dir/__/__/mesh/prov/src/prov_provisionee.c.obj
 .text.prov_provisionee_cb_link_established
                0x000295d4       0x20 examples/dfu/CMakeFiles/dfu_nrf52840_xxAA_s140_5.0.0-3.alpha.dir/__/__/mesh/prov/src/prov_provisionee.c.obj
 .text.prov_provisionee_cb_link_closed
                0x000295f4       0x34 examples/dfu/CMakeFiles/dfu_nrf52840_xxAA_s140_5.0.0-3.alpha.dir/__/__/mesh/prov/src/prov_provisionee.c.obj
 .text.request_authentication
                0x00029628       0x8a examples/dfu/CMakeFiles/dfu_nrf52840_xxAA_s140_5.0.0-3.alpha.dir/__/__/mesh/prov/src/prov_provisionee.c.obj
 .text.send_failed
                0x000296b2       0x3a examples/dfu/CMakeFiles/dfu_nrf52840_xxAA_s140_5.0.0-3.alpha.dir/__/__/mesh/prov/src/prov_provisionee.c.obj
 .text.start_authentication
                0x000296ec       0x52 examples/dfu/CMakeFiles/dfu_nrf52840_xxAA_s140_5.0.0-3.alpha.dir/__/__/mesh/prov/src/prov_provisionee.c.obj
 *fill*         0x0002973e        0x2 
 .text.prov_provisionee_cb_ack_received
                0x00029740       0xb8 examples/dfu/CMakeFiles/dfu_nrf52840_xxAA_s140_5.0.0-3.alpha.dir/__/__/mesh/prov/src/prov_provisionee.c.obj
 .text.prov_provisionee_pkt_in
                0x000297f8      0x2a0 examples/dfu/CMakeFiles/dfu_nrf52840_xxAA_s140_5.0.0-3.alpha.dir/__/__/mesh/prov/src/prov_provisionee.c.obj
 .text.prov_provisionee_init
                0x00029a98       0x38 examples/dfu/CMakeFiles/dfu_nrf52840_xxAA_s140_5.0.0-3.alpha.dir/__/__/mesh/prov/src/prov_provisionee.c.obj
                0x00029a98                prov_provisionee_init
 .text.prov_provisionee_auth_data
                0x00029ad0       0x7a examples/dfu/CMakeFiles/dfu_nrf52840_xxAA_s140_5.0.0-3.alpha.dir/__/__/mesh/prov/src/prov_provisionee.c.obj
                0x00029ad0                prov_provisionee_auth_data
 .text.prov_provisionee_shared_secret
                0x00029b4a       0x28 examples/dfu/CMakeFiles/dfu_nrf52840_xxAA_s140_5.0.0-3.alpha.dir/__/__/mesh/prov/src/prov_provisionee.c.obj
                0x00029b4a                prov_provisionee_shared_secret
 .text.bearer_compare_callback
                0x00029b72        0xc examples/dfu/CMakeFiles/dfu_nrf52840_xxAA_s140_5.0.0-3.alpha.dir/__/__/mesh/prov/src/nrf_mesh_prov.c.obj
 .text.nrf_mesh_prov_init
                0x00029b7e       0x32 examples/dfu/CMakeFiles/dfu_nrf52840_xxAA_s140_5.0.0-3.alpha.dir/__/__/mesh/prov/src/nrf_mesh_prov.c.obj
                0x00029b7e                nrf_mesh_prov_init
 .text.nrf_mesh_prov_bearer_add
                0x00029bb0       0x20 examples/dfu/CMakeFiles/dfu_nrf52840_xxAA_s140_5.0.0-3.alpha.dir/__/__/mesh/prov/src/nrf_mesh_prov.c.obj
                0x00029bb0                nrf_mesh_prov_bearer_add
 .text.nrf_mesh_prov_generate_keys
                0x00029bd0        0x4 examples/dfu/CMakeFiles/dfu_nrf52840_xxAA_s140_5.0.0-3.alpha.dir/__/__/mesh/prov/src/nrf_mesh_prov.c.obj
                0x00029bd0                nrf_mesh_prov_generate_keys
 .text.nrf_mesh_prov_listen
                0x00029bd4       0x30 examples/dfu/CMakeFiles/dfu_nrf52840_xxAA_s140_5.0.0-3.alpha.dir/__/__/mesh/prov/src/nrf_mesh_prov.c.obj
                0x00029bd4                nrf_mesh_prov_listen
 .text.nrf_mesh_prov_provision
                0x00029c04       0x4e examples/dfu/CMakeFiles/dfu_nrf52840_xxAA_s140_5.0.0-3.alpha.dir/__/__/mesh/prov/src/nrf_mesh_prov.c.obj
                0x00029c04                nrf_mesh_prov_provision
 .text.nrf_mesh_prov_oob_use
                0x00029c52        0xe examples/dfu/CMakeFiles/dfu_nrf52840_xxAA_s140_5.0.0-3.alpha.dir/__/__/mesh/prov/src/nrf_mesh_prov.c.obj
                0x00029c52                nrf_mesh_prov_oob_use
 .text.nrf_mesh_prov_auth_data_provide
                0x00029c60        0xe examples/dfu/CMakeFiles/dfu_nrf52840_xxAA_s140_5.0.0-3.alpha.dir/__/__/mesh/prov/src/nrf_mesh_prov.c.obj
                0x00029c60                nrf_mesh_prov_auth_data_provide
 .text.nrf_mesh_prov_shared_secret_provide
                0x00029c6e        0xe examples/dfu/CMakeFiles/dfu_nrf52840_xxAA_s140_5.0.0-3.alpha.dir/__/__/mesh/prov/src/nrf_mesh_prov.c.obj
                0x00029c6e                nrf_mesh_prov_shared_secret_provide
 .text.nrf_mesh_prov_scan_start
                0x00029c7c       0x10 examples/dfu/CMakeFiles/dfu_nrf52840_xxAA_s140_5.0.0-3.alpha.dir/__/__/mesh/prov/src/nrf_mesh_prov.c.obj
                0x00029c7c                nrf_mesh_prov_scan_start
 .text.nrf_mesh_prov_scan_stop
                0x00029c8c        0x4 examples/dfu/CMakeFiles/dfu_nrf52840_xxAA_s140_5.0.0-3.alpha.dir/__/__/mesh/prov/src/nrf_mesh_prov.c.obj
                0x00029c8c                nrf_mesh_prov_scan_stop
 .text.send_data
                0x00029c90       0x3c examples/dfu/CMakeFiles/dfu_nrf52840_xxAA_s140_5.0.0-3.alpha.dir/__/__/mesh/prov/src/provisioning.c.obj
 .text.prov_packet_length_valid
                0x00029ccc       0x1c examples/dfu/CMakeFiles/dfu_nrf52840_xxAA_s140_5.0.0-3.alpha.dir/__/__/mesh/prov/src/provisioning.c.obj
                0x00029ccc                prov_packet_length_valid
 .text.prov_tx_invite
                0x00029ce8       0x28 examples/dfu/CMakeFiles/dfu_nrf52840_xxAA_s140_5.0.0-3.alpha.dir/__/__/mesh/prov/src/provisioning.c.obj
                0x00029ce8                prov_tx_invite
 .text.prov_tx_capabilities
                0x00029d10       0x1e examples/dfu/CMakeFiles/dfu_nrf52840_xxAA_s140_5.0.0-3.alpha.dir/__/__/mesh/prov/src/provisioning.c.obj
                0x00029d10                prov_tx_capabilities
 .text.prov_tx_start
                0x00029d2e       0x20 examples/dfu/CMakeFiles/dfu_nrf52840_xxAA_s140_5.0.0-3.alpha.dir/__/__/mesh/prov/src/provisioning.c.obj
                0x00029d2e                prov_tx_start
 .text.prov_tx_public_key
                0x00029d4e       0x26 examples/dfu/CMakeFiles/dfu_nrf52840_xxAA_s140_5.0.0-3.alpha.dir/__/__/mesh/prov/src/provisioning.c.obj
                0x00029d4e                prov_tx_public_key
 .text.prov_tx_input_complete
                0x00029d74       0x16 examples/dfu/CMakeFiles/dfu_nrf52840_xxAA_s140_5.0.0-3.alpha.dir/__/__/mesh/prov/src/provisioning.c.obj
                0x00029d74                prov_tx_input_complete
 .text.prov_tx_confirmation
                0x00029d8a       0x26 examples/dfu/CMakeFiles/dfu_nrf52840_xxAA_s140_5.0.0-3.alpha.dir/__/__/mesh/prov/src/provisioning.c.obj
                0x00029d8a                prov_tx_confirmation
 .text.prov_tx_random
                0x00029db0       0x26 examples/dfu/CMakeFiles/dfu_nrf52840_xxAA_s140_5.0.0-3.alpha.dir/__/__/mesh/prov/src/provisioning.c.obj
                0x00029db0                prov_tx_random
 .text.prov_tx_complete
                0x00029dd6       0x16 examples/dfu/CMakeFiles/dfu_nrf52840_xxAA_s140_5.0.0-3.alpha.dir/__/__/mesh/prov/src/provisioning.c.obj
                0x00029dd6                prov_tx_complete
 .text.prov_tx_failed
                0x00029dec       0x1a examples/dfu/CMakeFiles/dfu_nrf52840_xxAA_s140_5.0.0-3.alpha.dir/__/__/mesh/prov/src/provisioning.c.obj
                0x00029dec                prov_tx_failed
 .text.prov_tx_data
                0x00029e06        0x6 examples/dfu/CMakeFiles/dfu_nrf52840_xxAA_s140_5.0.0-3.alpha.dir/__/__/mesh/prov/src/provisioning.c.obj
                0x00029e06                prov_tx_data
 .text.prov_beacon_unprov_build
                0x00029e0c       0x54 examples/dfu/CMakeFiles/dfu_nrf52840_xxAA_s140_5.0.0-3.alpha.dir/__/__/mesh/prov/src/prov_beacon.c.obj
                0x00029e0c                prov_beacon_unprov_build
 .text.prov_beacon_unprov_packet_in
                0x00029e60       0x9c examples/dfu/CMakeFiles/dfu_nrf52840_xxAA_s140_5.0.0-3.alpha.dir/__/__/mesh/prov/src/prov_beacon.c.obj
                0x00029e60                prov_beacon_unprov_packet_in
 .text.prov_beacon_scan_start
                0x00029efc       0x24 examples/dfu/CMakeFiles/dfu_nrf52840_xxAA_s140_5.0.0-3.alpha.dir/__/__/mesh/prov/src/prov_beacon.c.obj
                0x00029efc                prov_beacon_scan_start
 .text.prov_beacon_scan_stop
                0x00029f20        0xc examples/dfu/CMakeFiles/dfu_nrf52840_xxAA_s140_5.0.0-3.alpha.dir/__/__/mesh/prov/src/prov_beacon.c.obj
                0x00029f20                prov_beacon_scan_stop
 .text.oob_gen_alphanumeric
                0x00029f2c       0x34 examples/dfu/CMakeFiles/dfu_nrf52840_xxAA_s140_5.0.0-3.alpha.dir/__/__/mesh/prov/src/prov_utils.c.obj
 .text.oob_gen_numeric
                0x00029f60       0x3c examples/dfu/CMakeFiles/dfu_nrf52840_xxAA_s140_5.0.0-3.alpha.dir/__/__/mesh/prov/src/prov_utils.c.obj
 .text.prov_utils_opt_get
                0x00029f9c       0x1c examples/dfu/CMakeFiles/dfu_nrf52840_xxAA_s140_5.0.0-3.alpha.dir/__/__/mesh/prov/src/prov_utils.c.obj
                0x00029f9c                prov_utils_opt_get
 .text.prov_utils_use_ecdh_offloading
                0x00029fb8        0xc examples/dfu/CMakeFiles/dfu_nrf52840_xxAA_s140_5.0.0-3.alpha.dir/__/__/mesh/prov/src/prov_utils.c.obj
                0x00029fb8                prov_utils_use_ecdh_offloading
 .text.prov_utils_authentication_values_derive
                0x00029fc4       0xa0 examples/dfu/CMakeFiles/dfu_nrf52840_xxAA_s140_5.0.0-3.alpha.dir/__/__/mesh/prov/src/prov_utils.c.obj
                0x00029fc4                prov_utils_authentication_values_derive
 .text.prov_utils_keys_generate
                0x0002a064       0x1e examples/dfu/CMakeFiles/dfu_nrf52840_xxAA_s140_5.0.0-3.alpha.dir/__/__/mesh/prov/src/prov_utils.c.obj
                0x0002a064                prov_utils_keys_generate
 *fill*         0x0002a082        0x2 
 .text.prov_utils_derive_keys
                0x0002a084       0xac examples/dfu/CMakeFiles/dfu_nrf52840_xxAA_s140_5.0.0-3.alpha.dir/__/__/mesh/prov/src/prov_utils.c.obj
                0x0002a084                prov_utils_derive_keys
 .text.prov_utils_calculate_shared_secret
                0x0002a130       0x36 examples/dfu/CMakeFiles/dfu_nrf52840_xxAA_s140_5.0.0-3.alpha.dir/__/__/mesh/prov/src/prov_utils.c.obj
                0x0002a130                prov_utils_calculate_shared_secret
 *fill*         0x0002a166        0x2 
 .text.prov_utils_generate_oob_data
                0x0002a168       0x9c examples/dfu/CMakeFiles/dfu_nrf52840_xxAA_s140_5.0.0-3.alpha.dir/__/__/mesh/prov/src/prov_utils.c.obj
                0x0002a168                prov_utils_generate_oob_data
 .text.prov_utils_confirmation_check
                0x0002a204       0x5c examples/dfu/CMakeFiles/dfu_nrf52840_xxAA_s140_5.0.0-3.alpha.dir/__/__/mesh/prov/src/prov_utils.c.obj
                0x0002a204                prov_utils_confirmation_check
 .text.link_timeout_cb
                0x0002a260       0x10 examples/dfu/CMakeFiles/dfu_nrf52840_xxAA_s140_5.0.0-3.alpha.dir/__/__/mesh/prov/src/prov_bearer_adv.c.obj
 .text.remove_active_bearer
                0x0002a270       0x60 examples/dfu/CMakeFiles/dfu_nrf52840_xxAA_s140_5.0.0-3.alpha.dir/__/__/mesh/prov/src/prov_bearer_adv.c.obj
 .text.close_link
                0x0002a2d0       0x6c examples/dfu/CMakeFiles/dfu_nrf52840_xxAA_s140_5.0.0-3.alpha.dir/__/__/mesh/prov/src/prov_bearer_adv.c.obj
 .text.prov_bearer_adv_listen_stop
                0x0002a33c       0x3c examples/dfu/CMakeFiles/dfu_nrf52840_xxAA_s140_5.0.0-3.alpha.dir/__/__/mesh/prov/src/prov_bearer_adv.c.obj
 .text.send_packet
                0x0002a378       0x6c examples/dfu/CMakeFiles/dfu_nrf52840_xxAA_s140_5.0.0-3.alpha.dir/__/__/mesh/prov/src/prov_bearer_adv.c.obj
 .text.prov_buffer_tx
                0x0002a3e4      0x158 examples/dfu/CMakeFiles/dfu_nrf52840_xxAA_s140_5.0.0-3.alpha.dir/__/__/mesh/prov/src/prov_bearer_adv.c.obj
 .text.send_link_close
                0x0002a53c       0x38 examples/dfu/CMakeFiles/dfu_nrf52840_xxAA_s140_5.0.0-3.alpha.dir/__/__/mesh/prov/src/prov_bearer_adv.c.obj
 .text.prov_bearer_adv_link_close
                0x0002a574       0x74 examples/dfu/CMakeFiles/dfu_nrf52840_xxAA_s140_5.0.0-3.alpha.dir/__/__/mesh/prov/src/prov_bearer_adv.c.obj
 .text.send_transaction_ack
                0x0002a5e8       0x24 examples/dfu/CMakeFiles/dfu_nrf52840_xxAA_s140_5.0.0-3.alpha.dir/__/__/mesh/prov/src/prov_bearer_adv.c.obj
 .text.send_link_ack
                0x0002a60c       0x32 examples/dfu/CMakeFiles/dfu_nrf52840_xxAA_s140_5.0.0-3.alpha.dir/__/__/mesh/prov/src/prov_bearer_adv.c.obj
 .text.reset_timeout_timer
                0x0002a63e       0x1a examples/dfu/CMakeFiles/dfu_nrf52840_xxAA_s140_5.0.0-3.alpha.dir/__/__/mesh/prov/src/prov_bearer_adv.c.obj
 .text.tx_complete_cb
                0x0002a658       0x1c examples/dfu/CMakeFiles/dfu_nrf52840_xxAA_s140_5.0.0-3.alpha.dir/__/__/mesh/prov/src/prov_bearer_adv.c.obj
 .text.tx_retry_cb
                0x0002a674       0xcc examples/dfu/CMakeFiles/dfu_nrf52840_xxAA_s140_5.0.0-3.alpha.dir/__/__/mesh/prov/src/prov_bearer_adv.c.obj
 .text.add_active_bearer
                0x0002a740       0x80 examples/dfu/CMakeFiles/dfu_nrf52840_xxAA_s140_5.0.0-3.alpha.dir/__/__/mesh/prov/src/prov_bearer_adv.c.obj
 .text.prov_bearer_adv_link_open
                0x0002a7c0       0xf8 examples/dfu/CMakeFiles/dfu_nrf52840_xxAA_s140_5.0.0-3.alpha.dir/__/__/mesh/prov/src/prov_bearer_adv.c.obj
 .text.async_process
                0x0002a8b8       0x50 examples/dfu/CMakeFiles/dfu_nrf52840_xxAA_s140_5.0.0-3.alpha.dir/__/__/mesh/prov/src/prov_bearer_adv.c.obj
 .text.prov_bearer_adv_listen
                0x0002a908       0xec examples/dfu/CMakeFiles/dfu_nrf52840_xxAA_s140_5.0.0-3.alpha.dir/__/__/mesh/prov/src/prov_bearer_adv.c.obj
 .text.calculate_3GPP_CRC
                0x0002a9f4       0x24 examples/dfu/CMakeFiles/dfu_nrf52840_xxAA_s140_5.0.0-3.alpha.dir/__/__/mesh/prov/src/prov_bearer_adv.c.obj
                0x0002a9f4                calculate_3GPP_CRC
 .text.prov_bearer_adv_tx
                0x0002aa18       0xb4 examples/dfu/CMakeFiles/dfu_nrf52840_xxAA_s140_5.0.0-3.alpha.dir/__/__/mesh/prov/src/prov_bearer_adv.c.obj
 .text.prov_buffer_rx
                0x0002aacc       0x7c examples/dfu/CMakeFiles/dfu_nrf52840_xxAA_s140_5.0.0-3.alpha.dir/__/__/mesh/prov/src/prov_bearer_adv.c.obj
 .text.nrf_mesh_prov_bearer_adv_interface_get
                0x0002ab48       0x48 examples/dfu/CMakeFiles/dfu_nrf52840_xxAA_s140_5.0.0-3.alpha.dir/__/__/mesh/prov/src/prov_bearer_adv.c.obj
                0x0002ab48                nrf_mesh_prov_bearer_adv_interface_get
 .text.prov_bearer_adv_packet_in
                0x0002ab90      0x80c examples/dfu/CMakeFiles/dfu_nrf52840_xxAA_s140_5.0.0-3.alpha.dir/__/__/mesh/prov/src/prov_bearer_adv.c.obj
                0x0002ab90                prov_bearer_adv_packet_in
 .text.tx_complete_cb
                0x0002b39c        0x2 examples/dfu/CMakeFiles/dfu_nrf52840_xxAA_s140_5.0.0-3.alpha.dir/__/__/mesh/dfu/src/nrf_mesh_dfu.c.obj
 *fill*         0x0002b39e        0x2 
 .text.reset_transfer_state
                0x0002b3a0       0x24 examples/dfu/CMakeFiles/dfu_nrf52840_xxAA_s140_5.0.0-3.alpha.dir/__/__/mesh/dfu/src/nrf_mesh_dfu.c.obj
 .text.end_transfer
                0x0002b3c4       0x48 examples/dfu/CMakeFiles/dfu_nrf52840_xxAA_s140_5.0.0-3.alpha.dir/__/__/mesh/dfu/src/nrf_mesh_dfu.c.obj
 .text.dfu_evt_handler
                0x0002b40c      0x828 examples/dfu/CMakeFiles/dfu_nrf52840_xxAA_s140_5.0.0-3.alpha.dir/__/__/mesh/dfu/src/nrf_mesh_dfu.c.obj
 .text.next_tx_timeout
                0x0002bc34       0x64 examples/dfu/CMakeFiles/dfu_nrf52840_xxAA_s140_5.0.0-3.alpha.dir/__/__/mesh/dfu/src/nrf_mesh_dfu.c.obj
 .text.tx_timeout
                0x0002bc98      0x108 examples/dfu/CMakeFiles/dfu_nrf52840_xxAA_s140_5.0.0-3.alpha.dir/__/__/mesh/dfu/src/nrf_mesh_dfu.c.obj
 .text.nrf_mesh_dfu_jump_to_bootloader
                0x0002bda0       0x40 examples/dfu/CMakeFiles/dfu_nrf52840_xxAA_s140_5.0.0-3.alpha.dir/__/__/mesh/dfu/src/nrf_mesh_dfu.c.obj
                0x0002bda0                nrf_mesh_dfu_jump_to_bootloader
 .text.nrf_mesh_dfu_state_get
                0x0002bde0       0x48 examples/dfu/CMakeFiles/dfu_nrf52840_xxAA_s140_5.0.0-3.alpha.dir/__/__/mesh/dfu/src/nrf_mesh_dfu.c.obj
                0x0002bde0                nrf_mesh_dfu_state_get
 .text.nrf_mesh_dfu_cmd_send
                0x0002be28       0x90 examples/dfu/CMakeFiles/dfu_nrf52840_xxAA_s140_5.0.0-3.alpha.dir/__/__/mesh/dfu/src/nrf_mesh_dfu.c.obj
                0x0002be28                nrf_mesh_dfu_cmd_send
 .text.nrf_mesh_dfu_init
                0x0002beb8      0x158 examples/dfu/CMakeFiles/dfu_nrf52840_xxAA_s140_5.0.0-3.alpha.dir/__/__/mesh/dfu/src/nrf_mesh_dfu.c.obj
                0x0002beb8                nrf_mesh_dfu_init
 .text.flash_op_complete
                0x0002c010      0x160 examples/dfu/CMakeFiles/dfu_nrf52840_xxAA_s140_5.0.0-3.alpha.dir/__/__/mesh/dfu/src/nrf_mesh_dfu.c.obj
 .text.abort_timeout
                0x0002c170       0x80 examples/dfu/CMakeFiles/dfu_nrf52840_xxAA_s140_5.0.0-3.alpha.dir/__/__/mesh/dfu/src/nrf_mesh_dfu.c.obj
 .text.timer_timeout
                0x0002c1f0       0x7c examples/dfu/CMakeFiles/dfu_nrf52840_xxAA_s140_5.0.0-3.alpha.dir/__/__/mesh/dfu/src/nrf_mesh_dfu.c.obj
 .text.nrf_mesh_dfu_rx
                0x0002c26c       0xc8 examples/dfu/CMakeFiles/dfu_nrf52840_xxAA_s140_5.0.0-3.alpha.dir/__/__/mesh/dfu/src/nrf_mesh_dfu.c.obj
                0x0002c26c                nrf_mesh_dfu_rx
 .text.nrf_mesh_dfu_request
                0x0002c334       0x98 examples/dfu/CMakeFiles/dfu_nrf52840_xxAA_s140_5.0.0-3.alpha.dir/__/__/mesh/dfu/src/nrf_mesh_dfu.c.obj
                0x0002c334                nrf_mesh_dfu_request
 .text.nrf_mesh_dfu_relay
                0x0002c3cc       0x68 examples/dfu/CMakeFiles/dfu_nrf52840_xxAA_s140_5.0.0-3.alpha.dir/__/__/mesh/dfu/src/nrf_mesh_dfu.c.obj
                0x0002c3cc                nrf_mesh_dfu_relay
 .text.nrf_mesh_dfu_abort
                0x0002c434       0x2c examples/dfu/CMakeFiles/dfu_nrf52840_xxAA_s140_5.0.0-3.alpha.dir/__/__/mesh/dfu/src/nrf_mesh_dfu.c.obj
                0x0002c434                nrf_mesh_dfu_abort
 .text.nrf_mesh_dfu_bank_info_get
                0x0002c460       0x30 examples/dfu/CMakeFiles/dfu_nrf52840_xxAA_s140_5.0.0-3.alpha.dir/__/__/mesh/dfu/src/nrf_mesh_dfu.c.obj
                0x0002c460                nrf_mesh_dfu_bank_info_get
 .text.nrf_mesh_dfu_bank_flash
                0x0002c490       0x28 examples/dfu/CMakeFiles/dfu_nrf52840_xxAA_s140_5.0.0-3.alpha.dir/__/__/mesh/dfu/src/nrf_mesh_dfu.c.obj
                0x0002c490                nrf_mesh_dfu_bank_flash
 .text.errata_136
                0x0002c4b8       0x20 examples/dfu/CMakeFiles/dfu_nrf52840_xxAA_s140_5.0.0-3.alpha.dir/__/__/external/nRF5_SDK_14.2.0_17b948a/components/toolchain/system_nrf52840.c.obj
 .text.SystemInit
                0x0002c4d8      0x1d0 examples/dfu/CMakeFiles/dfu_nrf52840_xxAA_s140_5.0.0-3.alpha.dir/__/__/external/nRF5_SDK_14.2.0_17b948a/components/toolchain/system_nrf52840.c.obj
                0x0002c4d8                SystemInit
 .text          0x0002c6a8       0x3c examples/dfu/CMakeFiles/dfu_nrf52840_xxAA_s140_5.0.0-3.alpha.dir/__/__/external/nRF5_SDK_14.2.0_17b948a/components/toolchain/gcc/gcc_startup_nrf52840.S.obj
                0x0002c6a8                Reset_Handler
                0x0002c6d0                NMI_Handler
                0x0002c6d4                MemoryManagement_Handler
                0x0002c6d6                BusFault_Handler
                0x0002c6d8                UsageFault_Handler
                0x0002c6da                SVC_Handler
                0x0002c6dc                DebugMon_Handler
                0x0002c6de                PendSV_Handler
                0x0002c6e0                SysTick_Handler
                0x0002c6e2                POWER_CLOCK_IRQHandler
                0x0002c6e2                RADIO_IRQHandler
                0x0002c6e2                PDM_IRQHandler
                0x0002c6e2                TEMP_IRQHandler
                0x0002c6e2                TIMER3_IRQHandler
                0x0002c6e2                PWM3_IRQHandler
                0x0002c6e2                FPU_IRQHandler
                0x0002c6e2                USBD_IRQHandler
                0x0002c6e2                SPIM0_SPIS0_TWIM0_TWIS0_SPI0_TWI0_IRQHandler
                0x0002c6e2                PWM1_IRQHandler
                0x0002c6e2                TIMER4_IRQHandler
                0x0002c6e2                CRYPTOCELL_IRQHandler
                0x0002c6e2                RTC0_IRQHandler
                0x0002c6e2                SWI4_EGU4_IRQHandler
                0x0002c6e2                TIMER0_IRQHandler
                0x0002c6e2                GPIOTE_IRQHandler
                0x0002c6e2                UARTE1_IRQHandler
                0x0002c6e2                TIMER1_IRQHandler
                0x0002c6e2                SPIM3_IRQHandler
                0x0002c6e2                PWM2_IRQHandler
                0x0002c6e2                ECB_IRQHandler
                0x0002c6e2                SPIM1_SPIS1_TWIM1_TWIS1_SPI1_TWI1_IRQHandler
                0x0002c6e2                Default_Handler
                0x0002c6e2                SAADC_IRQHandler
                0x0002c6e2                CCM_AAR_IRQHandler
                0x0002c6e2                WDT_IRQHandler
                0x0002c6e2                I2S_IRQHandler
                0x0002c6e2                SWI5_EGU5_IRQHandler
                0x0002c6e2                RNG_IRQHandler
                0x0002c6e2                RTC2_IRQHandler
                0x0002c6e2                PWM0_IRQHandler
                0x0002c6e2                SWI3_EGU3_IRQHandler
                0x0002c6e2                RTC1_IRQHandler
                0x0002c6e2                SWI1_EGU1_IRQHandler
                0x0002c6e2                SPIM2_SPIS2_SPI2_IRQHandler
                0x0002c6e2                NFCT_IRQHandler
                0x0002c6e2                SWI0_EGU0_IRQHandler
                0x0002c6e2                MWU_IRQHandler
                0x0002c6e2                TIMER2_IRQHandler
                0x0002c6e2                QSPI_IRQHandler
                0x0002c6e2                COMP_LPCOMP_IRQHandler
 .text.internal_event_init
                0x0002c6e4       0x40 mesh/core/libmesh_core_nrf52840_xxAA.a(internal_event.c.obj)
                0x0002c6e4                internal_event_init
 .text.internal_event_push
                0x0002c724       0x28 mesh/core/libmesh_core_nrf52840_xxAA.a(internal_event.c.obj)
                0x0002c724                internal_event_push
 .text.nrf_mesh_configure_device_uuid_set
                0x0002c74c       0x10 mesh/core/libmesh_core_nrf52840_xxAA.a(nrf_mesh_configure.c.obj)
                0x0002c74c                nrf_mesh_configure_device_uuid_set
 .text.nrf_mesh_configure_device_uuid_reset
                0x0002c75c       0x28 mesh/core/libmesh_core_nrf52840_xxAA.a(nrf_mesh_configure.c.obj)
                0x0002c75c                nrf_mesh_configure_device_uuid_reset
 .text.nrf_mesh_configure_device_uuid_get
                0x0002c784        0x8 mesh/core/libmesh_core_nrf52840_xxAA.a(nrf_mesh_configure.c.obj)
                0x0002c784                nrf_mesh_configure_device_uuid_get
 .text.event_handle
                0x0002c78c       0x30 mesh/core/libmesh_core_nrf52840_xxAA.a(event.c.obj)
                0x0002c78c                event_handle
 .text.event_handler_add
                0x0002c7bc       0x28 mesh/core/libmesh_core_nrf52840_xxAA.a(event.c.obj)
                0x0002c7bc                event_handler_add
 .text.event_handler_remove
                0x0002c7e4       0x28 mesh/core/libmesh_core_nrf52840_xxAA.a(event.c.obj)
                0x0002c7e4                event_handler_remove
 .text.m_adjust_desired_packet_length
                0x0002c80c       0x34 mesh/core/libmesh_core_nrf52840_xxAA.a(packet_buffer.c.obj)
 .text.m_index_increment.part.0
                0x0002c840       0x14 mesh/core/libmesh_core_nrf52840_xxAA.a(packet_buffer.c.obj)
 .text.m_free_popped_packet
                0x0002c854       0x60 mesh/core/libmesh_core_nrf52840_xxAA.a(packet_buffer.c.obj)
 .text.free_skipped_packets
                0x0002c8b4       0x1c mesh/core/libmesh_core_nrf52840_xxAA.a(packet_buffer.c.obj)
 .text.packet_buffer_max_packet_len_get
                0x0002c8d0       0x34 mesh/core/libmesh_core_nrf52840_xxAA.a(packet_buffer.c.obj)
                0x0002c8d0                packet_buffer_max_packet_len_get
 .text.packet_buffer_init
                0x0002c904       0xe0 mesh/core/libmesh_core_nrf52840_xxAA.a(packet_buffer.c.obj)
                0x0002c904                packet_buffer_init
 .text.packet_buffer_flush
                0x0002c9e4       0x5e mesh/core/libmesh_core_nrf52840_xxAA.a(packet_buffer.c.obj)
                0x0002c9e4                packet_buffer_flush
 *fill*         0x0002ca42        0x2 
 .text.packet_buffer_reserve
                0x0002ca44      0x11c mesh/core/libmesh_core_nrf52840_xxAA.a(packet_buffer.c.obj)
                0x0002ca44                packet_buffer_reserve
 .text.packet_buffer_commit
                0x0002cb60      0x104 mesh/core/libmesh_core_nrf52840_xxAA.a(packet_buffer.c.obj)
                0x0002cb60                packet_buffer_commit
 .text.packet_buffer_pop
                0x0002cc64       0x58 mesh/core/libmesh_core_nrf52840_xxAA.a(packet_buffer.c.obj)
                0x0002cc64                packet_buffer_pop
 .text.packet_buffer_can_pop
                0x0002ccbc       0x28 mesh/core/libmesh_core_nrf52840_xxAA.a(packet_buffer.c.obj)
                0x0002ccbc                packet_buffer_can_pop
 .text.packet_buffer_packets_ready_to_pop
                0x0002cce4       0x58 mesh/core/libmesh_core_nrf52840_xxAA.a(packet_buffer.c.obj)
                0x0002cce4                packet_buffer_packets_ready_to_pop
 .text.packet_buffer_free
                0x0002cd3c       0x8c mesh/core/libmesh_core_nrf52840_xxAA.a(packet_buffer.c.obj)
                0x0002cd3c                packet_buffer_free
 .text.fifo_init
                0x0002cdc8       0x50 mesh/core/libmesh_core_nrf52840_xxAA.a(fifo.c.obj)
                0x0002cdc8                fifo_init
 .text.fifo_push
                0x0002ce18       0x50 mesh/core/libmesh_core_nrf52840_xxAA.a(fifo.c.obj)
                0x0002ce18                fifo_push
 .text.fifo_pop
                0x0002ce68       0x52 mesh/core/libmesh_core_nrf52840_xxAA.a(fifo.c.obj)
                0x0002ce68                fifo_pop
 *fill*         0x0002ceba        0x2 
 .text.flash_mem_available
                0x0002cebc       0x20 mesh/core/libmesh_core_nrf52840_xxAA.a(net_state.c.obj)
 .text.flash_store_iv_index
                0x0002cedc       0x38 mesh/core/libmesh_core_nrf52840_xxAA.a(net_state.c.obj)
 .text.seqnum_block_allocate
                0x0002cf14       0x48 mesh/core/libmesh_core_nrf52840_xxAA.a(net_state.c.obj)
 .text.net_state_reset
                0x0002cf5c       0x3c mesh/core/libmesh_core_nrf52840_xxAA.a(net_state.c.obj)
                0x0002cf5c                net_state_reset
 .text.flash_write_complete
                0x0002cf98       0x78 mesh/core/libmesh_core_nrf52840_xxAA.a(net_state.c.obj)
 .text.net_state_recover_from_flash
                0x0002d010       0x8c mesh/core/libmesh_core_nrf52840_xxAA.a(net_state.c.obj)
                0x0002d010                net_state_recover_from_flash
 .text.net_state_flash_area_get
                0x0002d09c        0xc mesh/core/libmesh_core_nrf52840_xxAA.a(net_state.c.obj)
                0x0002d09c                net_state_flash_area_get
 .text.init_flash_storage
                0x0002d0a8       0x40 mesh/core/libmesh_core_nrf52840_xxAA.a(net_state.c.obj)
 .text.net_state_init
                0x0002d0e8       0x48 mesh/core/libmesh_core_nrf52840_xxAA.a(net_state.c.obj)
                0x0002d0e8                net_state_init
 .text.net_state_iv_update_start
                0x0002d130       0x64 mesh/core/libmesh_core_nrf52840_xxAA.a(net_state.c.obj)
                0x0002d130                net_state_iv_update_start
 .text.iv_update_trigger_if_pending
                0x0002d194       0x8c mesh/core/libmesh_core_nrf52840_xxAA.a(net_state.c.obj)
 .text.iv_update_timer_handler
                0x0002d220       0x74 mesh/core/libmesh_core_nrf52840_xxAA.a(net_state.c.obj)
 .text.net_state_seqnum_alloc
                0x0002d294       0x68 mesh/core/libmesh_core_nrf52840_xxAA.a(net_state.c.obj)
                0x0002d294                net_state_seqnum_alloc
 .text.net_state_iv_index_lock
                0x0002d2fc       0x48 mesh/core/libmesh_core_nrf52840_xxAA.a(net_state.c.obj)
                0x0002d2fc                net_state_iv_index_lock
 .text.net_state_key_refresh_phase_changed
                0x0002d344       0x1e mesh/core/libmesh_core_nrf52840_xxAA.a(net_state.c.obj)
                0x0002d344                net_state_key_refresh_phase_changed
 *fill*         0x0002d362        0x2 
 .text.net_state_beacon_received
                0x0002d364       0x94 mesh/core/libmesh_core_nrf52840_xxAA.a(net_state.c.obj)
                0x0002d364                net_state_beacon_received
 .text.net_state_beacon_iv_index_get
                0x0002d3f8        0xc mesh/core/libmesh_core_nrf52840_xxAA.a(net_state.c.obj)
                0x0002d3f8                net_state_beacon_iv_index_get
 .text.net_state_tx_iv_index_get
                0x0002d404       0x14 mesh/core/libmesh_core_nrf52840_xxAA.a(net_state.c.obj)
                0x0002d404                net_state_tx_iv_index_get
 .text.net_state_rx_iv_index_get
                0x0002d418       0x18 mesh/core/libmesh_core_nrf52840_xxAA.a(net_state.c.obj)
                0x0002d418                net_state_rx_iv_index_get
 .text.net_state_iv_update_get
                0x0002d430        0xc mesh/core/libmesh_core_nrf52840_xxAA.a(net_state.c.obj)
                0x0002d430                net_state_iv_update_get
 .text.send_end_events
                0x0002d43c       0x84 mesh/core/libmesh_core_nrf52840_xxAA.a(mesh_flash.c.obj)
 .text.flash_op_schedule
                0x0002d4c0       0x9c mesh/core/libmesh_core_nrf52840_xxAA.a(mesh_flash.c.obj)
 .text.flash_op_start
                0x0002d55c      0x170 mesh/core/libmesh_core_nrf52840_xxAA.a(mesh_flash.c.obj)
 .text.mesh_flash_init
                0x0002d6cc       0x88 mesh/core/libmesh_core_nrf52840_xxAA.a(mesh_flash.c.obj)
                0x0002d6cc                mesh_flash_init
 .text.mesh_flash_user_callback_set
                0x0002d754       0x2c mesh/core/libmesh_core_nrf52840_xxAA.a(mesh_flash.c.obj)
                0x0002d754                mesh_flash_user_callback_set
 .text.mesh_flash_op_push
                0x0002d780      0x128 mesh/core/libmesh_core_nrf52840_xxAA.a(mesh_flash.c.obj)
                0x0002d780                mesh_flash_op_push
 .text.mesh_flash_in_progress
                0x0002d8a8       0x34 mesh/core/libmesh_core_nrf52840_xxAA.a(mesh_flash.c.obj)
                0x0002d8a8                mesh_flash_in_progress
 .text.mesh_flash_set_suspended
                0x0002d8dc       0x80 mesh/core/libmesh_core_nrf52840_xxAA.a(mesh_flash.c.obj)
                0x0002d8dc                mesh_flash_set_suspended
 .text.nrf_mesh_address_type_get
                0x0002d95c       0x10 mesh/core/libmesh_core_nrf52840_xxAA.a(nrf_mesh_utils.c.obj)
                0x0002d95c                nrf_mesh_address_type_get
 .text.sd_softdevice_is_enabled
                0x0002d96c        0x4 mesh/core/libmesh_core_nrf52840_xxAA.a(nrf_mesh.c.obj)
 .text.nrf_mesh_listen
                0x0002d970      0x138 mesh/core/libmesh_core_nrf52840_xxAA.a(nrf_mesh.c.obj)
 .text.scanner_packet_process_cb
                0x0002daa8       0x8c mesh/core/libmesh_core_nrf52840_xxAA.a(nrf_mesh.c.obj)
 .text.nrf_mesh_init
                0x0002db34       0xd8 mesh/core/libmesh_core_nrf52840_xxAA.a(nrf_mesh.c.obj)
                0x0002db34                nrf_mesh_init
 .text.nrf_mesh_enable
                0x0002dc0c       0x48 mesh/core/libmesh_core_nrf52840_xxAA.a(nrf_mesh.c.obj)
                0x0002dc0c                nrf_mesh_enable
 .text.nrf_mesh_disable
                0x0002dc54       0x28 mesh/core/libmesh_core_nrf52840_xxAA.a(nrf_mesh.c.obj)
                0x0002dc54                nrf_mesh_disable
 .text.nrf_mesh_packet_send
                0x0002dc7c        0x4 mesh/core/libmesh_core_nrf52840_xxAA.a(nrf_mesh.c.obj)
                0x0002dc7c                nrf_mesh_packet_send
 .text.nrf_mesh_on_ble_evt
                0x0002dc80        0x4 mesh/core/libmesh_core_nrf52840_xxAA.a(nrf_mesh.c.obj)
                0x0002dc80                nrf_mesh_on_ble_evt
 .text.nrf_mesh_on_sd_evt
                0x0002dc84        0xa mesh/core/libmesh_core_nrf52840_xxAA.a(nrf_mesh.c.obj)
                0x0002dc84                nrf_mesh_on_sd_evt
 .text.nrf_mesh_evt_handler_add
                0x0002dc8e        0x4 mesh/core/libmesh_core_nrf52840_xxAA.a(nrf_mesh.c.obj)
                0x0002dc8e                nrf_mesh_evt_handler_add
 .text.sd_power_reset_reason_clr
                0x0002dc92        0x4 mesh/core/libmesh_core_nrf52840_xxAA.a(hal.c.obj)
 *fill*         0x0002dc96        0x2 
 .text.hal_device_reset
                0x0002dc98       0x2c mesh/core/libmesh_core_nrf52840_xxAA.a(hal.c.obj)
                0x0002dc98                hal_device_reset
 .text.hal_lfclk_ppm_get
                0x0002dcc4       0x14 mesh/core/libmesh_core_nrf52840_xxAA.a(hal.c.obj)
                0x0002dcc4                hal_lfclk_ppm_get
 .text.add_to_add_list
                0x0002dcd8       0x44 mesh/core/libmesh_core_nrf52840_xxAA.a(timer_scheduler.c.obj)
 .text.process_dirty_events
                0x0002dd1c       0x6c mesh/core/libmesh_core_nrf52840_xxAA.a(timer_scheduler.c.obj)
 .text.timer_cb
                0x0002dd88        0xc mesh/core/libmesh_core_nrf52840_xxAA.a(timer_scheduler.c.obj)
 .text.add_evt.constprop.0
                0x0002dd94       0x68 mesh/core/libmesh_core_nrf52840_xxAA.a(timer_scheduler.c.obj)
 .text.process_add_list
                0x0002ddfc       0x48 mesh/core/libmesh_core_nrf52840_xxAA.a(timer_scheduler.c.obj)
 .text.flag_event_cb
                0x0002de44      0x100 mesh/core/libmesh_core_nrf52840_xxAA.a(timer_scheduler.c.obj)
 .text.timer_sch_init
                0x0002df44       0x24 mesh/core/libmesh_core_nrf52840_xxAA.a(timer_scheduler.c.obj)
                0x0002df44                timer_sch_init
 .text.timer_sch_schedule
                0x0002df68       0x50 mesh/core/libmesh_core_nrf52840_xxAA.a(timer_scheduler.c.obj)
                0x0002df68                timer_sch_schedule
 .text.timer_sch_abort
                0x0002dfb8       0x64 mesh/core/libmesh_core_nrf52840_xxAA.a(timer_scheduler.c.obj)
                0x0002dfb8                timer_sch_abort
 .text.timer_sch_reschedule
                0x0002e01c       0x70 mesh/core/libmesh_core_nrf52840_xxAA.a(timer_scheduler.c.obj)
                0x0002e01c                timer_sch_reschedule
 .text.timer_mut_unlock
                0x0002e08c       0x10 mesh/core/libmesh_core_nrf52840_xxAA.a(timer.c.obj)
 .text.timer_order_cb
                0x0002e09c       0x94 mesh/core/libmesh_core_nrf52840_xxAA.a(timer.c.obj)
                0x0002e09c                timer_order_cb
 .text.timer_now
                0x0002e130       0x48 mesh/core/libmesh_core_nrf52840_xxAA.a(timer.c.obj)
                0x0002e130                timer_now
 .text.timer_event_handler
                0x0002e178       0x98 mesh/core/libmesh_core_nrf52840_xxAA.a(timer.c.obj)
                0x0002e178                timer_event_handler
 .text.timer_on_ts_begin
                0x0002e210       0xfc mesh/core/libmesh_core_nrf52840_xxAA.a(timer.c.obj)
                0x0002e210                timer_on_ts_begin
 .text.timer_on_ts_end
                0x0002e30c       0x60 mesh/core/libmesh_core_nrf52840_xxAA.a(timer.c.obj)
                0x0002e30c                timer_on_ts_end
 .text.timer_cb
                0x0002e36c       0x10 mesh/core/libmesh_core_nrf52840_xxAA.a(ticker.c.obj)
 .text.ticker_init
                0x0002e37c       0x3c mesh/core/libmesh_core_nrf52840_xxAA.a(ticker.c.obj)
                0x0002e37c                ticker_init
 .text.sd_rand_application_bytes_available_get
                0x0002e3b8        0x4 mesh/core/libmesh_core_nrf52840_xxAA.a(rand.c.obj)
 .text.sd_rand_application_vector_get
                0x0002e3bc        0x4 mesh/core/libmesh_core_nrf52840_xxAA.a(rand.c.obj)
 .text.rand_prng_get
                0x0002e3c0       0x22 mesh/core/libmesh_core_nrf52840_xxAA.a(rand.c.obj)
                0x0002e3c0                rand_prng_get
 *fill*         0x0002e3e2        0x2 
 .text.rand_hw_rng_get
                0x0002e3e4       0x50 mesh/core/libmesh_core_nrf52840_xxAA.a(rand.c.obj)
                0x0002e3e4                rand_hw_rng_get
 .text.rand_prng_seed
                0x0002e434       0x34 mesh/core/libmesh_core_nrf52840_xxAA.a(rand.c.obj)
                0x0002e434                rand_prng_seed
 .text.sd_radio_session_open
                0x0002e468        0x4 mesh/core/libmesh_core_nrf52840_xxAA.a(timeslot.c.obj)
 .text.sd_radio_session_close
                0x0002e46c        0x4 mesh/core/libmesh_core_nrf52840_xxAA.a(timeslot.c.obj)
 .text.sd_radio_request
                0x0002e470        0x4 mesh/core/libmesh_core_nrf52840_xxAA.a(timeslot.c.obj)
 .text.end_timer_handler
                0x0002e474       0x24 mesh/core/libmesh_core_nrf52840_xxAA.a(timeslot.c.obj)
 .text.get_end_time.constprop.10
                0x0002e498       0x28 mesh/core/libmesh_core_nrf52840_xxAA.a(timeslot.c.obj)
 .text.handle_extend_end.constprop.3
                0x0002e4c0       0xc0 mesh/core/libmesh_core_nrf52840_xxAA.a(timeslot.c.obj)
 .text.radio_signal_callback
                0x0002e580      0x14c mesh/core/libmesh_core_nrf52840_xxAA.a(timeslot.c.obj)
 .text.timeslot_sd_event_handler
                0x0002e6cc       0x44 mesh/core/libmesh_core_nrf52840_xxAA.a(timeslot.c.obj)
                0x0002e6cc                timeslot_sd_event_handler
 .text.timeslot_init
                0x0002e710       0x48 mesh/core/libmesh_core_nrf52840_xxAA.a(timeslot.c.obj)
                0x0002e710                timeslot_init
 .text.timeslot_start
                0x0002e758       0x20 mesh/core/libmesh_core_nrf52840_xxAA.a(timeslot.c.obj)
                0x0002e758                timeslot_start
 .text.timeslot_end_is_pending
                0x0002e778       0x24 mesh/core/libmesh_core_nrf52840_xxAA.a(timeslot.c.obj)
                0x0002e778                timeslot_end_is_pending
 .text.timeslot_start_time_get
                0x0002e79c        0xc mesh/core/libmesh_core_nrf52840_xxAA.a(timeslot.c.obj)
                0x0002e79c                timeslot_start_time_get
 .text.timeslot_remaining_time_get
                0x0002e7a8       0x20 mesh/core/libmesh_core_nrf52840_xxAA.a(timeslot.c.obj)
                0x0002e7a8                timeslot_remaining_time_get
 .text.timeslot_is_in_cb
                0x0002e7c8        0xc mesh/core/libmesh_core_nrf52840_xxAA.a(timeslot.c.obj)
                0x0002e7c8                timeslot_is_in_cb
 .text.timeslot_trigger
                0x0002e7d4       0x24 mesh/core/libmesh_core_nrf52840_xxAA.a(timeslot.c.obj)
                0x0002e7d4                timeslot_trigger
 .text.timeslot_stop
                0x0002e7f8       0x10 mesh/core/libmesh_core_nrf52840_xxAA.a(timeslot.c.obj)
                0x0002e7f8                timeslot_stop
 .text.timeslot_state_lock
                0x0002e808       0x28 mesh/core/libmesh_core_nrf52840_xxAA.a(timeslot.c.obj)
                0x0002e808                timeslot_state_lock
 .text.trigger_event_handler
                0x0002e830       0x1c mesh/core/libmesh_core_nrf52840_xxAA.a(bearer_event.c.obj)
 .text.evt_push
                0x0002e84c       0x1c mesh/core/libmesh_core_nrf52840_xxAA.a(bearer_event.c.obj)
 .text.bearer_event_init
                0x0002e868       0x48 mesh/core/libmesh_core_nrf52840_xxAA.a(bearer_event.c.obj)
                0x0002e868                bearer_event_init
 .text.bearer_event_generic_post
                0x0002e8b0       0x30 mesh/core/libmesh_core_nrf52840_xxAA.a(bearer_event.c.obj)
                0x0002e8b0                bearer_event_generic_post
 .text.bearer_event_timer_post
                0x0002e8e0       0x30 mesh/core/libmesh_core_nrf52840_xxAA.a(bearer_event.c.obj)
                0x0002e8e0                bearer_event_timer_post
 .text.bearer_event_critical_section_begin
                0x0002e910       0x50 mesh/core/libmesh_core_nrf52840_xxAA.a(bearer_event.c.obj)
                0x0002e910                bearer_event_critical_section_begin
 .text.bearer_event_critical_section_end
                0x0002e960       0x4c mesh/core/libmesh_core_nrf52840_xxAA.a(bearer_event.c.obj)
                0x0002e960                bearer_event_critical_section_end
 .text.bearer_event_flag_add
                0x0002e9ac       0x50 mesh/core/libmesh_core_nrf52840_xxAA.a(bearer_event.c.obj)
                0x0002e9ac                bearer_event_flag_add
 .text.bearer_event_flag_set
                0x0002e9fc       0x50 mesh/core/libmesh_core_nrf52840_xxAA.a(bearer_event.c.obj)
                0x0002e9fc                bearer_event_flag_set
 .text.bearer_event_sequential_add
                0x0002ea4c       0x44 mesh/core/libmesh_core_nrf52840_xxAA.a(bearer_event.c.obj)
                0x0002ea4c                bearer_event_sequential_add
 .text.bearer_event_sequential_post
                0x0002ea90       0x58 mesh/core/libmesh_core_nrf52840_xxAA.a(bearer_event.c.obj)
                0x0002ea90                bearer_event_sequential_post
 .text.bearer_event_sequential_pending
                0x0002eae8       0x1c mesh/core/libmesh_core_nrf52840_xxAA.a(bearer_event.c.obj)
                0x0002eae8                bearer_event_sequential_pending
 .text.bearer_event_handler
                0x0002eb04      0x104 mesh/core/libmesh_core_nrf52840_xxAA.a(bearer_event.c.obj)
                0x0002eb04                bearer_event_handler
 .text.QDEC_IRQHandler
                0x0002ec08        0x4 mesh/core/libmesh_core_nrf52840_xxAA.a(bearer_event.c.obj)
                0x0002ec08                QDEC_IRQHandler
 .text.enc_aes_encrypt
                0x0002ec0c        0x4 mesh/core/libmesh_core_nrf52840_xxAA.a(enc.c.obj)
                0x0002ec0c                enc_aes_encrypt
 .text.enc_aes_cmac
                0x0002ec10        0x4 mesh/core/libmesh_core_nrf52840_xxAA.a(enc.c.obj)
                0x0002ec10                enc_aes_cmac
 .text.enc_aes_ccm_encrypt
                0x0002ec14        0x4 mesh/core/libmesh_core_nrf52840_xxAA.a(enc.c.obj)
                0x0002ec14                enc_aes_ccm_encrypt
 .text.enc_aes_ccm_decrypt
                0x0002ec18        0x4 mesh/core/libmesh_core_nrf52840_xxAA.a(enc.c.obj)
                0x0002ec18                enc_aes_ccm_decrypt
 .text.enc_nonce_generate
                0x0002ec1c       0xb8 mesh/core/libmesh_core_nrf52840_xxAA.a(enc.c.obj)
                0x0002ec1c                enc_nonce_generate
 .text.enc_s1   0x0002ecd4       0x38 mesh/core/libmesh_core_nrf52840_xxAA.a(enc.c.obj)
                0x0002ecd4                enc_s1
 .text.enc_k1   0x0002ed0c       0x48 mesh/core/libmesh_core_nrf52840_xxAA.a(enc.c.obj)
                0x0002ed0c                enc_k1
 .text.enc_k2   0x0002ed54       0xd8 mesh/core/libmesh_core_nrf52840_xxAA.a(enc.c.obj)
                0x0002ed54                enc_k2
 .text.enc_k3   0x0002ee2c       0x68 mesh/core/libmesh_core_nrf52840_xxAA.a(enc.c.obj)
                0x0002ee2c                enc_k3
 .text.enc_k4   0x0002ee94       0x60 mesh/core/libmesh_core_nrf52840_xxAA.a(enc.c.obj)
                0x0002ee94                enc_k4
 .text.header_transfuscate
                0x0002eef4       0x54 mesh/core/libmesh_core_nrf52840_xxAA.a(network.c.obj)
 .text.allocate_packet
                0x0002ef48      0x14c mesh/core/libmesh_core_nrf52840_xxAA.a(network.c.obj)
 .text.network_init
                0x0002f094       0x2c mesh/core/libmesh_core_nrf52840_xxAA.a(network.c.obj)
                0x0002f094                network_init
 .text.network_opt_get
                0x0002f0c0       0x4c mesh/core/libmesh_core_nrf52840_xxAA.a(network.c.obj)
                0x0002f0c0                network_opt_get
 .text.network_packet_alloc
                0x0002f10c       0x50 mesh/core/libmesh_core_nrf52840_xxAA.a(network.c.obj)
                0x0002f10c                network_packet_alloc
 .text.network_packet_send
                0x0002f15c      0x140 mesh/core/libmesh_core_nrf52840_xxAA.a(network.c.obj)
                0x0002f15c                network_packet_send
 .text.network_packet_in
                0x0002f29c      0x460 mesh/core/libmesh_core_nrf52840_xxAA.a(network.c.obj)
                0x0002f29c                network_packet_in
 .text.stage_get_available
                0x0002f6fc       0x24 mesh/core/libmesh_core_nrf52840_xxAA.a(msqueue.c.obj)
 .text.msq_get  0x0002f720       0x4c mesh/core/libmesh_core_nrf52840_xxAA.a(msqueue.c.obj)
                0x0002f720                msq_get
 .text.msq_move
                0x0002f76c       0x44 mesh/core/libmesh_core_nrf52840_xxAA.a(msqueue.c.obj)
                0x0002f76c                msq_move
 .text.msq_reset
                0x0002f7b0       0x2c mesh/core/libmesh_core_nrf52840_xxAA.a(msqueue.c.obj)
                0x0002f7b0                msq_reset
 .text.msq_init
                0x0002f7dc       0x78 mesh/core/libmesh_core_nrf52840_xxAA.a(msqueue.c.obj)
                0x0002f7dc                msq_init
 .text.msq_available
                0x0002f854       0x3c mesh/core/libmesh_core_nrf52840_xxAA.a(msqueue.c.obj)
                0x0002f854                msq_available
 .text.nrf_mesh_keygen_aid
                0x0002f890       0x12 mesh/core/libmesh_core_nrf52840_xxAA.a(nrf_mesh_keygen.c.obj)
                0x0002f890                nrf_mesh_keygen_aid
 .text.nrf_mesh_keygen_network_secmat
                0x0002f8a2       0x20 mesh/core/libmesh_core_nrf52840_xxAA.a(nrf_mesh_keygen.c.obj)
                0x0002f8a2                nrf_mesh_keygen_network_secmat
 *fill*         0x0002f8c2        0x2 
 .text.nrf_mesh_keygen_beacon_secmat
                0x0002f8c4       0x50 mesh/core/libmesh_core_nrf52840_xxAA.a(nrf_mesh_keygen.c.obj)
                0x0002f8c4                nrf_mesh_keygen_beacon_secmat
 .text.nrf_mesh_keygen_virtual_address
                0x0002f914       0x50 mesh/core/libmesh_core_nrf52840_xxAA.a(nrf_mesh_keygen.c.obj)
                0x0002f914                nrf_mesh_keygen_virtual_address
 .text.list_insert
                0x0002f964       0x28 mesh/core/libmesh_core_nrf52840_xxAA.a(list.c.obj)
 .text.list_add
                0x0002f98c       0x60 mesh/core/libmesh_core_nrf52840_xxAA.a(list.c.obj)
                0x0002f98c                list_add
 .text.list_remove
                0x0002f9ec       0x48 mesh/core/libmesh_core_nrf52840_xxAA.a(list.c.obj)
                0x0002f9ec                list_remove
 .text.list_compare_add
                0x0002fa34       0x80 mesh/core/libmesh_core_nrf52840_xxAA.a(list.c.obj)
                0x0002fa34                list_compare_add
 .text.log_callback_rtt
                0x0002fab4       0x2c mesh/core/libmesh_core_nrf52840_xxAA.a(log.c.obj)
                0x0002fab4                log_callback_rtt
 .text.log_init
                0x0002fae0       0x1c mesh/core/libmesh_core_nrf52840_xxAA.a(log.c.obj)
                0x0002fae0                log_init
 .text.log_vprintf
                0x0002fafc       0x18 mesh/core/libmesh_core_nrf52840_xxAA.a(log.c.obj)
                0x0002fafc                log_vprintf
 .text.log_printf
                0x0002fb14       0x18 mesh/core/libmesh_core_nrf52840_xxAA.a(log.c.obj)
                0x0002fb14                log_printf
 .text.get_area_end
                0x0002fb2c        0xc mesh/core/libmesh_core_nrf52840_xxAA.a(flash_manager.c.obj)
 .text.handle_matches_filter
                0x0002fb38       0x26 mesh/core/libmesh_core_nrf52840_xxAA.a(flash_manager.c.obj)
 *fill*         0x0002fb5e        0x2 
 .text.get_packet_buffer
                0x0002fb60       0x2c mesh/core/libmesh_core_nrf52840_xxAA.a(flash_manager.c.obj)
 .text.get_entry_action
                0x0002fb8c       0x30 mesh/core/libmesh_core_nrf52840_xxAA.a(flash_manager.c.obj)
 .text.flash_area_is_blank
                0x0002fbbc       0x48 mesh/core/libmesh_core_nrf52840_xxAA.a(flash_manager.c.obj)
 .text.flash    0x0002fc04       0x1c mesh/core/libmesh_core_nrf52840_xxAA.a(flash_manager.c.obj)
 .text.free_packet_buffer
                0x0002fc20       0x54 mesh/core/libmesh_core_nrf52840_xxAA.a(flash_manager.c.obj)
 .text.reserve_action_buffer
                0x0002fc74       0x24 mesh/core/libmesh_core_nrf52840_xxAA.a(flash_manager.c.obj)
 .text.commit_action_buffer
                0x0002fc98       0x18 mesh/core/libmesh_core_nrf52840_xxAA.a(flash_manager.c.obj)
 .text.schedule_processing
                0x0002fcb0        0xc mesh/core/libmesh_core_nrf52840_xxAA.a(flash_manager.c.obj)
 .text.get_next_entry
                0x0002fcbc       0x40 mesh/core/libmesh_core_nrf52840_xxAA.a(flash_manager.c.obj)
 .text.get_last_entry.isra.1
                0x0002fcfc       0x30 mesh/core/libmesh_core_nrf52840_xxAA.a(flash_manager.c.obj)
 .text.process_action_queue
                0x0002fd2c      0x4e4 mesh/core/libmesh_core_nrf52840_xxAA.a(flash_manager.c.obj)
 .text.flash_op_ended_callback
                0x00030210       0x24 mesh/core/libmesh_core_nrf52840_xxAA.a(flash_manager.c.obj)
 .text.flash_manager_init
                0x00030234       0x68 mesh/core/libmesh_core_nrf52840_xxAA.a(flash_manager.c.obj)
                0x00030234                flash_manager_init
 .text.flash_manager_remove
                0x0003029c       0x24 mesh/core/libmesh_core_nrf52840_xxAA.a(flash_manager.c.obj)
                0x0003029c                flash_manager_remove
 .text.flash_manager_entry_next_get
                0x000302c0       0x6c mesh/core/libmesh_core_nrf52840_xxAA.a(flash_manager.c.obj)
                0x000302c0                flash_manager_entry_next_get
 .text.flash_manager_entry_alloc
                0x0003032c       0x78 mesh/core/libmesh_core_nrf52840_xxAA.a(flash_manager.c.obj)
                0x0003032c                flash_manager_entry_alloc
 .text.flash_manager_entry_commit
                0x000303a4       0x12 mesh/core/libmesh_core_nrf52840_xxAA.a(flash_manager.c.obj)
                0x000303a4                flash_manager_entry_commit
 *fill*         0x000303b6        0x2 
 .text.flash_manager_entry_invalidate
                0x000303b8       0x64 mesh/core/libmesh_core_nrf52840_xxAA.a(flash_manager.c.obj)
                0x000303b8                flash_manager_entry_invalidate
 .text.flash_manager_add
                0x0003041c      0x248 mesh/core/libmesh_core_nrf52840_xxAA.a(flash_manager.c.obj)
                0x0003041c                flash_manager_add
 .text.flash_manager_mem_listener_register
                0x00030664       0x44 mesh/core/libmesh_core_nrf52840_xxAA.a(flash_manager.c.obj)
                0x00030664                flash_manager_mem_listener_register
 .text.flash_manager_is_stable
                0x000306a8       0x24 mesh/core/libmesh_core_nrf52840_xxAA.a(flash_manager.c.obj)
                0x000306a8                flash_manager_is_stable
 .text.flash_manager_on_defrag_end
                0x000306cc       0x58 mesh/core/libmesh_core_nrf52840_xxAA.a(flash_manager.c.obj)
                0x000306cc                flash_manager_on_defrag_end
 .text.flash_manager_recovery_page_get
                0x00030724        0x4 mesh/core/libmesh_core_nrf52840_xxAA.a(flash_manager.c.obj)
                0x00030724                flash_manager_recovery_page_get
 .text.utils_xor
                0x00030728       0x14 mesh/core/libmesh_core_nrf52840_xxAA.a(ccm_soft.c.obj)
 .text.ccm_soft_authenticate_blocks
                0x0003073c       0x68 mesh/core/libmesh_core_nrf52840_xxAA.a(ccm_soft.c.obj)
 .text.utils_reverse_memcpy.constprop.0
                0x000307a4        0xa mesh/core/libmesh_core_nrf52840_xxAA.a(ccm_soft.c.obj)
 .text.ccm_soft_authenticate
                0x000307ae       0xa0 mesh/core/libmesh_core_nrf52840_xxAA.a(ccm_soft.c.obj)
 .text.ccm_soft_crypt
                0x0003084e       0x6c mesh/core/libmesh_core_nrf52840_xxAA.a(ccm_soft.c.obj)
 .text.ccm_soft_encrypt
                0x000308ba       0x70 mesh/core/libmesh_core_nrf52840_xxAA.a(ccm_soft.c.obj)
                0x000308ba                ccm_soft_encrypt
 .text.ccm_soft_decrypt
                0x0003092a       0xfe mesh/core/libmesh_core_nrf52840_xxAA.a(ccm_soft.c.obj)
                0x0003092a                ccm_soft_decrypt
 .text.beacon_init
                0x00030a28       0x48 mesh/core/libmesh_core_nrf52840_xxAA.a(beacon.c.obj)
                0x00030a28                beacon_init
 .text.beacon_create
                0x00030a70       0x46 mesh/core/libmesh_core_nrf52840_xxAA.a(beacon.c.obj)
                0x00030a70                beacon_create
 *fill*         0x00030ab6        0x2 
 .text.beacon_tx
                0x00030ab8       0x3c mesh/core/libmesh_core_nrf52840_xxAA.a(beacon.c.obj)
                0x00030ab8                beacon_tx
 .text.beacon_packet_in
                0x00030af4      0x160 mesh/core/libmesh_core_nrf52840_xxAA.a(beacon.c.obj)
                0x00030af4                beacon_packet_in
 .text.entry_get
                0x00030c54       0x88 mesh/core/libmesh_core_nrf52840_xxAA.a(flash_manager_internal.c.obj)
                0x00030c54                entry_get
 .text.is_power_of_two
                0x00030cdc        0xe mesh/core/libmesh_core_nrf52840_xxAA.a(core_tx.c.obj)
 *fill*         0x00030cea        0x2 
 .text.bearer_if_get
                0x00030cec       0x44 mesh/core/libmesh_core_nrf52840_xxAA.a(core_tx.c.obj)
 .text.core_tx_complete_cb_set
                0x00030d30        0xc mesh/core/libmesh_core_nrf52840_xxAA.a(core_tx.c.obj)
                0x00030d30                core_tx_complete_cb_set
 .text.core_tx_packet_alloc
                0x00030d3c       0x88 mesh/core/libmesh_core_nrf52840_xxAA.a(core_tx.c.obj)
                0x00030d3c                core_tx_packet_alloc
 .text.core_tx_packet_send
                0x00030dc4       0x80 mesh/core/libmesh_core_nrf52840_xxAA.a(core_tx.c.obj)
                0x00030dc4                core_tx_packet_send
 .text.core_tx_packet_discard
                0x00030e44       0x80 mesh/core/libmesh_core_nrf52840_xxAA.a(core_tx.c.obj)
                0x00030e44                core_tx_packet_discard
 .text.core_tx_complete
                0x00030ec4       0x10 mesh/core/libmesh_core_nrf52840_xxAA.a(core_tx.c.obj)
                0x00030ec4                core_tx_complete
 .text.core_tx_bearer_register
                0x00030ed4       0x84 mesh/core/libmesh_core_nrf52840_xxAA.a(core_tx.c.obj)
                0x00030ed4                core_tx_bearer_register
 .text.heartbeat_subscription_timer_cb
                0x00030f58       0x1c mesh/core/libmesh_core_nrf52840_xxAA.a(heartbeat.c.obj)
 .text.heartbeat_opcode_handle
                0x00030f74       0x78 mesh/core/libmesh_core_nrf52840_xxAA.a(heartbeat.c.obj)
 .text.heartbeat_send
                0x00030fec       0xd0 mesh/core/libmesh_core_nrf52840_xxAA.a(heartbeat.c.obj)
 .text.heartbeat_core_evt_cb
                0x000310bc       0x90 mesh/core/libmesh_core_nrf52840_xxAA.a(heartbeat.c.obj)
 .text.heartbeat_publication_timer_cb
                0x0003114c       0xc8 mesh/core/libmesh_core_nrf52840_xxAA.a(heartbeat.c.obj)
 .text.heartbeat_init
                0x00031214       0x8c mesh/core/libmesh_core_nrf52840_xxAA.a(heartbeat.c.obj)
                0x00031214                heartbeat_init
 .text.make_network_beacon_cmac
                0x000312a0       0x22 mesh/core/libmesh_core_nrf52840_xxAA.a(net_beacon.c.obj)
 *fill*         0x000312c2        0x2 
 .text.network_beacon_tx_cb
                0x000312c4       0xe8 mesh/core/libmesh_core_nrf52840_xxAA.a(net_beacon.c.obj)
 .text.net_beacon_init
                0x000313ac       0x60 mesh/core/libmesh_core_nrf52840_xxAA.a(net_beacon.c.obj)
                0x000313ac                net_beacon_init
 .text.net_beacon_packet_in
                0x0003140c      0x104 mesh/core/libmesh_core_nrf52840_xxAA.a(net_beacon.c.obj)
                0x0003140c                net_beacon_packet_in
 .text.packet_discard
                0x00031510       0x14 mesh/core/libmesh_core_nrf52840_xxAA.a(core_tx_adv.c.obj)
 .text.packet_send
                0x00031524       0x14 mesh/core/libmesh_core_nrf52840_xxAA.a(core_tx_adv.c.obj)
 .text.packet_alloc
                0x00031538       0x3c mesh/core/libmesh_core_nrf52840_xxAA.a(core_tx_adv.c.obj)
 .text.adv_tx_complete_callback
                0x00031574       0x30 mesh/core/libmesh_core_nrf52840_xxAA.a(core_tx_adv.c.obj)
 .text.core_tx_adv_init
                0x000315a4       0x58 mesh/core/libmesh_core_nrf52840_xxAA.a(core_tx_adv.c.obj)
                0x000315a4                core_tx_adv_init
 .text.core_tx_adv_count_get
                0x000315fc       0x28 mesh/core/libmesh_core_nrf52840_xxAA.a(core_tx_adv.c.obj)
                0x000315fc                core_tx_adv_count_get
 .text.core_tx_adv_interval_get
                0x00031624       0x34 mesh/core/libmesh_core_nrf52840_xxAA.a(core_tx_adv.c.obj)
                0x00031624                core_tx_adv_interval_get
 .text.ad_listener_subscribe
                0x00031658       0x5c mesh/core/libmesh_core_nrf52840_xxAA.a(ad_listener.c.obj)
                0x00031658                ad_listener_subscribe
 .text.ad_listener_process
                0x000316b4       0x64 mesh/core/libmesh_core_nrf52840_xxAA.a(ad_listener.c.obj)
                0x000316b4                ad_listener_process
 .text.adtype_filter_handle
                0x00031718       0x64 mesh/core/libmesh_core_nrf52840_xxAA.a(ad_type_filter.c.obj)
 .text.bearer_adtype_filtering_set
                0x0003177c       0x1c mesh/core/libmesh_core_nrf52840_xxAA.a(ad_type_filter.c.obj)
                0x0003177c                bearer_adtype_filtering_set
 .text.bearer_adtype_add
                0x00031798       0x20 mesh/core/libmesh_core_nrf52840_xxAA.a(ad_type_filter.c.obj)
                0x00031798                bearer_adtype_add
 .text.bearer_adtype_mode_set
                0x000317b8       0x24 mesh/core/libmesh_core_nrf52840_xxAA.a(ad_type_filter.c.obj)
                0x000317b8                bearer_adtype_mode_set
 .text.set_gap_addr_type
                0x000317dc       0x34 mesh/core/libmesh_core_nrf52840_xxAA.a(advertiser.c.obj)
 .text.tx_complete_event_callback
                0x00031810       0x3c mesh/core/libmesh_core_nrf52840_xxAA.a(advertiser.c.obj)
 .text.broadcast_complete_cb
                0x0003184c       0x64 mesh/core/libmesh_core_nrf52840_xxAA.a(advertiser.c.obj)
 .text.schedule_first_time
                0x000318b0       0x28 mesh/core/libmesh_core_nrf52840_xxAA.a(advertiser.c.obj)
 .text.timeout_event
                0x000318d8      0x130 mesh/core/libmesh_core_nrf52840_xxAA.a(advertiser.c.obj)
 .text.advertiser_init
                0x00031a08        0xc mesh/core/libmesh_core_nrf52840_xxAA.a(advertiser.c.obj)
                0x00031a08                advertiser_init
 .text.advertiser_enable
                0x00031a14       0x2a mesh/core/libmesh_core_nrf52840_xxAA.a(advertiser.c.obj)
                0x00031a14                advertiser_enable
 .text.advertiser_disable
                0x00031a3e        0xa mesh/core/libmesh_core_nrf52840_xxAA.a(advertiser.c.obj)
                0x00031a3e                advertiser_disable
 .text.advertiser_packet_alloc
                0x00031a48       0x94 mesh/core/libmesh_core_nrf52840_xxAA.a(advertiser.c.obj)
                0x00031a48                advertiser_packet_alloc
 .text.advertiser_packet_send
                0x00031adc       0x78 mesh/core/libmesh_core_nrf52840_xxAA.a(advertiser.c.obj)
                0x00031adc                advertiser_packet_send
 .text.advertiser_packet_discard
                0x00031b54       0x2c mesh/core/libmesh_core_nrf52840_xxAA.a(advertiser.c.obj)
                0x00031b54                advertiser_packet_discard
 .text.advertiser_channels_set
                0x00031b80       0x84 mesh/core/libmesh_core_nrf52840_xxAA.a(advertiser.c.obj)
                0x00031b80                advertiser_channels_set
 .text.advertiser_interval_set
                0x00031c04       0x68 mesh/core/libmesh_core_nrf52840_xxAA.a(advertiser.c.obj)
                0x00031c04                advertiser_interval_set
 .text.advertiser_flush
                0x00031c6c       0x1e mesh/core/libmesh_core_nrf52840_xxAA.a(advertiser.c.obj)
                0x00031c6c                advertiser_flush
 *fill*         0x00031c8a        0x2 
 .text.advertiser_address_default_get
                0x00031c8c       0x38 mesh/core/libmesh_core_nrf52840_xxAA.a(advertiser.c.obj)
                0x00031c8c                advertiser_address_default_get
 .text.advertiser_instance_init
                0x00031cc4       0xbc mesh/core/libmesh_core_nrf52840_xxAA.a(advertiser.c.obj)
                0x00031cc4                advertiser_instance_init
 .text.action_switch
                0x00031d80       0xc0 mesh/core/libmesh_core_nrf52840_xxAA.a(bearer_handler.c.obj)
 .text.bearer_handler_init
                0x00031e40       0x2c mesh/core/libmesh_core_nrf52840_xxAA.a(bearer_handler.c.obj)
                0x00031e40                bearer_handler_init
 .text.bearer_handler_start
                0x00031e6c       0x1c mesh/core/libmesh_core_nrf52840_xxAA.a(bearer_handler.c.obj)
                0x00031e6c                bearer_handler_start
 .text.bearer_handler_stop
                0x00031e88       0x20 mesh/core/libmesh_core_nrf52840_xxAA.a(bearer_handler.c.obj)
                0x00031e88                bearer_handler_stop
 .text.bearer_handler_action_enqueue
                0x00031ea8       0x94 mesh/core/libmesh_core_nrf52840_xxAA.a(bearer_handler.c.obj)
                0x00031ea8                bearer_handler_action_enqueue
 .text.bearer_handler_action_end
                0x00031f3c       0x78 mesh/core/libmesh_core_nrf52840_xxAA.a(bearer_handler.c.obj)
                0x00031f3c                bearer_handler_action_end
 .text.bearer_handler_radio_irq_handler
                0x00031fb4       0x64 mesh/core/libmesh_core_nrf52840_xxAA.a(bearer_handler.c.obj)
                0x00031fb4                bearer_handler_radio_irq_handler
 .text.bearer_handler_timer_irq_handler
                0x00032018       0x30 mesh/core/libmesh_core_nrf52840_xxAA.a(bearer_handler.c.obj)
                0x00032018                bearer_handler_timer_irq_handler
 .text.bearer_handler_on_ts_begin
                0x00032048       0x44 mesh/core/libmesh_core_nrf52840_xxAA.a(bearer_handler.c.obj)
                0x00032048                bearer_handler_on_ts_begin
 .text.bearer_handler_on_ts_end
                0x0003208c       0x48 mesh/core/libmesh_core_nrf52840_xxAA.a(bearer_handler.c.obj)
                0x0003208c                bearer_handler_on_ts_end
 .text.radio_irq_handler
                0x000320d4       0xb0 mesh/core/libmesh_core_nrf52840_xxAA.a(broadcast.c.obj)
 .text.broadcast_start
                0x00032184       0x8c mesh/core/libmesh_core_nrf52840_xxAA.a(broadcast.c.obj)
 .text.broadcast_send
                0x00032210       0x80 mesh/core/libmesh_core_nrf52840_xxAA.a(broadcast.c.obj)
                0x00032210                broadcast_send
 .text.fen_filter_start
                0x00032290       0x3c mesh/core/libmesh_core_nrf52840_xxAA.a(filter_engine.c.obj)
                0x00032290                fen_filter_start
 .text.fen_filter_stop
                0x000322cc       0x2c mesh/core/libmesh_core_nrf52840_xxAA.a(filter_engine.c.obj)
                0x000322cc                fen_filter_stop
 .text.fen_filters_apply
                0x000322f8       0x34 mesh/core/libmesh_core_nrf52840_xxAA.a(filter_engine.c.obj)
                0x000322f8                fen_filters_apply
 .text.radio_config_reset
                0x0003232c       0x34 mesh/core/libmesh_core_nrf52840_xxAA.a(radio_config.c.obj)
                0x0003232c                radio_config_reset
 .text.radio_config_channel_set
                0x00032360       0x34 mesh/core/libmesh_core_nrf52840_xxAA.a(radio_config.c.obj)
                0x00032360                radio_config_channel_set
 .text.radio_config_config
                0x00032394       0xa4 mesh/core/libmesh_core_nrf52840_xxAA.a(radio_config.c.obj)
                0x00032394                radio_config_config
 .text.radio_config_access_addr_set
                0x00032438       0x68 mesh/core/libmesh_core_nrf52840_xxAA.a(radio_config.c.obj)
                0x00032438                radio_config_access_addr_set
 .text.radio_trigger
                0x000324a0       0x24 mesh/core/libmesh_core_nrf52840_xxAA.a(scanner.c.obj)
 .text.scan_window_end
                0x000324c4       0x10 mesh/core/libmesh_core_nrf52840_xxAA.a(scanner.c.obj)
 .text.scan_window_start
                0x000324d4       0x24 mesh/core/libmesh_core_nrf52840_xxAA.a(scanner.c.obj)
 .text.radio_configure
                0x000324f8       0x78 mesh/core/libmesh_core_nrf52840_xxAA.a(scanner.c.obj)
 .text.radio_set_packet
                0x00032570       0x50 mesh/core/libmesh_core_nrf52840_xxAA.a(scanner.c.obj)
 .text.radio_start
                0x000325c0       0x4c mesh/core/libmesh_core_nrf52840_xxAA.a(scanner.c.obj)
 .text.radio_stop
                0x0003260c       0x30 mesh/core/libmesh_core_nrf52840_xxAA.a(scanner.c.obj)
 .text.schedule_timers
                0x0003263c       0x38 mesh/core/libmesh_core_nrf52840_xxAA.a(scanner.c.obj)
 .text.scanner_radio_start
                0x00032674       0x28 mesh/core/libmesh_core_nrf52840_xxAA.a(scanner.c.obj)
                0x00032674                scanner_radio_start
 .text.scanner_radio_stop
                0x0003269c       0x10 mesh/core/libmesh_core_nrf52840_xxAA.a(scanner.c.obj)
                0x0003269c                scanner_radio_stop
 .text.scanner_radio_irq_handler
                0x000326ac      0x13c mesh/core/libmesh_core_nrf52840_xxAA.a(scanner.c.obj)
                0x000326ac                scanner_radio_irq_handler
 .text.scanner_enable
                0x000327e8       0x30 mesh/core/libmesh_core_nrf52840_xxAA.a(scanner.c.obj)
                0x000327e8                scanner_enable
 .text.scanner_disable
                0x00032818       0x48 mesh/core/libmesh_core_nrf52840_xxAA.a(scanner.c.obj)
                0x00032818                scanner_disable
 .text.scanner_packet_release
                0x00032860       0x38 mesh/core/libmesh_core_nrf52840_xxAA.a(scanner.c.obj)
                0x00032860                scanner_packet_release
 .text.scanner_rx
                0x00032898       0x30 mesh/core/libmesh_core_nrf52840_xxAA.a(scanner.c.obj)
                0x00032898                scanner_rx
 .text.scanner_rx_pending
                0x000328c8        0xc mesh/core/libmesh_core_nrf52840_xxAA.a(scanner.c.obj)
                0x000328c8                scanner_rx_pending
 .text.scanner_config_scan_time_set
                0x000328d4       0x68 mesh/core/libmesh_core_nrf52840_xxAA.a(scanner.c.obj)
                0x000328d4                scanner_config_scan_time_set
 .text.scanner_config_channels_set
                0x0003293c       0x64 mesh/core/libmesh_core_nrf52840_xxAA.a(scanner.c.obj)
                0x0003293c                scanner_config_channels_set
 .text.scanner_config_access_addresses_set
                0x000329a0       0x44 mesh/core/libmesh_core_nrf52840_xxAA.a(scanner.c.obj)
                0x000329a0                scanner_config_access_addresses_set
 .text.scanner_config_reset
                0x000329e4       0x50 mesh/core/libmesh_core_nrf52840_xxAA.a(scanner.c.obj)
                0x000329e4                scanner_config_reset
 .text.scanner_init
                0x00032a34       0x54 mesh/core/libmesh_core_nrf52840_xxAA.a(scanner.c.obj)
                0x00032a34                scanner_init
 .text.sd_ecb_block_encrypt
                0x00032a88        0x4 mesh/core/libmesh_core_nrf52840_xxAA.a(aes.c.obj)
 .text.aes_encrypt
                0x00032a8c       0x32 mesh/core/libmesh_core_nrf52840_xxAA.a(aes.c.obj)
                0x00032a8c                aes_encrypt
 *fill*         0x00032abe        0x2 
 .text.msg_cache_init
                0x00032ac0       0x24 mesh/core/libmesh_core_nrf52840_xxAA.a(msg_cache.c.obj)
                0x00032ac0                msg_cache_init
 .text.msg_cache_entry_exists
                0x00032ae4       0x3c mesh/core/libmesh_core_nrf52840_xxAA.a(msg_cache.c.obj)
                0x00032ae4                msg_cache_entry_exists
 .text.msg_cache_entry_add
                0x00032b20       0x2c mesh/core/libmesh_core_nrf52840_xxAA.a(msg_cache.c.obj)
                0x00032b20                msg_cache_entry_add
 .text.block_ack_full
                0x00032b4c       0x28 mesh/core/libmesh_core_nrf52840_xxAA.a(transport.c.obj)
 .text.seqauth_sequence_number_get
                0x00032b74       0x12 mesh/core/libmesh_core_nrf52840_xxAA.a(transport.c.obj)
 *fill*         0x00032b86        0x2 
 .text.sar_rx_session_mark_as_handled
                0x00032b88       0x54 mesh/core/libmesh_core_nrf52840_xxAA.a(transport.c.obj)
 .text.sar_ctx_find
                0x00032bdc       0x3c mesh/core/libmesh_core_nrf52840_xxAA.a(transport.c.obj)
 .text.control_packet_callback_get
                0x00032c18       0x44 mesh/core/libmesh_core_nrf52840_xxAA.a(transport.c.obj)
 .text.m_send_sar_cancel_event
                0x00032c5c       0x28 mesh/core/libmesh_core_nrf52840_xxAA.a(transport.c.obj)
 .text.tx_complete
                0x00032c84       0x34 mesh/core/libmesh_core_nrf52840_xxAA.a(transport.c.obj)
 .text.upper_trs_packet_encrypt
                0x00032cb8       0xbc mesh/core/libmesh_core_nrf52840_xxAA.a(transport.c.obj)
 .text.sar_ctx_free
                0x00032d74       0x3c mesh/core/libmesh_core_nrf52840_xxAA.a(transport.c.obj)
 .text.sar_ctx_tx_complete
                0x00032db0       0xb8 mesh/core/libmesh_core_nrf52840_xxAA.a(transport.c.obj)
 .text.sar_ctx_cancel
                0x00032e68      0x108 mesh/core/libmesh_core_nrf52840_xxAA.a(transport.c.obj)
 .text.abort_timeout
                0x00032f70        0x8 mesh/core/libmesh_core_nrf52840_xxAA.a(transport.c.obj)
 .text.sar_ctx_alloc
                0x00032f78       0xbc mesh/core/libmesh_core_nrf52840_xxAA.a(transport.c.obj)
 .text.test_transport_decrypt
                0x00033034       0x88 mesh/core/libmesh_core_nrf52840_xxAA.a(transport.c.obj)
 .text.upper_transport_access_packet_in
                0x000330bc      0x28c mesh/core/libmesh_core_nrf52840_xxAA.a(transport.c.obj)
 .text.trs_packet_header_build
                0x00033348       0xa6 mesh/core/libmesh_core_nrf52840_xxAA.a(transport.c.obj)
 *fill*         0x000333ee        0x2 
 .text.tx_retry_timer_reset
                0x000333f0       0x50 mesh/core/libmesh_core_nrf52840_xxAA.a(transport.c.obj)
 .text.trs_sar_packet_out
                0x00033440       0xec mesh/core/libmesh_core_nrf52840_xxAA.a(transport.c.obj)
 .text.retry_timeout
                0x0003352c       0x54 mesh/core/libmesh_core_nrf52840_xxAA.a(transport.c.obj)
 .text.upper_transport_packet_in
                0x00033580      0x1b0 mesh/core/libmesh_core_nrf52840_xxAA.a(transport.c.obj)
 .text.upper_transport_tx
                0x00033730      0x230 mesh/core/libmesh_core_nrf52840_xxAA.a(transport.c.obj)
 .text.transport_sar_mem_funcs_reset
                0x00033960       0x28 mesh/core/libmesh_core_nrf52840_xxAA.a(transport.c.obj)
                0x00033960                transport_sar_mem_funcs_reset
 .text.transport_init
                0x00033988       0x7c mesh/core/libmesh_core_nrf52840_xxAA.a(transport.c.obj)
                0x00033988                transport_init
 .text.transport_tx
                0x00033a04       0xa4 mesh/core/libmesh_core_nrf52840_xxAA.a(transport.c.obj)
                0x00033a04                transport_tx
 .text.transport_control_tx
                0x00033aa8       0x8e mesh/core/libmesh_core_nrf52840_xxAA.a(transport.c.obj)
                0x00033aa8                transport_control_tx
 *fill*         0x00033b36        0x2 
 .text.sar_ack_send
                0x00033b38      0x124 mesh/core/libmesh_core_nrf52840_xxAA.a(transport.c.obj)
 .text.transport_sar_process
                0x00033c5c       0x74 mesh/core/libmesh_core_nrf52840_xxAA.a(transport.c.obj)
 .text.transport_packet_in
                0x00033cd0      0x524 mesh/core/libmesh_core_nrf52840_xxAA.a(transport.c.obj)
                0x00033cd0                transport_packet_in
 .text.ack_timeout
                0x000341f4       0x34 mesh/core/libmesh_core_nrf52840_xxAA.a(transport.c.obj)
 .text.transport_opt_get
                0x00034228       0x68 mesh/core/libmesh_core_nrf52840_xxAA.a(transport.c.obj)
                0x00034228                transport_opt_get
 .text.transport_control_packet_consumer_add
                0x00034290       0x5c mesh/core/libmesh_core_nrf52840_xxAA.a(transport.c.obj)
                0x00034290                transport_control_packet_consumer_add
 .text.get_last_page
                0x000342ec       0x14 mesh/core/libmesh_core_nrf52840_xxAA.a(flash_manager_defrag.c.obj)
 .text.defrag_on_end
                0x00034300       0x1c mesh/core/libmesh_core_nrf52840_xxAA.a(flash_manager_defrag.c.obj)
 .text.execute_procedure_step
                0x0003431c       0xa0 mesh/core/libmesh_core_nrf52840_xxAA.a(flash_manager_defrag.c.obj)
 .text.get_next_entry
                0x000343bc       0x40 mesh/core/libmesh_core_nrf52840_xxAA.a(flash_manager_defrag.c.obj)
 .text.get_next_data_entry
                0x000343fc       0x20 mesh/core/libmesh_core_nrf52840_xxAA.a(flash_manager_defrag.c.obj)
 .text.on_flash_op_end
                0x0003441c       0x30 mesh/core/libmesh_core_nrf52840_xxAA.a(flash_manager_defrag.c.obj)
 .text.check_for_invalid_entries
                0x0003444c       0x38 mesh/core/libmesh_core_nrf52840_xxAA.a(flash_manager_defrag.c.obj)
 .text.erase_recovery_area
                0x00034484       0x34 mesh/core/libmesh_core_nrf52840_xxAA.a(flash_manager_defrag.c.obj)
 .text.flash.constprop.6
                0x000344b8       0x24 mesh/core/libmesh_core_nrf52840_xxAA.a(flash_manager_defrag.c.obj)
 .text.seal_storage_page
                0x000344dc       0x50 mesh/core/libmesh_core_nrf52840_xxAA.a(flash_manager_defrag.c.obj)
 .text.invalidate_duplicate_entries
                0x0003452c       0x9c mesh/core/libmesh_core_nrf52840_xxAA.a(flash_manager_defrag.c.obj)
 .text.copy_metadata
                0x000345c8       0x3c mesh/core/libmesh_core_nrf52840_xxAA.a(flash_manager_defrag.c.obj)
 .text.write_defrag_start_pointer
                0x00034604       0x20 mesh/core/libmesh_core_nrf52840_xxAA.a(flash_manager_defrag.c.obj)
 .text.write_back
                0x00034624       0x28 mesh/core/libmesh_core_nrf52840_xxAA.a(flash_manager_defrag.c.obj)
 .text.post_process
                0x0003464c       0x40 mesh/core/libmesh_core_nrf52840_xxAA.a(flash_manager_defrag.c.obj)
 .text.backup_entries
                0x0003468c      0x118 mesh/core/libmesh_core_nrf52840_xxAA.a(flash_manager_defrag.c.obj)
 .text.erase_source
                0x000347a4       0x34 mesh/core/libmesh_core_nrf52840_xxAA.a(flash_manager_defrag.c.obj)
 .text.flash_manager_defrag_init
                0x000347d8       0x98 mesh/core/libmesh_core_nrf52840_xxAA.a(flash_manager_defrag.c.obj)
                0x000347d8                flash_manager_defrag_init
 .text.flash_manager_defrag_is_running
                0x00034870       0x10 mesh/core/libmesh_core_nrf52840_xxAA.a(flash_manager_defrag.c.obj)
                0x00034870                flash_manager_defrag_is_running
 .text.flash_manager_defrag
                0x00034880       0xd8 mesh/core/libmesh_core_nrf52840_xxAA.a(flash_manager_defrag.c.obj)
                0x00034880                flash_manager_defrag
 .text.flash_manager_defrag_recovery_page_get
                0x00034958        0xc mesh/core/libmesh_core_nrf52840_xxAA.a(flash_manager_defrag.c.obj)
                0x00034958                flash_manager_defrag_recovery_page_get
 .text.wait_for_ready
                0x00034964       0x10 mesh/core/libmesh_core_nrf52840_xxAA.a(nrf_flash.c.obj)
 .text.nrf_flash_erase
                0x00034974       0x50 mesh/core/libmesh_core_nrf52840_xxAA.a(nrf_flash.c.obj)
                0x00034974                nrf_flash_erase
 .text.nrf_flash_write
                0x000349c4       0x50 mesh/core/libmesh_core_nrf52840_xxAA.a(nrf_flash.c.obj)
                0x000349c4                nrf_flash_write
 .text.packet_mgr_init
                0x00034a14       0x4c mesh/core/libmesh_core_nrf52840_xxAA.a(packet_mgr.c.obj)
                0x00034a14                packet_mgr_init
 .text.queue_init
                0x00034a60       0x20 mesh/core/libmesh_core_nrf52840_xxAA.a(queue.c.obj)
                0x00034a60                queue_init
 .text.queue_push
                0x00034a80       0x48 mesh/core/libmesh_core_nrf52840_xxAA.a(queue.c.obj)
                0x00034a80                queue_push
 .text.queue_pop
                0x00034ac8       0x34 mesh/core/libmesh_core_nrf52840_xxAA.a(queue.c.obj)
                0x00034ac8                queue_pop
 .text.queue_peek
                0x00034afc       0x1c mesh/core/libmesh_core_nrf52840_xxAA.a(queue.c.obj)
                0x00034afc                queue_peek
 .text.my_xor.constprop.1
                0x00034b18       0x20 mesh/core/libmesh_core_nrf52840_xxAA.a(aes_cmac.c.obj)
 .text.utils_lshift.constprop.2
                0x00034b38       0x24 mesh/core/libmesh_core_nrf52840_xxAA.a(aes_cmac.c.obj)
 .text.aes_cmac_subkey_generate
                0x00034b5c       0x6c mesh/core/libmesh_core_nrf52840_xxAA.a(aes_cmac.c.obj)
                0x00034b5c                aes_cmac_subkey_generate
 .text.aes_cmac
                0x00034bc8       0xbc mesh/core/libmesh_core_nrf52840_xxAA.a(aes_cmac.c.obj)
                0x00034bc8                aes_cmac
 .text.nrf_mesh_opt_get
                0x00034c84       0x26 mesh/core/libmesh_core_nrf52840_xxAA.a(nrf_mesh_opt.c.obj)
                0x00034c84                nrf_mesh_opt_get
 *fill*         0x00034caa        0x2 
 .text.replay_cache_add
                0x00034cac       0x60 mesh/core/libmesh_core_nrf52840_xxAA.a(replay_cache.c.obj)
                0x00034cac                replay_cache_add
 .text.replay_cache_has_room
                0x00034d0c       0x38 mesh/core/libmesh_core_nrf52840_xxAA.a(replay_cache.c.obj)
                0x00034d0c                replay_cache_has_room
 .text.replay_cache_has_elem
                0x00034d44       0x38 mesh/core/libmesh_core_nrf52840_xxAA.a(replay_cache.c.obj)
                0x00034d44                replay_cache_has_elem
 .text.replay_cache_clear
                0x00034d7c       0x28 mesh/core/libmesh_core_nrf52840_xxAA.a(replay_cache.c.obj)
                0x00034d7c                replay_cache_clear
 .text.replay_cache_init
                0x00034da4        0x4 mesh/core/libmesh_core_nrf52840_xxAA.a(replay_cache.c.obj)
                0x00034da4                replay_cache_init
 .text._GetAvailWriteSpace
                0x00034da8       0x1c external/rtt/librtt_nrf52840_xxAA.a(SEGGER_RTT.c.obj)
 .text._WriteNoCheck
                0x00034dc4       0x3c external/rtt/librtt_nrf52840_xxAA.a(SEGGER_RTT.c.obj)
 .text._WriteBlocking
                0x00034e00       0x52 external/rtt/librtt_nrf52840_xxAA.a(SEGGER_RTT.c.obj)
 *fill*         0x00034e52        0x2 
 .text._DoInit  0x00034e54       0x60 external/rtt/librtt_nrf52840_xxAA.a(SEGGER_RTT.c.obj)
 .text.SEGGER_RTT_WriteNoLock
                0x00034eb4       0x68 external/rtt/librtt_nrf52840_xxAA.a(SEGGER_RTT.c.obj)
                0x00034eb4                SEGGER_RTT_WriteNoLock
 .text.SEGGER_RTT_Write
                0x00034f1c       0x34 external/rtt/librtt_nrf52840_xxAA.a(SEGGER_RTT.c.obj)
                0x00034f1c                SEGGER_RTT_Write
 .text._StoreChar
                0x00034f50       0x3e external/rtt/librtt_nrf52840_xxAA.a(SEGGER_RTT_printf.c.obj)
 *fill*         0x00034f8e        0x2 
 .text._PrintUnsigned
                0x00034f90       0xd0 external/rtt/librtt_nrf52840_xxAA.a(SEGGER_RTT_printf.c.obj)
 .text.SEGGER_RTT_vprintf
                0x00035060      0x246 external/rtt/librtt_nrf52840_xxAA.a(SEGGER_RTT_printf.c.obj)
                0x00035060                SEGGER_RTT_vprintf
 .text.SEGGER_RTT_printf
                0x000352a6       0x1e external/rtt/librtt_nrf52840_xxAA.a(SEGGER_RTT_printf.c.obj)
                0x000352a6                SEGGER_RTT_printf
 .text.uECC_vli_mult
                0x000352c4       0x64 external/micro-ecc/libuECC_nrf52840_xxAA.a(uECC.c.obj)
 .text.uECC_vli_clear
                0x00035328       0x16 external/micro-ecc/libuECC_nrf52840_xxAA.a(uECC.c.obj)
 .text.uECC_vli_isZero
                0x0003533e       0x1e external/micro-ecc/libuECC_nrf52840_xxAA.a(uECC.c.obj)
 .text.uECC_vli_testBit
                0x0003535c       0x14 external/micro-ecc/libuECC_nrf52840_xxAA.a(uECC.c.obj)
 .text.uECC_vli_numBits
                0x00035370       0x3a external/micro-ecc/libuECC_nrf52840_xxAA.a(uECC.c.obj)
 .text.uECC_vli_set
                0x000353aa       0x18 external/micro-ecc/libuECC_nrf52840_xxAA.a(uECC.c.obj)
 .text.uECC_vli_cmp_unsafe
                0x000353c2       0x28 external/micro-ecc/libuECC_nrf52840_xxAA.a(uECC.c.obj)
 .text.uECC_vli_rshift1
                0x000353ea       0x1c external/micro-ecc/libuECC_nrf52840_xxAA.a(uECC.c.obj)
 .text.uECC_vli_modMult_fast
                0x00035406       0x20 external/micro-ecc/libuECC_nrf52840_xxAA.a(uECC.c.obj)
 .text.uECC_vli_modSquare_fast
                0x00035426        0x8 external/micro-ecc/libuECC_nrf52840_xxAA.a(uECC.c.obj)
 .text.apply_z  0x0003542e       0x3e external/micro-ecc/libuECC_nrf52840_xxAA.a(uECC.c.obj)
 .text.uECC_vli_nativeToBytes
                0x0003546c       0x28 external/micro-ecc/libuECC_nrf52840_xxAA.a(uECC.c.obj)
 .text.uECC_vli_bytesToNative
                0x00035494       0x40 external/micro-ecc/libuECC_nrf52840_xxAA.a(uECC.c.obj)
 .text.default_RNG
                0x000354d4        0xc external/micro-ecc/libuECC_nrf52840_xxAA.a(uECC.c.obj)
 .text.uECC_vli_add.isra.0
                0x000354e0       0x4a external/micro-ecc/libuECC_nrf52840_xxAA.a(uECC.c.obj)
 .text.regularize_k
                0x0003552a       0x50 external/micro-ecc/libuECC_nrf52840_xxAA.a(uECC.c.obj)
 .text.uECC_vli_sub.isra.1
                0x0003557a       0x4e external/micro-ecc/libuECC_nrf52840_xxAA.a(uECC.c.obj)
 .text.uECC_vli_cmp
                0x000355c8       0x30 external/micro-ecc/libuECC_nrf52840_xxAA.a(uECC.c.obj)
 .text.uECC_generate_random_int
                0x000355f8       0x78 external/micro-ecc/libuECC_nrf52840_xxAA.a(uECC.c.obj)
 .text.uECC_vli_modAdd
                0x00035670       0x2e external/micro-ecc/libuECC_nrf52840_xxAA.a(uECC.c.obj)
 *fill*         0x0003569e        0x2 
 .text.vli_mmod_fast_secp256r1
                0x000356a0      0x194 external/micro-ecc/libuECC_nrf52840_xxAA.a(uECC.c.obj)
 .text.uECC_vli_modSub.isra.2
                0x00035834       0x1c external/micro-ecc/libuECC_nrf52840_xxAA.a(uECC.c.obj)
 .text.double_jacobian_default
                0x00035850      0x14a external/micro-ecc/libuECC_nrf52840_xxAA.a(uECC.c.obj)
 .text.x_side_default
                0x0003599a       0x5a external/micro-ecc/libuECC_nrf52840_xxAA.a(uECC.c.obj)
 .text.XYcZ_add
                0x000359f4       0xbc external/micro-ecc/libuECC_nrf52840_xxAA.a(uECC.c.obj)
 .text.XYcZ_addC
                0x00035ab0      0x10a external/micro-ecc/libuECC_nrf52840_xxAA.a(uECC.c.obj)
 .text.vli_modInv_update
                0x00035bba       0x36 external/micro-ecc/libuECC_nrf52840_xxAA.a(uECC.c.obj)
 .text.uECC_vli_modInv
                0x00035bf0      0x102 external/micro-ecc/libuECC_nrf52840_xxAA.a(uECC.c.obj)
 .text.EccPoint_mult
                0x00035cf2      0x19e external/micro-ecc/libuECC_nrf52840_xxAA.a(uECC.c.obj)
 .text.EccPoint_compute_public_key
                0x00035e90       0x54 external/micro-ecc/libuECC_nrf52840_xxAA.a(uECC.c.obj)
 .text.uECC_secp256r1
                0x00035ee4        0x8 external/micro-ecc/libuECC_nrf52840_xxAA.a(uECC.c.obj)
                0x00035ee4                uECC_secp256r1
 .text.uECC_make_key
                0x00035eec       0x7e external/micro-ecc/libuECC_nrf52840_xxAA.a(uECC.c.obj)
                0x00035eec                uECC_make_key
 *fill*         0x00035f6a        0x2 
 .text.uECC_shared_secret
                0x00035f6c       0xbc external/micro-ecc/libuECC_nrf52840_xxAA.a(uECC.c.obj)
                0x00035f6c                uECC_shared_secret
 .text.uECC_valid_point
                0x00036028       0x86 external/micro-ecc/libuECC_nrf52840_xxAA.a(uECC.c.obj)
                0x00036028                uECC_valid_point
 .text.uECC_valid_public_key
                0x000360ae       0x32 external/micro-ecc/libuECC_nrf52840_xxAA.a(uECC.c.obj)
                0x000360ae                uECC_valid_public_key
 .text.exit     0x000360e0       0x28 c:/a/gcc_arm/6/bin/../lib/gcc/arm-none-eabi/6.3.1/../../../../arm-none-eabi/lib/thumb/v7e-m/fpv4-sp/hard\libg_nano.a(lib_a-exit.o)
                0x000360e0                exit
 .text.__libc_init_array
                0x00036108       0x48 c:/a/gcc_arm/6/bin/../lib/gcc/arm-none-eabi/6.3.1/../../../../arm-none-eabi/lib/thumb/v7e-m/fpv4-sp/hard\libg_nano.a(lib_a-init.o)
                0x00036108                __libc_init_array
 .text.malloc   0x00036150       0x10 c:/a/gcc_arm/6/bin/../lib/gcc/arm-none-eabi/6.3.1/../../../../arm-none-eabi/lib/thumb/v7e-m/fpv4-sp/hard\libg_nano.a(lib_a-malloc.o)
                0x00036150                malloc
 .text.free     0x00036160       0x10 c:/a/gcc_arm/6/bin/../lib/gcc/arm-none-eabi/6.3.1/../../../../arm-none-eabi/lib/thumb/v7e-m/fpv4-sp/hard\libg_nano.a(lib_a-malloc.o)
                0x00036160                free
 .text.memcmp   0x00036170       0x1e c:/a/gcc_arm/6/bin/../lib/gcc/arm-none-eabi/6.3.1/../../../../arm-none-eabi/lib/thumb/v7e-m/fpv4-sp/hard\libg_nano.a(lib_a-memcmp.o)
                0x00036170                memcmp
 .text.memcpy   0x0003618e       0x16 c:/a/gcc_arm/6/bin/../lib/gcc/arm-none-eabi/6.3.1/../../../../arm-none-eabi/lib/thumb/v7e-m/fpv4-sp/hard\libg_nano.a(lib_a-memcpy-stub.o)
                0x0003618e                memcpy
 .text.memset   0x000361a4       0x10 c:/a/gcc_arm/6/bin/../lib/gcc/arm-none-eabi/6.3.1/../../../../arm-none-eabi/lib/thumb/v7e-m/fpv4-sp/hard\libg_nano.a(lib_a-memset.o)
                0x000361a4                memset
 .text._free_r  0x000361b4       0x9c c:/a/gcc_arm/6/bin/../lib/gcc/arm-none-eabi/6.3.1/../../../../arm-none-eabi/lib/thumb/v7e-m/fpv4-sp/hard\libg_nano.a(lib_a-nano-freer.o)
                0x000361b4                _free_r
 .text._malloc_r
                0x00036250       0xbc c:/a/gcc_arm/6/bin/../lib/gcc/arm-none-eabi/6.3.1/../../../../arm-none-eabi/lib/thumb/v7e-m/fpv4-sp/hard\libg_nano.a(lib_a-nano-mallocr.o)
                0x00036250                _malloc_r
 .text._sbrk_r  0x0003630c       0x20 c:/a/gcc_arm/6/bin/../lib/gcc/arm-none-eabi/6.3.1/../../../../arm-none-eabi/lib/thumb/v7e-m/fpv4-sp/hard\libg_nano.a(lib_a-sbrkr.o)
                0x0003630c                _sbrk_r
 .text.strcpy   0x0003632c       0x10 c:/a/gcc_arm/6/bin/../lib/gcc/arm-none-eabi/6.3.1/../../../../arm-none-eabi/lib/thumb/v7e-m/fpv4-sp/hard\libg_nano.a(lib_a-strcpy.o)
                0x0003632c                strcpy
 .text          0x0003633c       0x10 c:/a/gcc_arm/6/bin/../lib/gcc/arm-none-eabi/6.3.1/../../../../arm-none-eabi/lib/thumb/v7e-m/fpv4-sp/hard\libg_nano.a(lib_a-strlen.o)
                0x0003633c                strlen
 .text.strrchr  0x0003634c       0x26 c:/a/gcc_arm/6/bin/../lib/gcc/arm-none-eabi/6.3.1/../../../../arm-none-eabi/lib/thumb/v7e-m/fpv4-sp/hard\libg_nano.a(lib_a-strrchr.o)
                0x0003634c                strrchr
 .text.__malloc_lock
                0x00036372        0x2 c:/a/gcc_arm/6/bin/../lib/gcc/arm-none-eabi/6.3.1/../../../../arm-none-eabi/lib/thumb/v7e-m/fpv4-sp/hard\libg_nano.a(lib_a-mlock.o)
                0x00036372                __malloc_lock
 .text.__malloc_unlock
                0x00036374        0x2 c:/a/gcc_arm/6/bin/../lib/gcc/arm-none-eabi/6.3.1/../../../../arm-none-eabi/lib/thumb/v7e-m/fpv4-sp/hard\libg_nano.a(lib_a-mlock.o)
                0x00036374                __malloc_unlock
 .text.strchr   0x00036376       0x1c c:/a/gcc_arm/6/bin/../lib/gcc/arm-none-eabi/6.3.1/../../../../arm-none-eabi/lib/thumb/v7e-m/fpv4-sp/hard\libg_nano.a(lib_a-strchr.o)
                0x00036376                strchr
 *fill*         0x00036392        0x2 
 .text._sbrk    0x00036394       0x1c c:/a/gcc_arm/6/bin/../lib/gcc/arm-none-eabi/6.3.1/../../../../arm-none-eabi/lib/thumb/v7e-m/fpv4-sp/hard\libnosys.a(sbrk.o)
                0x00036394                _sbrk
 .text._exit    0x000363b0        0x4 c:/a/gcc_arm/6/bin/../lib/gcc/arm-none-eabi/6.3.1/../../../../arm-none-eabi/lib/thumb/v7e-m/fpv4-sp/hard\libnosys.a(_exit.o)
                0x000363b0                _exit
 *(.init)
 .init          0x000363b4        0x4 c:/a/gcc_arm/6/bin/../lib/gcc/arm-none-eabi/6.3.1/thumb/v7e-m/fpv4-sp/hard/crti.o
                0x000363b4                _init
 .init          0x000363b8        0x8 c:/a/gcc_arm/6/bin/../lib/gcc/arm-none-eabi/6.3.1/thumb/v7e-m/fpv4-sp/hard/crtn.o
 *(.fini)
 .fini          0x000363c0        0x4 c:/a/gcc_arm/6/bin/../lib/gcc/arm-none-eabi/6.3.1/thumb/v7e-m/fpv4-sp/hard/crti.o
                0x000363c0                _fini
 .fini          0x000363c4        0x8 c:/a/gcc_arm/6/bin/../lib/gcc/arm-none-eabi/6.3.1/thumb/v7e-m/fpv4-sp/hard/crtn.o
 *crtbegin.o(.ctors)
 *crtbegin?.o(.ctors)
 *(EXCLUDE_FILE(*crtend.o *crtend?.o) .ctors)
 *(SORT(.ctors.*))
 *(.ctors)
 *crtbegin.o(.dtors)
 *crtbegin?.o(.dtors)
 *(EXCLUDE_FILE(*crtend.o *crtend?.o) .dtors)
 *(SORT(.dtors.*))
 *(.dtors)
 *(.rodata*)
 .rodata.main.str1.1
                0x000363cc       0x9d examples/dfu/CMakeFiles/dfu_nrf52840_xxAA_s140_5.0.0-3.alpha.dir/src/main.c.obj
 .rodata.mesh_evt_handler.str1.1
                0x00036469       0x1b examples/dfu/CMakeFiles/dfu_nrf52840_xxAA_s140_5.0.0-3.alpha.dir/src/main.c.obj
 .rodata.HardFault_Handler.str1.1
                0x00036484        0xe examples/dfu/CMakeFiles/dfu_nrf52840_xxAA_s140_5.0.0-3.alpha.dir/__/nrf_mesh_sdk.c.obj
 .rodata.app_error_handler.str1.1
                0x00036492       0x1d examples/dfu/CMakeFiles/dfu_nrf52840_xxAA_s140_5.0.0-3.alpha.dir/__/nrf_mesh_sdk.c.obj
 .rodata.mesh_assert_handler.str1.1
                0x000364af       0x34 examples/dfu/CMakeFiles/dfu_nrf52840_xxAA_s140_5.0.0-3.alpha.dir/__/nrf_mesh_sdk.c.obj
 .rodata.mesh_core_setup.str1.1
                0x000364e3       0x47 examples/dfu/CMakeFiles/dfu_nrf52840_xxAA_s140_5.0.0-3.alpha.dir/__/nrf_mesh_sdk.c.obj
 .rodata.mesh_softdevice_enable.str1.1
                0x0003652a       0x65 examples/dfu/CMakeFiles/dfu_nrf52840_xxAA_s140_5.0.0-3.alpha.dir/__/nrf_mesh_sdk.c.obj
 .rodata.softdevice_assert_handler.str1.1
                0x0003658f       0x1d examples/dfu/CMakeFiles/dfu_nrf52840_xxAA_s140_5.0.0-3.alpha.dir/__/nrf_mesh_sdk.c.obj
 .rodata.m_flash_groups
                0x000365ac       0xa8 examples/dfu/CMakeFiles/dfu_nrf52840_xxAA_s140_5.0.0-3.alpha.dir/__/__/mesh/access/src/device_state_manager.c.obj
 .rodata.m_cmd_handlers
                0x00036654       0xb0 examples/dfu/CMakeFiles/dfu_nrf52840_xxAA_s140_5.0.0-3.alpha.dir/__/__/mesh/serial/src/serial_handler_access.c.obj
 .rodata.m_cmd_handlers
                0x00036704       0x48 examples/dfu/CMakeFiles/dfu_nrf52840_xxAA_s140_5.0.0-3.alpha.dir/__/__/mesh/serial/src/serial.c.obj
 .rodata.serial_process_cmd.str1.1
                0x0003674c       0x17 examples/dfu/CMakeFiles/dfu_nrf52840_xxAA_s140_5.0.0-3.alpha.dir/__/__/mesh/serial/src/serial.c.obj
 .rodata.serial_start.str1.1
                0x00036763       0x63 examples/dfu/CMakeFiles/dfu_nrf52840_xxAA_s140_5.0.0-3.alpha.dir/__/__/mesh/serial/src/serial.c.obj
 .rodata.serial_handler_prov_init.str1.1
                0x000367c6       0x4b examples/dfu/CMakeFiles/dfu_nrf52840_xxAA_s140_5.0.0-3.alpha.dir/__/__/mesh/serial/src/serial_handler_prov.c.obj
 .rodata.lengths.11307
                0x00036811        0x7 examples/dfu/CMakeFiles/dfu_nrf52840_xxAA_s140_5.0.0-3.alpha.dir/__/__/mesh/serial/src/serial_handler_dfu.c.obj
 .rodata.m_handlers
                0x00036818       0xe8 examples/dfu/CMakeFiles/dfu_nrf52840_xxAA_s140_5.0.0-3.alpha.dir/__/__/mesh/serial/src/serial_handler_mesh.c.obj
 .rodata.m_cmd_handlers
                0x00036900       0x18 examples/dfu/CMakeFiles/dfu_nrf52840_xxAA_s140_5.0.0-3.alpha.dir/__/__/mesh/serial/src/serial_handler_models.c.obj
 .rodata.m_cmd_handlers
                0x00036918       0x48 examples/dfu/CMakeFiles/dfu_nrf52840_xxAA_s140_5.0.0-3.alpha.dir/__/__/mesh/serial/src/serial_handler_device.c.obj
 .rodata.m_prov_callbacks
                0x00036960       0x10 examples/dfu/CMakeFiles/dfu_nrf52840_xxAA_s140_5.0.0-3.alpha.dir/__/__/mesh/prov/src/prov_provisioner.c.obj
 .rodata.m_prov_callbacks
                0x00036970       0x10 examples/dfu/CMakeFiles/dfu_nrf52840_xxAA_s140_5.0.0-3.alpha.dir/__/__/mesh/prov/src/prov_provisionee.c.obj
 .rodata.prov_provisionee_cb_ack_received.str1.1
                0x00036980       0x53 examples/dfu/CMakeFiles/dfu_nrf52840_xxAA_s140_5.0.0-3.alpha.dir/__/__/mesh/prov/src/prov_provisionee.c.obj
 .rodata.pdu_sizes.11136
                0x000369d3        0xa examples/dfu/CMakeFiles/dfu_nrf52840_xxAA_s140_5.0.0-3.alpha.dir/__/__/mesh/prov/src/provisioning.c.obj
 .rodata.alphanumeric.11241
                0x000369dd       0x25 examples/dfu/CMakeFiles/dfu_nrf52840_xxAA_s140_5.0.0-3.alpha.dir/__/__/mesh/prov/src/prov_utils.c.obj
 *fill*         0x00036a02        0x2 
 .rodata.numeric_max.11235
                0x00036a04       0x24 examples/dfu/CMakeFiles/dfu_nrf52840_xxAA_s140_5.0.0-3.alpha.dir/__/__/mesh/prov/src/prov_utils.c.obj
 .rodata.prov_utils_authentication_values_derive.str1.1
                0x00036a28        0x5 examples/dfu/CMakeFiles/dfu_nrf52840_xxAA_s140_5.0.0-3.alpha.dir/__/__/mesh/prov/src/prov_utils.c.obj
 .rodata.prov_utils_derive_keys.str1.1
                0x00036a2d        0xf examples/dfu/CMakeFiles/dfu_nrf52840_xxAA_s140_5.0.0-3.alpha.dir/__/__/mesh/prov/src/prov_utils.c.obj
 .rodata.add_active_bearer.str1.1
                0x00036a3c       0x2c examples/dfu/CMakeFiles/dfu_nrf52840_xxAA_s140_5.0.0-3.alpha.dir/__/__/mesh/prov/src/prov_bearer_adv.c.obj
 .rodata.crctable.10994
                0x00036a68      0x100 examples/dfu/CMakeFiles/dfu_nrf52840_xxAA_s140_5.0.0-3.alpha.dir/__/__/mesh/prov/src/prov_bearer_adv.c.obj
 .rodata.interface.11224
                0x00036b68       0x14 examples/dfu/CMakeFiles/dfu_nrf52840_xxAA_s140_5.0.0-3.alpha.dir/__/__/mesh/prov/src/prov_bearer_adv.c.obj
 .rodata.prov_bearer_adv_packet_in.str1.1
                0x00036b7c      0x26e examples/dfu/CMakeFiles/dfu_nrf52840_xxAA_s140_5.0.0-3.alpha.dir/__/__/mesh/prov/src/prov_bearer_adv.c.obj
 .rodata.tx_retry_cb.str1.1
                0x00036dea       0x37 examples/dfu/CMakeFiles/dfu_nrf52840_xxAA_s140_5.0.0-3.alpha.dir/__/__/mesh/prov/src/prov_bearer_adv.c.obj
 .rodata.abort_timeout.str1.1
                0x00036e21       0x19 examples/dfu/CMakeFiles/dfu_nrf52840_xxAA_s140_5.0.0-3.alpha.dir/__/__/mesh/dfu/src/nrf_mesh_dfu.c.obj
 .rodata.dfu_evt_handler.str1.1
                0x00036e3a      0x182 examples/dfu/CMakeFiles/dfu_nrf52840_xxAA_s140_5.0.0-3.alpha.dir/__/__/mesh/dfu/src/nrf_mesh_dfu.c.obj
 .rodata.flash_op_complete.str1.1
                0x00036fbc       0x3b examples/dfu/CMakeFiles/dfu_nrf52840_xxAA_s140_5.0.0-3.alpha.dir/__/__/mesh/dfu/src/nrf_mesh_dfu.c.obj
 .rodata.m_adv_channels
                0x00036ff7        0x3 examples/dfu/CMakeFiles/dfu_nrf52840_xxAA_s140_5.0.0-3.alpha.dir/__/__/mesh/dfu/src/nrf_mesh_dfu.c.obj
 .rodata.nrf_mesh_dfu_cmd_send.str1.1
                0x00036ffa       0x18 examples/dfu/CMakeFiles/dfu_nrf52840_xxAA_s140_5.0.0-3.alpha.dir/__/__/mesh/dfu/src/nrf_mesh_dfu.c.obj
 .rodata.timer_timeout.str1.1
                0x00037012       0x18 examples/dfu/CMakeFiles/dfu_nrf52840_xxAA_s140_5.0.0-3.alpha.dir/__/__/mesh/dfu/src/nrf_mesh_dfu.c.obj
                                 0x13 (size before relaxing)
 *fill*         0x00037012        0x2 
 .rodata.m_all_operations
                0x00037014       0x10 mesh/core/libmesh_core_nrf52840_xxAA.a(mesh_flash.c.obj)
 .rodata.types_lookup.9155
                0x00037024        0x4 mesh/core/libmesh_core_nrf52840_xxAA.a(nrf_mesh_utils.c.obj)
 .rodata.nrf_mesh_listen.str1.1
                0x00037028       0x70 mesh/core/libmesh_core_nrf52840_xxAA.a(nrf_mesh.c.obj)
 .rodata.CSWTCH.8
                0x00037098       0x10 mesh/core/libmesh_core_nrf52840_xxAA.a(hal.c.obj)
 .rodata        0x000370a8       0x15 mesh/core/libmesh_core_nrf52840_xxAA.a(enc.c.obj)
 .rodata.network_packet_in.str1.1
                0x000370bd       0x48 mesh/core/libmesh_core_nrf52840_xxAA.a(network.c.obj)
 .rodata.network_packet_send.str1.1
                0x00037105       0x49 mesh/core/libmesh_core_nrf52840_xxAA.a(network.c.obj)
 .rodata        0x0003714e        0x7 mesh/core/libmesh_core_nrf52840_xxAA.a(nrf_mesh_keygen.c.obj)
 .rodata.log_callback_rtt.str1.1
                0x00037155       0x15 mesh/core/libmesh_core_nrf52840_xxAA.a(log.c.obj)
 .rodata.str1.1
                0x0003716a       0x11 mesh/core/libmesh_core_nrf52840_xxAA.a(log.c.obj)
 *fill*         0x0003717b        0x1 
 .rodata.INVALID_HEADER
                0x0003717c        0x4 mesh/core/libmesh_core_nrf52840_xxAA.a(flash_manager.c.obj)
                0x0003717c                INVALID_HEADER
 .rodata.PADDING_HEADER
                0x00037180        0x4 mesh/core/libmesh_core_nrf52840_xxAA.a(flash_manager.c.obj)
                0x00037180                PADDING_HEADER
 .rodata.SEAL_HEADER
                0x00037184        0x4 mesh/core/libmesh_core_nrf52840_xxAA.a(flash_manager.c.obj)
                0x00037184                SEAL_HEADER
 .rodata.process_action_queue.str1.1
                0x00037188       0x21 mesh/core/libmesh_core_nrf52840_xxAA.a(flash_manager.c.obj)
                                 0x4f (size before relaxing)
 .rodata.beacon_packet_in.str1.1
                0x000371a9       0x51 mesh/core/libmesh_core_nrf52840_xxAA.a(beacon.c.obj)
                                 0x59 (size before relaxing)
 *fill*         0x000371fa        0x2 
 .rodata.cp_handler
                0x000371fc        0x8 mesh/core/libmesh_core_nrf52840_xxAA.a(heartbeat.c.obj)
 .rodata.net_beacon_init.str1.1
                0x00037204        0x5 mesh/core/libmesh_core_nrf52840_xxAA.a(net_beacon.c.obj)
 *fill*         0x00037209        0x3 
 .rodata.m_interface
                0x0003720c        0xc mesh/core/libmesh_core_nrf52840_xxAA.a(core_tx_adv.c.obj)
 .rodata.radio_mode_to_us_per_byte.9552
                0x00037218        0x6 mesh/core/libmesh_core_nrf52840_xxAA.a(broadcast.c.obj)
 .rodata.channel_rf_offsets.8793
                0x0003721e       0x28 mesh/core/libmesh_core_nrf52840_xxAA.a(radio_config.c.obj)
 .rodata        0x00037246        0x3 mesh/core/libmesh_core_nrf52840_xxAA.a(scanner.c.obj)
 .rodata.sar_ctx_cancel.str1.1
                0x00037249       0x18 mesh/core/libmesh_core_nrf52840_xxAA.a(transport.c.obj)
 .rodata.sar_ctx_tx_complete.str1.1
                0x00037261       0x1d mesh/core/libmesh_core_nrf52840_xxAA.a(transport.c.obj)
                                 0x4b (size before relaxing)
 .rodata.test_transport_decrypt.str1.1
                0x0003727e       0x13 mesh/core/libmesh_core_nrf52840_xxAA.a(transport.c.obj)
 .rodata.transport_packet_in.str1.1
                0x00037291       0x24 mesh/core/libmesh_core_nrf52840_xxAA.a(transport.c.obj)
 .rodata.upper_transport_access_packet_in.str1.1
                0x000372b5       0x29 mesh/core/libmesh_core_nrf52840_xxAA.a(transport.c.obj)
 .rodata.upper_transport_packet_in.str1.1
                0x000372de       0x2e mesh/core/libmesh_core_nrf52840_xxAA.a(transport.c.obj)
 .rodata.upper_transport_tx.str1.1
                0x0003730c       0x2c mesh/core/libmesh_core_nrf52840_xxAA.a(transport.c.obj)
                                 0x34 (size before relaxing)
 .rodata.flash_manager_defrag.str1.1
                0x00037338       0x28 mesh/core/libmesh_core_nrf52840_xxAA.a(flash_manager_defrag.c.obj)
                                 0x56 (size before relaxing)
 .rodata.m_procedure_steps
                0x00037360       0x28 mesh/core/libmesh_core_nrf52840_xxAA.a(flash_manager_defrag.c.obj)
 .rodata.Rb.7578
                0x00037388       0x10 mesh/core/libmesh_core_nrf52840_xxAA.a(aes_cmac.c.obj)
 .rodata._DoInit.str1.1
                0x00037398       0x14 external/rtt/librtt_nrf52840_xxAA.a(SEGGER_RTT.c.obj)
 .rodata._aV2C.5497
                0x000373ac       0x10 external/rtt/librtt_nrf52840_xxAA.a(SEGGER_RTT_printf.c.obj)
 .rodata.curve_secp256r1
                0x000373bc       0xb0 external/micro-ecc/libuECC_nrf52840_xxAA.a(uECC.c.obj)
 .rodata._global_impure_ptr
                0x0003746c        0x4 c:/a/gcc_arm/6/bin/../lib/gcc/arm-none-eabi/6.3.1/../../../../arm-none-eabi/lib/thumb/v7e-m/fpv4-sp/hard\libg_nano.a(lib_a-impure.o)
                0x0003746c                _global_impure_ptr
 *(.eh_frame*)
 .eh_frame      0x00037470        0x0 c:/a/gcc_arm/6/bin/../lib/gcc/arm-none-eabi/6.3.1/thumb/v7e-m/fpv4-sp/hard/crtbegin.o
 .eh_frame      0x00037470        0x4 c:/a/gcc_arm/6/bin/../lib/gcc/arm-none-eabi/6.3.1/thumb/v7e-m/fpv4-sp/hard/crtend.o

.glue_7         0x00037474        0x0
 .glue_7        0x00037474        0x0 linker stubs

.glue_7t        0x00037474        0x0
 .glue_7t       0x00037474        0x0 linker stubs

.vfp11_veneer   0x00037474        0x0
 .vfp11_veneer  0x00037474        0x0 linker stubs

.v4_bx          0x00037474        0x0
 .v4_bx         0x00037474        0x0 linker stubs

.iplt           0x00037474        0x0
 .iplt          0x00037474        0x0 c:/a/gcc_arm/6/bin/../lib/gcc/arm-none-eabi/6.3.1/thumb/v7e-m/fpv4-sp/hard/crtbegin.o

.pwr_mgmt_data  0x00037474        0x0
                [!provide]                PROVIDE (__start_pwr_mgmt_data, .)
 *(SORT(.pwr_mgmt_data*))
                [!provide]                PROVIDE (__stop_pwr_mgmt_data, .)

.log_const_data
                0x00037474        0x0
                [!provide]                PROVIDE (__start_log_const_data, .)
 *(.log_const_data)
                [!provide]                PROVIDE (__stop_log_const_data, .)

.cli_command    0x00037474        0x0
                [!provide]                PROVIDE (__start_cli_command, .)
 *(.cli_command)
                [!provide]                PROVIDE (__stop_cli_command, .)

.sdh_stack_observers
                0x00037474        0x0
                [!provide]                PROVIDE (__start_sdh_stack_observers, .)
 *(SORT(.sdh_stack_observers*))
                [!provide]                PROVIDE (__stop_sdh_stack_observers, .)

.sdh_req_observers
                0x00037474        0x0
                [!provide]                PROVIDE (__start_sdh_req_observers, .)
 *(SORT(.sdh_req_observers*))
                [!provide]                PROVIDE (__stop_sdh_req_observers, .)

.sdh_state_observers
                0x00037474        0x0
                [!provide]                PROVIDE (__start_sdh_state_observers, .)
 *(SORT(.sdh_state_observers*))
                [!provide]                PROVIDE (__stop_sdh_state_observers, .)

.sdh_ant_observers
                0x00037474        0x0
                [!provide]                PROVIDE (__start_sdh_ant_observers, .)
 *(SORT(.sdh_ant_observers*))
                [!provide]                PROVIDE (__stop_sdh_ant_observers, .)

.sdh_ble_observers
                0x00037474        0x0
                [!provide]                PROVIDE (__start_sdh_ble_observers, .)
 *(SORT(.sdh_ble_observers*))
                [!provide]                PROVIDE (__stop_sdh_ble_observers, .)

.sdh_soc_observers
                0x00037474        0x0
                [!provide]                PROVIDE (__start_sdh_soc_observers, .)
 *(SORT(.sdh_soc_observers*))
                [!provide]                PROVIDE (__stop_sdh_soc_observers, .)

.ARM.extab
 *(.ARM.extab* .gnu.linkonce.armextab.*)
                0x00037474                __exidx_start = .

.ARM.exidx      0x00037474        0x8
 *(.ARM.exidx* .gnu.linkonce.armexidx.*)
 .ARM.exidx     0x00037474        0x8 c:/a/gcc_arm/6/bin/../lib/gcc/arm-none-eabi/6.3.1/../../../../arm-none-eabi/lib/thumb/v7e-m/fpv4-sp/hard/crt0.o
                0x0003747c                __exidx_end = .
                0x0003747c                __etext = .

.rel.dyn        0x0003747c        0x0
 .rel.iplt      0x0003747c        0x0 c:/a/gcc_arm/6/bin/../lib/gcc/arm-none-eabi/6.3.1/thumb/v7e-m/fpv4-sp/hard/crtbegin.o

.data           0x200031b8      0x110 load address 0x0003747c
                0x200031b8                __data_start__ = .
 *(vtable)
 *(.data*)
 .data.rom_base
                0x200031b8        0x4 examples/dfu/CMakeFiles/dfu_nrf52840_xxAA_s140_5.0.0-3.alpha.dir/src/main.c.obj
                0x200031b8                rom_base
 .data.rom_end  0x200031bc        0x4 examples/dfu/CMakeFiles/dfu_nrf52840_xxAA_s140_5.0.0-3.alpha.dir/src/main.c.obj
                0x200031bc                rom_end
 .data.flash_clear_mem_available_struct.10511
                0x200031c0       0x10 examples/dfu/CMakeFiles/dfu_nrf52840_xxAA_s140_5.0.0-3.alpha.dir/__/__/mesh/access/src/access.c.obj
 .data.flash_store_mem_available_struct.10535
                0x200031d0       0x10 examples/dfu/CMakeFiles/dfu_nrf52840_xxAA_s140_5.0.0-3.alpha.dir/__/__/mesh/access/src/access.c.obj
 .data.mem_listener.10730
                0x200031e0       0x10 examples/dfu/CMakeFiles/dfu_nrf52840_xxAA_s140_5.0.0-3.alpha.dir/__/__/mesh/access/src/device_state_manager.c.obj
 .data.m_async_process_flag
                0x200031f0        0x4 examples/dfu/CMakeFiles/dfu_nrf52840_xxAA_s140_5.0.0-3.alpha.dir/__/__/mesh/prov/src/prov_bearer_adv.c.obj
 .data.SystemCoreClock
                0x200031f4        0x4 examples/dfu/CMakeFiles/dfu_nrf52840_xxAA_s140_5.0.0-3.alpha.dir/__/__/external/nRF5_SDK_14.2.0_17b948a/components/toolchain/system_nrf52840.c.obj
                0x200031f4                SystemCoreClock
 .data.mem_listener.9876
                0x200031f8       0x10 mesh/core/libmesh_core_nrf52840_xxAA.a(net_state.c.obj)
 .data.mem_listener.9881
                0x20003208       0x10 mesh/core/libmesh_core_nrf52840_xxAA.a(net_state.c.obj)
 .data.mem_listener.9895
                0x20003218       0x10 mesh/core/libmesh_core_nrf52840_xxAA.a(net_state.c.obj)
 .data.mem_listener.9912
                0x20003228       0x10 mesh/core/libmesh_core_nrf52840_xxAA.a(net_state.c.obj)
 .data.m_nrf_mesh_listener
                0x20003238        0xc mesh/core/libmesh_core_nrf52840_xxAA.a(nrf_mesh.c.obj)
 .data.g_log_dbg_lvl
                0x20003244        0x4 mesh/core/libmesh_core_nrf52840_xxAA.a(log.c.obj)
                0x20003244                g_log_dbg_lvl
 .data.g_log_dbg_msk
                0x20003248        0x4 mesh/core/libmesh_core_nrf52840_xxAA.a(log.c.obj)
                0x20003248                g_log_dbg_msk
 .data.g_log_hex_digits
                0x2000324c        0x4 mesh/core/libmesh_core_nrf52840_xxAA.a(log.c.obj)
                0x2000324c                g_log_hex_digits
 .data.m_log_callback
                0x20003250        0x4 mesh/core/libmesh_core_nrf52840_xxAA.a(log.c.obj)
                0x20003250                m_log_callback
 .data.g_rng_function
                0x20003254        0x4 external/micro-ecc/libuECC_nrf52840_xxAA.a(uECC.c.obj)
 .data._impure_ptr
                0x20003258        0x4 c:/a/gcc_arm/6/bin/../lib/gcc/arm-none-eabi/6.3.1/../../../../arm-none-eabi/lib/thumb/v7e-m/fpv4-sp/hard\libg_nano.a(lib_a-impure.o)
                0x20003258                _impure_ptr
 .data.impure_data
                0x2000325c       0x60 c:/a/gcc_arm/6/bin/../lib/gcc/arm-none-eabi/6.3.1/../../../../arm-none-eabi/lib/thumb/v7e-m/fpv4-sp/hard\libg_nano.a(lib_a-impure.o)
                0x200032bc                . = ALIGN (0x4)
                0x200032bc                PROVIDE (__preinit_array_start, .)
 *(.preinit_array)
                0x200032bc                PROVIDE (__preinit_array_end, .)
                0x200032bc                . = ALIGN (0x4)
                0x200032bc                PROVIDE (__init_array_start, .)
 *(SORT(.init_array.*))
 *(.init_array)
 .init_array    0x200032bc        0x4 c:/a/gcc_arm/6/bin/../lib/gcc/arm-none-eabi/6.3.1/thumb/v7e-m/fpv4-sp/hard/crtbegin.o
                0x200032c0                PROVIDE (__init_array_end, .)
                0x200032c0                . = ALIGN (0x4)
                [!provide]                PROVIDE (__fini_array_start, .)
 *(SORT(.fini_array.*))
 *(.fini_array)
 .fini_array    0x200032c0        0x4 c:/a/gcc_arm/6/bin/../lib/gcc/arm-none-eabi/6.3.1/thumb/v7e-m/fpv4-sp/hard/crtbegin.o
                [!provide]                PROVIDE (__fini_array_end, .)
 *(.jcr*)
 .jcr           0x200032c4        0x0 c:/a/gcc_arm/6/bin/../lib/gcc/arm-none-eabi/6.3.1/thumb/v7e-m/fpv4-sp/hard/crtbegin.o
 .jcr           0x200032c4        0x4 c:/a/gcc_arm/6/bin/../lib/gcc/arm-none-eabi/6.3.1/thumb/v7e-m/fpv4-sp/hard/crtend.o
                0x200032c8                . = ALIGN (0x4)
                0x200032c8                __data_end__ = .
LOAD c:/a/gcc_arm/6/bin/../lib/gcc/arm-none-eabi/6.3.1/thumb/v7e-m/fpv4-sp/hard/crti.o
LOAD c:/a/gcc_arm/6/bin/../lib/gcc/arm-none-eabi/6.3.1/thumb/v7e-m/fpv4-sp/hard/crtbegin.o
LOAD c:/a/gcc_arm/6/bin/../lib/gcc/arm-none-eabi/6.3.1/../../../../arm-none-eabi/lib/thumb/v7e-m/fpv4-sp/hard/crt0.o
LOAD examples/dfu/CMakeFiles/dfu_nrf52840_xxAA_s140_5.0.0-3.alpha.dir/src/main.c.obj
LOAD examples/dfu/CMakeFiles/dfu_nrf52840_xxAA_s140_5.0.0-3.alpha.dir/__/nrf_mesh_sdk.c.obj
LOAD examples/dfu/CMakeFiles/dfu_nrf52840_xxAA_s140_5.0.0-3.alpha.dir/__/__/mesh/access/src/access_publish.c.obj
LOAD examples/dfu/CMakeFiles/dfu_nrf52840_xxAA_s140_5.0.0-3.alpha.dir/__/__/mesh/access/src/access.c.obj
LOAD examples/dfu/CMakeFiles/dfu_nrf52840_xxAA_s140_5.0.0-3.alpha.dir/__/__/mesh/access/src/access_reliable.c.obj
LOAD examples/dfu/CMakeFiles/dfu_nrf52840_xxAA_s140_5.0.0-3.alpha.dir/__/__/mesh/access/src/device_state_manager.c.obj
LOAD examples/dfu/CMakeFiles/dfu_nrf52840_xxAA_s140_5.0.0-3.alpha.dir/__/__/mesh/serial/src/serial_uart.c.obj
LOAD examples/dfu/CMakeFiles/dfu_nrf52840_xxAA_s140_5.0.0-3.alpha.dir/__/__/mesh/serial/src/serial_bearer.c.obj
LOAD examples/dfu/CMakeFiles/dfu_nrf52840_xxAA_s140_5.0.0-3.alpha.dir/__/__/mesh/serial/src/serial_handler_common.c.obj
LOAD examples/dfu/CMakeFiles/dfu_nrf52840_xxAA_s140_5.0.0-3.alpha.dir/__/__/mesh/serial/src/serial_handler_access.c.obj
LOAD examples/dfu/CMakeFiles/dfu_nrf52840_xxAA_s140_5.0.0-3.alpha.dir/__/__/mesh/serial/src/serial_handler_config.c.obj
LOAD examples/dfu/CMakeFiles/dfu_nrf52840_xxAA_s140_5.0.0-3.alpha.dir/__/__/mesh/serial/src/serial_handler_openmesh.c.obj
LOAD examples/dfu/CMakeFiles/dfu_nrf52840_xxAA_s140_5.0.0-3.alpha.dir/__/__/mesh/serial/src/serial.c.obj
LOAD examples/dfu/CMakeFiles/dfu_nrf52840_xxAA_s140_5.0.0-3.alpha.dir/__/__/mesh/serial/src/serial_handler_prov.c.obj
LOAD examples/dfu/CMakeFiles/dfu_nrf52840_xxAA_s140_5.0.0-3.alpha.dir/__/__/mesh/serial/src/serial_handler_dfu.c.obj
LOAD examples/dfu/CMakeFiles/dfu_nrf52840_xxAA_s140_5.0.0-3.alpha.dir/__/__/mesh/serial/src/serial_handler_mesh.c.obj
LOAD examples/dfu/CMakeFiles/dfu_nrf52840_xxAA_s140_5.0.0-3.alpha.dir/__/__/mesh/serial/src/serial_handler_models.c.obj
LOAD examples/dfu/CMakeFiles/dfu_nrf52840_xxAA_s140_5.0.0-3.alpha.dir/__/__/mesh/serial/src/serial_handler_device.c.obj
LOAD examples/dfu/CMakeFiles/dfu_nrf52840_xxAA_s140_5.0.0-3.alpha.dir/__/__/mesh/serial/src/nrf_mesh_serial.c.obj
LOAD examples/dfu/CMakeFiles/dfu_nrf52840_xxAA_s140_5.0.0-3.alpha.dir/__/__/mesh/serial/src/serial_handler_app.c.obj
LOAD examples/dfu/CMakeFiles/dfu_nrf52840_xxAA_s140_5.0.0-3.alpha.dir/__/__/mesh/prov/src/prov_provisioner.c.obj
LOAD examples/dfu/CMakeFiles/dfu_nrf52840_xxAA_s140_5.0.0-3.alpha.dir/__/__/mesh/prov/src/prov_provisionee.c.obj
LOAD examples/dfu/CMakeFiles/dfu_nrf52840_xxAA_s140_5.0.0-3.alpha.dir/__/__/mesh/prov/src/nrf_mesh_prov.c.obj
LOAD examples/dfu/CMakeFiles/dfu_nrf52840_xxAA_s140_5.0.0-3.alpha.dir/__/__/mesh/prov/src/provisioning.c.obj
LOAD examples/dfu/CMakeFiles/dfu_nrf52840_xxAA_s140_5.0.0-3.alpha.dir/__/__/mesh/prov/src/prov_beacon.c.obj
LOAD examples/dfu/CMakeFiles/dfu_nrf52840_xxAA_s140_5.0.0-3.alpha.dir/__/__/mesh/prov/src/prov_utils.c.obj
LOAD examples/dfu/CMakeFiles/dfu_nrf52840_xxAA_s140_5.0.0-3.alpha.dir/__/__/mesh/prov/src/prov_bearer_adv.c.obj
LOAD examples/dfu/CMakeFiles/dfu_nrf52840_xxAA_s140_5.0.0-3.alpha.dir/__/__/mesh/dfu/src/nrf_mesh_dfu.c.obj
LOAD examples/dfu/CMakeFiles/dfu_nrf52840_xxAA_s140_5.0.0-3.alpha.dir/__/nrf_mesh_weak.c.obj
LOAD examples/dfu/CMakeFiles/dfu_nrf52840_xxAA_s140_5.0.0-3.alpha.dir/__/__/external/nRF5_SDK_14.2.0_17b948a/components/toolchain/system_nrf52840.c.obj
LOAD examples/dfu/CMakeFiles/dfu_nrf52840_xxAA_s140_5.0.0-3.alpha.dir/__/__/external/nRF5_SDK_14.2.0_17b948a/components/toolchain/gcc/gcc_startup_nrf52840.S.obj
LOAD mesh/core/libmesh_core_nrf52840_xxAA.a
LOAD external/rtt/librtt_nrf52840_xxAA.a
LOAD external/micro-ecc/libuECC_nrf52840_xxAA.a
START GROUP
LOAD c:/a/gcc_arm/6/bin/../lib/gcc/arm-none-eabi/6.3.1/thumb/v7e-m/fpv4-sp/hard\libgcc.a
LOAD c:/a/gcc_arm/6/bin/../lib/gcc/arm-none-eabi/6.3.1/../../../../arm-none-eabi/lib/thumb/v7e-m/fpv4-sp/hard\libg_nano.a
LOAD c:/a/gcc_arm/6/bin/../lib/gcc/arm-none-eabi/6.3.1/../../../../arm-none-eabi/lib/thumb/v7e-m/fpv4-sp/hard\libc_nano.a
END GROUP
START GROUP
LOAD c:/a/gcc_arm/6/bin/../lib/gcc/arm-none-eabi/6.3.1/thumb/v7e-m/fpv4-sp/hard\libgcc.a
LOAD c:/a/gcc_arm/6/bin/../lib/gcc/arm-none-eabi/6.3.1/../../../../arm-none-eabi/lib/thumb/v7e-m/fpv4-sp/hard\libc_nano.a
END GROUP
LOAD c:/a/gcc_arm/6/bin/../lib/gcc/arm-none-eabi/6.3.1/thumb/v7e-m/fpv4-sp/hard/crtend.o
LOAD c:/a/gcc_arm/6/bin/../lib/gcc/arm-none-eabi/6.3.1/thumb/v7e-m/fpv4-sp/hard/crtn.o
START GROUP
LOAD c:/a/gcc_arm/6/bin/../lib/gcc/arm-none-eabi/6.3.1/thumb/v7e-m/fpv4-sp/hard\libgcc.a
LOAD c:/a/gcc_arm/6/bin/../lib/gcc/arm-none-eabi/6.3.1/../../../../arm-none-eabi/lib/thumb/v7e-m/fpv4-sp/hard\libc.a
LOAD c:/a/gcc_arm/6/bin/../lib/gcc/arm-none-eabi/6.3.1/../../../../arm-none-eabi/lib/thumb/v7e-m/fpv4-sp/hard\libnosys.a
END GROUP

.igot.plt       0x200032c8        0x0 load address 0x0003758c
 .igot.plt      0x200032c8        0x0 c:/a/gcc_arm/6/bin/../lib/gcc/arm-none-eabi/6.3.1/thumb/v7e-m/fpv4-sp/hard/crtbegin.o
                0x200032c8                . = ALIGN (0x4)

.svc_data       0x200032c8        0x0
                [!provide]                PROVIDE (__start_svc_data, .)
 *(.svc_data)
                [!provide]                PROVIDE (__stop_svc_data, .)

.fs_data        0x200032c8        0x0
                [!provide]                PROVIDE (__start_fs_data, .)
 *(.fs_data)
                [!provide]                PROVIDE (__stop_fs_data, .)

.log_dynamic_data
                0x200032c8        0x0
                [!provide]                PROVIDE (__start_log_dynamic_data, .)
 *(.log_dynamic_data)
                [!provide]                PROVIDE (__stop_log_dynamic_data, .)

.cli_sorted_cmd_ptrs
                0x200032c8        0x0
                [!provide]                PROVIDE (__start_cli_sorted_cmd_ptrs, .)
 *(.cli_sorted_cmd_ptrs)
                [!provide]                PROVIDE (__stop_cli_sorted_cmd_ptrs, .)

.bss            0x200032c8     0x3b5c load address 0x00037590
                0x200032c8                . = ALIGN (0x4)
                0x200032c8                __bss_start__ = .
 *(.bss*)
 .bss           0x200032c8       0x1c c:/a/gcc_arm/6/bin/../lib/gcc/arm-none-eabi/6.3.1/thumb/v7e-m/fpv4-sp/hard/crtbegin.o
 .bss.m_evt_handler
                0x200032e4        0x8 examples/dfu/CMakeFiles/dfu_nrf52840_xxAA_s140_5.0.0-3.alpha.dir/src/main.c.obj
 .bss.m_ble_evt_buffer
                0x200032ec       0x57 examples/dfu/CMakeFiles/dfu_nrf52840_xxAA_s140_5.0.0-3.alpha.dir/__/nrf_mesh_sdk.c.obj
 *fill*         0x20003343        0x1 
 .bss.m_publish_timer
                0x20003344       0x18 examples/dfu/CMakeFiles/dfu_nrf52840_xxAA_s140_5.0.0-3.alpha.dir/__/__/mesh/access/src/access_publish.c.obj
 .bss.m_publish_timer_counter
                0x2000335c        0x4 examples/dfu/CMakeFiles/dfu_nrf52840_xxAA_s140_5.0.0-3.alpha.dir/__/__/mesh/access/src/access_publish.c.obj
 .bss.m_publish_timer_running
                0x20003360        0x1 examples/dfu/CMakeFiles/dfu_nrf52840_xxAA_s140_5.0.0-3.alpha.dir/__/__/mesh/access/src/access_publish.c.obj
 .bss.m_timer_resolution
                0x20003361        0x1 examples/dfu/CMakeFiles/dfu_nrf52840_xxAA_s140_5.0.0-3.alpha.dir/__/__/mesh/access/src/access_publish.c.obj
 *fill*         0x20003362        0x2 
 .bss.mp_publication_list
                0x20003364        0x4 examples/dfu/CMakeFiles/dfu_nrf52840_xxAA_s140_5.0.0-3.alpha.dir/__/__/mesh/access/src/access_publish.c.obj
 .bss.m_element_pool
                0x20003368        0x6 examples/dfu/CMakeFiles/dfu_nrf52840_xxAA_s140_5.0.0-3.alpha.dir/__/__/mesh/access/src/access.c.obj
 *fill*         0x2000336e        0x2 
 .bss.m_flash_manager
                0x20003370       0x24 examples/dfu/CMakeFiles/dfu_nrf52840_xxAA_s140_5.0.0-3.alpha.dir/__/__/mesh/access/src/access.c.obj
 .bss.m_flash_not_ready
                0x20003394        0x1 examples/dfu/CMakeFiles/dfu_nrf52840_xxAA_s140_5.0.0-3.alpha.dir/__/__/mesh/access/src/access.c.obj
 .bss.m_metadata_stored
                0x20003395        0x1 examples/dfu/CMakeFiles/dfu_nrf52840_xxAA_s140_5.0.0-3.alpha.dir/__/__/mesh/access/src/access.c.obj
 *fill*         0x20003396        0x2 
 .bss.m_model_pool
                0x20003398       0x68 examples/dfu/CMakeFiles/dfu_nrf52840_xxAA_s140_5.0.0-3.alpha.dir/__/__/mesh/access/src/access.c.obj
 .bss.m_subscription_list_pool
                0x20003400       0x10 examples/dfu/CMakeFiles/dfu_nrf52840_xxAA_s140_5.0.0-3.alpha.dir/__/__/mesh/access/src/access.c.obj
 .bss.m_reliable
                0x20003410       0x74 examples/dfu/CMakeFiles/dfu_nrf52840_xxAA_s140_5.0.0-3.alpha.dir/__/__/mesh/access/src/access_reliable.c.obj
 .bss.m_addr_nonvirtual_allocated
                0x20003484        0x4 examples/dfu/CMakeFiles/dfu_nrf52840_xxAA_s140_5.0.0-3.alpha.dir/__/__/mesh/access/src/device_state_manager.c.obj
 .bss.m_addr_nonvirtual_needs_flashing
                0x20003488        0x4 examples/dfu/CMakeFiles/dfu_nrf52840_xxAA_s140_5.0.0-3.alpha.dir/__/__/mesh/access/src/device_state_manager.c.obj
 .bss.m_addr_unicast_allocated
                0x2000348c        0x4 examples/dfu/CMakeFiles/dfu_nrf52840_xxAA_s140_5.0.0-3.alpha.dir/__/__/mesh/access/src/device_state_manager.c.obj
 .bss.m_addr_unicast_needs_flashing
                0x20003490        0x4 examples/dfu/CMakeFiles/dfu_nrf52840_xxAA_s140_5.0.0-3.alpha.dir/__/__/mesh/access/src/device_state_manager.c.obj
 .bss.m_addr_virtual_allocated
                0x20003494        0x4 examples/dfu/CMakeFiles/dfu_nrf52840_xxAA_s140_5.0.0-3.alpha.dir/__/__/mesh/access/src/device_state_manager.c.obj
 .bss.m_addr_virtual_needs_flashing
                0x20003498        0x4 examples/dfu/CMakeFiles/dfu_nrf52840_xxAA_s140_5.0.0-3.alpha.dir/__/__/mesh/access/src/device_state_manager.c.obj
 .bss.m_addresses
                0x2000349c       0x40 examples/dfu/CMakeFiles/dfu_nrf52840_xxAA_s140_5.0.0-3.alpha.dir/__/__/mesh/access/src/device_state_manager.c.obj
 .bss.m_appkey_allocated
                0x200034dc        0x4 examples/dfu/CMakeFiles/dfu_nrf52840_xxAA_s140_5.0.0-3.alpha.dir/__/__/mesh/access/src/device_state_manager.c.obj
 .bss.m_appkey_needs_flashing
                0x200034e0        0x4 examples/dfu/CMakeFiles/dfu_nrf52840_xxAA_s140_5.0.0-3.alpha.dir/__/__/mesh/access/src/device_state_manager.c.obj
 .bss.m_appkeys
                0x200034e4      0x150 examples/dfu/CMakeFiles/dfu_nrf52840_xxAA_s140_5.0.0-3.alpha.dir/__/__/mesh/access/src/device_state_manager.c.obj
 .bss.m_devkey_allocated
                0x20003634        0x4 examples/dfu/CMakeFiles/dfu_nrf52840_xxAA_s140_5.0.0-3.alpha.dir/__/__/mesh/access/src/device_state_manager.c.obj
 .bss.m_devkey_needs_flashing
                0x20003638        0x4 examples/dfu/CMakeFiles/dfu_nrf52840_xxAA_s140_5.0.0-3.alpha.dir/__/__/mesh/access/src/device_state_manager.c.obj
 .bss.m_devkeys
                0x2000363c       0x16 examples/dfu/CMakeFiles/dfu_nrf52840_xxAA_s140_5.0.0-3.alpha.dir/__/__/mesh/access/src/device_state_manager.c.obj
 .bss.m_flash_is_available
                0x20003652        0x1 examples/dfu/CMakeFiles/dfu_nrf52840_xxAA_s140_5.0.0-3.alpha.dir/__/__/mesh/access/src/device_state_manager.c.obj
 *fill*         0x20003653        0x1 
 .bss.m_flash_manager
                0x20003654       0x24 examples/dfu/CMakeFiles/dfu_nrf52840_xxAA_s140_5.0.0-3.alpha.dir/__/__/mesh/access/src/device_state_manager.c.obj
 .bss.m_flash_mem_listener_update_all
                0x20003678       0x10 examples/dfu/CMakeFiles/dfu_nrf52840_xxAA_s140_5.0.0-3.alpha.dir/__/__/mesh/access/src/device_state_manager.c.obj
 .bss.m_has_primary_subnet
                0x20003688        0x1 examples/dfu/CMakeFiles/dfu_nrf52840_xxAA_s140_5.0.0-3.alpha.dir/__/__/mesh/access/src/device_state_manager.c.obj
 *fill*         0x20003689        0x1 
 .bss.m_local_unicast_addr
                0x2000368a        0x4 examples/dfu/CMakeFiles/dfu_nrf52840_xxAA_s140_5.0.0-3.alpha.dir/__/__/mesh/access/src/device_state_manager.c.obj
 *fill*         0x2000368e        0x2 
 .bss.m_subnet_allocated
                0x20003690        0x4 examples/dfu/CMakeFiles/dfu_nrf52840_xxAA_s140_5.0.0-3.alpha.dir/__/__/mesh/access/src/device_state_manager.c.obj
 .bss.m_subnet_needs_flashing
                0x20003694        0x4 examples/dfu/CMakeFiles/dfu_nrf52840_xxAA_s140_5.0.0-3.alpha.dir/__/__/mesh/access/src/device_state_manager.c.obj
 .bss.m_subnets
                0x20003698      0x2b0 examples/dfu/CMakeFiles/dfu_nrf52840_xxAA_s140_5.0.0-3.alpha.dir/__/__/mesh/access/src/device_state_manager.c.obj
 .bss.m_virtual_addresses
                0x20003948       0xa0 examples/dfu/CMakeFiles/dfu_nrf52840_xxAA_s140_5.0.0-3.alpha.dir/__/__/mesh/access/src/device_state_manager.c.obj
 .bss.m_can_receive
                0x200039e8        0x1 examples/dfu/CMakeFiles/dfu_nrf52840_xxAA_s140_5.0.0-3.alpha.dir/__/__/mesh/serial/src/serial_uart.c.obj
 *fill*         0x200039e9        0x3 
 .bss.m_char_rx_cb
                0x200039ec        0x4 examples/dfu/CMakeFiles/dfu_nrf52840_xxAA_s140_5.0.0-3.alpha.dir/__/__/mesh/serial/src/serial_uart.c.obj
 .bss.m_char_tx_cb
                0x200039f0        0x4 examples/dfu/CMakeFiles/dfu_nrf52840_xxAA_s140_5.0.0-3.alpha.dir/__/__/mesh/serial/src/serial_uart.c.obj
 .bss.m_cur_tx_packet_index
                0x200039f4        0x2 examples/dfu/CMakeFiles/dfu_nrf52840_xxAA_s140_5.0.0-3.alpha.dir/__/__/mesh/serial/src/serial_bearer.c.obj
 *fill*         0x200039f6        0x2 
 .bss.m_event_flag
                0x200039f8        0x4 examples/dfu/CMakeFiles/dfu_nrf52840_xxAA_s140_5.0.0-3.alpha.dir/__/__/mesh/serial/src/serial_bearer.c.obj
 .bss.m_ignore_rx_count
                0x200039fc        0x2 examples/dfu/CMakeFiles/dfu_nrf52840_xxAA_s140_5.0.0-3.alpha.dir/__/__/mesh/serial/src/serial_bearer.c.obj
 .bss.m_rx_buffer
                0x200039fe       0xd0 examples/dfu/CMakeFiles/dfu_nrf52840_xxAA_s140_5.0.0-3.alpha.dir/__/__/mesh/serial/src/serial_bearer.c.obj
 *fill*         0x20003ace        0x2 
 .bss.m_rx_packet_buf
                0x20003ad0        0xc examples/dfu/CMakeFiles/dfu_nrf52840_xxAA_s140_5.0.0-3.alpha.dir/__/__/mesh/serial/src/serial_bearer.c.obj
 .bss.m_serial_state
                0x20003adc        0x1 examples/dfu/CMakeFiles/dfu_nrf52840_xxAA_s140_5.0.0-3.alpha.dir/__/__/mesh/serial/src/serial_bearer.c.obj
 *fill*         0x20003add        0x1 
 .bss.m_stored_pac_len
                0x20003ade        0x2 examples/dfu/CMakeFiles/dfu_nrf52840_xxAA_s140_5.0.0-3.alpha.dir/__/__/mesh/serial/src/serial_bearer.c.obj
 .bss.m_tx_buffer
                0x20003ae0       0xd0 examples/dfu/CMakeFiles/dfu_nrf52840_xxAA_s140_5.0.0-3.alpha.dir/__/__/mesh/serial/src/serial_bearer.c.obj
 .bss.m_tx_packet_buf
                0x20003bb0        0xc examples/dfu/CMakeFiles/dfu_nrf52840_xxAA_s140_5.0.0-3.alpha.dir/__/__/mesh/serial/src/serial_bearer.c.obj
 .bss.mp_current_rx_packet
                0x20003bbc        0x4 examples/dfu/CMakeFiles/dfu_nrf52840_xxAA_s140_5.0.0-3.alpha.dir/__/__/mesh/serial/src/serial_bearer.c.obj
 .bss.mp_current_tx_packet
                0x20003bc0        0x4 examples/dfu/CMakeFiles/dfu_nrf52840_xxAA_s140_5.0.0-3.alpha.dir/__/__/mesh/serial/src/serial_bearer.c.obj
 .bss.rx_index.11337
                0x20003bc4        0x2 examples/dfu/CMakeFiles/dfu_nrf52840_xxAA_s140_5.0.0-3.alpha.dir/__/__/mesh/serial/src/serial_bearer.c.obj
 .bss.m_cmd_handler_scheduled
                0x20003bc6        0x1 examples/dfu/CMakeFiles/dfu_nrf52840_xxAA_s140_5.0.0-3.alpha.dir/__/__/mesh/serial/src/serial.c.obj
 .bss.m_state   0x20003bc7        0x1 examples/dfu/CMakeFiles/dfu_nrf52840_xxAA_s140_5.0.0-3.alpha.dir/__/__/mesh/serial/src/serial.c.obj
 .bss.m_pb_adv_contexts
                0x20003bc8      0x380 examples/dfu/CMakeFiles/dfu_nrf52840_xxAA_s140_5.0.0-3.alpha.dir/__/__/mesh/serial/src/serial_handler_prov.c.obj
 .bss.m_private_key
                0x20003f48       0x20 examples/dfu/CMakeFiles/dfu_nrf52840_xxAA_s140_5.0.0-3.alpha.dir/__/__/mesh/serial/src/serial_handler_prov.c.obj
 .bss.m_prov_contexts
                0x20003f68      0x260 examples/dfu/CMakeFiles/dfu_nrf52840_xxAA_s140_5.0.0-3.alpha.dir/__/__/mesh/serial/src/serial_handler_prov.c.obj
 .bss.m_provisioning_caps
                0x200041c8        0xb examples/dfu/CMakeFiles/dfu_nrf52840_xxAA_s140_5.0.0-3.alpha.dir/__/__/mesh/serial/src/serial_handler_prov.c.obj
 .bss.m_public_key
                0x200041d3       0x40 examples/dfu/CMakeFiles/dfu_nrf52840_xxAA_s140_5.0.0-3.alpha.dir/__/__/mesh/serial/src/serial_handler_prov.c.obj
 .bss.m_scanning_running
                0x20004213        0x1 examples/dfu/CMakeFiles/dfu_nrf52840_xxAA_s140_5.0.0-3.alpha.dir/__/__/mesh/serial/src/serial_handler_prov.c.obj
 .bss.m_evt_handler
                0x20004214        0x8 examples/dfu/CMakeFiles/dfu_nrf52840_xxAA_s140_5.0.0-3.alpha.dir/__/__/mesh/serial/src/serial_handler_dfu.c.obj
 .bss.m_evt_handler
                0x2000421c        0x8 examples/dfu/CMakeFiles/dfu_nrf52840_xxAA_s140_5.0.0-3.alpha.dir/__/__/mesh/serial/src/serial_handler_mesh.c.obj
 .bss.p_serial_evt.11496
                0x20004224        0x4 examples/dfu/CMakeFiles/dfu_nrf52840_xxAA_s140_5.0.0-3.alpha.dir/__/__/mesh/serial/src/serial_handler_mesh.c.obj
 .bss.m_models_list
                0x20004228       0x18 examples/dfu/CMakeFiles/dfu_nrf52840_xxAA_s140_5.0.0-3.alpha.dir/__/__/mesh/serial/src/serial_handler_models.c.obj
 .bss.m_beacons
                0x20004240      0x134 examples/dfu/CMakeFiles/dfu_nrf52840_xxAA_s140_5.0.0-3.alpha.dir/__/__/mesh/serial/src/serial_handler_device.c.obj
 .bss.m_app_rx_cb
                0x20004374        0x4 examples/dfu/CMakeFiles/dfu_nrf52840_xxAA_s140_5.0.0-3.alpha.dir/__/__/mesh/serial/src/serial_handler_app.c.obj
 .bss.m_event_handler
                0x20004378        0x4 examples/dfu/CMakeFiles/dfu_nrf52840_xxAA_s140_5.0.0-3.alpha.dir/__/__/mesh/prov/src/prov_beacon.c.obj
 .bss.m_offload_ecdh
                0x2000437c        0x1 examples/dfu/CMakeFiles/dfu_nrf52840_xxAA_s140_5.0.0-3.alpha.dir/__/__/mesh/prov/src/prov_utils.c.obj
 *fill*         0x2000437d        0x3 
 .bss.mp_bearer_head
                0x20004380        0x4 examples/dfu/CMakeFiles/dfu_nrf52840_xxAA_s140_5.0.0-3.alpha.dir/__/__/mesh/prov/src/prov_bearer_adv.c.obj
 .bss.m_adv_packet
                0x20004384       0x28 examples/dfu/CMakeFiles/dfu_nrf52840_xxAA_s140_5.0.0-3.alpha.dir/__/__/mesh/dfu/src/nrf_mesh_dfu.c.obj
 .bss.m_broadcast
                0x200043ac       0x34 examples/dfu/CMakeFiles/dfu_nrf52840_xxAA_s140_5.0.0-3.alpha.dir/__/__/mesh/dfu/src/nrf_mesh_dfu.c.obj
 .bss.m_prng    0x200043e0       0x10 examples/dfu/CMakeFiles/dfu_nrf52840_xxAA_s140_5.0.0-3.alpha.dir/__/__/mesh/dfu/src/nrf_mesh_dfu.c.obj
 .bss.m_timer_evt
                0x200043f0       0x18 examples/dfu/CMakeFiles/dfu_nrf52840_xxAA_s140_5.0.0-3.alpha.dir/__/__/mesh/dfu/src/nrf_mesh_dfu.c.obj
 .bss.m_transfer_state
                0x20004408       0x12 examples/dfu/CMakeFiles/dfu_nrf52840_xxAA_s140_5.0.0-3.alpha.dir/__/__/mesh/dfu/src/nrf_mesh_dfu.c.obj
 *fill*         0x2000441a        0x2 
 .bss.m_tx_slots
                0x2000441c      0x120 examples/dfu/CMakeFiles/dfu_nrf52840_xxAA_s140_5.0.0-3.alpha.dir/__/__/mesh/dfu/src/nrf_mesh_dfu.c.obj
 .bss.m_tx_timer_evt
                0x2000453c       0x18 examples/dfu/CMakeFiles/dfu_nrf52840_xxAA_s140_5.0.0-3.alpha.dir/__/__/mesh/dfu/src/nrf_mesh_dfu.c.obj
 .bss.mp_curr_fwid
                0x20004554        0x4 examples/dfu/CMakeFiles/dfu_nrf52840_xxAA_s140_5.0.0-3.alpha.dir/__/__/mesh/dfu/src/nrf_mesh_dfu.c.obj
 .bss.m_internal_event_fifo
                0x20004558       0x14 mesh/core/libmesh_core_nrf52840_xxAA.a(internal_event.c.obj)
 .bss.m_internal_event_fifo_buffer
                0x2000456c      0x100 mesh/core/libmesh_core_nrf52840_xxAA.a(internal_event.c.obj)
 .bss.m_internal_event_initialized
                0x2000466c        0x1 mesh/core/libmesh_core_nrf52840_xxAA.a(internal_event.c.obj)
 *fill*         0x2000466d        0x3 
 .bss.m_report_cb
                0x20004670        0x4 mesh/core/libmesh_core_nrf52840_xxAA.a(internal_event.c.obj)
 .bss.m_uuid    0x20004674       0x10 mesh/core/libmesh_core_nrf52840_xxAA.a(nrf_mesh_configure.c.obj)
 .bss.mp_evt_handlers_head
                0x20004684        0x4 mesh/core/libmesh_core_nrf52840_xxAA.a(event.c.obj)
 .bss.lock_count.9935
                0x20004688        0x4 mesh/core/libmesh_core_nrf52840_xxAA.a(net_state.c.obj)
 .bss.m_flash_manager
                0x2000468c       0x24 mesh/core/libmesh_core_nrf52840_xxAA.a(net_state.c.obj)
 .bss.m_iv_update_timer
                0x200046b0       0x18 mesh/core/libmesh_core_nrf52840_xxAA.a(net_state.c.obj)
 .bss.m_net_state
                0x200046c8       0x14 mesh/core/libmesh_core_nrf52840_xxAA.a(net_state.c.obj)
 .bss.m_seqnum_allocation_in_progress
                0x200046dc        0x1 mesh/core/libmesh_core_nrf52840_xxAA.a(net_state.c.obj)
 .bss.m_test_mode
                0x200046dd        0x1 mesh/core/libmesh_core_nrf52840_xxAA.a(net_state.c.obj)
 *fill*         0x200046de        0x2 
 .bss.m_event_flag
                0x200046e0        0x4 mesh/core/libmesh_core_nrf52840_xxAA.a(mesh_flash.c.obj)
 .bss.m_suspended
                0x200046e4        0x1 mesh/core/libmesh_core_nrf52840_xxAA.a(mesh_flash.c.obj)
 *fill*         0x200046e5        0x3 
 .bss.m_users   0x200046e8      0x228 mesh/core/libmesh_core_nrf52840_xxAA.a(mesh_flash.c.obj)
 .bss.suspend_count.10223
                0x20004910        0x4 mesh/core/libmesh_core_nrf52840_xxAA.a(mesh_flash.c.obj)
 .bss.m_is_enabled
                0x20004914        0x1 mesh/core/libmesh_core_nrf52840_xxAA.a(nrf_mesh.c.obj)
 .bss.m_is_initialized
                0x20004915        0x1 mesh/core/libmesh_core_nrf52840_xxAA.a(nrf_mesh.c.obj)
 *fill*         0x20004916        0x2 
 .bss.m_rx_cb   0x20004918        0x4 mesh/core/libmesh_core_nrf52840_xxAA.a(nrf_mesh.c.obj)
 .bss.m_event_flag
                0x2000491c        0x4 mesh/core/libmesh_core_nrf52840_xxAA.a(timer_scheduler.c.obj)
 .bss.m_scheduler
                0x20004920       0x10 mesh/core/libmesh_core_nrf52840_xxAA.a(timer_scheduler.c.obj)
 .bss.m_attributes
                0x20004930        0x3 mesh/core/libmesh_core_nrf52840_xxAA.a(timer.c.obj)
 *fill*         0x20004933        0x1 
 .bss.m_callbacks
                0x20004934        0xc mesh/core/libmesh_core_nrf52840_xxAA.a(timer.c.obj)
 .bss.m_is_in_ts
                0x20004940        0x1 mesh/core/libmesh_core_nrf52840_xxAA.a(timer.c.obj)
 *fill*         0x20004941        0x3 
 .bss.m_reference_time
                0x20004944        0x4 mesh/core/libmesh_core_nrf52840_xxAA.a(timer.c.obj)
 .bss.m_timeouts
                0x20004948        0xc mesh/core/libmesh_core_nrf52840_xxAA.a(timer.c.obj)
 .bss.m_timer_mut
                0x20004954        0x4 mesh/core/libmesh_core_nrf52840_xxAA.a(timer.c.obj)
 .bss.m_ts_end_time
                0x20004958        0x4 mesh/core/libmesh_core_nrf52840_xxAA.a(timer.c.obj)
 .bss.mp_ppi_tasks
                0x2000495c        0xc mesh/core/libmesh_core_nrf52840_xxAA.a(timer.c.obj)
 .bss.m_current_time
                0x20004968        0x4 mesh/core/libmesh_core_nrf52840_xxAA.a(ticker.c.obj)
 .bss.m_timer   0x2000496c       0x18 mesh/core/libmesh_core_nrf52840_xxAA.a(ticker.c.obj)
 .bss.m_current_timeslot
                0x20004984       0x1c mesh/core/libmesh_core_nrf52840_xxAA.a(timeslot.c.obj)
 .bss.m_lfclk_ppm
                0x200049a0        0x4 mesh/core/libmesh_core_nrf52840_xxAA.a(timeslot.c.obj)
 .bss.m_radio_request_earliest
                0x200049a4       0x10 mesh/core/libmesh_core_nrf52840_xxAA.a(timeslot.c.obj)
 .bss.m_state_lock
                0x200049b4        0x1 mesh/core/libmesh_core_nrf52840_xxAA.a(timeslot.c.obj)
 .bss.m_timeslot_forced_command
                0x200049b5        0x1 mesh/core/libmesh_core_nrf52840_xxAA.a(timeslot.c.obj)
 *fill*         0x200049b6        0x2 
 .bss.s_last_rtc_value.9399
                0x200049b8        0x8 mesh/core/libmesh_core_nrf52840_xxAA.a(timeslot.c.obj)
 .bss.m_bearer_event_fifo
                0x200049c0       0x14 mesh/core/libmesh_core_nrf52840_xxAA.a(bearer_event.c.obj)
 .bss.m_bearer_event_fifo_buffer
                0x200049d4      0x100 mesh/core/libmesh_core_nrf52840_xxAA.a(bearer_event.c.obj)
 .bss.m_critical
                0x20004ad4        0x4 mesh/core/libmesh_core_nrf52840_xxAA.a(bearer_event.c.obj)
 .bss.m_flag_count
                0x20004ad8        0x4 mesh/core/libmesh_core_nrf52840_xxAA.a(bearer_event.c.obj)
 .bss.m_flag_event_callbacks
                0x20004adc       0x20 mesh/core/libmesh_core_nrf52840_xxAA.a(bearer_event.c.obj)
 .bss.m_flags   0x20004afc        0x4 mesh/core/libmesh_core_nrf52840_xxAA.a(bearer_event.c.obj)
 .bss.m_irq_priority
                0x20004b00        0x1 mesh/core/libmesh_core_nrf52840_xxAA.a(bearer_event.c.obj)
 *fill*         0x20004b01        0x3 
 .bss.m_sequential_event_queue
                0x20004b04        0x8 mesh/core/libmesh_core_nrf52840_xxAA.a(bearer_event.c.obj)
 .bss.s_recursion_guard.9521
                0x20004b0c        0x1 mesh/core/libmesh_core_nrf52840_xxAA.a(bearer_event.c.obj)
 *fill*         0x20004b0d        0x3 
 .bss.m_relay_check_cb
                0x20004b10        0x4 mesh/core/libmesh_core_nrf52840_xxAA.a(network.c.obj)
 .bss.m_relay_enable
                0x20004b14        0x1 mesh/core/libmesh_core_nrf52840_xxAA.a(network.c.obj)
 *fill*         0x20004b15        0x3 
 .bss.m_action_queue
                0x20004b18        0xc mesh/core/libmesh_core_nrf52840_xxAA.a(flash_manager.c.obj)
 .bss.m_action_queue_buffer
                0x20004b24      0x104 mesh/core/libmesh_core_nrf52840_xxAA.a(flash_manager.c.obj)
 .bss.m_action_state
                0x20004c28        0x1 mesh/core/libmesh_core_nrf52840_xxAA.a(flash_manager.c.obj)
 *fill*         0x20004c29        0x3 
 .bss.m_memory_listener_queue
                0x20004c2c        0x8 mesh/core/libmesh_core_nrf52840_xxAA.a(flash_manager.c.obj)
 .bss.m_processing_flag
                0x20004c34        0x4 mesh/core/libmesh_core_nrf52840_xxAA.a(flash_manager.c.obj)
 .bss.m_queue_empty_cb
                0x20004c38        0x4 mesh/core/libmesh_core_nrf52840_xxAA.a(flash_manager.c.obj)
 .bss.m_state   0x20004c3c        0x1 mesh/core/libmesh_core_nrf52840_xxAA.a(flash_manager.c.obj)
 *fill*         0x20004c3d        0x1 
 .bss.m_token   0x20004c3e        0x2 mesh/core/libmesh_core_nrf52840_xxAA.a(flash_manager.c.obj)
 .bss.p_current.11249
                0x20004c40        0x4 mesh/core/libmesh_core_nrf52840_xxAA.a(flash_manager.c.obj)
 .bss.result.11250
                0x20004c44        0x1 mesh/core/libmesh_core_nrf52840_xxAA.a(flash_manager.c.obj)
 *fill*         0x20004c45        0x3 
 .bss.m_adv_buffer
                0x20004c48       0x68 mesh/core/libmesh_core_nrf52840_xxAA.a(beacon.c.obj)
 .bss.m_advertiser
                0x20004cb0       0x94 mesh/core/libmesh_core_nrf52840_xxAA.a(beacon.c.obj)
 .bss.m_bearers
                0x20004d44        0x4 mesh/core/libmesh_core_nrf52840_xxAA.a(core_tx.c.obj)
 .bss.m_tx_complete_callback
                0x20004d48        0x4 mesh/core/libmesh_core_nrf52840_xxAA.a(core_tx.c.obj)
 .bss.m_hb_core_evt_handler
                0x20004d4c        0x8 mesh/core/libmesh_core_nrf52840_xxAA.a(heartbeat.c.obj)
 .bss.m_hb_pending_feat_msg
                0x20004d54        0x1 mesh/core/libmesh_core_nrf52840_xxAA.a(heartbeat.c.obj)
 .bss.m_hb_pending_pub_msg
                0x20004d55        0x1 mesh/core/libmesh_core_nrf52840_xxAA.a(heartbeat.c.obj)
 .bss.m_heartbeat_init_done
                0x20004d56        0x1 mesh/core/libmesh_core_nrf52840_xxAA.a(heartbeat.c.obj)
 *fill*         0x20004d57        0x1 
 .bss.m_heartbeat_subscription
                0x20004d58       0x10 mesh/core/libmesh_core_nrf52840_xxAA.a(heartbeat.c.obj)
 .bss.m_publication_count_decrement_cb
                0x20004d68        0x4 mesh/core/libmesh_core_nrf52840_xxAA.a(heartbeat.c.obj)
 .bss.m_publication_get_cb
                0x20004d6c        0x4 mesh/core/libmesh_core_nrf52840_xxAA.a(heartbeat.c.obj)
 .bss.m_publication_timer
                0x20004d70       0x1c mesh/core/libmesh_core_nrf52840_xxAA.a(heartbeat.c.obj)
 .bss.m_subscription_timer
                0x20004d8c       0x18 mesh/core/libmesh_core_nrf52840_xxAA.a(heartbeat.c.obj)
 .bss.m_beacon_salt
                0x20004da4       0x10 mesh/core/libmesh_core_nrf52840_xxAA.a(net_beacon.c.obj)
 .bss.m_enabled
                0x20004db4        0x1 mesh/core/libmesh_core_nrf52840_xxAA.a(net_beacon.c.obj)
 *fill*         0x20004db5        0x3 
 .bss.m_tx_event
                0x20004db8       0x18 mesh/core/libmesh_core_nrf52840_xxAA.a(net_beacon.c.obj)
 .bss.m_adv_tx_count
                0x20004dd0        0x8 mesh/core/libmesh_core_nrf52840_xxAA.a(core_tx_adv.c.obj)
 .bss.m_advertisers
                0x20004dd8      0x128 mesh/core/libmesh_core_nrf52840_xxAA.a(core_tx_adv.c.obj)
 .bss.m_originator_adv_packet_buffer
                0x20004f00      0x100 mesh/core/libmesh_core_nrf52840_xxAA.a(core_tx_adv.c.obj)
 .bss.m_relay_adv_packet_buffer
                0x20005000       0x80 mesh/core/libmesh_core_nrf52840_xxAA.a(core_tx_adv.c.obj)
 .bss.m_subscribers
                0x20005080        0x4 mesh/core/libmesh_core_nrf52840_xxAA.a(ad_listener.c.obj)
 .bss.m_adtype_filter
                0x20005084       0x38 mesh/core/libmesh_core_nrf52840_xxAA.a(ad_type_filter.c.obj)
 .bss.m_adv_prng
                0x200050bc       0x10 mesh/core/libmesh_core_nrf52840_xxAA.a(advertiser.c.obj)
 .bss.m_action_queue
                0x200050cc        0x8 mesh/core/libmesh_core_nrf52840_xxAA.a(bearer_handler.c.obj)
 .bss.m_end_time
                0x200050d4        0x4 mesh/core/libmesh_core_nrf52840_xxAA.a(bearer_handler.c.obj)
 .bss.m_scanner_is_active
                0x200050d8        0x1 mesh/core/libmesh_core_nrf52840_xxAA.a(bearer_handler.c.obj)
 .bss.m_stopped
                0x200050d9        0x1 mesh/core/libmesh_core_nrf52840_xxAA.a(bearer_handler.c.obj)
 *fill*         0x200050da        0x2 
 .bss.mp_action
                0x200050dc        0x4 mesh/core/libmesh_core_nrf52840_xxAA.a(bearer_handler.c.obj)
 .bss.m_next_channel_index
                0x200050e0        0x1 mesh/core/libmesh_core_nrf52840_xxAA.a(broadcast.c.obj)
 *fill*         0x200050e1        0x3 
 .bss.m_accepted_amount
                0x200050e4        0x4 mesh/core/libmesh_core_nrf52840_xxAA.a(filter_engine.c.obj)
 .bss.m_filter_list_head
                0x200050e8        0x4 mesh/core/libmesh_core_nrf52840_xxAA.a(filter_engine.c.obj)
 .bss.m_scanner
                0x200050ec      0x28c mesh/core/libmesh_core_nrf52840_xxAA.a(scanner.c.obj)
 .bss.m_msg_cache
                0x20005378      0x100 mesh/core/libmesh_core_nrf52840_xxAA.a(msg_cache.c.obj)
 .bss.m_msg_cache_head
                0x20005478        0x4 mesh/core/libmesh_core_nrf52840_xxAA.a(msg_cache.c.obj)
 .bss.m_control_packet_consumer_count
                0x2000547c        0x4 mesh/core/libmesh_core_nrf52840_xxAA.a(transport.c.obj)
 .bss.m_control_packet_consumers
                0x20005480        0x8 mesh/core/libmesh_core_nrf52840_xxAA.a(transport.c.obj)
 .bss.m_sar_alloc
                0x20005488        0x4 mesh/core/libmesh_core_nrf52840_xxAA.a(transport.c.obj)
 .bss.m_sar_process_flag
                0x2000548c        0x4 mesh/core/libmesh_core_nrf52840_xxAA.a(transport.c.obj)
 .bss.m_sar_release
                0x20005490        0x4 mesh/core/libmesh_core_nrf52840_xxAA.a(transport.c.obj)
 .bss.m_sar_session_cache
                0x20005494       0x40 mesh/core/libmesh_core_nrf52840_xxAA.a(transport.c.obj)
 .bss.m_sar_session_cache_head
                0x200054d4        0x4 mesh/core/libmesh_core_nrf52840_xxAA.a(transport.c.obj)
 .bss.m_trs_config
                0x200054d8       0x18 mesh/core/libmesh_core_nrf52840_xxAA.a(transport.c.obj)
 .bss.m_trs_sar_sessions
                0x200054f0      0x1b0 mesh/core/libmesh_core_nrf52840_xxAA.a(transport.c.obj)
 .bss.m_defrag  0x200056a0       0x1c mesh/core/libmesh_core_nrf52840_xxAA.a(flash_manager_defrag.c.obj)
 .bss.m_token   0x200056bc        0x2 mesh/core/libmesh_core_nrf52840_xxAA.a(flash_manager_defrag.c.obj)
 *fill*         0x200056be        0x2 
 .bss.mp_recovery_area
                0x200056c0        0x4 mesh/core/libmesh_core_nrf52840_xxAA.a(flash_manager_defrag.c.obj)
 .bss.p_null_ptr.10340
                0x200056c4        0x4 mesh/core/libmesh_core_nrf52840_xxAA.a(flash_manager_defrag.c.obj)
 .bss.m_pool    0x200056c8     0x1000 mesh/core/libmesh_core_nrf52840_xxAA.a(packet_mgr.c.obj)
 .bss.mp_free_head
                0x200066c8        0x4 mesh/core/libmesh_core_nrf52840_xxAA.a(packet_mgr.c.obj)
 .bss.m_128buf  0x200066cc       0x10 mesh/core/libmesh_core_nrf52840_xxAA.a(aes_cmac.c.obj)
 .bss.m_subkey1
                0x200066dc       0x10 mesh/core/libmesh_core_nrf52840_xxAA.a(aes_cmac.c.obj)
 .bss.m_subkey2
                0x200066ec       0x10 mesh/core/libmesh_core_nrf52840_xxAA.a(aes_cmac.c.obj)
 .bss.m_cache_full
                0x200066fc        0x1 mesh/core/libmesh_core_nrf52840_xxAA.a(replay_cache.c.obj)
 .bss.m_cache_index
                0x200066fd        0x1 mesh/core/libmesh_core_nrf52840_xxAA.a(replay_cache.c.obj)
 *fill*         0x200066fe        0x2 
 .bss.m_replay_cache
                0x20006700      0x200 mesh/core/libmesh_core_nrf52840_xxAA.a(replay_cache.c.obj)
 .bss._acDownBuffer
                0x20006900       0x80 external/rtt/librtt_nrf52840_xxAA.a(SEGGER_RTT.c.obj)
 .bss._acUpBuffer
                0x20006980      0x400 external/rtt/librtt_nrf52840_xxAA.a(SEGGER_RTT.c.obj)
 .bss.__malloc_free_list
                0x20006d80        0x4 c:/a/gcc_arm/6/bin/../lib/gcc/arm-none-eabi/6.3.1/../../../../arm-none-eabi/lib/thumb/v7e-m/fpv4-sp/hard\libg_nano.a(lib_a-nano-mallocr.o)
                0x20006d80                __malloc_free_list
 .bss.__malloc_sbrk_start
                0x20006d84        0x4 c:/a/gcc_arm/6/bin/../lib/gcc/arm-none-eabi/6.3.1/../../../../arm-none-eabi/lib/thumb/v7e-m/fpv4-sp/hard\libg_nano.a(lib_a-nano-mallocr.o)
                0x20006d84                __malloc_sbrk_start
 .bss.heap_end.5239
                0x20006d88        0x4 c:/a/gcc_arm/6/bin/../lib/gcc/arm-none-eabi/6.3.1/../../../../arm-none-eabi/lib/thumb/v7e-m/fpv4-sp/hard\libnosys.a(sbrk.o)
 *(COMMON)
 COMMON         0x20006d8c        0x8 examples/dfu/CMakeFiles/dfu_nrf52840_xxAA_s140_5.0.0-3.alpha.dir/src/main.c.obj
                0x20006d8c                bank_addr
                0x20006d90                rom_length
 COMMON         0x20006d94        0xc examples/dfu/CMakeFiles/dfu_nrf52840_xxAA_s140_5.0.0-3.alpha.dir/__/nrf_mesh_sdk.c.obj
                0x20006d94                nrf_nvic_state
 COMMON         0x20006da0        0x4 examples/dfu/CMakeFiles/dfu_nrf52840_xxAA_s140_5.0.0-3.alpha.dir/__/__/mesh/dfu/src/nrf_mesh_dfu.c.obj
                0x20006da0                m_cmd_handler
 COMMON         0x20006da4        0x4 mesh/core/libmesh_core_nrf52840_xxAA.a(nrf_mesh.c.obj)
                0x20006da4                m_assertion_handler
 COMMON         0x20006da8       0x78 external/rtt/librtt_nrf52840_xxAA.a(SEGGER_RTT.c.obj)
                0x20006da8                _SEGGER_RTT
 COMMON         0x20006e20        0x4 c:/a/gcc_arm/6/bin/../lib/gcc/arm-none-eabi/6.3.1/../../../../arm-none-eabi/lib/thumb/v7e-m/fpv4-sp/hard\libg_nano.a(lib_a-reent.o)
                0x20006e20                errno
                0x20006e24                . = ALIGN (0x4)
                0x20006e24                __bss_end__ = .

.heap           0x20006e28     0x2000
                0x20006e28                __HeapBase = .
                0x20006e28                __end__ = .
                0x20006e28                PROVIDE (end, .)
 *(.heap*)
 .heap          0x20006e28     0x2000 examples/dfu/CMakeFiles/dfu_nrf52840_xxAA_s140_5.0.0-3.alpha.dir/__/__/external/nRF5_SDK_14.2.0_17b948a/components/toolchain/gcc/gcc_startup_nrf52840.S.obj
                0x20008e28                __HeapLimit = .

.stack_dummy    0x20006e28     0x2000
 *(.stack*)
 .stack         0x20006e28     0x2000 examples/dfu/CMakeFiles/dfu_nrf52840_xxAA_s140_5.0.0-3.alpha.dir/__/__/external/nRF5_SDK_14.2.0_17b948a/components/toolchain/gcc/gcc_startup_nrf52840.S.obj
                0x2003fd00                __StackTop = (ORIGIN (RAM) + LENGTH (RAM))
                0x2003dd00                __StackLimit = (__StackTop - SIZEOF (.stack_dummy))
                0x2003fd00                PROVIDE (__stack, __StackTop)
                0x00000001                ASSERT ((__StackLimit >= __HeapLimit), region RAM overflowed with stack)
                0x00000110                DataInitFlashUsed = (__bss_start__ - __data_start__)
                0x0001347c                CodeFlashUsed = (__etext - ORIGIN (FLASH))
                0x0001358c                TotalFlashUsed = (CodeFlashUsed + DataInitFlashUsed)
                0x00000001                ASSERT ((TotalFlashUsed <= LENGTH (FLASH)), region FLASH overflowed with .data and user data)
OUTPUT(examples\dfu\dfu_nrf52840_xxAA_s140_5.0.0-3.alpha.elf elf32-littlearm)

.ARM.attributes
                0x00000000       0x30
 .ARM.attributes
                0x00000000       0x22 c:/a/gcc_arm/6/bin/../lib/gcc/arm-none-eabi/6.3.1/thumb/v7e-m/fpv4-sp/hard/crti.o
 .ARM.attributes
                0x00000022       0x34 c:/a/gcc_arm/6/bin/../lib/gcc/arm-none-eabi/6.3.1/thumb/v7e-m/fpv4-sp/hard/crtbegin.o
 .ARM.attributes
                0x00000056       0x20 c:/a/gcc_arm/6/bin/../lib/gcc/arm-none-eabi/6.3.1/../../../../arm-none-eabi/lib/thumb/v7e-m/fpv4-sp/hard/crt0.o
 .ARM.attributes
                0x00000076       0x39 examples/dfu/CMakeFiles/dfu_nrf52840_xxAA_s140_5.0.0-3.alpha.dir/src/main.c.obj
 .ARM.attributes
                0x000000af       0x39 examples/dfu/CMakeFiles/dfu_nrf52840_xxAA_s140_5.0.0-3.alpha.dir/__/nrf_mesh_sdk.c.obj
 .ARM.attributes
                0x000000e8       0x39 examples/dfu/CMakeFiles/dfu_nrf52840_xxAA_s140_5.0.0-3.alpha.dir/__/__/mesh/access/src/access_publish.c.obj
 .ARM.attributes
                0x00000121       0x39 examples/dfu/CMakeFiles/dfu_nrf52840_xxAA_s140_5.0.0-3.alpha.dir/__/__/mesh/access/src/access.c.obj
 .ARM.attributes
                0x0000015a       0x39 examples/dfu/CMakeFiles/dfu_nrf52840_xxAA_s140_5.0.0-3.alpha.dir/__/__/mesh/access/src/access_reliable.c.obj
 .ARM.attributes
                0x00000193       0x39 examples/dfu/CMakeFiles/dfu_nrf52840_xxAA_s140_5.0.0-3.alpha.dir/__/__/mesh/access/src/device_state_manager.c.obj
 .ARM.attributes
                0x000001cc       0x39 examples/dfu/CMakeFiles/dfu_nrf52840_xxAA_s140_5.0.0-3.alpha.dir/__/__/mesh/serial/src/serial_uart.c.obj
 .ARM.attributes
                0x00000205       0x39 examples/dfu/CMakeFiles/dfu_nrf52840_xxAA_s140_5.0.0-3.alpha.dir/__/__/mesh/serial/src/serial_bearer.c.obj
 .ARM.attributes
                0x0000023e       0x39 examples/dfu/CMakeFiles/dfu_nrf52840_xxAA_s140_5.0.0-3.alpha.dir/__/__/mesh/serial/src/serial_handler_common.c.obj
 .ARM.attributes
                0x00000277       0x39 examples/dfu/CMakeFiles/dfu_nrf52840_xxAA_s140_5.0.0-3.alpha.dir/__/__/mesh/serial/src/serial_handler_access.c.obj
 .ARM.attributes
                0x000002b0       0x39 examples/dfu/CMakeFiles/dfu_nrf52840_xxAA_s140_5.0.0-3.alpha.dir/__/__/mesh/serial/src/serial_handler_config.c.obj
 .ARM.attributes
                0x000002e9       0x39 examples/dfu/CMakeFiles/dfu_nrf52840_xxAA_s140_5.0.0-3.alpha.dir/__/__/mesh/serial/src/serial_handler_openmesh.c.obj
 .ARM.attributes
                0x00000322       0x39 examples/dfu/CMakeFiles/dfu_nrf52840_xxAA_s140_5.0.0-3.alpha.dir/__/__/mesh/serial/src/serial.c.obj
 .ARM.attributes
                0x0000035b       0x39 examples/dfu/CMakeFiles/dfu_nrf52840_xxAA_s140_5.0.0-3.alpha.dir/__/__/mesh/serial/src/serial_handler_prov.c.obj
 .ARM.attributes
                0x00000394       0x39 examples/dfu/CMakeFiles/dfu_nrf52840_xxAA_s140_5.0.0-3.alpha.dir/__/__/mesh/serial/src/serial_handler_dfu.c.obj
 .ARM.attributes
                0x000003cd       0x39 examples/dfu/CMakeFiles/dfu_nrf52840_xxAA_s140_5.0.0-3.alpha.dir/__/__/mesh/serial/src/serial_handler_mesh.c.obj
 .ARM.attributes
                0x00000406       0x39 examples/dfu/CMakeFiles/dfu_nrf52840_xxAA_s140_5.0.0-3.alpha.dir/__/__/mesh/serial/src/serial_handler_models.c.obj
 .ARM.attributes
                0x0000043f       0x39 examples/dfu/CMakeFiles/dfu_nrf52840_xxAA_s140_5.0.0-3.alpha.dir/__/__/mesh/serial/src/serial_handler_device.c.obj
 .ARM.attributes
                0x00000478       0x39 examples/dfu/CMakeFiles/dfu_nrf52840_xxAA_s140_5.0.0-3.alpha.dir/__/__/mesh/serial/src/nrf_mesh_serial.c.obj
 .ARM.attributes
                0x000004b1       0x39 examples/dfu/CMakeFiles/dfu_nrf52840_xxAA_s140_5.0.0-3.alpha.dir/__/__/mesh/serial/src/serial_handler_app.c.obj
 .ARM.attributes
                0x000004ea       0x39 examples/dfu/CMakeFiles/dfu_nrf52840_xxAA_s140_5.0.0-3.alpha.dir/__/__/mesh/prov/src/prov_provisioner.c.obj
 .ARM.attributes
                0x00000523       0x39 examples/dfu/CMakeFiles/dfu_nrf52840_xxAA_s140_5.0.0-3.alpha.dir/__/__/mesh/prov/src/prov_provisionee.c.obj
 .ARM.attributes
                0x0000055c       0x39 examples/dfu/CMakeFiles/dfu_nrf52840_xxAA_s140_5.0.0-3.alpha.dir/__/__/mesh/prov/src/nrf_mesh_prov.c.obj
 .ARM.attributes
                0x00000595       0x39 examples/dfu/CMakeFiles/dfu_nrf52840_xxAA_s140_5.0.0-3.alpha.dir/__/__/mesh/prov/src/provisioning.c.obj
 .ARM.attributes
                0x000005ce       0x39 examples/dfu/CMakeFiles/dfu_nrf52840_xxAA_s140_5.0.0-3.alpha.dir/__/__/mesh/prov/src/prov_beacon.c.obj
 .ARM.attributes
                0x00000607       0x39 examples/dfu/CMakeFiles/dfu_nrf52840_xxAA_s140_5.0.0-3.alpha.dir/__/__/mesh/prov/src/prov_utils.c.obj
 .ARM.attributes
                0x00000640       0x39 examples/dfu/CMakeFiles/dfu_nrf52840_xxAA_s140_5.0.0-3.alpha.dir/__/__/mesh/prov/src/prov_bearer_adv.c.obj
 .ARM.attributes
                0x00000679       0x39 examples/dfu/CMakeFiles/dfu_nrf52840_xxAA_s140_5.0.0-3.alpha.dir/__/__/mesh/dfu/src/nrf_mesh_dfu.c.obj
 .ARM.attributes
                0x000006b2       0x39 examples/dfu/CMakeFiles/dfu_nrf52840_xxAA_s140_5.0.0-3.alpha.dir/__/__/external/nRF5_SDK_14.2.0_17b948a/components/toolchain/system_nrf52840.c.obj
 .ARM.attributes
                0x000006eb       0x20 examples/dfu/CMakeFiles/dfu_nrf52840_xxAA_s140_5.0.0-3.alpha.dir/__/__/external/nRF5_SDK_14.2.0_17b948a/components/toolchain/gcc/gcc_startup_nrf52840.S.obj
 .ARM.attributes
                0x0000070b       0x39 mesh/core/libmesh_core_nrf52840_xxAA.a(internal_event.c.obj)
 .ARM.attributes
                0x00000744       0x39 mesh/core/libmesh_core_nrf52840_xxAA.a(nrf_mesh_configure.c.obj)
 .ARM.attributes
                0x0000077d       0x39 mesh/core/libmesh_core_nrf52840_xxAA.a(event.c.obj)
 .ARM.attributes
                0x000007b6       0x39 mesh/core/libmesh_core_nrf52840_xxAA.a(packet_buffer.c.obj)
 .ARM.attributes
                0x000007ef       0x39 mesh/core/libmesh_core_nrf52840_xxAA.a(fifo.c.obj)
 .ARM.attributes
                0x00000828       0x39 mesh/core/libmesh_core_nrf52840_xxAA.a(net_state.c.obj)
 .ARM.attributes
                0x00000861       0x39 mesh/core/libmesh_core_nrf52840_xxAA.a(mesh_flash.c.obj)
 .ARM.attributes
                0x0000089a       0x39 mesh/core/libmesh_core_nrf52840_xxAA.a(nrf_mesh_utils.c.obj)
 .ARM.attributes
                0x000008d3       0x39 mesh/core/libmesh_core_nrf52840_xxAA.a(nrf_mesh.c.obj)
 .ARM.attributes
                0x0000090c       0x39 mesh/core/libmesh_core_nrf52840_xxAA.a(hal.c.obj)
 .ARM.attributes
                0x00000945       0x39 mesh/core/libmesh_core_nrf52840_xxAA.a(timer_scheduler.c.obj)
 .ARM.attributes
                0x0000097e       0x39 mesh/core/libmesh_core_nrf52840_xxAA.a(timer.c.obj)
 .ARM.attributes
                0x000009b7       0x39 mesh/core/libmesh_core_nrf52840_xxAA.a(ticker.c.obj)
 .ARM.attributes
                0x000009f0       0x39 mesh/core/libmesh_core_nrf52840_xxAA.a(rand.c.obj)
 .ARM.attributes
                0x00000a29       0x39 mesh/core/libmesh_core_nrf52840_xxAA.a(timeslot.c.obj)
 .ARM.attributes
                0x00000a62       0x39 mesh/core/libmesh_core_nrf52840_xxAA.a(bearer_event.c.obj)
 .ARM.attributes
                0x00000a9b       0x39 mesh/core/libmesh_core_nrf52840_xxAA.a(enc.c.obj)
 .ARM.attributes
                0x00000ad4       0x39 mesh/core/libmesh_core_nrf52840_xxAA.a(network.c.obj)
 .ARM.attributes
                0x00000b0d       0x39 mesh/core/libmesh_core_nrf52840_xxAA.a(msqueue.c.obj)
 .ARM.attributes
                0x00000b46       0x39 mesh/core/libmesh_core_nrf52840_xxAA.a(nrf_mesh_keygen.c.obj)
 .ARM.attributes
                0x00000b7f       0x39 mesh/core/libmesh_core_nrf52840_xxAA.a(list.c.obj)
 .ARM.attributes
                0x00000bb8       0x39 mesh/core/libmesh_core_nrf52840_xxAA.a(log.c.obj)
 .ARM.attributes
                0x00000bf1       0x39 mesh/core/libmesh_core_nrf52840_xxAA.a(flash_manager.c.obj)
 .ARM.attributes
                0x00000c2a       0x39 mesh/core/libmesh_core_nrf52840_xxAA.a(ccm_soft.c.obj)
 .ARM.attributes
                0x00000c63       0x39 mesh/core/libmesh_core_nrf52840_xxAA.a(beacon.c.obj)
 .ARM.attributes
                0x00000c9c       0x39 mesh/core/libmesh_core_nrf52840_xxAA.a(flash_manager_internal.c.obj)
 .ARM.attributes
                0x00000cd5       0x39 mesh/core/libmesh_core_nrf52840_xxAA.a(core_tx.c.obj)
 .ARM.attributes
                0x00000d0e       0x39 mesh/core/libmesh_core_nrf52840_xxAA.a(heartbeat.c.obj)
 .ARM.attributes
                0x00000d47       0x39 mesh/core/libmesh_core_nrf52840_xxAA.a(net_beacon.c.obj)
 .ARM.attributes
                0x00000d80       0x39 mesh/core/libmesh_core_nrf52840_xxAA.a(core_tx_adv.c.obj)
 .ARM.attributes
                0x00000db9       0x39 mesh/core/libmesh_core_nrf52840_xxAA.a(ad_listener.c.obj)
 .ARM.attributes
                0x00000df2       0x39 mesh/core/libmesh_core_nrf52840_xxAA.a(ad_type_filter.c.obj)
 .ARM.attributes
                0x00000e2b       0x39 mesh/core/libmesh_core_nrf52840_xxAA.a(advertiser.c.obj)
 .ARM.attributes
                0x00000e64       0x39 mesh/core/libmesh_core_nrf52840_xxAA.a(bearer_handler.c.obj)
 .ARM.attributes
                0x00000e9d       0x39 mesh/core/libmesh_core_nrf52840_xxAA.a(broadcast.c.obj)
 .ARM.attributes
                0x00000ed6       0x39 mesh/core/libmesh_core_nrf52840_xxAA.a(filter_engine.c.obj)
 .ARM.attributes
                0x00000f0f       0x39 mesh/core/libmesh_core_nrf52840_xxAA.a(radio_config.c.obj)
 .ARM.attributes
                0x00000f48       0x39 mesh/core/libmesh_core_nrf52840_xxAA.a(scanner.c.obj)
 .ARM.attributes
                0x00000f81       0x39 mesh/core/libmesh_core_nrf52840_xxAA.a(aes.c.obj)
 .ARM.attributes
                0x00000fba       0x39 mesh/core/libmesh_core_nrf52840_xxAA.a(msg_cache.c.obj)
 .ARM.attributes
                0x00000ff3       0x39 mesh/core/libmesh_core_nrf52840_xxAA.a(transport.c.obj)
 .ARM.attributes
                0x0000102c       0x39 mesh/core/libmesh_core_nrf52840_xxAA.a(flash_manager_defrag.c.obj)
 .ARM.attributes
                0x00001065       0x39 mesh/core/libmesh_core_nrf52840_xxAA.a(nrf_flash.c.obj)
 .ARM.attributes
                0x0000109e       0x39 mesh/core/libmesh_core_nrf52840_xxAA.a(packet_mgr.c.obj)
 .ARM.attributes
                0x000010d7       0x39 mesh/core/libmesh_core_nrf52840_xxAA.a(queue.c.obj)
 .ARM.attributes
                0x00001110       0x39 mesh/core/libmesh_core_nrf52840_xxAA.a(aes_cmac.c.obj)
 .ARM.attributes
                0x00001149       0x39 mesh/core/libmesh_core_nrf52840_xxAA.a(nrf_mesh_opt.c.obj)
 .ARM.attributes
                0x00001182       0x39 mesh/core/libmesh_core_nrf52840_xxAA.a(replay_cache.c.obj)
 .ARM.attributes
                0x000011bb       0x39 external/rtt/librtt_nrf52840_xxAA.a(SEGGER_RTT.c.obj)
 .ARM.attributes
                0x000011f4       0x39 external/rtt/librtt_nrf52840_xxAA.a(SEGGER_RTT_printf.c.obj)
 .ARM.attributes
                0x0000122d       0x39 external/micro-ecc/libuECC_nrf52840_xxAA.a(uECC.c.obj)
 .ARM.attributes
                0x00001266       0x34 c:/a/gcc_arm/6/bin/../lib/gcc/arm-none-eabi/6.3.1/../../../../arm-none-eabi/lib/thumb/v7e-m/fpv4-sp/hard\libg_nano.a(lib_a-exit.o)
 .ARM.attributes
                0x0000129a       0x34 c:/a/gcc_arm/6/bin/../lib/gcc/arm-none-eabi/6.3.1/../../../../arm-none-eabi/lib/thumb/v7e-m/fpv4-sp/hard\libg_nano.a(lib_a-impure.o)
 .ARM.attributes
                0x000012ce       0x34 c:/a/gcc_arm/6/bin/../lib/gcc/arm-none-eabi/6.3.1/../../../../arm-none-eabi/lib/thumb/v7e-m/fpv4-sp/hard\libg_nano.a(lib_a-init.o)
 .ARM.attributes
                0x00001302       0x34 c:/a/gcc_arm/6/bin/../lib/gcc/arm-none-eabi/6.3.1/../../../../arm-none-eabi/lib/thumb/v7e-m/fpv4-sp/hard\libg_nano.a(lib_a-malloc.o)
 .ARM.attributes
                0x00001336       0x34 c:/a/gcc_arm/6/bin/../lib/gcc/arm-none-eabi/6.3.1/../../../../arm-none-eabi/lib/thumb/v7e-m/fpv4-sp/hard\libg_nano.a(lib_a-memcmp.o)
 .ARM.attributes
                0x0000136a       0x34 c:/a/gcc_arm/6/bin/../lib/gcc/arm-none-eabi/6.3.1/../../../../arm-none-eabi/lib/thumb/v7e-m/fpv4-sp/hard\libg_nano.a(lib_a-memcpy-stub.o)
 .ARM.attributes
                0x0000139e       0x34 c:/a/gcc_arm/6/bin/../lib/gcc/arm-none-eabi/6.3.1/../../../../arm-none-eabi/lib/thumb/v7e-m/fpv4-sp/hard\libg_nano.a(lib_a-memset.o)
 .ARM.attributes
                0x000013d2       0x34 c:/a/gcc_arm/6/bin/../lib/gcc/arm-none-eabi/6.3.1/../../../../arm-none-eabi/lib/thumb/v7e-m/fpv4-sp/hard\libg_nano.a(lib_a-nano-freer.o)
 .ARM.attributes
                0x00001406       0x34 c:/a/gcc_arm/6/bin/../lib/gcc/arm-none-eabi/6.3.1/../../../../arm-none-eabi/lib/thumb/v7e-m/fpv4-sp/hard\libg_nano.a(lib_a-nano-mallocr.o)
 .ARM.attributes
                0x0000143a       0x34 c:/a/gcc_arm/6/bin/../lib/gcc/arm-none-eabi/6.3.1/../../../../arm-none-eabi/lib/thumb/v7e-m/fpv4-sp/hard\libg_nano.a(lib_a-sbrkr.o)
 .ARM.attributes
                0x0000146e       0x34 c:/a/gcc_arm/6/bin/../lib/gcc/arm-none-eabi/6.3.1/../../../../arm-none-eabi/lib/thumb/v7e-m/fpv4-sp/hard\libg_nano.a(lib_a-strcpy.o)
 .ARM.attributes
                0x000014a2       0x1b c:/a/gcc_arm/6/bin/../lib/gcc/arm-none-eabi/6.3.1/../../../../arm-none-eabi/lib/thumb/v7e-m/fpv4-sp/hard\libg_nano.a(lib_a-strlen.o)
 .ARM.attributes
                0x000014bd       0x34 c:/a/gcc_arm/6/bin/../lib/gcc/arm-none-eabi/6.3.1/../../../../arm-none-eabi/lib/thumb/v7e-m/fpv4-sp/hard\libg_nano.a(lib_a-strrchr.o)
 .ARM.attributes
                0x000014f1       0x34 c:/a/gcc_arm/6/bin/../lib/gcc/arm-none-eabi/6.3.1/../../../../arm-none-eabi/lib/thumb/v7e-m/fpv4-sp/hard\libg_nano.a(lib_a-mlock.o)
 .ARM.attributes
                0x00001525       0x34 c:/a/gcc_arm/6/bin/../lib/gcc/arm-none-eabi/6.3.1/../../../../arm-none-eabi/lib/thumb/v7e-m/fpv4-sp/hard\libg_nano.a(lib_a-reent.o)
 .ARM.attributes
                0x00001559       0x34 c:/a/gcc_arm/6/bin/../lib/gcc/arm-none-eabi/6.3.1/../../../../arm-none-eabi/lib/thumb/v7e-m/fpv4-sp/hard\libg_nano.a(lib_a-strchr.o)
 .ARM.attributes
                0x0000158d       0x34 c:/a/gcc_arm/6/bin/../lib/gcc/arm-none-eabi/6.3.1/thumb/v7e-m/fpv4-sp/hard/crtend.o
 .ARM.attributes
                0x000015c1       0x22 c:/a/gcc_arm/6/bin/../lib/gcc/arm-none-eabi/6.3.1/thumb/v7e-m/fpv4-sp/hard/crtn.o
 .ARM.attributes
                0x000015e3       0x34 c:/a/gcc_arm/6/bin/../lib/gcc/arm-none-eabi/6.3.1/../../../../arm-none-eabi/lib/thumb/v7e-m/fpv4-sp/hard\libnosys.a(sbrk.o)
 .ARM.attributes
                0x00001617       0x34 c:/a/gcc_arm/6/bin/../lib/gcc/arm-none-eabi/6.3.1/../../../../arm-none-eabi/lib/thumb/v7e-m/fpv4-sp/hard\libnosys.a(_exit.o)

.comment        0x00000000       0x7f
 .comment       0x00000000       0x7f examples/dfu/CMakeFiles/dfu_nrf52840_xxAA_s140_5.0.0-3.alpha.dir/src/main.c.obj
                                 0x80 (size before relaxing)
 .comment       0x0000007f       0x80 examples/dfu/CMakeFiles/dfu_nrf52840_xxAA_s140_5.0.0-3.alpha.dir/__/nrf_mesh_sdk.c.obj
 .comment       0x0000007f       0x80 examples/dfu/CMakeFiles/dfu_nrf52840_xxAA_s140_5.0.0-3.alpha.dir/__/__/mesh/access/src/access_publish.c.obj
 .comment       0x0000007f       0x80 examples/dfu/CMakeFiles/dfu_nrf52840_xxAA_s140_5.0.0-3.alpha.dir/__/__/mesh/access/src/access.c.obj
 .comment       0x0000007f       0x80 examples/dfu/CMakeFiles/dfu_nrf52840_xxAA_s140_5.0.0-3.alpha.dir/__/__/mesh/access/src/access_reliable.c.obj
 .comment       0x0000007f       0x80 examples/dfu/CMakeFiles/dfu_nrf52840_xxAA_s140_5.0.0-3.alpha.dir/__/__/mesh/access/src/device_state_manager.c.obj
 .comment       0x0000007f       0x80 examples/dfu/CMakeFiles/dfu_nrf52840_xxAA_s140_5.0.0-3.alpha.dir/__/__/mesh/serial/src/serial_uart.c.obj
 .comment       0x0000007f       0x80 examples/dfu/CMakeFiles/dfu_nrf52840_xxAA_s140_5.0.0-3.alpha.dir/__/__/mesh/serial/src/serial_bearer.c.obj
 .comment       0x0000007f       0x80 examples/dfu/CMakeFiles/dfu_nrf52840_xxAA_s140_5.0.0-3.alpha.dir/__/__/mesh/serial/src/serial_handler_common.c.obj
 .comment       0x0000007f       0x80 examples/dfu/CMakeFiles/dfu_nrf52840_xxAA_s140_5.0.0-3.alpha.dir/__/__/mesh/serial/src/serial_handler_access.c.obj
 .comment       0x0000007f       0x80 examples/dfu/CMakeFiles/dfu_nrf52840_xxAA_s140_5.0.0-3.alpha.dir/__/__/mesh/serial/src/serial_handler_config.c.obj
 .comment       0x0000007f       0x80 examples/dfu/CMakeFiles/dfu_nrf52840_xxAA_s140_5.0.0-3.alpha.dir/__/__/mesh/serial/src/serial_handler_openmesh.c.obj
 .comment       0x0000007f       0x80 examples/dfu/CMakeFiles/dfu_nrf52840_xxAA_s140_5.0.0-3.alpha.dir/__/__/mesh/serial/src/serial.c.obj
 .comment       0x0000007f       0x80 examples/dfu/CMakeFiles/dfu_nrf52840_xxAA_s140_5.0.0-3.alpha.dir/__/__/mesh/serial/src/serial_handler_prov.c.obj
 .comment       0x0000007f       0x80 examples/dfu/CMakeFiles/dfu_nrf52840_xxAA_s140_5.0.0-3.alpha.dir/__/__/mesh/serial/src/serial_handler_dfu.c.obj
 .comment       0x0000007f       0x80 examples/dfu/CMakeFiles/dfu_nrf52840_xxAA_s140_5.0.0-3.alpha.dir/__/__/mesh/serial/src/serial_handler_mesh.c.obj
 .comment       0x0000007f       0x80 examples/dfu/CMakeFiles/dfu_nrf52840_xxAA_s140_5.0.0-3.alpha.dir/__/__/mesh/serial/src/serial_handler_models.c.obj
 .comment       0x0000007f       0x80 examples/dfu/CMakeFiles/dfu_nrf52840_xxAA_s140_5.0.0-3.alpha.dir/__/__/mesh/serial/src/serial_handler_device.c.obj
 .comment       0x0000007f       0x80 examples/dfu/CMakeFiles/dfu_nrf52840_xxAA_s140_5.0.0-3.alpha.dir/__/__/mesh/serial/src/nrf_mesh_serial.c.obj
 .comment       0x0000007f       0x80 examples/dfu/CMakeFiles/dfu_nrf52840_xxAA_s140_5.0.0-3.alpha.dir/__/__/mesh/serial/src/serial_handler_app.c.obj
 .comment       0x0000007f       0x80 examples/dfu/CMakeFiles/dfu_nrf52840_xxAA_s140_5.0.0-3.alpha.dir/__/__/mesh/prov/src/prov_provisioner.c.obj
 .comment       0x0000007f       0x80 examples/dfu/CMakeFiles/dfu_nrf52840_xxAA_s140_5.0.0-3.alpha.dir/__/__/mesh/prov/src/prov_provisionee.c.obj
 .comment       0x0000007f       0x80 examples/dfu/CMakeFiles/dfu_nrf52840_xxAA_s140_5.0.0-3.alpha.dir/__/__/mesh/prov/src/nrf_mesh_prov.c.obj
 .comment       0x0000007f       0x80 examples/dfu/CMakeFiles/dfu_nrf52840_xxAA_s140_5.0.0-3.alpha.dir/__/__/mesh/prov/src/provisioning.c.obj
 .comment       0x0000007f       0x80 examples/dfu/CMakeFiles/dfu_nrf52840_xxAA_s140_5.0.0-3.alpha.dir/__/__/mesh/prov/src/prov_beacon.c.obj
 .comment       0x0000007f       0x80 examples/dfu/CMakeFiles/dfu_nrf52840_xxAA_s140_5.0.0-3.alpha.dir/__/__/mesh/prov/src/prov_utils.c.obj
 .comment       0x0000007f       0x80 examples/dfu/CMakeFiles/dfu_nrf52840_xxAA_s140_5.0.0-3.alpha.dir/__/__/mesh/prov/src/prov_bearer_adv.c.obj
 .comment       0x0000007f       0x80 examples/dfu/CMakeFiles/dfu_nrf52840_xxAA_s140_5.0.0-3.alpha.dir/__/__/mesh/dfu/src/nrf_mesh_dfu.c.obj
 .comment       0x0000007f       0x80 examples/dfu/CMakeFiles/dfu_nrf52840_xxAA_s140_5.0.0-3.alpha.dir/__/__/external/nRF5_SDK_14.2.0_17b948a/components/toolchain/system_nrf52840.c.obj
 .comment       0x0000007f       0x80 mesh/core/libmesh_core_nrf52840_xxAA.a(internal_event.c.obj)
 .comment       0x0000007f       0x80 mesh/core/libmesh_core_nrf52840_xxAA.a(nrf_mesh_configure.c.obj)
 .comment       0x0000007f       0x80 mesh/core/libmesh_core_nrf52840_xxAA.a(event.c.obj)
 .comment       0x0000007f       0x80 mesh/core/libmesh_core_nrf52840_xxAA.a(packet_buffer.c.obj)
 .comment       0x0000007f       0x80 mesh/core/libmesh_core_nrf52840_xxAA.a(fifo.c.obj)
 .comment       0x0000007f       0x80 mesh/core/libmesh_core_nrf52840_xxAA.a(net_state.c.obj)
 .comment       0x0000007f       0x80 mesh/core/libmesh_core_nrf52840_xxAA.a(mesh_flash.c.obj)
 .comment       0x0000007f       0x80 mesh/core/libmesh_core_nrf52840_xxAA.a(nrf_mesh_utils.c.obj)
 .comment       0x0000007f       0x80 mesh/core/libmesh_core_nrf52840_xxAA.a(nrf_mesh.c.obj)
 .comment       0x0000007f       0x80 mesh/core/libmesh_core_nrf52840_xxAA.a(hal.c.obj)
 .comment       0x0000007f       0x80 mesh/core/libmesh_core_nrf52840_xxAA.a(timer_scheduler.c.obj)
 .comment       0x0000007f       0x80 mesh/core/libmesh_core_nrf52840_xxAA.a(timer.c.obj)
 .comment       0x0000007f       0x80 mesh/core/libmesh_core_nrf52840_xxAA.a(ticker.c.obj)
 .comment       0x0000007f       0x80 mesh/core/libmesh_core_nrf52840_xxAA.a(rand.c.obj)
 .comment       0x0000007f       0x80 mesh/core/libmesh_core_nrf52840_xxAA.a(timeslot.c.obj)
 .comment       0x0000007f       0x80 mesh/core/libmesh_core_nrf52840_xxAA.a(bearer_event.c.obj)
 .comment       0x0000007f       0x80 mesh/core/libmesh_core_nrf52840_xxAA.a(enc.c.obj)
 .comment       0x0000007f       0x80 mesh/core/libmesh_core_nrf52840_xxAA.a(network.c.obj)
 .comment       0x0000007f       0x80 mesh/core/libmesh_core_nrf52840_xxAA.a(msqueue.c.obj)
 .comment       0x0000007f       0x80 mesh/core/libmesh_core_nrf52840_xxAA.a(nrf_mesh_keygen.c.obj)
 .comment       0x0000007f       0x80 mesh/core/libmesh_core_nrf52840_xxAA.a(list.c.obj)
 .comment       0x0000007f       0x80 mesh/core/libmesh_core_nrf52840_xxAA.a(log.c.obj)
 .comment       0x0000007f       0x80 mesh/core/libmesh_core_nrf52840_xxAA.a(flash_manager.c.obj)
 .comment       0x0000007f       0x80 mesh/core/libmesh_core_nrf52840_xxAA.a(ccm_soft.c.obj)
 .comment       0x0000007f       0x80 mesh/core/libmesh_core_nrf52840_xxAA.a(beacon.c.obj)
 .comment       0x0000007f       0x80 mesh/core/libmesh_core_nrf52840_xxAA.a(flash_manager_internal.c.obj)
 .comment       0x0000007f       0x80 mesh/core/libmesh_core_nrf52840_xxAA.a(core_tx.c.obj)
 .comment       0x0000007f       0x80 mesh/core/libmesh_core_nrf52840_xxAA.a(heartbeat.c.obj)
 .comment       0x0000007f       0x80 mesh/core/libmesh_core_nrf52840_xxAA.a(net_beacon.c.obj)
 .comment       0x0000007f       0x80 mesh/core/libmesh_core_nrf52840_xxAA.a(core_tx_adv.c.obj)
 .comment       0x0000007f       0x80 mesh/core/libmesh_core_nrf52840_xxAA.a(ad_listener.c.obj)
 .comment       0x0000007f       0x80 mesh/core/libmesh_core_nrf52840_xxAA.a(ad_type_filter.c.obj)
 .comment       0x0000007f       0x80 mesh/core/libmesh_core_nrf52840_xxAA.a(advertiser.c.obj)
 .comment       0x0000007f       0x80 mesh/core/libmesh_core_nrf52840_xxAA.a(bearer_handler.c.obj)
 .comment       0x0000007f       0x80 mesh/core/libmesh_core_nrf52840_xxAA.a(broadcast.c.obj)
 .comment       0x0000007f       0x80 mesh/core/libmesh_core_nrf52840_xxAA.a(filter_engine.c.obj)
 .comment       0x0000007f       0x80 mesh/core/libmesh_core_nrf52840_xxAA.a(radio_config.c.obj)
 .comment       0x0000007f       0x80 mesh/core/libmesh_core_nrf52840_xxAA.a(scanner.c.obj)
 .comment       0x0000007f       0x80 mesh/core/libmesh_core_nrf52840_xxAA.a(aes.c.obj)
 .comment       0x0000007f       0x80 mesh/core/libmesh_core_nrf52840_xxAA.a(msg_cache.c.obj)
 .comment       0x0000007f       0x80 mesh/core/libmesh_core_nrf52840_xxAA.a(transport.c.obj)
 .comment       0x0000007f       0x80 mesh/core/libmesh_core_nrf52840_xxAA.a(flash_manager_defrag.c.obj)
 .comment       0x0000007f       0x80 mesh/core/libmesh_core_nrf52840_xxAA.a(nrf_flash.c.obj)
 .comment       0x0000007f       0x80 mesh/core/libmesh_core_nrf52840_xxAA.a(packet_mgr.c.obj)
 .comment       0x0000007f       0x80 mesh/core/libmesh_core_nrf52840_xxAA.a(queue.c.obj)
 .comment       0x0000007f       0x80 mesh/core/libmesh_core_nrf52840_xxAA.a(aes_cmac.c.obj)
 .comment       0x0000007f       0x80 mesh/core/libmesh_core_nrf52840_xxAA.a(nrf_mesh_opt.c.obj)
 .comment       0x0000007f       0x80 mesh/core/libmesh_core_nrf52840_xxAA.a(replay_cache.c.obj)
 .comment       0x0000007f       0x80 external/rtt/librtt_nrf52840_xxAA.a(SEGGER_RTT.c.obj)
 .comment       0x0000007f       0x80 external/rtt/librtt_nrf52840_xxAA.a(SEGGER_RTT_printf.c.obj)
 .comment       0x0000007f       0x80 external/micro-ecc/libuECC_nrf52840_xxAA.a(uECC.c.obj)

.debug_info     0x00000000    0x96817
 .debug_info    0x00000000     0x22b6 examples/dfu/CMakeFiles/dfu_nrf52840_xxAA_s140_5.0.0-3.alpha.dir/src/main.c.obj
 .debug_info    0x000022b6     0x327b examples/dfu/CMakeFiles/dfu_nrf52840_xxAA_s140_5.0.0-3.alpha.dir/__/nrf_mesh_sdk.c.obj
 .debug_info    0x00005531     0x112b examples/dfu/CMakeFiles/dfu_nrf52840_xxAA_s140_5.0.0-3.alpha.dir/__/__/mesh/access/src/access_publish.c.obj
 .debug_info    0x0000665c     0x4474 examples/dfu/CMakeFiles/dfu_nrf52840_xxAA_s140_5.0.0-3.alpha.dir/__/__/mesh/access/src/access.c.obj
 .debug_info    0x0000aad0     0x1537 examples/dfu/CMakeFiles/dfu_nrf52840_xxAA_s140_5.0.0-3.alpha.dir/__/__/mesh/access/src/access_reliable.c.obj
 .debug_info    0x0000c007     0x5f3d examples/dfu/CMakeFiles/dfu_nrf52840_xxAA_s140_5.0.0-3.alpha.dir/__/__/mesh/access/src/device_state_manager.c.obj
 .debug_info    0x00011f44     0x12b6 examples/dfu/CMakeFiles/dfu_nrf52840_xxAA_s140_5.0.0-3.alpha.dir/__/__/mesh/serial/src/serial_uart.c.obj
 .debug_info    0x000131fa     0x3769 examples/dfu/CMakeFiles/dfu_nrf52840_xxAA_s140_5.0.0-3.alpha.dir/__/__/mesh/serial/src/serial_bearer.c.obj
 .debug_info    0x00016963     0x28c2 examples/dfu/CMakeFiles/dfu_nrf52840_xxAA_s140_5.0.0-3.alpha.dir/__/__/mesh/serial/src/serial_handler_common.c.obj
 .debug_info    0x00019225     0x32e1 examples/dfu/CMakeFiles/dfu_nrf52840_xxAA_s140_5.0.0-3.alpha.dir/__/__/mesh/serial/src/serial_handler_access.c.obj
 .debug_info    0x0001c506     0x28ad examples/dfu/CMakeFiles/dfu_nrf52840_xxAA_s140_5.0.0-3.alpha.dir/__/__/mesh/serial/src/serial_handler_config.c.obj
 .debug_info    0x0001edb3     0x27db examples/dfu/CMakeFiles/dfu_nrf52840_xxAA_s140_5.0.0-3.alpha.dir/__/__/mesh/serial/src/serial_handler_openmesh.c.obj
 .debug_info    0x0002158e     0x3342 examples/dfu/CMakeFiles/dfu_nrf52840_xxAA_s140_5.0.0-3.alpha.dir/__/__/mesh/serial/src/serial.c.obj
 .debug_info    0x000248d0     0x480d examples/dfu/CMakeFiles/dfu_nrf52840_xxAA_s140_5.0.0-3.alpha.dir/__/__/mesh/serial/src/serial_handler_prov.c.obj
 .debug_info    0x000290dd     0x3615 examples/dfu/CMakeFiles/dfu_nrf52840_xxAA_s140_5.0.0-3.alpha.dir/__/__/mesh/serial/src/serial_handler_dfu.c.obj
 .debug_info    0x0002c6f2     0x42ae examples/dfu/CMakeFiles/dfu_nrf52840_xxAA_s140_5.0.0-3.alpha.dir/__/__/mesh/serial/src/serial_handler_mesh.c.obj
 .debug_info    0x000309a0     0x2cdd examples/dfu/CMakeFiles/dfu_nrf52840_xxAA_s140_5.0.0-3.alpha.dir/__/__/mesh/serial/src/serial_handler_models.c.obj
 .debug_info    0x0003367d     0x35d4 examples/dfu/CMakeFiles/dfu_nrf52840_xxAA_s140_5.0.0-3.alpha.dir/__/__/mesh/serial/src/serial_handler_device.c.obj
 .debug_info    0x00036c51     0x2985 examples/dfu/CMakeFiles/dfu_nrf52840_xxAA_s140_5.0.0-3.alpha.dir/__/__/mesh/serial/src/nrf_mesh_serial.c.obj
 .debug_info    0x000395d6     0x27f6 examples/dfu/CMakeFiles/dfu_nrf52840_xxAA_s140_5.0.0-3.alpha.dir/__/__/mesh/serial/src/serial_handler_app.c.obj
 .debug_info    0x0003bdcc     0x2348 examples/dfu/CMakeFiles/dfu_nrf52840_xxAA_s140_5.0.0-3.alpha.dir/__/__/mesh/prov/src/prov_provisioner.c.obj
 .debug_info    0x0003e114     0x26c7 examples/dfu/CMakeFiles/dfu_nrf52840_xxAA_s140_5.0.0-3.alpha.dir/__/__/mesh/prov/src/prov_provisionee.c.obj
 .debug_info    0x000407db     0x1be9 examples/dfu/CMakeFiles/dfu_nrf52840_xxAA_s140_5.0.0-3.alpha.dir/__/__/mesh/prov/src/nrf_mesh_prov.c.obj
 .debug_info    0x000423c4     0x1588 examples/dfu/CMakeFiles/dfu_nrf52840_xxAA_s140_5.0.0-3.alpha.dir/__/__/mesh/prov/src/provisioning.c.obj
 .debug_info    0x0004394c     0x19a2 examples/dfu/CMakeFiles/dfu_nrf52840_xxAA_s140_5.0.0-3.alpha.dir/__/__/mesh/prov/src/prov_beacon.c.obj
 .debug_info    0x000452ee     0x2029 examples/dfu/CMakeFiles/dfu_nrf52840_xxAA_s140_5.0.0-3.alpha.dir/__/__/mesh/prov/src/prov_utils.c.obj
 .debug_info    0x00047317     0x3963 examples/dfu/CMakeFiles/dfu_nrf52840_xxAA_s140_5.0.0-3.alpha.dir/__/__/mesh/prov/src/prov_bearer_adv.c.obj
 .debug_info    0x0004ac7a     0x4e34 examples/dfu/CMakeFiles/dfu_nrf52840_xxAA_s140_5.0.0-3.alpha.dir/__/__/mesh/dfu/src/nrf_mesh_dfu.c.obj
 .debug_info    0x0004faae     0x12ef examples/dfu/CMakeFiles/dfu_nrf52840_xxAA_s140_5.0.0-3.alpha.dir/__/__/external/nRF5_SDK_14.2.0_17b948a/components/toolchain/system_nrf52840.c.obj
 .debug_info    0x00050d9d      0xc4e mesh/core/libmesh_core_nrf52840_xxAA.a(internal_event.c.obj)
 .debug_info    0x000519eb      0xd04 mesh/core/libmesh_core_nrf52840_xxAA.a(nrf_mesh_configure.c.obj)
 .debug_info    0x000526ef     0x1509 mesh/core/libmesh_core_nrf52840_xxAA.a(event.c.obj)
 .debug_info    0x00053bf8     0x1d81 mesh/core/libmesh_core_nrf52840_xxAA.a(packet_buffer.c.obj)
 .debug_info    0x00055979      0xd0e mesh/core/libmesh_core_nrf52840_xxAA.a(fifo.c.obj)
 .debug_info    0x00056687     0x23d7 mesh/core/libmesh_core_nrf52840_xxAA.a(net_state.c.obj)
 .debug_info    0x00058a5e     0x1887 mesh/core/libmesh_core_nrf52840_xxAA.a(mesh_flash.c.obj)
 .debug_info    0x0005a2e5      0xa87 mesh/core/libmesh_core_nrf52840_xxAA.a(nrf_mesh_utils.c.obj)
 .debug_info    0x0005ad6c     0x34e6 mesh/core/libmesh_core_nrf52840_xxAA.a(nrf_mesh.c.obj)
 .debug_info    0x0005e252      0x51d mesh/core/libmesh_core_nrf52840_xxAA.a(hal.c.obj)
 .debug_info    0x0005e76f     0x102a mesh/core/libmesh_core_nrf52840_xxAA.a(timer_scheduler.c.obj)
 .debug_info    0x0005f799      0xd9d mesh/core/libmesh_core_nrf52840_xxAA.a(timer.c.obj)
 .debug_info    0x00060536      0x20b mesh/core/libmesh_core_nrf52840_xxAA.a(ticker.c.obj)
 .debug_info    0x00060741      0x40f mesh/core/libmesh_core_nrf52840_xxAA.a(rand.c.obj)
 .debug_info    0x00060b50     0x1a2c mesh/core/libmesh_core_nrf52840_xxAA.a(timeslot.c.obj)
 .debug_info    0x0006257c     0x19fb mesh/core/libmesh_core_nrf52840_xxAA.a(bearer_event.c.obj)
 .debug_info    0x00063f77     0x164f mesh/core/libmesh_core_nrf52840_xxAA.a(enc.c.obj)
 .debug_info    0x000655c6     0x2aee mesh/core/libmesh_core_nrf52840_xxAA.a(network.c.obj)
 .debug_info    0x000680b4      0xd08 mesh/core/libmesh_core_nrf52840_xxAA.a(msqueue.c.obj)
 .debug_info    0x00068dbc      0x4c8 mesh/core/libmesh_core_nrf52840_xxAA.a(nrf_mesh_keygen.c.obj)
 .debug_info    0x00069284      0x48b mesh/core/libmesh_core_nrf52840_xxAA.a(list.c.obj)
 .debug_info    0x0006970f      0xe28 mesh/core/libmesh_core_nrf52840_xxAA.a(log.c.obj)
 .debug_info    0x0006a537     0x320c mesh/core/libmesh_core_nrf52840_xxAA.a(flash_manager.c.obj)
 .debug_info    0x0006d743     0x10a3 mesh/core/libmesh_core_nrf52840_xxAA.a(ccm_soft.c.obj)
 .debug_info    0x0006e7e6     0x193b mesh/core/libmesh_core_nrf52840_xxAA.a(beacon.c.obj)
 .debug_info    0x00070121      0xb99 mesh/core/libmesh_core_nrf52840_xxAA.a(flash_manager_internal.c.obj)
 .debug_info    0x00070cba      0xfb3 mesh/core/libmesh_core_nrf52840_xxAA.a(core_tx.c.obj)
 .debug_info    0x00071c6d     0x219a mesh/core/libmesh_core_nrf52840_xxAA.a(heartbeat.c.obj)
 .debug_info    0x00073e07     0x1511 mesh/core/libmesh_core_nrf52840_xxAA.a(net_beacon.c.obj)
 .debug_info    0x00075318     0x160b mesh/core/libmesh_core_nrf52840_xxAA.a(core_tx_adv.c.obj)
 .debug_info    0x00076923     0x1118 mesh/core/libmesh_core_nrf52840_xxAA.a(ad_listener.c.obj)
 .debug_info    0x00077a3b      0xfcd mesh/core/libmesh_core_nrf52840_xxAA.a(ad_type_filter.c.obj)
 .debug_info    0x00078a08     0x2448 mesh/core/libmesh_core_nrf52840_xxAA.a(advertiser.c.obj)
 .debug_info    0x0007ae50     0x1a6d mesh/core/libmesh_core_nrf52840_xxAA.a(bearer_handler.c.obj)
 .debug_info    0x0007c8bd     0x1ab4 mesh/core/libmesh_core_nrf52840_xxAA.a(broadcast.c.obj)
 .debug_info    0x0007e371      0xcf4 mesh/core/libmesh_core_nrf52840_xxAA.a(filter_engine.c.obj)
 .debug_info    0x0007f065      0x9c2 mesh/core/libmesh_core_nrf52840_xxAA.a(radio_config.c.obj)
 .debug_info    0x0007fa27     0x271f mesh/core/libmesh_core_nrf52840_xxAA.a(scanner.c.obj)
 .debug_info    0x00082146      0xbcc mesh/core/libmesh_core_nrf52840_xxAA.a(aes.c.obj)
 .debug_info    0x00082d12      0xa81 mesh/core/libmesh_core_nrf52840_xxAA.a(msg_cache.c.obj)
 .debug_info    0x00083793     0x54fa mesh/core/libmesh_core_nrf52840_xxAA.a(transport.c.obj)
 .debug_info    0x00088c8d     0x23a1 mesh/core/libmesh_core_nrf52840_xxAA.a(flash_manager_defrag.c.obj)
 .debug_info    0x0008b02e      0xb63 mesh/core/libmesh_core_nrf52840_xxAA.a(nrf_flash.c.obj)
 .debug_info    0x0008bb91     0x115b mesh/core/libmesh_core_nrf52840_xxAA.a(packet_mgr.c.obj)
 .debug_info    0x0008ccec      0xaf2 mesh/core/libmesh_core_nrf52840_xxAA.a(queue.c.obj)
 .debug_info    0x0008d7de      0xe48 mesh/core/libmesh_core_nrf52840_xxAA.a(aes_cmac.c.obj)
 .debug_info    0x0008e626      0xb1c mesh/core/libmesh_core_nrf52840_xxAA.a(nrf_mesh_opt.c.obj)
 .debug_info    0x0008f142      0xaeb mesh/core/libmesh_core_nrf52840_xxAA.a(replay_cache.c.obj)
 .debug_info    0x0008fc2d     0x1818 external/rtt/librtt_nrf52840_xxAA.a(SEGGER_RTT.c.obj)
 .debug_info    0x00091445      0xec1 external/rtt/librtt_nrf52840_xxAA.a(SEGGER_RTT_printf.c.obj)
 .debug_info    0x00092306     0x4511 external/micro-ecc/libuECC_nrf52840_xxAA.a(uECC.c.obj)

.debug_abbrev   0x00000000    0x11780
 .debug_abbrev  0x00000000      0x45f examples/dfu/CMakeFiles/dfu_nrf52840_xxAA_s140_5.0.0-3.alpha.dir/src/main.c.obj
 .debug_abbrev  0x0000045f      0x486 examples/dfu/CMakeFiles/dfu_nrf52840_xxAA_s140_5.0.0-3.alpha.dir/__/nrf_mesh_sdk.c.obj
 .debug_abbrev  0x000008e5      0x460 examples/dfu/CMakeFiles/dfu_nrf52840_xxAA_s140_5.0.0-3.alpha.dir/__/__/mesh/access/src/access_publish.c.obj
 .debug_abbrev  0x00000d45      0x68e examples/dfu/CMakeFiles/dfu_nrf52840_xxAA_s140_5.0.0-3.alpha.dir/__/__/mesh/access/src/access.c.obj
 .debug_abbrev  0x000013d3      0x433 examples/dfu/CMakeFiles/dfu_nrf52840_xxAA_s140_5.0.0-3.alpha.dir/__/__/mesh/access/src/access_reliable.c.obj
 .debug_abbrev  0x00001806      0x647 examples/dfu/CMakeFiles/dfu_nrf52840_xxAA_s140_5.0.0-3.alpha.dir/__/__/mesh/access/src/device_state_manager.c.obj
 .debug_abbrev  0x00001e4d      0x2c1 examples/dfu/CMakeFiles/dfu_nrf52840_xxAA_s140_5.0.0-3.alpha.dir/__/__/mesh/serial/src/serial_uart.c.obj
 .debug_abbrev  0x0000210e      0x4df examples/dfu/CMakeFiles/dfu_nrf52840_xxAA_s140_5.0.0-3.alpha.dir/__/__/mesh/serial/src/serial_bearer.c.obj
 .debug_abbrev  0x000025ed      0x24f examples/dfu/CMakeFiles/dfu_nrf52840_xxAA_s140_5.0.0-3.alpha.dir/__/__/mesh/serial/src/serial_handler_common.c.obj
 .debug_abbrev  0x0000283c      0x2cb examples/dfu/CMakeFiles/dfu_nrf52840_xxAA_s140_5.0.0-3.alpha.dir/__/__/mesh/serial/src/serial_handler_access.c.obj
 .debug_abbrev  0x00002b07      0x28f examples/dfu/CMakeFiles/dfu_nrf52840_xxAA_s140_5.0.0-3.alpha.dir/__/__/mesh/serial/src/serial_handler_config.c.obj
 .debug_abbrev  0x00002d96      0x245 examples/dfu/CMakeFiles/dfu_nrf52840_xxAA_s140_5.0.0-3.alpha.dir/__/__/mesh/serial/src/serial_handler_openmesh.c.obj
 .debug_abbrev  0x00002fdb      0x399 examples/dfu/CMakeFiles/dfu_nrf52840_xxAA_s140_5.0.0-3.alpha.dir/__/__/mesh/serial/src/serial.c.obj
 .debug_abbrev  0x00003374      0x3d0 examples/dfu/CMakeFiles/dfu_nrf52840_xxAA_s140_5.0.0-3.alpha.dir/__/__/mesh/serial/src/serial_handler_prov.c.obj
 .debug_abbrev  0x00003744      0x32c examples/dfu/CMakeFiles/dfu_nrf52840_xxAA_s140_5.0.0-3.alpha.dir/__/__/mesh/serial/src/serial_handler_dfu.c.obj
 .debug_abbrev  0x00003a70      0x3e2 examples/dfu/CMakeFiles/dfu_nrf52840_xxAA_s140_5.0.0-3.alpha.dir/__/__/mesh/serial/src/serial_handler_mesh.c.obj
 .debug_abbrev  0x00003e52      0x316 examples/dfu/CMakeFiles/dfu_nrf52840_xxAA_s140_5.0.0-3.alpha.dir/__/__/mesh/serial/src/serial_handler_models.c.obj
 .debug_abbrev  0x00004168      0x396 examples/dfu/CMakeFiles/dfu_nrf52840_xxAA_s140_5.0.0-3.alpha.dir/__/__/mesh/serial/src/serial_handler_device.c.obj
 .debug_abbrev  0x000044fe      0x2a2 examples/dfu/CMakeFiles/dfu_nrf52840_xxAA_s140_5.0.0-3.alpha.dir/__/__/mesh/serial/src/nrf_mesh_serial.c.obj
 .debug_abbrev  0x000047a0      0x23c examples/dfu/CMakeFiles/dfu_nrf52840_xxAA_s140_5.0.0-3.alpha.dir/__/__/mesh/serial/src/serial_handler_app.c.obj
 .debug_abbrev  0x000049dc      0x3dd examples/dfu/CMakeFiles/dfu_nrf52840_xxAA_s140_5.0.0-3.alpha.dir/__/__/mesh/prov/src/prov_provisioner.c.obj
 .debug_abbrev  0x00004db9      0x476 examples/dfu/CMakeFiles/dfu_nrf52840_xxAA_s140_5.0.0-3.alpha.dir/__/__/mesh/prov/src/prov_provisionee.c.obj
 .debug_abbrev  0x0000522f      0x335 examples/dfu/CMakeFiles/dfu_nrf52840_xxAA_s140_5.0.0-3.alpha.dir/__/__/mesh/prov/src/nrf_mesh_prov.c.obj
 .debug_abbrev  0x00005564      0x29c examples/dfu/CMakeFiles/dfu_nrf52840_xxAA_s140_5.0.0-3.alpha.dir/__/__/mesh/prov/src/provisioning.c.obj
 .debug_abbrev  0x00005800      0x2c8 examples/dfu/CMakeFiles/dfu_nrf52840_xxAA_s140_5.0.0-3.alpha.dir/__/__/mesh/prov/src/prov_beacon.c.obj
 .debug_abbrev  0x00005ac8      0x3d4 examples/dfu/CMakeFiles/dfu_nrf52840_xxAA_s140_5.0.0-3.alpha.dir/__/__/mesh/prov/src/prov_utils.c.obj
 .debug_abbrev  0x00005e9c      0x50e examples/dfu/CMakeFiles/dfu_nrf52840_xxAA_s140_5.0.0-3.alpha.dir/__/__/mesh/prov/src/prov_bearer_adv.c.obj
 .debug_abbrev  0x000063aa      0x58d examples/dfu/CMakeFiles/dfu_nrf52840_xxAA_s140_5.0.0-3.alpha.dir/__/__/mesh/dfu/src/nrf_mesh_dfu.c.obj
 .debug_abbrev  0x00006937      0x1e2 examples/dfu/CMakeFiles/dfu_nrf52840_xxAA_s140_5.0.0-3.alpha.dir/__/__/external/nRF5_SDK_14.2.0_17b948a/components/toolchain/system_nrf52840.c.obj
 .debug_abbrev  0x00006b19      0x26d mesh/core/libmesh_core_nrf52840_xxAA.a(internal_event.c.obj)
 .debug_abbrev  0x00006d86      0x24b mesh/core/libmesh_core_nrf52840_xxAA.a(nrf_mesh_configure.c.obj)
 .debug_abbrev  0x00006fd1      0x2a2 mesh/core/libmesh_core_nrf52840_xxAA.a(event.c.obj)
 .debug_abbrev  0x00007273      0x49a mesh/core/libmesh_core_nrf52840_xxAA.a(packet_buffer.c.obj)
 .debug_abbrev  0x0000770d      0x301 mesh/core/libmesh_core_nrf52840_xxAA.a(fifo.c.obj)
 .debug_abbrev  0x00007a0e      0x55b mesh/core/libmesh_core_nrf52840_xxAA.a(net_state.c.obj)
 .debug_abbrev  0x00007f69      0x478 mesh/core/libmesh_core_nrf52840_xxAA.a(mesh_flash.c.obj)
 .debug_abbrev  0x000083e1      0x25a mesh/core/libmesh_core_nrf52840_xxAA.a(nrf_mesh_utils.c.obj)
 .debug_abbrev  0x0000863b      0x467 mesh/core/libmesh_core_nrf52840_xxAA.a(nrf_mesh.c.obj)
 .debug_abbrev  0x00008aa2      0x1e8 mesh/core/libmesh_core_nrf52840_xxAA.a(hal.c.obj)
 .debug_abbrev  0x00008c8a      0x3bf mesh/core/libmesh_core_nrf52840_xxAA.a(timer_scheduler.c.obj)
 .debug_abbrev  0x00009049      0x346 mesh/core/libmesh_core_nrf52840_xxAA.a(timer.c.obj)
 .debug_abbrev  0x0000938f      0x152 mesh/core/libmesh_core_nrf52840_xxAA.a(ticker.c.obj)
 .debug_abbrev  0x000094e1      0x1d2 mesh/core/libmesh_core_nrf52840_xxAA.a(rand.c.obj)
 .debug_abbrev  0x000096b3      0x4db mesh/core/libmesh_core_nrf52840_xxAA.a(timeslot.c.obj)
 .debug_abbrev  0x00009b8e      0x4b3 mesh/core/libmesh_core_nrf52840_xxAA.a(bearer_event.c.obj)
 .debug_abbrev  0x0000a041      0x37e mesh/core/libmesh_core_nrf52840_xxAA.a(enc.c.obj)
 .debug_abbrev  0x0000a3bf      0x52c mesh/core/libmesh_core_nrf52840_xxAA.a(network.c.obj)
 .debug_abbrev  0x0000a8eb      0x29c mesh/core/libmesh_core_nrf52840_xxAA.a(msqueue.c.obj)
 .debug_abbrev  0x0000ab87      0x163 mesh/core/libmesh_core_nrf52840_xxAA.a(nrf_mesh_keygen.c.obj)
 .debug_abbrev  0x0000acea      0x18e mesh/core/libmesh_core_nrf52840_xxAA.a(list.c.obj)
 .debug_abbrev  0x0000ae78      0x24e mesh/core/libmesh_core_nrf52840_xxAA.a(log.c.obj)
 .debug_abbrev  0x0000b0c6      0x5c2 mesh/core/libmesh_core_nrf52840_xxAA.a(flash_manager.c.obj)
 .debug_abbrev  0x0000b688      0x2b3 mesh/core/libmesh_core_nrf52840_xxAA.a(ccm_soft.c.obj)
 .debug_abbrev  0x0000b93b      0x38c mesh/core/libmesh_core_nrf52840_xxAA.a(beacon.c.obj)
 .debug_abbrev  0x0000bcc7      0x28a mesh/core/libmesh_core_nrf52840_xxAA.a(flash_manager_internal.c.obj)
 .debug_abbrev  0x0000bf51      0x32c mesh/core/libmesh_core_nrf52840_xxAA.a(core_tx.c.obj)
 .debug_abbrev  0x0000c27d      0x4c9 mesh/core/libmesh_core_nrf52840_xxAA.a(heartbeat.c.obj)
 .debug_abbrev  0x0000c746      0x3cc mesh/core/libmesh_core_nrf52840_xxAA.a(net_beacon.c.obj)
 .debug_abbrev  0x0000cb12      0x32c mesh/core/libmesh_core_nrf52840_xxAA.a(core_tx_adv.c.obj)
 .debug_abbrev  0x0000ce3e      0x341 mesh/core/libmesh_core_nrf52840_xxAA.a(ad_listener.c.obj)
 .debug_abbrev  0x0000d17f      0x377 mesh/core/libmesh_core_nrf52840_xxAA.a(ad_type_filter.c.obj)
 .debug_abbrev  0x0000d4f6      0x4fe mesh/core/libmesh_core_nrf52840_xxAA.a(advertiser.c.obj)
 .debug_abbrev  0x0000d9f4      0x40d mesh/core/libmesh_core_nrf52840_xxAA.a(bearer_handler.c.obj)
 .debug_abbrev  0x0000de01      0x3b4 mesh/core/libmesh_core_nrf52840_xxAA.a(broadcast.c.obj)
 .debug_abbrev  0x0000e1b5      0x299 mesh/core/libmesh_core_nrf52840_xxAA.a(filter_engine.c.obj)
 .debug_abbrev  0x0000e44e      0x1d9 mesh/core/libmesh_core_nrf52840_xxAA.a(radio_config.c.obj)
 .debug_abbrev  0x0000e627      0x582 mesh/core/libmesh_core_nrf52840_xxAA.a(scanner.c.obj)
 .debug_abbrev  0x0000eba9      0x264 mesh/core/libmesh_core_nrf52840_xxAA.a(aes.c.obj)
 .debug_abbrev  0x0000ee0d      0x25d mesh/core/libmesh_core_nrf52840_xxAA.a(msg_cache.c.obj)
 .debug_abbrev  0x0000f06a      0x629 mesh/core/libmesh_core_nrf52840_xxAA.a(transport.c.obj)
 .debug_abbrev  0x0000f693      0x558 mesh/core/libmesh_core_nrf52840_xxAA.a(flash_manager_defrag.c.obj)
 .debug_abbrev  0x0000fbeb      0x21f mesh/core/libmesh_core_nrf52840_xxAA.a(nrf_flash.c.obj)
 .debug_abbrev  0x0000fe0a      0x3d1 mesh/core/libmesh_core_nrf52840_xxAA.a(packet_mgr.c.obj)
 .debug_abbrev  0x000101db      0x227 mesh/core/libmesh_core_nrf52840_xxAA.a(queue.c.obj)
 .debug_abbrev  0x00010402      0x332 mesh/core/libmesh_core_nrf52840_xxAA.a(aes_cmac.c.obj)
 .debug_abbrev  0x00010734      0x24a mesh/core/libmesh_core_nrf52840_xxAA.a(nrf_mesh_opt.c.obj)
 .debug_abbrev  0x0001097e      0x277 mesh/core/libmesh_core_nrf52840_xxAA.a(replay_cache.c.obj)
 .debug_abbrev  0x00010bf5      0x3a9 external/rtt/librtt_nrf52840_xxAA.a(SEGGER_RTT.c.obj)
 .debug_abbrev  0x00010f9e      0x32e external/rtt/librtt_nrf52840_xxAA.a(SEGGER_RTT_printf.c.obj)
 .debug_abbrev  0x000112cc      0x4b4 external/micro-ecc/libuECC_nrf52840_xxAA.a(uECC.c.obj)

.debug_loc      0x00000000    0x22b99
 .debug_loc     0x00000000      0x334 examples/dfu/CMakeFiles/dfu_nrf52840_xxAA_s140_5.0.0-3.alpha.dir/src/main.c.obj
 .debug_loc     0x00000334      0x30c examples/dfu/CMakeFiles/dfu_nrf52840_xxAA_s140_5.0.0-3.alpha.dir/__/nrf_mesh_sdk.c.obj
 .debug_loc     0x00000640      0x577 examples/dfu/CMakeFiles/dfu_nrf52840_xxAA_s140_5.0.0-3.alpha.dir/__/__/mesh/access/src/access_publish.c.obj
 .debug_loc     0x00000bb7     0x2219 examples/dfu/CMakeFiles/dfu_nrf52840_xxAA_s140_5.0.0-3.alpha.dir/__/__/mesh/access/src/access.c.obj
 .debug_loc     0x00002dd0      0x8c4 examples/dfu/CMakeFiles/dfu_nrf52840_xxAA_s140_5.0.0-3.alpha.dir/__/__/mesh/access/src/access_reliable.c.obj
 .debug_loc     0x00003694     0x3b5d examples/dfu/CMakeFiles/dfu_nrf52840_xxAA_s140_5.0.0-3.alpha.dir/__/__/mesh/access/src/device_state_manager.c.obj
 .debug_loc     0x000071f1       0xa2 examples/dfu/CMakeFiles/dfu_nrf52840_xxAA_s140_5.0.0-3.alpha.dir/__/__/mesh/serial/src/serial_uart.c.obj
 .debug_loc     0x00007293      0x428 examples/dfu/CMakeFiles/dfu_nrf52840_xxAA_s140_5.0.0-3.alpha.dir/__/__/mesh/serial/src/serial_bearer.c.obj
 .debug_loc     0x000076bb      0x1f1 examples/dfu/CMakeFiles/dfu_nrf52840_xxAA_s140_5.0.0-3.alpha.dir/__/__/mesh/serial/src/serial_handler_common.c.obj
 .debug_loc     0x000078ac      0x75e examples/dfu/CMakeFiles/dfu_nrf52840_xxAA_s140_5.0.0-3.alpha.dir/__/__/mesh/serial/src/serial_handler_access.c.obj
 .debug_loc     0x0000800a       0x3c examples/dfu/CMakeFiles/dfu_nrf52840_xxAA_s140_5.0.0-3.alpha.dir/__/__/mesh/serial/src/serial_handler_config.c.obj
 .debug_loc     0x00008046       0x4a examples/dfu/CMakeFiles/dfu_nrf52840_xxAA_s140_5.0.0-3.alpha.dir/__/__/mesh/serial/src/serial_handler_openmesh.c.obj
 .debug_loc     0x00008090      0x3ce examples/dfu/CMakeFiles/dfu_nrf52840_xxAA_s140_5.0.0-3.alpha.dir/__/__/mesh/serial/src/serial.c.obj
 .debug_loc     0x0000845e      0x621 examples/dfu/CMakeFiles/dfu_nrf52840_xxAA_s140_5.0.0-3.alpha.dir/__/__/mesh/serial/src/serial_handler_prov.c.obj
 .debug_loc     0x00008a7f      0x2c4 examples/dfu/CMakeFiles/dfu_nrf52840_xxAA_s140_5.0.0-3.alpha.dir/__/__/mesh/serial/src/serial_handler_dfu.c.obj
 .debug_loc     0x00008d43      0x7fe examples/dfu/CMakeFiles/dfu_nrf52840_xxAA_s140_5.0.0-3.alpha.dir/__/__/mesh/serial/src/serial_handler_mesh.c.obj
 .debug_loc     0x00009541      0x316 examples/dfu/CMakeFiles/dfu_nrf52840_xxAA_s140_5.0.0-3.alpha.dir/__/__/mesh/serial/src/serial_handler_models.c.obj
 .debug_loc     0x00009857      0x3a3 examples/dfu/CMakeFiles/dfu_nrf52840_xxAA_s140_5.0.0-3.alpha.dir/__/__/mesh/serial/src/serial_handler_device.c.obj
 .debug_loc     0x00009bfa       0xac examples/dfu/CMakeFiles/dfu_nrf52840_xxAA_s140_5.0.0-3.alpha.dir/__/__/mesh/serial/src/nrf_mesh_serial.c.obj
 .debug_loc     0x00009ca6       0x37 examples/dfu/CMakeFiles/dfu_nrf52840_xxAA_s140_5.0.0-3.alpha.dir/__/__/mesh/serial/src/serial_handler_app.c.obj
 .debug_loc     0x00009cdd      0x6a4 examples/dfu/CMakeFiles/dfu_nrf52840_xxAA_s140_5.0.0-3.alpha.dir/__/__/mesh/prov/src/prov_provisioner.c.obj
 .debug_loc     0x0000a381      0x6ad examples/dfu/CMakeFiles/dfu_nrf52840_xxAA_s140_5.0.0-3.alpha.dir/__/__/mesh/prov/src/prov_provisionee.c.obj
 .debug_loc     0x0000aa2e      0x7c0 examples/dfu/CMakeFiles/dfu_nrf52840_xxAA_s140_5.0.0-3.alpha.dir/__/__/mesh/prov/src/nrf_mesh_prov.c.obj
 .debug_loc     0x0000b1ee      0x4e0 examples/dfu/CMakeFiles/dfu_nrf52840_xxAA_s140_5.0.0-3.alpha.dir/__/__/mesh/prov/src/provisioning.c.obj
 .debug_loc     0x0000b6ce      0x1cd examples/dfu/CMakeFiles/dfu_nrf52840_xxAA_s140_5.0.0-3.alpha.dir/__/__/mesh/prov/src/prov_beacon.c.obj
 .debug_loc     0x0000b89b      0x42c examples/dfu/CMakeFiles/dfu_nrf52840_xxAA_s140_5.0.0-3.alpha.dir/__/__/mesh/prov/src/prov_utils.c.obj
 .debug_loc     0x0000bcc7     0x175a examples/dfu/CMakeFiles/dfu_nrf52840_xxAA_s140_5.0.0-3.alpha.dir/__/__/mesh/prov/src/prov_bearer_adv.c.obj
 .debug_loc     0x0000d421      0xc38 examples/dfu/CMakeFiles/dfu_nrf52840_xxAA_s140_5.0.0-3.alpha.dir/__/__/mesh/dfu/src/nrf_mesh_dfu.c.obj
 .debug_loc     0x0000e059       0xc9 mesh/core/libmesh_core_nrf52840_xxAA.a(internal_event.c.obj)
 .debug_loc     0x0000e122       0x2c mesh/core/libmesh_core_nrf52840_xxAA.a(nrf_mesh_configure.c.obj)
 .debug_loc     0x0000e14e      0x136 mesh/core/libmesh_core_nrf52840_xxAA.a(event.c.obj)
 .debug_loc     0x0000e284      0xf93 mesh/core/libmesh_core_nrf52840_xxAA.a(packet_buffer.c.obj)
 .debug_loc     0x0000f217      0x517 mesh/core/libmesh_core_nrf52840_xxAA.a(fifo.c.obj)
 .debug_loc     0x0000f72e      0x758 mesh/core/libmesh_core_nrf52840_xxAA.a(net_state.c.obj)
 .debug_loc     0x0000fe86      0xa35 mesh/core/libmesh_core_nrf52840_xxAA.a(mesh_flash.c.obj)
 .debug_loc     0x000108bb      0x11c mesh/core/libmesh_core_nrf52840_xxAA.a(nrf_mesh_utils.c.obj)
 .debug_loc     0x000109d7      0x4d7 mesh/core/libmesh_core_nrf52840_xxAA.a(nrf_mesh.c.obj)
 .debug_loc     0x00010eae       0x63 mesh/core/libmesh_core_nrf52840_xxAA.a(hal.c.obj)
 .debug_loc     0x00010f11      0x3b9 mesh/core/libmesh_core_nrf52840_xxAA.a(timer_scheduler.c.obj)
 .debug_loc     0x000112ca      0x60f mesh/core/libmesh_core_nrf52840_xxAA.a(timer.c.obj)
 .debug_loc     0x000118d9      0x190 mesh/core/libmesh_core_nrf52840_xxAA.a(rand.c.obj)
 .debug_loc     0x00011a69      0x370 mesh/core/libmesh_core_nrf52840_xxAA.a(timeslot.c.obj)
 .debug_loc     0x00011dd9      0x647 mesh/core/libmesh_core_nrf52840_xxAA.a(bearer_event.c.obj)
 .debug_loc     0x00012420      0x960 mesh/core/libmesh_core_nrf52840_xxAA.a(enc.c.obj)
 .debug_loc     0x00012d80     0x10e7 mesh/core/libmesh_core_nrf52840_xxAA.a(network.c.obj)
 .debug_loc     0x00013e67      0x3e5 mesh/core/libmesh_core_nrf52840_xxAA.a(msqueue.c.obj)
 .debug_loc     0x0001424c      0x1ee mesh/core/libmesh_core_nrf52840_xxAA.a(nrf_mesh_keygen.c.obj)
 .debug_loc     0x0001443a      0x541 mesh/core/libmesh_core_nrf52840_xxAA.a(list.c.obj)
 .debug_loc     0x0001497b      0x348 mesh/core/libmesh_core_nrf52840_xxAA.a(log.c.obj)
 .debug_loc     0x00014cc3     0x1784 mesh/core/libmesh_core_nrf52840_xxAA.a(flash_manager.c.obj)
 .debug_loc     0x00016447      0x371 mesh/core/libmesh_core_nrf52840_xxAA.a(ccm_soft.c.obj)
 .debug_loc     0x000167b8      0x527 mesh/core/libmesh_core_nrf52840_xxAA.a(beacon.c.obj)
 .debug_loc     0x00016cdf      0x130 mesh/core/libmesh_core_nrf52840_xxAA.a(flash_manager_internal.c.obj)
 .debug_loc     0x00016e0f      0x639 mesh/core/libmesh_core_nrf52840_xxAA.a(core_tx.c.obj)
 .debug_loc     0x00017448      0x644 mesh/core/libmesh_core_nrf52840_xxAA.a(heartbeat.c.obj)
 .debug_loc     0x00017a8c      0x3fe mesh/core/libmesh_core_nrf52840_xxAA.a(net_beacon.c.obj)
 .debug_loc     0x00017e8a      0x3fa mesh/core/libmesh_core_nrf52840_xxAA.a(core_tx_adv.c.obj)
 .debug_loc     0x00018284      0x42e mesh/core/libmesh_core_nrf52840_xxAA.a(ad_listener.c.obj)
 .debug_loc     0x000186b2      0x3b9 mesh/core/libmesh_core_nrf52840_xxAA.a(ad_type_filter.c.obj)
 .debug_loc     0x00018a6b      0xedd mesh/core/libmesh_core_nrf52840_xxAA.a(advertiser.c.obj)
 .debug_loc     0x00019948      0x42d mesh/core/libmesh_core_nrf52840_xxAA.a(bearer_handler.c.obj)
 .debug_loc     0x00019d75      0x377 mesh/core/libmesh_core_nrf52840_xxAA.a(broadcast.c.obj)
 .debug_loc     0x0001a0ec      0x115 mesh/core/libmesh_core_nrf52840_xxAA.a(filter_engine.c.obj)
 .debug_loc     0x0001a201      0x28c mesh/core/libmesh_core_nrf52840_xxAA.a(radio_config.c.obj)
 .debug_loc     0x0001a48d      0x4f6 mesh/core/libmesh_core_nrf52840_xxAA.a(scanner.c.obj)
 .debug_loc     0x0001a983       0x89 mesh/core/libmesh_core_nrf52840_xxAA.a(aes.c.obj)
 .debug_loc     0x0001aa0c      0x10d mesh/core/libmesh_core_nrf52840_xxAA.a(msg_cache.c.obj)
 .debug_loc     0x0001ab19     0x28ef mesh/core/libmesh_core_nrf52840_xxAA.a(transport.c.obj)
 .debug_loc     0x0001d408      0x8ee mesh/core/libmesh_core_nrf52840_xxAA.a(flash_manager_defrag.c.obj)
 .debug_loc     0x0001dcf6      0x17a mesh/core/libmesh_core_nrf52840_xxAA.a(nrf_flash.c.obj)
 .debug_loc     0x0001de70      0x6d7 mesh/core/libmesh_core_nrf52840_xxAA.a(packet_mgr.c.obj)
 .debug_loc     0x0001e547      0x186 mesh/core/libmesh_core_nrf52840_xxAA.a(queue.c.obj)
 .debug_loc     0x0001e6cd      0x3f8 mesh/core/libmesh_core_nrf52840_xxAA.a(aes_cmac.c.obj)
 .debug_loc     0x0001eac5      0x194 mesh/core/libmesh_core_nrf52840_xxAA.a(nrf_mesh_opt.c.obj)
 .debug_loc     0x0001ec59      0x1c6 mesh/core/libmesh_core_nrf52840_xxAA.a(replay_cache.c.obj)
 .debug_loc     0x0001ee1f     0x1222 external/rtt/librtt_nrf52840_xxAA.a(SEGGER_RTT.c.obj)
 .debug_loc     0x00020041      0x70f external/rtt/librtt_nrf52840_xxAA.a(SEGGER_RTT_printf.c.obj)
 .debug_loc     0x00020750     0x2449 external/micro-ecc/libuECC_nrf52840_xxAA.a(uECC.c.obj)

.debug_aranges  0x00000000     0x23a0
 .debug_aranges
                0x00000000       0x30 examples/dfu/CMakeFiles/dfu_nrf52840_xxAA_s140_5.0.0-3.alpha.dir/src/main.c.obj
 .debug_aranges
                0x00000030       0x80 examples/dfu/CMakeFiles/dfu_nrf52840_xxAA_s140_5.0.0-3.alpha.dir/__/nrf_mesh_sdk.c.obj
 .debug_aranges
                0x000000b0       0x50 examples/dfu/CMakeFiles/dfu_nrf52840_xxAA_s140_5.0.0-3.alpha.dir/__/__/mesh/access/src/access_publish.c.obj
 .debug_aranges
                0x00000100      0x1b0 examples/dfu/CMakeFiles/dfu_nrf52840_xxAA_s140_5.0.0-3.alpha.dir/__/__/mesh/access/src/access.c.obj
 .debug_aranges
                0x000002b0       0x50 examples/dfu/CMakeFiles/dfu_nrf52840_xxAA_s140_5.0.0-3.alpha.dir/__/__/mesh/access/src/access_reliable.c.obj
 .debug_aranges
                0x00000300      0x300 examples/dfu/CMakeFiles/dfu_nrf52840_xxAA_s140_5.0.0-3.alpha.dir/__/__/mesh/access/src/device_state_manager.c.obj
 .debug_aranges
                0x00000600       0x38 examples/dfu/CMakeFiles/dfu_nrf52840_xxAA_s140_5.0.0-3.alpha.dir/__/__/mesh/serial/src/serial_uart.c.obj
 .debug_aranges
                0x00000638       0x68 examples/dfu/CMakeFiles/dfu_nrf52840_xxAA_s140_5.0.0-3.alpha.dir/__/__/mesh/serial/src/serial_bearer.c.obj
 .debug_aranges
                0x000006a0       0x28 examples/dfu/CMakeFiles/dfu_nrf52840_xxAA_s140_5.0.0-3.alpha.dir/__/__/mesh/serial/src/serial_handler_common.c.obj
 .debug_aranges
                0x000006c8       0xd0 examples/dfu/CMakeFiles/dfu_nrf52840_xxAA_s140_5.0.0-3.alpha.dir/__/__/mesh/serial/src/serial_handler_access.c.obj
 .debug_aranges
                0x00000798       0x20 examples/dfu/CMakeFiles/dfu_nrf52840_xxAA_s140_5.0.0-3.alpha.dir/__/__/mesh/serial/src/serial_handler_config.c.obj
 .debug_aranges
                0x000007b8       0x20 examples/dfu/CMakeFiles/dfu_nrf52840_xxAA_s140_5.0.0-3.alpha.dir/__/__/mesh/serial/src/serial_handler_openmesh.c.obj
 .debug_aranges
                0x000007d8       0x60 examples/dfu/CMakeFiles/dfu_nrf52840_xxAA_s140_5.0.0-3.alpha.dir/__/__/mesh/serial/src/serial.c.obj
 .debug_aranges
                0x00000838       0x50 examples/dfu/CMakeFiles/dfu_nrf52840_xxAA_s140_5.0.0-3.alpha.dir/__/__/mesh/serial/src/serial_handler_prov.c.obj
 .debug_aranges
                0x00000888       0x30 examples/dfu/CMakeFiles/dfu_nrf52840_xxAA_s140_5.0.0-3.alpha.dir/__/__/mesh/serial/src/serial_handler_dfu.c.obj
 .debug_aranges
                0x000008b8      0x110 examples/dfu/CMakeFiles/dfu_nrf52840_xxAA_s140_5.0.0-3.alpha.dir/__/__/mesh/serial/src/serial_handler_mesh.c.obj
 .debug_aranges
                0x000009c8       0x48 examples/dfu/CMakeFiles/dfu_nrf52840_xxAA_s140_5.0.0-3.alpha.dir/__/__/mesh/serial/src/serial_handler_models.c.obj
 .debug_aranges
                0x00000a10       0x78 examples/dfu/CMakeFiles/dfu_nrf52840_xxAA_s140_5.0.0-3.alpha.dir/__/__/mesh/serial/src/serial_handler_device.c.obj
 .debug_aranges
                0x00000a88       0x38 examples/dfu/CMakeFiles/dfu_nrf52840_xxAA_s140_5.0.0-3.alpha.dir/__/__/mesh/serial/src/nrf_mesh_serial.c.obj
 .debug_aranges
                0x00000ac0       0x28 examples/dfu/CMakeFiles/dfu_nrf52840_xxAA_s140_5.0.0-3.alpha.dir/__/__/mesh/serial/src/serial_handler_app.c.obj
 .debug_aranges
                0x00000ae8       0x70 examples/dfu/CMakeFiles/dfu_nrf52840_xxAA_s140_5.0.0-3.alpha.dir/__/__/mesh/prov/src/prov_provisioner.c.obj
 .debug_aranges
                0x00000b58       0x70 examples/dfu/CMakeFiles/dfu_nrf52840_xxAA_s140_5.0.0-3.alpha.dir/__/__/mesh/prov/src/prov_provisionee.c.obj
 .debug_aranges
                0x00000bc8       0x78 examples/dfu/CMakeFiles/dfu_nrf52840_xxAA_s140_5.0.0-3.alpha.dir/__/__/mesh/prov/src/nrf_mesh_prov.c.obj
 .debug_aranges
                0x00000c40       0x80 examples/dfu/CMakeFiles/dfu_nrf52840_xxAA_s140_5.0.0-3.alpha.dir/__/__/mesh/prov/src/provisioning.c.obj
 .debug_aranges
                0x00000cc0       0x38 examples/dfu/CMakeFiles/dfu_nrf52840_xxAA_s140_5.0.0-3.alpha.dir/__/__/mesh/prov/src/prov_beacon.c.obj
 .debug_aranges
                0x00000cf8       0x70 examples/dfu/CMakeFiles/dfu_nrf52840_xxAA_s140_5.0.0-3.alpha.dir/__/__/mesh/prov/src/prov_utils.c.obj
 .debug_aranges
                0x00000d68       0xc8 examples/dfu/CMakeFiles/dfu_nrf52840_xxAA_s140_5.0.0-3.alpha.dir/__/__/mesh/prov/src/prov_bearer_adv.c.obj
 .debug_aranges
                0x00000e30       0xb0 examples/dfu/CMakeFiles/dfu_nrf52840_xxAA_s140_5.0.0-3.alpha.dir/__/__/mesh/dfu/src/nrf_mesh_dfu.c.obj
 .debug_aranges
                0x00000ee0       0x30 examples/dfu/CMakeFiles/dfu_nrf52840_xxAA_s140_5.0.0-3.alpha.dir/__/__/external/nRF5_SDK_14.2.0_17b948a/components/toolchain/system_nrf52840.c.obj
 .debug_aranges
                0x00000f10       0x30 mesh/core/libmesh_core_nrf52840_xxAA.a(internal_event.c.obj)
 .debug_aranges
                0x00000f40       0x30 mesh/core/libmesh_core_nrf52840_xxAA.a(nrf_mesh_configure.c.obj)
 .debug_aranges
                0x00000f70       0x30 mesh/core/libmesh_core_nrf52840_xxAA.a(event.c.obj)
 .debug_aranges
                0x00000fa0       0x80 mesh/core/libmesh_core_nrf52840_xxAA.a(packet_buffer.c.obj)
 .debug_aranges
                0x00001020       0x60 mesh/core/libmesh_core_nrf52840_xxAA.a(fifo.c.obj)
 .debug_aranges
                0x00001080       0xc0 mesh/core/libmesh_core_nrf52840_xxAA.a(net_state.c.obj)
 .debug_aranges
                0x00001140       0x60 mesh/core/libmesh_core_nrf52840_xxAA.a(mesh_flash.c.obj)
 .debug_aranges
                0x000011a0       0x30 mesh/core/libmesh_core_nrf52840_xxAA.a(nrf_mesh_utils.c.obj)
 .debug_aranges
                0x000011d0       0x88 mesh/core/libmesh_core_nrf52840_xxAA.a(nrf_mesh.c.obj)
 .debug_aranges
                0x00001258       0x30 mesh/core/libmesh_core_nrf52840_xxAA.a(hal.c.obj)
 .debug_aranges
                0x00001288       0x68 mesh/core/libmesh_core_nrf52840_xxAA.a(timer_scheduler.c.obj)
 .debug_aranges
                0x000012f0       0x60 mesh/core/libmesh_core_nrf52840_xxAA.a(timer.c.obj)
 .debug_aranges
                0x00001350       0x30 mesh/core/libmesh_core_nrf52840_xxAA.a(ticker.c.obj)
 .debug_aranges
                0x00001380       0x40 mesh/core/libmesh_core_nrf52840_xxAA.a(rand.c.obj)
 .debug_aranges
                0x000013c0       0xb8 mesh/core/libmesh_core_nrf52840_xxAA.a(timeslot.c.obj)
 .debug_aranges
                0x00001478       0x98 mesh/core/libmesh_core_nrf52840_xxAA.a(bearer_event.c.obj)
 .debug_aranges
                0x00001510       0x70 mesh/core/libmesh_core_nrf52840_xxAA.a(enc.c.obj)
 .debug_aranges
                0x00001580       0x60 mesh/core/libmesh_core_nrf52840_xxAA.a(network.c.obj)
 .debug_aranges
                0x000015e0       0x48 mesh/core/libmesh_core_nrf52840_xxAA.a(msqueue.c.obj)
 .debug_aranges
                0x00001628       0x40 mesh/core/libmesh_core_nrf52840_xxAA.a(nrf_mesh_keygen.c.obj)
 .debug_aranges
                0x00001668       0x48 mesh/core/libmesh_core_nrf52840_xxAA.a(list.c.obj)
 .debug_aranges
                0x000016b0       0x48 mesh/core/libmesh_core_nrf52840_xxAA.a(log.c.obj)
 .debug_aranges
                0x000016f8      0x100 mesh/core/libmesh_core_nrf52840_xxAA.a(flash_manager.c.obj)
 .debug_aranges
                0x000017f8       0x50 mesh/core/libmesh_core_nrf52840_xxAA.a(ccm_soft.c.obj)
 .debug_aranges
                0x00001848       0x38 mesh/core/libmesh_core_nrf52840_xxAA.a(beacon.c.obj)
 .debug_aranges
                0x00001880       0x20 mesh/core/libmesh_core_nrf52840_xxAA.a(flash_manager_internal.c.obj)
 .debug_aranges
                0x000018a0       0x58 mesh/core/libmesh_core_nrf52840_xxAA.a(core_tx.c.obj)
 .debug_aranges
                0x000018f8       0x70 mesh/core/libmesh_core_nrf52840_xxAA.a(heartbeat.c.obj)
 .debug_aranges
                0x00001968       0x48 mesh/core/libmesh_core_nrf52840_xxAA.a(net_beacon.c.obj)
 .debug_aranges
                0x000019b0       0x68 mesh/core/libmesh_core_nrf52840_xxAA.a(core_tx_adv.c.obj)
 .debug_aranges
                0x00001a18       0x30 mesh/core/libmesh_core_nrf52840_xxAA.a(ad_listener.c.obj)
 .debug_aranges
                0x00001a48       0x58 mesh/core/libmesh_core_nrf52840_xxAA.a(ad_type_filter.c.obj)
 .debug_aranges
                0x00001aa0       0xb0 mesh/core/libmesh_core_nrf52840_xxAA.a(advertiser.c.obj)
 .debug_aranges
                0x00001b50       0x70 mesh/core/libmesh_core_nrf52840_xxAA.a(bearer_handler.c.obj)
 .debug_aranges
                0x00001bc0       0x30 mesh/core/libmesh_core_nrf52840_xxAA.a(broadcast.c.obj)
 .debug_aranges
                0x00001bf0       0x38 mesh/core/libmesh_core_nrf52840_xxAA.a(filter_engine.c.obj)
 .debug_aranges
                0x00001c28       0x40 mesh/core/libmesh_core_nrf52840_xxAA.a(radio_config.c.obj)
 .debug_aranges
                0x00001c68       0xe0 mesh/core/libmesh_core_nrf52840_xxAA.a(scanner.c.obj)
 .debug_aranges
                0x00001d48       0x28 mesh/core/libmesh_core_nrf52840_xxAA.a(aes.c.obj)
 .debug_aranges
                0x00001d70       0x38 mesh/core/libmesh_core_nrf52840_xxAA.a(msg_cache.c.obj)
 .debug_aranges
                0x00001da8      0x120 mesh/core/libmesh_core_nrf52840_xxAA.a(transport.c.obj)
 .debug_aranges
                0x00001ec8       0xc8 mesh/core/libmesh_core_nrf52840_xxAA.a(flash_manager_defrag.c.obj)
 .debug_aranges
                0x00001f90       0x30 mesh/core/libmesh_core_nrf52840_xxAA.a(nrf_flash.c.obj)
 .debug_aranges
                0x00001fc0       0x48 mesh/core/libmesh_core_nrf52840_xxAA.a(packet_mgr.c.obj)
 .debug_aranges
                0x00002008       0x38 mesh/core/libmesh_core_nrf52840_xxAA.a(queue.c.obj)
 .debug_aranges
                0x00002040       0x38 mesh/core/libmesh_core_nrf52840_xxAA.a(aes_cmac.c.obj)
 .debug_aranges
                0x00002078       0x28 mesh/core/libmesh_core_nrf52840_xxAA.a(nrf_mesh_opt.c.obj)
 .debug_aranges
                0x000020a0       0x48 mesh/core/libmesh_core_nrf52840_xxAA.a(replay_cache.c.obj)
 .debug_aranges
                0x000020e8       0xd8 external/rtt/librtt_nrf52840_xxAA.a(SEGGER_RTT.c.obj)
 .debug_aranges
                0x000021c0       0x38 external/rtt/librtt_nrf52840_xxAA.a(SEGGER_RTT_printf.c.obj)
 .debug_aranges
                0x000021f8      0x1a8 external/micro-ecc/libuECC_nrf52840_xxAA.a(uECC.c.obj)

.debug_ranges   0x00000000     0x8530
 .debug_ranges  0x00000000       0xf8 examples/dfu/CMakeFiles/dfu_nrf52840_xxAA_s140_5.0.0-3.alpha.dir/src/main.c.obj
 .debug_ranges  0x000000f8      0x1a8 examples/dfu/CMakeFiles/dfu_nrf52840_xxAA_s140_5.0.0-3.alpha.dir/__/nrf_mesh_sdk.c.obj
 .debug_ranges  0x000002a0      0x178 examples/dfu/CMakeFiles/dfu_nrf52840_xxAA_s140_5.0.0-3.alpha.dir/__/__/mesh/access/src/access_publish.c.obj
 .debug_ranges  0x00000418      0x780 examples/dfu/CMakeFiles/dfu_nrf52840_xxAA_s140_5.0.0-3.alpha.dir/__/__/mesh/access/src/access.c.obj
 .debug_ranges  0x00000b98      0x278 examples/dfu/CMakeFiles/dfu_nrf52840_xxAA_s140_5.0.0-3.alpha.dir/__/__/mesh/access/src/access_reliable.c.obj
 .debug_ranges  0x00000e10      0xac8 examples/dfu/CMakeFiles/dfu_nrf52840_xxAA_s140_5.0.0-3.alpha.dir/__/__/mesh/access/src/device_state_manager.c.obj
 .debug_ranges  0x000018d8       0x28 examples/dfu/CMakeFiles/dfu_nrf52840_xxAA_s140_5.0.0-3.alpha.dir/__/__/mesh/serial/src/serial_uart.c.obj
 .debug_ranges  0x00001900      0x1d0 examples/dfu/CMakeFiles/dfu_nrf52840_xxAA_s140_5.0.0-3.alpha.dir/__/__/mesh/serial/src/serial_bearer.c.obj
 .debug_ranges  0x00001ad0       0x48 examples/dfu/CMakeFiles/dfu_nrf52840_xxAA_s140_5.0.0-3.alpha.dir/__/__/mesh/serial/src/serial_handler_common.c.obj
 .debug_ranges  0x00001b18       0xd8 examples/dfu/CMakeFiles/dfu_nrf52840_xxAA_s140_5.0.0-3.alpha.dir/__/__/mesh/serial/src/serial_handler_access.c.obj
 .debug_ranges  0x00001bf0       0x48 examples/dfu/CMakeFiles/dfu_nrf52840_xxAA_s140_5.0.0-3.alpha.dir/__/__/mesh/serial/src/serial_handler_config.c.obj
 .debug_ranges  0x00001c38       0x10 examples/dfu/CMakeFiles/dfu_nrf52840_xxAA_s140_5.0.0-3.alpha.dir/__/__/mesh/serial/src/serial_handler_openmesh.c.obj
 .debug_ranges  0x00001c48      0x110 examples/dfu/CMakeFiles/dfu_nrf52840_xxAA_s140_5.0.0-3.alpha.dir/__/__/mesh/serial/src/serial.c.obj
 .debug_ranges  0x00001d58      0x280 examples/dfu/CMakeFiles/dfu_nrf52840_xxAA_s140_5.0.0-3.alpha.dir/__/__/mesh/serial/src/serial_handler_prov.c.obj
 .debug_ranges  0x00001fd8      0x118 examples/dfu/CMakeFiles/dfu_nrf52840_xxAA_s140_5.0.0-3.alpha.dir/__/__/mesh/serial/src/serial_handler_dfu.c.obj
 .debug_ranges  0x000020f0      0x1c8 examples/dfu/CMakeFiles/dfu_nrf52840_xxAA_s140_5.0.0-3.alpha.dir/__/__/mesh/serial/src/serial_handler_mesh.c.obj
 .debug_ranges  0x000022b8       0xa8 examples/dfu/CMakeFiles/dfu_nrf52840_xxAA_s140_5.0.0-3.alpha.dir/__/__/mesh/serial/src/serial_handler_models.c.obj
 .debug_ranges  0x00002360      0x138 examples/dfu/CMakeFiles/dfu_nrf52840_xxAA_s140_5.0.0-3.alpha.dir/__/__/mesh/serial/src/serial_handler_device.c.obj
 .debug_ranges  0x00002498       0x40 examples/dfu/CMakeFiles/dfu_nrf52840_xxAA_s140_5.0.0-3.alpha.dir/__/__/mesh/serial/src/nrf_mesh_serial.c.obj
 .debug_ranges  0x000024d8       0x18 examples/dfu/CMakeFiles/dfu_nrf52840_xxAA_s140_5.0.0-3.alpha.dir/__/__/mesh/serial/src/serial_handler_app.c.obj
 .debug_ranges  0x000024f0      0x128 examples/dfu/CMakeFiles/dfu_nrf52840_xxAA_s140_5.0.0-3.alpha.dir/__/__/mesh/prov/src/prov_provisioner.c.obj
 .debug_ranges  0x00002618      0x158 examples/dfu/CMakeFiles/dfu_nrf52840_xxAA_s140_5.0.0-3.alpha.dir/__/__/mesh/prov/src/prov_provisionee.c.obj
 .debug_ranges  0x00002770       0xb0 examples/dfu/CMakeFiles/dfu_nrf52840_xxAA_s140_5.0.0-3.alpha.dir/__/__/mesh/prov/src/nrf_mesh_prov.c.obj
 .debug_ranges  0x00002820       0xa0 examples/dfu/CMakeFiles/dfu_nrf52840_xxAA_s140_5.0.0-3.alpha.dir/__/__/mesh/prov/src/provisioning.c.obj
 .debug_ranges  0x000028c0       0x88 examples/dfu/CMakeFiles/dfu_nrf52840_xxAA_s140_5.0.0-3.alpha.dir/__/__/mesh/prov/src/prov_beacon.c.obj
 .debug_ranges  0x00002948       0xb8 examples/dfu/CMakeFiles/dfu_nrf52840_xxAA_s140_5.0.0-3.alpha.dir/__/__/mesh/prov/src/prov_utils.c.obj
 .debug_ranges  0x00002a00      0x6c8 examples/dfu/CMakeFiles/dfu_nrf52840_xxAA_s140_5.0.0-3.alpha.dir/__/__/mesh/prov/src/prov_bearer_adv.c.obj
 .debug_ranges  0x000030c8      0x480 examples/dfu/CMakeFiles/dfu_nrf52840_xxAA_s140_5.0.0-3.alpha.dir/__/__/mesh/dfu/src/nrf_mesh_dfu.c.obj
 .debug_ranges  0x00003548       0x20 examples/dfu/CMakeFiles/dfu_nrf52840_xxAA_s140_5.0.0-3.alpha.dir/__/__/external/nRF5_SDK_14.2.0_17b948a/components/toolchain/system_nrf52840.c.obj
 .debug_ranges  0x00003568       0x20 mesh/core/libmesh_core_nrf52840_xxAA.a(internal_event.c.obj)
 .debug_ranges  0x00003588       0x20 mesh/core/libmesh_core_nrf52840_xxAA.a(nrf_mesh_configure.c.obj)
 .debug_ranges  0x000035a8       0x68 mesh/core/libmesh_core_nrf52840_xxAA.a(event.c.obj)
 .debug_ranges  0x00003610      0x3b8 mesh/core/libmesh_core_nrf52840_xxAA.a(packet_buffer.c.obj)
 .debug_ranges  0x000039c8       0xb0 mesh/core/libmesh_core_nrf52840_xxAA.a(fifo.c.obj)
 .debug_ranges  0x00003a78      0x248 mesh/core/libmesh_core_nrf52840_xxAA.a(net_state.c.obj)
 .debug_ranges  0x00003cc0      0x368 mesh/core/libmesh_core_nrf52840_xxAA.a(mesh_flash.c.obj)
 .debug_ranges  0x00004028       0x38 mesh/core/libmesh_core_nrf52840_xxAA.a(nrf_mesh_utils.c.obj)
 .debug_ranges  0x00004060       0xf0 mesh/core/libmesh_core_nrf52840_xxAA.a(nrf_mesh.c.obj)
 .debug_ranges  0x00004150       0x20 mesh/core/libmesh_core_nrf52840_xxAA.a(hal.c.obj)
 .debug_ranges  0x00004170      0x260 mesh/core/libmesh_core_nrf52840_xxAA.a(timer_scheduler.c.obj)
 .debug_ranges  0x000043d0      0x108 mesh/core/libmesh_core_nrf52840_xxAA.a(timer.c.obj)
 .debug_ranges  0x000044d8       0x20 mesh/core/libmesh_core_nrf52840_xxAA.a(ticker.c.obj)
 .debug_ranges  0x000044f8       0x48 mesh/core/libmesh_core_nrf52840_xxAA.a(rand.c.obj)
 .debug_ranges  0x00004540      0x188 mesh/core/libmesh_core_nrf52840_xxAA.a(timeslot.c.obj)
 .debug_ranges  0x000046c8      0x250 mesh/core/libmesh_core_nrf52840_xxAA.a(bearer_event.c.obj)
 .debug_ranges  0x00004918      0x120 mesh/core/libmesh_core_nrf52840_xxAA.a(enc.c.obj)
 .debug_ranges  0x00004a38      0x518 mesh/core/libmesh_core_nrf52840_xxAA.a(network.c.obj)
 .debug_ranges  0x00004f50      0x158 mesh/core/libmesh_core_nrf52840_xxAA.a(msqueue.c.obj)
 .debug_ranges  0x000050a8       0x30 mesh/core/libmesh_core_nrf52840_xxAA.a(nrf_mesh_keygen.c.obj)
 .debug_ranges  0x000050d8      0x1b0 mesh/core/libmesh_core_nrf52840_xxAA.a(list.c.obj)
 .debug_ranges  0x00005288       0x38 mesh/core/libmesh_core_nrf52840_xxAA.a(log.c.obj)
 .debug_ranges  0x000052c0      0x748 mesh/core/libmesh_core_nrf52840_xxAA.a(flash_manager.c.obj)
 .debug_ranges  0x00005a08       0x40 mesh/core/libmesh_core_nrf52840_xxAA.a(ccm_soft.c.obj)
 .debug_ranges  0x00005a48       0xd0 mesh/core/libmesh_core_nrf52840_xxAA.a(beacon.c.obj)
 .debug_ranges  0x00005b18       0x68 mesh/core/libmesh_core_nrf52840_xxAA.a(flash_manager_internal.c.obj)
 .debug_ranges  0x00005b80      0x270 mesh/core/libmesh_core_nrf52840_xxAA.a(core_tx.c.obj)
 .debug_ranges  0x00005df0      0x240 mesh/core/libmesh_core_nrf52840_xxAA.a(heartbeat.c.obj)
 .debug_ranges  0x00006030       0xf0 mesh/core/libmesh_core_nrf52840_xxAA.a(net_beacon.c.obj)
 .debug_ranges  0x00006120       0xe8 mesh/core/libmesh_core_nrf52840_xxAA.a(core_tx_adv.c.obj)
 .debug_ranges  0x00006208       0xf8 mesh/core/libmesh_core_nrf52840_xxAA.a(ad_listener.c.obj)
 .debug_ranges  0x00006300       0xe8 mesh/core/libmesh_core_nrf52840_xxAA.a(ad_type_filter.c.obj)
 .debug_ranges  0x000063e8      0x4a8 mesh/core/libmesh_core_nrf52840_xxAA.a(advertiser.c.obj)
 .debug_ranges  0x00006890      0x290 mesh/core/libmesh_core_nrf52840_xxAA.a(bearer_handler.c.obj)
 .debug_ranges  0x00006b20      0x130 mesh/core/libmesh_core_nrf52840_xxAA.a(broadcast.c.obj)
 .debug_ranges  0x00006c50       0x90 mesh/core/libmesh_core_nrf52840_xxAA.a(filter_engine.c.obj)
 .debug_ranges  0x00006ce0      0x100 mesh/core/libmesh_core_nrf52840_xxAA.a(radio_config.c.obj)
 .debug_ranges  0x00006de0      0x2c0 mesh/core/libmesh_core_nrf52840_xxAA.a(scanner.c.obj)
 .debug_ranges  0x000070a0       0x18 mesh/core/libmesh_core_nrf52840_xxAA.a(aes.c.obj)
 .debug_ranges  0x000070b8       0x48 mesh/core/libmesh_core_nrf52840_xxAA.a(msg_cache.c.obj)
 .debug_ranges  0x00007100      0x918 mesh/core/libmesh_core_nrf52840_xxAA.a(transport.c.obj)
 .debug_ranges  0x00007a18      0x368 mesh/core/libmesh_core_nrf52840_xxAA.a(flash_manager_defrag.c.obj)
 .debug_ranges  0x00007d80       0x38 mesh/core/libmesh_core_nrf52840_xxAA.a(nrf_flash.c.obj)
 .debug_ranges  0x00007db8      0x160 mesh/core/libmesh_core_nrf52840_xxAA.a(packet_mgr.c.obj)
 .debug_ranges  0x00007f18       0xa0 mesh/core/libmesh_core_nrf52840_xxAA.a(queue.c.obj)
 .debug_ranges  0x00007fb8       0x98 mesh/core/libmesh_core_nrf52840_xxAA.a(aes_cmac.c.obj)
 .debug_ranges  0x00008050       0x18 mesh/core/libmesh_core_nrf52840_xxAA.a(nrf_mesh_opt.c.obj)
 .debug_ranges  0x00008068       0x68 mesh/core/libmesh_core_nrf52840_xxAA.a(replay_cache.c.obj)
 .debug_ranges  0x000080d0      0x130 external/rtt/librtt_nrf52840_xxAA.a(SEGGER_RTT.c.obj)
 .debug_ranges  0x00008200       0x48 external/rtt/librtt_nrf52840_xxAA.a(SEGGER_RTT_printf.c.obj)
 .debug_ranges  0x00008248      0x2e8 external/micro-ecc/libuECC_nrf52840_xxAA.a(uECC.c.obj)

.debug_line     0x00000000    0x1a7cb
 .debug_line    0x00000000      0x68f examples/dfu/CMakeFiles/dfu_nrf52840_xxAA_s140_5.0.0-3.alpha.dir/src/main.c.obj
 .debug_line    0x0000068f      0x788 examples/dfu/CMakeFiles/dfu_nrf52840_xxAA_s140_5.0.0-3.alpha.dir/__/nrf_mesh_sdk.c.obj
 .debug_line    0x00000e17      0x44c examples/dfu/CMakeFiles/dfu_nrf52840_xxAA_s140_5.0.0-3.alpha.dir/__/__/mesh/access/src/access_publish.c.obj
 .debug_line    0x00001263      0xe66 examples/dfu/CMakeFiles/dfu_nrf52840_xxAA_s140_5.0.0-3.alpha.dir/__/__/mesh/access/src/access.c.obj
 .debug_line    0x000020c9      0x50b examples/dfu/CMakeFiles/dfu_nrf52840_xxAA_s140_5.0.0-3.alpha.dir/__/__/mesh/access/src/access_reliable.c.obj
 .debug_line    0x000025d4     0x14d1 examples/dfu/CMakeFiles/dfu_nrf52840_xxAA_s140_5.0.0-3.alpha.dir/__/__/mesh/access/src/device_state_manager.c.obj
 .debug_line    0x00003aa5      0x31e examples/dfu/CMakeFiles/dfu_nrf52840_xxAA_s140_5.0.0-3.alpha.dir/__/__/mesh/serial/src/serial_uart.c.obj
 .debug_line    0x00003dc3      0x5d2 examples/dfu/CMakeFiles/dfu_nrf52840_xxAA_s140_5.0.0-3.alpha.dir/__/__/mesh/serial/src/serial_bearer.c.obj
 .debug_line    0x00004395      0x371 examples/dfu/CMakeFiles/dfu_nrf52840_xxAA_s140_5.0.0-3.alpha.dir/__/__/mesh/serial/src/serial_handler_common.c.obj
 .debug_line    0x00004706      0x53f examples/dfu/CMakeFiles/dfu_nrf52840_xxAA_s140_5.0.0-3.alpha.dir/__/__/mesh/serial/src/serial_handler_access.c.obj
 .debug_line    0x00004c45      0x42c examples/dfu/CMakeFiles/dfu_nrf52840_xxAA_s140_5.0.0-3.alpha.dir/__/__/mesh/serial/src/serial_handler_config.c.obj
 .debug_line    0x00005071      0x333 examples/dfu/CMakeFiles/dfu_nrf52840_xxAA_s140_5.0.0-3.alpha.dir/__/__/mesh/serial/src/serial_handler_openmesh.c.obj
 .debug_line    0x000053a4      0x606 examples/dfu/CMakeFiles/dfu_nrf52840_xxAA_s140_5.0.0-3.alpha.dir/__/__/mesh/serial/src/serial.c.obj
 .debug_line    0x000059aa      0x821 examples/dfu/CMakeFiles/dfu_nrf52840_xxAA_s140_5.0.0-3.alpha.dir/__/__/mesh/serial/src/serial_handler_prov.c.obj
 .debug_line    0x000061cb      0x4f9 examples/dfu/CMakeFiles/dfu_nrf52840_xxAA_s140_5.0.0-3.alpha.dir/__/__/mesh/serial/src/serial_handler_dfu.c.obj
 .debug_line    0x000066c4      0x752 examples/dfu/CMakeFiles/dfu_nrf52840_xxAA_s140_5.0.0-3.alpha.dir/__/__/mesh/serial/src/serial_handler_mesh.c.obj
 .debug_line    0x00006e16      0x474 examples/dfu/CMakeFiles/dfu_nrf52840_xxAA_s140_5.0.0-3.alpha.dir/__/__/mesh/serial/src/serial_handler_models.c.obj
 .debug_line    0x0000728a      0x63c examples/dfu/CMakeFiles/dfu_nrf52840_xxAA_s140_5.0.0-3.alpha.dir/__/__/mesh/serial/src/serial_handler_device.c.obj
 .debug_line    0x000078c6      0x436 examples/dfu/CMakeFiles/dfu_nrf52840_xxAA_s140_5.0.0-3.alpha.dir/__/__/mesh/serial/src/nrf_mesh_serial.c.obj
 .debug_line    0x00007cfc      0x341 examples/dfu/CMakeFiles/dfu_nrf52840_xxAA_s140_5.0.0-3.alpha.dir/__/__/mesh/serial/src/serial_handler_app.c.obj
 .debug_line    0x0000803d      0x589 examples/dfu/CMakeFiles/dfu_nrf52840_xxAA_s140_5.0.0-3.alpha.dir/__/__/mesh/prov/src/prov_provisioner.c.obj
 .debug_line    0x000085c6      0x64d examples/dfu/CMakeFiles/dfu_nrf52840_xxAA_s140_5.0.0-3.alpha.dir/__/__/mesh/prov/src/prov_provisionee.c.obj
 .debug_line    0x00008c13      0x4f9 examples/dfu/CMakeFiles/dfu_nrf52840_xxAA_s140_5.0.0-3.alpha.dir/__/__/mesh/prov/src/nrf_mesh_prov.c.obj
 .debug_line    0x0000910c      0x3e1 examples/dfu/CMakeFiles/dfu_nrf52840_xxAA_s140_5.0.0-3.alpha.dir/__/__/mesh/prov/src/provisioning.c.obj
 .debug_line    0x000094ed      0x4a3 examples/dfu/CMakeFiles/dfu_nrf52840_xxAA_s140_5.0.0-3.alpha.dir/__/__/mesh/prov/src/prov_beacon.c.obj
 .debug_line    0x00009990      0x4b8 examples/dfu/CMakeFiles/dfu_nrf52840_xxAA_s140_5.0.0-3.alpha.dir/__/__/mesh/prov/src/prov_utils.c.obj
 .debug_line    0x00009e48      0xc3d examples/dfu/CMakeFiles/dfu_nrf52840_xxAA_s140_5.0.0-3.alpha.dir/__/__/mesh/prov/src/prov_bearer_adv.c.obj
 .debug_line    0x0000aa85      0xe48 examples/dfu/CMakeFiles/dfu_nrf52840_xxAA_s140_5.0.0-3.alpha.dir/__/__/mesh/dfu/src/nrf_mesh_dfu.c.obj
 .debug_line    0x0000b8cd      0x247 examples/dfu/CMakeFiles/dfu_nrf52840_xxAA_s140_5.0.0-3.alpha.dir/__/__/external/nRF5_SDK_14.2.0_17b948a/components/toolchain/system_nrf52840.c.obj
 .debug_line    0x0000bb14      0x2a5 mesh/core/libmesh_core_nrf52840_xxAA.a(internal_event.c.obj)
 .debug_line    0x0000bdb9      0x269 mesh/core/libmesh_core_nrf52840_xxAA.a(nrf_mesh_configure.c.obj)
 .debug_line    0x0000c022      0x321 mesh/core/libmesh_core_nrf52840_xxAA.a(event.c.obj)
 .debug_line    0x0000c343      0x6f3 mesh/core/libmesh_core_nrf52840_xxAA.a(packet_buffer.c.obj)
 .debug_line    0x0000ca36      0x3a9 mesh/core/libmesh_core_nrf52840_xxAA.a(fifo.c.obj)
 .debug_line    0x0000cddf      0x6be mesh/core/libmesh_core_nrf52840_xxAA.a(net_state.c.obj)
 .debug_line    0x0000d49d      0x5ac mesh/core/libmesh_core_nrf52840_xxAA.a(mesh_flash.c.obj)
 .debug_line    0x0000da49      0x265 mesh/core/libmesh_core_nrf52840_xxAA.a(nrf_mesh_utils.c.obj)
 .debug_line    0x0000dcae      0x7b1 mesh/core/libmesh_core_nrf52840_xxAA.a(nrf_mesh.c.obj)
 .debug_line    0x0000e45f      0x253 mesh/core/libmesh_core_nrf52840_xxAA.a(hal.c.obj)
 .debug_line    0x0000e6b2      0x4a6 mesh/core/libmesh_core_nrf52840_xxAA.a(timer_scheduler.c.obj)
 .debug_line    0x0000eb58      0x41b mesh/core/libmesh_core_nrf52840_xxAA.a(timer.c.obj)
 .debug_line    0x0000ef73      0x122 mesh/core/libmesh_core_nrf52840_xxAA.a(ticker.c.obj)
 .debug_line    0x0000f095      0x2a3 mesh/core/libmesh_core_nrf52840_xxAA.a(rand.c.obj)
 .debug_line    0x0000f338      0x5cf mesh/core/libmesh_core_nrf52840_xxAA.a(timeslot.c.obj)
 .debug_line    0x0000f907      0x60e mesh/core/libmesh_core_nrf52840_xxAA.a(bearer_event.c.obj)
 .debug_line    0x0000ff15      0x45d mesh/core/libmesh_core_nrf52840_xxAA.a(enc.c.obj)
 .debug_line    0x00010372      0x84f mesh/core/libmesh_core_nrf52840_xxAA.a(network.c.obj)
 .debug_line    0x00010bc1      0x38b mesh/core/libmesh_core_nrf52840_xxAA.a(msqueue.c.obj)
 .debug_line    0x00010f4c      0x239 mesh/core/libmesh_core_nrf52840_xxAA.a(nrf_mesh_keygen.c.obj)
 .debug_line    0x00011185      0x376 mesh/core/libmesh_core_nrf52840_xxAA.a(list.c.obj)
 .debug_line    0x000114fb      0x287 mesh/core/libmesh_core_nrf52840_xxAA.a(log.c.obj)
 .debug_line    0x00011782      0xaa0 mesh/core/libmesh_core_nrf52840_xxAA.a(flash_manager.c.obj)
 .debug_line    0x00012222      0x34e mesh/core/libmesh_core_nrf52840_xxAA.a(ccm_soft.c.obj)
 .debug_line    0x00012570      0x546 mesh/core/libmesh_core_nrf52840_xxAA.a(beacon.c.obj)
 .debug_line    0x00012ab6      0x29c mesh/core/libmesh_core_nrf52840_xxAA.a(flash_manager_internal.c.obj)
 .debug_line    0x00012d52      0x474 mesh/core/libmesh_core_nrf52840_xxAA.a(core_tx.c.obj)
 .debug_line    0x000131c6      0x632 mesh/core/libmesh_core_nrf52840_xxAA.a(heartbeat.c.obj)
 .debug_line    0x000137f8      0x441 mesh/core/libmesh_core_nrf52840_xxAA.a(net_beacon.c.obj)
 .debug_line    0x00013c39      0x49f mesh/core/libmesh_core_nrf52840_xxAA.a(core_tx_adv.c.obj)
 .debug_line    0x000140d8      0x368 mesh/core/libmesh_core_nrf52840_xxAA.a(ad_listener.c.obj)
 .debug_line    0x00014440      0x419 mesh/core/libmesh_core_nrf52840_xxAA.a(ad_type_filter.c.obj)
 .debug_line    0x00014859      0x835 mesh/core/libmesh_core_nrf52840_xxAA.a(advertiser.c.obj)
 .debug_line    0x0001508e      0x5c7 mesh/core/libmesh_core_nrf52840_xxAA.a(bearer_handler.c.obj)
 .debug_line    0x00015655      0x3ce mesh/core/libmesh_core_nrf52840_xxAA.a(broadcast.c.obj)
 .debug_line    0x00015a23      0x36c mesh/core/libmesh_core_nrf52840_xxAA.a(filter_engine.c.obj)
 .debug_line    0x00015d8f      0x326 mesh/core/libmesh_core_nrf52840_xxAA.a(radio_config.c.obj)
 .debug_line    0x000160b5      0x76a mesh/core/libmesh_core_nrf52840_xxAA.a(scanner.c.obj)
 .debug_line    0x0001681f      0x26a mesh/core/libmesh_core_nrf52840_xxAA.a(aes.c.obj)
 .debug_line    0x00016a89      0x29b mesh/core/libmesh_core_nrf52840_xxAA.a(msg_cache.c.obj)
 .debug_line    0x00016d24     0x1042 mesh/core/libmesh_core_nrf52840_xxAA.a(transport.c.obj)
 .debug_line    0x00017d66      0x7ed mesh/core/libmesh_core_nrf52840_xxAA.a(flash_manager_defrag.c.obj)
 .debug_line    0x00018553      0x2af mesh/core/libmesh_core_nrf52840_xxAA.a(nrf_flash.c.obj)
 .debug_line    0x00018802      0x45b mesh/core/libmesh_core_nrf52840_xxAA.a(packet_mgr.c.obj)
 .debug_line    0x00018c5d      0x2d5 mesh/core/libmesh_core_nrf52840_xxAA.a(queue.c.obj)
 .debug_line    0x00018f32      0x2d7 mesh/core/libmesh_core_nrf52840_xxAA.a(aes_cmac.c.obj)
 .debug_line    0x00019209      0x294 mesh/core/libmesh_core_nrf52840_xxAA.a(nrf_mesh_opt.c.obj)
 .debug_line    0x0001949d      0x1f1 mesh/core/libmesh_core_nrf52840_xxAA.a(replay_cache.c.obj)
 .debug_line    0x0001968e      0x4c0 external/rtt/librtt_nrf52840_xxAA.a(SEGGER_RTT.c.obj)
 .debug_line    0x00019b4e      0x282 external/rtt/librtt_nrf52840_xxAA.a(SEGGER_RTT_printf.c.obj)
 .debug_line    0x00019dd0      0x9fb external/micro-ecc/libuECC_nrf52840_xxAA.a(uECC.c.obj)

.debug_str      0x00000000    0x13d38
 .debug_str     0x00000000     0x1c29 examples/dfu/CMakeFiles/dfu_nrf52840_xxAA_s140_5.0.0-3.alpha.dir/src/main.c.obj
                               0x1e3d (size before relaxing)
 .debug_str     0x00001c29     0x1465 examples/dfu/CMakeFiles/dfu_nrf52840_xxAA_s140_5.0.0-3.alpha.dir/__/nrf_mesh_sdk.c.obj
                               0x2183 (size before relaxing)
 .debug_str     0x0000308e      0x52d examples/dfu/CMakeFiles/dfu_nrf52840_xxAA_s140_5.0.0-3.alpha.dir/__/__/mesh/access/src/access_publish.c.obj
                                0xbe6 (size before relaxing)
 .debug_str     0x000035bb     0x11d4 examples/dfu/CMakeFiles/dfu_nrf52840_xxAA_s140_5.0.0-3.alpha.dir/__/__/mesh/access/src/access.c.obj
                               0x2b46 (size before relaxing)
 .debug_str     0x0000478f      0x20b examples/dfu/CMakeFiles/dfu_nrf52840_xxAA_s140_5.0.0-3.alpha.dir/__/__/mesh/access/src/access_reliable.c.obj
                                0xcb4 (size before relaxing)
 .debug_str     0x0000499a     0x1212 examples/dfu/CMakeFiles/dfu_nrf52840_xxAA_s140_5.0.0-3.alpha.dir/__/__/mesh/access/src/device_state_manager.c.obj
                               0x2e6b (size before relaxing)
 .debug_str     0x00005bac      0x1d9 examples/dfu/CMakeFiles/dfu_nrf52840_xxAA_s140_5.0.0-3.alpha.dir/__/__/mesh/serial/src/serial_uart.c.obj
                                0xc26 (size before relaxing)
 .debug_str     0x00005d85     0x18d6 examples/dfu/CMakeFiles/dfu_nrf52840_xxAA_s140_5.0.0-3.alpha.dir/__/__/mesh/serial/src/serial_bearer.c.obj
                               0x2a3e (size before relaxing)
 .debug_str     0x0000765b      0x132 examples/dfu/CMakeFiles/dfu_nrf52840_xxAA_s140_5.0.0-3.alpha.dir/__/__/mesh/serial/src/serial_handler_common.c.obj
                               0x215e (size before relaxing)
 .debug_str     0x0000778d      0x1c4 examples/dfu/CMakeFiles/dfu_nrf52840_xxAA_s140_5.0.0-3.alpha.dir/__/__/mesh/serial/src/serial_handler_access.c.obj
                               0x263b (size before relaxing)
 .debug_str     0x00007951       0xa9 examples/dfu/CMakeFiles/dfu_nrf52840_xxAA_s140_5.0.0-3.alpha.dir/__/__/mesh/serial/src/serial_handler_config.c.obj
                               0x2102 (size before relaxing)
 .debug_str     0x000079fa       0x58 examples/dfu/CMakeFiles/dfu_nrf52840_xxAA_s140_5.0.0-3.alpha.dir/__/__/mesh/serial/src/serial_handler_openmesh.c.obj
                               0x20a5 (size before relaxing)
 .debug_str     0x00007a52      0x2f8 examples/dfu/CMakeFiles/dfu_nrf52840_xxAA_s140_5.0.0-3.alpha.dir/__/__/mesh/serial/src/serial.c.obj
                               0x25b9 (size before relaxing)
 .debug_str     0x00007d4a     0x181b examples/dfu/CMakeFiles/dfu_nrf52840_xxAA_s140_5.0.0-3.alpha.dir/__/__/mesh/serial/src/serial_handler_prov.c.obj
                               0x3e85 (size before relaxing)
 .debug_str     0x00009565      0x274 examples/dfu/CMakeFiles/dfu_nrf52840_xxAA_s140_5.0.0-3.alpha.dir/__/__/mesh/serial/src/serial_handler_dfu.c.obj
                               0x301e (size before relaxing)
 .debug_str     0x000097d9      0x49b examples/dfu/CMakeFiles/dfu_nrf52840_xxAA_s140_5.0.0-3.alpha.dir/__/__/mesh/serial/src/serial_handler_mesh.c.obj
                               0x3561 (size before relaxing)
 .debug_str     0x00009c74      0x17d examples/dfu/CMakeFiles/dfu_nrf52840_xxAA_s140_5.0.0-3.alpha.dir/__/__/mesh/serial/src/serial_handler_models.c.obj
                               0x22ec (size before relaxing)
 .debug_str     0x00009df1      0x58c examples/dfu/CMakeFiles/dfu_nrf52840_xxAA_s140_5.0.0-3.alpha.dir/__/__/mesh/serial/src/serial_handler_device.c.obj
                               0x2ced (size before relaxing)
 .debug_str     0x0000a37d       0x88 examples/dfu/CMakeFiles/dfu_nrf52840_xxAA_s140_5.0.0-3.alpha.dir/__/__/mesh/serial/src/nrf_mesh_serial.c.obj
                               0x221c (size before relaxing)
 .debug_str     0x0000a405       0x4a examples/dfu/CMakeFiles/dfu_nrf52840_xxAA_s140_5.0.0-3.alpha.dir/__/__/mesh/serial/src/serial_handler_app.c.obj
                               0x20bc (size before relaxing)
 .debug_str     0x0000a44f      0x549 examples/dfu/CMakeFiles/dfu_nrf52840_xxAA_s140_5.0.0-3.alpha.dir/__/__/mesh/prov/src/prov_provisioner.c.obj
                               0x1eb9 (size before relaxing)
 .debug_str     0x0000a998      0x1d8 examples/dfu/CMakeFiles/dfu_nrf52840_xxAA_s140_5.0.0-3.alpha.dir/__/__/mesh/prov/src/prov_provisionee.c.obj
                               0x2061 (size before relaxing)
 .debug_str     0x0000ab70      0x104 examples/dfu/CMakeFiles/dfu_nrf52840_xxAA_s140_5.0.0-3.alpha.dir/__/__/mesh/prov/src/nrf_mesh_prov.c.obj
                               0x1c8f (size before relaxing)
 .debug_str     0x0000ac74       0xc3 examples/dfu/CMakeFiles/dfu_nrf52840_xxAA_s140_5.0.0-3.alpha.dir/__/__/mesh/prov/src/provisioning.c.obj
                                0xf45 (size before relaxing)
 .debug_str     0x0000ad37       0xea examples/dfu/CMakeFiles/dfu_nrf52840_xxAA_s140_5.0.0-3.alpha.dir/__/__/mesh/prov/src/prov_beacon.c.obj
                               0x18cc (size before relaxing)
 .debug_str     0x0000ae21      0x431 examples/dfu/CMakeFiles/dfu_nrf52840_xxAA_s140_5.0.0-3.alpha.dir/__/__/mesh/prov/src/prov_utils.c.obj
                               0x1e53 (size before relaxing)
 .debug_str     0x0000b252      0x4ca examples/dfu/CMakeFiles/dfu_nrf52840_xxAA_s140_5.0.0-3.alpha.dir/__/__/mesh/prov/src/prov_bearer_adv.c.obj
                               0x1b5a (size before relaxing)
 .debug_str     0x0000b71c     0x1451 examples/dfu/CMakeFiles/dfu_nrf52840_xxAA_s140_5.0.0-3.alpha.dir/__/__/mesh/dfu/src/nrf_mesh_dfu.c.obj
                               0x35a6 (size before relaxing)
 .debug_str     0x0000cb6d      0x31e examples/dfu/CMakeFiles/dfu_nrf52840_xxAA_s140_5.0.0-3.alpha.dir/__/__/external/nRF5_SDK_14.2.0_17b948a/components/toolchain/system_nrf52840.c.obj
                                0x8b6 (size before relaxing)
 .debug_str     0x0000ce8b       0xee mesh/core/libmesh_core_nrf52840_xxAA.a(internal_event.c.obj)
                                0xa93 (size before relaxing)
 .debug_str     0x0000cf79       0x52 mesh/core/libmesh_core_nrf52840_xxAA.a(nrf_mesh_configure.c.obj)
                                0x77e (size before relaxing)
 .debug_str     0x0000cfcb       0x82 mesh/core/libmesh_core_nrf52840_xxAA.a(event.c.obj)
                               0x14d3 (size before relaxing)
 .debug_str     0x0000d04d      0x2d4 mesh/core/libmesh_core_nrf52840_xxAA.a(packet_buffer.c.obj)
                                0xc2f (size before relaxing)
 .debug_str     0x0000d321       0x76 mesh/core/libmesh_core_nrf52840_xxAA.a(fifo.c.obj)
                                0x6f5 (size before relaxing)
 .debug_str     0x0000d397      0x357 mesh/core/libmesh_core_nrf52840_xxAA.a(net_state.c.obj)
                               0x1e46 (size before relaxing)
 .debug_str     0x0000d6ee      0x372 mesh/core/libmesh_core_nrf52840_xxAA.a(mesh_flash.c.obj)
                                0xcf6 (size before relaxing)
 .debug_str     0x0000da60       0x8b mesh/core/libmesh_core_nrf52840_xxAA.a(nrf_mesh_utils.c.obj)
                                0x76b (size before relaxing)
 .debug_str     0x0000daeb      0x46c mesh/core/libmesh_core_nrf52840_xxAA.a(nrf_mesh.c.obj)
                               0x2bc5 (size before relaxing)
 .debug_str     0x0000df57       0x69 mesh/core/libmesh_core_nrf52840_xxAA.a(hal.c.obj)
                                0x72f (size before relaxing)
 .debug_str     0x0000dfc0      0x13d mesh/core/libmesh_core_nrf52840_xxAA.a(timer_scheduler.c.obj)
                                0x94e (size before relaxing)
 .debug_str     0x0000e0fd      0x225 mesh/core/libmesh_core_nrf52840_xxAA.a(timer.c.obj)
                                0x8c8 (size before relaxing)
 .debug_str     0x0000e322       0x3c mesh/core/libmesh_core_nrf52840_xxAA.a(ticker.c.obj)
                                0x34c (size before relaxing)
 .debug_str     0x0000e35e       0x88 mesh/core/libmesh_core_nrf52840_xxAA.a(rand.c.obj)
                                0x6db (size before relaxing)
 .debug_str     0x0000e3e6      0x8ba mesh/core/libmesh_core_nrf52840_xxAA.a(timeslot.c.obj)
                               0x1839 (size before relaxing)
 .debug_str     0x0000eca0      0x2af mesh/core/libmesh_core_nrf52840_xxAA.a(bearer_event.c.obj)
                                0xf18 (size before relaxing)
 .debug_str     0x0000ef4f      0x1ad mesh/core/libmesh_core_nrf52840_xxAA.a(enc.c.obj)
                                0x9d4 (size before relaxing)
 .debug_str     0x0000f0fc      0x6cc mesh/core/libmesh_core_nrf52840_xxAA.a(network.c.obj)
                               0x19c2 (size before relaxing)
 .debug_str     0x0000f7c8       0x53 mesh/core/libmesh_core_nrf52840_xxAA.a(msqueue.c.obj)
                                0x6d9 (size before relaxing)
 .debug_str     0x0000f81b       0x57 mesh/core/libmesh_core_nrf52840_xxAA.a(nrf_mesh_keygen.c.obj)
                                0x397 (size before relaxing)
 .debug_str     0x0000f872       0x65 mesh/core/libmesh_core_nrf52840_xxAA.a(list.c.obj)
                                0x2d8 (size before relaxing)
 .debug_str     0x0000f8d7       0xeb mesh/core/libmesh_core_nrf52840_xxAA.a(log.c.obj)
                                0x7d0 (size before relaxing)
 .debug_str     0x0000f9c2      0x638 mesh/core/libmesh_core_nrf52840_xxAA.a(flash_manager.c.obj)
                               0x19d1 (size before relaxing)
 .debug_str     0x0000fffa       0x85 mesh/core/libmesh_core_nrf52840_xxAA.a(ccm_soft.c.obj)
                                0x75d (size before relaxing)
 .debug_str     0x0001007f       0xa6 mesh/core/libmesh_core_nrf52840_xxAA.a(beacon.c.obj)
                               0x1133 (size before relaxing)
 .debug_str     0x00010125       0x38 mesh/core/libmesh_core_nrf52840_xxAA.a(flash_manager_internal.c.obj)
                                0x7be (size before relaxing)
 .debug_str     0x0001015d      0x128 mesh/core/libmesh_core_nrf52840_xxAA.a(core_tx.c.obj)
                                0x8bd (size before relaxing)
 .debug_str     0x00010285      0x754 mesh/core/libmesh_core_nrf52840_xxAA.a(heartbeat.c.obj)
                               0x203b (size before relaxing)
 .debug_str     0x000109d9      0x1c2 mesh/core/libmesh_core_nrf52840_xxAA.a(net_beacon.c.obj)
                                0xe84 (size before relaxing)
 .debug_str     0x00010b9b      0x102 mesh/core/libmesh_core_nrf52840_xxAA.a(core_tx_adv.c.obj)
                               0x104b (size before relaxing)
 .debug_str     0x00010c9d      0x184 mesh/core/libmesh_core_nrf52840_xxAA.a(ad_listener.c.obj)
                                0xb7f (size before relaxing)
 .debug_str     0x00010e21      0x14f mesh/core/libmesh_core_nrf52840_xxAA.a(ad_type_filter.c.obj)
                                0x9b9 (size before relaxing)
 .debug_str     0x00010f70      0x290 mesh/core/libmesh_core_nrf52840_xxAA.a(advertiser.c.obj)
                               0x150c (size before relaxing)
 .debug_str     0x00011200      0x427 mesh/core/libmesh_core_nrf52840_xxAA.a(bearer_handler.c.obj)
                               0x110a (size before relaxing)
 .debug_str     0x00011627      0x1ac mesh/core/libmesh_core_nrf52840_xxAA.a(broadcast.c.obj)
                               0x1068 (size before relaxing)
 .debug_str     0x000117d3       0x72 mesh/core/libmesh_core_nrf52840_xxAA.a(filter_engine.c.obj)
                                0x826 (size before relaxing)
 .debug_str     0x00011845       0x79 mesh/core/libmesh_core_nrf52840_xxAA.a(radio_config.c.obj)
                                0x8b6 (size before relaxing)
 .debug_str     0x000118be      0x45d mesh/core/libmesh_core_nrf52840_xxAA.a(scanner.c.obj)
                               0x1a53 (size before relaxing)
 .debug_str     0x00011d1b       0xc1 mesh/core/libmesh_core_nrf52840_xxAA.a(aes.c.obj)
                                0xa6d (size before relaxing)
 .debug_str     0x00011ddc       0x68 mesh/core/libmesh_core_nrf52840_xxAA.a(msg_cache.c.obj)
                                0x6ea (size before relaxing)
 .debug_str     0x00011e44      0xd25 mesh/core/libmesh_core_nrf52840_xxAA.a(transport.c.obj)
                               0x31e5 (size before relaxing)
 .debug_str     0x00012b69      0x36b mesh/core/libmesh_core_nrf52840_xxAA.a(flash_manager_defrag.c.obj)
                               0x1545 (size before relaxing)
 .debug_str     0x00012ed4       0x36 mesh/core/libmesh_core_nrf52840_xxAA.a(nrf_flash.c.obj)
                                0x700 (size before relaxing)
 .debug_str     0x00012f0a      0x266 mesh/core/libmesh_core_nrf52840_xxAA.a(packet_mgr.c.obj)
                                0x9ca (size before relaxing)
 .debug_str     0x00013170       0x19 mesh/core/libmesh_core_nrf52840_xxAA.a(queue.c.obj)
                                0x69d (size before relaxing)
 .debug_str     0x00013189       0xb8 mesh/core/libmesh_core_nrf52840_xxAA.a(aes_cmac.c.obj)
                                0x715 (size before relaxing)
 .debug_str     0x00013241       0x31 mesh/core/libmesh_core_nrf52840_xxAA.a(nrf_mesh_opt.c.obj)
                                0x921 (size before relaxing)
 .debug_str     0x00013272       0x9f mesh/core/libmesh_core_nrf52840_xxAA.a(replay_cache.c.obj)
                                0x6b0 (size before relaxing)
 .debug_str     0x00013311      0x2d1 external/rtt/librtt_nrf52840_xxAA.a(SEGGER_RTT.c.obj)
                                0x922 (size before relaxing)
 .debug_str     0x000135e2       0xdf external/rtt/librtt_nrf52840_xxAA.a(SEGGER_RTT_printf.c.obj)
                                0x792 (size before relaxing)
 .debug_str     0x000136c1      0x677 external/micro-ecc/libuECC_nrf52840_xxAA.a(uECC.c.obj)
                                0x880 (size before relaxing)

.debug_frame    0x00000000     0x6d98
 .debug_frame   0x00000000       0x60 examples/dfu/CMakeFiles/dfu_nrf52840_xxAA_s140_5.0.0-3.alpha.dir/src/main.c.obj
 .debug_frame   0x00000060      0x17c examples/dfu/CMakeFiles/dfu_nrf52840_xxAA_s140_5.0.0-3.alpha.dir/__/nrf_mesh_sdk.c.obj
 .debug_frame   0x000001dc      0x114 examples/dfu/CMakeFiles/dfu_nrf52840_xxAA_s140_5.0.0-3.alpha.dir/__/__/mesh/access/src/access_publish.c.obj
 .debug_frame   0x000002f0      0x544 examples/dfu/CMakeFiles/dfu_nrf52840_xxAA_s140_5.0.0-3.alpha.dir/__/__/mesh/access/src/access.c.obj
 .debug_frame   0x00000834      0x10c examples/dfu/CMakeFiles/dfu_nrf52840_xxAA_s140_5.0.0-3.alpha.dir/__/__/mesh/access/src/access_reliable.c.obj
 .debug_frame   0x00000940      0xac4 examples/dfu/CMakeFiles/dfu_nrf52840_xxAA_s140_5.0.0-3.alpha.dir/__/__/mesh/access/src/device_state_manager.c.obj
 .debug_frame   0x00001404       0x68 examples/dfu/CMakeFiles/dfu_nrf52840_xxAA_s140_5.0.0-3.alpha.dir/__/__/mesh/serial/src/serial_uart.c.obj
 .debug_frame   0x0000146c      0x154 examples/dfu/CMakeFiles/dfu_nrf52840_xxAA_s140_5.0.0-3.alpha.dir/__/__/mesh/serial/src/serial_bearer.c.obj
 .debug_frame   0x000015c0       0x64 examples/dfu/CMakeFiles/dfu_nrf52840_xxAA_s140_5.0.0-3.alpha.dir/__/__/mesh/serial/src/serial_handler_common.c.obj
 .debug_frame   0x00001624      0x2b0 examples/dfu/CMakeFiles/dfu_nrf52840_xxAA_s140_5.0.0-3.alpha.dir/__/__/mesh/serial/src/serial_handler_access.c.obj
 .debug_frame   0x000018d4       0x30 examples/dfu/CMakeFiles/dfu_nrf52840_xxAA_s140_5.0.0-3.alpha.dir/__/__/mesh/serial/src/serial_handler_config.c.obj
 .debug_frame   0x00001904       0x30 examples/dfu/CMakeFiles/dfu_nrf52840_xxAA_s140_5.0.0-3.alpha.dir/__/__/mesh/serial/src/serial_handler_openmesh.c.obj
 .debug_frame   0x00001934      0x104 examples/dfu/CMakeFiles/dfu_nrf52840_xxAA_s140_5.0.0-3.alpha.dir/__/__/mesh/serial/src/serial.c.obj
 .debug_frame   0x00001a38       0xb4 examples/dfu/CMakeFiles/dfu_nrf52840_xxAA_s140_5.0.0-3.alpha.dir/__/__/mesh/serial/src/serial_handler_prov.c.obj
 .debug_frame   0x00001aec       0x60 examples/dfu/CMakeFiles/dfu_nrf52840_xxAA_s140_5.0.0-3.alpha.dir/__/__/mesh/serial/src/serial_handler_dfu.c.obj
 .debug_frame   0x00001b4c      0x3a4 examples/dfu/CMakeFiles/dfu_nrf52840_xxAA_s140_5.0.0-3.alpha.dir/__/__/mesh/serial/src/serial_handler_mesh.c.obj
 .debug_frame   0x00001ef0       0xcc examples/dfu/CMakeFiles/dfu_nrf52840_xxAA_s140_5.0.0-3.alpha.dir/__/__/mesh/serial/src/serial_handler_models.c.obj
 .debug_frame   0x00001fbc      0x17c examples/dfu/CMakeFiles/dfu_nrf52840_xxAA_s140_5.0.0-3.alpha.dir/__/__/mesh/serial/src/serial_handler_device.c.obj
 .debug_frame   0x00002138       0x6c examples/dfu/CMakeFiles/dfu_nrf52840_xxAA_s140_5.0.0-3.alpha.dir/__/__/mesh/serial/src/nrf_mesh_serial.c.obj
 .debug_frame   0x000021a4       0x40 examples/dfu/CMakeFiles/dfu_nrf52840_xxAA_s140_5.0.0-3.alpha.dir/__/__/mesh/serial/src/serial_handler_app.c.obj
 .debug_frame   0x000021e4      0x170 examples/dfu/CMakeFiles/dfu_nrf52840_xxAA_s140_5.0.0-3.alpha.dir/__/__/mesh/prov/src/prov_provisioner.c.obj
 .debug_frame   0x00002354      0x180 examples/dfu/CMakeFiles/dfu_nrf52840_xxAA_s140_5.0.0-3.alpha.dir/__/__/mesh/prov/src/prov_provisionee.c.obj
 .debug_frame   0x000024d4      0x124 examples/dfu/CMakeFiles/dfu_nrf52840_xxAA_s140_5.0.0-3.alpha.dir/__/__/mesh/prov/src/nrf_mesh_prov.c.obj
 .debug_frame   0x000025f8      0x174 examples/dfu/CMakeFiles/dfu_nrf52840_xxAA_s140_5.0.0-3.alpha.dir/__/__/mesh/prov/src/provisioning.c.obj
 .debug_frame   0x0000276c       0x84 examples/dfu/CMakeFiles/dfu_nrf52840_xxAA_s140_5.0.0-3.alpha.dir/__/__/mesh/prov/src/prov_beacon.c.obj
 .debug_frame   0x000027f0      0x150 examples/dfu/CMakeFiles/dfu_nrf52840_xxAA_s140_5.0.0-3.alpha.dir/__/__/mesh/prov/src/prov_utils.c.obj
 .debug_frame   0x00002940      0x328 examples/dfu/CMakeFiles/dfu_nrf52840_xxAA_s140_5.0.0-3.alpha.dir/__/__/mesh/prov/src/prov_bearer_adv.c.obj
 .debug_frame   0x00002c68      0x280 examples/dfu/CMakeFiles/dfu_nrf52840_xxAA_s140_5.0.0-3.alpha.dir/__/__/mesh/dfu/src/nrf_mesh_dfu.c.obj
 .debug_frame   0x00002ee8       0x48 examples/dfu/CMakeFiles/dfu_nrf52840_xxAA_s140_5.0.0-3.alpha.dir/__/__/external/nRF5_SDK_14.2.0_17b948a/components/toolchain/system_nrf52840.c.obj
 .debug_frame   0x00002f30       0x48 mesh/core/libmesh_core_nrf52840_xxAA.a(internal_event.c.obj)
 .debug_frame   0x00002f78       0x4c mesh/core/libmesh_core_nrf52840_xxAA.a(nrf_mesh_configure.c.obj)
 .debug_frame   0x00002fc4       0x6c mesh/core/libmesh_core_nrf52840_xxAA.a(event.c.obj)
 .debug_frame   0x00003030      0x184 mesh/core/libmesh_core_nrf52840_xxAA.a(packet_buffer.c.obj)
 .debug_frame   0x000031b4       0xd0 mesh/core/libmesh_core_nrf52840_xxAA.a(fifo.c.obj)
 .debug_frame   0x00003284      0x264 mesh/core/libmesh_core_nrf52840_xxAA.a(net_state.c.obj)
 .debug_frame   0x000034e8      0x150 mesh/core/libmesh_core_nrf52840_xxAA.a(mesh_flash.c.obj)
 .debug_frame   0x00003638       0x50 mesh/core/libmesh_core_nrf52840_xxAA.a(nrf_mesh_utils.c.obj)
 .debug_frame   0x00003688      0x15c mesh/core/libmesh_core_nrf52840_xxAA.a(nrf_mesh.c.obj)
 .debug_frame   0x000037e4       0x48 mesh/core/libmesh_core_nrf52840_xxAA.a(hal.c.obj)
 .debug_frame   0x0000382c      0x13c mesh/core/libmesh_core_nrf52840_xxAA.a(timer_scheduler.c.obj)
 .debug_frame   0x00003968      0x10c mesh/core/libmesh_core_nrf52840_xxAA.a(timer.c.obj)
 .debug_frame   0x00003a74       0x4c mesh/core/libmesh_core_nrf52840_xxAA.a(ticker.c.obj)
 .debug_frame   0x00003ac0       0x84 mesh/core/libmesh_core_nrf52840_xxAA.a(rand.c.obj)
 .debug_frame   0x00003b44      0x1a0 mesh/core/libmesh_core_nrf52840_xxAA.a(timeslot.c.obj)
 .debug_frame   0x00003ce4      0x1c8 mesh/core/libmesh_core_nrf52840_xxAA.a(bearer_event.c.obj)
 .debug_frame   0x00003eac      0x150 mesh/core/libmesh_core_nrf52840_xxAA.a(enc.c.obj)
 .debug_frame   0x00003ffc      0x14c mesh/core/libmesh_core_nrf52840_xxAA.a(network.c.obj)
 .debug_frame   0x00004148       0xb8 mesh/core/libmesh_core_nrf52840_xxAA.a(msqueue.c.obj)
 .debug_frame   0x00004200       0xb4 mesh/core/libmesh_core_nrf52840_xxAA.a(nrf_mesh_keygen.c.obj)
 .debug_frame   0x000042b4       0xd4 mesh/core/libmesh_core_nrf52840_xxAA.a(list.c.obj)
 .debug_frame   0x00004388       0xb0 mesh/core/libmesh_core_nrf52840_xxAA.a(log.c.obj)
 .debug_frame   0x00004438      0x33c mesh/core/libmesh_core_nrf52840_xxAA.a(flash_manager.c.obj)
 .debug_frame   0x00004774      0x10c mesh/core/libmesh_core_nrf52840_xxAA.a(ccm_soft.c.obj)
 .debug_frame   0x00004880       0x98 mesh/core/libmesh_core_nrf52840_xxAA.a(beacon.c.obj)
 .debug_frame   0x00004918       0x34 mesh/core/libmesh_core_nrf52840_xxAA.a(flash_manager_internal.c.obj)
 .debug_frame   0x0000494c       0xe8 mesh/core/libmesh_core_nrf52840_xxAA.a(core_tx.c.obj)
 .debug_frame   0x00004a34      0x164 mesh/core/libmesh_core_nrf52840_xxAA.a(heartbeat.c.obj)
 .debug_frame   0x00004b98       0xd0 mesh/core/libmesh_core_nrf52840_xxAA.a(net_beacon.c.obj)
 .debug_frame   0x00004c68      0x128 mesh/core/libmesh_core_nrf52840_xxAA.a(core_tx_adv.c.obj)
 .debug_frame   0x00004d90       0x6c mesh/core/libmesh_core_nrf52840_xxAA.a(ad_listener.c.obj)
 .debug_frame   0x00004dfc       0xa8 mesh/core/libmesh_core_nrf52840_xxAA.a(ad_type_filter.c.obj)
 .debug_frame   0x00004ea4      0x284 mesh/core/libmesh_core_nrf52840_xxAA.a(advertiser.c.obj)
 .debug_frame   0x00005128      0x160 mesh/core/libmesh_core_nrf52840_xxAA.a(bearer_handler.c.obj)
 .debug_frame   0x00005288       0x70 mesh/core/libmesh_core_nrf52840_xxAA.a(broadcast.c.obj)
 .debug_frame   0x000052f8       0x7c mesh/core/libmesh_core_nrf52840_xxAA.a(filter_engine.c.obj)
 .debug_frame   0x00005374       0x90 mesh/core/libmesh_core_nrf52840_xxAA.a(radio_config.c.obj)
 .debug_frame   0x00005404      0x2a4 mesh/core/libmesh_core_nrf52840_xxAA.a(scanner.c.obj)
 .debug_frame   0x000056a8       0x40 mesh/core/libmesh_core_nrf52840_xxAA.a(aes.c.obj)
 .debug_frame   0x000056e8       0x6c mesh/core/libmesh_core_nrf52840_xxAA.a(msg_cache.c.obj)
 .debug_frame   0x00005754      0x44c mesh/core/libmesh_core_nrf52840_xxAA.a(transport.c.obj)
 .debug_frame   0x00005ba0      0x250 mesh/core/libmesh_core_nrf52840_xxAA.a(flash_manager_defrag.c.obj)
 .debug_frame   0x00005df0       0x54 mesh/core/libmesh_core_nrf52840_xxAA.a(nrf_flash.c.obj)
 .debug_frame   0x00005e44       0xa0 mesh/core/libmesh_core_nrf52840_xxAA.a(packet_mgr.c.obj)
 .debug_frame   0x00005ee4       0x74 mesh/core/libmesh_core_nrf52840_xxAA.a(queue.c.obj)
 .debug_frame   0x00005f58       0xa4 mesh/core/libmesh_core_nrf52840_xxAA.a(aes_cmac.c.obj)
 .debug_frame   0x00005ffc       0x30 mesh/core/libmesh_core_nrf52840_xxAA.a(nrf_mesh_opt.c.obj)
 .debug_frame   0x0000602c       0xa0 mesh/core/libmesh_core_nrf52840_xxAA.a(replay_cache.c.obj)
 .debug_frame   0x000060cc      0x2d8 external/rtt/librtt_nrf52840_xxAA.a(SEGGER_RTT.c.obj)
 .debug_frame   0x000063a4       0xac external/rtt/librtt_nrf52840_xxAA.a(SEGGER_RTT_printf.c.obj)
 .debug_frame   0x00006450      0x684 external/micro-ecc/libuECC_nrf52840_xxAA.a(uECC.c.obj)
 .debug_frame   0x00006ad4       0x28 c:/a/gcc_arm/6/bin/../lib/gcc/arm-none-eabi/6.3.1/../../../../arm-none-eabi/lib/thumb/v7e-m/fpv4-sp/hard\libg_nano.a(lib_a-exit.o)
 .debug_frame   0x00006afc       0x2c c:/a/gcc_arm/6/bin/../lib/gcc/arm-none-eabi/6.3.1/../../../../arm-none-eabi/lib/thumb/v7e-m/fpv4-sp/hard\libg_nano.a(lib_a-init.o)
 .debug_frame   0x00006b28       0x30 c:/a/gcc_arm/6/bin/../lib/gcc/arm-none-eabi/6.3.1/../../../../arm-none-eabi/lib/thumb/v7e-m/fpv4-sp/hard\libg_nano.a(lib_a-malloc.o)
 .debug_frame   0x00006b58       0x28 c:/a/gcc_arm/6/bin/../lib/gcc/arm-none-eabi/6.3.1/../../../../arm-none-eabi/lib/thumb/v7e-m/fpv4-sp/hard\libg_nano.a(lib_a-memcmp.o)
 .debug_frame   0x00006b80       0x28 c:/a/gcc_arm/6/bin/../lib/gcc/arm-none-eabi/6.3.1/../../../../arm-none-eabi/lib/thumb/v7e-m/fpv4-sp/hard\libg_nano.a(lib_a-memcpy-stub.o)
 .debug_frame   0x00006ba8       0x20 c:/a/gcc_arm/6/bin/../lib/gcc/arm-none-eabi/6.3.1/../../../../arm-none-eabi/lib/thumb/v7e-m/fpv4-sp/hard\libg_nano.a(lib_a-memset.o)
 .debug_frame   0x00006bc8       0x38 c:/a/gcc_arm/6/bin/../lib/gcc/arm-none-eabi/6.3.1/../../../../arm-none-eabi/lib/thumb/v7e-m/fpv4-sp/hard\libg_nano.a(lib_a-nano-freer.o)
 .debug_frame   0x00006c00       0x2c c:/a/gcc_arm/6/bin/../lib/gcc/arm-none-eabi/6.3.1/../../../../arm-none-eabi/lib/thumb/v7e-m/fpv4-sp/hard\libg_nano.a(lib_a-nano-mallocr.o)
 .debug_frame   0x00006c2c       0x2c c:/a/gcc_arm/6/bin/../lib/gcc/arm-none-eabi/6.3.1/../../../../arm-none-eabi/lib/thumb/v7e-m/fpv4-sp/hard\libg_nano.a(lib_a-sbrkr.o)
 .debug_frame   0x00006c58       0x20 c:/a/gcc_arm/6/bin/../lib/gcc/arm-none-eabi/6.3.1/../../../../arm-none-eabi/lib/thumb/v7e-m/fpv4-sp/hard\libg_nano.a(lib_a-strcpy.o)
 .debug_frame   0x00006c78       0x34 c:/a/gcc_arm/6/bin/../lib/gcc/arm-none-eabi/6.3.1/../../../../arm-none-eabi/lib/thumb/v7e-m/fpv4-sp/hard\libg_nano.a(lib_a-strrchr.o)
 .debug_frame   0x00006cac       0x30 c:/a/gcc_arm/6/bin/../lib/gcc/arm-none-eabi/6.3.1/../../../../arm-none-eabi/lib/thumb/v7e-m/fpv4-sp/hard\libg_nano.a(lib_a-mlock.o)
 .debug_frame   0x00006cdc       0x5c c:/a/gcc_arm/6/bin/../lib/gcc/arm-none-eabi/6.3.1/../../../../arm-none-eabi/lib/thumb/v7e-m/fpv4-sp/hard\libg_nano.a(lib_a-reent.o)
 .debug_frame   0x00006d38       0x20 c:/a/gcc_arm/6/bin/../lib/gcc/arm-none-eabi/6.3.1/../../../../arm-none-eabi/lib/thumb/v7e-m/fpv4-sp/hard\libg_nano.a(lib_a-strchr.o)
 .debug_frame   0x00006d58       0x20 c:/a/gcc_arm/6/bin/../lib/gcc/arm-none-eabi/6.3.1/../../../../arm-none-eabi/lib/thumb/v7e-m/fpv4-sp/hard\libnosys.a(sbrk.o)
 .debug_frame   0x00006d78       0x20 c:/a/gcc_arm/6/bin/../lib/gcc/arm-none-eabi/6.3.1/../../../../arm-none-eabi/lib/thumb/v7e-m/fpv4-sp/hard\libnosys.a(_exit.o)
