Archive member included to satisfy reference by file (symbol)

mesh/core/libmesh_core_nrf52840_xxAA.a(nrf_mesh_configure.c.obj)
                              examples/dfu/CMakeFiles/dfu_no_serial_nrf52840_xxAA_s140_5.0.0-3.alpha.dir/__/__/mesh/prov/src/prov_beacon.c.obj (nrf_mesh_configure_device_uuid_get)
mesh/core/libmesh_core_nrf52840_xxAA.a(event.c.obj)
                              examples/dfu/CMakeFiles/dfu_no_serial_nrf52840_xxAA_s140_5.0.0-3.alpha.dir/__/__/mesh/access/src/access.c.obj (event_handle)
mesh/core/libmesh_core_nrf52840_xxAA.a(net_state.c.obj)
                              examples/dfu/CMakeFiles/dfu_no_serial_nrf52840_xxAA_s140_5.0.0-3.alpha.dir/__/__/mesh/access/src/device_state_manager.c.obj (net_state_flash_area_get)
mesh/core/libmesh_core_nrf52840_xxAA.a(mesh_flash.c.obj)
                              examples/dfu/CMakeFiles/dfu_no_serial_nrf52840_xxAA_s140_5.0.0-3.alpha.dir/__/__/mesh/dfu/src/nrf_mesh_dfu.c.obj (mesh_flash_user_callback_set)
mesh/core/libmesh_core_nrf52840_xxAA.a(nrf_mesh_utils.c.obj)
                              examples/dfu/CMakeFiles/dfu_no_serial_nrf52840_xxAA_s140_5.0.0-3.alpha.dir/__/__/mesh/access/src/device_state_manager.c.obj (nrf_mesh_address_type_get)
mesh/core/libmesh_core_nrf52840_xxAA.a(nrf_mesh.c.obj)
                              examples/dfu/CMakeFiles/dfu_no_serial_nrf52840_xxAA_s140_5.0.0-3.alpha.dir/__/nrf_mesh_sdk.c.obj (nrf_mesh_init)
mesh/core/libmesh_core_nrf52840_xxAA.a(hal.c.obj)
                              examples/dfu/CMakeFiles/dfu_no_serial_nrf52840_xxAA_s140_5.0.0-3.alpha.dir/__/__/mesh/dfu/src/nrf_mesh_dfu.c.obj (hal_device_reset)
mesh/core/libmesh_core_nrf52840_xxAA.a(timer_scheduler.c.obj)
                              mesh/core/libmesh_core_nrf52840_xxAA.a(nrf_mesh.c.obj) (timer_sch_init)
mesh/core/libmesh_core_nrf52840_xxAA.a(timer.c.obj)
                              mesh/core/libmesh_core_nrf52840_xxAA.a(timer_scheduler.c.obj) (timer_order_cb)
mesh/core/libmesh_core_nrf52840_xxAA.a(ticker.c.obj)
                              mesh/core/libmesh_core_nrf52840_xxAA.a(nrf_mesh.c.obj) (ticker_init)
mesh/core/libmesh_core_nrf52840_xxAA.a(rand.c.obj)
                              examples/dfu/CMakeFiles/dfu_no_serial_nrf52840_xxAA_s140_5.0.0-3.alpha.dir/__/__/mesh/dfu/src/nrf_mesh_dfu.c.obj (rand_prng_get)
mesh/core/libmesh_core_nrf52840_xxAA.a(timeslot.c.obj)
                              mesh/core/libmesh_core_nrf52840_xxAA.a(nrf_mesh.c.obj) (timeslot_sd_event_handler)
mesh/core/libmesh_core_nrf52840_xxAA.a(bearer_event.c.obj)
                              mesh/core/libmesh_core_nrf52840_xxAA.a(nrf_mesh.c.obj) (bearer_event_init)
mesh/core/libmesh_core_nrf52840_xxAA.a(enc.c.obj)
                              examples/dfu/CMakeFiles/dfu_no_serial_nrf52840_xxAA_s140_5.0.0-3.alpha.dir/__/__/mesh/prov/src/prov_utils.c.obj (enc_aes_cmac)
mesh/core/libmesh_core_nrf52840_xxAA.a(network.c.obj)
                              mesh/core/libmesh_core_nrf52840_xxAA.a(nrf_mesh.c.obj) (network_init)
mesh/core/libmesh_core_nrf52840_xxAA.a(msqueue.c.obj)
                              mesh/core/libmesh_core_nrf52840_xxAA.a(mesh_flash.c.obj) (msq_get)
mesh/core/libmesh_core_nrf52840_xxAA.a(nrf_mesh_keygen.c.obj)
                              examples/dfu/CMakeFiles/dfu_no_serial_nrf52840_xxAA_s140_5.0.0-3.alpha.dir/__/__/mesh/access/src/device_state_manager.c.obj (nrf_mesh_keygen_aid)
mesh/core/libmesh_core_nrf52840_xxAA.a(list.c.obj)
                              mesh/core/libmesh_core_nrf52840_xxAA.a(event.c.obj) (list_add)
mesh/core/libmesh_core_nrf52840_xxAA.a(log.c.obj)
                              examples/dfu/CMakeFiles/dfu_no_serial_nrf52840_xxAA_s140_5.0.0-3.alpha.dir/src/main.c.obj (log_callback_rtt)
mesh/core/libmesh_core_nrf52840_xxAA.a(flash_manager.c.obj)
                              mesh/core/libmesh_core_nrf52840_xxAA.a(nrf_mesh.c.obj) (flash_manager_init)
mesh/core/libmesh_core_nrf52840_xxAA.a(ccm_soft.c.obj)
                              mesh/core/libmesh_core_nrf52840_xxAA.a(enc.c.obj) (ccm_soft_encrypt)
mesh/core/libmesh_core_nrf52840_xxAA.a(beacon.c.obj)
                              mesh/core/libmesh_core_nrf52840_xxAA.a(nrf_mesh.c.obj) (beacon_init)
mesh/core/libmesh_core_nrf52840_xxAA.a(flash_manager_internal.c.obj)
                              mesh/core/libmesh_core_nrf52840_xxAA.a(flash_manager.c.obj) (entry_get)
mesh/core/libmesh_core_nrf52840_xxAA.a(core_tx.c.obj)
                              mesh/core/libmesh_core_nrf52840_xxAA.a(network.c.obj) (core_tx_packet_alloc)
mesh/core/libmesh_core_nrf52840_xxAA.a(heartbeat.c.obj)
                              mesh/core/libmesh_core_nrf52840_xxAA.a(network.c.obj) (heartbeat_on_feature_change_trigger)
mesh/core/libmesh_core_nrf52840_xxAA.a(net_beacon.c.obj)
                              mesh/core/libmesh_core_nrf52840_xxAA.a(network.c.obj) (net_beacon_init)
mesh/core/libmesh_core_nrf52840_xxAA.a(core_tx_adv.c.obj)
                              mesh/core/libmesh_core_nrf52840_xxAA.a(nrf_mesh.c.obj) (core_tx_adv_init)
mesh/core/libmesh_core_nrf52840_xxAA.a(ad_listener.c.obj)
                              mesh/core/libmesh_core_nrf52840_xxAA.a(nrf_mesh.c.obj) (ad_listener_subscribe)
mesh/core/libmesh_core_nrf52840_xxAA.a(ad_type_filter.c.obj)
                              mesh/core/libmesh_core_nrf52840_xxAA.a(ad_listener.c.obj) (bearer_adtype_filtering_set)
mesh/core/libmesh_core_nrf52840_xxAA.a(advertiser.c.obj)
                              mesh/core/libmesh_core_nrf52840_xxAA.a(nrf_mesh.c.obj) (advertiser_init)
mesh/core/libmesh_core_nrf52840_xxAA.a(bearer_handler.c.obj)
                              mesh/core/libmesh_core_nrf52840_xxAA.a(nrf_mesh.c.obj) (bearer_handler_init)
mesh/core/libmesh_core_nrf52840_xxAA.a(broadcast.c.obj)
                              examples/dfu/CMakeFiles/dfu_no_serial_nrf52840_xxAA_s140_5.0.0-3.alpha.dir/__/__/mesh/dfu/src/nrf_mesh_dfu.c.obj (broadcast_send)
mesh/core/libmesh_core_nrf52840_xxAA.a(filter_engine.c.obj)
                              mesh/core/libmesh_core_nrf52840_xxAA.a(ad_type_filter.c.obj) (fen_filter_start)
mesh/core/libmesh_core_nrf52840_xxAA.a(radio_config.c.obj)
                              mesh/core/libmesh_core_nrf52840_xxAA.a(broadcast.c.obj) (radio_config_reset)
mesh/core/libmesh_core_nrf52840_xxAA.a(scanner.c.obj)
                              mesh/core/libmesh_core_nrf52840_xxAA.a(bearer_handler.c.obj) (scanner_radio_start)
mesh/core/libmesh_core_nrf52840_xxAA.a(internal_event.c.obj)
                              mesh/core/libmesh_core_nrf52840_xxAA.a(network.c.obj) (internal_event_push)
mesh/core/libmesh_core_nrf52840_xxAA.a(aes.c.obj)
                              mesh/core/libmesh_core_nrf52840_xxAA.a(enc.c.obj) (aes_encrypt)
mesh/core/libmesh_core_nrf52840_xxAA.a(msg_cache.c.obj)
                              mesh/core/libmesh_core_nrf52840_xxAA.a(nrf_mesh.c.obj) (msg_cache_init)
mesh/core/libmesh_core_nrf52840_xxAA.a(transport.c.obj)
                              mesh/core/libmesh_core_nrf52840_xxAA.a(nrf_mesh.c.obj) (transport_init)
mesh/core/libmesh_core_nrf52840_xxAA.a(packet_buffer.c.obj)
                              mesh/core/libmesh_core_nrf52840_xxAA.a(flash_manager.c.obj) (packet_buffer_init)
mesh/core/libmesh_core_nrf52840_xxAA.a(flash_manager_defrag.c.obj)
                              mesh/core/libmesh_core_nrf52840_xxAA.a(flash_manager.c.obj) (flash_manager_defrag_init)
mesh/core/libmesh_core_nrf52840_xxAA.a(fifo.c.obj)
                              mesh/core/libmesh_core_nrf52840_xxAA.a(bearer_event.c.obj) (fifo_init)
mesh/core/libmesh_core_nrf52840_xxAA.a(nrf_flash.c.obj)
                              mesh/core/libmesh_core_nrf52840_xxAA.a(mesh_flash.c.obj) (nrf_flash_erase)
mesh/core/libmesh_core_nrf52840_xxAA.a(packet_mgr.c.obj)
                              mesh/core/libmesh_core_nrf52840_xxAA.a(nrf_mesh.c.obj) (packet_mgr_init)
mesh/core/libmesh_core_nrf52840_xxAA.a(queue.c.obj)
                              mesh/core/libmesh_core_nrf52840_xxAA.a(bearer_event.c.obj) (queue_init)
mesh/core/libmesh_core_nrf52840_xxAA.a(aes_cmac.c.obj)
                              mesh/core/libmesh_core_nrf52840_xxAA.a(enc.c.obj) (aes_cmac)
mesh/core/libmesh_core_nrf52840_xxAA.a(nrf_mesh_opt.c.obj)
                              mesh/core/libmesh_core_nrf52840_xxAA.a(heartbeat.c.obj) (nrf_mesh_opt_get)
mesh/core/libmesh_core_nrf52840_xxAA.a(replay_cache.c.obj)
                              mesh/core/libmesh_core_nrf52840_xxAA.a(transport.c.obj) (replay_cache_add)
external/rtt/librtt_nrf52840_xxAA.a(SEGGER_RTT.c.obj)
                              mesh/core/libmesh_core_nrf52840_xxAA.a(log.c.obj) (SEGGER_RTT_Write)
external/rtt/librtt_nrf52840_xxAA.a(SEGGER_RTT_printf.c.obj)
                              mesh/core/libmesh_core_nrf52840_xxAA.a(log.c.obj) (SEGGER_RTT_vprintf)
external/micro-ecc/libuECC_nrf52840_xxAA.a(uECC.c.obj)
                              examples/dfu/CMakeFiles/dfu_no_serial_nrf52840_xxAA_s140_5.0.0-3.alpha.dir/__/__/mesh/prov/src/prov_utils.c.obj (uECC_secp256r1)
c:/a/gcc_arm/6/bin/../lib/gcc/arm-none-eabi/6.3.1/../../../../arm-none-eabi/lib/thumb/v7e-m/fpv4-sp/hard\libg_nano.a(lib_a-exit.o)
                              c:/a/gcc_arm/6/bin/../lib/gcc/arm-none-eabi/6.3.1/../../../../arm-none-eabi/lib/thumb/v7e-m/fpv4-sp/hard/crt0.o (exit)
c:/a/gcc_arm/6/bin/../lib/gcc/arm-none-eabi/6.3.1/../../../../arm-none-eabi/lib/thumb/v7e-m/fpv4-sp/hard\libg_nano.a(lib_a-impure.o)
                              c:/a/gcc_arm/6/bin/../lib/gcc/arm-none-eabi/6.3.1/../../../../arm-none-eabi/lib/thumb/v7e-m/fpv4-sp/hard\libg_nano.a(lib_a-exit.o) (_global_impure_ptr)
c:/a/gcc_arm/6/bin/../lib/gcc/arm-none-eabi/6.3.1/../../../../arm-none-eabi/lib/thumb/v7e-m/fpv4-sp/hard\libg_nano.a(lib_a-init.o)
                              c:/a/gcc_arm/6/bin/../lib/gcc/arm-none-eabi/6.3.1/../../../../arm-none-eabi/lib/thumb/v7e-m/fpv4-sp/hard/crt0.o (__libc_init_array)
c:/a/gcc_arm/6/bin/../lib/gcc/arm-none-eabi/6.3.1/../../../../arm-none-eabi/lib/thumb/v7e-m/fpv4-sp/hard\libg_nano.a(lib_a-malloc.o)
                              mesh/core/libmesh_core_nrf52840_xxAA.a(transport.c.obj) (malloc)
c:/a/gcc_arm/6/bin/../lib/gcc/arm-none-eabi/6.3.1/../../../../arm-none-eabi/lib/thumb/v7e-m/fpv4-sp/hard\libg_nano.a(lib_a-memcmp.o)
                              examples/dfu/CMakeFiles/dfu_no_serial_nrf52840_xxAA_s140_5.0.0-3.alpha.dir/__/__/mesh/access/src/device_state_manager.c.obj (memcmp)
c:/a/gcc_arm/6/bin/../lib/gcc/arm-none-eabi/6.3.1/../../../../arm-none-eabi/lib/thumb/v7e-m/fpv4-sp/hard\libg_nano.a(lib_a-memcpy-stub.o)
                              examples/dfu/CMakeFiles/dfu_no_serial_nrf52840_xxAA_s140_5.0.0-3.alpha.dir/__/__/mesh/access/src/access.c.obj (memcpy)
c:/a/gcc_arm/6/bin/../lib/gcc/arm-none-eabi/6.3.1/../../../../arm-none-eabi/lib/thumb/v7e-m/fpv4-sp/hard\libg_nano.a(lib_a-memset.o)
                              c:/a/gcc_arm/6/bin/../lib/gcc/arm-none-eabi/6.3.1/../../../../arm-none-eabi/lib/thumb/v7e-m/fpv4-sp/hard/crt0.o (memset)
c:/a/gcc_arm/6/bin/../lib/gcc/arm-none-eabi/6.3.1/../../../../arm-none-eabi/lib/thumb/v7e-m/fpv4-sp/hard\libg_nano.a(lib_a-nano-freer.o)
                              c:/a/gcc_arm/6/bin/../lib/gcc/arm-none-eabi/6.3.1/../../../../arm-none-eabi/lib/thumb/v7e-m/fpv4-sp/hard\libg_nano.a(lib_a-malloc.o) (_free_r)
c:/a/gcc_arm/6/bin/../lib/gcc/arm-none-eabi/6.3.1/../../../../arm-none-eabi/lib/thumb/v7e-m/fpv4-sp/hard\libg_nano.a(lib_a-nano-mallocr.o)
                              c:/a/gcc_arm/6/bin/../lib/gcc/arm-none-eabi/6.3.1/../../../../arm-none-eabi/lib/thumb/v7e-m/fpv4-sp/hard\libg_nano.a(lib_a-malloc.o) (_malloc_r)
c:/a/gcc_arm/6/bin/../lib/gcc/arm-none-eabi/6.3.1/../../../../arm-none-eabi/lib/thumb/v7e-m/fpv4-sp/hard\libg_nano.a(lib_a-sbrkr.o)
                              c:/a/gcc_arm/6/bin/../lib/gcc/arm-none-eabi/6.3.1/../../../../arm-none-eabi/lib/thumb/v7e-m/fpv4-sp/hard\libg_nano.a(lib_a-nano-mallocr.o) (_sbrk_r)
c:/a/gcc_arm/6/bin/../lib/gcc/arm-none-eabi/6.3.1/../../../../arm-none-eabi/lib/thumb/v7e-m/fpv4-sp/hard\libg_nano.a(lib_a-strcpy.o)
                              external/rtt/librtt_nrf52840_xxAA.a(SEGGER_RTT.c.obj) (strcpy)
c:/a/gcc_arm/6/bin/../lib/gcc/arm-none-eabi/6.3.1/../../../../arm-none-eabi/lib/thumb/v7e-m/fpv4-sp/hard\libg_nano.a(lib_a-strlen.o)
                              examples/dfu/CMakeFiles/dfu_no_serial_nrf52840_xxAA_s140_5.0.0-3.alpha.dir/__/__/mesh/prov/src/prov_beacon.c.obj (strlen)
c:/a/gcc_arm/6/bin/../lib/gcc/arm-none-eabi/6.3.1/../../../../arm-none-eabi/lib/thumb/v7e-m/fpv4-sp/hard\libg_nano.a(lib_a-strrchr.o)
                              examples/dfu/CMakeFiles/dfu_no_serial_nrf52840_xxAA_s140_5.0.0-3.alpha.dir/src/main.c.obj (strrchr)
c:/a/gcc_arm/6/bin/../lib/gcc/arm-none-eabi/6.3.1/../../../../arm-none-eabi/lib/thumb/v7e-m/fpv4-sp/hard\libg_nano.a(lib_a-mlock.o)
                              c:/a/gcc_arm/6/bin/../lib/gcc/arm-none-eabi/6.3.1/../../../../arm-none-eabi/lib/thumb/v7e-m/fpv4-sp/hard\libg_nano.a(lib_a-nano-freer.o) (__malloc_lock)
c:/a/gcc_arm/6/bin/../lib/gcc/arm-none-eabi/6.3.1/../../../../arm-none-eabi/lib/thumb/v7e-m/fpv4-sp/hard\libg_nano.a(lib_a-reent.o)
                              c:/a/gcc_arm/6/bin/../lib/gcc/arm-none-eabi/6.3.1/../../../../arm-none-eabi/lib/thumb/v7e-m/fpv4-sp/hard\libg_nano.a(lib_a-sbrkr.o) (errno)
c:/a/gcc_arm/6/bin/../lib/gcc/arm-none-eabi/6.3.1/../../../../arm-none-eabi/lib/thumb/v7e-m/fpv4-sp/hard\libg_nano.a(lib_a-strchr.o)
                              c:/a/gcc_arm/6/bin/../lib/gcc/arm-none-eabi/6.3.1/../../../../arm-none-eabi/lib/thumb/v7e-m/fpv4-sp/hard\libg_nano.a(lib_a-strrchr.o) (strchr)
c:/a/gcc_arm/6/bin/../lib/gcc/arm-none-eabi/6.3.1/../../../../arm-none-eabi/lib/thumb/v7e-m/fpv4-sp/hard\libnosys.a(sbrk.o)
                              c:/a/gcc_arm/6/bin/../lib/gcc/arm-none-eabi/6.3.1/../../../../arm-none-eabi/lib/thumb/v7e-m/fpv4-sp/hard\libg_nano.a(lib_a-sbrkr.o) (_sbrk)
c:/a/gcc_arm/6/bin/../lib/gcc/arm-none-eabi/6.3.1/../../../../arm-none-eabi/lib/thumb/v7e-m/fpv4-sp/hard\libnosys.a(_exit.o)
                              c:/a/gcc_arm/6/bin/../lib/gcc/arm-none-eabi/6.3.1/../../../../arm-none-eabi/lib/thumb/v7e-m/fpv4-sp/hard\libg_nano.a(lib_a-exit.o) (_exit)

Allocating common symbols
Common symbol       size              file

nrf_nvic_state      0xc               examples/dfu/CMakeFiles/dfu_no_serial_nrf52840_xxAA_s140_5.0.0-3.alpha.dir/__/nrf_mesh_sdk.c.obj
bank_addr           0x4               examples/dfu/CMakeFiles/dfu_no_serial_nrf52840_xxAA_s140_5.0.0-3.alpha.dir/src/main.c.obj
rom_length          0x4               examples/dfu/CMakeFiles/dfu_no_serial_nrf52840_xxAA_s140_5.0.0-3.alpha.dir/src/main.c.obj
m_cmd_handler       0x4               examples/dfu/CMakeFiles/dfu_no_serial_nrf52840_xxAA_s140_5.0.0-3.alpha.dir/__/__/mesh/dfu/src/nrf_mesh_dfu.c.obj
errno               0x4               c:/a/gcc_arm/6/bin/../lib/gcc/arm-none-eabi/6.3.1/../../../../arm-none-eabi/lib/thumb/v7e-m/fpv4-sp/hard\libg_nano.a(lib_a-reent.o)
m_assertion_handler
                    0x4               mesh/core/libmesh_core_nrf52840_xxAA.a(nrf_mesh.c.obj)
_SEGGER_RTT         0x78              external/rtt/librtt_nrf52840_xxAA.a(SEGGER_RTT.c.obj)

Discarded input sections

 .text          0x00000000        0x0 c:/a/gcc_arm/6/bin/../lib/gcc/arm-none-eabi/6.3.1/thumb/v7e-m/fpv4-sp/hard/crti.o
 .data          0x00000000        0x0 c:/a/gcc_arm/6/bin/../lib/gcc/arm-none-eabi/6.3.1/thumb/v7e-m/fpv4-sp/hard/crti.o
 .bss           0x00000000        0x0 c:/a/gcc_arm/6/bin/../lib/gcc/arm-none-eabi/6.3.1/thumb/v7e-m/fpv4-sp/hard/crti.o
 .data          0x00000000        0x4 c:/a/gcc_arm/6/bin/../lib/gcc/arm-none-eabi/6.3.1/thumb/v7e-m/fpv4-sp/hard/crtbegin.o
 .data          0x00000000        0x0 c:/a/gcc_arm/6/bin/../lib/gcc/arm-none-eabi/6.3.1/../../../../arm-none-eabi/lib/thumb/v7e-m/fpv4-sp/hard/crt0.o
 .bss           0x00000000        0x0 c:/a/gcc_arm/6/bin/../lib/gcc/arm-none-eabi/6.3.1/../../../../arm-none-eabi/lib/thumb/v7e-m/fpv4-sp/hard/crt0.o
 .ARM.extab     0x00000000        0x0 c:/a/gcc_arm/6/bin/../lib/gcc/arm-none-eabi/6.3.1/../../../../arm-none-eabi/lib/thumb/v7e-m/fpv4-sp/hard/crt0.o
 .text          0x00000000        0x0 examples/dfu/CMakeFiles/dfu_no_serial_nrf52840_xxAA_s140_5.0.0-3.alpha.dir/src/main.c.obj
 .data          0x00000000        0x0 examples/dfu/CMakeFiles/dfu_no_serial_nrf52840_xxAA_s140_5.0.0-3.alpha.dir/src/main.c.obj
 .bss           0x00000000        0x0 examples/dfu/CMakeFiles/dfu_no_serial_nrf52840_xxAA_s140_5.0.0-3.alpha.dir/src/main.c.obj
 .text          0x00000000        0x0 examples/dfu/CMakeFiles/dfu_no_serial_nrf52840_xxAA_s140_5.0.0-3.alpha.dir/__/nrf_mesh_sdk.c.obj
 .data          0x00000000        0x0 examples/dfu/CMakeFiles/dfu_no_serial_nrf52840_xxAA_s140_5.0.0-3.alpha.dir/__/nrf_mesh_sdk.c.obj
 .bss           0x00000000        0x0 examples/dfu/CMakeFiles/dfu_no_serial_nrf52840_xxAA_s140_5.0.0-3.alpha.dir/__/nrf_mesh_sdk.c.obj
 .text          0x00000000        0x0 examples/dfu/CMakeFiles/dfu_no_serial_nrf52840_xxAA_s140_5.0.0-3.alpha.dir/__/__/mesh/access/src/access_publish.c.obj
 .data          0x00000000        0x0 examples/dfu/CMakeFiles/dfu_no_serial_nrf52840_xxAA_s140_5.0.0-3.alpha.dir/__/__/mesh/access/src/access_publish.c.obj
 .bss           0x00000000        0x0 examples/dfu/CMakeFiles/dfu_no_serial_nrf52840_xxAA_s140_5.0.0-3.alpha.dir/__/__/mesh/access/src/access_publish.c.obj
 .text.add_to_publication_list
                0x00000000       0x84 examples/dfu/CMakeFiles/dfu_no_serial_nrf52840_xxAA_s140_5.0.0-3.alpha.dir/__/__/mesh/access/src/access_publish.c.obj
 .text.step_resolution_to_us
                0x00000000       0x44 examples/dfu/CMakeFiles/dfu_no_serial_nrf52840_xxAA_s140_5.0.0-3.alpha.dir/__/__/mesh/access/src/access_publish.c.obj
 .text.schedule_publication_timer
                0x00000000      0x184 examples/dfu/CMakeFiles/dfu_no_serial_nrf52840_xxAA_s140_5.0.0-3.alpha.dir/__/__/mesh/access/src/access_publish.c.obj
 .text.publish_timer_tick
                0x00000000       0xbc examples/dfu/CMakeFiles/dfu_no_serial_nrf52840_xxAA_s140_5.0.0-3.alpha.dir/__/__/mesh/access/src/access_publish.c.obj
 .text.access_publish_init
                0x00000000       0x38 examples/dfu/CMakeFiles/dfu_no_serial_nrf52840_xxAA_s140_5.0.0-3.alpha.dir/__/__/mesh/access/src/access_publish.c.obj
 .text.access_publish_period_set
                0x00000000       0x6c examples/dfu/CMakeFiles/dfu_no_serial_nrf52840_xxAA_s140_5.0.0-3.alpha.dir/__/__/mesh/access/src/access_publish.c.obj
 .text.access_publish_period_get
                0x00000000       0x30 examples/dfu/CMakeFiles/dfu_no_serial_nrf52840_xxAA_s140_5.0.0-3.alpha.dir/__/__/mesh/access/src/access_publish.c.obj
 .bss.m_publish_timer
                0x00000000       0x18 examples/dfu/CMakeFiles/dfu_no_serial_nrf52840_xxAA_s140_5.0.0-3.alpha.dir/__/__/mesh/access/src/access_publish.c.obj
 .bss.m_publish_timer_counter
                0x00000000        0x4 examples/dfu/CMakeFiles/dfu_no_serial_nrf52840_xxAA_s140_5.0.0-3.alpha.dir/__/__/mesh/access/src/access_publish.c.obj
 .bss.m_publish_timer_running
                0x00000000        0x1 examples/dfu/CMakeFiles/dfu_no_serial_nrf52840_xxAA_s140_5.0.0-3.alpha.dir/__/__/mesh/access/src/access_publish.c.obj
 .bss.m_timer_resolution
                0x00000000        0x1 examples/dfu/CMakeFiles/dfu_no_serial_nrf52840_xxAA_s140_5.0.0-3.alpha.dir/__/__/mesh/access/src/access_publish.c.obj
 .bss.mp_publication_list
                0x00000000        0x4 examples/dfu/CMakeFiles/dfu_no_serial_nrf52840_xxAA_s140_5.0.0-3.alpha.dir/__/__/mesh/access/src/access_publish.c.obj
 .debug_info    0x00000000     0x112b examples/dfu/CMakeFiles/dfu_no_serial_nrf52840_xxAA_s140_5.0.0-3.alpha.dir/__/__/mesh/access/src/access_publish.c.obj
 .debug_abbrev  0x00000000      0x460 examples/dfu/CMakeFiles/dfu_no_serial_nrf52840_xxAA_s140_5.0.0-3.alpha.dir/__/__/mesh/access/src/access_publish.c.obj
 .debug_loc     0x00000000      0x577 examples/dfu/CMakeFiles/dfu_no_serial_nrf52840_xxAA_s140_5.0.0-3.alpha.dir/__/__/mesh/access/src/access_publish.c.obj
 .debug_aranges
                0x00000000       0x50 examples/dfu/CMakeFiles/dfu_no_serial_nrf52840_xxAA_s140_5.0.0-3.alpha.dir/__/__/mesh/access/src/access_publish.c.obj
 .debug_ranges  0x00000000      0x178 examples/dfu/CMakeFiles/dfu_no_serial_nrf52840_xxAA_s140_5.0.0-3.alpha.dir/__/__/mesh/access/src/access_publish.c.obj
 .debug_line    0x00000000      0x44c examples/dfu/CMakeFiles/dfu_no_serial_nrf52840_xxAA_s140_5.0.0-3.alpha.dir/__/__/mesh/access/src/access_publish.c.obj
 .debug_str     0x00000000      0xbe6 examples/dfu/CMakeFiles/dfu_no_serial_nrf52840_xxAA_s140_5.0.0-3.alpha.dir/__/__/mesh/access/src/access_publish.c.obj
 .comment       0x00000000       0x80 examples/dfu/CMakeFiles/dfu_no_serial_nrf52840_xxAA_s140_5.0.0-3.alpha.dir/__/__/mesh/access/src/access_publish.c.obj
 .debug_frame   0x00000000      0x114 examples/dfu/CMakeFiles/dfu_no_serial_nrf52840_xxAA_s140_5.0.0-3.alpha.dir/__/__/mesh/access/src/access_publish.c.obj
 .ARM.attributes
                0x00000000       0x39 examples/dfu/CMakeFiles/dfu_no_serial_nrf52840_xxAA_s140_5.0.0-3.alpha.dir/__/__/mesh/access/src/access_publish.c.obj
 .text          0x00000000        0x0 examples/dfu/CMakeFiles/dfu_no_serial_nrf52840_xxAA_s140_5.0.0-3.alpha.dir/__/__/mesh/access/src/access.c.obj
 .data          0x00000000        0x0 examples/dfu/CMakeFiles/dfu_no_serial_nrf52840_xxAA_s140_5.0.0-3.alpha.dir/__/__/mesh/access/src/access.c.obj
 .bss           0x00000000        0x0 examples/dfu/CMakeFiles/dfu_no_serial_nrf52840_xxAA_s140_5.0.0-3.alpha.dir/__/__/mesh/access/src/access.c.obj
 .text.bitfield_get
                0x00000000       0x1a examples/dfu/CMakeFiles/dfu_no_serial_nrf52840_xxAA_s140_5.0.0-3.alpha.dir/__/__/mesh/access/src/access.c.obj
 .text.is_valid_opcode
                0x00000000       0x42 examples/dfu/CMakeFiles/dfu_no_serial_nrf52840_xxAA_s140_5.0.0-3.alpha.dir/__/__/mesh/access/src/access.c.obj
 .text.model_handle_valid_and_allocated
                0x00000000       0x20 examples/dfu/CMakeFiles/dfu_no_serial_nrf52840_xxAA_s140_5.0.0-3.alpha.dir/__/__/mesh/access/src/access.c.obj
 .text.flash_invalidate_complete
                0x00000000       0x14 examples/dfu/CMakeFiles/dfu_no_serial_nrf52840_xxAA_s140_5.0.0-3.alpha.dir/__/__/mesh/access/src/access.c.obj
 .text.flash_manager_mem_available
                0x00000000        0x2 examples/dfu/CMakeFiles/dfu_no_serial_nrf52840_xxAA_s140_5.0.0-3.alpha.dir/__/__/mesh/access/src/access.c.obj
 .text.restore_acquired_subscription
                0x00000000       0x30 examples/dfu/CMakeFiles/dfu_no_serial_nrf52840_xxAA_s140_5.0.0-3.alpha.dir/__/__/mesh/access/src/access.c.obj
 .text.restore_acquired_element
                0x00000000       0x1c examples/dfu/CMakeFiles/dfu_no_serial_nrf52840_xxAA_s140_5.0.0-3.alpha.dir/__/__/mesh/access/src/access.c.obj
 .text.restore_flash_data
                0x00000000       0x5c examples/dfu/CMakeFiles/dfu_no_serial_nrf52840_xxAA_s140_5.0.0-3.alpha.dir/__/__/mesh/access/src/access.c.obj
 .text.access_flash_config_clear
                0x00000000       0x28 examples/dfu/CMakeFiles/dfu_no_serial_nrf52840_xxAA_s140_5.0.0-3.alpha.dir/__/__/mesh/access/src/access.c.obj
 .text.access_flash_config_store
                0x00000000      0x14c examples/dfu/CMakeFiles/dfu_no_serial_nrf52840_xxAA_s140_5.0.0-3.alpha.dir/__/__/mesh/access/src/access.c.obj
 .text.access_state_clear
                0x00000000       0x4c examples/dfu/CMakeFiles/dfu_no_serial_nrf52840_xxAA_s140_5.0.0-3.alpha.dir/__/__/mesh/access/src/access.c.obj
 .text.add_flash_manager
                0x00000000       0x58 examples/dfu/CMakeFiles/dfu_no_serial_nrf52840_xxAA_s140_5.0.0-3.alpha.dir/__/__/mesh/access/src/access.c.obj
 .text.flash_remove_complete
                0x00000000       0x5c examples/dfu/CMakeFiles/dfu_no_serial_nrf52840_xxAA_s140_5.0.0-3.alpha.dir/__/__/mesh/access/src/access.c.obj
 .text.flash_write_complete
                0x00000000       0x54 examples/dfu/CMakeFiles/dfu_no_serial_nrf52840_xxAA_s140_5.0.0-3.alpha.dir/__/__/mesh/access/src/access.c.obj
 .text.unlikely.bitfield_next_get.part.0.constprop.3
                0x00000000       0x34 examples/dfu/CMakeFiles/dfu_no_serial_nrf52840_xxAA_s140_5.0.0-3.alpha.dir/__/__/mesh/access/src/access.c.obj
 .text.restore_acquired_model
                0x00000000       0x94 examples/dfu/CMakeFiles/dfu_no_serial_nrf52840_xxAA_s140_5.0.0-3.alpha.dir/__/__/mesh/access/src/access.c.obj
 .text.handle_incoming
                0x00000000      0x158 examples/dfu/CMakeFiles/dfu_no_serial_nrf52840_xxAA_s140_5.0.0-3.alpha.dir/__/__/mesh/access/src/access.c.obj
 .text.mesh_evt_cb
                0x00000000      0x134 examples/dfu/CMakeFiles/dfu_no_serial_nrf52840_xxAA_s140_5.0.0-3.alpha.dir/__/__/mesh/access/src/access.c.obj
 .text.packet_tx
                0x00000000      0x2c4 examples/dfu/CMakeFiles/dfu_no_serial_nrf52840_xxAA_s140_5.0.0-3.alpha.dir/__/__/mesh/access/src/access.c.obj
 .text.access_flash_config_load
                0x00000000      0x130 examples/dfu/CMakeFiles/dfu_no_serial_nrf52840_xxAA_s140_5.0.0-3.alpha.dir/__/__/mesh/access/src/access.c.obj
 .text.access_clear
                0x00000000       0x12 examples/dfu/CMakeFiles/dfu_no_serial_nrf52840_xxAA_s140_5.0.0-3.alpha.dir/__/__/mesh/access/src/access.c.obj
 .text.access_init
                0x00000000       0x28 examples/dfu/CMakeFiles/dfu_no_serial_nrf52840_xxAA_s140_5.0.0-3.alpha.dir/__/__/mesh/access/src/access.c.obj
 .text.access_model_add
                0x00000000      0x1b4 examples/dfu/CMakeFiles/dfu_no_serial_nrf52840_xxAA_s140_5.0.0-3.alpha.dir/__/__/mesh/access/src/access.c.obj
 .text.access_model_publish
                0x00000000        0xc examples/dfu/CMakeFiles/dfu_no_serial_nrf52840_xxAA_s140_5.0.0-3.alpha.dir/__/__/mesh/access/src/access.c.obj
 .text.access_model_reply
                0x00000000       0x12 examples/dfu/CMakeFiles/dfu_no_serial_nrf52840_xxAA_s140_5.0.0-3.alpha.dir/__/__/mesh/access/src/access.c.obj
 .text.access_model_publish_address_set
                0x00000000       0x3c examples/dfu/CMakeFiles/dfu_no_serial_nrf52840_xxAA_s140_5.0.0-3.alpha.dir/__/__/mesh/access/src/access.c.obj
 .text.access_model_publish_address_get
                0x00000000       0x28 examples/dfu/CMakeFiles/dfu_no_serial_nrf52840_xxAA_s140_5.0.0-3.alpha.dir/__/__/mesh/access/src/access.c.obj
 .text.access_model_publish_period_set
                0x00000000       0x6c examples/dfu/CMakeFiles/dfu_no_serial_nrf52840_xxAA_s140_5.0.0-3.alpha.dir/__/__/mesh/access/src/access.c.obj
 .text.access_model_publish_period_get
                0x00000000       0x3c examples/dfu/CMakeFiles/dfu_no_serial_nrf52840_xxAA_s140_5.0.0-3.alpha.dir/__/__/mesh/access/src/access.c.obj
 .text.access_model_subscription_list_alloc
                0x00000000       0x50 examples/dfu/CMakeFiles/dfu_no_serial_nrf52840_xxAA_s140_5.0.0-3.alpha.dir/__/__/mesh/access/src/access.c.obj
 .text.access_model_subscription_lists_share
                0x00000000       0x4c examples/dfu/CMakeFiles/dfu_no_serial_nrf52840_xxAA_s140_5.0.0-3.alpha.dir/__/__/mesh/access/src/access.c.obj
 .text.access_model_subscription_add
                0x00000000       0x60 examples/dfu/CMakeFiles/dfu_no_serial_nrf52840_xxAA_s140_5.0.0-3.alpha.dir/__/__/mesh/access/src/access.c.obj
 .text.access_model_subscription_remove
                0x00000000       0x60 examples/dfu/CMakeFiles/dfu_no_serial_nrf52840_xxAA_s140_5.0.0-3.alpha.dir/__/__/mesh/access/src/access.c.obj
 .text.access_model_subscriptions_get
                0x00000000       0x80 examples/dfu/CMakeFiles/dfu_no_serial_nrf52840_xxAA_s140_5.0.0-3.alpha.dir/__/__/mesh/access/src/access.c.obj
 .text.access_model_application_bind
                0x00000000       0x50 examples/dfu/CMakeFiles/dfu_no_serial_nrf52840_xxAA_s140_5.0.0-3.alpha.dir/__/__/mesh/access/src/access.c.obj
 .text.access_model_application_unbind
                0x00000000       0x50 examples/dfu/CMakeFiles/dfu_no_serial_nrf52840_xxAA_s140_5.0.0-3.alpha.dir/__/__/mesh/access/src/access.c.obj
 .text.access_model_applications_get
                0x00000000       0x64 examples/dfu/CMakeFiles/dfu_no_serial_nrf52840_xxAA_s140_5.0.0-3.alpha.dir/__/__/mesh/access/src/access.c.obj
 .text.access_model_publish_application_set
                0x00000000       0x3c examples/dfu/CMakeFiles/dfu_no_serial_nrf52840_xxAA_s140_5.0.0-3.alpha.dir/__/__/mesh/access/src/access.c.obj
 .text.access_model_publish_application_get
                0x00000000       0x28 examples/dfu/CMakeFiles/dfu_no_serial_nrf52840_xxAA_s140_5.0.0-3.alpha.dir/__/__/mesh/access/src/access.c.obj
 .text.access_default_ttl_set
                0x00000000       0x10 examples/dfu/CMakeFiles/dfu_no_serial_nrf52840_xxAA_s140_5.0.0-3.alpha.dir/__/__/mesh/access/src/access.c.obj
 .text.access_default_ttl_get
                0x00000000        0xc examples/dfu/CMakeFiles/dfu_no_serial_nrf52840_xxAA_s140_5.0.0-3.alpha.dir/__/__/mesh/access/src/access.c.obj
 .text.access_model_publish_ttl_set
                0x00000000       0x40 examples/dfu/CMakeFiles/dfu_no_serial_nrf52840_xxAA_s140_5.0.0-3.alpha.dir/__/__/mesh/access/src/access.c.obj
 .text.access_model_publish_ttl_get
                0x00000000       0x28 examples/dfu/CMakeFiles/dfu_no_serial_nrf52840_xxAA_s140_5.0.0-3.alpha.dir/__/__/mesh/access/src/access.c.obj
 .text.access_element_location_set
                0x00000000       0x20 examples/dfu/CMakeFiles/dfu_no_serial_nrf52840_xxAA_s140_5.0.0-3.alpha.dir/__/__/mesh/access/src/access.c.obj
 .text.access_element_location_get
                0x00000000       0x18 examples/dfu/CMakeFiles/dfu_no_serial_nrf52840_xxAA_s140_5.0.0-3.alpha.dir/__/__/mesh/access/src/access.c.obj
 .text.access_element_sig_model_count_get
                0x00000000       0x18 examples/dfu/CMakeFiles/dfu_no_serial_nrf52840_xxAA_s140_5.0.0-3.alpha.dir/__/__/mesh/access/src/access.c.obj
 .text.access_element_vendor_model_count_get
                0x00000000       0x18 examples/dfu/CMakeFiles/dfu_no_serial_nrf52840_xxAA_s140_5.0.0-3.alpha.dir/__/__/mesh/access/src/access.c.obj
 .text.access_model_id_get
                0x00000000       0x2c examples/dfu/CMakeFiles/dfu_no_serial_nrf52840_xxAA_s140_5.0.0-3.alpha.dir/__/__/mesh/access/src/access.c.obj
 .text.access_handle_get
                0x00000000       0x54 examples/dfu/CMakeFiles/dfu_no_serial_nrf52840_xxAA_s140_5.0.0-3.alpha.dir/__/__/mesh/access/src/access.c.obj
 .text.access_element_models_get
                0x00000000       0x48 examples/dfu/CMakeFiles/dfu_no_serial_nrf52840_xxAA_s140_5.0.0-3.alpha.dir/__/__/mesh/access/src/access.c.obj
 .text.access_model_p_args_get
                0x00000000       0x28 examples/dfu/CMakeFiles/dfu_no_serial_nrf52840_xxAA_s140_5.0.0-3.alpha.dir/__/__/mesh/access/src/access.c.obj
 .bss.m_element_pool
                0x00000000        0x6 examples/dfu/CMakeFiles/dfu_no_serial_nrf52840_xxAA_s140_5.0.0-3.alpha.dir/__/__/mesh/access/src/access.c.obj
 .bss.m_evt_handler
                0x00000000        0x8 examples/dfu/CMakeFiles/dfu_no_serial_nrf52840_xxAA_s140_5.0.0-3.alpha.dir/__/__/mesh/access/src/access.c.obj
 .bss.m_flash_manager
                0x00000000       0x24 examples/dfu/CMakeFiles/dfu_no_serial_nrf52840_xxAA_s140_5.0.0-3.alpha.dir/__/__/mesh/access/src/access.c.obj
 .bss.m_flash_not_ready
                0x00000000        0x1 examples/dfu/CMakeFiles/dfu_no_serial_nrf52840_xxAA_s140_5.0.0-3.alpha.dir/__/__/mesh/access/src/access.c.obj
 .bss.m_metadata_stored
                0x00000000        0x1 examples/dfu/CMakeFiles/dfu_no_serial_nrf52840_xxAA_s140_5.0.0-3.alpha.dir/__/__/mesh/access/src/access.c.obj
 .bss.m_model_pool
                0x00000000       0x68 examples/dfu/CMakeFiles/dfu_no_serial_nrf52840_xxAA_s140_5.0.0-3.alpha.dir/__/__/mesh/access/src/access.c.obj
 .bss.m_subscription_list_pool
                0x00000000       0x10 examples/dfu/CMakeFiles/dfu_no_serial_nrf52840_xxAA_s140_5.0.0-3.alpha.dir/__/__/mesh/access/src/access.c.obj
 .data.flash_add_mem_available_struct.10422
                0x00000000       0x10 examples/dfu/CMakeFiles/dfu_no_serial_nrf52840_xxAA_s140_5.0.0-3.alpha.dir/__/__/mesh/access/src/access.c.obj
 .data.flash_clear_mem_available_struct.10511
                0x00000000       0x10 examples/dfu/CMakeFiles/dfu_no_serial_nrf52840_xxAA_s140_5.0.0-3.alpha.dir/__/__/mesh/access/src/access.c.obj
 .data.flash_store_mem_available_struct.10535
                0x00000000       0x10 examples/dfu/CMakeFiles/dfu_no_serial_nrf52840_xxAA_s140_5.0.0-3.alpha.dir/__/__/mesh/access/src/access.c.obj
 .data.m_default_ttl
                0x00000000        0x1 examples/dfu/CMakeFiles/dfu_no_serial_nrf52840_xxAA_s140_5.0.0-3.alpha.dir/__/__/mesh/access/src/access.c.obj
 .rodata.mesh_evt_cb.str1.1
                0x00000000       0x2f examples/dfu/CMakeFiles/dfu_no_serial_nrf52840_xxAA_s140_5.0.0-3.alpha.dir/__/__/mesh/access/src/access.c.obj
 .rodata.multiply_de_bruijn_bit_position.9350
                0x00000000       0x20 examples/dfu/CMakeFiles/dfu_no_serial_nrf52840_xxAA_s140_5.0.0-3.alpha.dir/__/__/mesh/access/src/access.c.obj
 .rodata.packet_tx.str1.1
                0x00000000       0x13 examples/dfu/CMakeFiles/dfu_no_serial_nrf52840_xxAA_s140_5.0.0-3.alpha.dir/__/__/mesh/access/src/access.c.obj
 .debug_info    0x00000000     0x4474 examples/dfu/CMakeFiles/dfu_no_serial_nrf52840_xxAA_s140_5.0.0-3.alpha.dir/__/__/mesh/access/src/access.c.obj
 .debug_abbrev  0x00000000      0x68e examples/dfu/CMakeFiles/dfu_no_serial_nrf52840_xxAA_s140_5.0.0-3.alpha.dir/__/__/mesh/access/src/access.c.obj
 .debug_loc     0x00000000     0x2219 examples/dfu/CMakeFiles/dfu_no_serial_nrf52840_xxAA_s140_5.0.0-3.alpha.dir/__/__/mesh/access/src/access.c.obj
 .debug_aranges
                0x00000000      0x1b0 examples/dfu/CMakeFiles/dfu_no_serial_nrf52840_xxAA_s140_5.0.0-3.alpha.dir/__/__/mesh/access/src/access.c.obj
 .debug_ranges  0x00000000      0x780 examples/dfu/CMakeFiles/dfu_no_serial_nrf52840_xxAA_s140_5.0.0-3.alpha.dir/__/__/mesh/access/src/access.c.obj
 .debug_line    0x00000000      0xe66 examples/dfu/CMakeFiles/dfu_no_serial_nrf52840_xxAA_s140_5.0.0-3.alpha.dir/__/__/mesh/access/src/access.c.obj
 .debug_str     0x00000000     0x2b46 examples/dfu/CMakeFiles/dfu_no_serial_nrf52840_xxAA_s140_5.0.0-3.alpha.dir/__/__/mesh/access/src/access.c.obj
 .comment       0x00000000       0x80 examples/dfu/CMakeFiles/dfu_no_serial_nrf52840_xxAA_s140_5.0.0-3.alpha.dir/__/__/mesh/access/src/access.c.obj
 .debug_frame   0x00000000      0x544 examples/dfu/CMakeFiles/dfu_no_serial_nrf52840_xxAA_s140_5.0.0-3.alpha.dir/__/__/mesh/access/src/access.c.obj
 .ARM.attributes
                0x00000000       0x39 examples/dfu/CMakeFiles/dfu_no_serial_nrf52840_xxAA_s140_5.0.0-3.alpha.dir/__/__/mesh/access/src/access.c.obj
 .text          0x00000000        0x0 examples/dfu/CMakeFiles/dfu_no_serial_nrf52840_xxAA_s140_5.0.0-3.alpha.dir/__/__/mesh/access/src/access_reliable.c.obj
 .data          0x00000000        0x0 examples/dfu/CMakeFiles/dfu_no_serial_nrf52840_xxAA_s140_5.0.0-3.alpha.dir/__/__/mesh/access/src/access_reliable.c.obj
 .bss           0x00000000        0x0 examples/dfu/CMakeFiles/dfu_no_serial_nrf52840_xxAA_s140_5.0.0-3.alpha.dir/__/__/mesh/access/src/access_reliable.c.obj
 .text.remove_and_reschedule
                0x00000000       0xd8 examples/dfu/CMakeFiles/dfu_no_serial_nrf52840_xxAA_s140_5.0.0-3.alpha.dir/__/__/mesh/access/src/access_reliable.c.obj
 .text.reliable_timer_cb
                0x00000000      0x148 examples/dfu/CMakeFiles/dfu_no_serial_nrf52840_xxAA_s140_5.0.0-3.alpha.dir/__/__/mesh/access/src/access_reliable.c.obj
 .text.access_reliable_message_rx_cb
                0x00000000       0x74 examples/dfu/CMakeFiles/dfu_no_serial_nrf52840_xxAA_s140_5.0.0-3.alpha.dir/__/__/mesh/access/src/access_reliable.c.obj
 .text.access_reliable_init
                0x00000000       0x1c examples/dfu/CMakeFiles/dfu_no_serial_nrf52840_xxAA_s140_5.0.0-3.alpha.dir/__/__/mesh/access/src/access_reliable.c.obj
 .text.access_reliable_cancel_all
                0x00000000       0x34 examples/dfu/CMakeFiles/dfu_no_serial_nrf52840_xxAA_s140_5.0.0-3.alpha.dir/__/__/mesh/access/src/access_reliable.c.obj
 .text.access_model_reliable_cancel
                0x00000000       0x4c examples/dfu/CMakeFiles/dfu_no_serial_nrf52840_xxAA_s140_5.0.0-3.alpha.dir/__/__/mesh/access/src/access_reliable.c.obj
 .text.access_model_reliable_publish
                0x00000000      0x1ac examples/dfu/CMakeFiles/dfu_no_serial_nrf52840_xxAA_s140_5.0.0-3.alpha.dir/__/__/mesh/access/src/access_reliable.c.obj
 .bss.m_reliable
                0x00000000       0x74 examples/dfu/CMakeFiles/dfu_no_serial_nrf52840_xxAA_s140_5.0.0-3.alpha.dir/__/__/mesh/access/src/access_reliable.c.obj
 .debug_info    0x00000000     0x1537 examples/dfu/CMakeFiles/dfu_no_serial_nrf52840_xxAA_s140_5.0.0-3.alpha.dir/__/__/mesh/access/src/access_reliable.c.obj
 .debug_abbrev  0x00000000      0x433 examples/dfu/CMakeFiles/dfu_no_serial_nrf52840_xxAA_s140_5.0.0-3.alpha.dir/__/__/mesh/access/src/access_reliable.c.obj
 .debug_loc     0x00000000      0x8c4 examples/dfu/CMakeFiles/dfu_no_serial_nrf52840_xxAA_s140_5.0.0-3.alpha.dir/__/__/mesh/access/src/access_reliable.c.obj
 .debug_aranges
                0x00000000       0x50 examples/dfu/CMakeFiles/dfu_no_serial_nrf52840_xxAA_s140_5.0.0-3.alpha.dir/__/__/mesh/access/src/access_reliable.c.obj
 .debug_ranges  0x00000000      0x278 examples/dfu/CMakeFiles/dfu_no_serial_nrf52840_xxAA_s140_5.0.0-3.alpha.dir/__/__/mesh/access/src/access_reliable.c.obj
 .debug_line    0x00000000      0x50b examples/dfu/CMakeFiles/dfu_no_serial_nrf52840_xxAA_s140_5.0.0-3.alpha.dir/__/__/mesh/access/src/access_reliable.c.obj
 .debug_str     0x00000000      0xcb4 examples/dfu/CMakeFiles/dfu_no_serial_nrf52840_xxAA_s140_5.0.0-3.alpha.dir/__/__/mesh/access/src/access_reliable.c.obj
 .comment       0x00000000       0x80 examples/dfu/CMakeFiles/dfu_no_serial_nrf52840_xxAA_s140_5.0.0-3.alpha.dir/__/__/mesh/access/src/access_reliable.c.obj
 .debug_frame   0x00000000      0x10c examples/dfu/CMakeFiles/dfu_no_serial_nrf52840_xxAA_s140_5.0.0-3.alpha.dir/__/__/mesh/access/src/access_reliable.c.obj
 .ARM.attributes
                0x00000000       0x39 examples/dfu/CMakeFiles/dfu_no_serial_nrf52840_xxAA_s140_5.0.0-3.alpha.dir/__/__/mesh/access/src/access_reliable.c.obj
 .text          0x00000000        0x0 examples/dfu/CMakeFiles/dfu_no_serial_nrf52840_xxAA_s140_5.0.0-3.alpha.dir/__/__/mesh/access/src/device_state_manager.c.obj
 .data          0x00000000        0x0 examples/dfu/CMakeFiles/dfu_no_serial_nrf52840_xxAA_s140_5.0.0-3.alpha.dir/__/__/mesh/access/src/device_state_manager.c.obj
 .bss           0x00000000        0x0 examples/dfu/CMakeFiles/dfu_no_serial_nrf52840_xxAA_s140_5.0.0-3.alpha.dir/__/__/mesh/access/src/device_state_manager.c.obj
 .text.bitfield_set
                0x00000000       0x18 examples/dfu/CMakeFiles/dfu_no_serial_nrf52840_xxAA_s140_5.0.0-3.alpha.dir/__/__/mesh/access/src/device_state_manager.c.obj
 .text.bitfield_clear
                0x00000000       0x1a examples/dfu/CMakeFiles/dfu_no_serial_nrf52840_xxAA_s140_5.0.0-3.alpha.dir/__/__/mesh/access/src/device_state_manager.c.obj
 .text.bitfield_is_all_clear
                0x00000000       0x3c examples/dfu/CMakeFiles/dfu_no_serial_nrf52840_xxAA_s140_5.0.0-3.alpha.dir/__/__/mesh/access/src/device_state_manager.c.obj
 .text.address_handle_virtual_valid
                0x00000000       0x18 examples/dfu/CMakeFiles/dfu_no_serial_nrf52840_xxAA_s140_5.0.0-3.alpha.dir/__/__/mesh/access/src/device_state_manager.c.obj
 .text.net_key_handle_get
                0x00000000       0x58 examples/dfu/CMakeFiles/dfu_no_serial_nrf52840_xxAA_s140_5.0.0-3.alpha.dir/__/__/mesh/access/src/device_state_manager.c.obj
 .text.dev_key_handle_get
                0x00000000       0x30 examples/dfu/CMakeFiles/dfu_no_serial_nrf52840_xxAA_s140_5.0.0-3.alpha.dir/__/__/mesh/access/src/device_state_manager.c.obj
 .text.app_key_handle_get
                0x00000000       0x58 examples/dfu/CMakeFiles/dfu_no_serial_nrf52840_xxAA_s140_5.0.0-3.alpha.dir/__/__/mesh/access/src/device_state_manager.c.obj
 .text.addr_nonvirtual_to_flash_entry
                0x00000000       0x10 examples/dfu/CMakeFiles/dfu_no_serial_nrf52840_xxAA_s140_5.0.0-3.alpha.dir/__/__/mesh/access/src/device_state_manager.c.obj
 .text.flash_mem_listener_callback
                0x00000000       0x20 examples/dfu/CMakeFiles/dfu_no_serial_nrf52840_xxAA_s140_5.0.0-3.alpha.dir/__/__/mesh/access/src/device_state_manager.c.obj
 .text.devkey_set
                0x00000000       0x50 examples/dfu/CMakeFiles/dfu_no_serial_nrf52840_xxAA_s140_5.0.0-3.alpha.dir/__/__/mesh/access/src/device_state_manager.c.obj
 .text.devkey_to_dsm_entry
                0x00000000       0x18 examples/dfu/CMakeFiles/dfu_no_serial_nrf52840_xxAA_s140_5.0.0-3.alpha.dir/__/__/mesh/access/src/device_state_manager.c.obj
 .text.devkey_to_flash_entry
                0x00000000       0x28 examples/dfu/CMakeFiles/dfu_no_serial_nrf52840_xxAA_s140_5.0.0-3.alpha.dir/__/__/mesh/access/src/device_state_manager.c.obj
 .text.addr_virtual_to_flash_entry
                0x00000000       0x18 examples/dfu/CMakeFiles/dfu_no_serial_nrf52840_xxAA_s140_5.0.0-3.alpha.dir/__/__/mesh/access/src/device_state_manager.c.obj
 .text.addr_unicast_to_dsm_entry
                0x00000000        0xc examples/dfu/CMakeFiles/dfu_no_serial_nrf52840_xxAA_s140_5.0.0-3.alpha.dir/__/__/mesh/access/src/device_state_manager.c.obj
 .text.addr_unicast_to_flash_entry
                0x00000000       0x10 examples/dfu/CMakeFiles/dfu_no_serial_nrf52840_xxAA_s140_5.0.0-3.alpha.dir/__/__/mesh/access/src/device_state_manager.c.obj
 .text.appkey_set
                0x00000000       0x7c examples/dfu/CMakeFiles/dfu_no_serial_nrf52840_xxAA_s140_5.0.0-3.alpha.dir/__/__/mesh/access/src/device_state_manager.c.obj
 .text.appkey_to_flash_entry
                0x00000000       0x54 examples/dfu/CMakeFiles/dfu_no_serial_nrf52840_xxAA_s140_5.0.0-3.alpha.dir/__/__/mesh/access/src/device_state_manager.c.obj
 .text.subnet_to_flash_entry
                0x00000000       0x60 examples/dfu/CMakeFiles/dfu_no_serial_nrf52840_xxAA_s140_5.0.0-3.alpha.dir/__/__/mesh/access/src/device_state_manager.c.obj
 .text.subnet_set
                0x00000000       0xb4 examples/dfu/CMakeFiles/dfu_no_serial_nrf52840_xxAA_s140_5.0.0-3.alpha.dir/__/__/mesh/access/src/device_state_manager.c.obj
 .text.virtual_address_set
                0x00000000       0x58 examples/dfu/CMakeFiles/dfu_no_serial_nrf52840_xxAA_s140_5.0.0-3.alpha.dir/__/__/mesh/access/src/device_state_manager.c.obj
 .text.addr_virtual_to_dsm_entry
                0x00000000        0xe examples/dfu/CMakeFiles/dfu_no_serial_nrf52840_xxAA_s140_5.0.0-3.alpha.dir/__/__/mesh/access/src/device_state_manager.c.obj
 .text.reset_flash_area
                0x00000000       0x28 examples/dfu/CMakeFiles/dfu_no_serial_nrf52840_xxAA_s140_5.0.0-3.alpha.dir/__/__/mesh/access/src/device_state_manager.c.obj
 .text.flash_save
                0x00000000       0x88 examples/dfu/CMakeFiles/dfu_no_serial_nrf52840_xxAA_s140_5.0.0-3.alpha.dir/__/__/mesh/access/src/device_state_manager.c.obj
 .text.flash_invalidate
                0x00000000       0x70 examples/dfu/CMakeFiles/dfu_no_serial_nrf52840_xxAA_s140_5.0.0-3.alpha.dir/__/__/mesh/access/src/device_state_manager.c.obj
 .text.flash_update_all
                0x00000000       0x6c examples/dfu/CMakeFiles/dfu_no_serial_nrf52840_xxAA_s140_5.0.0-3.alpha.dir/__/__/mesh/access/src/device_state_manager.c.obj
 .text.add_address_virtual
                0x00000000       0x74 examples/dfu/CMakeFiles/dfu_no_serial_nrf52840_xxAA_s140_5.0.0-3.alpha.dir/__/__/mesh/access/src/device_state_manager.c.obj
 .text.appkey_to_dsm_entry
                0x00000000       0x80 examples/dfu/CMakeFiles/dfu_no_serial_nrf52840_xxAA_s140_5.0.0-3.alpha.dir/__/__/mesh/access/src/device_state_manager.c.obj
 .text.subnet_to_dsm_entry
                0x00000000       0x7c examples/dfu/CMakeFiles/dfu_no_serial_nrf52840_xxAA_s140_5.0.0-3.alpha.dir/__/__/mesh/access/src/device_state_manager.c.obj
 .text.flash_operation_complete
                0x00000000       0x58 examples/dfu/CMakeFiles/dfu_no_serial_nrf52840_xxAA_s140_5.0.0-3.alpha.dir/__/__/mesh/access/src/device_state_manager.c.obj
 .text.flash_invalidate_complete
                0x00000000        0x8 examples/dfu/CMakeFiles/dfu_no_serial_nrf52840_xxAA_s140_5.0.0-3.alpha.dir/__/__/mesh/access/src/device_state_manager.c.obj
 .text.flash_write_complete
                0x00000000        0x8 examples/dfu/CMakeFiles/dfu_no_serial_nrf52840_xxAA_s140_5.0.0-3.alpha.dir/__/__/mesh/access/src/device_state_manager.c.obj
 .text.add_address.part.7
                0x00000000      0x164 examples/dfu/CMakeFiles/dfu_no_serial_nrf52840_xxAA_s140_5.0.0-3.alpha.dir/__/__/mesh/access/src/device_state_manager.c.obj
 .text.address_handle_valid
                0x00000000       0x28 examples/dfu/CMakeFiles/dfu_no_serial_nrf52840_xxAA_s140_5.0.0-3.alpha.dir/__/__/mesh/access/src/device_state_manager.c.obj
 .text.address_handle_nonvirtual_valid
                0x00000000       0x14 examples/dfu/CMakeFiles/dfu_no_serial_nrf52840_xxAA_s140_5.0.0-3.alpha.dir/__/__/mesh/access/src/device_state_manager.c.obj
 .text.address_delete_if_unused
                0x00000000       0x78 examples/dfu/CMakeFiles/dfu_no_serial_nrf52840_xxAA_s140_5.0.0-3.alpha.dir/__/__/mesh/access/src/device_state_manager.c.obj
 .text.addr_nonvirtual_to_dsm_entry
                0x00000000       0x38 examples/dfu/CMakeFiles/dfu_no_serial_nrf52840_xxAA_s140_5.0.0-3.alpha.dir/__/__/mesh/access/src/device_state_manager.c.obj
 .text.dsm_flash_config_load
                0x00000000      0x134 examples/dfu/CMakeFiles/dfu_no_serial_nrf52840_xxAA_s140_5.0.0-3.alpha.dir/__/__/mesh/access/src/device_state_manager.c.obj
 .text.dsm_has_unflashed_data
                0x00000000       0x24 examples/dfu/CMakeFiles/dfu_no_serial_nrf52840_xxAA_s140_5.0.0-3.alpha.dir/__/__/mesh/access/src/device_state_manager.c.obj
 .text.dsm_flash_area_get
                0x00000000        0xc examples/dfu/CMakeFiles/dfu_no_serial_nrf52840_xxAA_s140_5.0.0-3.alpha.dir/__/__/mesh/access/src/device_state_manager.c.obj
 .text.build_flash_area
                0x00000000       0x8c examples/dfu/CMakeFiles/dfu_no_serial_nrf52840_xxAA_s140_5.0.0-3.alpha.dir/__/__/mesh/access/src/device_state_manager.c.obj
 .text.flash_remove_complete
                0x00000000        0x4 examples/dfu/CMakeFiles/dfu_no_serial_nrf52840_xxAA_s140_5.0.0-3.alpha.dir/__/__/mesh/access/src/device_state_manager.c.obj
 .text.dsm_clear
                0x00000000       0x74 examples/dfu/CMakeFiles/dfu_no_serial_nrf52840_xxAA_s140_5.0.0-3.alpha.dir/__/__/mesh/access/src/device_state_manager.c.obj
 .text.dsm_init
                0x00000000       0x24 examples/dfu/CMakeFiles/dfu_no_serial_nrf52840_xxAA_s140_5.0.0-3.alpha.dir/__/__/mesh/access/src/device_state_manager.c.obj
 .text.dsm_local_unicast_addresses_set
                0x00000000       0x84 examples/dfu/CMakeFiles/dfu_no_serial_nrf52840_xxAA_s140_5.0.0-3.alpha.dir/__/__/mesh/access/src/device_state_manager.c.obj
 .text.dsm_local_unicast_addresses_get
                0x00000000       0x2c examples/dfu/CMakeFiles/dfu_no_serial_nrf52840_xxAA_s140_5.0.0-3.alpha.dir/__/__/mesh/access/src/device_state_manager.c.obj
 .text.dsm_address_publish_add
                0x00000000        0xc examples/dfu/CMakeFiles/dfu_no_serial_nrf52840_xxAA_s140_5.0.0-3.alpha.dir/__/__/mesh/access/src/device_state_manager.c.obj
 .text.dsm_address_publish_add_handle
                0x00000000       0x38 examples/dfu/CMakeFiles/dfu_no_serial_nrf52840_xxAA_s140_5.0.0-3.alpha.dir/__/__/mesh/access/src/device_state_manager.c.obj
 .text.dsm_address_publish_virtual_add
                0x00000000        0x6 examples/dfu/CMakeFiles/dfu_no_serial_nrf52840_xxAA_s140_5.0.0-3.alpha.dir/__/__/mesh/access/src/device_state_manager.c.obj
 .text.dsm_address_publish_remove
                0x00000000       0x44 examples/dfu/CMakeFiles/dfu_no_serial_nrf52840_xxAA_s140_5.0.0-3.alpha.dir/__/__/mesh/access/src/device_state_manager.c.obj
 .text.dsm_address_subscription_add
                0x00000000        0xc examples/dfu/CMakeFiles/dfu_no_serial_nrf52840_xxAA_s140_5.0.0-3.alpha.dir/__/__/mesh/access/src/device_state_manager.c.obj
 .text.dsm_address_subscription_virtual_add
                0x00000000        0x6 examples/dfu/CMakeFiles/dfu_no_serial_nrf52840_xxAA_s140_5.0.0-3.alpha.dir/__/__/mesh/access/src/device_state_manager.c.obj
 .text.dsm_address_subscription_add_handle
                0x00000000       0x38 examples/dfu/CMakeFiles/dfu_no_serial_nrf52840_xxAA_s140_5.0.0-3.alpha.dir/__/__/mesh/access/src/device_state_manager.c.obj
 .text.dsm_address_subscription_get
                0x00000000       0x34 examples/dfu/CMakeFiles/dfu_no_serial_nrf52840_xxAA_s140_5.0.0-3.alpha.dir/__/__/mesh/access/src/device_state_manager.c.obj
 .text.dsm_address_get
                0x00000000       0x5c examples/dfu/CMakeFiles/dfu_no_serial_nrf52840_xxAA_s140_5.0.0-3.alpha.dir/__/__/mesh/access/src/device_state_manager.c.obj
 .text.dsm_address_subscription_count_get
                0x00000000       0x58 examples/dfu/CMakeFiles/dfu_no_serial_nrf52840_xxAA_s140_5.0.0-3.alpha.dir/__/__/mesh/access/src/device_state_manager.c.obj
 .text.dsm_address_subscription_remove
                0x00000000       0x5c examples/dfu/CMakeFiles/dfu_no_serial_nrf52840_xxAA_s140_5.0.0-3.alpha.dir/__/__/mesh/access/src/device_state_manager.c.obj
 .text.dsm_address_get_all
                0x00000000       0x74 examples/dfu/CMakeFiles/dfu_no_serial_nrf52840_xxAA_s140_5.0.0-3.alpha.dir/__/__/mesh/access/src/device_state_manager.c.obj
 .text.dsm_address_handle_get
                0x00000000       0x98 examples/dfu/CMakeFiles/dfu_no_serial_nrf52840_xxAA_s140_5.0.0-3.alpha.dir/__/__/mesh/access/src/device_state_manager.c.obj
 .text.dsm_net_key_index_to_subnet_handle
                0x00000000       0x1c examples/dfu/CMakeFiles/dfu_no_serial_nrf52840_xxAA_s140_5.0.0-3.alpha.dir/__/__/mesh/access/src/device_state_manager.c.obj
 .text.dsm_subnet_handle_get
                0x00000000        0xc examples/dfu/CMakeFiles/dfu_no_serial_nrf52840_xxAA_s140_5.0.0-3.alpha.dir/__/__/mesh/access/src/device_state_manager.c.obj
 .text.dsm_subnet_handle_to_netkey_index
                0x00000000       0x34 examples/dfu/CMakeFiles/dfu_no_serial_nrf52840_xxAA_s140_5.0.0-3.alpha.dir/__/__/mesh/access/src/device_state_manager.c.obj
 .text.dsm_appkey_index_to_appkey_handle
                0x00000000       0x1c examples/dfu/CMakeFiles/dfu_no_serial_nrf52840_xxAA_s140_5.0.0-3.alpha.dir/__/__/mesh/access/src/device_state_manager.c.obj
 .text.dsm_appkey_handle_get
                0x00000000        0xc examples/dfu/CMakeFiles/dfu_no_serial_nrf52840_xxAA_s140_5.0.0-3.alpha.dir/__/__/mesh/access/src/device_state_manager.c.obj
 .text.dsm_appkey_handle_to_appkey_index
                0x00000000       0x34 examples/dfu/CMakeFiles/dfu_no_serial_nrf52840_xxAA_s140_5.0.0-3.alpha.dir/__/__/mesh/access/src/device_state_manager.c.obj
 .text.dsm_subnet_add
                0x00000000       0x58 examples/dfu/CMakeFiles/dfu_no_serial_nrf52840_xxAA_s140_5.0.0-3.alpha.dir/__/__/mesh/access/src/device_state_manager.c.obj
 .text.dsm_subnet_kr_phase_get
                0x00000000       0x34 examples/dfu/CMakeFiles/dfu_no_serial_nrf52840_xxAA_s140_5.0.0-3.alpha.dir/__/__/mesh/access/src/device_state_manager.c.obj
 .text.dsm_subnet_update
                0x00000000       0xc0 examples/dfu/CMakeFiles/dfu_no_serial_nrf52840_xxAA_s140_5.0.0-3.alpha.dir/__/__/mesh/access/src/device_state_manager.c.obj
 .text.dsm_subnet_update_swap_keys
                0x00000000       0x58 examples/dfu/CMakeFiles/dfu_no_serial_nrf52840_xxAA_s140_5.0.0-3.alpha.dir/__/__/mesh/access/src/device_state_manager.c.obj
 .text.dsm_subnet_update_commit
                0x00000000       0xec examples/dfu/CMakeFiles/dfu_no_serial_nrf52840_xxAA_s140_5.0.0-3.alpha.dir/__/__/mesh/access/src/device_state_manager.c.obj
 .text.net_beacon_callback
                0x00000000       0x74 examples/dfu/CMakeFiles/dfu_no_serial_nrf52840_xxAA_s140_5.0.0-3.alpha.dir/__/__/mesh/access/src/device_state_manager.c.obj
 .text.dsm_subnet_get_all
                0x00000000       0x60 examples/dfu/CMakeFiles/dfu_no_serial_nrf52840_xxAA_s140_5.0.0-3.alpha.dir/__/__/mesh/access/src/device_state_manager.c.obj
 .text.dsm_devkey_add
                0x00000000       0x7c examples/dfu/CMakeFiles/dfu_no_serial_nrf52840_xxAA_s140_5.0.0-3.alpha.dir/__/__/mesh/access/src/device_state_manager.c.obj
 .text.dsm_devkey_delete
                0x00000000       0x38 examples/dfu/CMakeFiles/dfu_no_serial_nrf52840_xxAA_s140_5.0.0-3.alpha.dir/__/__/mesh/access/src/device_state_manager.c.obj
 .text.dsm_devkey_handle_get
                0x00000000       0x34 examples/dfu/CMakeFiles/dfu_no_serial_nrf52840_xxAA_s140_5.0.0-3.alpha.dir/__/__/mesh/access/src/device_state_manager.c.obj
 .text.dsm_appkey_add
                0x00000000       0x78 examples/dfu/CMakeFiles/dfu_no_serial_nrf52840_xxAA_s140_5.0.0-3.alpha.dir/__/__/mesh/access/src/device_state_manager.c.obj
 .text.dsm_appkey_update
                0x00000000       0xa0 examples/dfu/CMakeFiles/dfu_no_serial_nrf52840_xxAA_s140_5.0.0-3.alpha.dir/__/__/mesh/access/src/device_state_manager.c.obj
 .text.dsm_appkey_delete
                0x00000000       0x30 examples/dfu/CMakeFiles/dfu_no_serial_nrf52840_xxAA_s140_5.0.0-3.alpha.dir/__/__/mesh/access/src/device_state_manager.c.obj
 .text.dsm_subnet_delete
                0x00000000       0xa4 examples/dfu/CMakeFiles/dfu_no_serial_nrf52840_xxAA_s140_5.0.0-3.alpha.dir/__/__/mesh/access/src/device_state_manager.c.obj
 .text.dsm_appkey_get_all
                0x00000000       0x88 examples/dfu/CMakeFiles/dfu_no_serial_nrf52840_xxAA_s140_5.0.0-3.alpha.dir/__/__/mesh/access/src/device_state_manager.c.obj
 .text.dsm_tx_secmat_get
                0x00000000      0x10c examples/dfu/CMakeFiles/dfu_no_serial_nrf52840_xxAA_s140_5.0.0-3.alpha.dir/__/__/mesh/access/src/device_state_manager.c.obj
 .text.dsm_beacon_secmat_get
                0x00000000       0x38 examples/dfu/CMakeFiles/dfu_no_serial_nrf52840_xxAA_s140_5.0.0-3.alpha.dir/__/__/mesh/access/src/device_state_manager.c.obj
 .text.dsm_net_secmat_from_keyindex_get
                0x00000000       0x3c examples/dfu/CMakeFiles/dfu_no_serial_nrf52840_xxAA_s140_5.0.0-3.alpha.dir/__/__/mesh/access/src/device_state_manager.c.obj
 .text.dsm_proxy_identity_get
                0x00000000        0x4 examples/dfu/CMakeFiles/dfu_no_serial_nrf52840_xxAA_s140_5.0.0-3.alpha.dir/__/__/mesh/access/src/device_state_manager.c.obj
 .bss.m_addr_nonvirtual_needs_flashing
                0x00000000        0x4 examples/dfu/CMakeFiles/dfu_no_serial_nrf52840_xxAA_s140_5.0.0-3.alpha.dir/__/__/mesh/access/src/device_state_manager.c.obj
 .bss.m_addr_unicast_needs_flashing
                0x00000000        0x4 examples/dfu/CMakeFiles/dfu_no_serial_nrf52840_xxAA_s140_5.0.0-3.alpha.dir/__/__/mesh/access/src/device_state_manager.c.obj
 .bss.m_addr_virtual_needs_flashing
                0x00000000        0x4 examples/dfu/CMakeFiles/dfu_no_serial_nrf52840_xxAA_s140_5.0.0-3.alpha.dir/__/__/mesh/access/src/device_state_manager.c.obj
 .bss.m_appkey_needs_flashing
                0x00000000        0x4 examples/dfu/CMakeFiles/dfu_no_serial_nrf52840_xxAA_s140_5.0.0-3.alpha.dir/__/__/mesh/access/src/device_state_manager.c.obj
 .bss.m_devkey_allocated
                0x00000000        0x4 examples/dfu/CMakeFiles/dfu_no_serial_nrf52840_xxAA_s140_5.0.0-3.alpha.dir/__/__/mesh/access/src/device_state_manager.c.obj
 .bss.m_devkey_needs_flashing
                0x00000000        0x4 examples/dfu/CMakeFiles/dfu_no_serial_nrf52840_xxAA_s140_5.0.0-3.alpha.dir/__/__/mesh/access/src/device_state_manager.c.obj
 .bss.m_flash_is_available
                0x00000000        0x1 examples/dfu/CMakeFiles/dfu_no_serial_nrf52840_xxAA_s140_5.0.0-3.alpha.dir/__/__/mesh/access/src/device_state_manager.c.obj
 .bss.m_flash_manager
                0x00000000       0x24 examples/dfu/CMakeFiles/dfu_no_serial_nrf52840_xxAA_s140_5.0.0-3.alpha.dir/__/__/mesh/access/src/device_state_manager.c.obj
 .bss.m_flash_mem_listener_update_all
                0x00000000       0x10 examples/dfu/CMakeFiles/dfu_no_serial_nrf52840_xxAA_s140_5.0.0-3.alpha.dir/__/__/mesh/access/src/device_state_manager.c.obj
 .bss.m_subnet_needs_flashing
                0x00000000        0x4 examples/dfu/CMakeFiles/dfu_no_serial_nrf52840_xxAA_s140_5.0.0-3.alpha.dir/__/__/mesh/access/src/device_state_manager.c.obj
 .data.mem_listener.10730
                0x00000000       0x10 examples/dfu/CMakeFiles/dfu_no_serial_nrf52840_xxAA_s140_5.0.0-3.alpha.dir/__/__/mesh/access/src/device_state_manager.c.obj
 .data.mem_listener.10756
                0x00000000       0x10 examples/dfu/CMakeFiles/dfu_no_serial_nrf52840_xxAA_s140_5.0.0-3.alpha.dir/__/__/mesh/access/src/device_state_manager.c.obj
 .rodata.m_flash_groups
                0x00000000       0xa8 examples/dfu/CMakeFiles/dfu_no_serial_nrf52840_xxAA_s140_5.0.0-3.alpha.dir/__/__/mesh/access/src/device_state_manager.c.obj
 .text          0x00000000        0x0 examples/dfu/CMakeFiles/dfu_no_serial_nrf52840_xxAA_s140_5.0.0-3.alpha.dir/__/__/mesh/prov/src/prov_provisioner.c.obj
 .data          0x00000000        0x0 examples/dfu/CMakeFiles/dfu_no_serial_nrf52840_xxAA_s140_5.0.0-3.alpha.dir/__/__/mesh/prov/src/prov_provisioner.c.obj
 .bss           0x00000000        0x0 examples/dfu/CMakeFiles/dfu_no_serial_nrf52840_xxAA_s140_5.0.0-3.alpha.dir/__/__/mesh/prov/src/prov_provisioner.c.obj
 .text.prov_provisioner_cb_link_closed
                0x00000000       0x2a examples/dfu/CMakeFiles/dfu_no_serial_nrf52840_xxAA_s140_5.0.0-3.alpha.dir/__/__/mesh/prov/src/prov_provisioner.c.obj
 .text.prov_provisioner_cb_link_established
                0x00000000       0x3e examples/dfu/CMakeFiles/dfu_no_serial_nrf52840_xxAA_s140_5.0.0-3.alpha.dir/__/__/mesh/prov/src/prov_provisioner.c.obj
 .text.prov_provisioner_cb_ack_received
                0x00000000       0x48 examples/dfu/CMakeFiles/dfu_no_serial_nrf52840_xxAA_s140_5.0.0-3.alpha.dir/__/__/mesh/prov/src/prov_provisioner.c.obj
 .text.send_confirmation
                0x00000000       0x26 examples/dfu/CMakeFiles/dfu_no_serial_nrf52840_xxAA_s140_5.0.0-3.alpha.dir/__/__/mesh/prov/src/prov_provisioner.c.obj
 .text.request_authentication
                0x00000000       0x8a examples/dfu/CMakeFiles/dfu_no_serial_nrf52840_xxAA_s140_5.0.0-3.alpha.dir/__/__/mesh/prov/src/prov_provisioner.c.obj
 .text.prov_provisioner_pkt_in
                0x00000000      0x2a4 examples/dfu/CMakeFiles/dfu_no_serial_nrf52840_xxAA_s140_5.0.0-3.alpha.dir/__/__/mesh/prov/src/prov_provisioner.c.obj
 .text.prov_provisioner_provision
                0x00000000       0x44 examples/dfu/CMakeFiles/dfu_no_serial_nrf52840_xxAA_s140_5.0.0-3.alpha.dir/__/__/mesh/prov/src/prov_provisioner.c.obj
 .text.prov_provisioner_oob_use
                0x00000000       0x7a examples/dfu/CMakeFiles/dfu_no_serial_nrf52840_xxAA_s140_5.0.0-3.alpha.dir/__/__/mesh/prov/src/prov_provisioner.c.obj
 .text.prov_provisioner_auth_data
                0x00000000       0x44 examples/dfu/CMakeFiles/dfu_no_serial_nrf52840_xxAA_s140_5.0.0-3.alpha.dir/__/__/mesh/prov/src/prov_provisioner.c.obj
 .text.prov_provisioner_shared_secret
                0x00000000       0x28 examples/dfu/CMakeFiles/dfu_no_serial_nrf52840_xxAA_s140_5.0.0-3.alpha.dir/__/__/mesh/prov/src/prov_provisioner.c.obj
 .text.prov_provisioner_oob_pubkey
                0x00000000       0x30 examples/dfu/CMakeFiles/dfu_no_serial_nrf52840_xxAA_s140_5.0.0-3.alpha.dir/__/__/mesh/prov/src/prov_provisioner.c.obj
 .rodata.m_prov_callbacks
                0x00000000       0x10 examples/dfu/CMakeFiles/dfu_no_serial_nrf52840_xxAA_s140_5.0.0-3.alpha.dir/__/__/mesh/prov/src/prov_provisioner.c.obj
 .debug_info    0x00000000     0x2348 examples/dfu/CMakeFiles/dfu_no_serial_nrf52840_xxAA_s140_5.0.0-3.alpha.dir/__/__/mesh/prov/src/prov_provisioner.c.obj
 .debug_abbrev  0x00000000      0x3dd examples/dfu/CMakeFiles/dfu_no_serial_nrf52840_xxAA_s140_5.0.0-3.alpha.dir/__/__/mesh/prov/src/prov_provisioner.c.obj
 .debug_loc     0x00000000      0x6a4 examples/dfu/CMakeFiles/dfu_no_serial_nrf52840_xxAA_s140_5.0.0-3.alpha.dir/__/__/mesh/prov/src/prov_provisioner.c.obj
 .debug_aranges
                0x00000000       0x70 examples/dfu/CMakeFiles/dfu_no_serial_nrf52840_xxAA_s140_5.0.0-3.alpha.dir/__/__/mesh/prov/src/prov_provisioner.c.obj
 .debug_ranges  0x00000000      0x128 examples/dfu/CMakeFiles/dfu_no_serial_nrf52840_xxAA_s140_5.0.0-3.alpha.dir/__/__/mesh/prov/src/prov_provisioner.c.obj
 .debug_line    0x00000000      0x589 examples/dfu/CMakeFiles/dfu_no_serial_nrf52840_xxAA_s140_5.0.0-3.alpha.dir/__/__/mesh/prov/src/prov_provisioner.c.obj
 .debug_str     0x00000000     0x1eb9 examples/dfu/CMakeFiles/dfu_no_serial_nrf52840_xxAA_s140_5.0.0-3.alpha.dir/__/__/mesh/prov/src/prov_provisioner.c.obj
 .comment       0x00000000       0x80 examples/dfu/CMakeFiles/dfu_no_serial_nrf52840_xxAA_s140_5.0.0-3.alpha.dir/__/__/mesh/prov/src/prov_provisioner.c.obj
 .debug_frame   0x00000000      0x170 examples/dfu/CMakeFiles/dfu_no_serial_nrf52840_xxAA_s140_5.0.0-3.alpha.dir/__/__/mesh/prov/src/prov_provisioner.c.obj
 .ARM.attributes
                0x00000000       0x39 examples/dfu/CMakeFiles/dfu_no_serial_nrf52840_xxAA_s140_5.0.0-3.alpha.dir/__/__/mesh/prov/src/prov_provisioner.c.obj
 .text          0x00000000        0x0 examples/dfu/CMakeFiles/dfu_no_serial_nrf52840_xxAA_s140_5.0.0-3.alpha.dir/__/__/mesh/prov/src/prov_provisionee.c.obj
 .data          0x00000000        0x0 examples/dfu/CMakeFiles/dfu_no_serial_nrf52840_xxAA_s140_5.0.0-3.alpha.dir/__/__/mesh/prov/src/prov_provisionee.c.obj
 .bss           0x00000000        0x0 examples/dfu/CMakeFiles/dfu_no_serial_nrf52840_xxAA_s140_5.0.0-3.alpha.dir/__/__/mesh/prov/src/prov_provisionee.c.obj
 .text.complete_provisioning
                0x00000000       0x52 examples/dfu/CMakeFiles/dfu_no_serial_nrf52840_xxAA_s140_5.0.0-3.alpha.dir/__/__/mesh/prov/src/prov_provisionee.c.obj
 .text.prov_provisionee_cb_link_established
                0x00000000       0x20 examples/dfu/CMakeFiles/dfu_no_serial_nrf52840_xxAA_s140_5.0.0-3.alpha.dir/__/__/mesh/prov/src/prov_provisionee.c.obj
 .text.prov_provisionee_cb_link_closed
                0x00000000       0x34 examples/dfu/CMakeFiles/dfu_no_serial_nrf52840_xxAA_s140_5.0.0-3.alpha.dir/__/__/mesh/prov/src/prov_provisionee.c.obj
 .text.request_authentication
                0x00000000       0x8a examples/dfu/CMakeFiles/dfu_no_serial_nrf52840_xxAA_s140_5.0.0-3.alpha.dir/__/__/mesh/prov/src/prov_provisionee.c.obj
 .text.send_failed
                0x00000000       0x3a examples/dfu/CMakeFiles/dfu_no_serial_nrf52840_xxAA_s140_5.0.0-3.alpha.dir/__/__/mesh/prov/src/prov_provisionee.c.obj
 .text.start_authentication
                0x00000000       0x52 examples/dfu/CMakeFiles/dfu_no_serial_nrf52840_xxAA_s140_5.0.0-3.alpha.dir/__/__/mesh/prov/src/prov_provisionee.c.obj
 .text.prov_provisionee_cb_ack_received
                0x00000000       0xb8 examples/dfu/CMakeFiles/dfu_no_serial_nrf52840_xxAA_s140_5.0.0-3.alpha.dir/__/__/mesh/prov/src/prov_provisionee.c.obj
 .text.prov_provisionee_pkt_in
                0x00000000      0x2a0 examples/dfu/CMakeFiles/dfu_no_serial_nrf52840_xxAA_s140_5.0.0-3.alpha.dir/__/__/mesh/prov/src/prov_provisionee.c.obj
 .text.prov_provisionee_init
                0x00000000       0x38 examples/dfu/CMakeFiles/dfu_no_serial_nrf52840_xxAA_s140_5.0.0-3.alpha.dir/__/__/mesh/prov/src/prov_provisionee.c.obj
 .text.prov_provisionee_auth_data
                0x00000000       0x7a examples/dfu/CMakeFiles/dfu_no_serial_nrf52840_xxAA_s140_5.0.0-3.alpha.dir/__/__/mesh/prov/src/prov_provisionee.c.obj
 .text.prov_provisionee_shared_secret
                0x00000000       0x28 examples/dfu/CMakeFiles/dfu_no_serial_nrf52840_xxAA_s140_5.0.0-3.alpha.dir/__/__/mesh/prov/src/prov_provisionee.c.obj
 .rodata.m_prov_callbacks
                0x00000000       0x10 examples/dfu/CMakeFiles/dfu_no_serial_nrf52840_xxAA_s140_5.0.0-3.alpha.dir/__/__/mesh/prov/src/prov_provisionee.c.obj
 .rodata.prov_provisionee_cb_ack_received.str1.1
                0x00000000       0x53 examples/dfu/CMakeFiles/dfu_no_serial_nrf52840_xxAA_s140_5.0.0-3.alpha.dir/__/__/mesh/prov/src/prov_provisionee.c.obj
 .debug_info    0x00000000     0x26c7 examples/dfu/CMakeFiles/dfu_no_serial_nrf52840_xxAA_s140_5.0.0-3.alpha.dir/__/__/mesh/prov/src/prov_provisionee.c.obj
 .debug_abbrev  0x00000000      0x476 examples/dfu/CMakeFiles/dfu_no_serial_nrf52840_xxAA_s140_5.0.0-3.alpha.dir/__/__/mesh/prov/src/prov_provisionee.c.obj
 .debug_loc     0x00000000      0x6ad examples/dfu/CMakeFiles/dfu_no_serial_nrf52840_xxAA_s140_5.0.0-3.alpha.dir/__/__/mesh/prov/src/prov_provisionee.c.obj
 .debug_aranges
                0x00000000       0x70 examples/dfu/CMakeFiles/dfu_no_serial_nrf52840_xxAA_s140_5.0.0-3.alpha.dir/__/__/mesh/prov/src/prov_provisionee.c.obj
 .debug_ranges  0x00000000      0x158 examples/dfu/CMakeFiles/dfu_no_serial_nrf52840_xxAA_s140_5.0.0-3.alpha.dir/__/__/mesh/prov/src/prov_provisionee.c.obj
 .debug_line    0x00000000      0x64d examples/dfu/CMakeFiles/dfu_no_serial_nrf52840_xxAA_s140_5.0.0-3.alpha.dir/__/__/mesh/prov/src/prov_provisionee.c.obj
 .debug_str     0x00000000     0x2061 examples/dfu/CMakeFiles/dfu_no_serial_nrf52840_xxAA_s140_5.0.0-3.alpha.dir/__/__/mesh/prov/src/prov_provisionee.c.obj
 .comment       0x00000000       0x80 examples/dfu/CMakeFiles/dfu_no_serial_nrf52840_xxAA_s140_5.0.0-3.alpha.dir/__/__/mesh/prov/src/prov_provisionee.c.obj
 .debug_frame   0x00000000      0x180 examples/dfu/CMakeFiles/dfu_no_serial_nrf52840_xxAA_s140_5.0.0-3.alpha.dir/__/__/mesh/prov/src/prov_provisionee.c.obj
 .ARM.attributes
                0x00000000       0x39 examples/dfu/CMakeFiles/dfu_no_serial_nrf52840_xxAA_s140_5.0.0-3.alpha.dir/__/__/mesh/prov/src/prov_provisionee.c.obj
 .text          0x00000000        0x0 examples/dfu/CMakeFiles/dfu_no_serial_nrf52840_xxAA_s140_5.0.0-3.alpha.dir/__/__/mesh/prov/src/nrf_mesh_prov.c.obj
 .data          0x00000000        0x0 examples/dfu/CMakeFiles/dfu_no_serial_nrf52840_xxAA_s140_5.0.0-3.alpha.dir/__/__/mesh/prov/src/nrf_mesh_prov.c.obj
 .bss           0x00000000        0x0 examples/dfu/CMakeFiles/dfu_no_serial_nrf52840_xxAA_s140_5.0.0-3.alpha.dir/__/__/mesh/prov/src/nrf_mesh_prov.c.obj
 .text.bearer_compare_callback
                0x00000000        0xc examples/dfu/CMakeFiles/dfu_no_serial_nrf52840_xxAA_s140_5.0.0-3.alpha.dir/__/__/mesh/prov/src/nrf_mesh_prov.c.obj
 .text.nrf_mesh_prov_init
                0x00000000       0x32 examples/dfu/CMakeFiles/dfu_no_serial_nrf52840_xxAA_s140_5.0.0-3.alpha.dir/__/__/mesh/prov/src/nrf_mesh_prov.c.obj
 .text.nrf_mesh_prov_bearer_add
                0x00000000       0x20 examples/dfu/CMakeFiles/dfu_no_serial_nrf52840_xxAA_s140_5.0.0-3.alpha.dir/__/__/mesh/prov/src/nrf_mesh_prov.c.obj
 .text.nrf_mesh_prov_generate_keys
                0x00000000        0x4 examples/dfu/CMakeFiles/dfu_no_serial_nrf52840_xxAA_s140_5.0.0-3.alpha.dir/__/__/mesh/prov/src/nrf_mesh_prov.c.obj
 .text.nrf_mesh_prov_listen
                0x00000000       0x30 examples/dfu/CMakeFiles/dfu_no_serial_nrf52840_xxAA_s140_5.0.0-3.alpha.dir/__/__/mesh/prov/src/nrf_mesh_prov.c.obj
 .text.nrf_mesh_prov_provision
                0x00000000       0x4e examples/dfu/CMakeFiles/dfu_no_serial_nrf52840_xxAA_s140_5.0.0-3.alpha.dir/__/__/mesh/prov/src/nrf_mesh_prov.c.obj
 .text.nrf_mesh_prov_oob_use
                0x00000000        0xe examples/dfu/CMakeFiles/dfu_no_serial_nrf52840_xxAA_s140_5.0.0-3.alpha.dir/__/__/mesh/prov/src/nrf_mesh_prov.c.obj
 .text.nrf_mesh_prov_auth_data_provide
                0x00000000        0xe examples/dfu/CMakeFiles/dfu_no_serial_nrf52840_xxAA_s140_5.0.0-3.alpha.dir/__/__/mesh/prov/src/nrf_mesh_prov.c.obj
 .text.nrf_mesh_prov_shared_secret_provide
                0x00000000        0xe examples/dfu/CMakeFiles/dfu_no_serial_nrf52840_xxAA_s140_5.0.0-3.alpha.dir/__/__/mesh/prov/src/nrf_mesh_prov.c.obj
 .text.nrf_mesh_prov_pubkey_provide
                0x00000000       0x10 examples/dfu/CMakeFiles/dfu_no_serial_nrf52840_xxAA_s140_5.0.0-3.alpha.dir/__/__/mesh/prov/src/nrf_mesh_prov.c.obj
 .text.nrf_mesh_prov_scan_start
                0x00000000       0x10 examples/dfu/CMakeFiles/dfu_no_serial_nrf52840_xxAA_s140_5.0.0-3.alpha.dir/__/__/mesh/prov/src/nrf_mesh_prov.c.obj
 .text.nrf_mesh_prov_scan_stop
                0x00000000        0x4 examples/dfu/CMakeFiles/dfu_no_serial_nrf52840_xxAA_s140_5.0.0-3.alpha.dir/__/__/mesh/prov/src/nrf_mesh_prov.c.obj
 .debug_info    0x00000000     0x1be9 examples/dfu/CMakeFiles/dfu_no_serial_nrf52840_xxAA_s140_5.0.0-3.alpha.dir/__/__/mesh/prov/src/nrf_mesh_prov.c.obj
 .debug_abbrev  0x00000000      0x335 examples/dfu/CMakeFiles/dfu_no_serial_nrf52840_xxAA_s140_5.0.0-3.alpha.dir/__/__/mesh/prov/src/nrf_mesh_prov.c.obj
 .debug_loc     0x00000000      0x7c0 examples/dfu/CMakeFiles/dfu_no_serial_nrf52840_xxAA_s140_5.0.0-3.alpha.dir/__/__/mesh/prov/src/nrf_mesh_prov.c.obj
 .debug_aranges
                0x00000000       0x78 examples/dfu/CMakeFiles/dfu_no_serial_nrf52840_xxAA_s140_5.0.0-3.alpha.dir/__/__/mesh/prov/src/nrf_mesh_prov.c.obj
 .debug_ranges  0x00000000       0xb0 examples/dfu/CMakeFiles/dfu_no_serial_nrf52840_xxAA_s140_5.0.0-3.alpha.dir/__/__/mesh/prov/src/nrf_mesh_prov.c.obj
 .debug_line    0x00000000      0x4f9 examples/dfu/CMakeFiles/dfu_no_serial_nrf52840_xxAA_s140_5.0.0-3.alpha.dir/__/__/mesh/prov/src/nrf_mesh_prov.c.obj
 .debug_str     0x00000000     0x1c8f examples/dfu/CMakeFiles/dfu_no_serial_nrf52840_xxAA_s140_5.0.0-3.alpha.dir/__/__/mesh/prov/src/nrf_mesh_prov.c.obj
 .comment       0x00000000       0x80 examples/dfu/CMakeFiles/dfu_no_serial_nrf52840_xxAA_s140_5.0.0-3.alpha.dir/__/__/mesh/prov/src/nrf_mesh_prov.c.obj
 .debug_frame   0x00000000      0x124 examples/dfu/CMakeFiles/dfu_no_serial_nrf52840_xxAA_s140_5.0.0-3.alpha.dir/__/__/mesh/prov/src/nrf_mesh_prov.c.obj
 .ARM.attributes
                0x00000000       0x39 examples/dfu/CMakeFiles/dfu_no_serial_nrf52840_xxAA_s140_5.0.0-3.alpha.dir/__/__/mesh/prov/src/nrf_mesh_prov.c.obj
 .text          0x00000000        0x0 examples/dfu/CMakeFiles/dfu_no_serial_nrf52840_xxAA_s140_5.0.0-3.alpha.dir/__/__/mesh/prov/src/provisioning.c.obj
 .data          0x00000000        0x0 examples/dfu/CMakeFiles/dfu_no_serial_nrf52840_xxAA_s140_5.0.0-3.alpha.dir/__/__/mesh/prov/src/provisioning.c.obj
 .bss           0x00000000        0x0 examples/dfu/CMakeFiles/dfu_no_serial_nrf52840_xxAA_s140_5.0.0-3.alpha.dir/__/__/mesh/prov/src/provisioning.c.obj
 .text.send_data
                0x00000000       0x3c examples/dfu/CMakeFiles/dfu_no_serial_nrf52840_xxAA_s140_5.0.0-3.alpha.dir/__/__/mesh/prov/src/provisioning.c.obj
 .text.prov_packet_length_valid
                0x00000000       0x1c examples/dfu/CMakeFiles/dfu_no_serial_nrf52840_xxAA_s140_5.0.0-3.alpha.dir/__/__/mesh/prov/src/provisioning.c.obj
 .text.prov_tx_invite
                0x00000000       0x28 examples/dfu/CMakeFiles/dfu_no_serial_nrf52840_xxAA_s140_5.0.0-3.alpha.dir/__/__/mesh/prov/src/provisioning.c.obj
 .text.prov_tx_capabilities
                0x00000000       0x1e examples/dfu/CMakeFiles/dfu_no_serial_nrf52840_xxAA_s140_5.0.0-3.alpha.dir/__/__/mesh/prov/src/provisioning.c.obj
 .text.prov_tx_start
                0x00000000       0x20 examples/dfu/CMakeFiles/dfu_no_serial_nrf52840_xxAA_s140_5.0.0-3.alpha.dir/__/__/mesh/prov/src/provisioning.c.obj
 .text.prov_tx_public_key
                0x00000000       0x26 examples/dfu/CMakeFiles/dfu_no_serial_nrf52840_xxAA_s140_5.0.0-3.alpha.dir/__/__/mesh/prov/src/provisioning.c.obj
 .text.prov_tx_input_complete
                0x00000000       0x16 examples/dfu/CMakeFiles/dfu_no_serial_nrf52840_xxAA_s140_5.0.0-3.alpha.dir/__/__/mesh/prov/src/provisioning.c.obj
 .text.prov_tx_confirmation
                0x00000000       0x26 examples/dfu/CMakeFiles/dfu_no_serial_nrf52840_xxAA_s140_5.0.0-3.alpha.dir/__/__/mesh/prov/src/provisioning.c.obj
 .text.prov_tx_random
                0x00000000       0x26 examples/dfu/CMakeFiles/dfu_no_serial_nrf52840_xxAA_s140_5.0.0-3.alpha.dir/__/__/mesh/prov/src/provisioning.c.obj
 .text.prov_tx_complete
                0x00000000       0x16 examples/dfu/CMakeFiles/dfu_no_serial_nrf52840_xxAA_s140_5.0.0-3.alpha.dir/__/__/mesh/prov/src/provisioning.c.obj
 .text.prov_tx_failed
                0x00000000       0x1a examples/dfu/CMakeFiles/dfu_no_serial_nrf52840_xxAA_s140_5.0.0-3.alpha.dir/__/__/mesh/prov/src/provisioning.c.obj
 .text.prov_tx_data
                0x00000000        0x6 examples/dfu/CMakeFiles/dfu_no_serial_nrf52840_xxAA_s140_5.0.0-3.alpha.dir/__/__/mesh/prov/src/provisioning.c.obj
 .text.prov_tx  0x00000000        0x4 examples/dfu/CMakeFiles/dfu_no_serial_nrf52840_xxAA_s140_5.0.0-3.alpha.dir/__/__/mesh/prov/src/provisioning.c.obj
 .rodata.pdu_sizes.11136
                0x00000000        0xa examples/dfu/CMakeFiles/dfu_no_serial_nrf52840_xxAA_s140_5.0.0-3.alpha.dir/__/__/mesh/prov/src/provisioning.c.obj
 .debug_info    0x00000000     0x1588 examples/dfu/CMakeFiles/dfu_no_serial_nrf52840_xxAA_s140_5.0.0-3.alpha.dir/__/__/mesh/prov/src/provisioning.c.obj
 .debug_abbrev  0x00000000      0x29c examples/dfu/CMakeFiles/dfu_no_serial_nrf52840_xxAA_s140_5.0.0-3.alpha.dir/__/__/mesh/prov/src/provisioning.c.obj
 .debug_loc     0x00000000      0x4e0 examples/dfu/CMakeFiles/dfu_no_serial_nrf52840_xxAA_s140_5.0.0-3.alpha.dir/__/__/mesh/prov/src/provisioning.c.obj
 .debug_aranges
                0x00000000       0x80 examples/dfu/CMakeFiles/dfu_no_serial_nrf52840_xxAA_s140_5.0.0-3.alpha.dir/__/__/mesh/prov/src/provisioning.c.obj
 .debug_ranges  0x00000000       0xa0 examples/dfu/CMakeFiles/dfu_no_serial_nrf52840_xxAA_s140_5.0.0-3.alpha.dir/__/__/mesh/prov/src/provisioning.c.obj
 .debug_line    0x00000000      0x3e1 examples/dfu/CMakeFiles/dfu_no_serial_nrf52840_xxAA_s140_5.0.0-3.alpha.dir/__/__/mesh/prov/src/provisioning.c.obj
 .debug_str     0x00000000      0xf45 examples/dfu/CMakeFiles/dfu_no_serial_nrf52840_xxAA_s140_5.0.0-3.alpha.dir/__/__/mesh/prov/src/provisioning.c.obj
 .comment       0x00000000       0x80 examples/dfu/CMakeFiles/dfu_no_serial_nrf52840_xxAA_s140_5.0.0-3.alpha.dir/__/__/mesh/prov/src/provisioning.c.obj
 .debug_frame   0x00000000      0x174 examples/dfu/CMakeFiles/dfu_no_serial_nrf52840_xxAA_s140_5.0.0-3.alpha.dir/__/__/mesh/prov/src/provisioning.c.obj
 .ARM.attributes
                0x00000000       0x39 examples/dfu/CMakeFiles/dfu_no_serial_nrf52840_xxAA_s140_5.0.0-3.alpha.dir/__/__/mesh/prov/src/provisioning.c.obj
 .text          0x00000000        0x0 examples/dfu/CMakeFiles/dfu_no_serial_nrf52840_xxAA_s140_5.0.0-3.alpha.dir/__/__/mesh/prov/src/prov_beacon.c.obj
 .data          0x00000000        0x0 examples/dfu/CMakeFiles/dfu_no_serial_nrf52840_xxAA_s140_5.0.0-3.alpha.dir/__/__/mesh/prov/src/prov_beacon.c.obj
 .bss           0x00000000        0x0 examples/dfu/CMakeFiles/dfu_no_serial_nrf52840_xxAA_s140_5.0.0-3.alpha.dir/__/__/mesh/prov/src/prov_beacon.c.obj
 .text.prov_beacon_unprov_build
                0x00000000       0x54 examples/dfu/CMakeFiles/dfu_no_serial_nrf52840_xxAA_s140_5.0.0-3.alpha.dir/__/__/mesh/prov/src/prov_beacon.c.obj
 .text.prov_beacon_scan_start
                0x00000000       0x24 examples/dfu/CMakeFiles/dfu_no_serial_nrf52840_xxAA_s140_5.0.0-3.alpha.dir/__/__/mesh/prov/src/prov_beacon.c.obj
 .text.prov_beacon_scan_stop
                0x00000000        0xc examples/dfu/CMakeFiles/dfu_no_serial_nrf52840_xxAA_s140_5.0.0-3.alpha.dir/__/__/mesh/prov/src/prov_beacon.c.obj
 .text          0x00000000        0x0 examples/dfu/CMakeFiles/dfu_no_serial_nrf52840_xxAA_s140_5.0.0-3.alpha.dir/__/__/mesh/prov/src/prov_utils.c.obj
 .data          0x00000000        0x0 examples/dfu/CMakeFiles/dfu_no_serial_nrf52840_xxAA_s140_5.0.0-3.alpha.dir/__/__/mesh/prov/src/prov_utils.c.obj
 .bss           0x00000000        0x0 examples/dfu/CMakeFiles/dfu_no_serial_nrf52840_xxAA_s140_5.0.0-3.alpha.dir/__/__/mesh/prov/src/prov_utils.c.obj
 .text.oob_gen_alphanumeric
                0x00000000       0x34 examples/dfu/CMakeFiles/dfu_no_serial_nrf52840_xxAA_s140_5.0.0-3.alpha.dir/__/__/mesh/prov/src/prov_utils.c.obj
 .text.oob_gen_numeric
                0x00000000       0x3c examples/dfu/CMakeFiles/dfu_no_serial_nrf52840_xxAA_s140_5.0.0-3.alpha.dir/__/__/mesh/prov/src/prov_utils.c.obj
 .text.prov_utils_opt_set
                0x00000000       0x20 examples/dfu/CMakeFiles/dfu_no_serial_nrf52840_xxAA_s140_5.0.0-3.alpha.dir/__/__/mesh/prov/src/prov_utils.c.obj
 .text.prov_utils_use_ecdh_offloading
                0x00000000        0xc examples/dfu/CMakeFiles/dfu_no_serial_nrf52840_xxAA_s140_5.0.0-3.alpha.dir/__/__/mesh/prov/src/prov_utils.c.obj
 .text.prov_utils_authentication_values_derive
                0x00000000       0xa0 examples/dfu/CMakeFiles/dfu_no_serial_nrf52840_xxAA_s140_5.0.0-3.alpha.dir/__/__/mesh/prov/src/prov_utils.c.obj
 .text.prov_utils_keys_generate
                0x00000000       0x1e examples/dfu/CMakeFiles/dfu_no_serial_nrf52840_xxAA_s140_5.0.0-3.alpha.dir/__/__/mesh/prov/src/prov_utils.c.obj
 .text.prov_utils_derive_keys
                0x00000000       0xac examples/dfu/CMakeFiles/dfu_no_serial_nrf52840_xxAA_s140_5.0.0-3.alpha.dir/__/__/mesh/prov/src/prov_utils.c.obj
 .text.prov_utils_calculate_shared_secret
                0x00000000       0x36 examples/dfu/CMakeFiles/dfu_no_serial_nrf52840_xxAA_s140_5.0.0-3.alpha.dir/__/__/mesh/prov/src/prov_utils.c.obj
 .text.prov_utils_generate_oob_data
                0x00000000       0x9c examples/dfu/CMakeFiles/dfu_no_serial_nrf52840_xxAA_s140_5.0.0-3.alpha.dir/__/__/mesh/prov/src/prov_utils.c.obj
 .text.prov_utils_confirmation_check
                0x00000000       0x5c examples/dfu/CMakeFiles/dfu_no_serial_nrf52840_xxAA_s140_5.0.0-3.alpha.dir/__/__/mesh/prov/src/prov_utils.c.obj
 .rodata.alphanumeric.11241
                0x00000000       0x25 examples/dfu/CMakeFiles/dfu_no_serial_nrf52840_xxAA_s140_5.0.0-3.alpha.dir/__/__/mesh/prov/src/prov_utils.c.obj
 .rodata.numeric_max.11235
                0x00000000       0x24 examples/dfu/CMakeFiles/dfu_no_serial_nrf52840_xxAA_s140_5.0.0-3.alpha.dir/__/__/mesh/prov/src/prov_utils.c.obj
 .rodata.prov_utils_authentication_values_derive.str1.1
                0x00000000        0x5 examples/dfu/CMakeFiles/dfu_no_serial_nrf52840_xxAA_s140_5.0.0-3.alpha.dir/__/__/mesh/prov/src/prov_utils.c.obj
 .rodata.prov_utils_derive_keys.str1.1
                0x00000000        0xf examples/dfu/CMakeFiles/dfu_no_serial_nrf52840_xxAA_s140_5.0.0-3.alpha.dir/__/__/mesh/prov/src/prov_utils.c.obj
 .text          0x00000000        0x0 examples/dfu/CMakeFiles/dfu_no_serial_nrf52840_xxAA_s140_5.0.0-3.alpha.dir/__/__/mesh/prov/src/prov_bearer_adv.c.obj
 .data          0x00000000        0x0 examples/dfu/CMakeFiles/dfu_no_serial_nrf52840_xxAA_s140_5.0.0-3.alpha.dir/__/__/mesh/prov/src/prov_bearer_adv.c.obj
 .bss           0x00000000        0x0 examples/dfu/CMakeFiles/dfu_no_serial_nrf52840_xxAA_s140_5.0.0-3.alpha.dir/__/__/mesh/prov/src/prov_bearer_adv.c.obj
 .text.link_timeout_cb
                0x00000000       0x10 examples/dfu/CMakeFiles/dfu_no_serial_nrf52840_xxAA_s140_5.0.0-3.alpha.dir/__/__/mesh/prov/src/prov_bearer_adv.c.obj
 .text.prov_bearer_adv_listen_stop
                0x00000000       0x3c examples/dfu/CMakeFiles/dfu_no_serial_nrf52840_xxAA_s140_5.0.0-3.alpha.dir/__/__/mesh/prov/src/prov_bearer_adv.c.obj
 .text.prov_buffer_tx
                0x00000000      0x158 examples/dfu/CMakeFiles/dfu_no_serial_nrf52840_xxAA_s140_5.0.0-3.alpha.dir/__/__/mesh/prov/src/prov_bearer_adv.c.obj
 .text.tx_complete_cb
                0x00000000       0x1c examples/dfu/CMakeFiles/dfu_no_serial_nrf52840_xxAA_s140_5.0.0-3.alpha.dir/__/__/mesh/prov/src/prov_bearer_adv.c.obj
 .text.tx_retry_cb
                0x00000000       0xcc examples/dfu/CMakeFiles/dfu_no_serial_nrf52840_xxAA_s140_5.0.0-3.alpha.dir/__/__/mesh/prov/src/prov_bearer_adv.c.obj
 .text.add_active_bearer
                0x00000000       0x80 examples/dfu/CMakeFiles/dfu_no_serial_nrf52840_xxAA_s140_5.0.0-3.alpha.dir/__/__/mesh/prov/src/prov_bearer_adv.c.obj
 .text.prov_bearer_adv_link_open
                0x00000000       0xf8 examples/dfu/CMakeFiles/dfu_no_serial_nrf52840_xxAA_s140_5.0.0-3.alpha.dir/__/__/mesh/prov/src/prov_bearer_adv.c.obj
 .text.async_process
                0x00000000       0x50 examples/dfu/CMakeFiles/dfu_no_serial_nrf52840_xxAA_s140_5.0.0-3.alpha.dir/__/__/mesh/prov/src/prov_bearer_adv.c.obj
 .text.prov_bearer_adv_listen
                0x00000000       0xec examples/dfu/CMakeFiles/dfu_no_serial_nrf52840_xxAA_s140_5.0.0-3.alpha.dir/__/__/mesh/prov/src/prov_bearer_adv.c.obj
 .text.prov_bearer_adv_tx
                0x00000000       0xb4 examples/dfu/CMakeFiles/dfu_no_serial_nrf52840_xxAA_s140_5.0.0-3.alpha.dir/__/__/mesh/prov/src/prov_bearer_adv.c.obj
 .text.nrf_mesh_prov_bearer_adv_interface_get
                0x00000000       0x48 examples/dfu/CMakeFiles/dfu_no_serial_nrf52840_xxAA_s140_5.0.0-3.alpha.dir/__/__/mesh/prov/src/prov_bearer_adv.c.obj
 .data.m_async_process_flag
                0x00000000        0x4 examples/dfu/CMakeFiles/dfu_no_serial_nrf52840_xxAA_s140_5.0.0-3.alpha.dir/__/__/mesh/prov/src/prov_bearer_adv.c.obj
 .rodata.add_active_bearer.str1.1
                0x00000000       0x2c examples/dfu/CMakeFiles/dfu_no_serial_nrf52840_xxAA_s140_5.0.0-3.alpha.dir/__/__/mesh/prov/src/prov_bearer_adv.c.obj
 .rodata.interface.11224
                0x00000000       0x14 examples/dfu/CMakeFiles/dfu_no_serial_nrf52840_xxAA_s140_5.0.0-3.alpha.dir/__/__/mesh/prov/src/prov_bearer_adv.c.obj
 .text          0x00000000        0x0 examples/dfu/CMakeFiles/dfu_no_serial_nrf52840_xxAA_s140_5.0.0-3.alpha.dir/__/__/mesh/dfu/src/nrf_mesh_dfu.c.obj
 .data          0x00000000        0x0 examples/dfu/CMakeFiles/dfu_no_serial_nrf52840_xxAA_s140_5.0.0-3.alpha.dir/__/__/mesh/dfu/src/nrf_mesh_dfu.c.obj
 .bss           0x00000000        0x0 examples/dfu/CMakeFiles/dfu_no_serial_nrf52840_xxAA_s140_5.0.0-3.alpha.dir/__/__/mesh/dfu/src/nrf_mesh_dfu.c.obj
 .text.nrf_mesh_dfu_jump_to_bootloader
                0x00000000       0x40 examples/dfu/CMakeFiles/dfu_no_serial_nrf52840_xxAA_s140_5.0.0-3.alpha.dir/__/__/mesh/dfu/src/nrf_mesh_dfu.c.obj
 .text.nrf_mesh_dfu_state_get
                0x00000000       0x48 examples/dfu/CMakeFiles/dfu_no_serial_nrf52840_xxAA_s140_5.0.0-3.alpha.dir/__/__/mesh/dfu/src/nrf_mesh_dfu.c.obj
 .text.nrf_mesh_dfu_abort
                0x00000000       0x2c examples/dfu/CMakeFiles/dfu_no_serial_nrf52840_xxAA_s140_5.0.0-3.alpha.dir/__/__/mesh/dfu/src/nrf_mesh_dfu.c.obj
 .text.nrf_mesh_dfu_bank_info_get
                0x00000000       0x30 examples/dfu/CMakeFiles/dfu_no_serial_nrf52840_xxAA_s140_5.0.0-3.alpha.dir/__/__/mesh/dfu/src/nrf_mesh_dfu.c.obj
 .text          0x00000000        0x0 examples/dfu/CMakeFiles/dfu_no_serial_nrf52840_xxAA_s140_5.0.0-3.alpha.dir/__/nrf_mesh_weak.c.obj
 .data          0x00000000        0x0 examples/dfu/CMakeFiles/dfu_no_serial_nrf52840_xxAA_s140_5.0.0-3.alpha.dir/__/nrf_mesh_weak.c.obj
 .bss           0x00000000        0x0 examples/dfu/CMakeFiles/dfu_no_serial_nrf52840_xxAA_s140_5.0.0-3.alpha.dir/__/nrf_mesh_weak.c.obj
 .text._weak_handler
                0x00000000        0x4 examples/dfu/CMakeFiles/dfu_no_serial_nrf52840_xxAA_s140_5.0.0-3.alpha.dir/__/nrf_mesh_weak.c.obj
 .text._weak_handler_ptr
                0x00000000        0x4 examples/dfu/CMakeFiles/dfu_no_serial_nrf52840_xxAA_s140_5.0.0-3.alpha.dir/__/nrf_mesh_weak.c.obj
 .debug_info    0x00000000      0x94b examples/dfu/CMakeFiles/dfu_no_serial_nrf52840_xxAA_s140_5.0.0-3.alpha.dir/__/nrf_mesh_weak.c.obj
 .debug_abbrev  0x00000000      0x1ae examples/dfu/CMakeFiles/dfu_no_serial_nrf52840_xxAA_s140_5.0.0-3.alpha.dir/__/nrf_mesh_weak.c.obj
 .debug_aranges
                0x00000000       0x28 examples/dfu/CMakeFiles/dfu_no_serial_nrf52840_xxAA_s140_5.0.0-3.alpha.dir/__/nrf_mesh_weak.c.obj
 .debug_ranges  0x00000000       0x18 examples/dfu/CMakeFiles/dfu_no_serial_nrf52840_xxAA_s140_5.0.0-3.alpha.dir/__/nrf_mesh_weak.c.obj
 .debug_line    0x00000000      0x228 examples/dfu/CMakeFiles/dfu_no_serial_nrf52840_xxAA_s140_5.0.0-3.alpha.dir/__/nrf_mesh_weak.c.obj
 .debug_str     0x00000000      0x64d examples/dfu/CMakeFiles/dfu_no_serial_nrf52840_xxAA_s140_5.0.0-3.alpha.dir/__/nrf_mesh_weak.c.obj
 .comment       0x00000000       0x80 examples/dfu/CMakeFiles/dfu_no_serial_nrf52840_xxAA_s140_5.0.0-3.alpha.dir/__/nrf_mesh_weak.c.obj
 .debug_frame   0x00000000       0x30 examples/dfu/CMakeFiles/dfu_no_serial_nrf52840_xxAA_s140_5.0.0-3.alpha.dir/__/nrf_mesh_weak.c.obj
 .ARM.attributes
                0x00000000       0x39 examples/dfu/CMakeFiles/dfu_no_serial_nrf52840_xxAA_s140_5.0.0-3.alpha.dir/__/nrf_mesh_weak.c.obj
 .text          0x00000000        0x0 examples/dfu/CMakeFiles/dfu_no_serial_nrf52840_xxAA_s140_5.0.0-3.alpha.dir/__/__/external/nRF5_SDK_14.2.0_17b948a/components/toolchain/system_nrf52840.c.obj
 .data          0x00000000        0x0 examples/dfu/CMakeFiles/dfu_no_serial_nrf52840_xxAA_s140_5.0.0-3.alpha.dir/__/__/external/nRF5_SDK_14.2.0_17b948a/components/toolchain/system_nrf52840.c.obj
 .bss           0x00000000        0x0 examples/dfu/CMakeFiles/dfu_no_serial_nrf52840_xxAA_s140_5.0.0-3.alpha.dir/__/__/external/nRF5_SDK_14.2.0_17b948a/components/toolchain/system_nrf52840.c.obj
 .text.SystemCoreClockUpdate
                0x00000000       0x10 examples/dfu/CMakeFiles/dfu_no_serial_nrf52840_xxAA_s140_5.0.0-3.alpha.dir/__/__/external/nRF5_SDK_14.2.0_17b948a/components/toolchain/system_nrf52840.c.obj
 .data          0x00000000        0x0 examples/dfu/CMakeFiles/dfu_no_serial_nrf52840_xxAA_s140_5.0.0-3.alpha.dir/__/__/external/nRF5_SDK_14.2.0_17b948a/components/toolchain/gcc/gcc_startup_nrf52840.S.obj
 .bss           0x00000000        0x0 examples/dfu/CMakeFiles/dfu_no_serial_nrf52840_xxAA_s140_5.0.0-3.alpha.dir/__/__/external/nRF5_SDK_14.2.0_17b948a/components/toolchain/gcc/gcc_startup_nrf52840.S.obj
 .text          0x00000000        0x0 mesh/core/libmesh_core_nrf52840_xxAA.a(nrf_mesh_configure.c.obj)
 .data          0x00000000        0x0 mesh/core/libmesh_core_nrf52840_xxAA.a(nrf_mesh_configure.c.obj)
 .bss           0x00000000        0x0 mesh/core/libmesh_core_nrf52840_xxAA.a(nrf_mesh_configure.c.obj)
 .text.nrf_mesh_configure_device_uuid_set
                0x00000000       0x10 mesh/core/libmesh_core_nrf52840_xxAA.a(nrf_mesh_configure.c.obj)
 .text          0x00000000        0x0 mesh/core/libmesh_core_nrf52840_xxAA.a(event.c.obj)
 .data          0x00000000        0x0 mesh/core/libmesh_core_nrf52840_xxAA.a(event.c.obj)
 .bss           0x00000000        0x0 mesh/core/libmesh_core_nrf52840_xxAA.a(event.c.obj)
 .text          0x00000000        0x0 mesh/core/libmesh_core_nrf52840_xxAA.a(net_state.c.obj)
 .data          0x00000000        0x0 mesh/core/libmesh_core_nrf52840_xxAA.a(net_state.c.obj)
 .bss           0x00000000        0x0 mesh/core/libmesh_core_nrf52840_xxAA.a(net_state.c.obj)
 .text.net_state_reset
                0x00000000       0x3c mesh/core/libmesh_core_nrf52840_xxAA.a(net_state.c.obj)
 .text.net_state_iv_update_test_mode_set
                0x00000000        0xc mesh/core/libmesh_core_nrf52840_xxAA.a(net_state.c.obj)
 .text.net_state_key_refresh_phase_changed
                0x00000000       0x1e mesh/core/libmesh_core_nrf52840_xxAA.a(net_state.c.obj)
 .data.mem_listener.9912
                0x00000000       0x10 mesh/core/libmesh_core_nrf52840_xxAA.a(net_state.c.obj)
 .text          0x00000000        0x0 mesh/core/libmesh_core_nrf52840_xxAA.a(mesh_flash.c.obj)
 .data          0x00000000        0x0 mesh/core/libmesh_core_nrf52840_xxAA.a(mesh_flash.c.obj)
 .bss           0x00000000        0x0 mesh/core/libmesh_core_nrf52840_xxAA.a(mesh_flash.c.obj)
 .text.mesh_flash_op_available_slots
                0x00000000       0x2c mesh/core/libmesh_core_nrf52840_xxAA.a(mesh_flash.c.obj)
 .text          0x00000000        0x0 mesh/core/libmesh_core_nrf52840_xxAA.a(nrf_mesh_utils.c.obj)
 .data          0x00000000        0x0 mesh/core/libmesh_core_nrf52840_xxAA.a(nrf_mesh_utils.c.obj)
 .bss           0x00000000        0x0 mesh/core/libmesh_core_nrf52840_xxAA.a(nrf_mesh_utils.c.obj)
 .text.nrf_mesh_rand_get
                0x00000000       0x10 mesh/core/libmesh_core_nrf52840_xxAA.a(nrf_mesh_utils.c.obj)
 .text.nrf_mesh_gap_address_type_get
                0x00000000       0x3c mesh/core/libmesh_core_nrf52840_xxAA.a(nrf_mesh_utils.c.obj)
 .text          0x00000000        0x0 mesh/core/libmesh_core_nrf52840_xxAA.a(nrf_mesh.c.obj)
 .data          0x00000000        0x0 mesh/core/libmesh_core_nrf52840_xxAA.a(nrf_mesh.c.obj)
 .bss           0x00000000        0x0 mesh/core/libmesh_core_nrf52840_xxAA.a(nrf_mesh.c.obj)
 .text.nrf_mesh_disable
                0x00000000       0x28 mesh/core/libmesh_core_nrf52840_xxAA.a(nrf_mesh.c.obj)
 .text.nrf_mesh_packet_send
                0x00000000        0x4 mesh/core/libmesh_core_nrf52840_xxAA.a(nrf_mesh.c.obj)
 .text.nrf_mesh_process
                0x00000000        0x4 mesh/core/libmesh_core_nrf52840_xxAA.a(nrf_mesh.c.obj)
 .text.nrf_mesh_evt_handler_remove
                0x00000000        0x4 mesh/core/libmesh_core_nrf52840_xxAA.a(nrf_mesh.c.obj)
 .text.nrf_mesh_rx_cb_set
                0x00000000        0xc mesh/core/libmesh_core_nrf52840_xxAA.a(nrf_mesh.c.obj)
 .text.nrf_mesh_rx_cb_clear
                0x00000000        0xc mesh/core/libmesh_core_nrf52840_xxAA.a(nrf_mesh.c.obj)
 .text          0x00000000        0x0 mesh/core/libmesh_core_nrf52840_xxAA.a(hal.c.obj)
 .data          0x00000000        0x0 mesh/core/libmesh_core_nrf52840_xxAA.a(hal.c.obj)
 .bss           0x00000000        0x0 mesh/core/libmesh_core_nrf52840_xxAA.a(hal.c.obj)
 .text.sd_power_reset_reason_clr
                0x00000000        0x4 mesh/core/libmesh_core_nrf52840_xxAA.a(hal.c.obj)
 .text.hal_device_reset
                0x00000000       0x2c mesh/core/libmesh_core_nrf52840_xxAA.a(hal.c.obj)
 .text          0x00000000        0x0 mesh/core/libmesh_core_nrf52840_xxAA.a(timer_scheduler.c.obj)
 .data          0x00000000        0x0 mesh/core/libmesh_core_nrf52840_xxAA.a(timer_scheduler.c.obj)
 .bss           0x00000000        0x0 mesh/core/libmesh_core_nrf52840_xxAA.a(timer_scheduler.c.obj)
 .text          0x00000000        0x0 mesh/core/libmesh_core_nrf52840_xxAA.a(timer.c.obj)
 .data          0x00000000        0x0 mesh/core/libmesh_core_nrf52840_xxAA.a(timer.c.obj)
 .bss           0x00000000        0x0 mesh/core/libmesh_core_nrf52840_xxAA.a(timer.c.obj)
 .text.timer_order_cb_ppi
                0x00000000       0xc4 mesh/core/libmesh_core_nrf52840_xxAA.a(timer.c.obj)
 .text.timer_order_ppi
                0x00000000       0xc0 mesh/core/libmesh_core_nrf52840_xxAA.a(timer.c.obj)
 .text.timer_abort
                0x00000000       0x78 mesh/core/libmesh_core_nrf52840_xxAA.a(timer.c.obj)
 .text          0x00000000        0x0 mesh/core/libmesh_core_nrf52840_xxAA.a(ticker.c.obj)
 .data          0x00000000        0x0 mesh/core/libmesh_core_nrf52840_xxAA.a(ticker.c.obj)
 .bss           0x00000000        0x0 mesh/core/libmesh_core_nrf52840_xxAA.a(ticker.c.obj)
 .text.ticker_get
                0x00000000        0xc mesh/core/libmesh_core_nrf52840_xxAA.a(ticker.c.obj)
 .text          0x00000000        0x0 mesh/core/libmesh_core_nrf52840_xxAA.a(rand.c.obj)
 .data          0x00000000        0x0 mesh/core/libmesh_core_nrf52840_xxAA.a(rand.c.obj)
 .bss           0x00000000        0x0 mesh/core/libmesh_core_nrf52840_xxAA.a(rand.c.obj)
 .text          0x00000000        0x0 mesh/core/libmesh_core_nrf52840_xxAA.a(timeslot.c.obj)
 .data          0x00000000        0x0 mesh/core/libmesh_core_nrf52840_xxAA.a(timeslot.c.obj)
 .bss           0x00000000        0x0 mesh/core/libmesh_core_nrf52840_xxAA.a(timeslot.c.obj)
 .text.timeslot_end_time_get
                0x00000000       0x10 mesh/core/libmesh_core_nrf52840_xxAA.a(timeslot.c.obj)
 .text.timeslot_is_in_ts
                0x00000000        0xc mesh/core/libmesh_core_nrf52840_xxAA.a(timeslot.c.obj)
 .text.timeslot_restart
                0x00000000       0x10 mesh/core/libmesh_core_nrf52840_xxAA.a(timeslot.c.obj)
 .text          0x00000000        0x0 mesh/core/libmesh_core_nrf52840_xxAA.a(bearer_event.c.obj)
 .data          0x00000000        0x0 mesh/core/libmesh_core_nrf52840_xxAA.a(bearer_event.c.obj)
 .bss           0x00000000        0x0 mesh/core/libmesh_core_nrf52840_xxAA.a(bearer_event.c.obj)
 .text.bearer_event_generic_post
                0x00000000       0x30 mesh/core/libmesh_core_nrf52840_xxAA.a(bearer_event.c.obj)
 .text.bearer_event_timer_sch_post
                0x00000000       0x34 mesh/core/libmesh_core_nrf52840_xxAA.a(bearer_event.c.obj)
 .text.bearer_event_in_correct_irq_priority
                0x00000000       0x48 mesh/core/libmesh_core_nrf52840_xxAA.a(bearer_event.c.obj)
 .text          0x00000000        0x0 mesh/core/libmesh_core_nrf52840_xxAA.a(enc.c.obj)
 .data          0x00000000        0x0 mesh/core/libmesh_core_nrf52840_xxAA.a(enc.c.obj)
 .bss           0x00000000        0x0 mesh/core/libmesh_core_nrf52840_xxAA.a(enc.c.obj)
 .text.enc_key_generate
                0x00000000        0x6 mesh/core/libmesh_core_nrf52840_xxAA.a(enc.c.obj)
 .text.enc_k1   0x00000000       0x48 mesh/core/libmesh_core_nrf52840_xxAA.a(enc.c.obj)
 .text.enc_k2   0x00000000       0xd8 mesh/core/libmesh_core_nrf52840_xxAA.a(enc.c.obj)
 .text.enc_k3   0x00000000       0x68 mesh/core/libmesh_core_nrf52840_xxAA.a(enc.c.obj)
 .text.enc_k4   0x00000000       0x60 mesh/core/libmesh_core_nrf52840_xxAA.a(enc.c.obj)
 .rodata        0x00000000       0x15 mesh/core/libmesh_core_nrf52840_xxAA.a(enc.c.obj)
 .text          0x00000000        0x0 mesh/core/libmesh_core_nrf52840_xxAA.a(network.c.obj)
 .data          0x00000000        0x0 mesh/core/libmesh_core_nrf52840_xxAA.a(network.c.obj)
 .bss           0x00000000        0x0 mesh/core/libmesh_core_nrf52840_xxAA.a(network.c.obj)
 .text.network_opt_set
                0x00000000       0x68 mesh/core/libmesh_core_nrf52840_xxAA.a(network.c.obj)
 .text.network_packet_discard
                0x00000000       0x3c mesh/core/libmesh_core_nrf52840_xxAA.a(network.c.obj)
 .text          0x00000000        0x0 mesh/core/libmesh_core_nrf52840_xxAA.a(msqueue.c.obj)
 .data          0x00000000        0x0 mesh/core/libmesh_core_nrf52840_xxAA.a(msqueue.c.obj)
 .bss           0x00000000        0x0 mesh/core/libmesh_core_nrf52840_xxAA.a(msqueue.c.obj)
 .text          0x00000000        0x0 mesh/core/libmesh_core_nrf52840_xxAA.a(nrf_mesh_keygen.c.obj)
 .data          0x00000000        0x0 mesh/core/libmesh_core_nrf52840_xxAA.a(nrf_mesh_keygen.c.obj)
 .bss           0x00000000        0x0 mesh/core/libmesh_core_nrf52840_xxAA.a(nrf_mesh_keygen.c.obj)
 .text.nrf_mesh_keygen_aid
                0x00000000       0x12 mesh/core/libmesh_core_nrf52840_xxAA.a(nrf_mesh_keygen.c.obj)
 .text.nrf_mesh_keygen_network_secmat
                0x00000000       0x20 mesh/core/libmesh_core_nrf52840_xxAA.a(nrf_mesh_keygen.c.obj)
 .text.nrf_mesh_keygen_beacon_secmat
                0x00000000       0x50 mesh/core/libmesh_core_nrf52840_xxAA.a(nrf_mesh_keygen.c.obj)
 .text.nrf_mesh_keygen_identitykey
                0x00000000       0x4c mesh/core/libmesh_core_nrf52840_xxAA.a(nrf_mesh_keygen.c.obj)
 .text.nrf_mesh_keygen_virtual_address
                0x00000000       0x50 mesh/core/libmesh_core_nrf52840_xxAA.a(nrf_mesh_keygen.c.obj)
 .rodata        0x00000000        0x7 mesh/core/libmesh_core_nrf52840_xxAA.a(nrf_mesh_keygen.c.obj)
 .debug_info    0x00000000      0x4c8 mesh/core/libmesh_core_nrf52840_xxAA.a(nrf_mesh_keygen.c.obj)
 .debug_abbrev  0x00000000      0x163 mesh/core/libmesh_core_nrf52840_xxAA.a(nrf_mesh_keygen.c.obj)
 .debug_loc     0x00000000      0x1ee mesh/core/libmesh_core_nrf52840_xxAA.a(nrf_mesh_keygen.c.obj)
 .debug_aranges
                0x00000000       0x40 mesh/core/libmesh_core_nrf52840_xxAA.a(nrf_mesh_keygen.c.obj)
 .debug_ranges  0x00000000       0x30 mesh/core/libmesh_core_nrf52840_xxAA.a(nrf_mesh_keygen.c.obj)
 .debug_line    0x00000000      0x239 mesh/core/libmesh_core_nrf52840_xxAA.a(nrf_mesh_keygen.c.obj)
 .debug_str     0x00000000      0x397 mesh/core/libmesh_core_nrf52840_xxAA.a(nrf_mesh_keygen.c.obj)
 .comment       0x00000000       0x80 mesh/core/libmesh_core_nrf52840_xxAA.a(nrf_mesh_keygen.c.obj)
 .debug_frame   0x00000000       0xb4 mesh/core/libmesh_core_nrf52840_xxAA.a(nrf_mesh_keygen.c.obj)
 .ARM.attributes
                0x00000000       0x39 mesh/core/libmesh_core_nrf52840_xxAA.a(nrf_mesh_keygen.c.obj)
 .text          0x00000000        0x0 mesh/core/libmesh_core_nrf52840_xxAA.a(list.c.obj)
 .data          0x00000000        0x0 mesh/core/libmesh_core_nrf52840_xxAA.a(list.c.obj)
 .bss           0x00000000        0x0 mesh/core/libmesh_core_nrf52840_xxAA.a(list.c.obj)
 .text.list_size_get
                0x00000000       0x12 mesh/core/libmesh_core_nrf52840_xxAA.a(list.c.obj)
 .text.list_sorted_add
                0x00000000       0x90 mesh/core/libmesh_core_nrf52840_xxAA.a(list.c.obj)
 .text.list_compare_add
                0x00000000       0x80 mesh/core/libmesh_core_nrf52840_xxAA.a(list.c.obj)
 .text          0x00000000        0x0 mesh/core/libmesh_core_nrf52840_xxAA.a(log.c.obj)
 .data          0x00000000        0x0 mesh/core/libmesh_core_nrf52840_xxAA.a(log.c.obj)
 .bss           0x00000000        0x0 mesh/core/libmesh_core_nrf52840_xxAA.a(log.c.obj)
 .text.log_callback_logview
                0x00000000       0x38 mesh/core/libmesh_core_nrf52840_xxAA.a(log.c.obj)
 .text.log_set_callback
                0x00000000        0xc mesh/core/libmesh_core_nrf52840_xxAA.a(log.c.obj)
 .rodata.log_callback_logview.str1.1
                0x00000000        0xf mesh/core/libmesh_core_nrf52840_xxAA.a(log.c.obj)
 .text          0x00000000        0x0 mesh/core/libmesh_core_nrf52840_xxAA.a(flash_manager.c.obj)
 .data          0x00000000        0x0 mesh/core/libmesh_core_nrf52840_xxAA.a(flash_manager.c.obj)
 .bss           0x00000000        0x0 mesh/core/libmesh_core_nrf52840_xxAA.a(flash_manager.c.obj)
 .text.flash_manager_remove
                0x00000000       0x24 mesh/core/libmesh_core_nrf52840_xxAA.a(flash_manager.c.obj)
 .text.flash_manager_entry_get
                0x00000000       0x48 mesh/core/libmesh_core_nrf52840_xxAA.a(flash_manager.c.obj)
 .text.flash_manager_entry_count_get
                0x00000000       0x5c mesh/core/libmesh_core_nrf52840_xxAA.a(flash_manager.c.obj)
 .text.flash_manager_entry_release
                0x00000000       0x12 mesh/core/libmesh_core_nrf52840_xxAA.a(flash_manager.c.obj)
 .text.flash_manager_action_queue_empty_cb_set
                0x00000000       0x28 mesh/core/libmesh_core_nrf52840_xxAA.a(flash_manager.c.obj)
 .text          0x00000000        0x0 mesh/core/libmesh_core_nrf52840_xxAA.a(ccm_soft.c.obj)
 .data          0x00000000        0x0 mesh/core/libmesh_core_nrf52840_xxAA.a(ccm_soft.c.obj)
 .bss           0x00000000        0x0 mesh/core/libmesh_core_nrf52840_xxAA.a(ccm_soft.c.obj)
 .text          0x00000000        0x0 mesh/core/libmesh_core_nrf52840_xxAA.a(beacon.c.obj)
 .data          0x00000000        0x0 mesh/core/libmesh_core_nrf52840_xxAA.a(beacon.c.obj)
 .bss           0x00000000        0x0 mesh/core/libmesh_core_nrf52840_xxAA.a(beacon.c.obj)
 .text          0x00000000        0x0 mesh/core/libmesh_core_nrf52840_xxAA.a(flash_manager_internal.c.obj)
 .data          0x00000000        0x0 mesh/core/libmesh_core_nrf52840_xxAA.a(flash_manager_internal.c.obj)
 .bss           0x00000000        0x0 mesh/core/libmesh_core_nrf52840_xxAA.a(flash_manager_internal.c.obj)
 .text          0x00000000        0x0 mesh/core/libmesh_core_nrf52840_xxAA.a(core_tx.c.obj)
 .data          0x00000000        0x0 mesh/core/libmesh_core_nrf52840_xxAA.a(core_tx.c.obj)
 .bss           0x00000000        0x0 mesh/core/libmesh_core_nrf52840_xxAA.a(core_tx.c.obj)
 .text          0x00000000        0x0 mesh/core/libmesh_core_nrf52840_xxAA.a(heartbeat.c.obj)
 .data          0x00000000        0x0 mesh/core/libmesh_core_nrf52840_xxAA.a(heartbeat.c.obj)
 .bss           0x00000000        0x0 mesh/core/libmesh_core_nrf52840_xxAA.a(heartbeat.c.obj)
 .text.heartbeat_on_feature_change_trigger
                0x00000000       0x50 mesh/core/libmesh_core_nrf52840_xxAA.a(heartbeat.c.obj)
 .text.heartbeat_subscription_set
                0x00000000       0x90 mesh/core/libmesh_core_nrf52840_xxAA.a(heartbeat.c.obj)
 .text.heartbeat_subscription_get
                0x00000000        0x8 mesh/core/libmesh_core_nrf52840_xxAA.a(heartbeat.c.obj)
 .text.heartbeat_config_server_cb_set
                0x00000000       0x3c mesh/core/libmesh_core_nrf52840_xxAA.a(heartbeat.c.obj)
 .text.heartbeat_publication_state_updated
                0x00000000       0x80 mesh/core/libmesh_core_nrf52840_xxAA.a(heartbeat.c.obj)
 .text          0x00000000        0x0 mesh/core/libmesh_core_nrf52840_xxAA.a(net_beacon.c.obj)
 .data          0x00000000        0x0 mesh/core/libmesh_core_nrf52840_xxAA.a(net_beacon.c.obj)
 .bss           0x00000000        0x0 mesh/core/libmesh_core_nrf52840_xxAA.a(net_beacon.c.obj)
 .text.net_beacon_state_set
                0x00000000       0x34 mesh/core/libmesh_core_nrf52840_xxAA.a(net_beacon.c.obj)
 .text.net_beacon_state_get
                0x00000000        0xc mesh/core/libmesh_core_nrf52840_xxAA.a(net_beacon.c.obj)
 .text          0x00000000        0x0 mesh/core/libmesh_core_nrf52840_xxAA.a(core_tx_adv.c.obj)
 .data          0x00000000        0x0 mesh/core/libmesh_core_nrf52840_xxAA.a(core_tx_adv.c.obj)
 .bss           0x00000000        0x0 mesh/core/libmesh_core_nrf52840_xxAA.a(core_tx_adv.c.obj)
 .text.core_tx_adv_count_set
                0x00000000       0x38 mesh/core/libmesh_core_nrf52840_xxAA.a(core_tx_adv.c.obj)
 .text.core_tx_adv_interval_set
                0x00000000       0x34 mesh/core/libmesh_core_nrf52840_xxAA.a(core_tx_adv.c.obj)
 .text.core_tx_adv_address_set
                0x00000000       0x34 mesh/core/libmesh_core_nrf52840_xxAA.a(core_tx_adv.c.obj)
 .text          0x00000000        0x0 mesh/core/libmesh_core_nrf52840_xxAA.a(ad_listener.c.obj)
 .data          0x00000000        0x0 mesh/core/libmesh_core_nrf52840_xxAA.a(ad_listener.c.obj)
 .bss           0x00000000        0x0 mesh/core/libmesh_core_nrf52840_xxAA.a(ad_listener.c.obj)
 .text.ad_listener_unsubscribe
                0x00000000       0x6c mesh/core/libmesh_core_nrf52840_xxAA.a(ad_listener.c.obj)
 .text          0x00000000        0x0 mesh/core/libmesh_core_nrf52840_xxAA.a(ad_type_filter.c.obj)
 .data          0x00000000        0x0 mesh/core/libmesh_core_nrf52840_xxAA.a(ad_type_filter.c.obj)
 .bss           0x00000000        0x0 mesh/core/libmesh_core_nrf52840_xxAA.a(ad_type_filter.c.obj)
 .text.bearer_adtype_remove
                0x00000000       0x20 mesh/core/libmesh_core_nrf52840_xxAA.a(ad_type_filter.c.obj)
 .text.bearer_adtype_clear
                0x00000000       0x10 mesh/core/libmesh_core_nrf52840_xxAA.a(ad_type_filter.c.obj)
 .text.bearer_invalid_length_amount_get
                0x00000000        0xc mesh/core/libmesh_core_nrf52840_xxAA.a(ad_type_filter.c.obj)
 .text.bearer_adtype_filtered_amount_get
                0x00000000        0xc mesh/core/libmesh_core_nrf52840_xxAA.a(ad_type_filter.c.obj)
 .text          0x00000000        0x0 mesh/core/libmesh_core_nrf52840_xxAA.a(advertiser.c.obj)
 .data          0x00000000        0x0 mesh/core/libmesh_core_nrf52840_xxAA.a(advertiser.c.obj)
 .bss           0x00000000        0x0 mesh/core/libmesh_core_nrf52840_xxAA.a(advertiser.c.obj)
 .text.advertiser_disable
                0x00000000        0xa mesh/core/libmesh_core_nrf52840_xxAA.a(advertiser.c.obj)
 .text.advertiser_channels_set
                0x00000000       0x84 mesh/core/libmesh_core_nrf52840_xxAA.a(advertiser.c.obj)
 .text.advertiser_address_set
                0x00000000       0x50 mesh/core/libmesh_core_nrf52840_xxAA.a(advertiser.c.obj)
 .text.advertiser_config_set
                0x00000000       0x44 mesh/core/libmesh_core_nrf52840_xxAA.a(advertiser.c.obj)
 .text.advertiser_config_get
                0x00000000       0x2c mesh/core/libmesh_core_nrf52840_xxAA.a(advertiser.c.obj)
 .text          0x00000000        0x0 mesh/core/libmesh_core_nrf52840_xxAA.a(bearer_handler.c.obj)
 .data          0x00000000        0x0 mesh/core/libmesh_core_nrf52840_xxAA.a(bearer_handler.c.obj)
 .bss           0x00000000        0x0 mesh/core/libmesh_core_nrf52840_xxAA.a(bearer_handler.c.obj)
 .text.bearer_handler_stop
                0x00000000       0x20 mesh/core/libmesh_core_nrf52840_xxAA.a(bearer_handler.c.obj)
 .text.bearer_handler_action_fire
                0x00000000       0xbc mesh/core/libmesh_core_nrf52840_xxAA.a(bearer_handler.c.obj)
 .text          0x00000000        0x0 mesh/core/libmesh_core_nrf52840_xxAA.a(broadcast.c.obj)
 .data          0x00000000        0x0 mesh/core/libmesh_core_nrf52840_xxAA.a(broadcast.c.obj)
 .bss           0x00000000        0x0 mesh/core/libmesh_core_nrf52840_xxAA.a(broadcast.c.obj)
 .text          0x00000000        0x0 mesh/core/libmesh_core_nrf52840_xxAA.a(filter_engine.c.obj)
 .data          0x00000000        0x0 mesh/core/libmesh_core_nrf52840_xxAA.a(filter_engine.c.obj)
 .bss           0x00000000        0x0 mesh/core/libmesh_core_nrf52840_xxAA.a(filter_engine.c.obj)
 .text.fen_accepted_amount_get
                0x00000000        0xc mesh/core/libmesh_core_nrf52840_xxAA.a(filter_engine.c.obj)
 .text          0x00000000        0x0 mesh/core/libmesh_core_nrf52840_xxAA.a(radio_config.c.obj)
 .data          0x00000000        0x0 mesh/core/libmesh_core_nrf52840_xxAA.a(radio_config.c.obj)
 .bss           0x00000000        0x0 mesh/core/libmesh_core_nrf52840_xxAA.a(radio_config.c.obj)
 .text.radio_config_access_addr_get
                0x00000000       0x64 mesh/core/libmesh_core_nrf52840_xxAA.a(radio_config.c.obj)
 .text          0x00000000        0x0 mesh/core/libmesh_core_nrf52840_xxAA.a(scanner.c.obj)
 .data          0x00000000        0x0 mesh/core/libmesh_core_nrf52840_xxAA.a(scanner.c.obj)
 .bss           0x00000000        0x0 mesh/core/libmesh_core_nrf52840_xxAA.a(scanner.c.obj)
 .text.scanner_rx_callback_set
                0x00000000       0x2c mesh/core/libmesh_core_nrf52840_xxAA.a(scanner.c.obj)
 .text.scanner_disable
                0x00000000       0x48 mesh/core/libmesh_core_nrf52840_xxAA.a(scanner.c.obj)
 .text.scanner_is_enabled
                0x00000000       0x10 mesh/core/libmesh_core_nrf52840_xxAA.a(scanner.c.obj)
 .text.scanner_stats_get
                0x00000000        0x8 mesh/core/libmesh_core_nrf52840_xxAA.a(scanner.c.obj)
 .text.scanner_config_radio_mode_set
                0x00000000       0x10 mesh/core/libmesh_core_nrf52840_xxAA.a(scanner.c.obj)
 .text          0x00000000        0x0 mesh/core/libmesh_core_nrf52840_xxAA.a(internal_event.c.obj)
 .data          0x00000000        0x0 mesh/core/libmesh_core_nrf52840_xxAA.a(internal_event.c.obj)
 .bss           0x00000000        0x0 mesh/core/libmesh_core_nrf52840_xxAA.a(internal_event.c.obj)
 .text.internal_event_init
                0x00000000       0x40 mesh/core/libmesh_core_nrf52840_xxAA.a(internal_event.c.obj)
 .text.internal_event_pop
                0x00000000       0x1c mesh/core/libmesh_core_nrf52840_xxAA.a(internal_event.c.obj)
 .bss.m_internal_event_fifo_buffer
                0x00000000      0x100 mesh/core/libmesh_core_nrf52840_xxAA.a(internal_event.c.obj)
 .text          0x00000000        0x0 mesh/core/libmesh_core_nrf52840_xxAA.a(aes.c.obj)
 .data          0x00000000        0x0 mesh/core/libmesh_core_nrf52840_xxAA.a(aes.c.obj)
 .bss           0x00000000        0x0 mesh/core/libmesh_core_nrf52840_xxAA.a(aes.c.obj)
 .text          0x00000000        0x0 mesh/core/libmesh_core_nrf52840_xxAA.a(msg_cache.c.obj)
 .data          0x00000000        0x0 mesh/core/libmesh_core_nrf52840_xxAA.a(msg_cache.c.obj)
 .bss           0x00000000        0x0 mesh/core/libmesh_core_nrf52840_xxAA.a(msg_cache.c.obj)
 .text.msg_cache_clear
                0x00000000       0x18 mesh/core/libmesh_core_nrf52840_xxAA.a(msg_cache.c.obj)
 .text          0x00000000        0x0 mesh/core/libmesh_core_nrf52840_xxAA.a(transport.c.obj)
 .data          0x00000000        0x0 mesh/core/libmesh_core_nrf52840_xxAA.a(transport.c.obj)
 .bss           0x00000000        0x0 mesh/core/libmesh_core_nrf52840_xxAA.a(transport.c.obj)
 .text.transport_sar_mem_funcs_set
                0x00000000       0x44 mesh/core/libmesh_core_nrf52840_xxAA.a(transport.c.obj)
 .text.transport_tx
                0x00000000       0xa4 mesh/core/libmesh_core_nrf52840_xxAA.a(transport.c.obj)
 .text.transport_opt_set
                0x00000000       0xd0 mesh/core/libmesh_core_nrf52840_xxAA.a(transport.c.obj)
 .text          0x00000000        0x0 mesh/core/libmesh_core_nrf52840_xxAA.a(packet_buffer.c.obj)
 .data          0x00000000        0x0 mesh/core/libmesh_core_nrf52840_xxAA.a(packet_buffer.c.obj)
 .bss           0x00000000        0x0 mesh/core/libmesh_core_nrf52840_xxAA.a(packet_buffer.c.obj)
 .text.packet_buffer_max_packet_len_get
                0x00000000       0x34 mesh/core/libmesh_core_nrf52840_xxAA.a(packet_buffer.c.obj)
 .text          0x00000000        0x0 mesh/core/libmesh_core_nrf52840_xxAA.a(flash_manager_defrag.c.obj)
 .data          0x00000000        0x0 mesh/core/libmesh_core_nrf52840_xxAA.a(flash_manager_defrag.c.obj)
 .bss           0x00000000        0x0 mesh/core/libmesh_core_nrf52840_xxAA.a(flash_manager_defrag.c.obj)
 .text.flash_manager_defragging
                0x00000000       0x44 mesh/core/libmesh_core_nrf52840_xxAA.a(flash_manager_defrag.c.obj)
 .text          0x00000000        0x0 mesh/core/libmesh_core_nrf52840_xxAA.a(fifo.c.obj)
 .data          0x00000000        0x0 mesh/core/libmesh_core_nrf52840_xxAA.a(fifo.c.obj)
 .bss           0x00000000        0x0 mesh/core/libmesh_core_nrf52840_xxAA.a(fifo.c.obj)
 .text.fifo_peek_at
                0x00000000       0x50 mesh/core/libmesh_core_nrf52840_xxAA.a(fifo.c.obj)
 .text.fifo_peek
                0x00000000        0x6 mesh/core/libmesh_core_nrf52840_xxAA.a(fifo.c.obj)
 .text.fifo_flush
                0x00000000        0x6 mesh/core/libmesh_core_nrf52840_xxAA.a(fifo.c.obj)
 .text.fifo_get_len
                0x00000000        0x8 mesh/core/libmesh_core_nrf52840_xxAA.a(fifo.c.obj)
 .text.fifo_is_full
                0x00000000       0x10 mesh/core/libmesh_core_nrf52840_xxAA.a(fifo.c.obj)
 .text.fifo_is_empty
                0x00000000        0xc mesh/core/libmesh_core_nrf52840_xxAA.a(fifo.c.obj)
 .text          0x00000000        0x0 mesh/core/libmesh_core_nrf52840_xxAA.a(nrf_flash.c.obj)
 .data          0x00000000        0x0 mesh/core/libmesh_core_nrf52840_xxAA.a(nrf_flash.c.obj)
 .bss           0x00000000        0x0 mesh/core/libmesh_core_nrf52840_xxAA.a(nrf_flash.c.obj)
 .text          0x00000000        0x0 mesh/core/libmesh_core_nrf52840_xxAA.a(packet_mgr.c.obj)
 .data          0x00000000        0x0 mesh/core/libmesh_core_nrf52840_xxAA.a(packet_mgr.c.obj)
 .bss           0x00000000        0x0 mesh/core/libmesh_core_nrf52840_xxAA.a(packet_mgr.c.obj)
 .text.packet_mgr_alloc
                0x00000000      0x19c mesh/core/libmesh_core_nrf52840_xxAA.a(packet_mgr.c.obj)
 .text.packet_mgr_free
                0x00000000       0x6c mesh/core/libmesh_core_nrf52840_xxAA.a(packet_mgr.c.obj)
 .text.packet_mgr_get_free_space
                0x00000000       0x1c mesh/core/libmesh_core_nrf52840_xxAA.a(packet_mgr.c.obj)
 .text.packet_mgr_refcount_get
                0x00000000        0x6 mesh/core/libmesh_core_nrf52840_xxAA.a(packet_mgr.c.obj)
 .text.packet_mgr_size_get
                0x00000000        0x6 mesh/core/libmesh_core_nrf52840_xxAA.a(packet_mgr.c.obj)
 .text          0x00000000        0x0 mesh/core/libmesh_core_nrf52840_xxAA.a(queue.c.obj)
 .data          0x00000000        0x0 mesh/core/libmesh_core_nrf52840_xxAA.a(queue.c.obj)
 .bss           0x00000000        0x0 mesh/core/libmesh_core_nrf52840_xxAA.a(queue.c.obj)
 .text          0x00000000        0x0 mesh/core/libmesh_core_nrf52840_xxAA.a(aes_cmac.c.obj)
 .data          0x00000000        0x0 mesh/core/libmesh_core_nrf52840_xxAA.a(aes_cmac.c.obj)
 .bss           0x00000000        0x0 mesh/core/libmesh_core_nrf52840_xxAA.a(aes_cmac.c.obj)
 .text          0x00000000        0x0 mesh/core/libmesh_core_nrf52840_xxAA.a(nrf_mesh_opt.c.obj)
 .data          0x00000000        0x0 mesh/core/libmesh_core_nrf52840_xxAA.a(nrf_mesh_opt.c.obj)
 .bss           0x00000000        0x0 mesh/core/libmesh_core_nrf52840_xxAA.a(nrf_mesh_opt.c.obj)
 .text.nrf_mesh_opt_set
                0x00000000       0x26 mesh/core/libmesh_core_nrf52840_xxAA.a(nrf_mesh_opt.c.obj)
 .text          0x00000000        0x0 mesh/core/libmesh_core_nrf52840_xxAA.a(replay_cache.c.obj)
 .data          0x00000000        0x0 mesh/core/libmesh_core_nrf52840_xxAA.a(replay_cache.c.obj)
 .bss           0x00000000        0x0 mesh/core/libmesh_core_nrf52840_xxAA.a(replay_cache.c.obj)
 .text.replay_cache_on_iv_update
                0x00000000       0x24 mesh/core/libmesh_core_nrf52840_xxAA.a(replay_cache.c.obj)
 .text          0x00000000        0x0 external/rtt/librtt_nrf52840_xxAA.a(SEGGER_RTT.c.obj)
 .data          0x00000000        0x0 external/rtt/librtt_nrf52840_xxAA.a(SEGGER_RTT.c.obj)
 .bss           0x00000000        0x0 external/rtt/librtt_nrf52840_xxAA.a(SEGGER_RTT.c.obj)
 .text._PostTerminalSwitch.constprop.0
                0x00000000       0x28 external/rtt/librtt_nrf52840_xxAA.a(SEGGER_RTT.c.obj)
 .text.SEGGER_RTT_ReadNoLock
                0x00000000       0x88 external/rtt/librtt_nrf52840_xxAA.a(SEGGER_RTT.c.obj)
 .text.SEGGER_RTT_Read
                0x00000000       0x1c external/rtt/librtt_nrf52840_xxAA.a(SEGGER_RTT.c.obj)
 .text.SEGGER_RTT_WriteSkipNoLock
                0x00000000       0xb4 external/rtt/librtt_nrf52840_xxAA.a(SEGGER_RTT.c.obj)
 .text.SEGGER_RTT_WriteString
                0x00000000       0x1a external/rtt/librtt_nrf52840_xxAA.a(SEGGER_RTT.c.obj)
 .text.SEGGER_RTT_GetKey
                0x00000000       0x20 external/rtt/librtt_nrf52840_xxAA.a(SEGGER_RTT.c.obj)
 .text.SEGGER_RTT_WaitKey
                0x00000000        0xc external/rtt/librtt_nrf52840_xxAA.a(SEGGER_RTT.c.obj)
 .text.SEGGER_RTT_HasKey
                0x00000000       0x1c external/rtt/librtt_nrf52840_xxAA.a(SEGGER_RTT.c.obj)
 .text.SEGGER_RTT_HasData
                0x00000000       0x14 external/rtt/librtt_nrf52840_xxAA.a(SEGGER_RTT.c.obj)
 .text.SEGGER_RTT_AllocDownBuffer
                0x00000000       0x68 external/rtt/librtt_nrf52840_xxAA.a(SEGGER_RTT.c.obj)
 .text.SEGGER_RTT_AllocUpBuffer
                0x00000000       0x70 external/rtt/librtt_nrf52840_xxAA.a(SEGGER_RTT.c.obj)
 .text.SEGGER_RTT_ConfigUpBuffer
                0x00000000       0x68 external/rtt/librtt_nrf52840_xxAA.a(SEGGER_RTT.c.obj)
 .text.SEGGER_RTT_ConfigDownBuffer
                0x00000000       0x60 external/rtt/librtt_nrf52840_xxAA.a(SEGGER_RTT.c.obj)
 .text.SEGGER_RTT_SetNameUpBuffer
                0x00000000       0x3c external/rtt/librtt_nrf52840_xxAA.a(SEGGER_RTT.c.obj)
 .text.SEGGER_RTT_SetNameDownBuffer
                0x00000000       0x3c external/rtt/librtt_nrf52840_xxAA.a(SEGGER_RTT.c.obj)
 .text.SEGGER_RTT_Init
                0x00000000       0x10 external/rtt/librtt_nrf52840_xxAA.a(SEGGER_RTT.c.obj)
 .text.SEGGER_RTT_SetTerminal
                0x00000000       0x84 external/rtt/librtt_nrf52840_xxAA.a(SEGGER_RTT.c.obj)
 .text.SEGGER_RTT_TerminalOut
                0x00000000       0xa0 external/rtt/librtt_nrf52840_xxAA.a(SEGGER_RTT.c.obj)
 .bss._ActiveTerminal
                0x00000000        0x1 external/rtt/librtt_nrf52840_xxAA.a(SEGGER_RTT.c.obj)
 .rodata._aTerminalId
                0x00000000       0x10 external/rtt/librtt_nrf52840_xxAA.a(SEGGER_RTT.c.obj)
 .text          0x00000000        0x0 external/rtt/librtt_nrf52840_xxAA.a(SEGGER_RTT_printf.c.obj)
 .data          0x00000000        0x0 external/rtt/librtt_nrf52840_xxAA.a(SEGGER_RTT_printf.c.obj)
 .bss           0x00000000        0x0 external/rtt/librtt_nrf52840_xxAA.a(SEGGER_RTT_printf.c.obj)
 .text          0x00000000        0x0 external/micro-ecc/libuECC_nrf52840_xxAA.a(uECC.c.obj)
 .data          0x00000000        0x0 external/micro-ecc/libuECC_nrf52840_xxAA.a(uECC.c.obj)
 .bss           0x00000000        0x0 external/micro-ecc/libuECC_nrf52840_xxAA.a(uECC.c.obj)
 .text.uECC_vli_mult
                0x00000000       0x64 external/micro-ecc/libuECC_nrf52840_xxAA.a(uECC.c.obj)
 .text.uECC_vli_clear
                0x00000000       0x16 external/micro-ecc/libuECC_nrf52840_xxAA.a(uECC.c.obj)
 .text.uECC_vli_isZero
                0x00000000       0x1e external/micro-ecc/libuECC_nrf52840_xxAA.a(uECC.c.obj)
 .text.uECC_vli_testBit
                0x00000000       0x14 external/micro-ecc/libuECC_nrf52840_xxAA.a(uECC.c.obj)
 .text.uECC_vli_numBits
                0x00000000       0x3a external/micro-ecc/libuECC_nrf52840_xxAA.a(uECC.c.obj)
 .text.uECC_vli_set
                0x00000000       0x18 external/micro-ecc/libuECC_nrf52840_xxAA.a(uECC.c.obj)
 .text.uECC_vli_cmp_unsafe
                0x00000000       0x28 external/micro-ecc/libuECC_nrf52840_xxAA.a(uECC.c.obj)
 .text.uECC_vli_rshift1
                0x00000000       0x1c external/micro-ecc/libuECC_nrf52840_xxAA.a(uECC.c.obj)
 .text.uECC_vli_modMult
                0x00000000      0x148 external/micro-ecc/libuECC_nrf52840_xxAA.a(uECC.c.obj)
 .text.uECC_vli_modMult_fast
                0x00000000       0x20 external/micro-ecc/libuECC_nrf52840_xxAA.a(uECC.c.obj)
 .text.uECC_vli_modSquare_fast
                0x00000000        0x8 external/micro-ecc/libuECC_nrf52840_xxAA.a(uECC.c.obj)
 .text.apply_z  0x00000000       0x3e external/micro-ecc/libuECC_nrf52840_xxAA.a(uECC.c.obj)
 .text.uECC_vli_nativeToBytes
                0x00000000       0x28 external/micro-ecc/libuECC_nrf52840_xxAA.a(uECC.c.obj)
 .text.uECC_vli_bytesToNative
                0x00000000       0x40 external/micro-ecc/libuECC_nrf52840_xxAA.a(uECC.c.obj)
 .text.HMAC_init
                0x00000000       0x46 external/micro-ecc/libuECC_nrf52840_xxAA.a(uECC.c.obj)
 .text.HMAC_update
                0x00000000        0x4 external/micro-ecc/libuECC_nrf52840_xxAA.a(uECC.c.obj)
 .text.HMAC_finish
                0x00000000       0x62 external/micro-ecc/libuECC_nrf52840_xxAA.a(uECC.c.obj)
 .text.update_V
                0x00000000       0x24 external/micro-ecc/libuECC_nrf52840_xxAA.a(uECC.c.obj)
 .text.default_RNG
                0x00000000        0xc external/micro-ecc/libuECC_nrf52840_xxAA.a(uECC.c.obj)
 .text.uECC_vli_add.isra.0
                0x00000000       0x4a external/micro-ecc/libuECC_nrf52840_xxAA.a(uECC.c.obj)
 .text.regularize_k
                0x00000000       0x50 external/micro-ecc/libuECC_nrf52840_xxAA.a(uECC.c.obj)
 .text.uECC_vli_sub.isra.1
                0x00000000       0x4e external/micro-ecc/libuECC_nrf52840_xxAA.a(uECC.c.obj)
 .text.uECC_vli_cmp
                0x00000000       0x30 external/micro-ecc/libuECC_nrf52840_xxAA.a(uECC.c.obj)
 .text.uECC_generate_random_int
                0x00000000       0x78 external/micro-ecc/libuECC_nrf52840_xxAA.a(uECC.c.obj)
 .text.uECC_vli_modAdd
                0x00000000       0x2e external/micro-ecc/libuECC_nrf52840_xxAA.a(uECC.c.obj)
 .text.vli_mmod_fast_secp256r1
                0x00000000      0x194 external/micro-ecc/libuECC_nrf52840_xxAA.a(uECC.c.obj)
 .text.bits2int
                0x00000000       0x88 external/micro-ecc/libuECC_nrf52840_xxAA.a(uECC.c.obj)
 .text.uECC_vli_modSub.isra.2
                0x00000000       0x1c external/micro-ecc/libuECC_nrf52840_xxAA.a(uECC.c.obj)
 .text.double_jacobian_default
                0x00000000      0x14a external/micro-ecc/libuECC_nrf52840_xxAA.a(uECC.c.obj)
 .text.x_side_default
                0x00000000       0x5a external/micro-ecc/libuECC_nrf52840_xxAA.a(uECC.c.obj)
 .text.XYcZ_add
                0x00000000       0xbc external/micro-ecc/libuECC_nrf52840_xxAA.a(uECC.c.obj)
 .text.XYcZ_addC
                0x00000000      0x10a external/micro-ecc/libuECC_nrf52840_xxAA.a(uECC.c.obj)
 .text.vli_modInv_update
                0x00000000       0x36 external/micro-ecc/libuECC_nrf52840_xxAA.a(uECC.c.obj)
 .text.uECC_vli_modInv
                0x00000000      0x102 external/micro-ecc/libuECC_nrf52840_xxAA.a(uECC.c.obj)
 .text.EccPoint_mult
                0x00000000      0x19e external/micro-ecc/libuECC_nrf52840_xxAA.a(uECC.c.obj)
 .text.EccPoint_compute_public_key
                0x00000000       0x54 external/micro-ecc/libuECC_nrf52840_xxAA.a(uECC.c.obj)
 .text.uECC_sign_with_k
                0x00000000      0x17c external/micro-ecc/libuECC_nrf52840_xxAA.a(uECC.c.obj)
 .text.uECC_set_rng
                0x00000000        0xc external/micro-ecc/libuECC_nrf52840_xxAA.a(uECC.c.obj)
 .text.uECC_get_rng
                0x00000000        0xc external/micro-ecc/libuECC_nrf52840_xxAA.a(uECC.c.obj)
 .text.uECC_curve_private_key_size
                0x00000000        0xe external/micro-ecc/libuECC_nrf52840_xxAA.a(uECC.c.obj)
 .text.uECC_curve_public_key_size
                0x00000000        0x8 external/micro-ecc/libuECC_nrf52840_xxAA.a(uECC.c.obj)
 .text.uECC_secp256r1
                0x00000000        0x8 external/micro-ecc/libuECC_nrf52840_xxAA.a(uECC.c.obj)
 .text.uECC_make_key
                0x00000000       0x7e external/micro-ecc/libuECC_nrf52840_xxAA.a(uECC.c.obj)
 .text.uECC_shared_secret
                0x00000000       0xbc external/micro-ecc/libuECC_nrf52840_xxAA.a(uECC.c.obj)
 .text.uECC_valid_point
                0x00000000       0x86 external/micro-ecc/libuECC_nrf52840_xxAA.a(uECC.c.obj)
 .text.uECC_valid_public_key
                0x00000000       0x32 external/micro-ecc/libuECC_nrf52840_xxAA.a(uECC.c.obj)
 .text.uECC_compute_public_key
                0x00000000       0x7e external/micro-ecc/libuECC_nrf52840_xxAA.a(uECC.c.obj)
 .text.uECC_sign
                0x00000000       0x56 external/micro-ecc/libuECC_nrf52840_xxAA.a(uECC.c.obj)
 .text.uECC_sign_deterministic
                0x00000000      0x192 external/micro-ecc/libuECC_nrf52840_xxAA.a(uECC.c.obj)
 .text.uECC_verify
                0x00000000      0x2f0 external/micro-ecc/libuECC_nrf52840_xxAA.a(uECC.c.obj)
 .data.g_rng_function
                0x00000000        0x4 external/micro-ecc/libuECC_nrf52840_xxAA.a(uECC.c.obj)
 .rodata.curve_secp256r1
                0x00000000       0xb0 external/micro-ecc/libuECC_nrf52840_xxAA.a(uECC.c.obj)
 .debug_info    0x00000000     0x4511 external/micro-ecc/libuECC_nrf52840_xxAA.a(uECC.c.obj)
 .debug_abbrev  0x00000000      0x4b4 external/micro-ecc/libuECC_nrf52840_xxAA.a(uECC.c.obj)
 .debug_loc     0x00000000     0x2449 external/micro-ecc/libuECC_nrf52840_xxAA.a(uECC.c.obj)
 .debug_aranges
                0x00000000      0x1a8 external/micro-ecc/libuECC_nrf52840_xxAA.a(uECC.c.obj)
 .debug_ranges  0x00000000      0x2e8 external/micro-ecc/libuECC_nrf52840_xxAA.a(uECC.c.obj)
 .debug_line    0x00000000      0x9fb external/micro-ecc/libuECC_nrf52840_xxAA.a(uECC.c.obj)
 .debug_str     0x00000000      0x880 external/micro-ecc/libuECC_nrf52840_xxAA.a(uECC.c.obj)
 .comment       0x00000000       0x80 external/micro-ecc/libuECC_nrf52840_xxAA.a(uECC.c.obj)
 .debug_frame   0x00000000      0x684 external/micro-ecc/libuECC_nrf52840_xxAA.a(uECC.c.obj)
 .ARM.attributes
                0x00000000       0x39 external/micro-ecc/libuECC_nrf52840_xxAA.a(uECC.c.obj)
 .text          0x00000000        0x0 c:/a/gcc_arm/6/bin/../lib/gcc/arm-none-eabi/6.3.1/../../../../arm-none-eabi/lib/thumb/v7e-m/fpv4-sp/hard\libg_nano.a(lib_a-exit.o)
 .data          0x00000000        0x0 c:/a/gcc_arm/6/bin/../lib/gcc/arm-none-eabi/6.3.1/../../../../arm-none-eabi/lib/thumb/v7e-m/fpv4-sp/hard\libg_nano.a(lib_a-exit.o)
 .bss           0x00000000        0x0 c:/a/gcc_arm/6/bin/../lib/gcc/arm-none-eabi/6.3.1/../../../../arm-none-eabi/lib/thumb/v7e-m/fpv4-sp/hard\libg_nano.a(lib_a-exit.o)
 .text          0x00000000        0x0 c:/a/gcc_arm/6/bin/../lib/gcc/arm-none-eabi/6.3.1/../../../../arm-none-eabi/lib/thumb/v7e-m/fpv4-sp/hard\libg_nano.a(lib_a-impure.o)
 .data          0x00000000        0x0 c:/a/gcc_arm/6/bin/../lib/gcc/arm-none-eabi/6.3.1/../../../../arm-none-eabi/lib/thumb/v7e-m/fpv4-sp/hard\libg_nano.a(lib_a-impure.o)
 .bss           0x00000000        0x0 c:/a/gcc_arm/6/bin/../lib/gcc/arm-none-eabi/6.3.1/../../../../arm-none-eabi/lib/thumb/v7e-m/fpv4-sp/hard\libg_nano.a(lib_a-impure.o)
 .text          0x00000000        0x0 c:/a/gcc_arm/6/bin/../lib/gcc/arm-none-eabi/6.3.1/../../../../arm-none-eabi/lib/thumb/v7e-m/fpv4-sp/hard\libg_nano.a(lib_a-init.o)
 .data          0x00000000        0x0 c:/a/gcc_arm/6/bin/../lib/gcc/arm-none-eabi/6.3.1/../../../../arm-none-eabi/lib/thumb/v7e-m/fpv4-sp/hard\libg_nano.a(lib_a-init.o)
 .bss           0x00000000        0x0 c:/a/gcc_arm/6/bin/../lib/gcc/arm-none-eabi/6.3.1/../../../../arm-none-eabi/lib/thumb/v7e-m/fpv4-sp/hard\libg_nano.a(lib_a-init.o)
 .text          0x00000000        0x0 c:/a/gcc_arm/6/bin/../lib/gcc/arm-none-eabi/6.3.1/../../../../arm-none-eabi/lib/thumb/v7e-m/fpv4-sp/hard\libg_nano.a(lib_a-malloc.o)
 .data          0x00000000        0x0 c:/a/gcc_arm/6/bin/../lib/gcc/arm-none-eabi/6.3.1/../../../../arm-none-eabi/lib/thumb/v7e-m/fpv4-sp/hard\libg_nano.a(lib_a-malloc.o)
 .bss           0x00000000        0x0 c:/a/gcc_arm/6/bin/../lib/gcc/arm-none-eabi/6.3.1/../../../../arm-none-eabi/lib/thumb/v7e-m/fpv4-sp/hard\libg_nano.a(lib_a-malloc.o)
 .text          0x00000000        0x0 c:/a/gcc_arm/6/bin/../lib/gcc/arm-none-eabi/6.3.1/../../../../arm-none-eabi/lib/thumb/v7e-m/fpv4-sp/hard\libg_nano.a(lib_a-memcmp.o)
 .data          0x00000000        0x0 c:/a/gcc_arm/6/bin/../lib/gcc/arm-none-eabi/6.3.1/../../../../arm-none-eabi/lib/thumb/v7e-m/fpv4-sp/hard\libg_nano.a(lib_a-memcmp.o)
 .bss           0x00000000        0x0 c:/a/gcc_arm/6/bin/../lib/gcc/arm-none-eabi/6.3.1/../../../../arm-none-eabi/lib/thumb/v7e-m/fpv4-sp/hard\libg_nano.a(lib_a-memcmp.o)
 .text          0x00000000        0x0 c:/a/gcc_arm/6/bin/../lib/gcc/arm-none-eabi/6.3.1/../../../../arm-none-eabi/lib/thumb/v7e-m/fpv4-sp/hard\libg_nano.a(lib_a-memcpy-stub.o)
 .data          0x00000000        0x0 c:/a/gcc_arm/6/bin/../lib/gcc/arm-none-eabi/6.3.1/../../../../arm-none-eabi/lib/thumb/v7e-m/fpv4-sp/hard\libg_nano.a(lib_a-memcpy-stub.o)
 .bss           0x00000000        0x0 c:/a/gcc_arm/6/bin/../lib/gcc/arm-none-eabi/6.3.1/../../../../arm-none-eabi/lib/thumb/v7e-m/fpv4-sp/hard\libg_nano.a(lib_a-memcpy-stub.o)
 .text          0x00000000        0x0 c:/a/gcc_arm/6/bin/../lib/gcc/arm-none-eabi/6.3.1/../../../../arm-none-eabi/lib/thumb/v7e-m/fpv4-sp/hard\libg_nano.a(lib_a-memset.o)
 .data          0x00000000        0x0 c:/a/gcc_arm/6/bin/../lib/gcc/arm-none-eabi/6.3.1/../../../../arm-none-eabi/lib/thumb/v7e-m/fpv4-sp/hard\libg_nano.a(lib_a-memset.o)
 .bss           0x00000000        0x0 c:/a/gcc_arm/6/bin/../lib/gcc/arm-none-eabi/6.3.1/../../../../arm-none-eabi/lib/thumb/v7e-m/fpv4-sp/hard\libg_nano.a(lib_a-memset.o)
 .text          0x00000000        0x0 c:/a/gcc_arm/6/bin/../lib/gcc/arm-none-eabi/6.3.1/../../../../arm-none-eabi/lib/thumb/v7e-m/fpv4-sp/hard\libg_nano.a(lib_a-nano-freer.o)
 .data          0x00000000        0x0 c:/a/gcc_arm/6/bin/../lib/gcc/arm-none-eabi/6.3.1/../../../../arm-none-eabi/lib/thumb/v7e-m/fpv4-sp/hard\libg_nano.a(lib_a-nano-freer.o)
 .bss           0x00000000        0x0 c:/a/gcc_arm/6/bin/../lib/gcc/arm-none-eabi/6.3.1/../../../../arm-none-eabi/lib/thumb/v7e-m/fpv4-sp/hard\libg_nano.a(lib_a-nano-freer.o)
 .text          0x00000000        0x0 c:/a/gcc_arm/6/bin/../lib/gcc/arm-none-eabi/6.3.1/../../../../arm-none-eabi/lib/thumb/v7e-m/fpv4-sp/hard\libg_nano.a(lib_a-nano-mallocr.o)
 .data          0x00000000        0x0 c:/a/gcc_arm/6/bin/../lib/gcc/arm-none-eabi/6.3.1/../../../../arm-none-eabi/lib/thumb/v7e-m/fpv4-sp/hard\libg_nano.a(lib_a-nano-mallocr.o)
 .bss           0x00000000        0x0 c:/a/gcc_arm/6/bin/../lib/gcc/arm-none-eabi/6.3.1/../../../../arm-none-eabi/lib/thumb/v7e-m/fpv4-sp/hard\libg_nano.a(lib_a-nano-mallocr.o)
 .text          0x00000000        0x0 c:/a/gcc_arm/6/bin/../lib/gcc/arm-none-eabi/6.3.1/../../../../arm-none-eabi/lib/thumb/v7e-m/fpv4-sp/hard\libg_nano.a(lib_a-sbrkr.o)
 .data          0x00000000        0x0 c:/a/gcc_arm/6/bin/../lib/gcc/arm-none-eabi/6.3.1/../../../../arm-none-eabi/lib/thumb/v7e-m/fpv4-sp/hard\libg_nano.a(lib_a-sbrkr.o)
 .bss           0x00000000        0x0 c:/a/gcc_arm/6/bin/../lib/gcc/arm-none-eabi/6.3.1/../../../../arm-none-eabi/lib/thumb/v7e-m/fpv4-sp/hard\libg_nano.a(lib_a-sbrkr.o)
 .text          0x00000000        0x0 c:/a/gcc_arm/6/bin/../lib/gcc/arm-none-eabi/6.3.1/../../../../arm-none-eabi/lib/thumb/v7e-m/fpv4-sp/hard\libg_nano.a(lib_a-strcpy.o)
 .data          0x00000000        0x0 c:/a/gcc_arm/6/bin/../lib/gcc/arm-none-eabi/6.3.1/../../../../arm-none-eabi/lib/thumb/v7e-m/fpv4-sp/hard\libg_nano.a(lib_a-strcpy.o)
 .bss           0x00000000        0x0 c:/a/gcc_arm/6/bin/../lib/gcc/arm-none-eabi/6.3.1/../../../../arm-none-eabi/lib/thumb/v7e-m/fpv4-sp/hard\libg_nano.a(lib_a-strcpy.o)
 .text          0x00000000       0x10 c:/a/gcc_arm/6/bin/../lib/gcc/arm-none-eabi/6.3.1/../../../../arm-none-eabi/lib/thumb/v7e-m/fpv4-sp/hard\libg_nano.a(lib_a-strlen.o)
 .data          0x00000000        0x0 c:/a/gcc_arm/6/bin/../lib/gcc/arm-none-eabi/6.3.1/../../../../arm-none-eabi/lib/thumb/v7e-m/fpv4-sp/hard\libg_nano.a(lib_a-strlen.o)
 .bss           0x00000000        0x0 c:/a/gcc_arm/6/bin/../lib/gcc/arm-none-eabi/6.3.1/../../../../arm-none-eabi/lib/thumb/v7e-m/fpv4-sp/hard\libg_nano.a(lib_a-strlen.o)
 .ARM.attributes
                0x00000000       0x1b c:/a/gcc_arm/6/bin/../lib/gcc/arm-none-eabi/6.3.1/../../../../arm-none-eabi/lib/thumb/v7e-m/fpv4-sp/hard\libg_nano.a(lib_a-strlen.o)
 .text          0x00000000        0x0 c:/a/gcc_arm/6/bin/../lib/gcc/arm-none-eabi/6.3.1/../../../../arm-none-eabi/lib/thumb/v7e-m/fpv4-sp/hard\libg_nano.a(lib_a-strrchr.o)
 .data          0x00000000        0x0 c:/a/gcc_arm/6/bin/../lib/gcc/arm-none-eabi/6.3.1/../../../../arm-none-eabi/lib/thumb/v7e-m/fpv4-sp/hard\libg_nano.a(lib_a-strrchr.o)
 .bss           0x00000000        0x0 c:/a/gcc_arm/6/bin/../lib/gcc/arm-none-eabi/6.3.1/../../../../arm-none-eabi/lib/thumb/v7e-m/fpv4-sp/hard\libg_nano.a(lib_a-strrchr.o)
 .text          0x00000000        0x0 c:/a/gcc_arm/6/bin/../lib/gcc/arm-none-eabi/6.3.1/../../../../arm-none-eabi/lib/thumb/v7e-m/fpv4-sp/hard\libg_nano.a(lib_a-mlock.o)
 .data          0x00000000        0x0 c:/a/gcc_arm/6/bin/../lib/gcc/arm-none-eabi/6.3.1/../../../../arm-none-eabi/lib/thumb/v7e-m/fpv4-sp/hard\libg_nano.a(lib_a-mlock.o)
 .bss           0x00000000        0x0 c:/a/gcc_arm/6/bin/../lib/gcc/arm-none-eabi/6.3.1/../../../../arm-none-eabi/lib/thumb/v7e-m/fpv4-sp/hard\libg_nano.a(lib_a-mlock.o)
 .text          0x00000000        0x0 c:/a/gcc_arm/6/bin/../lib/gcc/arm-none-eabi/6.3.1/../../../../arm-none-eabi/lib/thumb/v7e-m/fpv4-sp/hard\libg_nano.a(lib_a-reent.o)
 .data          0x00000000        0x0 c:/a/gcc_arm/6/bin/../lib/gcc/arm-none-eabi/6.3.1/../../../../arm-none-eabi/lib/thumb/v7e-m/fpv4-sp/hard\libg_nano.a(lib_a-reent.o)
 .bss           0x00000000        0x0 c:/a/gcc_arm/6/bin/../lib/gcc/arm-none-eabi/6.3.1/../../../../arm-none-eabi/lib/thumb/v7e-m/fpv4-sp/hard\libg_nano.a(lib_a-reent.o)
 .text.cleanup_glue
                0x00000000       0x1a c:/a/gcc_arm/6/bin/../lib/gcc/arm-none-eabi/6.3.1/../../../../arm-none-eabi/lib/thumb/v7e-m/fpv4-sp/hard\libg_nano.a(lib_a-reent.o)
 .text._reclaim_reent
                0x00000000       0xb8 c:/a/gcc_arm/6/bin/../lib/gcc/arm-none-eabi/6.3.1/../../../../arm-none-eabi/lib/thumb/v7e-m/fpv4-sp/hard\libg_nano.a(lib_a-reent.o)
 .text          0x00000000        0x0 c:/a/gcc_arm/6/bin/../lib/gcc/arm-none-eabi/6.3.1/../../../../arm-none-eabi/lib/thumb/v7e-m/fpv4-sp/hard\libg_nano.a(lib_a-strchr.o)
 .data          0x00000000        0x0 c:/a/gcc_arm/6/bin/../lib/gcc/arm-none-eabi/6.3.1/../../../../arm-none-eabi/lib/thumb/v7e-m/fpv4-sp/hard\libg_nano.a(lib_a-strchr.o)
 .bss           0x00000000        0x0 c:/a/gcc_arm/6/bin/../lib/gcc/arm-none-eabi/6.3.1/../../../../arm-none-eabi/lib/thumb/v7e-m/fpv4-sp/hard\libg_nano.a(lib_a-strchr.o)
 .text          0x00000000        0x0 c:/a/gcc_arm/6/bin/../lib/gcc/arm-none-eabi/6.3.1/thumb/v7e-m/fpv4-sp/hard/crtend.o
 .data          0x00000000        0x0 c:/a/gcc_arm/6/bin/../lib/gcc/arm-none-eabi/6.3.1/thumb/v7e-m/fpv4-sp/hard/crtend.o
 .bss           0x00000000        0x0 c:/a/gcc_arm/6/bin/../lib/gcc/arm-none-eabi/6.3.1/thumb/v7e-m/fpv4-sp/hard/crtend.o
 .text          0x00000000        0x0 c:/a/gcc_arm/6/bin/../lib/gcc/arm-none-eabi/6.3.1/thumb/v7e-m/fpv4-sp/hard/crtn.o
 .data          0x00000000        0x0 c:/a/gcc_arm/6/bin/../lib/gcc/arm-none-eabi/6.3.1/thumb/v7e-m/fpv4-sp/hard/crtn.o
 .bss           0x00000000        0x0 c:/a/gcc_arm/6/bin/../lib/gcc/arm-none-eabi/6.3.1/thumb/v7e-m/fpv4-sp/hard/crtn.o
 .text          0x00000000        0x0 c:/a/gcc_arm/6/bin/../lib/gcc/arm-none-eabi/6.3.1/../../../../arm-none-eabi/lib/thumb/v7e-m/fpv4-sp/hard\libnosys.a(sbrk.o)
 .data          0x00000000        0x0 c:/a/gcc_arm/6/bin/../lib/gcc/arm-none-eabi/6.3.1/../../../../arm-none-eabi/lib/thumb/v7e-m/fpv4-sp/hard\libnosys.a(sbrk.o)
 .bss           0x00000000        0x0 c:/a/gcc_arm/6/bin/../lib/gcc/arm-none-eabi/6.3.1/../../../../arm-none-eabi/lib/thumb/v7e-m/fpv4-sp/hard\libnosys.a(sbrk.o)
 .text          0x00000000        0x0 c:/a/gcc_arm/6/bin/../lib/gcc/arm-none-eabi/6.3.1/../../../../arm-none-eabi/lib/thumb/v7e-m/fpv4-sp/hard\libnosys.a(_exit.o)
 .data          0x00000000        0x0 c:/a/gcc_arm/6/bin/../lib/gcc/arm-none-eabi/6.3.1/../../../../arm-none-eabi/lib/thumb/v7e-m/fpv4-sp/hard\libnosys.a(_exit.o)
 .bss           0x00000000        0x0 c:/a/gcc_arm/6/bin/../lib/gcc/arm-none-eabi/6.3.1/../../../../arm-none-eabi/lib/thumb/v7e-m/fpv4-sp/hard\libnosys.a(_exit.o)

Memory Configuration

Name             Origin             Length             Attributes
FLASH            0x00024000         0x000d4000         xr
RAM              0x200031b8         0x0003cb48         xrw
*default*        0x00000000         0xffffffff

Linker script and memory map


.text           0x00024000     0xc1c0
 *(.isr_vector)
 .isr_vector    0x00024000      0x200 examples/dfu/CMakeFiles/dfu_no_serial_nrf52840_xxAA_s140_5.0.0-3.alpha.dir/__/__/external/nRF5_SDK_14.2.0_17b948a/components/toolchain/gcc/gcc_startup_nrf52840.S.obj
                0x00024000                __isr_vector
 *(.text*)
 .text          0x00024200       0x6c c:/a/gcc_arm/6/bin/../lib/gcc/arm-none-eabi/6.3.1/thumb/v7e-m/fpv4-sp/hard/crtbegin.o
 .text          0x0002426c       0x74 c:/a/gcc_arm/6/bin/../lib/gcc/arm-none-eabi/6.3.1/../../../../arm-none-eabi/lib/thumb/v7e-m/fpv4-sp/hard/crt0.o
                0x0002426c                _start
                0x0002426c                _mainCRTStartup
 .text.sd_app_evt_wait
                0x000242e0        0x4 examples/dfu/CMakeFiles/dfu_no_serial_nrf52840_xxAA_s140_5.0.0-3.alpha.dir/src/main.c.obj
 .text.mesh_evt_handler
                0x000242e4       0xd8 examples/dfu/CMakeFiles/dfu_no_serial_nrf52840_xxAA_s140_5.0.0-3.alpha.dir/src/main.c.obj
 .text.startup.main
                0x000243bc      0x294 examples/dfu/CMakeFiles/dfu_no_serial_nrf52840_xxAA_s140_5.0.0-3.alpha.dir/src/main.c.obj
                0x000243bc                main
 .text.sd_evt_get
                0x00024650        0x4 examples/dfu/CMakeFiles/dfu_no_serial_nrf52840_xxAA_s140_5.0.0-3.alpha.dir/__/nrf_mesh_sdk.c.obj
 .text.sd_softdevice_enable
                0x00024654        0x4 examples/dfu/CMakeFiles/dfu_no_serial_nrf52840_xxAA_s140_5.0.0-3.alpha.dir/__/nrf_mesh_sdk.c.obj
 .text.sd_ble_enable
                0x00024658        0x4 examples/dfu/CMakeFiles/dfu_no_serial_nrf52840_xxAA_s140_5.0.0-3.alpha.dir/__/nrf_mesh_sdk.c.obj
 .text.sd_ble_evt_get
                0x0002465c        0x4 examples/dfu/CMakeFiles/dfu_no_serial_nrf52840_xxAA_s140_5.0.0-3.alpha.dir/__/nrf_mesh_sdk.c.obj
 .text.sleep_forever
                0x00024660       0x1c examples/dfu/CMakeFiles/dfu_no_serial_nrf52840_xxAA_s140_5.0.0-3.alpha.dir/__/nrf_mesh_sdk.c.obj
 .text.mesh_assert_handler
                0x0002467c       0x70 examples/dfu/CMakeFiles/dfu_no_serial_nrf52840_xxAA_s140_5.0.0-3.alpha.dir/__/nrf_mesh_sdk.c.obj
                0x0002467c                mesh_assert_handler
 .text.softdevice_assert_handler
                0x000246ec       0x78 examples/dfu/CMakeFiles/dfu_no_serial_nrf52840_xxAA_s140_5.0.0-3.alpha.dir/__/nrf_mesh_sdk.c.obj
                0x000246ec                softdevice_assert_handler
 .text.app_error_handler
                0x00024764       0x78 examples/dfu/CMakeFiles/dfu_no_serial_nrf52840_xxAA_s140_5.0.0-3.alpha.dir/__/nrf_mesh_sdk.c.obj
                0x00024764                app_error_handler
 .text.HardFault_Handler
                0x000247dc       0x6c examples/dfu/CMakeFiles/dfu_no_serial_nrf52840_xxAA_s140_5.0.0-3.alpha.dir/__/nrf_mesh_sdk.c.obj
                0x000247dc                HardFault_Handler
 .text.SWI2_EGU2_IRQHandler
                0x00024848       0x3c examples/dfu/CMakeFiles/dfu_no_serial_nrf52840_xxAA_s140_5.0.0-3.alpha.dir/__/nrf_mesh_sdk.c.obj
                0x00024848                SWI2_EGU2_IRQHandler
 .text.mesh_softdevice_enable
                0x00024884      0x124 examples/dfu/CMakeFiles/dfu_no_serial_nrf52840_xxAA_s140_5.0.0-3.alpha.dir/__/nrf_mesh_sdk.c.obj
                0x00024884                mesh_softdevice_enable
 .text.mesh_softdevice_setup
                0x000249a8       0x78 examples/dfu/CMakeFiles/dfu_no_serial_nrf52840_xxAA_s140_5.0.0-3.alpha.dir/__/nrf_mesh_sdk.c.obj
                0x000249a8                mesh_softdevice_setup
 .text.mesh_core_setup
                0x00024a20      0x15c examples/dfu/CMakeFiles/dfu_no_serial_nrf52840_xxAA_s140_5.0.0-3.alpha.dir/__/nrf_mesh_sdk.c.obj
                0x00024a20                mesh_core_setup
 .text.bitfield_get
                0x00024b7c       0x1a examples/dfu/CMakeFiles/dfu_no_serial_nrf52840_xxAA_s140_5.0.0-3.alpha.dir/__/__/mesh/access/src/device_state_manager.c.obj
 *fill*         0x00024b96        0x2 
 .text.get_subnet_handle
                0x00024b98       0x4c examples/dfu/CMakeFiles/dfu_no_serial_nrf52840_xxAA_s140_5.0.0-3.alpha.dir/__/__/mesh/access/src/device_state_manager.c.obj
 .text.virtual_address_uuid_index_get
                0x00024be4       0x60 examples/dfu/CMakeFiles/dfu_no_serial_nrf52840_xxAA_s140_5.0.0-3.alpha.dir/__/__/mesh/access/src/device_state_manager.c.obj
 .text.get_subnet_handle_by_beacon_info
                0x00024c44       0x3c examples/dfu/CMakeFiles/dfu_no_serial_nrf52840_xxAA_s140_5.0.0-3.alpha.dir/__/__/mesh/access/src/device_state_manager.c.obj
 .text.get_app_handle
                0x00024c80       0x48 examples/dfu/CMakeFiles/dfu_no_serial_nrf52840_xxAA_s140_5.0.0-3.alpha.dir/__/__/mesh/access/src/device_state_manager.c.obj
 .text.nrf_mesh_net_secmat_next_get
                0x00024cc8       0xc8 examples/dfu/CMakeFiles/dfu_no_serial_nrf52840_xxAA_s140_5.0.0-3.alpha.dir/__/__/mesh/access/src/device_state_manager.c.obj
                0x00024cc8                nrf_mesh_net_secmat_next_get
 .text.nrf_mesh_app_secmat_next_get
                0x00024d90       0x9c examples/dfu/CMakeFiles/dfu_no_serial_nrf52840_xxAA_s140_5.0.0-3.alpha.dir/__/__/mesh/access/src/device_state_manager.c.obj
                0x00024d90                nrf_mesh_app_secmat_next_get
 .text.nrf_mesh_devkey_secmat_get
                0x00024e2c       0x34 examples/dfu/CMakeFiles/dfu_no_serial_nrf52840_xxAA_s140_5.0.0-3.alpha.dir/__/__/mesh/access/src/device_state_manager.c.obj
                0x00024e2c                nrf_mesh_devkey_secmat_get
 .text.nrf_mesh_beacon_info_next_get
                0x00024e60       0xe8 examples/dfu/CMakeFiles/dfu_no_serial_nrf52840_xxAA_s140_5.0.0-3.alpha.dir/__/__/mesh/access/src/device_state_manager.c.obj
                0x00024e60                nrf_mesh_beacon_info_next_get
 .text.nrf_mesh_rx_address_get
                0x00024f48      0x118 examples/dfu/CMakeFiles/dfu_no_serial_nrf52840_xxAA_s140_5.0.0-3.alpha.dir/__/__/mesh/access/src/device_state_manager.c.obj
                0x00024f48                nrf_mesh_rx_address_get
 .text.prov_beacon_unprov_packet_in
                0x00025060       0x9c examples/dfu/CMakeFiles/dfu_no_serial_nrf52840_xxAA_s140_5.0.0-3.alpha.dir/__/__/mesh/prov/src/prov_beacon.c.obj
                0x00025060                prov_beacon_unprov_packet_in
 .text.prov_utils_opt_get
                0x000250fc       0x1c examples/dfu/CMakeFiles/dfu_no_serial_nrf52840_xxAA_s140_5.0.0-3.alpha.dir/__/__/mesh/prov/src/prov_utils.c.obj
                0x000250fc                prov_utils_opt_get
 .text.remove_active_bearer
                0x00025118       0x60 examples/dfu/CMakeFiles/dfu_no_serial_nrf52840_xxAA_s140_5.0.0-3.alpha.dir/__/__/mesh/prov/src/prov_bearer_adv.c.obj
 .text.close_link
                0x00025178       0x6c examples/dfu/CMakeFiles/dfu_no_serial_nrf52840_xxAA_s140_5.0.0-3.alpha.dir/__/__/mesh/prov/src/prov_bearer_adv.c.obj
 .text.send_packet
                0x000251e4       0x6c examples/dfu/CMakeFiles/dfu_no_serial_nrf52840_xxAA_s140_5.0.0-3.alpha.dir/__/__/mesh/prov/src/prov_bearer_adv.c.obj
 .text.send_link_close
                0x00025250       0x38 examples/dfu/CMakeFiles/dfu_no_serial_nrf52840_xxAA_s140_5.0.0-3.alpha.dir/__/__/mesh/prov/src/prov_bearer_adv.c.obj
 .text.prov_bearer_adv_link_close
                0x00025288       0x74 examples/dfu/CMakeFiles/dfu_no_serial_nrf52840_xxAA_s140_5.0.0-3.alpha.dir/__/__/mesh/prov/src/prov_bearer_adv.c.obj
 .text.send_transaction_ack
                0x000252fc       0x24 examples/dfu/CMakeFiles/dfu_no_serial_nrf52840_xxAA_s140_5.0.0-3.alpha.dir/__/__/mesh/prov/src/prov_bearer_adv.c.obj
 .text.send_link_ack
                0x00025320       0x32 examples/dfu/CMakeFiles/dfu_no_serial_nrf52840_xxAA_s140_5.0.0-3.alpha.dir/__/__/mesh/prov/src/prov_bearer_adv.c.obj
 .text.reset_timeout_timer
                0x00025352       0x1a examples/dfu/CMakeFiles/dfu_no_serial_nrf52840_xxAA_s140_5.0.0-3.alpha.dir/__/__/mesh/prov/src/prov_bearer_adv.c.obj
 .text.calculate_3GPP_CRC
                0x0002536c       0x24 examples/dfu/CMakeFiles/dfu_no_serial_nrf52840_xxAA_s140_5.0.0-3.alpha.dir/__/__/mesh/prov/src/prov_bearer_adv.c.obj
                0x0002536c                calculate_3GPP_CRC
 .text.prov_buffer_rx
                0x00025390       0x7c examples/dfu/CMakeFiles/dfu_no_serial_nrf52840_xxAA_s140_5.0.0-3.alpha.dir/__/__/mesh/prov/src/prov_bearer_adv.c.obj
 .text.prov_bearer_adv_packet_in
                0x0002540c      0x80c examples/dfu/CMakeFiles/dfu_no_serial_nrf52840_xxAA_s140_5.0.0-3.alpha.dir/__/__/mesh/prov/src/prov_bearer_adv.c.obj
                0x0002540c                prov_bearer_adv_packet_in
 .text.tx_complete_cb
                0x00025c18        0x2 examples/dfu/CMakeFiles/dfu_no_serial_nrf52840_xxAA_s140_5.0.0-3.alpha.dir/__/__/mesh/dfu/src/nrf_mesh_dfu.c.obj
 *fill*         0x00025c1a        0x2 
 .text.reset_transfer_state
                0x00025c1c       0x24 examples/dfu/CMakeFiles/dfu_no_serial_nrf52840_xxAA_s140_5.0.0-3.alpha.dir/__/__/mesh/dfu/src/nrf_mesh_dfu.c.obj
 .text.end_transfer
                0x00025c40       0x48 examples/dfu/CMakeFiles/dfu_no_serial_nrf52840_xxAA_s140_5.0.0-3.alpha.dir/__/__/mesh/dfu/src/nrf_mesh_dfu.c.obj
 .text.dfu_evt_handler
                0x00025c88      0x828 examples/dfu/CMakeFiles/dfu_no_serial_nrf52840_xxAA_s140_5.0.0-3.alpha.dir/__/__/mesh/dfu/src/nrf_mesh_dfu.c.obj
 .text.next_tx_timeout
                0x000264b0       0x64 examples/dfu/CMakeFiles/dfu_no_serial_nrf52840_xxAA_s140_5.0.0-3.alpha.dir/__/__/mesh/dfu/src/nrf_mesh_dfu.c.obj
 .text.tx_timeout
                0x00026514      0x108 examples/dfu/CMakeFiles/dfu_no_serial_nrf52840_xxAA_s140_5.0.0-3.alpha.dir/__/__/mesh/dfu/src/nrf_mesh_dfu.c.obj
 .text.nrf_mesh_dfu_cmd_send
                0x0002661c       0x90 examples/dfu/CMakeFiles/dfu_no_serial_nrf52840_xxAA_s140_5.0.0-3.alpha.dir/__/__/mesh/dfu/src/nrf_mesh_dfu.c.obj
                0x0002661c                nrf_mesh_dfu_cmd_send
 .text.nrf_mesh_dfu_init
                0x000266ac      0x158 examples/dfu/CMakeFiles/dfu_no_serial_nrf52840_xxAA_s140_5.0.0-3.alpha.dir/__/__/mesh/dfu/src/nrf_mesh_dfu.c.obj
                0x000266ac                nrf_mesh_dfu_init
 .text.flash_op_complete
                0x00026804      0x160 examples/dfu/CMakeFiles/dfu_no_serial_nrf52840_xxAA_s140_5.0.0-3.alpha.dir/__/__/mesh/dfu/src/nrf_mesh_dfu.c.obj
 .text.abort_timeout
                0x00026964       0x80 examples/dfu/CMakeFiles/dfu_no_serial_nrf52840_xxAA_s140_5.0.0-3.alpha.dir/__/__/mesh/dfu/src/nrf_mesh_dfu.c.obj
 .text.timer_timeout
                0x000269e4       0x7c examples/dfu/CMakeFiles/dfu_no_serial_nrf52840_xxAA_s140_5.0.0-3.alpha.dir/__/__/mesh/dfu/src/nrf_mesh_dfu.c.obj
 .text.nrf_mesh_dfu_rx
                0x00026a60       0xc8 examples/dfu/CMakeFiles/dfu_no_serial_nrf52840_xxAA_s140_5.0.0-3.alpha.dir/__/__/mesh/dfu/src/nrf_mesh_dfu.c.obj
                0x00026a60                nrf_mesh_dfu_rx
 .text.nrf_mesh_dfu_request
                0x00026b28       0x98 examples/dfu/CMakeFiles/dfu_no_serial_nrf52840_xxAA_s140_5.0.0-3.alpha.dir/__/__/mesh/dfu/src/nrf_mesh_dfu.c.obj
                0x00026b28                nrf_mesh_dfu_request
 .text.nrf_mesh_dfu_relay
                0x00026bc0       0x68 examples/dfu/CMakeFiles/dfu_no_serial_nrf52840_xxAA_s140_5.0.0-3.alpha.dir/__/__/mesh/dfu/src/nrf_mesh_dfu.c.obj
                0x00026bc0                nrf_mesh_dfu_relay
 .text.nrf_mesh_dfu_bank_flash
                0x00026c28       0x28 examples/dfu/CMakeFiles/dfu_no_serial_nrf52840_xxAA_s140_5.0.0-3.alpha.dir/__/__/mesh/dfu/src/nrf_mesh_dfu.c.obj
                0x00026c28                nrf_mesh_dfu_bank_flash
 .text.errata_136
                0x00026c50       0x20 examples/dfu/CMakeFiles/dfu_no_serial_nrf52840_xxAA_s140_5.0.0-3.alpha.dir/__/__/external/nRF5_SDK_14.2.0_17b948a/components/toolchain/system_nrf52840.c.obj
 .text.SystemInit
                0x00026c70      0x1d0 examples/dfu/CMakeFiles/dfu_no_serial_nrf52840_xxAA_s140_5.0.0-3.alpha.dir/__/__/external/nRF5_SDK_14.2.0_17b948a/components/toolchain/system_nrf52840.c.obj
                0x00026c70                SystemInit
 .text          0x00026e40       0x3c examples/dfu/CMakeFiles/dfu_no_serial_nrf52840_xxAA_s140_5.0.0-3.alpha.dir/__/__/external/nRF5_SDK_14.2.0_17b948a/components/toolchain/gcc/gcc_startup_nrf52840.S.obj
                0x00026e40                Reset_Handler
                0x00026e68                NMI_Handler
                0x00026e6c                MemoryManagement_Handler
                0x00026e6e                BusFault_Handler
                0x00026e70                UsageFault_Handler
                0x00026e72                SVC_Handler
                0x00026e74                DebugMon_Handler
                0x00026e76                PendSV_Handler
                0x00026e78                SysTick_Handler
                0x00026e7a                POWER_CLOCK_IRQHandler
                0x00026e7a                RADIO_IRQHandler
                0x00026e7a                PDM_IRQHandler
                0x00026e7a                TEMP_IRQHandler
                0x00026e7a                RTC0_IRQHandler
                0x00026e7a                PWM3_IRQHandler
                0x00026e7a                FPU_IRQHandler
                0x00026e7a                USBD_IRQHandler
                0x00026e7a                SPIM0_SPIS0_TWIM0_TWIS0_SPI0_TWI0_IRQHandler
                0x00026e7a                GPIOTE_IRQHandler
                0x00026e7a                UARTE0_UART0_IRQHandler
                0x00026e7a                TIMER3_IRQHandler
                0x00026e7a                CRYPTOCELL_IRQHandler
                0x00026e7a                I2S_IRQHandler
                0x00026e7a                SWI4_EGU4_IRQHandler
                0x00026e7a                PWM1_IRQHandler
                0x00026e7a                TIMER2_IRQHandler
                0x00026e7a                UARTE1_IRQHandler
                0x00026e7a                TIMER1_IRQHandler
                0x00026e7a                SPIM3_IRQHandler
                0x00026e7a                PWM2_IRQHandler
                0x00026e7a                ECB_IRQHandler
                0x00026e7a                SPIM1_SPIS1_TWIM1_TWIS1_SPI1_TWI1_IRQHandler
                0x00026e7a                Default_Handler
                0x00026e7a                SAADC_IRQHandler
                0x00026e7a                CCM_AAR_IRQHandler
                0x00026e7a                WDT_IRQHandler
                0x00026e7a                TIMER4_IRQHandler
                0x00026e7a                SWI5_EGU5_IRQHandler
                0x00026e7a                RNG_IRQHandler
                0x00026e7a                RTC2_IRQHandler
                0x00026e7a                PWM0_IRQHandler
                0x00026e7a                SWI3_EGU3_IRQHandler
                0x00026e7a                RTC1_IRQHandler
                0x00026e7a                SWI1_EGU1_IRQHandler
                0x00026e7a                SPIM2_SPIS2_SPI2_IRQHandler
                0x00026e7a                NFCT_IRQHandler
                0x00026e7a                SWI0_EGU0_IRQHandler
                0x00026e7a                MWU_IRQHandler
                0x00026e7a                TIMER0_IRQHandler
                0x00026e7a                QSPI_IRQHandler
                0x00026e7a                COMP_LPCOMP_IRQHandler
 .text.nrf_mesh_configure_device_uuid_reset
                0x00026e7c       0x28 mesh/core/libmesh_core_nrf52840_xxAA.a(nrf_mesh_configure.c.obj)
                0x00026e7c                nrf_mesh_configure_device_uuid_reset
 .text.nrf_mesh_configure_device_uuid_get
                0x00026ea4        0x8 mesh/core/libmesh_core_nrf52840_xxAA.a(nrf_mesh_configure.c.obj)
                0x00026ea4                nrf_mesh_configure_device_uuid_get
 .text.event_handle
                0x00026eac       0x30 mesh/core/libmesh_core_nrf52840_xxAA.a(event.c.obj)
                0x00026eac                event_handle
 .text.event_handler_add
                0x00026edc       0x28 mesh/core/libmesh_core_nrf52840_xxAA.a(event.c.obj)
                0x00026edc                event_handler_add
 .text.event_handler_remove
                0x00026f04       0x28 mesh/core/libmesh_core_nrf52840_xxAA.a(event.c.obj)
                0x00026f04                event_handler_remove
 .text.flash_mem_available
                0x00026f2c       0x20 mesh/core/libmesh_core_nrf52840_xxAA.a(net_state.c.obj)
 .text.flash_store_iv_index
                0x00026f4c       0x38 mesh/core/libmesh_core_nrf52840_xxAA.a(net_state.c.obj)
 .text.seqnum_block_allocate
                0x00026f84       0x48 mesh/core/libmesh_core_nrf52840_xxAA.a(net_state.c.obj)
 .text.flash_write_complete
                0x00026fcc       0x78 mesh/core/libmesh_core_nrf52840_xxAA.a(net_state.c.obj)
 .text.net_state_recover_from_flash
                0x00027044       0x8c mesh/core/libmesh_core_nrf52840_xxAA.a(net_state.c.obj)
                0x00027044                net_state_recover_from_flash
 .text.net_state_flash_area_get
                0x000270d0        0xc mesh/core/libmesh_core_nrf52840_xxAA.a(net_state.c.obj)
                0x000270d0                net_state_flash_area_get
 .text.init_flash_storage
                0x000270dc       0x40 mesh/core/libmesh_core_nrf52840_xxAA.a(net_state.c.obj)
 .text.net_state_init
                0x0002711c       0x48 mesh/core/libmesh_core_nrf52840_xxAA.a(net_state.c.obj)
                0x0002711c                net_state_init
 .text.net_state_iv_update_start
                0x00027164       0x64 mesh/core/libmesh_core_nrf52840_xxAA.a(net_state.c.obj)
                0x00027164                net_state_iv_update_start
 .text.iv_update_trigger_if_pending
                0x000271c8       0x8c mesh/core/libmesh_core_nrf52840_xxAA.a(net_state.c.obj)
 .text.iv_update_timer_handler
                0x00027254       0x74 mesh/core/libmesh_core_nrf52840_xxAA.a(net_state.c.obj)
 .text.net_state_seqnum_alloc
                0x000272c8       0x68 mesh/core/libmesh_core_nrf52840_xxAA.a(net_state.c.obj)
                0x000272c8                net_state_seqnum_alloc
 .text.net_state_iv_index_lock
                0x00027330       0x48 mesh/core/libmesh_core_nrf52840_xxAA.a(net_state.c.obj)
                0x00027330                net_state_iv_index_lock
 .text.net_state_beacon_received
                0x00027378       0x94 mesh/core/libmesh_core_nrf52840_xxAA.a(net_state.c.obj)
                0x00027378                net_state_beacon_received
 .text.net_state_beacon_iv_index_get
                0x0002740c        0xc mesh/core/libmesh_core_nrf52840_xxAA.a(net_state.c.obj)
                0x0002740c                net_state_beacon_iv_index_get
 .text.net_state_tx_iv_index_get
                0x00027418       0x14 mesh/core/libmesh_core_nrf52840_xxAA.a(net_state.c.obj)
                0x00027418                net_state_tx_iv_index_get
 .text.net_state_rx_iv_index_get
                0x0002742c       0x18 mesh/core/libmesh_core_nrf52840_xxAA.a(net_state.c.obj)
                0x0002742c                net_state_rx_iv_index_get
 .text.net_state_iv_update_get
                0x00027444        0xc mesh/core/libmesh_core_nrf52840_xxAA.a(net_state.c.obj)
                0x00027444                net_state_iv_update_get
 .text.send_end_events
                0x00027450       0x84 mesh/core/libmesh_core_nrf52840_xxAA.a(mesh_flash.c.obj)
 .text.flash_op_schedule
                0x000274d4       0x9c mesh/core/libmesh_core_nrf52840_xxAA.a(mesh_flash.c.obj)
 .text.flash_op_start
                0x00027570      0x170 mesh/core/libmesh_core_nrf52840_xxAA.a(mesh_flash.c.obj)
 .text.mesh_flash_init
                0x000276e0       0x88 mesh/core/libmesh_core_nrf52840_xxAA.a(mesh_flash.c.obj)
                0x000276e0                mesh_flash_init
 .text.mesh_flash_user_callback_set
                0x00027768       0x2c mesh/core/libmesh_core_nrf52840_xxAA.a(mesh_flash.c.obj)
                0x00027768                mesh_flash_user_callback_set
 .text.mesh_flash_op_push
                0x00027794      0x128 mesh/core/libmesh_core_nrf52840_xxAA.a(mesh_flash.c.obj)
                0x00027794                mesh_flash_op_push
 .text.mesh_flash_in_progress
                0x000278bc       0x34 mesh/core/libmesh_core_nrf52840_xxAA.a(mesh_flash.c.obj)
                0x000278bc                mesh_flash_in_progress
 .text.mesh_flash_set_suspended
                0x000278f0       0x80 mesh/core/libmesh_core_nrf52840_xxAA.a(mesh_flash.c.obj)
                0x000278f0                mesh_flash_set_suspended
 .text.nrf_mesh_address_type_get
                0x00027970       0x10 mesh/core/libmesh_core_nrf52840_xxAA.a(nrf_mesh_utils.c.obj)
                0x00027970                nrf_mesh_address_type_get
 .text.sd_softdevice_is_enabled
                0x00027980        0x4 mesh/core/libmesh_core_nrf52840_xxAA.a(nrf_mesh.c.obj)
 .text.nrf_mesh_listen
                0x00027984      0x138 mesh/core/libmesh_core_nrf52840_xxAA.a(nrf_mesh.c.obj)
 .text.scanner_packet_process_cb
                0x00027abc       0x8c mesh/core/libmesh_core_nrf52840_xxAA.a(nrf_mesh.c.obj)
 .text.nrf_mesh_init
                0x00027b48       0xd8 mesh/core/libmesh_core_nrf52840_xxAA.a(nrf_mesh.c.obj)
                0x00027b48                nrf_mesh_init
 .text.nrf_mesh_enable
                0x00027c20       0x48 mesh/core/libmesh_core_nrf52840_xxAA.a(nrf_mesh.c.obj)
                0x00027c20                nrf_mesh_enable
 .text.nrf_mesh_on_ble_evt
                0x00027c68        0x4 mesh/core/libmesh_core_nrf52840_xxAA.a(nrf_mesh.c.obj)
                0x00027c68                nrf_mesh_on_ble_evt
 .text.nrf_mesh_on_sd_evt
                0x00027c6c        0xa mesh/core/libmesh_core_nrf52840_xxAA.a(nrf_mesh.c.obj)
                0x00027c6c                nrf_mesh_on_sd_evt
 .text.nrf_mesh_evt_handler_add
                0x00027c76        0x4 mesh/core/libmesh_core_nrf52840_xxAA.a(nrf_mesh.c.obj)
                0x00027c76                nrf_mesh_evt_handler_add
 *fill*         0x00027c7a        0x2 
 .text.hal_lfclk_ppm_get
                0x00027c7c       0x14 mesh/core/libmesh_core_nrf52840_xxAA.a(hal.c.obj)
                0x00027c7c                hal_lfclk_ppm_get
 .text.add_to_add_list
                0x00027c90       0x44 mesh/core/libmesh_core_nrf52840_xxAA.a(timer_scheduler.c.obj)
 .text.process_dirty_events
                0x00027cd4       0x6c mesh/core/libmesh_core_nrf52840_xxAA.a(timer_scheduler.c.obj)
 .text.timer_cb
                0x00027d40        0xc mesh/core/libmesh_core_nrf52840_xxAA.a(timer_scheduler.c.obj)
 .text.add_evt.constprop.0
                0x00027d4c       0x68 mesh/core/libmesh_core_nrf52840_xxAA.a(timer_scheduler.c.obj)
 .text.process_add_list
                0x00027db4       0x48 mesh/core/libmesh_core_nrf52840_xxAA.a(timer_scheduler.c.obj)
 .text.flag_event_cb
                0x00027dfc      0x100 mesh/core/libmesh_core_nrf52840_xxAA.a(timer_scheduler.c.obj)
 .text.timer_sch_init
                0x00027efc       0x24 mesh/core/libmesh_core_nrf52840_xxAA.a(timer_scheduler.c.obj)
                0x00027efc                timer_sch_init
 .text.timer_sch_schedule
                0x00027f20       0x50 mesh/core/libmesh_core_nrf52840_xxAA.a(timer_scheduler.c.obj)
                0x00027f20                timer_sch_schedule
 .text.timer_sch_abort
                0x00027f70       0x64 mesh/core/libmesh_core_nrf52840_xxAA.a(timer_scheduler.c.obj)
                0x00027f70                timer_sch_abort
 .text.timer_sch_reschedule
                0x00027fd4       0x70 mesh/core/libmesh_core_nrf52840_xxAA.a(timer_scheduler.c.obj)
                0x00027fd4                timer_sch_reschedule
 .text.timer_mut_unlock
                0x00028044       0x10 mesh/core/libmesh_core_nrf52840_xxAA.a(timer.c.obj)
 .text.timer_order_cb
                0x00028054       0x94 mesh/core/libmesh_core_nrf52840_xxAA.a(timer.c.obj)
                0x00028054                timer_order_cb
 .text.timer_now
                0x000280e8       0x48 mesh/core/libmesh_core_nrf52840_xxAA.a(timer.c.obj)
                0x000280e8                timer_now
 .text.timer_event_handler
                0x00028130       0x98 mesh/core/libmesh_core_nrf52840_xxAA.a(timer.c.obj)
                0x00028130                timer_event_handler
 .text.timer_on_ts_begin
                0x000281c8       0xfc mesh/core/libmesh_core_nrf52840_xxAA.a(timer.c.obj)
                0x000281c8                timer_on_ts_begin
 .text.timer_on_ts_end
                0x000282c4       0x60 mesh/core/libmesh_core_nrf52840_xxAA.a(timer.c.obj)
                0x000282c4                timer_on_ts_end
 .text.timer_cb
                0x00028324       0x10 mesh/core/libmesh_core_nrf52840_xxAA.a(ticker.c.obj)
 .text.ticker_init
                0x00028334       0x3c mesh/core/libmesh_core_nrf52840_xxAA.a(ticker.c.obj)
                0x00028334                ticker_init
 .text.sd_rand_application_bytes_available_get
                0x00028370        0x4 mesh/core/libmesh_core_nrf52840_xxAA.a(rand.c.obj)
 .text.sd_rand_application_vector_get
                0x00028374        0x4 mesh/core/libmesh_core_nrf52840_xxAA.a(rand.c.obj)
 .text.rand_prng_get
                0x00028378       0x22 mesh/core/libmesh_core_nrf52840_xxAA.a(rand.c.obj)
                0x00028378                rand_prng_get
 *fill*         0x0002839a        0x2 
 .text.rand_hw_rng_get
                0x0002839c       0x50 mesh/core/libmesh_core_nrf52840_xxAA.a(rand.c.obj)
                0x0002839c                rand_hw_rng_get
 .text.rand_prng_seed
                0x000283ec       0x34 mesh/core/libmesh_core_nrf52840_xxAA.a(rand.c.obj)
                0x000283ec                rand_prng_seed
 .text.sd_radio_session_open
                0x00028420        0x4 mesh/core/libmesh_core_nrf52840_xxAA.a(timeslot.c.obj)
 .text.sd_radio_session_close
                0x00028424        0x4 mesh/core/libmesh_core_nrf52840_xxAA.a(timeslot.c.obj)
 .text.sd_radio_request
                0x00028428        0x4 mesh/core/libmesh_core_nrf52840_xxAA.a(timeslot.c.obj)
 .text.end_timer_handler
                0x0002842c       0x24 mesh/core/libmesh_core_nrf52840_xxAA.a(timeslot.c.obj)
 .text.get_end_time.constprop.10
                0x00028450       0x28 mesh/core/libmesh_core_nrf52840_xxAA.a(timeslot.c.obj)
 .text.handle_extend_end.constprop.3
                0x00028478       0xc0 mesh/core/libmesh_core_nrf52840_xxAA.a(timeslot.c.obj)
 .text.radio_signal_callback
                0x00028538      0x14c mesh/core/libmesh_core_nrf52840_xxAA.a(timeslot.c.obj)
 .text.timeslot_sd_event_handler
                0x00028684       0x44 mesh/core/libmesh_core_nrf52840_xxAA.a(timeslot.c.obj)
                0x00028684                timeslot_sd_event_handler
 .text.timeslot_init
                0x000286c8       0x48 mesh/core/libmesh_core_nrf52840_xxAA.a(timeslot.c.obj)
                0x000286c8                timeslot_init
 .text.timeslot_start
                0x00028710       0x20 mesh/core/libmesh_core_nrf52840_xxAA.a(timeslot.c.obj)
                0x00028710                timeslot_start
 .text.timeslot_end_is_pending
                0x00028730       0x24 mesh/core/libmesh_core_nrf52840_xxAA.a(timeslot.c.obj)
                0x00028730                timeslot_end_is_pending
 .text.timeslot_start_time_get
                0x00028754        0xc mesh/core/libmesh_core_nrf52840_xxAA.a(timeslot.c.obj)
                0x00028754                timeslot_start_time_get
 .text.timeslot_remaining_time_get
                0x00028760       0x20 mesh/core/libmesh_core_nrf52840_xxAA.a(timeslot.c.obj)
                0x00028760                timeslot_remaining_time_get
 .text.timeslot_is_in_cb
                0x00028780        0xc mesh/core/libmesh_core_nrf52840_xxAA.a(timeslot.c.obj)
                0x00028780                timeslot_is_in_cb
 .text.timeslot_trigger
                0x0002878c       0x24 mesh/core/libmesh_core_nrf52840_xxAA.a(timeslot.c.obj)
                0x0002878c                timeslot_trigger
 .text.timeslot_stop
                0x000287b0       0x10 mesh/core/libmesh_core_nrf52840_xxAA.a(timeslot.c.obj)
                0x000287b0                timeslot_stop
 .text.timeslot_state_lock
                0x000287c0       0x28 mesh/core/libmesh_core_nrf52840_xxAA.a(timeslot.c.obj)
                0x000287c0                timeslot_state_lock
 .text.trigger_event_handler
                0x000287e8       0x1c mesh/core/libmesh_core_nrf52840_xxAA.a(bearer_event.c.obj)
 .text.evt_push
                0x00028804       0x1c mesh/core/libmesh_core_nrf52840_xxAA.a(bearer_event.c.obj)
 .text.bearer_event_init
                0x00028820       0x48 mesh/core/libmesh_core_nrf52840_xxAA.a(bearer_event.c.obj)
                0x00028820                bearer_event_init
 .text.bearer_event_timer_post
                0x00028868       0x30 mesh/core/libmesh_core_nrf52840_xxAA.a(bearer_event.c.obj)
                0x00028868                bearer_event_timer_post
 .text.bearer_event_critical_section_begin
                0x00028898       0x50 mesh/core/libmesh_core_nrf52840_xxAA.a(bearer_event.c.obj)
                0x00028898                bearer_event_critical_section_begin
 .text.bearer_event_critical_section_end
                0x000288e8       0x4c mesh/core/libmesh_core_nrf52840_xxAA.a(bearer_event.c.obj)
                0x000288e8                bearer_event_critical_section_end
 .text.bearer_event_flag_add
                0x00028934       0x50 mesh/core/libmesh_core_nrf52840_xxAA.a(bearer_event.c.obj)
                0x00028934                bearer_event_flag_add
 .text.bearer_event_flag_set
                0x00028984       0x50 mesh/core/libmesh_core_nrf52840_xxAA.a(bearer_event.c.obj)
                0x00028984                bearer_event_flag_set
 .text.bearer_event_sequential_add
                0x000289d4       0x44 mesh/core/libmesh_core_nrf52840_xxAA.a(bearer_event.c.obj)
                0x000289d4                bearer_event_sequential_add
 .text.bearer_event_sequential_post
                0x00028a18       0x58 mesh/core/libmesh_core_nrf52840_xxAA.a(bearer_event.c.obj)
                0x00028a18                bearer_event_sequential_post
 .text.bearer_event_sequential_pending
                0x00028a70       0x1c mesh/core/libmesh_core_nrf52840_xxAA.a(bearer_event.c.obj)
                0x00028a70                bearer_event_sequential_pending
 .text.bearer_event_handler
                0x00028a8c      0x104 mesh/core/libmesh_core_nrf52840_xxAA.a(bearer_event.c.obj)
                0x00028a8c                bearer_event_handler
 .text.QDEC_IRQHandler
                0x00028b90        0x4 mesh/core/libmesh_core_nrf52840_xxAA.a(bearer_event.c.obj)
                0x00028b90                QDEC_IRQHandler
 .text.enc_aes_encrypt
                0x00028b94        0x4 mesh/core/libmesh_core_nrf52840_xxAA.a(enc.c.obj)
                0x00028b94                enc_aes_encrypt
 .text.enc_aes_cmac
                0x00028b98        0x4 mesh/core/libmesh_core_nrf52840_xxAA.a(enc.c.obj)
                0x00028b98                enc_aes_cmac
 .text.enc_aes_ccm_encrypt
                0x00028b9c        0x4 mesh/core/libmesh_core_nrf52840_xxAA.a(enc.c.obj)
                0x00028b9c                enc_aes_ccm_encrypt
 .text.enc_aes_ccm_decrypt
                0x00028ba0        0x4 mesh/core/libmesh_core_nrf52840_xxAA.a(enc.c.obj)
                0x00028ba0                enc_aes_ccm_decrypt
 .text.enc_nonce_generate
                0x00028ba4       0xb8 mesh/core/libmesh_core_nrf52840_xxAA.a(enc.c.obj)
                0x00028ba4                enc_nonce_generate
 .text.enc_s1   0x00028c5c       0x38 mesh/core/libmesh_core_nrf52840_xxAA.a(enc.c.obj)
                0x00028c5c                enc_s1
 .text.header_transfuscate
                0x00028c94       0x54 mesh/core/libmesh_core_nrf52840_xxAA.a(network.c.obj)
 .text.allocate_packet
                0x00028ce8      0x14c mesh/core/libmesh_core_nrf52840_xxAA.a(network.c.obj)
 .text.network_init
                0x00028e34       0x2c mesh/core/libmesh_core_nrf52840_xxAA.a(network.c.obj)
                0x00028e34                network_init
 .text.network_opt_get
                0x00028e60       0x4c mesh/core/libmesh_core_nrf52840_xxAA.a(network.c.obj)
                0x00028e60                network_opt_get
 .text.network_packet_alloc
                0x00028eac       0x50 mesh/core/libmesh_core_nrf52840_xxAA.a(network.c.obj)
                0x00028eac                network_packet_alloc
 .text.network_packet_send
                0x00028efc      0x140 mesh/core/libmesh_core_nrf52840_xxAA.a(network.c.obj)
                0x00028efc                network_packet_send
 .text.network_packet_in
                0x0002903c      0x460 mesh/core/libmesh_core_nrf52840_xxAA.a(network.c.obj)
                0x0002903c                network_packet_in
 .text.stage_get_available
                0x0002949c       0x24 mesh/core/libmesh_core_nrf52840_xxAA.a(msqueue.c.obj)
 .text.msq_get  0x000294c0       0x4c mesh/core/libmesh_core_nrf52840_xxAA.a(msqueue.c.obj)
                0x000294c0                msq_get
 .text.msq_move
                0x0002950c       0x44 mesh/core/libmesh_core_nrf52840_xxAA.a(msqueue.c.obj)
                0x0002950c                msq_move
 .text.msq_reset
                0x00029550       0x2c mesh/core/libmesh_core_nrf52840_xxAA.a(msqueue.c.obj)
                0x00029550                msq_reset
 .text.msq_init
                0x0002957c       0x78 mesh/core/libmesh_core_nrf52840_xxAA.a(msqueue.c.obj)
                0x0002957c                msq_init
 .text.msq_available
                0x000295f4       0x3c mesh/core/libmesh_core_nrf52840_xxAA.a(msqueue.c.obj)
                0x000295f4                msq_available
 .text.list_insert
                0x00029630       0x28 mesh/core/libmesh_core_nrf52840_xxAA.a(list.c.obj)
 .text.list_add
                0x00029658       0x60 mesh/core/libmesh_core_nrf52840_xxAA.a(list.c.obj)
                0x00029658                list_add
 .text.list_remove
                0x000296b8       0x48 mesh/core/libmesh_core_nrf52840_xxAA.a(list.c.obj)
                0x000296b8                list_remove
 .text.log_callback_rtt
                0x00029700       0x2c mesh/core/libmesh_core_nrf52840_xxAA.a(log.c.obj)
                0x00029700                log_callback_rtt
 .text.log_init
                0x0002972c       0x1c mesh/core/libmesh_core_nrf52840_xxAA.a(log.c.obj)
                0x0002972c                log_init
 .text.log_vprintf
                0x00029748       0x18 mesh/core/libmesh_core_nrf52840_xxAA.a(log.c.obj)
                0x00029748                log_vprintf
 .text.log_printf
                0x00029760       0x18 mesh/core/libmesh_core_nrf52840_xxAA.a(log.c.obj)
                0x00029760                log_printf
 .text.get_area_end
                0x00029778        0xc mesh/core/libmesh_core_nrf52840_xxAA.a(flash_manager.c.obj)
 .text.handle_matches_filter
                0x00029784       0x26 mesh/core/libmesh_core_nrf52840_xxAA.a(flash_manager.c.obj)
 *fill*         0x000297aa        0x2 
 .text.get_packet_buffer
                0x000297ac       0x2c mesh/core/libmesh_core_nrf52840_xxAA.a(flash_manager.c.obj)
 .text.get_entry_action
                0x000297d8       0x30 mesh/core/libmesh_core_nrf52840_xxAA.a(flash_manager.c.obj)
 .text.flash_area_is_blank
                0x00029808       0x48 mesh/core/libmesh_core_nrf52840_xxAA.a(flash_manager.c.obj)
 .text.flash    0x00029850       0x1c mesh/core/libmesh_core_nrf52840_xxAA.a(flash_manager.c.obj)
 .text.free_packet_buffer
                0x0002986c       0x54 mesh/core/libmesh_core_nrf52840_xxAA.a(flash_manager.c.obj)
 .text.reserve_action_buffer
                0x000298c0       0x24 mesh/core/libmesh_core_nrf52840_xxAA.a(flash_manager.c.obj)
 .text.commit_action_buffer
                0x000298e4       0x18 mesh/core/libmesh_core_nrf52840_xxAA.a(flash_manager.c.obj)
 .text.schedule_processing
                0x000298fc        0xc mesh/core/libmesh_core_nrf52840_xxAA.a(flash_manager.c.obj)
 .text.get_next_entry
                0x00029908       0x40 mesh/core/libmesh_core_nrf52840_xxAA.a(flash_manager.c.obj)
 .text.get_last_entry.isra.1
                0x00029948       0x30 mesh/core/libmesh_core_nrf52840_xxAA.a(flash_manager.c.obj)
 .text.process_action_queue
                0x00029978      0x4e4 mesh/core/libmesh_core_nrf52840_xxAA.a(flash_manager.c.obj)
 .text.flash_op_ended_callback
                0x00029e5c       0x24 mesh/core/libmesh_core_nrf52840_xxAA.a(flash_manager.c.obj)
 .text.flash_manager_init
                0x00029e80       0x68 mesh/core/libmesh_core_nrf52840_xxAA.a(flash_manager.c.obj)
                0x00029e80                flash_manager_init
 .text.flash_manager_entry_next_get
                0x00029ee8       0x6c mesh/core/libmesh_core_nrf52840_xxAA.a(flash_manager.c.obj)
                0x00029ee8                flash_manager_entry_next_get
 .text.flash_manager_entry_alloc
                0x00029f54       0x78 mesh/core/libmesh_core_nrf52840_xxAA.a(flash_manager.c.obj)
                0x00029f54                flash_manager_entry_alloc
 .text.flash_manager_entry_commit
                0x00029fcc       0x12 mesh/core/libmesh_core_nrf52840_xxAA.a(flash_manager.c.obj)
                0x00029fcc                flash_manager_entry_commit
 *fill*         0x00029fde        0x2 
 .text.flash_manager_entry_invalidate
                0x00029fe0       0x64 mesh/core/libmesh_core_nrf52840_xxAA.a(flash_manager.c.obj)
                0x00029fe0                flash_manager_entry_invalidate
 .text.flash_manager_add
                0x0002a044      0x248 mesh/core/libmesh_core_nrf52840_xxAA.a(flash_manager.c.obj)
                0x0002a044                flash_manager_add
 .text.flash_manager_mem_listener_register
                0x0002a28c       0x44 mesh/core/libmesh_core_nrf52840_xxAA.a(flash_manager.c.obj)
                0x0002a28c                flash_manager_mem_listener_register
 .text.flash_manager_is_stable
                0x0002a2d0       0x24 mesh/core/libmesh_core_nrf52840_xxAA.a(flash_manager.c.obj)
                0x0002a2d0                flash_manager_is_stable
 .text.flash_manager_on_defrag_end
                0x0002a2f4       0x58 mesh/core/libmesh_core_nrf52840_xxAA.a(flash_manager.c.obj)
                0x0002a2f4                flash_manager_on_defrag_end
 .text.flash_manager_recovery_page_get
                0x0002a34c        0x4 mesh/core/libmesh_core_nrf52840_xxAA.a(flash_manager.c.obj)
                0x0002a34c                flash_manager_recovery_page_get
 .text.utils_xor
                0x0002a350       0x14 mesh/core/libmesh_core_nrf52840_xxAA.a(ccm_soft.c.obj)
 .text.ccm_soft_authenticate_blocks
                0x0002a364       0x68 mesh/core/libmesh_core_nrf52840_xxAA.a(ccm_soft.c.obj)
 .text.utils_reverse_memcpy.constprop.0
                0x0002a3cc        0xa mesh/core/libmesh_core_nrf52840_xxAA.a(ccm_soft.c.obj)
 .text.ccm_soft_authenticate
                0x0002a3d6       0xa0 mesh/core/libmesh_core_nrf52840_xxAA.a(ccm_soft.c.obj)
 .text.ccm_soft_crypt
                0x0002a476       0x6c mesh/core/libmesh_core_nrf52840_xxAA.a(ccm_soft.c.obj)
 .text.ccm_soft_encrypt
                0x0002a4e2       0x70 mesh/core/libmesh_core_nrf52840_xxAA.a(ccm_soft.c.obj)
                0x0002a4e2                ccm_soft_encrypt
 .text.ccm_soft_decrypt
                0x0002a552       0xfe mesh/core/libmesh_core_nrf52840_xxAA.a(ccm_soft.c.obj)
                0x0002a552                ccm_soft_decrypt
 .text.beacon_init
                0x0002a650       0x48 mesh/core/libmesh_core_nrf52840_xxAA.a(beacon.c.obj)
                0x0002a650                beacon_init
 .text.beacon_create
                0x0002a698       0x46 mesh/core/libmesh_core_nrf52840_xxAA.a(beacon.c.obj)
                0x0002a698                beacon_create
 *fill*         0x0002a6de        0x2 
 .text.beacon_tx
                0x0002a6e0       0x3c mesh/core/libmesh_core_nrf52840_xxAA.a(beacon.c.obj)
                0x0002a6e0                beacon_tx
 .text.beacon_packet_in
                0x0002a71c      0x160 mesh/core/libmesh_core_nrf52840_xxAA.a(beacon.c.obj)
                0x0002a71c                beacon_packet_in
 .text.entry_get
                0x0002a87c       0x88 mesh/core/libmesh_core_nrf52840_xxAA.a(flash_manager_internal.c.obj)
                0x0002a87c                entry_get
 .text.is_power_of_two
                0x0002a904        0xe mesh/core/libmesh_core_nrf52840_xxAA.a(core_tx.c.obj)
 *fill*         0x0002a912        0x2 
 .text.bearer_if_get
                0x0002a914       0x44 mesh/core/libmesh_core_nrf52840_xxAA.a(core_tx.c.obj)
 .text.core_tx_complete_cb_set
                0x0002a958        0xc mesh/core/libmesh_core_nrf52840_xxAA.a(core_tx.c.obj)
                0x0002a958                core_tx_complete_cb_set
 .text.core_tx_packet_alloc
                0x0002a964       0x88 mesh/core/libmesh_core_nrf52840_xxAA.a(core_tx.c.obj)
                0x0002a964                core_tx_packet_alloc
 .text.core_tx_packet_send
                0x0002a9ec       0x80 mesh/core/libmesh_core_nrf52840_xxAA.a(core_tx.c.obj)
                0x0002a9ec                core_tx_packet_send
 .text.core_tx_packet_discard
                0x0002aa6c       0x80 mesh/core/libmesh_core_nrf52840_xxAA.a(core_tx.c.obj)
                0x0002aa6c                core_tx_packet_discard
 .text.core_tx_complete
                0x0002aaec       0x10 mesh/core/libmesh_core_nrf52840_xxAA.a(core_tx.c.obj)
                0x0002aaec                core_tx_complete
 .text.core_tx_bearer_register
                0x0002aafc       0x84 mesh/core/libmesh_core_nrf52840_xxAA.a(core_tx.c.obj)
                0x0002aafc                core_tx_bearer_register
 .text.heartbeat_subscription_timer_cb
                0x0002ab80       0x1c mesh/core/libmesh_core_nrf52840_xxAA.a(heartbeat.c.obj)
 .text.heartbeat_opcode_handle
                0x0002ab9c       0x78 mesh/core/libmesh_core_nrf52840_xxAA.a(heartbeat.c.obj)
 .text.heartbeat_send
                0x0002ac14       0xd0 mesh/core/libmesh_core_nrf52840_xxAA.a(heartbeat.c.obj)
 .text.heartbeat_core_evt_cb
                0x0002ace4       0x90 mesh/core/libmesh_core_nrf52840_xxAA.a(heartbeat.c.obj)
 .text.heartbeat_publication_timer_cb
                0x0002ad74       0xc8 mesh/core/libmesh_core_nrf52840_xxAA.a(heartbeat.c.obj)
 .text.heartbeat_init
                0x0002ae3c       0x8c mesh/core/libmesh_core_nrf52840_xxAA.a(heartbeat.c.obj)
                0x0002ae3c                heartbeat_init
 .text.make_network_beacon_cmac
                0x0002aec8       0x22 mesh/core/libmesh_core_nrf52840_xxAA.a(net_beacon.c.obj)
 *fill*         0x0002aeea        0x2 
 .text.network_beacon_tx_cb
                0x0002aeec       0xe8 mesh/core/libmesh_core_nrf52840_xxAA.a(net_beacon.c.obj)
 .text.net_beacon_init
                0x0002afd4       0x60 mesh/core/libmesh_core_nrf52840_xxAA.a(net_beacon.c.obj)
                0x0002afd4                net_beacon_init
 .text.net_beacon_packet_in
                0x0002b034      0x104 mesh/core/libmesh_core_nrf52840_xxAA.a(net_beacon.c.obj)
                0x0002b034                net_beacon_packet_in
 .text.packet_discard
                0x0002b138       0x14 mesh/core/libmesh_core_nrf52840_xxAA.a(core_tx_adv.c.obj)
 .text.packet_send
                0x0002b14c       0x14 mesh/core/libmesh_core_nrf52840_xxAA.a(core_tx_adv.c.obj)
 .text.packet_alloc
                0x0002b160       0x3c mesh/core/libmesh_core_nrf52840_xxAA.a(core_tx_adv.c.obj)
 .text.adv_tx_complete_callback
                0x0002b19c       0x30 mesh/core/libmesh_core_nrf52840_xxAA.a(core_tx_adv.c.obj)
 .text.core_tx_adv_init
                0x0002b1cc       0x58 mesh/core/libmesh_core_nrf52840_xxAA.a(core_tx_adv.c.obj)
                0x0002b1cc                core_tx_adv_init
 .text.core_tx_adv_count_get
                0x0002b224       0x28 mesh/core/libmesh_core_nrf52840_xxAA.a(core_tx_adv.c.obj)
                0x0002b224                core_tx_adv_count_get
 .text.core_tx_adv_interval_get
                0x0002b24c       0x34 mesh/core/libmesh_core_nrf52840_xxAA.a(core_tx_adv.c.obj)
                0x0002b24c                core_tx_adv_interval_get
 .text.ad_listener_subscribe
                0x0002b280       0x5c mesh/core/libmesh_core_nrf52840_xxAA.a(ad_listener.c.obj)
                0x0002b280                ad_listener_subscribe
 .text.ad_listener_process
                0x0002b2dc       0x64 mesh/core/libmesh_core_nrf52840_xxAA.a(ad_listener.c.obj)
                0x0002b2dc                ad_listener_process
 .text.adtype_filter_handle
                0x0002b340       0x64 mesh/core/libmesh_core_nrf52840_xxAA.a(ad_type_filter.c.obj)
 .text.bearer_adtype_filtering_set
                0x0002b3a4       0x1c mesh/core/libmesh_core_nrf52840_xxAA.a(ad_type_filter.c.obj)
                0x0002b3a4                bearer_adtype_filtering_set
 .text.bearer_adtype_add
                0x0002b3c0       0x20 mesh/core/libmesh_core_nrf52840_xxAA.a(ad_type_filter.c.obj)
                0x0002b3c0                bearer_adtype_add
 .text.bearer_adtype_mode_set
                0x0002b3e0       0x24 mesh/core/libmesh_core_nrf52840_xxAA.a(ad_type_filter.c.obj)
                0x0002b3e0                bearer_adtype_mode_set
 .text.set_gap_addr_type
                0x0002b404       0x34 mesh/core/libmesh_core_nrf52840_xxAA.a(advertiser.c.obj)
 .text.tx_complete_event_callback
                0x0002b438       0x3c mesh/core/libmesh_core_nrf52840_xxAA.a(advertiser.c.obj)
 .text.broadcast_complete_cb
                0x0002b474       0x64 mesh/core/libmesh_core_nrf52840_xxAA.a(advertiser.c.obj)
 .text.schedule_first_time
                0x0002b4d8       0x28 mesh/core/libmesh_core_nrf52840_xxAA.a(advertiser.c.obj)
 .text.timeout_event
                0x0002b500      0x130 mesh/core/libmesh_core_nrf52840_xxAA.a(advertiser.c.obj)
 .text.advertiser_init
                0x0002b630        0xc mesh/core/libmesh_core_nrf52840_xxAA.a(advertiser.c.obj)
                0x0002b630                advertiser_init
 .text.advertiser_enable
                0x0002b63c       0x2a mesh/core/libmesh_core_nrf52840_xxAA.a(advertiser.c.obj)
                0x0002b63c                advertiser_enable
 *fill*         0x0002b666        0x2 
 .text.advertiser_packet_alloc
                0x0002b668       0x94 mesh/core/libmesh_core_nrf52840_xxAA.a(advertiser.c.obj)
                0x0002b668                advertiser_packet_alloc
 .text.advertiser_packet_send
                0x0002b6fc       0x78 mesh/core/libmesh_core_nrf52840_xxAA.a(advertiser.c.obj)
                0x0002b6fc                advertiser_packet_send
 .text.advertiser_packet_discard
                0x0002b774       0x2c mesh/core/libmesh_core_nrf52840_xxAA.a(advertiser.c.obj)
                0x0002b774                advertiser_packet_discard
 .text.advertiser_interval_set
                0x0002b7a0       0x68 mesh/core/libmesh_core_nrf52840_xxAA.a(advertiser.c.obj)
                0x0002b7a0                advertiser_interval_set
 .text.advertiser_flush
                0x0002b808       0x1e mesh/core/libmesh_core_nrf52840_xxAA.a(advertiser.c.obj)
                0x0002b808                advertiser_flush
 *fill*         0x0002b826        0x2 
 .text.advertiser_address_default_get
                0x0002b828       0x38 mesh/core/libmesh_core_nrf52840_xxAA.a(advertiser.c.obj)
                0x0002b828                advertiser_address_default_get
 .text.advertiser_instance_init
                0x0002b860       0xbc mesh/core/libmesh_core_nrf52840_xxAA.a(advertiser.c.obj)
                0x0002b860                advertiser_instance_init
 .text.action_switch
                0x0002b91c       0xc0 mesh/core/libmesh_core_nrf52840_xxAA.a(bearer_handler.c.obj)
 .text.bearer_handler_init
                0x0002b9dc       0x2c mesh/core/libmesh_core_nrf52840_xxAA.a(bearer_handler.c.obj)
                0x0002b9dc                bearer_handler_init
 .text.bearer_handler_start
                0x0002ba08       0x1c mesh/core/libmesh_core_nrf52840_xxAA.a(bearer_handler.c.obj)
                0x0002ba08                bearer_handler_start
 .text.bearer_handler_action_enqueue
                0x0002ba24       0x94 mesh/core/libmesh_core_nrf52840_xxAA.a(bearer_handler.c.obj)
                0x0002ba24                bearer_handler_action_enqueue
 .text.bearer_handler_action_end
                0x0002bab8       0x78 mesh/core/libmesh_core_nrf52840_xxAA.a(bearer_handler.c.obj)
                0x0002bab8                bearer_handler_action_end
 .text.bearer_handler_radio_irq_handler
                0x0002bb30       0x64 mesh/core/libmesh_core_nrf52840_xxAA.a(bearer_handler.c.obj)
                0x0002bb30                bearer_handler_radio_irq_handler
 .text.bearer_handler_timer_irq_handler
                0x0002bb94       0x30 mesh/core/libmesh_core_nrf52840_xxAA.a(bearer_handler.c.obj)
                0x0002bb94                bearer_handler_timer_irq_handler
 .text.bearer_handler_on_ts_begin
                0x0002bbc4       0x44 mesh/core/libmesh_core_nrf52840_xxAA.a(bearer_handler.c.obj)
                0x0002bbc4                bearer_handler_on_ts_begin
 .text.bearer_handler_on_ts_end
                0x0002bc08       0x48 mesh/core/libmesh_core_nrf52840_xxAA.a(bearer_handler.c.obj)
                0x0002bc08                bearer_handler_on_ts_end
 .text.radio_irq_handler
                0x0002bc50       0xb0 mesh/core/libmesh_core_nrf52840_xxAA.a(broadcast.c.obj)
 .text.broadcast_start
                0x0002bd00       0x8c mesh/core/libmesh_core_nrf52840_xxAA.a(broadcast.c.obj)
 .text.broadcast_send
                0x0002bd8c       0x80 mesh/core/libmesh_core_nrf52840_xxAA.a(broadcast.c.obj)
                0x0002bd8c                broadcast_send
 .text.fen_filter_start
                0x0002be0c       0x3c mesh/core/libmesh_core_nrf52840_xxAA.a(filter_engine.c.obj)
                0x0002be0c                fen_filter_start
 .text.fen_filter_stop
                0x0002be48       0x2c mesh/core/libmesh_core_nrf52840_xxAA.a(filter_engine.c.obj)
                0x0002be48                fen_filter_stop
 .text.fen_filters_apply
                0x0002be74       0x34 mesh/core/libmesh_core_nrf52840_xxAA.a(filter_engine.c.obj)
                0x0002be74                fen_filters_apply
 .text.radio_config_reset
                0x0002bea8       0x34 mesh/core/libmesh_core_nrf52840_xxAA.a(radio_config.c.obj)
                0x0002bea8                radio_config_reset
 .text.radio_config_channel_set
                0x0002bedc       0x34 mesh/core/libmesh_core_nrf52840_xxAA.a(radio_config.c.obj)
                0x0002bedc                radio_config_channel_set
 .text.radio_config_config
                0x0002bf10       0xa4 mesh/core/libmesh_core_nrf52840_xxAA.a(radio_config.c.obj)
                0x0002bf10                radio_config_config
 .text.radio_config_access_addr_set
                0x0002bfb4       0x68 mesh/core/libmesh_core_nrf52840_xxAA.a(radio_config.c.obj)
                0x0002bfb4                radio_config_access_addr_set
 .text.radio_trigger
                0x0002c01c       0x24 mesh/core/libmesh_core_nrf52840_xxAA.a(scanner.c.obj)
 .text.scan_window_end
                0x0002c040       0x10 mesh/core/libmesh_core_nrf52840_xxAA.a(scanner.c.obj)
 .text.scan_window_start
                0x0002c050       0x24 mesh/core/libmesh_core_nrf52840_xxAA.a(scanner.c.obj)
 .text.radio_configure
                0x0002c074       0x78 mesh/core/libmesh_core_nrf52840_xxAA.a(scanner.c.obj)
 .text.radio_set_packet
                0x0002c0ec       0x50 mesh/core/libmesh_core_nrf52840_xxAA.a(scanner.c.obj)
 .text.radio_start
                0x0002c13c       0x4c mesh/core/libmesh_core_nrf52840_xxAA.a(scanner.c.obj)
 .text.radio_stop
                0x0002c188       0x30 mesh/core/libmesh_core_nrf52840_xxAA.a(scanner.c.obj)
 .text.schedule_timers
                0x0002c1b8       0x38 mesh/core/libmesh_core_nrf52840_xxAA.a(scanner.c.obj)
 .text.scanner_radio_start
                0x0002c1f0       0x28 mesh/core/libmesh_core_nrf52840_xxAA.a(scanner.c.obj)
                0x0002c1f0                scanner_radio_start
 .text.scanner_radio_stop
                0x0002c218       0x10 mesh/core/libmesh_core_nrf52840_xxAA.a(scanner.c.obj)
                0x0002c218                scanner_radio_stop
 .text.scanner_radio_irq_handler
                0x0002c228      0x13c mesh/core/libmesh_core_nrf52840_xxAA.a(scanner.c.obj)
                0x0002c228                scanner_radio_irq_handler
 .text.scanner_enable
                0x0002c364       0x30 mesh/core/libmesh_core_nrf52840_xxAA.a(scanner.c.obj)
                0x0002c364                scanner_enable
 .text.scanner_packet_release
                0x0002c394       0x38 mesh/core/libmesh_core_nrf52840_xxAA.a(scanner.c.obj)
                0x0002c394                scanner_packet_release
 .text.scanner_rx
                0x0002c3cc       0x30 mesh/core/libmesh_core_nrf52840_xxAA.a(scanner.c.obj)
                0x0002c3cc                scanner_rx
 .text.scanner_rx_pending
                0x0002c3fc        0xc mesh/core/libmesh_core_nrf52840_xxAA.a(scanner.c.obj)
                0x0002c3fc                scanner_rx_pending
 .text.scanner_config_scan_time_set
                0x0002c408       0x68 mesh/core/libmesh_core_nrf52840_xxAA.a(scanner.c.obj)
                0x0002c408                scanner_config_scan_time_set
 .text.scanner_config_channels_set
                0x0002c470       0x64 mesh/core/libmesh_core_nrf52840_xxAA.a(scanner.c.obj)
                0x0002c470                scanner_config_channels_set
 .text.scanner_config_access_addresses_set
                0x0002c4d4       0x44 mesh/core/libmesh_core_nrf52840_xxAA.a(scanner.c.obj)
                0x0002c4d4                scanner_config_access_addresses_set
 .text.scanner_config_reset
                0x0002c518       0x50 mesh/core/libmesh_core_nrf52840_xxAA.a(scanner.c.obj)
                0x0002c518                scanner_config_reset
 .text.scanner_init
                0x0002c568       0x54 mesh/core/libmesh_core_nrf52840_xxAA.a(scanner.c.obj)
                0x0002c568                scanner_init
 .text.internal_event_push
                0x0002c5bc       0x28 mesh/core/libmesh_core_nrf52840_xxAA.a(internal_event.c.obj)
                0x0002c5bc                internal_event_push
 .text.sd_ecb_block_encrypt
                0x0002c5e4        0x4 mesh/core/libmesh_core_nrf52840_xxAA.a(aes.c.obj)
 .text.aes_encrypt
                0x0002c5e8       0x32 mesh/core/libmesh_core_nrf52840_xxAA.a(aes.c.obj)
                0x0002c5e8                aes_encrypt
 *fill*         0x0002c61a        0x2 
 .text.msg_cache_init
                0x0002c61c       0x24 mesh/core/libmesh_core_nrf52840_xxAA.a(msg_cache.c.obj)
                0x0002c61c                msg_cache_init
 .text.msg_cache_entry_exists
                0x0002c640       0x3c mesh/core/libmesh_core_nrf52840_xxAA.a(msg_cache.c.obj)
                0x0002c640                msg_cache_entry_exists
 .text.msg_cache_entry_add
                0x0002c67c       0x2c mesh/core/libmesh_core_nrf52840_xxAA.a(msg_cache.c.obj)
                0x0002c67c                msg_cache_entry_add
 .text.block_ack_full
                0x0002c6a8       0x28 mesh/core/libmesh_core_nrf52840_xxAA.a(transport.c.obj)
 .text.seqauth_sequence_number_get
                0x0002c6d0       0x12 mesh/core/libmesh_core_nrf52840_xxAA.a(transport.c.obj)
 *fill*         0x0002c6e2        0x2 
 .text.sar_rx_session_mark_as_handled
                0x0002c6e4       0x54 mesh/core/libmesh_core_nrf52840_xxAA.a(transport.c.obj)
 .text.sar_ctx_find
                0x0002c738       0x3c mesh/core/libmesh_core_nrf52840_xxAA.a(transport.c.obj)
 .text.control_packet_callback_get
                0x0002c774       0x44 mesh/core/libmesh_core_nrf52840_xxAA.a(transport.c.obj)
 .text.m_send_sar_cancel_event
                0x0002c7b8       0x28 mesh/core/libmesh_core_nrf52840_xxAA.a(transport.c.obj)
 .text.tx_complete
                0x0002c7e0       0x34 mesh/core/libmesh_core_nrf52840_xxAA.a(transport.c.obj)
 .text.upper_trs_packet_encrypt
                0x0002c814       0xbc mesh/core/libmesh_core_nrf52840_xxAA.a(transport.c.obj)
 .text.sar_ctx_free
                0x0002c8d0       0x3c mesh/core/libmesh_core_nrf52840_xxAA.a(transport.c.obj)
 .text.sar_ctx_tx_complete
                0x0002c90c       0xb8 mesh/core/libmesh_core_nrf52840_xxAA.a(transport.c.obj)
 .text.sar_ctx_cancel
                0x0002c9c4      0x108 mesh/core/libmesh_core_nrf52840_xxAA.a(transport.c.obj)
 .text.abort_timeout
                0x0002cacc        0x8 mesh/core/libmesh_core_nrf52840_xxAA.a(transport.c.obj)
 .text.sar_ctx_alloc
                0x0002cad4       0xbc mesh/core/libmesh_core_nrf52840_xxAA.a(transport.c.obj)
 .text.test_transport_decrypt
                0x0002cb90       0x88 mesh/core/libmesh_core_nrf52840_xxAA.a(transport.c.obj)
 .text.upper_transport_access_packet_in
                0x0002cc18      0x28c mesh/core/libmesh_core_nrf52840_xxAA.a(transport.c.obj)
 .text.trs_packet_header_build
                0x0002cea4       0xa6 mesh/core/libmesh_core_nrf52840_xxAA.a(transport.c.obj)
 *fill*         0x0002cf4a        0x2 
 .text.tx_retry_timer_reset
                0x0002cf4c       0x50 mesh/core/libmesh_core_nrf52840_xxAA.a(transport.c.obj)
 .text.trs_sar_packet_out
                0x0002cf9c       0xec mesh/core/libmesh_core_nrf52840_xxAA.a(transport.c.obj)
 .text.retry_timeout
                0x0002d088       0x54 mesh/core/libmesh_core_nrf52840_xxAA.a(transport.c.obj)
 .text.upper_transport_packet_in
                0x0002d0dc      0x1b0 mesh/core/libmesh_core_nrf52840_xxAA.a(transport.c.obj)
 .text.upper_transport_tx
                0x0002d28c      0x230 mesh/core/libmesh_core_nrf52840_xxAA.a(transport.c.obj)
 .text.transport_sar_mem_funcs_reset
                0x0002d4bc       0x28 mesh/core/libmesh_core_nrf52840_xxAA.a(transport.c.obj)
                0x0002d4bc                transport_sar_mem_funcs_reset
 .text.transport_init
                0x0002d4e4       0x7c mesh/core/libmesh_core_nrf52840_xxAA.a(transport.c.obj)
                0x0002d4e4                transport_init
 .text.transport_control_tx
                0x0002d560       0x8e mesh/core/libmesh_core_nrf52840_xxAA.a(transport.c.obj)
                0x0002d560                transport_control_tx
 *fill*         0x0002d5ee        0x2 
 .text.sar_ack_send
                0x0002d5f0      0x124 mesh/core/libmesh_core_nrf52840_xxAA.a(transport.c.obj)
 .text.transport_sar_process
                0x0002d714       0x74 mesh/core/libmesh_core_nrf52840_xxAA.a(transport.c.obj)
 .text.transport_packet_in
                0x0002d788      0x524 mesh/core/libmesh_core_nrf52840_xxAA.a(transport.c.obj)
                0x0002d788                transport_packet_in
 .text.ack_timeout
                0x0002dcac       0x34 mesh/core/libmesh_core_nrf52840_xxAA.a(transport.c.obj)
 .text.transport_opt_get
                0x0002dce0       0x68 mesh/core/libmesh_core_nrf52840_xxAA.a(transport.c.obj)
                0x0002dce0                transport_opt_get
 .text.transport_control_packet_consumer_add
                0x0002dd48       0x5c mesh/core/libmesh_core_nrf52840_xxAA.a(transport.c.obj)
                0x0002dd48                transport_control_packet_consumer_add
 .text.m_adjust_desired_packet_length
                0x0002dda4       0x34 mesh/core/libmesh_core_nrf52840_xxAA.a(packet_buffer.c.obj)
 .text.m_index_increment.part.0
                0x0002ddd8       0x14 mesh/core/libmesh_core_nrf52840_xxAA.a(packet_buffer.c.obj)
 .text.m_free_popped_packet
                0x0002ddec       0x60 mesh/core/libmesh_core_nrf52840_xxAA.a(packet_buffer.c.obj)
 .text.free_skipped_packets
                0x0002de4c       0x1c mesh/core/libmesh_core_nrf52840_xxAA.a(packet_buffer.c.obj)
 .text.packet_buffer_init
                0x0002de68       0xe0 mesh/core/libmesh_core_nrf52840_xxAA.a(packet_buffer.c.obj)
                0x0002de68                packet_buffer_init
 .text.packet_buffer_flush
                0x0002df48       0x5e mesh/core/libmesh_core_nrf52840_xxAA.a(packet_buffer.c.obj)
                0x0002df48                packet_buffer_flush
 *fill*         0x0002dfa6        0x2 
 .text.packet_buffer_reserve
                0x0002dfa8      0x11c mesh/core/libmesh_core_nrf52840_xxAA.a(packet_buffer.c.obj)
                0x0002dfa8                packet_buffer_reserve
 .text.packet_buffer_commit
                0x0002e0c4      0x104 mesh/core/libmesh_core_nrf52840_xxAA.a(packet_buffer.c.obj)
                0x0002e0c4                packet_buffer_commit
 .text.packet_buffer_pop
                0x0002e1c8       0x58 mesh/core/libmesh_core_nrf52840_xxAA.a(packet_buffer.c.obj)
                0x0002e1c8                packet_buffer_pop
 .text.packet_buffer_can_pop
                0x0002e220       0x28 mesh/core/libmesh_core_nrf52840_xxAA.a(packet_buffer.c.obj)
                0x0002e220                packet_buffer_can_pop
 .text.packet_buffer_packets_ready_to_pop
                0x0002e248       0x58 mesh/core/libmesh_core_nrf52840_xxAA.a(packet_buffer.c.obj)
                0x0002e248                packet_buffer_packets_ready_to_pop
 .text.packet_buffer_free
                0x0002e2a0       0x8c mesh/core/libmesh_core_nrf52840_xxAA.a(packet_buffer.c.obj)
                0x0002e2a0                packet_buffer_free
 .text.get_last_page
                0x0002e32c       0x14 mesh/core/libmesh_core_nrf52840_xxAA.a(flash_manager_defrag.c.obj)
 .text.defrag_on_end
                0x0002e340       0x1c mesh/core/libmesh_core_nrf52840_xxAA.a(flash_manager_defrag.c.obj)
 .text.execute_procedure_step
                0x0002e35c       0xa0 mesh/core/libmesh_core_nrf52840_xxAA.a(flash_manager_defrag.c.obj)
 .text.get_next_entry
                0x0002e3fc       0x40 mesh/core/libmesh_core_nrf52840_xxAA.a(flash_manager_defrag.c.obj)
 .text.get_next_data_entry
                0x0002e43c       0x20 mesh/core/libmesh_core_nrf52840_xxAA.a(flash_manager_defrag.c.obj)
 .text.on_flash_op_end
                0x0002e45c       0x30 mesh/core/libmesh_core_nrf52840_xxAA.a(flash_manager_defrag.c.obj)
 .text.check_for_invalid_entries
                0x0002e48c       0x38 mesh/core/libmesh_core_nrf52840_xxAA.a(flash_manager_defrag.c.obj)
 .text.erase_recovery_area
                0x0002e4c4       0x34 mesh/core/libmesh_core_nrf52840_xxAA.a(flash_manager_defrag.c.obj)
 .text.flash.constprop.6
                0x0002e4f8       0x24 mesh/core/libmesh_core_nrf52840_xxAA.a(flash_manager_defrag.c.obj)
 .text.seal_storage_page
                0x0002e51c       0x50 mesh/core/libmesh_core_nrf52840_xxAA.a(flash_manager_defrag.c.obj)
 .text.invalidate_duplicate_entries
                0x0002e56c       0x9c mesh/core/libmesh_core_nrf52840_xxAA.a(flash_manager_defrag.c.obj)
 .text.copy_metadata
                0x0002e608       0x3c mesh/core/libmesh_core_nrf52840_xxAA.a(flash_manager_defrag.c.obj)
 .text.write_defrag_start_pointer
                0x0002e644       0x20 mesh/core/libmesh_core_nrf52840_xxAA.a(flash_manager_defrag.c.obj)
 .text.write_back
                0x0002e664       0x28 mesh/core/libmesh_core_nrf52840_xxAA.a(flash_manager_defrag.c.obj)
 .text.post_process
                0x0002e68c       0x40 mesh/core/libmesh_core_nrf52840_xxAA.a(flash_manager_defrag.c.obj)
 .text.backup_entries
                0x0002e6cc      0x118 mesh/core/libmesh_core_nrf52840_xxAA.a(flash_manager_defrag.c.obj)
 .text.erase_source
                0x0002e7e4       0x34 mesh/core/libmesh_core_nrf52840_xxAA.a(flash_manager_defrag.c.obj)
 .text.flash_manager_defrag_init
                0x0002e818       0x98 mesh/core/libmesh_core_nrf52840_xxAA.a(flash_manager_defrag.c.obj)
                0x0002e818                flash_manager_defrag_init
 .text.flash_manager_defrag_is_running
                0x0002e8b0       0x10 mesh/core/libmesh_core_nrf52840_xxAA.a(flash_manager_defrag.c.obj)
                0x0002e8b0                flash_manager_defrag_is_running
 .text.flash_manager_defrag
                0x0002e8c0       0xd8 mesh/core/libmesh_core_nrf52840_xxAA.a(flash_manager_defrag.c.obj)
                0x0002e8c0                flash_manager_defrag
 .text.flash_manager_defrag_recovery_page_get
                0x0002e998        0xc mesh/core/libmesh_core_nrf52840_xxAA.a(flash_manager_defrag.c.obj)
                0x0002e998                flash_manager_defrag_recovery_page_get
 .text.fifo_init
                0x0002e9a4       0x50 mesh/core/libmesh_core_nrf52840_xxAA.a(fifo.c.obj)
                0x0002e9a4                fifo_init
 .text.fifo_push
                0x0002e9f4       0x50 mesh/core/libmesh_core_nrf52840_xxAA.a(fifo.c.obj)
                0x0002e9f4                fifo_push
 .text.fifo_pop
                0x0002ea44       0x52 mesh/core/libmesh_core_nrf52840_xxAA.a(fifo.c.obj)
                0x0002ea44                fifo_pop
 *fill*         0x0002ea96        0x2 
 .text.wait_for_ready
                0x0002ea98       0x10 mesh/core/libmesh_core_nrf52840_xxAA.a(nrf_flash.c.obj)
 .text.nrf_flash_erase
                0x0002eaa8       0x50 mesh/core/libmesh_core_nrf52840_xxAA.a(nrf_flash.c.obj)
                0x0002eaa8                nrf_flash_erase
 .text.nrf_flash_write
                0x0002eaf8       0x50 mesh/core/libmesh_core_nrf52840_xxAA.a(nrf_flash.c.obj)
                0x0002eaf8                nrf_flash_write
 .text.packet_mgr_init
                0x0002eb48       0x4c mesh/core/libmesh_core_nrf52840_xxAA.a(packet_mgr.c.obj)
                0x0002eb48                packet_mgr_init
 .text.queue_init
                0x0002eb94       0x20 mesh/core/libmesh_core_nrf52840_xxAA.a(queue.c.obj)
                0x0002eb94                queue_init
 .text.queue_push
                0x0002ebb4       0x48 mesh/core/libmesh_core_nrf52840_xxAA.a(queue.c.obj)
                0x0002ebb4                queue_push
 .text.queue_pop
                0x0002ebfc       0x34 mesh/core/libmesh_core_nrf52840_xxAA.a(queue.c.obj)
                0x0002ebfc                queue_pop
 .text.queue_peek
                0x0002ec30       0x1c mesh/core/libmesh_core_nrf52840_xxAA.a(queue.c.obj)
                0x0002ec30                queue_peek
 .text.my_xor.constprop.1
                0x0002ec4c       0x20 mesh/core/libmesh_core_nrf52840_xxAA.a(aes_cmac.c.obj)
 .text.utils_lshift.constprop.2
                0x0002ec6c       0x24 mesh/core/libmesh_core_nrf52840_xxAA.a(aes_cmac.c.obj)
 .text.aes_cmac_subkey_generate
                0x0002ec90       0x6c mesh/core/libmesh_core_nrf52840_xxAA.a(aes_cmac.c.obj)
                0x0002ec90                aes_cmac_subkey_generate
 .text.aes_cmac
                0x0002ecfc       0xbc mesh/core/libmesh_core_nrf52840_xxAA.a(aes_cmac.c.obj)
                0x0002ecfc                aes_cmac
 .text.nrf_mesh_opt_get
                0x0002edb8       0x26 mesh/core/libmesh_core_nrf52840_xxAA.a(nrf_mesh_opt.c.obj)
                0x0002edb8                nrf_mesh_opt_get
 *fill*         0x0002edde        0x2 
 .text.replay_cache_add
                0x0002ede0       0x60 mesh/core/libmesh_core_nrf52840_xxAA.a(replay_cache.c.obj)
                0x0002ede0                replay_cache_add
 .text.replay_cache_has_room
                0x0002ee40       0x38 mesh/core/libmesh_core_nrf52840_xxAA.a(replay_cache.c.obj)
                0x0002ee40                replay_cache_has_room
 .text.replay_cache_has_elem
                0x0002ee78       0x38 mesh/core/libmesh_core_nrf52840_xxAA.a(replay_cache.c.obj)
                0x0002ee78                replay_cache_has_elem
 .text.replay_cache_clear
                0x0002eeb0       0x28 mesh/core/libmesh_core_nrf52840_xxAA.a(replay_cache.c.obj)
                0x0002eeb0                replay_cache_clear
 .text.replay_cache_init
                0x0002eed8        0x4 mesh/core/libmesh_core_nrf52840_xxAA.a(replay_cache.c.obj)
                0x0002eed8                replay_cache_init
 .text._GetAvailWriteSpace
                0x0002eedc       0x1c external/rtt/librtt_nrf52840_xxAA.a(SEGGER_RTT.c.obj)
 .text._WriteNoCheck
                0x0002eef8       0x3c external/rtt/librtt_nrf52840_xxAA.a(SEGGER_RTT.c.obj)
 .text._WriteBlocking
                0x0002ef34       0x52 external/rtt/librtt_nrf52840_xxAA.a(SEGGER_RTT.c.obj)
 *fill*         0x0002ef86        0x2 
 .text._DoInit  0x0002ef88       0x60 external/rtt/librtt_nrf52840_xxAA.a(SEGGER_RTT.c.obj)
 .text.SEGGER_RTT_WriteNoLock
                0x0002efe8       0x68 external/rtt/librtt_nrf52840_xxAA.a(SEGGER_RTT.c.obj)
                0x0002efe8                SEGGER_RTT_WriteNoLock
 .text.SEGGER_RTT_Write
                0x0002f050       0x34 external/rtt/librtt_nrf52840_xxAA.a(SEGGER_RTT.c.obj)
                0x0002f050                SEGGER_RTT_Write
 .text._StoreChar
                0x0002f084       0x3e external/rtt/librtt_nrf52840_xxAA.a(SEGGER_RTT_printf.c.obj)
 *fill*         0x0002f0c2        0x2 
 .text._PrintUnsigned
                0x0002f0c4       0xd0 external/rtt/librtt_nrf52840_xxAA.a(SEGGER_RTT_printf.c.obj)
 .text.SEGGER_RTT_vprintf
                0x0002f194      0x246 external/rtt/librtt_nrf52840_xxAA.a(SEGGER_RTT_printf.c.obj)
                0x0002f194                SEGGER_RTT_vprintf
 .text.SEGGER_RTT_printf
                0x0002f3da       0x1e external/rtt/librtt_nrf52840_xxAA.a(SEGGER_RTT_printf.c.obj)
                0x0002f3da                SEGGER_RTT_printf
 .text.exit     0x0002f3f8       0x28 c:/a/gcc_arm/6/bin/../lib/gcc/arm-none-eabi/6.3.1/../../../../arm-none-eabi/lib/thumb/v7e-m/fpv4-sp/hard\libg_nano.a(lib_a-exit.o)
                0x0002f3f8                exit
 .text.__libc_init_array
                0x0002f420       0x48 c:/a/gcc_arm/6/bin/../lib/gcc/arm-none-eabi/6.3.1/../../../../arm-none-eabi/lib/thumb/v7e-m/fpv4-sp/hard\libg_nano.a(lib_a-init.o)
                0x0002f420                __libc_init_array
 .text.malloc   0x0002f468       0x10 c:/a/gcc_arm/6/bin/../lib/gcc/arm-none-eabi/6.3.1/../../../../arm-none-eabi/lib/thumb/v7e-m/fpv4-sp/hard\libg_nano.a(lib_a-malloc.o)
                0x0002f468                malloc
 .text.free     0x0002f478       0x10 c:/a/gcc_arm/6/bin/../lib/gcc/arm-none-eabi/6.3.1/../../../../arm-none-eabi/lib/thumb/v7e-m/fpv4-sp/hard\libg_nano.a(lib_a-malloc.o)
                0x0002f478                free
 .text.memcmp   0x0002f488       0x1e c:/a/gcc_arm/6/bin/../lib/gcc/arm-none-eabi/6.3.1/../../../../arm-none-eabi/lib/thumb/v7e-m/fpv4-sp/hard\libg_nano.a(lib_a-memcmp.o)
                0x0002f488                memcmp
 .text.memcpy   0x0002f4a6       0x16 c:/a/gcc_arm/6/bin/../lib/gcc/arm-none-eabi/6.3.1/../../../../arm-none-eabi/lib/thumb/v7e-m/fpv4-sp/hard\libg_nano.a(lib_a-memcpy-stub.o)
                0x0002f4a6                memcpy
 .text.memset   0x0002f4bc       0x10 c:/a/gcc_arm/6/bin/../lib/gcc/arm-none-eabi/6.3.1/../../../../arm-none-eabi/lib/thumb/v7e-m/fpv4-sp/hard\libg_nano.a(lib_a-memset.o)
                0x0002f4bc                memset
 .text._free_r  0x0002f4cc       0x9c c:/a/gcc_arm/6/bin/../lib/gcc/arm-none-eabi/6.3.1/../../../../arm-none-eabi/lib/thumb/v7e-m/fpv4-sp/hard\libg_nano.a(lib_a-nano-freer.o)
                0x0002f4cc                _free_r
 .text._malloc_r
                0x0002f568       0xbc c:/a/gcc_arm/6/bin/../lib/gcc/arm-none-eabi/6.3.1/../../../../arm-none-eabi/lib/thumb/v7e-m/fpv4-sp/hard\libg_nano.a(lib_a-nano-mallocr.o)
                0x0002f568                _malloc_r
 .text._sbrk_r  0x0002f624       0x20 c:/a/gcc_arm/6/bin/../lib/gcc/arm-none-eabi/6.3.1/../../../../arm-none-eabi/lib/thumb/v7e-m/fpv4-sp/hard\libg_nano.a(lib_a-sbrkr.o)
                0x0002f624                _sbrk_r
 .text.strcpy   0x0002f644       0x10 c:/a/gcc_arm/6/bin/../lib/gcc/arm-none-eabi/6.3.1/../../../../arm-none-eabi/lib/thumb/v7e-m/fpv4-sp/hard\libg_nano.a(lib_a-strcpy.o)
                0x0002f644                strcpy
 .text.strrchr  0x0002f654       0x26 c:/a/gcc_arm/6/bin/../lib/gcc/arm-none-eabi/6.3.1/../../../../arm-none-eabi/lib/thumb/v7e-m/fpv4-sp/hard\libg_nano.a(lib_a-strrchr.o)
                0x0002f654                strrchr
 .text.__malloc_lock
                0x0002f67a        0x2 c:/a/gcc_arm/6/bin/../lib/gcc/arm-none-eabi/6.3.1/../../../../arm-none-eabi/lib/thumb/v7e-m/fpv4-sp/hard\libg_nano.a(lib_a-mlock.o)
                0x0002f67a                __malloc_lock
 .text.__malloc_unlock
                0x0002f67c        0x2 c:/a/gcc_arm/6/bin/../lib/gcc/arm-none-eabi/6.3.1/../../../../arm-none-eabi/lib/thumb/v7e-m/fpv4-sp/hard\libg_nano.a(lib_a-mlock.o)
                0x0002f67c                __malloc_unlock
 .text.strchr   0x0002f67e       0x1c c:/a/gcc_arm/6/bin/../lib/gcc/arm-none-eabi/6.3.1/../../../../arm-none-eabi/lib/thumb/v7e-m/fpv4-sp/hard\libg_nano.a(lib_a-strchr.o)
                0x0002f67e                strchr
 *fill*         0x0002f69a        0x2 
 .text._sbrk    0x0002f69c       0x1c c:/a/gcc_arm/6/bin/../lib/gcc/arm-none-eabi/6.3.1/../../../../arm-none-eabi/lib/thumb/v7e-m/fpv4-sp/hard\libnosys.a(sbrk.o)
                0x0002f69c                _sbrk
 .text._exit    0x0002f6b8        0x4 c:/a/gcc_arm/6/bin/../lib/gcc/arm-none-eabi/6.3.1/../../../../arm-none-eabi/lib/thumb/v7e-m/fpv4-sp/hard\libnosys.a(_exit.o)
                0x0002f6b8                _exit
 *(.init)
 .init          0x0002f6bc        0x4 c:/a/gcc_arm/6/bin/../lib/gcc/arm-none-eabi/6.3.1/thumb/v7e-m/fpv4-sp/hard/crti.o
                0x0002f6bc                _init
 .init          0x0002f6c0        0x8 c:/a/gcc_arm/6/bin/../lib/gcc/arm-none-eabi/6.3.1/thumb/v7e-m/fpv4-sp/hard/crtn.o
 *(.fini)
 .fini          0x0002f6c8        0x4 c:/a/gcc_arm/6/bin/../lib/gcc/arm-none-eabi/6.3.1/thumb/v7e-m/fpv4-sp/hard/crti.o
                0x0002f6c8                _fini
 .fini          0x0002f6cc        0x8 c:/a/gcc_arm/6/bin/../lib/gcc/arm-none-eabi/6.3.1/thumb/v7e-m/fpv4-sp/hard/crtn.o
 *crtbegin.o(.ctors)
 *crtbegin?.o(.ctors)
 *(EXCLUDE_FILE(*crtend.o *crtend?.o) .ctors)
 *(SORT(.ctors.*))
 *(.ctors)
 *crtbegin.o(.dtors)
 *crtbegin?.o(.dtors)
 *(EXCLUDE_FILE(*crtend.o *crtend?.o) .dtors)
 *(SORT(.dtors.*))
 *(.dtors)
 *(.rodata*)
 .rodata.main.str1.1
                0x0002f6d4       0x7f examples/dfu/CMakeFiles/dfu_no_serial_nrf52840_xxAA_s140_5.0.0-3.alpha.dir/src/main.c.obj
 .rodata.mesh_evt_handler.str1.1
                0x0002f753       0x1b examples/dfu/CMakeFiles/dfu_no_serial_nrf52840_xxAA_s140_5.0.0-3.alpha.dir/src/main.c.obj
 .rodata.HardFault_Handler.str1.1
                0x0002f76e        0xe examples/dfu/CMakeFiles/dfu_no_serial_nrf52840_xxAA_s140_5.0.0-3.alpha.dir/__/nrf_mesh_sdk.c.obj
 .rodata.app_error_handler.str1.1
                0x0002f77c       0x1d examples/dfu/CMakeFiles/dfu_no_serial_nrf52840_xxAA_s140_5.0.0-3.alpha.dir/__/nrf_mesh_sdk.c.obj
 .rodata.mesh_assert_handler.str1.1
                0x0002f799       0x34 examples/dfu/CMakeFiles/dfu_no_serial_nrf52840_xxAA_s140_5.0.0-3.alpha.dir/__/nrf_mesh_sdk.c.obj
 .rodata.mesh_core_setup.str1.1
                0x0002f7cd       0x47 examples/dfu/CMakeFiles/dfu_no_serial_nrf52840_xxAA_s140_5.0.0-3.alpha.dir/__/nrf_mesh_sdk.c.obj
 .rodata.mesh_softdevice_enable.str1.1
                0x0002f814       0x65 examples/dfu/CMakeFiles/dfu_no_serial_nrf52840_xxAA_s140_5.0.0-3.alpha.dir/__/nrf_mesh_sdk.c.obj
 .rodata.softdevice_assert_handler.str1.1
                0x0002f879       0x1d examples/dfu/CMakeFiles/dfu_no_serial_nrf52840_xxAA_s140_5.0.0-3.alpha.dir/__/nrf_mesh_sdk.c.obj
 .rodata.crctable.10994
                0x0002f896      0x100 examples/dfu/CMakeFiles/dfu_no_serial_nrf52840_xxAA_s140_5.0.0-3.alpha.dir/__/__/mesh/prov/src/prov_bearer_adv.c.obj
 .rodata.prov_bearer_adv_packet_in.str1.1
                0x0002f996      0x26e examples/dfu/CMakeFiles/dfu_no_serial_nrf52840_xxAA_s140_5.0.0-3.alpha.dir/__/__/mesh/prov/src/prov_bearer_adv.c.obj
 .rodata.tx_retry_cb.str1.1
                0x0002fc04       0x37 examples/dfu/CMakeFiles/dfu_no_serial_nrf52840_xxAA_s140_5.0.0-3.alpha.dir/__/__/mesh/prov/src/prov_bearer_adv.c.obj
 .rodata.abort_timeout.str1.1
                0x0002fc3b       0x19 examples/dfu/CMakeFiles/dfu_no_serial_nrf52840_xxAA_s140_5.0.0-3.alpha.dir/__/__/mesh/dfu/src/nrf_mesh_dfu.c.obj
 .rodata.dfu_evt_handler.str1.1
                0x0002fc54      0x182 examples/dfu/CMakeFiles/dfu_no_serial_nrf52840_xxAA_s140_5.0.0-3.alpha.dir/__/__/mesh/dfu/src/nrf_mesh_dfu.c.obj
 .rodata.flash_op_complete.str1.1
                0x0002fdd6       0x3b examples/dfu/CMakeFiles/dfu_no_serial_nrf52840_xxAA_s140_5.0.0-3.alpha.dir/__/__/mesh/dfu/src/nrf_mesh_dfu.c.obj
 .rodata.m_adv_channels
                0x0002fe11        0x3 examples/dfu/CMakeFiles/dfu_no_serial_nrf52840_xxAA_s140_5.0.0-3.alpha.dir/__/__/mesh/dfu/src/nrf_mesh_dfu.c.obj
 .rodata.nrf_mesh_dfu_cmd_send.str1.1
                0x0002fe14       0x18 examples/dfu/CMakeFiles/dfu_no_serial_nrf52840_xxAA_s140_5.0.0-3.alpha.dir/__/__/mesh/dfu/src/nrf_mesh_dfu.c.obj
 .rodata.timer_timeout.str1.1
                0x0002fe2c       0x18 examples/dfu/CMakeFiles/dfu_no_serial_nrf52840_xxAA_s140_5.0.0-3.alpha.dir/__/__/mesh/dfu/src/nrf_mesh_dfu.c.obj
                                 0x13 (size before relaxing)
 .rodata.m_all_operations
                0x0002fe2c       0x10 mesh/core/libmesh_core_nrf52840_xxAA.a(mesh_flash.c.obj)
 .rodata.types_lookup.9155
                0x0002fe3c        0x4 mesh/core/libmesh_core_nrf52840_xxAA.a(nrf_mesh_utils.c.obj)
 .rodata.nrf_mesh_listen.str1.1
                0x0002fe40       0x70 mesh/core/libmesh_core_nrf52840_xxAA.a(nrf_mesh.c.obj)
 .rodata.CSWTCH.8
                0x0002feb0       0x10 mesh/core/libmesh_core_nrf52840_xxAA.a(hal.c.obj)
 .rodata.network_packet_in.str1.1
                0x0002fec0       0x48 mesh/core/libmesh_core_nrf52840_xxAA.a(network.c.obj)
 .rodata.network_packet_send.str1.1
                0x0002ff08       0x49 mesh/core/libmesh_core_nrf52840_xxAA.a(network.c.obj)
 .rodata.log_callback_rtt.str1.1
                0x0002ff51       0x15 mesh/core/libmesh_core_nrf52840_xxAA.a(log.c.obj)
 .rodata.str1.1
                0x0002ff66       0x11 mesh/core/libmesh_core_nrf52840_xxAA.a(log.c.obj)
 *fill*         0x0002ff77        0x1 
 .rodata.INVALID_HEADER
                0x0002ff78        0x4 mesh/core/libmesh_core_nrf52840_xxAA.a(flash_manager.c.obj)
                0x0002ff78                INVALID_HEADER
 .rodata.PADDING_HEADER
                0x0002ff7c        0x4 mesh/core/libmesh_core_nrf52840_xxAA.a(flash_manager.c.obj)
                0x0002ff7c                PADDING_HEADER
 .rodata.SEAL_HEADER
                0x0002ff80        0x4 mesh/core/libmesh_core_nrf52840_xxAA.a(flash_manager.c.obj)
                0x0002ff80                SEAL_HEADER
 .rodata.process_action_queue.str1.1
                0x0002ff84       0x21 mesh/core/libmesh_core_nrf52840_xxAA.a(flash_manager.c.obj)
                                 0x4f (size before relaxing)
 .rodata.beacon_packet_in.str1.1
                0x0002ffa5       0x51 mesh/core/libmesh_core_nrf52840_xxAA.a(beacon.c.obj)
                                 0x59 (size before relaxing)
 *fill*         0x0002fff6        0x2 
 .rodata.cp_handler
                0x0002fff8        0x8 mesh/core/libmesh_core_nrf52840_xxAA.a(heartbeat.c.obj)
 .rodata.net_beacon_init.str1.1
                0x00030000        0x5 mesh/core/libmesh_core_nrf52840_xxAA.a(net_beacon.c.obj)
 *fill*         0x00030005        0x3 
 .rodata.m_interface
                0x00030008        0xc mesh/core/libmesh_core_nrf52840_xxAA.a(core_tx_adv.c.obj)
 .rodata.radio_mode_to_us_per_byte.9552
                0x00030014        0x6 mesh/core/libmesh_core_nrf52840_xxAA.a(broadcast.c.obj)
 .rodata.channel_rf_offsets.8793
                0x0003001a       0x28 mesh/core/libmesh_core_nrf52840_xxAA.a(radio_config.c.obj)
 .rodata        0x00030042        0x3 mesh/core/libmesh_core_nrf52840_xxAA.a(scanner.c.obj)
 .rodata.sar_ctx_cancel.str1.1
                0x00030045       0x18 mesh/core/libmesh_core_nrf52840_xxAA.a(transport.c.obj)
 .rodata.sar_ctx_tx_complete.str1.1
                0x0003005d       0x1d mesh/core/libmesh_core_nrf52840_xxAA.a(transport.c.obj)
                                 0x4b (size before relaxing)
 .rodata.test_transport_decrypt.str1.1
                0x0003007a       0x13 mesh/core/libmesh_core_nrf52840_xxAA.a(transport.c.obj)
 .rodata.transport_packet_in.str1.1
                0x0003008d       0x24 mesh/core/libmesh_core_nrf52840_xxAA.a(transport.c.obj)
 .rodata.upper_transport_access_packet_in.str1.1
                0x000300b1       0x29 mesh/core/libmesh_core_nrf52840_xxAA.a(transport.c.obj)
 .rodata.upper_transport_packet_in.str1.1
                0x000300da       0x2e mesh/core/libmesh_core_nrf52840_xxAA.a(transport.c.obj)
 .rodata.upper_transport_tx.str1.1
                0x00030108       0x2c mesh/core/libmesh_core_nrf52840_xxAA.a(transport.c.obj)
                                 0x34 (size before relaxing)
 .rodata.flash_manager_defrag.str1.1
                0x00030134       0x28 mesh/core/libmesh_core_nrf52840_xxAA.a(flash_manager_defrag.c.obj)
                                 0x56 (size before relaxing)
 .rodata.m_procedure_steps
                0x0003015c       0x28 mesh/core/libmesh_core_nrf52840_xxAA.a(flash_manager_defrag.c.obj)
 .rodata.Rb.7578
                0x00030184       0x10 mesh/core/libmesh_core_nrf52840_xxAA.a(aes_cmac.c.obj)
 .rodata._DoInit.str1.1
                0x00030194       0x14 external/rtt/librtt_nrf52840_xxAA.a(SEGGER_RTT.c.obj)
 .rodata._aV2C.5497
                0x000301a8       0x10 external/rtt/librtt_nrf52840_xxAA.a(SEGGER_RTT_printf.c.obj)
 .rodata._global_impure_ptr
                0x000301b8        0x4 c:/a/gcc_arm/6/bin/../lib/gcc/arm-none-eabi/6.3.1/../../../../arm-none-eabi/lib/thumb/v7e-m/fpv4-sp/hard\libg_nano.a(lib_a-impure.o)
                0x000301b8                _global_impure_ptr
 *(.eh_frame*)
 .eh_frame      0x000301bc        0x0 c:/a/gcc_arm/6/bin/../lib/gcc/arm-none-eabi/6.3.1/thumb/v7e-m/fpv4-sp/hard/crtbegin.o
 .eh_frame      0x000301bc        0x4 c:/a/gcc_arm/6/bin/../lib/gcc/arm-none-eabi/6.3.1/thumb/v7e-m/fpv4-sp/hard/crtend.o

.glue_7         0x000301c0        0x0
 .glue_7        0x000301c0        0x0 linker stubs

.glue_7t        0x000301c0        0x0
 .glue_7t       0x000301c0        0x0 linker stubs

.vfp11_veneer   0x000301c0        0x0
 .vfp11_veneer  0x000301c0        0x0 linker stubs

.v4_bx          0x000301c0        0x0
 .v4_bx         0x000301c0        0x0 linker stubs

.iplt           0x000301c0        0x0
 .iplt          0x000301c0        0x0 c:/a/gcc_arm/6/bin/../lib/gcc/arm-none-eabi/6.3.1/thumb/v7e-m/fpv4-sp/hard/crtbegin.o

.pwr_mgmt_data  0x000301c0        0x0
                [!provide]                PROVIDE (__start_pwr_mgmt_data, .)
 *(SORT(.pwr_mgmt_data*))
                [!provide]                PROVIDE (__stop_pwr_mgmt_data, .)

.log_const_data
                0x000301c0        0x0
                [!provide]                PROVIDE (__start_log_const_data, .)
 *(.log_const_data)
                [!provide]                PROVIDE (__stop_log_const_data, .)

.cli_command    0x000301c0        0x0
                [!provide]                PROVIDE (__start_cli_command, .)
 *(.cli_command)
                [!provide]                PROVIDE (__stop_cli_command, .)

.sdh_stack_observers
                0x000301c0        0x0
                [!provide]                PROVIDE (__start_sdh_stack_observers, .)
 *(SORT(.sdh_stack_observers*))
                [!provide]                PROVIDE (__stop_sdh_stack_observers, .)

.sdh_req_observers
                0x000301c0        0x0
                [!provide]                PROVIDE (__start_sdh_req_observers, .)
 *(SORT(.sdh_req_observers*))
                [!provide]                PROVIDE (__stop_sdh_req_observers, .)

.sdh_state_observers
                0x000301c0        0x0
                [!provide]                PROVIDE (__start_sdh_state_observers, .)
 *(SORT(.sdh_state_observers*))
                [!provide]                PROVIDE (__stop_sdh_state_observers, .)

.sdh_ant_observers
                0x000301c0        0x0
                [!provide]                PROVIDE (__start_sdh_ant_observers, .)
 *(SORT(.sdh_ant_observers*))
                [!provide]                PROVIDE (__stop_sdh_ant_observers, .)

.sdh_ble_observers
                0x000301c0        0x0
                [!provide]                PROVIDE (__start_sdh_ble_observers, .)
 *(SORT(.sdh_ble_observers*))
                [!provide]                PROVIDE (__stop_sdh_ble_observers, .)

.sdh_soc_observers
                0x000301c0        0x0
                [!provide]                PROVIDE (__start_sdh_soc_observers, .)
 *(SORT(.sdh_soc_observers*))
                [!provide]                PROVIDE (__stop_sdh_soc_observers, .)

.ARM.extab
 *(.ARM.extab* .gnu.linkonce.armextab.*)
                0x000301c0                __exidx_start = .

.ARM.exidx      0x000301c0        0x8
 *(.ARM.exidx* .gnu.linkonce.armexidx.*)
 .ARM.exidx     0x000301c0        0x8 c:/a/gcc_arm/6/bin/../lib/gcc/arm-none-eabi/6.3.1/../../../../arm-none-eabi/lib/thumb/v7e-m/fpv4-sp/hard/crt0.o
                0x000301c8                __exidx_end = .
                0x000301c8                __etext = .

.rel.dyn        0x000301c8        0x0
 .rel.iplt      0x000301c8        0x0 c:/a/gcc_arm/6/bin/../lib/gcc/arm-none-eabi/6.3.1/thumb/v7e-m/fpv4-sp/hard/crtbegin.o

.data           0x200031b8       0xc8 load address 0x000301c8
                0x200031b8                __data_start__ = .
 *(vtable)
 *(.data*)
 .data.rom_base
                0x200031b8        0x4 examples/dfu/CMakeFiles/dfu_no_serial_nrf52840_xxAA_s140_5.0.0-3.alpha.dir/src/main.c.obj
                0x200031b8                rom_base
 .data.rom_end  0x200031bc        0x4 examples/dfu/CMakeFiles/dfu_no_serial_nrf52840_xxAA_s140_5.0.0-3.alpha.dir/src/main.c.obj
                0x200031bc                rom_end
 .data.SystemCoreClock
                0x200031c0        0x4 examples/dfu/CMakeFiles/dfu_no_serial_nrf52840_xxAA_s140_5.0.0-3.alpha.dir/__/__/external/nRF5_SDK_14.2.0_17b948a/components/toolchain/system_nrf52840.c.obj
                0x200031c0                SystemCoreClock
 .data.mem_listener.9876
                0x200031c4       0x10 mesh/core/libmesh_core_nrf52840_xxAA.a(net_state.c.obj)
 .data.mem_listener.9881
                0x200031d4       0x10 mesh/core/libmesh_core_nrf52840_xxAA.a(net_state.c.obj)
 .data.mem_listener.9895
                0x200031e4       0x10 mesh/core/libmesh_core_nrf52840_xxAA.a(net_state.c.obj)
 .data.m_nrf_mesh_listener
                0x200031f4        0xc mesh/core/libmesh_core_nrf52840_xxAA.a(nrf_mesh.c.obj)
 .data.g_log_dbg_lvl
                0x20003200        0x4 mesh/core/libmesh_core_nrf52840_xxAA.a(log.c.obj)
                0x20003200                g_log_dbg_lvl
 .data.g_log_dbg_msk
                0x20003204        0x4 mesh/core/libmesh_core_nrf52840_xxAA.a(log.c.obj)
                0x20003204                g_log_dbg_msk
 .data.g_log_hex_digits
                0x20003208        0x4 mesh/core/libmesh_core_nrf52840_xxAA.a(log.c.obj)
                0x20003208                g_log_hex_digits
 .data.m_log_callback
                0x2000320c        0x4 mesh/core/libmesh_core_nrf52840_xxAA.a(log.c.obj)
                0x2000320c                m_log_callback
 .data._impure_ptr
                0x20003210        0x4 c:/a/gcc_arm/6/bin/../lib/gcc/arm-none-eabi/6.3.1/../../../../arm-none-eabi/lib/thumb/v7e-m/fpv4-sp/hard\libg_nano.a(lib_a-impure.o)
                0x20003210                _impure_ptr
 .data.impure_data
                0x20003214       0x60 c:/a/gcc_arm/6/bin/../lib/gcc/arm-none-eabi/6.3.1/../../../../arm-none-eabi/lib/thumb/v7e-m/fpv4-sp/hard\libg_nano.a(lib_a-impure.o)
                0x20003274                . = ALIGN (0x4)
                0x20003274                PROVIDE (__preinit_array_start, .)
 *(.preinit_array)
                0x20003274                PROVIDE (__preinit_array_end, .)
                0x20003274                . = ALIGN (0x4)
                0x20003274                PROVIDE (__init_array_start, .)
 *(SORT(.init_array.*))
 *(.init_array)
 .init_array    0x20003274        0x4 c:/a/gcc_arm/6/bin/../lib/gcc/arm-none-eabi/6.3.1/thumb/v7e-m/fpv4-sp/hard/crtbegin.o
                0x20003278                PROVIDE (__init_array_end, .)
                0x20003278                . = ALIGN (0x4)
                [!provide]                PROVIDE (__fini_array_start, .)
 *(SORT(.fini_array.*))
 *(.fini_array)
 .fini_array    0x20003278        0x4 c:/a/gcc_arm/6/bin/../lib/gcc/arm-none-eabi/6.3.1/thumb/v7e-m/fpv4-sp/hard/crtbegin.o
                [!provide]                PROVIDE (__fini_array_end, .)
 *(.jcr*)
 .jcr           0x2000327c        0x0 c:/a/gcc_arm/6/bin/../lib/gcc/arm-none-eabi/6.3.1/thumb/v7e-m/fpv4-sp/hard/crtbegin.o
 .jcr           0x2000327c        0x4 c:/a/gcc_arm/6/bin/../lib/gcc/arm-none-eabi/6.3.1/thumb/v7e-m/fpv4-sp/hard/crtend.o
                0x20003280                . = ALIGN (0x4)
                0x20003280                __data_end__ = .
LOAD c:/a/gcc_arm/6/bin/../lib/gcc/arm-none-eabi/6.3.1/thumb/v7e-m/fpv4-sp/hard/crti.o
LOAD c:/a/gcc_arm/6/bin/../lib/gcc/arm-none-eabi/6.3.1/thumb/v7e-m/fpv4-sp/hard/crtbegin.o
LOAD c:/a/gcc_arm/6/bin/../lib/gcc/arm-none-eabi/6.3.1/../../../../arm-none-eabi/lib/thumb/v7e-m/fpv4-sp/hard/crt0.o
LOAD examples/dfu/CMakeFiles/dfu_no_serial_nrf52840_xxAA_s140_5.0.0-3.alpha.dir/src/main.c.obj
LOAD examples/dfu/CMakeFiles/dfu_no_serial_nrf52840_xxAA_s140_5.0.0-3.alpha.dir/__/nrf_mesh_sdk.c.obj
LOAD examples/dfu/CMakeFiles/dfu_no_serial_nrf52840_xxAA_s140_5.0.0-3.alpha.dir/__/__/mesh/access/src/access_publish.c.obj
LOAD examples/dfu/CMakeFiles/dfu_no_serial_nrf52840_xxAA_s140_5.0.0-3.alpha.dir/__/__/mesh/access/src/access.c.obj
LOAD examples/dfu/CMakeFiles/dfu_no_serial_nrf52840_xxAA_s140_5.0.0-3.alpha.dir/__/__/mesh/access/src/access_reliable.c.obj
LOAD examples/dfu/CMakeFiles/dfu_no_serial_nrf52840_xxAA_s140_5.0.0-3.alpha.dir/__/__/mesh/access/src/device_state_manager.c.obj
LOAD examples/dfu/CMakeFiles/dfu_no_serial_nrf52840_xxAA_s140_5.0.0-3.alpha.dir/__/__/mesh/prov/src/prov_provisioner.c.obj
LOAD examples/dfu/CMakeFiles/dfu_no_serial_nrf52840_xxAA_s140_5.0.0-3.alpha.dir/__/__/mesh/prov/src/prov_provisionee.c.obj
LOAD examples/dfu/CMakeFiles/dfu_no_serial_nrf52840_xxAA_s140_5.0.0-3.alpha.dir/__/__/mesh/prov/src/nrf_mesh_prov.c.obj
LOAD examples/dfu/CMakeFiles/dfu_no_serial_nrf52840_xxAA_s140_5.0.0-3.alpha.dir/__/__/mesh/prov/src/provisioning.c.obj
LOAD examples/dfu/CMakeFiles/dfu_no_serial_nrf52840_xxAA_s140_5.0.0-3.alpha.dir/__/__/mesh/prov/src/prov_beacon.c.obj
LOAD examples/dfu/CMakeFiles/dfu_no_serial_nrf52840_xxAA_s140_5.0.0-3.alpha.dir/__/__/mesh/prov/src/prov_utils.c.obj
LOAD examples/dfu/CMakeFiles/dfu_no_serial_nrf52840_xxAA_s140_5.0.0-3.alpha.dir/__/__/mesh/prov/src/prov_bearer_adv.c.obj
LOAD examples/dfu/CMakeFiles/dfu_no_serial_nrf52840_xxAA_s140_5.0.0-3.alpha.dir/__/__/mesh/dfu/src/nrf_mesh_dfu.c.obj
LOAD examples/dfu/CMakeFiles/dfu_no_serial_nrf52840_xxAA_s140_5.0.0-3.alpha.dir/__/nrf_mesh_weak.c.obj
LOAD examples/dfu/CMakeFiles/dfu_no_serial_nrf52840_xxAA_s140_5.0.0-3.alpha.dir/__/__/external/nRF5_SDK_14.2.0_17b948a/components/toolchain/system_nrf52840.c.obj
LOAD examples/dfu/CMakeFiles/dfu_no_serial_nrf52840_xxAA_s140_5.0.0-3.alpha.dir/__/__/external/nRF5_SDK_14.2.0_17b948a/components/toolchain/gcc/gcc_startup_nrf52840.S.obj
LOAD mesh/core/libmesh_core_nrf52840_xxAA.a
LOAD external/rtt/librtt_nrf52840_xxAA.a
LOAD external/micro-ecc/libuECC_nrf52840_xxAA.a
START GROUP
LOAD c:/a/gcc_arm/6/bin/../lib/gcc/arm-none-eabi/6.3.1/thumb/v7e-m/fpv4-sp/hard\libgcc.a
LOAD c:/a/gcc_arm/6/bin/../lib/gcc/arm-none-eabi/6.3.1/../../../../arm-none-eabi/lib/thumb/v7e-m/fpv4-sp/hard\libg_nano.a
LOAD c:/a/gcc_arm/6/bin/../lib/gcc/arm-none-eabi/6.3.1/../../../../arm-none-eabi/lib/thumb/v7e-m/fpv4-sp/hard\libc_nano.a
END GROUP
START GROUP
LOAD c:/a/gcc_arm/6/bin/../lib/gcc/arm-none-eabi/6.3.1/thumb/v7e-m/fpv4-sp/hard\libgcc.a
LOAD c:/a/gcc_arm/6/bin/../lib/gcc/arm-none-eabi/6.3.1/../../../../arm-none-eabi/lib/thumb/v7e-m/fpv4-sp/hard\libc_nano.a
END GROUP
LOAD c:/a/gcc_arm/6/bin/../lib/gcc/arm-none-eabi/6.3.1/thumb/v7e-m/fpv4-sp/hard/crtend.o
LOAD c:/a/gcc_arm/6/bin/../lib/gcc/arm-none-eabi/6.3.1/thumb/v7e-m/fpv4-sp/hard/crtn.o
START GROUP
LOAD c:/a/gcc_arm/6/bin/../lib/gcc/arm-none-eabi/6.3.1/thumb/v7e-m/fpv4-sp/hard\libgcc.a
LOAD c:/a/gcc_arm/6/bin/../lib/gcc/arm-none-eabi/6.3.1/../../../../arm-none-eabi/lib/thumb/v7e-m/fpv4-sp/hard\libc.a
LOAD c:/a/gcc_arm/6/bin/../lib/gcc/arm-none-eabi/6.3.1/../../../../arm-none-eabi/lib/thumb/v7e-m/fpv4-sp/hard\libnosys.a
END GROUP

.igot.plt       0x20003280        0x0 load address 0x00030290
 .igot.plt      0x20003280        0x0 c:/a/gcc_arm/6/bin/../lib/gcc/arm-none-eabi/6.3.1/thumb/v7e-m/fpv4-sp/hard/crtbegin.o
                0x20003280                . = ALIGN (0x4)

.svc_data       0x20003280        0x0
                [!provide]                PROVIDE (__start_svc_data, .)
 *(.svc_data)
                [!provide]                PROVIDE (__stop_svc_data, .)

.fs_data        0x20003280        0x0
                [!provide]                PROVIDE (__start_fs_data, .)
 *(.fs_data)
                [!provide]                PROVIDE (__stop_fs_data, .)

.log_dynamic_data
                0x20003280        0x0
                [!provide]                PROVIDE (__start_log_dynamic_data, .)
 *(.log_dynamic_data)
                [!provide]                PROVIDE (__stop_log_dynamic_data, .)

.cli_sorted_cmd_ptrs
                0x20003280        0x0
                [!provide]                PROVIDE (__start_cli_sorted_cmd_ptrs, .)
 *(.cli_sorted_cmd_ptrs)
                [!provide]                PROVIDE (__stop_cli_sorted_cmd_ptrs, .)

.bss            0x20003280     0x2f38 load address 0x00030290
                0x20003280                . = ALIGN (0x4)
                0x20003280                __bss_start__ = .
 *(.bss*)
 .bss           0x20003280       0x1c c:/a/gcc_arm/6/bin/../lib/gcc/arm-none-eabi/6.3.1/thumb/v7e-m/fpv4-sp/hard/crtbegin.o
 .bss.m_evt_handler
                0x2000329c        0x8 examples/dfu/CMakeFiles/dfu_no_serial_nrf52840_xxAA_s140_5.0.0-3.alpha.dir/src/main.c.obj
 .bss.m_ble_evt_buffer
                0x200032a4       0x57 examples/dfu/CMakeFiles/dfu_no_serial_nrf52840_xxAA_s140_5.0.0-3.alpha.dir/__/nrf_mesh_sdk.c.obj
 *fill*         0x200032fb        0x1 
 .bss.m_addr_nonvirtual_allocated
                0x200032fc        0x4 examples/dfu/CMakeFiles/dfu_no_serial_nrf52840_xxAA_s140_5.0.0-3.alpha.dir/__/__/mesh/access/src/device_state_manager.c.obj
 .bss.m_addr_unicast_allocated
                0x20003300        0x4 examples/dfu/CMakeFiles/dfu_no_serial_nrf52840_xxAA_s140_5.0.0-3.alpha.dir/__/__/mesh/access/src/device_state_manager.c.obj
 .bss.m_addr_virtual_allocated
                0x20003304        0x4 examples/dfu/CMakeFiles/dfu_no_serial_nrf52840_xxAA_s140_5.0.0-3.alpha.dir/__/__/mesh/access/src/device_state_manager.c.obj
 .bss.m_addresses
                0x20003308       0x40 examples/dfu/CMakeFiles/dfu_no_serial_nrf52840_xxAA_s140_5.0.0-3.alpha.dir/__/__/mesh/access/src/device_state_manager.c.obj
 .bss.m_appkey_allocated
                0x20003348        0x4 examples/dfu/CMakeFiles/dfu_no_serial_nrf52840_xxAA_s140_5.0.0-3.alpha.dir/__/__/mesh/access/src/device_state_manager.c.obj
 .bss.m_appkeys
                0x2000334c      0x150 examples/dfu/CMakeFiles/dfu_no_serial_nrf52840_xxAA_s140_5.0.0-3.alpha.dir/__/__/mesh/access/src/device_state_manager.c.obj
 .bss.m_devkeys
                0x2000349c       0x16 examples/dfu/CMakeFiles/dfu_no_serial_nrf52840_xxAA_s140_5.0.0-3.alpha.dir/__/__/mesh/access/src/device_state_manager.c.obj
 .bss.m_has_primary_subnet
                0x200034b2        0x1 examples/dfu/CMakeFiles/dfu_no_serial_nrf52840_xxAA_s140_5.0.0-3.alpha.dir/__/__/mesh/access/src/device_state_manager.c.obj
 *fill*         0x200034b3        0x1 
 .bss.m_local_unicast_addr
                0x200034b4        0x4 examples/dfu/CMakeFiles/dfu_no_serial_nrf52840_xxAA_s140_5.0.0-3.alpha.dir/__/__/mesh/access/src/device_state_manager.c.obj
 .bss.m_subnet_allocated
                0x200034b8        0x4 examples/dfu/CMakeFiles/dfu_no_serial_nrf52840_xxAA_s140_5.0.0-3.alpha.dir/__/__/mesh/access/src/device_state_manager.c.obj
 .bss.m_subnets
                0x200034bc      0x2b0 examples/dfu/CMakeFiles/dfu_no_serial_nrf52840_xxAA_s140_5.0.0-3.alpha.dir/__/__/mesh/access/src/device_state_manager.c.obj
 .bss.m_virtual_addresses
                0x2000376c       0xa0 examples/dfu/CMakeFiles/dfu_no_serial_nrf52840_xxAA_s140_5.0.0-3.alpha.dir/__/__/mesh/access/src/device_state_manager.c.obj
 .bss.m_event_handler
                0x2000380c        0x4 examples/dfu/CMakeFiles/dfu_no_serial_nrf52840_xxAA_s140_5.0.0-3.alpha.dir/__/__/mesh/prov/src/prov_beacon.c.obj
 .bss.m_offload_ecdh
                0x20003810        0x1 examples/dfu/CMakeFiles/dfu_no_serial_nrf52840_xxAA_s140_5.0.0-3.alpha.dir/__/__/mesh/prov/src/prov_utils.c.obj
 *fill*         0x20003811        0x3 
 .bss.mp_bearer_head
                0x20003814        0x4 examples/dfu/CMakeFiles/dfu_no_serial_nrf52840_xxAA_s140_5.0.0-3.alpha.dir/__/__/mesh/prov/src/prov_bearer_adv.c.obj
 .bss.m_adv_packet
                0x20003818       0x28 examples/dfu/CMakeFiles/dfu_no_serial_nrf52840_xxAA_s140_5.0.0-3.alpha.dir/__/__/mesh/dfu/src/nrf_mesh_dfu.c.obj
 .bss.m_broadcast
                0x20003840       0x34 examples/dfu/CMakeFiles/dfu_no_serial_nrf52840_xxAA_s140_5.0.0-3.alpha.dir/__/__/mesh/dfu/src/nrf_mesh_dfu.c.obj
 .bss.m_prng    0x20003874       0x10 examples/dfu/CMakeFiles/dfu_no_serial_nrf52840_xxAA_s140_5.0.0-3.alpha.dir/__/__/mesh/dfu/src/nrf_mesh_dfu.c.obj
 .bss.m_timer_evt
                0x20003884       0x18 examples/dfu/CMakeFiles/dfu_no_serial_nrf52840_xxAA_s140_5.0.0-3.alpha.dir/__/__/mesh/dfu/src/nrf_mesh_dfu.c.obj
 .bss.m_transfer_state
                0x2000389c       0x12 examples/dfu/CMakeFiles/dfu_no_serial_nrf52840_xxAA_s140_5.0.0-3.alpha.dir/__/__/mesh/dfu/src/nrf_mesh_dfu.c.obj
 *fill*         0x200038ae        0x2 
 .bss.m_tx_slots
                0x200038b0      0x120 examples/dfu/CMakeFiles/dfu_no_serial_nrf52840_xxAA_s140_5.0.0-3.alpha.dir/__/__/mesh/dfu/src/nrf_mesh_dfu.c.obj
 .bss.m_tx_timer_evt
                0x200039d0       0x18 examples/dfu/CMakeFiles/dfu_no_serial_nrf52840_xxAA_s140_5.0.0-3.alpha.dir/__/__/mesh/dfu/src/nrf_mesh_dfu.c.obj
 .bss.mp_curr_fwid
                0x200039e8        0x4 examples/dfu/CMakeFiles/dfu_no_serial_nrf52840_xxAA_s140_5.0.0-3.alpha.dir/__/__/mesh/dfu/src/nrf_mesh_dfu.c.obj
 .bss.m_uuid    0x200039ec       0x10 mesh/core/libmesh_core_nrf52840_xxAA.a(nrf_mesh_configure.c.obj)
 .bss.mp_evt_handlers_head
                0x200039fc        0x4 mesh/core/libmesh_core_nrf52840_xxAA.a(event.c.obj)
 .bss.lock_count.9935
                0x20003a00        0x4 mesh/core/libmesh_core_nrf52840_xxAA.a(net_state.c.obj)
 .bss.m_flash_manager
                0x20003a04       0x24 mesh/core/libmesh_core_nrf52840_xxAA.a(net_state.c.obj)
 .bss.m_iv_update_timer
                0x20003a28       0x18 mesh/core/libmesh_core_nrf52840_xxAA.a(net_state.c.obj)
 .bss.m_net_state
                0x20003a40       0x14 mesh/core/libmesh_core_nrf52840_xxAA.a(net_state.c.obj)
 .bss.m_seqnum_allocation_in_progress
                0x20003a54        0x1 mesh/core/libmesh_core_nrf52840_xxAA.a(net_state.c.obj)
 .bss.m_test_mode
                0x20003a55        0x1 mesh/core/libmesh_core_nrf52840_xxAA.a(net_state.c.obj)
 *fill*         0x20003a56        0x2 
 .bss.m_event_flag
                0x20003a58        0x4 mesh/core/libmesh_core_nrf52840_xxAA.a(mesh_flash.c.obj)
 .bss.m_suspended
                0x20003a5c        0x1 mesh/core/libmesh_core_nrf52840_xxAA.a(mesh_flash.c.obj)
 *fill*         0x20003a5d        0x3 
 .bss.m_users   0x20003a60      0x228 mesh/core/libmesh_core_nrf52840_xxAA.a(mesh_flash.c.obj)
 .bss.suspend_count.10223
                0x20003c88        0x4 mesh/core/libmesh_core_nrf52840_xxAA.a(mesh_flash.c.obj)
 .bss.m_is_enabled
                0x20003c8c        0x1 mesh/core/libmesh_core_nrf52840_xxAA.a(nrf_mesh.c.obj)
 .bss.m_is_initialized
                0x20003c8d        0x1 mesh/core/libmesh_core_nrf52840_xxAA.a(nrf_mesh.c.obj)
 *fill*         0x20003c8e        0x2 
 .bss.m_rx_cb   0x20003c90        0x4 mesh/core/libmesh_core_nrf52840_xxAA.a(nrf_mesh.c.obj)
 .bss.m_event_flag
                0x20003c94        0x4 mesh/core/libmesh_core_nrf52840_xxAA.a(timer_scheduler.c.obj)
 .bss.m_scheduler
                0x20003c98       0x10 mesh/core/libmesh_core_nrf52840_xxAA.a(timer_scheduler.c.obj)
 .bss.m_attributes
                0x20003ca8        0x3 mesh/core/libmesh_core_nrf52840_xxAA.a(timer.c.obj)
 *fill*         0x20003cab        0x1 
 .bss.m_callbacks
                0x20003cac        0xc mesh/core/libmesh_core_nrf52840_xxAA.a(timer.c.obj)
 .bss.m_is_in_ts
                0x20003cb8        0x1 mesh/core/libmesh_core_nrf52840_xxAA.a(timer.c.obj)
 *fill*         0x20003cb9        0x3 
 .bss.m_reference_time
                0x20003cbc        0x4 mesh/core/libmesh_core_nrf52840_xxAA.a(timer.c.obj)
 .bss.m_timeouts
                0x20003cc0        0xc mesh/core/libmesh_core_nrf52840_xxAA.a(timer.c.obj)
 .bss.m_timer_mut
                0x20003ccc        0x4 mesh/core/libmesh_core_nrf52840_xxAA.a(timer.c.obj)
 .bss.m_ts_end_time
                0x20003cd0        0x4 mesh/core/libmesh_core_nrf52840_xxAA.a(timer.c.obj)
 .bss.mp_ppi_tasks
                0x20003cd4        0xc mesh/core/libmesh_core_nrf52840_xxAA.a(timer.c.obj)
 .bss.m_current_time
                0x20003ce0        0x4 mesh/core/libmesh_core_nrf52840_xxAA.a(ticker.c.obj)
 .bss.m_timer   0x20003ce4       0x18 mesh/core/libmesh_core_nrf52840_xxAA.a(ticker.c.obj)
 .bss.m_current_timeslot
                0x20003cfc       0x1c mesh/core/libmesh_core_nrf52840_xxAA.a(timeslot.c.obj)
 .bss.m_lfclk_ppm
                0x20003d18        0x4 mesh/core/libmesh_core_nrf52840_xxAA.a(timeslot.c.obj)
 .bss.m_radio_request_earliest
                0x20003d1c       0x10 mesh/core/libmesh_core_nrf52840_xxAA.a(timeslot.c.obj)
 .bss.m_state_lock
                0x20003d2c        0x1 mesh/core/libmesh_core_nrf52840_xxAA.a(timeslot.c.obj)
 .bss.m_timeslot_forced_command
                0x20003d2d        0x1 mesh/core/libmesh_core_nrf52840_xxAA.a(timeslot.c.obj)
 *fill*         0x20003d2e        0x2 
 .bss.s_last_rtc_value.9399
                0x20003d30        0x8 mesh/core/libmesh_core_nrf52840_xxAA.a(timeslot.c.obj)
 .bss.m_bearer_event_fifo
                0x20003d38       0x14 mesh/core/libmesh_core_nrf52840_xxAA.a(bearer_event.c.obj)
 .bss.m_bearer_event_fifo_buffer
                0x20003d4c      0x100 mesh/core/libmesh_core_nrf52840_xxAA.a(bearer_event.c.obj)
 .bss.m_critical
                0x20003e4c        0x4 mesh/core/libmesh_core_nrf52840_xxAA.a(bearer_event.c.obj)
 .bss.m_flag_count
                0x20003e50        0x4 mesh/core/libmesh_core_nrf52840_xxAA.a(bearer_event.c.obj)
 .bss.m_flag_event_callbacks
                0x20003e54       0x20 mesh/core/libmesh_core_nrf52840_xxAA.a(bearer_event.c.obj)
 .bss.m_flags   0x20003e74        0x4 mesh/core/libmesh_core_nrf52840_xxAA.a(bearer_event.c.obj)
 .bss.m_irq_priority
                0x20003e78        0x1 mesh/core/libmesh_core_nrf52840_xxAA.a(bearer_event.c.obj)
 *fill*         0x20003e79        0x3 
 .bss.m_sequential_event_queue
                0x20003e7c        0x8 mesh/core/libmesh_core_nrf52840_xxAA.a(bearer_event.c.obj)
 .bss.s_recursion_guard.9521
                0x20003e84        0x1 mesh/core/libmesh_core_nrf52840_xxAA.a(bearer_event.c.obj)
 *fill*         0x20003e85        0x3 
 .bss.m_relay_check_cb
                0x20003e88        0x4 mesh/core/libmesh_core_nrf52840_xxAA.a(network.c.obj)
 .bss.m_relay_enable
                0x20003e8c        0x1 mesh/core/libmesh_core_nrf52840_xxAA.a(network.c.obj)
 *fill*         0x20003e8d        0x3 
 .bss.m_action_queue
                0x20003e90        0xc mesh/core/libmesh_core_nrf52840_xxAA.a(flash_manager.c.obj)
 .bss.m_action_queue_buffer
                0x20003e9c      0x104 mesh/core/libmesh_core_nrf52840_xxAA.a(flash_manager.c.obj)
 .bss.m_action_state
                0x20003fa0        0x1 mesh/core/libmesh_core_nrf52840_xxAA.a(flash_manager.c.obj)
 *fill*         0x20003fa1        0x3 
 .bss.m_memory_listener_queue
                0x20003fa4        0x8 mesh/core/libmesh_core_nrf52840_xxAA.a(flash_manager.c.obj)
 .bss.m_processing_flag
                0x20003fac        0x4 mesh/core/libmesh_core_nrf52840_xxAA.a(flash_manager.c.obj)
 .bss.m_queue_empty_cb
                0x20003fb0        0x4 mesh/core/libmesh_core_nrf52840_xxAA.a(flash_manager.c.obj)
 .bss.m_state   0x20003fb4        0x1 mesh/core/libmesh_core_nrf52840_xxAA.a(flash_manager.c.obj)
 *fill*         0x20003fb5        0x1 
 .bss.m_token   0x20003fb6        0x2 mesh/core/libmesh_core_nrf52840_xxAA.a(flash_manager.c.obj)
 .bss.p_current.11249
                0x20003fb8        0x4 mesh/core/libmesh_core_nrf52840_xxAA.a(flash_manager.c.obj)
 .bss.result.11250
                0x20003fbc        0x1 mesh/core/libmesh_core_nrf52840_xxAA.a(flash_manager.c.obj)
 *fill*         0x20003fbd        0x3 
 .bss.m_adv_buffer
                0x20003fc0       0x68 mesh/core/libmesh_core_nrf52840_xxAA.a(beacon.c.obj)
 .bss.m_advertiser
                0x20004028       0x94 mesh/core/libmesh_core_nrf52840_xxAA.a(beacon.c.obj)
 .bss.m_bearers
                0x200040bc        0x4 mesh/core/libmesh_core_nrf52840_xxAA.a(core_tx.c.obj)
 .bss.m_tx_complete_callback
                0x200040c0        0x4 mesh/core/libmesh_core_nrf52840_xxAA.a(core_tx.c.obj)
 .bss.m_hb_core_evt_handler
                0x200040c4        0x8 mesh/core/libmesh_core_nrf52840_xxAA.a(heartbeat.c.obj)
 .bss.m_hb_pending_feat_msg
                0x200040cc        0x1 mesh/core/libmesh_core_nrf52840_xxAA.a(heartbeat.c.obj)
 .bss.m_hb_pending_pub_msg
                0x200040cd        0x1 mesh/core/libmesh_core_nrf52840_xxAA.a(heartbeat.c.obj)
 .bss.m_heartbeat_init_done
                0x200040ce        0x1 mesh/core/libmesh_core_nrf52840_xxAA.a(heartbeat.c.obj)
 *fill*         0x200040cf        0x1 
 .bss.m_heartbeat_subscription
                0x200040d0       0x10 mesh/core/libmesh_core_nrf52840_xxAA.a(heartbeat.c.obj)
 .bss.m_publication_count_decrement_cb
                0x200040e0        0x4 mesh/core/libmesh_core_nrf52840_xxAA.a(heartbeat.c.obj)
 .bss.m_publication_get_cb
                0x200040e4        0x4 mesh/core/libmesh_core_nrf52840_xxAA.a(heartbeat.c.obj)
 .bss.m_publication_timer
                0x200040e8       0x1c mesh/core/libmesh_core_nrf52840_xxAA.a(heartbeat.c.obj)
 .bss.m_subscription_timer
                0x20004104       0x18 mesh/core/libmesh_core_nrf52840_xxAA.a(heartbeat.c.obj)
 .bss.m_beacon_salt
                0x2000411c       0x10 mesh/core/libmesh_core_nrf52840_xxAA.a(net_beacon.c.obj)
 .bss.m_enabled
                0x2000412c        0x1 mesh/core/libmesh_core_nrf52840_xxAA.a(net_beacon.c.obj)
 *fill*         0x2000412d        0x3 
 .bss.m_tx_event
                0x20004130       0x18 mesh/core/libmesh_core_nrf52840_xxAA.a(net_beacon.c.obj)
 .bss.m_adv_tx_count
                0x20004148        0x8 mesh/core/libmesh_core_nrf52840_xxAA.a(core_tx_adv.c.obj)
 .bss.m_advertisers
                0x20004150      0x128 mesh/core/libmesh_core_nrf52840_xxAA.a(core_tx_adv.c.obj)
 .bss.m_originator_adv_packet_buffer
                0x20004278      0x100 mesh/core/libmesh_core_nrf52840_xxAA.a(core_tx_adv.c.obj)
 .bss.m_relay_adv_packet_buffer
                0x20004378       0x80 mesh/core/libmesh_core_nrf52840_xxAA.a(core_tx_adv.c.obj)
 .bss.m_subscribers
                0x200043f8        0x4 mesh/core/libmesh_core_nrf52840_xxAA.a(ad_listener.c.obj)
 .bss.m_adtype_filter
                0x200043fc       0x38 mesh/core/libmesh_core_nrf52840_xxAA.a(ad_type_filter.c.obj)
 .bss.m_adv_prng
                0x20004434       0x10 mesh/core/libmesh_core_nrf52840_xxAA.a(advertiser.c.obj)
 .bss.m_action_queue
                0x20004444        0x8 mesh/core/libmesh_core_nrf52840_xxAA.a(bearer_handler.c.obj)
 .bss.m_end_time
                0x2000444c        0x4 mesh/core/libmesh_core_nrf52840_xxAA.a(bearer_handler.c.obj)
 .bss.m_scanner_is_active
                0x20004450        0x1 mesh/core/libmesh_core_nrf52840_xxAA.a(bearer_handler.c.obj)
 .bss.m_stopped
                0x20004451        0x1 mesh/core/libmesh_core_nrf52840_xxAA.a(bearer_handler.c.obj)
 *fill*         0x20004452        0x2 
 .bss.mp_action
                0x20004454        0x4 mesh/core/libmesh_core_nrf52840_xxAA.a(bearer_handler.c.obj)
 .bss.m_next_channel_index
                0x20004458        0x1 mesh/core/libmesh_core_nrf52840_xxAA.a(broadcast.c.obj)
 *fill*         0x20004459        0x3 
 .bss.m_accepted_amount
                0x2000445c        0x4 mesh/core/libmesh_core_nrf52840_xxAA.a(filter_engine.c.obj)
 .bss.m_filter_list_head
                0x20004460        0x4 mesh/core/libmesh_core_nrf52840_xxAA.a(filter_engine.c.obj)
 .bss.m_scanner
                0x20004464      0x28c mesh/core/libmesh_core_nrf52840_xxAA.a(scanner.c.obj)
 .bss.m_internal_event_fifo
                0x200046f0       0x14 mesh/core/libmesh_core_nrf52840_xxAA.a(internal_event.c.obj)
 .bss.m_internal_event_initialized
                0x20004704        0x1 mesh/core/libmesh_core_nrf52840_xxAA.a(internal_event.c.obj)
 *fill*         0x20004705        0x3 
 .bss.m_report_cb
                0x20004708        0x4 mesh/core/libmesh_core_nrf52840_xxAA.a(internal_event.c.obj)
 .bss.m_msg_cache
                0x2000470c      0x100 mesh/core/libmesh_core_nrf52840_xxAA.a(msg_cache.c.obj)
 .bss.m_msg_cache_head
                0x2000480c        0x4 mesh/core/libmesh_core_nrf52840_xxAA.a(msg_cache.c.obj)
 .bss.m_control_packet_consumer_count
                0x20004810        0x4 mesh/core/libmesh_core_nrf52840_xxAA.a(transport.c.obj)
 .bss.m_control_packet_consumers
                0x20004814        0x8 mesh/core/libmesh_core_nrf52840_xxAA.a(transport.c.obj)
 .bss.m_sar_alloc
                0x2000481c        0x4 mesh/core/libmesh_core_nrf52840_xxAA.a(transport.c.obj)
 .bss.m_sar_process_flag
                0x20004820        0x4 mesh/core/libmesh_core_nrf52840_xxAA.a(transport.c.obj)
 .bss.m_sar_release
                0x20004824        0x4 mesh/core/libmesh_core_nrf52840_xxAA.a(transport.c.obj)
 .bss.m_sar_session_cache
                0x20004828       0x40 mesh/core/libmesh_core_nrf52840_xxAA.a(transport.c.obj)
 .bss.m_sar_session_cache_head
                0x20004868        0x4 mesh/core/libmesh_core_nrf52840_xxAA.a(transport.c.obj)
 .bss.m_trs_config
                0x2000486c       0x18 mesh/core/libmesh_core_nrf52840_xxAA.a(transport.c.obj)
 .bss.m_trs_sar_sessions
                0x20004884      0x1b0 mesh/core/libmesh_core_nrf52840_xxAA.a(transport.c.obj)
 .bss.m_defrag  0x20004a34       0x1c mesh/core/libmesh_core_nrf52840_xxAA.a(flash_manager_defrag.c.obj)
 .bss.m_token   0x20004a50        0x2 mesh/core/libmesh_core_nrf52840_xxAA.a(flash_manager_defrag.c.obj)
 *fill*         0x20004a52        0x2 
 .bss.mp_recovery_area
                0x20004a54        0x4 mesh/core/libmesh_core_nrf52840_xxAA.a(flash_manager_defrag.c.obj)
 .bss.p_null_ptr.10340
                0x20004a58        0x4 mesh/core/libmesh_core_nrf52840_xxAA.a(flash_manager_defrag.c.obj)
 .bss.m_pool    0x20004a5c     0x1000 mesh/core/libmesh_core_nrf52840_xxAA.a(packet_mgr.c.obj)
 .bss.mp_free_head
                0x20005a5c        0x4 mesh/core/libmesh_core_nrf52840_xxAA.a(packet_mgr.c.obj)
 .bss.m_128buf  0x20005a60       0x10 mesh/core/libmesh_core_nrf52840_xxAA.a(aes_cmac.c.obj)
 .bss.m_subkey1
                0x20005a70       0x10 mesh/core/libmesh_core_nrf52840_xxAA.a(aes_cmac.c.obj)
 .bss.m_subkey2
                0x20005a80       0x10 mesh/core/libmesh_core_nrf52840_xxAA.a(aes_cmac.c.obj)
 .bss.m_cache_full
                0x20005a90        0x1 mesh/core/libmesh_core_nrf52840_xxAA.a(replay_cache.c.obj)
 .bss.m_cache_index
                0x20005a91        0x1 mesh/core/libmesh_core_nrf52840_xxAA.a(replay_cache.c.obj)
 *fill*         0x20005a92        0x2 
 .bss.m_replay_cache
                0x20005a94      0x200 mesh/core/libmesh_core_nrf52840_xxAA.a(replay_cache.c.obj)
 .bss._acDownBuffer
                0x20005c94       0x80 external/rtt/librtt_nrf52840_xxAA.a(SEGGER_RTT.c.obj)
 .bss._acUpBuffer
                0x20005d14      0x400 external/rtt/librtt_nrf52840_xxAA.a(SEGGER_RTT.c.obj)
 .bss.__malloc_free_list
                0x20006114        0x4 c:/a/gcc_arm/6/bin/../lib/gcc/arm-none-eabi/6.3.1/../../../../arm-none-eabi/lib/thumb/v7e-m/fpv4-sp/hard\libg_nano.a(lib_a-nano-mallocr.o)
                0x20006114                __malloc_free_list
 .bss.__malloc_sbrk_start
                0x20006118        0x4 c:/a/gcc_arm/6/bin/../lib/gcc/arm-none-eabi/6.3.1/../../../../arm-none-eabi/lib/thumb/v7e-m/fpv4-sp/hard\libg_nano.a(lib_a-nano-mallocr.o)
                0x20006118                __malloc_sbrk_start
 .bss.heap_end.5239
                0x2000611c        0x4 c:/a/gcc_arm/6/bin/../lib/gcc/arm-none-eabi/6.3.1/../../../../arm-none-eabi/lib/thumb/v7e-m/fpv4-sp/hard\libnosys.a(sbrk.o)
 *(COMMON)
 COMMON         0x20006120        0x8 examples/dfu/CMakeFiles/dfu_no_serial_nrf52840_xxAA_s140_5.0.0-3.alpha.dir/src/main.c.obj
                0x20006120                bank_addr
                0x20006124                rom_length
 COMMON         0x20006128        0xc examples/dfu/CMakeFiles/dfu_no_serial_nrf52840_xxAA_s140_5.0.0-3.alpha.dir/__/nrf_mesh_sdk.c.obj
                0x20006128                nrf_nvic_state
 COMMON         0x20006134        0x4 examples/dfu/CMakeFiles/dfu_no_serial_nrf52840_xxAA_s140_5.0.0-3.alpha.dir/__/__/mesh/dfu/src/nrf_mesh_dfu.c.obj
                0x20006134                m_cmd_handler
 COMMON         0x20006138        0x4 mesh/core/libmesh_core_nrf52840_xxAA.a(nrf_mesh.c.obj)
                0x20006138                m_assertion_handler
 COMMON         0x2000613c       0x78 external/rtt/librtt_nrf52840_xxAA.a(SEGGER_RTT.c.obj)
                0x2000613c                _SEGGER_RTT
 COMMON         0x200061b4        0x4 c:/a/gcc_arm/6/bin/../lib/gcc/arm-none-eabi/6.3.1/../../../../arm-none-eabi/lib/thumb/v7e-m/fpv4-sp/hard\libg_nano.a(lib_a-reent.o)
                0x200061b4                errno
                0x200061b8                . = ALIGN (0x4)
                0x200061b8                __bss_end__ = .

.heap           0x200061b8     0x2000
                0x200061b8                __HeapBase = .
                0x200061b8                __end__ = .
                0x200061b8                PROVIDE (end, .)
 *(.heap*)
 .heap          0x200061b8     0x2000 examples/dfu/CMakeFiles/dfu_no_serial_nrf52840_xxAA_s140_5.0.0-3.alpha.dir/__/__/external/nRF5_SDK_14.2.0_17b948a/components/toolchain/gcc/gcc_startup_nrf52840.S.obj
                0x200081b8                __HeapLimit = .

.stack_dummy    0x200061b8     0x2000
 *(.stack*)
 .stack         0x200061b8     0x2000 examples/dfu/CMakeFiles/dfu_no_serial_nrf52840_xxAA_s140_5.0.0-3.alpha.dir/__/__/external/nRF5_SDK_14.2.0_17b948a/components/toolchain/gcc/gcc_startup_nrf52840.S.obj
                0x2003fd00                __StackTop = (ORIGIN (RAM) + LENGTH (RAM))
                0x2003dd00                __StackLimit = (__StackTop - SIZEOF (.stack_dummy))
                0x2003fd00                PROVIDE (__stack, __StackTop)
                0x00000001                ASSERT ((__StackLimit >= __HeapLimit), region RAM overflowed with stack)
                0x000000c8                DataInitFlashUsed = (__bss_start__ - __data_start__)
                0x0000c1c8                CodeFlashUsed = (__etext - ORIGIN (FLASH))
                0x0000c290                TotalFlashUsed = (CodeFlashUsed + DataInitFlashUsed)
                0x00000001                ASSERT ((TotalFlashUsed <= LENGTH (FLASH)), region FLASH overflowed with .data and user data)
OUTPUT(examples\dfu\dfu_no_serial_nrf52840_xxAA_s140_5.0.0-3.alpha.elf elf32-littlearm)

.ARM.attributes
                0x00000000       0x30
 .ARM.attributes
                0x00000000       0x22 c:/a/gcc_arm/6/bin/../lib/gcc/arm-none-eabi/6.3.1/thumb/v7e-m/fpv4-sp/hard/crti.o
 .ARM.attributes
                0x00000022       0x34 c:/a/gcc_arm/6/bin/../lib/gcc/arm-none-eabi/6.3.1/thumb/v7e-m/fpv4-sp/hard/crtbegin.o
 .ARM.attributes
                0x00000056       0x20 c:/a/gcc_arm/6/bin/../lib/gcc/arm-none-eabi/6.3.1/../../../../arm-none-eabi/lib/thumb/v7e-m/fpv4-sp/hard/crt0.o
 .ARM.attributes
                0x00000076       0x39 examples/dfu/CMakeFiles/dfu_no_serial_nrf52840_xxAA_s140_5.0.0-3.alpha.dir/src/main.c.obj
 .ARM.attributes
                0x000000af       0x39 examples/dfu/CMakeFiles/dfu_no_serial_nrf52840_xxAA_s140_5.0.0-3.alpha.dir/__/nrf_mesh_sdk.c.obj
 .ARM.attributes
                0x000000e8       0x39 examples/dfu/CMakeFiles/dfu_no_serial_nrf52840_xxAA_s140_5.0.0-3.alpha.dir/__/__/mesh/access/src/device_state_manager.c.obj
 .ARM.attributes
                0x00000121       0x39 examples/dfu/CMakeFiles/dfu_no_serial_nrf52840_xxAA_s140_5.0.0-3.alpha.dir/__/__/mesh/prov/src/prov_beacon.c.obj
 .ARM.attributes
                0x0000015a       0x39 examples/dfu/CMakeFiles/dfu_no_serial_nrf52840_xxAA_s140_5.0.0-3.alpha.dir/__/__/mesh/prov/src/prov_utils.c.obj
 .ARM.attributes
                0x00000193       0x39 examples/dfu/CMakeFiles/dfu_no_serial_nrf52840_xxAA_s140_5.0.0-3.alpha.dir/__/__/mesh/prov/src/prov_bearer_adv.c.obj
 .ARM.attributes
                0x000001cc       0x39 examples/dfu/CMakeFiles/dfu_no_serial_nrf52840_xxAA_s140_5.0.0-3.alpha.dir/__/__/mesh/dfu/src/nrf_mesh_dfu.c.obj
 .ARM.attributes
                0x00000205       0x39 examples/dfu/CMakeFiles/dfu_no_serial_nrf52840_xxAA_s140_5.0.0-3.alpha.dir/__/__/external/nRF5_SDK_14.2.0_17b948a/components/toolchain/system_nrf52840.c.obj
 .ARM.attributes
                0x0000023e       0x20 examples/dfu/CMakeFiles/dfu_no_serial_nrf52840_xxAA_s140_5.0.0-3.alpha.dir/__/__/external/nRF5_SDK_14.2.0_17b948a/components/toolchain/gcc/gcc_startup_nrf52840.S.obj
 .ARM.attributes
                0x0000025e       0x39 mesh/core/libmesh_core_nrf52840_xxAA.a(nrf_mesh_configure.c.obj)
 .ARM.attributes
                0x00000297       0x39 mesh/core/libmesh_core_nrf52840_xxAA.a(event.c.obj)
 .ARM.attributes
                0x000002d0       0x39 mesh/core/libmesh_core_nrf52840_xxAA.a(net_state.c.obj)
 .ARM.attributes
                0x00000309       0x39 mesh/core/libmesh_core_nrf52840_xxAA.a(mesh_flash.c.obj)
 .ARM.attributes
                0x00000342       0x39 mesh/core/libmesh_core_nrf52840_xxAA.a(nrf_mesh_utils.c.obj)
 .ARM.attributes
                0x0000037b       0x39 mesh/core/libmesh_core_nrf52840_xxAA.a(nrf_mesh.c.obj)
 .ARM.attributes
                0x000003b4       0x39 mesh/core/libmesh_core_nrf52840_xxAA.a(hal.c.obj)
 .ARM.attributes
                0x000003ed       0x39 mesh/core/libmesh_core_nrf52840_xxAA.a(timer_scheduler.c.obj)
 .ARM.attributes
                0x00000426       0x39 mesh/core/libmesh_core_nrf52840_xxAA.a(timer.c.obj)
 .ARM.attributes
                0x0000045f       0x39 mesh/core/libmesh_core_nrf52840_xxAA.a(ticker.c.obj)
 .ARM.attributes
                0x00000498       0x39 mesh/core/libmesh_core_nrf52840_xxAA.a(rand.c.obj)
 .ARM.attributes
                0x000004d1       0x39 mesh/core/libmesh_core_nrf52840_xxAA.a(timeslot.c.obj)
 .ARM.attributes
                0x0000050a       0x39 mesh/core/libmesh_core_nrf52840_xxAA.a(bearer_event.c.obj)
 .ARM.attributes
                0x00000543       0x39 mesh/core/libmesh_core_nrf52840_xxAA.a(enc.c.obj)
 .ARM.attributes
                0x0000057c       0x39 mesh/core/libmesh_core_nrf52840_xxAA.a(network.c.obj)
 .ARM.attributes
                0x000005b5       0x39 mesh/core/libmesh_core_nrf52840_xxAA.a(msqueue.c.obj)
 .ARM.attributes
                0x000005ee       0x39 mesh/core/libmesh_core_nrf52840_xxAA.a(list.c.obj)
 .ARM.attributes
                0x00000627       0x39 mesh/core/libmesh_core_nrf52840_xxAA.a(log.c.obj)
 .ARM.attributes
                0x00000660       0x39 mesh/core/libmesh_core_nrf52840_xxAA.a(flash_manager.c.obj)
 .ARM.attributes
                0x00000699       0x39 mesh/core/libmesh_core_nrf52840_xxAA.a(ccm_soft.c.obj)
 .ARM.attributes
                0x000006d2       0x39 mesh/core/libmesh_core_nrf52840_xxAA.a(beacon.c.obj)
 .ARM.attributes
                0x0000070b       0x39 mesh/core/libmesh_core_nrf52840_xxAA.a(flash_manager_internal.c.obj)
 .ARM.attributes
                0x00000744       0x39 mesh/core/libmesh_core_nrf52840_xxAA.a(core_tx.c.obj)
 .ARM.attributes
                0x0000077d       0x39 mesh/core/libmesh_core_nrf52840_xxAA.a(heartbeat.c.obj)
 .ARM.attributes
                0x000007b6       0x39 mesh/core/libmesh_core_nrf52840_xxAA.a(net_beacon.c.obj)
 .ARM.attributes
                0x000007ef       0x39 mesh/core/libmesh_core_nrf52840_xxAA.a(core_tx_adv.c.obj)
 .ARM.attributes
                0x00000828       0x39 mesh/core/libmesh_core_nrf52840_xxAA.a(ad_listener.c.obj)
 .ARM.attributes
                0x00000861       0x39 mesh/core/libmesh_core_nrf52840_xxAA.a(ad_type_filter.c.obj)
 .ARM.attributes
                0x0000089a       0x39 mesh/core/libmesh_core_nrf52840_xxAA.a(advertiser.c.obj)
 .ARM.attributes
                0x000008d3       0x39 mesh/core/libmesh_core_nrf52840_xxAA.a(bearer_handler.c.obj)
 .ARM.attributes
                0x0000090c       0x39 mesh/core/libmesh_core_nrf52840_xxAA.a(broadcast.c.obj)
 .ARM.attributes
                0x00000945       0x39 mesh/core/libmesh_core_nrf52840_xxAA.a(filter_engine.c.obj)
 .ARM.attributes
                0x0000097e       0x39 mesh/core/libmesh_core_nrf52840_xxAA.a(radio_config.c.obj)
 .ARM.attributes
                0x000009b7       0x39 mesh/core/libmesh_core_nrf52840_xxAA.a(scanner.c.obj)
 .ARM.attributes
                0x000009f0       0x39 mesh/core/libmesh_core_nrf52840_xxAA.a(internal_event.c.obj)
 .ARM.attributes
                0x00000a29       0x39 mesh/core/libmesh_core_nrf52840_xxAA.a(aes.c.obj)
 .ARM.attributes
                0x00000a62       0x39 mesh/core/libmesh_core_nrf52840_xxAA.a(msg_cache.c.obj)
 .ARM.attributes
                0x00000a9b       0x39 mesh/core/libmesh_core_nrf52840_xxAA.a(transport.c.obj)
 .ARM.attributes
                0x00000ad4       0x39 mesh/core/libmesh_core_nrf52840_xxAA.a(packet_buffer.c.obj)
 .ARM.attributes
                0x00000b0d       0x39 mesh/core/libmesh_core_nrf52840_xxAA.a(flash_manager_defrag.c.obj)
 .ARM.attributes
                0x00000b46       0x39 mesh/core/libmesh_core_nrf52840_xxAA.a(fifo.c.obj)
 .ARM.attributes
                0x00000b7f       0x39 mesh/core/libmesh_core_nrf52840_xxAA.a(nrf_flash.c.obj)
 .ARM.attributes
                0x00000bb8       0x39 mesh/core/libmesh_core_nrf52840_xxAA.a(packet_mgr.c.obj)
 .ARM.attributes
                0x00000bf1       0x39 mesh/core/libmesh_core_nrf52840_xxAA.a(queue.c.obj)
 .ARM.attributes
                0x00000c2a       0x39 mesh/core/libmesh_core_nrf52840_xxAA.a(aes_cmac.c.obj)
 .ARM.attributes
                0x00000c63       0x39 mesh/core/libmesh_core_nrf52840_xxAA.a(nrf_mesh_opt.c.obj)
 .ARM.attributes
                0x00000c9c       0x39 mesh/core/libmesh_core_nrf52840_xxAA.a(replay_cache.c.obj)
 .ARM.attributes
                0x00000cd5       0x39 external/rtt/librtt_nrf52840_xxAA.a(SEGGER_RTT.c.obj)
 .ARM.attributes
                0x00000d0e       0x39 external/rtt/librtt_nrf52840_xxAA.a(SEGGER_RTT_printf.c.obj)
 .ARM.attributes
                0x00000d47       0x34 c:/a/gcc_arm/6/bin/../lib/gcc/arm-none-eabi/6.3.1/../../../../arm-none-eabi/lib/thumb/v7e-m/fpv4-sp/hard\libg_nano.a(lib_a-exit.o)
 .ARM.attributes
                0x00000d7b       0x34 c:/a/gcc_arm/6/bin/../lib/gcc/arm-none-eabi/6.3.1/../../../../arm-none-eabi/lib/thumb/v7e-m/fpv4-sp/hard\libg_nano.a(lib_a-impure.o)
 .ARM.attributes
                0x00000daf       0x34 c:/a/gcc_arm/6/bin/../lib/gcc/arm-none-eabi/6.3.1/../../../../arm-none-eabi/lib/thumb/v7e-m/fpv4-sp/hard\libg_nano.a(lib_a-init.o)
 .ARM.attributes
                0x00000de3       0x34 c:/a/gcc_arm/6/bin/../lib/gcc/arm-none-eabi/6.3.1/../../../../arm-none-eabi/lib/thumb/v7e-m/fpv4-sp/hard\libg_nano.a(lib_a-malloc.o)
 .ARM.attributes
                0x00000e17       0x34 c:/a/gcc_arm/6/bin/../lib/gcc/arm-none-eabi/6.3.1/../../../../arm-none-eabi/lib/thumb/v7e-m/fpv4-sp/hard\libg_nano.a(lib_a-memcmp.o)
 .ARM.attributes
                0x00000e4b       0x34 c:/a/gcc_arm/6/bin/../lib/gcc/arm-none-eabi/6.3.1/../../../../arm-none-eabi/lib/thumb/v7e-m/fpv4-sp/hard\libg_nano.a(lib_a-memcpy-stub.o)
 .ARM.attributes
                0x00000e7f       0x34 c:/a/gcc_arm/6/bin/../lib/gcc/arm-none-eabi/6.3.1/../../../../arm-none-eabi/lib/thumb/v7e-m/fpv4-sp/hard\libg_nano.a(lib_a-memset.o)
 .ARM.attributes
                0x00000eb3       0x34 c:/a/gcc_arm/6/bin/../lib/gcc/arm-none-eabi/6.3.1/../../../../arm-none-eabi/lib/thumb/v7e-m/fpv4-sp/hard\libg_nano.a(lib_a-nano-freer.o)
 .ARM.attributes
                0x00000ee7       0x34 c:/a/gcc_arm/6/bin/../lib/gcc/arm-none-eabi/6.3.1/../../../../arm-none-eabi/lib/thumb/v7e-m/fpv4-sp/hard\libg_nano.a(lib_a-nano-mallocr.o)
 .ARM.attributes
                0x00000f1b       0x34 c:/a/gcc_arm/6/bin/../lib/gcc/arm-none-eabi/6.3.1/../../../../arm-none-eabi/lib/thumb/v7e-m/fpv4-sp/hard\libg_nano.a(lib_a-sbrkr.o)
 .ARM.attributes
                0x00000f4f       0x34 c:/a/gcc_arm/6/bin/../lib/gcc/arm-none-eabi/6.3.1/../../../../arm-none-eabi/lib/thumb/v7e-m/fpv4-sp/hard\libg_nano.a(lib_a-strcpy.o)
 .ARM.attributes
                0x00000f83       0x34 c:/a/gcc_arm/6/bin/../lib/gcc/arm-none-eabi/6.3.1/../../../../arm-none-eabi/lib/thumb/v7e-m/fpv4-sp/hard\libg_nano.a(lib_a-strrchr.o)
 .ARM.attributes
                0x00000fb7       0x34 c:/a/gcc_arm/6/bin/../lib/gcc/arm-none-eabi/6.3.1/../../../../arm-none-eabi/lib/thumb/v7e-m/fpv4-sp/hard\libg_nano.a(lib_a-mlock.o)
 .ARM.attributes
                0x00000feb       0x34 c:/a/gcc_arm/6/bin/../lib/gcc/arm-none-eabi/6.3.1/../../../../arm-none-eabi/lib/thumb/v7e-m/fpv4-sp/hard\libg_nano.a(lib_a-reent.o)
 .ARM.attributes
                0x0000101f       0x34 c:/a/gcc_arm/6/bin/../lib/gcc/arm-none-eabi/6.3.1/../../../../arm-none-eabi/lib/thumb/v7e-m/fpv4-sp/hard\libg_nano.a(lib_a-strchr.o)
 .ARM.attributes
                0x00001053       0x34 c:/a/gcc_arm/6/bin/../lib/gcc/arm-none-eabi/6.3.1/thumb/v7e-m/fpv4-sp/hard/crtend.o
 .ARM.attributes
                0x00001087       0x22 c:/a/gcc_arm/6/bin/../lib/gcc/arm-none-eabi/6.3.1/thumb/v7e-m/fpv4-sp/hard/crtn.o
 .ARM.attributes
                0x000010a9       0x34 c:/a/gcc_arm/6/bin/../lib/gcc/arm-none-eabi/6.3.1/../../../../arm-none-eabi/lib/thumb/v7e-m/fpv4-sp/hard\libnosys.a(sbrk.o)
 .ARM.attributes
                0x000010dd       0x34 c:/a/gcc_arm/6/bin/../lib/gcc/arm-none-eabi/6.3.1/../../../../arm-none-eabi/lib/thumb/v7e-m/fpv4-sp/hard\libnosys.a(_exit.o)

.comment        0x00000000       0x7f
 .comment       0x00000000       0x7f examples/dfu/CMakeFiles/dfu_no_serial_nrf52840_xxAA_s140_5.0.0-3.alpha.dir/src/main.c.obj
                                 0x80 (size before relaxing)
 .comment       0x0000007f       0x80 examples/dfu/CMakeFiles/dfu_no_serial_nrf52840_xxAA_s140_5.0.0-3.alpha.dir/__/nrf_mesh_sdk.c.obj
 .comment       0x0000007f       0x80 examples/dfu/CMakeFiles/dfu_no_serial_nrf52840_xxAA_s140_5.0.0-3.alpha.dir/__/__/mesh/access/src/device_state_manager.c.obj
 .comment       0x0000007f       0x80 examples/dfu/CMakeFiles/dfu_no_serial_nrf52840_xxAA_s140_5.0.0-3.alpha.dir/__/__/mesh/prov/src/prov_beacon.c.obj
 .comment       0x0000007f       0x80 examples/dfu/CMakeFiles/dfu_no_serial_nrf52840_xxAA_s140_5.0.0-3.alpha.dir/__/__/mesh/prov/src/prov_utils.c.obj
 .comment       0x0000007f       0x80 examples/dfu/CMakeFiles/dfu_no_serial_nrf52840_xxAA_s140_5.0.0-3.alpha.dir/__/__/mesh/prov/src/prov_bearer_adv.c.obj
 .comment       0x0000007f       0x80 examples/dfu/CMakeFiles/dfu_no_serial_nrf52840_xxAA_s140_5.0.0-3.alpha.dir/__/__/mesh/dfu/src/nrf_mesh_dfu.c.obj
 .comment       0x0000007f       0x80 examples/dfu/CMakeFiles/dfu_no_serial_nrf52840_xxAA_s140_5.0.0-3.alpha.dir/__/__/external/nRF5_SDK_14.2.0_17b948a/components/toolchain/system_nrf52840.c.obj
 .comment       0x0000007f       0x80 mesh/core/libmesh_core_nrf52840_xxAA.a(nrf_mesh_configure.c.obj)
 .comment       0x0000007f       0x80 mesh/core/libmesh_core_nrf52840_xxAA.a(event.c.obj)
 .comment       0x0000007f       0x80 mesh/core/libmesh_core_nrf52840_xxAA.a(net_state.c.obj)
 .comment       0x0000007f       0x80 mesh/core/libmesh_core_nrf52840_xxAA.a(mesh_flash.c.obj)
 .comment       0x0000007f       0x80 mesh/core/libmesh_core_nrf52840_xxAA.a(nrf_mesh_utils.c.obj)
 .comment       0x0000007f       0x80 mesh/core/libmesh_core_nrf52840_xxAA.a(nrf_mesh.c.obj)
 .comment       0x0000007f       0x80 mesh/core/libmesh_core_nrf52840_xxAA.a(hal.c.obj)
 .comment       0x0000007f       0x80 mesh/core/libmesh_core_nrf52840_xxAA.a(timer_scheduler.c.obj)
 .comment       0x0000007f       0x80 mesh/core/libmesh_core_nrf52840_xxAA.a(timer.c.obj)
 .comment       0x0000007f       0x80 mesh/core/libmesh_core_nrf52840_xxAA.a(ticker.c.obj)
 .comment       0x0000007f       0x80 mesh/core/libmesh_core_nrf52840_xxAA.a(rand.c.obj)
 .comment       0x0000007f       0x80 mesh/core/libmesh_core_nrf52840_xxAA.a(timeslot.c.obj)
 .comment       0x0000007f       0x80 mesh/core/libmesh_core_nrf52840_xxAA.a(bearer_event.c.obj)
 .comment       0x0000007f       0x80 mesh/core/libmesh_core_nrf52840_xxAA.a(enc.c.obj)
 .comment       0x0000007f       0x80 mesh/core/libmesh_core_nrf52840_xxAA.a(network.c.obj)
 .comment       0x0000007f       0x80 mesh/core/libmesh_core_nrf52840_xxAA.a(msqueue.c.obj)
 .comment       0x0000007f       0x80 mesh/core/libmesh_core_nrf52840_xxAA.a(list.c.obj)
 .comment       0x0000007f       0x80 mesh/core/libmesh_core_nrf52840_xxAA.a(log.c.obj)
 .comment       0x0000007f       0x80 mesh/core/libmesh_core_nrf52840_xxAA.a(flash_manager.c.obj)
 .comment       0x0000007f       0x80 mesh/core/libmesh_core_nrf52840_xxAA.a(ccm_soft.c.obj)
 .comment       0x0000007f       0x80 mesh/core/libmesh_core_nrf52840_xxAA.a(beacon.c.obj)
 .comment       0x0000007f       0x80 mesh/core/libmesh_core_nrf52840_xxAA.a(flash_manager_internal.c.obj)
 .comment       0x0000007f       0x80 mesh/core/libmesh_core_nrf52840_xxAA.a(core_tx.c.obj)
 .comment       0x0000007f       0x80 mesh/core/libmesh_core_nrf52840_xxAA.a(heartbeat.c.obj)
 .comment       0x0000007f       0x80 mesh/core/libmesh_core_nrf52840_xxAA.a(net_beacon.c.obj)
 .comment       0x0000007f       0x80 mesh/core/libmesh_core_nrf52840_xxAA.a(core_tx_adv.c.obj)
 .comment       0x0000007f       0x80 mesh/core/libmesh_core_nrf52840_xxAA.a(ad_listener.c.obj)
 .comment       0x0000007f       0x80 mesh/core/libmesh_core_nrf52840_xxAA.a(ad_type_filter.c.obj)
 .comment       0x0000007f       0x80 mesh/core/libmesh_core_nrf52840_xxAA.a(advertiser.c.obj)
 .comment       0x0000007f       0x80 mesh/core/libmesh_core_nrf52840_xxAA.a(bearer_handler.c.obj)
 .comment       0x0000007f       0x80 mesh/core/libmesh_core_nrf52840_xxAA.a(broadcast.c.obj)
 .comment       0x0000007f       0x80 mesh/core/libmesh_core_nrf52840_xxAA.a(filter_engine.c.obj)
 .comment       0x0000007f       0x80 mesh/core/libmesh_core_nrf52840_xxAA.a(radio_config.c.obj)
 .comment       0x0000007f       0x80 mesh/core/libmesh_core_nrf52840_xxAA.a(scanner.c.obj)
 .comment       0x0000007f       0x80 mesh/core/libmesh_core_nrf52840_xxAA.a(internal_event.c.obj)
 .comment       0x0000007f       0x80 mesh/core/libmesh_core_nrf52840_xxAA.a(aes.c.obj)
 .comment       0x0000007f       0x80 mesh/core/libmesh_core_nrf52840_xxAA.a(msg_cache.c.obj)
 .comment       0x0000007f       0x80 mesh/core/libmesh_core_nrf52840_xxAA.a(transport.c.obj)
 .comment       0x0000007f       0x80 mesh/core/libmesh_core_nrf52840_xxAA.a(packet_buffer.c.obj)
 .comment       0x0000007f       0x80 mesh/core/libmesh_core_nrf52840_xxAA.a(flash_manager_defrag.c.obj)
 .comment       0x0000007f       0x80 mesh/core/libmesh_core_nrf52840_xxAA.a(fifo.c.obj)
 .comment       0x0000007f       0x80 mesh/core/libmesh_core_nrf52840_xxAA.a(nrf_flash.c.obj)
 .comment       0x0000007f       0x80 mesh/core/libmesh_core_nrf52840_xxAA.a(packet_mgr.c.obj)
 .comment       0x0000007f       0x80 mesh/core/libmesh_core_nrf52840_xxAA.a(queue.c.obj)
 .comment       0x0000007f       0x80 mesh/core/libmesh_core_nrf52840_xxAA.a(aes_cmac.c.obj)
 .comment       0x0000007f       0x80 mesh/core/libmesh_core_nrf52840_xxAA.a(nrf_mesh_opt.c.obj)
 .comment       0x0000007f       0x80 mesh/core/libmesh_core_nrf52840_xxAA.a(replay_cache.c.obj)
 .comment       0x0000007f       0x80 external/rtt/librtt_nrf52840_xxAA.a(SEGGER_RTT.c.obj)
 .comment       0x0000007f       0x80 external/rtt/librtt_nrf52840_xxAA.a(SEGGER_RTT_printf.c.obj)

.debug_info     0x00000000    0x5983f
 .debug_info    0x00000000     0x2195 examples/dfu/CMakeFiles/dfu_no_serial_nrf52840_xxAA_s140_5.0.0-3.alpha.dir/src/main.c.obj
 .debug_info    0x00002195     0x327b examples/dfu/CMakeFiles/dfu_no_serial_nrf52840_xxAA_s140_5.0.0-3.alpha.dir/__/nrf_mesh_sdk.c.obj
 .debug_info    0x00005410     0x5f3d examples/dfu/CMakeFiles/dfu_no_serial_nrf52840_xxAA_s140_5.0.0-3.alpha.dir/__/__/mesh/access/src/device_state_manager.c.obj
 .debug_info    0x0000b34d     0x19a2 examples/dfu/CMakeFiles/dfu_no_serial_nrf52840_xxAA_s140_5.0.0-3.alpha.dir/__/__/mesh/prov/src/prov_beacon.c.obj
 .debug_info    0x0000ccef     0x2029 examples/dfu/CMakeFiles/dfu_no_serial_nrf52840_xxAA_s140_5.0.0-3.alpha.dir/__/__/mesh/prov/src/prov_utils.c.obj
 .debug_info    0x0000ed18     0x3963 examples/dfu/CMakeFiles/dfu_no_serial_nrf52840_xxAA_s140_5.0.0-3.alpha.dir/__/__/mesh/prov/src/prov_bearer_adv.c.obj
 .debug_info    0x0001267b     0x4e34 examples/dfu/CMakeFiles/dfu_no_serial_nrf52840_xxAA_s140_5.0.0-3.alpha.dir/__/__/mesh/dfu/src/nrf_mesh_dfu.c.obj
 .debug_info    0x000174af     0x12ef examples/dfu/CMakeFiles/dfu_no_serial_nrf52840_xxAA_s140_5.0.0-3.alpha.dir/__/__/external/nRF5_SDK_14.2.0_17b948a/components/toolchain/system_nrf52840.c.obj
 .debug_info    0x0001879e      0xd04 mesh/core/libmesh_core_nrf52840_xxAA.a(nrf_mesh_configure.c.obj)
 .debug_info    0x000194a2     0x1509 mesh/core/libmesh_core_nrf52840_xxAA.a(event.c.obj)
 .debug_info    0x0001a9ab     0x23d7 mesh/core/libmesh_core_nrf52840_xxAA.a(net_state.c.obj)
 .debug_info    0x0001cd82     0x1887 mesh/core/libmesh_core_nrf52840_xxAA.a(mesh_flash.c.obj)
 .debug_info    0x0001e609      0xa87 mesh/core/libmesh_core_nrf52840_xxAA.a(nrf_mesh_utils.c.obj)
 .debug_info    0x0001f090     0x34e6 mesh/core/libmesh_core_nrf52840_xxAA.a(nrf_mesh.c.obj)
 .debug_info    0x00022576      0x51d mesh/core/libmesh_core_nrf52840_xxAA.a(hal.c.obj)
 .debug_info    0x00022a93     0x102a mesh/core/libmesh_core_nrf52840_xxAA.a(timer_scheduler.c.obj)
 .debug_info    0x00023abd      0xd9d mesh/core/libmesh_core_nrf52840_xxAA.a(timer.c.obj)
 .debug_info    0x0002485a      0x20b mesh/core/libmesh_core_nrf52840_xxAA.a(ticker.c.obj)
 .debug_info    0x00024a65      0x40f mesh/core/libmesh_core_nrf52840_xxAA.a(rand.c.obj)
 .debug_info    0x00024e74     0x1a2c mesh/core/libmesh_core_nrf52840_xxAA.a(timeslot.c.obj)
 .debug_info    0x000268a0     0x19fb mesh/core/libmesh_core_nrf52840_xxAA.a(bearer_event.c.obj)
 .debug_info    0x0002829b     0x164f mesh/core/libmesh_core_nrf52840_xxAA.a(enc.c.obj)
 .debug_info    0x000298ea     0x2aee mesh/core/libmesh_core_nrf52840_xxAA.a(network.c.obj)
 .debug_info    0x0002c3d8      0xd08 mesh/core/libmesh_core_nrf52840_xxAA.a(msqueue.c.obj)
 .debug_info    0x0002d0e0      0x48b mesh/core/libmesh_core_nrf52840_xxAA.a(list.c.obj)
 .debug_info    0x0002d56b      0xe28 mesh/core/libmesh_core_nrf52840_xxAA.a(log.c.obj)
 .debug_info    0x0002e393     0x320c mesh/core/libmesh_core_nrf52840_xxAA.a(flash_manager.c.obj)
 .debug_info    0x0003159f     0x10a3 mesh/core/libmesh_core_nrf52840_xxAA.a(ccm_soft.c.obj)
 .debug_info    0x00032642     0x193b mesh/core/libmesh_core_nrf52840_xxAA.a(beacon.c.obj)
 .debug_info    0x00033f7d      0xb99 mesh/core/libmesh_core_nrf52840_xxAA.a(flash_manager_internal.c.obj)
 .debug_info    0x00034b16      0xfb3 mesh/core/libmesh_core_nrf52840_xxAA.a(core_tx.c.obj)
 .debug_info    0x00035ac9     0x219a mesh/core/libmesh_core_nrf52840_xxAA.a(heartbeat.c.obj)
 .debug_info    0x00037c63     0x1511 mesh/core/libmesh_core_nrf52840_xxAA.a(net_beacon.c.obj)
 .debug_info    0x00039174     0x160b mesh/core/libmesh_core_nrf52840_xxAA.a(core_tx_adv.c.obj)
 .debug_info    0x0003a77f     0x1118 mesh/core/libmesh_core_nrf52840_xxAA.a(ad_listener.c.obj)
 .debug_info    0x0003b897      0xfcd mesh/core/libmesh_core_nrf52840_xxAA.a(ad_type_filter.c.obj)
 .debug_info    0x0003c864     0x2448 mesh/core/libmesh_core_nrf52840_xxAA.a(advertiser.c.obj)
 .debug_info    0x0003ecac     0x1a6d mesh/core/libmesh_core_nrf52840_xxAA.a(bearer_handler.c.obj)
 .debug_info    0x00040719     0x1ab4 mesh/core/libmesh_core_nrf52840_xxAA.a(broadcast.c.obj)
 .debug_info    0x000421cd      0xcf4 mesh/core/libmesh_core_nrf52840_xxAA.a(filter_engine.c.obj)
 .debug_info    0x00042ec1      0x9c2 mesh/core/libmesh_core_nrf52840_xxAA.a(radio_config.c.obj)
 .debug_info    0x00043883     0x271f mesh/core/libmesh_core_nrf52840_xxAA.a(scanner.c.obj)
 .debug_info    0x00045fa2      0xc4e mesh/core/libmesh_core_nrf52840_xxAA.a(internal_event.c.obj)
 .debug_info    0x00046bf0      0xbcc mesh/core/libmesh_core_nrf52840_xxAA.a(aes.c.obj)
 .debug_info    0x000477bc      0xa81 mesh/core/libmesh_core_nrf52840_xxAA.a(msg_cache.c.obj)
 .debug_info    0x0004823d     0x54fa mesh/core/libmesh_core_nrf52840_xxAA.a(transport.c.obj)
 .debug_info    0x0004d737     0x1d81 mesh/core/libmesh_core_nrf52840_xxAA.a(packet_buffer.c.obj)
 .debug_info    0x0004f4b8     0x23a1 mesh/core/libmesh_core_nrf52840_xxAA.a(flash_manager_defrag.c.obj)
 .debug_info    0x00051859      0xd0e mesh/core/libmesh_core_nrf52840_xxAA.a(fifo.c.obj)
 .debug_info    0x00052567      0xb63 mesh/core/libmesh_core_nrf52840_xxAA.a(nrf_flash.c.obj)
 .debug_info    0x000530ca     0x115b mesh/core/libmesh_core_nrf52840_xxAA.a(packet_mgr.c.obj)
 .debug_info    0x00054225      0xaf2 mesh/core/libmesh_core_nrf52840_xxAA.a(queue.c.obj)
 .debug_info    0x00054d17      0xe48 mesh/core/libmesh_core_nrf52840_xxAA.a(aes_cmac.c.obj)
 .debug_info    0x00055b5f      0xb1c mesh/core/libmesh_core_nrf52840_xxAA.a(nrf_mesh_opt.c.obj)
 .debug_info    0x0005667b      0xaeb mesh/core/libmesh_core_nrf52840_xxAA.a(replay_cache.c.obj)
 .debug_info    0x00057166     0x1818 external/rtt/librtt_nrf52840_xxAA.a(SEGGER_RTT.c.obj)
 .debug_info    0x0005897e      0xec1 external/rtt/librtt_nrf52840_xxAA.a(SEGGER_RTT_printf.c.obj)

.debug_abbrev   0x00000000     0xc886
 .debug_abbrev  0x00000000      0x450 examples/dfu/CMakeFiles/dfu_no_serial_nrf52840_xxAA_s140_5.0.0-3.alpha.dir/src/main.c.obj
 .debug_abbrev  0x00000450      0x486 examples/dfu/CMakeFiles/dfu_no_serial_nrf52840_xxAA_s140_5.0.0-3.alpha.dir/__/nrf_mesh_sdk.c.obj
 .debug_abbrev  0x000008d6      0x647 examples/dfu/CMakeFiles/dfu_no_serial_nrf52840_xxAA_s140_5.0.0-3.alpha.dir/__/__/mesh/access/src/device_state_manager.c.obj
 .debug_abbrev  0x00000f1d      0x2c8 examples/dfu/CMakeFiles/dfu_no_serial_nrf52840_xxAA_s140_5.0.0-3.alpha.dir/__/__/mesh/prov/src/prov_beacon.c.obj
 .debug_abbrev  0x000011e5      0x3d4 examples/dfu/CMakeFiles/dfu_no_serial_nrf52840_xxAA_s140_5.0.0-3.alpha.dir/__/__/mesh/prov/src/prov_utils.c.obj
 .debug_abbrev  0x000015b9      0x50e examples/dfu/CMakeFiles/dfu_no_serial_nrf52840_xxAA_s140_5.0.0-3.alpha.dir/__/__/mesh/prov/src/prov_bearer_adv.c.obj
 .debug_abbrev  0x00001ac7      0x58d examples/dfu/CMakeFiles/dfu_no_serial_nrf52840_xxAA_s140_5.0.0-3.alpha.dir/__/__/mesh/dfu/src/nrf_mesh_dfu.c.obj
 .debug_abbrev  0x00002054      0x1e2 examples/dfu/CMakeFiles/dfu_no_serial_nrf52840_xxAA_s140_5.0.0-3.alpha.dir/__/__/external/nRF5_SDK_14.2.0_17b948a/components/toolchain/system_nrf52840.c.obj
 .debug_abbrev  0x00002236      0x24b mesh/core/libmesh_core_nrf52840_xxAA.a(nrf_mesh_configure.c.obj)
 .debug_abbrev  0x00002481      0x2a2 mesh/core/libmesh_core_nrf52840_xxAA.a(event.c.obj)
 .debug_abbrev  0x00002723      0x55b mesh/core/libmesh_core_nrf52840_xxAA.a(net_state.c.obj)
 .debug_abbrev  0x00002c7e      0x478 mesh/core/libmesh_core_nrf52840_xxAA.a(mesh_flash.c.obj)
 .debug_abbrev  0x000030f6      0x25a mesh/core/libmesh_core_nrf52840_xxAA.a(nrf_mesh_utils.c.obj)
 .debug_abbrev  0x00003350      0x467 mesh/core/libmesh_core_nrf52840_xxAA.a(nrf_mesh.c.obj)
 .debug_abbrev  0x000037b7      0x1e8 mesh/core/libmesh_core_nrf52840_xxAA.a(hal.c.obj)
 .debug_abbrev  0x0000399f      0x3bf mesh/core/libmesh_core_nrf52840_xxAA.a(timer_scheduler.c.obj)
 .debug_abbrev  0x00003d5e      0x346 mesh/core/libmesh_core_nrf52840_xxAA.a(timer.c.obj)
 .debug_abbrev  0x000040a4      0x152 mesh/core/libmesh_core_nrf52840_xxAA.a(ticker.c.obj)
 .debug_abbrev  0x000041f6      0x1d2 mesh/core/libmesh_core_nrf52840_xxAA.a(rand.c.obj)
 .debug_abbrev  0x000043c8      0x4db mesh/core/libmesh_core_nrf52840_xxAA.a(timeslot.c.obj)
 .debug_abbrev  0x000048a3      0x4b3 mesh/core/libmesh_core_nrf52840_xxAA.a(bearer_event.c.obj)
 .debug_abbrev  0x00004d56      0x37e mesh/core/libmesh_core_nrf52840_xxAA.a(enc.c.obj)
 .debug_abbrev  0x000050d4      0x52c mesh/core/libmesh_core_nrf52840_xxAA.a(network.c.obj)
 .debug_abbrev  0x00005600      0x29c mesh/core/libmesh_core_nrf52840_xxAA.a(msqueue.c.obj)
 .debug_abbrev  0x0000589c      0x18e mesh/core/libmesh_core_nrf52840_xxAA.a(list.c.obj)
 .debug_abbrev  0x00005a2a      0x24e mesh/core/libmesh_core_nrf52840_xxAA.a(log.c.obj)
 .debug_abbrev  0x00005c78      0x5c2 mesh/core/libmesh_core_nrf52840_xxAA.a(flash_manager.c.obj)
 .debug_abbrev  0x0000623a      0x2b3 mesh/core/libmesh_core_nrf52840_xxAA.a(ccm_soft.c.obj)
 .debug_abbrev  0x000064ed      0x38c mesh/core/libmesh_core_nrf52840_xxAA.a(beacon.c.obj)
 .debug_abbrev  0x00006879      0x28a mesh/core/libmesh_core_nrf52840_xxAA.a(flash_manager_internal.c.obj)
 .debug_abbrev  0x00006b03      0x32c mesh/core/libmesh_core_nrf52840_xxAA.a(core_tx.c.obj)
 .debug_abbrev  0x00006e2f      0x4c9 mesh/core/libmesh_core_nrf52840_xxAA.a(heartbeat.c.obj)
 .debug_abbrev  0x000072f8      0x3cc mesh/core/libmesh_core_nrf52840_xxAA.a(net_beacon.c.obj)
 .debug_abbrev  0x000076c4      0x32c mesh/core/libmesh_core_nrf52840_xxAA.a(core_tx_adv.c.obj)
 .debug_abbrev  0x000079f0      0x341 mesh/core/libmesh_core_nrf52840_xxAA.a(ad_listener.c.obj)
 .debug_abbrev  0x00007d31      0x377 mesh/core/libmesh_core_nrf52840_xxAA.a(ad_type_filter.c.obj)
 .debug_abbrev  0x000080a8      0x4fe mesh/core/libmesh_core_nrf52840_xxAA.a(advertiser.c.obj)
 .debug_abbrev  0x000085a6      0x40d mesh/core/libmesh_core_nrf52840_xxAA.a(bearer_handler.c.obj)
 .debug_abbrev  0x000089b3      0x3b4 mesh/core/libmesh_core_nrf52840_xxAA.a(broadcast.c.obj)
 .debug_abbrev  0x00008d67      0x299 mesh/core/libmesh_core_nrf52840_xxAA.a(filter_engine.c.obj)
 .debug_abbrev  0x00009000      0x1d9 mesh/core/libmesh_core_nrf52840_xxAA.a(radio_config.c.obj)
 .debug_abbrev  0x000091d9      0x582 mesh/core/libmesh_core_nrf52840_xxAA.a(scanner.c.obj)
 .debug_abbrev  0x0000975b      0x26d mesh/core/libmesh_core_nrf52840_xxAA.a(internal_event.c.obj)
 .debug_abbrev  0x000099c8      0x264 mesh/core/libmesh_core_nrf52840_xxAA.a(aes.c.obj)
 .debug_abbrev  0x00009c2c      0x25d mesh/core/libmesh_core_nrf52840_xxAA.a(msg_cache.c.obj)
 .debug_abbrev  0x00009e89      0x629 mesh/core/libmesh_core_nrf52840_xxAA.a(transport.c.obj)
 .debug_abbrev  0x0000a4b2      0x49a mesh/core/libmesh_core_nrf52840_xxAA.a(packet_buffer.c.obj)
 .debug_abbrev  0x0000a94c      0x558 mesh/core/libmesh_core_nrf52840_xxAA.a(flash_manager_defrag.c.obj)
 .debug_abbrev  0x0000aea4      0x301 mesh/core/libmesh_core_nrf52840_xxAA.a(fifo.c.obj)
 .debug_abbrev  0x0000b1a5      0x21f mesh/core/libmesh_core_nrf52840_xxAA.a(nrf_flash.c.obj)
 .debug_abbrev  0x0000b3c4      0x3d1 mesh/core/libmesh_core_nrf52840_xxAA.a(packet_mgr.c.obj)
 .debug_abbrev  0x0000b795      0x227 mesh/core/libmesh_core_nrf52840_xxAA.a(queue.c.obj)
 .debug_abbrev  0x0000b9bc      0x332 mesh/core/libmesh_core_nrf52840_xxAA.a(aes_cmac.c.obj)
 .debug_abbrev  0x0000bcee      0x24a mesh/core/libmesh_core_nrf52840_xxAA.a(nrf_mesh_opt.c.obj)
 .debug_abbrev  0x0000bf38      0x277 mesh/core/libmesh_core_nrf52840_xxAA.a(replay_cache.c.obj)
 .debug_abbrev  0x0000c1af      0x3a9 external/rtt/librtt_nrf52840_xxAA.a(SEGGER_RTT.c.obj)
 .debug_abbrev  0x0000c558      0x32e external/rtt/librtt_nrf52840_xxAA.a(SEGGER_RTT_printf.c.obj)

.debug_loc      0x00000000    0x1900b
 .debug_loc     0x00000000      0x30e examples/dfu/CMakeFiles/dfu_no_serial_nrf52840_xxAA_s140_5.0.0-3.alpha.dir/src/main.c.obj
 .debug_loc     0x0000030e      0x30c examples/dfu/CMakeFiles/dfu_no_serial_nrf52840_xxAA_s140_5.0.0-3.alpha.dir/__/nrf_mesh_sdk.c.obj
 .debug_loc     0x0000061a     0x3b5d examples/dfu/CMakeFiles/dfu_no_serial_nrf52840_xxAA_s140_5.0.0-3.alpha.dir/__/__/mesh/access/src/device_state_manager.c.obj
 .debug_loc     0x00004177      0x1cd examples/dfu/CMakeFiles/dfu_no_serial_nrf52840_xxAA_s140_5.0.0-3.alpha.dir/__/__/mesh/prov/src/prov_beacon.c.obj
 .debug_loc     0x00004344      0x42c examples/dfu/CMakeFiles/dfu_no_serial_nrf52840_xxAA_s140_5.0.0-3.alpha.dir/__/__/mesh/prov/src/prov_utils.c.obj
 .debug_loc     0x00004770     0x175a examples/dfu/CMakeFiles/dfu_no_serial_nrf52840_xxAA_s140_5.0.0-3.alpha.dir/__/__/mesh/prov/src/prov_bearer_adv.c.obj
 .debug_loc     0x00005eca      0xc38 examples/dfu/CMakeFiles/dfu_no_serial_nrf52840_xxAA_s140_5.0.0-3.alpha.dir/__/__/mesh/dfu/src/nrf_mesh_dfu.c.obj
 .debug_loc     0x00006b02       0x2c mesh/core/libmesh_core_nrf52840_xxAA.a(nrf_mesh_configure.c.obj)
 .debug_loc     0x00006b2e      0x136 mesh/core/libmesh_core_nrf52840_xxAA.a(event.c.obj)
 .debug_loc     0x00006c64      0x758 mesh/core/libmesh_core_nrf52840_xxAA.a(net_state.c.obj)
 .debug_loc     0x000073bc      0xa35 mesh/core/libmesh_core_nrf52840_xxAA.a(mesh_flash.c.obj)
 .debug_loc     0x00007df1      0x11c mesh/core/libmesh_core_nrf52840_xxAA.a(nrf_mesh_utils.c.obj)
 .debug_loc     0x00007f0d      0x4d7 mesh/core/libmesh_core_nrf52840_xxAA.a(nrf_mesh.c.obj)
 .debug_loc     0x000083e4       0x63 mesh/core/libmesh_core_nrf52840_xxAA.a(hal.c.obj)
 .debug_loc     0x00008447      0x3b9 mesh/core/libmesh_core_nrf52840_xxAA.a(timer_scheduler.c.obj)
 .debug_loc     0x00008800      0x60f mesh/core/libmesh_core_nrf52840_xxAA.a(timer.c.obj)
 .debug_loc     0x00008e0f      0x190 mesh/core/libmesh_core_nrf52840_xxAA.a(rand.c.obj)
 .debug_loc     0x00008f9f      0x370 mesh/core/libmesh_core_nrf52840_xxAA.a(timeslot.c.obj)
 .debug_loc     0x0000930f      0x647 mesh/core/libmesh_core_nrf52840_xxAA.a(bearer_event.c.obj)
 .debug_loc     0x00009956      0x960 mesh/core/libmesh_core_nrf52840_xxAA.a(enc.c.obj)
 .debug_loc     0x0000a2b6     0x10e7 mesh/core/libmesh_core_nrf52840_xxAA.a(network.c.obj)
 .debug_loc     0x0000b39d      0x3e5 mesh/core/libmesh_core_nrf52840_xxAA.a(msqueue.c.obj)
 .debug_loc     0x0000b782      0x541 mesh/core/libmesh_core_nrf52840_xxAA.a(list.c.obj)
 .debug_loc     0x0000bcc3      0x348 mesh/core/libmesh_core_nrf52840_xxAA.a(log.c.obj)
 .debug_loc     0x0000c00b     0x1784 mesh/core/libmesh_core_nrf52840_xxAA.a(flash_manager.c.obj)
 .debug_loc     0x0000d78f      0x371 mesh/core/libmesh_core_nrf52840_xxAA.a(ccm_soft.c.obj)
 .debug_loc     0x0000db00      0x527 mesh/core/libmesh_core_nrf52840_xxAA.a(beacon.c.obj)
 .debug_loc     0x0000e027      0x130 mesh/core/libmesh_core_nrf52840_xxAA.a(flash_manager_internal.c.obj)
 .debug_loc     0x0000e157      0x639 mesh/core/libmesh_core_nrf52840_xxAA.a(core_tx.c.obj)
 .debug_loc     0x0000e790      0x644 mesh/core/libmesh_core_nrf52840_xxAA.a(heartbeat.c.obj)
 .debug_loc     0x0000edd4      0x3fe mesh/core/libmesh_core_nrf52840_xxAA.a(net_beacon.c.obj)
 .debug_loc     0x0000f1d2      0x3fa mesh/core/libmesh_core_nrf52840_xxAA.a(core_tx_adv.c.obj)
 .debug_loc     0x0000f5cc      0x42e mesh/core/libmesh_core_nrf52840_xxAA.a(ad_listener.c.obj)
 .debug_loc     0x0000f9fa      0x3b9 mesh/core/libmesh_core_nrf52840_xxAA.a(ad_type_filter.c.obj)
 .debug_loc     0x0000fdb3      0xedd mesh/core/libmesh_core_nrf52840_xxAA.a(advertiser.c.obj)
 .debug_loc     0x00010c90      0x42d mesh/core/libmesh_core_nrf52840_xxAA.a(bearer_handler.c.obj)
 .debug_loc     0x000110bd      0x377 mesh/core/libmesh_core_nrf52840_xxAA.a(broadcast.c.obj)
 .debug_loc     0x00011434      0x115 mesh/core/libmesh_core_nrf52840_xxAA.a(filter_engine.c.obj)
 .debug_loc     0x00011549      0x28c mesh/core/libmesh_core_nrf52840_xxAA.a(radio_config.c.obj)
 .debug_loc     0x000117d5      0x4f6 mesh/core/libmesh_core_nrf52840_xxAA.a(scanner.c.obj)
 .debug_loc     0x00011ccb       0xc9 mesh/core/libmesh_core_nrf52840_xxAA.a(internal_event.c.obj)
 .debug_loc     0x00011d94       0x89 mesh/core/libmesh_core_nrf52840_xxAA.a(aes.c.obj)
 .debug_loc     0x00011e1d      0x10d mesh/core/libmesh_core_nrf52840_xxAA.a(msg_cache.c.obj)
 .debug_loc     0x00011f2a     0x28ef mesh/core/libmesh_core_nrf52840_xxAA.a(transport.c.obj)
 .debug_loc     0x00014819      0xf93 mesh/core/libmesh_core_nrf52840_xxAA.a(packet_buffer.c.obj)
 .debug_loc     0x000157ac      0x8ee mesh/core/libmesh_core_nrf52840_xxAA.a(flash_manager_defrag.c.obj)
 .debug_loc     0x0001609a      0x517 mesh/core/libmesh_core_nrf52840_xxAA.a(fifo.c.obj)
 .debug_loc     0x000165b1      0x17a mesh/core/libmesh_core_nrf52840_xxAA.a(nrf_flash.c.obj)
 .debug_loc     0x0001672b      0x6d7 mesh/core/libmesh_core_nrf52840_xxAA.a(packet_mgr.c.obj)
 .debug_loc     0x00016e02      0x186 mesh/core/libmesh_core_nrf52840_xxAA.a(queue.c.obj)
 .debug_loc     0x00016f88      0x3f8 mesh/core/libmesh_core_nrf52840_xxAA.a(aes_cmac.c.obj)
 .debug_loc     0x00017380      0x194 mesh/core/libmesh_core_nrf52840_xxAA.a(nrf_mesh_opt.c.obj)
 .debug_loc     0x00017514      0x1c6 mesh/core/libmesh_core_nrf52840_xxAA.a(replay_cache.c.obj)
 .debug_loc     0x000176da     0x1222 external/rtt/librtt_nrf52840_xxAA.a(SEGGER_RTT.c.obj)
 .debug_loc     0x000188fc      0x70f external/rtt/librtt_nrf52840_xxAA.a(SEGGER_RTT_printf.c.obj)

.debug_aranges  0x00000000     0x18a8
 .debug_aranges
                0x00000000       0x30 examples/dfu/CMakeFiles/dfu_no_serial_nrf52840_xxAA_s140_5.0.0-3.alpha.dir/src/main.c.obj
 .debug_aranges
                0x00000030       0x80 examples/dfu/CMakeFiles/dfu_no_serial_nrf52840_xxAA_s140_5.0.0-3.alpha.dir/__/nrf_mesh_sdk.c.obj
 .debug_aranges
                0x000000b0      0x300 examples/dfu/CMakeFiles/dfu_no_serial_nrf52840_xxAA_s140_5.0.0-3.alpha.dir/__/__/mesh/access/src/device_state_manager.c.obj
 .debug_aranges
                0x000003b0       0x38 examples/dfu/CMakeFiles/dfu_no_serial_nrf52840_xxAA_s140_5.0.0-3.alpha.dir/__/__/mesh/prov/src/prov_beacon.c.obj
 .debug_aranges
                0x000003e8       0x70 examples/dfu/CMakeFiles/dfu_no_serial_nrf52840_xxAA_s140_5.0.0-3.alpha.dir/__/__/mesh/prov/src/prov_utils.c.obj
 .debug_aranges
                0x00000458       0xc8 examples/dfu/CMakeFiles/dfu_no_serial_nrf52840_xxAA_s140_5.0.0-3.alpha.dir/__/__/mesh/prov/src/prov_bearer_adv.c.obj
 .debug_aranges
                0x00000520       0xb0 examples/dfu/CMakeFiles/dfu_no_serial_nrf52840_xxAA_s140_5.0.0-3.alpha.dir/__/__/mesh/dfu/src/nrf_mesh_dfu.c.obj
 .debug_aranges
                0x000005d0       0x30 examples/dfu/CMakeFiles/dfu_no_serial_nrf52840_xxAA_s140_5.0.0-3.alpha.dir/__/__/external/nRF5_SDK_14.2.0_17b948a/components/toolchain/system_nrf52840.c.obj
 .debug_aranges
                0x00000600       0x30 mesh/core/libmesh_core_nrf52840_xxAA.a(nrf_mesh_configure.c.obj)
 .debug_aranges
                0x00000630       0x30 mesh/core/libmesh_core_nrf52840_xxAA.a(event.c.obj)
 .debug_aranges
                0x00000660       0xc0 mesh/core/libmesh_core_nrf52840_xxAA.a(net_state.c.obj)
 .debug_aranges
                0x00000720       0x60 mesh/core/libmesh_core_nrf52840_xxAA.a(mesh_flash.c.obj)
 .debug_aranges
                0x00000780       0x30 mesh/core/libmesh_core_nrf52840_xxAA.a(nrf_mesh_utils.c.obj)
 .debug_aranges
                0x000007b0       0x88 mesh/core/libmesh_core_nrf52840_xxAA.a(nrf_mesh.c.obj)
 .debug_aranges
                0x00000838       0x30 mesh/core/libmesh_core_nrf52840_xxAA.a(hal.c.obj)
 .debug_aranges
                0x00000868       0x68 mesh/core/libmesh_core_nrf52840_xxAA.a(timer_scheduler.c.obj)
 .debug_aranges
                0x000008d0       0x60 mesh/core/libmesh_core_nrf52840_xxAA.a(timer.c.obj)
 .debug_aranges
                0x00000930       0x30 mesh/core/libmesh_core_nrf52840_xxAA.a(ticker.c.obj)
 .debug_aranges
                0x00000960       0x40 mesh/core/libmesh_core_nrf52840_xxAA.a(rand.c.obj)
 .debug_aranges
                0x000009a0       0xb8 mesh/core/libmesh_core_nrf52840_xxAA.a(timeslot.c.obj)
 .debug_aranges
                0x00000a58       0x98 mesh/core/libmesh_core_nrf52840_xxAA.a(bearer_event.c.obj)
 .debug_aranges
                0x00000af0       0x70 mesh/core/libmesh_core_nrf52840_xxAA.a(enc.c.obj)
 .debug_aranges
                0x00000b60       0x60 mesh/core/libmesh_core_nrf52840_xxAA.a(network.c.obj)
 .debug_aranges
                0x00000bc0       0x48 mesh/core/libmesh_core_nrf52840_xxAA.a(msqueue.c.obj)
 .debug_aranges
                0x00000c08       0x48 mesh/core/libmesh_core_nrf52840_xxAA.a(list.c.obj)
 .debug_aranges
                0x00000c50       0x48 mesh/core/libmesh_core_nrf52840_xxAA.a(log.c.obj)
 .debug_aranges
                0x00000c98      0x100 mesh/core/libmesh_core_nrf52840_xxAA.a(flash_manager.c.obj)
 .debug_aranges
                0x00000d98       0x50 mesh/core/libmesh_core_nrf52840_xxAA.a(ccm_soft.c.obj)
 .debug_aranges
                0x00000de8       0x38 mesh/core/libmesh_core_nrf52840_xxAA.a(beacon.c.obj)
 .debug_aranges
                0x00000e20       0x20 mesh/core/libmesh_core_nrf52840_xxAA.a(flash_manager_internal.c.obj)
 .debug_aranges
                0x00000e40       0x58 mesh/core/libmesh_core_nrf52840_xxAA.a(core_tx.c.obj)
 .debug_aranges
                0x00000e98       0x70 mesh/core/libmesh_core_nrf52840_xxAA.a(heartbeat.c.obj)
 .debug_aranges
                0x00000f08       0x48 mesh/core/libmesh_core_nrf52840_xxAA.a(net_beacon.c.obj)
 .debug_aranges
                0x00000f50       0x68 mesh/core/libmesh_core_nrf52840_xxAA.a(core_tx_adv.c.obj)
 .debug_aranges
                0x00000fb8       0x30 mesh/core/libmesh_core_nrf52840_xxAA.a(ad_listener.c.obj)
 .debug_aranges
                0x00000fe8       0x58 mesh/core/libmesh_core_nrf52840_xxAA.a(ad_type_filter.c.obj)
 .debug_aranges
                0x00001040       0xb0 mesh/core/libmesh_core_nrf52840_xxAA.a(advertiser.c.obj)
 .debug_aranges
                0x000010f0       0x70 mesh/core/libmesh_core_nrf52840_xxAA.a(bearer_handler.c.obj)
 .debug_aranges
                0x00001160       0x30 mesh/core/libmesh_core_nrf52840_xxAA.a(broadcast.c.obj)
 .debug_aranges
                0x00001190       0x38 mesh/core/libmesh_core_nrf52840_xxAA.a(filter_engine.c.obj)
 .debug_aranges
                0x000011c8       0x40 mesh/core/libmesh_core_nrf52840_xxAA.a(radio_config.c.obj)
 .debug_aranges
                0x00001208       0xe0 mesh/core/libmesh_core_nrf52840_xxAA.a(scanner.c.obj)
 .debug_aranges
                0x000012e8       0x30 mesh/core/libmesh_core_nrf52840_xxAA.a(internal_event.c.obj)
 .debug_aranges
                0x00001318       0x28 mesh/core/libmesh_core_nrf52840_xxAA.a(aes.c.obj)
 .debug_aranges
                0x00001340       0x38 mesh/core/libmesh_core_nrf52840_xxAA.a(msg_cache.c.obj)
 .debug_aranges
                0x00001378      0x120 mesh/core/libmesh_core_nrf52840_xxAA.a(transport.c.obj)
 .debug_aranges
                0x00001498       0x80 mesh/core/libmesh_core_nrf52840_xxAA.a(packet_buffer.c.obj)
 .debug_aranges
                0x00001518       0xc8 mesh/core/libmesh_core_nrf52840_xxAA.a(flash_manager_defrag.c.obj)
 .debug_aranges
                0x000015e0       0x60 mesh/core/libmesh_core_nrf52840_xxAA.a(fifo.c.obj)
 .debug_aranges
                0x00001640       0x30 mesh/core/libmesh_core_nrf52840_xxAA.a(nrf_flash.c.obj)
 .debug_aranges
                0x00001670       0x48 mesh/core/libmesh_core_nrf52840_xxAA.a(packet_mgr.c.obj)
 .debug_aranges
                0x000016b8       0x38 mesh/core/libmesh_core_nrf52840_xxAA.a(queue.c.obj)
 .debug_aranges
                0x000016f0       0x38 mesh/core/libmesh_core_nrf52840_xxAA.a(aes_cmac.c.obj)
 .debug_aranges
                0x00001728       0x28 mesh/core/libmesh_core_nrf52840_xxAA.a(nrf_mesh_opt.c.obj)
 .debug_aranges
                0x00001750       0x48 mesh/core/libmesh_core_nrf52840_xxAA.a(replay_cache.c.obj)
 .debug_aranges
                0x00001798       0xd8 external/rtt/librtt_nrf52840_xxAA.a(SEGGER_RTT.c.obj)
 .debug_aranges
                0x00001870       0x38 external/rtt/librtt_nrf52840_xxAA.a(SEGGER_RTT_printf.c.obj)

.debug_ranges   0x00000000     0x66a8
 .debug_ranges  0x00000000       0xe0 examples/dfu/CMakeFiles/dfu_no_serial_nrf52840_xxAA_s140_5.0.0-3.alpha.dir/src/main.c.obj
 .debug_ranges  0x000000e0      0x1a8 examples/dfu/CMakeFiles/dfu_no_serial_nrf52840_xxAA_s140_5.0.0-3.alpha.dir/__/nrf_mesh_sdk.c.obj
 .debug_ranges  0x00000288      0xac8 examples/dfu/CMakeFiles/dfu_no_serial_nrf52840_xxAA_s140_5.0.0-3.alpha.dir/__/__/mesh/access/src/device_state_manager.c.obj
 .debug_ranges  0x00000d50       0x88 examples/dfu/CMakeFiles/dfu_no_serial_nrf52840_xxAA_s140_5.0.0-3.alpha.dir/__/__/mesh/prov/src/prov_beacon.c.obj
 .debug_ranges  0x00000dd8       0xb8 examples/dfu/CMakeFiles/dfu_no_serial_nrf52840_xxAA_s140_5.0.0-3.alpha.dir/__/__/mesh/prov/src/prov_utils.c.obj
 .debug_ranges  0x00000e90      0x6c8 examples/dfu/CMakeFiles/dfu_no_serial_nrf52840_xxAA_s140_5.0.0-3.alpha.dir/__/__/mesh/prov/src/prov_bearer_adv.c.obj
 .debug_ranges  0x00001558      0x480 examples/dfu/CMakeFiles/dfu_no_serial_nrf52840_xxAA_s140_5.0.0-3.alpha.dir/__/__/mesh/dfu/src/nrf_mesh_dfu.c.obj
 .debug_ranges  0x000019d8       0x20 examples/dfu/CMakeFiles/dfu_no_serial_nrf52840_xxAA_s140_5.0.0-3.alpha.dir/__/__/external/nRF5_SDK_14.2.0_17b948a/components/toolchain/system_nrf52840.c.obj
 .debug_ranges  0x000019f8       0x20 mesh/core/libmesh_core_nrf52840_xxAA.a(nrf_mesh_configure.c.obj)
 .debug_ranges  0x00001a18       0x68 mesh/core/libmesh_core_nrf52840_xxAA.a(event.c.obj)
 .debug_ranges  0x00001a80      0x248 mesh/core/libmesh_core_nrf52840_xxAA.a(net_state.c.obj)
 .debug_ranges  0x00001cc8      0x368 mesh/core/libmesh_core_nrf52840_xxAA.a(mesh_flash.c.obj)
 .debug_ranges  0x00002030       0x38 mesh/core/libmesh_core_nrf52840_xxAA.a(nrf_mesh_utils.c.obj)
 .debug_ranges  0x00002068       0xf0 mesh/core/libmesh_core_nrf52840_xxAA.a(nrf_mesh.c.obj)
 .debug_ranges  0x00002158       0x20 mesh/core/libmesh_core_nrf52840_xxAA.a(hal.c.obj)
 .debug_ranges  0x00002178      0x260 mesh/core/libmesh_core_nrf52840_xxAA.a(timer_scheduler.c.obj)
 .debug_ranges  0x000023d8      0x108 mesh/core/libmesh_core_nrf52840_xxAA.a(timer.c.obj)
 .debug_ranges  0x000024e0       0x20 mesh/core/libmesh_core_nrf52840_xxAA.a(ticker.c.obj)
 .debug_ranges  0x00002500       0x48 mesh/core/libmesh_core_nrf52840_xxAA.a(rand.c.obj)
 .debug_ranges  0x00002548      0x188 mesh/core/libmesh_core_nrf52840_xxAA.a(timeslot.c.obj)
 .debug_ranges  0x000026d0      0x250 mesh/core/libmesh_core_nrf52840_xxAA.a(bearer_event.c.obj)
 .debug_ranges  0x00002920      0x120 mesh/core/libmesh_core_nrf52840_xxAA.a(enc.c.obj)
 .debug_ranges  0x00002a40      0x518 mesh/core/libmesh_core_nrf52840_xxAA.a(network.c.obj)
 .debug_ranges  0x00002f58      0x158 mesh/core/libmesh_core_nrf52840_xxAA.a(msqueue.c.obj)
 .debug_ranges  0x000030b0      0x1b0 mesh/core/libmesh_core_nrf52840_xxAA.a(list.c.obj)
 .debug_ranges  0x00003260       0x38 mesh/core/libmesh_core_nrf52840_xxAA.a(log.c.obj)
 .debug_ranges  0x00003298      0x748 mesh/core/libmesh_core_nrf52840_xxAA.a(flash_manager.c.obj)
 .debug_ranges  0x000039e0       0x40 mesh/core/libmesh_core_nrf52840_xxAA.a(ccm_soft.c.obj)
 .debug_ranges  0x00003a20       0xd0 mesh/core/libmesh_core_nrf52840_xxAA.a(beacon.c.obj)
 .debug_ranges  0x00003af0       0x68 mesh/core/libmesh_core_nrf52840_xxAA.a(flash_manager_internal.c.obj)
 .debug_ranges  0x00003b58      0x270 mesh/core/libmesh_core_nrf52840_xxAA.a(core_tx.c.obj)
 .debug_ranges  0x00003dc8      0x240 mesh/core/libmesh_core_nrf52840_xxAA.a(heartbeat.c.obj)
 .debug_ranges  0x00004008       0xf0 mesh/core/libmesh_core_nrf52840_xxAA.a(net_beacon.c.obj)
 .debug_ranges  0x000040f8       0xe8 mesh/core/libmesh_core_nrf52840_xxAA.a(core_tx_adv.c.obj)
 .debug_ranges  0x000041e0       0xf8 mesh/core/libmesh_core_nrf52840_xxAA.a(ad_listener.c.obj)
 .debug_ranges  0x000042d8       0xe8 mesh/core/libmesh_core_nrf52840_xxAA.a(ad_type_filter.c.obj)
 .debug_ranges  0x000043c0      0x4a8 mesh/core/libmesh_core_nrf52840_xxAA.a(advertiser.c.obj)
 .debug_ranges  0x00004868      0x290 mesh/core/libmesh_core_nrf52840_xxAA.a(bearer_handler.c.obj)
 .debug_ranges  0x00004af8      0x130 mesh/core/libmesh_core_nrf52840_xxAA.a(broadcast.c.obj)
 .debug_ranges  0x00004c28       0x90 mesh/core/libmesh_core_nrf52840_xxAA.a(filter_engine.c.obj)
 .debug_ranges  0x00004cb8      0x100 mesh/core/libmesh_core_nrf52840_xxAA.a(radio_config.c.obj)
 .debug_ranges  0x00004db8      0x2c0 mesh/core/libmesh_core_nrf52840_xxAA.a(scanner.c.obj)
 .debug_ranges  0x00005078       0x20 mesh/core/libmesh_core_nrf52840_xxAA.a(internal_event.c.obj)
 .debug_ranges  0x00005098       0x18 mesh/core/libmesh_core_nrf52840_xxAA.a(aes.c.obj)
 .debug_ranges  0x000050b0       0x48 mesh/core/libmesh_core_nrf52840_xxAA.a(msg_cache.c.obj)
 .debug_ranges  0x000050f8      0x918 mesh/core/libmesh_core_nrf52840_xxAA.a(transport.c.obj)
 .debug_ranges  0x00005a10      0x3b8 mesh/core/libmesh_core_nrf52840_xxAA.a(packet_buffer.c.obj)
 .debug_ranges  0x00005dc8      0x368 mesh/core/libmesh_core_nrf52840_xxAA.a(flash_manager_defrag.c.obj)
 .debug_ranges  0x00006130       0xb0 mesh/core/libmesh_core_nrf52840_xxAA.a(fifo.c.obj)
 .debug_ranges  0x000061e0       0x38 mesh/core/libmesh_core_nrf52840_xxAA.a(nrf_flash.c.obj)
 .debug_ranges  0x00006218      0x160 mesh/core/libmesh_core_nrf52840_xxAA.a(packet_mgr.c.obj)
 .debug_ranges  0x00006378       0xa0 mesh/core/libmesh_core_nrf52840_xxAA.a(queue.c.obj)
 .debug_ranges  0x00006418       0x98 mesh/core/libmesh_core_nrf52840_xxAA.a(aes_cmac.c.obj)
 .debug_ranges  0x000064b0       0x18 mesh/core/libmesh_core_nrf52840_xxAA.a(nrf_mesh_opt.c.obj)
 .debug_ranges  0x000064c8       0x68 mesh/core/libmesh_core_nrf52840_xxAA.a(replay_cache.c.obj)
 .debug_ranges  0x00006530      0x130 external/rtt/librtt_nrf52840_xxAA.a(SEGGER_RTT.c.obj)
 .debug_ranges  0x00006660       0x48 external/rtt/librtt_nrf52840_xxAA.a(SEGGER_RTT_printf.c.obj)

.debug_line     0x00000000    0x12912
 .debug_line    0x00000000      0x60f examples/dfu/CMakeFiles/dfu_no_serial_nrf52840_xxAA_s140_5.0.0-3.alpha.dir/src/main.c.obj
 .debug_line    0x0000060f      0x788 examples/dfu/CMakeFiles/dfu_no_serial_nrf52840_xxAA_s140_5.0.0-3.alpha.dir/__/nrf_mesh_sdk.c.obj
 .debug_line    0x00000d97     0x14d1 examples/dfu/CMakeFiles/dfu_no_serial_nrf52840_xxAA_s140_5.0.0-3.alpha.dir/__/__/mesh/access/src/device_state_manager.c.obj
 .debug_line    0x00002268      0x4a3 examples/dfu/CMakeFiles/dfu_no_serial_nrf52840_xxAA_s140_5.0.0-3.alpha.dir/__/__/mesh/prov/src/prov_beacon.c.obj
 .debug_line    0x0000270b      0x4b8 examples/dfu/CMakeFiles/dfu_no_serial_nrf52840_xxAA_s140_5.0.0-3.alpha.dir/__/__/mesh/prov/src/prov_utils.c.obj
 .debug_line    0x00002bc3      0xc3d examples/dfu/CMakeFiles/dfu_no_serial_nrf52840_xxAA_s140_5.0.0-3.alpha.dir/__/__/mesh/prov/src/prov_bearer_adv.c.obj
 .debug_line    0x00003800      0xe48 examples/dfu/CMakeFiles/dfu_no_serial_nrf52840_xxAA_s140_5.0.0-3.alpha.dir/__/__/mesh/dfu/src/nrf_mesh_dfu.c.obj
 .debug_line    0x00004648      0x247 examples/dfu/CMakeFiles/dfu_no_serial_nrf52840_xxAA_s140_5.0.0-3.alpha.dir/__/__/external/nRF5_SDK_14.2.0_17b948a/components/toolchain/system_nrf52840.c.obj
 .debug_line    0x0000488f      0x269 mesh/core/libmesh_core_nrf52840_xxAA.a(nrf_mesh_configure.c.obj)
 .debug_line    0x00004af8      0x321 mesh/core/libmesh_core_nrf52840_xxAA.a(event.c.obj)
 .debug_line    0x00004e19      0x6be mesh/core/libmesh_core_nrf52840_xxAA.a(net_state.c.obj)
 .debug_line    0x000054d7      0x5ac mesh/core/libmesh_core_nrf52840_xxAA.a(mesh_flash.c.obj)
 .debug_line    0x00005a83      0x265 mesh/core/libmesh_core_nrf52840_xxAA.a(nrf_mesh_utils.c.obj)
 .debug_line    0x00005ce8      0x7b1 mesh/core/libmesh_core_nrf52840_xxAA.a(nrf_mesh.c.obj)
 .debug_line    0x00006499      0x253 mesh/core/libmesh_core_nrf52840_xxAA.a(hal.c.obj)
 .debug_line    0x000066ec      0x4a6 mesh/core/libmesh_core_nrf52840_xxAA.a(timer_scheduler.c.obj)
 .debug_line    0x00006b92      0x41b mesh/core/libmesh_core_nrf52840_xxAA.a(timer.c.obj)
 .debug_line    0x00006fad      0x122 mesh/core/libmesh_core_nrf52840_xxAA.a(ticker.c.obj)
 .debug_line    0x000070cf      0x2a3 mesh/core/libmesh_core_nrf52840_xxAA.a(rand.c.obj)
 .debug_line    0x00007372      0x5cf mesh/core/libmesh_core_nrf52840_xxAA.a(timeslot.c.obj)
 .debug_line    0x00007941      0x60e mesh/core/libmesh_core_nrf52840_xxAA.a(bearer_event.c.obj)
 .debug_line    0x00007f4f      0x45d mesh/core/libmesh_core_nrf52840_xxAA.a(enc.c.obj)
 .debug_line    0x000083ac      0x84f mesh/core/libmesh_core_nrf52840_xxAA.a(network.c.obj)
 .debug_line    0x00008bfb      0x38b mesh/core/libmesh_core_nrf52840_xxAA.a(msqueue.c.obj)
 .debug_line    0x00008f86      0x376 mesh/core/libmesh_core_nrf52840_xxAA.a(list.c.obj)
 .debug_line    0x000092fc      0x287 mesh/core/libmesh_core_nrf52840_xxAA.a(log.c.obj)
 .debug_line    0x00009583      0xaa0 mesh/core/libmesh_core_nrf52840_xxAA.a(flash_manager.c.obj)
 .debug_line    0x0000a023      0x34e mesh/core/libmesh_core_nrf52840_xxAA.a(ccm_soft.c.obj)
 .debug_line    0x0000a371      0x546 mesh/core/libmesh_core_nrf52840_xxAA.a(beacon.c.obj)
 .debug_line    0x0000a8b7      0x29c mesh/core/libmesh_core_nrf52840_xxAA.a(flash_manager_internal.c.obj)
 .debug_line    0x0000ab53      0x474 mesh/core/libmesh_core_nrf52840_xxAA.a(core_tx.c.obj)
 .debug_line    0x0000afc7      0x632 mesh/core/libmesh_core_nrf52840_xxAA.a(heartbeat.c.obj)
 .debug_line    0x0000b5f9      0x441 mesh/core/libmesh_core_nrf52840_xxAA.a(net_beacon.c.obj)
 .debug_line    0x0000ba3a      0x49f mesh/core/libmesh_core_nrf52840_xxAA.a(core_tx_adv.c.obj)
 .debug_line    0x0000bed9      0x368 mesh/core/libmesh_core_nrf52840_xxAA.a(ad_listener.c.obj)
 .debug_line    0x0000c241      0x419 mesh/core/libmesh_core_nrf52840_xxAA.a(ad_type_filter.c.obj)
 .debug_line    0x0000c65a      0x835 mesh/core/libmesh_core_nrf52840_xxAA.a(advertiser.c.obj)
 .debug_line    0x0000ce8f      0x5c7 mesh/core/libmesh_core_nrf52840_xxAA.a(bearer_handler.c.obj)
 .debug_line    0x0000d456      0x3ce mesh/core/libmesh_core_nrf52840_xxAA.a(broadcast.c.obj)
 .debug_line    0x0000d824      0x36c mesh/core/libmesh_core_nrf52840_xxAA.a(filter_engine.c.obj)
 .debug_line    0x0000db90      0x326 mesh/core/libmesh_core_nrf52840_xxAA.a(radio_config.c.obj)
 .debug_line    0x0000deb6      0x76a mesh/core/libmesh_core_nrf52840_xxAA.a(scanner.c.obj)
 .debug_line    0x0000e620      0x2a5 mesh/core/libmesh_core_nrf52840_xxAA.a(internal_event.c.obj)
 .debug_line    0x0000e8c5      0x26a mesh/core/libmesh_core_nrf52840_xxAA.a(aes.c.obj)
 .debug_line    0x0000eb2f      0x29b mesh/core/libmesh_core_nrf52840_xxAA.a(msg_cache.c.obj)
 .debug_line    0x0000edca     0x1042 mesh/core/libmesh_core_nrf52840_xxAA.a(transport.c.obj)
 .debug_line    0x0000fe0c      0x6f3 mesh/core/libmesh_core_nrf52840_xxAA.a(packet_buffer.c.obj)
 .debug_line    0x000104ff      0x7ed mesh/core/libmesh_core_nrf52840_xxAA.a(flash_manager_defrag.c.obj)
 .debug_line    0x00010cec      0x3a9 mesh/core/libmesh_core_nrf52840_xxAA.a(fifo.c.obj)
 .debug_line    0x00011095      0x2af mesh/core/libmesh_core_nrf52840_xxAA.a(nrf_flash.c.obj)
 .debug_line    0x00011344      0x45b mesh/core/libmesh_core_nrf52840_xxAA.a(packet_mgr.c.obj)
 .debug_line    0x0001179f      0x2d5 mesh/core/libmesh_core_nrf52840_xxAA.a(queue.c.obj)
 .debug_line    0x00011a74      0x2d7 mesh/core/libmesh_core_nrf52840_xxAA.a(aes_cmac.c.obj)
 .debug_line    0x00011d4b      0x294 mesh/core/libmesh_core_nrf52840_xxAA.a(nrf_mesh_opt.c.obj)
 .debug_line    0x00011fdf      0x1f1 mesh/core/libmesh_core_nrf52840_xxAA.a(replay_cache.c.obj)
 .debug_line    0x000121d0      0x4c0 external/rtt/librtt_nrf52840_xxAA.a(SEGGER_RTT.c.obj)
 .debug_line    0x00012690      0x282 external/rtt/librtt_nrf52840_xxAA.a(SEGGER_RTT_printf.c.obj)

.debug_str      0x00000000     0xf653
 .debug_str     0x00000000     0x1c21 examples/dfu/CMakeFiles/dfu_no_serial_nrf52840_xxAA_s140_5.0.0-3.alpha.dir/src/main.c.obj
                               0x1e11 (size before relaxing)
 .debug_str     0x00001c21     0x146e examples/dfu/CMakeFiles/dfu_no_serial_nrf52840_xxAA_s140_5.0.0-3.alpha.dir/__/nrf_mesh_sdk.c.obj
                               0x2183 (size before relaxing)
 .debug_str     0x0000308f     0x186b examples/dfu/CMakeFiles/dfu_no_serial_nrf52840_xxAA_s140_5.0.0-3.alpha.dir/__/__/mesh/access/src/device_state_manager.c.obj
                               0x2e6b (size before relaxing)
 .debug_str     0x000048fa      0xf0b examples/dfu/CMakeFiles/dfu_no_serial_nrf52840_xxAA_s140_5.0.0-3.alpha.dir/__/__/mesh/prov/src/prov_beacon.c.obj
                               0x18cc (size before relaxing)
 .debug_str     0x00005805      0xc0d examples/dfu/CMakeFiles/dfu_no_serial_nrf52840_xxAA_s140_5.0.0-3.alpha.dir/__/__/mesh/prov/src/prov_utils.c.obj
                               0x1e53 (size before relaxing)
 .debug_str     0x00006412      0x836 examples/dfu/CMakeFiles/dfu_no_serial_nrf52840_xxAA_s140_5.0.0-3.alpha.dir/__/__/mesh/prov/src/prov_bearer_adv.c.obj
                               0x1b5a (size before relaxing)
 .debug_str     0x00006c48     0x16e4 examples/dfu/CMakeFiles/dfu_no_serial_nrf52840_xxAA_s140_5.0.0-3.alpha.dir/__/__/mesh/dfu/src/nrf_mesh_dfu.c.obj
                               0x35a6 (size before relaxing)
 .debug_str     0x0000832c      0x49c examples/dfu/CMakeFiles/dfu_no_serial_nrf52840_xxAA_s140_5.0.0-3.alpha.dir/__/__/external/nRF5_SDK_14.2.0_17b948a/components/toolchain/system_nrf52840.c.obj
                                0x8b6 (size before relaxing)
 .debug_str     0x000087c8       0x75 mesh/core/libmesh_core_nrf52840_xxAA.a(nrf_mesh_configure.c.obj)
                                0x77e (size before relaxing)
 .debug_str     0x0000883d       0x82 mesh/core/libmesh_core_nrf52840_xxAA.a(event.c.obj)
                               0x14d3 (size before relaxing)
 .debug_str     0x000088bf      0x384 mesh/core/libmesh_core_nrf52840_xxAA.a(net_state.c.obj)
                               0x1e46 (size before relaxing)
 .debug_str     0x00008c43      0x3a0 mesh/core/libmesh_core_nrf52840_xxAA.a(mesh_flash.c.obj)
                                0xcf6 (size before relaxing)
 .debug_str     0x00008fe3       0x8b mesh/core/libmesh_core_nrf52840_xxAA.a(nrf_mesh_utils.c.obj)
                                0x76b (size before relaxing)
 .debug_str     0x0000906e      0x4d1 mesh/core/libmesh_core_nrf52840_xxAA.a(nrf_mesh.c.obj)
                               0x2bc5 (size before relaxing)
 .debug_str     0x0000953f       0x69 mesh/core/libmesh_core_nrf52840_xxAA.a(hal.c.obj)
                                0x72f (size before relaxing)
 .debug_str     0x000095a8      0x13d mesh/core/libmesh_core_nrf52840_xxAA.a(timer_scheduler.c.obj)
                                0x94e (size before relaxing)
 .debug_str     0x000096e5      0x225 mesh/core/libmesh_core_nrf52840_xxAA.a(timer.c.obj)
                                0x8c8 (size before relaxing)
 .debug_str     0x0000990a       0x3c mesh/core/libmesh_core_nrf52840_xxAA.a(ticker.c.obj)
                                0x34c (size before relaxing)
 .debug_str     0x00009946       0x88 mesh/core/libmesh_core_nrf52840_xxAA.a(rand.c.obj)
                                0x6db (size before relaxing)
 .debug_str     0x000099ce      0x8ba mesh/core/libmesh_core_nrf52840_xxAA.a(timeslot.c.obj)
                               0x1839 (size before relaxing)
 .debug_str     0x0000a288      0x2ed mesh/core/libmesh_core_nrf52840_xxAA.a(bearer_event.c.obj)
                                0xf18 (size before relaxing)
 .debug_str     0x0000a575      0x1ff mesh/core/libmesh_core_nrf52840_xxAA.a(enc.c.obj)
                                0x9d4 (size before relaxing)
 .debug_str     0x0000a774      0x9ee mesh/core/libmesh_core_nrf52840_xxAA.a(network.c.obj)
                               0x19c2 (size before relaxing)
 .debug_str     0x0000b162       0x53 mesh/core/libmesh_core_nrf52840_xxAA.a(msqueue.c.obj)
                                0x6d9 (size before relaxing)
 .debug_str     0x0000b1b5       0x7d mesh/core/libmesh_core_nrf52840_xxAA.a(list.c.obj)
                                0x2d8 (size before relaxing)
 .debug_str     0x0000b232       0xeb mesh/core/libmesh_core_nrf52840_xxAA.a(log.c.obj)
                                0x7d0 (size before relaxing)
 .debug_str     0x0000b31d      0x7aa mesh/core/libmesh_core_nrf52840_xxAA.a(flash_manager.c.obj)
                               0x19d1 (size before relaxing)
 .debug_str     0x0000bac7       0x8f mesh/core/libmesh_core_nrf52840_xxAA.a(ccm_soft.c.obj)
                                0x75d (size before relaxing)
 .debug_str     0x0000bb56       0xb2 mesh/core/libmesh_core_nrf52840_xxAA.a(beacon.c.obj)
                               0x1133 (size before relaxing)
 .debug_str     0x0000bc08       0x38 mesh/core/libmesh_core_nrf52840_xxAA.a(flash_manager_internal.c.obj)
                                0x7be (size before relaxing)
 .debug_str     0x0000bc40      0x132 mesh/core/libmesh_core_nrf52840_xxAA.a(core_tx.c.obj)
                                0x8bd (size before relaxing)
 .debug_str     0x0000bd72      0x75b mesh/core/libmesh_core_nrf52840_xxAA.a(heartbeat.c.obj)
                               0x203b (size before relaxing)
 .debug_str     0x0000c4cd      0x1d1 mesh/core/libmesh_core_nrf52840_xxAA.a(net_beacon.c.obj)
                                0xe84 (size before relaxing)
 .debug_str     0x0000c69e      0x102 mesh/core/libmesh_core_nrf52840_xxAA.a(core_tx_adv.c.obj)
                               0x104b (size before relaxing)
 .debug_str     0x0000c7a0      0x184 mesh/core/libmesh_core_nrf52840_xxAA.a(ad_listener.c.obj)
                                0xb7f (size before relaxing)
 .debug_str     0x0000c924      0x14f mesh/core/libmesh_core_nrf52840_xxAA.a(ad_type_filter.c.obj)
                                0x9b9 (size before relaxing)
 .debug_str     0x0000ca73      0x2ff mesh/core/libmesh_core_nrf52840_xxAA.a(advertiser.c.obj)
                               0x150c (size before relaxing)
 .debug_str     0x0000cd72      0x42e mesh/core/libmesh_core_nrf52840_xxAA.a(bearer_handler.c.obj)
                               0x110a (size before relaxing)
 .debug_str     0x0000d1a0      0x1ac mesh/core/libmesh_core_nrf52840_xxAA.a(broadcast.c.obj)
                               0x1068 (size before relaxing)
 .debug_str     0x0000d34c       0x72 mesh/core/libmesh_core_nrf52840_xxAA.a(filter_engine.c.obj)
                                0x826 (size before relaxing)
 .debug_str     0x0000d3be       0x79 mesh/core/libmesh_core_nrf52840_xxAA.a(radio_config.c.obj)
                                0x8b6 (size before relaxing)
 .debug_str     0x0000d437      0x45d mesh/core/libmesh_core_nrf52840_xxAA.a(scanner.c.obj)
                               0x1a53 (size before relaxing)
 .debug_str     0x0000d894       0xc0 mesh/core/libmesh_core_nrf52840_xxAA.a(internal_event.c.obj)
                                0xa93 (size before relaxing)
 .debug_str     0x0000d954       0xc1 mesh/core/libmesh_core_nrf52840_xxAA.a(aes.c.obj)
                                0xa6d (size before relaxing)
 .debug_str     0x0000da15       0x71 mesh/core/libmesh_core_nrf52840_xxAA.a(msg_cache.c.obj)
                                0x6ea (size before relaxing)
 .debug_str     0x0000da86      0xd3f mesh/core/libmesh_core_nrf52840_xxAA.a(transport.c.obj)
                               0x31e5 (size before relaxing)
 .debug_str     0x0000e7c5      0x2cd mesh/core/libmesh_core_nrf52840_xxAA.a(packet_buffer.c.obj)
                                0xc2f (size before relaxing)
 .debug_str     0x0000ea92      0x36b mesh/core/libmesh_core_nrf52840_xxAA.a(flash_manager_defrag.c.obj)
                               0x1545 (size before relaxing)
 .debug_str     0x0000edfd       0x69 mesh/core/libmesh_core_nrf52840_xxAA.a(fifo.c.obj)
                                0x6f5 (size before relaxing)
 .debug_str     0x0000ee66       0x36 mesh/core/libmesh_core_nrf52840_xxAA.a(nrf_flash.c.obj)
                                0x700 (size before relaxing)
 .debug_str     0x0000ee9c      0x266 mesh/core/libmesh_core_nrf52840_xxAA.a(packet_mgr.c.obj)
                                0x9ca (size before relaxing)
 .debug_str     0x0000f102       0x19 mesh/core/libmesh_core_nrf52840_xxAA.a(queue.c.obj)
                                0x69d (size before relaxing)
 .debug_str     0x0000f11b       0xb8 mesh/core/libmesh_core_nrf52840_xxAA.a(aes_cmac.c.obj)
                                0x715 (size before relaxing)
 .debug_str     0x0000f1d3       0x31 mesh/core/libmesh_core_nrf52840_xxAA.a(nrf_mesh_opt.c.obj)
                                0x921 (size before relaxing)
 .debug_str     0x0000f204       0x9f mesh/core/libmesh_core_nrf52840_xxAA.a(replay_cache.c.obj)
                                0x6b0 (size before relaxing)
 .debug_str     0x0000f2a3      0x2d1 external/rtt/librtt_nrf52840_xxAA.a(SEGGER_RTT.c.obj)
                                0x922 (size before relaxing)
 .debug_str     0x0000f574       0xdf external/rtt/librtt_nrf52840_xxAA.a(SEGGER_RTT_printf.c.obj)
                                0x792 (size before relaxing)

.debug_frame    0x00000000     0x4b94
 .debug_frame   0x00000000       0x60 examples/dfu/CMakeFiles/dfu_no_serial_nrf52840_xxAA_s140_5.0.0-3.alpha.dir/src/main.c.obj
 .debug_frame   0x00000060      0x17c examples/dfu/CMakeFiles/dfu_no_serial_nrf52840_xxAA_s140_5.0.0-3.alpha.dir/__/nrf_mesh_sdk.c.obj
 .debug_frame   0x000001dc      0xac4 examples/dfu/CMakeFiles/dfu_no_serial_nrf52840_xxAA_s140_5.0.0-3.alpha.dir/__/__/mesh/access/src/device_state_manager.c.obj
 .debug_frame   0x00000ca0       0x84 examples/dfu/CMakeFiles/dfu_no_serial_nrf52840_xxAA_s140_5.0.0-3.alpha.dir/__/__/mesh/prov/src/prov_beacon.c.obj
 .debug_frame   0x00000d24      0x150 examples/dfu/CMakeFiles/dfu_no_serial_nrf52840_xxAA_s140_5.0.0-3.alpha.dir/__/__/mesh/prov/src/prov_utils.c.obj
 .debug_frame   0x00000e74      0x328 examples/dfu/CMakeFiles/dfu_no_serial_nrf52840_xxAA_s140_5.0.0-3.alpha.dir/__/__/mesh/prov/src/prov_bearer_adv.c.obj
 .debug_frame   0x0000119c      0x280 examples/dfu/CMakeFiles/dfu_no_serial_nrf52840_xxAA_s140_5.0.0-3.alpha.dir/__/__/mesh/dfu/src/nrf_mesh_dfu.c.obj
 .debug_frame   0x0000141c       0x48 examples/dfu/CMakeFiles/dfu_no_serial_nrf52840_xxAA_s140_5.0.0-3.alpha.dir/__/__/external/nRF5_SDK_14.2.0_17b948a/components/toolchain/system_nrf52840.c.obj
 .debug_frame   0x00001464       0x4c mesh/core/libmesh_core_nrf52840_xxAA.a(nrf_mesh_configure.c.obj)
 .debug_frame   0x000014b0       0x6c mesh/core/libmesh_core_nrf52840_xxAA.a(event.c.obj)
 .debug_frame   0x0000151c      0x264 mesh/core/libmesh_core_nrf52840_xxAA.a(net_state.c.obj)
 .debug_frame   0x00001780      0x150 mesh/core/libmesh_core_nrf52840_xxAA.a(mesh_flash.c.obj)
 .debug_frame   0x000018d0       0x50 mesh/core/libmesh_core_nrf52840_xxAA.a(nrf_mesh_utils.c.obj)
 .debug_frame   0x00001920      0x15c mesh/core/libmesh_core_nrf52840_xxAA.a(nrf_mesh.c.obj)
 .debug_frame   0x00001a7c       0x48 mesh/core/libmesh_core_nrf52840_xxAA.a(hal.c.obj)
 .debug_frame   0x00001ac4      0x13c mesh/core/libmesh_core_nrf52840_xxAA.a(timer_scheduler.c.obj)
 .debug_frame   0x00001c00      0x10c mesh/core/libmesh_core_nrf52840_xxAA.a(timer.c.obj)
 .debug_frame   0x00001d0c       0x4c mesh/core/libmesh_core_nrf52840_xxAA.a(ticker.c.obj)
 .debug_frame   0x00001d58       0x84 mesh/core/libmesh_core_nrf52840_xxAA.a(rand.c.obj)
 .debug_frame   0x00001ddc      0x1a0 mesh/core/libmesh_core_nrf52840_xxAA.a(timeslot.c.obj)
 .debug_frame   0x00001f7c      0x1c8 mesh/core/libmesh_core_nrf52840_xxAA.a(bearer_event.c.obj)
 .debug_frame   0x00002144      0x150 mesh/core/libmesh_core_nrf52840_xxAA.a(enc.c.obj)
 .debug_frame   0x00002294      0x14c mesh/core/libmesh_core_nrf52840_xxAA.a(network.c.obj)
 .debug_frame   0x000023e0       0xb8 mesh/core/libmesh_core_nrf52840_xxAA.a(msqueue.c.obj)
 .debug_frame   0x00002498       0xd4 mesh/core/libmesh_core_nrf52840_xxAA.a(list.c.obj)
 .debug_frame   0x0000256c       0xb0 mesh/core/libmesh_core_nrf52840_xxAA.a(log.c.obj)
 .debug_frame   0x0000261c      0x33c mesh/core/libmesh_core_nrf52840_xxAA.a(flash_manager.c.obj)
 .debug_frame   0x00002958      0x10c mesh/core/libmesh_core_nrf52840_xxAA.a(ccm_soft.c.obj)
 .debug_frame   0x00002a64       0x98 mesh/core/libmesh_core_nrf52840_xxAA.a(beacon.c.obj)
 .debug_frame   0x00002afc       0x34 mesh/core/libmesh_core_nrf52840_xxAA.a(flash_manager_internal.c.obj)
 .debug_frame   0x00002b30       0xe8 mesh/core/libmesh_core_nrf52840_xxAA.a(core_tx.c.obj)
 .debug_frame   0x00002c18      0x164 mesh/core/libmesh_core_nrf52840_xxAA.a(heartbeat.c.obj)
 .debug_frame   0x00002d7c       0xd0 mesh/core/libmesh_core_nrf52840_xxAA.a(net_beacon.c.obj)
 .debug_frame   0x00002e4c      0x128 mesh/core/libmesh_core_nrf52840_xxAA.a(core_tx_adv.c.obj)
 .debug_frame   0x00002f74       0x6c mesh/core/libmesh_core_nrf52840_xxAA.a(ad_listener.c.obj)
 .debug_frame   0x00002fe0       0xa8 mesh/core/libmesh_core_nrf52840_xxAA.a(ad_type_filter.c.obj)
 .debug_frame   0x00003088      0x284 mesh/core/libmesh_core_nrf52840_xxAA.a(advertiser.c.obj)
 .debug_frame   0x0000330c      0x160 mesh/core/libmesh_core_nrf52840_xxAA.a(bearer_handler.c.obj)
 .debug_frame   0x0000346c       0x70 mesh/core/libmesh_core_nrf52840_xxAA.a(broadcast.c.obj)
 .debug_frame   0x000034dc       0x7c mesh/core/libmesh_core_nrf52840_xxAA.a(filter_engine.c.obj)
 .debug_frame   0x00003558       0x90 mesh/core/libmesh_core_nrf52840_xxAA.a(radio_config.c.obj)
 .debug_frame   0x000035e8      0x2a4 mesh/core/libmesh_core_nrf52840_xxAA.a(scanner.c.obj)
 .debug_frame   0x0000388c       0x48 mesh/core/libmesh_core_nrf52840_xxAA.a(internal_event.c.obj)
 .debug_frame   0x000038d4       0x40 mesh/core/libmesh_core_nrf52840_xxAA.a(aes.c.obj)
 .debug_frame   0x00003914       0x6c mesh/core/libmesh_core_nrf52840_xxAA.a(msg_cache.c.obj)
 .debug_frame   0x00003980      0x44c mesh/core/libmesh_core_nrf52840_xxAA.a(transport.c.obj)
 .debug_frame   0x00003dcc      0x184 mesh/core/libmesh_core_nrf52840_xxAA.a(packet_buffer.c.obj)
 .debug_frame   0x00003f50      0x250 mesh/core/libmesh_core_nrf52840_xxAA.a(flash_manager_defrag.c.obj)
 .debug_frame   0x000041a0       0xd0 mesh/core/libmesh_core_nrf52840_xxAA.a(fifo.c.obj)
 .debug_frame   0x00004270       0x54 mesh/core/libmesh_core_nrf52840_xxAA.a(nrf_flash.c.obj)
 .debug_frame   0x000042c4       0xa0 mesh/core/libmesh_core_nrf52840_xxAA.a(packet_mgr.c.obj)
 .debug_frame   0x00004364       0x74 mesh/core/libmesh_core_nrf52840_xxAA.a(queue.c.obj)
 .debug_frame   0x000043d8       0xa4 mesh/core/libmesh_core_nrf52840_xxAA.a(aes_cmac.c.obj)
 .debug_frame   0x0000447c       0x30 mesh/core/libmesh_core_nrf52840_xxAA.a(nrf_mesh_opt.c.obj)
 .debug_frame   0x000044ac       0xa0 mesh/core/libmesh_core_nrf52840_xxAA.a(replay_cache.c.obj)
 .debug_frame   0x0000454c      0x2d8 external/rtt/librtt_nrf52840_xxAA.a(SEGGER_RTT.c.obj)
 .debug_frame   0x00004824       0xac external/rtt/librtt_nrf52840_xxAA.a(SEGGER_RTT_printf.c.obj)
 .debug_frame   0x000048d0       0x28 c:/a/gcc_arm/6/bin/../lib/gcc/arm-none-eabi/6.3.1/../../../../arm-none-eabi/lib/thumb/v7e-m/fpv4-sp/hard\libg_nano.a(lib_a-exit.o)
 .debug_frame   0x000048f8       0x2c c:/a/gcc_arm/6/bin/../lib/gcc/arm-none-eabi/6.3.1/../../../../arm-none-eabi/lib/thumb/v7e-m/fpv4-sp/hard\libg_nano.a(lib_a-init.o)
 .debug_frame   0x00004924       0x30 c:/a/gcc_arm/6/bin/../lib/gcc/arm-none-eabi/6.3.1/../../../../arm-none-eabi/lib/thumb/v7e-m/fpv4-sp/hard\libg_nano.a(lib_a-malloc.o)
 .debug_frame   0x00004954       0x28 c:/a/gcc_arm/6/bin/../lib/gcc/arm-none-eabi/6.3.1/../../../../arm-none-eabi/lib/thumb/v7e-m/fpv4-sp/hard\libg_nano.a(lib_a-memcmp.o)
 .debug_frame   0x0000497c       0x28 c:/a/gcc_arm/6/bin/../lib/gcc/arm-none-eabi/6.3.1/../../../../arm-none-eabi/lib/thumb/v7e-m/fpv4-sp/hard\libg_nano.a(lib_a-memcpy-stub.o)
 .debug_frame   0x000049a4       0x20 c:/a/gcc_arm/6/bin/../lib/gcc/arm-none-eabi/6.3.1/../../../../arm-none-eabi/lib/thumb/v7e-m/fpv4-sp/hard\libg_nano.a(lib_a-memset.o)
 .debug_frame   0x000049c4       0x38 c:/a/gcc_arm/6/bin/../lib/gcc/arm-none-eabi/6.3.1/../../../../arm-none-eabi/lib/thumb/v7e-m/fpv4-sp/hard\libg_nano.a(lib_a-nano-freer.o)
 .debug_frame   0x000049fc       0x2c c:/a/gcc_arm/6/bin/../lib/gcc/arm-none-eabi/6.3.1/../../../../arm-none-eabi/lib/thumb/v7e-m/fpv4-sp/hard\libg_nano.a(lib_a-nano-mallocr.o)
 .debug_frame   0x00004a28       0x2c c:/a/gcc_arm/6/bin/../lib/gcc/arm-none-eabi/6.3.1/../../../../arm-none-eabi/lib/thumb/v7e-m/fpv4-sp/hard\libg_nano.a(lib_a-sbrkr.o)
 .debug_frame   0x00004a54       0x20 c:/a/gcc_arm/6/bin/../lib/gcc/arm-none-eabi/6.3.1/../../../../arm-none-eabi/lib/thumb/v7e-m/fpv4-sp/hard\libg_nano.a(lib_a-strcpy.o)
 .debug_frame   0x00004a74       0x34 c:/a/gcc_arm/6/bin/../lib/gcc/arm-none-eabi/6.3.1/../../../../arm-none-eabi/lib/thumb/v7e-m/fpv4-sp/hard\libg_nano.a(lib_a-strrchr.o)
 .debug_frame   0x00004aa8       0x30 c:/a/gcc_arm/6/bin/../lib/gcc/arm-none-eabi/6.3.1/../../../../arm-none-eabi/lib/thumb/v7e-m/fpv4-sp/hard\libg_nano.a(lib_a-mlock.o)
 .debug_frame   0x00004ad8       0x5c c:/a/gcc_arm/6/bin/../lib/gcc/arm-none-eabi/6.3.1/../../../../arm-none-eabi/lib/thumb/v7e-m/fpv4-sp/hard\libg_nano.a(lib_a-reent.o)
 .debug_frame   0x00004b34       0x20 c:/a/gcc_arm/6/bin/../lib/gcc/arm-none-eabi/6.3.1/../../../../arm-none-eabi/lib/thumb/v7e-m/fpv4-sp/hard\libg_nano.a(lib_a-strchr.o)
 .debug_frame   0x00004b54       0x20 c:/a/gcc_arm/6/bin/../lib/gcc/arm-none-eabi/6.3.1/../../../../arm-none-eabi/lib/thumb/v7e-m/fpv4-sp/hard\libnosys.a(sbrk.o)
 .debug_frame   0x00004b74       0x20 c:/a/gcc_arm/6/bin/../lib/gcc/arm-none-eabi/6.3.1/../../../../arm-none-eabi/lib/thumb/v7e-m/fpv4-sp/hard\libnosys.a(_exit.o)
