Archive member included to satisfy reference by file (symbol)

external/rtt/librtt_nrf52832_xxAA.a(SEGGER_RTT.c.obj)
                              examples/dfu/CMakeFiles/dfu_nrf52832_xxAA_s132_6.0.0.dir/__/__/mesh/core/src/log.c.obj (SEGGER_RTT_Write)
external/rtt/librtt_nrf52832_xxAA.a(SEGGER_RTT_printf.c.obj)
                              examples/dfu/CMakeFiles/dfu_nrf52832_xxAA_s132_6.0.0.dir/__/__/mesh/core/src/log.c.obj (SEGGER_RTT_vprintf)
external/micro-ecc/libuECC_nrf52832_xxAA.a(uECC.c.obj)
                              examples/dfu/CMakeFiles/dfu_nrf52832_xxAA_s132_6.0.0.dir/__/__/mesh/prov/src/prov_utils.c.obj (uECC_secp256r1)
c:/mesh/arm_gcc/bin/../lib/gcc/arm-none-eabi/6.3.1/../../../../arm-none-eabi/lib/thumb/v7e-m/fpv4-sp/hard\libc_nano.a(lib_a-exit.o)
                              c:/mesh/arm_gcc/bin/../lib/gcc/arm-none-eabi/6.3.1/../../../../arm-none-eabi/lib/thumb/v7e-m/fpv4-sp/hard/crt0.o (exit)
c:/mesh/arm_gcc/bin/../lib/gcc/arm-none-eabi/6.3.1/../../../../arm-none-eabi/lib/thumb/v7e-m/fpv4-sp/hard\libc_nano.a(lib_a-impure.o)
                              c:/mesh/arm_gcc/bin/../lib/gcc/arm-none-eabi/6.3.1/../../../../arm-none-eabi/lib/thumb/v7e-m/fpv4-sp/hard\libc_nano.a(lib_a-exit.o) (_global_impure_ptr)
c:/mesh/arm_gcc/bin/../lib/gcc/arm-none-eabi/6.3.1/../../../../arm-none-eabi/lib/thumb/v7e-m/fpv4-sp/hard\libc_nano.a(lib_a-init.o)
                              c:/mesh/arm_gcc/bin/../lib/gcc/arm-none-eabi/6.3.1/../../../../arm-none-eabi/lib/thumb/v7e-m/fpv4-sp/hard/crt0.o (__libc_init_array)
c:/mesh/arm_gcc/bin/../lib/gcc/arm-none-eabi/6.3.1/../../../../arm-none-eabi/lib/thumb/v7e-m/fpv4-sp/hard\libc_nano.a(lib_a-malloc.o)
                              examples/dfu/CMakeFiles/dfu_nrf52832_xxAA_s132_6.0.0.dir/__/__/mesh/core/src/transport.c.obj (malloc)
c:/mesh/arm_gcc/bin/../lib/gcc/arm-none-eabi/6.3.1/../../../../arm-none-eabi/lib/thumb/v7e-m/fpv4-sp/hard\libc_nano.a(lib_a-memcmp.o)
                              examples/dfu/CMakeFiles/dfu_nrf52832_xxAA_s132_6.0.0.dir/__/__/mesh/access/src/device_state_manager.c.obj (memcmp)
c:/mesh/arm_gcc/bin/../lib/gcc/arm-none-eabi/6.3.1/../../../../arm-none-eabi/lib/thumb/v7e-m/fpv4-sp/hard\libc_nano.a(lib_a-memcpy-stub.o)
                              examples/dfu/CMakeFiles/dfu_nrf52832_xxAA_s132_6.0.0.dir/__/__/mesh/access/src/access.c.obj (memcpy)
c:/mesh/arm_gcc/bin/../lib/gcc/arm-none-eabi/6.3.1/../../../../arm-none-eabi/lib/thumb/v7e-m/fpv4-sp/hard\libc_nano.a(lib_a-memset.o)
                              c:/mesh/arm_gcc/bin/../lib/gcc/arm-none-eabi/6.3.1/../../../../arm-none-eabi/lib/thumb/v7e-m/fpv4-sp/hard/crt0.o (memset)
c:/mesh/arm_gcc/bin/../lib/gcc/arm-none-eabi/6.3.1/../../../../arm-none-eabi/lib/thumb/v7e-m/fpv4-sp/hard\libc_nano.a(lib_a-nano-freer.o)
                              c:/mesh/arm_gcc/bin/../lib/gcc/arm-none-eabi/6.3.1/../../../../arm-none-eabi/lib/thumb/v7e-m/fpv4-sp/hard\libc_nano.a(lib_a-malloc.o) (_free_r)
c:/mesh/arm_gcc/bin/../lib/gcc/arm-none-eabi/6.3.1/../../../../arm-none-eabi/lib/thumb/v7e-m/fpv4-sp/hard\libc_nano.a(lib_a-nano-mallocr.o)
                              c:/mesh/arm_gcc/bin/../lib/gcc/arm-none-eabi/6.3.1/../../../../arm-none-eabi/lib/thumb/v7e-m/fpv4-sp/hard\libc_nano.a(lib_a-malloc.o) (_malloc_r)
c:/mesh/arm_gcc/bin/../lib/gcc/arm-none-eabi/6.3.1/../../../../arm-none-eabi/lib/thumb/v7e-m/fpv4-sp/hard\libc_nano.a(lib_a-sbrkr.o)
                              c:/mesh/arm_gcc/bin/../lib/gcc/arm-none-eabi/6.3.1/../../../../arm-none-eabi/lib/thumb/v7e-m/fpv4-sp/hard\libc_nano.a(lib_a-nano-mallocr.o) (_sbrk_r)
c:/mesh/arm_gcc/bin/../lib/gcc/arm-none-eabi/6.3.1/../../../../arm-none-eabi/lib/thumb/v7e-m/fpv4-sp/hard\libc_nano.a(lib_a-strcpy.o)
                              external/rtt/librtt_nrf52832_xxAA.a(SEGGER_RTT.c.obj) (strcpy)
c:/mesh/arm_gcc/bin/../lib/gcc/arm-none-eabi/6.3.1/../../../../arm-none-eabi/lib/thumb/v7e-m/fpv4-sp/hard\libc_nano.a(lib_a-strlen.o)
                              examples/dfu/CMakeFiles/dfu_nrf52832_xxAA_s132_6.0.0.dir/__/__/mesh/prov/src/prov_beacon.c.obj (strlen)
c:/mesh/arm_gcc/bin/../lib/gcc/arm-none-eabi/6.3.1/../../../../arm-none-eabi/lib/thumb/v7e-m/fpv4-sp/hard\libc_nano.a(lib_a-strrchr.o)
                              examples/dfu/CMakeFiles/dfu_nrf52832_xxAA_s132_6.0.0.dir/src/main.c.obj (strrchr)
c:/mesh/arm_gcc/bin/../lib/gcc/arm-none-eabi/6.3.1/../../../../arm-none-eabi/lib/thumb/v7e-m/fpv4-sp/hard\libc_nano.a(lib_a-mlock.o)
                              c:/mesh/arm_gcc/bin/../lib/gcc/arm-none-eabi/6.3.1/../../../../arm-none-eabi/lib/thumb/v7e-m/fpv4-sp/hard\libc_nano.a(lib_a-nano-freer.o) (__malloc_lock)
c:/mesh/arm_gcc/bin/../lib/gcc/arm-none-eabi/6.3.1/../../../../arm-none-eabi/lib/thumb/v7e-m/fpv4-sp/hard\libc_nano.a(lib_a-reent.o)
                              c:/mesh/arm_gcc/bin/../lib/gcc/arm-none-eabi/6.3.1/../../../../arm-none-eabi/lib/thumb/v7e-m/fpv4-sp/hard\libc_nano.a(lib_a-sbrkr.o) (errno)
c:/mesh/arm_gcc/bin/../lib/gcc/arm-none-eabi/6.3.1/../../../../arm-none-eabi/lib/thumb/v7e-m/fpv4-sp/hard\libc_nano.a(lib_a-strchr.o)
                              c:/mesh/arm_gcc/bin/../lib/gcc/arm-none-eabi/6.3.1/../../../../arm-none-eabi/lib/thumb/v7e-m/fpv4-sp/hard\libc_nano.a(lib_a-strrchr.o) (strchr)
c:/mesh/arm_gcc/bin/../lib/gcc/arm-none-eabi/6.3.1/../../../../arm-none-eabi/lib/thumb/v7e-m/fpv4-sp/hard\libnosys.a(sbrk.o)
                              c:/mesh/arm_gcc/bin/../lib/gcc/arm-none-eabi/6.3.1/../../../../arm-none-eabi/lib/thumb/v7e-m/fpv4-sp/hard\libc_nano.a(lib_a-sbrkr.o) (_sbrk)
c:/mesh/arm_gcc/bin/../lib/gcc/arm-none-eabi/6.3.1/../../../../arm-none-eabi/lib/thumb/v7e-m/fpv4-sp/hard\libnosys.a(_exit.o)
                              c:/mesh/arm_gcc/bin/../lib/gcc/arm-none-eabi/6.3.1/../../../../arm-none-eabi/lib/thumb/v7e-m/fpv4-sp/hard\libc_nano.a(lib_a-exit.o) (_exit)

Allocating common symbols
Common symbol       size              file

nrf_nvic_state      0xc               examples/dfu/CMakeFiles/dfu_nrf52832_xxAA_s132_6.0.0.dir/__/common/src/mesh_softdevice_init.c.obj
m_packet            0x24              examples/dfu/CMakeFiles/dfu_nrf52832_xxAA_s132_6.0.0.dir/__/__/mesh/core/src/core_tx.c.obj
bank_addr           0x4               examples/dfu/CMakeFiles/dfu_nrf52832_xxAA_s132_6.0.0.dir/src/main.c.obj
rom_length          0x4               examples/dfu/CMakeFiles/dfu_nrf52832_xxAA_s132_6.0.0.dir/src/main.c.obj
m_cmd_handler       0x4               examples/dfu/CMakeFiles/dfu_nrf52832_xxAA_s132_6.0.0.dir/__/__/mesh/dfu/src/nrf_mesh_dfu.c.obj
errno               0x4               c:/mesh/arm_gcc/bin/../lib/gcc/arm-none-eabi/6.3.1/../../../../arm-none-eabi/lib/thumb/v7e-m/fpv4-sp/hard\libc_nano.a(lib_a-reent.o)
_SEGGER_RTT         0x78              external/rtt/librtt_nrf52832_xxAA.a(SEGGER_RTT.c.obj)

Discarded input sections

 .text          0x00000000        0x0 c:/mesh/arm_gcc/bin/../lib/gcc/arm-none-eabi/6.3.1/thumb/v7e-m/fpv4-sp/hard/crti.o
 .data          0x00000000        0x0 c:/mesh/arm_gcc/bin/../lib/gcc/arm-none-eabi/6.3.1/thumb/v7e-m/fpv4-sp/hard/crti.o
 .bss           0x00000000        0x0 c:/mesh/arm_gcc/bin/../lib/gcc/arm-none-eabi/6.3.1/thumb/v7e-m/fpv4-sp/hard/crti.o
 .data          0x00000000        0x4 c:/mesh/arm_gcc/bin/../lib/gcc/arm-none-eabi/6.3.1/thumb/v7e-m/fpv4-sp/hard/crtbegin.o
 .data          0x00000000        0x0 c:/mesh/arm_gcc/bin/../lib/gcc/arm-none-eabi/6.3.1/../../../../arm-none-eabi/lib/thumb/v7e-m/fpv4-sp/hard/crt0.o
 .bss           0x00000000        0x0 c:/mesh/arm_gcc/bin/../lib/gcc/arm-none-eabi/6.3.1/../../../../arm-none-eabi/lib/thumb/v7e-m/fpv4-sp/hard/crt0.o
 .ARM.extab     0x00000000        0x0 c:/mesh/arm_gcc/bin/../lib/gcc/arm-none-eabi/6.3.1/../../../../arm-none-eabi/lib/thumb/v7e-m/fpv4-sp/hard/crt0.o
 .text          0x00000000        0x0 examples/dfu/CMakeFiles/dfu_nrf52832_xxAA_s132_6.0.0.dir/src/main.c.obj
 .data          0x00000000        0x0 examples/dfu/CMakeFiles/dfu_nrf52832_xxAA_s132_6.0.0.dir/src/main.c.obj
 .bss           0x00000000        0x0 examples/dfu/CMakeFiles/dfu_nrf52832_xxAA_s132_6.0.0.dir/src/main.c.obj
 .text          0x00000000        0x0 examples/dfu/CMakeFiles/dfu_nrf52832_xxAA_s132_6.0.0.dir/__/__/mesh/stack/src/mesh_stack.c.obj
 .data          0x00000000        0x0 examples/dfu/CMakeFiles/dfu_nrf52832_xxAA_s132_6.0.0.dir/__/__/mesh/stack/src/mesh_stack.c.obj
 .bss           0x00000000        0x0 examples/dfu/CMakeFiles/dfu_nrf52832_xxAA_s132_6.0.0.dir/__/__/mesh/stack/src/mesh_stack.c.obj
 .text.mesh_stack_is_device_provisioned
                0x00000000       0x1c examples/dfu/CMakeFiles/dfu_nrf52832_xxAA_s132_6.0.0.dir/__/__/mesh/stack/src/mesh_stack.c.obj
 .text          0x00000000        0x0 examples/dfu/CMakeFiles/dfu_nrf52832_xxAA_s132_6.0.0.dir/__/common/src/mesh_softdevice_init.c.obj
 .data          0x00000000        0x0 examples/dfu/CMakeFiles/dfu_nrf52832_xxAA_s132_6.0.0.dir/__/common/src/mesh_softdevice_init.c.obj
 .bss           0x00000000        0x0 examples/dfu/CMakeFiles/dfu_nrf52832_xxAA_s132_6.0.0.dir/__/common/src/mesh_softdevice_init.c.obj
 .text          0x00000000        0x0 examples/dfu/CMakeFiles/dfu_nrf52832_xxAA_s132_6.0.0.dir/__/common/src/mesh_provisionee.c.obj
 .data          0x00000000        0x0 examples/dfu/CMakeFiles/dfu_nrf52832_xxAA_s132_6.0.0.dir/__/common/src/mesh_provisionee.c.obj
 .bss           0x00000000        0x0 examples/dfu/CMakeFiles/dfu_nrf52832_xxAA_s132_6.0.0.dir/__/common/src/mesh_provisionee.c.obj
 .text          0x00000000        0x0 examples/dfu/CMakeFiles/dfu_nrf52832_xxAA_s132_6.0.0.dir/__/common/src/simple_hal.c.obj
 .data          0x00000000        0x0 examples/dfu/CMakeFiles/dfu_nrf52832_xxAA_s132_6.0.0.dir/__/common/src/simple_hal.c.obj
 .bss           0x00000000        0x0 examples/dfu/CMakeFiles/dfu_nrf52832_xxAA_s132_6.0.0.dir/__/common/src/simple_hal.c.obj
 .text.hal_led_pin_get
                0x00000000       0x18 examples/dfu/CMakeFiles/dfu_nrf52832_xxAA_s132_6.0.0.dir/__/common/src/simple_hal.c.obj
 .text.hal_led_pin_set
                0x00000000       0x18 examples/dfu/CMakeFiles/dfu_nrf52832_xxAA_s132_6.0.0.dir/__/common/src/simple_hal.c.obj
 .text.hal_buttons_init
                0x00000000       0x54 examples/dfu/CMakeFiles/dfu_nrf52832_xxAA_s132_6.0.0.dir/__/common/src/simple_hal.c.obj
 .text          0x00000000        0x0 examples/dfu/CMakeFiles/dfu_nrf52832_xxAA_s132_6.0.0.dir/__/__/mesh/access/src/access_publish.c.obj
 .data          0x00000000        0x0 examples/dfu/CMakeFiles/dfu_nrf52832_xxAA_s132_6.0.0.dir/__/__/mesh/access/src/access_publish.c.obj
 .bss           0x00000000        0x0 examples/dfu/CMakeFiles/dfu_nrf52832_xxAA_s132_6.0.0.dir/__/__/mesh/access/src/access_publish.c.obj
 .text          0x00000000        0x0 examples/dfu/CMakeFiles/dfu_nrf52832_xxAA_s132_6.0.0.dir/__/__/mesh/access/src/access.c.obj
 .data          0x00000000        0x0 examples/dfu/CMakeFiles/dfu_nrf52832_xxAA_s132_6.0.0.dir/__/__/mesh/access/src/access.c.obj
 .bss           0x00000000        0x0 examples/dfu/CMakeFiles/dfu_nrf52832_xxAA_s132_6.0.0.dir/__/__/mesh/access/src/access.c.obj
 .text.access_model_subscription_list_alloc
                0x00000000       0x60 examples/dfu/CMakeFiles/dfu_nrf52832_xxAA_s132_6.0.0.dir/__/__/mesh/access/src/access.c.obj
 .text.access_model_subscription_lists_share
                0x00000000       0x60 examples/dfu/CMakeFiles/dfu_nrf52832_xxAA_s132_6.0.0.dir/__/__/mesh/access/src/access.c.obj
 .text          0x00000000        0x0 examples/dfu/CMakeFiles/dfu_nrf52832_xxAA_s132_6.0.0.dir/__/__/mesh/access/src/access_reliable.c.obj
 .data          0x00000000        0x0 examples/dfu/CMakeFiles/dfu_nrf52832_xxAA_s132_6.0.0.dir/__/__/mesh/access/src/access_reliable.c.obj
 .bss           0x00000000        0x0 examples/dfu/CMakeFiles/dfu_nrf52832_xxAA_s132_6.0.0.dir/__/__/mesh/access/src/access_reliable.c.obj
 .text.access_model_reliable_publish
                0x00000000      0x1cc examples/dfu/CMakeFiles/dfu_nrf52832_xxAA_s132_6.0.0.dir/__/__/mesh/access/src/access_reliable.c.obj
 .text          0x00000000        0x0 examples/dfu/CMakeFiles/dfu_nrf52832_xxAA_s132_6.0.0.dir/__/__/mesh/access/src/device_state_manager.c.obj
 .data          0x00000000        0x0 examples/dfu/CMakeFiles/dfu_nrf52832_xxAA_s132_6.0.0.dir/__/__/mesh/access/src/device_state_manager.c.obj
 .bss           0x00000000        0x0 examples/dfu/CMakeFiles/dfu_nrf52832_xxAA_s132_6.0.0.dir/__/__/mesh/access/src/device_state_manager.c.obj
 .text.dsm_has_unflashed_data
                0x00000000       0x58 examples/dfu/CMakeFiles/dfu_nrf52832_xxAA_s132_6.0.0.dir/__/__/mesh/access/src/device_state_manager.c.obj
 .text.dsm_address_subscription_count_get
                0x00000000       0x80 examples/dfu/CMakeFiles/dfu_nrf52832_xxAA_s132_6.0.0.dir/__/__/mesh/access/src/device_state_manager.c.obj
 .text.dsm_subnet_handle_to_netkey_index
                0x00000000       0x34 examples/dfu/CMakeFiles/dfu_nrf52832_xxAA_s132_6.0.0.dir/__/__/mesh/access/src/device_state_manager.c.obj
 .text.dsm_devkey_handle_get
                0x00000000       0x3c examples/dfu/CMakeFiles/dfu_nrf52832_xxAA_s132_6.0.0.dir/__/__/mesh/access/src/device_state_manager.c.obj
 .text.dsm_beacon_info_get
                0x00000000       0x34 examples/dfu/CMakeFiles/dfu_nrf52832_xxAA_s132_6.0.0.dir/__/__/mesh/access/src/device_state_manager.c.obj
 .text          0x00000000        0x0 examples/dfu/CMakeFiles/dfu_nrf52832_xxAA_s132_6.0.0.dir/__/__/mesh/serial/src/serial_uart.c.obj
 .data          0x00000000        0x0 examples/dfu/CMakeFiles/dfu_nrf52832_xxAA_s132_6.0.0.dir/__/__/mesh/serial/src/serial_uart.c.obj
 .bss           0x00000000        0x0 examples/dfu/CMakeFiles/dfu_nrf52832_xxAA_s132_6.0.0.dir/__/__/mesh/serial/src/serial_uart.c.obj
 .text          0x00000000        0x0 examples/dfu/CMakeFiles/dfu_nrf52832_xxAA_s132_6.0.0.dir/__/__/mesh/serial/src/serial_bearer.c.obj
 .data          0x00000000        0x0 examples/dfu/CMakeFiles/dfu_nrf52832_xxAA_s132_6.0.0.dir/__/__/mesh/serial/src/serial_bearer.c.obj
 .bss           0x00000000        0x0 examples/dfu/CMakeFiles/dfu_nrf52832_xxAA_s132_6.0.0.dir/__/__/mesh/serial/src/serial_bearer.c.obj
 .text.serial_bearer_packet_buffer_get
                0x00000000       0x28 examples/dfu/CMakeFiles/dfu_nrf52832_xxAA_s132_6.0.0.dir/__/__/mesh/serial/src/serial_bearer.c.obj
 .text.serial_bearer_rx_pending
                0x00000000        0xc examples/dfu/CMakeFiles/dfu_nrf52832_xxAA_s132_6.0.0.dir/__/__/mesh/serial/src/serial_bearer.c.obj
 .text          0x00000000        0x0 examples/dfu/CMakeFiles/dfu_nrf52832_xxAA_s132_6.0.0.dir/__/__/mesh/serial/src/serial_handler_common.c.obj
 .data          0x00000000        0x0 examples/dfu/CMakeFiles/dfu_nrf52832_xxAA_s132_6.0.0.dir/__/__/mesh/serial/src/serial_handler_common.c.obj
 .bss           0x00000000        0x0 examples/dfu/CMakeFiles/dfu_nrf52832_xxAA_s132_6.0.0.dir/__/__/mesh/serial/src/serial_handler_common.c.obj
 .text          0x00000000        0x0 examples/dfu/CMakeFiles/dfu_nrf52832_xxAA_s132_6.0.0.dir/__/__/mesh/serial/src/serial_handler_access.c.obj
 .data          0x00000000        0x0 examples/dfu/CMakeFiles/dfu_nrf52832_xxAA_s132_6.0.0.dir/__/__/mesh/serial/src/serial_handler_access.c.obj
 .bss           0x00000000        0x0 examples/dfu/CMakeFiles/dfu_nrf52832_xxAA_s132_6.0.0.dir/__/__/mesh/serial/src/serial_handler_access.c.obj
 .text          0x00000000        0x0 examples/dfu/CMakeFiles/dfu_nrf52832_xxAA_s132_6.0.0.dir/__/__/mesh/serial/src/serial_handler_config.c.obj
 .data          0x00000000        0x0 examples/dfu/CMakeFiles/dfu_nrf52832_xxAA_s132_6.0.0.dir/__/__/mesh/serial/src/serial_handler_config.c.obj
 .bss           0x00000000        0x0 examples/dfu/CMakeFiles/dfu_nrf52832_xxAA_s132_6.0.0.dir/__/__/mesh/serial/src/serial_handler_config.c.obj
 .text          0x00000000        0x0 examples/dfu/CMakeFiles/dfu_nrf52832_xxAA_s132_6.0.0.dir/__/__/mesh/serial/src/serial_handler_openmesh.c.obj
 .data          0x00000000        0x0 examples/dfu/CMakeFiles/dfu_nrf52832_xxAA_s132_6.0.0.dir/__/__/mesh/serial/src/serial_handler_openmesh.c.obj
 .bss           0x00000000        0x0 examples/dfu/CMakeFiles/dfu_nrf52832_xxAA_s132_6.0.0.dir/__/__/mesh/serial/src/serial_handler_openmesh.c.obj
 .text          0x00000000        0x0 examples/dfu/CMakeFiles/dfu_nrf52832_xxAA_s132_6.0.0.dir/__/__/mesh/serial/src/serial.c.obj
 .data          0x00000000        0x0 examples/dfu/CMakeFiles/dfu_nrf52832_xxAA_s132_6.0.0.dir/__/__/mesh/serial/src/serial.c.obj
 .bss           0x00000000        0x0 examples/dfu/CMakeFiles/dfu_nrf52832_xxAA_s132_6.0.0.dir/__/__/mesh/serial/src/serial.c.obj
 .text          0x00000000        0x0 examples/dfu/CMakeFiles/dfu_nrf52832_xxAA_s132_6.0.0.dir/__/__/mesh/serial/src/serial_handler_prov.c.obj
 .data          0x00000000        0x0 examples/dfu/CMakeFiles/dfu_nrf52832_xxAA_s132_6.0.0.dir/__/__/mesh/serial/src/serial_handler_prov.c.obj
 .bss           0x00000000        0x0 examples/dfu/CMakeFiles/dfu_nrf52832_xxAA_s132_6.0.0.dir/__/__/mesh/serial/src/serial_handler_prov.c.obj
 .text.serial_handler_prov_context_get
                0x00000000       0x1c examples/dfu/CMakeFiles/dfu_nrf52832_xxAA_s132_6.0.0.dir/__/__/mesh/serial/src/serial_handler_prov.c.obj
 .text.serial_handler_prov_keys_get
                0x00000000       0x14 examples/dfu/CMakeFiles/dfu_nrf52832_xxAA_s132_6.0.0.dir/__/__/mesh/serial/src/serial_handler_prov.c.obj
 .text.serial_handler_prov_oob_caps_get
                0x00000000        0xc examples/dfu/CMakeFiles/dfu_nrf52832_xxAA_s132_6.0.0.dir/__/__/mesh/serial/src/serial_handler_prov.c.obj
 .text          0x00000000        0x0 examples/dfu/CMakeFiles/dfu_nrf52832_xxAA_s132_6.0.0.dir/__/__/mesh/serial/src/serial_handler_dfu.c.obj
 .data          0x00000000        0x0 examples/dfu/CMakeFiles/dfu_nrf52832_xxAA_s132_6.0.0.dir/__/__/mesh/serial/src/serial_handler_dfu.c.obj
 .bss           0x00000000        0x0 examples/dfu/CMakeFiles/dfu_nrf52832_xxAA_s132_6.0.0.dir/__/__/mesh/serial/src/serial_handler_dfu.c.obj
 .text          0x00000000        0x0 examples/dfu/CMakeFiles/dfu_nrf52832_xxAA_s132_6.0.0.dir/__/__/mesh/serial/src/serial_handler_mesh.c.obj
 .data          0x00000000        0x0 examples/dfu/CMakeFiles/dfu_nrf52832_xxAA_s132_6.0.0.dir/__/__/mesh/serial/src/serial_handler_mesh.c.obj
 .bss           0x00000000        0x0 examples/dfu/CMakeFiles/dfu_nrf52832_xxAA_s132_6.0.0.dir/__/__/mesh/serial/src/serial_handler_mesh.c.obj
 .text          0x00000000        0x0 examples/dfu/CMakeFiles/dfu_nrf52832_xxAA_s132_6.0.0.dir/__/__/mesh/serial/src/serial_handler_models.c.obj
 .data          0x00000000        0x0 examples/dfu/CMakeFiles/dfu_nrf52832_xxAA_s132_6.0.0.dir/__/__/mesh/serial/src/serial_handler_models.c.obj
 .bss           0x00000000        0x0 examples/dfu/CMakeFiles/dfu_nrf52832_xxAA_s132_6.0.0.dir/__/__/mesh/serial/src/serial_handler_models.c.obj
 .text.serial_handler_models_register
                0x00000000       0x38 examples/dfu/CMakeFiles/dfu_nrf52832_xxAA_s132_6.0.0.dir/__/__/mesh/serial/src/serial_handler_models.c.obj
 .text          0x00000000        0x0 examples/dfu/CMakeFiles/dfu_nrf52832_xxAA_s132_6.0.0.dir/__/__/mesh/serial/src/serial_handler_device.c.obj
 .data          0x00000000        0x0 examples/dfu/CMakeFiles/dfu_nrf52832_xxAA_s132_6.0.0.dir/__/__/mesh/serial/src/serial_handler_device.c.obj
 .bss           0x00000000        0x0 examples/dfu/CMakeFiles/dfu_nrf52832_xxAA_s132_6.0.0.dir/__/__/mesh/serial/src/serial_handler_device.c.obj
 .text          0x00000000        0x0 examples/dfu/CMakeFiles/dfu_nrf52832_xxAA_s132_6.0.0.dir/__/__/mesh/serial/src/nrf_mesh_serial.c.obj
 .data          0x00000000        0x0 examples/dfu/CMakeFiles/dfu_nrf52832_xxAA_s132_6.0.0.dir/__/__/mesh/serial/src/nrf_mesh_serial.c.obj
 .bss           0x00000000        0x0 examples/dfu/CMakeFiles/dfu_nrf52832_xxAA_s132_6.0.0.dir/__/__/mesh/serial/src/nrf_mesh_serial.c.obj
 .text.nrf_mesh_serial_state_get
                0x00000000        0x4 examples/dfu/CMakeFiles/dfu_nrf52832_xxAA_s132_6.0.0.dir/__/__/mesh/serial/src/nrf_mesh_serial.c.obj
 .text.nrf_mesh_serial_tx
                0x00000000       0x58 examples/dfu/CMakeFiles/dfu_nrf52832_xxAA_s132_6.0.0.dir/__/__/mesh/serial/src/nrf_mesh_serial.c.obj
 .text          0x00000000        0x0 examples/dfu/CMakeFiles/dfu_nrf52832_xxAA_s132_6.0.0.dir/__/__/mesh/serial/src/serial_handler_app.c.obj
 .data          0x00000000        0x0 examples/dfu/CMakeFiles/dfu_nrf52832_xxAA_s132_6.0.0.dir/__/__/mesh/serial/src/serial_handler_app.c.obj
 .bss           0x00000000        0x0 examples/dfu/CMakeFiles/dfu_nrf52832_xxAA_s132_6.0.0.dir/__/__/mesh/serial/src/serial_handler_app.c.obj
 .text          0x00000000        0x0 examples/dfu/CMakeFiles/dfu_nrf52832_xxAA_s132_6.0.0.dir/__/__/models/config/src/composition_data.c.obj
 .data          0x00000000        0x0 examples/dfu/CMakeFiles/dfu_nrf52832_xxAA_s132_6.0.0.dir/__/__/models/config/src/composition_data.c.obj
 .bss           0x00000000        0x0 examples/dfu/CMakeFiles/dfu_nrf52832_xxAA_s132_6.0.0.dir/__/__/models/config/src/composition_data.c.obj
 .text          0x00000000        0x0 examples/dfu/CMakeFiles/dfu_nrf52832_xxAA_s132_6.0.0.dir/__/__/models/config/src/config_server.c.obj
 .data          0x00000000        0x0 examples/dfu/CMakeFiles/dfu_nrf52832_xxAA_s132_6.0.0.dir/__/__/models/config/src/config_server.c.obj
 .bss           0x00000000        0x0 examples/dfu/CMakeFiles/dfu_nrf52832_xxAA_s132_6.0.0.dir/__/__/models/config/src/config_server.c.obj
 .text          0x00000000        0x0 examples/dfu/CMakeFiles/dfu_nrf52832_xxAA_s132_6.0.0.dir/__/__/models/config/src/packed_index_list.c.obj
 .data          0x00000000        0x0 examples/dfu/CMakeFiles/dfu_nrf52832_xxAA_s132_6.0.0.dir/__/__/models/config/src/packed_index_list.c.obj
 .bss           0x00000000        0x0 examples/dfu/CMakeFiles/dfu_nrf52832_xxAA_s132_6.0.0.dir/__/__/models/config/src/packed_index_list.c.obj
 .text          0x00000000        0x0 examples/dfu/CMakeFiles/dfu_nrf52832_xxAA_s132_6.0.0.dir/__/__/models/health/src/health_server.c.obj
 .data          0x00000000        0x0 examples/dfu/CMakeFiles/dfu_nrf52832_xxAA_s132_6.0.0.dir/__/__/models/health/src/health_server.c.obj
 .bss           0x00000000        0x0 examples/dfu/CMakeFiles/dfu_nrf52832_xxAA_s132_6.0.0.dir/__/__/models/health/src/health_server.c.obj
 .text.health_server_fault_register
                0x00000000      0x238 examples/dfu/CMakeFiles/dfu_nrf52832_xxAA_s132_6.0.0.dir/__/__/models/health/src/health_server.c.obj
 .text.health_server_fault_clear
                0x00000000      0x2f4 examples/dfu/CMakeFiles/dfu_nrf52832_xxAA_s132_6.0.0.dir/__/__/models/health/src/health_server.c.obj
 .text.health_server_fault_is_set
                0x00000000       0x1c examples/dfu/CMakeFiles/dfu_nrf52832_xxAA_s132_6.0.0.dir/__/__/models/health/src/health_server.c.obj
 .text.health_server_fault_count_get
                0x00000000      0x154 examples/dfu/CMakeFiles/dfu_nrf52832_xxAA_s132_6.0.0.dir/__/__/models/health/src/health_server.c.obj
 .text.health_server_attention_get
                0x00000000        0x8 examples/dfu/CMakeFiles/dfu_nrf52832_xxAA_s132_6.0.0.dir/__/__/models/health/src/health_server.c.obj
 .text.health_server_attention_set
                0x00000000       0x98 examples/dfu/CMakeFiles/dfu_nrf52832_xxAA_s132_6.0.0.dir/__/__/models/health/src/health_server.c.obj
 .text          0x00000000        0x0 examples/dfu/CMakeFiles/dfu_nrf52832_xxAA_s132_6.0.0.dir/__/__/mesh/prov/src/prov_provisioner.c.obj
 .data          0x00000000        0x0 examples/dfu/CMakeFiles/dfu_nrf52832_xxAA_s132_6.0.0.dir/__/__/mesh/prov/src/prov_provisioner.c.obj
 .bss           0x00000000        0x0 examples/dfu/CMakeFiles/dfu_nrf52832_xxAA_s132_6.0.0.dir/__/__/mesh/prov/src/prov_provisioner.c.obj
 .text.prov_provisioner_oob_pubkey
                0x00000000       0x34 examples/dfu/CMakeFiles/dfu_nrf52832_xxAA_s132_6.0.0.dir/__/__/mesh/prov/src/prov_provisioner.c.obj
 .text          0x00000000        0x0 examples/dfu/CMakeFiles/dfu_nrf52832_xxAA_s132_6.0.0.dir/__/__/mesh/prov/src/prov_provisionee.c.obj
 .data          0x00000000        0x0 examples/dfu/CMakeFiles/dfu_nrf52832_xxAA_s132_6.0.0.dir/__/__/mesh/prov/src/prov_provisionee.c.obj
 .bss           0x00000000        0x0 examples/dfu/CMakeFiles/dfu_nrf52832_xxAA_s132_6.0.0.dir/__/__/mesh/prov/src/prov_provisionee.c.obj
 .text          0x00000000        0x0 examples/dfu/CMakeFiles/dfu_nrf52832_xxAA_s132_6.0.0.dir/__/__/mesh/prov/src/nrf_mesh_prov.c.obj
 .data          0x00000000        0x0 examples/dfu/CMakeFiles/dfu_nrf52832_xxAA_s132_6.0.0.dir/__/__/mesh/prov/src/nrf_mesh_prov.c.obj
 .bss           0x00000000        0x0 examples/dfu/CMakeFiles/dfu_nrf52832_xxAA_s132_6.0.0.dir/__/__/mesh/prov/src/nrf_mesh_prov.c.obj
 .text.nrf_mesh_prov_listen_stop
                0x00000000       0x30 examples/dfu/CMakeFiles/dfu_nrf52832_xxAA_s132_6.0.0.dir/__/__/mesh/prov/src/nrf_mesh_prov.c.obj
 .text.nrf_mesh_prov_pubkey_provide
                0x00000000       0x10 examples/dfu/CMakeFiles/dfu_nrf52832_xxAA_s132_6.0.0.dir/__/__/mesh/prov/src/nrf_mesh_prov.c.obj
 .text          0x00000000        0x0 examples/dfu/CMakeFiles/dfu_nrf52832_xxAA_s132_6.0.0.dir/__/__/mesh/prov/src/provisioning.c.obj
 .data          0x00000000        0x0 examples/dfu/CMakeFiles/dfu_nrf52832_xxAA_s132_6.0.0.dir/__/__/mesh/prov/src/provisioning.c.obj
 .bss           0x00000000        0x0 examples/dfu/CMakeFiles/dfu_nrf52832_xxAA_s132_6.0.0.dir/__/__/mesh/prov/src/provisioning.c.obj
 .text.prov_tx  0x00000000       0x3c examples/dfu/CMakeFiles/dfu_nrf52832_xxAA_s132_6.0.0.dir/__/__/mesh/prov/src/provisioning.c.obj
 .text          0x00000000        0x0 examples/dfu/CMakeFiles/dfu_nrf52832_xxAA_s132_6.0.0.dir/__/__/mesh/prov/src/prov_beacon.c.obj
 .data          0x00000000        0x0 examples/dfu/CMakeFiles/dfu_nrf52832_xxAA_s132_6.0.0.dir/__/__/mesh/prov/src/prov_beacon.c.obj
 .bss           0x00000000        0x0 examples/dfu/CMakeFiles/dfu_nrf52832_xxAA_s132_6.0.0.dir/__/__/mesh/prov/src/prov_beacon.c.obj
 .text          0x00000000        0x0 examples/dfu/CMakeFiles/dfu_nrf52832_xxAA_s132_6.0.0.dir/__/__/mesh/prov/src/prov_utils.c.obj
 .data          0x00000000        0x0 examples/dfu/CMakeFiles/dfu_nrf52832_xxAA_s132_6.0.0.dir/__/__/mesh/prov/src/prov_utils.c.obj
 .bss           0x00000000        0x0 examples/dfu/CMakeFiles/dfu_nrf52832_xxAA_s132_6.0.0.dir/__/__/mesh/prov/src/prov_utils.c.obj
 .text          0x00000000        0x0 examples/dfu/CMakeFiles/dfu_nrf52832_xxAA_s132_6.0.0.dir/__/__/mesh/prov/src/prov_bearer_adv.c.obj
 .data          0x00000000        0x0 examples/dfu/CMakeFiles/dfu_nrf52832_xxAA_s132_6.0.0.dir/__/__/mesh/prov/src/prov_bearer_adv.c.obj
 .bss           0x00000000        0x0 examples/dfu/CMakeFiles/dfu_nrf52832_xxAA_s132_6.0.0.dir/__/__/mesh/prov/src/prov_bearer_adv.c.obj
 .text.calculate_3GPP_CRC
                0x00000000       0x28 examples/dfu/CMakeFiles/dfu_nrf52832_xxAA_s132_6.0.0.dir/__/__/mesh/prov/src/prov_bearer_adv.c.obj
 .text          0x00000000        0x0 examples/dfu/CMakeFiles/dfu_nrf52832_xxAA_s132_6.0.0.dir/__/__/mesh/dfu/src/nrf_mesh_dfu.c.obj
 .data          0x00000000        0x0 examples/dfu/CMakeFiles/dfu_nrf52832_xxAA_s132_6.0.0.dir/__/__/mesh/dfu/src/nrf_mesh_dfu.c.obj
 .bss           0x00000000        0x0 examples/dfu/CMakeFiles/dfu_nrf52832_xxAA_s132_6.0.0.dir/__/__/mesh/dfu/src/nrf_mesh_dfu.c.obj
 .text          0x00000000        0x0 examples/dfu/CMakeFiles/dfu_nrf52832_xxAA_s132_6.0.0.dir/__/nrf_mesh_weak.c.obj
 .data          0x00000000        0x0 examples/dfu/CMakeFiles/dfu_nrf52832_xxAA_s132_6.0.0.dir/__/nrf_mesh_weak.c.obj
 .bss           0x00000000        0x0 examples/dfu/CMakeFiles/dfu_nrf52832_xxAA_s132_6.0.0.dir/__/nrf_mesh_weak.c.obj
 .text._weak_handler
                0x00000000        0x4 examples/dfu/CMakeFiles/dfu_nrf52832_xxAA_s132_6.0.0.dir/__/nrf_mesh_weak.c.obj
 .text._weak_handler_ptr
                0x00000000        0x4 examples/dfu/CMakeFiles/dfu_nrf52832_xxAA_s132_6.0.0.dir/__/nrf_mesh_weak.c.obj
 .comment       0x00000000       0x80 examples/dfu/CMakeFiles/dfu_nrf52832_xxAA_s132_6.0.0.dir/__/nrf_mesh_weak.c.obj
 .ARM.attributes
                0x00000000       0x39 examples/dfu/CMakeFiles/dfu_nrf52832_xxAA_s132_6.0.0.dir/__/nrf_mesh_weak.c.obj
 .text          0x00000000        0x0 examples/dfu/CMakeFiles/dfu_nrf52832_xxAA_s132_6.0.0.dir/__/common/src/app_error_weak.c.obj
 .data          0x00000000        0x0 examples/dfu/CMakeFiles/dfu_nrf52832_xxAA_s132_6.0.0.dir/__/common/src/app_error_weak.c.obj
 .bss           0x00000000        0x0 examples/dfu/CMakeFiles/dfu_nrf52832_xxAA_s132_6.0.0.dir/__/common/src/app_error_weak.c.obj
 .text          0x00000000        0x0 examples/dfu/CMakeFiles/dfu_nrf52832_xxAA_s132_6.0.0.dir/__/common/src/assertion_handler_weak.c.obj
 .data          0x00000000        0x0 examples/dfu/CMakeFiles/dfu_nrf52832_xxAA_s132_6.0.0.dir/__/common/src/assertion_handler_weak.c.obj
 .bss           0x00000000        0x0 examples/dfu/CMakeFiles/dfu_nrf52832_xxAA_s132_6.0.0.dir/__/common/src/assertion_handler_weak.c.obj
 .text          0x00000000        0x0 examples/dfu/CMakeFiles/dfu_nrf52832_xxAA_s132_6.0.0.dir/__/__/mesh/core/src/internal_event.c.obj
 .data          0x00000000        0x0 examples/dfu/CMakeFiles/dfu_nrf52832_xxAA_s132_6.0.0.dir/__/__/mesh/core/src/internal_event.c.obj
 .bss           0x00000000        0x0 examples/dfu/CMakeFiles/dfu_nrf52832_xxAA_s132_6.0.0.dir/__/__/mesh/core/src/internal_event.c.obj
 .comment       0x00000000       0x80 examples/dfu/CMakeFiles/dfu_nrf52832_xxAA_s132_6.0.0.dir/__/__/mesh/core/src/internal_event.c.obj
 .ARM.attributes
                0x00000000       0x39 examples/dfu/CMakeFiles/dfu_nrf52832_xxAA_s132_6.0.0.dir/__/__/mesh/core/src/internal_event.c.obj
 .text          0x00000000        0x0 examples/dfu/CMakeFiles/dfu_nrf52832_xxAA_s132_6.0.0.dir/__/__/mesh/core/src/nrf_mesh_configure.c.obj
 .data          0x00000000        0x0 examples/dfu/CMakeFiles/dfu_nrf52832_xxAA_s132_6.0.0.dir/__/__/mesh/core/src/nrf_mesh_configure.c.obj
 .bss           0x00000000        0x0 examples/dfu/CMakeFiles/dfu_nrf52832_xxAA_s132_6.0.0.dir/__/__/mesh/core/src/nrf_mesh_configure.c.obj
 .text          0x00000000        0x0 examples/dfu/CMakeFiles/dfu_nrf52832_xxAA_s132_6.0.0.dir/__/__/mesh/core/src/aes.c.obj
 .data          0x00000000        0x0 examples/dfu/CMakeFiles/dfu_nrf52832_xxAA_s132_6.0.0.dir/__/__/mesh/core/src/aes.c.obj
 .bss           0x00000000        0x0 examples/dfu/CMakeFiles/dfu_nrf52832_xxAA_s132_6.0.0.dir/__/__/mesh/core/src/aes.c.obj
 .text          0x00000000        0x0 examples/dfu/CMakeFiles/dfu_nrf52832_xxAA_s132_6.0.0.dir/__/__/mesh/core/src/msg_cache.c.obj
 .data          0x00000000        0x0 examples/dfu/CMakeFiles/dfu_nrf52832_xxAA_s132_6.0.0.dir/__/__/mesh/core/src/msg_cache.c.obj
 .bss           0x00000000        0x0 examples/dfu/CMakeFiles/dfu_nrf52832_xxAA_s132_6.0.0.dir/__/__/mesh/core/src/msg_cache.c.obj
 .text.msg_cache_clear
                0x00000000       0x18 examples/dfu/CMakeFiles/dfu_nrf52832_xxAA_s132_6.0.0.dir/__/__/mesh/core/src/msg_cache.c.obj
 .text          0x00000000        0x0 examples/dfu/CMakeFiles/dfu_nrf52832_xxAA_s132_6.0.0.dir/__/__/mesh/core/src/transport.c.obj
 .data          0x00000000        0x0 examples/dfu/CMakeFiles/dfu_nrf52832_xxAA_s132_6.0.0.dir/__/__/mesh/core/src/transport.c.obj
 .bss           0x00000000        0x0 examples/dfu/CMakeFiles/dfu_nrf52832_xxAA_s132_6.0.0.dir/__/__/mesh/core/src/transport.c.obj
 .text.transport_sar_mem_funcs_reset
                0x00000000       0x30 examples/dfu/CMakeFiles/dfu_nrf52832_xxAA_s132_6.0.0.dir/__/__/mesh/core/src/transport.c.obj
 .text.transport_sar_mem_funcs_set
                0x00000000       0x48 examples/dfu/CMakeFiles/dfu_nrf52832_xxAA_s132_6.0.0.dir/__/__/mesh/core/src/transport.c.obj
 .text          0x00000000        0x0 examples/dfu/CMakeFiles/dfu_nrf52832_xxAA_s132_6.0.0.dir/__/__/mesh/core/src/event.c.obj
 .data          0x00000000        0x0 examples/dfu/CMakeFiles/dfu_nrf52832_xxAA_s132_6.0.0.dir/__/__/mesh/core/src/event.c.obj
 .bss           0x00000000        0x0 examples/dfu/CMakeFiles/dfu_nrf52832_xxAA_s132_6.0.0.dir/__/__/mesh/core/src/event.c.obj
 .text          0x00000000        0x0 examples/dfu/CMakeFiles/dfu_nrf52832_xxAA_s132_6.0.0.dir/__/__/mesh/core/src/packet_buffer.c.obj
 .data          0x00000000        0x0 examples/dfu/CMakeFiles/dfu_nrf52832_xxAA_s132_6.0.0.dir/__/__/mesh/core/src/packet_buffer.c.obj
 .bss           0x00000000        0x0 examples/dfu/CMakeFiles/dfu_nrf52832_xxAA_s132_6.0.0.dir/__/__/mesh/core/src/packet_buffer.c.obj
 .text          0x00000000        0x0 examples/dfu/CMakeFiles/dfu_nrf52832_xxAA_s132_6.0.0.dir/__/__/mesh/core/src/flash_manager_defrag.c.obj
 .data          0x00000000        0x0 examples/dfu/CMakeFiles/dfu_nrf52832_xxAA_s132_6.0.0.dir/__/__/mesh/core/src/flash_manager_defrag.c.obj
 .bss           0x00000000        0x0 examples/dfu/CMakeFiles/dfu_nrf52832_xxAA_s132_6.0.0.dir/__/__/mesh/core/src/flash_manager_defrag.c.obj
 .text.flash_manager_defragging
                0x00000000       0x44 examples/dfu/CMakeFiles/dfu_nrf52832_xxAA_s132_6.0.0.dir/__/__/mesh/core/src/flash_manager_defrag.c.obj
 .text          0x00000000        0x0 examples/dfu/CMakeFiles/dfu_nrf52832_xxAA_s132_6.0.0.dir/__/__/mesh/core/src/fifo.c.obj
 .data          0x00000000        0x0 examples/dfu/CMakeFiles/dfu_nrf52832_xxAA_s132_6.0.0.dir/__/__/mesh/core/src/fifo.c.obj
 .bss           0x00000000        0x0 examples/dfu/CMakeFiles/dfu_nrf52832_xxAA_s132_6.0.0.dir/__/__/mesh/core/src/fifo.c.obj
 .text.fifo_peek_at
                0x00000000       0x54 examples/dfu/CMakeFiles/dfu_nrf52832_xxAA_s132_6.0.0.dir/__/__/mesh/core/src/fifo.c.obj
 .text.fifo_peek
                0x00000000       0x50 examples/dfu/CMakeFiles/dfu_nrf52832_xxAA_s132_6.0.0.dir/__/__/mesh/core/src/fifo.c.obj
 .text.fifo_flush
                0x00000000        0x8 examples/dfu/CMakeFiles/dfu_nrf52832_xxAA_s132_6.0.0.dir/__/__/mesh/core/src/fifo.c.obj
 .text.fifo_get_len
                0x00000000        0x8 examples/dfu/CMakeFiles/dfu_nrf52832_xxAA_s132_6.0.0.dir/__/__/mesh/core/src/fifo.c.obj
 .text.fifo_is_full
                0x00000000       0x14 examples/dfu/CMakeFiles/dfu_nrf52832_xxAA_s132_6.0.0.dir/__/__/mesh/core/src/fifo.c.obj
 .text.fifo_is_empty
                0x00000000       0x10 examples/dfu/CMakeFiles/dfu_nrf52832_xxAA_s132_6.0.0.dir/__/__/mesh/core/src/fifo.c.obj
 .text          0x00000000        0x0 examples/dfu/CMakeFiles/dfu_nrf52832_xxAA_s132_6.0.0.dir/__/__/mesh/core/src/nrf_flash.c.obj
 .data          0x00000000        0x0 examples/dfu/CMakeFiles/dfu_nrf52832_xxAA_s132_6.0.0.dir/__/__/mesh/core/src/nrf_flash.c.obj
 .bss           0x00000000        0x0 examples/dfu/CMakeFiles/dfu_nrf52832_xxAA_s132_6.0.0.dir/__/__/mesh/core/src/nrf_flash.c.obj
 .text          0x00000000        0x0 examples/dfu/CMakeFiles/dfu_nrf52832_xxAA_s132_6.0.0.dir/__/__/mesh/core/src/packet_mgr.c.obj
 .data          0x00000000        0x0 examples/dfu/CMakeFiles/dfu_nrf52832_xxAA_s132_6.0.0.dir/__/__/mesh/core/src/packet_mgr.c.obj
 .bss           0x00000000        0x0 examples/dfu/CMakeFiles/dfu_nrf52832_xxAA_s132_6.0.0.dir/__/__/mesh/core/src/packet_mgr.c.obj
 .text.packet_mgr_alloc
                0x00000000      0x1a0 examples/dfu/CMakeFiles/dfu_nrf52832_xxAA_s132_6.0.0.dir/__/__/mesh/core/src/packet_mgr.c.obj
 .text.packet_mgr_free
                0x00000000       0x5c examples/dfu/CMakeFiles/dfu_nrf52832_xxAA_s132_6.0.0.dir/__/__/mesh/core/src/packet_mgr.c.obj
 .text.packet_mgr_get_free_space
                0x00000000       0x1c examples/dfu/CMakeFiles/dfu_nrf52832_xxAA_s132_6.0.0.dir/__/__/mesh/core/src/packet_mgr.c.obj
 .text.packet_mgr_refcount_get
                0x00000000        0x8 examples/dfu/CMakeFiles/dfu_nrf52832_xxAA_s132_6.0.0.dir/__/__/mesh/core/src/packet_mgr.c.obj
 .text.packet_mgr_size_get
                0x00000000        0x8 examples/dfu/CMakeFiles/dfu_nrf52832_xxAA_s132_6.0.0.dir/__/__/mesh/core/src/packet_mgr.c.obj
 .text          0x00000000        0x0 examples/dfu/CMakeFiles/dfu_nrf52832_xxAA_s132_6.0.0.dir/__/__/mesh/core/src/net_state.c.obj
 .data          0x00000000        0x0 examples/dfu/CMakeFiles/dfu_nrf52832_xxAA_s132_6.0.0.dir/__/__/mesh/core/src/net_state.c.obj
 .bss           0x00000000        0x0 examples/dfu/CMakeFiles/dfu_nrf52832_xxAA_s132_6.0.0.dir/__/__/mesh/core/src/net_state.c.obj
 .text.net_state_iv_update_start
                0x00000000       0x90 examples/dfu/CMakeFiles/dfu_nrf52832_xxAA_s132_6.0.0.dir/__/__/mesh/core/src/net_state.c.obj
 .text.net_state_iv_update_test_mode_set
                0x00000000        0xc examples/dfu/CMakeFiles/dfu_nrf52832_xxAA_s132_6.0.0.dir/__/__/mesh/core/src/net_state.c.obj
 .text.net_state_test_mode_transition_run
                0x00000000      0x170 examples/dfu/CMakeFiles/dfu_nrf52832_xxAA_s132_6.0.0.dir/__/__/mesh/core/src/net_state.c.obj
 .text          0x00000000        0x0 examples/dfu/CMakeFiles/dfu_nrf52832_xxAA_s132_6.0.0.dir/__/__/mesh/core/src/mesh_flash.c.obj
 .data          0x00000000        0x0 examples/dfu/CMakeFiles/dfu_nrf52832_xxAA_s132_6.0.0.dir/__/__/mesh/core/src/mesh_flash.c.obj
 .bss           0x00000000        0x0 examples/dfu/CMakeFiles/dfu_nrf52832_xxAA_s132_6.0.0.dir/__/__/mesh/core/src/mesh_flash.c.obj
 .text.mesh_flash_op_available_slots
                0x00000000       0x2c examples/dfu/CMakeFiles/dfu_nrf52832_xxAA_s132_6.0.0.dir/__/__/mesh/core/src/mesh_flash.c.obj
 .text          0x00000000        0x0 examples/dfu/CMakeFiles/dfu_nrf52832_xxAA_s132_6.0.0.dir/__/__/mesh/core/src/nrf_mesh_utils.c.obj
 .data          0x00000000        0x0 examples/dfu/CMakeFiles/dfu_nrf52832_xxAA_s132_6.0.0.dir/__/__/mesh/core/src/nrf_mesh_utils.c.obj
 .bss           0x00000000        0x0 examples/dfu/CMakeFiles/dfu_nrf52832_xxAA_s132_6.0.0.dir/__/__/mesh/core/src/nrf_mesh_utils.c.obj
 .text.nrf_mesh_rand_get
                0x00000000       0x10 examples/dfu/CMakeFiles/dfu_nrf52832_xxAA_s132_6.0.0.dir/__/__/mesh/core/src/nrf_mesh_utils.c.obj
 .text.nrf_mesh_gap_address_type_get
                0x00000000       0x34 examples/dfu/CMakeFiles/dfu_nrf52832_xxAA_s132_6.0.0.dir/__/__/mesh/core/src/nrf_mesh_utils.c.obj
 .text          0x00000000        0x0 examples/dfu/CMakeFiles/dfu_nrf52832_xxAA_s132_6.0.0.dir/__/__/mesh/core/src/nrf_mesh.c.obj
 .data          0x00000000        0x0 examples/dfu/CMakeFiles/dfu_nrf52832_xxAA_s132_6.0.0.dir/__/__/mesh/core/src/nrf_mesh.c.obj
 .bss           0x00000000        0x0 examples/dfu/CMakeFiles/dfu_nrf52832_xxAA_s132_6.0.0.dir/__/__/mesh/core/src/nrf_mesh.c.obj
 .text.nrf_mesh_process
                0x00000000        0x4 examples/dfu/CMakeFiles/dfu_nrf52832_xxAA_s132_6.0.0.dir/__/__/mesh/core/src/nrf_mesh.c.obj
 .text.nrf_mesh_evt_handler_remove
                0x00000000        0x4 examples/dfu/CMakeFiles/dfu_nrf52832_xxAA_s132_6.0.0.dir/__/__/mesh/core/src/nrf_mesh.c.obj
 .text.nrf_mesh_rx_cb_set
                0x00000000        0xc examples/dfu/CMakeFiles/dfu_nrf52832_xxAA_s132_6.0.0.dir/__/__/mesh/core/src/nrf_mesh.c.obj
 .text.nrf_mesh_rx_cb_clear
                0x00000000        0xc examples/dfu/CMakeFiles/dfu_nrf52832_xxAA_s132_6.0.0.dir/__/__/mesh/core/src/nrf_mesh.c.obj
 .text          0x00000000        0x0 examples/dfu/CMakeFiles/dfu_nrf52832_xxAA_s132_6.0.0.dir/__/__/mesh/core/src/queue.c.obj
 .data          0x00000000        0x0 examples/dfu/CMakeFiles/dfu_nrf52832_xxAA_s132_6.0.0.dir/__/__/mesh/core/src/queue.c.obj
 .bss           0x00000000        0x0 examples/dfu/CMakeFiles/dfu_nrf52832_xxAA_s132_6.0.0.dir/__/__/mesh/core/src/queue.c.obj
 .text          0x00000000        0x0 examples/dfu/CMakeFiles/dfu_nrf52832_xxAA_s132_6.0.0.dir/__/__/mesh/core/src/hal.c.obj
 .data          0x00000000        0x0 examples/dfu/CMakeFiles/dfu_nrf52832_xxAA_s132_6.0.0.dir/__/__/mesh/core/src/hal.c.obj
 .bss           0x00000000        0x0 examples/dfu/CMakeFiles/dfu_nrf52832_xxAA_s132_6.0.0.dir/__/__/mesh/core/src/hal.c.obj
 .text          0x00000000        0x0 examples/dfu/CMakeFiles/dfu_nrf52832_xxAA_s132_6.0.0.dir/__/__/mesh/core/src/aes_cmac.c.obj
 .data          0x00000000        0x0 examples/dfu/CMakeFiles/dfu_nrf52832_xxAA_s132_6.0.0.dir/__/__/mesh/core/src/aes_cmac.c.obj
 .bss           0x00000000        0x0 examples/dfu/CMakeFiles/dfu_nrf52832_xxAA_s132_6.0.0.dir/__/__/mesh/core/src/aes_cmac.c.obj
 .text          0x00000000        0x0 examples/dfu/CMakeFiles/dfu_nrf52832_xxAA_s132_6.0.0.dir/__/__/mesh/core/src/timer_scheduler.c.obj
 .data          0x00000000        0x0 examples/dfu/CMakeFiles/dfu_nrf52832_xxAA_s132_6.0.0.dir/__/__/mesh/core/src/timer_scheduler.c.obj
 .bss           0x00000000        0x0 examples/dfu/CMakeFiles/dfu_nrf52832_xxAA_s132_6.0.0.dir/__/__/mesh/core/src/timer_scheduler.c.obj
 .text          0x00000000        0x0 examples/dfu/CMakeFiles/dfu_nrf52832_xxAA_s132_6.0.0.dir/__/__/mesh/core/src/timer.c.obj
 .data          0x00000000        0x0 examples/dfu/CMakeFiles/dfu_nrf52832_xxAA_s132_6.0.0.dir/__/__/mesh/core/src/timer.c.obj
 .bss           0x00000000        0x0 examples/dfu/CMakeFiles/dfu_nrf52832_xxAA_s132_6.0.0.dir/__/__/mesh/core/src/timer.c.obj
 .text.timer_order_cb_ppi
                0x00000000       0xd8 examples/dfu/CMakeFiles/dfu_nrf52832_xxAA_s132_6.0.0.dir/__/__/mesh/core/src/timer.c.obj
 .text.timer_order_ppi
                0x00000000       0xc8 examples/dfu/CMakeFiles/dfu_nrf52832_xxAA_s132_6.0.0.dir/__/__/mesh/core/src/timer.c.obj
 .text.timer_abort
                0x00000000       0x84 examples/dfu/CMakeFiles/dfu_nrf52832_xxAA_s132_6.0.0.dir/__/__/mesh/core/src/timer.c.obj
 .text          0x00000000        0x0 examples/dfu/CMakeFiles/dfu_nrf52832_xxAA_s132_6.0.0.dir/__/__/mesh/core/src/ticker.c.obj
 .data          0x00000000        0x0 examples/dfu/CMakeFiles/dfu_nrf52832_xxAA_s132_6.0.0.dir/__/__/mesh/core/src/ticker.c.obj
 .bss           0x00000000        0x0 examples/dfu/CMakeFiles/dfu_nrf52832_xxAA_s132_6.0.0.dir/__/__/mesh/core/src/ticker.c.obj
 .text.ticker_get
                0x00000000        0xc examples/dfu/CMakeFiles/dfu_nrf52832_xxAA_s132_6.0.0.dir/__/__/mesh/core/src/ticker.c.obj
 .text          0x00000000        0x0 examples/dfu/CMakeFiles/dfu_nrf52832_xxAA_s132_6.0.0.dir/__/__/mesh/core/src/rand.c.obj
 .data          0x00000000        0x0 examples/dfu/CMakeFiles/dfu_nrf52832_xxAA_s132_6.0.0.dir/__/__/mesh/core/src/rand.c.obj
 .bss           0x00000000        0x0 examples/dfu/CMakeFiles/dfu_nrf52832_xxAA_s132_6.0.0.dir/__/__/mesh/core/src/rand.c.obj
 .text          0x00000000        0x0 examples/dfu/CMakeFiles/dfu_nrf52832_xxAA_s132_6.0.0.dir/__/__/mesh/core/src/nrf_mesh_opt.c.obj
 .data          0x00000000        0x0 examples/dfu/CMakeFiles/dfu_nrf52832_xxAA_s132_6.0.0.dir/__/__/mesh/core/src/nrf_mesh_opt.c.obj
 .bss           0x00000000        0x0 examples/dfu/CMakeFiles/dfu_nrf52832_xxAA_s132_6.0.0.dir/__/__/mesh/core/src/nrf_mesh_opt.c.obj
 .text          0x00000000        0x0 examples/dfu/CMakeFiles/dfu_nrf52832_xxAA_s132_6.0.0.dir/__/__/mesh/core/src/timeslot.c.obj
 .data          0x00000000        0x0 examples/dfu/CMakeFiles/dfu_nrf52832_xxAA_s132_6.0.0.dir/__/__/mesh/core/src/timeslot.c.obj
 .bss           0x00000000        0x0 examples/dfu/CMakeFiles/dfu_nrf52832_xxAA_s132_6.0.0.dir/__/__/mesh/core/src/timeslot.c.obj
 .text.timeslot_restart
                0x00000000       0x30 examples/dfu/CMakeFiles/dfu_nrf52832_xxAA_s132_6.0.0.dir/__/__/mesh/core/src/timeslot.c.obj
 .text.timeslot_end_time_get
                0x00000000       0x30 examples/dfu/CMakeFiles/dfu_nrf52832_xxAA_s132_6.0.0.dir/__/__/mesh/core/src/timeslot.c.obj
 .text.timeslot_is_in_ts
                0x00000000        0xc examples/dfu/CMakeFiles/dfu_nrf52832_xxAA_s132_6.0.0.dir/__/__/mesh/core/src/timeslot.c.obj
 .text          0x00000000        0x0 examples/dfu/CMakeFiles/dfu_nrf52832_xxAA_s132_6.0.0.dir/__/__/mesh/core/src/bearer_event.c.obj
 .data          0x00000000        0x0 examples/dfu/CMakeFiles/dfu_nrf52832_xxAA_s132_6.0.0.dir/__/__/mesh/core/src/bearer_event.c.obj
 .bss           0x00000000        0x0 examples/dfu/CMakeFiles/dfu_nrf52832_xxAA_s132_6.0.0.dir/__/__/mesh/core/src/bearer_event.c.obj
 .text.bearer_event_timer_sch_post
                0x00000000       0x54 examples/dfu/CMakeFiles/dfu_nrf52832_xxAA_s132_6.0.0.dir/__/__/mesh/core/src/bearer_event.c.obj
 .text.bearer_event_in_correct_irq_priority
                0x00000000       0x54 examples/dfu/CMakeFiles/dfu_nrf52832_xxAA_s132_6.0.0.dir/__/__/mesh/core/src/bearer_event.c.obj
 .text          0x00000000        0x0 examples/dfu/CMakeFiles/dfu_nrf52832_xxAA_s132_6.0.0.dir/__/__/mesh/core/src/enc.c.obj
 .data          0x00000000        0x0 examples/dfu/CMakeFiles/dfu_nrf52832_xxAA_s132_6.0.0.dir/__/__/mesh/core/src/enc.c.obj
 .bss           0x00000000        0x0 examples/dfu/CMakeFiles/dfu_nrf52832_xxAA_s132_6.0.0.dir/__/__/mesh/core/src/enc.c.obj
 .text.enc_key_generate
                0x00000000        0x8 examples/dfu/CMakeFiles/dfu_nrf52832_xxAA_s132_6.0.0.dir/__/__/mesh/core/src/enc.c.obj
 .text          0x00000000        0x0 examples/dfu/CMakeFiles/dfu_nrf52832_xxAA_s132_6.0.0.dir/__/__/mesh/core/src/network.c.obj
 .data          0x00000000        0x0 examples/dfu/CMakeFiles/dfu_nrf52832_xxAA_s132_6.0.0.dir/__/__/mesh/core/src/network.c.obj
 .bss           0x00000000        0x0 examples/dfu/CMakeFiles/dfu_nrf52832_xxAA_s132_6.0.0.dir/__/__/mesh/core/src/network.c.obj
 .text.network_packet_discard
                0x00000000       0x28 examples/dfu/CMakeFiles/dfu_nrf52832_xxAA_s132_6.0.0.dir/__/__/mesh/core/src/network.c.obj
 .text          0x00000000        0x0 examples/dfu/CMakeFiles/dfu_nrf52832_xxAA_s132_6.0.0.dir/__/__/mesh/core/src/net_packet.c.obj
 .data          0x00000000        0x0 examples/dfu/CMakeFiles/dfu_nrf52832_xxAA_s132_6.0.0.dir/__/__/mesh/core/src/net_packet.c.obj
 .bss           0x00000000        0x0 examples/dfu/CMakeFiles/dfu_nrf52832_xxAA_s132_6.0.0.dir/__/__/mesh/core/src/net_packet.c.obj
 .text.net_packet_enc_start_get
                0x00000000        0x4 examples/dfu/CMakeFiles/dfu_nrf52832_xxAA_s132_6.0.0.dir/__/__/mesh/core/src/net_packet.c.obj
 .text.net_packet_payload_get
                0x00000000        0x4 examples/dfu/CMakeFiles/dfu_nrf52832_xxAA_s132_6.0.0.dir/__/__/mesh/core/src/net_packet.c.obj
 .text          0x00000000        0x0 examples/dfu/CMakeFiles/dfu_nrf52832_xxAA_s132_6.0.0.dir/__/__/mesh/core/src/msqueue.c.obj
 .data          0x00000000        0x0 examples/dfu/CMakeFiles/dfu_nrf52832_xxAA_s132_6.0.0.dir/__/__/mesh/core/src/msqueue.c.obj
 .bss           0x00000000        0x0 examples/dfu/CMakeFiles/dfu_nrf52832_xxAA_s132_6.0.0.dir/__/__/mesh/core/src/msqueue.c.obj
 .text.msq_reset
                0x00000000       0x24 examples/dfu/CMakeFiles/dfu_nrf52832_xxAA_s132_6.0.0.dir/__/__/mesh/core/src/msqueue.c.obj
 .text          0x00000000        0x0 examples/dfu/CMakeFiles/dfu_nrf52832_xxAA_s132_6.0.0.dir/__/__/mesh/core/src/nrf_mesh_keygen.c.obj
 .data          0x00000000        0x0 examples/dfu/CMakeFiles/dfu_nrf52832_xxAA_s132_6.0.0.dir/__/__/mesh/core/src/nrf_mesh_keygen.c.obj
 .bss           0x00000000        0x0 examples/dfu/CMakeFiles/dfu_nrf52832_xxAA_s132_6.0.0.dir/__/__/mesh/core/src/nrf_mesh_keygen.c.obj
 .text.nrf_mesh_keygen_identitykey
                0x00000000       0x4c examples/dfu/CMakeFiles/dfu_nrf52832_xxAA_s132_6.0.0.dir/__/__/mesh/core/src/nrf_mesh_keygen.c.obj
 .text          0x00000000        0x0 examples/dfu/CMakeFiles/dfu_nrf52832_xxAA_s132_6.0.0.dir/__/__/mesh/core/src/cache.c.obj
 .data          0x00000000        0x0 examples/dfu/CMakeFiles/dfu_nrf52832_xxAA_s132_6.0.0.dir/__/__/mesh/core/src/cache.c.obj
 .bss           0x00000000        0x0 examples/dfu/CMakeFiles/dfu_nrf52832_xxAA_s132_6.0.0.dir/__/__/mesh/core/src/cache.c.obj
 .text.cache_init
                0x00000000       0x44 examples/dfu/CMakeFiles/dfu_nrf52832_xxAA_s132_6.0.0.dir/__/__/mesh/core/src/cache.c.obj
 .text.cache_has_elem
                0x00000000       0x5c examples/dfu/CMakeFiles/dfu_nrf52832_xxAA_s132_6.0.0.dir/__/__/mesh/core/src/cache.c.obj
 .text.cache_put
                0x00000000       0x2c examples/dfu/CMakeFiles/dfu_nrf52832_xxAA_s132_6.0.0.dir/__/__/mesh/core/src/cache.c.obj
 .text.cache_erase_elem
                0x00000000       0x80 examples/dfu/CMakeFiles/dfu_nrf52832_xxAA_s132_6.0.0.dir/__/__/mesh/core/src/cache.c.obj
 .comment       0x00000000       0x80 examples/dfu/CMakeFiles/dfu_nrf52832_xxAA_s132_6.0.0.dir/__/__/mesh/core/src/cache.c.obj
 .ARM.attributes
                0x00000000       0x39 examples/dfu/CMakeFiles/dfu_nrf52832_xxAA_s132_6.0.0.dir/__/__/mesh/core/src/cache.c.obj
 .text          0x00000000        0x0 examples/dfu/CMakeFiles/dfu_nrf52832_xxAA_s132_6.0.0.dir/__/__/mesh/core/src/uri.c.obj
 .data          0x00000000        0x0 examples/dfu/CMakeFiles/dfu_nrf52832_xxAA_s132_6.0.0.dir/__/__/mesh/core/src/uri.c.obj
 .bss           0x00000000        0x0 examples/dfu/CMakeFiles/dfu_nrf52832_xxAA_s132_6.0.0.dir/__/__/mesh/core/src/uri.c.obj
 .text.uri_data_generate
                0x00000000       0x88 examples/dfu/CMakeFiles/dfu_nrf52832_xxAA_s132_6.0.0.dir/__/__/mesh/core/src/uri.c.obj
 .text.uri_data_parse
                0x00000000       0x80 examples/dfu/CMakeFiles/dfu_nrf52832_xxAA_s132_6.0.0.dir/__/__/mesh/core/src/uri.c.obj
 .text.uri_scheme_name_code_point
                0x00000000       0x5c examples/dfu/CMakeFiles/dfu_nrf52832_xxAA_s132_6.0.0.dir/__/__/mesh/core/src/uri.c.obj
 .text.uri_scheme_name_string
                0x00000000       0x14 examples/dfu/CMakeFiles/dfu_nrf52832_xxAA_s132_6.0.0.dir/__/__/mesh/core/src/uri.c.obj
 .rodata.m_code_point_strings
                0x00000000      0x2ec examples/dfu/CMakeFiles/dfu_nrf52832_xxAA_s132_6.0.0.dir/__/__/mesh/core/src/uri.c.obj
 .rodata.str1.4
                0x00000000      0x6ba examples/dfu/CMakeFiles/dfu_nrf52832_xxAA_s132_6.0.0.dir/__/__/mesh/core/src/uri.c.obj
 .comment       0x00000000       0x80 examples/dfu/CMakeFiles/dfu_nrf52832_xxAA_s132_6.0.0.dir/__/__/mesh/core/src/uri.c.obj
 .ARM.attributes
                0x00000000       0x39 examples/dfu/CMakeFiles/dfu_nrf52832_xxAA_s132_6.0.0.dir/__/__/mesh/core/src/uri.c.obj
 .text          0x00000000        0x0 examples/dfu/CMakeFiles/dfu_nrf52832_xxAA_s132_6.0.0.dir/__/__/mesh/core/src/list.c.obj
 .data          0x00000000        0x0 examples/dfu/CMakeFiles/dfu_nrf52832_xxAA_s132_6.0.0.dir/__/__/mesh/core/src/list.c.obj
 .bss           0x00000000        0x0 examples/dfu/CMakeFiles/dfu_nrf52832_xxAA_s132_6.0.0.dir/__/__/mesh/core/src/list.c.obj
 .text.list_size_get
                0x00000000       0x14 examples/dfu/CMakeFiles/dfu_nrf52832_xxAA_s132_6.0.0.dir/__/__/mesh/core/src/list.c.obj
 .text.list_sorted_add
                0x00000000       0x8c examples/dfu/CMakeFiles/dfu_nrf52832_xxAA_s132_6.0.0.dir/__/__/mesh/core/src/list.c.obj
 .text          0x00000000        0x0 examples/dfu/CMakeFiles/dfu_nrf52832_xxAA_s132_6.0.0.dir/__/__/mesh/core/src/log.c.obj
 .data          0x00000000        0x0 examples/dfu/CMakeFiles/dfu_nrf52832_xxAA_s132_6.0.0.dir/__/__/mesh/core/src/log.c.obj
 .bss           0x00000000        0x0 examples/dfu/CMakeFiles/dfu_nrf52832_xxAA_s132_6.0.0.dir/__/__/mesh/core/src/log.c.obj
 .text.log_callback_logview
                0x00000000       0x38 examples/dfu/CMakeFiles/dfu_nrf52832_xxAA_s132_6.0.0.dir/__/__/mesh/core/src/log.c.obj
 .text.log_set_callback
                0x00000000        0xc examples/dfu/CMakeFiles/dfu_nrf52832_xxAA_s132_6.0.0.dir/__/__/mesh/core/src/log.c.obj
 .text.log_vprintf
                0x00000000       0x18 examples/dfu/CMakeFiles/dfu_nrf52832_xxAA_s132_6.0.0.dir/__/__/mesh/core/src/log.c.obj
 .rodata.log_callback_logview.str1.4
                0x00000000       0x12 examples/dfu/CMakeFiles/dfu_nrf52832_xxAA_s132_6.0.0.dir/__/__/mesh/core/src/log.c.obj
 .text          0x00000000        0x0 examples/dfu/CMakeFiles/dfu_nrf52832_xxAA_s132_6.0.0.dir/__/__/mesh/core/src/flash_manager.c.obj
 .data          0x00000000        0x0 examples/dfu/CMakeFiles/dfu_nrf52832_xxAA_s132_6.0.0.dir/__/__/mesh/core/src/flash_manager.c.obj
 .bss           0x00000000        0x0 examples/dfu/CMakeFiles/dfu_nrf52832_xxAA_s132_6.0.0.dir/__/__/mesh/core/src/flash_manager.c.obj
 .text.flash_manager_entry_count_get
                0x00000000       0xf4 examples/dfu/CMakeFiles/dfu_nrf52832_xxAA_s132_6.0.0.dir/__/__/mesh/core/src/flash_manager.c.obj
 .text.flash_manager_entry_release
                0x00000000       0x74 examples/dfu/CMakeFiles/dfu_nrf52832_xxAA_s132_6.0.0.dir/__/__/mesh/core/src/flash_manager.c.obj
 .text          0x00000000        0x0 examples/dfu/CMakeFiles/dfu_nrf52832_xxAA_s132_6.0.0.dir/__/__/mesh/core/src/ccm_soft.c.obj
 .data          0x00000000        0x0 examples/dfu/CMakeFiles/dfu_nrf52832_xxAA_s132_6.0.0.dir/__/__/mesh/core/src/ccm_soft.c.obj
 .bss           0x00000000        0x0 examples/dfu/CMakeFiles/dfu_nrf52832_xxAA_s132_6.0.0.dir/__/__/mesh/core/src/ccm_soft.c.obj
 .text          0x00000000        0x0 examples/dfu/CMakeFiles/dfu_nrf52832_xxAA_s132_6.0.0.dir/__/__/mesh/core/src/toolchain.c.obj
 .data          0x00000000        0x0 examples/dfu/CMakeFiles/dfu_nrf52832_xxAA_s132_6.0.0.dir/__/__/mesh/core/src/toolchain.c.obj
 .bss           0x00000000        0x0 examples/dfu/CMakeFiles/dfu_nrf52832_xxAA_s132_6.0.0.dir/__/__/mesh/core/src/toolchain.c.obj
 .comment       0x00000000       0x80 examples/dfu/CMakeFiles/dfu_nrf52832_xxAA_s132_6.0.0.dir/__/__/mesh/core/src/toolchain.c.obj
 .ARM.attributes
                0x00000000       0x39 examples/dfu/CMakeFiles/dfu_nrf52832_xxAA_s132_6.0.0.dir/__/__/mesh/core/src/toolchain.c.obj
 .text          0x00000000        0x0 examples/dfu/CMakeFiles/dfu_nrf52832_xxAA_s132_6.0.0.dir/__/__/mesh/core/src/replay_cache.c.obj
 .data          0x00000000        0x0 examples/dfu/CMakeFiles/dfu_nrf52832_xxAA_s132_6.0.0.dir/__/__/mesh/core/src/replay_cache.c.obj
 .bss           0x00000000        0x0 examples/dfu/CMakeFiles/dfu_nrf52832_xxAA_s132_6.0.0.dir/__/__/mesh/core/src/replay_cache.c.obj
 .text.replay_cache_on_iv_update
                0x00000000       0x2c examples/dfu/CMakeFiles/dfu_nrf52832_xxAA_s132_6.0.0.dir/__/__/mesh/core/src/replay_cache.c.obj
 .text.replay_cache_clear
                0x00000000       0x20 examples/dfu/CMakeFiles/dfu_nrf52832_xxAA_s132_6.0.0.dir/__/__/mesh/core/src/replay_cache.c.obj
 .text          0x00000000        0x0 examples/dfu/CMakeFiles/dfu_nrf52832_xxAA_s132_6.0.0.dir/__/__/mesh/core/src/beacon.c.obj
 .data          0x00000000        0x0 examples/dfu/CMakeFiles/dfu_nrf52832_xxAA_s132_6.0.0.dir/__/__/mesh/core/src/beacon.c.obj
 .bss           0x00000000        0x0 examples/dfu/CMakeFiles/dfu_nrf52832_xxAA_s132_6.0.0.dir/__/__/mesh/core/src/beacon.c.obj
 .text          0x00000000        0x0 examples/dfu/CMakeFiles/dfu_nrf52832_xxAA_s132_6.0.0.dir/__/__/mesh/core/src/flash_manager_internal.c.obj
 .data          0x00000000        0x0 examples/dfu/CMakeFiles/dfu_nrf52832_xxAA_s132_6.0.0.dir/__/__/mesh/core/src/flash_manager_internal.c.obj
 .bss           0x00000000        0x0 examples/dfu/CMakeFiles/dfu_nrf52832_xxAA_s132_6.0.0.dir/__/__/mesh/core/src/flash_manager_internal.c.obj
 .text          0x00000000        0x0 examples/dfu/CMakeFiles/dfu_nrf52832_xxAA_s132_6.0.0.dir/__/__/mesh/core/src/core_tx.c.obj
 .data          0x00000000        0x0 examples/dfu/CMakeFiles/dfu_nrf52832_xxAA_s132_6.0.0.dir/__/__/mesh/core/src/core_tx.c.obj
 .bss           0x00000000        0x0 examples/dfu/CMakeFiles/dfu_nrf52832_xxAA_s132_6.0.0.dir/__/__/mesh/core/src/core_tx.c.obj
 .text.core_tx_bearer_type_get
                0x00000000       0x2c examples/dfu/CMakeFiles/dfu_nrf52832_xxAA_s132_6.0.0.dir/__/__/mesh/core/src/core_tx.c.obj
 .text.core_tx_bearer_count_get
                0x00000000        0xc examples/dfu/CMakeFiles/dfu_nrf52832_xxAA_s132_6.0.0.dir/__/__/mesh/core/src/core_tx.c.obj
 .text          0x00000000        0x0 examples/dfu/CMakeFiles/dfu_nrf52832_xxAA_s132_6.0.0.dir/__/__/mesh/core/src/heartbeat.c.obj
 .data          0x00000000        0x0 examples/dfu/CMakeFiles/dfu_nrf52832_xxAA_s132_6.0.0.dir/__/__/mesh/core/src/heartbeat.c.obj
 .bss           0x00000000        0x0 examples/dfu/CMakeFiles/dfu_nrf52832_xxAA_s132_6.0.0.dir/__/__/mesh/core/src/heartbeat.c.obj
 .text          0x00000000        0x0 examples/dfu/CMakeFiles/dfu_nrf52832_xxAA_s132_6.0.0.dir/__/__/mesh/core/src/net_beacon.c.obj
 .data          0x00000000        0x0 examples/dfu/CMakeFiles/dfu_nrf52832_xxAA_s132_6.0.0.dir/__/__/mesh/core/src/net_beacon.c.obj
 .bss           0x00000000        0x0 examples/dfu/CMakeFiles/dfu_nrf52832_xxAA_s132_6.0.0.dir/__/__/mesh/core/src/net_beacon.c.obj
 .text.net_beacon_build
                0x00000000       0x68 examples/dfu/CMakeFiles/dfu_nrf52832_xxAA_s132_6.0.0.dir/__/__/mesh/core/src/net_beacon.c.obj
 .text          0x00000000        0x0 examples/dfu/CMakeFiles/dfu_nrf52832_xxAA_s132_6.0.0.dir/__/__/mesh/core/src/fsm.c.obj
 .data          0x00000000        0x0 examples/dfu/CMakeFiles/dfu_nrf52832_xxAA_s132_6.0.0.dir/__/__/mesh/core/src/fsm.c.obj
 .bss           0x00000000        0x0 examples/dfu/CMakeFiles/dfu_nrf52832_xxAA_s132_6.0.0.dir/__/__/mesh/core/src/fsm.c.obj
 .text.fsm_event_post_try
                0x00000000      0x238 examples/dfu/CMakeFiles/dfu_nrf52832_xxAA_s132_6.0.0.dir/__/__/mesh/core/src/fsm.c.obj
 .text.fsm_init
                0x00000000      0x100 examples/dfu/CMakeFiles/dfu_nrf52832_xxAA_s132_6.0.0.dir/__/__/mesh/core/src/fsm.c.obj
 .text.fsm_event_post
                0x00000000       0xbc examples/dfu/CMakeFiles/dfu_nrf52832_xxAA_s132_6.0.0.dir/__/__/mesh/core/src/fsm.c.obj
 .text.fsm_is_processing
                0x00000000        0xc examples/dfu/CMakeFiles/dfu_nrf52832_xxAA_s132_6.0.0.dir/__/__/mesh/core/src/fsm.c.obj
 .rodata.fsm_event_post.str1.4
                0x00000000        0xb examples/dfu/CMakeFiles/dfu_nrf52832_xxAA_s132_6.0.0.dir/__/__/mesh/core/src/fsm.c.obj
 .rodata.fsm_event_post_try.str1.4
                0x00000000       0x44 examples/dfu/CMakeFiles/dfu_nrf52832_xxAA_s132_6.0.0.dir/__/__/mesh/core/src/fsm.c.obj
 .rodata.fsm_init.str1.4
                0x00000000        0xa examples/dfu/CMakeFiles/dfu_nrf52832_xxAA_s132_6.0.0.dir/__/__/mesh/core/src/fsm.c.obj
 .comment       0x00000000       0x80 examples/dfu/CMakeFiles/dfu_nrf52832_xxAA_s132_6.0.0.dir/__/__/mesh/core/src/fsm.c.obj
 .ARM.attributes
                0x00000000       0x39 examples/dfu/CMakeFiles/dfu_nrf52832_xxAA_s132_6.0.0.dir/__/__/mesh/core/src/fsm.c.obj
 .text          0x00000000        0x0 examples/dfu/CMakeFiles/dfu_nrf52832_xxAA_s132_6.0.0.dir/__/__/mesh/core/src/core_tx_adv.c.obj
 .data          0x00000000        0x0 examples/dfu/CMakeFiles/dfu_nrf52832_xxAA_s132_6.0.0.dir/__/__/mesh/core/src/core_tx_adv.c.obj
 .bss           0x00000000        0x0 examples/dfu/CMakeFiles/dfu_nrf52832_xxAA_s132_6.0.0.dir/__/__/mesh/core/src/core_tx_adv.c.obj
 .text.core_tx_adv_address_set
                0x00000000       0x28 examples/dfu/CMakeFiles/dfu_nrf52832_xxAA_s132_6.0.0.dir/__/__/mesh/core/src/core_tx_adv.c.obj
 .text          0x00000000        0x0 examples/dfu/CMakeFiles/dfu_nrf52832_xxAA_s132_6.0.0.dir/__/__/mesh/bearer/src/ad_listener.c.obj
 .data          0x00000000        0x0 examples/dfu/CMakeFiles/dfu_nrf52832_xxAA_s132_6.0.0.dir/__/__/mesh/bearer/src/ad_listener.c.obj
 .bss           0x00000000        0x0 examples/dfu/CMakeFiles/dfu_nrf52832_xxAA_s132_6.0.0.dir/__/__/mesh/bearer/src/ad_listener.c.obj
 .text.ad_listener_unsubscribe
                0x00000000       0x7c examples/dfu/CMakeFiles/dfu_nrf52832_xxAA_s132_6.0.0.dir/__/__/mesh/bearer/src/ad_listener.c.obj
 .text          0x00000000        0x0 examples/dfu/CMakeFiles/dfu_nrf52832_xxAA_s132_6.0.0.dir/__/__/mesh/bearer/src/ad_type_filter.c.obj
 .data          0x00000000        0x0 examples/dfu/CMakeFiles/dfu_nrf52832_xxAA_s132_6.0.0.dir/__/__/mesh/bearer/src/ad_type_filter.c.obj
 .bss           0x00000000        0x0 examples/dfu/CMakeFiles/dfu_nrf52832_xxAA_s132_6.0.0.dir/__/__/mesh/bearer/src/ad_type_filter.c.obj
 .text.bearer_adtype_remove
                0x00000000       0x28 examples/dfu/CMakeFiles/dfu_nrf52832_xxAA_s132_6.0.0.dir/__/__/mesh/bearer/src/ad_type_filter.c.obj
 .text.bearer_adtype_clear
                0x00000000       0x10 examples/dfu/CMakeFiles/dfu_nrf52832_xxAA_s132_6.0.0.dir/__/__/mesh/bearer/src/ad_type_filter.c.obj
 .text.bearer_invalid_length_amount_get
                0x00000000        0xc examples/dfu/CMakeFiles/dfu_nrf52832_xxAA_s132_6.0.0.dir/__/__/mesh/bearer/src/ad_type_filter.c.obj
 .text.bearer_adtype_filtered_amount_get
                0x00000000        0xc examples/dfu/CMakeFiles/dfu_nrf52832_xxAA_s132_6.0.0.dir/__/__/mesh/bearer/src/ad_type_filter.c.obj
 .text          0x00000000        0x0 examples/dfu/CMakeFiles/dfu_nrf52832_xxAA_s132_6.0.0.dir/__/__/mesh/bearer/src/adv_packet_filter.c.obj
 .data          0x00000000        0x0 examples/dfu/CMakeFiles/dfu_nrf52832_xxAA_s132_6.0.0.dir/__/__/mesh/bearer/src/adv_packet_filter.c.obj
 .bss           0x00000000        0x0 examples/dfu/CMakeFiles/dfu_nrf52832_xxAA_s132_6.0.0.dir/__/__/mesh/bearer/src/adv_packet_filter.c.obj
 .text.adv_filter_handle
                0x00000000       0x40 examples/dfu/CMakeFiles/dfu_nrf52832_xxAA_s132_6.0.0.dir/__/__/mesh/bearer/src/adv_packet_filter.c.obj
 .text.bearer_adv_packet_filtering_set
                0x00000000       0x1c examples/dfu/CMakeFiles/dfu_nrf52832_xxAA_s132_6.0.0.dir/__/__/mesh/bearer/src/adv_packet_filter.c.obj
 .text.bearer_adv_packet_remove
                0x00000000       0x18 examples/dfu/CMakeFiles/dfu_nrf52832_xxAA_s132_6.0.0.dir/__/__/mesh/bearer/src/adv_packet_filter.c.obj
 .text.bearer_adv_packet_add
                0x00000000       0x14 examples/dfu/CMakeFiles/dfu_nrf52832_xxAA_s132_6.0.0.dir/__/__/mesh/bearer/src/adv_packet_filter.c.obj
 .text.bearer_adv_packet_clear
                0x00000000        0xc examples/dfu/CMakeFiles/dfu_nrf52832_xxAA_s132_6.0.0.dir/__/__/mesh/bearer/src/adv_packet_filter.c.obj
 .text.bearer_adv_packet_filter_mode_set
                0x00000000       0x18 examples/dfu/CMakeFiles/dfu_nrf52832_xxAA_s132_6.0.0.dir/__/__/mesh/bearer/src/adv_packet_filter.c.obj
 .text.bearer_adv_packet_filtered_amount_get
                0x00000000        0xc examples/dfu/CMakeFiles/dfu_nrf52832_xxAA_s132_6.0.0.dir/__/__/mesh/bearer/src/adv_packet_filter.c.obj
 .bss.m_adv_packet_filter
                0x00000000       0x14 examples/dfu/CMakeFiles/dfu_nrf52832_xxAA_s132_6.0.0.dir/__/__/mesh/bearer/src/adv_packet_filter.c.obj
 .comment       0x00000000       0x80 examples/dfu/CMakeFiles/dfu_nrf52832_xxAA_s132_6.0.0.dir/__/__/mesh/bearer/src/adv_packet_filter.c.obj
 .ARM.attributes
                0x00000000       0x39 examples/dfu/CMakeFiles/dfu_nrf52832_xxAA_s132_6.0.0.dir/__/__/mesh/bearer/src/adv_packet_filter.c.obj
 .text          0x00000000        0x0 examples/dfu/CMakeFiles/dfu_nrf52832_xxAA_s132_6.0.0.dir/__/__/mesh/bearer/src/advertiser.c.obj
 .data          0x00000000        0x0 examples/dfu/CMakeFiles/dfu_nrf52832_xxAA_s132_6.0.0.dir/__/__/mesh/bearer/src/advertiser.c.obj
 .bss           0x00000000        0x0 examples/dfu/CMakeFiles/dfu_nrf52832_xxAA_s132_6.0.0.dir/__/__/mesh/bearer/src/advertiser.c.obj
 .text.advertiser_disable
                0x00000000        0xc examples/dfu/CMakeFiles/dfu_nrf52832_xxAA_s132_6.0.0.dir/__/__/mesh/bearer/src/advertiser.c.obj
 .text.advertiser_config_set
                0x00000000      0x180 examples/dfu/CMakeFiles/dfu_nrf52832_xxAA_s132_6.0.0.dir/__/__/mesh/bearer/src/advertiser.c.obj
 .text.advertiser_address_set
                0x00000000       0x64 examples/dfu/CMakeFiles/dfu_nrf52832_xxAA_s132_6.0.0.dir/__/__/mesh/bearer/src/advertiser.c.obj
 .text.advertiser_config_get
                0x00000000       0x24 examples/dfu/CMakeFiles/dfu_nrf52832_xxAA_s132_6.0.0.dir/__/__/mesh/bearer/src/advertiser.c.obj
 .text          0x00000000        0x0 examples/dfu/CMakeFiles/dfu_nrf52832_xxAA_s132_6.0.0.dir/__/__/mesh/bearer/src/bearer_handler.c.obj
 .data          0x00000000        0x0 examples/dfu/CMakeFiles/dfu_nrf52832_xxAA_s132_6.0.0.dir/__/__/mesh/bearer/src/bearer_handler.c.obj
 .bss           0x00000000        0x0 examples/dfu/CMakeFiles/dfu_nrf52832_xxAA_s132_6.0.0.dir/__/__/mesh/bearer/src/bearer_handler.c.obj
 .text.bearer_handler_action_fire
                0x00000000       0x9c examples/dfu/CMakeFiles/dfu_nrf52832_xxAA_s132_6.0.0.dir/__/__/mesh/bearer/src/bearer_handler.c.obj
 .text          0x00000000        0x0 examples/dfu/CMakeFiles/dfu_nrf52832_xxAA_s132_6.0.0.dir/__/__/mesh/bearer/src/broadcast.c.obj
 .data          0x00000000        0x0 examples/dfu/CMakeFiles/dfu_nrf52832_xxAA_s132_6.0.0.dir/__/__/mesh/bearer/src/broadcast.c.obj
 .bss           0x00000000        0x0 examples/dfu/CMakeFiles/dfu_nrf52832_xxAA_s132_6.0.0.dir/__/__/mesh/bearer/src/broadcast.c.obj
 .text          0x00000000        0x0 examples/dfu/CMakeFiles/dfu_nrf52832_xxAA_s132_6.0.0.dir/__/__/mesh/bearer/src/filter_engine.c.obj
 .data          0x00000000        0x0 examples/dfu/CMakeFiles/dfu_nrf52832_xxAA_s132_6.0.0.dir/__/__/mesh/bearer/src/filter_engine.c.obj
 .bss           0x00000000        0x0 examples/dfu/CMakeFiles/dfu_nrf52832_xxAA_s132_6.0.0.dir/__/__/mesh/bearer/src/filter_engine.c.obj
 .text.fen_accepted_amount_get
                0x00000000        0xc examples/dfu/CMakeFiles/dfu_nrf52832_xxAA_s132_6.0.0.dir/__/__/mesh/bearer/src/filter_engine.c.obj
 .text          0x00000000        0x0 examples/dfu/CMakeFiles/dfu_nrf52832_xxAA_s132_6.0.0.dir/__/__/mesh/bearer/src/gap_address_filter.c.obj
 .data          0x00000000        0x0 examples/dfu/CMakeFiles/dfu_nrf52832_xxAA_s132_6.0.0.dir/__/__/mesh/bearer/src/gap_address_filter.c.obj
 .bss           0x00000000        0x0 examples/dfu/CMakeFiles/dfu_nrf52832_xxAA_s132_6.0.0.dir/__/__/mesh/bearer/src/gap_address_filter.c.obj
 .text.gap_address_filter_handle
                0x00000000       0xb4 examples/dfu/CMakeFiles/dfu_nrf52832_xxAA_s132_6.0.0.dir/__/__/mesh/bearer/src/gap_address_filter.c.obj
 .text.bearer_filter_gap_addr_whitelist_set
                0x00000000       0x48 examples/dfu/CMakeFiles/dfu_nrf52832_xxAA_s132_6.0.0.dir/__/__/mesh/bearer/src/gap_address_filter.c.obj
 .text.bearer_filter_gap_addr_blacklist_set
                0x00000000       0x4c examples/dfu/CMakeFiles/dfu_nrf52832_xxAA_s132_6.0.0.dir/__/__/mesh/bearer/src/gap_address_filter.c.obj
 .text.bearer_filter_gap_addr_range_set
                0x00000000       0x64 examples/dfu/CMakeFiles/dfu_nrf52832_xxAA_s132_6.0.0.dir/__/__/mesh/bearer/src/gap_address_filter.c.obj
 .text.bearer_filter_gap_addr_clear
                0x00000000       0x24 examples/dfu/CMakeFiles/dfu_nrf52832_xxAA_s132_6.0.0.dir/__/__/mesh/bearer/src/gap_address_filter.c.obj
 .text.bearer_gap_addr_filtered_amount_get
                0x00000000        0xc examples/dfu/CMakeFiles/dfu_nrf52832_xxAA_s132_6.0.0.dir/__/__/mesh/bearer/src/gap_address_filter.c.obj
 .bss.m_addr_filter
                0x00000000       0x18 examples/dfu/CMakeFiles/dfu_nrf52832_xxAA_s132_6.0.0.dir/__/__/mesh/bearer/src/gap_address_filter.c.obj
 .comment       0x00000000       0x80 examples/dfu/CMakeFiles/dfu_nrf52832_xxAA_s132_6.0.0.dir/__/__/mesh/bearer/src/gap_address_filter.c.obj
 .ARM.attributes
                0x00000000       0x39 examples/dfu/CMakeFiles/dfu_nrf52832_xxAA_s132_6.0.0.dir/__/__/mesh/bearer/src/gap_address_filter.c.obj
 .text          0x00000000        0x0 examples/dfu/CMakeFiles/dfu_nrf52832_xxAA_s132_6.0.0.dir/__/__/mesh/bearer/src/radio_config.c.obj
 .data          0x00000000        0x0 examples/dfu/CMakeFiles/dfu_nrf52832_xxAA_s132_6.0.0.dir/__/__/mesh/bearer/src/radio_config.c.obj
 .bss           0x00000000        0x0 examples/dfu/CMakeFiles/dfu_nrf52832_xxAA_s132_6.0.0.dir/__/__/mesh/bearer/src/radio_config.c.obj
 .text.radio_config_access_addr_get
                0x00000000       0x54 examples/dfu/CMakeFiles/dfu_nrf52832_xxAA_s132_6.0.0.dir/__/__/mesh/bearer/src/radio_config.c.obj
 .text          0x00000000        0x0 examples/dfu/CMakeFiles/dfu_nrf52832_xxAA_s132_6.0.0.dir/__/__/mesh/bearer/src/rssi_filter.c.obj
 .data          0x00000000        0x0 examples/dfu/CMakeFiles/dfu_nrf52832_xxAA_s132_6.0.0.dir/__/__/mesh/bearer/src/rssi_filter.c.obj
 .bss           0x00000000        0x0 examples/dfu/CMakeFiles/dfu_nrf52832_xxAA_s132_6.0.0.dir/__/__/mesh/bearer/src/rssi_filter.c.obj
 .text.rssi_filter_handle
                0x00000000       0x20 examples/dfu/CMakeFiles/dfu_nrf52832_xxAA_s132_6.0.0.dir/__/__/mesh/bearer/src/rssi_filter.c.obj
 .text.bearer_rssi_filtering_set
                0x00000000       0x34 examples/dfu/CMakeFiles/dfu_nrf52832_xxAA_s132_6.0.0.dir/__/__/mesh/bearer/src/rssi_filter.c.obj
 .text.bearer_rssi_filtered_amount_get
                0x00000000        0xc examples/dfu/CMakeFiles/dfu_nrf52832_xxAA_s132_6.0.0.dir/__/__/mesh/bearer/src/rssi_filter.c.obj
 .bss.m_rssi_filter
                0x00000000       0x18 examples/dfu/CMakeFiles/dfu_nrf52832_xxAA_s132_6.0.0.dir/__/__/mesh/bearer/src/rssi_filter.c.obj
 .comment       0x00000000       0x80 examples/dfu/CMakeFiles/dfu_nrf52832_xxAA_s132_6.0.0.dir/__/__/mesh/bearer/src/rssi_filter.c.obj
 .ARM.attributes
                0x00000000       0x39 examples/dfu/CMakeFiles/dfu_nrf52832_xxAA_s132_6.0.0.dir/__/__/mesh/bearer/src/rssi_filter.c.obj
 .text          0x00000000        0x0 examples/dfu/CMakeFiles/dfu_nrf52832_xxAA_s132_6.0.0.dir/__/__/mesh/bearer/src/scanner.c.obj
 .data          0x00000000        0x0 examples/dfu/CMakeFiles/dfu_nrf52832_xxAA_s132_6.0.0.dir/__/__/mesh/bearer/src/scanner.c.obj
 .bss           0x00000000        0x0 examples/dfu/CMakeFiles/dfu_nrf52832_xxAA_s132_6.0.0.dir/__/__/mesh/bearer/src/scanner.c.obj
 .text.scanner_rx_callback_set
                0x00000000       0x20 examples/dfu/CMakeFiles/dfu_nrf52832_xxAA_s132_6.0.0.dir/__/__/mesh/bearer/src/scanner.c.obj
 .text.scanner_is_enabled
                0x00000000       0x14 examples/dfu/CMakeFiles/dfu_nrf52832_xxAA_s132_6.0.0.dir/__/__/mesh/bearer/src/scanner.c.obj
 .text.scanner_stats_get
                0x00000000        0x8 examples/dfu/CMakeFiles/dfu_nrf52832_xxAA_s132_6.0.0.dir/__/__/mesh/bearer/src/scanner.c.obj
 .text.scanner_config_radio_mode_set
                0x00000000       0x10 examples/dfu/CMakeFiles/dfu_nrf52832_xxAA_s132_6.0.0.dir/__/__/mesh/bearer/src/scanner.c.obj
 .text.scanner_config_scan_time_set
                0x00000000       0x88 examples/dfu/CMakeFiles/dfu_nrf52832_xxAA_s132_6.0.0.dir/__/__/mesh/bearer/src/scanner.c.obj
 .text.scanner_config_channels_set
                0x00000000       0x50 examples/dfu/CMakeFiles/dfu_nrf52832_xxAA_s132_6.0.0.dir/__/__/mesh/bearer/src/scanner.c.obj
 .text.scanner_config_access_addresses_set
                0x00000000       0x38 examples/dfu/CMakeFiles/dfu_nrf52832_xxAA_s132_6.0.0.dir/__/__/mesh/bearer/src/scanner.c.obj
 .text          0x00000000        0x0 examples/dfu/CMakeFiles/dfu_nrf52832_xxAA_s132_6.0.0.dir/C_/ver/mod/nRF5_SDK_15.0.0_a53641a/modules/nrfx/mdk/system_nrf52.c.obj
 .data          0x00000000        0x0 examples/dfu/CMakeFiles/dfu_nrf52832_xxAA_s132_6.0.0.dir/C_/ver/mod/nRF5_SDK_15.0.0_a53641a/modules/nrfx/mdk/system_nrf52.c.obj
 .bss           0x00000000        0x0 examples/dfu/CMakeFiles/dfu_nrf52832_xxAA_s132_6.0.0.dir/C_/ver/mod/nRF5_SDK_15.0.0_a53641a/modules/nrfx/mdk/system_nrf52.c.obj
 .text.SystemCoreClockUpdate
                0x00000000       0x10 examples/dfu/CMakeFiles/dfu_nrf52832_xxAA_s132_6.0.0.dir/C_/ver/mod/nRF5_SDK_15.0.0_a53641a/modules/nrfx/mdk/system_nrf52.c.obj
 .data          0x00000000        0x0 examples/dfu/CMakeFiles/dfu_nrf52832_xxAA_s132_6.0.0.dir/C_/ver/mod/nRF5_SDK_15.0.0_a53641a/modules/nrfx/mdk/gcc_startup_nrf52.S.obj
 .bss           0x00000000        0x0 examples/dfu/CMakeFiles/dfu_nrf52832_xxAA_s132_6.0.0.dir/C_/ver/mod/nRF5_SDK_15.0.0_a53641a/modules/nrfx/mdk/gcc_startup_nrf52.S.obj
 .text          0x00000000        0x0 examples/dfu/CMakeFiles/dfu_nrf52832_xxAA_s132_6.0.0.dir/C_/ver/mod/nRF5_SDK_15.0.0_a53641a/components/libraries/util/app_error.c.obj
 .data          0x00000000        0x0 examples/dfu/CMakeFiles/dfu_nrf52832_xxAA_s132_6.0.0.dir/C_/ver/mod/nRF5_SDK_15.0.0_a53641a/components/libraries/util/app_error.c.obj
 .bss           0x00000000        0x0 examples/dfu/CMakeFiles/dfu_nrf52832_xxAA_s132_6.0.0.dir/C_/ver/mod/nRF5_SDK_15.0.0_a53641a/components/libraries/util/app_error.c.obj
 .text.app_error_save_and_stop
                0x00000000       0x64 examples/dfu/CMakeFiles/dfu_nrf52832_xxAA_s132_6.0.0.dir/C_/ver/mod/nRF5_SDK_15.0.0_a53641a/components/libraries/util/app_error.c.obj
 .bss.m_error_data.7863
                0x00000000       0x20 examples/dfu/CMakeFiles/dfu_nrf52832_xxAA_s132_6.0.0.dir/C_/ver/mod/nRF5_SDK_15.0.0_a53641a/components/libraries/util/app_error.c.obj
 .text          0x00000000        0x0 examples/dfu/CMakeFiles/dfu_nrf52832_xxAA_s132_6.0.0.dir/C_/ver/mod/nRF5_SDK_15.0.0_a53641a/components/libraries/util/app_error_handler_gcc.c.obj
 .data          0x00000000        0x0 examples/dfu/CMakeFiles/dfu_nrf52832_xxAA_s132_6.0.0.dir/C_/ver/mod/nRF5_SDK_15.0.0_a53641a/components/libraries/util/app_error_handler_gcc.c.obj
 .bss           0x00000000        0x0 examples/dfu/CMakeFiles/dfu_nrf52832_xxAA_s132_6.0.0.dir/C_/ver/mod/nRF5_SDK_15.0.0_a53641a/components/libraries/util/app_error_handler_gcc.c.obj
 .text          0x00000000        0x0 external/rtt/librtt_nrf52832_xxAA.a(SEGGER_RTT.c.obj)
 .data          0x00000000        0x0 external/rtt/librtt_nrf52832_xxAA.a(SEGGER_RTT.c.obj)
 .bss           0x00000000        0x0 external/rtt/librtt_nrf52832_xxAA.a(SEGGER_RTT.c.obj)
 .text.SEGGER_RTT_ReadNoLock
                0x00000000      0x100 external/rtt/librtt_nrf52832_xxAA.a(SEGGER_RTT.c.obj)
 .text.SEGGER_RTT_Read
                0x00000000      0x114 external/rtt/librtt_nrf52832_xxAA.a(SEGGER_RTT.c.obj)
 .text.SEGGER_RTT_WriteSkipNoLock
                0x00000000      0x184 external/rtt/librtt_nrf52832_xxAA.a(SEGGER_RTT.c.obj)
 .text.SEGGER_RTT_WriteNoLock
                0x00000000      0x188 external/rtt/librtt_nrf52832_xxAA.a(SEGGER_RTT.c.obj)
 .text.SEGGER_RTT_WriteString
                0x00000000      0x20c external/rtt/librtt_nrf52832_xxAA.a(SEGGER_RTT.c.obj)
 .text.SEGGER_RTT_GetKey
                0x00000000       0xec external/rtt/librtt_nrf52832_xxAA.a(SEGGER_RTT.c.obj)
 .text.SEGGER_RTT_WaitKey
                0x00000000      0x114 external/rtt/librtt_nrf52832_xxAA.a(SEGGER_RTT.c.obj)
 .text.SEGGER_RTT_HasKey
                0x00000000       0x6c external/rtt/librtt_nrf52832_xxAA.a(SEGGER_RTT.c.obj)
 .text.SEGGER_RTT_HasData
                0x00000000       0x18 external/rtt/librtt_nrf52832_xxAA.a(SEGGER_RTT.c.obj)
 .text.SEGGER_RTT_AllocDownBuffer
                0x00000000       0xbc external/rtt/librtt_nrf52832_xxAA.a(SEGGER_RTT.c.obj)
 .text.SEGGER_RTT_AllocUpBuffer
                0x00000000       0xd8 external/rtt/librtt_nrf52832_xxAA.a(SEGGER_RTT.c.obj)
 .text.SEGGER_RTT_ConfigUpBuffer
                0x00000000       0xd0 external/rtt/librtt_nrf52832_xxAA.a(SEGGER_RTT.c.obj)
 .text.SEGGER_RTT_ConfigDownBuffer
                0x00000000       0xb8 external/rtt/librtt_nrf52832_xxAA.a(SEGGER_RTT.c.obj)
 .text.SEGGER_RTT_SetNameUpBuffer
                0x00000000       0x90 external/rtt/librtt_nrf52832_xxAA.a(SEGGER_RTT.c.obj)
 .text.SEGGER_RTT_SetNameDownBuffer
                0x00000000       0x90 external/rtt/librtt_nrf52832_xxAA.a(SEGGER_RTT.c.obj)
 .text.SEGGER_RTT_Init
                0x00000000       0x60 external/rtt/librtt_nrf52832_xxAA.a(SEGGER_RTT.c.obj)
 .text.SEGGER_RTT_SetTerminal
                0x00000000      0x15c external/rtt/librtt_nrf52832_xxAA.a(SEGGER_RTT.c.obj)
 .text.SEGGER_RTT_TerminalOut
                0x00000000      0x40c external/rtt/librtt_nrf52832_xxAA.a(SEGGER_RTT.c.obj)
 .bss._ActiveTerminal
                0x00000000        0x1 external/rtt/librtt_nrf52832_xxAA.a(SEGGER_RTT.c.obj)
 .rodata._aTerminalId
                0x00000000       0x10 external/rtt/librtt_nrf52832_xxAA.a(SEGGER_RTT.c.obj)
 .text          0x00000000        0x0 external/rtt/librtt_nrf52832_xxAA.a(SEGGER_RTT_printf.c.obj)
 .data          0x00000000        0x0 external/rtt/librtt_nrf52832_xxAA.a(SEGGER_RTT_printf.c.obj)
 .bss           0x00000000        0x0 external/rtt/librtt_nrf52832_xxAA.a(SEGGER_RTT_printf.c.obj)
 .text          0x00000000        0x0 external/micro-ecc/libuECC_nrf52832_xxAA.a(uECC.c.obj)
 .data          0x00000000        0x0 external/micro-ecc/libuECC_nrf52832_xxAA.a(uECC.c.obj)
 .bss           0x00000000        0x0 external/micro-ecc/libuECC_nrf52832_xxAA.a(uECC.c.obj)
 .text.HMAC_finish
                0x00000000       0x70 external/micro-ecc/libuECC_nrf52832_xxAA.a(uECC.c.obj)
 .text.uECC_vli_mmod
                0x00000000      0x3c8 external/micro-ecc/libuECC_nrf52832_xxAA.a(uECC.c.obj)
 .text.uECC_vli_modSub.isra.2
                0x00000000       0x98 external/micro-ecc/libuECC_nrf52832_xxAA.a(uECC.c.obj)
 .text.bits2int
                0x00000000      0x14c external/micro-ecc/libuECC_nrf52832_xxAA.a(uECC.c.obj)
 .text.uECC_sign_with_k
                0x00000000      0x60c external/micro-ecc/libuECC_nrf52832_xxAA.a(uECC.c.obj)
 .text.uECC_set_rng
                0x00000000        0xc external/micro-ecc/libuECC_nrf52832_xxAA.a(uECC.c.obj)
 .text.uECC_get_rng
                0x00000000        0xc external/micro-ecc/libuECC_nrf52832_xxAA.a(uECC.c.obj)
 .text.uECC_curve_private_key_size
                0x00000000       0x10 external/micro-ecc/libuECC_nrf52832_xxAA.a(uECC.c.obj)
 .text.uECC_curve_public_key_size
                0x00000000        0x8 external/micro-ecc/libuECC_nrf52832_xxAA.a(uECC.c.obj)
 .text.uECC_compute_public_key
                0x00000000      0x2e4 external/micro-ecc/libuECC_nrf52832_xxAA.a(uECC.c.obj)
 .text.uECC_sign
                0x00000000       0x60 external/micro-ecc/libuECC_nrf52832_xxAA.a(uECC.c.obj)
 .text.uECC_sign_deterministic
                0x00000000      0x400 external/micro-ecc/libuECC_nrf52832_xxAA.a(uECC.c.obj)
 .text.uECC_verify
                0x00000000      0x95c external/micro-ecc/libuECC_nrf52832_xxAA.a(uECC.c.obj)
 .text          0x00000000        0x0 c:/mesh/arm_gcc/bin/../lib/gcc/arm-none-eabi/6.3.1/../../../../arm-none-eabi/lib/thumb/v7e-m/fpv4-sp/hard\libc_nano.a(lib_a-exit.o)
 .data          0x00000000        0x0 c:/mesh/arm_gcc/bin/../lib/gcc/arm-none-eabi/6.3.1/../../../../arm-none-eabi/lib/thumb/v7e-m/fpv4-sp/hard\libc_nano.a(lib_a-exit.o)
 .bss           0x00000000        0x0 c:/mesh/arm_gcc/bin/../lib/gcc/arm-none-eabi/6.3.1/../../../../arm-none-eabi/lib/thumb/v7e-m/fpv4-sp/hard\libc_nano.a(lib_a-exit.o)
 .text          0x00000000        0x0 c:/mesh/arm_gcc/bin/../lib/gcc/arm-none-eabi/6.3.1/../../../../arm-none-eabi/lib/thumb/v7e-m/fpv4-sp/hard\libc_nano.a(lib_a-impure.o)
 .data          0x00000000        0x0 c:/mesh/arm_gcc/bin/../lib/gcc/arm-none-eabi/6.3.1/../../../../arm-none-eabi/lib/thumb/v7e-m/fpv4-sp/hard\libc_nano.a(lib_a-impure.o)
 .bss           0x00000000        0x0 c:/mesh/arm_gcc/bin/../lib/gcc/arm-none-eabi/6.3.1/../../../../arm-none-eabi/lib/thumb/v7e-m/fpv4-sp/hard\libc_nano.a(lib_a-impure.o)
 .text          0x00000000        0x0 c:/mesh/arm_gcc/bin/../lib/gcc/arm-none-eabi/6.3.1/../../../../arm-none-eabi/lib/thumb/v7e-m/fpv4-sp/hard\libc_nano.a(lib_a-init.o)
 .data          0x00000000        0x0 c:/mesh/arm_gcc/bin/../lib/gcc/arm-none-eabi/6.3.1/../../../../arm-none-eabi/lib/thumb/v7e-m/fpv4-sp/hard\libc_nano.a(lib_a-init.o)
 .bss           0x00000000        0x0 c:/mesh/arm_gcc/bin/../lib/gcc/arm-none-eabi/6.3.1/../../../../arm-none-eabi/lib/thumb/v7e-m/fpv4-sp/hard\libc_nano.a(lib_a-init.o)
 .text          0x00000000        0x0 c:/mesh/arm_gcc/bin/../lib/gcc/arm-none-eabi/6.3.1/../../../../arm-none-eabi/lib/thumb/v7e-m/fpv4-sp/hard\libc_nano.a(lib_a-malloc.o)
 .data          0x00000000        0x0 c:/mesh/arm_gcc/bin/../lib/gcc/arm-none-eabi/6.3.1/../../../../arm-none-eabi/lib/thumb/v7e-m/fpv4-sp/hard\libc_nano.a(lib_a-malloc.o)
 .bss           0x00000000        0x0 c:/mesh/arm_gcc/bin/../lib/gcc/arm-none-eabi/6.3.1/../../../../arm-none-eabi/lib/thumb/v7e-m/fpv4-sp/hard\libc_nano.a(lib_a-malloc.o)
 .text          0x00000000        0x0 c:/mesh/arm_gcc/bin/../lib/gcc/arm-none-eabi/6.3.1/../../../../arm-none-eabi/lib/thumb/v7e-m/fpv4-sp/hard\libc_nano.a(lib_a-memcmp.o)
 .data          0x00000000        0x0 c:/mesh/arm_gcc/bin/../lib/gcc/arm-none-eabi/6.3.1/../../../../arm-none-eabi/lib/thumb/v7e-m/fpv4-sp/hard\libc_nano.a(lib_a-memcmp.o)
 .bss           0x00000000        0x0 c:/mesh/arm_gcc/bin/../lib/gcc/arm-none-eabi/6.3.1/../../../../arm-none-eabi/lib/thumb/v7e-m/fpv4-sp/hard\libc_nano.a(lib_a-memcmp.o)
 .text          0x00000000        0x0 c:/mesh/arm_gcc/bin/../lib/gcc/arm-none-eabi/6.3.1/../../../../arm-none-eabi/lib/thumb/v7e-m/fpv4-sp/hard\libc_nano.a(lib_a-memcpy-stub.o)
 .data          0x00000000        0x0 c:/mesh/arm_gcc/bin/../lib/gcc/arm-none-eabi/6.3.1/../../../../arm-none-eabi/lib/thumb/v7e-m/fpv4-sp/hard\libc_nano.a(lib_a-memcpy-stub.o)
 .bss           0x00000000        0x0 c:/mesh/arm_gcc/bin/../lib/gcc/arm-none-eabi/6.3.1/../../../../arm-none-eabi/lib/thumb/v7e-m/fpv4-sp/hard\libc_nano.a(lib_a-memcpy-stub.o)
 .text          0x00000000        0x0 c:/mesh/arm_gcc/bin/../lib/gcc/arm-none-eabi/6.3.1/../../../../arm-none-eabi/lib/thumb/v7e-m/fpv4-sp/hard\libc_nano.a(lib_a-memset.o)
 .data          0x00000000        0x0 c:/mesh/arm_gcc/bin/../lib/gcc/arm-none-eabi/6.3.1/../../../../arm-none-eabi/lib/thumb/v7e-m/fpv4-sp/hard\libc_nano.a(lib_a-memset.o)
 .bss           0x00000000        0x0 c:/mesh/arm_gcc/bin/../lib/gcc/arm-none-eabi/6.3.1/../../../../arm-none-eabi/lib/thumb/v7e-m/fpv4-sp/hard\libc_nano.a(lib_a-memset.o)
 .text          0x00000000        0x0 c:/mesh/arm_gcc/bin/../lib/gcc/arm-none-eabi/6.3.1/../../../../arm-none-eabi/lib/thumb/v7e-m/fpv4-sp/hard\libc_nano.a(lib_a-nano-freer.o)
 .data          0x00000000        0x0 c:/mesh/arm_gcc/bin/../lib/gcc/arm-none-eabi/6.3.1/../../../../arm-none-eabi/lib/thumb/v7e-m/fpv4-sp/hard\libc_nano.a(lib_a-nano-freer.o)
 .bss           0x00000000        0x0 c:/mesh/arm_gcc/bin/../lib/gcc/arm-none-eabi/6.3.1/../../../../arm-none-eabi/lib/thumb/v7e-m/fpv4-sp/hard\libc_nano.a(lib_a-nano-freer.o)
 .text          0x00000000        0x0 c:/mesh/arm_gcc/bin/../lib/gcc/arm-none-eabi/6.3.1/../../../../arm-none-eabi/lib/thumb/v7e-m/fpv4-sp/hard\libc_nano.a(lib_a-nano-mallocr.o)
 .data          0x00000000        0x0 c:/mesh/arm_gcc/bin/../lib/gcc/arm-none-eabi/6.3.1/../../../../arm-none-eabi/lib/thumb/v7e-m/fpv4-sp/hard\libc_nano.a(lib_a-nano-mallocr.o)
 .bss           0x00000000        0x0 c:/mesh/arm_gcc/bin/../lib/gcc/arm-none-eabi/6.3.1/../../../../arm-none-eabi/lib/thumb/v7e-m/fpv4-sp/hard\libc_nano.a(lib_a-nano-mallocr.o)
 .text          0x00000000        0x0 c:/mesh/arm_gcc/bin/../lib/gcc/arm-none-eabi/6.3.1/../../../../arm-none-eabi/lib/thumb/v7e-m/fpv4-sp/hard\libc_nano.a(lib_a-sbrkr.o)
 .data          0x00000000        0x0 c:/mesh/arm_gcc/bin/../lib/gcc/arm-none-eabi/6.3.1/../../../../arm-none-eabi/lib/thumb/v7e-m/fpv4-sp/hard\libc_nano.a(lib_a-sbrkr.o)
 .bss           0x00000000        0x0 c:/mesh/arm_gcc/bin/../lib/gcc/arm-none-eabi/6.3.1/../../../../arm-none-eabi/lib/thumb/v7e-m/fpv4-sp/hard\libc_nano.a(lib_a-sbrkr.o)
 .text          0x00000000        0x0 c:/mesh/arm_gcc/bin/../lib/gcc/arm-none-eabi/6.3.1/../../../../arm-none-eabi/lib/thumb/v7e-m/fpv4-sp/hard\libc_nano.a(lib_a-strcpy.o)
 .data          0x00000000        0x0 c:/mesh/arm_gcc/bin/../lib/gcc/arm-none-eabi/6.3.1/../../../../arm-none-eabi/lib/thumb/v7e-m/fpv4-sp/hard\libc_nano.a(lib_a-strcpy.o)
 .bss           0x00000000        0x0 c:/mesh/arm_gcc/bin/../lib/gcc/arm-none-eabi/6.3.1/../../../../arm-none-eabi/lib/thumb/v7e-m/fpv4-sp/hard\libc_nano.a(lib_a-strcpy.o)
 .data          0x00000000        0x0 c:/mesh/arm_gcc/bin/../lib/gcc/arm-none-eabi/6.3.1/../../../../arm-none-eabi/lib/thumb/v7e-m/fpv4-sp/hard\libc_nano.a(lib_a-strlen.o)
 .bss           0x00000000        0x0 c:/mesh/arm_gcc/bin/../lib/gcc/arm-none-eabi/6.3.1/../../../../arm-none-eabi/lib/thumb/v7e-m/fpv4-sp/hard\libc_nano.a(lib_a-strlen.o)
 .text          0x00000000        0x0 c:/mesh/arm_gcc/bin/../lib/gcc/arm-none-eabi/6.3.1/../../../../arm-none-eabi/lib/thumb/v7e-m/fpv4-sp/hard\libc_nano.a(lib_a-strrchr.o)
 .data          0x00000000        0x0 c:/mesh/arm_gcc/bin/../lib/gcc/arm-none-eabi/6.3.1/../../../../arm-none-eabi/lib/thumb/v7e-m/fpv4-sp/hard\libc_nano.a(lib_a-strrchr.o)
 .bss           0x00000000        0x0 c:/mesh/arm_gcc/bin/../lib/gcc/arm-none-eabi/6.3.1/../../../../arm-none-eabi/lib/thumb/v7e-m/fpv4-sp/hard\libc_nano.a(lib_a-strrchr.o)
 .text          0x00000000        0x0 c:/mesh/arm_gcc/bin/../lib/gcc/arm-none-eabi/6.3.1/../../../../arm-none-eabi/lib/thumb/v7e-m/fpv4-sp/hard\libc_nano.a(lib_a-mlock.o)
 .data          0x00000000        0x0 c:/mesh/arm_gcc/bin/../lib/gcc/arm-none-eabi/6.3.1/../../../../arm-none-eabi/lib/thumb/v7e-m/fpv4-sp/hard\libc_nano.a(lib_a-mlock.o)
 .bss           0x00000000        0x0 c:/mesh/arm_gcc/bin/../lib/gcc/arm-none-eabi/6.3.1/../../../../arm-none-eabi/lib/thumb/v7e-m/fpv4-sp/hard\libc_nano.a(lib_a-mlock.o)
 .text          0x00000000        0x0 c:/mesh/arm_gcc/bin/../lib/gcc/arm-none-eabi/6.3.1/../../../../arm-none-eabi/lib/thumb/v7e-m/fpv4-sp/hard\libc_nano.a(lib_a-reent.o)
 .data          0x00000000        0x0 c:/mesh/arm_gcc/bin/../lib/gcc/arm-none-eabi/6.3.1/../../../../arm-none-eabi/lib/thumb/v7e-m/fpv4-sp/hard\libc_nano.a(lib_a-reent.o)
 .bss           0x00000000        0x0 c:/mesh/arm_gcc/bin/../lib/gcc/arm-none-eabi/6.3.1/../../../../arm-none-eabi/lib/thumb/v7e-m/fpv4-sp/hard\libc_nano.a(lib_a-reent.o)
 .text.cleanup_glue
                0x00000000       0x1a c:/mesh/arm_gcc/bin/../lib/gcc/arm-none-eabi/6.3.1/../../../../arm-none-eabi/lib/thumb/v7e-m/fpv4-sp/hard\libc_nano.a(lib_a-reent.o)
 .text._reclaim_reent
                0x00000000       0xb8 c:/mesh/arm_gcc/bin/../lib/gcc/arm-none-eabi/6.3.1/../../../../arm-none-eabi/lib/thumb/v7e-m/fpv4-sp/hard\libc_nano.a(lib_a-reent.o)
 .text          0x00000000        0x0 c:/mesh/arm_gcc/bin/../lib/gcc/arm-none-eabi/6.3.1/../../../../arm-none-eabi/lib/thumb/v7e-m/fpv4-sp/hard\libc_nano.a(lib_a-strchr.o)
 .data          0x00000000        0x0 c:/mesh/arm_gcc/bin/../lib/gcc/arm-none-eabi/6.3.1/../../../../arm-none-eabi/lib/thumb/v7e-m/fpv4-sp/hard\libc_nano.a(lib_a-strchr.o)
 .bss           0x00000000        0x0 c:/mesh/arm_gcc/bin/../lib/gcc/arm-none-eabi/6.3.1/../../../../arm-none-eabi/lib/thumb/v7e-m/fpv4-sp/hard\libc_nano.a(lib_a-strchr.o)
 .text          0x00000000        0x0 c:/mesh/arm_gcc/bin/../lib/gcc/arm-none-eabi/6.3.1/thumb/v7e-m/fpv4-sp/hard/crtend.o
 .data          0x00000000        0x0 c:/mesh/arm_gcc/bin/../lib/gcc/arm-none-eabi/6.3.1/thumb/v7e-m/fpv4-sp/hard/crtend.o
 .bss           0x00000000        0x0 c:/mesh/arm_gcc/bin/../lib/gcc/arm-none-eabi/6.3.1/thumb/v7e-m/fpv4-sp/hard/crtend.o
 .text          0x00000000        0x0 c:/mesh/arm_gcc/bin/../lib/gcc/arm-none-eabi/6.3.1/thumb/v7e-m/fpv4-sp/hard/crtn.o
 .data          0x00000000        0x0 c:/mesh/arm_gcc/bin/../lib/gcc/arm-none-eabi/6.3.1/thumb/v7e-m/fpv4-sp/hard/crtn.o
 .bss           0x00000000        0x0 c:/mesh/arm_gcc/bin/../lib/gcc/arm-none-eabi/6.3.1/thumb/v7e-m/fpv4-sp/hard/crtn.o
 .text          0x00000000        0x0 c:/mesh/arm_gcc/bin/../lib/gcc/arm-none-eabi/6.3.1/../../../../arm-none-eabi/lib/thumb/v7e-m/fpv4-sp/hard\libnosys.a(sbrk.o)
 .data          0x00000000        0x0 c:/mesh/arm_gcc/bin/../lib/gcc/arm-none-eabi/6.3.1/../../../../arm-none-eabi/lib/thumb/v7e-m/fpv4-sp/hard\libnosys.a(sbrk.o)
 .bss           0x00000000        0x0 c:/mesh/arm_gcc/bin/../lib/gcc/arm-none-eabi/6.3.1/../../../../arm-none-eabi/lib/thumb/v7e-m/fpv4-sp/hard\libnosys.a(sbrk.o)
 .text          0x00000000        0x0 c:/mesh/arm_gcc/bin/../lib/gcc/arm-none-eabi/6.3.1/../../../../arm-none-eabi/lib/thumb/v7e-m/fpv4-sp/hard\libnosys.a(_exit.o)
 .data          0x00000000        0x0 c:/mesh/arm_gcc/bin/../lib/gcc/arm-none-eabi/6.3.1/../../../../arm-none-eabi/lib/thumb/v7e-m/fpv4-sp/hard\libnosys.a(_exit.o)
 .bss           0x00000000        0x0 c:/mesh/arm_gcc/bin/../lib/gcc/arm-none-eabi/6.3.1/../../../../arm-none-eabi/lib/thumb/v7e-m/fpv4-sp/hard\libnosys.a(_exit.o)

Memory Configuration

Name             Origin             Length             Attributes
FLASH            0x00026000         0x00051000         xr
RAM              0x200032c8         0x0000ca38         xrw
*default*        0x00000000         0xffffffff

Linker script and memory map


.text           0x00026000    0x22858
 *(.isr_vector)
 .isr_vector    0x00026000      0x200 examples/dfu/CMakeFiles/dfu_nrf52832_xxAA_s132_6.0.0.dir/C_/ver/mod/nRF5_SDK_15.0.0_a53641a/modules/nrfx/mdk/gcc_startup_nrf52.S.obj
                0x00026000                __isr_vector
 *(.text*)
 .text          0x00026200       0x6c c:/mesh/arm_gcc/bin/../lib/gcc/arm-none-eabi/6.3.1/thumb/v7e-m/fpv4-sp/hard/crtbegin.o
 .text          0x0002626c       0x74 c:/mesh/arm_gcc/bin/../lib/gcc/arm-none-eabi/6.3.1/../../../../arm-none-eabi/lib/thumb/v7e-m/fpv4-sp/hard/crt0.o
                0x0002626c                _start
                0x0002626c                _mainCRTStartup
 .text.sd_app_evt_wait
                0x000262e0        0x4 examples/dfu/CMakeFiles/dfu_nrf52832_xxAA_s132_6.0.0.dir/src/main.c.obj
 .text.config_server_evt_cb
                0x000262e4       0x88 examples/dfu/CMakeFiles/dfu_nrf52832_xxAA_s132_6.0.0.dir/src/main.c.obj
 .text.mesh_evt_handler
                0x0002636c       0xe0 examples/dfu/CMakeFiles/dfu_nrf52832_xxAA_s132_6.0.0.dir/src/main.c.obj
 .text.startup.main
                0x0002644c      0x4f0 examples/dfu/CMakeFiles/dfu_nrf52832_xxAA_s132_6.0.0.dir/src/main.c.obj
                0x0002644c                main
 .text.mesh_evt_handler
                0x0002693c       0x10 examples/dfu/CMakeFiles/dfu_nrf52832_xxAA_s132_6.0.0.dir/__/__/mesh/stack/src/mesh_stack.c.obj
 .text.mesh_stack_init
                0x0002694c       0x94 examples/dfu/CMakeFiles/dfu_nrf52832_xxAA_s132_6.0.0.dir/__/__/mesh/stack/src/mesh_stack.c.obj
                0x0002694c                mesh_stack_init
 .text.mesh_stack_start
                0x000269e0        0x4 examples/dfu/CMakeFiles/dfu_nrf52832_xxAA_s132_6.0.0.dir/__/__/mesh/stack/src/mesh_stack.c.obj
                0x000269e0                mesh_stack_start
 .text.mesh_stack_provisioning_data_store
                0x000269e4       0x78 examples/dfu/CMakeFiles/dfu_nrf52832_xxAA_s132_6.0.0.dir/__/__/mesh/stack/src/mesh_stack.c.obj
                0x000269e4                mesh_stack_provisioning_data_store
 .text.mesh_stack_config_clear
                0x00026a5c       0x14 examples/dfu/CMakeFiles/dfu_nrf52832_xxAA_s132_6.0.0.dir/__/__/mesh/stack/src/mesh_stack.c.obj
                0x00026a5c                mesh_stack_config_clear
 .text.mesh_stack_device_reset
                0x00026a70       0x20 examples/dfu/CMakeFiles/dfu_nrf52832_xxAA_s132_6.0.0.dir/__/__/mesh/stack/src/mesh_stack.c.obj
                0x00026a70                mesh_stack_device_reset
 .text.sd_evt_get
                0x00026a90        0x4 examples/dfu/CMakeFiles/dfu_nrf52832_xxAA_s132_6.0.0.dir/__/common/src/mesh_softdevice_init.c.obj
 .text.sd_softdevice_enable
                0x00026a94        0x4 examples/dfu/CMakeFiles/dfu_nrf52832_xxAA_s132_6.0.0.dir/__/common/src/mesh_softdevice_init.c.obj
 .text.sd_ble_enable
                0x00026a98        0x4 examples/dfu/CMakeFiles/dfu_nrf52832_xxAA_s132_6.0.0.dir/__/common/src/mesh_softdevice_init.c.obj
 .text.SWI2_EGU2_IRQHandler
                0x00026a9c       0x1c examples/dfu/CMakeFiles/dfu_nrf52832_xxAA_s132_6.0.0.dir/__/common/src/mesh_softdevice_init.c.obj
                0x00026a9c                SWI2_EGU2_IRQHandler
 .text.mesh_softdevice_init
                0x00026ab8      0x1f8 examples/dfu/CMakeFiles/dfu_nrf52832_xxAA_s132_6.0.0.dir/__/common/src/mesh_softdevice_init.c.obj
                0x00026ab8                mesh_softdevice_init
 .text.prov_evt_handler
                0x00026cb0       0x70 examples/dfu/CMakeFiles/dfu_nrf52832_xxAA_s132_6.0.0.dir/__/common/src/mesh_provisionee.c.obj
 .text.mesh_provisionee_prov_start
                0x00026d20       0x88 examples/dfu/CMakeFiles/dfu_nrf52832_xxAA_s132_6.0.0.dir/__/common/src/mesh_provisionee.c.obj
                0x00026d20                mesh_provisionee_prov_start
 .text.hal_led_mask_set
                0x00026da8       0x14 examples/dfu/CMakeFiles/dfu_nrf52832_xxAA_s132_6.0.0.dir/__/common/src/simple_hal.c.obj
                0x00026da8                hal_led_mask_set
 .text.hal_led_blink_ms
                0x00026dbc       0x4c examples/dfu/CMakeFiles/dfu_nrf52832_xxAA_s132_6.0.0.dir/__/common/src/simple_hal.c.obj
                0x00026dbc                hal_led_blink_ms
 .text.hal_leds_init
                0x00026e08       0x3c examples/dfu/CMakeFiles/dfu_nrf52832_xxAA_s132_6.0.0.dir/__/common/src/simple_hal.c.obj
                0x00026e08                hal_leds_init
 .text.GPIOTE_IRQHandler
                0x00026e44      0x114 examples/dfu/CMakeFiles/dfu_nrf52832_xxAA_s132_6.0.0.dir/__/common/src/simple_hal.c.obj
                0x00026e44                GPIOTE_IRQHandler
 .text.schedule_publication_timer
                0x00026f58      0x2c4 examples/dfu/CMakeFiles/dfu_nrf52832_xxAA_s132_6.0.0.dir/__/__/mesh/access/src/access_publish.c.obj
 .text.publish_timer_tick
                0x0002721c      0x134 examples/dfu/CMakeFiles/dfu_nrf52832_xxAA_s132_6.0.0.dir/__/__/mesh/access/src/access_publish.c.obj
 .text.access_publish_init
                0x00027350       0x38 examples/dfu/CMakeFiles/dfu_nrf52832_xxAA_s132_6.0.0.dir/__/__/mesh/access/src/access_publish.c.obj
                0x00027350                access_publish_init
 .text.access_publish_period_set
                0x00027388      0x12c examples/dfu/CMakeFiles/dfu_nrf52832_xxAA_s132_6.0.0.dir/__/__/mesh/access/src/access_publish.c.obj
                0x00027388                access_publish_period_set
 .text.access_publish_period_get
                0x000274b4       0x2c examples/dfu/CMakeFiles/dfu_nrf52832_xxAA_s132_6.0.0.dir/__/__/mesh/access/src/access_publish.c.obj
                0x000274b4                access_publish_period_get
 .text.flash_manager_mem_available
                0x000274e0        0x4 examples/dfu/CMakeFiles/dfu_nrf52832_xxAA_s132_6.0.0.dir/__/__/mesh/access/src/access.c.obj
 .text.flash_invalidate_complete
                0x000274e4        0x8 examples/dfu/CMakeFiles/dfu_nrf52832_xxAA_s132_6.0.0.dir/__/__/mesh/access/src/access.c.obj
 .text.access_flash_config_clear
                0x000274ec       0x28 examples/dfu/CMakeFiles/dfu_nrf52832_xxAA_s132_6.0.0.dir/__/__/mesh/access/src/access.c.obj
 .text.access_flash_config_store
                0x00027514      0x138 examples/dfu/CMakeFiles/dfu_nrf52832_xxAA_s132_6.0.0.dir/__/__/mesh/access/src/access.c.obj
                0x00027514                access_flash_config_store
 .text.handle_incoming
                0x0002764c      0x198 examples/dfu/CMakeFiles/dfu_nrf52832_xxAA_s132_6.0.0.dir/__/__/mesh/access/src/access.c.obj
 .text.mesh_evt_cb
                0x000277e4      0x164 examples/dfu/CMakeFiles/dfu_nrf52832_xxAA_s132_6.0.0.dir/__/__/mesh/access/src/access.c.obj
 .text.add_flash_manager
                0x00027948       0x58 examples/dfu/CMakeFiles/dfu_nrf52832_xxAA_s132_6.0.0.dir/__/__/mesh/access/src/access.c.obj
 .text.flash_write_complete
                0x000279a0       0x4c examples/dfu/CMakeFiles/dfu_nrf52832_xxAA_s132_6.0.0.dir/__/__/mesh/access/src/access.c.obj
 .text.flash_remove_complete
                0x000279ec       0xb0 examples/dfu/CMakeFiles/dfu_nrf52832_xxAA_s132_6.0.0.dir/__/__/mesh/access/src/access.c.obj
 .text.access_flash_config_load
                0x00027a9c      0x2c8 examples/dfu/CMakeFiles/dfu_nrf52832_xxAA_s132_6.0.0.dir/__/__/mesh/access/src/access.c.obj
                0x00027a9c                access_flash_config_load
 .text.access_clear
                0x00027d64       0x6c examples/dfu/CMakeFiles/dfu_nrf52832_xxAA_s132_6.0.0.dir/__/__/mesh/access/src/access.c.obj
                0x00027d64                access_clear
 .text.access_init
                0x00027dd0       0xb4 examples/dfu/CMakeFiles/dfu_nrf52832_xxAA_s132_6.0.0.dir/__/__/mesh/access/src/access.c.obj
                0x00027dd0                access_init
 .text.access_model_add
                0x00027e84      0x1f4 examples/dfu/CMakeFiles/dfu_nrf52832_xxAA_s132_6.0.0.dir/__/__/mesh/access/src/access.c.obj
                0x00027e84                access_model_add
 .text.access_model_publish
                0x00028078      0x3bc examples/dfu/CMakeFiles/dfu_nrf52832_xxAA_s132_6.0.0.dir/__/__/mesh/access/src/access.c.obj
                0x00028078                access_model_publish
 .text.access_model_reply
                0x00028434      0x3dc examples/dfu/CMakeFiles/dfu_nrf52832_xxAA_s132_6.0.0.dir/__/__/mesh/access/src/access.c.obj
                0x00028434                access_model_reply
 .text.access_model_publish_address_set
                0x00028810       0x3c examples/dfu/CMakeFiles/dfu_nrf52832_xxAA_s132_6.0.0.dir/__/__/mesh/access/src/access.c.obj
                0x00028810                access_model_publish_address_set
 .text.access_model_publish_address_get
                0x0002884c       0x2c examples/dfu/CMakeFiles/dfu_nrf52832_xxAA_s132_6.0.0.dir/__/__/mesh/access/src/access.c.obj
                0x0002884c                access_model_publish_address_get
 .text.access_model_publish_retransmit_set
                0x00028878       0x54 examples/dfu/CMakeFiles/dfu_nrf52832_xxAA_s132_6.0.0.dir/__/__/mesh/access/src/access.c.obj
                0x00028878                access_model_publish_retransmit_set
 .text.access_model_publish_retransmit_get
                0x000288cc       0x2c examples/dfu/CMakeFiles/dfu_nrf52832_xxAA_s132_6.0.0.dir/__/__/mesh/access/src/access.c.obj
                0x000288cc                access_model_publish_retransmit_get
 .text.access_model_publish_period_set
                0x000288f8       0x78 examples/dfu/CMakeFiles/dfu_nrf52832_xxAA_s132_6.0.0.dir/__/__/mesh/access/src/access.c.obj
                0x000288f8                access_model_publish_period_set
 .text.access_model_publish_period_get
                0x00028970       0x40 examples/dfu/CMakeFiles/dfu_nrf52832_xxAA_s132_6.0.0.dir/__/__/mesh/access/src/access.c.obj
                0x00028970                access_model_publish_period_get
 .text.access_model_subscription_add
                0x000289b0       0x60 examples/dfu/CMakeFiles/dfu_nrf52832_xxAA_s132_6.0.0.dir/__/__/mesh/access/src/access.c.obj
                0x000289b0                access_model_subscription_add
 .text.access_model_subscription_remove
                0x00028a10       0x60 examples/dfu/CMakeFiles/dfu_nrf52832_xxAA_s132_6.0.0.dir/__/__/mesh/access/src/access.c.obj
                0x00028a10                access_model_subscription_remove
 .text.access_model_subscriptions_get
                0x00028a70       0x7c examples/dfu/CMakeFiles/dfu_nrf52832_xxAA_s132_6.0.0.dir/__/__/mesh/access/src/access.c.obj
                0x00028a70                access_model_subscriptions_get
 .text.access_model_application_bind
                0x00028aec       0x58 examples/dfu/CMakeFiles/dfu_nrf52832_xxAA_s132_6.0.0.dir/__/__/mesh/access/src/access.c.obj
                0x00028aec                access_model_application_bind
 .text.access_model_application_unbind
                0x00028b44       0x58 examples/dfu/CMakeFiles/dfu_nrf52832_xxAA_s132_6.0.0.dir/__/__/mesh/access/src/access.c.obj
                0x00028b44                access_model_application_unbind
 .text.access_model_applications_get
                0x00028b9c       0xfc examples/dfu/CMakeFiles/dfu_nrf52832_xxAA_s132_6.0.0.dir/__/__/mesh/access/src/access.c.obj
                0x00028b9c                access_model_applications_get
 .text.access_model_publish_application_set
                0x00028c98       0x3c examples/dfu/CMakeFiles/dfu_nrf52832_xxAA_s132_6.0.0.dir/__/__/mesh/access/src/access.c.obj
                0x00028c98                access_model_publish_application_set
 .text.access_model_publish_application_get
                0x00028cd4       0x2c examples/dfu/CMakeFiles/dfu_nrf52832_xxAA_s132_6.0.0.dir/__/__/mesh/access/src/access.c.obj
                0x00028cd4                access_model_publish_application_get
 .text.access_default_ttl_set
                0x00028d00       0x1c examples/dfu/CMakeFiles/dfu_nrf52832_xxAA_s132_6.0.0.dir/__/__/mesh/access/src/access.c.obj
                0x00028d00                access_default_ttl_set
 .text.access_default_ttl_get
                0x00028d1c        0xc examples/dfu/CMakeFiles/dfu_nrf52832_xxAA_s132_6.0.0.dir/__/__/mesh/access/src/access.c.obj
                0x00028d1c                access_default_ttl_get
 .text.access_model_publish_ttl_set
                0x00028d28       0x40 examples/dfu/CMakeFiles/dfu_nrf52832_xxAA_s132_6.0.0.dir/__/__/mesh/access/src/access.c.obj
                0x00028d28                access_model_publish_ttl_set
 .text.access_model_publish_ttl_get
                0x00028d68       0x2c examples/dfu/CMakeFiles/dfu_nrf52832_xxAA_s132_6.0.0.dir/__/__/mesh/access/src/access.c.obj
                0x00028d68                access_model_publish_ttl_get
 .text.access_element_location_set
                0x00028d94       0x20 examples/dfu/CMakeFiles/dfu_nrf52832_xxAA_s132_6.0.0.dir/__/__/mesh/access/src/access.c.obj
                0x00028d94                access_element_location_set
 .text.access_element_location_get
                0x00028db4       0x18 examples/dfu/CMakeFiles/dfu_nrf52832_xxAA_s132_6.0.0.dir/__/__/mesh/access/src/access.c.obj
                0x00028db4                access_element_location_get
 .text.access_element_sig_model_count_get
                0x00028dcc       0x18 examples/dfu/CMakeFiles/dfu_nrf52832_xxAA_s132_6.0.0.dir/__/__/mesh/access/src/access.c.obj
                0x00028dcc                access_element_sig_model_count_get
 .text.access_element_vendor_model_count_get
                0x00028de4       0x18 examples/dfu/CMakeFiles/dfu_nrf52832_xxAA_s132_6.0.0.dir/__/__/mesh/access/src/access.c.obj
                0x00028de4                access_element_vendor_model_count_get
 .text.access_model_id_get
                0x00028dfc       0x40 examples/dfu/CMakeFiles/dfu_nrf52832_xxAA_s132_6.0.0.dir/__/__/mesh/access/src/access.c.obj
                0x00028dfc                access_model_id_get
 .text.access_handle_get
                0x00028e3c       0x5c examples/dfu/CMakeFiles/dfu_nrf52832_xxAA_s132_6.0.0.dir/__/__/mesh/access/src/access.c.obj
                0x00028e3c                access_handle_get
 .text.access_element_models_get
                0x00028e98       0x60 examples/dfu/CMakeFiles/dfu_nrf52832_xxAA_s132_6.0.0.dir/__/__/mesh/access/src/access.c.obj
                0x00028e98                access_element_models_get
 .text.access_model_p_args_get
                0x00028ef8       0x2c examples/dfu/CMakeFiles/dfu_nrf52832_xxAA_s132_6.0.0.dir/__/__/mesh/access/src/access.c.obj
                0x00028ef8                access_model_p_args_get
 .text.access_model_publication_stop
                0x00028f24       0x74 examples/dfu/CMakeFiles/dfu_nrf52832_xxAA_s132_6.0.0.dir/__/__/mesh/access/src/access.c.obj
                0x00028f24                access_model_publication_stop
 .text.access_model_publication_by_appkey_stop
                0x00028f98       0xe0 examples/dfu/CMakeFiles/dfu_nrf52832_xxAA_s132_6.0.0.dir/__/__/mesh/access/src/access.c.obj
                0x00028f98                access_model_publication_by_appkey_stop
 .text.remove_and_reschedule
                0x00029078       0xc8 examples/dfu/CMakeFiles/dfu_nrf52832_xxAA_s132_6.0.0.dir/__/__/mesh/access/src/access_reliable.c.obj
 .text.reliable_timer_cb
                0x00029140      0x19c examples/dfu/CMakeFiles/dfu_nrf52832_xxAA_s132_6.0.0.dir/__/__/mesh/access/src/access_reliable.c.obj
 .text.access_reliable_message_rx_cb
                0x000292dc       0x70 examples/dfu/CMakeFiles/dfu_nrf52832_xxAA_s132_6.0.0.dir/__/__/mesh/access/src/access_reliable.c.obj
                0x000292dc                access_reliable_message_rx_cb
 .text.access_reliable_init
                0x0002934c       0x1c examples/dfu/CMakeFiles/dfu_nrf52832_xxAA_s132_6.0.0.dir/__/__/mesh/access/src/access_reliable.c.obj
                0x0002934c                access_reliable_init
 .text.access_reliable_cancel_all
                0x00029368       0xa8 examples/dfu/CMakeFiles/dfu_nrf52832_xxAA_s132_6.0.0.dir/__/__/mesh/access/src/access_reliable.c.obj
                0x00029368                access_reliable_cancel_all
 .text.access_model_reliable_cancel
                0x00029410       0x74 examples/dfu/CMakeFiles/dfu_nrf52832_xxAA_s132_6.0.0.dir/__/__/mesh/access/src/access_reliable.c.obj
                0x00029410                access_model_reliable_cancel
 .text.addr_nonvirtual_to_dsm_entry
                0x00029484       0x48 examples/dfu/CMakeFiles/dfu_nrf52832_xxAA_s132_6.0.0.dir/__/__/mesh/access/src/device_state_manager.c.obj
 .text.addr_nonvirtual_to_flash_entry
                0x000294cc       0x10 examples/dfu/CMakeFiles/dfu_nrf52832_xxAA_s132_6.0.0.dir/__/__/mesh/access/src/device_state_manager.c.obj
 .text.devkey_to_flash_entry
                0x000294dc       0x28 examples/dfu/CMakeFiles/dfu_nrf52832_xxAA_s132_6.0.0.dir/__/__/mesh/access/src/device_state_manager.c.obj
 .text.addr_virtual_to_flash_entry
                0x00029504       0x18 examples/dfu/CMakeFiles/dfu_nrf52832_xxAA_s132_6.0.0.dir/__/__/mesh/access/src/device_state_manager.c.obj
 .text.addr_unicast_to_dsm_entry
                0x0002951c        0xc examples/dfu/CMakeFiles/dfu_nrf52832_xxAA_s132_6.0.0.dir/__/__/mesh/access/src/device_state_manager.c.obj
 .text.addr_unicast_to_flash_entry
                0x00029528       0x10 examples/dfu/CMakeFiles/dfu_nrf52832_xxAA_s132_6.0.0.dir/__/__/mesh/access/src/device_state_manager.c.obj
 .text.flash_mem_listener_callback
                0x00029538       0x1c examples/dfu/CMakeFiles/dfu_nrf52832_xxAA_s132_6.0.0.dir/__/__/mesh/access/src/device_state_manager.c.obj
 .text.appkey_to_flash_entry
                0x00029554       0x54 examples/dfu/CMakeFiles/dfu_nrf52832_xxAA_s132_6.0.0.dir/__/__/mesh/access/src/device_state_manager.c.obj
 .text.subnet_to_flash_entry
                0x000295a8       0x60 examples/dfu/CMakeFiles/dfu_nrf52832_xxAA_s132_6.0.0.dir/__/__/mesh/access/src/device_state_manager.c.obj
 .text.reset_flash_area
                0x00029608       0x28 examples/dfu/CMakeFiles/dfu_nrf52832_xxAA_s132_6.0.0.dir/__/__/mesh/access/src/device_state_manager.c.obj
 .text.flash_save
                0x00029630       0xb0 examples/dfu/CMakeFiles/dfu_nrf52832_xxAA_s132_6.0.0.dir/__/__/mesh/access/src/device_state_manager.c.obj
 .text.build_flash_area
                0x000296e0       0x90 examples/dfu/CMakeFiles/dfu_nrf52832_xxAA_s132_6.0.0.dir/__/__/mesh/access/src/device_state_manager.c.obj
 .text.flash_invalidate_complete
                0x00029770       0x54 examples/dfu/CMakeFiles/dfu_nrf52832_xxAA_s132_6.0.0.dir/__/__/mesh/access/src/device_state_manager.c.obj
 .text.flash_write_complete
                0x000297c4       0x50 examples/dfu/CMakeFiles/dfu_nrf52832_xxAA_s132_6.0.0.dir/__/__/mesh/access/src/device_state_manager.c.obj
 .text.devkey_to_dsm_entry
                0x00029814       0x70 examples/dfu/CMakeFiles/dfu_nrf52832_xxAA_s132_6.0.0.dir/__/__/mesh/access/src/device_state_manager.c.obj
 .text.addr_virtual_to_dsm_entry
                0x00029884       0x60 examples/dfu/CMakeFiles/dfu_nrf52832_xxAA_s132_6.0.0.dir/__/__/mesh/access/src/device_state_manager.c.obj
 .text.appkey_to_dsm_entry
                0x000298e4       0xf4 examples/dfu/CMakeFiles/dfu_nrf52832_xxAA_s132_6.0.0.dir/__/__/mesh/access/src/device_state_manager.c.obj
 .text.subnet_to_dsm_entry
                0x000299d8      0x11c examples/dfu/CMakeFiles/dfu_nrf52832_xxAA_s132_6.0.0.dir/__/__/mesh/access/src/device_state_manager.c.obj
 .text.flash_remove_complete
                0x00029af4       0x90 examples/dfu/CMakeFiles/dfu_nrf52832_xxAA_s132_6.0.0.dir/__/__/mesh/access/src/device_state_manager.c.obj
 .text.flash_update_all
                0x00029b84      0x17c examples/dfu/CMakeFiles/dfu_nrf52832_xxAA_s132_6.0.0.dir/__/__/mesh/access/src/device_state_manager.c.obj
 .text.address_delete_if_unused
                0x00029d00      0x100 examples/dfu/CMakeFiles/dfu_nrf52832_xxAA_s132_6.0.0.dir/__/__/mesh/access/src/device_state_manager.c.obj
 .text.mesh_evt_handler
                0x00029e00      0x234 examples/dfu/CMakeFiles/dfu_nrf52832_xxAA_s132_6.0.0.dir/__/__/mesh/access/src/device_state_manager.c.obj
 .text.dsm_flash_config_load
                0x0002a034      0x1c8 examples/dfu/CMakeFiles/dfu_nrf52832_xxAA_s132_6.0.0.dir/__/__/mesh/access/src/device_state_manager.c.obj
                0x0002a034                dsm_flash_config_load
 .text.dsm_flash_area_get
                0x0002a1fc        0xc examples/dfu/CMakeFiles/dfu_nrf52832_xxAA_s132_6.0.0.dir/__/__/mesh/access/src/device_state_manager.c.obj
                0x0002a1fc                dsm_flash_area_get
 .text.dsm_clear
                0x0002a208      0x160 examples/dfu/CMakeFiles/dfu_nrf52832_xxAA_s132_6.0.0.dir/__/__/mesh/access/src/device_state_manager.c.obj
                0x0002a208                dsm_clear
 .text.dsm_init
                0x0002a368       0xbc examples/dfu/CMakeFiles/dfu_nrf52832_xxAA_s132_6.0.0.dir/__/__/mesh/access/src/device_state_manager.c.obj
                0x0002a368                dsm_init
 .text.dsm_local_unicast_addresses_set
                0x0002a424       0x78 examples/dfu/CMakeFiles/dfu_nrf52832_xxAA_s132_6.0.0.dir/__/__/mesh/access/src/device_state_manager.c.obj
                0x0002a424                dsm_local_unicast_addresses_set
 .text.dsm_local_unicast_addresses_get
                0x0002a49c       0x20 examples/dfu/CMakeFiles/dfu_nrf52832_xxAA_s132_6.0.0.dir/__/__/mesh/access/src/device_state_manager.c.obj
                0x0002a49c                dsm_local_unicast_addresses_get
 .text.dsm_address_publish_add
                0x0002a4bc      0x330 examples/dfu/CMakeFiles/dfu_nrf52832_xxAA_s132_6.0.0.dir/__/__/mesh/access/src/device_state_manager.c.obj
                0x0002a4bc                dsm_address_publish_add
 .text.dsm_address_publish_add_handle
                0x0002a7ec       0x54 examples/dfu/CMakeFiles/dfu_nrf52832_xxAA_s132_6.0.0.dir/__/__/mesh/access/src/device_state_manager.c.obj
                0x0002a7ec                dsm_address_publish_add_handle
 .text.dsm_address_publish_virtual_add
                0x0002a840      0x268 examples/dfu/CMakeFiles/dfu_nrf52832_xxAA_s132_6.0.0.dir/__/__/mesh/access/src/device_state_manager.c.obj
                0x0002a840                dsm_address_publish_virtual_add
 .text.dsm_address_publish_remove
                0x0002aaa8       0xbc examples/dfu/CMakeFiles/dfu_nrf52832_xxAA_s132_6.0.0.dir/__/__/mesh/access/src/device_state_manager.c.obj
                0x0002aaa8                dsm_address_publish_remove
 .text.dsm_address_subscription_add
                0x0002ab64      0x320 examples/dfu/CMakeFiles/dfu_nrf52832_xxAA_s132_6.0.0.dir/__/__/mesh/access/src/device_state_manager.c.obj
                0x0002ab64                dsm_address_subscription_add
 .text.dsm_address_subscription_virtual_add
                0x0002ae84      0x268 examples/dfu/CMakeFiles/dfu_nrf52832_xxAA_s132_6.0.0.dir/__/__/mesh/access/src/device_state_manager.c.obj
                0x0002ae84                dsm_address_subscription_virtual_add
 .text.dsm_address_subscription_add_handle
                0x0002b0ec       0x54 examples/dfu/CMakeFiles/dfu_nrf52832_xxAA_s132_6.0.0.dir/__/__/mesh/access/src/device_state_manager.c.obj
                0x0002b0ec                dsm_address_subscription_add_handle
 .text.dsm_address_subscription_get
                0x0002b140       0x5c examples/dfu/CMakeFiles/dfu_nrf52832_xxAA_s132_6.0.0.dir/__/__/mesh/access/src/device_state_manager.c.obj
                0x0002b140                dsm_address_subscription_get
 .text.dsm_address_subscription_remove
                0x0002b19c       0x94 examples/dfu/CMakeFiles/dfu_nrf52832_xxAA_s132_6.0.0.dir/__/__/mesh/access/src/device_state_manager.c.obj
                0x0002b19c                dsm_address_subscription_remove
 .text.dsm_address_get
                0x0002b230       0x74 examples/dfu/CMakeFiles/dfu_nrf52832_xxAA_s132_6.0.0.dir/__/__/mesh/access/src/device_state_manager.c.obj
                0x0002b230                dsm_address_get
 .text.dsm_address_get_all
                0x0002b2a4      0x258 examples/dfu/CMakeFiles/dfu_nrf52832_xxAA_s132_6.0.0.dir/__/__/mesh/access/src/device_state_manager.c.obj
                0x0002b2a4                dsm_address_get_all
 .text.dsm_address_handle_get
                0x0002b4fc      0x3cc examples/dfu/CMakeFiles/dfu_nrf52832_xxAA_s132_6.0.0.dir/__/__/mesh/access/src/device_state_manager.c.obj
                0x0002b4fc                dsm_address_handle_get
 .text.dsm_net_key_index_to_subnet_handle
                0x0002b8c8       0x6c examples/dfu/CMakeFiles/dfu_nrf52832_xxAA_s132_6.0.0.dir/__/__/mesh/access/src/device_state_manager.c.obj
                0x0002b8c8                dsm_net_key_index_to_subnet_handle
 .text.dsm_subnet_handle_get
                0x0002b934       0xa4 examples/dfu/CMakeFiles/dfu_nrf52832_xxAA_s132_6.0.0.dir/__/__/mesh/access/src/device_state_manager.c.obj
                0x0002b934                dsm_subnet_handle_get
 .text.dsm_appkey_index_to_appkey_handle
                0x0002b9d8       0xcc examples/dfu/CMakeFiles/dfu_nrf52832_xxAA_s132_6.0.0.dir/__/__/mesh/access/src/device_state_manager.c.obj
                0x0002b9d8                dsm_appkey_index_to_appkey_handle
 .text.dsm_appkey_handle_get
                0x0002baa4       0x44 examples/dfu/CMakeFiles/dfu_nrf52832_xxAA_s132_6.0.0.dir/__/__/mesh/access/src/device_state_manager.c.obj
                0x0002baa4                dsm_appkey_handle_get
 .text.dsm_appkey_handle_to_appkey_index
                0x0002bae8       0x34 examples/dfu/CMakeFiles/dfu_nrf52832_xxAA_s132_6.0.0.dir/__/__/mesh/access/src/device_state_manager.c.obj
                0x0002bae8                dsm_appkey_handle_to_appkey_index
 .text.dsm_appkey_handle_to_subnet_handle
                0x0002bb1c       0xb4 examples/dfu/CMakeFiles/dfu_nrf52832_xxAA_s132_6.0.0.dir/__/__/mesh/access/src/device_state_manager.c.obj
                0x0002bb1c                dsm_appkey_handle_to_subnet_handle
 .text.dsm_subnet_add
                0x0002bbd0      0x21c examples/dfu/CMakeFiles/dfu_nrf52832_xxAA_s132_6.0.0.dir/__/__/mesh/access/src/device_state_manager.c.obj
                0x0002bbd0                dsm_subnet_add
 .text.dsm_subnet_kr_phase_get
                0x0002bdec       0x30 examples/dfu/CMakeFiles/dfu_nrf52832_xxAA_s132_6.0.0.dir/__/__/mesh/access/src/device_state_manager.c.obj
                0x0002bdec                dsm_subnet_kr_phase_get
 .text.dsm_subnet_update
                0x0002be1c      0x11c examples/dfu/CMakeFiles/dfu_nrf52832_xxAA_s132_6.0.0.dir/__/__/mesh/access/src/device_state_manager.c.obj
                0x0002be1c                dsm_subnet_update
 .text.dsm_subnet_update_swap_keys
                0x0002bf38       0xa8 examples/dfu/CMakeFiles/dfu_nrf52832_xxAA_s132_6.0.0.dir/__/__/mesh/access/src/device_state_manager.c.obj
                0x0002bf38                dsm_subnet_update_swap_keys
 .text.dsm_subnet_update_commit
                0x0002bfe0      0x194 examples/dfu/CMakeFiles/dfu_nrf52832_xxAA_s132_6.0.0.dir/__/__/mesh/access/src/device_state_manager.c.obj
                0x0002bfe0                dsm_subnet_update_commit
 .text.dsm_subnet_delete
                0x0002c174      0x358 examples/dfu/CMakeFiles/dfu_nrf52832_xxAA_s132_6.0.0.dir/__/__/mesh/access/src/device_state_manager.c.obj
                0x0002c174                dsm_subnet_delete
 .text.dsm_subnet_get_all
                0x0002c4cc       0x90 examples/dfu/CMakeFiles/dfu_nrf52832_xxAA_s132_6.0.0.dir/__/__/mesh/access/src/device_state_manager.c.obj
                0x0002c4cc                dsm_subnet_get_all
 .text.dsm_devkey_add
                0x0002c55c       0xb0 examples/dfu/CMakeFiles/dfu_nrf52832_xxAA_s132_6.0.0.dir/__/__/mesh/access/src/device_state_manager.c.obj
                0x0002c55c                dsm_devkey_add
 .text.dsm_devkey_delete
                0x0002c60c       0x6c examples/dfu/CMakeFiles/dfu_nrf52832_xxAA_s132_6.0.0.dir/__/__/mesh/access/src/device_state_manager.c.obj
                0x0002c60c                dsm_devkey_delete
 .text.dsm_appkey_add
                0x0002c678      0x298 examples/dfu/CMakeFiles/dfu_nrf52832_xxAA_s132_6.0.0.dir/__/__/mesh/access/src/device_state_manager.c.obj
                0x0002c678                dsm_appkey_add
 .text.dsm_appkey_update
                0x0002c910       0xfc examples/dfu/CMakeFiles/dfu_nrf52832_xxAA_s132_6.0.0.dir/__/__/mesh/access/src/device_state_manager.c.obj
                0x0002c910                dsm_appkey_update
 .text.dsm_appkey_delete
                0x0002ca0c       0x68 examples/dfu/CMakeFiles/dfu_nrf52832_xxAA_s132_6.0.0.dir/__/__/mesh/access/src/device_state_manager.c.obj
                0x0002ca0c                dsm_appkey_delete
 .text.dsm_appkey_get_all
                0x0002ca74      0x158 examples/dfu/CMakeFiles/dfu_nrf52832_xxAA_s132_6.0.0.dir/__/__/mesh/access/src/device_state_manager.c.obj
                0x0002ca74                dsm_appkey_get_all
 .text.dsm_tx_secmat_get
                0x0002cbcc       0xd4 examples/dfu/CMakeFiles/dfu_nrf52832_xxAA_s132_6.0.0.dir/__/__/mesh/access/src/device_state_manager.c.obj
                0x0002cbcc                dsm_tx_secmat_get
 .text.dsm_net_secmat_from_keyindex_get
                0x0002cca0       0x98 examples/dfu/CMakeFiles/dfu_nrf52832_xxAA_s132_6.0.0.dir/__/__/mesh/access/src/device_state_manager.c.obj
                0x0002cca0                dsm_net_secmat_from_keyindex_get
 .text.nrf_mesh_net_secmat_next_get
                0x0002cd38      0x21c examples/dfu/CMakeFiles/dfu_nrf52832_xxAA_s132_6.0.0.dir/__/__/mesh/access/src/device_state_manager.c.obj
                0x0002cd38                nrf_mesh_net_secmat_next_get
 .text.nrf_mesh_app_secmat_next_get
                0x0002cf54      0x280 examples/dfu/CMakeFiles/dfu_nrf52832_xxAA_s132_6.0.0.dir/__/__/mesh/access/src/device_state_manager.c.obj
                0x0002cf54                nrf_mesh_app_secmat_next_get
 .text.nrf_mesh_devkey_secmat_get
                0x0002d1d4       0x30 examples/dfu/CMakeFiles/dfu_nrf52832_xxAA_s132_6.0.0.dir/__/__/mesh/access/src/device_state_manager.c.obj
                0x0002d1d4                nrf_mesh_devkey_secmat_get
 .text.nrf_mesh_beacon_info_next_get
                0x0002d204      0x174 examples/dfu/CMakeFiles/dfu_nrf52832_xxAA_s132_6.0.0.dir/__/__/mesh/access/src/device_state_manager.c.obj
                0x0002d204                nrf_mesh_beacon_info_next_get
 .text.nrf_mesh_rx_address_get
                0x0002d378      0x558 examples/dfu/CMakeFiles/dfu_nrf52832_xxAA_s132_6.0.0.dir/__/__/mesh/access/src/device_state_manager.c.obj
                0x0002d378                nrf_mesh_rx_address_get
 .text.nrf_mesh_unicast_address_get
                0x0002d8d0       0x24 examples/dfu/CMakeFiles/dfu_nrf52832_xxAA_s132_6.0.0.dir/__/__/mesh/access/src/device_state_manager.c.obj
                0x0002d8d0                nrf_mesh_unicast_address_get
 .text.UARTE0_UART0_IRQHandler
                0x0002d8f4       0x74 examples/dfu/CMakeFiles/dfu_nrf52832_xxAA_s132_6.0.0.dir/__/__/mesh/serial/src/serial_uart.c.obj
                0x0002d8f4                UARTE0_UART0_IRQHandler
 .text.serial_uart_init
                0x0002d968       0xac examples/dfu/CMakeFiles/dfu_nrf52832_xxAA_s132_6.0.0.dir/__/__/mesh/serial/src/serial_uart.c.obj
                0x0002d968                serial_uart_init
 .text.serial_uart_process
                0x0002da14       0x74 examples/dfu/CMakeFiles/dfu_nrf52832_xxAA_s132_6.0.0.dir/__/__/mesh/serial/src/serial_uart.c.obj
                0x0002da14                serial_uart_process
 .text.serial_uart_receive_set
                0x0002da88        0xc examples/dfu/CMakeFiles/dfu_nrf52832_xxAA_s132_6.0.0.dir/__/__/mesh/serial/src/serial_uart.c.obj
                0x0002da88                serial_uart_receive_set
 .text.do_transmit
                0x0002da94       0x4c examples/dfu/CMakeFiles/dfu_nrf52832_xxAA_s132_6.0.0.dir/__/__/mesh/serial/src/serial_bearer.c.obj
 .text.char_tx  0x0002dae0       0x8c examples/dfu/CMakeFiles/dfu_nrf52832_xxAA_s132_6.0.0.dir/__/__/mesh/serial/src/serial_bearer.c.obj
 .text.char_rx  0x0002db6c      0x118 examples/dfu/CMakeFiles/dfu_nrf52832_xxAA_s132_6.0.0.dir/__/__/mesh/serial/src/serial_bearer.c.obj
 .text.serial_bearer_init
                0x0002dc84       0x74 examples/dfu/CMakeFiles/dfu_nrf52832_xxAA_s132_6.0.0.dir/__/__/mesh/serial/src/serial_bearer.c.obj
                0x0002dc84                serial_bearer_init
 .text.serial_bearer_blocking_buffer_get
                0x0002dcf8       0x90 examples/dfu/CMakeFiles/dfu_nrf52832_xxAA_s132_6.0.0.dir/__/__/mesh/serial/src/serial_bearer.c.obj
                0x0002dcf8                serial_bearer_blocking_buffer_get
 .text.serial_bearer_tx
                0x0002dd88       0x54 examples/dfu/CMakeFiles/dfu_nrf52832_xxAA_s132_6.0.0.dir/__/__/mesh/serial/src/serial_bearer.c.obj
                0x0002dd88                serial_bearer_tx
 .text.serial_bearer_rx_get
                0x0002dddc       0x3c examples/dfu/CMakeFiles/dfu_nrf52832_xxAA_s132_6.0.0.dir/__/__/mesh/serial/src/serial_bearer.c.obj
                0x0002dddc                serial_bearer_rx_get
 .text.serial_handler_common_cmd_rsp_nodata_on_error
                0x0002de18       0x38 examples/dfu/CMakeFiles/dfu_nrf52832_xxAA_s132_6.0.0.dir/__/__/mesh/serial/src/serial_handler_common.c.obj
                0x0002de18                serial_handler_common_cmd_rsp_nodata_on_error
 .text.serial_handler_common_rx
                0x0002de50       0x60 examples/dfu/CMakeFiles/dfu_nrf52832_xxAA_s132_6.0.0.dir/__/__/mesh/serial/src/serial_handler_common.c.obj
                0x0002de50                serial_handler_common_rx
 .text.access_flash_store
                0x0002deb0       0x18 examples/dfu/CMakeFiles/dfu_nrf52832_xxAA_s132_6.0.0.dir/__/__/mesh/serial/src/serial_handler_access.c.obj
 .text.elem_models_get
                0x0002dec8       0x50 examples/dfu/CMakeFiles/dfu_nrf52832_xxAA_s132_6.0.0.dir/__/__/mesh/serial/src/serial_handler_access.c.obj
 .text.handle_get
                0x0002df18       0x20 examples/dfu/CMakeFiles/dfu_nrf52832_xxAA_s132_6.0.0.dir/__/__/mesh/serial/src/serial_handler_access.c.obj
 .text.model_id_get
                0x0002df38       0x20 examples/dfu/CMakeFiles/dfu_nrf52832_xxAA_s132_6.0.0.dir/__/__/mesh/serial/src/serial_handler_access.c.obj
 .text.elem_vendor_model_cnt_get
                0x0002df58       0x20 examples/dfu/CMakeFiles/dfu_nrf52832_xxAA_s132_6.0.0.dir/__/__/mesh/serial/src/serial_handler_access.c.obj
 .text.elem_sig_model_cnt_get
                0x0002df78       0x20 examples/dfu/CMakeFiles/dfu_nrf52832_xxAA_s132_6.0.0.dir/__/__/mesh/serial/src/serial_handler_access.c.obj
 .text.elem_loc_get
                0x0002df98       0x20 examples/dfu/CMakeFiles/dfu_nrf52832_xxAA_s132_6.0.0.dir/__/__/mesh/serial/src/serial_handler_access.c.obj
 .text.elem_loc_set
                0x0002dfb8       0x24 examples/dfu/CMakeFiles/dfu_nrf52832_xxAA_s132_6.0.0.dir/__/__/mesh/serial/src/serial_handler_access.c.obj
 .text.model_pub_ttl_get
                0x0002dfdc       0x20 examples/dfu/CMakeFiles/dfu_nrf52832_xxAA_s132_6.0.0.dir/__/__/mesh/serial/src/serial_handler_access.c.obj
 .text.model_pub_ttl_set
                0x0002dffc       0x24 examples/dfu/CMakeFiles/dfu_nrf52832_xxAA_s132_6.0.0.dir/__/__/mesh/serial/src/serial_handler_access.c.obj
 .text.model_pub_app_get
                0x0002e020       0x20 examples/dfu/CMakeFiles/dfu_nrf52832_xxAA_s132_6.0.0.dir/__/__/mesh/serial/src/serial_handler_access.c.obj
 .text.model_pub_app_set
                0x0002e040       0x24 examples/dfu/CMakeFiles/dfu_nrf52832_xxAA_s132_6.0.0.dir/__/__/mesh/serial/src/serial_handler_access.c.obj
 .text.model_app_get
                0x0002e064       0x50 examples/dfu/CMakeFiles/dfu_nrf52832_xxAA_s132_6.0.0.dir/__/__/mesh/serial/src/serial_handler_access.c.obj
 .text.model_app_unbind
                0x0002e0b4       0x24 examples/dfu/CMakeFiles/dfu_nrf52832_xxAA_s132_6.0.0.dir/__/__/mesh/serial/src/serial_handler_access.c.obj
 .text.model_app_bind
                0x0002e0d8       0x24 examples/dfu/CMakeFiles/dfu_nrf52832_xxAA_s132_6.0.0.dir/__/__/mesh/serial/src/serial_handler_access.c.obj
 .text.model_subs_get
                0x0002e0fc       0x50 examples/dfu/CMakeFiles/dfu_nrf52832_xxAA_s132_6.0.0.dir/__/__/mesh/serial/src/serial_handler_access.c.obj
 .text.model_subs_remove
                0x0002e14c       0x24 examples/dfu/CMakeFiles/dfu_nrf52832_xxAA_s132_6.0.0.dir/__/__/mesh/serial/src/serial_handler_access.c.obj
 .text.model_subs_add
                0x0002e170       0x24 examples/dfu/CMakeFiles/dfu_nrf52832_xxAA_s132_6.0.0.dir/__/__/mesh/serial/src/serial_handler_access.c.obj
 .text.model_pub_period_get
                0x0002e194       0x24 examples/dfu/CMakeFiles/dfu_nrf52832_xxAA_s132_6.0.0.dir/__/__/mesh/serial/src/serial_handler_access.c.obj
 .text.model_pub_period_set
                0x0002e1b8       0x24 examples/dfu/CMakeFiles/dfu_nrf52832_xxAA_s132_6.0.0.dir/__/__/mesh/serial/src/serial_handler_access.c.obj
 .text.model_pub_addr_get
                0x0002e1dc       0x20 examples/dfu/CMakeFiles/dfu_nrf52832_xxAA_s132_6.0.0.dir/__/__/mesh/serial/src/serial_handler_access.c.obj
 .text.model_pub_addr_set
                0x0002e1fc       0x24 examples/dfu/CMakeFiles/dfu_nrf52832_xxAA_s132_6.0.0.dir/__/__/mesh/serial/src/serial_handler_access.c.obj
 .text.serial_handler_access_rx
                0x0002e220       0x24 examples/dfu/CMakeFiles/dfu_nrf52832_xxAA_s132_6.0.0.dir/__/__/mesh/serial/src/serial_handler_access.c.obj
                0x0002e220                serial_handler_access_rx
 .text.serial_handler_config_rx
                0x0002e244       0xe8 examples/dfu/CMakeFiles/dfu_nrf52832_xxAA_s132_6.0.0.dir/__/__/mesh/serial/src/serial_handler_config.c.obj
                0x0002e244                serial_handler_config_rx
 .text.serial_handler_openmesh_rx
                0x0002e32c       0x38 examples/dfu/CMakeFiles/dfu_nrf52832_xxAA_s132_6.0.0.dir/__/__/mesh/serial/src/serial_handler_openmesh.c.obj
                0x0002e32c                serial_handler_openmesh_rx
 .text.serial_process_cmd
                0x0002e364      0x1f0 examples/dfu/CMakeFiles/dfu_nrf52832_xxAA_s132_6.0.0.dir/__/__/mesh/serial/src/serial.c.obj
 .text.serial_init
                0x0002e554       0x1c examples/dfu/CMakeFiles/dfu_nrf52832_xxAA_s132_6.0.0.dir/__/__/mesh/serial/src/serial.c.obj
                0x0002e554                serial_init
 .text.serial_start
                0x0002e570      0x128 examples/dfu/CMakeFiles/dfu_nrf52832_xxAA_s132_6.0.0.dir/__/__/mesh/serial/src/serial.c.obj
                0x0002e570                serial_start
 .text.serial_packet_buffer_get
                0x0002e698       0x14 examples/dfu/CMakeFiles/dfu_nrf52832_xxAA_s132_6.0.0.dir/__/__/mesh/serial/src/serial.c.obj
                0x0002e698                serial_packet_buffer_get
 .text.serial_tx
                0x0002e6ac       0x20 examples/dfu/CMakeFiles/dfu_nrf52832_xxAA_s132_6.0.0.dir/__/__/mesh/serial/src/serial.c.obj
                0x0002e6ac                serial_tx
 .text.serial_process
                0x0002e6cc       0x34 examples/dfu/CMakeFiles/dfu_nrf52832_xxAA_s132_6.0.0.dir/__/__/mesh/serial/src/serial.c.obj
                0x0002e6cc                serial_process
 .text.serial_translate_error
                0x0002e700       0x70 examples/dfu/CMakeFiles/dfu_nrf52832_xxAA_s132_6.0.0.dir/__/__/mesh/serial/src/serial.c.obj
                0x0002e700                serial_translate_error
 .text.serial_state_get
                0x0002e770        0xc examples/dfu/CMakeFiles/dfu_nrf52832_xxAA_s132_6.0.0.dir/__/__/mesh/serial/src/serial.c.obj
                0x0002e770                serial_state_get
 .text.serial_cmd_rsp_send
                0x0002e77c       0x78 examples/dfu/CMakeFiles/dfu_nrf52832_xxAA_s132_6.0.0.dir/__/__/mesh/serial/src/serial.c.obj
                0x0002e77c                serial_cmd_rsp_send
 .text.serial_handler_prov_evt_in
                0x0002e7f4      0x350 examples/dfu/CMakeFiles/dfu_nrf52832_xxAA_s132_6.0.0.dir/__/__/mesh/serial/src/serial_handler_prov.c.obj
 .text.serial_handler_prov_init
                0x0002eb44       0xd4 examples/dfu/CMakeFiles/dfu_nrf52832_xxAA_s132_6.0.0.dir/__/__/mesh/serial/src/serial_handler_prov.c.obj
                0x0002eb44                serial_handler_prov_init
 .text.serial_handler_prov_pkt_in
                0x0002ec18      0x27c examples/dfu/CMakeFiles/dfu_nrf52832_xxAA_s132_6.0.0.dir/__/__/mesh/serial/src/serial_handler_prov.c.obj
                0x0002ec18                serial_handler_prov_pkt_in
 .text.serial_handler_mesh_evt_handle
                0x0002ee94      0x1bc examples/dfu/CMakeFiles/dfu_nrf52832_xxAA_s132_6.0.0.dir/__/__/mesh/serial/src/serial_handler_dfu.c.obj
 .text.serial_handler_dfu_init
                0x0002f050       0x14 examples/dfu/CMakeFiles/dfu_nrf52832_xxAA_s132_6.0.0.dir/__/__/mesh/serial/src/serial_handler_dfu.c.obj
                0x0002f050                serial_handler_dfu_init
 .text.serial_handler_dfu_rx
                0x0002f064      0x16c examples/dfu/CMakeFiles/dfu_nrf52832_xxAA_s132_6.0.0.dir/__/__/mesh/serial/src/serial_handler_dfu.c.obj
                0x0002f064                serial_handler_dfu_rx
 .text.serial_handler_mesh_evt_handle
                0x0002f1d0      0x118 examples/dfu/CMakeFiles/dfu_nrf52832_xxAA_s132_6.0.0.dir/__/__/mesh/serial/src/serial_handler_mesh.c.obj
 .text.handle_cmd_clear
                0x0002f2e8       0x20 examples/dfu/CMakeFiles/dfu_nrf52832_xxAA_s132_6.0.0.dir/__/__/mesh/serial/src/serial_handler_mesh.c.obj
 .text.handle_cmd_packet_send
                0x0002f308       0xa4 examples/dfu/CMakeFiles/dfu_nrf52832_xxAA_s132_6.0.0.dir/__/__/mesh/serial/src/serial_handler_mesh.c.obj
 .text.handle_cmd_addr_virtual_count_max_get
                0x0002f3ac       0x1c examples/dfu/CMakeFiles/dfu_nrf52832_xxAA_s132_6.0.0.dir/__/__/mesh/serial/src/serial_handler_mesh.c.obj
 .text.handle_cmd_addr_nonvirtual_count_max_get
                0x0002f3c8       0x1c examples/dfu/CMakeFiles/dfu_nrf52832_xxAA_s132_6.0.0.dir/__/__/mesh/serial/src/serial_handler_mesh.c.obj
 .text.handle_cmd_addr_local_unicast_get
                0x0002f3e4       0x24 examples/dfu/CMakeFiles/dfu_nrf52832_xxAA_s132_6.0.0.dir/__/__/mesh/serial/src/serial_handler_mesh.c.obj
 .text.handle_cmd_devkey_count_max_get
                0x0002f408       0x1c examples/dfu/CMakeFiles/dfu_nrf52832_xxAA_s132_6.0.0.dir/__/__/mesh/serial/src/serial_handler_mesh.c.obj
 .text.handle_cmd_subnet_count_max_get
                0x0002f424       0x1c examples/dfu/CMakeFiles/dfu_nrf52832_xxAA_s132_6.0.0.dir/__/__/mesh/serial/src/serial_handler_mesh.c.obj
 .text.handle_cmd_addr_get_all
                0x0002f440       0x38 examples/dfu/CMakeFiles/dfu_nrf52832_xxAA_s132_6.0.0.dir/__/__/mesh/serial/src/serial_handler_mesh.c.obj
 .text.handle_cmd_addr_get
                0x0002f478       0x64 examples/dfu/CMakeFiles/dfu_nrf52832_xxAA_s132_6.0.0.dir/__/__/mesh/serial/src/serial_handler_mesh.c.obj
 .text.handle_cmd_addr_publication_remove
                0x0002f4dc       0x28 examples/dfu/CMakeFiles/dfu_nrf52832_xxAA_s132_6.0.0.dir/__/__/mesh/serial/src/serial_handler_mesh.c.obj
 .text.handle_cmd_addr_publication_add_virtual
                0x0002f504       0x28 examples/dfu/CMakeFiles/dfu_nrf52832_xxAA_s132_6.0.0.dir/__/__/mesh/serial/src/serial_handler_mesh.c.obj
 .text.handle_cmd_addr_publication_add
                0x0002f52c       0x28 examples/dfu/CMakeFiles/dfu_nrf52832_xxAA_s132_6.0.0.dir/__/__/mesh/serial/src/serial_handler_mesh.c.obj
 .text.handle_cmd_addr_subscription_remove
                0x0002f554       0x28 examples/dfu/CMakeFiles/dfu_nrf52832_xxAA_s132_6.0.0.dir/__/__/mesh/serial/src/serial_handler_mesh.c.obj
 .text.handle_cmd_addr_subscription_add_virtual
                0x0002f57c       0x28 examples/dfu/CMakeFiles/dfu_nrf52832_xxAA_s132_6.0.0.dir/__/__/mesh/serial/src/serial_handler_mesh.c.obj
 .text.handle_cmd_addr_subscription_add
                0x0002f5a4       0x28 examples/dfu/CMakeFiles/dfu_nrf52832_xxAA_s132_6.0.0.dir/__/__/mesh/serial/src/serial_handler_mesh.c.obj
 .text.handle_cmd_addr_local_unicast_set
                0x0002f5cc       0x24 examples/dfu/CMakeFiles/dfu_nrf52832_xxAA_s132_6.0.0.dir/__/__/mesh/serial/src/serial_handler_mesh.c.obj
 .text.handle_cmd_devkey_delete
                0x0002f5f0       0x28 examples/dfu/CMakeFiles/dfu_nrf52832_xxAA_s132_6.0.0.dir/__/__/mesh/serial/src/serial_handler_mesh.c.obj
 .text.handle_cmd_devkey_add
                0x0002f618       0x24 examples/dfu/CMakeFiles/dfu_nrf52832_xxAA_s132_6.0.0.dir/__/__/mesh/serial/src/serial_handler_mesh.c.obj
 .text.handle_cmd_appkey_get_all
                0x0002f63c       0x40 examples/dfu/CMakeFiles/dfu_nrf52832_xxAA_s132_6.0.0.dir/__/__/mesh/serial/src/serial_handler_mesh.c.obj
 .text.handle_cmd_appkey_delete
                0x0002f67c       0x28 examples/dfu/CMakeFiles/dfu_nrf52832_xxAA_s132_6.0.0.dir/__/__/mesh/serial/src/serial_handler_mesh.c.obj
 .text.handle_cmd_appkey_update
                0x0002f6a4       0x2c examples/dfu/CMakeFiles/dfu_nrf52832_xxAA_s132_6.0.0.dir/__/__/mesh/serial/src/serial_handler_mesh.c.obj
 .text.handle_cmd_appkey_add
                0x0002f6d0       0x2c examples/dfu/CMakeFiles/dfu_nrf52832_xxAA_s132_6.0.0.dir/__/__/mesh/serial/src/serial_handler_mesh.c.obj
 .text.handle_cmd_subnet_get_all
                0x0002f6fc       0x38 examples/dfu/CMakeFiles/dfu_nrf52832_xxAA_s132_6.0.0.dir/__/__/mesh/serial/src/serial_handler_mesh.c.obj
 .text.handle_cmd_subnet_delete
                0x0002f734       0x28 examples/dfu/CMakeFiles/dfu_nrf52832_xxAA_s132_6.0.0.dir/__/__/mesh/serial/src/serial_handler_mesh.c.obj
 .text.handle_cmd_subnet_update
                0x0002f75c       0x2c examples/dfu/CMakeFiles/dfu_nrf52832_xxAA_s132_6.0.0.dir/__/__/mesh/serial/src/serial_handler_mesh.c.obj
 .text.handle_cmd_subnet_add
                0x0002f788       0x2c examples/dfu/CMakeFiles/dfu_nrf52832_xxAA_s132_6.0.0.dir/__/__/mesh/serial/src/serial_handler_mesh.c.obj
 .text.handle_cmd_disable
                0x0002f7b4       0x18 examples/dfu/CMakeFiles/dfu_nrf52832_xxAA_s132_6.0.0.dir/__/__/mesh/serial/src/serial_handler_mesh.c.obj
 .text.handle_cmd_enable
                0x0002f7cc       0x18 examples/dfu/CMakeFiles/dfu_nrf52832_xxAA_s132_6.0.0.dir/__/__/mesh/serial/src/serial_handler_mesh.c.obj
 .text.handle_cmd_appkey_count_max_get
                0x0002f7e4       0x1c examples/dfu/CMakeFiles/dfu_nrf52832_xxAA_s132_6.0.0.dir/__/__/mesh/serial/src/serial_handler_mesh.c.obj
 .text.serial_handler_mesh_init
                0x0002f800       0x14 examples/dfu/CMakeFiles/dfu_nrf52832_xxAA_s132_6.0.0.dir/__/__/mesh/serial/src/serial_handler_mesh.c.obj
                0x0002f800                serial_handler_mesh_init
 .text.serial_handler_mesh_rx
                0x0002f814       0x78 examples/dfu/CMakeFiles/dfu_nrf52832_xxAA_s132_6.0.0.dir/__/__/mesh/serial/src/serial_handler_mesh.c.obj
                0x0002f814                serial_handler_mesh_rx
 .text.model_command
                0x0002f88c       0x8c examples/dfu/CMakeFiles/dfu_nrf52832_xxAA_s132_6.0.0.dir/__/__/mesh/serial/src/serial_handler_models.c.obj
 .text.models_get
                0x0002f918       0x74 examples/dfu/CMakeFiles/dfu_nrf52832_xxAA_s132_6.0.0.dir/__/__/mesh/serial/src/serial_handler_models.c.obj
 .text.model_init
                0x0002f98c       0x64 examples/dfu/CMakeFiles/dfu_nrf52832_xxAA_s132_6.0.0.dir/__/__/mesh/serial/src/serial_handler_models.c.obj
 .text.serial_handler_models_rx
                0x0002f9f0       0x24 examples/dfu/CMakeFiles/dfu_nrf52832_xxAA_s132_6.0.0.dir/__/__/mesh/serial/src/serial_handler_models.c.obj
                0x0002f9f0                serial_handler_models_rx
 .text.handle_cmd_device_fw_info_get
                0x0002fa14        0xc examples/dfu/CMakeFiles/dfu_nrf52832_xxAA_s132_6.0.0.dir/__/__/mesh/serial/src/serial_handler_device.c.obj
 .text.handle_cmd_device_serial_version_get
                0x0002fa20       0x1c examples/dfu/CMakeFiles/dfu_nrf52832_xxAA_s132_6.0.0.dir/__/__/mesh/serial/src/serial_handler_device.c.obj
 .text.handle_cmd_device_beacon_params_set
                0x0002fa3c       0x8c examples/dfu/CMakeFiles/dfu_nrf52832_xxAA_s132_6.0.0.dir/__/__/mesh/serial/src/serial_handler_device.c.obj
 .text.handle_cmd_device_beacon_stop
                0x0002fac8       0x48 examples/dfu/CMakeFiles/dfu_nrf52832_xxAA_s132_6.0.0.dir/__/__/mesh/serial/src/serial_handler_device.c.obj
 .text.handle_cmd_device_beacon_start
                0x0002fb10       0x70 examples/dfu/CMakeFiles/dfu_nrf52832_xxAA_s132_6.0.0.dir/__/__/mesh/serial/src/serial_handler_device.c.obj
 .text.handle_cmd_device_radio_reset
                0x0002fb80       0x1c examples/dfu/CMakeFiles/dfu_nrf52832_xxAA_s132_6.0.0.dir/__/__/mesh/serial/src/serial_handler_device.c.obj
 .text.handle_cmd_device_echo
                0x0002fb9c       0x34 examples/dfu/CMakeFiles/dfu_nrf52832_xxAA_s132_6.0.0.dir/__/__/mesh/serial/src/serial_handler_device.c.obj
 .text.handle_cmd_device_beacon_params_get
                0x0002fbd0       0xf4 examples/dfu/CMakeFiles/dfu_nrf52832_xxAA_s132_6.0.0.dir/__/__/mesh/serial/src/serial_handler_device.c.obj
 .text.handle_cmd_device_internal_events_report
                0x0002fcc4        0xc examples/dfu/CMakeFiles/dfu_nrf52832_xxAA_s132_6.0.0.dir/__/__/mesh/serial/src/serial_handler_device.c.obj
 .text.serial_handler_device_init
                0x0002fcd0       0x20 examples/dfu/CMakeFiles/dfu_nrf52832_xxAA_s132_6.0.0.dir/__/__/mesh/serial/src/serial_handler_device.c.obj
                0x0002fcd0                serial_handler_device_init
 .text.serial_handler_device_rx
                0x0002fcf0       0x24 examples/dfu/CMakeFiles/dfu_nrf52832_xxAA_s132_6.0.0.dir/__/__/mesh/serial/src/serial_handler_device.c.obj
                0x0002fcf0                serial_handler_device_rx
 .text.nrf_mesh_serial_init
                0x0002fd14       0x3c examples/dfu/CMakeFiles/dfu_nrf52832_xxAA_s132_6.0.0.dir/__/__/mesh/serial/src/nrf_mesh_serial.c.obj
                0x0002fd14                nrf_mesh_serial_init
 .text.nrf_mesh_serial_enable
                0x0002fd50        0x4 examples/dfu/CMakeFiles/dfu_nrf52832_xxAA_s132_6.0.0.dir/__/__/mesh/serial/src/nrf_mesh_serial.c.obj
                0x0002fd50                nrf_mesh_serial_enable
 .text.serial_handler_app_cb_set
                0x0002fd54        0xc examples/dfu/CMakeFiles/dfu_nrf52832_xxAA_s132_6.0.0.dir/__/__/mesh/serial/src/serial_handler_app.c.obj
                0x0002fd54                serial_handler_app_cb_set
 .text.serial_handler_app_rx
                0x0002fd60       0x30 examples/dfu/CMakeFiles/dfu_nrf52832_xxAA_s132_6.0.0.dir/__/__/mesh/serial/src/serial_handler_app.c.obj
                0x0002fd60                serial_handler_app_rx
 .text.config_composition_data_get
                0x0002fd90      0x1d4 examples/dfu/CMakeFiles/dfu_nrf52832_xxAA_s132_6.0.0.dir/__/__/models/config/src/composition_data.c.obj
                0x0002fd90                config_composition_data_get
 .text.config_server_heartbeat_publication_count_decrement
                0x0002ff64       0x1c examples/dfu/CMakeFiles/dfu_nrf52832_xxAA_s132_6.0.0.dir/__/__/models/config/src/config_server.c.obj
 .text.config_server_heartbeat_publication_params_get
                0x0002ff80       0x38 examples/dfu/CMakeFiles/dfu_nrf52832_xxAA_s132_6.0.0.dir/__/__/models/config/src/config_server.c.obj
 .text.handle_config_network_transmit_set
                0x0002ffb8      0x11c examples/dfu/CMakeFiles/dfu_nrf52832_xxAA_s132_6.0.0.dir/__/__/models/config/src/config_server.c.obj
 .text.handle_node_reset
                0x000300d4       0x30 examples/dfu/CMakeFiles/dfu_nrf52832_xxAA_s132_6.0.0.dir/__/__/models/config/src/config_server.c.obj
 .text.handle_config_relay_set
                0x00030104      0x1b0 examples/dfu/CMakeFiles/dfu_nrf52832_xxAA_s132_6.0.0.dir/__/__/models/config/src/config_server.c.obj
 .text.handle_config_gatt_proxy_set
                0x000302b4       0x38 examples/dfu/CMakeFiles/dfu_nrf52832_xxAA_s132_6.0.0.dir/__/__/models/config/src/config_server.c.obj
 .text.handle_netkey_get
                0x000302ec       0x68 examples/dfu/CMakeFiles/dfu_nrf52832_xxAA_s132_6.0.0.dir/__/__/models/config/src/config_server.c.obj
 .text.handle_model_app_bind_unbind
                0x00030354      0x22c examples/dfu/CMakeFiles/dfu_nrf52832_xxAA_s132_6.0.0.dir/__/__/models/config/src/config_server.c.obj
 .text.status_error_sub_send
                0x00030580      0x184 examples/dfu/CMakeFiles/dfu_nrf52832_xxAA_s132_6.0.0.dir/__/__/models/config/src/config_server.c.obj
 .text.handle_config_model_subscription_overwrite
                0x00030704      0x1ec examples/dfu/CMakeFiles/dfu_nrf52832_xxAA_s132_6.0.0.dir/__/__/models/config/src/config_server.c.obj
 .text.send_publication_status
                0x000308f0      0x1a4 examples/dfu/CMakeFiles/dfu_nrf52832_xxAA_s132_6.0.0.dir/__/__/models/config/src/config_server.c.obj
 .text.handle_config_key_refresh_phase_set
                0x00030a94       0xf0 examples/dfu/CMakeFiles/dfu_nrf52832_xxAA_s132_6.0.0.dir/__/__/models/config/src/config_server.c.obj
 .text.handle_config_default_ttl_set
                0x00030b84       0x70 examples/dfu/CMakeFiles/dfu_nrf52832_xxAA_s132_6.0.0.dir/__/__/models/config/src/config_server.c.obj
 .text.handle_heartbeat_publication_set
                0x00030bf4      0x170 examples/dfu/CMakeFiles/dfu_nrf52832_xxAA_s132_6.0.0.dir/__/__/models/config/src/config_server.c.obj
 .text.mesh_event_cb
                0x00030d64       0x70 examples/dfu/CMakeFiles/dfu_nrf52832_xxAA_s132_6.0.0.dir/__/__/models/config/src/config_server.c.obj
 .text.handle_node_identity_set
                0x00030dd4       0x48 examples/dfu/CMakeFiles/dfu_nrf52832_xxAA_s132_6.0.0.dir/__/__/models/config/src/config_server.c.obj
 .text.handle_node_identity_get
                0x00030e1c       0x44 examples/dfu/CMakeFiles/dfu_nrf52832_xxAA_s132_6.0.0.dir/__/__/models/config/src/config_server.c.obj
 .text.handle_config_friend_set
                0x00030e60       0x38 examples/dfu/CMakeFiles/dfu_nrf52832_xxAA_s132_6.0.0.dir/__/__/models/config/src/config_server.c.obj
 .text.status_error_pub_send
                0x00030e98       0xc8 examples/dfu/CMakeFiles/dfu_nrf52832_xxAA_s132_6.0.0.dir/__/__/models/config/src/config_server.c.obj
 .text.handle_config_model_publication_get
                0x00030f60       0xa0 examples/dfu/CMakeFiles/dfu_nrf52832_xxAA_s132_6.0.0.dir/__/__/models/config/src/config_server.c.obj
 .text.handle_config_model_publication_set
                0x00031000      0x324 examples/dfu/CMakeFiles/dfu_nrf52832_xxAA_s132_6.0.0.dir/__/__/models/config/src/config_server.c.obj
 .text.handle_config_key_refresh_phase_get
                0x00031324       0x70 examples/dfu/CMakeFiles/dfu_nrf52832_xxAA_s132_6.0.0.dir/__/__/models/config/src/config_server.c.obj
 .text.handle_config_default_ttl_get
                0x00031394       0x48 examples/dfu/CMakeFiles/dfu_nrf52832_xxAA_s132_6.0.0.dir/__/__/models/config/src/config_server.c.obj
 .text.handle_config_beacon_set
                0x000313dc       0x80 examples/dfu/CMakeFiles/dfu_nrf52832_xxAA_s132_6.0.0.dir/__/__/models/config/src/config_server.c.obj
 .text.handle_composition_data_get
                0x0003145c       0x64 examples/dfu/CMakeFiles/dfu_nrf52832_xxAA_s132_6.0.0.dir/__/__/models/config/src/config_server.c.obj
 .text.handle_appkey_delete
                0x000314c0      0x124 examples/dfu/CMakeFiles/dfu_nrf52832_xxAA_s132_6.0.0.dir/__/__/models/config/src/config_server.c.obj
 .text.handle_model_app_get
                0x000315e4      0x230 examples/dfu/CMakeFiles/dfu_nrf52832_xxAA_s132_6.0.0.dir/__/__/models/config/src/config_server.c.obj
 .text.handle_config_vendor_model_subscription_get
                0x00031814      0x18c examples/dfu/CMakeFiles/dfu_nrf52832_xxAA_s132_6.0.0.dir/__/__/models/config/src/config_server.c.obj
 .text.handle_appkey_get
                0x000319a0      0x104 examples/dfu/CMakeFiles/dfu_nrf52832_xxAA_s132_6.0.0.dir/__/__/models/config/src/config_server.c.obj
 .text.handle_heartbeat_subscription_get
                0x00031aa4       0xd8 examples/dfu/CMakeFiles/dfu_nrf52832_xxAA_s132_6.0.0.dir/__/__/models/config/src/config_server.c.obj
 .text.handle_config_gatt_proxy_get
                0x00031b7c       0x38 examples/dfu/CMakeFiles/dfu_nrf52832_xxAA_s132_6.0.0.dir/__/__/models/config/src/config_server.c.obj
 .text.handle_heartbeat_subscription_set
                0x00031bb4      0x110 examples/dfu/CMakeFiles/dfu_nrf52832_xxAA_s132_6.0.0.dir/__/__/models/config/src/config_server.c.obj
 .text.handle_config_friend_get
                0x00031cc4       0x38 examples/dfu/CMakeFiles/dfu_nrf52832_xxAA_s132_6.0.0.dir/__/__/models/config/src/config_server.c.obj
 .text.handle_heartbeat_publication_get
                0x00031cfc       0xcc examples/dfu/CMakeFiles/dfu_nrf52832_xxAA_s132_6.0.0.dir/__/__/models/config/src/config_server.c.obj
 .text.handle_config_beacon_get
                0x00031dc8       0x40 examples/dfu/CMakeFiles/dfu_nrf52832_xxAA_s132_6.0.0.dir/__/__/models/config/src/config_server.c.obj
 .text.handle_config_sig_model_subscription_get
                0x00031e08      0x150 examples/dfu/CMakeFiles/dfu_nrf52832_xxAA_s132_6.0.0.dir/__/__/models/config/src/config_server.c.obj
 .text.handle_appkey_update
                0x00031f58      0x11c examples/dfu/CMakeFiles/dfu_nrf52832_xxAA_s132_6.0.0.dir/__/__/models/config/src/config_server.c.obj
 .text.handle_appkey_add
                0x00032074      0x12c examples/dfu/CMakeFiles/dfu_nrf52832_xxAA_s132_6.0.0.dir/__/__/models/config/src/config_server.c.obj
 .text.handle_netkey_add_update
                0x000321a0       0xe8 examples/dfu/CMakeFiles/dfu_nrf52832_xxAA_s132_6.0.0.dir/__/__/models/config/src/config_server.c.obj
 .text.handle_netkey_delete
                0x00032288      0x148 examples/dfu/CMakeFiles/dfu_nrf52832_xxAA_s132_6.0.0.dir/__/__/models/config/src/config_server.c.obj
 .text.handle_config_network_transmit_get
                0x000323d0       0x9c examples/dfu/CMakeFiles/dfu_nrf52832_xxAA_s132_6.0.0.dir/__/__/models/config/src/config_server.c.obj
 .text.handle_config_relay_get
                0x0003246c       0xd8 examples/dfu/CMakeFiles/dfu_nrf52832_xxAA_s132_6.0.0.dir/__/__/models/config/src/config_server.c.obj
 .text.handle_config_model_subscription_virtual_address_delete
                0x00032544      0x17c examples/dfu/CMakeFiles/dfu_nrf52832_xxAA_s132_6.0.0.dir/__/__/models/config/src/config_server.c.obj
 .text.handle_config_model_subscription_delete_all
                0x000326c0      0x1a8 examples/dfu/CMakeFiles/dfu_nrf52832_xxAA_s132_6.0.0.dir/__/__/models/config/src/config_server.c.obj
 .text.handle_config_model_subscription_virtual_address_add
                0x00032868      0x178 examples/dfu/CMakeFiles/dfu_nrf52832_xxAA_s132_6.0.0.dir/__/__/models/config/src/config_server.c.obj
 .text.handle_config_model_subscription_delete
                0x000329e0      0x170 examples/dfu/CMakeFiles/dfu_nrf52832_xxAA_s132_6.0.0.dir/__/__/models/config/src/config_server.c.obj
 .text.handle_config_model_subscription_virtual_address_overwrite
                0x00032b50      0x210 examples/dfu/CMakeFiles/dfu_nrf52832_xxAA_s132_6.0.0.dir/__/__/models/config/src/config_server.c.obj
 .text.handle_config_model_subscription_add
                0x00032d60      0x168 examples/dfu/CMakeFiles/dfu_nrf52832_xxAA_s132_6.0.0.dir/__/__/models/config/src/config_server.c.obj
 .text.config_server_init
                0x00032ec8       0x64 examples/dfu/CMakeFiles/dfu_nrf52832_xxAA_s132_6.0.0.dir/__/__/models/config/src/config_server.c.obj
                0x00032ec8                config_server_init
 .text.config_server_bind
                0x00032f2c       0x10 examples/dfu/CMakeFiles/dfu_nrf52832_xxAA_s132_6.0.0.dir/__/__/models/config/src/config_server.c.obj
                0x00032f2c                config_server_bind
 .text.packed_index_list_create
                0x00032f3c       0x38 examples/dfu/CMakeFiles/dfu_nrf52832_xxAA_s132_6.0.0.dir/__/__/models/config/src/packed_index_list.c.obj
                0x00032f3c                packed_index_list_create
 .text.attention_timer_handler
                0x00032f74       0x6c examples/dfu/CMakeFiles/dfu_nrf52832_xxAA_s132_6.0.0.dir/__/__/models/health/src/health_server.c.obj
 .text.handle_attention_get
                0x00032fe0       0x3c examples/dfu/CMakeFiles/dfu_nrf52832_xxAA_s132_6.0.0.dir/__/__/models/health/src/health_server.c.obj
 .text.handle_period_get
                0x0003301c       0x38 examples/dfu/CMakeFiles/dfu_nrf52832_xxAA_s132_6.0.0.dir/__/__/models/health/src/health_server.c.obj
 .text.handle_attention_set
                0x00033054       0xd8 examples/dfu/CMakeFiles/dfu_nrf52832_xxAA_s132_6.0.0.dir/__/__/models/health/src/health_server.c.obj
 .text.handle_period_set
                0x0003312c       0x50 examples/dfu/CMakeFiles/dfu_nrf52832_xxAA_s132_6.0.0.dir/__/__/models/health/src/health_server.c.obj
 .text.send_fault_status
                0x0003317c      0x37c examples/dfu/CMakeFiles/dfu_nrf52832_xxAA_s132_6.0.0.dir/__/__/models/health/src/health_server.c.obj
 .text.health_publish_timeout_handler
                0x000334f8        0xc examples/dfu/CMakeFiles/dfu_nrf52832_xxAA_s132_6.0.0.dir/__/__/models/health/src/health_server.c.obj
 .text.handle_fault_test
                0x00033504       0x7c examples/dfu/CMakeFiles/dfu_nrf52832_xxAA_s132_6.0.0.dir/__/__/models/health/src/health_server.c.obj
 .text.handle_fault_clear
                0x00033580       0x48 examples/dfu/CMakeFiles/dfu_nrf52832_xxAA_s132_6.0.0.dir/__/__/models/health/src/health_server.c.obj
 .text.handle_fault_get
                0x000335c8       0x34 examples/dfu/CMakeFiles/dfu_nrf52832_xxAA_s132_6.0.0.dir/__/__/models/health/src/health_server.c.obj
 .text.health_server_init
                0x000335fc       0x74 examples/dfu/CMakeFiles/dfu_nrf52832_xxAA_s132_6.0.0.dir/__/__/models/health/src/health_server.c.obj
                0x000335fc                health_server_init
 .text.prov_provisioner_cb_link_closed
                0x00033670       0x2c examples/dfu/CMakeFiles/dfu_nrf52832_xxAA_s132_6.0.0.dir/__/__/mesh/prov/src/prov_provisioner.c.obj
 .text.prov_provisioner_cb_link_established
                0x0003369c       0x44 examples/dfu/CMakeFiles/dfu_nrf52832_xxAA_s132_6.0.0.dir/__/__/mesh/prov/src/prov_provisioner.c.obj
 .text.request_authentication
                0x000336e0       0xa8 examples/dfu/CMakeFiles/dfu_nrf52832_xxAA_s132_6.0.0.dir/__/__/mesh/prov/src/prov_provisioner.c.obj
 .text.prov_provisioner_cb_ack_received
                0x00033788       0x90 examples/dfu/CMakeFiles/dfu_nrf52832_xxAA_s132_6.0.0.dir/__/__/mesh/prov/src/prov_provisioner.c.obj
 .text.prov_provisioner_pkt_in
                0x00033818      0x294 examples/dfu/CMakeFiles/dfu_nrf52832_xxAA_s132_6.0.0.dir/__/__/mesh/prov/src/prov_provisioner.c.obj
 .text.prov_provisioner_provision
                0x00033aac       0x48 examples/dfu/CMakeFiles/dfu_nrf52832_xxAA_s132_6.0.0.dir/__/__/mesh/prov/src/prov_provisioner.c.obj
                0x00033aac                prov_provisioner_provision
 .text.prov_provisioner_oob_use
                0x00033af4       0xbc examples/dfu/CMakeFiles/dfu_nrf52832_xxAA_s132_6.0.0.dir/__/__/mesh/prov/src/prov_provisioner.c.obj
                0x00033af4                prov_provisioner_oob_use
 .text.prov_provisioner_auth_data
                0x00033bb0       0xec examples/dfu/CMakeFiles/dfu_nrf52832_xxAA_s132_6.0.0.dir/__/__/mesh/prov/src/prov_provisioner.c.obj
                0x00033bb0                prov_provisioner_auth_data
 .text.prov_provisioner_shared_secret
                0x00033c9c       0xb8 examples/dfu/CMakeFiles/dfu_nrf52832_xxAA_s132_6.0.0.dir/__/__/mesh/prov/src/prov_provisioner.c.obj
                0x00033c9c                prov_provisioner_shared_secret
 .text.prov_provisionee_cb_link_established
                0x00033d54       0x38 examples/dfu/CMakeFiles/dfu_nrf52832_xxAA_s132_6.0.0.dir/__/__/mesh/prov/src/prov_provisionee.c.obj
 .text.prov_provisionee_cb_link_closed
                0x00033d8c       0x54 examples/dfu/CMakeFiles/dfu_nrf52832_xxAA_s132_6.0.0.dir/__/__/mesh/prov/src/prov_provisionee.c.obj
 .text.request_authentication
                0x00033de0       0x90 examples/dfu/CMakeFiles/dfu_nrf52832_xxAA_s132_6.0.0.dir/__/__/mesh/prov/src/prov_provisionee.c.obj
 .text.prov_provisionee_cb_ack_received
                0x00033e70      0x194 examples/dfu/CMakeFiles/dfu_nrf52832_xxAA_s132_6.0.0.dir/__/__/mesh/prov/src/prov_provisionee.c.obj
 .text.prov_provisionee_pkt_in
                0x00034004      0x420 examples/dfu/CMakeFiles/dfu_nrf52832_xxAA_s132_6.0.0.dir/__/__/mesh/prov/src/prov_provisionee.c.obj
 .text.prov_provisionee_listen
                0x00034424       0x34 examples/dfu/CMakeFiles/dfu_nrf52832_xxAA_s132_6.0.0.dir/__/__/mesh/prov/src/prov_provisionee.c.obj
                0x00034424                prov_provisionee_listen
 .text.prov_provisionee_auth_data
                0x00034458      0x104 examples/dfu/CMakeFiles/dfu_nrf52832_xxAA_s132_6.0.0.dir/__/__/mesh/prov/src/prov_provisionee.c.obj
                0x00034458                prov_provisionee_auth_data
 .text.prov_provisionee_shared_secret
                0x0003455c       0xa0 examples/dfu/CMakeFiles/dfu_nrf52832_xxAA_s132_6.0.0.dir/__/__/mesh/prov/src/prov_provisionee.c.obj
                0x0003455c                prov_provisionee_shared_secret
 .text.bearer_compare_callback
                0x000345fc       0x10 examples/dfu/CMakeFiles/dfu_nrf52832_xxAA_s132_6.0.0.dir/__/__/mesh/prov/src/nrf_mesh_prov.c.obj
 .text.nrf_mesh_prov_init
                0x0003460c       0x3c examples/dfu/CMakeFiles/dfu_nrf52832_xxAA_s132_6.0.0.dir/__/__/mesh/prov/src/nrf_mesh_prov.c.obj
                0x0003460c                nrf_mesh_prov_init
 .text.nrf_mesh_prov_bearer_add
                0x00034648       0x2c examples/dfu/CMakeFiles/dfu_nrf52832_xxAA_s132_6.0.0.dir/__/__/mesh/prov/src/nrf_mesh_prov.c.obj
                0x00034648                nrf_mesh_prov_bearer_add
 .text.nrf_mesh_prov_generate_keys
                0x00034674        0x4 examples/dfu/CMakeFiles/dfu_nrf52832_xxAA_s132_6.0.0.dir/__/__/mesh/prov/src/nrf_mesh_prov.c.obj
                0x00034674                nrf_mesh_prov_generate_keys
 .text.nrf_mesh_prov_listen
                0x00034678       0xf8 examples/dfu/CMakeFiles/dfu_nrf52832_xxAA_s132_6.0.0.dir/__/__/mesh/prov/src/nrf_mesh_prov.c.obj
                0x00034678                nrf_mesh_prov_listen
 .text.nrf_mesh_prov_provision
                0x00034770       0x58 examples/dfu/CMakeFiles/dfu_nrf52832_xxAA_s132_6.0.0.dir/__/__/mesh/prov/src/nrf_mesh_prov.c.obj
                0x00034770                nrf_mesh_prov_provision
 .text.nrf_mesh_prov_oob_use
                0x000347c8       0x18 examples/dfu/CMakeFiles/dfu_nrf52832_xxAA_s132_6.0.0.dir/__/__/mesh/prov/src/nrf_mesh_prov.c.obj
                0x000347c8                nrf_mesh_prov_oob_use
 .text.nrf_mesh_prov_auth_data_provide
                0x000347e0       0x10 examples/dfu/CMakeFiles/dfu_nrf52832_xxAA_s132_6.0.0.dir/__/__/mesh/prov/src/nrf_mesh_prov.c.obj
                0x000347e0                nrf_mesh_prov_auth_data_provide
 .text.nrf_mesh_prov_shared_secret_provide
                0x000347f0       0x10 examples/dfu/CMakeFiles/dfu_nrf52832_xxAA_s132_6.0.0.dir/__/__/mesh/prov/src/nrf_mesh_prov.c.obj
                0x000347f0                nrf_mesh_prov_shared_secret_provide
 .text.nrf_mesh_prov_scan_start
                0x00034800       0x10 examples/dfu/CMakeFiles/dfu_nrf52832_xxAA_s132_6.0.0.dir/__/__/mesh/prov/src/nrf_mesh_prov.c.obj
                0x00034800                nrf_mesh_prov_scan_start
 .text.nrf_mesh_prov_scan_stop
                0x00034810        0x4 examples/dfu/CMakeFiles/dfu_nrf52832_xxAA_s132_6.0.0.dir/__/__/mesh/prov/src/nrf_mesh_prov.c.obj
                0x00034810                nrf_mesh_prov_scan_stop
 .text.prov_packet_length_valid
                0x00034814       0x20 examples/dfu/CMakeFiles/dfu_nrf52832_xxAA_s132_6.0.0.dir/__/__/mesh/prov/src/provisioning.c.obj
                0x00034814                prov_packet_length_valid
 .text.prov_tx_invite
                0x00034834       0x38 examples/dfu/CMakeFiles/dfu_nrf52832_xxAA_s132_6.0.0.dir/__/__/mesh/prov/src/provisioning.c.obj
                0x00034834                prov_tx_invite
 .text.prov_tx_capabilities
                0x0003486c       0x38 examples/dfu/CMakeFiles/dfu_nrf52832_xxAA_s132_6.0.0.dir/__/__/mesh/prov/src/provisioning.c.obj
                0x0003486c                prov_tx_capabilities
 .text.prov_tx_start
                0x000348a4       0x38 examples/dfu/CMakeFiles/dfu_nrf52832_xxAA_s132_6.0.0.dir/__/__/mesh/prov/src/provisioning.c.obj
                0x000348a4                prov_tx_start
 .text.prov_tx_public_key
                0x000348dc       0x30 examples/dfu/CMakeFiles/dfu_nrf52832_xxAA_s132_6.0.0.dir/__/__/mesh/prov/src/provisioning.c.obj
                0x000348dc                prov_tx_public_key
 .text.prov_tx_input_complete
                0x0003490c       0x28 examples/dfu/CMakeFiles/dfu_nrf52832_xxAA_s132_6.0.0.dir/__/__/mesh/prov/src/provisioning.c.obj
                0x0003490c                prov_tx_input_complete
 .text.prov_tx_confirmation
                0x00034934       0x30 examples/dfu/CMakeFiles/dfu_nrf52832_xxAA_s132_6.0.0.dir/__/__/mesh/prov/src/provisioning.c.obj
                0x00034934                prov_tx_confirmation
 .text.prov_tx_random
                0x00034964       0x30 examples/dfu/CMakeFiles/dfu_nrf52832_xxAA_s132_6.0.0.dir/__/__/mesh/prov/src/provisioning.c.obj
                0x00034964                prov_tx_random
 .text.prov_tx_complete
                0x00034994       0x28 examples/dfu/CMakeFiles/dfu_nrf52832_xxAA_s132_6.0.0.dir/__/__/mesh/prov/src/provisioning.c.obj
                0x00034994                prov_tx_complete
 .text.prov_tx_failed
                0x000349bc       0x2c examples/dfu/CMakeFiles/dfu_nrf52832_xxAA_s132_6.0.0.dir/__/__/mesh/prov/src/provisioning.c.obj
                0x000349bc                prov_tx_failed
 .text.prov_tx_data
                0x000349e8       0x34 examples/dfu/CMakeFiles/dfu_nrf52832_xxAA_s132_6.0.0.dir/__/__/mesh/prov/src/provisioning.c.obj
                0x000349e8                prov_tx_data
 .text.prov_beacon_unprov_build
                0x00034a1c       0x54 examples/dfu/CMakeFiles/dfu_nrf52832_xxAA_s132_6.0.0.dir/__/__/mesh/prov/src/prov_beacon.c.obj
                0x00034a1c                prov_beacon_unprov_build
 .text.prov_beacon_unprov_packet_in
                0x00034a70       0xd4 examples/dfu/CMakeFiles/dfu_nrf52832_xxAA_s132_6.0.0.dir/__/__/mesh/prov/src/prov_beacon.c.obj
                0x00034a70                prov_beacon_unprov_packet_in
 .text.prov_beacon_scan_start
                0x00034b44       0x1c examples/dfu/CMakeFiles/dfu_nrf52832_xxAA_s132_6.0.0.dir/__/__/mesh/prov/src/prov_beacon.c.obj
                0x00034b44                prov_beacon_scan_start
 .text.prov_beacon_scan_stop
                0x00034b60        0xc examples/dfu/CMakeFiles/dfu_nrf52832_xxAA_s132_6.0.0.dir/__/__/mesh/prov/src/prov_beacon.c.obj
                0x00034b60                prov_beacon_scan_stop
 .text.prov_utils_opt_set
                0x00034b6c       0x24 examples/dfu/CMakeFiles/dfu_nrf52832_xxAA_s132_6.0.0.dir/__/__/mesh/prov/src/prov_utils.c.obj
                0x00034b6c                prov_utils_opt_set
 .text.prov_utils_opt_get
                0x00034b90       0x1c examples/dfu/CMakeFiles/dfu_nrf52832_xxAA_s132_6.0.0.dir/__/__/mesh/prov/src/prov_utils.c.obj
                0x00034b90                prov_utils_opt_get
 .text.prov_utils_use_ecdh_offloading
                0x00034bac        0xc examples/dfu/CMakeFiles/dfu_nrf52832_xxAA_s132_6.0.0.dir/__/__/mesh/prov/src/prov_utils.c.obj
                0x00034bac                prov_utils_use_ecdh_offloading
 .text.prov_utils_authentication_values_derive
                0x00034bb8       0xa8 examples/dfu/CMakeFiles/dfu_nrf52832_xxAA_s132_6.0.0.dir/__/__/mesh/prov/src/prov_utils.c.obj
                0x00034bb8                prov_utils_authentication_values_derive
 .text.prov_utils_keys_generate
                0x00034c60       0x20 examples/dfu/CMakeFiles/dfu_nrf52832_xxAA_s132_6.0.0.dir/__/__/mesh/prov/src/prov_utils.c.obj
                0x00034c60                prov_utils_keys_generate
 .text.prov_utils_derive_keys
                0x00034c80       0xb4 examples/dfu/CMakeFiles/dfu_nrf52832_xxAA_s132_6.0.0.dir/__/__/mesh/prov/src/prov_utils.c.obj
                0x00034c80                prov_utils_derive_keys
 .text.prov_utils_calculate_shared_secret
                0x00034d34       0x38 examples/dfu/CMakeFiles/dfu_nrf52832_xxAA_s132_6.0.0.dir/__/__/mesh/prov/src/prov_utils.c.obj
                0x00034d34                prov_utils_calculate_shared_secret
 .text.prov_utils_generate_oob_data
                0x00034d6c      0x1b8 examples/dfu/CMakeFiles/dfu_nrf52832_xxAA_s132_6.0.0.dir/__/__/mesh/prov/src/prov_utils.c.obj
                0x00034d6c                prov_utils_generate_oob_data
 .text.prov_utils_confirmation_check
                0x00034f24       0x5c examples/dfu/CMakeFiles/dfu_nrf52832_xxAA_s132_6.0.0.dir/__/__/mesh/prov/src/prov_utils.c.obj
                0x00034f24                prov_utils_confirmation_check
 .text.link_timeout_cb
                0x00034f80       0x10 examples/dfu/CMakeFiles/dfu_nrf52832_xxAA_s132_6.0.0.dir/__/__/mesh/prov/src/prov_bearer_adv.c.obj
 .text.prov_bearer_adv_listen_stop
                0x00034f90       0x8c examples/dfu/CMakeFiles/dfu_nrf52832_xxAA_s132_6.0.0.dir/__/__/mesh/prov/src/prov_bearer_adv.c.obj
 .text.tx_complete_cb
                0x0003501c       0x20 examples/dfu/CMakeFiles/dfu_nrf52832_xxAA_s132_6.0.0.dir/__/__/mesh/prov/src/prov_bearer_adv.c.obj
 .text.prov_bearer_adv_listen
                0x0003503c      0x160 examples/dfu/CMakeFiles/dfu_nrf52832_xxAA_s132_6.0.0.dir/__/__/mesh/prov/src/prov_bearer_adv.c.obj
 .text.prov_buffer_tx
                0x0003519c      0x1d8 examples/dfu/CMakeFiles/dfu_nrf52832_xxAA_s132_6.0.0.dir/__/__/mesh/prov/src/prov_bearer_adv.c.obj
 .text.close_link
                0x00035374       0xc0 examples/dfu/CMakeFiles/dfu_nrf52832_xxAA_s132_6.0.0.dir/__/__/mesh/prov/src/prov_bearer_adv.c.obj
 .text.async_process
                0x00035434       0x60 examples/dfu/CMakeFiles/dfu_nrf52832_xxAA_s132_6.0.0.dir/__/__/mesh/prov/src/prov_bearer_adv.c.obj
 .text.prov_bearer_adv_tx
                0x00035494       0xe4 examples/dfu/CMakeFiles/dfu_nrf52832_xxAA_s132_6.0.0.dir/__/__/mesh/prov/src/prov_bearer_adv.c.obj
 .text.send_link_ack
                0x00035578       0x80 examples/dfu/CMakeFiles/dfu_nrf52832_xxAA_s132_6.0.0.dir/__/__/mesh/prov/src/prov_bearer_adv.c.obj
 .text.tx_retry_cb
                0x000355f8      0x13c examples/dfu/CMakeFiles/dfu_nrf52832_xxAA_s132_6.0.0.dir/__/__/mesh/prov/src/prov_bearer_adv.c.obj
 .text.send_transaction_ack
                0x00035734       0x68 examples/dfu/CMakeFiles/dfu_nrf52832_xxAA_s132_6.0.0.dir/__/__/mesh/prov/src/prov_bearer_adv.c.obj
 .text.prov_buffer_rx
                0x0003579c       0x9c examples/dfu/CMakeFiles/dfu_nrf52832_xxAA_s132_6.0.0.dir/__/__/mesh/prov/src/prov_bearer_adv.c.obj
 .text.prov_bearer_adv_link_open
                0x00035838      0x1c0 examples/dfu/CMakeFiles/dfu_nrf52832_xxAA_s132_6.0.0.dir/__/__/mesh/prov/src/prov_bearer_adv.c.obj
 .text.prov_bearer_adv_link_close
                0x000359f8       0xd8 examples/dfu/CMakeFiles/dfu_nrf52832_xxAA_s132_6.0.0.dir/__/__/mesh/prov/src/prov_bearer_adv.c.obj
 .text.nrf_mesh_prov_bearer_adv_interface_get
                0x00035ad0       0x40 examples/dfu/CMakeFiles/dfu_nrf52832_xxAA_s132_6.0.0.dir/__/__/mesh/prov/src/prov_bearer_adv.c.obj
                0x00035ad0                nrf_mesh_prov_bearer_adv_interface_get
 .text.prov_bearer_adv_packet_in
                0x00035b10      0x950 examples/dfu/CMakeFiles/dfu_nrf52832_xxAA_s132_6.0.0.dir/__/__/mesh/prov/src/prov_bearer_adv.c.obj
                0x00035b10                prov_bearer_adv_packet_in
 .text.tx_complete_cb
                0x00036460        0x4 examples/dfu/CMakeFiles/dfu_nrf52832_xxAA_s132_6.0.0.dir/__/__/mesh/dfu/src/nrf_mesh_dfu.c.obj
 .text.tx_timeout
                0x00036464      0x1dc examples/dfu/CMakeFiles/dfu_nrf52832_xxAA_s132_6.0.0.dir/__/__/mesh/dfu/src/nrf_mesh_dfu.c.obj
 .text.abort_timeout
                0x00036640      0x148 examples/dfu/CMakeFiles/dfu_nrf52832_xxAA_s132_6.0.0.dir/__/__/mesh/dfu/src/nrf_mesh_dfu.c.obj
 .text.timer_timeout
                0x00036788       0xf4 examples/dfu/CMakeFiles/dfu_nrf52832_xxAA_s132_6.0.0.dir/__/__/mesh/dfu/src/nrf_mesh_dfu.c.obj
 .text.flash_op_complete
                0x0003687c      0x200 examples/dfu/CMakeFiles/dfu_nrf52832_xxAA_s132_6.0.0.dir/__/__/mesh/dfu/src/nrf_mesh_dfu.c.obj
 .text.dfu_evt_handler
                0x00036a7c      0xa80 examples/dfu/CMakeFiles/dfu_nrf52832_xxAA_s132_6.0.0.dir/__/__/mesh/dfu/src/nrf_mesh_dfu.c.obj
 .text.nrf_mesh_dfu_jump_to_bootloader
                0x000374fc       0x40 examples/dfu/CMakeFiles/dfu_nrf52832_xxAA_s132_6.0.0.dir/__/__/mesh/dfu/src/nrf_mesh_dfu.c.obj
                0x000374fc                nrf_mesh_dfu_jump_to_bootloader
 .text.nrf_mesh_dfu_request
                0x0003753c      0x124 examples/dfu/CMakeFiles/dfu_nrf52832_xxAA_s132_6.0.0.dir/__/__/mesh/dfu/src/nrf_mesh_dfu.c.obj
                0x0003753c                nrf_mesh_dfu_request
 .text.nrf_mesh_dfu_relay
                0x00037660      0x10c examples/dfu/CMakeFiles/dfu_nrf52832_xxAA_s132_6.0.0.dir/__/__/mesh/dfu/src/nrf_mesh_dfu.c.obj
                0x00037660                nrf_mesh_dfu_relay
 .text.nrf_mesh_dfu_abort
                0x0003776c       0xc4 examples/dfu/CMakeFiles/dfu_nrf52832_xxAA_s132_6.0.0.dir/__/__/mesh/dfu/src/nrf_mesh_dfu.c.obj
                0x0003776c                nrf_mesh_dfu_abort
 .text.nrf_mesh_dfu_bank_info_get
                0x00037830       0xc0 examples/dfu/CMakeFiles/dfu_nrf52832_xxAA_s132_6.0.0.dir/__/__/mesh/dfu/src/nrf_mesh_dfu.c.obj
                0x00037830                nrf_mesh_dfu_bank_info_get
 .text.nrf_mesh_dfu_bank_flash
                0x000378f0       0xb4 examples/dfu/CMakeFiles/dfu_nrf52832_xxAA_s132_6.0.0.dir/__/__/mesh/dfu/src/nrf_mesh_dfu.c.obj
                0x000378f0                nrf_mesh_dfu_bank_flash
 .text.nrf_mesh_dfu_state_get
                0x000379a4       0x4c examples/dfu/CMakeFiles/dfu_nrf52832_xxAA_s132_6.0.0.dir/__/__/mesh/dfu/src/nrf_mesh_dfu.c.obj
                0x000379a4                nrf_mesh_dfu_state_get
 .text.nrf_mesh_dfu_cmd_send
                0x000379f0       0xa8 examples/dfu/CMakeFiles/dfu_nrf52832_xxAA_s132_6.0.0.dir/__/__/mesh/dfu/src/nrf_mesh_dfu.c.obj
                0x000379f0                nrf_mesh_dfu_cmd_send
 .text.nrf_mesh_dfu_init
                0x00037a98      0x1f0 examples/dfu/CMakeFiles/dfu_nrf52832_xxAA_s132_6.0.0.dir/__/__/mesh/dfu/src/nrf_mesh_dfu.c.obj
                0x00037a98                nrf_mesh_dfu_init
 .text.nrf_mesh_dfu_rx
                0x00037c88      0x224 examples/dfu/CMakeFiles/dfu_nrf52832_xxAA_s132_6.0.0.dir/__/__/mesh/dfu/src/nrf_mesh_dfu.c.obj
                0x00037c88                nrf_mesh_dfu_rx
 .text.app_error_fault_handler
                0x00037eac      0x240 examples/dfu/CMakeFiles/dfu_nrf52832_xxAA_s132_6.0.0.dir/__/common/src/app_error_weak.c.obj
                0x00037eac                app_error_fault_handler
 .text.mesh_assertion_handler
                0x000380ec       0x24 examples/dfu/CMakeFiles/dfu_nrf52832_xxAA_s132_6.0.0.dir/__/common/src/assertion_handler_weak.c.obj
                0x000380ec                mesh_assertion_handler
 .text.nrf_mesh_configure_device_uuid_set
                0x00038110       0x10 examples/dfu/CMakeFiles/dfu_nrf52832_xxAA_s132_6.0.0.dir/__/__/mesh/core/src/nrf_mesh_configure.c.obj
                0x00038110                nrf_mesh_configure_device_uuid_set
 .text.nrf_mesh_configure_device_uuid_reset
                0x00038120       0x2c examples/dfu/CMakeFiles/dfu_nrf52832_xxAA_s132_6.0.0.dir/__/__/mesh/core/src/nrf_mesh_configure.c.obj
                0x00038120                nrf_mesh_configure_device_uuid_reset
 .text.nrf_mesh_configure_device_uuid_get
                0x0003814c        0x8 examples/dfu/CMakeFiles/dfu_nrf52832_xxAA_s132_6.0.0.dir/__/__/mesh/core/src/nrf_mesh_configure.c.obj
                0x0003814c                nrf_mesh_configure_device_uuid_get
 .text.sd_ecb_block_encrypt
                0x00038154        0x4 examples/dfu/CMakeFiles/dfu_nrf52832_xxAA_s132_6.0.0.dir/__/__/mesh/core/src/aes.c.obj
 .text.aes_encrypt
                0x00038158       0x34 examples/dfu/CMakeFiles/dfu_nrf52832_xxAA_s132_6.0.0.dir/__/__/mesh/core/src/aes.c.obj
                0x00038158                aes_encrypt
 .text.msg_cache_init
                0x0003818c       0x24 examples/dfu/CMakeFiles/dfu_nrf52832_xxAA_s132_6.0.0.dir/__/__/mesh/core/src/msg_cache.c.obj
                0x0003818c                msg_cache_init
 .text.msg_cache_entry_exists
                0x000381b0       0x40 examples/dfu/CMakeFiles/dfu_nrf52832_xxAA_s132_6.0.0.dir/__/__/mesh/core/src/msg_cache.c.obj
                0x000381b0                msg_cache_entry_exists
 .text.msg_cache_entry_add
                0x000381f0       0x30 examples/dfu/CMakeFiles/dfu_nrf52832_xxAA_s132_6.0.0.dir/__/__/mesh/core/src/msg_cache.c.obj
                0x000381f0                msg_cache_entry_add
 .text.tx_complete
                0x00038220       0x30 examples/dfu/CMakeFiles/dfu_nrf52832_xxAA_s132_6.0.0.dir/__/__/mesh/core/src/transport.c.obj
 .text.upper_trs_packet_encrypt
                0x00038250       0xb4 examples/dfu/CMakeFiles/dfu_nrf52832_xxAA_s132_6.0.0.dir/__/__/mesh/core/src/transport.c.obj
 .text.trs_sar_packet_out
                0x00038304      0x1a4 examples/dfu/CMakeFiles/dfu_nrf52832_xxAA_s132_6.0.0.dir/__/__/mesh/core/src/transport.c.obj
 .text.upper_transport_tx.part.25
                0x000384a8      0x34c examples/dfu/CMakeFiles/dfu_nrf52832_xxAA_s132_6.0.0.dir/__/__/mesh/core/src/transport.c.obj
 .text.sar_ack_send.part.29
                0x000387f4       0xd4 examples/dfu/CMakeFiles/dfu_nrf52832_xxAA_s132_6.0.0.dir/__/__/mesh/core/src/transport.c.obj
 .text.ack_timeout
                0x000388c8       0x34 examples/dfu/CMakeFiles/dfu_nrf52832_xxAA_s132_6.0.0.dir/__/__/mesh/core/src/transport.c.obj
 .text.upper_transport_access_packet_in
                0x000388fc      0x334 examples/dfu/CMakeFiles/dfu_nrf52832_xxAA_s132_6.0.0.dir/__/__/mesh/core/src/transport.c.obj
 .text.sar_ctx_cancel
                0x00038c30      0x148 examples/dfu/CMakeFiles/dfu_nrf52832_xxAA_s132_6.0.0.dir/__/__/mesh/core/src/transport.c.obj
 .text.retry_timeout
                0x00038d78       0x98 examples/dfu/CMakeFiles/dfu_nrf52832_xxAA_s132_6.0.0.dir/__/__/mesh/core/src/transport.c.obj
 .text.transport_sar_process
                0x00038e10      0x288 examples/dfu/CMakeFiles/dfu_nrf52832_xxAA_s132_6.0.0.dir/__/__/mesh/core/src/transport.c.obj
 .text.upper_transport_packet_in
                0x00039098      0x2e4 examples/dfu/CMakeFiles/dfu_nrf52832_xxAA_s132_6.0.0.dir/__/__/mesh/core/src/transport.c.obj
 .text.abort_timeout
                0x0003937c      0x13c examples/dfu/CMakeFiles/dfu_nrf52832_xxAA_s132_6.0.0.dir/__/__/mesh/core/src/transport.c.obj
 .text.transport_init
                0x000394b8       0xac examples/dfu/CMakeFiles/dfu_nrf52832_xxAA_s132_6.0.0.dir/__/__/mesh/core/src/transport.c.obj
                0x000394b8                transport_init
 .text.transport_packet_in
                0x00039564      0x770 examples/dfu/CMakeFiles/dfu_nrf52832_xxAA_s132_6.0.0.dir/__/__/mesh/core/src/transport.c.obj
                0x00039564                transport_packet_in
 .text.transport_tx
                0x00039cd4      0x100 examples/dfu/CMakeFiles/dfu_nrf52832_xxAA_s132_6.0.0.dir/__/__/mesh/core/src/transport.c.obj
                0x00039cd4                transport_tx
 .text.transport_control_tx
                0x00039dd4       0xc0 examples/dfu/CMakeFiles/dfu_nrf52832_xxAA_s132_6.0.0.dir/__/__/mesh/core/src/transport.c.obj
                0x00039dd4                transport_control_tx
 .text.transport_opt_set
                0x00039e94       0xdc examples/dfu/CMakeFiles/dfu_nrf52832_xxAA_s132_6.0.0.dir/__/__/mesh/core/src/transport.c.obj
                0x00039e94                transport_opt_set
 .text.transport_opt_get
                0x00039f70       0x84 examples/dfu/CMakeFiles/dfu_nrf52832_xxAA_s132_6.0.0.dir/__/__/mesh/core/src/transport.c.obj
                0x00039f70                transport_opt_get
 .text.transport_control_packet_consumer_add
                0x00039ff4       0x60 examples/dfu/CMakeFiles/dfu_nrf52832_xxAA_s132_6.0.0.dir/__/__/mesh/core/src/transport.c.obj
                0x00039ff4                transport_control_packet_consumer_add
 .text.event_handle
                0x0003a054       0x28 examples/dfu/CMakeFiles/dfu_nrf52832_xxAA_s132_6.0.0.dir/__/__/mesh/core/src/event.c.obj
                0x0003a054                event_handle
 .text.event_handler_add
                0x0003a07c       0x28 examples/dfu/CMakeFiles/dfu_nrf52832_xxAA_s132_6.0.0.dir/__/__/mesh/core/src/event.c.obj
                0x0003a07c                event_handler_add
 .text.event_handler_remove
                0x0003a0a4       0x28 examples/dfu/CMakeFiles/dfu_nrf52832_xxAA_s132_6.0.0.dir/__/__/mesh/core/src/event.c.obj
                0x0003a0a4                event_handler_remove
 .text.packet_buffer_max_packet_len_get
                0x0003a0cc       0x24 examples/dfu/CMakeFiles/dfu_nrf52832_xxAA_s132_6.0.0.dir/__/__/mesh/core/src/packet_buffer.c.obj
                0x0003a0cc                packet_buffer_max_packet_len_get
 .text.packet_buffer_init
                0x0003a0f0       0xb4 examples/dfu/CMakeFiles/dfu_nrf52832_xxAA_s132_6.0.0.dir/__/__/mesh/core/src/packet_buffer.c.obj
                0x0003a0f0                packet_buffer_init
 .text.packet_buffer_flush
                0x0003a1a4       0x74 examples/dfu/CMakeFiles/dfu_nrf52832_xxAA_s132_6.0.0.dir/__/__/mesh/core/src/packet_buffer.c.obj
                0x0003a1a4                packet_buffer_flush
 .text.packet_buffer_reserve
                0x0003a218       0x9c examples/dfu/CMakeFiles/dfu_nrf52832_xxAA_s132_6.0.0.dir/__/__/mesh/core/src/packet_buffer.c.obj
                0x0003a218                packet_buffer_reserve
 .text.packet_buffer_commit
                0x0003a2b4       0x7c examples/dfu/CMakeFiles/dfu_nrf52832_xxAA_s132_6.0.0.dir/__/__/mesh/core/src/packet_buffer.c.obj
                0x0003a2b4                packet_buffer_commit
 .text.packet_buffer_pop
                0x0003a330       0x50 examples/dfu/CMakeFiles/dfu_nrf52832_xxAA_s132_6.0.0.dir/__/__/mesh/core/src/packet_buffer.c.obj
                0x0003a330                packet_buffer_pop
 .text.packet_buffer_can_pop
                0x0003a380       0x24 examples/dfu/CMakeFiles/dfu_nrf52832_xxAA_s132_6.0.0.dir/__/__/mesh/core/src/packet_buffer.c.obj
                0x0003a380                packet_buffer_can_pop
 .text.packet_buffer_packets_ready_to_pop
                0x0003a3a4       0x48 examples/dfu/CMakeFiles/dfu_nrf52832_xxAA_s132_6.0.0.dir/__/__/mesh/core/src/packet_buffer.c.obj
                0x0003a3a4                packet_buffer_packets_ready_to_pop
 .text.packet_buffer_free
                0x0003a3ec       0x8c examples/dfu/CMakeFiles/dfu_nrf52832_xxAA_s132_6.0.0.dir/__/__/mesh/core/src/packet_buffer.c.obj
                0x0003a3ec                packet_buffer_free
 .text.erase_source
                0x0003a478       0x34 examples/dfu/CMakeFiles/dfu_nrf52832_xxAA_s132_6.0.0.dir/__/__/mesh/core/src/flash_manager_defrag.c.obj
 .text.erase_recovery_area
                0x0003a4ac       0x34 examples/dfu/CMakeFiles/dfu_nrf52832_xxAA_s132_6.0.0.dir/__/__/mesh/core/src/flash_manager_defrag.c.obj
 .text.write_back
                0x0003a4e0       0x44 examples/dfu/CMakeFiles/dfu_nrf52832_xxAA_s132_6.0.0.dir/__/__/mesh/core/src/flash_manager_defrag.c.obj
 .text.write_defrag_start_pointer
                0x0003a524       0x38 examples/dfu/CMakeFiles/dfu_nrf52832_xxAA_s132_6.0.0.dir/__/__/mesh/core/src/flash_manager_defrag.c.obj
 .text.copy_metadata
                0x0003a55c       0x58 examples/dfu/CMakeFiles/dfu_nrf52832_xxAA_s132_6.0.0.dir/__/__/mesh/core/src/flash_manager_defrag.c.obj
 .text.seal_storage_page
                0x0003a5b4       0x70 examples/dfu/CMakeFiles/dfu_nrf52832_xxAA_s132_6.0.0.dir/__/__/mesh/core/src/flash_manager_defrag.c.obj
 .text.post_process
                0x0003a624       0x64 examples/dfu/CMakeFiles/dfu_nrf52832_xxAA_s132_6.0.0.dir/__/__/mesh/core/src/flash_manager_defrag.c.obj
 .text.check_for_invalid_entries
                0x0003a688       0x40 examples/dfu/CMakeFiles/dfu_nrf52832_xxAA_s132_6.0.0.dir/__/__/mesh/core/src/flash_manager_defrag.c.obj
 .text.execute_procedure_step
                0x0003a6c8       0xa0 examples/dfu/CMakeFiles/dfu_nrf52832_xxAA_s132_6.0.0.dir/__/__/mesh/core/src/flash_manager_defrag.c.obj
 .text.on_flash_op_end
                0x0003a768       0x4c examples/dfu/CMakeFiles/dfu_nrf52832_xxAA_s132_6.0.0.dir/__/__/mesh/core/src/flash_manager_defrag.c.obj
 .text.invalidate_duplicate_entries
                0x0003a7b4      0x158 examples/dfu/CMakeFiles/dfu_nrf52832_xxAA_s132_6.0.0.dir/__/__/mesh/core/src/flash_manager_defrag.c.obj
 .text.backup_entries
                0x0003a90c      0x1c4 examples/dfu/CMakeFiles/dfu_nrf52832_xxAA_s132_6.0.0.dir/__/__/mesh/core/src/flash_manager_defrag.c.obj
 .text.flash_manager_defrag_init
                0x0003aad0       0x6c examples/dfu/CMakeFiles/dfu_nrf52832_xxAA_s132_6.0.0.dir/__/__/mesh/core/src/flash_manager_defrag.c.obj
                0x0003aad0                flash_manager_defrag_init
 .text.flash_manager_defrag_is_running
                0x0003ab3c       0x10 examples/dfu/CMakeFiles/dfu_nrf52832_xxAA_s132_6.0.0.dir/__/__/mesh/core/src/flash_manager_defrag.c.obj
                0x0003ab3c                flash_manager_defrag_is_running
 .text.flash_manager_defrag
                0x0003ab4c       0x48 examples/dfu/CMakeFiles/dfu_nrf52832_xxAA_s132_6.0.0.dir/__/__/mesh/core/src/flash_manager_defrag.c.obj
                0x0003ab4c                flash_manager_defrag
 .text.flash_manager_defrag_recovery_page_get
                0x0003ab94        0xc examples/dfu/CMakeFiles/dfu_nrf52832_xxAA_s132_6.0.0.dir/__/__/mesh/core/src/flash_manager_defrag.c.obj
                0x0003ab94                flash_manager_defrag_recovery_page_get
 .text.fifo_init
                0x0003aba0       0x38 examples/dfu/CMakeFiles/dfu_nrf52832_xxAA_s132_6.0.0.dir/__/__/mesh/core/src/fifo.c.obj
                0x0003aba0                fifo_init
 .text.fifo_push
                0x0003abd8       0x54 examples/dfu/CMakeFiles/dfu_nrf52832_xxAA_s132_6.0.0.dir/__/__/mesh/core/src/fifo.c.obj
                0x0003abd8                fifo_push
 .text.fifo_pop
                0x0003ac2c       0x58 examples/dfu/CMakeFiles/dfu_nrf52832_xxAA_s132_6.0.0.dir/__/__/mesh/core/src/fifo.c.obj
                0x0003ac2c                fifo_pop
 .text.nrf_flash_erase
                0x0003ac84       0x5c examples/dfu/CMakeFiles/dfu_nrf52832_xxAA_s132_6.0.0.dir/__/__/mesh/core/src/nrf_flash.c.obj
                0x0003ac84                nrf_flash_erase
 .text.nrf_flash_write
                0x0003ace0       0x6c examples/dfu/CMakeFiles/dfu_nrf52832_xxAA_s132_6.0.0.dir/__/__/mesh/core/src/nrf_flash.c.obj
                0x0003ace0                nrf_flash_write
 .text.packet_mgr_init
                0x0003ad4c       0x4c examples/dfu/CMakeFiles/dfu_nrf52832_xxAA_s132_6.0.0.dir/__/__/mesh/core/src/packet_mgr.c.obj
                0x0003ad4c                packet_mgr_init
 .text.flash_store_iv_index
                0x0003ad98       0x38 examples/dfu/CMakeFiles/dfu_nrf52832_xxAA_s132_6.0.0.dir/__/__/mesh/core/src/net_state.c.obj
 .text.flash_mem_available
                0x0003add0       0x1c examples/dfu/CMakeFiles/dfu_nrf52832_xxAA_s132_6.0.0.dir/__/__/mesh/core/src/net_state.c.obj
 .text.init_flash_storage
                0x0003adec       0x44 examples/dfu/CMakeFiles/dfu_nrf52832_xxAA_s132_6.0.0.dir/__/__/mesh/core/src/net_state.c.obj
 .text.flash_write_complete
                0x0003ae30       0x68 examples/dfu/CMakeFiles/dfu_nrf52832_xxAA_s132_6.0.0.dir/__/__/mesh/core/src/net_state.c.obj
 .text.seqnum_block_allocate
                0x0003ae98       0x4c examples/dfu/CMakeFiles/dfu_nrf52832_xxAA_s132_6.0.0.dir/__/__/mesh/core/src/net_state.c.obj
 .text.net_state_reset
                0x0003aee4       0x78 examples/dfu/CMakeFiles/dfu_nrf52832_xxAA_s132_6.0.0.dir/__/__/mesh/core/src/net_state.c.obj
                0x0003aee4                net_state_reset
 .text.iv_update_trigger_if_pending
                0x0003af5c      0x170 examples/dfu/CMakeFiles/dfu_nrf52832_xxAA_s132_6.0.0.dir/__/__/mesh/core/src/net_state.c.obj
 .text.mesh_evt_handler
                0x0003b0cc      0x108 examples/dfu/CMakeFiles/dfu_nrf52832_xxAA_s132_6.0.0.dir/__/__/mesh/core/src/net_state.c.obj
 .text.iv_update_timer_handler
                0x0003b1d4       0x70 examples/dfu/CMakeFiles/dfu_nrf52832_xxAA_s132_6.0.0.dir/__/__/mesh/core/src/net_state.c.obj
 .text.net_state_recover_from_flash
                0x0003b244      0x118 examples/dfu/CMakeFiles/dfu_nrf52832_xxAA_s132_6.0.0.dir/__/__/mesh/core/src/net_state.c.obj
                0x0003b244                net_state_recover_from_flash
 .text.net_state_flash_area_get
                0x0003b35c        0xc examples/dfu/CMakeFiles/dfu_nrf52832_xxAA_s132_6.0.0.dir/__/__/mesh/core/src/net_state.c.obj
                0x0003b35c                net_state_flash_area_get
 .text.net_state_init
                0x0003b368       0x94 examples/dfu/CMakeFiles/dfu_nrf52832_xxAA_s132_6.0.0.dir/__/__/mesh/core/src/net_state.c.obj
                0x0003b368                net_state_init
 .text.net_state_seqnum_alloc
                0x0003b3fc       0xd4 examples/dfu/CMakeFiles/dfu_nrf52832_xxAA_s132_6.0.0.dir/__/__/mesh/core/src/net_state.c.obj
                0x0003b3fc                net_state_seqnum_alloc
 .text.net_state_iv_index_lock
                0x0003b4d0      0x190 examples/dfu/CMakeFiles/dfu_nrf52832_xxAA_s132_6.0.0.dir/__/__/mesh/core/src/net_state.c.obj
                0x0003b4d0                net_state_iv_index_lock
 .text.net_state_key_refresh_phase_changed
                0x0003b660       0x20 examples/dfu/CMakeFiles/dfu_nrf52832_xxAA_s132_6.0.0.dir/__/__/mesh/core/src/net_state.c.obj
                0x0003b660                net_state_key_refresh_phase_changed
 .text.net_state_beacon_iv_index_get
                0x0003b680        0xc examples/dfu/CMakeFiles/dfu_nrf52832_xxAA_s132_6.0.0.dir/__/__/mesh/core/src/net_state.c.obj
                0x0003b680                net_state_beacon_iv_index_get
 .text.net_state_tx_iv_index_get
                0x0003b68c       0x14 examples/dfu/CMakeFiles/dfu_nrf52832_xxAA_s132_6.0.0.dir/__/__/mesh/core/src/net_state.c.obj
                0x0003b68c                net_state_tx_iv_index_get
 .text.net_state_rx_iv_index_get
                0x0003b6a0       0x18 examples/dfu/CMakeFiles/dfu_nrf52832_xxAA_s132_6.0.0.dir/__/__/mesh/core/src/net_state.c.obj
                0x0003b6a0                net_state_rx_iv_index_get
 .text.net_state_iv_update_get
                0x0003b6b8        0xc examples/dfu/CMakeFiles/dfu_nrf52832_xxAA_s132_6.0.0.dir/__/__/mesh/core/src/net_state.c.obj
                0x0003b6b8                net_state_iv_update_get
 .text.net_state_iv_index_set
                0x0003b6c4       0x8c examples/dfu/CMakeFiles/dfu_nrf52832_xxAA_s132_6.0.0.dir/__/__/mesh/core/src/net_state.c.obj
                0x0003b6c4                net_state_iv_index_set
 .text.send_end_events
                0x0003b750       0x90 examples/dfu/CMakeFiles/dfu_nrf52832_xxAA_s132_6.0.0.dir/__/__/mesh/core/src/mesh_flash.c.obj
 .text.flash_op_start
                0x0003b7e0      0x224 examples/dfu/CMakeFiles/dfu_nrf52832_xxAA_s132_6.0.0.dir/__/__/mesh/core/src/mesh_flash.c.obj
 .text.mesh_flash_init
                0x0003ba04       0x88 examples/dfu/CMakeFiles/dfu_nrf52832_xxAA_s132_6.0.0.dir/__/__/mesh/core/src/mesh_flash.c.obj
                0x0003ba04                mesh_flash_init
 .text.mesh_flash_user_callback_set
                0x0003ba8c       0x20 examples/dfu/CMakeFiles/dfu_nrf52832_xxAA_s132_6.0.0.dir/__/__/mesh/core/src/mesh_flash.c.obj
                0x0003ba8c                mesh_flash_user_callback_set
 .text.mesh_flash_op_push
                0x0003baac      0x1a0 examples/dfu/CMakeFiles/dfu_nrf52832_xxAA_s132_6.0.0.dir/__/__/mesh/core/src/mesh_flash.c.obj
                0x0003baac                mesh_flash_op_push
 .text.mesh_flash_in_progress
                0x0003bc4c       0x34 examples/dfu/CMakeFiles/dfu_nrf52832_xxAA_s132_6.0.0.dir/__/__/mesh/core/src/mesh_flash.c.obj
                0x0003bc4c                mesh_flash_in_progress
 .text.mesh_flash_set_suspended
                0x0003bc80      0x228 examples/dfu/CMakeFiles/dfu_nrf52832_xxAA_s132_6.0.0.dir/__/__/mesh/core/src/mesh_flash.c.obj
                0x0003bc80                mesh_flash_set_suspended
 .text.nrf_mesh_address_type_get
                0x0003bea8       0x10 examples/dfu/CMakeFiles/dfu_nrf52832_xxAA_s132_6.0.0.dir/__/__/mesh/core/src/nrf_mesh_utils.c.obj
                0x0003bea8                nrf_mesh_address_type_get
 .text.sd_softdevice_is_enabled
                0x0003beb8        0x4 examples/dfu/CMakeFiles/dfu_nrf52832_xxAA_s132_6.0.0.dir/__/__/mesh/core/src/nrf_mesh.c.obj
 .text.nrf_mesh_listen
                0x0003bebc      0x1c8 examples/dfu/CMakeFiles/dfu_nrf52832_xxAA_s132_6.0.0.dir/__/__/mesh/core/src/nrf_mesh.c.obj
 .text.flash_stable_cb
                0x0003c084       0x20 examples/dfu/CMakeFiles/dfu_nrf52832_xxAA_s132_6.0.0.dir/__/__/mesh/core/src/nrf_mesh.c.obj
 .text.scanner_packet_process_cb
                0x0003c0a4       0x88 examples/dfu/CMakeFiles/dfu_nrf52832_xxAA_s132_6.0.0.dir/__/__/mesh/core/src/nrf_mesh.c.obj
 .text.nrf_mesh_init
                0x0003c12c       0xe0 examples/dfu/CMakeFiles/dfu_nrf52832_xxAA_s132_6.0.0.dir/__/__/mesh/core/src/nrf_mesh.c.obj
                0x0003c12c                nrf_mesh_init
 .text.nrf_mesh_enable
                0x0003c20c       0x48 examples/dfu/CMakeFiles/dfu_nrf52832_xxAA_s132_6.0.0.dir/__/__/mesh/core/src/nrf_mesh.c.obj
                0x0003c20c                nrf_mesh_enable
 .text.nrf_mesh_disable
                0x0003c254       0x2c examples/dfu/CMakeFiles/dfu_nrf52832_xxAA_s132_6.0.0.dir/__/__/mesh/core/src/nrf_mesh.c.obj
                0x0003c254                nrf_mesh_disable
 .text.nrf_mesh_packet_send
                0x0003c280       0x94 examples/dfu/CMakeFiles/dfu_nrf52832_xxAA_s132_6.0.0.dir/__/__/mesh/core/src/nrf_mesh.c.obj
                0x0003c280                nrf_mesh_packet_send
 .text.nrf_mesh_evt_handler_add
                0x0003c314        0x4 examples/dfu/CMakeFiles/dfu_nrf52832_xxAA_s132_6.0.0.dir/__/__/mesh/core/src/nrf_mesh.c.obj
                0x0003c314                nrf_mesh_evt_handler_add
 .text.nrf_mesh_on_sd_evt
                0x0003c318        0xc examples/dfu/CMakeFiles/dfu_nrf52832_xxAA_s132_6.0.0.dir/__/__/mesh/core/src/nrf_mesh.c.obj
                0x0003c318                nrf_mesh_on_sd_evt
 .text.nrf_mesh_subnet_added
                0x0003c324        0x4 examples/dfu/CMakeFiles/dfu_nrf52832_xxAA_s132_6.0.0.dir/__/__/mesh/core/src/nrf_mesh.c.obj
                0x0003c324                nrf_mesh_subnet_added
 .text.queue_init
                0x0003c328       0x1c examples/dfu/CMakeFiles/dfu_nrf52832_xxAA_s132_6.0.0.dir/__/__/mesh/core/src/queue.c.obj
                0x0003c328                queue_init
 .text.queue_push
                0x0003c344       0x44 examples/dfu/CMakeFiles/dfu_nrf52832_xxAA_s132_6.0.0.dir/__/__/mesh/core/src/queue.c.obj
                0x0003c344                queue_push
 .text.queue_pop
                0x0003c388       0x2c examples/dfu/CMakeFiles/dfu_nrf52832_xxAA_s132_6.0.0.dir/__/__/mesh/core/src/queue.c.obj
                0x0003c388                queue_pop
 .text.queue_peek
                0x0003c3b4       0x14 examples/dfu/CMakeFiles/dfu_nrf52832_xxAA_s132_6.0.0.dir/__/__/mesh/core/src/queue.c.obj
                0x0003c3b4                queue_peek
 .text.sd_power_reset_reason_clr
                0x0003c3c8        0x4 examples/dfu/CMakeFiles/dfu_nrf52832_xxAA_s132_6.0.0.dir/__/__/mesh/core/src/hal.c.obj
 .text.sd_power_gpregret_set
                0x0003c3cc        0x4 examples/dfu/CMakeFiles/dfu_nrf52832_xxAA_s132_6.0.0.dir/__/__/mesh/core/src/hal.c.obj
 .text.hal_device_reset
                0x0003c3d0       0x38 examples/dfu/CMakeFiles/dfu_nrf52832_xxAA_s132_6.0.0.dir/__/__/mesh/core/src/hal.c.obj
                0x0003c3d0                hal_device_reset
 .text.hal_lfclk_ppm_get
                0x0003c408       0x14 examples/dfu/CMakeFiles/dfu_nrf52832_xxAA_s132_6.0.0.dir/__/__/mesh/core/src/hal.c.obj
                0x0003c408                hal_lfclk_ppm_get
 .text.aes_cmac_subkey_generate
                0x0003c41c      0x2b0 examples/dfu/CMakeFiles/dfu_nrf52832_xxAA_s132_6.0.0.dir/__/__/mesh/core/src/aes_cmac.c.obj
                0x0003c41c                aes_cmac_subkey_generate
 .text.aes_cmac
                0x0003c6cc      0x49c examples/dfu/CMakeFiles/dfu_nrf52832_xxAA_s132_6.0.0.dir/__/__/mesh/core/src/aes_cmac.c.obj
                0x0003c6cc                aes_cmac
 .text.timer_cb
                0x0003cb68        0xc examples/dfu/CMakeFiles/dfu_nrf52832_xxAA_s132_6.0.0.dir/__/__/mesh/core/src/timer_scheduler.c.obj
 .text.add_evt.constprop.1
                0x0003cb74       0x60 examples/dfu/CMakeFiles/dfu_nrf52832_xxAA_s132_6.0.0.dir/__/__/mesh/core/src/timer_scheduler.c.obj
 .text.flag_event_cb
                0x0003cbd4      0x328 examples/dfu/CMakeFiles/dfu_nrf52832_xxAA_s132_6.0.0.dir/__/__/mesh/core/src/timer_scheduler.c.obj
 .text.timer_sch_init
                0x0003cefc       0x24 examples/dfu/CMakeFiles/dfu_nrf52832_xxAA_s132_6.0.0.dir/__/__/mesh/core/src/timer_scheduler.c.obj
                0x0003cefc                timer_sch_init
 .text.timer_sch_schedule
                0x0003cf20       0x64 examples/dfu/CMakeFiles/dfu_nrf52832_xxAA_s132_6.0.0.dir/__/__/mesh/core/src/timer_scheduler.c.obj
                0x0003cf20                timer_sch_schedule
 .text.timer_sch_abort
                0x0003cf84       0x5c examples/dfu/CMakeFiles/dfu_nrf52832_xxAA_s132_6.0.0.dir/__/__/mesh/core/src/timer_scheduler.c.obj
                0x0003cf84                timer_sch_abort
 .text.timer_sch_reschedule
                0x0003cfe0       0x88 examples/dfu/CMakeFiles/dfu_nrf52832_xxAA_s132_6.0.0.dir/__/__/mesh/core/src/timer_scheduler.c.obj
                0x0003cfe0                timer_sch_reschedule
 .text.timer_event_handler
                0x0003d068       0xd0 examples/dfu/CMakeFiles/dfu_nrf52832_xxAA_s132_6.0.0.dir/__/__/mesh/core/src/timer.c.obj
                0x0003d068                timer_event_handler
 .text.timer_order_cb
                0x0003d138       0x98 examples/dfu/CMakeFiles/dfu_nrf52832_xxAA_s132_6.0.0.dir/__/__/mesh/core/src/timer.c.obj
                0x0003d138                timer_order_cb
 .text.timer_now
                0x0003d1d0       0x58 examples/dfu/CMakeFiles/dfu_nrf52832_xxAA_s132_6.0.0.dir/__/__/mesh/core/src/timer.c.obj
                0x0003d1d0                timer_now
 .text.timer_on_ts_begin
                0x0003d228      0x104 examples/dfu/CMakeFiles/dfu_nrf52832_xxAA_s132_6.0.0.dir/__/__/mesh/core/src/timer.c.obj
                0x0003d228                timer_on_ts_begin
 .text.timer_on_ts_end
                0x0003d32c       0x78 examples/dfu/CMakeFiles/dfu_nrf52832_xxAA_s132_6.0.0.dir/__/__/mesh/core/src/timer.c.obj
                0x0003d32c                timer_on_ts_end
 .text.timer_cb
                0x0003d3a4       0x10 examples/dfu/CMakeFiles/dfu_nrf52832_xxAA_s132_6.0.0.dir/__/__/mesh/core/src/ticker.c.obj
 .text.ticker_init
                0x0003d3b4       0x3c examples/dfu/CMakeFiles/dfu_nrf52832_xxAA_s132_6.0.0.dir/__/__/mesh/core/src/ticker.c.obj
                0x0003d3b4                ticker_init
 .text.sd_rand_application_bytes_available_get
                0x0003d3f0        0x4 examples/dfu/CMakeFiles/dfu_nrf52832_xxAA_s132_6.0.0.dir/__/__/mesh/core/src/rand.c.obj
 .text.sd_rand_application_vector_get
                0x0003d3f4        0x4 examples/dfu/CMakeFiles/dfu_nrf52832_xxAA_s132_6.0.0.dir/__/__/mesh/core/src/rand.c.obj
 .text.rand_prng_seed
                0x0003d3f8       0x6c examples/dfu/CMakeFiles/dfu_nrf52832_xxAA_s132_6.0.0.dir/__/__/mesh/core/src/rand.c.obj
                0x0003d3f8                rand_prng_seed
 .text.rand_prng_get
                0x0003d464       0x28 examples/dfu/CMakeFiles/dfu_nrf52832_xxAA_s132_6.0.0.dir/__/__/mesh/core/src/rand.c.obj
                0x0003d464                rand_prng_get
 .text.rand_hw_rng_get
                0x0003d48c       0x4c examples/dfu/CMakeFiles/dfu_nrf52832_xxAA_s132_6.0.0.dir/__/__/mesh/core/src/rand.c.obj
                0x0003d48c                rand_hw_rng_get
 .text.nrf_mesh_opt_set
                0x0003d4d8       0x28 examples/dfu/CMakeFiles/dfu_nrf52832_xxAA_s132_6.0.0.dir/__/__/mesh/core/src/nrf_mesh_opt.c.obj
                0x0003d4d8                nrf_mesh_opt_set
 .text.nrf_mesh_opt_get
                0x0003d500       0x28 examples/dfu/CMakeFiles/dfu_nrf52832_xxAA_s132_6.0.0.dir/__/__/mesh/core/src/nrf_mesh_opt.c.obj
                0x0003d500                nrf_mesh_opt_get
 .text.sd_radio_session_open
                0x0003d528        0x4 examples/dfu/CMakeFiles/dfu_nrf52832_xxAA_s132_6.0.0.dir/__/__/mesh/core/src/timeslot.c.obj
 .text.sd_radio_session_close
                0x0003d52c        0x4 examples/dfu/CMakeFiles/dfu_nrf52832_xxAA_s132_6.0.0.dir/__/__/mesh/core/src/timeslot.c.obj
 .text.sd_radio_request
                0x0003d530        0x4 examples/dfu/CMakeFiles/dfu_nrf52832_xxAA_s132_6.0.0.dir/__/__/mesh/core/src/timeslot.c.obj
 .text.end_timer_handler
                0x0003d534       0x2c examples/dfu/CMakeFiles/dfu_nrf52832_xxAA_s132_6.0.0.dir/__/__/mesh/core/src/timeslot.c.obj
 .text.radio_signal_callback
                0x0003d560      0x2e4 examples/dfu/CMakeFiles/dfu_nrf52832_xxAA_s132_6.0.0.dir/__/__/mesh/core/src/timeslot.c.obj
 .text.timeslot_sd_event_handler
                0x0003d844       0x44 examples/dfu/CMakeFiles/dfu_nrf52832_xxAA_s132_6.0.0.dir/__/__/mesh/core/src/timeslot.c.obj
                0x0003d844                timeslot_sd_event_handler
 .text.timeslot_init
                0x0003d888       0x4c examples/dfu/CMakeFiles/dfu_nrf52832_xxAA_s132_6.0.0.dir/__/__/mesh/core/src/timeslot.c.obj
                0x0003d888                timeslot_init
 .text.timeslot_start
                0x0003d8d4       0x20 examples/dfu/CMakeFiles/dfu_nrf52832_xxAA_s132_6.0.0.dir/__/__/mesh/core/src/timeslot.c.obj
                0x0003d8d4                timeslot_start
 .text.timeslot_stop
                0x0003d8f4       0x30 examples/dfu/CMakeFiles/dfu_nrf52832_xxAA_s132_6.0.0.dir/__/__/mesh/core/src/timeslot.c.obj
                0x0003d8f4                timeslot_stop
 .text.timeslot_state_lock
                0x0003d924       0x44 examples/dfu/CMakeFiles/dfu_nrf52832_xxAA_s132_6.0.0.dir/__/__/mesh/core/src/timeslot.c.obj
                0x0003d924                timeslot_state_lock
 .text.timeslot_end_is_pending
                0x0003d968       0x24 examples/dfu/CMakeFiles/dfu_nrf52832_xxAA_s132_6.0.0.dir/__/__/mesh/core/src/timeslot.c.obj
                0x0003d968                timeslot_end_is_pending
 .text.timeslot_start_time_get
                0x0003d98c        0xc examples/dfu/CMakeFiles/dfu_nrf52832_xxAA_s132_6.0.0.dir/__/__/mesh/core/src/timeslot.c.obj
                0x0003d98c                timeslot_start_time_get
 .text.timeslot_remaining_time_get
                0x0003d998       0x40 examples/dfu/CMakeFiles/dfu_nrf52832_xxAA_s132_6.0.0.dir/__/__/mesh/core/src/timeslot.c.obj
                0x0003d998                timeslot_remaining_time_get
 .text.timeslot_is_in_cb
                0x0003d9d8        0xc examples/dfu/CMakeFiles/dfu_nrf52832_xxAA_s132_6.0.0.dir/__/__/mesh/core/src/timeslot.c.obj
                0x0003d9d8                timeslot_is_in_cb
 .text.timeslot_trigger
                0x0003d9e4       0x24 examples/dfu/CMakeFiles/dfu_nrf52832_xxAA_s132_6.0.0.dir/__/__/mesh/core/src/timeslot.c.obj
                0x0003d9e4                timeslot_trigger
 .text.bearer_event_init
                0x0003da08       0x4c examples/dfu/CMakeFiles/dfu_nrf52832_xxAA_s132_6.0.0.dir/__/__/mesh/core/src/bearer_event.c.obj
                0x0003da08                bearer_event_init
 .text.bearer_event_generic_post
                0x0003da54       0x50 examples/dfu/CMakeFiles/dfu_nrf52832_xxAA_s132_6.0.0.dir/__/__/mesh/core/src/bearer_event.c.obj
                0x0003da54                bearer_event_generic_post
 .text.bearer_event_timer_post
                0x0003daa4       0x50 examples/dfu/CMakeFiles/dfu_nrf52832_xxAA_s132_6.0.0.dir/__/__/mesh/core/src/bearer_event.c.obj
                0x0003daa4                bearer_event_timer_post
 .text.bearer_event_critical_section_begin
                0x0003daf4       0x44 examples/dfu/CMakeFiles/dfu_nrf52832_xxAA_s132_6.0.0.dir/__/__/mesh/core/src/bearer_event.c.obj
                0x0003daf4                bearer_event_critical_section_begin
 .text.bearer_event_critical_section_end
                0x0003db38       0x40 examples/dfu/CMakeFiles/dfu_nrf52832_xxAA_s132_6.0.0.dir/__/__/mesh/core/src/bearer_event.c.obj
                0x0003db38                bearer_event_critical_section_end
 .text.bearer_event_flag_add
                0x0003db78       0x40 examples/dfu/CMakeFiles/dfu_nrf52832_xxAA_s132_6.0.0.dir/__/__/mesh/core/src/bearer_event.c.obj
                0x0003db78                bearer_event_flag_add
 .text.bearer_event_flag_set
                0x0003dbb8       0x5c examples/dfu/CMakeFiles/dfu_nrf52832_xxAA_s132_6.0.0.dir/__/__/mesh/core/src/bearer_event.c.obj
                0x0003dbb8                bearer_event_flag_set
 .text.bearer_event_sequential_add
                0x0003dc14       0x44 examples/dfu/CMakeFiles/dfu_nrf52832_xxAA_s132_6.0.0.dir/__/__/mesh/core/src/bearer_event.c.obj
                0x0003dc14                bearer_event_sequential_add
 .text.bearer_event_sequential_post
                0x0003dc58       0x64 examples/dfu/CMakeFiles/dfu_nrf52832_xxAA_s132_6.0.0.dir/__/__/mesh/core/src/bearer_event.c.obj
                0x0003dc58                bearer_event_sequential_post
 .text.bearer_event_sequential_pending
                0x0003dcbc       0x14 examples/dfu/CMakeFiles/dfu_nrf52832_xxAA_s132_6.0.0.dir/__/__/mesh/core/src/bearer_event.c.obj
                0x0003dcbc                bearer_event_sequential_pending
 .text.bearer_event_handler
                0x0003dcd0      0x154 examples/dfu/CMakeFiles/dfu_nrf52832_xxAA_s132_6.0.0.dir/__/__/mesh/core/src/bearer_event.c.obj
                0x0003dcd0                bearer_event_handler
 .text.QDEC_IRQHandler
                0x0003de24        0x4 examples/dfu/CMakeFiles/dfu_nrf52832_xxAA_s132_6.0.0.dir/__/__/mesh/core/src/bearer_event.c.obj
                0x0003de24                QDEC_IRQHandler
 .text.enc_aes_encrypt
                0x0003de28        0x4 examples/dfu/CMakeFiles/dfu_nrf52832_xxAA_s132_6.0.0.dir/__/__/mesh/core/src/enc.c.obj
                0x0003de28                enc_aes_encrypt
 .text.enc_aes_cmac
                0x0003de2c        0x4 examples/dfu/CMakeFiles/dfu_nrf52832_xxAA_s132_6.0.0.dir/__/__/mesh/core/src/enc.c.obj
                0x0003de2c                enc_aes_cmac
 .text.enc_aes_ccm_encrypt
                0x0003de30        0x4 examples/dfu/CMakeFiles/dfu_nrf52832_xxAA_s132_6.0.0.dir/__/__/mesh/core/src/enc.c.obj
                0x0003de30                enc_aes_ccm_encrypt
 .text.enc_aes_ccm_decrypt
                0x0003de34        0x4 examples/dfu/CMakeFiles/dfu_nrf52832_xxAA_s132_6.0.0.dir/__/__/mesh/core/src/enc.c.obj
                0x0003de34                enc_aes_ccm_decrypt
 .text.enc_nonce_generate
                0x0003de38       0xc8 examples/dfu/CMakeFiles/dfu_nrf52832_xxAA_s132_6.0.0.dir/__/__/mesh/core/src/enc.c.obj
                0x0003de38                enc_nonce_generate
 .text.enc_s1   0x0003df00       0x30 examples/dfu/CMakeFiles/dfu_nrf52832_xxAA_s132_6.0.0.dir/__/__/mesh/core/src/enc.c.obj
                0x0003df00                enc_s1
 .text.enc_k1   0x0003df30       0x44 examples/dfu/CMakeFiles/dfu_nrf52832_xxAA_s132_6.0.0.dir/__/__/mesh/core/src/enc.c.obj
                0x0003df30                enc_k1
 .text.enc_k2   0x0003df74       0xe0 examples/dfu/CMakeFiles/dfu_nrf52832_xxAA_s132_6.0.0.dir/__/__/mesh/core/src/enc.c.obj
                0x0003df74                enc_k2
 .text.enc_k3   0x0003e054       0x68 examples/dfu/CMakeFiles/dfu_nrf52832_xxAA_s132_6.0.0.dir/__/__/mesh/core/src/enc.c.obj
                0x0003e054                enc_k3
 .text.enc_k4   0x0003e0bc       0x60 examples/dfu/CMakeFiles/dfu_nrf52832_xxAA_s132_6.0.0.dir/__/__/mesh/core/src/enc.c.obj
                0x0003e0bc                enc_k4
 .text.network_init
                0x0003e11c       0x28 examples/dfu/CMakeFiles/dfu_nrf52832_xxAA_s132_6.0.0.dir/__/__/mesh/core/src/network.c.obj
                0x0003e11c                network_init
 .text.network_opt_set
                0x0003e144       0x84 examples/dfu/CMakeFiles/dfu_nrf52832_xxAA_s132_6.0.0.dir/__/__/mesh/core/src/network.c.obj
                0x0003e144                network_opt_set
 .text.network_opt_get
                0x0003e1c8       0x5c examples/dfu/CMakeFiles/dfu_nrf52832_xxAA_s132_6.0.0.dir/__/__/mesh/core/src/network.c.obj
                0x0003e1c8                network_opt_get
 .text.network_packet_alloc
                0x0003e224       0x98 examples/dfu/CMakeFiles/dfu_nrf52832_xxAA_s132_6.0.0.dir/__/__/mesh/core/src/network.c.obj
                0x0003e224                network_packet_alloc
 .text.network_packet_send
                0x0003e2bc       0x50 examples/dfu/CMakeFiles/dfu_nrf52832_xxAA_s132_6.0.0.dir/__/__/mesh/core/src/network.c.obj
                0x0003e2bc                network_packet_send
 .text.network_packet_in
                0x0003e30c      0x1c4 examples/dfu/CMakeFiles/dfu_nrf52832_xxAA_s132_6.0.0.dir/__/__/mesh/core/src/network.c.obj
                0x0003e30c                network_packet_in
 .text.net_packet_decrypt
                0x0003e4d0      0x2dc examples/dfu/CMakeFiles/dfu_nrf52832_xxAA_s132_6.0.0.dir/__/__/mesh/core/src/net_packet.c.obj
                0x0003e4d0                net_packet_decrypt
 .text.net_packet_encrypt
                0x0003e7ac      0x100 examples/dfu/CMakeFiles/dfu_nrf52832_xxAA_s132_6.0.0.dir/__/__/mesh/core/src/net_packet.c.obj
                0x0003e7ac                net_packet_encrypt
 .text.net_packet_header_set
                0x0003e8ac       0xc0 examples/dfu/CMakeFiles/dfu_nrf52832_xxAA_s132_6.0.0.dir/__/__/mesh/core/src/net_packet.c.obj
                0x0003e8ac                net_packet_header_set
 .text.net_packet_payload_len_get
                0x0003e96c       0x14 examples/dfu/CMakeFiles/dfu_nrf52832_xxAA_s132_6.0.0.dir/__/__/mesh/core/src/net_packet.c.obj
                0x0003e96c                net_packet_payload_len_get
 .text.net_packet_from_payload
                0x0003e980        0x4 examples/dfu/CMakeFiles/dfu_nrf52832_xxAA_s132_6.0.0.dir/__/__/mesh/core/src/net_packet.c.obj
                0x0003e980                net_packet_from_payload
 .text.net_packet_obfuscation_start_get
                0x0003e984        0x4 examples/dfu/CMakeFiles/dfu_nrf52832_xxAA_s132_6.0.0.dir/__/__/mesh/core/src/net_packet.c.obj
                0x0003e984                net_packet_obfuscation_start_get
 .text.msq_init
                0x0003e988       0x64 examples/dfu/CMakeFiles/dfu_nrf52832_xxAA_s132_6.0.0.dir/__/__/mesh/core/src/msqueue.c.obj
                0x0003e988                msq_init
 .text.msq_get  0x0003e9ec       0x54 examples/dfu/CMakeFiles/dfu_nrf52832_xxAA_s132_6.0.0.dir/__/__/mesh/core/src/msqueue.c.obj
                0x0003e9ec                msq_get
 .text.msq_move
                0x0003ea40       0x4c examples/dfu/CMakeFiles/dfu_nrf52832_xxAA_s132_6.0.0.dir/__/__/mesh/core/src/msqueue.c.obj
                0x0003ea40                msq_move
 .text.msq_available
                0x0003ea8c       0x44 examples/dfu/CMakeFiles/dfu_nrf52832_xxAA_s132_6.0.0.dir/__/__/mesh/core/src/msqueue.c.obj
                0x0003ea8c                msq_available
 .text.nrf_mesh_keygen_aid
                0x0003ead0       0x18 examples/dfu/CMakeFiles/dfu_nrf52832_xxAA_s132_6.0.0.dir/__/__/mesh/core/src/nrf_mesh_keygen.c.obj
                0x0003ead0                nrf_mesh_keygen_aid
 .text.nrf_mesh_keygen_network_secmat
                0x0003eae8       0x24 examples/dfu/CMakeFiles/dfu_nrf52832_xxAA_s132_6.0.0.dir/__/__/mesh/core/src/nrf_mesh_keygen.c.obj
                0x0003eae8                nrf_mesh_keygen_network_secmat
 .text.nrf_mesh_keygen_beacon_secmat
                0x0003eb0c       0x50 examples/dfu/CMakeFiles/dfu_nrf52832_xxAA_s132_6.0.0.dir/__/__/mesh/core/src/nrf_mesh_keygen.c.obj
                0x0003eb0c                nrf_mesh_keygen_beacon_secmat
 .text.nrf_mesh_keygen_virtual_address
                0x0003eb5c       0x50 examples/dfu/CMakeFiles/dfu_nrf52832_xxAA_s132_6.0.0.dir/__/__/mesh/core/src/nrf_mesh_keygen.c.obj
                0x0003eb5c                nrf_mesh_keygen_virtual_address
 .text.list_add
                0x0003ebac       0x5c examples/dfu/CMakeFiles/dfu_nrf52832_xxAA_s132_6.0.0.dir/__/__/mesh/core/src/list.c.obj
                0x0003ebac                list_add
 .text.list_remove
                0x0003ec08       0x44 examples/dfu/CMakeFiles/dfu_nrf52832_xxAA_s132_6.0.0.dir/__/__/mesh/core/src/list.c.obj
                0x0003ec08                list_remove
 .text.list_compare_add
                0x0003ec4c       0x78 examples/dfu/CMakeFiles/dfu_nrf52832_xxAA_s132_6.0.0.dir/__/__/mesh/core/src/list.c.obj
                0x0003ec4c                list_compare_add
 .text.log_callback_rtt
                0x0003ecc4       0x2c examples/dfu/CMakeFiles/dfu_nrf52832_xxAA_s132_6.0.0.dir/__/__/mesh/core/src/log.c.obj
                0x0003ecc4                log_callback_rtt
 .text.log_init
                0x0003ecf0       0x20 examples/dfu/CMakeFiles/dfu_nrf52832_xxAA_s132_6.0.0.dir/__/__/mesh/core/src/log.c.obj
                0x0003ecf0                log_init
 .text.log_printf
                0x0003ed10       0x20 examples/dfu/CMakeFiles/dfu_nrf52832_xxAA_s132_6.0.0.dir/__/__/mesh/core/src/log.c.obj
                0x0003ed10                log_printf
 .text.process_action_queue
                0x0003ed30      0x644 examples/dfu/CMakeFiles/dfu_nrf52832_xxAA_s132_6.0.0.dir/__/__/mesh/core/src/flash_manager.c.obj
 .text.flash_op_ended_callback
                0x0003f374       0x24 examples/dfu/CMakeFiles/dfu_nrf52832_xxAA_s132_6.0.0.dir/__/__/mesh/core/src/flash_manager.c.obj
 .text.flash_manager_init
                0x0003f398       0x68 examples/dfu/CMakeFiles/dfu_nrf52832_xxAA_s132_6.0.0.dir/__/__/mesh/core/src/flash_manager.c.obj
                0x0003f398                flash_manager_init
 .text.flash_manager_remove
                0x0003f400       0x6c examples/dfu/CMakeFiles/dfu_nrf52832_xxAA_s132_6.0.0.dir/__/__/mesh/core/src/flash_manager.c.obj
                0x0003f400                flash_manager_remove
 .text.flash_manager_entry_get
                0x0003f46c       0x48 examples/dfu/CMakeFiles/dfu_nrf52832_xxAA_s132_6.0.0.dir/__/__/mesh/core/src/flash_manager.c.obj
                0x0003f46c                flash_manager_entry_get
 .text.flash_manager_entry_next_get
                0x0003f4b4      0x148 examples/dfu/CMakeFiles/dfu_nrf52832_xxAA_s132_6.0.0.dir/__/__/mesh/core/src/flash_manager.c.obj
                0x0003f4b4                flash_manager_entry_next_get
 .text.flash_manager_entry_alloc
                0x0003f5fc       0x88 examples/dfu/CMakeFiles/dfu_nrf52832_xxAA_s132_6.0.0.dir/__/__/mesh/core/src/flash_manager.c.obj
                0x0003f5fc                flash_manager_entry_alloc
 .text.flash_manager_entry_commit
                0x0003f684       0x58 examples/dfu/CMakeFiles/dfu_nrf52832_xxAA_s132_6.0.0.dir/__/__/mesh/core/src/flash_manager.c.obj
                0x0003f684                flash_manager_entry_commit
 .text.flash_manager_entry_invalidate
                0x0003f6dc       0x98 examples/dfu/CMakeFiles/dfu_nrf52832_xxAA_s132_6.0.0.dir/__/__/mesh/core/src/flash_manager.c.obj
                0x0003f6dc                flash_manager_entry_invalidate
 .text.flash_manager_add
                0x0003f774      0x410 examples/dfu/CMakeFiles/dfu_nrf52832_xxAA_s132_6.0.0.dir/__/__/mesh/core/src/flash_manager.c.obj
                0x0003f774                flash_manager_add
 .text.flash_manager_mem_listener_register
                0x0003fb84       0x34 examples/dfu/CMakeFiles/dfu_nrf52832_xxAA_s132_6.0.0.dir/__/__/mesh/core/src/flash_manager.c.obj
                0x0003fb84                flash_manager_mem_listener_register
 .text.flash_manager_is_stable
                0x0003fbb8       0x20 examples/dfu/CMakeFiles/dfu_nrf52832_xxAA_s132_6.0.0.dir/__/__/mesh/core/src/flash_manager.c.obj
                0x0003fbb8                flash_manager_is_stable
 .text.flash_manager_on_defrag_end
                0x0003fbd8       0x58 examples/dfu/CMakeFiles/dfu_nrf52832_xxAA_s132_6.0.0.dir/__/__/mesh/core/src/flash_manager.c.obj
                0x0003fbd8                flash_manager_on_defrag_end
 .text.flash_manager_recovery_page_get
                0x0003fc30        0x4 examples/dfu/CMakeFiles/dfu_nrf52832_xxAA_s132_6.0.0.dir/__/__/mesh/core/src/flash_manager.c.obj
                0x0003fc30                flash_manager_recovery_page_get
 .text.flash_manager_action_queue_empty_cb_set
                0x0003fc34       0x20 examples/dfu/CMakeFiles/dfu_nrf52832_xxAA_s132_6.0.0.dir/__/__/mesh/core/src/flash_manager.c.obj
                0x0003fc34                flash_manager_action_queue_empty_cb_set
 .text.ccm_soft_crypt.constprop.0
                0x0003fc54      0x298 examples/dfu/CMakeFiles/dfu_nrf52832_xxAA_s132_6.0.0.dir/__/__/mesh/core/src/ccm_soft.c.obj
 .text.ccm_soft_authenticate
                0x0003feec      0x324 examples/dfu/CMakeFiles/dfu_nrf52832_xxAA_s132_6.0.0.dir/__/__/mesh/core/src/ccm_soft.c.obj
 .text.ccm_soft_encrypt
                0x00040210       0x78 examples/dfu/CMakeFiles/dfu_nrf52832_xxAA_s132_6.0.0.dir/__/__/mesh/core/src/ccm_soft.c.obj
                0x00040210                ccm_soft_encrypt
 .text.ccm_soft_decrypt
                0x00040288      0x10c examples/dfu/CMakeFiles/dfu_nrf52832_xxAA_s132_6.0.0.dir/__/__/mesh/core/src/ccm_soft.c.obj
                0x00040288                ccm_soft_decrypt
 .text.replay_cache_init
                0x00040394       0x20 examples/dfu/CMakeFiles/dfu_nrf52832_xxAA_s132_6.0.0.dir/__/__/mesh/core/src/replay_cache.c.obj
                0x00040394                replay_cache_init
 .text.replay_cache_add
                0x000403b4       0x5c examples/dfu/CMakeFiles/dfu_nrf52832_xxAA_s132_6.0.0.dir/__/__/mesh/core/src/replay_cache.c.obj
                0x000403b4                replay_cache_add
 .text.replay_cache_has_elem
                0x00040410       0x40 examples/dfu/CMakeFiles/dfu_nrf52832_xxAA_s132_6.0.0.dir/__/__/mesh/core/src/replay_cache.c.obj
                0x00040410                replay_cache_has_elem
 .text.beacon_create
                0x00040450       0x50 examples/dfu/CMakeFiles/dfu_nrf52832_xxAA_s132_6.0.0.dir/__/__/mesh/core/src/beacon.c.obj
                0x00040450                beacon_create
 .text.beacon_packet_in
                0x000404a0      0x174 examples/dfu/CMakeFiles/dfu_nrf52832_xxAA_s132_6.0.0.dir/__/__/mesh/core/src/beacon.c.obj
                0x000404a0                beacon_packet_in
 .text.entry_get
                0x00040614       0x80 examples/dfu/CMakeFiles/dfu_nrf52832_xxAA_s132_6.0.0.dir/__/__/mesh/core/src/flash_manager_internal.c.obj
                0x00040614                entry_get
 .text.core_tx_complete_cb_set
                0x00040694        0xc examples/dfu/CMakeFiles/dfu_nrf52832_xxAA_s132_6.0.0.dir/__/__/mesh/core/src/core_tx.c.obj
                0x00040694                core_tx_complete_cb_set
 .text.core_tx_packet_alloc
                0x000406a0       0xb4 examples/dfu/CMakeFiles/dfu_nrf52832_xxAA_s132_6.0.0.dir/__/__/mesh/core/src/core_tx.c.obj
                0x000406a0                core_tx_packet_alloc
 .text.core_tx_packet_send
                0x00040754       0x58 examples/dfu/CMakeFiles/dfu_nrf52832_xxAA_s132_6.0.0.dir/__/__/mesh/core/src/core_tx.c.obj
                0x00040754                core_tx_packet_send
 .text.core_tx_packet_discard
                0x000407ac       0x4c examples/dfu/CMakeFiles/dfu_nrf52832_xxAA_s132_6.0.0.dir/__/__/mesh/core/src/core_tx.c.obj
                0x000407ac                core_tx_packet_discard
 .text.core_tx_complete
                0x000407f8       0x38 examples/dfu/CMakeFiles/dfu_nrf52832_xxAA_s132_6.0.0.dir/__/__/mesh/core/src/core_tx.c.obj
                0x000407f8                core_tx_complete
 .text.core_tx_bearer_add
                0x00040830       0x84 examples/dfu/CMakeFiles/dfu_nrf52832_xxAA_s132_6.0.0.dir/__/__/mesh/core/src/core_tx.c.obj
                0x00040830                core_tx_bearer_add
 .text.heartbeat_subscription_timer_cb
                0x000408b4       0x1c examples/dfu/CMakeFiles/dfu_nrf52832_xxAA_s132_6.0.0.dir/__/__/mesh/core/src/heartbeat.c.obj
 .text.heartbeat_opcode_handle
                0x000408d0       0x8c examples/dfu/CMakeFiles/dfu_nrf52832_xxAA_s132_6.0.0.dir/__/__/mesh/core/src/heartbeat.c.obj
 .text.heartbeat_send
                0x0004095c       0xbc examples/dfu/CMakeFiles/dfu_nrf52832_xxAA_s132_6.0.0.dir/__/__/mesh/core/src/heartbeat.c.obj
 .text.heartbeat_core_evt_cb
                0x00040a18       0x94 examples/dfu/CMakeFiles/dfu_nrf52832_xxAA_s132_6.0.0.dir/__/__/mesh/core/src/heartbeat.c.obj
 .text.heartbeat_publication_timer_cb
                0x00040aac       0xb0 examples/dfu/CMakeFiles/dfu_nrf52832_xxAA_s132_6.0.0.dir/__/__/mesh/core/src/heartbeat.c.obj
 .text.heartbeat_on_feature_change_trigger
                0x00040b5c       0x48 examples/dfu/CMakeFiles/dfu_nrf52832_xxAA_s132_6.0.0.dir/__/__/mesh/core/src/heartbeat.c.obj
                0x00040b5c                heartbeat_on_feature_change_trigger
 .text.heartbeat_init
                0x00040ba4       0x7c examples/dfu/CMakeFiles/dfu_nrf52832_xxAA_s132_6.0.0.dir/__/__/mesh/core/src/heartbeat.c.obj
                0x00040ba4                heartbeat_init
 .text.heartbeat_subscription_set
                0x00040c20       0xa4 examples/dfu/CMakeFiles/dfu_nrf52832_xxAA_s132_6.0.0.dir/__/__/mesh/core/src/heartbeat.c.obj
                0x00040c20                heartbeat_subscription_set
 .text.heartbeat_subscription_get
                0x00040cc4        0x8 examples/dfu/CMakeFiles/dfu_nrf52832_xxAA_s132_6.0.0.dir/__/__/mesh/core/src/heartbeat.c.obj
                0x00040cc4                heartbeat_subscription_get
 .text.heartbeat_config_server_cb_set
                0x00040ccc       0x38 examples/dfu/CMakeFiles/dfu_nrf52832_xxAA_s132_6.0.0.dir/__/__/mesh/core/src/heartbeat.c.obj
                0x00040ccc                heartbeat_config_server_cb_set
 .text.heartbeat_publication_state_updated
                0x00040d04       0x78 examples/dfu/CMakeFiles/dfu_nrf52832_xxAA_s132_6.0.0.dir/__/__/mesh/core/src/heartbeat.c.obj
                0x00040d04                heartbeat_publication_state_updated
 .text.beacon_tx
                0x00040d7c      0x194 examples/dfu/CMakeFiles/dfu_nrf52832_xxAA_s132_6.0.0.dir/__/__/mesh/core/src/net_beacon.c.obj
 .text.tx_complete_cb
                0x00040f10       0x10 examples/dfu/CMakeFiles/dfu_nrf52832_xxAA_s132_6.0.0.dir/__/__/mesh/core/src/net_beacon.c.obj
 .text.beacon_tx_timeout
                0x00040f20        0x4 examples/dfu/CMakeFiles/dfu_nrf52832_xxAA_s132_6.0.0.dir/__/__/mesh/core/src/net_beacon.c.obj
 .text.net_beacon_init
                0x00040f24       0x94 examples/dfu/CMakeFiles/dfu_nrf52832_xxAA_s132_6.0.0.dir/__/__/mesh/core/src/net_beacon.c.obj
                0x00040f24                net_beacon_init
 .text.net_beacon_state_set
                0x00040fb8       0x3c examples/dfu/CMakeFiles/dfu_nrf52832_xxAA_s132_6.0.0.dir/__/__/mesh/core/src/net_beacon.c.obj
                0x00040fb8                net_beacon_state_set
 .text.net_beacon_state_get
                0x00040ff4        0xc examples/dfu/CMakeFiles/dfu_nrf52832_xxAA_s132_6.0.0.dir/__/__/mesh/core/src/net_beacon.c.obj
                0x00040ff4                net_beacon_state_get
 .text.net_beacon_packet_in
                0x00041000      0x14c examples/dfu/CMakeFiles/dfu_nrf52832_xxAA_s132_6.0.0.dir/__/__/mesh/core/src/net_beacon.c.obj
                0x00041000                net_beacon_packet_in
 .text.packet_discard
                0x0004114c       0x40 examples/dfu/CMakeFiles/dfu_nrf52832_xxAA_s132_6.0.0.dir/__/__/mesh/core/src/core_tx_adv.c.obj
 .text.packet_send
                0x0004118c       0x58 examples/dfu/CMakeFiles/dfu_nrf52832_xxAA_s132_6.0.0.dir/__/__/mesh/core/src/core_tx_adv.c.obj
 .text.packet_alloc
                0x000411e4       0x5c examples/dfu/CMakeFiles/dfu_nrf52832_xxAA_s132_6.0.0.dir/__/__/mesh/core/src/core_tx_adv.c.obj
 .text.adv_tx_complete_callback
                0x00041240       0x28 examples/dfu/CMakeFiles/dfu_nrf52832_xxAA_s132_6.0.0.dir/__/__/mesh/core/src/core_tx_adv.c.obj
 .text.core_tx_adv_init
                0x00041268       0x60 examples/dfu/CMakeFiles/dfu_nrf52832_xxAA_s132_6.0.0.dir/__/__/mesh/core/src/core_tx_adv.c.obj
                0x00041268                core_tx_adv_init
 .text.core_tx_adv_count_set
                0x000412c8       0x28 examples/dfu/CMakeFiles/dfu_nrf52832_xxAA_s132_6.0.0.dir/__/__/mesh/core/src/core_tx_adv.c.obj
                0x000412c8                core_tx_adv_count_set
 .text.core_tx_adv_count_get
                0x000412f0       0x20 examples/dfu/CMakeFiles/dfu_nrf52832_xxAA_s132_6.0.0.dir/__/__/mesh/core/src/core_tx_adv.c.obj
                0x000412f0                core_tx_adv_count_get
 .text.core_tx_adv_interval_set
                0x00041310       0x28 examples/dfu/CMakeFiles/dfu_nrf52832_xxAA_s132_6.0.0.dir/__/__/mesh/core/src/core_tx_adv.c.obj
                0x00041310                core_tx_adv_interval_set
 .text.core_tx_adv_interval_get
                0x00041338       0x2c examples/dfu/CMakeFiles/dfu_nrf52832_xxAA_s132_6.0.0.dir/__/__/mesh/core/src/core_tx_adv.c.obj
                0x00041338                core_tx_adv_interval_get
 .text.ad_listener_subscribe
                0x00041364       0x60 examples/dfu/CMakeFiles/dfu_nrf52832_xxAA_s132_6.0.0.dir/__/__/mesh/bearer/src/ad_listener.c.obj
                0x00041364                ad_listener_subscribe
 .text.ad_listener_process
                0x000413c4       0x7c examples/dfu/CMakeFiles/dfu_nrf52832_xxAA_s132_6.0.0.dir/__/__/mesh/bearer/src/ad_listener.c.obj
                0x000413c4                ad_listener_process
 .text.adtype_filter_handle
                0x00041440       0x98 examples/dfu/CMakeFiles/dfu_nrf52832_xxAA_s132_6.0.0.dir/__/__/mesh/bearer/src/ad_type_filter.c.obj
 .text.bearer_adtype_filtering_set
                0x000414d8       0x1c examples/dfu/CMakeFiles/dfu_nrf52832_xxAA_s132_6.0.0.dir/__/__/mesh/bearer/src/ad_type_filter.c.obj
                0x000414d8                bearer_adtype_filtering_set
 .text.bearer_adtype_add
                0x000414f4       0x24 examples/dfu/CMakeFiles/dfu_nrf52832_xxAA_s132_6.0.0.dir/__/__/mesh/bearer/src/ad_type_filter.c.obj
                0x000414f4                bearer_adtype_add
 .text.bearer_adtype_mode_set
                0x00041518       0x18 examples/dfu/CMakeFiles/dfu_nrf52832_xxAA_s132_6.0.0.dir/__/__/mesh/bearer/src/ad_type_filter.c.obj
                0x00041518                bearer_adtype_mode_set
 .text.tx_complete_event_callback
                0x00041530       0x2c examples/dfu/CMakeFiles/dfu_nrf52832_xxAA_s132_6.0.0.dir/__/__/mesh/bearer/src/advertiser.c.obj
 .text.broadcast_complete_cb
                0x0004155c       0x48 examples/dfu/CMakeFiles/dfu_nrf52832_xxAA_s132_6.0.0.dir/__/__/mesh/bearer/src/advertiser.c.obj
 .text.timeout_event
                0x000415a4      0x120 examples/dfu/CMakeFiles/dfu_nrf52832_xxAA_s132_6.0.0.dir/__/__/mesh/bearer/src/advertiser.c.obj
 .text.advertiser_init
                0x000416c4        0xc examples/dfu/CMakeFiles/dfu_nrf52832_xxAA_s132_6.0.0.dir/__/__/mesh/bearer/src/advertiser.c.obj
                0x000416c4                advertiser_init
 .text.advertiser_instance_init
                0x000416d0       0xfc examples/dfu/CMakeFiles/dfu_nrf52832_xxAA_s132_6.0.0.dir/__/__/mesh/bearer/src/advertiser.c.obj
                0x000416d0                advertiser_instance_init
 .text.advertiser_enable
                0x000417cc       0x44 examples/dfu/CMakeFiles/dfu_nrf52832_xxAA_s132_6.0.0.dir/__/__/mesh/bearer/src/advertiser.c.obj
                0x000417cc                advertiser_enable
 .text.advertiser_packet_alloc
                0x00041810       0x80 examples/dfu/CMakeFiles/dfu_nrf52832_xxAA_s132_6.0.0.dir/__/__/mesh/bearer/src/advertiser.c.obj
                0x00041810                advertiser_packet_alloc
 .text.advertiser_packet_send
                0x00041890       0x80 examples/dfu/CMakeFiles/dfu_nrf52832_xxAA_s132_6.0.0.dir/__/__/mesh/bearer/src/advertiser.c.obj
                0x00041890                advertiser_packet_send
 .text.advertiser_packet_discard
                0x00041910       0x2c examples/dfu/CMakeFiles/dfu_nrf52832_xxAA_s132_6.0.0.dir/__/__/mesh/bearer/src/advertiser.c.obj
                0x00041910                advertiser_packet_discard
 .text.advertiser_channels_set
                0x0004193c       0x94 examples/dfu/CMakeFiles/dfu_nrf52832_xxAA_s132_6.0.0.dir/__/__/mesh/bearer/src/advertiser.c.obj
                0x0004193c                advertiser_channels_set
 .text.advertiser_interval_set
                0x000419d0       0x70 examples/dfu/CMakeFiles/dfu_nrf52832_xxAA_s132_6.0.0.dir/__/__/mesh/bearer/src/advertiser.c.obj
                0x000419d0                advertiser_interval_set
 .text.advertiser_flush
                0x00041a40       0x20 examples/dfu/CMakeFiles/dfu_nrf52832_xxAA_s132_6.0.0.dir/__/__/mesh/bearer/src/advertiser.c.obj
                0x00041a40                advertiser_flush
 .text.advertiser_address_default_get
                0x00041a60       0x5c examples/dfu/CMakeFiles/dfu_nrf52832_xxAA_s132_6.0.0.dir/__/__/mesh/bearer/src/advertiser.c.obj
                0x00041a60                advertiser_address_default_get
 .text.action_switch.part.2
                0x00041abc       0xb4 examples/dfu/CMakeFiles/dfu_nrf52832_xxAA_s132_6.0.0.dir/__/__/mesh/bearer/src/bearer_handler.c.obj
 .text.bearer_handler_init
                0x00041b70       0x2c examples/dfu/CMakeFiles/dfu_nrf52832_xxAA_s132_6.0.0.dir/__/__/mesh/bearer/src/bearer_handler.c.obj
                0x00041b70                bearer_handler_init
 .text.bearer_handler_start
                0x00041b9c       0x1c examples/dfu/CMakeFiles/dfu_nrf52832_xxAA_s132_6.0.0.dir/__/__/mesh/bearer/src/bearer_handler.c.obj
                0x00041b9c                bearer_handler_start
 .text.bearer_handler_stop
                0x00041bb8       0x20 examples/dfu/CMakeFiles/dfu_nrf52832_xxAA_s132_6.0.0.dir/__/__/mesh/bearer/src/bearer_handler.c.obj
                0x00041bb8                bearer_handler_stop
 .text.bearer_handler_action_enqueue
                0x00041bd8       0x7c examples/dfu/CMakeFiles/dfu_nrf52832_xxAA_s132_6.0.0.dir/__/__/mesh/bearer/src/bearer_handler.c.obj
                0x00041bd8                bearer_handler_action_enqueue
 .text.bearer_handler_action_end
                0x00041c54       0x68 examples/dfu/CMakeFiles/dfu_nrf52832_xxAA_s132_6.0.0.dir/__/__/mesh/bearer/src/bearer_handler.c.obj
                0x00041c54                bearer_handler_action_end
 .text.bearer_handler_radio_irq_handler
                0x00041cbc       0x54 examples/dfu/CMakeFiles/dfu_nrf52832_xxAA_s132_6.0.0.dir/__/__/mesh/bearer/src/bearer_handler.c.obj
                0x00041cbc                bearer_handler_radio_irq_handler
 .text.bearer_handler_timer_irq_handler
                0x00041d10       0x34 examples/dfu/CMakeFiles/dfu_nrf52832_xxAA_s132_6.0.0.dir/__/__/mesh/bearer/src/bearer_handler.c.obj
                0x00041d10                bearer_handler_timer_irq_handler
 .text.bearer_handler_on_ts_begin
                0x00041d44       0x3c examples/dfu/CMakeFiles/dfu_nrf52832_xxAA_s132_6.0.0.dir/__/__/mesh/bearer/src/bearer_handler.c.obj
                0x00041d44                bearer_handler_on_ts_begin
 .text.bearer_handler_on_ts_end
                0x00041d80       0x34 examples/dfu/CMakeFiles/dfu_nrf52832_xxAA_s132_6.0.0.dir/__/__/mesh/bearer/src/bearer_handler.c.obj
                0x00041d80                bearer_handler_on_ts_end
 .text.radio_irq_handler
                0x00041db4       0x98 examples/dfu/CMakeFiles/dfu_nrf52832_xxAA_s132_6.0.0.dir/__/__/mesh/bearer/src/broadcast.c.obj
 .text.broadcast_start
                0x00041e4c       0x8c examples/dfu/CMakeFiles/dfu_nrf52832_xxAA_s132_6.0.0.dir/__/__/mesh/bearer/src/broadcast.c.obj
 .text.broadcast_send
                0x00041ed8       0x74 examples/dfu/CMakeFiles/dfu_nrf52832_xxAA_s132_6.0.0.dir/__/__/mesh/bearer/src/broadcast.c.obj
                0x00041ed8                broadcast_send
 .text.fen_filter_start
                0x00041f4c       0x38 examples/dfu/CMakeFiles/dfu_nrf52832_xxAA_s132_6.0.0.dir/__/__/mesh/bearer/src/filter_engine.c.obj
                0x00041f4c                fen_filter_start
 .text.fen_filter_stop
                0x00041f84       0x2c examples/dfu/CMakeFiles/dfu_nrf52832_xxAA_s132_6.0.0.dir/__/__/mesh/bearer/src/filter_engine.c.obj
                0x00041f84                fen_filter_stop
 .text.fen_filters_apply
                0x00041fb0       0x38 examples/dfu/CMakeFiles/dfu_nrf52832_xxAA_s132_6.0.0.dir/__/__/mesh/bearer/src/filter_engine.c.obj
                0x00041fb0                fen_filters_apply
 .text.radio_config_reset
                0x00041fe8       0x38 examples/dfu/CMakeFiles/dfu_nrf52832_xxAA_s132_6.0.0.dir/__/__/mesh/bearer/src/radio_config.c.obj
                0x00041fe8                radio_config_reset
 .text.radio_config_channel_set
                0x00042020       0x28 examples/dfu/CMakeFiles/dfu_nrf52832_xxAA_s132_6.0.0.dir/__/__/mesh/bearer/src/radio_config.c.obj
                0x00042020                radio_config_channel_set
 .text.radio_config_config
                0x00042048       0x90 examples/dfu/CMakeFiles/dfu_nrf52832_xxAA_s132_6.0.0.dir/__/__/mesh/bearer/src/radio_config.c.obj
                0x00042048                radio_config_config
 .text.radio_config_access_addr_set
                0x000420d8       0x54 examples/dfu/CMakeFiles/dfu_nrf52832_xxAA_s132_6.0.0.dir/__/__/mesh/bearer/src/radio_config.c.obj
                0x000420d8                radio_config_access_addr_set
 .text.scan_window_end
                0x0004212c       0x28 examples/dfu/CMakeFiles/dfu_nrf52832_xxAA_s132_6.0.0.dir/__/__/mesh/bearer/src/scanner.c.obj
 .text.scan_window_start
                0x00042154       0x38 examples/dfu/CMakeFiles/dfu_nrf52832_xxAA_s132_6.0.0.dir/__/__/mesh/bearer/src/scanner.c.obj
 .text.radio_start
                0x0004218c      0x188 examples/dfu/CMakeFiles/dfu_nrf52832_xxAA_s132_6.0.0.dir/__/__/mesh/bearer/src/scanner.c.obj
 .text.scanner_radio_start
                0x00042314      0x14c examples/dfu/CMakeFiles/dfu_nrf52832_xxAA_s132_6.0.0.dir/__/__/mesh/bearer/src/scanner.c.obj
                0x00042314                scanner_radio_start
 .text.scanner_radio_stop
                0x00042460       0x34 examples/dfu/CMakeFiles/dfu_nrf52832_xxAA_s132_6.0.0.dir/__/__/mesh/bearer/src/scanner.c.obj
                0x00042460                scanner_radio_stop
 .text.scanner_radio_irq_handler
                0x00042494      0x204 examples/dfu/CMakeFiles/dfu_nrf52832_xxAA_s132_6.0.0.dir/__/__/mesh/bearer/src/scanner.c.obj
                0x00042494                scanner_radio_irq_handler
 .text.scanner_enable
                0x00042698       0x54 examples/dfu/CMakeFiles/dfu_nrf52832_xxAA_s132_6.0.0.dir/__/__/mesh/bearer/src/scanner.c.obj
                0x00042698                scanner_enable
 .text.scanner_disable
                0x000426ec       0x54 examples/dfu/CMakeFiles/dfu_nrf52832_xxAA_s132_6.0.0.dir/__/__/mesh/bearer/src/scanner.c.obj
                0x000426ec                scanner_disable
 .text.scanner_rx
                0x00042740       0x78 examples/dfu/CMakeFiles/dfu_nrf52832_xxAA_s132_6.0.0.dir/__/__/mesh/bearer/src/scanner.c.obj
                0x00042740                scanner_rx
 .text.scanner_packet_release
                0x000427b8       0x40 examples/dfu/CMakeFiles/dfu_nrf52832_xxAA_s132_6.0.0.dir/__/__/mesh/bearer/src/scanner.c.obj
                0x000427b8                scanner_packet_release
 .text.scanner_rx_pending
                0x000427f8        0xc examples/dfu/CMakeFiles/dfu_nrf52832_xxAA_s132_6.0.0.dir/__/__/mesh/bearer/src/scanner.c.obj
                0x000427f8                scanner_rx_pending
 .text.scanner_config_reset
                0x00042804       0xa8 examples/dfu/CMakeFiles/dfu_nrf52832_xxAA_s132_6.0.0.dir/__/__/mesh/bearer/src/scanner.c.obj
                0x00042804                scanner_config_reset
 .text.scanner_init
                0x000428ac       0x54 examples/dfu/CMakeFiles/dfu_nrf52832_xxAA_s132_6.0.0.dir/__/__/mesh/bearer/src/scanner.c.obj
                0x000428ac                scanner_init
 .text.SystemInit
                0x00042900      0x3cc examples/dfu/CMakeFiles/dfu_nrf52832_xxAA_s132_6.0.0.dir/C_/ver/mod/nRF5_SDK_15.0.0_a53641a/modules/nrfx/mdk/system_nrf52.c.obj
                0x00042900                SystemInit
 .text          0x00042ccc       0x3c examples/dfu/CMakeFiles/dfu_nrf52832_xxAA_s132_6.0.0.dir/C_/ver/mod/nRF5_SDK_15.0.0_a53641a/modules/nrfx/mdk/gcc_startup_nrf52.S.obj
                0x00042ccc                Reset_Handler
                0x00042cf4                NMI_Handler
                0x00042cf6                HardFault_Handler
                0x00042cf8                MemoryManagement_Handler
                0x00042cfa                BusFault_Handler
                0x00042cfc                UsageFault_Handler
                0x00042cfe                SVC_Handler
                0x00042d00                DebugMon_Handler
                0x00042d02                PendSV_Handler
                0x00042d04                SysTick_Handler
                0x00042d06                RADIO_IRQHandler
                0x00042d06                PDM_IRQHandler
                0x00042d06                TEMP_IRQHandler
                0x00042d06                TIMER3_IRQHandler
                0x00042d06                RTC0_IRQHandler
                0x00042d06                SPIM0_SPIS0_TWIM0_TWIS0_SPI0_TWI0_IRQHandler
                0x00042d06                PWM1_IRQHandler
                0x00042d06                POWER_CLOCK_IRQHandler
                0x00042d06                I2S_IRQHandler
                0x00042d06                SWI4_EGU4_IRQHandler
                0x00042d06                TIMER0_IRQHandler
                0x00042d06                FPU_IRQHandler
                0x00042d06                TIMER1_IRQHandler
                0x00042d06                PWM2_IRQHandler
                0x00042d06                ECB_IRQHandler
                0x00042d06                SPIM1_SPIS1_TWIM1_TWIS1_SPI1_TWI1_IRQHandler
                0x00042d06                Default_Handler
                0x00042d06                SAADC_IRQHandler
                0x00042d06                CCM_AAR_IRQHandler
                0x00042d06                WDT_IRQHandler
                0x00042d06                TIMER4_IRQHandler
                0x00042d06                SWI5_EGU5_IRQHandler
                0x00042d06                RNG_IRQHandler
                0x00042d06                RTC2_IRQHandler
                0x00042d06                PWM0_IRQHandler
                0x00042d06                SWI3_EGU3_IRQHandler
                0x00042d06                RTC1_IRQHandler
                0x00042d06                SWI1_EGU1_IRQHandler
                0x00042d06                SPIM2_SPIS2_SPI2_IRQHandler
                0x00042d06                NFCT_IRQHandler
                0x00042d06                SWI0_EGU0_IRQHandler
                0x00042d06                MWU_IRQHandler
                0x00042d06                TIMER2_IRQHandler
                0x00042d06                COMP_LPCOMP_IRQHandler
 .text.app_error_handler_bare
                0x00042d08       0x20 examples/dfu/CMakeFiles/dfu_nrf52832_xxAA_s132_6.0.0.dir/C_/ver/mod/nRF5_SDK_15.0.0_a53641a/components/libraries/util/app_error.c.obj
                0x00042d08                app_error_handler_bare
 .text.app_error_handler
                0x00042d28       0x1c examples/dfu/CMakeFiles/dfu_nrf52832_xxAA_s132_6.0.0.dir/C_/ver/mod/nRF5_SDK_15.0.0_a53641a/components/libraries/util/app_error_handler_gcc.c.obj
                0x00042d28                app_error_handler
 .text.SEGGER_RTT_Write
                0x00042d44      0x1e4 external/rtt/librtt_nrf52832_xxAA.a(SEGGER_RTT.c.obj)
                0x00042d44                SEGGER_RTT_Write
 .text._PrintUnsigned
                0x00042f28      0x194 external/rtt/librtt_nrf52832_xxAA.a(SEGGER_RTT_printf.c.obj)
 .text.SEGGER_RTT_vprintf
                0x000430bc      0x464 external/rtt/librtt_nrf52832_xxAA.a(SEGGER_RTT_printf.c.obj)
                0x000430bc                SEGGER_RTT_vprintf
 .text.SEGGER_RTT_printf
                0x00043520       0x20 external/rtt/librtt_nrf52832_xxAA.a(SEGGER_RTT_printf.c.obj)
                0x00043520                SEGGER_RTT_printf
 .text.default_RNG
                0x00043540        0xc external/micro-ecc/libuECC_nrf52832_xxAA.a(uECC.c.obj)
 .text.uECC_generate_random_int
                0x0004354c      0x170 external/micro-ecc/libuECC_nrf52832_xxAA.a(uECC.c.obj)
 .text.apply_z  0x000436bc      0x1a8 external/micro-ecc/libuECC_nrf52832_xxAA.a(uECC.c.obj)
 .text.uECC_vli_modAdd
                0x00043864       0xc8 external/micro-ecc/libuECC_nrf52832_xxAA.a(uECC.c.obj)
 .text.x_side_default
                0x0004392c      0x254 external/micro-ecc/libuECC_nrf52832_xxAA.a(uECC.c.obj)
 .text.vli_mmod_fast_secp256r1
                0x00043b80      0x520 external/micro-ecc/libuECC_nrf52832_xxAA.a(uECC.c.obj)
 .text.XYcZ_add
                0x000440a0      0x6dc external/micro-ecc/libuECC_nrf52832_xxAA.a(uECC.c.obj)
 .text.XYcZ_addC
                0x0004477c      0xa94 external/micro-ecc/libuECC_nrf52832_xxAA.a(uECC.c.obj)
 .text.uECC_vli_modInv.part.4
                0x00045210      0x6e8 external/micro-ecc/libuECC_nrf52832_xxAA.a(uECC.c.obj)
 .text.EccPoint_mult.constprop.5
                0x000458f8      0x470 external/micro-ecc/libuECC_nrf52832_xxAA.a(uECC.c.obj)
 .text.double_jacobian_default
                0x00045d68      0x7ec external/micro-ecc/libuECC_nrf52832_xxAA.a(uECC.c.obj)
 .text.uECC_secp256r1
                0x00046554        0x8 external/micro-ecc/libuECC_nrf52832_xxAA.a(uECC.c.obj)
                0x00046554                uECC_secp256r1
 .text.uECC_make_key
                0x0004655c      0x23c external/micro-ecc/libuECC_nrf52832_xxAA.a(uECC.c.obj)
                0x0004655c                uECC_make_key
 .text.uECC_shared_secret
                0x00046798      0x788 external/micro-ecc/libuECC_nrf52832_xxAA.a(uECC.c.obj)
                0x00046798                uECC_shared_secret
 .text.uECC_valid_point
                0x00046f20      0x134 external/micro-ecc/libuECC_nrf52832_xxAA.a(uECC.c.obj)
                0x00046f20                uECC_valid_point
 .text.uECC_valid_public_key
                0x00047054       0xe8 external/micro-ecc/libuECC_nrf52832_xxAA.a(uECC.c.obj)
                0x00047054                uECC_valid_public_key
 .text.exit     0x0004713c       0x28 c:/mesh/arm_gcc/bin/../lib/gcc/arm-none-eabi/6.3.1/../../../../arm-none-eabi/lib/thumb/v7e-m/fpv4-sp/hard\libc_nano.a(lib_a-exit.o)
                0x0004713c                exit
 .text.__libc_init_array
                0x00047164       0x48 c:/mesh/arm_gcc/bin/../lib/gcc/arm-none-eabi/6.3.1/../../../../arm-none-eabi/lib/thumb/v7e-m/fpv4-sp/hard\libc_nano.a(lib_a-init.o)
                0x00047164                __libc_init_array
 .text.malloc   0x000471ac       0x10 c:/mesh/arm_gcc/bin/../lib/gcc/arm-none-eabi/6.3.1/../../../../arm-none-eabi/lib/thumb/v7e-m/fpv4-sp/hard\libc_nano.a(lib_a-malloc.o)
                0x000471ac                malloc
 .text.free     0x000471bc       0x10 c:/mesh/arm_gcc/bin/../lib/gcc/arm-none-eabi/6.3.1/../../../../arm-none-eabi/lib/thumb/v7e-m/fpv4-sp/hard\libc_nano.a(lib_a-malloc.o)
                0x000471bc                free
 .text.memcmp   0x000471cc       0x1e c:/mesh/arm_gcc/bin/../lib/gcc/arm-none-eabi/6.3.1/../../../../arm-none-eabi/lib/thumb/v7e-m/fpv4-sp/hard\libc_nano.a(lib_a-memcmp.o)
                0x000471cc                memcmp
 .text.memcpy   0x000471ea       0x16 c:/mesh/arm_gcc/bin/../lib/gcc/arm-none-eabi/6.3.1/../../../../arm-none-eabi/lib/thumb/v7e-m/fpv4-sp/hard\libc_nano.a(lib_a-memcpy-stub.o)
                0x000471ea                memcpy
 .text.memset   0x00047200       0x10 c:/mesh/arm_gcc/bin/../lib/gcc/arm-none-eabi/6.3.1/../../../../arm-none-eabi/lib/thumb/v7e-m/fpv4-sp/hard\libc_nano.a(lib_a-memset.o)
                0x00047200                memset
 .text._free_r  0x00047210       0x9c c:/mesh/arm_gcc/bin/../lib/gcc/arm-none-eabi/6.3.1/../../../../arm-none-eabi/lib/thumb/v7e-m/fpv4-sp/hard\libc_nano.a(lib_a-nano-freer.o)
                0x00047210                _free_r
 .text._malloc_r
                0x000472ac       0xbc c:/mesh/arm_gcc/bin/../lib/gcc/arm-none-eabi/6.3.1/../../../../arm-none-eabi/lib/thumb/v7e-m/fpv4-sp/hard\libc_nano.a(lib_a-nano-mallocr.o)
                0x000472ac                _malloc_r
 .text._sbrk_r  0x00047368       0x20 c:/mesh/arm_gcc/bin/../lib/gcc/arm-none-eabi/6.3.1/../../../../arm-none-eabi/lib/thumb/v7e-m/fpv4-sp/hard\libc_nano.a(lib_a-sbrkr.o)
                0x00047368                _sbrk_r
 .text.strcpy   0x00047388       0x10 c:/mesh/arm_gcc/bin/../lib/gcc/arm-none-eabi/6.3.1/../../../../arm-none-eabi/lib/thumb/v7e-m/fpv4-sp/hard\libc_nano.a(lib_a-strcpy.o)
                0x00047388                strcpy
 .text          0x00047398       0x10 c:/mesh/arm_gcc/bin/../lib/gcc/arm-none-eabi/6.3.1/../../../../arm-none-eabi/lib/thumb/v7e-m/fpv4-sp/hard\libc_nano.a(lib_a-strlen.o)
                0x00047398                strlen
 .text.strrchr  0x000473a8       0x26 c:/mesh/arm_gcc/bin/../lib/gcc/arm-none-eabi/6.3.1/../../../../arm-none-eabi/lib/thumb/v7e-m/fpv4-sp/hard\libc_nano.a(lib_a-strrchr.o)
                0x000473a8                strrchr
 .text.__malloc_lock
                0x000473ce        0x2 c:/mesh/arm_gcc/bin/../lib/gcc/arm-none-eabi/6.3.1/../../../../arm-none-eabi/lib/thumb/v7e-m/fpv4-sp/hard\libc_nano.a(lib_a-mlock.o)
                0x000473ce                __malloc_lock
 .text.__malloc_unlock
                0x000473d0        0x2 c:/mesh/arm_gcc/bin/../lib/gcc/arm-none-eabi/6.3.1/../../../../arm-none-eabi/lib/thumb/v7e-m/fpv4-sp/hard\libc_nano.a(lib_a-mlock.o)
                0x000473d0                __malloc_unlock
 .text.strchr   0x000473d2       0x1c c:/mesh/arm_gcc/bin/../lib/gcc/arm-none-eabi/6.3.1/../../../../arm-none-eabi/lib/thumb/v7e-m/fpv4-sp/hard\libc_nano.a(lib_a-strchr.o)
                0x000473d2                strchr
 *fill*         0x000473ee        0x2 
 .text._sbrk    0x000473f0       0x1c c:/mesh/arm_gcc/bin/../lib/gcc/arm-none-eabi/6.3.1/../../../../arm-none-eabi/lib/thumb/v7e-m/fpv4-sp/hard\libnosys.a(sbrk.o)
                0x000473f0                _sbrk
 .text._exit    0x0004740c        0x4 c:/mesh/arm_gcc/bin/../lib/gcc/arm-none-eabi/6.3.1/../../../../arm-none-eabi/lib/thumb/v7e-m/fpv4-sp/hard\libnosys.a(_exit.o)
                0x0004740c                _exit
 *(.init)
 .init          0x00047410        0x4 c:/mesh/arm_gcc/bin/../lib/gcc/arm-none-eabi/6.3.1/thumb/v7e-m/fpv4-sp/hard/crti.o
                0x00047410                _init
 .init          0x00047414        0x8 c:/mesh/arm_gcc/bin/../lib/gcc/arm-none-eabi/6.3.1/thumb/v7e-m/fpv4-sp/hard/crtn.o
 *(.fini)
 .fini          0x0004741c        0x4 c:/mesh/arm_gcc/bin/../lib/gcc/arm-none-eabi/6.3.1/thumb/v7e-m/fpv4-sp/hard/crti.o
                0x0004741c                _fini
 .fini          0x00047420        0x8 c:/mesh/arm_gcc/bin/../lib/gcc/arm-none-eabi/6.3.1/thumb/v7e-m/fpv4-sp/hard/crtn.o
 *crtbegin.o(.ctors)
 *crtbegin?.o(.ctors)
 *(EXCLUDE_FILE(*crtend.o *crtend?.o) .ctors)
 *(SORT(.ctors.*))
 *(.ctors)
 *crtbegin.o(.dtors)
 *crtbegin?.o(.dtors)
 *(EXCLUDE_FILE(*crtend.o *crtend?.o) .dtors)
 *(SORT(.dtors.*))
 *(.dtors)
 *(.rodata*)
 .rodata.config_server_evt_cb.str1.4
                0x00047428       0x35 examples/dfu/CMakeFiles/dfu_nrf52832_xxAA_s132_6.0.0.dir/src/main.c.obj
 *fill*         0x0004745d        0x3 
 .rodata.main.str1.4
                0x00047460       0xba examples/dfu/CMakeFiles/dfu_nrf52832_xxAA_s132_6.0.0.dir/src/main.c.obj
 *fill*         0x0004751a        0x2 
 .rodata.static_auth_data.12572
                0x0004751c       0x10 examples/dfu/CMakeFiles/dfu_nrf52832_xxAA_s132_6.0.0.dir/src/main.c.obj
 .rodata.mesh_softdevice_init.str1.4
                0x0004752c       0xa9 examples/dfu/CMakeFiles/dfu_nrf52832_xxAA_s132_6.0.0.dir/__/common/src/mesh_softdevice_init.c.obj
 *fill*         0x000475d5        0x3 
 .rodata        0x000475d8        0xb examples/dfu/CMakeFiles/dfu_nrf52832_xxAA_s132_6.0.0.dir/__/common/src/mesh_provisionee.c.obj
 *fill*         0x000475e3        0xd 
 .rodata.delay_bytecode.8414
                0x000475f0        0x6 examples/dfu/CMakeFiles/dfu_nrf52832_xxAA_s132_6.0.0.dir/__/common/src/simple_hal.c.obj
 *fill*         0x000475f6        0x2 
 .rodata.access_model_publish.str1.4
                0x000475f8       0x24 examples/dfu/CMakeFiles/dfu_nrf52832_xxAA_s132_6.0.0.dir/__/__/mesh/access/src/access.c.obj
 .rodata.mesh_evt_cb.str1.4
                0x0004761c       0x2f examples/dfu/CMakeFiles/dfu_nrf52832_xxAA_s132_6.0.0.dir/__/__/mesh/access/src/access.c.obj
 *fill*         0x0004764b        0x1 
 .rodata.multiply_de_bruijn_bit_position.9260
                0x0004764c       0x20 examples/dfu/CMakeFiles/dfu_nrf52832_xxAA_s132_6.0.0.dir/__/__/mesh/access/src/access.c.obj
 .rodata.m_flash_groups
                0x0004766c       0xa8 examples/dfu/CMakeFiles/dfu_nrf52832_xxAA_s132_6.0.0.dir/__/__/mesh/access/src/device_state_manager.c.obj
 .rodata.multiply_de_bruijn_bit_position.9366
                0x00047714       0x20 examples/dfu/CMakeFiles/dfu_nrf52832_xxAA_s132_6.0.0.dir/__/__/mesh/access/src/device_state_manager.c.obj
 .rodata.m_cmd_handlers
                0x00047734       0xb0 examples/dfu/CMakeFiles/dfu_nrf52832_xxAA_s132_6.0.0.dir/__/__/mesh/serial/src/serial_handler_access.c.obj
 .rodata.serial_process_cmd.str1.4
                0x000477e4       0x6a examples/dfu/CMakeFiles/dfu_nrf52832_xxAA_s132_6.0.0.dir/__/__/mesh/serial/src/serial.c.obj
 *fill*         0x0004784e        0x2 
 .rodata.serial_start.str1.4
                0x00047850       0x11 examples/dfu/CMakeFiles/dfu_nrf52832_xxAA_s132_6.0.0.dir/__/__/mesh/serial/src/serial.c.obj
 *fill*         0x00047861        0x3 
 .rodata.serial_handler_prov_init.str1.4
                0x00047864       0x4e examples/dfu/CMakeFiles/dfu_nrf52832_xxAA_s132_6.0.0.dir/__/__/mesh/serial/src/serial_handler_prov.c.obj
 *fill*         0x000478b2        0x2 
 .rodata.lengths.11314
                0x000478b4        0x7 examples/dfu/CMakeFiles/dfu_nrf52832_xxAA_s132_6.0.0.dir/__/__/mesh/serial/src/serial_handler_dfu.c.obj
 *fill*         0x000478bb        0x1 
 .rodata.m_handlers
                0x000478bc       0xe8 examples/dfu/CMakeFiles/dfu_nrf52832_xxAA_s132_6.0.0.dir/__/__/mesh/serial/src/serial_handler_mesh.c.obj
 .rodata.m_cmd_handlers
                0x000479a4       0x18 examples/dfu/CMakeFiles/dfu_nrf52832_xxAA_s132_6.0.0.dir/__/__/mesh/serial/src/serial_handler_models.c.obj
 .rodata.m_cmd_handlers
                0x000479bc       0x48 examples/dfu/CMakeFiles/dfu_nrf52832_xxAA_s132_6.0.0.dir/__/__/mesh/serial/src/serial_handler_device.c.obj
 .rodata        0x00047a04        0x8 examples/dfu/CMakeFiles/dfu_nrf52832_xxAA_s132_6.0.0.dir/__/__/models/config/src/config_server.c.obj
 .rodata.CSWTCH.122
                0x00047a0c       0x10 examples/dfu/CMakeFiles/dfu_nrf52832_xxAA_s132_6.0.0.dir/__/__/models/config/src/config_server.c.obj
 .rodata.opcode_handlers
                0x00047a1c      0x170 examples/dfu/CMakeFiles/dfu_nrf52832_xxAA_s132_6.0.0.dir/__/__/models/config/src/config_server.c.obj
 .rodata.m_opcode_handlers
                0x00047b8c       0x58 examples/dfu/CMakeFiles/dfu_nrf52832_xxAA_s132_6.0.0.dir/__/__/models/health/src/health_server.c.obj
 .rodata.multiply_de_bruijn_bit_position.9304
                0x00047be4       0x20 examples/dfu/CMakeFiles/dfu_nrf52832_xxAA_s132_6.0.0.dir/__/__/models/health/src/health_server.c.obj
 .rodata.m_prov_callbacks
                0x00047c04       0x10 examples/dfu/CMakeFiles/dfu_nrf52832_xxAA_s132_6.0.0.dir/__/__/mesh/prov/src/prov_provisioner.c.obj
 .rodata.m_prov_callbacks
                0x00047c14       0x10 examples/dfu/CMakeFiles/dfu_nrf52832_xxAA_s132_6.0.0.dir/__/__/mesh/prov/src/prov_provisionee.c.obj
 .rodata.prov_provisionee_cb_ack_received.str1.4
                0x00047c24       0x53 examples/dfu/CMakeFiles/dfu_nrf52832_xxAA_s132_6.0.0.dir/__/__/mesh/prov/src/prov_provisionee.c.obj
 *fill*         0x00047c77        0x1 
 .rodata.multiply_de_bruijn_bit_position.9313
                0x00047c78       0x20 examples/dfu/CMakeFiles/dfu_nrf52832_xxAA_s132_6.0.0.dir/__/__/mesh/prov/src/nrf_mesh_prov.c.obj
 .rodata.pdu_sizes.11238
                0x00047c98        0xa examples/dfu/CMakeFiles/dfu_nrf52832_xxAA_s132_6.0.0.dir/__/__/mesh/prov/src/provisioning.c.obj
 *fill*         0x00047ca2        0x2 
 .rodata.alphanumeric.11343
                0x00047ca4       0x25 examples/dfu/CMakeFiles/dfu_nrf52832_xxAA_s132_6.0.0.dir/__/__/mesh/prov/src/prov_utils.c.obj
 *fill*         0x00047cc9        0x3 
 .rodata.numeric_max.11337
                0x00047ccc       0x24 examples/dfu/CMakeFiles/dfu_nrf52832_xxAA_s132_6.0.0.dir/__/__/mesh/prov/src/prov_utils.c.obj
 .rodata.prov_utils_authentication_values_derive.str1.4
                0x00047cf0        0x5 examples/dfu/CMakeFiles/dfu_nrf52832_xxAA_s132_6.0.0.dir/__/__/mesh/prov/src/prov_utils.c.obj
 *fill*         0x00047cf5        0x3 
 .rodata.prov_utils_derive_keys.str1.4
                0x00047cf8       0x15 examples/dfu/CMakeFiles/dfu_nrf52832_xxAA_s132_6.0.0.dir/__/__/mesh/prov/src/prov_utils.c.obj
 *fill*         0x00047d0d        0x3 
 .rodata.crctable.10972
                0x00047d10      0x100 examples/dfu/CMakeFiles/dfu_nrf52832_xxAA_s132_6.0.0.dir/__/__/mesh/prov/src/prov_bearer_adv.c.obj
 .rodata.interface.11202
                0x00047e10       0x14 examples/dfu/CMakeFiles/dfu_nrf52832_xxAA_s132_6.0.0.dir/__/__/mesh/prov/src/prov_bearer_adv.c.obj
 .rodata.prov_bearer_adv_listen.str1.4
                0x00047e24       0x50 examples/dfu/CMakeFiles/dfu_nrf52832_xxAA_s132_6.0.0.dir/__/__/mesh/prov/src/prov_bearer_adv.c.obj
 .rodata.prov_bearer_adv_packet_in.str1.4
                0x00047e74      0x283 examples/dfu/CMakeFiles/dfu_nrf52832_xxAA_s132_6.0.0.dir/__/__/mesh/prov/src/prov_bearer_adv.c.obj
 *fill*         0x000480f7        0x1 
 .rodata.tx_retry_cb.str1.4
                0x000480f8       0x14 examples/dfu/CMakeFiles/dfu_nrf52832_xxAA_s132_6.0.0.dir/__/__/mesh/prov/src/prov_bearer_adv.c.obj
 .rodata.abort_timeout.str1.4
                0x0004810c       0x54 examples/dfu/CMakeFiles/dfu_nrf52832_xxAA_s132_6.0.0.dir/__/__/mesh/dfu/src/nrf_mesh_dfu.c.obj
 .rodata.dfu_evt_handler.str1.4
                0x00048160      0x174 examples/dfu/CMakeFiles/dfu_nrf52832_xxAA_s132_6.0.0.dir/__/__/mesh/dfu/src/nrf_mesh_dfu.c.obj
 .rodata.flash_op_complete.str1.4
                0x000482d4       0x3d examples/dfu/CMakeFiles/dfu_nrf52832_xxAA_s132_6.0.0.dir/__/__/mesh/dfu/src/nrf_mesh_dfu.c.obj
 *fill*         0x00048311        0x3 
 .rodata.m_adv_channels
                0x00048314        0x3 examples/dfu/CMakeFiles/dfu_nrf52832_xxAA_s132_6.0.0.dir/__/__/mesh/dfu/src/nrf_mesh_dfu.c.obj
 *fill*         0x00048317        0x1 
 .rodata.timer_timeout.str1.4
                0x00048318       0x13 examples/dfu/CMakeFiles/dfu_nrf52832_xxAA_s132_6.0.0.dir/__/__/mesh/dfu/src/nrf_mesh_dfu.c.obj
 *fill*         0x0004832b        0x1 
 .rodata.app_error_fault_handler.str1.4
                0x0004832c       0xc5 examples/dfu/CMakeFiles/dfu_nrf52832_xxAA_s132_6.0.0.dir/__/common/src/app_error_weak.c.obj
 .rodata.mesh_assertion_handler.str1.4
                0x000483f1       0xc5 examples/dfu/CMakeFiles/dfu_nrf52832_xxAA_s132_6.0.0.dir/__/common/src/assertion_handler_weak.c.obj
                                  0x1 (size before relaxing)
 *fill*         0x000483f1        0x3 
 .rodata.sar_ctx_cancel.str1.4
                0x000483f4       0x23 examples/dfu/CMakeFiles/dfu_nrf52832_xxAA_s132_6.0.0.dir/__/__/mesh/core/src/transport.c.obj
 *fill*         0x00048417        0x1 
 .rodata.transport_packet_in.str1.4
                0x00048418       0x24 examples/dfu/CMakeFiles/dfu_nrf52832_xxAA_s132_6.0.0.dir/__/__/mesh/core/src/transport.c.obj
 .rodata.upper_transport_access_packet_in.str1.4
                0x0004843c       0x3d examples/dfu/CMakeFiles/dfu_nrf52832_xxAA_s132_6.0.0.dir/__/__/mesh/core/src/transport.c.obj
 *fill*         0x00048479        0x3 
 .rodata.upper_transport_packet_in.str1.4
                0x0004847c       0x2e examples/dfu/CMakeFiles/dfu_nrf52832_xxAA_s132_6.0.0.dir/__/__/mesh/core/src/transport.c.obj
 *fill*         0x000484aa        0x2 
 .rodata.upper_transport_tx.part.25.str1.4
                0x000484ac       0x2e examples/dfu/CMakeFiles/dfu_nrf52832_xxAA_s132_6.0.0.dir/__/__/mesh/core/src/transport.c.obj
                                 0x38 (size before relaxing)
 *fill*         0x000484da        0x2 
 .rodata.m_procedure_steps
                0x000484dc       0x28 examples/dfu/CMakeFiles/dfu_nrf52832_xxAA_s132_6.0.0.dir/__/__/mesh/core/src/flash_manager_defrag.c.obj
 .rodata.m_all_operations
                0x00048504       0x10 examples/dfu/CMakeFiles/dfu_nrf52832_xxAA_s132_6.0.0.dir/__/__/mesh/core/src/mesh_flash.c.obj
 .rodata.types_lookup.9059
                0x00048514        0x4 examples/dfu/CMakeFiles/dfu_nrf52832_xxAA_s132_6.0.0.dir/__/__/mesh/core/src/nrf_mesh_utils.c.obj
 .rodata.__func__.11531
                0x00048518       0x15 examples/dfu/CMakeFiles/dfu_nrf52832_xxAA_s132_6.0.0.dir/__/__/mesh/core/src/nrf_mesh.c.obj
 *fill*         0x0004852d        0x3 
 .rodata.nrf_mesh_listen.str1.4
                0x00048530       0x73 examples/dfu/CMakeFiles/dfu_nrf52832_xxAA_s132_6.0.0.dir/__/__/mesh/core/src/nrf_mesh.c.obj
 .rodata.nrf_mesh_packet_send.str1.4
                0x000485a3       0x73 examples/dfu/CMakeFiles/dfu_nrf52832_xxAA_s132_6.0.0.dir/__/__/mesh/core/src/nrf_mesh.c.obj
                                  0x4 (size before relaxing)
 *fill*         0x000485a3        0x1 
 .rodata.CSWTCH.8
                0x000485a4       0x20 examples/dfu/CMakeFiles/dfu_nrf52832_xxAA_s132_6.0.0.dir/__/__/mesh/core/src/hal.c.obj
 .rodata        0x000485c4       0x18 examples/dfu/CMakeFiles/dfu_nrf52832_xxAA_s132_6.0.0.dir/__/__/mesh/core/src/enc.c.obj
 .rodata.network_packet_in.str1.4
                0x000485dc       0x49 examples/dfu/CMakeFiles/dfu_nrf52832_xxAA_s132_6.0.0.dir/__/__/mesh/core/src/network.c.obj
 *fill*         0x00048625        0x3 
 .rodata.net_packet_decrypt.str1.4
                0x00048628       0x33 examples/dfu/CMakeFiles/dfu_nrf52832_xxAA_s132_6.0.0.dir/__/__/mesh/core/src/net_packet.c.obj
                                 0x3c (size before relaxing)
 *fill*         0x0004865b        0x1 
 .rodata        0x0004865c        0x7 examples/dfu/CMakeFiles/dfu_nrf52832_xxAA_s132_6.0.0.dir/__/__/mesh/core/src/nrf_mesh_keygen.c.obj
 *fill*         0x00048663        0x1 
 .rodata.log_callback_rtt.str1.4
                0x00048664       0x15 examples/dfu/CMakeFiles/dfu_nrf52832_xxAA_s132_6.0.0.dir/__/__/mesh/core/src/log.c.obj
 *fill*         0x00048679        0x3 
 .rodata.str1.4
                0x0004867c       0x11 examples/dfu/CMakeFiles/dfu_nrf52832_xxAA_s132_6.0.0.dir/__/__/mesh/core/src/log.c.obj
 *fill*         0x0004868d        0x3 
 .rodata.INVALID_HEADER
                0x00048690        0x4 examples/dfu/CMakeFiles/dfu_nrf52832_xxAA_s132_6.0.0.dir/__/__/mesh/core/src/flash_manager.c.obj
                0x00048690                INVALID_HEADER
 .rodata.PADDING_HEADER
                0x00048694        0x4 examples/dfu/CMakeFiles/dfu_nrf52832_xxAA_s132_6.0.0.dir/__/__/mesh/core/src/flash_manager.c.obj
                0x00048694                PADDING_HEADER
 .rodata.SEAL_HEADER
                0x00048698        0x4 examples/dfu/CMakeFiles/dfu_nrf52832_xxAA_s132_6.0.0.dir/__/__/mesh/core/src/flash_manager.c.obj
                0x00048698                SEAL_HEADER
 .rodata.beacon_packet_in.str1.4
                0x0004869c       0x55 examples/dfu/CMakeFiles/dfu_nrf52832_xxAA_s132_6.0.0.dir/__/__/mesh/core/src/beacon.c.obj
                                 0x60 (size before relaxing)
 *fill*         0x000486f1        0x3 
 .rodata.cp_handler
                0x000486f4        0x8 examples/dfu/CMakeFiles/dfu_nrf52832_xxAA_s132_6.0.0.dir/__/__/mesh/core/src/heartbeat.c.obj
 .rodata.beacon_tx.str1.4
                0x000486fc       0x37 examples/dfu/CMakeFiles/dfu_nrf52832_xxAA_s132_6.0.0.dir/__/__/mesh/core/src/net_beacon.c.obj
 *fill*         0x00048733        0x1 
 .rodata.net_beacon_init.str1.4
                0x00048734        0x5 examples/dfu/CMakeFiles/dfu_nrf52832_xxAA_s132_6.0.0.dir/__/__/mesh/core/src/net_beacon.c.obj
 *fill*         0x00048739        0x3 
 .rodata.m_interface
                0x0004873c        0xc examples/dfu/CMakeFiles/dfu_nrf52832_xxAA_s132_6.0.0.dir/__/__/mesh/core/src/core_tx_adv.c.obj
 .rodata.radio_mode_to_us_per_byte.9452
                0x00048748        0x6 examples/dfu/CMakeFiles/dfu_nrf52832_xxAA_s132_6.0.0.dir/__/__/mesh/bearer/src/broadcast.c.obj
 *fill*         0x0004874e        0x2 
 .rodata.channel_rf_offsets.8693
                0x00048750       0x28 examples/dfu/CMakeFiles/dfu_nrf52832_xxAA_s132_6.0.0.dir/__/__/mesh/bearer/src/radio_config.c.obj
 .rodata.SEGGER_RTT_ReadNoLock.str1.4
                0x00048778       0x18 external/rtt/librtt_nrf52832_xxAA.a(SEGGER_RTT.c.obj)
                                 0x17 (size before relaxing)
 .rodata._aV2C.5497
                0x00048790       0x10 external/rtt/librtt_nrf52832_xxAA.a(SEGGER_RTT_printf.c.obj)
 .rodata.curve_secp256r1
                0x000487a0       0xb0 external/micro-ecc/libuECC_nrf52832_xxAA.a(uECC.c.obj)
 .rodata._global_impure_ptr
                0x00048850        0x4 c:/mesh/arm_gcc/bin/../lib/gcc/arm-none-eabi/6.3.1/../../../../arm-none-eabi/lib/thumb/v7e-m/fpv4-sp/hard\libc_nano.a(lib_a-impure.o)
                0x00048850                _global_impure_ptr
 *(.eh_frame*)
 .eh_frame      0x00048854        0x0 c:/mesh/arm_gcc/bin/../lib/gcc/arm-none-eabi/6.3.1/thumb/v7e-m/fpv4-sp/hard/crtbegin.o
 .eh_frame      0x00048854        0x4 c:/mesh/arm_gcc/bin/../lib/gcc/arm-none-eabi/6.3.1/thumb/v7e-m/fpv4-sp/hard/crtend.o

.glue_7         0x00048858        0x0
 .glue_7        0x00048858        0x0 linker stubs

.glue_7t        0x00048858        0x0
 .glue_7t       0x00048858        0x0 linker stubs

.vfp11_veneer   0x00048858        0x0
 .vfp11_veneer  0x00048858        0x0 linker stubs

.v4_bx          0x00048858        0x0
 .v4_bx         0x00048858        0x0 linker stubs

.iplt           0x00048858        0x0
 .iplt          0x00048858        0x0 c:/mesh/arm_gcc/bin/../lib/gcc/arm-none-eabi/6.3.1/thumb/v7e-m/fpv4-sp/hard/crtbegin.o

.pwr_mgmt_data  0x00048858        0x0
                [!provide]                PROVIDE (__start_pwr_mgmt_data, .)
 *(SORT(.pwr_mgmt_data*))
                [!provide]                PROVIDE (__stop_pwr_mgmt_data, .)

.log_const_data
                0x00048858        0x0
                [!provide]                PROVIDE (__start_log_const_data, .)
 *(.log_const_data)
                [!provide]                PROVIDE (__stop_log_const_data, .)

.cli_command    0x00048858        0x0
                [!provide]                PROVIDE (__start_cli_command, .)
 *(.cli_command)
                [!provide]                PROVIDE (__stop_cli_command, .)

.sdh_stack_observers
                0x00048858        0x0
                [!provide]                PROVIDE (__start_sdh_stack_observers, .)
 *(SORT(.sdh_stack_observers*))
                [!provide]                PROVIDE (__stop_sdh_stack_observers, .)

.sdh_req_observers
                0x00048858        0x0
                [!provide]                PROVIDE (__start_sdh_req_observers, .)
 *(SORT(.sdh_req_observers*))
                [!provide]                PROVIDE (__stop_sdh_req_observers, .)

.sdh_state_observers
                0x00048858        0x0
                [!provide]                PROVIDE (__start_sdh_state_observers, .)
 *(SORT(.sdh_state_observers*))
                [!provide]                PROVIDE (__stop_sdh_state_observers, .)

.sdh_ant_observers
                0x00048858        0x0
                [!provide]                PROVIDE (__start_sdh_ant_observers, .)
 *(SORT(.sdh_ant_observers*))
                [!provide]                PROVIDE (__stop_sdh_ant_observers, .)

.sdh_ble_observers
                0x00048858        0x0
                [!provide]                PROVIDE (__start_sdh_ble_observers, .)
 *(SORT(.sdh_ble_observers*))
                [!provide]                PROVIDE (__stop_sdh_ble_observers, .)

.sdh_soc_observers
                0x00048858        0x0
                [!provide]                PROVIDE (__start_sdh_soc_observers, .)
 *(SORT(.sdh_soc_observers*))
                [!provide]                PROVIDE (__stop_sdh_soc_observers, .)

.ARM.extab
 *(.ARM.extab* .gnu.linkonce.armextab.*)
                0x00048858                __exidx_start = .

.ARM.exidx      0x00048858        0x8
 *(.ARM.exidx* .gnu.linkonce.armexidx.*)
 .ARM.exidx     0x00048858        0x8 c:/mesh/arm_gcc/bin/../lib/gcc/arm-none-eabi/6.3.1/../../../../arm-none-eabi/lib/thumb/v7e-m/fpv4-sp/hard/crt0.o
                0x00048860                __exidx_end = .
                0x00048860                __etext = .

.rel.dyn        0x00048860        0x0
 .rel.iplt      0x00048860        0x0 c:/mesh/arm_gcc/bin/../lib/gcc/arm-none-eabi/6.3.1/thumb/v7e-m/fpv4-sp/hard/crtbegin.o

.data           0x200032c8      0x14c load address 0x00048860
                0x200032c8                __data_start__ = .
 *(vtable)
 *(.data*)
 .data.rom_base
                0x200032c8        0x4 examples/dfu/CMakeFiles/dfu_nrf52832_xxAA_s132_6.0.0.dir/src/main.c.obj
                0x200032c8                rom_base
 .data.rom_end  0x200032cc        0x4 examples/dfu/CMakeFiles/dfu_nrf52832_xxAA_s132_6.0.0.dir/src/main.c.obj
                0x200032cc                rom_end
 .data.s_evt_handler.11055
                0x200032d0        0x8 examples/dfu/CMakeFiles/dfu_nrf52832_xxAA_s132_6.0.0.dir/__/__/mesh/stack/src/mesh_stack.c.obj
 .data.flash_add_mem_available_struct.10384
                0x200032d8       0x10 examples/dfu/CMakeFiles/dfu_nrf52832_xxAA_s132_6.0.0.dir/__/__/mesh/access/src/access.c.obj
 .data.flash_clear_mem_available_struct.10473
                0x200032e8       0x10 examples/dfu/CMakeFiles/dfu_nrf52832_xxAA_s132_6.0.0.dir/__/__/mesh/access/src/access.c.obj
 .data.flash_store_mem_available_struct.10497
                0x200032f8       0x10 examples/dfu/CMakeFiles/dfu_nrf52832_xxAA_s132_6.0.0.dir/__/__/mesh/access/src/access.c.obj
 .data.m_default_ttl
                0x20003308        0x1 examples/dfu/CMakeFiles/dfu_nrf52832_xxAA_s132_6.0.0.dir/__/__/mesh/access/src/access.c.obj
 *fill*         0x20003309        0x3 
 .data.mem_listener.10673
                0x2000330c       0x10 examples/dfu/CMakeFiles/dfu_nrf52832_xxAA_s132_6.0.0.dir/__/__/mesh/access/src/device_state_manager.c.obj
 .data.mem_listener.10699
                0x2000331c       0x10 examples/dfu/CMakeFiles/dfu_nrf52832_xxAA_s132_6.0.0.dir/__/__/mesh/access/src/device_state_manager.c.obj
 .data.m_config_server_handle
                0x2000332c        0x2 examples/dfu/CMakeFiles/dfu_nrf52832_xxAA_s132_6.0.0.dir/__/__/models/config/src/config_server.c.obj
 *fill*         0x2000332e        0x2 
 .data.m_mesh_evt_handler
                0x20003330        0x8 examples/dfu/CMakeFiles/dfu_nrf52832_xxAA_s132_6.0.0.dir/__/__/models/config/src/config_server.c.obj
 .data.m_async_process_flag
                0x20003338        0x4 examples/dfu/CMakeFiles/dfu_nrf52832_xxAA_s132_6.0.0.dir/__/__/mesh/prov/src/prov_bearer_adv.c.obj
 .data.wait.8936
                0x2000333c        0x1 examples/dfu/CMakeFiles/dfu_nrf52832_xxAA_s132_6.0.0.dir/__/common/src/app_error_weak.c.obj
 *fill*         0x2000333d        0x3 
 .data.mem_listener.9810
                0x20003340       0x10 examples/dfu/CMakeFiles/dfu_nrf52832_xxAA_s132_6.0.0.dir/__/__/mesh/core/src/net_state.c.obj
 .data.mem_listener.9815
                0x20003350       0x10 examples/dfu/CMakeFiles/dfu_nrf52832_xxAA_s132_6.0.0.dir/__/__/mesh/core/src/net_state.c.obj
 .data.mem_listener.9829
                0x20003360       0x10 examples/dfu/CMakeFiles/dfu_nrf52832_xxAA_s132_6.0.0.dir/__/__/mesh/core/src/net_state.c.obj
 .data.mem_listener.9846
                0x20003370       0x10 examples/dfu/CMakeFiles/dfu_nrf52832_xxAA_s132_6.0.0.dir/__/__/mesh/core/src/net_state.c.obj
 .data.m_nrf_mesh_listener
                0x20003380        0xc examples/dfu/CMakeFiles/dfu_nrf52832_xxAA_s132_6.0.0.dir/__/__/mesh/core/src/nrf_mesh.c.obj
 .data.g_log_dbg_lvl
                0x2000338c        0x4 examples/dfu/CMakeFiles/dfu_nrf52832_xxAA_s132_6.0.0.dir/__/__/mesh/core/src/log.c.obj
                0x2000338c                g_log_dbg_lvl
 .data.g_log_dbg_msk
                0x20003390        0x4 examples/dfu/CMakeFiles/dfu_nrf52832_xxAA_s132_6.0.0.dir/__/__/mesh/core/src/log.c.obj
                0x20003390                g_log_dbg_msk
 .data.g_log_hex_digits
                0x20003394        0x4 examples/dfu/CMakeFiles/dfu_nrf52832_xxAA_s132_6.0.0.dir/__/__/mesh/core/src/log.c.obj
                0x20003394                g_log_hex_digits
 .data.m_log_callback
                0x20003398        0x4 examples/dfu/CMakeFiles/dfu_nrf52832_xxAA_s132_6.0.0.dir/__/__/mesh/core/src/log.c.obj
                0x20003398                m_log_callback
 .data.SystemCoreClock
                0x2000339c        0x4 examples/dfu/CMakeFiles/dfu_nrf52832_xxAA_s132_6.0.0.dir/C_/ver/mod/nRF5_SDK_15.0.0_a53641a/modules/nrfx/mdk/system_nrf52.c.obj
                0x2000339c                SystemCoreClock
 .data.g_rng_function
                0x200033a0        0x4 external/micro-ecc/libuECC_nrf52832_xxAA.a(uECC.c.obj)
 .data._impure_ptr
                0x200033a4        0x4 c:/mesh/arm_gcc/bin/../lib/gcc/arm-none-eabi/6.3.1/../../../../arm-none-eabi/lib/thumb/v7e-m/fpv4-sp/hard\libc_nano.a(lib_a-impure.o)
                0x200033a4                _impure_ptr
 .data.impure_data
                0x200033a8       0x60 c:/mesh/arm_gcc/bin/../lib/gcc/arm-none-eabi/6.3.1/../../../../arm-none-eabi/lib/thumb/v7e-m/fpv4-sp/hard\libc_nano.a(lib_a-impure.o)
                0x20003408                . = ALIGN (0x4)
                0x20003408                PROVIDE (__preinit_array_start, .)
 *(.preinit_array)
                0x20003408                PROVIDE (__preinit_array_end, .)
                0x20003408                . = ALIGN (0x4)
                0x20003408                PROVIDE (__init_array_start, .)
 *(SORT(.init_array.*))
 *(.init_array)
 .init_array    0x20003408        0x4 c:/mesh/arm_gcc/bin/../lib/gcc/arm-none-eabi/6.3.1/thumb/v7e-m/fpv4-sp/hard/crtbegin.o
                0x2000340c                PROVIDE (__init_array_end, .)
                0x2000340c                . = ALIGN (0x4)
                [!provide]                PROVIDE (__fini_array_start, .)
 *(SORT(.fini_array.*))
 *(.fini_array)
 .fini_array    0x2000340c        0x4 c:/mesh/arm_gcc/bin/../lib/gcc/arm-none-eabi/6.3.1/thumb/v7e-m/fpv4-sp/hard/crtbegin.o
                [!provide]                PROVIDE (__fini_array_end, .)
 *(.jcr*)
 .jcr           0x20003410        0x0 c:/mesh/arm_gcc/bin/../lib/gcc/arm-none-eabi/6.3.1/thumb/v7e-m/fpv4-sp/hard/crtbegin.o
 .jcr           0x20003410        0x4 c:/mesh/arm_gcc/bin/../lib/gcc/arm-none-eabi/6.3.1/thumb/v7e-m/fpv4-sp/hard/crtend.o
                0x20003414                . = ALIGN (0x4)
                0x20003414                __data_end__ = .
LOAD c:/mesh/arm_gcc/bin/../lib/gcc/arm-none-eabi/6.3.1/thumb/v7e-m/fpv4-sp/hard/crti.o
LOAD c:/mesh/arm_gcc/bin/../lib/gcc/arm-none-eabi/6.3.1/thumb/v7e-m/fpv4-sp/hard/crtbegin.o
LOAD c:/mesh/arm_gcc/bin/../lib/gcc/arm-none-eabi/6.3.1/../../../../arm-none-eabi/lib/thumb/v7e-m/fpv4-sp/hard/crt0.o
LOAD examples/dfu/CMakeFiles/dfu_nrf52832_xxAA_s132_6.0.0.dir/src/main.c.obj
LOAD examples/dfu/CMakeFiles/dfu_nrf52832_xxAA_s132_6.0.0.dir/__/__/mesh/stack/src/mesh_stack.c.obj
LOAD examples/dfu/CMakeFiles/dfu_nrf52832_xxAA_s132_6.0.0.dir/__/common/src/mesh_softdevice_init.c.obj
LOAD examples/dfu/CMakeFiles/dfu_nrf52832_xxAA_s132_6.0.0.dir/__/common/src/mesh_provisionee.c.obj
LOAD examples/dfu/CMakeFiles/dfu_nrf52832_xxAA_s132_6.0.0.dir/__/common/src/simple_hal.c.obj
LOAD examples/dfu/CMakeFiles/dfu_nrf52832_xxAA_s132_6.0.0.dir/__/__/mesh/access/src/access_publish.c.obj
LOAD examples/dfu/CMakeFiles/dfu_nrf52832_xxAA_s132_6.0.0.dir/__/__/mesh/access/src/access.c.obj
LOAD examples/dfu/CMakeFiles/dfu_nrf52832_xxAA_s132_6.0.0.dir/__/__/mesh/access/src/access_reliable.c.obj
LOAD examples/dfu/CMakeFiles/dfu_nrf52832_xxAA_s132_6.0.0.dir/__/__/mesh/access/src/device_state_manager.c.obj
LOAD examples/dfu/CMakeFiles/dfu_nrf52832_xxAA_s132_6.0.0.dir/__/__/mesh/serial/src/serial_uart.c.obj
LOAD examples/dfu/CMakeFiles/dfu_nrf52832_xxAA_s132_6.0.0.dir/__/__/mesh/serial/src/serial_bearer.c.obj
LOAD examples/dfu/CMakeFiles/dfu_nrf52832_xxAA_s132_6.0.0.dir/__/__/mesh/serial/src/serial_handler_common.c.obj
LOAD examples/dfu/CMakeFiles/dfu_nrf52832_xxAA_s132_6.0.0.dir/__/__/mesh/serial/src/serial_handler_access.c.obj
LOAD examples/dfu/CMakeFiles/dfu_nrf52832_xxAA_s132_6.0.0.dir/__/__/mesh/serial/src/serial_handler_config.c.obj
LOAD examples/dfu/CMakeFiles/dfu_nrf52832_xxAA_s132_6.0.0.dir/__/__/mesh/serial/src/serial_handler_openmesh.c.obj
LOAD examples/dfu/CMakeFiles/dfu_nrf52832_xxAA_s132_6.0.0.dir/__/__/mesh/serial/src/serial.c.obj
LOAD examples/dfu/CMakeFiles/dfu_nrf52832_xxAA_s132_6.0.0.dir/__/__/mesh/serial/src/serial_handler_prov.c.obj
LOAD examples/dfu/CMakeFiles/dfu_nrf52832_xxAA_s132_6.0.0.dir/__/__/mesh/serial/src/serial_handler_dfu.c.obj
LOAD examples/dfu/CMakeFiles/dfu_nrf52832_xxAA_s132_6.0.0.dir/__/__/mesh/serial/src/serial_handler_mesh.c.obj
LOAD examples/dfu/CMakeFiles/dfu_nrf52832_xxAA_s132_6.0.0.dir/__/__/mesh/serial/src/serial_handler_models.c.obj
LOAD examples/dfu/CMakeFiles/dfu_nrf52832_xxAA_s132_6.0.0.dir/__/__/mesh/serial/src/serial_handler_device.c.obj
LOAD examples/dfu/CMakeFiles/dfu_nrf52832_xxAA_s132_6.0.0.dir/__/__/mesh/serial/src/nrf_mesh_serial.c.obj
LOAD examples/dfu/CMakeFiles/dfu_nrf52832_xxAA_s132_6.0.0.dir/__/__/mesh/serial/src/serial_handler_app.c.obj
LOAD examples/dfu/CMakeFiles/dfu_nrf52832_xxAA_s132_6.0.0.dir/__/__/models/config/src/composition_data.c.obj
LOAD examples/dfu/CMakeFiles/dfu_nrf52832_xxAA_s132_6.0.0.dir/__/__/models/config/src/config_server.c.obj
LOAD examples/dfu/CMakeFiles/dfu_nrf52832_xxAA_s132_6.0.0.dir/__/__/models/config/src/packed_index_list.c.obj
LOAD examples/dfu/CMakeFiles/dfu_nrf52832_xxAA_s132_6.0.0.dir/__/__/models/health/src/health_server.c.obj
LOAD examples/dfu/CMakeFiles/dfu_nrf52832_xxAA_s132_6.0.0.dir/__/__/mesh/prov/src/prov_provisioner.c.obj
LOAD examples/dfu/CMakeFiles/dfu_nrf52832_xxAA_s132_6.0.0.dir/__/__/mesh/prov/src/prov_provisionee.c.obj
LOAD examples/dfu/CMakeFiles/dfu_nrf52832_xxAA_s132_6.0.0.dir/__/__/mesh/prov/src/nrf_mesh_prov.c.obj
LOAD examples/dfu/CMakeFiles/dfu_nrf52832_xxAA_s132_6.0.0.dir/__/__/mesh/prov/src/provisioning.c.obj
LOAD examples/dfu/CMakeFiles/dfu_nrf52832_xxAA_s132_6.0.0.dir/__/__/mesh/prov/src/prov_beacon.c.obj
LOAD examples/dfu/CMakeFiles/dfu_nrf52832_xxAA_s132_6.0.0.dir/__/__/mesh/prov/src/prov_utils.c.obj
LOAD examples/dfu/CMakeFiles/dfu_nrf52832_xxAA_s132_6.0.0.dir/__/__/mesh/prov/src/prov_bearer_adv.c.obj
LOAD examples/dfu/CMakeFiles/dfu_nrf52832_xxAA_s132_6.0.0.dir/__/__/mesh/dfu/src/nrf_mesh_dfu.c.obj
LOAD examples/dfu/CMakeFiles/dfu_nrf52832_xxAA_s132_6.0.0.dir/__/nrf_mesh_weak.c.obj
LOAD examples/dfu/CMakeFiles/dfu_nrf52832_xxAA_s132_6.0.0.dir/__/common/src/app_error_weak.c.obj
LOAD examples/dfu/CMakeFiles/dfu_nrf52832_xxAA_s132_6.0.0.dir/__/common/src/assertion_handler_weak.c.obj
LOAD examples/dfu/CMakeFiles/dfu_nrf52832_xxAA_s132_6.0.0.dir/__/__/mesh/core/src/internal_event.c.obj
LOAD examples/dfu/CMakeFiles/dfu_nrf52832_xxAA_s132_6.0.0.dir/__/__/mesh/core/src/nrf_mesh_configure.c.obj
LOAD examples/dfu/CMakeFiles/dfu_nrf52832_xxAA_s132_6.0.0.dir/__/__/mesh/core/src/aes.c.obj
LOAD examples/dfu/CMakeFiles/dfu_nrf52832_xxAA_s132_6.0.0.dir/__/__/mesh/core/src/msg_cache.c.obj
LOAD examples/dfu/CMakeFiles/dfu_nrf52832_xxAA_s132_6.0.0.dir/__/__/mesh/core/src/transport.c.obj
LOAD examples/dfu/CMakeFiles/dfu_nrf52832_xxAA_s132_6.0.0.dir/__/__/mesh/core/src/event.c.obj
LOAD examples/dfu/CMakeFiles/dfu_nrf52832_xxAA_s132_6.0.0.dir/__/__/mesh/core/src/packet_buffer.c.obj
LOAD examples/dfu/CMakeFiles/dfu_nrf52832_xxAA_s132_6.0.0.dir/__/__/mesh/core/src/flash_manager_defrag.c.obj
LOAD examples/dfu/CMakeFiles/dfu_nrf52832_xxAA_s132_6.0.0.dir/__/__/mesh/core/src/fifo.c.obj
LOAD examples/dfu/CMakeFiles/dfu_nrf52832_xxAA_s132_6.0.0.dir/__/__/mesh/core/src/nrf_flash.c.obj
LOAD examples/dfu/CMakeFiles/dfu_nrf52832_xxAA_s132_6.0.0.dir/__/__/mesh/core/src/packet_mgr.c.obj
LOAD examples/dfu/CMakeFiles/dfu_nrf52832_xxAA_s132_6.0.0.dir/__/__/mesh/core/src/net_state.c.obj
LOAD examples/dfu/CMakeFiles/dfu_nrf52832_xxAA_s132_6.0.0.dir/__/__/mesh/core/src/mesh_flash.c.obj
LOAD examples/dfu/CMakeFiles/dfu_nrf52832_xxAA_s132_6.0.0.dir/__/__/mesh/core/src/nrf_mesh_utils.c.obj
LOAD examples/dfu/CMakeFiles/dfu_nrf52832_xxAA_s132_6.0.0.dir/__/__/mesh/core/src/nrf_mesh.c.obj
LOAD examples/dfu/CMakeFiles/dfu_nrf52832_xxAA_s132_6.0.0.dir/__/__/mesh/core/src/queue.c.obj
LOAD examples/dfu/CMakeFiles/dfu_nrf52832_xxAA_s132_6.0.0.dir/__/__/mesh/core/src/hal.c.obj
LOAD examples/dfu/CMakeFiles/dfu_nrf52832_xxAA_s132_6.0.0.dir/__/__/mesh/core/src/aes_cmac.c.obj
LOAD examples/dfu/CMakeFiles/dfu_nrf52832_xxAA_s132_6.0.0.dir/__/__/mesh/core/src/timer_scheduler.c.obj
LOAD examples/dfu/CMakeFiles/dfu_nrf52832_xxAA_s132_6.0.0.dir/__/__/mesh/core/src/timer.c.obj
LOAD examples/dfu/CMakeFiles/dfu_nrf52832_xxAA_s132_6.0.0.dir/__/__/mesh/core/src/ticker.c.obj
LOAD examples/dfu/CMakeFiles/dfu_nrf52832_xxAA_s132_6.0.0.dir/__/__/mesh/core/src/rand.c.obj
LOAD examples/dfu/CMakeFiles/dfu_nrf52832_xxAA_s132_6.0.0.dir/__/__/mesh/core/src/nrf_mesh_opt.c.obj
LOAD examples/dfu/CMakeFiles/dfu_nrf52832_xxAA_s132_6.0.0.dir/__/__/mesh/core/src/timeslot.c.obj
LOAD examples/dfu/CMakeFiles/dfu_nrf52832_xxAA_s132_6.0.0.dir/__/__/mesh/core/src/bearer_event.c.obj
LOAD examples/dfu/CMakeFiles/dfu_nrf52832_xxAA_s132_6.0.0.dir/__/__/mesh/core/src/enc.c.obj
LOAD examples/dfu/CMakeFiles/dfu_nrf52832_xxAA_s132_6.0.0.dir/__/__/mesh/core/src/network.c.obj
LOAD examples/dfu/CMakeFiles/dfu_nrf52832_xxAA_s132_6.0.0.dir/__/__/mesh/core/src/net_packet.c.obj
LOAD examples/dfu/CMakeFiles/dfu_nrf52832_xxAA_s132_6.0.0.dir/__/__/mesh/core/src/msqueue.c.obj
LOAD examples/dfu/CMakeFiles/dfu_nrf52832_xxAA_s132_6.0.0.dir/__/__/mesh/core/src/nrf_mesh_keygen.c.obj
LOAD examples/dfu/CMakeFiles/dfu_nrf52832_xxAA_s132_6.0.0.dir/__/__/mesh/core/src/cache.c.obj
LOAD examples/dfu/CMakeFiles/dfu_nrf52832_xxAA_s132_6.0.0.dir/__/__/mesh/core/src/uri.c.obj
LOAD examples/dfu/CMakeFiles/dfu_nrf52832_xxAA_s132_6.0.0.dir/__/__/mesh/core/src/list.c.obj
LOAD examples/dfu/CMakeFiles/dfu_nrf52832_xxAA_s132_6.0.0.dir/__/__/mesh/core/src/log.c.obj
LOAD examples/dfu/CMakeFiles/dfu_nrf52832_xxAA_s132_6.0.0.dir/__/__/mesh/core/src/flash_manager.c.obj
LOAD examples/dfu/CMakeFiles/dfu_nrf52832_xxAA_s132_6.0.0.dir/__/__/mesh/core/src/ccm_soft.c.obj
LOAD examples/dfu/CMakeFiles/dfu_nrf52832_xxAA_s132_6.0.0.dir/__/__/mesh/core/src/toolchain.c.obj
LOAD examples/dfu/CMakeFiles/dfu_nrf52832_xxAA_s132_6.0.0.dir/__/__/mesh/core/src/replay_cache.c.obj
LOAD examples/dfu/CMakeFiles/dfu_nrf52832_xxAA_s132_6.0.0.dir/__/__/mesh/core/src/beacon.c.obj
LOAD examples/dfu/CMakeFiles/dfu_nrf52832_xxAA_s132_6.0.0.dir/__/__/mesh/core/src/flash_manager_internal.c.obj
LOAD examples/dfu/CMakeFiles/dfu_nrf52832_xxAA_s132_6.0.0.dir/__/__/mesh/core/src/core_tx.c.obj
LOAD examples/dfu/CMakeFiles/dfu_nrf52832_xxAA_s132_6.0.0.dir/__/__/mesh/core/src/heartbeat.c.obj
LOAD examples/dfu/CMakeFiles/dfu_nrf52832_xxAA_s132_6.0.0.dir/__/__/mesh/core/src/net_beacon.c.obj
LOAD examples/dfu/CMakeFiles/dfu_nrf52832_xxAA_s132_6.0.0.dir/__/__/mesh/core/src/fsm.c.obj
LOAD examples/dfu/CMakeFiles/dfu_nrf52832_xxAA_s132_6.0.0.dir/__/__/mesh/core/src/core_tx_adv.c.obj
LOAD examples/dfu/CMakeFiles/dfu_nrf52832_xxAA_s132_6.0.0.dir/__/__/mesh/bearer/src/ad_listener.c.obj
LOAD examples/dfu/CMakeFiles/dfu_nrf52832_xxAA_s132_6.0.0.dir/__/__/mesh/bearer/src/ad_type_filter.c.obj
LOAD examples/dfu/CMakeFiles/dfu_nrf52832_xxAA_s132_6.0.0.dir/__/__/mesh/bearer/src/adv_packet_filter.c.obj
LOAD examples/dfu/CMakeFiles/dfu_nrf52832_xxAA_s132_6.0.0.dir/__/__/mesh/bearer/src/advertiser.c.obj
LOAD examples/dfu/CMakeFiles/dfu_nrf52832_xxAA_s132_6.0.0.dir/__/__/mesh/bearer/src/bearer_handler.c.obj
LOAD examples/dfu/CMakeFiles/dfu_nrf52832_xxAA_s132_6.0.0.dir/__/__/mesh/bearer/src/broadcast.c.obj
LOAD examples/dfu/CMakeFiles/dfu_nrf52832_xxAA_s132_6.0.0.dir/__/__/mesh/bearer/src/filter_engine.c.obj
LOAD examples/dfu/CMakeFiles/dfu_nrf52832_xxAA_s132_6.0.0.dir/__/__/mesh/bearer/src/gap_address_filter.c.obj
LOAD examples/dfu/CMakeFiles/dfu_nrf52832_xxAA_s132_6.0.0.dir/__/__/mesh/bearer/src/radio_config.c.obj
LOAD examples/dfu/CMakeFiles/dfu_nrf52832_xxAA_s132_6.0.0.dir/__/__/mesh/bearer/src/rssi_filter.c.obj
LOAD examples/dfu/CMakeFiles/dfu_nrf52832_xxAA_s132_6.0.0.dir/__/__/mesh/bearer/src/scanner.c.obj
LOAD examples/dfu/CMakeFiles/dfu_nrf52832_xxAA_s132_6.0.0.dir/C_/ver/mod/nRF5_SDK_15.0.0_a53641a/modules/nrfx/mdk/system_nrf52.c.obj
LOAD examples/dfu/CMakeFiles/dfu_nrf52832_xxAA_s132_6.0.0.dir/C_/ver/mod/nRF5_SDK_15.0.0_a53641a/modules/nrfx/mdk/gcc_startup_nrf52.S.obj
LOAD examples/dfu/CMakeFiles/dfu_nrf52832_xxAA_s132_6.0.0.dir/C_/ver/mod/nRF5_SDK_15.0.0_a53641a/components/libraries/util/app_error.c.obj
LOAD examples/dfu/CMakeFiles/dfu_nrf52832_xxAA_s132_6.0.0.dir/C_/ver/mod/nRF5_SDK_15.0.0_a53641a/components/libraries/util/app_error_handler_gcc.c.obj
LOAD external/rtt/librtt_nrf52832_xxAA.a
LOAD external/micro-ecc/libuECC_nrf52832_xxAA.a
START GROUP
LOAD c:/mesh/arm_gcc/bin/../lib/gcc/arm-none-eabi/6.3.1/thumb/v7e-m/fpv4-sp/hard\libgcc.a
LOAD c:/mesh/arm_gcc/bin/../lib/gcc/arm-none-eabi/6.3.1/../../../../arm-none-eabi/lib/thumb/v7e-m/fpv4-sp/hard\libc_nano.a
END GROUP
START GROUP
LOAD c:/mesh/arm_gcc/bin/../lib/gcc/arm-none-eabi/6.3.1/thumb/v7e-m/fpv4-sp/hard\libgcc.a
LOAD c:/mesh/arm_gcc/bin/../lib/gcc/arm-none-eabi/6.3.1/../../../../arm-none-eabi/lib/thumb/v7e-m/fpv4-sp/hard\libc_nano.a
END GROUP
LOAD c:/mesh/arm_gcc/bin/../lib/gcc/arm-none-eabi/6.3.1/thumb/v7e-m/fpv4-sp/hard/crtend.o
LOAD c:/mesh/arm_gcc/bin/../lib/gcc/arm-none-eabi/6.3.1/thumb/v7e-m/fpv4-sp/hard/crtn.o
START GROUP
LOAD c:/mesh/arm_gcc/bin/../lib/gcc/arm-none-eabi/6.3.1/thumb/v7e-m/fpv4-sp/hard\libgcc.a
LOAD c:/mesh/arm_gcc/bin/../lib/gcc/arm-none-eabi/6.3.1/../../../../arm-none-eabi/lib/thumb/v7e-m/fpv4-sp/hard\libc.a
LOAD c:/mesh/arm_gcc/bin/../lib/gcc/arm-none-eabi/6.3.1/../../../../arm-none-eabi/lib/thumb/v7e-m/fpv4-sp/hard\libnosys.a
END GROUP

.igot.plt       0x20003414        0x0 load address 0x000489ac
 .igot.plt      0x20003414        0x0 c:/mesh/arm_gcc/bin/../lib/gcc/arm-none-eabi/6.3.1/thumb/v7e-m/fpv4-sp/hard/crtbegin.o
                0x20003414                . = ALIGN (0x4)

.svc_data       0x20003414        0x0
                [!provide]                PROVIDE (__start_svc_data, .)
 *(.svc_data)
                [!provide]                PROVIDE (__stop_svc_data, .)

.fs_data        0x20003414        0x0
                [!provide]                PROVIDE (__start_fs_data, .)
 *(.fs_data)
                [!provide]                PROVIDE (__stop_fs_data, .)

.log_dynamic_data
                0x20003414        0x0
                [!provide]                PROVIDE (__start_log_dynamic_data, .)
 *(.log_dynamic_data)
                [!provide]                PROVIDE (__stop_log_dynamic_data, .)

.cli_sorted_cmd_ptrs
                0x20003414        0x0
                [!provide]                PROVIDE (__start_cli_sorted_cmd_ptrs, .)
 *(.cli_sorted_cmd_ptrs)
                [!provide]                PROVIDE (__stop_cli_sorted_cmd_ptrs, .)

.bss            0x20003418     0x3e54 load address 0x000489b0
                0x20003418                . = ALIGN (0x4)
                0x20003418                __bss_start__ = .
 *(.bss*)
 .bss           0x20003418       0x1c c:/mesh/arm_gcc/bin/../lib/gcc/arm-none-eabi/6.3.1/thumb/v7e-m/fpv4-sp/hard/crtbegin.o
 .bss.m_device_provisioned
                0x20003434        0x1 examples/dfu/CMakeFiles/dfu_nrf52832_xxAA_s132_6.0.0.dir/src/main.c.obj
 *fill*         0x20003435        0x3 
 .bss.m_evt_handler
                0x20003438        0x8 examples/dfu/CMakeFiles/dfu_nrf52832_xxAA_s132_6.0.0.dir/src/main.c.obj
 .bss.m_health_server
                0x20003440       0x5c examples/dfu/CMakeFiles/dfu_nrf52832_xxAA_s132_6.0.0.dir/__/__/mesh/stack/src/mesh_stack.c.obj
 .bss.m_init_params
                0x2000349c       0x24 examples/dfu/CMakeFiles/dfu_nrf52832_xxAA_s132_6.0.0.dir/__/__/mesh/stack/src/mesh_stack.c.obj
 .bss.m_device_provisioned
                0x200034c0        0x1 examples/dfu/CMakeFiles/dfu_nrf52832_xxAA_s132_6.0.0.dir/__/common/src/mesh_provisionee.c.obj
 *fill*         0x200034c1        0x3 
 .bss.m_params  0x200034c4        0xc examples/dfu/CMakeFiles/dfu_nrf52832_xxAA_s132_6.0.0.dir/__/common/src/mesh_provisionee.c.obj
 .bss.m_private_key
                0x200034d0       0x20 examples/dfu/CMakeFiles/dfu_nrf52832_xxAA_s132_6.0.0.dir/__/common/src/mesh_provisionee.c.obj
 .bss.m_prov_bearer_adv
                0x200034f0      0x1c4 examples/dfu/CMakeFiles/dfu_nrf52832_xxAA_s132_6.0.0.dir/__/common/src/mesh_provisionee.c.obj
 .bss.m_prov_ctx
                0x200036b4      0x134 examples/dfu/CMakeFiles/dfu_nrf52832_xxAA_s132_6.0.0.dir/__/common/src/mesh_provisionee.c.obj
 .bss.m_public_key
                0x200037e8       0x40 examples/dfu/CMakeFiles/dfu_nrf52832_xxAA_s132_6.0.0.dir/__/common/src/mesh_provisionee.c.obj
 .bss.m_button_handler_cb
                0x20003828        0x4 examples/dfu/CMakeFiles/dfu_nrf52832_xxAA_s132_6.0.0.dir/__/common/src/simple_hal.c.obj
 .bss.m_last_button_press
                0x2000382c        0x4 examples/dfu/CMakeFiles/dfu_nrf52832_xxAA_s132_6.0.0.dir/__/common/src/simple_hal.c.obj
 .bss.m_publish_timer
                0x20003830       0x18 examples/dfu/CMakeFiles/dfu_nrf52832_xxAA_s132_6.0.0.dir/__/__/mesh/access/src/access_publish.c.obj
 .bss.m_publish_timer_counter
                0x20003848        0x4 examples/dfu/CMakeFiles/dfu_nrf52832_xxAA_s132_6.0.0.dir/__/__/mesh/access/src/access_publish.c.obj
 .bss.m_publish_timer_running
                0x2000384c        0x1 examples/dfu/CMakeFiles/dfu_nrf52832_xxAA_s132_6.0.0.dir/__/__/mesh/access/src/access_publish.c.obj
 .bss.m_timer_resolution
                0x2000384d        0x1 examples/dfu/CMakeFiles/dfu_nrf52832_xxAA_s132_6.0.0.dir/__/__/mesh/access/src/access_publish.c.obj
 *fill*         0x2000384e        0x2 
 .bss.mp_publication_list
                0x20003850        0x4 examples/dfu/CMakeFiles/dfu_nrf52832_xxAA_s132_6.0.0.dir/__/__/mesh/access/src/access_publish.c.obj
 .bss.m_element_pool
                0x20003854        0x6 examples/dfu/CMakeFiles/dfu_nrf52832_xxAA_s132_6.0.0.dir/__/__/mesh/access/src/access.c.obj
 *fill*         0x2000385a        0x2 
 .bss.m_evt_handler
                0x2000385c        0x8 examples/dfu/CMakeFiles/dfu_nrf52832_xxAA_s132_6.0.0.dir/__/__/mesh/access/src/access.c.obj
 .bss.m_flash_manager
                0x20003864       0x24 examples/dfu/CMakeFiles/dfu_nrf52832_xxAA_s132_6.0.0.dir/__/__/mesh/access/src/access.c.obj
 .bss.m_flash_not_ready
                0x20003888        0x1 examples/dfu/CMakeFiles/dfu_nrf52832_xxAA_s132_6.0.0.dir/__/__/mesh/access/src/access.c.obj
 .bss.m_metadata_stored
                0x20003889        0x1 examples/dfu/CMakeFiles/dfu_nrf52832_xxAA_s132_6.0.0.dir/__/__/mesh/access/src/access.c.obj
 *fill*         0x2000388a        0x2 
 .bss.m_model_pool
                0x2000388c       0x68 examples/dfu/CMakeFiles/dfu_nrf52832_xxAA_s132_6.0.0.dir/__/__/mesh/access/src/access.c.obj
 .bss.m_subscription_list_pool
                0x200038f4       0x10 examples/dfu/CMakeFiles/dfu_nrf52832_xxAA_s132_6.0.0.dir/__/__/mesh/access/src/access.c.obj
 .bss.m_reliable
                0x20003904       0x74 examples/dfu/CMakeFiles/dfu_nrf52832_xxAA_s132_6.0.0.dir/__/__/mesh/access/src/access_reliable.c.obj
 .bss.m_addr_nonvirtual_allocated
                0x20003978        0x4 examples/dfu/CMakeFiles/dfu_nrf52832_xxAA_s132_6.0.0.dir/__/__/mesh/access/src/device_state_manager.c.obj
 .bss.m_addr_nonvirtual_needs_flashing
                0x2000397c        0x4 examples/dfu/CMakeFiles/dfu_nrf52832_xxAA_s132_6.0.0.dir/__/__/mesh/access/src/device_state_manager.c.obj
 .bss.m_addr_unicast_allocated
                0x20003980        0x4 examples/dfu/CMakeFiles/dfu_nrf52832_xxAA_s132_6.0.0.dir/__/__/mesh/access/src/device_state_manager.c.obj
 .bss.m_addr_unicast_needs_flashing
                0x20003984        0x4 examples/dfu/CMakeFiles/dfu_nrf52832_xxAA_s132_6.0.0.dir/__/__/mesh/access/src/device_state_manager.c.obj
 .bss.m_addr_virtual_allocated
                0x20003988        0x4 examples/dfu/CMakeFiles/dfu_nrf52832_xxAA_s132_6.0.0.dir/__/__/mesh/access/src/device_state_manager.c.obj
 .bss.m_addr_virtual_needs_flashing
                0x2000398c        0x4 examples/dfu/CMakeFiles/dfu_nrf52832_xxAA_s132_6.0.0.dir/__/__/mesh/access/src/device_state_manager.c.obj
 .bss.m_addresses
                0x20003990       0x40 examples/dfu/CMakeFiles/dfu_nrf52832_xxAA_s132_6.0.0.dir/__/__/mesh/access/src/device_state_manager.c.obj
 .bss.m_appkey_allocated
                0x200039d0        0x4 examples/dfu/CMakeFiles/dfu_nrf52832_xxAA_s132_6.0.0.dir/__/__/mesh/access/src/device_state_manager.c.obj
 .bss.m_appkey_needs_flashing
                0x200039d4        0x4 examples/dfu/CMakeFiles/dfu_nrf52832_xxAA_s132_6.0.0.dir/__/__/mesh/access/src/device_state_manager.c.obj
 .bss.m_appkeys
                0x200039d8      0x150 examples/dfu/CMakeFiles/dfu_nrf52832_xxAA_s132_6.0.0.dir/__/__/mesh/access/src/device_state_manager.c.obj
 .bss.m_devkey_allocated
                0x20003b28        0x4 examples/dfu/CMakeFiles/dfu_nrf52832_xxAA_s132_6.0.0.dir/__/__/mesh/access/src/device_state_manager.c.obj
 .bss.m_devkey_needs_flashing
                0x20003b2c        0x4 examples/dfu/CMakeFiles/dfu_nrf52832_xxAA_s132_6.0.0.dir/__/__/mesh/access/src/device_state_manager.c.obj
 .bss.m_devkeys
                0x20003b30       0x16 examples/dfu/CMakeFiles/dfu_nrf52832_xxAA_s132_6.0.0.dir/__/__/mesh/access/src/device_state_manager.c.obj
 .bss.m_flash_is_available
                0x20003b46        0x1 examples/dfu/CMakeFiles/dfu_nrf52832_xxAA_s132_6.0.0.dir/__/__/mesh/access/src/device_state_manager.c.obj
 *fill*         0x20003b47        0x1 
 .bss.m_flash_manager
                0x20003b48       0x24 examples/dfu/CMakeFiles/dfu_nrf52832_xxAA_s132_6.0.0.dir/__/__/mesh/access/src/device_state_manager.c.obj
 .bss.m_flash_mem_listener_update_all
                0x20003b6c       0x10 examples/dfu/CMakeFiles/dfu_nrf52832_xxAA_s132_6.0.0.dir/__/__/mesh/access/src/device_state_manager.c.obj
 .bss.m_has_primary_subnet
                0x20003b7c        0x1 examples/dfu/CMakeFiles/dfu_nrf52832_xxAA_s132_6.0.0.dir/__/__/mesh/access/src/device_state_manager.c.obj
 *fill*         0x20003b7d        0x3 
 .bss.m_local_unicast_addr
                0x20003b80        0x4 examples/dfu/CMakeFiles/dfu_nrf52832_xxAA_s132_6.0.0.dir/__/__/mesh/access/src/device_state_manager.c.obj
 .bss.m_mesh_evt_handler
                0x20003b84        0x8 examples/dfu/CMakeFiles/dfu_nrf52832_xxAA_s132_6.0.0.dir/__/__/mesh/access/src/device_state_manager.c.obj
 .bss.m_subnet_allocated
                0x20003b8c        0x4 examples/dfu/CMakeFiles/dfu_nrf52832_xxAA_s132_6.0.0.dir/__/__/mesh/access/src/device_state_manager.c.obj
 .bss.m_subnet_needs_flashing
                0x20003b90        0x4 examples/dfu/CMakeFiles/dfu_nrf52832_xxAA_s132_6.0.0.dir/__/__/mesh/access/src/device_state_manager.c.obj
 .bss.m_subnets
                0x20003b94      0x2a0 examples/dfu/CMakeFiles/dfu_nrf52832_xxAA_s132_6.0.0.dir/__/__/mesh/access/src/device_state_manager.c.obj
 .bss.m_virtual_addresses
                0x20003e34       0xa0 examples/dfu/CMakeFiles/dfu_nrf52832_xxAA_s132_6.0.0.dir/__/__/mesh/access/src/device_state_manager.c.obj
 .bss.m_can_receive
                0x20003ed4        0x1 examples/dfu/CMakeFiles/dfu_nrf52832_xxAA_s132_6.0.0.dir/__/__/mesh/serial/src/serial_uart.c.obj
 *fill*         0x20003ed5        0x3 
 .bss.m_char_rx_cb
                0x20003ed8        0x4 examples/dfu/CMakeFiles/dfu_nrf52832_xxAA_s132_6.0.0.dir/__/__/mesh/serial/src/serial_uart.c.obj
 .bss.m_char_tx_cb
                0x20003edc        0x4 examples/dfu/CMakeFiles/dfu_nrf52832_xxAA_s132_6.0.0.dir/__/__/mesh/serial/src/serial_uart.c.obj
 .bss.m_cur_tx_packet_index
                0x20003ee0        0x2 examples/dfu/CMakeFiles/dfu_nrf52832_xxAA_s132_6.0.0.dir/__/__/mesh/serial/src/serial_bearer.c.obj
 *fill*         0x20003ee2        0x2 
 .bss.m_event_flag
                0x20003ee4        0x4 examples/dfu/CMakeFiles/dfu_nrf52832_xxAA_s132_6.0.0.dir/__/__/mesh/serial/src/serial_bearer.c.obj
 .bss.m_ignore_rx_count
                0x20003ee8        0x2 examples/dfu/CMakeFiles/dfu_nrf52832_xxAA_s132_6.0.0.dir/__/__/mesh/serial/src/serial_bearer.c.obj
 *fill*         0x20003eea        0x2 
 .bss.m_rx_buffer
                0x20003eec       0xd0 examples/dfu/CMakeFiles/dfu_nrf52832_xxAA_s132_6.0.0.dir/__/__/mesh/serial/src/serial_bearer.c.obj
 .bss.m_rx_packet_buf
                0x20003fbc        0xc examples/dfu/CMakeFiles/dfu_nrf52832_xxAA_s132_6.0.0.dir/__/__/mesh/serial/src/serial_bearer.c.obj
 .bss.m_serial_state
                0x20003fc8        0x1 examples/dfu/CMakeFiles/dfu_nrf52832_xxAA_s132_6.0.0.dir/__/__/mesh/serial/src/serial_bearer.c.obj
 *fill*         0x20003fc9        0x1 
 .bss.m_stored_pac_len
                0x20003fca        0x2 examples/dfu/CMakeFiles/dfu_nrf52832_xxAA_s132_6.0.0.dir/__/__/mesh/serial/src/serial_bearer.c.obj
 .bss.m_tx_buffer
                0x20003fcc       0xd0 examples/dfu/CMakeFiles/dfu_nrf52832_xxAA_s132_6.0.0.dir/__/__/mesh/serial/src/serial_bearer.c.obj
 .bss.m_tx_packet_buf
                0x2000409c        0xc examples/dfu/CMakeFiles/dfu_nrf52832_xxAA_s132_6.0.0.dir/__/__/mesh/serial/src/serial_bearer.c.obj
 .bss.mp_current_rx_packet
                0x200040a8        0x4 examples/dfu/CMakeFiles/dfu_nrf52832_xxAA_s132_6.0.0.dir/__/__/mesh/serial/src/serial_bearer.c.obj
 .bss.mp_current_tx_packet
                0x200040ac        0x4 examples/dfu/CMakeFiles/dfu_nrf52832_xxAA_s132_6.0.0.dir/__/__/mesh/serial/src/serial_bearer.c.obj
 .bss.rx_index.11327
                0x200040b0        0x2 examples/dfu/CMakeFiles/dfu_nrf52832_xxAA_s132_6.0.0.dir/__/__/mesh/serial/src/serial_bearer.c.obj
 .bss.m_cmd_handler_scheduled
                0x200040b2        0x1 examples/dfu/CMakeFiles/dfu_nrf52832_xxAA_s132_6.0.0.dir/__/__/mesh/serial/src/serial.c.obj
 .bss.m_state   0x200040b3        0x1 examples/dfu/CMakeFiles/dfu_nrf52832_xxAA_s132_6.0.0.dir/__/__/mesh/serial/src/serial.c.obj
 .bss.m_pb_adv_contexts
                0x200040b4      0x388 examples/dfu/CMakeFiles/dfu_nrf52832_xxAA_s132_6.0.0.dir/__/__/mesh/serial/src/serial_handler_prov.c.obj
 .bss.m_private_key
                0x2000443c       0x20 examples/dfu/CMakeFiles/dfu_nrf52832_xxAA_s132_6.0.0.dir/__/__/mesh/serial/src/serial_handler_prov.c.obj
 .bss.m_prov_contexts
                0x2000445c      0x268 examples/dfu/CMakeFiles/dfu_nrf52832_xxAA_s132_6.0.0.dir/__/__/mesh/serial/src/serial_handler_prov.c.obj
 .bss.m_provisioning_caps
                0x200046c4        0xb examples/dfu/CMakeFiles/dfu_nrf52832_xxAA_s132_6.0.0.dir/__/__/mesh/serial/src/serial_handler_prov.c.obj
 *fill*         0x200046cf        0x1 
 .bss.m_public_key
                0x200046d0       0x40 examples/dfu/CMakeFiles/dfu_nrf52832_xxAA_s132_6.0.0.dir/__/__/mesh/serial/src/serial_handler_prov.c.obj
 .bss.m_scanning_running
                0x20004710        0x1 examples/dfu/CMakeFiles/dfu_nrf52832_xxAA_s132_6.0.0.dir/__/__/mesh/serial/src/serial_handler_prov.c.obj
 *fill*         0x20004711        0x3 
 .bss.m_evt_handler
                0x20004714        0x8 examples/dfu/CMakeFiles/dfu_nrf52832_xxAA_s132_6.0.0.dir/__/__/mesh/serial/src/serial_handler_dfu.c.obj
 .bss.m_evt_handler
                0x2000471c        0x8 examples/dfu/CMakeFiles/dfu_nrf52832_xxAA_s132_6.0.0.dir/__/__/mesh/serial/src/serial_handler_mesh.c.obj
 .bss.p_serial_evt.11513
                0x20004724        0x4 examples/dfu/CMakeFiles/dfu_nrf52832_xxAA_s132_6.0.0.dir/__/__/mesh/serial/src/serial_handler_mesh.c.obj
 .bss.m_models_list
                0x20004728       0x18 examples/dfu/CMakeFiles/dfu_nrf52832_xxAA_s132_6.0.0.dir/__/__/mesh/serial/src/serial_handler_models.c.obj
 .bss.m_beacons
                0x20004740      0x138 examples/dfu/CMakeFiles/dfu_nrf52832_xxAA_s132_6.0.0.dir/__/__/mesh/serial/src/serial_handler_device.c.obj
 .bss.m_app_rx_cb
                0x20004878        0x4 examples/dfu/CMakeFiles/dfu_nrf52832_xxAA_s132_6.0.0.dir/__/__/mesh/serial/src/serial_handler_app.c.obj
 .bss.m_evt_cb  0x2000487c        0x4 examples/dfu/CMakeFiles/dfu_nrf52832_xxAA_s132_6.0.0.dir/__/__/models/config/src/config_server.c.obj
 .bss.m_heartbeat_publication
                0x20004880       0x14 examples/dfu/CMakeFiles/dfu_nrf52832_xxAA_s132_6.0.0.dir/__/__/models/config/src/config_server.c.obj
 .bss.m_node_reset_pending
                0x20004894        0x1 examples/dfu/CMakeFiles/dfu_nrf52832_xxAA_s132_6.0.0.dir/__/__/models/config/src/config_server.c.obj
 *fill*         0x20004895        0x3 
 .bss.m_attention_timer
                0x20004898       0x18 examples/dfu/CMakeFiles/dfu_nrf52832_xxAA_s132_6.0.0.dir/__/__/models/health/src/health_server.c.obj
 .bss.mp_attention_list
                0x200048b0        0x4 examples/dfu/CMakeFiles/dfu_nrf52832_xxAA_s132_6.0.0.dir/__/__/models/health/src/health_server.c.obj
 .bss.m_event_handler
                0x200048b4        0x4 examples/dfu/CMakeFiles/dfu_nrf52832_xxAA_s132_6.0.0.dir/__/__/mesh/prov/src/prov_beacon.c.obj
 .bss.m_offload_ecdh
                0x200048b8        0x1 examples/dfu/CMakeFiles/dfu_nrf52832_xxAA_s132_6.0.0.dir/__/__/mesh/prov/src/prov_utils.c.obj
 *fill*         0x200048b9        0x3 
 .bss.mp_bearer_head
                0x200048bc        0x4 examples/dfu/CMakeFiles/dfu_nrf52832_xxAA_s132_6.0.0.dir/__/__/mesh/prov/src/prov_bearer_adv.c.obj
 .bss.m_adv_packet
                0x200048c0       0x28 examples/dfu/CMakeFiles/dfu_nrf52832_xxAA_s132_6.0.0.dir/__/__/mesh/dfu/src/nrf_mesh_dfu.c.obj
 .bss.m_broadcast
                0x200048e8       0x38 examples/dfu/CMakeFiles/dfu_nrf52832_xxAA_s132_6.0.0.dir/__/__/mesh/dfu/src/nrf_mesh_dfu.c.obj
 .bss.m_prng    0x20004920       0x10 examples/dfu/CMakeFiles/dfu_nrf52832_xxAA_s132_6.0.0.dir/__/__/mesh/dfu/src/nrf_mesh_dfu.c.obj
 .bss.m_timer_evt
                0x20004930       0x18 examples/dfu/CMakeFiles/dfu_nrf52832_xxAA_s132_6.0.0.dir/__/__/mesh/dfu/src/nrf_mesh_dfu.c.obj
 .bss.m_transfer_state
                0x20004948       0x12 examples/dfu/CMakeFiles/dfu_nrf52832_xxAA_s132_6.0.0.dir/__/__/mesh/dfu/src/nrf_mesh_dfu.c.obj
 *fill*         0x2000495a        0x2 
 .bss.m_tx_slots
                0x2000495c      0x120 examples/dfu/CMakeFiles/dfu_nrf52832_xxAA_s132_6.0.0.dir/__/__/mesh/dfu/src/nrf_mesh_dfu.c.obj
 .bss.m_tx_timer_evt
                0x20004a7c       0x18 examples/dfu/CMakeFiles/dfu_nrf52832_xxAA_s132_6.0.0.dir/__/__/mesh/dfu/src/nrf_mesh_dfu.c.obj
 .bss.mp_curr_fwid
                0x20004a94        0x4 examples/dfu/CMakeFiles/dfu_nrf52832_xxAA_s132_6.0.0.dir/__/__/mesh/dfu/src/nrf_mesh_dfu.c.obj
 .bss.m_uuid    0x20004a98       0x10 examples/dfu/CMakeFiles/dfu_nrf52832_xxAA_s132_6.0.0.dir/__/__/mesh/core/src/nrf_mesh_configure.c.obj
 .bss.m_msg_cache
                0x20004aa8      0x100 examples/dfu/CMakeFiles/dfu_nrf52832_xxAA_s132_6.0.0.dir/__/__/mesh/core/src/msg_cache.c.obj
 .bss.m_msg_cache_head
                0x20004ba8        0x4 examples/dfu/CMakeFiles/dfu_nrf52832_xxAA_s132_6.0.0.dir/__/__/mesh/core/src/msg_cache.c.obj
 .bss.m_control_packet_consumer_count
                0x20004bac        0x4 examples/dfu/CMakeFiles/dfu_nrf52832_xxAA_s132_6.0.0.dir/__/__/mesh/core/src/transport.c.obj
 .bss.m_control_packet_consumers
                0x20004bb0        0x8 examples/dfu/CMakeFiles/dfu_nrf52832_xxAA_s132_6.0.0.dir/__/__/mesh/core/src/transport.c.obj
 .bss.m_sar_alloc
                0x20004bb8        0x4 examples/dfu/CMakeFiles/dfu_nrf52832_xxAA_s132_6.0.0.dir/__/__/mesh/core/src/transport.c.obj
 .bss.m_sar_process_flag
                0x20004bbc        0x4 examples/dfu/CMakeFiles/dfu_nrf52832_xxAA_s132_6.0.0.dir/__/__/mesh/core/src/transport.c.obj
 .bss.m_sar_release
                0x20004bc0        0x4 examples/dfu/CMakeFiles/dfu_nrf52832_xxAA_s132_6.0.0.dir/__/__/mesh/core/src/transport.c.obj
 .bss.m_sar_session_cache
                0x20004bc4       0x40 examples/dfu/CMakeFiles/dfu_nrf52832_xxAA_s132_6.0.0.dir/__/__/mesh/core/src/transport.c.obj
 .bss.m_sar_session_cache_head
                0x20004c04        0x4 examples/dfu/CMakeFiles/dfu_nrf52832_xxAA_s132_6.0.0.dir/__/__/mesh/core/src/transport.c.obj
 .bss.m_trs_config
                0x20004c08       0x18 examples/dfu/CMakeFiles/dfu_nrf52832_xxAA_s132_6.0.0.dir/__/__/mesh/core/src/transport.c.obj
 .bss.m_trs_sar_sessions
                0x20004c20      0x1b0 examples/dfu/CMakeFiles/dfu_nrf52832_xxAA_s132_6.0.0.dir/__/__/mesh/core/src/transport.c.obj
 .bss.mp_evt_handlers_head
                0x20004dd0        0x4 examples/dfu/CMakeFiles/dfu_nrf52832_xxAA_s132_6.0.0.dir/__/__/mesh/core/src/event.c.obj
 .bss.m_defrag  0x20004dd4       0x1c examples/dfu/CMakeFiles/dfu_nrf52832_xxAA_s132_6.0.0.dir/__/__/mesh/core/src/flash_manager_defrag.c.obj
 .bss.m_token   0x20004df0        0x2 examples/dfu/CMakeFiles/dfu_nrf52832_xxAA_s132_6.0.0.dir/__/__/mesh/core/src/flash_manager_defrag.c.obj
 *fill*         0x20004df2        0x2 
 .bss.mp_recovery_area
                0x20004df4        0x4 examples/dfu/CMakeFiles/dfu_nrf52832_xxAA_s132_6.0.0.dir/__/__/mesh/core/src/flash_manager_defrag.c.obj
 .bss.p_null_ptr.10241
                0x20004df8        0x4 examples/dfu/CMakeFiles/dfu_nrf52832_xxAA_s132_6.0.0.dir/__/__/mesh/core/src/flash_manager_defrag.c.obj
 .bss.m_pool    0x20004dfc     0x1000 examples/dfu/CMakeFiles/dfu_nrf52832_xxAA_s132_6.0.0.dir/__/__/mesh/core/src/packet_mgr.c.obj
 .bss.mp_free_head
                0x20005dfc        0x4 examples/dfu/CMakeFiles/dfu_nrf52832_xxAA_s132_6.0.0.dir/__/__/mesh/core/src/packet_mgr.c.obj
 .bss.iv_state_set.9896
                0x20005e00        0x1 examples/dfu/CMakeFiles/dfu_nrf52832_xxAA_s132_6.0.0.dir/__/__/mesh/core/src/net_state.c.obj
 *fill*         0x20005e01        0x3 
 .bss.lock_count.9872
                0x20005e04        0x4 examples/dfu/CMakeFiles/dfu_nrf52832_xxAA_s132_6.0.0.dir/__/__/mesh/core/src/net_state.c.obj
 .bss.m_flash_manager
                0x20005e08       0x24 examples/dfu/CMakeFiles/dfu_nrf52832_xxAA_s132_6.0.0.dir/__/__/mesh/core/src/net_state.c.obj
 .bss.m_iv_update_timer
                0x20005e2c       0x18 examples/dfu/CMakeFiles/dfu_nrf52832_xxAA_s132_6.0.0.dir/__/__/mesh/core/src/net_state.c.obj
 .bss.m_mesh_evt_handler
                0x20005e44        0x8 examples/dfu/CMakeFiles/dfu_nrf52832_xxAA_s132_6.0.0.dir/__/__/mesh/core/src/net_state.c.obj
 .bss.m_net_state
                0x20005e4c       0x14 examples/dfu/CMakeFiles/dfu_nrf52832_xxAA_s132_6.0.0.dir/__/__/mesh/core/src/net_state.c.obj
 .bss.m_seqnum_allocation_in_progress
                0x20005e60        0x1 examples/dfu/CMakeFiles/dfu_nrf52832_xxAA_s132_6.0.0.dir/__/__/mesh/core/src/net_state.c.obj
 .bss.m_test_mode
                0x20005e61        0x1 examples/dfu/CMakeFiles/dfu_nrf52832_xxAA_s132_6.0.0.dir/__/__/mesh/core/src/net_state.c.obj
 *fill*         0x20005e62        0x2 
 .bss.m_event_flag
                0x20005e64        0x4 examples/dfu/CMakeFiles/dfu_nrf52832_xxAA_s132_6.0.0.dir/__/__/mesh/core/src/mesh_flash.c.obj
 .bss.m_suspended
                0x20005e68        0x1 examples/dfu/CMakeFiles/dfu_nrf52832_xxAA_s132_6.0.0.dir/__/__/mesh/core/src/mesh_flash.c.obj
 *fill*         0x20005e69        0x3 
 .bss.m_users   0x20005e6c      0x228 examples/dfu/CMakeFiles/dfu_nrf52832_xxAA_s132_6.0.0.dir/__/__/mesh/core/src/mesh_flash.c.obj
 .bss.suspend_count.10123
                0x20006094        0x4 examples/dfu/CMakeFiles/dfu_nrf52832_xxAA_s132_6.0.0.dir/__/__/mesh/core/src/mesh_flash.c.obj
 .bss.m_is_enabled
                0x20006098        0x1 examples/dfu/CMakeFiles/dfu_nrf52832_xxAA_s132_6.0.0.dir/__/__/mesh/core/src/nrf_mesh.c.obj
 .bss.m_is_initialized
                0x20006099        0x1 examples/dfu/CMakeFiles/dfu_nrf52832_xxAA_s132_6.0.0.dir/__/__/mesh/core/src/nrf_mesh.c.obj
 *fill*         0x2000609a        0x2 
 .bss.m_rx_cb   0x2000609c        0x4 examples/dfu/CMakeFiles/dfu_nrf52832_xxAA_s132_6.0.0.dir/__/__/mesh/core/src/nrf_mesh.c.obj
 .bss.m_128buf  0x200060a0       0x10 examples/dfu/CMakeFiles/dfu_nrf52832_xxAA_s132_6.0.0.dir/__/__/mesh/core/src/aes_cmac.c.obj
 .bss.m_subkey1
                0x200060b0       0x10 examples/dfu/CMakeFiles/dfu_nrf52832_xxAA_s132_6.0.0.dir/__/__/mesh/core/src/aes_cmac.c.obj
 .bss.m_subkey2
                0x200060c0       0x10 examples/dfu/CMakeFiles/dfu_nrf52832_xxAA_s132_6.0.0.dir/__/__/mesh/core/src/aes_cmac.c.obj
 .bss.m_event_flag
                0x200060d0        0x4 examples/dfu/CMakeFiles/dfu_nrf52832_xxAA_s132_6.0.0.dir/__/__/mesh/core/src/timer_scheduler.c.obj
 .bss.m_scheduler
                0x200060d4       0x10 examples/dfu/CMakeFiles/dfu_nrf52832_xxAA_s132_6.0.0.dir/__/__/mesh/core/src/timer_scheduler.c.obj
 .bss.m_attributes
                0x200060e4        0x3 examples/dfu/CMakeFiles/dfu_nrf52832_xxAA_s132_6.0.0.dir/__/__/mesh/core/src/timer.c.obj
 *fill*         0x200060e7        0x1 
 .bss.m_callbacks
                0x200060e8        0xc examples/dfu/CMakeFiles/dfu_nrf52832_xxAA_s132_6.0.0.dir/__/__/mesh/core/src/timer.c.obj
 .bss.m_is_in_ts
                0x200060f4        0x1 examples/dfu/CMakeFiles/dfu_nrf52832_xxAA_s132_6.0.0.dir/__/__/mesh/core/src/timer.c.obj
 *fill*         0x200060f5        0x3 
 .bss.m_reference_time
                0x200060f8        0x4 examples/dfu/CMakeFiles/dfu_nrf52832_xxAA_s132_6.0.0.dir/__/__/mesh/core/src/timer.c.obj
 .bss.m_timeouts
                0x200060fc        0xc examples/dfu/CMakeFiles/dfu_nrf52832_xxAA_s132_6.0.0.dir/__/__/mesh/core/src/timer.c.obj
 .bss.m_timer_mut
                0x20006108        0x4 examples/dfu/CMakeFiles/dfu_nrf52832_xxAA_s132_6.0.0.dir/__/__/mesh/core/src/timer.c.obj
 .bss.m_ts_end_time
                0x2000610c        0x4 examples/dfu/CMakeFiles/dfu_nrf52832_xxAA_s132_6.0.0.dir/__/__/mesh/core/src/timer.c.obj
 .bss.mp_ppi_tasks
                0x20006110        0xc examples/dfu/CMakeFiles/dfu_nrf52832_xxAA_s132_6.0.0.dir/__/__/mesh/core/src/timer.c.obj
 .bss.m_current_time
                0x2000611c        0x4 examples/dfu/CMakeFiles/dfu_nrf52832_xxAA_s132_6.0.0.dir/__/__/mesh/core/src/ticker.c.obj
 .bss.m_timer   0x20006120       0x18 examples/dfu/CMakeFiles/dfu_nrf52832_xxAA_s132_6.0.0.dir/__/__/mesh/core/src/ticker.c.obj
 .bss.m_current_timeslot
                0x20006138       0x1c examples/dfu/CMakeFiles/dfu_nrf52832_xxAA_s132_6.0.0.dir/__/__/mesh/core/src/timeslot.c.obj
 .bss.m_lfclk_ppm
                0x20006154        0x4 examples/dfu/CMakeFiles/dfu_nrf52832_xxAA_s132_6.0.0.dir/__/__/mesh/core/src/timeslot.c.obj
 .bss.m_radio_request_earliest
                0x20006158       0x10 examples/dfu/CMakeFiles/dfu_nrf52832_xxAA_s132_6.0.0.dir/__/__/mesh/core/src/timeslot.c.obj
 .bss.m_state_lock
                0x20006168        0x1 examples/dfu/CMakeFiles/dfu_nrf52832_xxAA_s132_6.0.0.dir/__/__/mesh/core/src/timeslot.c.obj
 .bss.m_timeslot_forced_command
                0x20006169        0x1 examples/dfu/CMakeFiles/dfu_nrf52832_xxAA_s132_6.0.0.dir/__/__/mesh/core/src/timeslot.c.obj
 *fill*         0x2000616a        0x6 
 .bss.s_last_rtc_value.9299
                0x20006170        0x8 examples/dfu/CMakeFiles/dfu_nrf52832_xxAA_s132_6.0.0.dir/__/__/mesh/core/src/timeslot.c.obj
 .bss.m_bearer_event_fifo
                0x20006178       0x14 examples/dfu/CMakeFiles/dfu_nrf52832_xxAA_s132_6.0.0.dir/__/__/mesh/core/src/bearer_event.c.obj
 .bss.m_bearer_event_fifo_buffer
                0x2000618c      0x100 examples/dfu/CMakeFiles/dfu_nrf52832_xxAA_s132_6.0.0.dir/__/__/mesh/core/src/bearer_event.c.obj
 .bss.m_critical
                0x2000628c        0x4 examples/dfu/CMakeFiles/dfu_nrf52832_xxAA_s132_6.0.0.dir/__/__/mesh/core/src/bearer_event.c.obj
 .bss.m_flag_count
                0x20006290        0x4 examples/dfu/CMakeFiles/dfu_nrf52832_xxAA_s132_6.0.0.dir/__/__/mesh/core/src/bearer_event.c.obj
 .bss.m_flag_event_callbacks
                0x20006294       0x20 examples/dfu/CMakeFiles/dfu_nrf52832_xxAA_s132_6.0.0.dir/__/__/mesh/core/src/bearer_event.c.obj
 .bss.m_flags   0x200062b4        0x4 examples/dfu/CMakeFiles/dfu_nrf52832_xxAA_s132_6.0.0.dir/__/__/mesh/core/src/bearer_event.c.obj
 .bss.m_irq_priority
                0x200062b8        0x1 examples/dfu/CMakeFiles/dfu_nrf52832_xxAA_s132_6.0.0.dir/__/__/mesh/core/src/bearer_event.c.obj
 *fill*         0x200062b9        0x3 
 .bss.m_sequential_event_queue
                0x200062bc        0x8 examples/dfu/CMakeFiles/dfu_nrf52832_xxAA_s132_6.0.0.dir/__/__/mesh/core/src/bearer_event.c.obj
 .bss.s_recursion_guard.9430
                0x200062c4        0x1 examples/dfu/CMakeFiles/dfu_nrf52832_xxAA_s132_6.0.0.dir/__/__/mesh/core/src/bearer_event.c.obj
 *fill*         0x200062c5        0x3 
 .bss.m_relay_check_cb
                0x200062c8        0x4 examples/dfu/CMakeFiles/dfu_nrf52832_xxAA_s132_6.0.0.dir/__/__/mesh/core/src/network.c.obj
 .bss.m_relay_enable
                0x200062cc        0x1 examples/dfu/CMakeFiles/dfu_nrf52832_xxAA_s132_6.0.0.dir/__/__/mesh/core/src/network.c.obj
 *fill*         0x200062cd        0x3 
 .bss.m_action_queue
                0x200062d0        0xc examples/dfu/CMakeFiles/dfu_nrf52832_xxAA_s132_6.0.0.dir/__/__/mesh/core/src/flash_manager.c.obj
 .bss.m_action_queue_buffer
                0x200062dc      0x104 examples/dfu/CMakeFiles/dfu_nrf52832_xxAA_s132_6.0.0.dir/__/__/mesh/core/src/flash_manager.c.obj
 .bss.m_action_state
                0x200063e0        0x1 examples/dfu/CMakeFiles/dfu_nrf52832_xxAA_s132_6.0.0.dir/__/__/mesh/core/src/flash_manager.c.obj
 *fill*         0x200063e1        0x3 
 .bss.m_memory_listener_queue
                0x200063e4        0x8 examples/dfu/CMakeFiles/dfu_nrf52832_xxAA_s132_6.0.0.dir/__/__/mesh/core/src/flash_manager.c.obj
 .bss.m_processing_flag
                0x200063ec        0x4 examples/dfu/CMakeFiles/dfu_nrf52832_xxAA_s132_6.0.0.dir/__/__/mesh/core/src/flash_manager.c.obj
 .bss.m_queue_empty_cb
                0x200063f0        0x4 examples/dfu/CMakeFiles/dfu_nrf52832_xxAA_s132_6.0.0.dir/__/__/mesh/core/src/flash_manager.c.obj
 .bss.m_state   0x200063f4        0x1 examples/dfu/CMakeFiles/dfu_nrf52832_xxAA_s132_6.0.0.dir/__/__/mesh/core/src/flash_manager.c.obj
 *fill*         0x200063f5        0x1 
 .bss.m_token   0x200063f6        0x2 examples/dfu/CMakeFiles/dfu_nrf52832_xxAA_s132_6.0.0.dir/__/__/mesh/core/src/flash_manager.c.obj
 .bss.p_current.11149
                0x200063f8        0x4 examples/dfu/CMakeFiles/dfu_nrf52832_xxAA_s132_6.0.0.dir/__/__/mesh/core/src/flash_manager.c.obj
 .bss.result.11150
                0x200063fc        0x1 examples/dfu/CMakeFiles/dfu_nrf52832_xxAA_s132_6.0.0.dir/__/__/mesh/core/src/flash_manager.c.obj
 .bss.m_cache_index
                0x200063fd        0x1 examples/dfu/CMakeFiles/dfu_nrf52832_xxAA_s132_6.0.0.dir/__/__/mesh/core/src/replay_cache.c.obj
 *fill*         0x200063fe        0x2 
 .bss.m_replay_cache
                0x20006400      0x200 examples/dfu/CMakeFiles/dfu_nrf52832_xxAA_s132_6.0.0.dir/__/__/mesh/core/src/replay_cache.c.obj
 .bss.m_bearer_count
                0x20006600        0x1 examples/dfu/CMakeFiles/dfu_nrf52832_xxAA_s132_6.0.0.dir/__/__/mesh/core/src/core_tx.c.obj
 *fill*         0x20006601        0x3 
 .bss.m_tx_complete_callback
                0x20006604        0x4 examples/dfu/CMakeFiles/dfu_nrf52832_xxAA_s132_6.0.0.dir/__/__/mesh/core/src/core_tx.c.obj
 .bss.mp_bearers
                0x20006608        0x4 examples/dfu/CMakeFiles/dfu_nrf52832_xxAA_s132_6.0.0.dir/__/__/mesh/core/src/core_tx.c.obj
 .bss.m_hb_core_evt_handler
                0x2000660c        0x8 examples/dfu/CMakeFiles/dfu_nrf52832_xxAA_s132_6.0.0.dir/__/__/mesh/core/src/heartbeat.c.obj
 .bss.m_hb_pending_feat_msg
                0x20006614        0x1 examples/dfu/CMakeFiles/dfu_nrf52832_xxAA_s132_6.0.0.dir/__/__/mesh/core/src/heartbeat.c.obj
 .bss.m_hb_pending_pub_msg
                0x20006615        0x1 examples/dfu/CMakeFiles/dfu_nrf52832_xxAA_s132_6.0.0.dir/__/__/mesh/core/src/heartbeat.c.obj
 .bss.m_heartbeat_init_done
                0x20006616        0x1 examples/dfu/CMakeFiles/dfu_nrf52832_xxAA_s132_6.0.0.dir/__/__/mesh/core/src/heartbeat.c.obj
 *fill*         0x20006617        0x1 
 .bss.m_heartbeat_subscription
                0x20006618       0x10 examples/dfu/CMakeFiles/dfu_nrf52832_xxAA_s132_6.0.0.dir/__/__/mesh/core/src/heartbeat.c.obj
 .bss.m_publication_count_decrement_cb
                0x20006628        0x4 examples/dfu/CMakeFiles/dfu_nrf52832_xxAA_s132_6.0.0.dir/__/__/mesh/core/src/heartbeat.c.obj
 .bss.m_publication_get_cb
                0x2000662c        0x4 examples/dfu/CMakeFiles/dfu_nrf52832_xxAA_s132_6.0.0.dir/__/__/mesh/core/src/heartbeat.c.obj
 .bss.m_publication_timer
                0x20006630       0x1c examples/dfu/CMakeFiles/dfu_nrf52832_xxAA_s132_6.0.0.dir/__/__/mesh/core/src/heartbeat.c.obj
 .bss.m_subscription_timer
                0x2000664c       0x18 examples/dfu/CMakeFiles/dfu_nrf52832_xxAA_s132_6.0.0.dir/__/__/mesh/core/src/heartbeat.c.obj
 .bss.m_adv     0x20006664       0x98 examples/dfu/CMakeFiles/dfu_nrf52832_xxAA_s132_6.0.0.dir/__/__/mesh/core/src/net_beacon.c.obj
 .bss.m_adv_buf
                0x200066fc       0x34 examples/dfu/CMakeFiles/dfu_nrf52832_xxAA_s132_6.0.0.dir/__/__/mesh/core/src/net_beacon.c.obj
 .bss.m_beacon_salt
                0x20006730       0x10 examples/dfu/CMakeFiles/dfu_nrf52832_xxAA_s132_6.0.0.dir/__/__/mesh/core/src/net_beacon.c.obj
 .bss.m_enabled
                0x20006740        0x1 examples/dfu/CMakeFiles/dfu_nrf52832_xxAA_s132_6.0.0.dir/__/__/mesh/core/src/net_beacon.c.obj
 *fill*         0x20006741        0x3 
 .bss.m_tx_timer
                0x20006744       0x18 examples/dfu/CMakeFiles/dfu_nrf52832_xxAA_s132_6.0.0.dir/__/__/mesh/core/src/net_beacon.c.obj
 .bss.mp_beacon_info
                0x2000675c        0x4 examples/dfu/CMakeFiles/dfu_nrf52832_xxAA_s132_6.0.0.dir/__/__/mesh/core/src/net_beacon.c.obj
 .bss.m_bearer  0x20006760        0xc examples/dfu/CMakeFiles/dfu_nrf52832_xxAA_s132_6.0.0.dir/__/__/mesh/core/src/core_tx_adv.c.obj
 .bss.m_bearer_roles
                0x2000676c      0x138 examples/dfu/CMakeFiles/dfu_nrf52832_xxAA_s132_6.0.0.dir/__/__/mesh/core/src/core_tx_adv.c.obj
 .bss.m_current_alloc
                0x200068a4        0x8 examples/dfu/CMakeFiles/dfu_nrf52832_xxAA_s132_6.0.0.dir/__/__/mesh/core/src/core_tx_adv.c.obj
 .bss.m_originator_adv_packet_buffer
                0x200068ac      0x100 examples/dfu/CMakeFiles/dfu_nrf52832_xxAA_s132_6.0.0.dir/__/__/mesh/core/src/core_tx_adv.c.obj
 .bss.m_relay_adv_packet_buffer
                0x200069ac       0x80 examples/dfu/CMakeFiles/dfu_nrf52832_xxAA_s132_6.0.0.dir/__/__/mesh/core/src/core_tx_adv.c.obj
 .bss.m_subscribers
                0x20006a2c        0x4 examples/dfu/CMakeFiles/dfu_nrf52832_xxAA_s132_6.0.0.dir/__/__/mesh/bearer/src/ad_listener.c.obj
 .bss.m_adtype_filter
                0x20006a30       0x38 examples/dfu/CMakeFiles/dfu_nrf52832_xxAA_s132_6.0.0.dir/__/__/mesh/bearer/src/ad_type_filter.c.obj
 .bss.m_adv_prng
                0x20006a68       0x10 examples/dfu/CMakeFiles/dfu_nrf52832_xxAA_s132_6.0.0.dir/__/__/mesh/bearer/src/advertiser.c.obj
 .bss.m_action_queue
                0x20006a78        0x8 examples/dfu/CMakeFiles/dfu_nrf52832_xxAA_s132_6.0.0.dir/__/__/mesh/bearer/src/bearer_handler.c.obj
 .bss.m_end_time
                0x20006a80        0x4 examples/dfu/CMakeFiles/dfu_nrf52832_xxAA_s132_6.0.0.dir/__/__/mesh/bearer/src/bearer_handler.c.obj
 .bss.m_scanner_is_active
                0x20006a84        0x1 examples/dfu/CMakeFiles/dfu_nrf52832_xxAA_s132_6.0.0.dir/__/__/mesh/bearer/src/bearer_handler.c.obj
 .bss.m_stopped
                0x20006a85        0x1 examples/dfu/CMakeFiles/dfu_nrf52832_xxAA_s132_6.0.0.dir/__/__/mesh/bearer/src/bearer_handler.c.obj
 *fill*         0x20006a86        0x2 
 .bss.mp_action
                0x20006a88        0x4 examples/dfu/CMakeFiles/dfu_nrf52832_xxAA_s132_6.0.0.dir/__/__/mesh/bearer/src/bearer_handler.c.obj
 .bss.m_next_channel_index
                0x20006a8c        0x1 examples/dfu/CMakeFiles/dfu_nrf52832_xxAA_s132_6.0.0.dir/__/__/mesh/bearer/src/broadcast.c.obj
 *fill*         0x20006a8d        0x3 
 .bss.m_accepted_amount
                0x20006a90        0x4 examples/dfu/CMakeFiles/dfu_nrf52832_xxAA_s132_6.0.0.dir/__/__/mesh/bearer/src/filter_engine.c.obj
 .bss.m_filter_list_head
                0x20006a94        0x4 examples/dfu/CMakeFiles/dfu_nrf52832_xxAA_s132_6.0.0.dir/__/__/mesh/bearer/src/filter_engine.c.obj
 .bss.m_scanner
                0x20006a98      0x290 examples/dfu/CMakeFiles/dfu_nrf52832_xxAA_s132_6.0.0.dir/__/__/mesh/bearer/src/scanner.c.obj
 .bss._acDownBuffer
                0x20006d28       0x80 external/rtt/librtt_nrf52832_xxAA.a(SEGGER_RTT.c.obj)
 .bss._acUpBuffer
                0x20006da8      0x400 external/rtt/librtt_nrf52832_xxAA.a(SEGGER_RTT.c.obj)
 .bss.__malloc_free_list
                0x200071a8        0x4 c:/mesh/arm_gcc/bin/../lib/gcc/arm-none-eabi/6.3.1/../../../../arm-none-eabi/lib/thumb/v7e-m/fpv4-sp/hard\libc_nano.a(lib_a-nano-mallocr.o)
                0x200071a8                __malloc_free_list
 .bss.__malloc_sbrk_start
                0x200071ac        0x4 c:/mesh/arm_gcc/bin/../lib/gcc/arm-none-eabi/6.3.1/../../../../arm-none-eabi/lib/thumb/v7e-m/fpv4-sp/hard\libc_nano.a(lib_a-nano-mallocr.o)
                0x200071ac                __malloc_sbrk_start
 .bss.heap_end.5239
                0x200071b0        0x4 c:/mesh/arm_gcc/bin/../lib/gcc/arm-none-eabi/6.3.1/../../../../arm-none-eabi/lib/thumb/v7e-m/fpv4-sp/hard\libnosys.a(sbrk.o)
 *(COMMON)
 COMMON         0x200071b4        0x8 examples/dfu/CMakeFiles/dfu_nrf52832_xxAA_s132_6.0.0.dir/src/main.c.obj
                0x200071b4                bank_addr
                0x200071b8                rom_length
 COMMON         0x200071bc        0xc examples/dfu/CMakeFiles/dfu_nrf52832_xxAA_s132_6.0.0.dir/__/common/src/mesh_softdevice_init.c.obj
                0x200071bc                nrf_nvic_state
 COMMON         0x200071c8        0x4 examples/dfu/CMakeFiles/dfu_nrf52832_xxAA_s132_6.0.0.dir/__/__/mesh/dfu/src/nrf_mesh_dfu.c.obj
                0x200071c8                m_cmd_handler
 COMMON         0x200071cc       0x24 examples/dfu/CMakeFiles/dfu_nrf52832_xxAA_s132_6.0.0.dir/__/__/mesh/core/src/core_tx.c.obj
                0x200071cc                m_packet
 COMMON         0x200071f0       0x78 external/rtt/librtt_nrf52832_xxAA.a(SEGGER_RTT.c.obj)
                0x200071f0                _SEGGER_RTT
 COMMON         0x20007268        0x4 c:/mesh/arm_gcc/bin/../lib/gcc/arm-none-eabi/6.3.1/../../../../arm-none-eabi/lib/thumb/v7e-m/fpv4-sp/hard\libc_nano.a(lib_a-reent.o)
                0x20007268                errno
                0x2000726c                . = ALIGN (0x4)
                0x2000726c                __bss_end__ = .

.heap           0x20007270     0x2000
                0x20007270                __HeapBase = .
                0x20007270                __end__ = .
                0x20007270                PROVIDE (end, .)
 *(.heap*)
 .heap          0x20007270     0x2000 examples/dfu/CMakeFiles/dfu_nrf52832_xxAA_s132_6.0.0.dir/C_/ver/mod/nRF5_SDK_15.0.0_a53641a/modules/nrfx/mdk/gcc_startup_nrf52.S.obj
                0x20009270                __HeapLimit = .

.stack_dummy    0x20007270     0x2000
 *(.stack*)
 .stack         0x20007270     0x2000 examples/dfu/CMakeFiles/dfu_nrf52832_xxAA_s132_6.0.0.dir/C_/ver/mod/nRF5_SDK_15.0.0_a53641a/modules/nrfx/mdk/gcc_startup_nrf52.S.obj
                0x2000fd00                __StackTop = (ORIGIN (RAM) + LENGTH (RAM))
                0x2000dd00                __StackLimit = (__StackTop - SIZEOF (.stack_dummy))
                0x2000fd00                PROVIDE (__stack, __StackTop)
                0x00000001                ASSERT ((__StackLimit >= __HeapLimit), region RAM overflowed with stack)
                0x00000150                DataInitFlashUsed = (__bss_start__ - __data_start__)
                0x00022860                CodeFlashUsed = (__etext - ORIGIN (FLASH))
                0x000229b0                TotalFlashUsed = (CodeFlashUsed + DataInitFlashUsed)
                0x00000001                ASSERT ((TotalFlashUsed <= LENGTH (FLASH)), region FLASH overflowed with .data and user data)
OUTPUT(examples\dfu\dfu_nrf52832_xxAA_s132_6.0.0.elf elf32-littlearm)

.ARM.attributes
                0x00000000       0x30
 .ARM.attributes
                0x00000000       0x22 c:/mesh/arm_gcc/bin/../lib/gcc/arm-none-eabi/6.3.1/thumb/v7e-m/fpv4-sp/hard/crti.o
 .ARM.attributes
                0x00000022       0x34 c:/mesh/arm_gcc/bin/../lib/gcc/arm-none-eabi/6.3.1/thumb/v7e-m/fpv4-sp/hard/crtbegin.o
 .ARM.attributes
                0x00000056       0x20 c:/mesh/arm_gcc/bin/../lib/gcc/arm-none-eabi/6.3.1/../../../../arm-none-eabi/lib/thumb/v7e-m/fpv4-sp/hard/crt0.o
 .ARM.attributes
                0x00000076       0x39 examples/dfu/CMakeFiles/dfu_nrf52832_xxAA_s132_6.0.0.dir/src/main.c.obj
 .ARM.attributes
                0x000000af       0x39 examples/dfu/CMakeFiles/dfu_nrf52832_xxAA_s132_6.0.0.dir/__/__/mesh/stack/src/mesh_stack.c.obj
 .ARM.attributes
                0x000000e8       0x39 examples/dfu/CMakeFiles/dfu_nrf52832_xxAA_s132_6.0.0.dir/__/common/src/mesh_softdevice_init.c.obj
 .ARM.attributes
                0x00000121       0x39 examples/dfu/CMakeFiles/dfu_nrf52832_xxAA_s132_6.0.0.dir/__/common/src/mesh_provisionee.c.obj
 .ARM.attributes
                0x0000015a       0x39 examples/dfu/CMakeFiles/dfu_nrf52832_xxAA_s132_6.0.0.dir/__/common/src/simple_hal.c.obj
 .ARM.attributes
                0x00000193       0x39 examples/dfu/CMakeFiles/dfu_nrf52832_xxAA_s132_6.0.0.dir/__/__/mesh/access/src/access_publish.c.obj
 .ARM.attributes
                0x000001cc       0x39 examples/dfu/CMakeFiles/dfu_nrf52832_xxAA_s132_6.0.0.dir/__/__/mesh/access/src/access.c.obj
 .ARM.attributes
                0x00000205       0x39 examples/dfu/CMakeFiles/dfu_nrf52832_xxAA_s132_6.0.0.dir/__/__/mesh/access/src/access_reliable.c.obj
 .ARM.attributes
                0x0000023e       0x39 examples/dfu/CMakeFiles/dfu_nrf52832_xxAA_s132_6.0.0.dir/__/__/mesh/access/src/device_state_manager.c.obj
 .ARM.attributes
                0x00000277       0x39 examples/dfu/CMakeFiles/dfu_nrf52832_xxAA_s132_6.0.0.dir/__/__/mesh/serial/src/serial_uart.c.obj
 .ARM.attributes
                0x000002b0       0x39 examples/dfu/CMakeFiles/dfu_nrf52832_xxAA_s132_6.0.0.dir/__/__/mesh/serial/src/serial_bearer.c.obj
 .ARM.attributes
                0x000002e9       0x39 examples/dfu/CMakeFiles/dfu_nrf52832_xxAA_s132_6.0.0.dir/__/__/mesh/serial/src/serial_handler_common.c.obj
 .ARM.attributes
                0x00000322       0x39 examples/dfu/CMakeFiles/dfu_nrf52832_xxAA_s132_6.0.0.dir/__/__/mesh/serial/src/serial_handler_access.c.obj
 .ARM.attributes
                0x0000035b       0x39 examples/dfu/CMakeFiles/dfu_nrf52832_xxAA_s132_6.0.0.dir/__/__/mesh/serial/src/serial_handler_config.c.obj
 .ARM.attributes
                0x00000394       0x39 examples/dfu/CMakeFiles/dfu_nrf52832_xxAA_s132_6.0.0.dir/__/__/mesh/serial/src/serial_handler_openmesh.c.obj
 .ARM.attributes
                0x000003cd       0x39 examples/dfu/CMakeFiles/dfu_nrf52832_xxAA_s132_6.0.0.dir/__/__/mesh/serial/src/serial.c.obj
 .ARM.attributes
                0x00000406       0x39 examples/dfu/CMakeFiles/dfu_nrf52832_xxAA_s132_6.0.0.dir/__/__/mesh/serial/src/serial_handler_prov.c.obj
 .ARM.attributes
                0x0000043f       0x39 examples/dfu/CMakeFiles/dfu_nrf52832_xxAA_s132_6.0.0.dir/__/__/mesh/serial/src/serial_handler_dfu.c.obj
 .ARM.attributes
                0x00000478       0x39 examples/dfu/CMakeFiles/dfu_nrf52832_xxAA_s132_6.0.0.dir/__/__/mesh/serial/src/serial_handler_mesh.c.obj
 .ARM.attributes
                0x000004b1       0x39 examples/dfu/CMakeFiles/dfu_nrf52832_xxAA_s132_6.0.0.dir/__/__/mesh/serial/src/serial_handler_models.c.obj
 .ARM.attributes
                0x000004ea       0x39 examples/dfu/CMakeFiles/dfu_nrf52832_xxAA_s132_6.0.0.dir/__/__/mesh/serial/src/serial_handler_device.c.obj
 .ARM.attributes
                0x00000523       0x39 examples/dfu/CMakeFiles/dfu_nrf52832_xxAA_s132_6.0.0.dir/__/__/mesh/serial/src/nrf_mesh_serial.c.obj
 .ARM.attributes
                0x0000055c       0x39 examples/dfu/CMakeFiles/dfu_nrf52832_xxAA_s132_6.0.0.dir/__/__/mesh/serial/src/serial_handler_app.c.obj
 .ARM.attributes
                0x00000595       0x39 examples/dfu/CMakeFiles/dfu_nrf52832_xxAA_s132_6.0.0.dir/__/__/models/config/src/composition_data.c.obj
 .ARM.attributes
                0x000005ce       0x39 examples/dfu/CMakeFiles/dfu_nrf52832_xxAA_s132_6.0.0.dir/__/__/models/config/src/config_server.c.obj
 .ARM.attributes
                0x00000607       0x39 examples/dfu/CMakeFiles/dfu_nrf52832_xxAA_s132_6.0.0.dir/__/__/models/config/src/packed_index_list.c.obj
 .ARM.attributes
                0x00000640       0x39 examples/dfu/CMakeFiles/dfu_nrf52832_xxAA_s132_6.0.0.dir/__/__/models/health/src/health_server.c.obj
 .ARM.attributes
                0x00000679       0x39 examples/dfu/CMakeFiles/dfu_nrf52832_xxAA_s132_6.0.0.dir/__/__/mesh/prov/src/prov_provisioner.c.obj
 .ARM.attributes
                0x000006b2       0x39 examples/dfu/CMakeFiles/dfu_nrf52832_xxAA_s132_6.0.0.dir/__/__/mesh/prov/src/prov_provisionee.c.obj
 .ARM.attributes
                0x000006eb       0x39 examples/dfu/CMakeFiles/dfu_nrf52832_xxAA_s132_6.0.0.dir/__/__/mesh/prov/src/nrf_mesh_prov.c.obj
 .ARM.attributes
                0x00000724       0x39 examples/dfu/CMakeFiles/dfu_nrf52832_xxAA_s132_6.0.0.dir/__/__/mesh/prov/src/provisioning.c.obj
 .ARM.attributes
                0x0000075d       0x39 examples/dfu/CMakeFiles/dfu_nrf52832_xxAA_s132_6.0.0.dir/__/__/mesh/prov/src/prov_beacon.c.obj
 .ARM.attributes
                0x00000796       0x39 examples/dfu/CMakeFiles/dfu_nrf52832_xxAA_s132_6.0.0.dir/__/__/mesh/prov/src/prov_utils.c.obj
 .ARM.attributes
                0x000007cf       0x39 examples/dfu/CMakeFiles/dfu_nrf52832_xxAA_s132_6.0.0.dir/__/__/mesh/prov/src/prov_bearer_adv.c.obj
 .ARM.attributes
                0x00000808       0x39 examples/dfu/CMakeFiles/dfu_nrf52832_xxAA_s132_6.0.0.dir/__/__/mesh/dfu/src/nrf_mesh_dfu.c.obj
 .ARM.attributes
                0x00000841       0x39 examples/dfu/CMakeFiles/dfu_nrf52832_xxAA_s132_6.0.0.dir/__/common/src/app_error_weak.c.obj
 .ARM.attributes
                0x0000087a       0x39 examples/dfu/CMakeFiles/dfu_nrf52832_xxAA_s132_6.0.0.dir/__/common/src/assertion_handler_weak.c.obj
 .ARM.attributes
                0x000008b3       0x39 examples/dfu/CMakeFiles/dfu_nrf52832_xxAA_s132_6.0.0.dir/__/__/mesh/core/src/nrf_mesh_configure.c.obj
 .ARM.attributes
                0x000008ec       0x39 examples/dfu/CMakeFiles/dfu_nrf52832_xxAA_s132_6.0.0.dir/__/__/mesh/core/src/aes.c.obj
 .ARM.attributes
                0x00000925       0x39 examples/dfu/CMakeFiles/dfu_nrf52832_xxAA_s132_6.0.0.dir/__/__/mesh/core/src/msg_cache.c.obj
 .ARM.attributes
                0x0000095e       0x39 examples/dfu/CMakeFiles/dfu_nrf52832_xxAA_s132_6.0.0.dir/__/__/mesh/core/src/transport.c.obj
 .ARM.attributes
                0x00000997       0x39 examples/dfu/CMakeFiles/dfu_nrf52832_xxAA_s132_6.0.0.dir/__/__/mesh/core/src/event.c.obj
 .ARM.attributes
                0x000009d0       0x39 examples/dfu/CMakeFiles/dfu_nrf52832_xxAA_s132_6.0.0.dir/__/__/mesh/core/src/packet_buffer.c.obj
 .ARM.attributes
                0x00000a09       0x39 examples/dfu/CMakeFiles/dfu_nrf52832_xxAA_s132_6.0.0.dir/__/__/mesh/core/src/flash_manager_defrag.c.obj
 .ARM.attributes
                0x00000a42       0x39 examples/dfu/CMakeFiles/dfu_nrf52832_xxAA_s132_6.0.0.dir/__/__/mesh/core/src/fifo.c.obj
 .ARM.attributes
                0x00000a7b       0x39 examples/dfu/CMakeFiles/dfu_nrf52832_xxAA_s132_6.0.0.dir/__/__/mesh/core/src/nrf_flash.c.obj
 .ARM.attributes
                0x00000ab4       0x39 examples/dfu/CMakeFiles/dfu_nrf52832_xxAA_s132_6.0.0.dir/__/__/mesh/core/src/packet_mgr.c.obj
 .ARM.attributes
                0x00000aed       0x39 examples/dfu/CMakeFiles/dfu_nrf52832_xxAA_s132_6.0.0.dir/__/__/mesh/core/src/net_state.c.obj
 .ARM.attributes
                0x00000b26       0x39 examples/dfu/CMakeFiles/dfu_nrf52832_xxAA_s132_6.0.0.dir/__/__/mesh/core/src/mesh_flash.c.obj
 .ARM.attributes
                0x00000b5f       0x39 examples/dfu/CMakeFiles/dfu_nrf52832_xxAA_s132_6.0.0.dir/__/__/mesh/core/src/nrf_mesh_utils.c.obj
 .ARM.attributes
                0x00000b98       0x39 examples/dfu/CMakeFiles/dfu_nrf52832_xxAA_s132_6.0.0.dir/__/__/mesh/core/src/nrf_mesh.c.obj
 .ARM.attributes
                0x00000bd1       0x39 examples/dfu/CMakeFiles/dfu_nrf52832_xxAA_s132_6.0.0.dir/__/__/mesh/core/src/queue.c.obj
 .ARM.attributes
                0x00000c0a       0x39 examples/dfu/CMakeFiles/dfu_nrf52832_xxAA_s132_6.0.0.dir/__/__/mesh/core/src/hal.c.obj
 .ARM.attributes
                0x00000c43       0x39 examples/dfu/CMakeFiles/dfu_nrf52832_xxAA_s132_6.0.0.dir/__/__/mesh/core/src/aes_cmac.c.obj
 .ARM.attributes
                0x00000c7c       0x39 examples/dfu/CMakeFiles/dfu_nrf52832_xxAA_s132_6.0.0.dir/__/__/mesh/core/src/timer_scheduler.c.obj
 .ARM.attributes
                0x00000cb5       0x39 examples/dfu/CMakeFiles/dfu_nrf52832_xxAA_s132_6.0.0.dir/__/__/mesh/core/src/timer.c.obj
 .ARM.attributes
                0x00000cee       0x39 examples/dfu/CMakeFiles/dfu_nrf52832_xxAA_s132_6.0.0.dir/__/__/mesh/core/src/ticker.c.obj
 .ARM.attributes
                0x00000d27       0x39 examples/dfu/CMakeFiles/dfu_nrf52832_xxAA_s132_6.0.0.dir/__/__/mesh/core/src/rand.c.obj
 .ARM.attributes
                0x00000d60       0x39 examples/dfu/CMakeFiles/dfu_nrf52832_xxAA_s132_6.0.0.dir/__/__/mesh/core/src/nrf_mesh_opt.c.obj
 .ARM.attributes
                0x00000d99       0x39 examples/dfu/CMakeFiles/dfu_nrf52832_xxAA_s132_6.0.0.dir/__/__/mesh/core/src/timeslot.c.obj
 .ARM.attributes
                0x00000dd2       0x39 examples/dfu/CMakeFiles/dfu_nrf52832_xxAA_s132_6.0.0.dir/__/__/mesh/core/src/bearer_event.c.obj
 .ARM.attributes
                0x00000e0b       0x39 examples/dfu/CMakeFiles/dfu_nrf52832_xxAA_s132_6.0.0.dir/__/__/mesh/core/src/enc.c.obj
 .ARM.attributes
                0x00000e44       0x39 examples/dfu/CMakeFiles/dfu_nrf52832_xxAA_s132_6.0.0.dir/__/__/mesh/core/src/network.c.obj
 .ARM.attributes
                0x00000e7d       0x39 examples/dfu/CMakeFiles/dfu_nrf52832_xxAA_s132_6.0.0.dir/__/__/mesh/core/src/net_packet.c.obj
 .ARM.attributes
                0x00000eb6       0x39 examples/dfu/CMakeFiles/dfu_nrf52832_xxAA_s132_6.0.0.dir/__/__/mesh/core/src/msqueue.c.obj
 .ARM.attributes
                0x00000eef       0x39 examples/dfu/CMakeFiles/dfu_nrf52832_xxAA_s132_6.0.0.dir/__/__/mesh/core/src/nrf_mesh_keygen.c.obj
 .ARM.attributes
                0x00000f28       0x39 examples/dfu/CMakeFiles/dfu_nrf52832_xxAA_s132_6.0.0.dir/__/__/mesh/core/src/list.c.obj
 .ARM.attributes
                0x00000f61       0x39 examples/dfu/CMakeFiles/dfu_nrf52832_xxAA_s132_6.0.0.dir/__/__/mesh/core/src/log.c.obj
 .ARM.attributes
                0x00000f9a       0x39 examples/dfu/CMakeFiles/dfu_nrf52832_xxAA_s132_6.0.0.dir/__/__/mesh/core/src/flash_manager.c.obj
 .ARM.attributes
                0x00000fd3       0x39 examples/dfu/CMakeFiles/dfu_nrf52832_xxAA_s132_6.0.0.dir/__/__/mesh/core/src/ccm_soft.c.obj
 .ARM.attributes
                0x0000100c       0x39 examples/dfu/CMakeFiles/dfu_nrf52832_xxAA_s132_6.0.0.dir/__/__/mesh/core/src/replay_cache.c.obj
 .ARM.attributes
                0x00001045       0x39 examples/dfu/CMakeFiles/dfu_nrf52832_xxAA_s132_6.0.0.dir/__/__/mesh/core/src/beacon.c.obj
 .ARM.attributes
                0x0000107e       0x39 examples/dfu/CMakeFiles/dfu_nrf52832_xxAA_s132_6.0.0.dir/__/__/mesh/core/src/flash_manager_internal.c.obj
 .ARM.attributes
                0x000010b7       0x39 examples/dfu/CMakeFiles/dfu_nrf52832_xxAA_s132_6.0.0.dir/__/__/mesh/core/src/core_tx.c.obj
 .ARM.attributes
                0x000010f0       0x39 examples/dfu/CMakeFiles/dfu_nrf52832_xxAA_s132_6.0.0.dir/__/__/mesh/core/src/heartbeat.c.obj
 .ARM.attributes
                0x00001129       0x39 examples/dfu/CMakeFiles/dfu_nrf52832_xxAA_s132_6.0.0.dir/__/__/mesh/core/src/net_beacon.c.obj
 .ARM.attributes
                0x00001162       0x39 examples/dfu/CMakeFiles/dfu_nrf52832_xxAA_s132_6.0.0.dir/__/__/mesh/core/src/core_tx_adv.c.obj
 .ARM.attributes
                0x0000119b       0x39 examples/dfu/CMakeFiles/dfu_nrf52832_xxAA_s132_6.0.0.dir/__/__/mesh/bearer/src/ad_listener.c.obj
 .ARM.attributes
                0x000011d4       0x39 examples/dfu/CMakeFiles/dfu_nrf52832_xxAA_s132_6.0.0.dir/__/__/mesh/bearer/src/ad_type_filter.c.obj
 .ARM.attributes
                0x0000120d       0x39 examples/dfu/CMakeFiles/dfu_nrf52832_xxAA_s132_6.0.0.dir/__/__/mesh/bearer/src/advertiser.c.obj
 .ARM.attributes
                0x00001246       0x39 examples/dfu/CMakeFiles/dfu_nrf52832_xxAA_s132_6.0.0.dir/__/__/mesh/bearer/src/bearer_handler.c.obj
 .ARM.attributes
                0x0000127f       0x39 examples/dfu/CMakeFiles/dfu_nrf52832_xxAA_s132_6.0.0.dir/__/__/mesh/bearer/src/broadcast.c.obj
 .ARM.attributes
                0x000012b8       0x39 examples/dfu/CMakeFiles/dfu_nrf52832_xxAA_s132_6.0.0.dir/__/__/mesh/bearer/src/filter_engine.c.obj
 .ARM.attributes
                0x000012f1       0x39 examples/dfu/CMakeFiles/dfu_nrf52832_xxAA_s132_6.0.0.dir/__/__/mesh/bearer/src/radio_config.c.obj
 .ARM.attributes
                0x0000132a       0x39 examples/dfu/CMakeFiles/dfu_nrf52832_xxAA_s132_6.0.0.dir/__/__/mesh/bearer/src/scanner.c.obj
 .ARM.attributes
                0x00001363       0x39 examples/dfu/CMakeFiles/dfu_nrf52832_xxAA_s132_6.0.0.dir/C_/ver/mod/nRF5_SDK_15.0.0_a53641a/modules/nrfx/mdk/system_nrf52.c.obj
 .ARM.attributes
                0x0000139c       0x20 examples/dfu/CMakeFiles/dfu_nrf52832_xxAA_s132_6.0.0.dir/C_/ver/mod/nRF5_SDK_15.0.0_a53641a/modules/nrfx/mdk/gcc_startup_nrf52.S.obj
 .ARM.attributes
                0x000013bc       0x39 examples/dfu/CMakeFiles/dfu_nrf52832_xxAA_s132_6.0.0.dir/C_/ver/mod/nRF5_SDK_15.0.0_a53641a/components/libraries/util/app_error.c.obj
 .ARM.attributes
                0x000013f5       0x39 examples/dfu/CMakeFiles/dfu_nrf52832_xxAA_s132_6.0.0.dir/C_/ver/mod/nRF5_SDK_15.0.0_a53641a/components/libraries/util/app_error_handler_gcc.c.obj
 .ARM.attributes
                0x0000142e       0x39 external/rtt/librtt_nrf52832_xxAA.a(SEGGER_RTT.c.obj)
 .ARM.attributes
                0x00001467       0x39 external/rtt/librtt_nrf52832_xxAA.a(SEGGER_RTT_printf.c.obj)
 .ARM.attributes
                0x000014a0       0x39 external/micro-ecc/libuECC_nrf52832_xxAA.a(uECC.c.obj)
 .ARM.attributes
                0x000014d9       0x34 c:/mesh/arm_gcc/bin/../lib/gcc/arm-none-eabi/6.3.1/../../../../arm-none-eabi/lib/thumb/v7e-m/fpv4-sp/hard\libc_nano.a(lib_a-exit.o)
 .ARM.attributes
                0x0000150d       0x34 c:/mesh/arm_gcc/bin/../lib/gcc/arm-none-eabi/6.3.1/../../../../arm-none-eabi/lib/thumb/v7e-m/fpv4-sp/hard\libc_nano.a(lib_a-impure.o)
 .ARM.attributes
                0x00001541       0x34 c:/mesh/arm_gcc/bin/../lib/gcc/arm-none-eabi/6.3.1/../../../../arm-none-eabi/lib/thumb/v7e-m/fpv4-sp/hard\libc_nano.a(lib_a-init.o)
 .ARM.attributes
                0x00001575       0x34 c:/mesh/arm_gcc/bin/../lib/gcc/arm-none-eabi/6.3.1/../../../../arm-none-eabi/lib/thumb/v7e-m/fpv4-sp/hard\libc_nano.a(lib_a-malloc.o)
 .ARM.attributes
                0x000015a9       0x34 c:/mesh/arm_gcc/bin/../lib/gcc/arm-none-eabi/6.3.1/../../../../arm-none-eabi/lib/thumb/v7e-m/fpv4-sp/hard\libc_nano.a(lib_a-memcmp.o)
 .ARM.attributes
                0x000015dd       0x34 c:/mesh/arm_gcc/bin/../lib/gcc/arm-none-eabi/6.3.1/../../../../arm-none-eabi/lib/thumb/v7e-m/fpv4-sp/hard\libc_nano.a(lib_a-memcpy-stub.o)
 .ARM.attributes
                0x00001611       0x34 c:/mesh/arm_gcc/bin/../lib/gcc/arm-none-eabi/6.3.1/../../../../arm-none-eabi/lib/thumb/v7e-m/fpv4-sp/hard\libc_nano.a(lib_a-memset.o)
 .ARM.attributes
                0x00001645       0x34 c:/mesh/arm_gcc/bin/../lib/gcc/arm-none-eabi/6.3.1/../../../../arm-none-eabi/lib/thumb/v7e-m/fpv4-sp/hard\libc_nano.a(lib_a-nano-freer.o)
 .ARM.attributes
                0x00001679       0x34 c:/mesh/arm_gcc/bin/../lib/gcc/arm-none-eabi/6.3.1/../../../../arm-none-eabi/lib/thumb/v7e-m/fpv4-sp/hard\libc_nano.a(lib_a-nano-mallocr.o)
 .ARM.attributes
                0x000016ad       0x34 c:/mesh/arm_gcc/bin/../lib/gcc/arm-none-eabi/6.3.1/../../../../arm-none-eabi/lib/thumb/v7e-m/fpv4-sp/hard\libc_nano.a(lib_a-sbrkr.o)
 .ARM.attributes
                0x000016e1       0x34 c:/mesh/arm_gcc/bin/../lib/gcc/arm-none-eabi/6.3.1/../../../../arm-none-eabi/lib/thumb/v7e-m/fpv4-sp/hard\libc_nano.a(lib_a-strcpy.o)
 .ARM.attributes
                0x00001715       0x1b c:/mesh/arm_gcc/bin/../lib/gcc/arm-none-eabi/6.3.1/../../../../arm-none-eabi/lib/thumb/v7e-m/fpv4-sp/hard\libc_nano.a(lib_a-strlen.o)
 .ARM.attributes
                0x00001730       0x34 c:/mesh/arm_gcc/bin/../lib/gcc/arm-none-eabi/6.3.1/../../../../arm-none-eabi/lib/thumb/v7e-m/fpv4-sp/hard\libc_nano.a(lib_a-strrchr.o)
 .ARM.attributes
                0x00001764       0x34 c:/mesh/arm_gcc/bin/../lib/gcc/arm-none-eabi/6.3.1/../../../../arm-none-eabi/lib/thumb/v7e-m/fpv4-sp/hard\libc_nano.a(lib_a-mlock.o)
 .ARM.attributes
                0x00001798       0x34 c:/mesh/arm_gcc/bin/../lib/gcc/arm-none-eabi/6.3.1/../../../../arm-none-eabi/lib/thumb/v7e-m/fpv4-sp/hard\libc_nano.a(lib_a-reent.o)
 .ARM.attributes
                0x000017cc       0x34 c:/mesh/arm_gcc/bin/../lib/gcc/arm-none-eabi/6.3.1/../../../../arm-none-eabi/lib/thumb/v7e-m/fpv4-sp/hard\libc_nano.a(lib_a-strchr.o)
 .ARM.attributes
                0x00001800       0x34 c:/mesh/arm_gcc/bin/../lib/gcc/arm-none-eabi/6.3.1/thumb/v7e-m/fpv4-sp/hard/crtend.o
 .ARM.attributes
                0x00001834       0x22 c:/mesh/arm_gcc/bin/../lib/gcc/arm-none-eabi/6.3.1/thumb/v7e-m/fpv4-sp/hard/crtn.o
 .ARM.attributes
                0x00001856       0x34 c:/mesh/arm_gcc/bin/../lib/gcc/arm-none-eabi/6.3.1/../../../../arm-none-eabi/lib/thumb/v7e-m/fpv4-sp/hard\libnosys.a(sbrk.o)
 .ARM.attributes
                0x0000188a       0x34 c:/mesh/arm_gcc/bin/../lib/gcc/arm-none-eabi/6.3.1/../../../../arm-none-eabi/lib/thumb/v7e-m/fpv4-sp/hard\libnosys.a(_exit.o)

.comment        0x00000000       0x7f
 .comment       0x00000000       0x7f examples/dfu/CMakeFiles/dfu_nrf52832_xxAA_s132_6.0.0.dir/src/main.c.obj
                                 0x80 (size before relaxing)
 .comment       0x0000007f       0x80 examples/dfu/CMakeFiles/dfu_nrf52832_xxAA_s132_6.0.0.dir/__/__/mesh/stack/src/mesh_stack.c.obj
 .comment       0x0000007f       0x80 examples/dfu/CMakeFiles/dfu_nrf52832_xxAA_s132_6.0.0.dir/__/common/src/mesh_softdevice_init.c.obj
 .comment       0x0000007f       0x80 examples/dfu/CMakeFiles/dfu_nrf52832_xxAA_s132_6.0.0.dir/__/common/src/mesh_provisionee.c.obj
 .comment       0x0000007f       0x80 examples/dfu/CMakeFiles/dfu_nrf52832_xxAA_s132_6.0.0.dir/__/common/src/simple_hal.c.obj
 .comment       0x0000007f       0x80 examples/dfu/CMakeFiles/dfu_nrf52832_xxAA_s132_6.0.0.dir/__/__/mesh/access/src/access_publish.c.obj
 .comment       0x0000007f       0x80 examples/dfu/CMakeFiles/dfu_nrf52832_xxAA_s132_6.0.0.dir/__/__/mesh/access/src/access.c.obj
 .comment       0x0000007f       0x80 examples/dfu/CMakeFiles/dfu_nrf52832_xxAA_s132_6.0.0.dir/__/__/mesh/access/src/access_reliable.c.obj
 .comment       0x0000007f       0x80 examples/dfu/CMakeFiles/dfu_nrf52832_xxAA_s132_6.0.0.dir/__/__/mesh/access/src/device_state_manager.c.obj
 .comment       0x0000007f       0x80 examples/dfu/CMakeFiles/dfu_nrf52832_xxAA_s132_6.0.0.dir/__/__/mesh/serial/src/serial_uart.c.obj
 .comment       0x0000007f       0x80 examples/dfu/CMakeFiles/dfu_nrf52832_xxAA_s132_6.0.0.dir/__/__/mesh/serial/src/serial_bearer.c.obj
 .comment       0x0000007f       0x80 examples/dfu/CMakeFiles/dfu_nrf52832_xxAA_s132_6.0.0.dir/__/__/mesh/serial/src/serial_handler_common.c.obj
 .comment       0x0000007f       0x80 examples/dfu/CMakeFiles/dfu_nrf52832_xxAA_s132_6.0.0.dir/__/__/mesh/serial/src/serial_handler_access.c.obj
 .comment       0x0000007f       0x80 examples/dfu/CMakeFiles/dfu_nrf52832_xxAA_s132_6.0.0.dir/__/__/mesh/serial/src/serial_handler_config.c.obj
 .comment       0x0000007f       0x80 examples/dfu/CMakeFiles/dfu_nrf52832_xxAA_s132_6.0.0.dir/__/__/mesh/serial/src/serial_handler_openmesh.c.obj
 .comment       0x0000007f       0x80 examples/dfu/CMakeFiles/dfu_nrf52832_xxAA_s132_6.0.0.dir/__/__/mesh/serial/src/serial.c.obj
 .comment       0x0000007f       0x80 examples/dfu/CMakeFiles/dfu_nrf52832_xxAA_s132_6.0.0.dir/__/__/mesh/serial/src/serial_handler_prov.c.obj
 .comment       0x0000007f       0x80 examples/dfu/CMakeFiles/dfu_nrf52832_xxAA_s132_6.0.0.dir/__/__/mesh/serial/src/serial_handler_dfu.c.obj
 .comment       0x0000007f       0x80 examples/dfu/CMakeFiles/dfu_nrf52832_xxAA_s132_6.0.0.dir/__/__/mesh/serial/src/serial_handler_mesh.c.obj
 .comment       0x0000007f       0x80 examples/dfu/CMakeFiles/dfu_nrf52832_xxAA_s132_6.0.0.dir/__/__/mesh/serial/src/serial_handler_models.c.obj
 .comment       0x0000007f       0x80 examples/dfu/CMakeFiles/dfu_nrf52832_xxAA_s132_6.0.0.dir/__/__/mesh/serial/src/serial_handler_device.c.obj
 .comment       0x0000007f       0x80 examples/dfu/CMakeFiles/dfu_nrf52832_xxAA_s132_6.0.0.dir/__/__/mesh/serial/src/nrf_mesh_serial.c.obj
 .comment       0x0000007f       0x80 examples/dfu/CMakeFiles/dfu_nrf52832_xxAA_s132_6.0.0.dir/__/__/mesh/serial/src/serial_handler_app.c.obj
 .comment       0x0000007f       0x80 examples/dfu/CMakeFiles/dfu_nrf52832_xxAA_s132_6.0.0.dir/__/__/models/config/src/composition_data.c.obj
 .comment       0x0000007f       0x80 examples/dfu/CMakeFiles/dfu_nrf52832_xxAA_s132_6.0.0.dir/__/__/models/config/src/config_server.c.obj
 .comment       0x0000007f       0x80 examples/dfu/CMakeFiles/dfu_nrf52832_xxAA_s132_6.0.0.dir/__/__/models/config/src/packed_index_list.c.obj
 .comment       0x0000007f       0x80 examples/dfu/CMakeFiles/dfu_nrf52832_xxAA_s132_6.0.0.dir/__/__/models/health/src/health_server.c.obj
 .comment       0x0000007f       0x80 examples/dfu/CMakeFiles/dfu_nrf52832_xxAA_s132_6.0.0.dir/__/__/mesh/prov/src/prov_provisioner.c.obj
 .comment       0x0000007f       0x80 examples/dfu/CMakeFiles/dfu_nrf52832_xxAA_s132_6.0.0.dir/__/__/mesh/prov/src/prov_provisionee.c.obj
 .comment       0x0000007f       0x80 examples/dfu/CMakeFiles/dfu_nrf52832_xxAA_s132_6.0.0.dir/__/__/mesh/prov/src/nrf_mesh_prov.c.obj
 .comment       0x0000007f       0x80 examples/dfu/CMakeFiles/dfu_nrf52832_xxAA_s132_6.0.0.dir/__/__/mesh/prov/src/provisioning.c.obj
 .comment       0x0000007f       0x80 examples/dfu/CMakeFiles/dfu_nrf52832_xxAA_s132_6.0.0.dir/__/__/mesh/prov/src/prov_beacon.c.obj
 .comment       0x0000007f       0x80 examples/dfu/CMakeFiles/dfu_nrf52832_xxAA_s132_6.0.0.dir/__/__/mesh/prov/src/prov_utils.c.obj
 .comment       0x0000007f       0x80 examples/dfu/CMakeFiles/dfu_nrf52832_xxAA_s132_6.0.0.dir/__/__/mesh/prov/src/prov_bearer_adv.c.obj
 .comment       0x0000007f       0x80 examples/dfu/CMakeFiles/dfu_nrf52832_xxAA_s132_6.0.0.dir/__/__/mesh/dfu/src/nrf_mesh_dfu.c.obj
 .comment       0x0000007f       0x80 examples/dfu/CMakeFiles/dfu_nrf52832_xxAA_s132_6.0.0.dir/__/common/src/app_error_weak.c.obj
 .comment       0x0000007f       0x80 examples/dfu/CMakeFiles/dfu_nrf52832_xxAA_s132_6.0.0.dir/__/common/src/assertion_handler_weak.c.obj
 .comment       0x0000007f       0x80 examples/dfu/CMakeFiles/dfu_nrf52832_xxAA_s132_6.0.0.dir/__/__/mesh/core/src/nrf_mesh_configure.c.obj
 .comment       0x0000007f       0x80 examples/dfu/CMakeFiles/dfu_nrf52832_xxAA_s132_6.0.0.dir/__/__/mesh/core/src/aes.c.obj
 .comment       0x0000007f       0x80 examples/dfu/CMakeFiles/dfu_nrf52832_xxAA_s132_6.0.0.dir/__/__/mesh/core/src/msg_cache.c.obj
 .comment       0x0000007f       0x80 examples/dfu/CMakeFiles/dfu_nrf52832_xxAA_s132_6.0.0.dir/__/__/mesh/core/src/transport.c.obj
 .comment       0x0000007f       0x80 examples/dfu/CMakeFiles/dfu_nrf52832_xxAA_s132_6.0.0.dir/__/__/mesh/core/src/event.c.obj
 .comment       0x0000007f       0x80 examples/dfu/CMakeFiles/dfu_nrf52832_xxAA_s132_6.0.0.dir/__/__/mesh/core/src/packet_buffer.c.obj
 .comment       0x0000007f       0x80 examples/dfu/CMakeFiles/dfu_nrf52832_xxAA_s132_6.0.0.dir/__/__/mesh/core/src/flash_manager_defrag.c.obj
 .comment       0x0000007f       0x80 examples/dfu/CMakeFiles/dfu_nrf52832_xxAA_s132_6.0.0.dir/__/__/mesh/core/src/fifo.c.obj
 .comment       0x0000007f       0x80 examples/dfu/CMakeFiles/dfu_nrf52832_xxAA_s132_6.0.0.dir/__/__/mesh/core/src/nrf_flash.c.obj
 .comment       0x0000007f       0x80 examples/dfu/CMakeFiles/dfu_nrf52832_xxAA_s132_6.0.0.dir/__/__/mesh/core/src/packet_mgr.c.obj
 .comment       0x0000007f       0x80 examples/dfu/CMakeFiles/dfu_nrf52832_xxAA_s132_6.0.0.dir/__/__/mesh/core/src/net_state.c.obj
 .comment       0x0000007f       0x80 examples/dfu/CMakeFiles/dfu_nrf52832_xxAA_s132_6.0.0.dir/__/__/mesh/core/src/mesh_flash.c.obj
 .comment       0x0000007f       0x80 examples/dfu/CMakeFiles/dfu_nrf52832_xxAA_s132_6.0.0.dir/__/__/mesh/core/src/nrf_mesh_utils.c.obj
 .comment       0x0000007f       0x80 examples/dfu/CMakeFiles/dfu_nrf52832_xxAA_s132_6.0.0.dir/__/__/mesh/core/src/nrf_mesh.c.obj
 .comment       0x0000007f       0x80 examples/dfu/CMakeFiles/dfu_nrf52832_xxAA_s132_6.0.0.dir/__/__/mesh/core/src/queue.c.obj
 .comment       0x0000007f       0x80 examples/dfu/CMakeFiles/dfu_nrf52832_xxAA_s132_6.0.0.dir/__/__/mesh/core/src/hal.c.obj
 .comment       0x0000007f       0x80 examples/dfu/CMakeFiles/dfu_nrf52832_xxAA_s132_6.0.0.dir/__/__/mesh/core/src/aes_cmac.c.obj
 .comment       0x0000007f       0x80 examples/dfu/CMakeFiles/dfu_nrf52832_xxAA_s132_6.0.0.dir/__/__/mesh/core/src/timer_scheduler.c.obj
 .comment       0x0000007f       0x80 examples/dfu/CMakeFiles/dfu_nrf52832_xxAA_s132_6.0.0.dir/__/__/mesh/core/src/timer.c.obj
 .comment       0x0000007f       0x80 examples/dfu/CMakeFiles/dfu_nrf52832_xxAA_s132_6.0.0.dir/__/__/mesh/core/src/ticker.c.obj
 .comment       0x0000007f       0x80 examples/dfu/CMakeFiles/dfu_nrf52832_xxAA_s132_6.0.0.dir/__/__/mesh/core/src/rand.c.obj
 .comment       0x0000007f       0x80 examples/dfu/CMakeFiles/dfu_nrf52832_xxAA_s132_6.0.0.dir/__/__/mesh/core/src/nrf_mesh_opt.c.obj
 .comment       0x0000007f       0x80 examples/dfu/CMakeFiles/dfu_nrf52832_xxAA_s132_6.0.0.dir/__/__/mesh/core/src/timeslot.c.obj
 .comment       0x0000007f       0x80 examples/dfu/CMakeFiles/dfu_nrf52832_xxAA_s132_6.0.0.dir/__/__/mesh/core/src/bearer_event.c.obj
 .comment       0x0000007f       0x80 examples/dfu/CMakeFiles/dfu_nrf52832_xxAA_s132_6.0.0.dir/__/__/mesh/core/src/enc.c.obj
 .comment       0x0000007f       0x80 examples/dfu/CMakeFiles/dfu_nrf52832_xxAA_s132_6.0.0.dir/__/__/mesh/core/src/network.c.obj
 .comment       0x0000007f       0x80 examples/dfu/CMakeFiles/dfu_nrf52832_xxAA_s132_6.0.0.dir/__/__/mesh/core/src/net_packet.c.obj
 .comment       0x0000007f       0x80 examples/dfu/CMakeFiles/dfu_nrf52832_xxAA_s132_6.0.0.dir/__/__/mesh/core/src/msqueue.c.obj
 .comment       0x0000007f       0x80 examples/dfu/CMakeFiles/dfu_nrf52832_xxAA_s132_6.0.0.dir/__/__/mesh/core/src/nrf_mesh_keygen.c.obj
 .comment       0x0000007f       0x80 examples/dfu/CMakeFiles/dfu_nrf52832_xxAA_s132_6.0.0.dir/__/__/mesh/core/src/list.c.obj
 .comment       0x0000007f       0x80 examples/dfu/CMakeFiles/dfu_nrf52832_xxAA_s132_6.0.0.dir/__/__/mesh/core/src/log.c.obj
 .comment       0x0000007f       0x80 examples/dfu/CMakeFiles/dfu_nrf52832_xxAA_s132_6.0.0.dir/__/__/mesh/core/src/flash_manager.c.obj
 .comment       0x0000007f       0x80 examples/dfu/CMakeFiles/dfu_nrf52832_xxAA_s132_6.0.0.dir/__/__/mesh/core/src/ccm_soft.c.obj
 .comment       0x0000007f       0x80 examples/dfu/CMakeFiles/dfu_nrf52832_xxAA_s132_6.0.0.dir/__/__/mesh/core/src/replay_cache.c.obj
 .comment       0x0000007f       0x80 examples/dfu/CMakeFiles/dfu_nrf52832_xxAA_s132_6.0.0.dir/__/__/mesh/core/src/beacon.c.obj
 .comment       0x0000007f       0x80 examples/dfu/CMakeFiles/dfu_nrf52832_xxAA_s132_6.0.0.dir/__/__/mesh/core/src/flash_manager_internal.c.obj
 .comment       0x0000007f       0x80 examples/dfu/CMakeFiles/dfu_nrf52832_xxAA_s132_6.0.0.dir/__/__/mesh/core/src/core_tx.c.obj
 .comment       0x0000007f       0x80 examples/dfu/CMakeFiles/dfu_nrf52832_xxAA_s132_6.0.0.dir/__/__/mesh/core/src/heartbeat.c.obj
 .comment       0x0000007f       0x80 examples/dfu/CMakeFiles/dfu_nrf52832_xxAA_s132_6.0.0.dir/__/__/mesh/core/src/net_beacon.c.obj
 .comment       0x0000007f       0x80 examples/dfu/CMakeFiles/dfu_nrf52832_xxAA_s132_6.0.0.dir/__/__/mesh/core/src/core_tx_adv.c.obj
 .comment       0x0000007f       0x80 examples/dfu/CMakeFiles/dfu_nrf52832_xxAA_s132_6.0.0.dir/__/__/mesh/bearer/src/ad_listener.c.obj
 .comment       0x0000007f       0x80 examples/dfu/CMakeFiles/dfu_nrf52832_xxAA_s132_6.0.0.dir/__/__/mesh/bearer/src/ad_type_filter.c.obj
 .comment       0x0000007f       0x80 examples/dfu/CMakeFiles/dfu_nrf52832_xxAA_s132_6.0.0.dir/__/__/mesh/bearer/src/advertiser.c.obj
 .comment       0x0000007f       0x80 examples/dfu/CMakeFiles/dfu_nrf52832_xxAA_s132_6.0.0.dir/__/__/mesh/bearer/src/bearer_handler.c.obj
 .comment       0x0000007f       0x80 examples/dfu/CMakeFiles/dfu_nrf52832_xxAA_s132_6.0.0.dir/__/__/mesh/bearer/src/broadcast.c.obj
 .comment       0x0000007f       0x80 examples/dfu/CMakeFiles/dfu_nrf52832_xxAA_s132_6.0.0.dir/__/__/mesh/bearer/src/filter_engine.c.obj
 .comment       0x0000007f       0x80 examples/dfu/CMakeFiles/dfu_nrf52832_xxAA_s132_6.0.0.dir/__/__/mesh/bearer/src/radio_config.c.obj
 .comment       0x0000007f       0x80 examples/dfu/CMakeFiles/dfu_nrf52832_xxAA_s132_6.0.0.dir/__/__/mesh/bearer/src/scanner.c.obj
 .comment       0x0000007f       0x80 examples/dfu/CMakeFiles/dfu_nrf52832_xxAA_s132_6.0.0.dir/C_/ver/mod/nRF5_SDK_15.0.0_a53641a/modules/nrfx/mdk/system_nrf52.c.obj
 .comment       0x0000007f       0x80 examples/dfu/CMakeFiles/dfu_nrf52832_xxAA_s132_6.0.0.dir/C_/ver/mod/nRF5_SDK_15.0.0_a53641a/components/libraries/util/app_error.c.obj
 .comment       0x0000007f       0x80 examples/dfu/CMakeFiles/dfu_nrf52832_xxAA_s132_6.0.0.dir/C_/ver/mod/nRF5_SDK_15.0.0_a53641a/components/libraries/util/app_error_handler_gcc.c.obj
 .comment       0x0000007f       0x80 external/rtt/librtt_nrf52832_xxAA.a(SEGGER_RTT.c.obj)
 .comment       0x0000007f       0x80 external/rtt/librtt_nrf52832_xxAA.a(SEGGER_RTT_printf.c.obj)
 .comment       0x0000007f       0x80 external/micro-ecc/libuECC_nrf52832_xxAA.a(uECC.c.obj)

.debug_frame    0x00000000      0x2c4
 .debug_frame   0x00000000       0x28 c:/mesh/arm_gcc/bin/../lib/gcc/arm-none-eabi/6.3.1/../../../../arm-none-eabi/lib/thumb/v7e-m/fpv4-sp/hard\libc_nano.a(lib_a-exit.o)
 .debug_frame   0x00000028       0x2c c:/mesh/arm_gcc/bin/../lib/gcc/arm-none-eabi/6.3.1/../../../../arm-none-eabi/lib/thumb/v7e-m/fpv4-sp/hard\libc_nano.a(lib_a-init.o)
 .debug_frame   0x00000054       0x30 c:/mesh/arm_gcc/bin/../lib/gcc/arm-none-eabi/6.3.1/../../../../arm-none-eabi/lib/thumb/v7e-m/fpv4-sp/hard\libc_nano.a(lib_a-malloc.o)
 .debug_frame   0x00000084       0x28 c:/mesh/arm_gcc/bin/../lib/gcc/arm-none-eabi/6.3.1/../../../../arm-none-eabi/lib/thumb/v7e-m/fpv4-sp/hard\libc_nano.a(lib_a-memcmp.o)
 .debug_frame   0x000000ac       0x28 c:/mesh/arm_gcc/bin/../lib/gcc/arm-none-eabi/6.3.1/../../../../arm-none-eabi/lib/thumb/v7e-m/fpv4-sp/hard\libc_nano.a(lib_a-memcpy-stub.o)
 .debug_frame   0x000000d4       0x20 c:/mesh/arm_gcc/bin/../lib/gcc/arm-none-eabi/6.3.1/../../../../arm-none-eabi/lib/thumb/v7e-m/fpv4-sp/hard\libc_nano.a(lib_a-memset.o)
 .debug_frame   0x000000f4       0x38 c:/mesh/arm_gcc/bin/../lib/gcc/arm-none-eabi/6.3.1/../../../../arm-none-eabi/lib/thumb/v7e-m/fpv4-sp/hard\libc_nano.a(lib_a-nano-freer.o)
 .debug_frame   0x0000012c       0x2c c:/mesh/arm_gcc/bin/../lib/gcc/arm-none-eabi/6.3.1/../../../../arm-none-eabi/lib/thumb/v7e-m/fpv4-sp/hard\libc_nano.a(lib_a-nano-mallocr.o)
 .debug_frame   0x00000158       0x2c c:/mesh/arm_gcc/bin/../lib/gcc/arm-none-eabi/6.3.1/../../../../arm-none-eabi/lib/thumb/v7e-m/fpv4-sp/hard\libc_nano.a(lib_a-sbrkr.o)
 .debug_frame   0x00000184       0x20 c:/mesh/arm_gcc/bin/../lib/gcc/arm-none-eabi/6.3.1/../../../../arm-none-eabi/lib/thumb/v7e-m/fpv4-sp/hard\libc_nano.a(lib_a-strcpy.o)
 .debug_frame   0x000001a4       0x34 c:/mesh/arm_gcc/bin/../lib/gcc/arm-none-eabi/6.3.1/../../../../arm-none-eabi/lib/thumb/v7e-m/fpv4-sp/hard\libc_nano.a(lib_a-strrchr.o)
 .debug_frame   0x000001d8       0x30 c:/mesh/arm_gcc/bin/../lib/gcc/arm-none-eabi/6.3.1/../../../../arm-none-eabi/lib/thumb/v7e-m/fpv4-sp/hard\libc_nano.a(lib_a-mlock.o)
 .debug_frame   0x00000208       0x5c c:/mesh/arm_gcc/bin/../lib/gcc/arm-none-eabi/6.3.1/../../../../arm-none-eabi/lib/thumb/v7e-m/fpv4-sp/hard\libc_nano.a(lib_a-reent.o)
 .debug_frame   0x00000264       0x20 c:/mesh/arm_gcc/bin/../lib/gcc/arm-none-eabi/6.3.1/../../../../arm-none-eabi/lib/thumb/v7e-m/fpv4-sp/hard\libc_nano.a(lib_a-strchr.o)
 .debug_frame   0x00000284       0x20 c:/mesh/arm_gcc/bin/../lib/gcc/arm-none-eabi/6.3.1/../../../../arm-none-eabi/lib/thumb/v7e-m/fpv4-sp/hard\libnosys.a(sbrk.o)
 .debug_frame   0x000002a4       0x20 c:/mesh/arm_gcc/bin/../lib/gcc/arm-none-eabi/6.3.1/../../../../arm-none-eabi/lib/thumb/v7e-m/fpv4-sp/hard\libnosys.a(_exit.o)
