Archive member included to satisfy reference by file (symbol)

external/rtt/librtt_nrf52832_xxAA.a(SEGGER_RTT.c.obj)
                              examples/enocean_switch/CMakeFiles/enocean_switch_nrf52832_xxAA_s132_6.0.0.dir/__/__/mesh/core/src/log.c.obj (SEGGER_RTT_Write)
external/rtt/librtt_nrf52832_xxAA.a(SEGGER_RTT_printf.c.obj)
                              examples/enocean_switch/CMakeFiles/enocean_switch_nrf52832_xxAA_s132_6.0.0.dir/__/__/mesh/core/src/log.c.obj (SEGGER_RTT_vprintf)
external/micro-ecc/libuECC_nrf52832_xxAA.a(uECC.c.obj)
                              examples/enocean_switch/CMakeFiles/enocean_switch_nrf52832_xxAA_s132_6.0.0.dir/__/__/mesh/prov/src/prov_utils.c.obj (uECC_secp256r1)
c:/mesh/arm_gcc/bin/../lib/gcc/arm-none-eabi/6.3.1/thumb/v7e-m/fpv4-sp/hard\libgcc.a(_aeabi_uldivmod.o)
                              examples/enocean_switch/CMakeFiles/enocean_switch_nrf52832_xxAA_s132_6.0.0.dir/__/common/src/rtt_input.c.obj (__aeabi_uldivmod)
c:/mesh/arm_gcc/bin/../lib/gcc/arm-none-eabi/6.3.1/thumb/v7e-m/fpv4-sp/hard\libgcc.a(_udivmoddi4.o)
                              c:/mesh/arm_gcc/bin/../lib/gcc/arm-none-eabi/6.3.1/thumb/v7e-m/fpv4-sp/hard\libgcc.a(_aeabi_uldivmod.o) (__udivmoddi4)
c:/mesh/arm_gcc/bin/../lib/gcc/arm-none-eabi/6.3.1/thumb/v7e-m/fpv4-sp/hard\libgcc.a(_dvmd_tls.o)
                              c:/mesh/arm_gcc/bin/../lib/gcc/arm-none-eabi/6.3.1/thumb/v7e-m/fpv4-sp/hard\libgcc.a(_aeabi_uldivmod.o) (__aeabi_ldiv0)
c:/mesh/arm_gcc/bin/../lib/gcc/arm-none-eabi/6.3.1/../../../../arm-none-eabi/lib/thumb/v7e-m/fpv4-sp/hard\libc_nano.a(lib_a-exit.o)
                              c:/mesh/arm_gcc/bin/../lib/gcc/arm-none-eabi/6.3.1/../../../../arm-none-eabi/lib/thumb/v7e-m/fpv4-sp/hard/crt0.o (exit)
c:/mesh/arm_gcc/bin/../lib/gcc/arm-none-eabi/6.3.1/../../../../arm-none-eabi/lib/thumb/v7e-m/fpv4-sp/hard\libc_nano.a(lib_a-impure.o)
                              c:/mesh/arm_gcc/bin/../lib/gcc/arm-none-eabi/6.3.1/../../../../arm-none-eabi/lib/thumb/v7e-m/fpv4-sp/hard\libc_nano.a(lib_a-exit.o) (_global_impure_ptr)
c:/mesh/arm_gcc/bin/../lib/gcc/arm-none-eabi/6.3.1/../../../../arm-none-eabi/lib/thumb/v7e-m/fpv4-sp/hard\libc_nano.a(lib_a-init.o)
                              c:/mesh/arm_gcc/bin/../lib/gcc/arm-none-eabi/6.3.1/../../../../arm-none-eabi/lib/thumb/v7e-m/fpv4-sp/hard/crt0.o (__libc_init_array)
c:/mesh/arm_gcc/bin/../lib/gcc/arm-none-eabi/6.3.1/../../../../arm-none-eabi/lib/thumb/v7e-m/fpv4-sp/hard\libc_nano.a(lib_a-malloc.o)
                              examples/enocean_switch/CMakeFiles/enocean_switch_nrf52832_xxAA_s132_6.0.0.dir/__/__/mesh/core/src/transport.c.obj (malloc)
c:/mesh/arm_gcc/bin/../lib/gcc/arm-none-eabi/6.3.1/../../../../arm-none-eabi/lib/thumb/v7e-m/fpv4-sp/hard\libc_nano.a(lib_a-memcmp.o)
                              examples/enocean_switch/CMakeFiles/enocean_switch_nrf52832_xxAA_s132_6.0.0.dir/src/enocean.c.obj (memcmp)
c:/mesh/arm_gcc/bin/../lib/gcc/arm-none-eabi/6.3.1/../../../../arm-none-eabi/lib/thumb/v7e-m/fpv4-sp/hard\libc_nano.a(lib_a-memcpy-stub.o)
                              examples/enocean_switch/CMakeFiles/enocean_switch_nrf52832_xxAA_s132_6.0.0.dir/src/main.c.obj (memcpy)
c:/mesh/arm_gcc/bin/../lib/gcc/arm-none-eabi/6.3.1/../../../../arm-none-eabi/lib/thumb/v7e-m/fpv4-sp/hard\libc_nano.a(lib_a-memset.o)
                              c:/mesh/arm_gcc/bin/../lib/gcc/arm-none-eabi/6.3.1/../../../../arm-none-eabi/lib/thumb/v7e-m/fpv4-sp/hard/crt0.o (memset)
c:/mesh/arm_gcc/bin/../lib/gcc/arm-none-eabi/6.3.1/../../../../arm-none-eabi/lib/thumb/v7e-m/fpv4-sp/hard\libc_nano.a(lib_a-nano-freer.o)
                              c:/mesh/arm_gcc/bin/../lib/gcc/arm-none-eabi/6.3.1/../../../../arm-none-eabi/lib/thumb/v7e-m/fpv4-sp/hard\libc_nano.a(lib_a-malloc.o) (_free_r)
c:/mesh/arm_gcc/bin/../lib/gcc/arm-none-eabi/6.3.1/../../../../arm-none-eabi/lib/thumb/v7e-m/fpv4-sp/hard\libc_nano.a(lib_a-nano-mallocr.o)
                              c:/mesh/arm_gcc/bin/../lib/gcc/arm-none-eabi/6.3.1/../../../../arm-none-eabi/lib/thumb/v7e-m/fpv4-sp/hard\libc_nano.a(lib_a-malloc.o) (_malloc_r)
c:/mesh/arm_gcc/bin/../lib/gcc/arm-none-eabi/6.3.1/../../../../arm-none-eabi/lib/thumb/v7e-m/fpv4-sp/hard\libc_nano.a(lib_a-sbrkr.o)
                              c:/mesh/arm_gcc/bin/../lib/gcc/arm-none-eabi/6.3.1/../../../../arm-none-eabi/lib/thumb/v7e-m/fpv4-sp/hard\libc_nano.a(lib_a-nano-mallocr.o) (_sbrk_r)
c:/mesh/arm_gcc/bin/../lib/gcc/arm-none-eabi/6.3.1/../../../../arm-none-eabi/lib/thumb/v7e-m/fpv4-sp/hard\libc_nano.a(lib_a-strcpy.o)
                              external/rtt/librtt_nrf52832_xxAA.a(SEGGER_RTT.c.obj) (strcpy)
c:/mesh/arm_gcc/bin/../lib/gcc/arm-none-eabi/6.3.1/../../../../arm-none-eabi/lib/thumb/v7e-m/fpv4-sp/hard\libc_nano.a(lib_a-strlen.o)
                              examples/enocean_switch/CMakeFiles/enocean_switch_nrf52832_xxAA_s132_6.0.0.dir/__/__/mesh/core/src/uri.c.obj (strlen)
c:/mesh/arm_gcc/bin/../lib/gcc/arm-none-eabi/6.3.1/../../../../arm-none-eabi/lib/thumb/v7e-m/fpv4-sp/hard\libc_nano.a(lib_a-strrchr.o)
                              examples/enocean_switch/CMakeFiles/enocean_switch_nrf52832_xxAA_s132_6.0.0.dir/src/main.c.obj (strrchr)
c:/mesh/arm_gcc/bin/../lib/gcc/arm-none-eabi/6.3.1/../../../../arm-none-eabi/lib/thumb/v7e-m/fpv4-sp/hard\libc_nano.a(lib_a-mlock.o)
                              c:/mesh/arm_gcc/bin/../lib/gcc/arm-none-eabi/6.3.1/../../../../arm-none-eabi/lib/thumb/v7e-m/fpv4-sp/hard\libc_nano.a(lib_a-nano-freer.o) (__malloc_lock)
c:/mesh/arm_gcc/bin/../lib/gcc/arm-none-eabi/6.3.1/../../../../arm-none-eabi/lib/thumb/v7e-m/fpv4-sp/hard\libc_nano.a(lib_a-reent.o)
                              c:/mesh/arm_gcc/bin/../lib/gcc/arm-none-eabi/6.3.1/../../../../arm-none-eabi/lib/thumb/v7e-m/fpv4-sp/hard\libc_nano.a(lib_a-sbrkr.o) (errno)
c:/mesh/arm_gcc/bin/../lib/gcc/arm-none-eabi/6.3.1/../../../../arm-none-eabi/lib/thumb/v7e-m/fpv4-sp/hard\libc_nano.a(lib_a-strchr.o)
                              c:/mesh/arm_gcc/bin/../lib/gcc/arm-none-eabi/6.3.1/../../../../arm-none-eabi/lib/thumb/v7e-m/fpv4-sp/hard\libc_nano.a(lib_a-strrchr.o) (strchr)
c:/mesh/arm_gcc/bin/../lib/gcc/arm-none-eabi/6.3.1/../../../../arm-none-eabi/lib/thumb/v7e-m/fpv4-sp/hard\libnosys.a(sbrk.o)
                              c:/mesh/arm_gcc/bin/../lib/gcc/arm-none-eabi/6.3.1/../../../../arm-none-eabi/lib/thumb/v7e-m/fpv4-sp/hard\libc_nano.a(lib_a-sbrkr.o) (_sbrk)
c:/mesh/arm_gcc/bin/../lib/gcc/arm-none-eabi/6.3.1/../../../../arm-none-eabi/lib/thumb/v7e-m/fpv4-sp/hard\libnosys.a(_exit.o)
                              c:/mesh/arm_gcc/bin/../lib/gcc/arm-none-eabi/6.3.1/../../../../arm-none-eabi/lib/thumb/v7e-m/fpv4-sp/hard\libc_nano.a(lib_a-exit.o) (_exit)

Allocating common symbols
Common symbol       size              file

nrf_nvic_state      0xc               examples/enocean_switch/CMakeFiles/enocean_switch_nrf52832_xxAA_s132_6.0.0.dir/__/common/src/mesh_softdevice_init.c.obj
m_packet            0x24              examples/enocean_switch/CMakeFiles/enocean_switch_nrf52832_xxAA_s132_6.0.0.dir/__/__/mesh/core/src/core_tx.c.obj
errno               0x4               c:/mesh/arm_gcc/bin/../lib/gcc/arm-none-eabi/6.3.1/../../../../arm-none-eabi/lib/thumb/v7e-m/fpv4-sp/hard\libc_nano.a(lib_a-reent.o)
_SEGGER_RTT         0x78              external/rtt/librtt_nrf52832_xxAA.a(SEGGER_RTT.c.obj)

Discarded input sections

 .text          0x00000000        0x0 c:/mesh/arm_gcc/bin/../lib/gcc/arm-none-eabi/6.3.1/thumb/v7e-m/fpv4-sp/hard/crti.o
 .data          0x00000000        0x0 c:/mesh/arm_gcc/bin/../lib/gcc/arm-none-eabi/6.3.1/thumb/v7e-m/fpv4-sp/hard/crti.o
 .bss           0x00000000        0x0 c:/mesh/arm_gcc/bin/../lib/gcc/arm-none-eabi/6.3.1/thumb/v7e-m/fpv4-sp/hard/crti.o
 .data          0x00000000        0x4 c:/mesh/arm_gcc/bin/../lib/gcc/arm-none-eabi/6.3.1/thumb/v7e-m/fpv4-sp/hard/crtbegin.o
 .data          0x00000000        0x0 c:/mesh/arm_gcc/bin/../lib/gcc/arm-none-eabi/6.3.1/../../../../arm-none-eabi/lib/thumb/v7e-m/fpv4-sp/hard/crt0.o
 .bss           0x00000000        0x0 c:/mesh/arm_gcc/bin/../lib/gcc/arm-none-eabi/6.3.1/../../../../arm-none-eabi/lib/thumb/v7e-m/fpv4-sp/hard/crt0.o
 .ARM.extab     0x00000000        0x0 c:/mesh/arm_gcc/bin/../lib/gcc/arm-none-eabi/6.3.1/../../../../arm-none-eabi/lib/thumb/v7e-m/fpv4-sp/hard/crt0.o
 .text          0x00000000        0x0 examples/enocean_switch/CMakeFiles/enocean_switch_nrf52832_xxAA_s132_6.0.0.dir/src/main.c.obj
 .data          0x00000000        0x0 examples/enocean_switch/CMakeFiles/enocean_switch_nrf52832_xxAA_s132_6.0.0.dir/src/main.c.obj
 .bss           0x00000000        0x0 examples/enocean_switch/CMakeFiles/enocean_switch_nrf52832_xxAA_s132_6.0.0.dir/src/main.c.obj
 .text          0x00000000        0x0 examples/enocean_switch/CMakeFiles/enocean_switch_nrf52832_xxAA_s132_6.0.0.dir/src/enocean.c.obj
 .data          0x00000000        0x0 examples/enocean_switch/CMakeFiles/enocean_switch_nrf52832_xxAA_s132_6.0.0.dir/src/enocean.c.obj
 .bss           0x00000000        0x0 examples/enocean_switch/CMakeFiles/enocean_switch_nrf52832_xxAA_s132_6.0.0.dir/src/enocean.c.obj
 .text          0x00000000        0x0 examples/enocean_switch/CMakeFiles/enocean_switch_nrf52832_xxAA_s132_6.0.0.dir/src/flash_helper.c.obj
 .data          0x00000000        0x0 examples/enocean_switch/CMakeFiles/enocean_switch_nrf52832_xxAA_s132_6.0.0.dir/src/flash_helper.c.obj
 .bss           0x00000000        0x0 examples/enocean_switch/CMakeFiles/enocean_switch_nrf52832_xxAA_s132_6.0.0.dir/src/flash_helper.c.obj
 .text          0x00000000        0x0 examples/enocean_switch/CMakeFiles/enocean_switch_nrf52832_xxAA_s132_6.0.0.dir/__/__/mesh/stack/src/mesh_stack.c.obj
 .data          0x00000000        0x0 examples/enocean_switch/CMakeFiles/enocean_switch_nrf52832_xxAA_s132_6.0.0.dir/__/__/mesh/stack/src/mesh_stack.c.obj
 .bss           0x00000000        0x0 examples/enocean_switch/CMakeFiles/enocean_switch_nrf52832_xxAA_s132_6.0.0.dir/__/__/mesh/stack/src/mesh_stack.c.obj
 .text.mesh_stack_is_device_provisioned
                0x00000000       0x1c examples/enocean_switch/CMakeFiles/enocean_switch_nrf52832_xxAA_s132_6.0.0.dir/__/__/mesh/stack/src/mesh_stack.c.obj
 .text          0x00000000        0x0 examples/enocean_switch/CMakeFiles/enocean_switch_nrf52832_xxAA_s132_6.0.0.dir/__/common/src/mesh_softdevice_init.c.obj
 .data          0x00000000        0x0 examples/enocean_switch/CMakeFiles/enocean_switch_nrf52832_xxAA_s132_6.0.0.dir/__/common/src/mesh_softdevice_init.c.obj
 .bss           0x00000000        0x0 examples/enocean_switch/CMakeFiles/enocean_switch_nrf52832_xxAA_s132_6.0.0.dir/__/common/src/mesh_softdevice_init.c.obj
 .text          0x00000000        0x0 examples/enocean_switch/CMakeFiles/enocean_switch_nrf52832_xxAA_s132_6.0.0.dir/__/common/src/mesh_provisionee.c.obj
 .data          0x00000000        0x0 examples/enocean_switch/CMakeFiles/enocean_switch_nrf52832_xxAA_s132_6.0.0.dir/__/common/src/mesh_provisionee.c.obj
 .bss           0x00000000        0x0 examples/enocean_switch/CMakeFiles/enocean_switch_nrf52832_xxAA_s132_6.0.0.dir/__/common/src/mesh_provisionee.c.obj
 .text          0x00000000        0x0 examples/enocean_switch/CMakeFiles/enocean_switch_nrf52832_xxAA_s132_6.0.0.dir/__/common/src/rtt_input.c.obj
 .data          0x00000000        0x0 examples/enocean_switch/CMakeFiles/enocean_switch_nrf52832_xxAA_s132_6.0.0.dir/__/common/src/rtt_input.c.obj
 .bss           0x00000000        0x0 examples/enocean_switch/CMakeFiles/enocean_switch_nrf52832_xxAA_s132_6.0.0.dir/__/common/src/rtt_input.c.obj
 .text.rtt_input_disable
                0x00000000       0x28 examples/enocean_switch/CMakeFiles/enocean_switch_nrf52832_xxAA_s132_6.0.0.dir/__/common/src/rtt_input.c.obj
 .text          0x00000000        0x0 examples/enocean_switch/CMakeFiles/enocean_switch_nrf52832_xxAA_s132_6.0.0.dir/__/common/src/simple_hal.c.obj
 .data          0x00000000        0x0 examples/enocean_switch/CMakeFiles/enocean_switch_nrf52832_xxAA_s132_6.0.0.dir/__/common/src/simple_hal.c.obj
 .bss           0x00000000        0x0 examples/enocean_switch/CMakeFiles/enocean_switch_nrf52832_xxAA_s132_6.0.0.dir/__/common/src/simple_hal.c.obj
 .text.hal_led_pin_get
                0x00000000       0x18 examples/enocean_switch/CMakeFiles/enocean_switch_nrf52832_xxAA_s132_6.0.0.dir/__/common/src/simple_hal.c.obj
 .text          0x00000000        0x0 examples/enocean_switch/CMakeFiles/enocean_switch_nrf52832_xxAA_s132_6.0.0.dir/__/common/src/mesh_app_utils.c.obj
 .data          0x00000000        0x0 examples/enocean_switch/CMakeFiles/enocean_switch_nrf52832_xxAA_s132_6.0.0.dir/__/common/src/mesh_app_utils.c.obj
 .bss           0x00000000        0x0 examples/enocean_switch/CMakeFiles/enocean_switch_nrf52832_xxAA_s132_6.0.0.dir/__/common/src/mesh_app_utils.c.obj
 .text.mesh_app_uuid_gen
                0x00000000       0x34 examples/enocean_switch/CMakeFiles/enocean_switch_nrf52832_xxAA_s132_6.0.0.dir/__/common/src/mesh_app_utils.c.obj
 .comment       0x00000000       0x80 examples/enocean_switch/CMakeFiles/enocean_switch_nrf52832_xxAA_s132_6.0.0.dir/__/common/src/mesh_app_utils.c.obj
 .ARM.attributes
                0x00000000       0x39 examples/enocean_switch/CMakeFiles/enocean_switch_nrf52832_xxAA_s132_6.0.0.dir/__/common/src/mesh_app_utils.c.obj
 .text          0x00000000        0x0 examples/enocean_switch/CMakeFiles/enocean_switch_nrf52832_xxAA_s132_6.0.0.dir/__/nrf_mesh_weak.c.obj
 .data          0x00000000        0x0 examples/enocean_switch/CMakeFiles/enocean_switch_nrf52832_xxAA_s132_6.0.0.dir/__/nrf_mesh_weak.c.obj
 .bss           0x00000000        0x0 examples/enocean_switch/CMakeFiles/enocean_switch_nrf52832_xxAA_s132_6.0.0.dir/__/nrf_mesh_weak.c.obj
 .text._weak_handler_ptr
                0x00000000        0x4 examples/enocean_switch/CMakeFiles/enocean_switch_nrf52832_xxAA_s132_6.0.0.dir/__/nrf_mesh_weak.c.obj
 .text          0x00000000        0x0 examples/enocean_switch/CMakeFiles/enocean_switch_nrf52832_xxAA_s132_6.0.0.dir/__/common/src/app_error_weak.c.obj
 .data          0x00000000        0x0 examples/enocean_switch/CMakeFiles/enocean_switch_nrf52832_xxAA_s132_6.0.0.dir/__/common/src/app_error_weak.c.obj
 .bss           0x00000000        0x0 examples/enocean_switch/CMakeFiles/enocean_switch_nrf52832_xxAA_s132_6.0.0.dir/__/common/src/app_error_weak.c.obj
 .text          0x00000000        0x0 examples/enocean_switch/CMakeFiles/enocean_switch_nrf52832_xxAA_s132_6.0.0.dir/__/common/src/assertion_handler_weak.c.obj
 .data          0x00000000        0x0 examples/enocean_switch/CMakeFiles/enocean_switch_nrf52832_xxAA_s132_6.0.0.dir/__/common/src/assertion_handler_weak.c.obj
 .bss           0x00000000        0x0 examples/enocean_switch/CMakeFiles/enocean_switch_nrf52832_xxAA_s132_6.0.0.dir/__/common/src/assertion_handler_weak.c.obj
 .text          0x00000000        0x0 examples/enocean_switch/CMakeFiles/enocean_switch_nrf52832_xxAA_s132_6.0.0.dir/__/__/mesh/core/src/internal_event.c.obj
 .data          0x00000000        0x0 examples/enocean_switch/CMakeFiles/enocean_switch_nrf52832_xxAA_s132_6.0.0.dir/__/__/mesh/core/src/internal_event.c.obj
 .bss           0x00000000        0x0 examples/enocean_switch/CMakeFiles/enocean_switch_nrf52832_xxAA_s132_6.0.0.dir/__/__/mesh/core/src/internal_event.c.obj
 .comment       0x00000000       0x80 examples/enocean_switch/CMakeFiles/enocean_switch_nrf52832_xxAA_s132_6.0.0.dir/__/__/mesh/core/src/internal_event.c.obj
 .ARM.attributes
                0x00000000       0x39 examples/enocean_switch/CMakeFiles/enocean_switch_nrf52832_xxAA_s132_6.0.0.dir/__/__/mesh/core/src/internal_event.c.obj
 .text          0x00000000        0x0 examples/enocean_switch/CMakeFiles/enocean_switch_nrf52832_xxAA_s132_6.0.0.dir/__/__/mesh/core/src/nrf_mesh_configure.c.obj
 .data          0x00000000        0x0 examples/enocean_switch/CMakeFiles/enocean_switch_nrf52832_xxAA_s132_6.0.0.dir/__/__/mesh/core/src/nrf_mesh_configure.c.obj
 .bss           0x00000000        0x0 examples/enocean_switch/CMakeFiles/enocean_switch_nrf52832_xxAA_s132_6.0.0.dir/__/__/mesh/core/src/nrf_mesh_configure.c.obj
 .text          0x00000000        0x0 examples/enocean_switch/CMakeFiles/enocean_switch_nrf52832_xxAA_s132_6.0.0.dir/__/__/mesh/core/src/aes.c.obj
 .data          0x00000000        0x0 examples/enocean_switch/CMakeFiles/enocean_switch_nrf52832_xxAA_s132_6.0.0.dir/__/__/mesh/core/src/aes.c.obj
 .bss           0x00000000        0x0 examples/enocean_switch/CMakeFiles/enocean_switch_nrf52832_xxAA_s132_6.0.0.dir/__/__/mesh/core/src/aes.c.obj
 .text          0x00000000        0x0 examples/enocean_switch/CMakeFiles/enocean_switch_nrf52832_xxAA_s132_6.0.0.dir/__/__/mesh/core/src/msg_cache.c.obj
 .data          0x00000000        0x0 examples/enocean_switch/CMakeFiles/enocean_switch_nrf52832_xxAA_s132_6.0.0.dir/__/__/mesh/core/src/msg_cache.c.obj
 .bss           0x00000000        0x0 examples/enocean_switch/CMakeFiles/enocean_switch_nrf52832_xxAA_s132_6.0.0.dir/__/__/mesh/core/src/msg_cache.c.obj
 .text.msg_cache_clear
                0x00000000       0x18 examples/enocean_switch/CMakeFiles/enocean_switch_nrf52832_xxAA_s132_6.0.0.dir/__/__/mesh/core/src/msg_cache.c.obj
 .text          0x00000000        0x0 examples/enocean_switch/CMakeFiles/enocean_switch_nrf52832_xxAA_s132_6.0.0.dir/__/__/mesh/core/src/transport.c.obj
 .data          0x00000000        0x0 examples/enocean_switch/CMakeFiles/enocean_switch_nrf52832_xxAA_s132_6.0.0.dir/__/__/mesh/core/src/transport.c.obj
 .bss           0x00000000        0x0 examples/enocean_switch/CMakeFiles/enocean_switch_nrf52832_xxAA_s132_6.0.0.dir/__/__/mesh/core/src/transport.c.obj
 .text.transport_sar_mem_funcs_reset
                0x00000000       0x30 examples/enocean_switch/CMakeFiles/enocean_switch_nrf52832_xxAA_s132_6.0.0.dir/__/__/mesh/core/src/transport.c.obj
 .text.transport_sar_mem_funcs_set
                0x00000000       0x48 examples/enocean_switch/CMakeFiles/enocean_switch_nrf52832_xxAA_s132_6.0.0.dir/__/__/mesh/core/src/transport.c.obj
 .text          0x00000000        0x0 examples/enocean_switch/CMakeFiles/enocean_switch_nrf52832_xxAA_s132_6.0.0.dir/__/__/mesh/core/src/event.c.obj
 .data          0x00000000        0x0 examples/enocean_switch/CMakeFiles/enocean_switch_nrf52832_xxAA_s132_6.0.0.dir/__/__/mesh/core/src/event.c.obj
 .bss           0x00000000        0x0 examples/enocean_switch/CMakeFiles/enocean_switch_nrf52832_xxAA_s132_6.0.0.dir/__/__/mesh/core/src/event.c.obj
 .text          0x00000000        0x0 examples/enocean_switch/CMakeFiles/enocean_switch_nrf52832_xxAA_s132_6.0.0.dir/__/__/mesh/core/src/packet_buffer.c.obj
 .data          0x00000000        0x0 examples/enocean_switch/CMakeFiles/enocean_switch_nrf52832_xxAA_s132_6.0.0.dir/__/__/mesh/core/src/packet_buffer.c.obj
 .bss           0x00000000        0x0 examples/enocean_switch/CMakeFiles/enocean_switch_nrf52832_xxAA_s132_6.0.0.dir/__/__/mesh/core/src/packet_buffer.c.obj
 .text.packet_buffer_max_packet_len_get
                0x00000000       0x24 examples/enocean_switch/CMakeFiles/enocean_switch_nrf52832_xxAA_s132_6.0.0.dir/__/__/mesh/core/src/packet_buffer.c.obj
 .text          0x00000000        0x0 examples/enocean_switch/CMakeFiles/enocean_switch_nrf52832_xxAA_s132_6.0.0.dir/__/__/mesh/core/src/flash_manager_defrag.c.obj
 .data          0x00000000        0x0 examples/enocean_switch/CMakeFiles/enocean_switch_nrf52832_xxAA_s132_6.0.0.dir/__/__/mesh/core/src/flash_manager_defrag.c.obj
 .bss           0x00000000        0x0 examples/enocean_switch/CMakeFiles/enocean_switch_nrf52832_xxAA_s132_6.0.0.dir/__/__/mesh/core/src/flash_manager_defrag.c.obj
 .text.flash_manager_defragging
                0x00000000       0x44 examples/enocean_switch/CMakeFiles/enocean_switch_nrf52832_xxAA_s132_6.0.0.dir/__/__/mesh/core/src/flash_manager_defrag.c.obj
 .text          0x00000000        0x0 examples/enocean_switch/CMakeFiles/enocean_switch_nrf52832_xxAA_s132_6.0.0.dir/__/__/mesh/core/src/fifo.c.obj
 .data          0x00000000        0x0 examples/enocean_switch/CMakeFiles/enocean_switch_nrf52832_xxAA_s132_6.0.0.dir/__/__/mesh/core/src/fifo.c.obj
 .bss           0x00000000        0x0 examples/enocean_switch/CMakeFiles/enocean_switch_nrf52832_xxAA_s132_6.0.0.dir/__/__/mesh/core/src/fifo.c.obj
 .text.fifo_peek_at
                0x00000000       0x54 examples/enocean_switch/CMakeFiles/enocean_switch_nrf52832_xxAA_s132_6.0.0.dir/__/__/mesh/core/src/fifo.c.obj
 .text.fifo_peek
                0x00000000       0x50 examples/enocean_switch/CMakeFiles/enocean_switch_nrf52832_xxAA_s132_6.0.0.dir/__/__/mesh/core/src/fifo.c.obj
 .text.fifo_flush
                0x00000000        0x8 examples/enocean_switch/CMakeFiles/enocean_switch_nrf52832_xxAA_s132_6.0.0.dir/__/__/mesh/core/src/fifo.c.obj
 .text.fifo_get_len
                0x00000000        0x8 examples/enocean_switch/CMakeFiles/enocean_switch_nrf52832_xxAA_s132_6.0.0.dir/__/__/mesh/core/src/fifo.c.obj
 .text.fifo_is_full
                0x00000000       0x14 examples/enocean_switch/CMakeFiles/enocean_switch_nrf52832_xxAA_s132_6.0.0.dir/__/__/mesh/core/src/fifo.c.obj
 .text.fifo_is_empty
                0x00000000       0x10 examples/enocean_switch/CMakeFiles/enocean_switch_nrf52832_xxAA_s132_6.0.0.dir/__/__/mesh/core/src/fifo.c.obj
 .text          0x00000000        0x0 examples/enocean_switch/CMakeFiles/enocean_switch_nrf52832_xxAA_s132_6.0.0.dir/__/__/mesh/core/src/nrf_flash.c.obj
 .data          0x00000000        0x0 examples/enocean_switch/CMakeFiles/enocean_switch_nrf52832_xxAA_s132_6.0.0.dir/__/__/mesh/core/src/nrf_flash.c.obj
 .bss           0x00000000        0x0 examples/enocean_switch/CMakeFiles/enocean_switch_nrf52832_xxAA_s132_6.0.0.dir/__/__/mesh/core/src/nrf_flash.c.obj
 .text          0x00000000        0x0 examples/enocean_switch/CMakeFiles/enocean_switch_nrf52832_xxAA_s132_6.0.0.dir/__/__/mesh/core/src/packet_mgr.c.obj
 .data          0x00000000        0x0 examples/enocean_switch/CMakeFiles/enocean_switch_nrf52832_xxAA_s132_6.0.0.dir/__/__/mesh/core/src/packet_mgr.c.obj
 .bss           0x00000000        0x0 examples/enocean_switch/CMakeFiles/enocean_switch_nrf52832_xxAA_s132_6.0.0.dir/__/__/mesh/core/src/packet_mgr.c.obj
 .text.packet_mgr_alloc
                0x00000000      0x1a0 examples/enocean_switch/CMakeFiles/enocean_switch_nrf52832_xxAA_s132_6.0.0.dir/__/__/mesh/core/src/packet_mgr.c.obj
 .text.packet_mgr_free
                0x00000000       0x5c examples/enocean_switch/CMakeFiles/enocean_switch_nrf52832_xxAA_s132_6.0.0.dir/__/__/mesh/core/src/packet_mgr.c.obj
 .text.packet_mgr_get_free_space
                0x00000000       0x1c examples/enocean_switch/CMakeFiles/enocean_switch_nrf52832_xxAA_s132_6.0.0.dir/__/__/mesh/core/src/packet_mgr.c.obj
 .text.packet_mgr_refcount_get
                0x00000000        0x8 examples/enocean_switch/CMakeFiles/enocean_switch_nrf52832_xxAA_s132_6.0.0.dir/__/__/mesh/core/src/packet_mgr.c.obj
 .text.packet_mgr_size_get
                0x00000000        0x8 examples/enocean_switch/CMakeFiles/enocean_switch_nrf52832_xxAA_s132_6.0.0.dir/__/__/mesh/core/src/packet_mgr.c.obj
 .text          0x00000000        0x0 examples/enocean_switch/CMakeFiles/enocean_switch_nrf52832_xxAA_s132_6.0.0.dir/__/__/mesh/core/src/net_state.c.obj
 .data          0x00000000        0x0 examples/enocean_switch/CMakeFiles/enocean_switch_nrf52832_xxAA_s132_6.0.0.dir/__/__/mesh/core/src/net_state.c.obj
 .bss           0x00000000        0x0 examples/enocean_switch/CMakeFiles/enocean_switch_nrf52832_xxAA_s132_6.0.0.dir/__/__/mesh/core/src/net_state.c.obj
 .text.net_state_iv_update_start
                0x00000000       0x90 examples/enocean_switch/CMakeFiles/enocean_switch_nrf52832_xxAA_s132_6.0.0.dir/__/__/mesh/core/src/net_state.c.obj
 .text.net_state_iv_update_test_mode_set
                0x00000000        0xc examples/enocean_switch/CMakeFiles/enocean_switch_nrf52832_xxAA_s132_6.0.0.dir/__/__/mesh/core/src/net_state.c.obj
 .text.net_state_test_mode_transition_run
                0x00000000      0x170 examples/enocean_switch/CMakeFiles/enocean_switch_nrf52832_xxAA_s132_6.0.0.dir/__/__/mesh/core/src/net_state.c.obj
 .text          0x00000000        0x0 examples/enocean_switch/CMakeFiles/enocean_switch_nrf52832_xxAA_s132_6.0.0.dir/__/__/mesh/core/src/mesh_flash.c.obj
 .data          0x00000000        0x0 examples/enocean_switch/CMakeFiles/enocean_switch_nrf52832_xxAA_s132_6.0.0.dir/__/__/mesh/core/src/mesh_flash.c.obj
 .bss           0x00000000        0x0 examples/enocean_switch/CMakeFiles/enocean_switch_nrf52832_xxAA_s132_6.0.0.dir/__/__/mesh/core/src/mesh_flash.c.obj
 .text.mesh_flash_op_available_slots
                0x00000000       0x2c examples/enocean_switch/CMakeFiles/enocean_switch_nrf52832_xxAA_s132_6.0.0.dir/__/__/mesh/core/src/mesh_flash.c.obj
 .text.mesh_flash_in_progress
                0x00000000       0x34 examples/enocean_switch/CMakeFiles/enocean_switch_nrf52832_xxAA_s132_6.0.0.dir/__/__/mesh/core/src/mesh_flash.c.obj
 .text.mesh_flash_set_suspended
                0x00000000      0x228 examples/enocean_switch/CMakeFiles/enocean_switch_nrf52832_xxAA_s132_6.0.0.dir/__/__/mesh/core/src/mesh_flash.c.obj
 .bss.suspend_count.10123
                0x00000000        0x4 examples/enocean_switch/CMakeFiles/enocean_switch_nrf52832_xxAA_s132_6.0.0.dir/__/__/mesh/core/src/mesh_flash.c.obj
 .text          0x00000000        0x0 examples/enocean_switch/CMakeFiles/enocean_switch_nrf52832_xxAA_s132_6.0.0.dir/__/__/mesh/core/src/nrf_mesh_utils.c.obj
 .data          0x00000000        0x0 examples/enocean_switch/CMakeFiles/enocean_switch_nrf52832_xxAA_s132_6.0.0.dir/__/__/mesh/core/src/nrf_mesh_utils.c.obj
 .bss           0x00000000        0x0 examples/enocean_switch/CMakeFiles/enocean_switch_nrf52832_xxAA_s132_6.0.0.dir/__/__/mesh/core/src/nrf_mesh_utils.c.obj
 .text.nrf_mesh_rand_get
                0x00000000       0x10 examples/enocean_switch/CMakeFiles/enocean_switch_nrf52832_xxAA_s132_6.0.0.dir/__/__/mesh/core/src/nrf_mesh_utils.c.obj
 .text.nrf_mesh_gap_address_type_get
                0x00000000       0x34 examples/enocean_switch/CMakeFiles/enocean_switch_nrf52832_xxAA_s132_6.0.0.dir/__/__/mesh/core/src/nrf_mesh_utils.c.obj
 .text          0x00000000        0x0 examples/enocean_switch/CMakeFiles/enocean_switch_nrf52832_xxAA_s132_6.0.0.dir/__/__/mesh/core/src/nrf_mesh.c.obj
 .data          0x00000000        0x0 examples/enocean_switch/CMakeFiles/enocean_switch_nrf52832_xxAA_s132_6.0.0.dir/__/__/mesh/core/src/nrf_mesh.c.obj
 .bss           0x00000000        0x0 examples/enocean_switch/CMakeFiles/enocean_switch_nrf52832_xxAA_s132_6.0.0.dir/__/__/mesh/core/src/nrf_mesh.c.obj
 .text.nrf_mesh_disable
                0x00000000       0x2c examples/enocean_switch/CMakeFiles/enocean_switch_nrf52832_xxAA_s132_6.0.0.dir/__/__/mesh/core/src/nrf_mesh.c.obj
 .text.nrf_mesh_process
                0x00000000        0x4 examples/enocean_switch/CMakeFiles/enocean_switch_nrf52832_xxAA_s132_6.0.0.dir/__/__/mesh/core/src/nrf_mesh.c.obj
 .text.nrf_mesh_evt_handler_remove
                0x00000000        0x4 examples/enocean_switch/CMakeFiles/enocean_switch_nrf52832_xxAA_s132_6.0.0.dir/__/__/mesh/core/src/nrf_mesh.c.obj
 .text.nrf_mesh_rx_cb_clear
                0x00000000        0xc examples/enocean_switch/CMakeFiles/enocean_switch_nrf52832_xxAA_s132_6.0.0.dir/__/__/mesh/core/src/nrf_mesh.c.obj
 .text          0x00000000        0x0 examples/enocean_switch/CMakeFiles/enocean_switch_nrf52832_xxAA_s132_6.0.0.dir/__/__/mesh/core/src/queue.c.obj
 .data          0x00000000        0x0 examples/enocean_switch/CMakeFiles/enocean_switch_nrf52832_xxAA_s132_6.0.0.dir/__/__/mesh/core/src/queue.c.obj
 .bss           0x00000000        0x0 examples/enocean_switch/CMakeFiles/enocean_switch_nrf52832_xxAA_s132_6.0.0.dir/__/__/mesh/core/src/queue.c.obj
 .text          0x00000000        0x0 examples/enocean_switch/CMakeFiles/enocean_switch_nrf52832_xxAA_s132_6.0.0.dir/__/__/mesh/core/src/hal.c.obj
 .data          0x00000000        0x0 examples/enocean_switch/CMakeFiles/enocean_switch_nrf52832_xxAA_s132_6.0.0.dir/__/__/mesh/core/src/hal.c.obj
 .bss           0x00000000        0x0 examples/enocean_switch/CMakeFiles/enocean_switch_nrf52832_xxAA_s132_6.0.0.dir/__/__/mesh/core/src/hal.c.obj
 .text          0x00000000        0x0 examples/enocean_switch/CMakeFiles/enocean_switch_nrf52832_xxAA_s132_6.0.0.dir/__/__/mesh/core/src/aes_cmac.c.obj
 .data          0x00000000        0x0 examples/enocean_switch/CMakeFiles/enocean_switch_nrf52832_xxAA_s132_6.0.0.dir/__/__/mesh/core/src/aes_cmac.c.obj
 .bss           0x00000000        0x0 examples/enocean_switch/CMakeFiles/enocean_switch_nrf52832_xxAA_s132_6.0.0.dir/__/__/mesh/core/src/aes_cmac.c.obj
 .text          0x00000000        0x0 examples/enocean_switch/CMakeFiles/enocean_switch_nrf52832_xxAA_s132_6.0.0.dir/__/__/mesh/core/src/timer_scheduler.c.obj
 .data          0x00000000        0x0 examples/enocean_switch/CMakeFiles/enocean_switch_nrf52832_xxAA_s132_6.0.0.dir/__/__/mesh/core/src/timer_scheduler.c.obj
 .bss           0x00000000        0x0 examples/enocean_switch/CMakeFiles/enocean_switch_nrf52832_xxAA_s132_6.0.0.dir/__/__/mesh/core/src/timer_scheduler.c.obj
 .text          0x00000000        0x0 examples/enocean_switch/CMakeFiles/enocean_switch_nrf52832_xxAA_s132_6.0.0.dir/__/__/mesh/core/src/timer.c.obj
 .data          0x00000000        0x0 examples/enocean_switch/CMakeFiles/enocean_switch_nrf52832_xxAA_s132_6.0.0.dir/__/__/mesh/core/src/timer.c.obj
 .bss           0x00000000        0x0 examples/enocean_switch/CMakeFiles/enocean_switch_nrf52832_xxAA_s132_6.0.0.dir/__/__/mesh/core/src/timer.c.obj
 .text.timer_order_cb_ppi
                0x00000000       0xd8 examples/enocean_switch/CMakeFiles/enocean_switch_nrf52832_xxAA_s132_6.0.0.dir/__/__/mesh/core/src/timer.c.obj
 .text.timer_order_ppi
                0x00000000       0xc8 examples/enocean_switch/CMakeFiles/enocean_switch_nrf52832_xxAA_s132_6.0.0.dir/__/__/mesh/core/src/timer.c.obj
 .text.timer_abort
                0x00000000       0x84 examples/enocean_switch/CMakeFiles/enocean_switch_nrf52832_xxAA_s132_6.0.0.dir/__/__/mesh/core/src/timer.c.obj
 .text          0x00000000        0x0 examples/enocean_switch/CMakeFiles/enocean_switch_nrf52832_xxAA_s132_6.0.0.dir/__/__/mesh/core/src/ticker.c.obj
 .data          0x00000000        0x0 examples/enocean_switch/CMakeFiles/enocean_switch_nrf52832_xxAA_s132_6.0.0.dir/__/__/mesh/core/src/ticker.c.obj
 .bss           0x00000000        0x0 examples/enocean_switch/CMakeFiles/enocean_switch_nrf52832_xxAA_s132_6.0.0.dir/__/__/mesh/core/src/ticker.c.obj
 .text.ticker_get
                0x00000000        0xc examples/enocean_switch/CMakeFiles/enocean_switch_nrf52832_xxAA_s132_6.0.0.dir/__/__/mesh/core/src/ticker.c.obj
 .text          0x00000000        0x0 examples/enocean_switch/CMakeFiles/enocean_switch_nrf52832_xxAA_s132_6.0.0.dir/__/__/mesh/core/src/rand.c.obj
 .data          0x00000000        0x0 examples/enocean_switch/CMakeFiles/enocean_switch_nrf52832_xxAA_s132_6.0.0.dir/__/__/mesh/core/src/rand.c.obj
 .bss           0x00000000        0x0 examples/enocean_switch/CMakeFiles/enocean_switch_nrf52832_xxAA_s132_6.0.0.dir/__/__/mesh/core/src/rand.c.obj
 .text          0x00000000        0x0 examples/enocean_switch/CMakeFiles/enocean_switch_nrf52832_xxAA_s132_6.0.0.dir/__/__/mesh/core/src/nrf_mesh_opt.c.obj
 .data          0x00000000        0x0 examples/enocean_switch/CMakeFiles/enocean_switch_nrf52832_xxAA_s132_6.0.0.dir/__/__/mesh/core/src/nrf_mesh_opt.c.obj
 .bss           0x00000000        0x0 examples/enocean_switch/CMakeFiles/enocean_switch_nrf52832_xxAA_s132_6.0.0.dir/__/__/mesh/core/src/nrf_mesh_opt.c.obj
 .text          0x00000000        0x0 examples/enocean_switch/CMakeFiles/enocean_switch_nrf52832_xxAA_s132_6.0.0.dir/__/__/mesh/core/src/timeslot.c.obj
 .data          0x00000000        0x0 examples/enocean_switch/CMakeFiles/enocean_switch_nrf52832_xxAA_s132_6.0.0.dir/__/__/mesh/core/src/timeslot.c.obj
 .bss           0x00000000        0x0 examples/enocean_switch/CMakeFiles/enocean_switch_nrf52832_xxAA_s132_6.0.0.dir/__/__/mesh/core/src/timeslot.c.obj
 .text.timeslot_restart
                0x00000000       0x30 examples/enocean_switch/CMakeFiles/enocean_switch_nrf52832_xxAA_s132_6.0.0.dir/__/__/mesh/core/src/timeslot.c.obj
 .text.timeslot_end_time_get
                0x00000000       0x30 examples/enocean_switch/CMakeFiles/enocean_switch_nrf52832_xxAA_s132_6.0.0.dir/__/__/mesh/core/src/timeslot.c.obj
 .text.timeslot_is_in_ts
                0x00000000        0xc examples/enocean_switch/CMakeFiles/enocean_switch_nrf52832_xxAA_s132_6.0.0.dir/__/__/mesh/core/src/timeslot.c.obj
 .text          0x00000000        0x0 examples/enocean_switch/CMakeFiles/enocean_switch_nrf52832_xxAA_s132_6.0.0.dir/__/__/mesh/core/src/bearer_event.c.obj
 .data          0x00000000        0x0 examples/enocean_switch/CMakeFiles/enocean_switch_nrf52832_xxAA_s132_6.0.0.dir/__/__/mesh/core/src/bearer_event.c.obj
 .bss           0x00000000        0x0 examples/enocean_switch/CMakeFiles/enocean_switch_nrf52832_xxAA_s132_6.0.0.dir/__/__/mesh/core/src/bearer_event.c.obj
 .text.bearer_event_generic_post
                0x00000000       0x50 examples/enocean_switch/CMakeFiles/enocean_switch_nrf52832_xxAA_s132_6.0.0.dir/__/__/mesh/core/src/bearer_event.c.obj
 .text.bearer_event_timer_sch_post
                0x00000000       0x54 examples/enocean_switch/CMakeFiles/enocean_switch_nrf52832_xxAA_s132_6.0.0.dir/__/__/mesh/core/src/bearer_event.c.obj
 .text.bearer_event_in_correct_irq_priority
                0x00000000       0x54 examples/enocean_switch/CMakeFiles/enocean_switch_nrf52832_xxAA_s132_6.0.0.dir/__/__/mesh/core/src/bearer_event.c.obj
 .text          0x00000000        0x0 examples/enocean_switch/CMakeFiles/enocean_switch_nrf52832_xxAA_s132_6.0.0.dir/__/__/mesh/core/src/enc.c.obj
 .data          0x00000000        0x0 examples/enocean_switch/CMakeFiles/enocean_switch_nrf52832_xxAA_s132_6.0.0.dir/__/__/mesh/core/src/enc.c.obj
 .bss           0x00000000        0x0 examples/enocean_switch/CMakeFiles/enocean_switch_nrf52832_xxAA_s132_6.0.0.dir/__/__/mesh/core/src/enc.c.obj
 .text.enc_key_generate
                0x00000000        0x8 examples/enocean_switch/CMakeFiles/enocean_switch_nrf52832_xxAA_s132_6.0.0.dir/__/__/mesh/core/src/enc.c.obj
 .text          0x00000000        0x0 examples/enocean_switch/CMakeFiles/enocean_switch_nrf52832_xxAA_s132_6.0.0.dir/__/__/mesh/core/src/network.c.obj
 .data          0x00000000        0x0 examples/enocean_switch/CMakeFiles/enocean_switch_nrf52832_xxAA_s132_6.0.0.dir/__/__/mesh/core/src/network.c.obj
 .bss           0x00000000        0x0 examples/enocean_switch/CMakeFiles/enocean_switch_nrf52832_xxAA_s132_6.0.0.dir/__/__/mesh/core/src/network.c.obj
 .text.network_packet_discard
                0x00000000       0x28 examples/enocean_switch/CMakeFiles/enocean_switch_nrf52832_xxAA_s132_6.0.0.dir/__/__/mesh/core/src/network.c.obj
 .text          0x00000000        0x0 examples/enocean_switch/CMakeFiles/enocean_switch_nrf52832_xxAA_s132_6.0.0.dir/__/__/mesh/core/src/net_packet.c.obj
 .data          0x00000000        0x0 examples/enocean_switch/CMakeFiles/enocean_switch_nrf52832_xxAA_s132_6.0.0.dir/__/__/mesh/core/src/net_packet.c.obj
 .bss           0x00000000        0x0 examples/enocean_switch/CMakeFiles/enocean_switch_nrf52832_xxAA_s132_6.0.0.dir/__/__/mesh/core/src/net_packet.c.obj
 .text.net_packet_enc_start_get
                0x00000000        0x4 examples/enocean_switch/CMakeFiles/enocean_switch_nrf52832_xxAA_s132_6.0.0.dir/__/__/mesh/core/src/net_packet.c.obj
 .text.net_packet_payload_get
                0x00000000        0x4 examples/enocean_switch/CMakeFiles/enocean_switch_nrf52832_xxAA_s132_6.0.0.dir/__/__/mesh/core/src/net_packet.c.obj
 .text          0x00000000        0x0 examples/enocean_switch/CMakeFiles/enocean_switch_nrf52832_xxAA_s132_6.0.0.dir/__/__/mesh/core/src/msqueue.c.obj
 .data          0x00000000        0x0 examples/enocean_switch/CMakeFiles/enocean_switch_nrf52832_xxAA_s132_6.0.0.dir/__/__/mesh/core/src/msqueue.c.obj
 .bss           0x00000000        0x0 examples/enocean_switch/CMakeFiles/enocean_switch_nrf52832_xxAA_s132_6.0.0.dir/__/__/mesh/core/src/msqueue.c.obj
 .text.msq_reset
                0x00000000       0x24 examples/enocean_switch/CMakeFiles/enocean_switch_nrf52832_xxAA_s132_6.0.0.dir/__/__/mesh/core/src/msqueue.c.obj
 .text          0x00000000        0x0 examples/enocean_switch/CMakeFiles/enocean_switch_nrf52832_xxAA_s132_6.0.0.dir/__/__/mesh/core/src/nrf_mesh_keygen.c.obj
 .data          0x00000000        0x0 examples/enocean_switch/CMakeFiles/enocean_switch_nrf52832_xxAA_s132_6.0.0.dir/__/__/mesh/core/src/nrf_mesh_keygen.c.obj
 .bss           0x00000000        0x0 examples/enocean_switch/CMakeFiles/enocean_switch_nrf52832_xxAA_s132_6.0.0.dir/__/__/mesh/core/src/nrf_mesh_keygen.c.obj
 .text.nrf_mesh_keygen_identitykey
                0x00000000       0x4c examples/enocean_switch/CMakeFiles/enocean_switch_nrf52832_xxAA_s132_6.0.0.dir/__/__/mesh/core/src/nrf_mesh_keygen.c.obj
 .text          0x00000000        0x0 examples/enocean_switch/CMakeFiles/enocean_switch_nrf52832_xxAA_s132_6.0.0.dir/__/__/mesh/core/src/cache.c.obj
 .data          0x00000000        0x0 examples/enocean_switch/CMakeFiles/enocean_switch_nrf52832_xxAA_s132_6.0.0.dir/__/__/mesh/core/src/cache.c.obj
 .bss           0x00000000        0x0 examples/enocean_switch/CMakeFiles/enocean_switch_nrf52832_xxAA_s132_6.0.0.dir/__/__/mesh/core/src/cache.c.obj
 .text.cache_init
                0x00000000       0x44 examples/enocean_switch/CMakeFiles/enocean_switch_nrf52832_xxAA_s132_6.0.0.dir/__/__/mesh/core/src/cache.c.obj
 .text.cache_has_elem
                0x00000000       0x5c examples/enocean_switch/CMakeFiles/enocean_switch_nrf52832_xxAA_s132_6.0.0.dir/__/__/mesh/core/src/cache.c.obj
 .text.cache_put
                0x00000000       0x2c examples/enocean_switch/CMakeFiles/enocean_switch_nrf52832_xxAA_s132_6.0.0.dir/__/__/mesh/core/src/cache.c.obj
 .text.cache_erase_elem
                0x00000000       0x80 examples/enocean_switch/CMakeFiles/enocean_switch_nrf52832_xxAA_s132_6.0.0.dir/__/__/mesh/core/src/cache.c.obj
 .comment       0x00000000       0x80 examples/enocean_switch/CMakeFiles/enocean_switch_nrf52832_xxAA_s132_6.0.0.dir/__/__/mesh/core/src/cache.c.obj
 .ARM.attributes
                0x00000000       0x39 examples/enocean_switch/CMakeFiles/enocean_switch_nrf52832_xxAA_s132_6.0.0.dir/__/__/mesh/core/src/cache.c.obj
 .text          0x00000000        0x0 examples/enocean_switch/CMakeFiles/enocean_switch_nrf52832_xxAA_s132_6.0.0.dir/__/__/mesh/core/src/uri.c.obj
 .data          0x00000000        0x0 examples/enocean_switch/CMakeFiles/enocean_switch_nrf52832_xxAA_s132_6.0.0.dir/__/__/mesh/core/src/uri.c.obj
 .bss           0x00000000        0x0 examples/enocean_switch/CMakeFiles/enocean_switch_nrf52832_xxAA_s132_6.0.0.dir/__/__/mesh/core/src/uri.c.obj
 .text.uri_data_generate
                0x00000000       0x88 examples/enocean_switch/CMakeFiles/enocean_switch_nrf52832_xxAA_s132_6.0.0.dir/__/__/mesh/core/src/uri.c.obj
 .text.uri_data_parse
                0x00000000       0x80 examples/enocean_switch/CMakeFiles/enocean_switch_nrf52832_xxAA_s132_6.0.0.dir/__/__/mesh/core/src/uri.c.obj
 .text.uri_scheme_name_code_point
                0x00000000       0x5c examples/enocean_switch/CMakeFiles/enocean_switch_nrf52832_xxAA_s132_6.0.0.dir/__/__/mesh/core/src/uri.c.obj
 .text.uri_scheme_name_string
                0x00000000       0x14 examples/enocean_switch/CMakeFiles/enocean_switch_nrf52832_xxAA_s132_6.0.0.dir/__/__/mesh/core/src/uri.c.obj
 .rodata.m_code_point_strings
                0x00000000      0x2ec examples/enocean_switch/CMakeFiles/enocean_switch_nrf52832_xxAA_s132_6.0.0.dir/__/__/mesh/core/src/uri.c.obj
 .rodata.str1.4
                0x00000000      0x6ba examples/enocean_switch/CMakeFiles/enocean_switch_nrf52832_xxAA_s132_6.0.0.dir/__/__/mesh/core/src/uri.c.obj
 .comment       0x00000000       0x80 examples/enocean_switch/CMakeFiles/enocean_switch_nrf52832_xxAA_s132_6.0.0.dir/__/__/mesh/core/src/uri.c.obj
 .ARM.attributes
                0x00000000       0x39 examples/enocean_switch/CMakeFiles/enocean_switch_nrf52832_xxAA_s132_6.0.0.dir/__/__/mesh/core/src/uri.c.obj
 .text          0x00000000        0x0 examples/enocean_switch/CMakeFiles/enocean_switch_nrf52832_xxAA_s132_6.0.0.dir/__/__/mesh/core/src/list.c.obj
 .data          0x00000000        0x0 examples/enocean_switch/CMakeFiles/enocean_switch_nrf52832_xxAA_s132_6.0.0.dir/__/__/mesh/core/src/list.c.obj
 .bss           0x00000000        0x0 examples/enocean_switch/CMakeFiles/enocean_switch_nrf52832_xxAA_s132_6.0.0.dir/__/__/mesh/core/src/list.c.obj
 .text.list_size_get
                0x00000000       0x14 examples/enocean_switch/CMakeFiles/enocean_switch_nrf52832_xxAA_s132_6.0.0.dir/__/__/mesh/core/src/list.c.obj
 .text.list_sorted_add
                0x00000000       0x8c examples/enocean_switch/CMakeFiles/enocean_switch_nrf52832_xxAA_s132_6.0.0.dir/__/__/mesh/core/src/list.c.obj
 .text          0x00000000        0x0 examples/enocean_switch/CMakeFiles/enocean_switch_nrf52832_xxAA_s132_6.0.0.dir/__/__/mesh/core/src/log.c.obj
 .data          0x00000000        0x0 examples/enocean_switch/CMakeFiles/enocean_switch_nrf52832_xxAA_s132_6.0.0.dir/__/__/mesh/core/src/log.c.obj
 .bss           0x00000000        0x0 examples/enocean_switch/CMakeFiles/enocean_switch_nrf52832_xxAA_s132_6.0.0.dir/__/__/mesh/core/src/log.c.obj
 .text.log_callback_logview
                0x00000000       0x38 examples/enocean_switch/CMakeFiles/enocean_switch_nrf52832_xxAA_s132_6.0.0.dir/__/__/mesh/core/src/log.c.obj
 .text.log_set_callback
                0x00000000        0xc examples/enocean_switch/CMakeFiles/enocean_switch_nrf52832_xxAA_s132_6.0.0.dir/__/__/mesh/core/src/log.c.obj
 .text.log_vprintf
                0x00000000       0x18 examples/enocean_switch/CMakeFiles/enocean_switch_nrf52832_xxAA_s132_6.0.0.dir/__/__/mesh/core/src/log.c.obj
 .rodata.log_callback_logview.str1.4
                0x00000000       0x12 examples/enocean_switch/CMakeFiles/enocean_switch_nrf52832_xxAA_s132_6.0.0.dir/__/__/mesh/core/src/log.c.obj
 .text          0x00000000        0x0 examples/enocean_switch/CMakeFiles/enocean_switch_nrf52832_xxAA_s132_6.0.0.dir/__/__/mesh/core/src/flash_manager.c.obj
 .data          0x00000000        0x0 examples/enocean_switch/CMakeFiles/enocean_switch_nrf52832_xxAA_s132_6.0.0.dir/__/__/mesh/core/src/flash_manager.c.obj
 .bss           0x00000000        0x0 examples/enocean_switch/CMakeFiles/enocean_switch_nrf52832_xxAA_s132_6.0.0.dir/__/__/mesh/core/src/flash_manager.c.obj
 .text.flash_manager_entry_count_get
                0x00000000       0xf4 examples/enocean_switch/CMakeFiles/enocean_switch_nrf52832_xxAA_s132_6.0.0.dir/__/__/mesh/core/src/flash_manager.c.obj
 .text.flash_manager_entry_release
                0x00000000       0x74 examples/enocean_switch/CMakeFiles/enocean_switch_nrf52832_xxAA_s132_6.0.0.dir/__/__/mesh/core/src/flash_manager.c.obj
 .text          0x00000000        0x0 examples/enocean_switch/CMakeFiles/enocean_switch_nrf52832_xxAA_s132_6.0.0.dir/__/__/mesh/core/src/ccm_soft.c.obj
 .data          0x00000000        0x0 examples/enocean_switch/CMakeFiles/enocean_switch_nrf52832_xxAA_s132_6.0.0.dir/__/__/mesh/core/src/ccm_soft.c.obj
 .bss           0x00000000        0x0 examples/enocean_switch/CMakeFiles/enocean_switch_nrf52832_xxAA_s132_6.0.0.dir/__/__/mesh/core/src/ccm_soft.c.obj
 .text          0x00000000        0x0 examples/enocean_switch/CMakeFiles/enocean_switch_nrf52832_xxAA_s132_6.0.0.dir/__/__/mesh/core/src/toolchain.c.obj
 .data          0x00000000        0x0 examples/enocean_switch/CMakeFiles/enocean_switch_nrf52832_xxAA_s132_6.0.0.dir/__/__/mesh/core/src/toolchain.c.obj
 .bss           0x00000000        0x0 examples/enocean_switch/CMakeFiles/enocean_switch_nrf52832_xxAA_s132_6.0.0.dir/__/__/mesh/core/src/toolchain.c.obj
 .comment       0x00000000       0x80 examples/enocean_switch/CMakeFiles/enocean_switch_nrf52832_xxAA_s132_6.0.0.dir/__/__/mesh/core/src/toolchain.c.obj
 .ARM.attributes
                0x00000000       0x39 examples/enocean_switch/CMakeFiles/enocean_switch_nrf52832_xxAA_s132_6.0.0.dir/__/__/mesh/core/src/toolchain.c.obj
 .text          0x00000000        0x0 examples/enocean_switch/CMakeFiles/enocean_switch_nrf52832_xxAA_s132_6.0.0.dir/__/__/mesh/core/src/replay_cache.c.obj
 .data          0x00000000        0x0 examples/enocean_switch/CMakeFiles/enocean_switch_nrf52832_xxAA_s132_6.0.0.dir/__/__/mesh/core/src/replay_cache.c.obj
 .bss           0x00000000        0x0 examples/enocean_switch/CMakeFiles/enocean_switch_nrf52832_xxAA_s132_6.0.0.dir/__/__/mesh/core/src/replay_cache.c.obj
 .text.replay_cache_on_iv_update
                0x00000000       0x2c examples/enocean_switch/CMakeFiles/enocean_switch_nrf52832_xxAA_s132_6.0.0.dir/__/__/mesh/core/src/replay_cache.c.obj
 .text.replay_cache_clear
                0x00000000       0x20 examples/enocean_switch/CMakeFiles/enocean_switch_nrf52832_xxAA_s132_6.0.0.dir/__/__/mesh/core/src/replay_cache.c.obj
 .text          0x00000000        0x0 examples/enocean_switch/CMakeFiles/enocean_switch_nrf52832_xxAA_s132_6.0.0.dir/__/__/mesh/core/src/beacon.c.obj
 .data          0x00000000        0x0 examples/enocean_switch/CMakeFiles/enocean_switch_nrf52832_xxAA_s132_6.0.0.dir/__/__/mesh/core/src/beacon.c.obj
 .bss           0x00000000        0x0 examples/enocean_switch/CMakeFiles/enocean_switch_nrf52832_xxAA_s132_6.0.0.dir/__/__/mesh/core/src/beacon.c.obj
 .text          0x00000000        0x0 examples/enocean_switch/CMakeFiles/enocean_switch_nrf52832_xxAA_s132_6.0.0.dir/__/__/mesh/core/src/flash_manager_internal.c.obj
 .data          0x00000000        0x0 examples/enocean_switch/CMakeFiles/enocean_switch_nrf52832_xxAA_s132_6.0.0.dir/__/__/mesh/core/src/flash_manager_internal.c.obj
 .bss           0x00000000        0x0 examples/enocean_switch/CMakeFiles/enocean_switch_nrf52832_xxAA_s132_6.0.0.dir/__/__/mesh/core/src/flash_manager_internal.c.obj
 .text          0x00000000        0x0 examples/enocean_switch/CMakeFiles/enocean_switch_nrf52832_xxAA_s132_6.0.0.dir/__/__/mesh/core/src/core_tx.c.obj
 .data          0x00000000        0x0 examples/enocean_switch/CMakeFiles/enocean_switch_nrf52832_xxAA_s132_6.0.0.dir/__/__/mesh/core/src/core_tx.c.obj
 .bss           0x00000000        0x0 examples/enocean_switch/CMakeFiles/enocean_switch_nrf52832_xxAA_s132_6.0.0.dir/__/__/mesh/core/src/core_tx.c.obj
 .text.core_tx_bearer_type_get
                0x00000000       0x2c examples/enocean_switch/CMakeFiles/enocean_switch_nrf52832_xxAA_s132_6.0.0.dir/__/__/mesh/core/src/core_tx.c.obj
 .text.core_tx_bearer_count_get
                0x00000000        0xc examples/enocean_switch/CMakeFiles/enocean_switch_nrf52832_xxAA_s132_6.0.0.dir/__/__/mesh/core/src/core_tx.c.obj
 .text          0x00000000        0x0 examples/enocean_switch/CMakeFiles/enocean_switch_nrf52832_xxAA_s132_6.0.0.dir/__/__/mesh/core/src/heartbeat.c.obj
 .data          0x00000000        0x0 examples/enocean_switch/CMakeFiles/enocean_switch_nrf52832_xxAA_s132_6.0.0.dir/__/__/mesh/core/src/heartbeat.c.obj
 .bss           0x00000000        0x0 examples/enocean_switch/CMakeFiles/enocean_switch_nrf52832_xxAA_s132_6.0.0.dir/__/__/mesh/core/src/heartbeat.c.obj
 .text          0x00000000        0x0 examples/enocean_switch/CMakeFiles/enocean_switch_nrf52832_xxAA_s132_6.0.0.dir/__/__/mesh/core/src/net_beacon.c.obj
 .data          0x00000000        0x0 examples/enocean_switch/CMakeFiles/enocean_switch_nrf52832_xxAA_s132_6.0.0.dir/__/__/mesh/core/src/net_beacon.c.obj
 .bss           0x00000000        0x0 examples/enocean_switch/CMakeFiles/enocean_switch_nrf52832_xxAA_s132_6.0.0.dir/__/__/mesh/core/src/net_beacon.c.obj
 .text.net_beacon_build
                0x00000000       0x68 examples/enocean_switch/CMakeFiles/enocean_switch_nrf52832_xxAA_s132_6.0.0.dir/__/__/mesh/core/src/net_beacon.c.obj
 .text          0x00000000        0x0 examples/enocean_switch/CMakeFiles/enocean_switch_nrf52832_xxAA_s132_6.0.0.dir/__/__/mesh/core/src/fsm.c.obj
 .data          0x00000000        0x0 examples/enocean_switch/CMakeFiles/enocean_switch_nrf52832_xxAA_s132_6.0.0.dir/__/__/mesh/core/src/fsm.c.obj
 .bss           0x00000000        0x0 examples/enocean_switch/CMakeFiles/enocean_switch_nrf52832_xxAA_s132_6.0.0.dir/__/__/mesh/core/src/fsm.c.obj
 .text.fsm_event_post_try
                0x00000000      0x238 examples/enocean_switch/CMakeFiles/enocean_switch_nrf52832_xxAA_s132_6.0.0.dir/__/__/mesh/core/src/fsm.c.obj
 .text.fsm_init
                0x00000000      0x100 examples/enocean_switch/CMakeFiles/enocean_switch_nrf52832_xxAA_s132_6.0.0.dir/__/__/mesh/core/src/fsm.c.obj
 .text.fsm_event_post
                0x00000000       0xbc examples/enocean_switch/CMakeFiles/enocean_switch_nrf52832_xxAA_s132_6.0.0.dir/__/__/mesh/core/src/fsm.c.obj
 .text.fsm_is_processing
                0x00000000        0xc examples/enocean_switch/CMakeFiles/enocean_switch_nrf52832_xxAA_s132_6.0.0.dir/__/__/mesh/core/src/fsm.c.obj
 .rodata.fsm_event_post.str1.4
                0x00000000        0xb examples/enocean_switch/CMakeFiles/enocean_switch_nrf52832_xxAA_s132_6.0.0.dir/__/__/mesh/core/src/fsm.c.obj
 .rodata.fsm_event_post_try.str1.4
                0x00000000       0x44 examples/enocean_switch/CMakeFiles/enocean_switch_nrf52832_xxAA_s132_6.0.0.dir/__/__/mesh/core/src/fsm.c.obj
 .rodata.fsm_init.str1.4
                0x00000000        0xa examples/enocean_switch/CMakeFiles/enocean_switch_nrf52832_xxAA_s132_6.0.0.dir/__/__/mesh/core/src/fsm.c.obj
 .comment       0x00000000       0x80 examples/enocean_switch/CMakeFiles/enocean_switch_nrf52832_xxAA_s132_6.0.0.dir/__/__/mesh/core/src/fsm.c.obj
 .ARM.attributes
                0x00000000       0x39 examples/enocean_switch/CMakeFiles/enocean_switch_nrf52832_xxAA_s132_6.0.0.dir/__/__/mesh/core/src/fsm.c.obj
 .text          0x00000000        0x0 examples/enocean_switch/CMakeFiles/enocean_switch_nrf52832_xxAA_s132_6.0.0.dir/__/__/mesh/core/src/core_tx_adv.c.obj
 .data          0x00000000        0x0 examples/enocean_switch/CMakeFiles/enocean_switch_nrf52832_xxAA_s132_6.0.0.dir/__/__/mesh/core/src/core_tx_adv.c.obj
 .bss           0x00000000        0x0 examples/enocean_switch/CMakeFiles/enocean_switch_nrf52832_xxAA_s132_6.0.0.dir/__/__/mesh/core/src/core_tx_adv.c.obj
 .text.core_tx_adv_address_set
                0x00000000       0x28 examples/enocean_switch/CMakeFiles/enocean_switch_nrf52832_xxAA_s132_6.0.0.dir/__/__/mesh/core/src/core_tx_adv.c.obj
 .text          0x00000000        0x0 examples/enocean_switch/CMakeFiles/enocean_switch_nrf52832_xxAA_s132_6.0.0.dir/__/__/mesh/bearer/src/ad_listener.c.obj
 .data          0x00000000        0x0 examples/enocean_switch/CMakeFiles/enocean_switch_nrf52832_xxAA_s132_6.0.0.dir/__/__/mesh/bearer/src/ad_listener.c.obj
 .bss           0x00000000        0x0 examples/enocean_switch/CMakeFiles/enocean_switch_nrf52832_xxAA_s132_6.0.0.dir/__/__/mesh/bearer/src/ad_listener.c.obj
 .text.ad_listener_unsubscribe
                0x00000000       0x7c examples/enocean_switch/CMakeFiles/enocean_switch_nrf52832_xxAA_s132_6.0.0.dir/__/__/mesh/bearer/src/ad_listener.c.obj
 .text          0x00000000        0x0 examples/enocean_switch/CMakeFiles/enocean_switch_nrf52832_xxAA_s132_6.0.0.dir/__/__/mesh/bearer/src/ad_type_filter.c.obj
 .data          0x00000000        0x0 examples/enocean_switch/CMakeFiles/enocean_switch_nrf52832_xxAA_s132_6.0.0.dir/__/__/mesh/bearer/src/ad_type_filter.c.obj
 .bss           0x00000000        0x0 examples/enocean_switch/CMakeFiles/enocean_switch_nrf52832_xxAA_s132_6.0.0.dir/__/__/mesh/bearer/src/ad_type_filter.c.obj
 .text.bearer_adtype_remove
                0x00000000       0x28 examples/enocean_switch/CMakeFiles/enocean_switch_nrf52832_xxAA_s132_6.0.0.dir/__/__/mesh/bearer/src/ad_type_filter.c.obj
 .text.bearer_adtype_clear
                0x00000000       0x10 examples/enocean_switch/CMakeFiles/enocean_switch_nrf52832_xxAA_s132_6.0.0.dir/__/__/mesh/bearer/src/ad_type_filter.c.obj
 .text.bearer_invalid_length_amount_get
                0x00000000        0xc examples/enocean_switch/CMakeFiles/enocean_switch_nrf52832_xxAA_s132_6.0.0.dir/__/__/mesh/bearer/src/ad_type_filter.c.obj
 .text.bearer_adtype_filtered_amount_get
                0x00000000        0xc examples/enocean_switch/CMakeFiles/enocean_switch_nrf52832_xxAA_s132_6.0.0.dir/__/__/mesh/bearer/src/ad_type_filter.c.obj
 .text          0x00000000        0x0 examples/enocean_switch/CMakeFiles/enocean_switch_nrf52832_xxAA_s132_6.0.0.dir/__/__/mesh/bearer/src/adv_packet_filter.c.obj
 .data          0x00000000        0x0 examples/enocean_switch/CMakeFiles/enocean_switch_nrf52832_xxAA_s132_6.0.0.dir/__/__/mesh/bearer/src/adv_packet_filter.c.obj
 .bss           0x00000000        0x0 examples/enocean_switch/CMakeFiles/enocean_switch_nrf52832_xxAA_s132_6.0.0.dir/__/__/mesh/bearer/src/adv_packet_filter.c.obj
 .text.adv_filter_handle
                0x00000000       0x40 examples/enocean_switch/CMakeFiles/enocean_switch_nrf52832_xxAA_s132_6.0.0.dir/__/__/mesh/bearer/src/adv_packet_filter.c.obj
 .text.bearer_adv_packet_filtering_set
                0x00000000       0x1c examples/enocean_switch/CMakeFiles/enocean_switch_nrf52832_xxAA_s132_6.0.0.dir/__/__/mesh/bearer/src/adv_packet_filter.c.obj
 .text.bearer_adv_packet_remove
                0x00000000       0x18 examples/enocean_switch/CMakeFiles/enocean_switch_nrf52832_xxAA_s132_6.0.0.dir/__/__/mesh/bearer/src/adv_packet_filter.c.obj
 .text.bearer_adv_packet_add
                0x00000000       0x14 examples/enocean_switch/CMakeFiles/enocean_switch_nrf52832_xxAA_s132_6.0.0.dir/__/__/mesh/bearer/src/adv_packet_filter.c.obj
 .text.bearer_adv_packet_clear
                0x00000000        0xc examples/enocean_switch/CMakeFiles/enocean_switch_nrf52832_xxAA_s132_6.0.0.dir/__/__/mesh/bearer/src/adv_packet_filter.c.obj
 .text.bearer_adv_packet_filter_mode_set
                0x00000000       0x18 examples/enocean_switch/CMakeFiles/enocean_switch_nrf52832_xxAA_s132_6.0.0.dir/__/__/mesh/bearer/src/adv_packet_filter.c.obj
 .text.bearer_adv_packet_filtered_amount_get
                0x00000000        0xc examples/enocean_switch/CMakeFiles/enocean_switch_nrf52832_xxAA_s132_6.0.0.dir/__/__/mesh/bearer/src/adv_packet_filter.c.obj
 .bss.m_adv_packet_filter
                0x00000000       0x14 examples/enocean_switch/CMakeFiles/enocean_switch_nrf52832_xxAA_s132_6.0.0.dir/__/__/mesh/bearer/src/adv_packet_filter.c.obj
 .comment       0x00000000       0x80 examples/enocean_switch/CMakeFiles/enocean_switch_nrf52832_xxAA_s132_6.0.0.dir/__/__/mesh/bearer/src/adv_packet_filter.c.obj
 .ARM.attributes
                0x00000000       0x39 examples/enocean_switch/CMakeFiles/enocean_switch_nrf52832_xxAA_s132_6.0.0.dir/__/__/mesh/bearer/src/adv_packet_filter.c.obj
 .text          0x00000000        0x0 examples/enocean_switch/CMakeFiles/enocean_switch_nrf52832_xxAA_s132_6.0.0.dir/__/__/mesh/bearer/src/advertiser.c.obj
 .data          0x00000000        0x0 examples/enocean_switch/CMakeFiles/enocean_switch_nrf52832_xxAA_s132_6.0.0.dir/__/__/mesh/bearer/src/advertiser.c.obj
 .bss           0x00000000        0x0 examples/enocean_switch/CMakeFiles/enocean_switch_nrf52832_xxAA_s132_6.0.0.dir/__/__/mesh/bearer/src/advertiser.c.obj
 .text.advertiser_disable
                0x00000000        0xc examples/enocean_switch/CMakeFiles/enocean_switch_nrf52832_xxAA_s132_6.0.0.dir/__/__/mesh/bearer/src/advertiser.c.obj
 .text.advertiser_config_set
                0x00000000      0x180 examples/enocean_switch/CMakeFiles/enocean_switch_nrf52832_xxAA_s132_6.0.0.dir/__/__/mesh/bearer/src/advertiser.c.obj
 .text.advertiser_channels_set
                0x00000000       0x94 examples/enocean_switch/CMakeFiles/enocean_switch_nrf52832_xxAA_s132_6.0.0.dir/__/__/mesh/bearer/src/advertiser.c.obj
 .text.advertiser_address_set
                0x00000000       0x64 examples/enocean_switch/CMakeFiles/enocean_switch_nrf52832_xxAA_s132_6.0.0.dir/__/__/mesh/bearer/src/advertiser.c.obj
 .text.advertiser_config_get
                0x00000000       0x24 examples/enocean_switch/CMakeFiles/enocean_switch_nrf52832_xxAA_s132_6.0.0.dir/__/__/mesh/bearer/src/advertiser.c.obj
 .text.advertiser_address_default_get
                0x00000000       0x5c examples/enocean_switch/CMakeFiles/enocean_switch_nrf52832_xxAA_s132_6.0.0.dir/__/__/mesh/bearer/src/advertiser.c.obj
 .text          0x00000000        0x0 examples/enocean_switch/CMakeFiles/enocean_switch_nrf52832_xxAA_s132_6.0.0.dir/__/__/mesh/bearer/src/bearer_handler.c.obj
 .data          0x00000000        0x0 examples/enocean_switch/CMakeFiles/enocean_switch_nrf52832_xxAA_s132_6.0.0.dir/__/__/mesh/bearer/src/bearer_handler.c.obj
 .bss           0x00000000        0x0 examples/enocean_switch/CMakeFiles/enocean_switch_nrf52832_xxAA_s132_6.0.0.dir/__/__/mesh/bearer/src/bearer_handler.c.obj
 .text.bearer_handler_stop
                0x00000000       0x20 examples/enocean_switch/CMakeFiles/enocean_switch_nrf52832_xxAA_s132_6.0.0.dir/__/__/mesh/bearer/src/bearer_handler.c.obj
 .text.bearer_handler_action_fire
                0x00000000       0x9c examples/enocean_switch/CMakeFiles/enocean_switch_nrf52832_xxAA_s132_6.0.0.dir/__/__/mesh/bearer/src/bearer_handler.c.obj
 .text          0x00000000        0x0 examples/enocean_switch/CMakeFiles/enocean_switch_nrf52832_xxAA_s132_6.0.0.dir/__/__/mesh/bearer/src/broadcast.c.obj
 .data          0x00000000        0x0 examples/enocean_switch/CMakeFiles/enocean_switch_nrf52832_xxAA_s132_6.0.0.dir/__/__/mesh/bearer/src/broadcast.c.obj
 .bss           0x00000000        0x0 examples/enocean_switch/CMakeFiles/enocean_switch_nrf52832_xxAA_s132_6.0.0.dir/__/__/mesh/bearer/src/broadcast.c.obj
 .text          0x00000000        0x0 examples/enocean_switch/CMakeFiles/enocean_switch_nrf52832_xxAA_s132_6.0.0.dir/__/__/mesh/bearer/src/filter_engine.c.obj
 .data          0x00000000        0x0 examples/enocean_switch/CMakeFiles/enocean_switch_nrf52832_xxAA_s132_6.0.0.dir/__/__/mesh/bearer/src/filter_engine.c.obj
 .bss           0x00000000        0x0 examples/enocean_switch/CMakeFiles/enocean_switch_nrf52832_xxAA_s132_6.0.0.dir/__/__/mesh/bearer/src/filter_engine.c.obj
 .text.fen_accepted_amount_get
                0x00000000        0xc examples/enocean_switch/CMakeFiles/enocean_switch_nrf52832_xxAA_s132_6.0.0.dir/__/__/mesh/bearer/src/filter_engine.c.obj
 .text          0x00000000        0x0 examples/enocean_switch/CMakeFiles/enocean_switch_nrf52832_xxAA_s132_6.0.0.dir/__/__/mesh/bearer/src/gap_address_filter.c.obj
 .data          0x00000000        0x0 examples/enocean_switch/CMakeFiles/enocean_switch_nrf52832_xxAA_s132_6.0.0.dir/__/__/mesh/bearer/src/gap_address_filter.c.obj
 .bss           0x00000000        0x0 examples/enocean_switch/CMakeFiles/enocean_switch_nrf52832_xxAA_s132_6.0.0.dir/__/__/mesh/bearer/src/gap_address_filter.c.obj
 .text.gap_address_filter_handle
                0x00000000       0xb4 examples/enocean_switch/CMakeFiles/enocean_switch_nrf52832_xxAA_s132_6.0.0.dir/__/__/mesh/bearer/src/gap_address_filter.c.obj
 .text.bearer_filter_gap_addr_whitelist_set
                0x00000000       0x48 examples/enocean_switch/CMakeFiles/enocean_switch_nrf52832_xxAA_s132_6.0.0.dir/__/__/mesh/bearer/src/gap_address_filter.c.obj
 .text.bearer_filter_gap_addr_blacklist_set
                0x00000000       0x4c examples/enocean_switch/CMakeFiles/enocean_switch_nrf52832_xxAA_s132_6.0.0.dir/__/__/mesh/bearer/src/gap_address_filter.c.obj
 .text.bearer_filter_gap_addr_range_set
                0x00000000       0x64 examples/enocean_switch/CMakeFiles/enocean_switch_nrf52832_xxAA_s132_6.0.0.dir/__/__/mesh/bearer/src/gap_address_filter.c.obj
 .text.bearer_filter_gap_addr_clear
                0x00000000       0x24 examples/enocean_switch/CMakeFiles/enocean_switch_nrf52832_xxAA_s132_6.0.0.dir/__/__/mesh/bearer/src/gap_address_filter.c.obj
 .text.bearer_gap_addr_filtered_amount_get
                0x00000000        0xc examples/enocean_switch/CMakeFiles/enocean_switch_nrf52832_xxAA_s132_6.0.0.dir/__/__/mesh/bearer/src/gap_address_filter.c.obj
 .bss.m_addr_filter
                0x00000000       0x18 examples/enocean_switch/CMakeFiles/enocean_switch_nrf52832_xxAA_s132_6.0.0.dir/__/__/mesh/bearer/src/gap_address_filter.c.obj
 .comment       0x00000000       0x80 examples/enocean_switch/CMakeFiles/enocean_switch_nrf52832_xxAA_s132_6.0.0.dir/__/__/mesh/bearer/src/gap_address_filter.c.obj
 .ARM.attributes
                0x00000000       0x39 examples/enocean_switch/CMakeFiles/enocean_switch_nrf52832_xxAA_s132_6.0.0.dir/__/__/mesh/bearer/src/gap_address_filter.c.obj
 .text          0x00000000        0x0 examples/enocean_switch/CMakeFiles/enocean_switch_nrf52832_xxAA_s132_6.0.0.dir/__/__/mesh/bearer/src/radio_config.c.obj
 .data          0x00000000        0x0 examples/enocean_switch/CMakeFiles/enocean_switch_nrf52832_xxAA_s132_6.0.0.dir/__/__/mesh/bearer/src/radio_config.c.obj
 .bss           0x00000000        0x0 examples/enocean_switch/CMakeFiles/enocean_switch_nrf52832_xxAA_s132_6.0.0.dir/__/__/mesh/bearer/src/radio_config.c.obj
 .text.radio_config_access_addr_get
                0x00000000       0x54 examples/enocean_switch/CMakeFiles/enocean_switch_nrf52832_xxAA_s132_6.0.0.dir/__/__/mesh/bearer/src/radio_config.c.obj
 .text          0x00000000        0x0 examples/enocean_switch/CMakeFiles/enocean_switch_nrf52832_xxAA_s132_6.0.0.dir/__/__/mesh/bearer/src/rssi_filter.c.obj
 .data          0x00000000        0x0 examples/enocean_switch/CMakeFiles/enocean_switch_nrf52832_xxAA_s132_6.0.0.dir/__/__/mesh/bearer/src/rssi_filter.c.obj
 .bss           0x00000000        0x0 examples/enocean_switch/CMakeFiles/enocean_switch_nrf52832_xxAA_s132_6.0.0.dir/__/__/mesh/bearer/src/rssi_filter.c.obj
 .text.rssi_filter_handle
                0x00000000       0x20 examples/enocean_switch/CMakeFiles/enocean_switch_nrf52832_xxAA_s132_6.0.0.dir/__/__/mesh/bearer/src/rssi_filter.c.obj
 .text.bearer_rssi_filtering_set
                0x00000000       0x34 examples/enocean_switch/CMakeFiles/enocean_switch_nrf52832_xxAA_s132_6.0.0.dir/__/__/mesh/bearer/src/rssi_filter.c.obj
 .text.bearer_rssi_filtered_amount_get
                0x00000000        0xc examples/enocean_switch/CMakeFiles/enocean_switch_nrf52832_xxAA_s132_6.0.0.dir/__/__/mesh/bearer/src/rssi_filter.c.obj
 .bss.m_rssi_filter
                0x00000000       0x18 examples/enocean_switch/CMakeFiles/enocean_switch_nrf52832_xxAA_s132_6.0.0.dir/__/__/mesh/bearer/src/rssi_filter.c.obj
 .comment       0x00000000       0x80 examples/enocean_switch/CMakeFiles/enocean_switch_nrf52832_xxAA_s132_6.0.0.dir/__/__/mesh/bearer/src/rssi_filter.c.obj
 .ARM.attributes
                0x00000000       0x39 examples/enocean_switch/CMakeFiles/enocean_switch_nrf52832_xxAA_s132_6.0.0.dir/__/__/mesh/bearer/src/rssi_filter.c.obj
 .text          0x00000000        0x0 examples/enocean_switch/CMakeFiles/enocean_switch_nrf52832_xxAA_s132_6.0.0.dir/__/__/mesh/bearer/src/scanner.c.obj
 .data          0x00000000        0x0 examples/enocean_switch/CMakeFiles/enocean_switch_nrf52832_xxAA_s132_6.0.0.dir/__/__/mesh/bearer/src/scanner.c.obj
 .bss           0x00000000        0x0 examples/enocean_switch/CMakeFiles/enocean_switch_nrf52832_xxAA_s132_6.0.0.dir/__/__/mesh/bearer/src/scanner.c.obj
 .text.scanner_rx_callback_set
                0x00000000       0x20 examples/enocean_switch/CMakeFiles/enocean_switch_nrf52832_xxAA_s132_6.0.0.dir/__/__/mesh/bearer/src/scanner.c.obj
 .text.scanner_disable
                0x00000000       0x54 examples/enocean_switch/CMakeFiles/enocean_switch_nrf52832_xxAA_s132_6.0.0.dir/__/__/mesh/bearer/src/scanner.c.obj
 .text.scanner_is_enabled
                0x00000000       0x14 examples/enocean_switch/CMakeFiles/enocean_switch_nrf52832_xxAA_s132_6.0.0.dir/__/__/mesh/bearer/src/scanner.c.obj
 .text.scanner_stats_get
                0x00000000        0x8 examples/enocean_switch/CMakeFiles/enocean_switch_nrf52832_xxAA_s132_6.0.0.dir/__/__/mesh/bearer/src/scanner.c.obj
 .text.scanner_config_radio_mode_set
                0x00000000       0x10 examples/enocean_switch/CMakeFiles/enocean_switch_nrf52832_xxAA_s132_6.0.0.dir/__/__/mesh/bearer/src/scanner.c.obj
 .text.scanner_config_scan_time_set
                0x00000000       0x88 examples/enocean_switch/CMakeFiles/enocean_switch_nrf52832_xxAA_s132_6.0.0.dir/__/__/mesh/bearer/src/scanner.c.obj
 .text.scanner_config_channels_set
                0x00000000       0x50 examples/enocean_switch/CMakeFiles/enocean_switch_nrf52832_xxAA_s132_6.0.0.dir/__/__/mesh/bearer/src/scanner.c.obj
 .text.scanner_config_access_addresses_set
                0x00000000       0x38 examples/enocean_switch/CMakeFiles/enocean_switch_nrf52832_xxAA_s132_6.0.0.dir/__/__/mesh/bearer/src/scanner.c.obj
 .text          0x00000000        0x0 examples/enocean_switch/CMakeFiles/enocean_switch_nrf52832_xxAA_s132_6.0.0.dir/__/__/models/simple_on_off/src/simple_on_off_client.c.obj
 .data          0x00000000        0x0 examples/enocean_switch/CMakeFiles/enocean_switch_nrf52832_xxAA_s132_6.0.0.dir/__/__/models/simple_on_off/src/simple_on_off_client.c.obj
 .bss           0x00000000        0x0 examples/enocean_switch/CMakeFiles/enocean_switch_nrf52832_xxAA_s132_6.0.0.dir/__/__/models/simple_on_off/src/simple_on_off_client.c.obj
 .text.simple_on_off_client_get
                0x00000000       0x60 examples/enocean_switch/CMakeFiles/enocean_switch_nrf52832_xxAA_s132_6.0.0.dir/__/__/models/simple_on_off/src/simple_on_off_client.c.obj
 .text.simple_on_off_client_pending_msg_cancel
                0x00000000        0x8 examples/enocean_switch/CMakeFiles/enocean_switch_nrf52832_xxAA_s132_6.0.0.dir/__/__/models/simple_on_off/src/simple_on_off_client.c.obj
 .text          0x00000000        0x0 examples/enocean_switch/CMakeFiles/enocean_switch_nrf52832_xxAA_s132_6.0.0.dir/__/__/models/config/src/composition_data.c.obj
 .data          0x00000000        0x0 examples/enocean_switch/CMakeFiles/enocean_switch_nrf52832_xxAA_s132_6.0.0.dir/__/__/models/config/src/composition_data.c.obj
 .bss           0x00000000        0x0 examples/enocean_switch/CMakeFiles/enocean_switch_nrf52832_xxAA_s132_6.0.0.dir/__/__/models/config/src/composition_data.c.obj
 .text          0x00000000        0x0 examples/enocean_switch/CMakeFiles/enocean_switch_nrf52832_xxAA_s132_6.0.0.dir/__/__/models/config/src/config_server.c.obj
 .data          0x00000000        0x0 examples/enocean_switch/CMakeFiles/enocean_switch_nrf52832_xxAA_s132_6.0.0.dir/__/__/models/config/src/config_server.c.obj
 .bss           0x00000000        0x0 examples/enocean_switch/CMakeFiles/enocean_switch_nrf52832_xxAA_s132_6.0.0.dir/__/__/models/config/src/config_server.c.obj
 .text          0x00000000        0x0 examples/enocean_switch/CMakeFiles/enocean_switch_nrf52832_xxAA_s132_6.0.0.dir/__/__/models/config/src/packed_index_list.c.obj
 .data          0x00000000        0x0 examples/enocean_switch/CMakeFiles/enocean_switch_nrf52832_xxAA_s132_6.0.0.dir/__/__/models/config/src/packed_index_list.c.obj
 .bss           0x00000000        0x0 examples/enocean_switch/CMakeFiles/enocean_switch_nrf52832_xxAA_s132_6.0.0.dir/__/__/models/config/src/packed_index_list.c.obj
 .text          0x00000000        0x0 examples/enocean_switch/CMakeFiles/enocean_switch_nrf52832_xxAA_s132_6.0.0.dir/__/__/models/health/src/health_server.c.obj
 .data          0x00000000        0x0 examples/enocean_switch/CMakeFiles/enocean_switch_nrf52832_xxAA_s132_6.0.0.dir/__/__/models/health/src/health_server.c.obj
 .bss           0x00000000        0x0 examples/enocean_switch/CMakeFiles/enocean_switch_nrf52832_xxAA_s132_6.0.0.dir/__/__/models/health/src/health_server.c.obj
 .text.health_server_fault_register
                0x00000000      0x238 examples/enocean_switch/CMakeFiles/enocean_switch_nrf52832_xxAA_s132_6.0.0.dir/__/__/models/health/src/health_server.c.obj
 .text.health_server_fault_clear
                0x00000000      0x2f4 examples/enocean_switch/CMakeFiles/enocean_switch_nrf52832_xxAA_s132_6.0.0.dir/__/__/models/health/src/health_server.c.obj
 .text.health_server_fault_is_set
                0x00000000       0x1c examples/enocean_switch/CMakeFiles/enocean_switch_nrf52832_xxAA_s132_6.0.0.dir/__/__/models/health/src/health_server.c.obj
 .text.health_server_fault_count_get
                0x00000000      0x154 examples/enocean_switch/CMakeFiles/enocean_switch_nrf52832_xxAA_s132_6.0.0.dir/__/__/models/health/src/health_server.c.obj
 .text.health_server_attention_get
                0x00000000        0x8 examples/enocean_switch/CMakeFiles/enocean_switch_nrf52832_xxAA_s132_6.0.0.dir/__/__/models/health/src/health_server.c.obj
 .text.health_server_attention_set
                0x00000000       0x98 examples/enocean_switch/CMakeFiles/enocean_switch_nrf52832_xxAA_s132_6.0.0.dir/__/__/models/health/src/health_server.c.obj
 .text          0x00000000        0x0 examples/enocean_switch/CMakeFiles/enocean_switch_nrf52832_xxAA_s132_6.0.0.dir/__/__/mesh/access/src/access_publish.c.obj
 .data          0x00000000        0x0 examples/enocean_switch/CMakeFiles/enocean_switch_nrf52832_xxAA_s132_6.0.0.dir/__/__/mesh/access/src/access_publish.c.obj
 .bss           0x00000000        0x0 examples/enocean_switch/CMakeFiles/enocean_switch_nrf52832_xxAA_s132_6.0.0.dir/__/__/mesh/access/src/access_publish.c.obj
 .text          0x00000000        0x0 examples/enocean_switch/CMakeFiles/enocean_switch_nrf52832_xxAA_s132_6.0.0.dir/__/__/mesh/access/src/access.c.obj
 .data          0x00000000        0x0 examples/enocean_switch/CMakeFiles/enocean_switch_nrf52832_xxAA_s132_6.0.0.dir/__/__/mesh/access/src/access.c.obj
 .bss           0x00000000        0x0 examples/enocean_switch/CMakeFiles/enocean_switch_nrf52832_xxAA_s132_6.0.0.dir/__/__/mesh/access/src/access.c.obj
 .text.access_model_subscription_lists_share
                0x00000000       0x5c examples/enocean_switch/CMakeFiles/enocean_switch_nrf52832_xxAA_s132_6.0.0.dir/__/__/mesh/access/src/access.c.obj
 .text.access_element_location_set
                0x00000000       0x38 examples/enocean_switch/CMakeFiles/enocean_switch_nrf52832_xxAA_s132_6.0.0.dir/__/__/mesh/access/src/access.c.obj
 .text          0x00000000        0x0 examples/enocean_switch/CMakeFiles/enocean_switch_nrf52832_xxAA_s132_6.0.0.dir/__/__/mesh/access/src/access_reliable.c.obj
 .data          0x00000000        0x0 examples/enocean_switch/CMakeFiles/enocean_switch_nrf52832_xxAA_s132_6.0.0.dir/__/__/mesh/access/src/access_reliable.c.obj
 .bss           0x00000000        0x0 examples/enocean_switch/CMakeFiles/enocean_switch_nrf52832_xxAA_s132_6.0.0.dir/__/__/mesh/access/src/access_reliable.c.obj
 .text          0x00000000        0x0 examples/enocean_switch/CMakeFiles/enocean_switch_nrf52832_xxAA_s132_6.0.0.dir/__/__/mesh/access/src/device_state_manager.c.obj
 .data          0x00000000        0x0 examples/enocean_switch/CMakeFiles/enocean_switch_nrf52832_xxAA_s132_6.0.0.dir/__/__/mesh/access/src/device_state_manager.c.obj
 .bss           0x00000000        0x0 examples/enocean_switch/CMakeFiles/enocean_switch_nrf52832_xxAA_s132_6.0.0.dir/__/__/mesh/access/src/device_state_manager.c.obj
 .text.dsm_has_unflashed_data
                0x00000000       0x58 examples/enocean_switch/CMakeFiles/enocean_switch_nrf52832_xxAA_s132_6.0.0.dir/__/__/mesh/access/src/device_state_manager.c.obj
 .text.dsm_address_subscription_count_get
                0x00000000       0x80 examples/enocean_switch/CMakeFiles/enocean_switch_nrf52832_xxAA_s132_6.0.0.dir/__/__/mesh/access/src/device_state_manager.c.obj
 .text.dsm_address_get_all
                0x00000000      0x258 examples/enocean_switch/CMakeFiles/enocean_switch_nrf52832_xxAA_s132_6.0.0.dir/__/__/mesh/access/src/device_state_manager.c.obj
 .text.dsm_subnet_handle_to_netkey_index
                0x00000000       0x34 examples/enocean_switch/CMakeFiles/enocean_switch_nrf52832_xxAA_s132_6.0.0.dir/__/__/mesh/access/src/device_state_manager.c.obj
 .text.dsm_devkey_delete
                0x00000000       0x6c examples/enocean_switch/CMakeFiles/enocean_switch_nrf52832_xxAA_s132_6.0.0.dir/__/__/mesh/access/src/device_state_manager.c.obj
 .text.dsm_devkey_handle_get
                0x00000000       0x3c examples/enocean_switch/CMakeFiles/enocean_switch_nrf52832_xxAA_s132_6.0.0.dir/__/__/mesh/access/src/device_state_manager.c.obj
 .text.dsm_beacon_info_get
                0x00000000       0x34 examples/enocean_switch/CMakeFiles/enocean_switch_nrf52832_xxAA_s132_6.0.0.dir/__/__/mesh/access/src/device_state_manager.c.obj
 .text          0x00000000        0x0 examples/enocean_switch/CMakeFiles/enocean_switch_nrf52832_xxAA_s132_6.0.0.dir/__/__/mesh/prov/src/prov_provisionee.c.obj
 .data          0x00000000        0x0 examples/enocean_switch/CMakeFiles/enocean_switch_nrf52832_xxAA_s132_6.0.0.dir/__/__/mesh/prov/src/prov_provisionee.c.obj
 .bss           0x00000000        0x0 examples/enocean_switch/CMakeFiles/enocean_switch_nrf52832_xxAA_s132_6.0.0.dir/__/__/mesh/prov/src/prov_provisionee.c.obj
 .text.prov_provisionee_shared_secret
                0x00000000       0xa0 examples/enocean_switch/CMakeFiles/enocean_switch_nrf52832_xxAA_s132_6.0.0.dir/__/__/mesh/prov/src/prov_provisionee.c.obj
 .text          0x00000000        0x0 examples/enocean_switch/CMakeFiles/enocean_switch_nrf52832_xxAA_s132_6.0.0.dir/__/__/mesh/prov/src/nrf_mesh_prov.c.obj
 .data          0x00000000        0x0 examples/enocean_switch/CMakeFiles/enocean_switch_nrf52832_xxAA_s132_6.0.0.dir/__/__/mesh/prov/src/nrf_mesh_prov.c.obj
 .bss           0x00000000        0x0 examples/enocean_switch/CMakeFiles/enocean_switch_nrf52832_xxAA_s132_6.0.0.dir/__/__/mesh/prov/src/nrf_mesh_prov.c.obj
 .text.nrf_mesh_prov_listen_stop
                0x00000000       0x30 examples/enocean_switch/CMakeFiles/enocean_switch_nrf52832_xxAA_s132_6.0.0.dir/__/__/mesh/prov/src/nrf_mesh_prov.c.obj
 .text.nrf_mesh_prov_provision
                0x00000000       0x58 examples/enocean_switch/CMakeFiles/enocean_switch_nrf52832_xxAA_s132_6.0.0.dir/__/__/mesh/prov/src/nrf_mesh_prov.c.obj
 .text.nrf_mesh_prov_oob_use
                0x00000000       0x18 examples/enocean_switch/CMakeFiles/enocean_switch_nrf52832_xxAA_s132_6.0.0.dir/__/__/mesh/prov/src/nrf_mesh_prov.c.obj
 .text.nrf_mesh_prov_shared_secret_provide
                0x00000000       0x10 examples/enocean_switch/CMakeFiles/enocean_switch_nrf52832_xxAA_s132_6.0.0.dir/__/__/mesh/prov/src/nrf_mesh_prov.c.obj
 .text.nrf_mesh_prov_pubkey_provide
                0x00000000       0x10 examples/enocean_switch/CMakeFiles/enocean_switch_nrf52832_xxAA_s132_6.0.0.dir/__/__/mesh/prov/src/nrf_mesh_prov.c.obj
 .text.nrf_mesh_prov_scan_start
                0x00000000       0x10 examples/enocean_switch/CMakeFiles/enocean_switch_nrf52832_xxAA_s132_6.0.0.dir/__/__/mesh/prov/src/nrf_mesh_prov.c.obj
 .text.nrf_mesh_prov_scan_stop
                0x00000000        0x4 examples/enocean_switch/CMakeFiles/enocean_switch_nrf52832_xxAA_s132_6.0.0.dir/__/__/mesh/prov/src/nrf_mesh_prov.c.obj
 .text          0x00000000        0x0 examples/enocean_switch/CMakeFiles/enocean_switch_nrf52832_xxAA_s132_6.0.0.dir/__/__/mesh/prov/src/provisioning.c.obj
 .data          0x00000000        0x0 examples/enocean_switch/CMakeFiles/enocean_switch_nrf52832_xxAA_s132_6.0.0.dir/__/__/mesh/prov/src/provisioning.c.obj
 .bss           0x00000000        0x0 examples/enocean_switch/CMakeFiles/enocean_switch_nrf52832_xxAA_s132_6.0.0.dir/__/__/mesh/prov/src/provisioning.c.obj
 .text.prov_tx_invite
                0x00000000       0x38 examples/enocean_switch/CMakeFiles/enocean_switch_nrf52832_xxAA_s132_6.0.0.dir/__/__/mesh/prov/src/provisioning.c.obj
 .text.prov_tx_start
                0x00000000       0x38 examples/enocean_switch/CMakeFiles/enocean_switch_nrf52832_xxAA_s132_6.0.0.dir/__/__/mesh/prov/src/provisioning.c.obj
 .text.prov_tx_data
                0x00000000       0x34 examples/enocean_switch/CMakeFiles/enocean_switch_nrf52832_xxAA_s132_6.0.0.dir/__/__/mesh/prov/src/provisioning.c.obj
 .text.prov_tx  0x00000000       0x3c examples/enocean_switch/CMakeFiles/enocean_switch_nrf52832_xxAA_s132_6.0.0.dir/__/__/mesh/prov/src/provisioning.c.obj
 .text          0x00000000        0x0 examples/enocean_switch/CMakeFiles/enocean_switch_nrf52832_xxAA_s132_6.0.0.dir/__/__/mesh/prov/src/prov_beacon.c.obj
 .data          0x00000000        0x0 examples/enocean_switch/CMakeFiles/enocean_switch_nrf52832_xxAA_s132_6.0.0.dir/__/__/mesh/prov/src/prov_beacon.c.obj
 .bss           0x00000000        0x0 examples/enocean_switch/CMakeFiles/enocean_switch_nrf52832_xxAA_s132_6.0.0.dir/__/__/mesh/prov/src/prov_beacon.c.obj
 .text.prov_beacon_scan_start
                0x00000000       0x1c examples/enocean_switch/CMakeFiles/enocean_switch_nrf52832_xxAA_s132_6.0.0.dir/__/__/mesh/prov/src/prov_beacon.c.obj
 .text.prov_beacon_scan_stop
                0x00000000        0xc examples/enocean_switch/CMakeFiles/enocean_switch_nrf52832_xxAA_s132_6.0.0.dir/__/__/mesh/prov/src/prov_beacon.c.obj
 .text          0x00000000        0x0 examples/enocean_switch/CMakeFiles/enocean_switch_nrf52832_xxAA_s132_6.0.0.dir/__/__/mesh/prov/src/prov_utils.c.obj
 .data          0x00000000        0x0 examples/enocean_switch/CMakeFiles/enocean_switch_nrf52832_xxAA_s132_6.0.0.dir/__/__/mesh/prov/src/prov_utils.c.obj
 .bss           0x00000000        0x0 examples/enocean_switch/CMakeFiles/enocean_switch_nrf52832_xxAA_s132_6.0.0.dir/__/__/mesh/prov/src/prov_utils.c.obj
 .text          0x00000000        0x0 examples/enocean_switch/CMakeFiles/enocean_switch_nrf52832_xxAA_s132_6.0.0.dir/__/__/mesh/prov/src/prov_bearer_adv.c.obj
 .data          0x00000000        0x0 examples/enocean_switch/CMakeFiles/enocean_switch_nrf52832_xxAA_s132_6.0.0.dir/__/__/mesh/prov/src/prov_bearer_adv.c.obj
 .bss           0x00000000        0x0 examples/enocean_switch/CMakeFiles/enocean_switch_nrf52832_xxAA_s132_6.0.0.dir/__/__/mesh/prov/src/prov_bearer_adv.c.obj
 .text.calculate_3GPP_CRC
                0x00000000       0x28 examples/enocean_switch/CMakeFiles/enocean_switch_nrf52832_xxAA_s132_6.0.0.dir/__/__/mesh/prov/src/prov_bearer_adv.c.obj
 .text          0x00000000        0x0 examples/enocean_switch/CMakeFiles/enocean_switch_nrf52832_xxAA_s132_6.0.0.dir/C_/ver/mod/nRF5_SDK_15.0.0_a53641a/modules/nrfx/mdk/system_nrf52.c.obj
 .data          0x00000000        0x0 examples/enocean_switch/CMakeFiles/enocean_switch_nrf52832_xxAA_s132_6.0.0.dir/C_/ver/mod/nRF5_SDK_15.0.0_a53641a/modules/nrfx/mdk/system_nrf52.c.obj
 .bss           0x00000000        0x0 examples/enocean_switch/CMakeFiles/enocean_switch_nrf52832_xxAA_s132_6.0.0.dir/C_/ver/mod/nRF5_SDK_15.0.0_a53641a/modules/nrfx/mdk/system_nrf52.c.obj
 .text.SystemCoreClockUpdate
                0x00000000       0x10 examples/enocean_switch/CMakeFiles/enocean_switch_nrf52832_xxAA_s132_6.0.0.dir/C_/ver/mod/nRF5_SDK_15.0.0_a53641a/modules/nrfx/mdk/system_nrf52.c.obj
 .data          0x00000000        0x0 examples/enocean_switch/CMakeFiles/enocean_switch_nrf52832_xxAA_s132_6.0.0.dir/C_/ver/mod/nRF5_SDK_15.0.0_a53641a/modules/nrfx/mdk/gcc_startup_nrf52.S.obj
 .bss           0x00000000        0x0 examples/enocean_switch/CMakeFiles/enocean_switch_nrf52832_xxAA_s132_6.0.0.dir/C_/ver/mod/nRF5_SDK_15.0.0_a53641a/modules/nrfx/mdk/gcc_startup_nrf52.S.obj
 .text          0x00000000        0x0 examples/enocean_switch/CMakeFiles/enocean_switch_nrf52832_xxAA_s132_6.0.0.dir/C_/ver/mod/nRF5_SDK_15.0.0_a53641a/components/libraries/util/app_error.c.obj
 .data          0x00000000        0x0 examples/enocean_switch/CMakeFiles/enocean_switch_nrf52832_xxAA_s132_6.0.0.dir/C_/ver/mod/nRF5_SDK_15.0.0_a53641a/components/libraries/util/app_error.c.obj
 .bss           0x00000000        0x0 examples/enocean_switch/CMakeFiles/enocean_switch_nrf52832_xxAA_s132_6.0.0.dir/C_/ver/mod/nRF5_SDK_15.0.0_a53641a/components/libraries/util/app_error.c.obj
 .text.app_error_save_and_stop
                0x00000000       0x64 examples/enocean_switch/CMakeFiles/enocean_switch_nrf52832_xxAA_s132_6.0.0.dir/C_/ver/mod/nRF5_SDK_15.0.0_a53641a/components/libraries/util/app_error.c.obj
 .bss.m_error_data.7863
                0x00000000       0x20 examples/enocean_switch/CMakeFiles/enocean_switch_nrf52832_xxAA_s132_6.0.0.dir/C_/ver/mod/nRF5_SDK_15.0.0_a53641a/components/libraries/util/app_error.c.obj
 .text          0x00000000        0x0 examples/enocean_switch/CMakeFiles/enocean_switch_nrf52832_xxAA_s132_6.0.0.dir/C_/ver/mod/nRF5_SDK_15.0.0_a53641a/components/libraries/util/app_error_handler_gcc.c.obj
 .data          0x00000000        0x0 examples/enocean_switch/CMakeFiles/enocean_switch_nrf52832_xxAA_s132_6.0.0.dir/C_/ver/mod/nRF5_SDK_15.0.0_a53641a/components/libraries/util/app_error_handler_gcc.c.obj
 .bss           0x00000000        0x0 examples/enocean_switch/CMakeFiles/enocean_switch_nrf52832_xxAA_s132_6.0.0.dir/C_/ver/mod/nRF5_SDK_15.0.0_a53641a/components/libraries/util/app_error_handler_gcc.c.obj
 .text          0x00000000        0x0 external/rtt/librtt_nrf52832_xxAA.a(SEGGER_RTT.c.obj)
 .data          0x00000000        0x0 external/rtt/librtt_nrf52832_xxAA.a(SEGGER_RTT.c.obj)
 .bss           0x00000000        0x0 external/rtt/librtt_nrf52832_xxAA.a(SEGGER_RTT.c.obj)
 .text.SEGGER_RTT_ReadNoLock
                0x00000000      0x100 external/rtt/librtt_nrf52832_xxAA.a(SEGGER_RTT.c.obj)
 .text.SEGGER_RTT_Read
                0x00000000      0x114 external/rtt/librtt_nrf52832_xxAA.a(SEGGER_RTT.c.obj)
 .text.SEGGER_RTT_WriteSkipNoLock
                0x00000000      0x184 external/rtt/librtt_nrf52832_xxAA.a(SEGGER_RTT.c.obj)
 .text.SEGGER_RTT_WriteNoLock
                0x00000000      0x188 external/rtt/librtt_nrf52832_xxAA.a(SEGGER_RTT.c.obj)
 .text.SEGGER_RTT_WriteString
                0x00000000      0x20c external/rtt/librtt_nrf52832_xxAA.a(SEGGER_RTT.c.obj)
 .text.SEGGER_RTT_WaitKey
                0x00000000      0x114 external/rtt/librtt_nrf52832_xxAA.a(SEGGER_RTT.c.obj)
 .text.SEGGER_RTT_HasKey
                0x00000000       0x6c external/rtt/librtt_nrf52832_xxAA.a(SEGGER_RTT.c.obj)
 .text.SEGGER_RTT_HasData
                0x00000000       0x18 external/rtt/librtt_nrf52832_xxAA.a(SEGGER_RTT.c.obj)
 .text.SEGGER_RTT_AllocDownBuffer
                0x00000000       0xbc external/rtt/librtt_nrf52832_xxAA.a(SEGGER_RTT.c.obj)
 .text.SEGGER_RTT_AllocUpBuffer
                0x00000000       0xd8 external/rtt/librtt_nrf52832_xxAA.a(SEGGER_RTT.c.obj)
 .text.SEGGER_RTT_ConfigUpBuffer
                0x00000000       0xd0 external/rtt/librtt_nrf52832_xxAA.a(SEGGER_RTT.c.obj)
 .text.SEGGER_RTT_ConfigDownBuffer
                0x00000000       0xb8 external/rtt/librtt_nrf52832_xxAA.a(SEGGER_RTT.c.obj)
 .text.SEGGER_RTT_SetNameUpBuffer
                0x00000000       0x90 external/rtt/librtt_nrf52832_xxAA.a(SEGGER_RTT.c.obj)
 .text.SEGGER_RTT_SetNameDownBuffer
                0x00000000       0x90 external/rtt/librtt_nrf52832_xxAA.a(SEGGER_RTT.c.obj)
 .text.SEGGER_RTT_Init
                0x00000000       0x60 external/rtt/librtt_nrf52832_xxAA.a(SEGGER_RTT.c.obj)
 .text.SEGGER_RTT_SetTerminal
                0x00000000      0x15c external/rtt/librtt_nrf52832_xxAA.a(SEGGER_RTT.c.obj)
 .text.SEGGER_RTT_TerminalOut
                0x00000000      0x40c external/rtt/librtt_nrf52832_xxAA.a(SEGGER_RTT.c.obj)
 .bss._ActiveTerminal
                0x00000000        0x1 external/rtt/librtt_nrf52832_xxAA.a(SEGGER_RTT.c.obj)
 .rodata._aTerminalId
                0x00000000       0x10 external/rtt/librtt_nrf52832_xxAA.a(SEGGER_RTT.c.obj)
 .text          0x00000000        0x0 external/rtt/librtt_nrf52832_xxAA.a(SEGGER_RTT_printf.c.obj)
 .data          0x00000000        0x0 external/rtt/librtt_nrf52832_xxAA.a(SEGGER_RTT_printf.c.obj)
 .bss           0x00000000        0x0 external/rtt/librtt_nrf52832_xxAA.a(SEGGER_RTT_printf.c.obj)
 .text          0x00000000        0x0 external/micro-ecc/libuECC_nrf52832_xxAA.a(uECC.c.obj)
 .data          0x00000000        0x0 external/micro-ecc/libuECC_nrf52832_xxAA.a(uECC.c.obj)
 .bss           0x00000000        0x0 external/micro-ecc/libuECC_nrf52832_xxAA.a(uECC.c.obj)
 .text.HMAC_finish
                0x00000000       0x70 external/micro-ecc/libuECC_nrf52832_xxAA.a(uECC.c.obj)
 .text.uECC_vli_mmod
                0x00000000      0x3c8 external/micro-ecc/libuECC_nrf52832_xxAA.a(uECC.c.obj)
 .text.uECC_vli_modSub.isra.2
                0x00000000       0x98 external/micro-ecc/libuECC_nrf52832_xxAA.a(uECC.c.obj)
 .text.bits2int
                0x00000000      0x14c external/micro-ecc/libuECC_nrf52832_xxAA.a(uECC.c.obj)
 .text.uECC_sign_with_k
                0x00000000      0x60c external/micro-ecc/libuECC_nrf52832_xxAA.a(uECC.c.obj)
 .text.uECC_set_rng
                0x00000000        0xc external/micro-ecc/libuECC_nrf52832_xxAA.a(uECC.c.obj)
 .text.uECC_get_rng
                0x00000000        0xc external/micro-ecc/libuECC_nrf52832_xxAA.a(uECC.c.obj)
 .text.uECC_curve_private_key_size
                0x00000000       0x10 external/micro-ecc/libuECC_nrf52832_xxAA.a(uECC.c.obj)
 .text.uECC_curve_public_key_size
                0x00000000        0x8 external/micro-ecc/libuECC_nrf52832_xxAA.a(uECC.c.obj)
 .text.uECC_compute_public_key
                0x00000000      0x2e4 external/micro-ecc/libuECC_nrf52832_xxAA.a(uECC.c.obj)
 .text.uECC_sign
                0x00000000       0x60 external/micro-ecc/libuECC_nrf52832_xxAA.a(uECC.c.obj)
 .text.uECC_sign_deterministic
                0x00000000      0x400 external/micro-ecc/libuECC_nrf52832_xxAA.a(uECC.c.obj)
 .text.uECC_verify
                0x00000000      0x95c external/micro-ecc/libuECC_nrf52832_xxAA.a(uECC.c.obj)
 .data          0x00000000        0x0 c:/mesh/arm_gcc/bin/../lib/gcc/arm-none-eabi/6.3.1/thumb/v7e-m/fpv4-sp/hard\libgcc.a(_aeabi_uldivmod.o)
 .bss           0x00000000        0x0 c:/mesh/arm_gcc/bin/../lib/gcc/arm-none-eabi/6.3.1/thumb/v7e-m/fpv4-sp/hard\libgcc.a(_aeabi_uldivmod.o)
 .data          0x00000000        0x0 c:/mesh/arm_gcc/bin/../lib/gcc/arm-none-eabi/6.3.1/thumb/v7e-m/fpv4-sp/hard\libgcc.a(_udivmoddi4.o)
 .bss           0x00000000        0x0 c:/mesh/arm_gcc/bin/../lib/gcc/arm-none-eabi/6.3.1/thumb/v7e-m/fpv4-sp/hard\libgcc.a(_udivmoddi4.o)
 .ARM.extab     0x00000000        0x0 c:/mesh/arm_gcc/bin/../lib/gcc/arm-none-eabi/6.3.1/thumb/v7e-m/fpv4-sp/hard\libgcc.a(_udivmoddi4.o)
 .data          0x00000000        0x0 c:/mesh/arm_gcc/bin/../lib/gcc/arm-none-eabi/6.3.1/thumb/v7e-m/fpv4-sp/hard\libgcc.a(_dvmd_tls.o)
 .bss           0x00000000        0x0 c:/mesh/arm_gcc/bin/../lib/gcc/arm-none-eabi/6.3.1/thumb/v7e-m/fpv4-sp/hard\libgcc.a(_dvmd_tls.o)
 .text          0x00000000        0x0 c:/mesh/arm_gcc/bin/../lib/gcc/arm-none-eabi/6.3.1/../../../../arm-none-eabi/lib/thumb/v7e-m/fpv4-sp/hard\libc_nano.a(lib_a-exit.o)
 .data          0x00000000        0x0 c:/mesh/arm_gcc/bin/../lib/gcc/arm-none-eabi/6.3.1/../../../../arm-none-eabi/lib/thumb/v7e-m/fpv4-sp/hard\libc_nano.a(lib_a-exit.o)
 .bss           0x00000000        0x0 c:/mesh/arm_gcc/bin/../lib/gcc/arm-none-eabi/6.3.1/../../../../arm-none-eabi/lib/thumb/v7e-m/fpv4-sp/hard\libc_nano.a(lib_a-exit.o)
 .text          0x00000000        0x0 c:/mesh/arm_gcc/bin/../lib/gcc/arm-none-eabi/6.3.1/../../../../arm-none-eabi/lib/thumb/v7e-m/fpv4-sp/hard\libc_nano.a(lib_a-impure.o)
 .data          0x00000000        0x0 c:/mesh/arm_gcc/bin/../lib/gcc/arm-none-eabi/6.3.1/../../../../arm-none-eabi/lib/thumb/v7e-m/fpv4-sp/hard\libc_nano.a(lib_a-impure.o)
 .bss           0x00000000        0x0 c:/mesh/arm_gcc/bin/../lib/gcc/arm-none-eabi/6.3.1/../../../../arm-none-eabi/lib/thumb/v7e-m/fpv4-sp/hard\libc_nano.a(lib_a-impure.o)
 .text          0x00000000        0x0 c:/mesh/arm_gcc/bin/../lib/gcc/arm-none-eabi/6.3.1/../../../../arm-none-eabi/lib/thumb/v7e-m/fpv4-sp/hard\libc_nano.a(lib_a-init.o)
 .data          0x00000000        0x0 c:/mesh/arm_gcc/bin/../lib/gcc/arm-none-eabi/6.3.1/../../../../arm-none-eabi/lib/thumb/v7e-m/fpv4-sp/hard\libc_nano.a(lib_a-init.o)
 .bss           0x00000000        0x0 c:/mesh/arm_gcc/bin/../lib/gcc/arm-none-eabi/6.3.1/../../../../arm-none-eabi/lib/thumb/v7e-m/fpv4-sp/hard\libc_nano.a(lib_a-init.o)
 .text          0x00000000        0x0 c:/mesh/arm_gcc/bin/../lib/gcc/arm-none-eabi/6.3.1/../../../../arm-none-eabi/lib/thumb/v7e-m/fpv4-sp/hard\libc_nano.a(lib_a-malloc.o)
 .data          0x00000000        0x0 c:/mesh/arm_gcc/bin/../lib/gcc/arm-none-eabi/6.3.1/../../../../arm-none-eabi/lib/thumb/v7e-m/fpv4-sp/hard\libc_nano.a(lib_a-malloc.o)
 .bss           0x00000000        0x0 c:/mesh/arm_gcc/bin/../lib/gcc/arm-none-eabi/6.3.1/../../../../arm-none-eabi/lib/thumb/v7e-m/fpv4-sp/hard\libc_nano.a(lib_a-malloc.o)
 .text          0x00000000        0x0 c:/mesh/arm_gcc/bin/../lib/gcc/arm-none-eabi/6.3.1/../../../../arm-none-eabi/lib/thumb/v7e-m/fpv4-sp/hard\libc_nano.a(lib_a-memcmp.o)
 .data          0x00000000        0x0 c:/mesh/arm_gcc/bin/../lib/gcc/arm-none-eabi/6.3.1/../../../../arm-none-eabi/lib/thumb/v7e-m/fpv4-sp/hard\libc_nano.a(lib_a-memcmp.o)
 .bss           0x00000000        0x0 c:/mesh/arm_gcc/bin/../lib/gcc/arm-none-eabi/6.3.1/../../../../arm-none-eabi/lib/thumb/v7e-m/fpv4-sp/hard\libc_nano.a(lib_a-memcmp.o)
 .text          0x00000000        0x0 c:/mesh/arm_gcc/bin/../lib/gcc/arm-none-eabi/6.3.1/../../../../arm-none-eabi/lib/thumb/v7e-m/fpv4-sp/hard\libc_nano.a(lib_a-memcpy-stub.o)
 .data          0x00000000        0x0 c:/mesh/arm_gcc/bin/../lib/gcc/arm-none-eabi/6.3.1/../../../../arm-none-eabi/lib/thumb/v7e-m/fpv4-sp/hard\libc_nano.a(lib_a-memcpy-stub.o)
 .bss           0x00000000        0x0 c:/mesh/arm_gcc/bin/../lib/gcc/arm-none-eabi/6.3.1/../../../../arm-none-eabi/lib/thumb/v7e-m/fpv4-sp/hard\libc_nano.a(lib_a-memcpy-stub.o)
 .text          0x00000000        0x0 c:/mesh/arm_gcc/bin/../lib/gcc/arm-none-eabi/6.3.1/../../../../arm-none-eabi/lib/thumb/v7e-m/fpv4-sp/hard\libc_nano.a(lib_a-memset.o)
 .data          0x00000000        0x0 c:/mesh/arm_gcc/bin/../lib/gcc/arm-none-eabi/6.3.1/../../../../arm-none-eabi/lib/thumb/v7e-m/fpv4-sp/hard\libc_nano.a(lib_a-memset.o)
 .bss           0x00000000        0x0 c:/mesh/arm_gcc/bin/../lib/gcc/arm-none-eabi/6.3.1/../../../../arm-none-eabi/lib/thumb/v7e-m/fpv4-sp/hard\libc_nano.a(lib_a-memset.o)
 .text          0x00000000        0x0 c:/mesh/arm_gcc/bin/../lib/gcc/arm-none-eabi/6.3.1/../../../../arm-none-eabi/lib/thumb/v7e-m/fpv4-sp/hard\libc_nano.a(lib_a-nano-freer.o)
 .data          0x00000000        0x0 c:/mesh/arm_gcc/bin/../lib/gcc/arm-none-eabi/6.3.1/../../../../arm-none-eabi/lib/thumb/v7e-m/fpv4-sp/hard\libc_nano.a(lib_a-nano-freer.o)
 .bss           0x00000000        0x0 c:/mesh/arm_gcc/bin/../lib/gcc/arm-none-eabi/6.3.1/../../../../arm-none-eabi/lib/thumb/v7e-m/fpv4-sp/hard\libc_nano.a(lib_a-nano-freer.o)
 .text          0x00000000        0x0 c:/mesh/arm_gcc/bin/../lib/gcc/arm-none-eabi/6.3.1/../../../../arm-none-eabi/lib/thumb/v7e-m/fpv4-sp/hard\libc_nano.a(lib_a-nano-mallocr.o)
 .data          0x00000000        0x0 c:/mesh/arm_gcc/bin/../lib/gcc/arm-none-eabi/6.3.1/../../../../arm-none-eabi/lib/thumb/v7e-m/fpv4-sp/hard\libc_nano.a(lib_a-nano-mallocr.o)
 .bss           0x00000000        0x0 c:/mesh/arm_gcc/bin/../lib/gcc/arm-none-eabi/6.3.1/../../../../arm-none-eabi/lib/thumb/v7e-m/fpv4-sp/hard\libc_nano.a(lib_a-nano-mallocr.o)
 .text          0x00000000        0x0 c:/mesh/arm_gcc/bin/../lib/gcc/arm-none-eabi/6.3.1/../../../../arm-none-eabi/lib/thumb/v7e-m/fpv4-sp/hard\libc_nano.a(lib_a-sbrkr.o)
 .data          0x00000000        0x0 c:/mesh/arm_gcc/bin/../lib/gcc/arm-none-eabi/6.3.1/../../../../arm-none-eabi/lib/thumb/v7e-m/fpv4-sp/hard\libc_nano.a(lib_a-sbrkr.o)
 .bss           0x00000000        0x0 c:/mesh/arm_gcc/bin/../lib/gcc/arm-none-eabi/6.3.1/../../../../arm-none-eabi/lib/thumb/v7e-m/fpv4-sp/hard\libc_nano.a(lib_a-sbrkr.o)
 .text          0x00000000        0x0 c:/mesh/arm_gcc/bin/../lib/gcc/arm-none-eabi/6.3.1/../../../../arm-none-eabi/lib/thumb/v7e-m/fpv4-sp/hard\libc_nano.a(lib_a-strcpy.o)
 .data          0x00000000        0x0 c:/mesh/arm_gcc/bin/../lib/gcc/arm-none-eabi/6.3.1/../../../../arm-none-eabi/lib/thumb/v7e-m/fpv4-sp/hard\libc_nano.a(lib_a-strcpy.o)
 .bss           0x00000000        0x0 c:/mesh/arm_gcc/bin/../lib/gcc/arm-none-eabi/6.3.1/../../../../arm-none-eabi/lib/thumb/v7e-m/fpv4-sp/hard\libc_nano.a(lib_a-strcpy.o)
 .data          0x00000000        0x0 c:/mesh/arm_gcc/bin/../lib/gcc/arm-none-eabi/6.3.1/../../../../arm-none-eabi/lib/thumb/v7e-m/fpv4-sp/hard\libc_nano.a(lib_a-strlen.o)
 .bss           0x00000000        0x0 c:/mesh/arm_gcc/bin/../lib/gcc/arm-none-eabi/6.3.1/../../../../arm-none-eabi/lib/thumb/v7e-m/fpv4-sp/hard\libc_nano.a(lib_a-strlen.o)
 .text          0x00000000        0x0 c:/mesh/arm_gcc/bin/../lib/gcc/arm-none-eabi/6.3.1/../../../../arm-none-eabi/lib/thumb/v7e-m/fpv4-sp/hard\libc_nano.a(lib_a-strrchr.o)
 .data          0x00000000        0x0 c:/mesh/arm_gcc/bin/../lib/gcc/arm-none-eabi/6.3.1/../../../../arm-none-eabi/lib/thumb/v7e-m/fpv4-sp/hard\libc_nano.a(lib_a-strrchr.o)
 .bss           0x00000000        0x0 c:/mesh/arm_gcc/bin/../lib/gcc/arm-none-eabi/6.3.1/../../../../arm-none-eabi/lib/thumb/v7e-m/fpv4-sp/hard\libc_nano.a(lib_a-strrchr.o)
 .text          0x00000000        0x0 c:/mesh/arm_gcc/bin/../lib/gcc/arm-none-eabi/6.3.1/../../../../arm-none-eabi/lib/thumb/v7e-m/fpv4-sp/hard\libc_nano.a(lib_a-mlock.o)
 .data          0x00000000        0x0 c:/mesh/arm_gcc/bin/../lib/gcc/arm-none-eabi/6.3.1/../../../../arm-none-eabi/lib/thumb/v7e-m/fpv4-sp/hard\libc_nano.a(lib_a-mlock.o)
 .bss           0x00000000        0x0 c:/mesh/arm_gcc/bin/../lib/gcc/arm-none-eabi/6.3.1/../../../../arm-none-eabi/lib/thumb/v7e-m/fpv4-sp/hard\libc_nano.a(lib_a-mlock.o)
 .text          0x00000000        0x0 c:/mesh/arm_gcc/bin/../lib/gcc/arm-none-eabi/6.3.1/../../../../arm-none-eabi/lib/thumb/v7e-m/fpv4-sp/hard\libc_nano.a(lib_a-reent.o)
 .data          0x00000000        0x0 c:/mesh/arm_gcc/bin/../lib/gcc/arm-none-eabi/6.3.1/../../../../arm-none-eabi/lib/thumb/v7e-m/fpv4-sp/hard\libc_nano.a(lib_a-reent.o)
 .bss           0x00000000        0x0 c:/mesh/arm_gcc/bin/../lib/gcc/arm-none-eabi/6.3.1/../../../../arm-none-eabi/lib/thumb/v7e-m/fpv4-sp/hard\libc_nano.a(lib_a-reent.o)
 .text.cleanup_glue
                0x00000000       0x1a c:/mesh/arm_gcc/bin/../lib/gcc/arm-none-eabi/6.3.1/../../../../arm-none-eabi/lib/thumb/v7e-m/fpv4-sp/hard\libc_nano.a(lib_a-reent.o)
 .text._reclaim_reent
                0x00000000       0xb8 c:/mesh/arm_gcc/bin/../lib/gcc/arm-none-eabi/6.3.1/../../../../arm-none-eabi/lib/thumb/v7e-m/fpv4-sp/hard\libc_nano.a(lib_a-reent.o)
 .text          0x00000000        0x0 c:/mesh/arm_gcc/bin/../lib/gcc/arm-none-eabi/6.3.1/../../../../arm-none-eabi/lib/thumb/v7e-m/fpv4-sp/hard\libc_nano.a(lib_a-strchr.o)
 .data          0x00000000        0x0 c:/mesh/arm_gcc/bin/../lib/gcc/arm-none-eabi/6.3.1/../../../../arm-none-eabi/lib/thumb/v7e-m/fpv4-sp/hard\libc_nano.a(lib_a-strchr.o)
 .bss           0x00000000        0x0 c:/mesh/arm_gcc/bin/../lib/gcc/arm-none-eabi/6.3.1/../../../../arm-none-eabi/lib/thumb/v7e-m/fpv4-sp/hard\libc_nano.a(lib_a-strchr.o)
 .text          0x00000000        0x0 c:/mesh/arm_gcc/bin/../lib/gcc/arm-none-eabi/6.3.1/thumb/v7e-m/fpv4-sp/hard/crtend.o
 .data          0x00000000        0x0 c:/mesh/arm_gcc/bin/../lib/gcc/arm-none-eabi/6.3.1/thumb/v7e-m/fpv4-sp/hard/crtend.o
 .bss           0x00000000        0x0 c:/mesh/arm_gcc/bin/../lib/gcc/arm-none-eabi/6.3.1/thumb/v7e-m/fpv4-sp/hard/crtend.o
 .text          0x00000000        0x0 c:/mesh/arm_gcc/bin/../lib/gcc/arm-none-eabi/6.3.1/thumb/v7e-m/fpv4-sp/hard/crtn.o
 .data          0x00000000        0x0 c:/mesh/arm_gcc/bin/../lib/gcc/arm-none-eabi/6.3.1/thumb/v7e-m/fpv4-sp/hard/crtn.o
 .bss           0x00000000        0x0 c:/mesh/arm_gcc/bin/../lib/gcc/arm-none-eabi/6.3.1/thumb/v7e-m/fpv4-sp/hard/crtn.o
 .text          0x00000000        0x0 c:/mesh/arm_gcc/bin/../lib/gcc/arm-none-eabi/6.3.1/../../../../arm-none-eabi/lib/thumb/v7e-m/fpv4-sp/hard\libnosys.a(sbrk.o)
 .data          0x00000000        0x0 c:/mesh/arm_gcc/bin/../lib/gcc/arm-none-eabi/6.3.1/../../../../arm-none-eabi/lib/thumb/v7e-m/fpv4-sp/hard\libnosys.a(sbrk.o)
 .bss           0x00000000        0x0 c:/mesh/arm_gcc/bin/../lib/gcc/arm-none-eabi/6.3.1/../../../../arm-none-eabi/lib/thumb/v7e-m/fpv4-sp/hard\libnosys.a(sbrk.o)
 .text          0x00000000        0x0 c:/mesh/arm_gcc/bin/../lib/gcc/arm-none-eabi/6.3.1/../../../../arm-none-eabi/lib/thumb/v7e-m/fpv4-sp/hard\libnosys.a(_exit.o)
 .data          0x00000000        0x0 c:/mesh/arm_gcc/bin/../lib/gcc/arm-none-eabi/6.3.1/../../../../arm-none-eabi/lib/thumb/v7e-m/fpv4-sp/hard\libnosys.a(_exit.o)
 .bss           0x00000000        0x0 c:/mesh/arm_gcc/bin/../lib/gcc/arm-none-eabi/6.3.1/../../../../arm-none-eabi/lib/thumb/v7e-m/fpv4-sp/hard\libnosys.a(_exit.o)

Memory Configuration

Name             Origin             Length             Attributes
FLASH            0x00026000         0x00051000         xr
RAM              0x200032c8         0x0000ca38         xrw
*default*        0x00000000         0xffffffff

Linker script and memory map


.text           0x00026000    0x1fa08
 *(.isr_vector)
 .isr_vector    0x00026000      0x200 examples/enocean_switch/CMakeFiles/enocean_switch_nrf52832_xxAA_s132_6.0.0.dir/C_/ver/mod/nRF5_SDK_15.0.0_a53641a/modules/nrfx/mdk/gcc_startup_nrf52.S.obj
                0x00026000                __isr_vector
 *(.text*)
 .text          0x00026200       0x6c c:/mesh/arm_gcc/bin/../lib/gcc/arm-none-eabi/6.3.1/thumb/v7e-m/fpv4-sp/hard/crtbegin.o
 .text          0x0002626c       0x74 c:/mesh/arm_gcc/bin/../lib/gcc/arm-none-eabi/6.3.1/../../../../arm-none-eabi/lib/thumb/v7e-m/fpv4-sp/hard/crt0.o
                0x0002626c                _start
                0x0002626c                _mainCRTStartup
 .text.sd_app_evt_wait
                0x000262e0        0x4 examples/enocean_switch/CMakeFiles/enocean_switch_nrf52832_xxAA_s132_6.0.0.dir/src/main.c.obj
 .text.provisioning_complete_cb
                0x000262e4       0xe8 examples/enocean_switch/CMakeFiles/enocean_switch_nrf52832_xxAA_s132_6.0.0.dir/src/main.c.obj
 .text.app_data_store_try
                0x000263cc      0x134 examples/enocean_switch/CMakeFiles/enocean_switch_nrf52832_xxAA_s132_6.0.0.dir/src/main.c.obj
 .text.node_reset
                0x00026500       0x84 examples/enocean_switch/CMakeFiles/enocean_switch_nrf52832_xxAA_s132_6.0.0.dir/src/main.c.obj
 .text.button_event_handler
                0x00026584       0xa0 examples/enocean_switch/CMakeFiles/enocean_switch_nrf52832_xxAA_s132_6.0.0.dir/src/main.c.obj
 .text.app_enocean_cb
                0x00026624      0x3e4 examples/enocean_switch/CMakeFiles/enocean_switch_nrf52832_xxAA_s132_6.0.0.dir/src/main.c.obj
 .text.rx_callback
                0x00026a08        0x4 examples/enocean_switch/CMakeFiles/enocean_switch_nrf52832_xxAA_s132_6.0.0.dir/src/main.c.obj
 .text.models_init_cb
                0x00026a0c       0xb4 examples/enocean_switch/CMakeFiles/enocean_switch_nrf52832_xxAA_s132_6.0.0.dir/src/main.c.obj
 .text.client_status_cb
                0x00026ac0       0xcc examples/enocean_switch/CMakeFiles/enocean_switch_nrf52832_xxAA_s132_6.0.0.dir/src/main.c.obj
 .text.app_mesh_core_event_cb
                0x00026b8c      0x18c examples/enocean_switch/CMakeFiles/enocean_switch_nrf52832_xxAA_s132_6.0.0.dir/src/main.c.obj
 .text.config_server_evt_cb
                0x00026d18       0x8c examples/enocean_switch/CMakeFiles/enocean_switch_nrf52832_xxAA_s132_6.0.0.dir/src/main.c.obj
 .text.app_rtt_input_handler
                0x00026da4       0xa4 examples/enocean_switch/CMakeFiles/enocean_switch_nrf52832_xxAA_s132_6.0.0.dir/src/main.c.obj
 .text.startup.main
                0x00026e48      0x3e0 examples/enocean_switch/CMakeFiles/enocean_switch_nrf52832_xxAA_s132_6.0.0.dir/src/main.c.obj
                0x00026e48                main
 .text.enocean_packet_process
                0x00027228      0x438 examples/enocean_switch/CMakeFiles/enocean_switch_nrf52832_xxAA_s132_6.0.0.dir/src/enocean.c.obj
                0x00027228                enocean_packet_process
 .text.enocean_secmat_add
                0x00027660       0x2c examples/enocean_switch/CMakeFiles/enocean_switch_nrf52832_xxAA_s132_6.0.0.dir/src/enocean.c.obj
                0x00027660                enocean_secmat_add
 .text.enocean_translator_init
                0x0002768c       0x1c examples/enocean_switch/CMakeFiles/enocean_switch_nrf52832_xxAA_s132_6.0.0.dir/src/enocean.c.obj
                0x0002768c                enocean_translator_init
 .text.flash_manager_mem_available
                0x000276a8       0x80 examples/enocean_switch/CMakeFiles/enocean_switch_nrf52832_xxAA_s132_6.0.0.dir/src/flash_helper.c.obj
 .text.flash_invalidate_complete
                0x00027728       0x10 examples/enocean_switch/CMakeFiles/enocean_switch_nrf52832_xxAA_s132_6.0.0.dir/src/flash_helper.c.obj
 .text.flash_write_complete
                0x00027738       0x98 examples/enocean_switch/CMakeFiles/enocean_switch_nrf52832_xxAA_s132_6.0.0.dir/src/flash_helper.c.obj
 .text.flash_reset
                0x000277d0       0x8c examples/enocean_switch/CMakeFiles/enocean_switch_nrf52832_xxAA_s132_6.0.0.dir/src/flash_helper.c.obj
 .text.app_flash_init
                0x0002785c       0xb8 examples/enocean_switch/CMakeFiles/enocean_switch_nrf52832_xxAA_s132_6.0.0.dir/src/flash_helper.c.obj
                0x0002785c                app_flash_init
 .text.flash_remove_complete
                0x00027914       0x70 examples/enocean_switch/CMakeFiles/enocean_switch_nrf52832_xxAA_s132_6.0.0.dir/src/flash_helper.c.obj
 .text.app_flash_data_load
                0x00027984       0x48 examples/enocean_switch/CMakeFiles/enocean_switch_nrf52832_xxAA_s132_6.0.0.dir/src/flash_helper.c.obj
                0x00027984                app_flash_data_load
 .text.app_flash_data_store
                0x000279cc       0xb8 examples/enocean_switch/CMakeFiles/enocean_switch_nrf52832_xxAA_s132_6.0.0.dir/src/flash_helper.c.obj
                0x000279cc                app_flash_data_store
 .text.app_flash_clear
                0x00027a84       0x94 examples/enocean_switch/CMakeFiles/enocean_switch_nrf52832_xxAA_s132_6.0.0.dir/src/flash_helper.c.obj
                0x00027a84                app_flash_clear
 .text.mesh_evt_handler
                0x00027b18       0x10 examples/enocean_switch/CMakeFiles/enocean_switch_nrf52832_xxAA_s132_6.0.0.dir/__/__/mesh/stack/src/mesh_stack.c.obj
 .text.mesh_stack_init
                0x00027b28       0x90 examples/enocean_switch/CMakeFiles/enocean_switch_nrf52832_xxAA_s132_6.0.0.dir/__/__/mesh/stack/src/mesh_stack.c.obj
                0x00027b28                mesh_stack_init
 .text.mesh_stack_start
                0x00027bb8        0x4 examples/enocean_switch/CMakeFiles/enocean_switch_nrf52832_xxAA_s132_6.0.0.dir/__/__/mesh/stack/src/mesh_stack.c.obj
                0x00027bb8                mesh_stack_start
 .text.mesh_stack_provisioning_data_store
                0x00027bbc       0x78 examples/enocean_switch/CMakeFiles/enocean_switch_nrf52832_xxAA_s132_6.0.0.dir/__/__/mesh/stack/src/mesh_stack.c.obj
                0x00027bbc                mesh_stack_provisioning_data_store
 .text.mesh_stack_config_clear
                0x00027c34       0x14 examples/enocean_switch/CMakeFiles/enocean_switch_nrf52832_xxAA_s132_6.0.0.dir/__/__/mesh/stack/src/mesh_stack.c.obj
                0x00027c34                mesh_stack_config_clear
 .text.mesh_stack_device_reset
                0x00027c48       0x20 examples/enocean_switch/CMakeFiles/enocean_switch_nrf52832_xxAA_s132_6.0.0.dir/__/__/mesh/stack/src/mesh_stack.c.obj
                0x00027c48                mesh_stack_device_reset
 .text.sd_evt_get
                0x00027c68        0x4 examples/enocean_switch/CMakeFiles/enocean_switch_nrf52832_xxAA_s132_6.0.0.dir/__/common/src/mesh_softdevice_init.c.obj
 .text.sd_softdevice_enable
                0x00027c6c        0x4 examples/enocean_switch/CMakeFiles/enocean_switch_nrf52832_xxAA_s132_6.0.0.dir/__/common/src/mesh_softdevice_init.c.obj
 .text.sd_ble_enable
                0x00027c70        0x4 examples/enocean_switch/CMakeFiles/enocean_switch_nrf52832_xxAA_s132_6.0.0.dir/__/common/src/mesh_softdevice_init.c.obj
 .text.SWI2_EGU2_IRQHandler
                0x00027c74       0x1c examples/enocean_switch/CMakeFiles/enocean_switch_nrf52832_xxAA_s132_6.0.0.dir/__/common/src/mesh_softdevice_init.c.obj
                0x00027c74                SWI2_EGU2_IRQHandler
 .text.mesh_softdevice_init
                0x00027c90      0x1f8 examples/enocean_switch/CMakeFiles/enocean_switch_nrf52832_xxAA_s132_6.0.0.dir/__/common/src/mesh_softdevice_init.c.obj
                0x00027c90                mesh_softdevice_init
 .text.prov_evt_handler
                0x00027e88       0x70 examples/enocean_switch/CMakeFiles/enocean_switch_nrf52832_xxAA_s132_6.0.0.dir/__/common/src/mesh_provisionee.c.obj
 .text.mesh_provisionee_prov_start
                0x00027ef8       0x88 examples/enocean_switch/CMakeFiles/enocean_switch_nrf52832_xxAA_s132_6.0.0.dir/__/common/src/mesh_provisionee.c.obj
                0x00027ef8                mesh_provisionee_prov_start
 .text.TIMER2_IRQHandler
                0x00027f80       0x34 examples/enocean_switch/CMakeFiles/enocean_switch_nrf52832_xxAA_s132_6.0.0.dir/__/common/src/rtt_input.c.obj
                0x00027f80                TIMER2_IRQHandler
 .text.rtt_input_enable
                0x00027fb4       0x5c examples/enocean_switch/CMakeFiles/enocean_switch_nrf52832_xxAA_s132_6.0.0.dir/__/common/src/rtt_input.c.obj
                0x00027fb4                rtt_input_enable
 .text.hal_led_pin_set
                0x00028010       0x18 examples/enocean_switch/CMakeFiles/enocean_switch_nrf52832_xxAA_s132_6.0.0.dir/__/common/src/simple_hal.c.obj
                0x00028010                hal_led_pin_set
 .text.hal_led_mask_set
                0x00028028       0x14 examples/enocean_switch/CMakeFiles/enocean_switch_nrf52832_xxAA_s132_6.0.0.dir/__/common/src/simple_hal.c.obj
                0x00028028                hal_led_mask_set
 .text.hal_led_blink_ms
                0x0002803c       0x4c examples/enocean_switch/CMakeFiles/enocean_switch_nrf52832_xxAA_s132_6.0.0.dir/__/common/src/simple_hal.c.obj
                0x0002803c                hal_led_blink_ms
 .text.hal_leds_init
                0x00028088       0x3c examples/enocean_switch/CMakeFiles/enocean_switch_nrf52832_xxAA_s132_6.0.0.dir/__/common/src/simple_hal.c.obj
                0x00028088                hal_leds_init
 .text.hal_buttons_init
                0x000280c4       0x54 examples/enocean_switch/CMakeFiles/enocean_switch_nrf52832_xxAA_s132_6.0.0.dir/__/common/src/simple_hal.c.obj
                0x000280c4                hal_buttons_init
 .text.GPIOTE_IRQHandler
                0x00028118      0x114 examples/enocean_switch/CMakeFiles/enocean_switch_nrf52832_xxAA_s132_6.0.0.dir/__/common/src/simple_hal.c.obj
                0x00028118                GPIOTE_IRQHandler
 .text._weak_handler
                0x0002822c        0x4 examples/enocean_switch/CMakeFiles/enocean_switch_nrf52832_xxAA_s132_6.0.0.dir/__/nrf_mesh_weak.c.obj
                0x0002822c                nrf_mesh_dfu_init
                0x0002822c                nrf_mesh_dfu_jump_to_bootloader
                0x0002822c                nrf_mesh_dfu_rx
                0x0002822c                prov_provisioner_provision
                0x0002822c                nrf_mesh_dfu_bank_info_get
                0x0002822c                prov_provisioner_oob_pubkey
                0x0002822c                nrf_mesh_dfu_request
                0x0002822c                nrf_mesh_dfu_bank_flash
                0x0002822c                _weak_handler
                0x0002822c                nrf_mesh_dfu_relay
                0x0002822c                nrf_mesh_dfu_abort
                0x0002822c                mesh_flash_op_execute
                0x0002822c                prov_provisionee_init
                0x0002822c                nrf_mesh_dfu_state_get
                0x0002822c                prov_provisioner_shared_secret
                0x0002822c                prov_provisioner_auth_data
                0x0002822c                prov_provisioner_oob_use
 .text.app_error_fault_handler
                0x00028230      0x240 examples/enocean_switch/CMakeFiles/enocean_switch_nrf52832_xxAA_s132_6.0.0.dir/__/common/src/app_error_weak.c.obj
                0x00028230                app_error_fault_handler
 .text.mesh_assertion_handler
                0x00028470       0x24 examples/enocean_switch/CMakeFiles/enocean_switch_nrf52832_xxAA_s132_6.0.0.dir/__/common/src/assertion_handler_weak.c.obj
                0x00028470                mesh_assertion_handler
 .text.nrf_mesh_configure_device_uuid_set
                0x00028494       0x10 examples/enocean_switch/CMakeFiles/enocean_switch_nrf52832_xxAA_s132_6.0.0.dir/__/__/mesh/core/src/nrf_mesh_configure.c.obj
                0x00028494                nrf_mesh_configure_device_uuid_set
 .text.nrf_mesh_configure_device_uuid_reset
                0x000284a4       0x2c examples/enocean_switch/CMakeFiles/enocean_switch_nrf52832_xxAA_s132_6.0.0.dir/__/__/mesh/core/src/nrf_mesh_configure.c.obj
                0x000284a4                nrf_mesh_configure_device_uuid_reset
 .text.nrf_mesh_configure_device_uuid_get
                0x000284d0        0x8 examples/enocean_switch/CMakeFiles/enocean_switch_nrf52832_xxAA_s132_6.0.0.dir/__/__/mesh/core/src/nrf_mesh_configure.c.obj
                0x000284d0                nrf_mesh_configure_device_uuid_get
 .text.sd_ecb_block_encrypt
                0x000284d8        0x4 examples/enocean_switch/CMakeFiles/enocean_switch_nrf52832_xxAA_s132_6.0.0.dir/__/__/mesh/core/src/aes.c.obj
 .text.aes_encrypt
                0x000284dc       0x34 examples/enocean_switch/CMakeFiles/enocean_switch_nrf52832_xxAA_s132_6.0.0.dir/__/__/mesh/core/src/aes.c.obj
                0x000284dc                aes_encrypt
 .text.msg_cache_init
                0x00028510       0x24 examples/enocean_switch/CMakeFiles/enocean_switch_nrf52832_xxAA_s132_6.0.0.dir/__/__/mesh/core/src/msg_cache.c.obj
                0x00028510                msg_cache_init
 .text.msg_cache_entry_exists
                0x00028534       0x40 examples/enocean_switch/CMakeFiles/enocean_switch_nrf52832_xxAA_s132_6.0.0.dir/__/__/mesh/core/src/msg_cache.c.obj
                0x00028534                msg_cache_entry_exists
 .text.msg_cache_entry_add
                0x00028574       0x30 examples/enocean_switch/CMakeFiles/enocean_switch_nrf52832_xxAA_s132_6.0.0.dir/__/__/mesh/core/src/msg_cache.c.obj
                0x00028574                msg_cache_entry_add
 .text.tx_complete
                0x000285a4       0x30 examples/enocean_switch/CMakeFiles/enocean_switch_nrf52832_xxAA_s132_6.0.0.dir/__/__/mesh/core/src/transport.c.obj
 .text.upper_trs_packet_encrypt
                0x000285d4       0xb4 examples/enocean_switch/CMakeFiles/enocean_switch_nrf52832_xxAA_s132_6.0.0.dir/__/__/mesh/core/src/transport.c.obj
 .text.trs_sar_packet_out
                0x00028688      0x1a4 examples/enocean_switch/CMakeFiles/enocean_switch_nrf52832_xxAA_s132_6.0.0.dir/__/__/mesh/core/src/transport.c.obj
 .text.upper_transport_tx.part.25
                0x0002882c      0x34c examples/enocean_switch/CMakeFiles/enocean_switch_nrf52832_xxAA_s132_6.0.0.dir/__/__/mesh/core/src/transport.c.obj
 .text.sar_ack_send.part.29
                0x00028b78       0xd4 examples/enocean_switch/CMakeFiles/enocean_switch_nrf52832_xxAA_s132_6.0.0.dir/__/__/mesh/core/src/transport.c.obj
 .text.ack_timeout
                0x00028c4c       0x34 examples/enocean_switch/CMakeFiles/enocean_switch_nrf52832_xxAA_s132_6.0.0.dir/__/__/mesh/core/src/transport.c.obj
 .text.upper_transport_access_packet_in
                0x00028c80      0x334 examples/enocean_switch/CMakeFiles/enocean_switch_nrf52832_xxAA_s132_6.0.0.dir/__/__/mesh/core/src/transport.c.obj
 .text.sar_ctx_cancel
                0x00028fb4      0x148 examples/enocean_switch/CMakeFiles/enocean_switch_nrf52832_xxAA_s132_6.0.0.dir/__/__/mesh/core/src/transport.c.obj
 .text.retry_timeout
                0x000290fc       0x98 examples/enocean_switch/CMakeFiles/enocean_switch_nrf52832_xxAA_s132_6.0.0.dir/__/__/mesh/core/src/transport.c.obj
 .text.transport_sar_process
                0x00029194      0x288 examples/enocean_switch/CMakeFiles/enocean_switch_nrf52832_xxAA_s132_6.0.0.dir/__/__/mesh/core/src/transport.c.obj
 .text.upper_transport_packet_in
                0x0002941c      0x2e4 examples/enocean_switch/CMakeFiles/enocean_switch_nrf52832_xxAA_s132_6.0.0.dir/__/__/mesh/core/src/transport.c.obj
 .text.abort_timeout
                0x00029700      0x13c examples/enocean_switch/CMakeFiles/enocean_switch_nrf52832_xxAA_s132_6.0.0.dir/__/__/mesh/core/src/transport.c.obj
 .text.transport_init
                0x0002983c       0xac examples/enocean_switch/CMakeFiles/enocean_switch_nrf52832_xxAA_s132_6.0.0.dir/__/__/mesh/core/src/transport.c.obj
                0x0002983c                transport_init
 .text.transport_packet_in
                0x000298e8      0x770 examples/enocean_switch/CMakeFiles/enocean_switch_nrf52832_xxAA_s132_6.0.0.dir/__/__/mesh/core/src/transport.c.obj
                0x000298e8                transport_packet_in
 .text.transport_tx
                0x0002a058      0x100 examples/enocean_switch/CMakeFiles/enocean_switch_nrf52832_xxAA_s132_6.0.0.dir/__/__/mesh/core/src/transport.c.obj
                0x0002a058                transport_tx
 .text.transport_control_tx
                0x0002a158       0xc0 examples/enocean_switch/CMakeFiles/enocean_switch_nrf52832_xxAA_s132_6.0.0.dir/__/__/mesh/core/src/transport.c.obj
                0x0002a158                transport_control_tx
 .text.transport_opt_set
                0x0002a218       0xdc examples/enocean_switch/CMakeFiles/enocean_switch_nrf52832_xxAA_s132_6.0.0.dir/__/__/mesh/core/src/transport.c.obj
                0x0002a218                transport_opt_set
 .text.transport_opt_get
                0x0002a2f4       0x84 examples/enocean_switch/CMakeFiles/enocean_switch_nrf52832_xxAA_s132_6.0.0.dir/__/__/mesh/core/src/transport.c.obj
                0x0002a2f4                transport_opt_get
 .text.transport_control_packet_consumer_add
                0x0002a378       0x60 examples/enocean_switch/CMakeFiles/enocean_switch_nrf52832_xxAA_s132_6.0.0.dir/__/__/mesh/core/src/transport.c.obj
                0x0002a378                transport_control_packet_consumer_add
 .text.event_handle
                0x0002a3d8       0x28 examples/enocean_switch/CMakeFiles/enocean_switch_nrf52832_xxAA_s132_6.0.0.dir/__/__/mesh/core/src/event.c.obj
                0x0002a3d8                event_handle
 .text.event_handler_add
                0x0002a400       0x28 examples/enocean_switch/CMakeFiles/enocean_switch_nrf52832_xxAA_s132_6.0.0.dir/__/__/mesh/core/src/event.c.obj
                0x0002a400                event_handler_add
 .text.event_handler_remove
                0x0002a428       0x28 examples/enocean_switch/CMakeFiles/enocean_switch_nrf52832_xxAA_s132_6.0.0.dir/__/__/mesh/core/src/event.c.obj
                0x0002a428                event_handler_remove
 .text.packet_buffer_init
                0x0002a450       0xb4 examples/enocean_switch/CMakeFiles/enocean_switch_nrf52832_xxAA_s132_6.0.0.dir/__/__/mesh/core/src/packet_buffer.c.obj
                0x0002a450                packet_buffer_init
 .text.packet_buffer_flush
                0x0002a504       0x74 examples/enocean_switch/CMakeFiles/enocean_switch_nrf52832_xxAA_s132_6.0.0.dir/__/__/mesh/core/src/packet_buffer.c.obj
                0x0002a504                packet_buffer_flush
 .text.packet_buffer_reserve
                0x0002a578       0x9c examples/enocean_switch/CMakeFiles/enocean_switch_nrf52832_xxAA_s132_6.0.0.dir/__/__/mesh/core/src/packet_buffer.c.obj
                0x0002a578                packet_buffer_reserve
 .text.packet_buffer_commit
                0x0002a614       0x7c examples/enocean_switch/CMakeFiles/enocean_switch_nrf52832_xxAA_s132_6.0.0.dir/__/__/mesh/core/src/packet_buffer.c.obj
                0x0002a614                packet_buffer_commit
 .text.packet_buffer_pop
                0x0002a690       0x50 examples/enocean_switch/CMakeFiles/enocean_switch_nrf52832_xxAA_s132_6.0.0.dir/__/__/mesh/core/src/packet_buffer.c.obj
                0x0002a690                packet_buffer_pop
 .text.packet_buffer_can_pop
                0x0002a6e0       0x24 examples/enocean_switch/CMakeFiles/enocean_switch_nrf52832_xxAA_s132_6.0.0.dir/__/__/mesh/core/src/packet_buffer.c.obj
                0x0002a6e0                packet_buffer_can_pop
 .text.packet_buffer_packets_ready_to_pop
                0x0002a704       0x48 examples/enocean_switch/CMakeFiles/enocean_switch_nrf52832_xxAA_s132_6.0.0.dir/__/__/mesh/core/src/packet_buffer.c.obj
                0x0002a704                packet_buffer_packets_ready_to_pop
 .text.packet_buffer_free
                0x0002a74c       0x8c examples/enocean_switch/CMakeFiles/enocean_switch_nrf52832_xxAA_s132_6.0.0.dir/__/__/mesh/core/src/packet_buffer.c.obj
                0x0002a74c                packet_buffer_free
 .text.erase_source
                0x0002a7d8       0x34 examples/enocean_switch/CMakeFiles/enocean_switch_nrf52832_xxAA_s132_6.0.0.dir/__/__/mesh/core/src/flash_manager_defrag.c.obj
 .text.erase_recovery_area
                0x0002a80c       0x34 examples/enocean_switch/CMakeFiles/enocean_switch_nrf52832_xxAA_s132_6.0.0.dir/__/__/mesh/core/src/flash_manager_defrag.c.obj
 .text.write_back
                0x0002a840       0x44 examples/enocean_switch/CMakeFiles/enocean_switch_nrf52832_xxAA_s132_6.0.0.dir/__/__/mesh/core/src/flash_manager_defrag.c.obj
 .text.write_defrag_start_pointer
                0x0002a884       0x38 examples/enocean_switch/CMakeFiles/enocean_switch_nrf52832_xxAA_s132_6.0.0.dir/__/__/mesh/core/src/flash_manager_defrag.c.obj
 .text.copy_metadata
                0x0002a8bc       0x58 examples/enocean_switch/CMakeFiles/enocean_switch_nrf52832_xxAA_s132_6.0.0.dir/__/__/mesh/core/src/flash_manager_defrag.c.obj
 .text.seal_storage_page
                0x0002a914       0x70 examples/enocean_switch/CMakeFiles/enocean_switch_nrf52832_xxAA_s132_6.0.0.dir/__/__/mesh/core/src/flash_manager_defrag.c.obj
 .text.post_process
                0x0002a984       0x64 examples/enocean_switch/CMakeFiles/enocean_switch_nrf52832_xxAA_s132_6.0.0.dir/__/__/mesh/core/src/flash_manager_defrag.c.obj
 .text.check_for_invalid_entries
                0x0002a9e8       0x40 examples/enocean_switch/CMakeFiles/enocean_switch_nrf52832_xxAA_s132_6.0.0.dir/__/__/mesh/core/src/flash_manager_defrag.c.obj
 .text.execute_procedure_step
                0x0002aa28       0xa0 examples/enocean_switch/CMakeFiles/enocean_switch_nrf52832_xxAA_s132_6.0.0.dir/__/__/mesh/core/src/flash_manager_defrag.c.obj
 .text.on_flash_op_end
                0x0002aac8       0x4c examples/enocean_switch/CMakeFiles/enocean_switch_nrf52832_xxAA_s132_6.0.0.dir/__/__/mesh/core/src/flash_manager_defrag.c.obj
 .text.invalidate_duplicate_entries
                0x0002ab14      0x158 examples/enocean_switch/CMakeFiles/enocean_switch_nrf52832_xxAA_s132_6.0.0.dir/__/__/mesh/core/src/flash_manager_defrag.c.obj
 .text.backup_entries
                0x0002ac6c      0x1c4 examples/enocean_switch/CMakeFiles/enocean_switch_nrf52832_xxAA_s132_6.0.0.dir/__/__/mesh/core/src/flash_manager_defrag.c.obj
 .text.flash_manager_defrag_init
                0x0002ae30       0x6c examples/enocean_switch/CMakeFiles/enocean_switch_nrf52832_xxAA_s132_6.0.0.dir/__/__/mesh/core/src/flash_manager_defrag.c.obj
                0x0002ae30                flash_manager_defrag_init
 .text.flash_manager_defrag_is_running
                0x0002ae9c       0x10 examples/enocean_switch/CMakeFiles/enocean_switch_nrf52832_xxAA_s132_6.0.0.dir/__/__/mesh/core/src/flash_manager_defrag.c.obj
                0x0002ae9c                flash_manager_defrag_is_running
 .text.flash_manager_defrag
                0x0002aeac       0x48 examples/enocean_switch/CMakeFiles/enocean_switch_nrf52832_xxAA_s132_6.0.0.dir/__/__/mesh/core/src/flash_manager_defrag.c.obj
                0x0002aeac                flash_manager_defrag
 .text.flash_manager_defrag_recovery_page_get
                0x0002aef4        0xc examples/enocean_switch/CMakeFiles/enocean_switch_nrf52832_xxAA_s132_6.0.0.dir/__/__/mesh/core/src/flash_manager_defrag.c.obj
                0x0002aef4                flash_manager_defrag_recovery_page_get
 .text.fifo_init
                0x0002af00       0x38 examples/enocean_switch/CMakeFiles/enocean_switch_nrf52832_xxAA_s132_6.0.0.dir/__/__/mesh/core/src/fifo.c.obj
                0x0002af00                fifo_init
 .text.fifo_push
                0x0002af38       0x54 examples/enocean_switch/CMakeFiles/enocean_switch_nrf52832_xxAA_s132_6.0.0.dir/__/__/mesh/core/src/fifo.c.obj
                0x0002af38                fifo_push
 .text.fifo_pop
                0x0002af8c       0x58 examples/enocean_switch/CMakeFiles/enocean_switch_nrf52832_xxAA_s132_6.0.0.dir/__/__/mesh/core/src/fifo.c.obj
                0x0002af8c                fifo_pop
 .text.nrf_flash_erase
                0x0002afe4       0x5c examples/enocean_switch/CMakeFiles/enocean_switch_nrf52832_xxAA_s132_6.0.0.dir/__/__/mesh/core/src/nrf_flash.c.obj
                0x0002afe4                nrf_flash_erase
 .text.nrf_flash_write
                0x0002b040       0x6c examples/enocean_switch/CMakeFiles/enocean_switch_nrf52832_xxAA_s132_6.0.0.dir/__/__/mesh/core/src/nrf_flash.c.obj
                0x0002b040                nrf_flash_write
 .text.packet_mgr_init
                0x0002b0ac       0x4c examples/enocean_switch/CMakeFiles/enocean_switch_nrf52832_xxAA_s132_6.0.0.dir/__/__/mesh/core/src/packet_mgr.c.obj
                0x0002b0ac                packet_mgr_init
 .text.flash_store_iv_index
                0x0002b0f8       0x38 examples/enocean_switch/CMakeFiles/enocean_switch_nrf52832_xxAA_s132_6.0.0.dir/__/__/mesh/core/src/net_state.c.obj
 .text.flash_mem_available
                0x0002b130       0x1c examples/enocean_switch/CMakeFiles/enocean_switch_nrf52832_xxAA_s132_6.0.0.dir/__/__/mesh/core/src/net_state.c.obj
 .text.init_flash_storage
                0x0002b14c       0x44 examples/enocean_switch/CMakeFiles/enocean_switch_nrf52832_xxAA_s132_6.0.0.dir/__/__/mesh/core/src/net_state.c.obj
 .text.flash_write_complete
                0x0002b190       0x68 examples/enocean_switch/CMakeFiles/enocean_switch_nrf52832_xxAA_s132_6.0.0.dir/__/__/mesh/core/src/net_state.c.obj
 .text.seqnum_block_allocate
                0x0002b1f8       0x4c examples/enocean_switch/CMakeFiles/enocean_switch_nrf52832_xxAA_s132_6.0.0.dir/__/__/mesh/core/src/net_state.c.obj
 .text.net_state_reset
                0x0002b244       0x78 examples/enocean_switch/CMakeFiles/enocean_switch_nrf52832_xxAA_s132_6.0.0.dir/__/__/mesh/core/src/net_state.c.obj
                0x0002b244                net_state_reset
 .text.iv_update_trigger_if_pending
                0x0002b2bc      0x170 examples/enocean_switch/CMakeFiles/enocean_switch_nrf52832_xxAA_s132_6.0.0.dir/__/__/mesh/core/src/net_state.c.obj
 .text.mesh_evt_handler
                0x0002b42c      0x108 examples/enocean_switch/CMakeFiles/enocean_switch_nrf52832_xxAA_s132_6.0.0.dir/__/__/mesh/core/src/net_state.c.obj
 .text.iv_update_timer_handler
                0x0002b534       0x70 examples/enocean_switch/CMakeFiles/enocean_switch_nrf52832_xxAA_s132_6.0.0.dir/__/__/mesh/core/src/net_state.c.obj
 .text.net_state_recover_from_flash
                0x0002b5a4      0x118 examples/enocean_switch/CMakeFiles/enocean_switch_nrf52832_xxAA_s132_6.0.0.dir/__/__/mesh/core/src/net_state.c.obj
                0x0002b5a4                net_state_recover_from_flash
 .text.net_state_flash_area_get
                0x0002b6bc        0xc examples/enocean_switch/CMakeFiles/enocean_switch_nrf52832_xxAA_s132_6.0.0.dir/__/__/mesh/core/src/net_state.c.obj
                0x0002b6bc                net_state_flash_area_get
 .text.net_state_init
                0x0002b6c8       0x94 examples/enocean_switch/CMakeFiles/enocean_switch_nrf52832_xxAA_s132_6.0.0.dir/__/__/mesh/core/src/net_state.c.obj
                0x0002b6c8                net_state_init
 .text.net_state_seqnum_alloc
                0x0002b75c       0xd4 examples/enocean_switch/CMakeFiles/enocean_switch_nrf52832_xxAA_s132_6.0.0.dir/__/__/mesh/core/src/net_state.c.obj
                0x0002b75c                net_state_seqnum_alloc
 .text.net_state_iv_index_lock
                0x0002b830      0x190 examples/enocean_switch/CMakeFiles/enocean_switch_nrf52832_xxAA_s132_6.0.0.dir/__/__/mesh/core/src/net_state.c.obj
                0x0002b830                net_state_iv_index_lock
 .text.net_state_key_refresh_phase_changed
                0x0002b9c0       0x20 examples/enocean_switch/CMakeFiles/enocean_switch_nrf52832_xxAA_s132_6.0.0.dir/__/__/mesh/core/src/net_state.c.obj
                0x0002b9c0                net_state_key_refresh_phase_changed
 .text.net_state_beacon_iv_index_get
                0x0002b9e0        0xc examples/enocean_switch/CMakeFiles/enocean_switch_nrf52832_xxAA_s132_6.0.0.dir/__/__/mesh/core/src/net_state.c.obj
                0x0002b9e0                net_state_beacon_iv_index_get
 .text.net_state_tx_iv_index_get
                0x0002b9ec       0x14 examples/enocean_switch/CMakeFiles/enocean_switch_nrf52832_xxAA_s132_6.0.0.dir/__/__/mesh/core/src/net_state.c.obj
                0x0002b9ec                net_state_tx_iv_index_get
 .text.net_state_rx_iv_index_get
                0x0002ba00       0x18 examples/enocean_switch/CMakeFiles/enocean_switch_nrf52832_xxAA_s132_6.0.0.dir/__/__/mesh/core/src/net_state.c.obj
                0x0002ba00                net_state_rx_iv_index_get
 .text.net_state_iv_update_get
                0x0002ba18        0xc examples/enocean_switch/CMakeFiles/enocean_switch_nrf52832_xxAA_s132_6.0.0.dir/__/__/mesh/core/src/net_state.c.obj
                0x0002ba18                net_state_iv_update_get
 .text.net_state_iv_index_set
                0x0002ba24       0x8c examples/enocean_switch/CMakeFiles/enocean_switch_nrf52832_xxAA_s132_6.0.0.dir/__/__/mesh/core/src/net_state.c.obj
                0x0002ba24                net_state_iv_index_set
 .text.send_end_events
                0x0002bab0       0x90 examples/enocean_switch/CMakeFiles/enocean_switch_nrf52832_xxAA_s132_6.0.0.dir/__/__/mesh/core/src/mesh_flash.c.obj
 .text.flash_op_start
                0x0002bb40      0x224 examples/enocean_switch/CMakeFiles/enocean_switch_nrf52832_xxAA_s132_6.0.0.dir/__/__/mesh/core/src/mesh_flash.c.obj
 .text.mesh_flash_init
                0x0002bd64       0x88 examples/enocean_switch/CMakeFiles/enocean_switch_nrf52832_xxAA_s132_6.0.0.dir/__/__/mesh/core/src/mesh_flash.c.obj
                0x0002bd64                mesh_flash_init
 .text.mesh_flash_user_callback_set
                0x0002bdec       0x20 examples/enocean_switch/CMakeFiles/enocean_switch_nrf52832_xxAA_s132_6.0.0.dir/__/__/mesh/core/src/mesh_flash.c.obj
                0x0002bdec                mesh_flash_user_callback_set
 .text.mesh_flash_op_push
                0x0002be0c      0x1a0 examples/enocean_switch/CMakeFiles/enocean_switch_nrf52832_xxAA_s132_6.0.0.dir/__/__/mesh/core/src/mesh_flash.c.obj
                0x0002be0c                mesh_flash_op_push
 .text.nrf_mesh_address_type_get
                0x0002bfac       0x10 examples/enocean_switch/CMakeFiles/enocean_switch_nrf52832_xxAA_s132_6.0.0.dir/__/__/mesh/core/src/nrf_mesh_utils.c.obj
                0x0002bfac                nrf_mesh_address_type_get
 .text.sd_softdevice_is_enabled
                0x0002bfbc        0x4 examples/enocean_switch/CMakeFiles/enocean_switch_nrf52832_xxAA_s132_6.0.0.dir/__/__/mesh/core/src/nrf_mesh.c.obj
 .text.nrf_mesh_listen
                0x0002bfc0      0x1c8 examples/enocean_switch/CMakeFiles/enocean_switch_nrf52832_xxAA_s132_6.0.0.dir/__/__/mesh/core/src/nrf_mesh.c.obj
 .text.flash_stable_cb
                0x0002c188       0x20 examples/enocean_switch/CMakeFiles/enocean_switch_nrf52832_xxAA_s132_6.0.0.dir/__/__/mesh/core/src/nrf_mesh.c.obj
 .text.scanner_packet_process_cb
                0x0002c1a8       0x88 examples/enocean_switch/CMakeFiles/enocean_switch_nrf52832_xxAA_s132_6.0.0.dir/__/__/mesh/core/src/nrf_mesh.c.obj
 .text.nrf_mesh_init
                0x0002c230       0xe0 examples/enocean_switch/CMakeFiles/enocean_switch_nrf52832_xxAA_s132_6.0.0.dir/__/__/mesh/core/src/nrf_mesh.c.obj
                0x0002c230                nrf_mesh_init
 .text.nrf_mesh_enable
                0x0002c310       0x48 examples/enocean_switch/CMakeFiles/enocean_switch_nrf52832_xxAA_s132_6.0.0.dir/__/__/mesh/core/src/nrf_mesh.c.obj
                0x0002c310                nrf_mesh_enable
 .text.nrf_mesh_packet_send
                0x0002c358       0x94 examples/enocean_switch/CMakeFiles/enocean_switch_nrf52832_xxAA_s132_6.0.0.dir/__/__/mesh/core/src/nrf_mesh.c.obj
                0x0002c358                nrf_mesh_packet_send
 .text.nrf_mesh_evt_handler_add
                0x0002c3ec        0x4 examples/enocean_switch/CMakeFiles/enocean_switch_nrf52832_xxAA_s132_6.0.0.dir/__/__/mesh/core/src/nrf_mesh.c.obj
                0x0002c3ec                nrf_mesh_evt_handler_add
 .text.nrf_mesh_on_sd_evt
                0x0002c3f0        0xc examples/enocean_switch/CMakeFiles/enocean_switch_nrf52832_xxAA_s132_6.0.0.dir/__/__/mesh/core/src/nrf_mesh.c.obj
                0x0002c3f0                nrf_mesh_on_sd_evt
 .text.nrf_mesh_rx_cb_set
                0x0002c3fc        0xc examples/enocean_switch/CMakeFiles/enocean_switch_nrf52832_xxAA_s132_6.0.0.dir/__/__/mesh/core/src/nrf_mesh.c.obj
                0x0002c3fc                nrf_mesh_rx_cb_set
 .text.nrf_mesh_subnet_added
                0x0002c408        0x4 examples/enocean_switch/CMakeFiles/enocean_switch_nrf52832_xxAA_s132_6.0.0.dir/__/__/mesh/core/src/nrf_mesh.c.obj
                0x0002c408                nrf_mesh_subnet_added
 .text.queue_init
                0x0002c40c       0x1c examples/enocean_switch/CMakeFiles/enocean_switch_nrf52832_xxAA_s132_6.0.0.dir/__/__/mesh/core/src/queue.c.obj
                0x0002c40c                queue_init
 .text.queue_push
                0x0002c428       0x44 examples/enocean_switch/CMakeFiles/enocean_switch_nrf52832_xxAA_s132_6.0.0.dir/__/__/mesh/core/src/queue.c.obj
                0x0002c428                queue_push
 .text.queue_pop
                0x0002c46c       0x2c examples/enocean_switch/CMakeFiles/enocean_switch_nrf52832_xxAA_s132_6.0.0.dir/__/__/mesh/core/src/queue.c.obj
                0x0002c46c                queue_pop
 .text.queue_peek
                0x0002c498       0x14 examples/enocean_switch/CMakeFiles/enocean_switch_nrf52832_xxAA_s132_6.0.0.dir/__/__/mesh/core/src/queue.c.obj
                0x0002c498                queue_peek
 .text.sd_power_reset_reason_clr
                0x0002c4ac        0x4 examples/enocean_switch/CMakeFiles/enocean_switch_nrf52832_xxAA_s132_6.0.0.dir/__/__/mesh/core/src/hal.c.obj
 .text.sd_power_gpregret_set
                0x0002c4b0        0x4 examples/enocean_switch/CMakeFiles/enocean_switch_nrf52832_xxAA_s132_6.0.0.dir/__/__/mesh/core/src/hal.c.obj
 .text.hal_device_reset
                0x0002c4b4       0x38 examples/enocean_switch/CMakeFiles/enocean_switch_nrf52832_xxAA_s132_6.0.0.dir/__/__/mesh/core/src/hal.c.obj
                0x0002c4b4                hal_device_reset
 .text.hal_lfclk_ppm_get
                0x0002c4ec       0x14 examples/enocean_switch/CMakeFiles/enocean_switch_nrf52832_xxAA_s132_6.0.0.dir/__/__/mesh/core/src/hal.c.obj
                0x0002c4ec                hal_lfclk_ppm_get
 .text.aes_cmac_subkey_generate
                0x0002c500      0x2b0 examples/enocean_switch/CMakeFiles/enocean_switch_nrf52832_xxAA_s132_6.0.0.dir/__/__/mesh/core/src/aes_cmac.c.obj
                0x0002c500                aes_cmac_subkey_generate
 .text.aes_cmac
                0x0002c7b0      0x49c examples/enocean_switch/CMakeFiles/enocean_switch_nrf52832_xxAA_s132_6.0.0.dir/__/__/mesh/core/src/aes_cmac.c.obj
                0x0002c7b0                aes_cmac
 .text.timer_cb
                0x0002cc4c        0xc examples/enocean_switch/CMakeFiles/enocean_switch_nrf52832_xxAA_s132_6.0.0.dir/__/__/mesh/core/src/timer_scheduler.c.obj
 .text.add_evt.constprop.1
                0x0002cc58       0x60 examples/enocean_switch/CMakeFiles/enocean_switch_nrf52832_xxAA_s132_6.0.0.dir/__/__/mesh/core/src/timer_scheduler.c.obj
 .text.flag_event_cb
                0x0002ccb8      0x328 examples/enocean_switch/CMakeFiles/enocean_switch_nrf52832_xxAA_s132_6.0.0.dir/__/__/mesh/core/src/timer_scheduler.c.obj
 .text.timer_sch_init
                0x0002cfe0       0x24 examples/enocean_switch/CMakeFiles/enocean_switch_nrf52832_xxAA_s132_6.0.0.dir/__/__/mesh/core/src/timer_scheduler.c.obj
                0x0002cfe0                timer_sch_init
 .text.timer_sch_schedule
                0x0002d004       0x64 examples/enocean_switch/CMakeFiles/enocean_switch_nrf52832_xxAA_s132_6.0.0.dir/__/__/mesh/core/src/timer_scheduler.c.obj
                0x0002d004                timer_sch_schedule
 .text.timer_sch_abort
                0x0002d068       0x5c examples/enocean_switch/CMakeFiles/enocean_switch_nrf52832_xxAA_s132_6.0.0.dir/__/__/mesh/core/src/timer_scheduler.c.obj
                0x0002d068                timer_sch_abort
 .text.timer_sch_reschedule
                0x0002d0c4       0x88 examples/enocean_switch/CMakeFiles/enocean_switch_nrf52832_xxAA_s132_6.0.0.dir/__/__/mesh/core/src/timer_scheduler.c.obj
                0x0002d0c4                timer_sch_reschedule
 .text.timer_event_handler
                0x0002d14c       0xd0 examples/enocean_switch/CMakeFiles/enocean_switch_nrf52832_xxAA_s132_6.0.0.dir/__/__/mesh/core/src/timer.c.obj
                0x0002d14c                timer_event_handler
 .text.timer_order_cb
                0x0002d21c       0x98 examples/enocean_switch/CMakeFiles/enocean_switch_nrf52832_xxAA_s132_6.0.0.dir/__/__/mesh/core/src/timer.c.obj
                0x0002d21c                timer_order_cb
 .text.timer_now
                0x0002d2b4       0x58 examples/enocean_switch/CMakeFiles/enocean_switch_nrf52832_xxAA_s132_6.0.0.dir/__/__/mesh/core/src/timer.c.obj
                0x0002d2b4                timer_now
 .text.timer_on_ts_begin
                0x0002d30c      0x104 examples/enocean_switch/CMakeFiles/enocean_switch_nrf52832_xxAA_s132_6.0.0.dir/__/__/mesh/core/src/timer.c.obj
                0x0002d30c                timer_on_ts_begin
 .text.timer_on_ts_end
                0x0002d410       0x78 examples/enocean_switch/CMakeFiles/enocean_switch_nrf52832_xxAA_s132_6.0.0.dir/__/__/mesh/core/src/timer.c.obj
                0x0002d410                timer_on_ts_end
 .text.timer_cb
                0x0002d488       0x10 examples/enocean_switch/CMakeFiles/enocean_switch_nrf52832_xxAA_s132_6.0.0.dir/__/__/mesh/core/src/ticker.c.obj
 .text.ticker_init
                0x0002d498       0x3c examples/enocean_switch/CMakeFiles/enocean_switch_nrf52832_xxAA_s132_6.0.0.dir/__/__/mesh/core/src/ticker.c.obj
                0x0002d498                ticker_init
 .text.sd_rand_application_bytes_available_get
                0x0002d4d4        0x4 examples/enocean_switch/CMakeFiles/enocean_switch_nrf52832_xxAA_s132_6.0.0.dir/__/__/mesh/core/src/rand.c.obj
 .text.sd_rand_application_vector_get
                0x0002d4d8        0x4 examples/enocean_switch/CMakeFiles/enocean_switch_nrf52832_xxAA_s132_6.0.0.dir/__/__/mesh/core/src/rand.c.obj
 .text.rand_prng_seed
                0x0002d4dc       0x6c examples/enocean_switch/CMakeFiles/enocean_switch_nrf52832_xxAA_s132_6.0.0.dir/__/__/mesh/core/src/rand.c.obj
                0x0002d4dc                rand_prng_seed
 .text.rand_prng_get
                0x0002d548       0x28 examples/enocean_switch/CMakeFiles/enocean_switch_nrf52832_xxAA_s132_6.0.0.dir/__/__/mesh/core/src/rand.c.obj
                0x0002d548                rand_prng_get
 .text.rand_hw_rng_get
                0x0002d570       0x4c examples/enocean_switch/CMakeFiles/enocean_switch_nrf52832_xxAA_s132_6.0.0.dir/__/__/mesh/core/src/rand.c.obj
                0x0002d570                rand_hw_rng_get
 .text.nrf_mesh_opt_set
                0x0002d5bc       0x28 examples/enocean_switch/CMakeFiles/enocean_switch_nrf52832_xxAA_s132_6.0.0.dir/__/__/mesh/core/src/nrf_mesh_opt.c.obj
                0x0002d5bc                nrf_mesh_opt_set
 .text.nrf_mesh_opt_get
                0x0002d5e4       0x28 examples/enocean_switch/CMakeFiles/enocean_switch_nrf52832_xxAA_s132_6.0.0.dir/__/__/mesh/core/src/nrf_mesh_opt.c.obj
                0x0002d5e4                nrf_mesh_opt_get
 .text.sd_radio_session_open
                0x0002d60c        0x4 examples/enocean_switch/CMakeFiles/enocean_switch_nrf52832_xxAA_s132_6.0.0.dir/__/__/mesh/core/src/timeslot.c.obj
 .text.sd_radio_session_close
                0x0002d610        0x4 examples/enocean_switch/CMakeFiles/enocean_switch_nrf52832_xxAA_s132_6.0.0.dir/__/__/mesh/core/src/timeslot.c.obj
 .text.sd_radio_request
                0x0002d614        0x4 examples/enocean_switch/CMakeFiles/enocean_switch_nrf52832_xxAA_s132_6.0.0.dir/__/__/mesh/core/src/timeslot.c.obj
 .text.end_timer_handler
                0x0002d618       0x2c examples/enocean_switch/CMakeFiles/enocean_switch_nrf52832_xxAA_s132_6.0.0.dir/__/__/mesh/core/src/timeslot.c.obj
 .text.radio_signal_callback
                0x0002d644      0x2e4 examples/enocean_switch/CMakeFiles/enocean_switch_nrf52832_xxAA_s132_6.0.0.dir/__/__/mesh/core/src/timeslot.c.obj
 .text.timeslot_sd_event_handler
                0x0002d928       0x44 examples/enocean_switch/CMakeFiles/enocean_switch_nrf52832_xxAA_s132_6.0.0.dir/__/__/mesh/core/src/timeslot.c.obj
                0x0002d928                timeslot_sd_event_handler
 .text.timeslot_init
                0x0002d96c       0x4c examples/enocean_switch/CMakeFiles/enocean_switch_nrf52832_xxAA_s132_6.0.0.dir/__/__/mesh/core/src/timeslot.c.obj
                0x0002d96c                timeslot_init
 .text.timeslot_start
                0x0002d9b8       0x20 examples/enocean_switch/CMakeFiles/enocean_switch_nrf52832_xxAA_s132_6.0.0.dir/__/__/mesh/core/src/timeslot.c.obj
                0x0002d9b8                timeslot_start
 .text.timeslot_stop
                0x0002d9d8       0x30 examples/enocean_switch/CMakeFiles/enocean_switch_nrf52832_xxAA_s132_6.0.0.dir/__/__/mesh/core/src/timeslot.c.obj
                0x0002d9d8                timeslot_stop
 .text.timeslot_state_lock
                0x0002da08       0x44 examples/enocean_switch/CMakeFiles/enocean_switch_nrf52832_xxAA_s132_6.0.0.dir/__/__/mesh/core/src/timeslot.c.obj
                0x0002da08                timeslot_state_lock
 .text.timeslot_end_is_pending
                0x0002da4c       0x24 examples/enocean_switch/CMakeFiles/enocean_switch_nrf52832_xxAA_s132_6.0.0.dir/__/__/mesh/core/src/timeslot.c.obj
                0x0002da4c                timeslot_end_is_pending
 .text.timeslot_start_time_get
                0x0002da70        0xc examples/enocean_switch/CMakeFiles/enocean_switch_nrf52832_xxAA_s132_6.0.0.dir/__/__/mesh/core/src/timeslot.c.obj
                0x0002da70                timeslot_start_time_get
 .text.timeslot_remaining_time_get
                0x0002da7c       0x40 examples/enocean_switch/CMakeFiles/enocean_switch_nrf52832_xxAA_s132_6.0.0.dir/__/__/mesh/core/src/timeslot.c.obj
                0x0002da7c                timeslot_remaining_time_get
 .text.timeslot_is_in_cb
                0x0002dabc        0xc examples/enocean_switch/CMakeFiles/enocean_switch_nrf52832_xxAA_s132_6.0.0.dir/__/__/mesh/core/src/timeslot.c.obj
                0x0002dabc                timeslot_is_in_cb
 .text.timeslot_trigger
                0x0002dac8       0x24 examples/enocean_switch/CMakeFiles/enocean_switch_nrf52832_xxAA_s132_6.0.0.dir/__/__/mesh/core/src/timeslot.c.obj
                0x0002dac8                timeslot_trigger
 .text.bearer_event_init
                0x0002daec       0x4c examples/enocean_switch/CMakeFiles/enocean_switch_nrf52832_xxAA_s132_6.0.0.dir/__/__/mesh/core/src/bearer_event.c.obj
                0x0002daec                bearer_event_init
 .text.bearer_event_timer_post
                0x0002db38       0x50 examples/enocean_switch/CMakeFiles/enocean_switch_nrf52832_xxAA_s132_6.0.0.dir/__/__/mesh/core/src/bearer_event.c.obj
                0x0002db38                bearer_event_timer_post
 .text.bearer_event_critical_section_begin
                0x0002db88       0x44 examples/enocean_switch/CMakeFiles/enocean_switch_nrf52832_xxAA_s132_6.0.0.dir/__/__/mesh/core/src/bearer_event.c.obj
                0x0002db88                bearer_event_critical_section_begin
 .text.bearer_event_critical_section_end
                0x0002dbcc       0x40 examples/enocean_switch/CMakeFiles/enocean_switch_nrf52832_xxAA_s132_6.0.0.dir/__/__/mesh/core/src/bearer_event.c.obj
                0x0002dbcc                bearer_event_critical_section_end
 .text.bearer_event_flag_add
                0x0002dc0c       0x40 examples/enocean_switch/CMakeFiles/enocean_switch_nrf52832_xxAA_s132_6.0.0.dir/__/__/mesh/core/src/bearer_event.c.obj
                0x0002dc0c                bearer_event_flag_add
 .text.bearer_event_flag_set
                0x0002dc4c       0x5c examples/enocean_switch/CMakeFiles/enocean_switch_nrf52832_xxAA_s132_6.0.0.dir/__/__/mesh/core/src/bearer_event.c.obj
                0x0002dc4c                bearer_event_flag_set
 .text.bearer_event_sequential_add
                0x0002dca8       0x44 examples/enocean_switch/CMakeFiles/enocean_switch_nrf52832_xxAA_s132_6.0.0.dir/__/__/mesh/core/src/bearer_event.c.obj
                0x0002dca8                bearer_event_sequential_add
 .text.bearer_event_sequential_post
                0x0002dcec       0x64 examples/enocean_switch/CMakeFiles/enocean_switch_nrf52832_xxAA_s132_6.0.0.dir/__/__/mesh/core/src/bearer_event.c.obj
                0x0002dcec                bearer_event_sequential_post
 .text.bearer_event_sequential_pending
                0x0002dd50       0x14 examples/enocean_switch/CMakeFiles/enocean_switch_nrf52832_xxAA_s132_6.0.0.dir/__/__/mesh/core/src/bearer_event.c.obj
                0x0002dd50                bearer_event_sequential_pending
 .text.bearer_event_handler
                0x0002dd64      0x154 examples/enocean_switch/CMakeFiles/enocean_switch_nrf52832_xxAA_s132_6.0.0.dir/__/__/mesh/core/src/bearer_event.c.obj
                0x0002dd64                bearer_event_handler
 .text.QDEC_IRQHandler
                0x0002deb8        0x4 examples/enocean_switch/CMakeFiles/enocean_switch_nrf52832_xxAA_s132_6.0.0.dir/__/__/mesh/core/src/bearer_event.c.obj
                0x0002deb8                QDEC_IRQHandler
 .text.enc_aes_encrypt
                0x0002debc        0x4 examples/enocean_switch/CMakeFiles/enocean_switch_nrf52832_xxAA_s132_6.0.0.dir/__/__/mesh/core/src/enc.c.obj
                0x0002debc                enc_aes_encrypt
 .text.enc_aes_cmac
                0x0002dec0        0x4 examples/enocean_switch/CMakeFiles/enocean_switch_nrf52832_xxAA_s132_6.0.0.dir/__/__/mesh/core/src/enc.c.obj
                0x0002dec0                enc_aes_cmac
 .text.enc_aes_ccm_encrypt
                0x0002dec4        0x4 examples/enocean_switch/CMakeFiles/enocean_switch_nrf52832_xxAA_s132_6.0.0.dir/__/__/mesh/core/src/enc.c.obj
                0x0002dec4                enc_aes_ccm_encrypt
 .text.enc_aes_ccm_decrypt
                0x0002dec8        0x4 examples/enocean_switch/CMakeFiles/enocean_switch_nrf52832_xxAA_s132_6.0.0.dir/__/__/mesh/core/src/enc.c.obj
                0x0002dec8                enc_aes_ccm_decrypt
 .text.enc_nonce_generate
                0x0002decc       0xc8 examples/enocean_switch/CMakeFiles/enocean_switch_nrf52832_xxAA_s132_6.0.0.dir/__/__/mesh/core/src/enc.c.obj
                0x0002decc                enc_nonce_generate
 .text.enc_s1   0x0002df94       0x30 examples/enocean_switch/CMakeFiles/enocean_switch_nrf52832_xxAA_s132_6.0.0.dir/__/__/mesh/core/src/enc.c.obj
                0x0002df94                enc_s1
 .text.enc_k1   0x0002dfc4       0x44 examples/enocean_switch/CMakeFiles/enocean_switch_nrf52832_xxAA_s132_6.0.0.dir/__/__/mesh/core/src/enc.c.obj
                0x0002dfc4                enc_k1
 .text.enc_k2   0x0002e008       0xe0 examples/enocean_switch/CMakeFiles/enocean_switch_nrf52832_xxAA_s132_6.0.0.dir/__/__/mesh/core/src/enc.c.obj
                0x0002e008                enc_k2
 .text.enc_k3   0x0002e0e8       0x68 examples/enocean_switch/CMakeFiles/enocean_switch_nrf52832_xxAA_s132_6.0.0.dir/__/__/mesh/core/src/enc.c.obj
                0x0002e0e8                enc_k3
 .text.enc_k4   0x0002e150       0x60 examples/enocean_switch/CMakeFiles/enocean_switch_nrf52832_xxAA_s132_6.0.0.dir/__/__/mesh/core/src/enc.c.obj
                0x0002e150                enc_k4
 .text.network_init
                0x0002e1b0       0x28 examples/enocean_switch/CMakeFiles/enocean_switch_nrf52832_xxAA_s132_6.0.0.dir/__/__/mesh/core/src/network.c.obj
                0x0002e1b0                network_init
 .text.network_opt_set
                0x0002e1d8       0x84 examples/enocean_switch/CMakeFiles/enocean_switch_nrf52832_xxAA_s132_6.0.0.dir/__/__/mesh/core/src/network.c.obj
                0x0002e1d8                network_opt_set
 .text.network_opt_get
                0x0002e25c       0x5c examples/enocean_switch/CMakeFiles/enocean_switch_nrf52832_xxAA_s132_6.0.0.dir/__/__/mesh/core/src/network.c.obj
                0x0002e25c                network_opt_get
 .text.network_packet_alloc
                0x0002e2b8       0x98 examples/enocean_switch/CMakeFiles/enocean_switch_nrf52832_xxAA_s132_6.0.0.dir/__/__/mesh/core/src/network.c.obj
                0x0002e2b8                network_packet_alloc
 .text.network_packet_send
                0x0002e350       0x50 examples/enocean_switch/CMakeFiles/enocean_switch_nrf52832_xxAA_s132_6.0.0.dir/__/__/mesh/core/src/network.c.obj
                0x0002e350                network_packet_send
 .text.network_packet_in
                0x0002e3a0      0x1c4 examples/enocean_switch/CMakeFiles/enocean_switch_nrf52832_xxAA_s132_6.0.0.dir/__/__/mesh/core/src/network.c.obj
                0x0002e3a0                network_packet_in
 .text.net_packet_decrypt
                0x0002e564      0x2dc examples/enocean_switch/CMakeFiles/enocean_switch_nrf52832_xxAA_s132_6.0.0.dir/__/__/mesh/core/src/net_packet.c.obj
                0x0002e564                net_packet_decrypt
 .text.net_packet_encrypt
                0x0002e840      0x100 examples/enocean_switch/CMakeFiles/enocean_switch_nrf52832_xxAA_s132_6.0.0.dir/__/__/mesh/core/src/net_packet.c.obj
                0x0002e840                net_packet_encrypt
 .text.net_packet_header_set
                0x0002e940       0xc0 examples/enocean_switch/CMakeFiles/enocean_switch_nrf52832_xxAA_s132_6.0.0.dir/__/__/mesh/core/src/net_packet.c.obj
                0x0002e940                net_packet_header_set
 .text.net_packet_payload_len_get
                0x0002ea00       0x14 examples/enocean_switch/CMakeFiles/enocean_switch_nrf52832_xxAA_s132_6.0.0.dir/__/__/mesh/core/src/net_packet.c.obj
                0x0002ea00                net_packet_payload_len_get
 .text.net_packet_from_payload
                0x0002ea14        0x4 examples/enocean_switch/CMakeFiles/enocean_switch_nrf52832_xxAA_s132_6.0.0.dir/__/__/mesh/core/src/net_packet.c.obj
                0x0002ea14                net_packet_from_payload
 .text.net_packet_obfuscation_start_get
                0x0002ea18        0x4 examples/enocean_switch/CMakeFiles/enocean_switch_nrf52832_xxAA_s132_6.0.0.dir/__/__/mesh/core/src/net_packet.c.obj
                0x0002ea18                net_packet_obfuscation_start_get
 .text.msq_init
                0x0002ea1c       0x64 examples/enocean_switch/CMakeFiles/enocean_switch_nrf52832_xxAA_s132_6.0.0.dir/__/__/mesh/core/src/msqueue.c.obj
                0x0002ea1c                msq_init
 .text.msq_get  0x0002ea80       0x54 examples/enocean_switch/CMakeFiles/enocean_switch_nrf52832_xxAA_s132_6.0.0.dir/__/__/mesh/core/src/msqueue.c.obj
                0x0002ea80                msq_get
 .text.msq_move
                0x0002ead4       0x4c examples/enocean_switch/CMakeFiles/enocean_switch_nrf52832_xxAA_s132_6.0.0.dir/__/__/mesh/core/src/msqueue.c.obj
                0x0002ead4                msq_move
 .text.msq_available
                0x0002eb20       0x44 examples/enocean_switch/CMakeFiles/enocean_switch_nrf52832_xxAA_s132_6.0.0.dir/__/__/mesh/core/src/msqueue.c.obj
                0x0002eb20                msq_available
 .text.nrf_mesh_keygen_aid
                0x0002eb64       0x18 examples/enocean_switch/CMakeFiles/enocean_switch_nrf52832_xxAA_s132_6.0.0.dir/__/__/mesh/core/src/nrf_mesh_keygen.c.obj
                0x0002eb64                nrf_mesh_keygen_aid
 .text.nrf_mesh_keygen_network_secmat
                0x0002eb7c       0x24 examples/enocean_switch/CMakeFiles/enocean_switch_nrf52832_xxAA_s132_6.0.0.dir/__/__/mesh/core/src/nrf_mesh_keygen.c.obj
                0x0002eb7c                nrf_mesh_keygen_network_secmat
 .text.nrf_mesh_keygen_beacon_secmat
                0x0002eba0       0x50 examples/enocean_switch/CMakeFiles/enocean_switch_nrf52832_xxAA_s132_6.0.0.dir/__/__/mesh/core/src/nrf_mesh_keygen.c.obj
                0x0002eba0                nrf_mesh_keygen_beacon_secmat
 .text.nrf_mesh_keygen_virtual_address
                0x0002ebf0       0x50 examples/enocean_switch/CMakeFiles/enocean_switch_nrf52832_xxAA_s132_6.0.0.dir/__/__/mesh/core/src/nrf_mesh_keygen.c.obj
                0x0002ebf0                nrf_mesh_keygen_virtual_address
 .text.list_add
                0x0002ec40       0x5c examples/enocean_switch/CMakeFiles/enocean_switch_nrf52832_xxAA_s132_6.0.0.dir/__/__/mesh/core/src/list.c.obj
                0x0002ec40                list_add
 .text.list_remove
                0x0002ec9c       0x44 examples/enocean_switch/CMakeFiles/enocean_switch_nrf52832_xxAA_s132_6.0.0.dir/__/__/mesh/core/src/list.c.obj
                0x0002ec9c                list_remove
 .text.list_compare_add
                0x0002ece0       0x78 examples/enocean_switch/CMakeFiles/enocean_switch_nrf52832_xxAA_s132_6.0.0.dir/__/__/mesh/core/src/list.c.obj
                0x0002ece0                list_compare_add
 .text.log_callback_rtt
                0x0002ed58       0x2c examples/enocean_switch/CMakeFiles/enocean_switch_nrf52832_xxAA_s132_6.0.0.dir/__/__/mesh/core/src/log.c.obj
                0x0002ed58                log_callback_rtt
 .text.log_init
                0x0002ed84       0x20 examples/enocean_switch/CMakeFiles/enocean_switch_nrf52832_xxAA_s132_6.0.0.dir/__/__/mesh/core/src/log.c.obj
                0x0002ed84                log_init
 .text.log_printf
                0x0002eda4       0x20 examples/enocean_switch/CMakeFiles/enocean_switch_nrf52832_xxAA_s132_6.0.0.dir/__/__/mesh/core/src/log.c.obj
                0x0002eda4                log_printf
 .text.process_action_queue
                0x0002edc4      0x644 examples/enocean_switch/CMakeFiles/enocean_switch_nrf52832_xxAA_s132_6.0.0.dir/__/__/mesh/core/src/flash_manager.c.obj
 .text.flash_op_ended_callback
                0x0002f408       0x24 examples/enocean_switch/CMakeFiles/enocean_switch_nrf52832_xxAA_s132_6.0.0.dir/__/__/mesh/core/src/flash_manager.c.obj
 .text.flash_manager_init
                0x0002f42c       0x68 examples/enocean_switch/CMakeFiles/enocean_switch_nrf52832_xxAA_s132_6.0.0.dir/__/__/mesh/core/src/flash_manager.c.obj
                0x0002f42c                flash_manager_init
 .text.flash_manager_remove
                0x0002f494       0x6c examples/enocean_switch/CMakeFiles/enocean_switch_nrf52832_xxAA_s132_6.0.0.dir/__/__/mesh/core/src/flash_manager.c.obj
                0x0002f494                flash_manager_remove
 .text.flash_manager_entry_get
                0x0002f500       0x48 examples/enocean_switch/CMakeFiles/enocean_switch_nrf52832_xxAA_s132_6.0.0.dir/__/__/mesh/core/src/flash_manager.c.obj
                0x0002f500                flash_manager_entry_get
 .text.flash_manager_entry_next_get
                0x0002f548      0x148 examples/enocean_switch/CMakeFiles/enocean_switch_nrf52832_xxAA_s132_6.0.0.dir/__/__/mesh/core/src/flash_manager.c.obj
                0x0002f548                flash_manager_entry_next_get
 .text.flash_manager_entry_alloc
                0x0002f690       0x88 examples/enocean_switch/CMakeFiles/enocean_switch_nrf52832_xxAA_s132_6.0.0.dir/__/__/mesh/core/src/flash_manager.c.obj
                0x0002f690                flash_manager_entry_alloc
 .text.flash_manager_entry_commit
                0x0002f718       0x58 examples/enocean_switch/CMakeFiles/enocean_switch_nrf52832_xxAA_s132_6.0.0.dir/__/__/mesh/core/src/flash_manager.c.obj
                0x0002f718                flash_manager_entry_commit
 .text.flash_manager_entry_invalidate
                0x0002f770       0x98 examples/enocean_switch/CMakeFiles/enocean_switch_nrf52832_xxAA_s132_6.0.0.dir/__/__/mesh/core/src/flash_manager.c.obj
                0x0002f770                flash_manager_entry_invalidate
 .text.flash_manager_add
                0x0002f808      0x410 examples/enocean_switch/CMakeFiles/enocean_switch_nrf52832_xxAA_s132_6.0.0.dir/__/__/mesh/core/src/flash_manager.c.obj
                0x0002f808                flash_manager_add
 .text.flash_manager_mem_listener_register
                0x0002fc18       0x34 examples/enocean_switch/CMakeFiles/enocean_switch_nrf52832_xxAA_s132_6.0.0.dir/__/__/mesh/core/src/flash_manager.c.obj
                0x0002fc18                flash_manager_mem_listener_register
 .text.flash_manager_is_stable
                0x0002fc4c       0x20 examples/enocean_switch/CMakeFiles/enocean_switch_nrf52832_xxAA_s132_6.0.0.dir/__/__/mesh/core/src/flash_manager.c.obj
                0x0002fc4c                flash_manager_is_stable
 .text.flash_manager_on_defrag_end
                0x0002fc6c       0x58 examples/enocean_switch/CMakeFiles/enocean_switch_nrf52832_xxAA_s132_6.0.0.dir/__/__/mesh/core/src/flash_manager.c.obj
                0x0002fc6c                flash_manager_on_defrag_end
 .text.flash_manager_recovery_page_get
                0x0002fcc4        0x4 examples/enocean_switch/CMakeFiles/enocean_switch_nrf52832_xxAA_s132_6.0.0.dir/__/__/mesh/core/src/flash_manager.c.obj
                0x0002fcc4                flash_manager_recovery_page_get
 .text.flash_manager_action_queue_empty_cb_set
                0x0002fcc8       0x20 examples/enocean_switch/CMakeFiles/enocean_switch_nrf52832_xxAA_s132_6.0.0.dir/__/__/mesh/core/src/flash_manager.c.obj
                0x0002fcc8                flash_manager_action_queue_empty_cb_set
 .text.ccm_soft_crypt.constprop.0
                0x0002fce8      0x298 examples/enocean_switch/CMakeFiles/enocean_switch_nrf52832_xxAA_s132_6.0.0.dir/__/__/mesh/core/src/ccm_soft.c.obj
 .text.ccm_soft_authenticate
                0x0002ff80      0x324 examples/enocean_switch/CMakeFiles/enocean_switch_nrf52832_xxAA_s132_6.0.0.dir/__/__/mesh/core/src/ccm_soft.c.obj
 .text.ccm_soft_encrypt
                0x000302a4       0x78 examples/enocean_switch/CMakeFiles/enocean_switch_nrf52832_xxAA_s132_6.0.0.dir/__/__/mesh/core/src/ccm_soft.c.obj
                0x000302a4                ccm_soft_encrypt
 .text.ccm_soft_decrypt
                0x0003031c      0x10c examples/enocean_switch/CMakeFiles/enocean_switch_nrf52832_xxAA_s132_6.0.0.dir/__/__/mesh/core/src/ccm_soft.c.obj
                0x0003031c                ccm_soft_decrypt
 .text.replay_cache_init
                0x00030428       0x20 examples/enocean_switch/CMakeFiles/enocean_switch_nrf52832_xxAA_s132_6.0.0.dir/__/__/mesh/core/src/replay_cache.c.obj
                0x00030428                replay_cache_init
 .text.replay_cache_add
                0x00030448       0x5c examples/enocean_switch/CMakeFiles/enocean_switch_nrf52832_xxAA_s132_6.0.0.dir/__/__/mesh/core/src/replay_cache.c.obj
                0x00030448                replay_cache_add
 .text.replay_cache_has_elem
                0x000304a4       0x40 examples/enocean_switch/CMakeFiles/enocean_switch_nrf52832_xxAA_s132_6.0.0.dir/__/__/mesh/core/src/replay_cache.c.obj
                0x000304a4                replay_cache_has_elem
 .text.beacon_create
                0x000304e4       0x50 examples/enocean_switch/CMakeFiles/enocean_switch_nrf52832_xxAA_s132_6.0.0.dir/__/__/mesh/core/src/beacon.c.obj
                0x000304e4                beacon_create
 .text.beacon_packet_in
                0x00030534      0x174 examples/enocean_switch/CMakeFiles/enocean_switch_nrf52832_xxAA_s132_6.0.0.dir/__/__/mesh/core/src/beacon.c.obj
                0x00030534                beacon_packet_in
 .text.entry_get
                0x000306a8       0x80 examples/enocean_switch/CMakeFiles/enocean_switch_nrf52832_xxAA_s132_6.0.0.dir/__/__/mesh/core/src/flash_manager_internal.c.obj
                0x000306a8                entry_get
 .text.core_tx_complete_cb_set
                0x00030728        0xc examples/enocean_switch/CMakeFiles/enocean_switch_nrf52832_xxAA_s132_6.0.0.dir/__/__/mesh/core/src/core_tx.c.obj
                0x00030728                core_tx_complete_cb_set
 .text.core_tx_packet_alloc
                0x00030734       0xb4 examples/enocean_switch/CMakeFiles/enocean_switch_nrf52832_xxAA_s132_6.0.0.dir/__/__/mesh/core/src/core_tx.c.obj
                0x00030734                core_tx_packet_alloc
 .text.core_tx_packet_send
                0x000307e8       0x58 examples/enocean_switch/CMakeFiles/enocean_switch_nrf52832_xxAA_s132_6.0.0.dir/__/__/mesh/core/src/core_tx.c.obj
                0x000307e8                core_tx_packet_send
 .text.core_tx_packet_discard
                0x00030840       0x4c examples/enocean_switch/CMakeFiles/enocean_switch_nrf52832_xxAA_s132_6.0.0.dir/__/__/mesh/core/src/core_tx.c.obj
                0x00030840                core_tx_packet_discard
 .text.core_tx_complete
                0x0003088c       0x38 examples/enocean_switch/CMakeFiles/enocean_switch_nrf52832_xxAA_s132_6.0.0.dir/__/__/mesh/core/src/core_tx.c.obj
                0x0003088c                core_tx_complete
 .text.core_tx_bearer_add
                0x000308c4       0x84 examples/enocean_switch/CMakeFiles/enocean_switch_nrf52832_xxAA_s132_6.0.0.dir/__/__/mesh/core/src/core_tx.c.obj
                0x000308c4                core_tx_bearer_add
 .text.heartbeat_subscription_timer_cb
                0x00030948       0x1c examples/enocean_switch/CMakeFiles/enocean_switch_nrf52832_xxAA_s132_6.0.0.dir/__/__/mesh/core/src/heartbeat.c.obj
 .text.heartbeat_opcode_handle
                0x00030964       0x8c examples/enocean_switch/CMakeFiles/enocean_switch_nrf52832_xxAA_s132_6.0.0.dir/__/__/mesh/core/src/heartbeat.c.obj
 .text.heartbeat_send
                0x000309f0       0xbc examples/enocean_switch/CMakeFiles/enocean_switch_nrf52832_xxAA_s132_6.0.0.dir/__/__/mesh/core/src/heartbeat.c.obj
 .text.heartbeat_core_evt_cb
                0x00030aac       0x94 examples/enocean_switch/CMakeFiles/enocean_switch_nrf52832_xxAA_s132_6.0.0.dir/__/__/mesh/core/src/heartbeat.c.obj
 .text.heartbeat_publication_timer_cb
                0x00030b40       0xb0 examples/enocean_switch/CMakeFiles/enocean_switch_nrf52832_xxAA_s132_6.0.0.dir/__/__/mesh/core/src/heartbeat.c.obj
 .text.heartbeat_on_feature_change_trigger
                0x00030bf0       0x48 examples/enocean_switch/CMakeFiles/enocean_switch_nrf52832_xxAA_s132_6.0.0.dir/__/__/mesh/core/src/heartbeat.c.obj
                0x00030bf0                heartbeat_on_feature_change_trigger
 .text.heartbeat_init
                0x00030c38       0x7c examples/enocean_switch/CMakeFiles/enocean_switch_nrf52832_xxAA_s132_6.0.0.dir/__/__/mesh/core/src/heartbeat.c.obj
                0x00030c38                heartbeat_init
 .text.heartbeat_subscription_set
                0x00030cb4       0xa4 examples/enocean_switch/CMakeFiles/enocean_switch_nrf52832_xxAA_s132_6.0.0.dir/__/__/mesh/core/src/heartbeat.c.obj
                0x00030cb4                heartbeat_subscription_set
 .text.heartbeat_subscription_get
                0x00030d58        0x8 examples/enocean_switch/CMakeFiles/enocean_switch_nrf52832_xxAA_s132_6.0.0.dir/__/__/mesh/core/src/heartbeat.c.obj
                0x00030d58                heartbeat_subscription_get
 .text.heartbeat_config_server_cb_set
                0x00030d60       0x38 examples/enocean_switch/CMakeFiles/enocean_switch_nrf52832_xxAA_s132_6.0.0.dir/__/__/mesh/core/src/heartbeat.c.obj
                0x00030d60                heartbeat_config_server_cb_set
 .text.heartbeat_publication_state_updated
                0x00030d98       0x78 examples/enocean_switch/CMakeFiles/enocean_switch_nrf52832_xxAA_s132_6.0.0.dir/__/__/mesh/core/src/heartbeat.c.obj
                0x00030d98                heartbeat_publication_state_updated
 .text.beacon_tx
                0x00030e10      0x194 examples/enocean_switch/CMakeFiles/enocean_switch_nrf52832_xxAA_s132_6.0.0.dir/__/__/mesh/core/src/net_beacon.c.obj
 .text.tx_complete_cb
                0x00030fa4       0x10 examples/enocean_switch/CMakeFiles/enocean_switch_nrf52832_xxAA_s132_6.0.0.dir/__/__/mesh/core/src/net_beacon.c.obj
 .text.beacon_tx_timeout
                0x00030fb4        0x4 examples/enocean_switch/CMakeFiles/enocean_switch_nrf52832_xxAA_s132_6.0.0.dir/__/__/mesh/core/src/net_beacon.c.obj
 .text.net_beacon_init
                0x00030fb8       0x94 examples/enocean_switch/CMakeFiles/enocean_switch_nrf52832_xxAA_s132_6.0.0.dir/__/__/mesh/core/src/net_beacon.c.obj
                0x00030fb8                net_beacon_init
 .text.net_beacon_state_set
                0x0003104c       0x3c examples/enocean_switch/CMakeFiles/enocean_switch_nrf52832_xxAA_s132_6.0.0.dir/__/__/mesh/core/src/net_beacon.c.obj
                0x0003104c                net_beacon_state_set
 .text.net_beacon_state_get
                0x00031088        0xc examples/enocean_switch/CMakeFiles/enocean_switch_nrf52832_xxAA_s132_6.0.0.dir/__/__/mesh/core/src/net_beacon.c.obj
                0x00031088                net_beacon_state_get
 .text.net_beacon_packet_in
                0x00031094      0x14c examples/enocean_switch/CMakeFiles/enocean_switch_nrf52832_xxAA_s132_6.0.0.dir/__/__/mesh/core/src/net_beacon.c.obj
                0x00031094                net_beacon_packet_in
 .text.packet_discard
                0x000311e0       0x40 examples/enocean_switch/CMakeFiles/enocean_switch_nrf52832_xxAA_s132_6.0.0.dir/__/__/mesh/core/src/core_tx_adv.c.obj
 .text.packet_send
                0x00031220       0x58 examples/enocean_switch/CMakeFiles/enocean_switch_nrf52832_xxAA_s132_6.0.0.dir/__/__/mesh/core/src/core_tx_adv.c.obj
 .text.packet_alloc
                0x00031278       0x5c examples/enocean_switch/CMakeFiles/enocean_switch_nrf52832_xxAA_s132_6.0.0.dir/__/__/mesh/core/src/core_tx_adv.c.obj
 .text.adv_tx_complete_callback
                0x000312d4       0x28 examples/enocean_switch/CMakeFiles/enocean_switch_nrf52832_xxAA_s132_6.0.0.dir/__/__/mesh/core/src/core_tx_adv.c.obj
 .text.core_tx_adv_init
                0x000312fc       0x60 examples/enocean_switch/CMakeFiles/enocean_switch_nrf52832_xxAA_s132_6.0.0.dir/__/__/mesh/core/src/core_tx_adv.c.obj
                0x000312fc                core_tx_adv_init
 .text.core_tx_adv_count_set
                0x0003135c       0x28 examples/enocean_switch/CMakeFiles/enocean_switch_nrf52832_xxAA_s132_6.0.0.dir/__/__/mesh/core/src/core_tx_adv.c.obj
                0x0003135c                core_tx_adv_count_set
 .text.core_tx_adv_count_get
                0x00031384       0x20 examples/enocean_switch/CMakeFiles/enocean_switch_nrf52832_xxAA_s132_6.0.0.dir/__/__/mesh/core/src/core_tx_adv.c.obj
                0x00031384                core_tx_adv_count_get
 .text.core_tx_adv_interval_set
                0x000313a4       0x28 examples/enocean_switch/CMakeFiles/enocean_switch_nrf52832_xxAA_s132_6.0.0.dir/__/__/mesh/core/src/core_tx_adv.c.obj
                0x000313a4                core_tx_adv_interval_set
 .text.core_tx_adv_interval_get
                0x000313cc       0x2c examples/enocean_switch/CMakeFiles/enocean_switch_nrf52832_xxAA_s132_6.0.0.dir/__/__/mesh/core/src/core_tx_adv.c.obj
                0x000313cc                core_tx_adv_interval_get
 .text.ad_listener_subscribe
                0x000313f8       0x60 examples/enocean_switch/CMakeFiles/enocean_switch_nrf52832_xxAA_s132_6.0.0.dir/__/__/mesh/bearer/src/ad_listener.c.obj
                0x000313f8                ad_listener_subscribe
 .text.ad_listener_process
                0x00031458       0x7c examples/enocean_switch/CMakeFiles/enocean_switch_nrf52832_xxAA_s132_6.0.0.dir/__/__/mesh/bearer/src/ad_listener.c.obj
                0x00031458                ad_listener_process
 .text.adtype_filter_handle
                0x000314d4       0x98 examples/enocean_switch/CMakeFiles/enocean_switch_nrf52832_xxAA_s132_6.0.0.dir/__/__/mesh/bearer/src/ad_type_filter.c.obj
 .text.bearer_adtype_filtering_set
                0x0003156c       0x1c examples/enocean_switch/CMakeFiles/enocean_switch_nrf52832_xxAA_s132_6.0.0.dir/__/__/mesh/bearer/src/ad_type_filter.c.obj
                0x0003156c                bearer_adtype_filtering_set
 .text.bearer_adtype_add
                0x00031588       0x24 examples/enocean_switch/CMakeFiles/enocean_switch_nrf52832_xxAA_s132_6.0.0.dir/__/__/mesh/bearer/src/ad_type_filter.c.obj
                0x00031588                bearer_adtype_add
 .text.bearer_adtype_mode_set
                0x000315ac       0x18 examples/enocean_switch/CMakeFiles/enocean_switch_nrf52832_xxAA_s132_6.0.0.dir/__/__/mesh/bearer/src/ad_type_filter.c.obj
                0x000315ac                bearer_adtype_mode_set
 .text.tx_complete_event_callback
                0x000315c4       0x2c examples/enocean_switch/CMakeFiles/enocean_switch_nrf52832_xxAA_s132_6.0.0.dir/__/__/mesh/bearer/src/advertiser.c.obj
 .text.broadcast_complete_cb
                0x000315f0       0x48 examples/enocean_switch/CMakeFiles/enocean_switch_nrf52832_xxAA_s132_6.0.0.dir/__/__/mesh/bearer/src/advertiser.c.obj
 .text.timeout_event
                0x00031638      0x120 examples/enocean_switch/CMakeFiles/enocean_switch_nrf52832_xxAA_s132_6.0.0.dir/__/__/mesh/bearer/src/advertiser.c.obj
 .text.advertiser_init
                0x00031758        0xc examples/enocean_switch/CMakeFiles/enocean_switch_nrf52832_xxAA_s132_6.0.0.dir/__/__/mesh/bearer/src/advertiser.c.obj
                0x00031758                advertiser_init
 .text.advertiser_instance_init
                0x00031764       0xfc examples/enocean_switch/CMakeFiles/enocean_switch_nrf52832_xxAA_s132_6.0.0.dir/__/__/mesh/bearer/src/advertiser.c.obj
                0x00031764                advertiser_instance_init
 .text.advertiser_enable
                0x00031860       0x44 examples/enocean_switch/CMakeFiles/enocean_switch_nrf52832_xxAA_s132_6.0.0.dir/__/__/mesh/bearer/src/advertiser.c.obj
                0x00031860                advertiser_enable
 .text.advertiser_packet_alloc
                0x000318a4       0x80 examples/enocean_switch/CMakeFiles/enocean_switch_nrf52832_xxAA_s132_6.0.0.dir/__/__/mesh/bearer/src/advertiser.c.obj
                0x000318a4                advertiser_packet_alloc
 .text.advertiser_packet_send
                0x00031924       0x80 examples/enocean_switch/CMakeFiles/enocean_switch_nrf52832_xxAA_s132_6.0.0.dir/__/__/mesh/bearer/src/advertiser.c.obj
                0x00031924                advertiser_packet_send
 .text.advertiser_packet_discard
                0x000319a4       0x2c examples/enocean_switch/CMakeFiles/enocean_switch_nrf52832_xxAA_s132_6.0.0.dir/__/__/mesh/bearer/src/advertiser.c.obj
                0x000319a4                advertiser_packet_discard
 .text.advertiser_interval_set
                0x000319d0       0x70 examples/enocean_switch/CMakeFiles/enocean_switch_nrf52832_xxAA_s132_6.0.0.dir/__/__/mesh/bearer/src/advertiser.c.obj
                0x000319d0                advertiser_interval_set
 .text.advertiser_flush
                0x00031a40       0x20 examples/enocean_switch/CMakeFiles/enocean_switch_nrf52832_xxAA_s132_6.0.0.dir/__/__/mesh/bearer/src/advertiser.c.obj
                0x00031a40                advertiser_flush
 .text.action_switch.part.2
                0x00031a60       0xb4 examples/enocean_switch/CMakeFiles/enocean_switch_nrf52832_xxAA_s132_6.0.0.dir/__/__/mesh/bearer/src/bearer_handler.c.obj
 .text.bearer_handler_init
                0x00031b14       0x2c examples/enocean_switch/CMakeFiles/enocean_switch_nrf52832_xxAA_s132_6.0.0.dir/__/__/mesh/bearer/src/bearer_handler.c.obj
                0x00031b14                bearer_handler_init
 .text.bearer_handler_start
                0x00031b40       0x1c examples/enocean_switch/CMakeFiles/enocean_switch_nrf52832_xxAA_s132_6.0.0.dir/__/__/mesh/bearer/src/bearer_handler.c.obj
                0x00031b40                bearer_handler_start
 .text.bearer_handler_action_enqueue
                0x00031b5c       0x7c examples/enocean_switch/CMakeFiles/enocean_switch_nrf52832_xxAA_s132_6.0.0.dir/__/__/mesh/bearer/src/bearer_handler.c.obj
                0x00031b5c                bearer_handler_action_enqueue
 .text.bearer_handler_action_end
                0x00031bd8       0x68 examples/enocean_switch/CMakeFiles/enocean_switch_nrf52832_xxAA_s132_6.0.0.dir/__/__/mesh/bearer/src/bearer_handler.c.obj
                0x00031bd8                bearer_handler_action_end
 .text.bearer_handler_radio_irq_handler
                0x00031c40       0x54 examples/enocean_switch/CMakeFiles/enocean_switch_nrf52832_xxAA_s132_6.0.0.dir/__/__/mesh/bearer/src/bearer_handler.c.obj
                0x00031c40                bearer_handler_radio_irq_handler
 .text.bearer_handler_timer_irq_handler
                0x00031c94       0x34 examples/enocean_switch/CMakeFiles/enocean_switch_nrf52832_xxAA_s132_6.0.0.dir/__/__/mesh/bearer/src/bearer_handler.c.obj
                0x00031c94                bearer_handler_timer_irq_handler
 .text.bearer_handler_on_ts_begin
                0x00031cc8       0x3c examples/enocean_switch/CMakeFiles/enocean_switch_nrf52832_xxAA_s132_6.0.0.dir/__/__/mesh/bearer/src/bearer_handler.c.obj
                0x00031cc8                bearer_handler_on_ts_begin
 .text.bearer_handler_on_ts_end
                0x00031d04       0x34 examples/enocean_switch/CMakeFiles/enocean_switch_nrf52832_xxAA_s132_6.0.0.dir/__/__/mesh/bearer/src/bearer_handler.c.obj
                0x00031d04                bearer_handler_on_ts_end
 .text.radio_irq_handler
                0x00031d38       0x98 examples/enocean_switch/CMakeFiles/enocean_switch_nrf52832_xxAA_s132_6.0.0.dir/__/__/mesh/bearer/src/broadcast.c.obj
 .text.broadcast_start
                0x00031dd0       0x8c examples/enocean_switch/CMakeFiles/enocean_switch_nrf52832_xxAA_s132_6.0.0.dir/__/__/mesh/bearer/src/broadcast.c.obj
 .text.broadcast_send
                0x00031e5c       0x74 examples/enocean_switch/CMakeFiles/enocean_switch_nrf52832_xxAA_s132_6.0.0.dir/__/__/mesh/bearer/src/broadcast.c.obj
                0x00031e5c                broadcast_send
 .text.fen_filter_start
                0x00031ed0       0x38 examples/enocean_switch/CMakeFiles/enocean_switch_nrf52832_xxAA_s132_6.0.0.dir/__/__/mesh/bearer/src/filter_engine.c.obj
                0x00031ed0                fen_filter_start
 .text.fen_filter_stop
                0x00031f08       0x2c examples/enocean_switch/CMakeFiles/enocean_switch_nrf52832_xxAA_s132_6.0.0.dir/__/__/mesh/bearer/src/filter_engine.c.obj
                0x00031f08                fen_filter_stop
 .text.fen_filters_apply
                0x00031f34       0x38 examples/enocean_switch/CMakeFiles/enocean_switch_nrf52832_xxAA_s132_6.0.0.dir/__/__/mesh/bearer/src/filter_engine.c.obj
                0x00031f34                fen_filters_apply
 .text.radio_config_reset
                0x00031f6c       0x38 examples/enocean_switch/CMakeFiles/enocean_switch_nrf52832_xxAA_s132_6.0.0.dir/__/__/mesh/bearer/src/radio_config.c.obj
                0x00031f6c                radio_config_reset
 .text.radio_config_channel_set
                0x00031fa4       0x28 examples/enocean_switch/CMakeFiles/enocean_switch_nrf52832_xxAA_s132_6.0.0.dir/__/__/mesh/bearer/src/radio_config.c.obj
                0x00031fa4                radio_config_channel_set
 .text.radio_config_config
                0x00031fcc       0x90 examples/enocean_switch/CMakeFiles/enocean_switch_nrf52832_xxAA_s132_6.0.0.dir/__/__/mesh/bearer/src/radio_config.c.obj
                0x00031fcc                radio_config_config
 .text.radio_config_access_addr_set
                0x0003205c       0x54 examples/enocean_switch/CMakeFiles/enocean_switch_nrf52832_xxAA_s132_6.0.0.dir/__/__/mesh/bearer/src/radio_config.c.obj
                0x0003205c                radio_config_access_addr_set
 .text.scan_window_end
                0x000320b0       0x28 examples/enocean_switch/CMakeFiles/enocean_switch_nrf52832_xxAA_s132_6.0.0.dir/__/__/mesh/bearer/src/scanner.c.obj
 .text.scan_window_start
                0x000320d8       0x38 examples/enocean_switch/CMakeFiles/enocean_switch_nrf52832_xxAA_s132_6.0.0.dir/__/__/mesh/bearer/src/scanner.c.obj
 .text.radio_start
                0x00032110      0x188 examples/enocean_switch/CMakeFiles/enocean_switch_nrf52832_xxAA_s132_6.0.0.dir/__/__/mesh/bearer/src/scanner.c.obj
 .text.scanner_radio_start
                0x00032298      0x14c examples/enocean_switch/CMakeFiles/enocean_switch_nrf52832_xxAA_s132_6.0.0.dir/__/__/mesh/bearer/src/scanner.c.obj
                0x00032298                scanner_radio_start
 .text.scanner_radio_stop
                0x000323e4       0x34 examples/enocean_switch/CMakeFiles/enocean_switch_nrf52832_xxAA_s132_6.0.0.dir/__/__/mesh/bearer/src/scanner.c.obj
                0x000323e4                scanner_radio_stop
 .text.scanner_radio_irq_handler
                0x00032418      0x204 examples/enocean_switch/CMakeFiles/enocean_switch_nrf52832_xxAA_s132_6.0.0.dir/__/__/mesh/bearer/src/scanner.c.obj
                0x00032418                scanner_radio_irq_handler
 .text.scanner_enable
                0x0003261c       0x54 examples/enocean_switch/CMakeFiles/enocean_switch_nrf52832_xxAA_s132_6.0.0.dir/__/__/mesh/bearer/src/scanner.c.obj
                0x0003261c                scanner_enable
 .text.scanner_rx
                0x00032670       0x78 examples/enocean_switch/CMakeFiles/enocean_switch_nrf52832_xxAA_s132_6.0.0.dir/__/__/mesh/bearer/src/scanner.c.obj
                0x00032670                scanner_rx
 .text.scanner_packet_release
                0x000326e8       0x40 examples/enocean_switch/CMakeFiles/enocean_switch_nrf52832_xxAA_s132_6.0.0.dir/__/__/mesh/bearer/src/scanner.c.obj
                0x000326e8                scanner_packet_release
 .text.scanner_rx_pending
                0x00032728        0xc examples/enocean_switch/CMakeFiles/enocean_switch_nrf52832_xxAA_s132_6.0.0.dir/__/__/mesh/bearer/src/scanner.c.obj
                0x00032728                scanner_rx_pending
 .text.scanner_config_reset
                0x00032734       0xa8 examples/enocean_switch/CMakeFiles/enocean_switch_nrf52832_xxAA_s132_6.0.0.dir/__/__/mesh/bearer/src/scanner.c.obj
                0x00032734                scanner_config_reset
 .text.scanner_init
                0x000327dc       0x54 examples/enocean_switch/CMakeFiles/enocean_switch_nrf52832_xxAA_s132_6.0.0.dir/__/__/mesh/bearer/src/scanner.c.obj
                0x000327dc                scanner_init
 .text.handle_publish_timeout
                0x00032830        0x8 examples/enocean_switch/CMakeFiles/enocean_switch_nrf52832_xxAA_s132_6.0.0.dir/__/__/models/simple_on_off/src/simple_on_off_client.c.obj
 .text.reliable_status_cb
                0x00032838       0x7c examples/enocean_switch/CMakeFiles/enocean_switch_nrf52832_xxAA_s132_6.0.0.dir/__/__/models/simple_on_off/src/simple_on_off_client.c.obj
 .text.handle_status_cb
                0x000328b4       0x54 examples/enocean_switch/CMakeFiles/enocean_switch_nrf52832_xxAA_s132_6.0.0.dir/__/__/models/simple_on_off/src/simple_on_off_client.c.obj
 .text.simple_on_off_client_init
                0x00032908       0x44 examples/enocean_switch/CMakeFiles/enocean_switch_nrf52832_xxAA_s132_6.0.0.dir/__/__/models/simple_on_off/src/simple_on_off_client.c.obj
                0x00032908                simple_on_off_client_init
 .text.simple_on_off_client_set
                0x0003294c       0x74 examples/enocean_switch/CMakeFiles/enocean_switch_nrf52832_xxAA_s132_6.0.0.dir/__/__/models/simple_on_off/src/simple_on_off_client.c.obj
                0x0003294c                simple_on_off_client_set
 .text.simple_on_off_client_set_unreliable
                0x000329c0       0x5c examples/enocean_switch/CMakeFiles/enocean_switch_nrf52832_xxAA_s132_6.0.0.dir/__/__/models/simple_on_off/src/simple_on_off_client.c.obj
                0x000329c0                simple_on_off_client_set_unreliable
 .text.config_composition_data_get
                0x00032a1c      0x1ec examples/enocean_switch/CMakeFiles/enocean_switch_nrf52832_xxAA_s132_6.0.0.dir/__/__/models/config/src/composition_data.c.obj
                0x00032a1c                config_composition_data_get
 .text.config_server_heartbeat_publication_count_decrement
                0x00032c08       0x1c examples/enocean_switch/CMakeFiles/enocean_switch_nrf52832_xxAA_s132_6.0.0.dir/__/__/models/config/src/config_server.c.obj
 .text.config_server_heartbeat_publication_params_get
                0x00032c24       0x38 examples/enocean_switch/CMakeFiles/enocean_switch_nrf52832_xxAA_s132_6.0.0.dir/__/__/models/config/src/config_server.c.obj
 .text.handle_config_network_transmit_set
                0x00032c5c      0x11c examples/enocean_switch/CMakeFiles/enocean_switch_nrf52832_xxAA_s132_6.0.0.dir/__/__/models/config/src/config_server.c.obj
 .text.handle_node_reset
                0x00032d78       0x30 examples/enocean_switch/CMakeFiles/enocean_switch_nrf52832_xxAA_s132_6.0.0.dir/__/__/models/config/src/config_server.c.obj
 .text.handle_config_relay_set
                0x00032da8      0x1b0 examples/enocean_switch/CMakeFiles/enocean_switch_nrf52832_xxAA_s132_6.0.0.dir/__/__/models/config/src/config_server.c.obj
 .text.handle_config_gatt_proxy_set
                0x00032f58       0x38 examples/enocean_switch/CMakeFiles/enocean_switch_nrf52832_xxAA_s132_6.0.0.dir/__/__/models/config/src/config_server.c.obj
 .text.handle_netkey_get
                0x00032f90       0x68 examples/enocean_switch/CMakeFiles/enocean_switch_nrf52832_xxAA_s132_6.0.0.dir/__/__/models/config/src/config_server.c.obj
 .text.handle_model_app_bind_unbind
                0x00032ff8      0x238 examples/enocean_switch/CMakeFiles/enocean_switch_nrf52832_xxAA_s132_6.0.0.dir/__/__/models/config/src/config_server.c.obj
 .text.status_error_sub_send
                0x00033230      0x184 examples/enocean_switch/CMakeFiles/enocean_switch_nrf52832_xxAA_s132_6.0.0.dir/__/__/models/config/src/config_server.c.obj
 .text.handle_config_model_subscription_overwrite
                0x000333b4      0x1f8 examples/enocean_switch/CMakeFiles/enocean_switch_nrf52832_xxAA_s132_6.0.0.dir/__/__/models/config/src/config_server.c.obj
 .text.send_publication_status
                0x000335ac      0x1a4 examples/enocean_switch/CMakeFiles/enocean_switch_nrf52832_xxAA_s132_6.0.0.dir/__/__/models/config/src/config_server.c.obj
 .text.handle_config_key_refresh_phase_set
                0x00033750       0xf0 examples/enocean_switch/CMakeFiles/enocean_switch_nrf52832_xxAA_s132_6.0.0.dir/__/__/models/config/src/config_server.c.obj
 .text.handle_config_default_ttl_set
                0x00033840       0x70 examples/enocean_switch/CMakeFiles/enocean_switch_nrf52832_xxAA_s132_6.0.0.dir/__/__/models/config/src/config_server.c.obj
 .text.handle_heartbeat_publication_set
                0x000338b0      0x170 examples/enocean_switch/CMakeFiles/enocean_switch_nrf52832_xxAA_s132_6.0.0.dir/__/__/models/config/src/config_server.c.obj
 .text.mesh_event_cb
                0x00033a20       0x70 examples/enocean_switch/CMakeFiles/enocean_switch_nrf52832_xxAA_s132_6.0.0.dir/__/__/models/config/src/config_server.c.obj
 .text.handle_node_identity_set
                0x00033a90       0x48 examples/enocean_switch/CMakeFiles/enocean_switch_nrf52832_xxAA_s132_6.0.0.dir/__/__/models/config/src/config_server.c.obj
 .text.handle_node_identity_get
                0x00033ad8       0x44 examples/enocean_switch/CMakeFiles/enocean_switch_nrf52832_xxAA_s132_6.0.0.dir/__/__/models/config/src/config_server.c.obj
 .text.handle_config_friend_set
                0x00033b1c       0x38 examples/enocean_switch/CMakeFiles/enocean_switch_nrf52832_xxAA_s132_6.0.0.dir/__/__/models/config/src/config_server.c.obj
 .text.status_error_pub_send
                0x00033b54       0xc8 examples/enocean_switch/CMakeFiles/enocean_switch_nrf52832_xxAA_s132_6.0.0.dir/__/__/models/config/src/config_server.c.obj
 .text.handle_config_model_publication_get
                0x00033c1c       0xb0 examples/enocean_switch/CMakeFiles/enocean_switch_nrf52832_xxAA_s132_6.0.0.dir/__/__/models/config/src/config_server.c.obj
 .text.handle_config_model_publication_set
                0x00033ccc      0x32c examples/enocean_switch/CMakeFiles/enocean_switch_nrf52832_xxAA_s132_6.0.0.dir/__/__/models/config/src/config_server.c.obj
 .text.handle_config_key_refresh_phase_get
                0x00033ff8       0x70 examples/enocean_switch/CMakeFiles/enocean_switch_nrf52832_xxAA_s132_6.0.0.dir/__/__/models/config/src/config_server.c.obj
 .text.handle_config_default_ttl_get
                0x00034068       0x48 examples/enocean_switch/CMakeFiles/enocean_switch_nrf52832_xxAA_s132_6.0.0.dir/__/__/models/config/src/config_server.c.obj
 .text.handle_config_beacon_set
                0x000340b0       0x80 examples/enocean_switch/CMakeFiles/enocean_switch_nrf52832_xxAA_s132_6.0.0.dir/__/__/models/config/src/config_server.c.obj
 .text.handle_composition_data_get
                0x00034130       0x64 examples/enocean_switch/CMakeFiles/enocean_switch_nrf52832_xxAA_s132_6.0.0.dir/__/__/models/config/src/config_server.c.obj
 .text.handle_appkey_delete
                0x00034194      0x124 examples/enocean_switch/CMakeFiles/enocean_switch_nrf52832_xxAA_s132_6.0.0.dir/__/__/models/config/src/config_server.c.obj
 .text.handle_model_app_get
                0x000342b8      0x220 examples/enocean_switch/CMakeFiles/enocean_switch_nrf52832_xxAA_s132_6.0.0.dir/__/__/models/config/src/config_server.c.obj
 .text.handle_config_vendor_model_subscription_get
                0x000344d8      0x190 examples/enocean_switch/CMakeFiles/enocean_switch_nrf52832_xxAA_s132_6.0.0.dir/__/__/models/config/src/config_server.c.obj
 .text.handle_appkey_get
                0x00034668      0x104 examples/enocean_switch/CMakeFiles/enocean_switch_nrf52832_xxAA_s132_6.0.0.dir/__/__/models/config/src/config_server.c.obj
 .text.handle_heartbeat_subscription_get
                0x0003476c       0xd8 examples/enocean_switch/CMakeFiles/enocean_switch_nrf52832_xxAA_s132_6.0.0.dir/__/__/models/config/src/config_server.c.obj
 .text.handle_config_gatt_proxy_get
                0x00034844       0x38 examples/enocean_switch/CMakeFiles/enocean_switch_nrf52832_xxAA_s132_6.0.0.dir/__/__/models/config/src/config_server.c.obj
 .text.handle_heartbeat_subscription_set
                0x0003487c      0x110 examples/enocean_switch/CMakeFiles/enocean_switch_nrf52832_xxAA_s132_6.0.0.dir/__/__/models/config/src/config_server.c.obj
 .text.handle_config_friend_get
                0x0003498c       0x38 examples/enocean_switch/CMakeFiles/enocean_switch_nrf52832_xxAA_s132_6.0.0.dir/__/__/models/config/src/config_server.c.obj
 .text.handle_heartbeat_publication_get
                0x000349c4       0xcc examples/enocean_switch/CMakeFiles/enocean_switch_nrf52832_xxAA_s132_6.0.0.dir/__/__/models/config/src/config_server.c.obj
 .text.handle_config_beacon_get
                0x00034a90       0x40 examples/enocean_switch/CMakeFiles/enocean_switch_nrf52832_xxAA_s132_6.0.0.dir/__/__/models/config/src/config_server.c.obj
 .text.handle_config_sig_model_subscription_get
                0x00034ad0      0x158 examples/enocean_switch/CMakeFiles/enocean_switch_nrf52832_xxAA_s132_6.0.0.dir/__/__/models/config/src/config_server.c.obj
 .text.handle_appkey_update
                0x00034c28      0x11c examples/enocean_switch/CMakeFiles/enocean_switch_nrf52832_xxAA_s132_6.0.0.dir/__/__/models/config/src/config_server.c.obj
 .text.handle_appkey_add
                0x00034d44      0x12c examples/enocean_switch/CMakeFiles/enocean_switch_nrf52832_xxAA_s132_6.0.0.dir/__/__/models/config/src/config_server.c.obj
 .text.handle_netkey_add_update
                0x00034e70       0xe8 examples/enocean_switch/CMakeFiles/enocean_switch_nrf52832_xxAA_s132_6.0.0.dir/__/__/models/config/src/config_server.c.obj
 .text.handle_netkey_delete
                0x00034f58      0x148 examples/enocean_switch/CMakeFiles/enocean_switch_nrf52832_xxAA_s132_6.0.0.dir/__/__/models/config/src/config_server.c.obj
 .text.handle_config_network_transmit_get
                0x000350a0       0x9c examples/enocean_switch/CMakeFiles/enocean_switch_nrf52832_xxAA_s132_6.0.0.dir/__/__/models/config/src/config_server.c.obj
 .text.handle_config_relay_get
                0x0003513c       0xd8 examples/enocean_switch/CMakeFiles/enocean_switch_nrf52832_xxAA_s132_6.0.0.dir/__/__/models/config/src/config_server.c.obj
 .text.handle_config_model_subscription_virtual_address_delete
                0x00035214      0x184 examples/enocean_switch/CMakeFiles/enocean_switch_nrf52832_xxAA_s132_6.0.0.dir/__/__/models/config/src/config_server.c.obj
 .text.handle_config_model_subscription_delete_all
                0x00035398      0x1b0 examples/enocean_switch/CMakeFiles/enocean_switch_nrf52832_xxAA_s132_6.0.0.dir/__/__/models/config/src/config_server.c.obj
 .text.handle_config_model_subscription_virtual_address_add
                0x00035548      0x180 examples/enocean_switch/CMakeFiles/enocean_switch_nrf52832_xxAA_s132_6.0.0.dir/__/__/models/config/src/config_server.c.obj
 .text.handle_config_model_subscription_delete
                0x000356c8      0x17c examples/enocean_switch/CMakeFiles/enocean_switch_nrf52832_xxAA_s132_6.0.0.dir/__/__/models/config/src/config_server.c.obj
 .text.handle_config_model_subscription_virtual_address_overwrite
                0x00035844      0x214 examples/enocean_switch/CMakeFiles/enocean_switch_nrf52832_xxAA_s132_6.0.0.dir/__/__/models/config/src/config_server.c.obj
 .text.handle_config_model_subscription_add
                0x00035a58      0x174 examples/enocean_switch/CMakeFiles/enocean_switch_nrf52832_xxAA_s132_6.0.0.dir/__/__/models/config/src/config_server.c.obj
 .text.config_server_init
                0x00035bcc       0x64 examples/enocean_switch/CMakeFiles/enocean_switch_nrf52832_xxAA_s132_6.0.0.dir/__/__/models/config/src/config_server.c.obj
                0x00035bcc                config_server_init
 .text.config_server_bind
                0x00035c30       0x10 examples/enocean_switch/CMakeFiles/enocean_switch_nrf52832_xxAA_s132_6.0.0.dir/__/__/models/config/src/config_server.c.obj
                0x00035c30                config_server_bind
 .text.packed_index_list_create
                0x00035c40       0x38 examples/enocean_switch/CMakeFiles/enocean_switch_nrf52832_xxAA_s132_6.0.0.dir/__/__/models/config/src/packed_index_list.c.obj
                0x00035c40                packed_index_list_create
 .text.attention_timer_handler
                0x00035c78       0x6c examples/enocean_switch/CMakeFiles/enocean_switch_nrf52832_xxAA_s132_6.0.0.dir/__/__/models/health/src/health_server.c.obj
 .text.handle_attention_get
                0x00035ce4       0x3c examples/enocean_switch/CMakeFiles/enocean_switch_nrf52832_xxAA_s132_6.0.0.dir/__/__/models/health/src/health_server.c.obj
 .text.handle_period_get
                0x00035d20       0x38 examples/enocean_switch/CMakeFiles/enocean_switch_nrf52832_xxAA_s132_6.0.0.dir/__/__/models/health/src/health_server.c.obj
 .text.handle_attention_set
                0x00035d58       0xd8 examples/enocean_switch/CMakeFiles/enocean_switch_nrf52832_xxAA_s132_6.0.0.dir/__/__/models/health/src/health_server.c.obj
 .text.handle_period_set
                0x00035e30       0x50 examples/enocean_switch/CMakeFiles/enocean_switch_nrf52832_xxAA_s132_6.0.0.dir/__/__/models/health/src/health_server.c.obj
 .text.send_fault_status
                0x00035e80      0x37c examples/enocean_switch/CMakeFiles/enocean_switch_nrf52832_xxAA_s132_6.0.0.dir/__/__/models/health/src/health_server.c.obj
 .text.health_publish_timeout_handler
                0x000361fc        0xc examples/enocean_switch/CMakeFiles/enocean_switch_nrf52832_xxAA_s132_6.0.0.dir/__/__/models/health/src/health_server.c.obj
 .text.handle_fault_test
                0x00036208       0x7c examples/enocean_switch/CMakeFiles/enocean_switch_nrf52832_xxAA_s132_6.0.0.dir/__/__/models/health/src/health_server.c.obj
 .text.handle_fault_clear
                0x00036284       0x48 examples/enocean_switch/CMakeFiles/enocean_switch_nrf52832_xxAA_s132_6.0.0.dir/__/__/models/health/src/health_server.c.obj
 .text.handle_fault_get
                0x000362cc       0x34 examples/enocean_switch/CMakeFiles/enocean_switch_nrf52832_xxAA_s132_6.0.0.dir/__/__/models/health/src/health_server.c.obj
 .text.health_server_init
                0x00036300       0x74 examples/enocean_switch/CMakeFiles/enocean_switch_nrf52832_xxAA_s132_6.0.0.dir/__/__/models/health/src/health_server.c.obj
                0x00036300                health_server_init
 .text.schedule_publication_timer
                0x00036374      0x2c4 examples/enocean_switch/CMakeFiles/enocean_switch_nrf52832_xxAA_s132_6.0.0.dir/__/__/mesh/access/src/access_publish.c.obj
 .text.publish_timer_tick
                0x00036638      0x134 examples/enocean_switch/CMakeFiles/enocean_switch_nrf52832_xxAA_s132_6.0.0.dir/__/__/mesh/access/src/access_publish.c.obj
 .text.access_publish_init
                0x0003676c       0x38 examples/enocean_switch/CMakeFiles/enocean_switch_nrf52832_xxAA_s132_6.0.0.dir/__/__/mesh/access/src/access_publish.c.obj
                0x0003676c                access_publish_init
 .text.access_publish_period_set
                0x000367a4      0x12c examples/enocean_switch/CMakeFiles/enocean_switch_nrf52832_xxAA_s132_6.0.0.dir/__/__/mesh/access/src/access_publish.c.obj
                0x000367a4                access_publish_period_set
 .text.access_publish_period_get
                0x000368d0       0x2c examples/enocean_switch/CMakeFiles/enocean_switch_nrf52832_xxAA_s132_6.0.0.dir/__/__/mesh/access/src/access_publish.c.obj
                0x000368d0                access_publish_period_get
 .text.flash_manager_mem_available
                0x000368fc        0x4 examples/enocean_switch/CMakeFiles/enocean_switch_nrf52832_xxAA_s132_6.0.0.dir/__/__/mesh/access/src/access.c.obj
 .text.flash_invalidate_complete
                0x00036900        0x8 examples/enocean_switch/CMakeFiles/enocean_switch_nrf52832_xxAA_s132_6.0.0.dir/__/__/mesh/access/src/access.c.obj
 .text.access_flash_config_clear
                0x00036908       0x28 examples/enocean_switch/CMakeFiles/enocean_switch_nrf52832_xxAA_s132_6.0.0.dir/__/__/mesh/access/src/access.c.obj
 .text.access_flash_config_store
                0x00036930      0x154 examples/enocean_switch/CMakeFiles/enocean_switch_nrf52832_xxAA_s132_6.0.0.dir/__/__/mesh/access/src/access.c.obj
                0x00036930                access_flash_config_store
 .text.handle_incoming
                0x00036a84      0x194 examples/enocean_switch/CMakeFiles/enocean_switch_nrf52832_xxAA_s132_6.0.0.dir/__/__/mesh/access/src/access.c.obj
 .text.mesh_evt_cb
                0x00036c18      0x164 examples/enocean_switch/CMakeFiles/enocean_switch_nrf52832_xxAA_s132_6.0.0.dir/__/__/mesh/access/src/access.c.obj
 .text.add_flash_manager
                0x00036d7c       0x58 examples/enocean_switch/CMakeFiles/enocean_switch_nrf52832_xxAA_s132_6.0.0.dir/__/__/mesh/access/src/access.c.obj
 .text.flash_write_complete
                0x00036dd4       0x4c examples/enocean_switch/CMakeFiles/enocean_switch_nrf52832_xxAA_s132_6.0.0.dir/__/__/mesh/access/src/access.c.obj
 .text.flash_remove_complete
                0x00036e20      0x158 examples/enocean_switch/CMakeFiles/enocean_switch_nrf52832_xxAA_s132_6.0.0.dir/__/__/mesh/access/src/access.c.obj
 .text.access_flash_config_load
                0x00036f78      0x328 examples/enocean_switch/CMakeFiles/enocean_switch_nrf52832_xxAA_s132_6.0.0.dir/__/__/mesh/access/src/access.c.obj
                0x00036f78                access_flash_config_load
 .text.access_clear
                0x000372a0       0x88 examples/enocean_switch/CMakeFiles/enocean_switch_nrf52832_xxAA_s132_6.0.0.dir/__/__/mesh/access/src/access.c.obj
                0x000372a0                access_clear
 .text.access_init
                0x00037328       0xd0 examples/enocean_switch/CMakeFiles/enocean_switch_nrf52832_xxAA_s132_6.0.0.dir/__/__/mesh/access/src/access.c.obj
                0x00037328                access_init
 .text.access_model_add
                0x000373f8      0x2d0 examples/enocean_switch/CMakeFiles/enocean_switch_nrf52832_xxAA_s132_6.0.0.dir/__/__/mesh/access/src/access.c.obj
                0x000373f8                access_model_add
 .text.access_model_publish
                0x000376c8      0x3bc examples/enocean_switch/CMakeFiles/enocean_switch_nrf52832_xxAA_s132_6.0.0.dir/__/__/mesh/access/src/access.c.obj
                0x000376c8                access_model_publish
 .text.access_model_reply
                0x00037a84      0x3d8 examples/enocean_switch/CMakeFiles/enocean_switch_nrf52832_xxAA_s132_6.0.0.dir/__/__/mesh/access/src/access.c.obj
                0x00037a84                access_model_reply
 .text.access_model_publish_address_set
                0x00037e5c       0x3c examples/enocean_switch/CMakeFiles/enocean_switch_nrf52832_xxAA_s132_6.0.0.dir/__/__/mesh/access/src/access.c.obj
                0x00037e5c                access_model_publish_address_set
 .text.access_model_publish_address_get
                0x00037e98       0x2c examples/enocean_switch/CMakeFiles/enocean_switch_nrf52832_xxAA_s132_6.0.0.dir/__/__/mesh/access/src/access.c.obj
                0x00037e98                access_model_publish_address_get
 .text.access_model_publish_retransmit_set
                0x00037ec4       0x58 examples/enocean_switch/CMakeFiles/enocean_switch_nrf52832_xxAA_s132_6.0.0.dir/__/__/mesh/access/src/access.c.obj
                0x00037ec4                access_model_publish_retransmit_set
 .text.access_model_publish_retransmit_get
                0x00037f1c       0x2c examples/enocean_switch/CMakeFiles/enocean_switch_nrf52832_xxAA_s132_6.0.0.dir/__/__/mesh/access/src/access.c.obj
                0x00037f1c                access_model_publish_retransmit_get
 .text.access_model_publish_period_set
                0x00037f48       0x78 examples/enocean_switch/CMakeFiles/enocean_switch_nrf52832_xxAA_s132_6.0.0.dir/__/__/mesh/access/src/access.c.obj
                0x00037f48                access_model_publish_period_set
 .text.access_model_publish_period_get
                0x00037fc0       0x40 examples/enocean_switch/CMakeFiles/enocean_switch_nrf52832_xxAA_s132_6.0.0.dir/__/__/mesh/access/src/access.c.obj
                0x00037fc0                access_model_publish_period_get
 .text.access_model_subscription_list_alloc
                0x00038000       0x84 examples/enocean_switch/CMakeFiles/enocean_switch_nrf52832_xxAA_s132_6.0.0.dir/__/__/mesh/access/src/access.c.obj
                0x00038000                access_model_subscription_list_alloc
 .text.access_model_subscription_add
                0x00038084       0x60 examples/enocean_switch/CMakeFiles/enocean_switch_nrf52832_xxAA_s132_6.0.0.dir/__/__/mesh/access/src/access.c.obj
                0x00038084                access_model_subscription_add
 .text.access_model_subscription_remove
                0x000380e4       0x60 examples/enocean_switch/CMakeFiles/enocean_switch_nrf52832_xxAA_s132_6.0.0.dir/__/__/mesh/access/src/access.c.obj
                0x000380e4                access_model_subscription_remove
 .text.access_model_subscriptions_get
                0x00038144       0x78 examples/enocean_switch/CMakeFiles/enocean_switch_nrf52832_xxAA_s132_6.0.0.dir/__/__/mesh/access/src/access.c.obj
                0x00038144                access_model_subscriptions_get
 .text.access_model_application_bind
                0x000381bc       0x58 examples/enocean_switch/CMakeFiles/enocean_switch_nrf52832_xxAA_s132_6.0.0.dir/__/__/mesh/access/src/access.c.obj
                0x000381bc                access_model_application_bind
 .text.access_model_application_unbind
                0x00038214       0x58 examples/enocean_switch/CMakeFiles/enocean_switch_nrf52832_xxAA_s132_6.0.0.dir/__/__/mesh/access/src/access.c.obj
                0x00038214                access_model_application_unbind
 .text.access_model_applications_get
                0x0003826c      0x100 examples/enocean_switch/CMakeFiles/enocean_switch_nrf52832_xxAA_s132_6.0.0.dir/__/__/mesh/access/src/access.c.obj
                0x0003826c                access_model_applications_get
 .text.access_model_publish_application_set
                0x0003836c       0x3c examples/enocean_switch/CMakeFiles/enocean_switch_nrf52832_xxAA_s132_6.0.0.dir/__/__/mesh/access/src/access.c.obj
                0x0003836c                access_model_publish_application_set
 .text.access_model_publish_application_get
                0x000383a8       0x2c examples/enocean_switch/CMakeFiles/enocean_switch_nrf52832_xxAA_s132_6.0.0.dir/__/__/mesh/access/src/access.c.obj
                0x000383a8                access_model_publish_application_get
 .text.access_default_ttl_set
                0x000383d4       0x1c examples/enocean_switch/CMakeFiles/enocean_switch_nrf52832_xxAA_s132_6.0.0.dir/__/__/mesh/access/src/access.c.obj
                0x000383d4                access_default_ttl_set
 .text.access_default_ttl_get
                0x000383f0        0xc examples/enocean_switch/CMakeFiles/enocean_switch_nrf52832_xxAA_s132_6.0.0.dir/__/__/mesh/access/src/access.c.obj
                0x000383f0                access_default_ttl_get
 .text.access_model_publish_ttl_set
                0x000383fc       0x40 examples/enocean_switch/CMakeFiles/enocean_switch_nrf52832_xxAA_s132_6.0.0.dir/__/__/mesh/access/src/access.c.obj
                0x000383fc                access_model_publish_ttl_set
 .text.access_model_publish_ttl_get
                0x0003843c       0x2c examples/enocean_switch/CMakeFiles/enocean_switch_nrf52832_xxAA_s132_6.0.0.dir/__/__/mesh/access/src/access.c.obj
                0x0003843c                access_model_publish_ttl_get
 .text.access_element_location_get
                0x00038468       0x24 examples/enocean_switch/CMakeFiles/enocean_switch_nrf52832_xxAA_s132_6.0.0.dir/__/__/mesh/access/src/access.c.obj
                0x00038468                access_element_location_get
 .text.access_element_sig_model_count_get
                0x0003848c       0x24 examples/enocean_switch/CMakeFiles/enocean_switch_nrf52832_xxAA_s132_6.0.0.dir/__/__/mesh/access/src/access.c.obj
                0x0003848c                access_element_sig_model_count_get
 .text.access_element_vendor_model_count_get
                0x000384b0       0x24 examples/enocean_switch/CMakeFiles/enocean_switch_nrf52832_xxAA_s132_6.0.0.dir/__/__/mesh/access/src/access.c.obj
                0x000384b0                access_element_vendor_model_count_get
 .text.access_model_id_get
                0x000384d4       0x40 examples/enocean_switch/CMakeFiles/enocean_switch_nrf52832_xxAA_s132_6.0.0.dir/__/__/mesh/access/src/access.c.obj
                0x000384d4                access_model_id_get
 .text.access_handle_get
                0x00038514       0xd4 examples/enocean_switch/CMakeFiles/enocean_switch_nrf52832_xxAA_s132_6.0.0.dir/__/__/mesh/access/src/access.c.obj
                0x00038514                access_handle_get
 .text.access_element_models_get
                0x000385e8       0xfc examples/enocean_switch/CMakeFiles/enocean_switch_nrf52832_xxAA_s132_6.0.0.dir/__/__/mesh/access/src/access.c.obj
                0x000385e8                access_element_models_get
 .text.access_model_p_args_get
                0x000386e4       0x2c examples/enocean_switch/CMakeFiles/enocean_switch_nrf52832_xxAA_s132_6.0.0.dir/__/__/mesh/access/src/access.c.obj
                0x000386e4                access_model_p_args_get
 .text.access_model_publication_stop
                0x00038710       0x74 examples/enocean_switch/CMakeFiles/enocean_switch_nrf52832_xxAA_s132_6.0.0.dir/__/__/mesh/access/src/access.c.obj
                0x00038710                access_model_publication_stop
 .text.access_model_publication_by_appkey_stop
                0x00038784      0x2a4 examples/enocean_switch/CMakeFiles/enocean_switch_nrf52832_xxAA_s132_6.0.0.dir/__/__/mesh/access/src/access.c.obj
                0x00038784                access_model_publication_by_appkey_stop
 .text.remove_and_reschedule
                0x00038a28      0x11c examples/enocean_switch/CMakeFiles/enocean_switch_nrf52832_xxAA_s132_6.0.0.dir/__/__/mesh/access/src/access_reliable.c.obj
 .text.reliable_timer_cb
                0x00038b44      0x128 examples/enocean_switch/CMakeFiles/enocean_switch_nrf52832_xxAA_s132_6.0.0.dir/__/__/mesh/access/src/access_reliable.c.obj
 .text.access_reliable_message_rx_cb
                0x00038c6c       0xb4 examples/enocean_switch/CMakeFiles/enocean_switch_nrf52832_xxAA_s132_6.0.0.dir/__/__/mesh/access/src/access_reliable.c.obj
                0x00038c6c                access_reliable_message_rx_cb
 .text.access_reliable_init
                0x00038d20       0x20 examples/enocean_switch/CMakeFiles/enocean_switch_nrf52832_xxAA_s132_6.0.0.dir/__/__/mesh/access/src/access_reliable.c.obj
                0x00038d20                access_reliable_init
 .text.access_reliable_cancel_all
                0x00038d40      0x1b0 examples/enocean_switch/CMakeFiles/enocean_switch_nrf52832_xxAA_s132_6.0.0.dir/__/__/mesh/access/src/access_reliable.c.obj
                0x00038d40                access_reliable_cancel_all
 .text.access_model_reliable_cancel
                0x00038ef0       0xbc examples/enocean_switch/CMakeFiles/enocean_switch_nrf52832_xxAA_s132_6.0.0.dir/__/__/mesh/access/src/access_reliable.c.obj
                0x00038ef0                access_model_reliable_cancel
 .text.access_model_reliable_publish
                0x00038fac      0x284 examples/enocean_switch/CMakeFiles/enocean_switch_nrf52832_xxAA_s132_6.0.0.dir/__/__/mesh/access/src/access_reliable.c.obj
                0x00038fac                access_model_reliable_publish
 .text.addr_nonvirtual_to_dsm_entry
                0x00039230       0x48 examples/enocean_switch/CMakeFiles/enocean_switch_nrf52832_xxAA_s132_6.0.0.dir/__/__/mesh/access/src/device_state_manager.c.obj
 .text.addr_nonvirtual_to_flash_entry
                0x00039278       0x10 examples/enocean_switch/CMakeFiles/enocean_switch_nrf52832_xxAA_s132_6.0.0.dir/__/__/mesh/access/src/device_state_manager.c.obj
 .text.devkey_to_flash_entry
                0x00039288       0x28 examples/enocean_switch/CMakeFiles/enocean_switch_nrf52832_xxAA_s132_6.0.0.dir/__/__/mesh/access/src/device_state_manager.c.obj
 .text.addr_virtual_to_flash_entry
                0x000392b0       0x18 examples/enocean_switch/CMakeFiles/enocean_switch_nrf52832_xxAA_s132_6.0.0.dir/__/__/mesh/access/src/device_state_manager.c.obj
 .text.addr_unicast_to_dsm_entry
                0x000392c8        0xc examples/enocean_switch/CMakeFiles/enocean_switch_nrf52832_xxAA_s132_6.0.0.dir/__/__/mesh/access/src/device_state_manager.c.obj
 .text.addr_unicast_to_flash_entry
                0x000392d4       0x10 examples/enocean_switch/CMakeFiles/enocean_switch_nrf52832_xxAA_s132_6.0.0.dir/__/__/mesh/access/src/device_state_manager.c.obj
 .text.flash_mem_listener_callback
                0x000392e4       0x1c examples/enocean_switch/CMakeFiles/enocean_switch_nrf52832_xxAA_s132_6.0.0.dir/__/__/mesh/access/src/device_state_manager.c.obj
 .text.appkey_to_flash_entry
                0x00039300       0x54 examples/enocean_switch/CMakeFiles/enocean_switch_nrf52832_xxAA_s132_6.0.0.dir/__/__/mesh/access/src/device_state_manager.c.obj
 .text.subnet_to_flash_entry
                0x00039354       0x60 examples/enocean_switch/CMakeFiles/enocean_switch_nrf52832_xxAA_s132_6.0.0.dir/__/__/mesh/access/src/device_state_manager.c.obj
 .text.reset_flash_area
                0x000393b4       0x28 examples/enocean_switch/CMakeFiles/enocean_switch_nrf52832_xxAA_s132_6.0.0.dir/__/__/mesh/access/src/device_state_manager.c.obj
 .text.flash_save
                0x000393dc       0xb0 examples/enocean_switch/CMakeFiles/enocean_switch_nrf52832_xxAA_s132_6.0.0.dir/__/__/mesh/access/src/device_state_manager.c.obj
 .text.build_flash_area
                0x0003948c       0x90 examples/enocean_switch/CMakeFiles/enocean_switch_nrf52832_xxAA_s132_6.0.0.dir/__/__/mesh/access/src/device_state_manager.c.obj
 .text.flash_invalidate_complete
                0x0003951c       0x54 examples/enocean_switch/CMakeFiles/enocean_switch_nrf52832_xxAA_s132_6.0.0.dir/__/__/mesh/access/src/device_state_manager.c.obj
 .text.flash_write_complete
                0x00039570       0x50 examples/enocean_switch/CMakeFiles/enocean_switch_nrf52832_xxAA_s132_6.0.0.dir/__/__/mesh/access/src/device_state_manager.c.obj
 .text.devkey_to_dsm_entry
                0x000395c0       0x70 examples/enocean_switch/CMakeFiles/enocean_switch_nrf52832_xxAA_s132_6.0.0.dir/__/__/mesh/access/src/device_state_manager.c.obj
 .text.addr_virtual_to_dsm_entry
                0x00039630       0x60 examples/enocean_switch/CMakeFiles/enocean_switch_nrf52832_xxAA_s132_6.0.0.dir/__/__/mesh/access/src/device_state_manager.c.obj
 .text.appkey_to_dsm_entry
                0x00039690       0xf4 examples/enocean_switch/CMakeFiles/enocean_switch_nrf52832_xxAA_s132_6.0.0.dir/__/__/mesh/access/src/device_state_manager.c.obj
 .text.subnet_to_dsm_entry
                0x00039784      0x11c examples/enocean_switch/CMakeFiles/enocean_switch_nrf52832_xxAA_s132_6.0.0.dir/__/__/mesh/access/src/device_state_manager.c.obj
 .text.flash_remove_complete
                0x000398a0       0x90 examples/enocean_switch/CMakeFiles/enocean_switch_nrf52832_xxAA_s132_6.0.0.dir/__/__/mesh/access/src/device_state_manager.c.obj
 .text.flash_update_all
                0x00039930      0x17c examples/enocean_switch/CMakeFiles/enocean_switch_nrf52832_xxAA_s132_6.0.0.dir/__/__/mesh/access/src/device_state_manager.c.obj
 .text.address_delete_if_unused
                0x00039aac      0x100 examples/enocean_switch/CMakeFiles/enocean_switch_nrf52832_xxAA_s132_6.0.0.dir/__/__/mesh/access/src/device_state_manager.c.obj
 .text.mesh_evt_handler
                0x00039bac      0x234 examples/enocean_switch/CMakeFiles/enocean_switch_nrf52832_xxAA_s132_6.0.0.dir/__/__/mesh/access/src/device_state_manager.c.obj
 .text.dsm_flash_config_load
                0x00039de0      0x1c8 examples/enocean_switch/CMakeFiles/enocean_switch_nrf52832_xxAA_s132_6.0.0.dir/__/__/mesh/access/src/device_state_manager.c.obj
                0x00039de0                dsm_flash_config_load
 .text.dsm_flash_area_get
                0x00039fa8        0xc examples/enocean_switch/CMakeFiles/enocean_switch_nrf52832_xxAA_s132_6.0.0.dir/__/__/mesh/access/src/device_state_manager.c.obj
                0x00039fa8                dsm_flash_area_get
 .text.dsm_clear
                0x00039fb4      0x160 examples/enocean_switch/CMakeFiles/enocean_switch_nrf52832_xxAA_s132_6.0.0.dir/__/__/mesh/access/src/device_state_manager.c.obj
                0x00039fb4                dsm_clear
 .text.dsm_init
                0x0003a114       0xbc examples/enocean_switch/CMakeFiles/enocean_switch_nrf52832_xxAA_s132_6.0.0.dir/__/__/mesh/access/src/device_state_manager.c.obj
                0x0003a114                dsm_init
 .text.dsm_local_unicast_addresses_set
                0x0003a1d0       0x78 examples/enocean_switch/CMakeFiles/enocean_switch_nrf52832_xxAA_s132_6.0.0.dir/__/__/mesh/access/src/device_state_manager.c.obj
                0x0003a1d0                dsm_local_unicast_addresses_set
 .text.dsm_local_unicast_addresses_get
                0x0003a248       0x20 examples/enocean_switch/CMakeFiles/enocean_switch_nrf52832_xxAA_s132_6.0.0.dir/__/__/mesh/access/src/device_state_manager.c.obj
                0x0003a248                dsm_local_unicast_addresses_get
 .text.dsm_address_publish_add
                0x0003a268      0x330 examples/enocean_switch/CMakeFiles/enocean_switch_nrf52832_xxAA_s132_6.0.0.dir/__/__/mesh/access/src/device_state_manager.c.obj
                0x0003a268                dsm_address_publish_add
 .text.dsm_address_publish_add_handle
                0x0003a598       0x54 examples/enocean_switch/CMakeFiles/enocean_switch_nrf52832_xxAA_s132_6.0.0.dir/__/__/mesh/access/src/device_state_manager.c.obj
                0x0003a598                dsm_address_publish_add_handle
 .text.dsm_address_publish_virtual_add
                0x0003a5ec      0x268 examples/enocean_switch/CMakeFiles/enocean_switch_nrf52832_xxAA_s132_6.0.0.dir/__/__/mesh/access/src/device_state_manager.c.obj
                0x0003a5ec                dsm_address_publish_virtual_add
 .text.dsm_address_publish_remove
                0x0003a854       0xbc examples/enocean_switch/CMakeFiles/enocean_switch_nrf52832_xxAA_s132_6.0.0.dir/__/__/mesh/access/src/device_state_manager.c.obj
                0x0003a854                dsm_address_publish_remove
 .text.dsm_address_subscription_add
                0x0003a910      0x320 examples/enocean_switch/CMakeFiles/enocean_switch_nrf52832_xxAA_s132_6.0.0.dir/__/__/mesh/access/src/device_state_manager.c.obj
                0x0003a910                dsm_address_subscription_add
 .text.dsm_address_subscription_virtual_add
                0x0003ac30      0x268 examples/enocean_switch/CMakeFiles/enocean_switch_nrf52832_xxAA_s132_6.0.0.dir/__/__/mesh/access/src/device_state_manager.c.obj
                0x0003ac30                dsm_address_subscription_virtual_add
 .text.dsm_address_subscription_add_handle
                0x0003ae98       0x54 examples/enocean_switch/CMakeFiles/enocean_switch_nrf52832_xxAA_s132_6.0.0.dir/__/__/mesh/access/src/device_state_manager.c.obj
                0x0003ae98                dsm_address_subscription_add_handle
 .text.dsm_address_subscription_get
                0x0003aeec       0x5c examples/enocean_switch/CMakeFiles/enocean_switch_nrf52832_xxAA_s132_6.0.0.dir/__/__/mesh/access/src/device_state_manager.c.obj
                0x0003aeec                dsm_address_subscription_get
 .text.dsm_address_subscription_remove
                0x0003af48       0x94 examples/enocean_switch/CMakeFiles/enocean_switch_nrf52832_xxAA_s132_6.0.0.dir/__/__/mesh/access/src/device_state_manager.c.obj
                0x0003af48                dsm_address_subscription_remove
 .text.dsm_address_get
                0x0003afdc       0x74 examples/enocean_switch/CMakeFiles/enocean_switch_nrf52832_xxAA_s132_6.0.0.dir/__/__/mesh/access/src/device_state_manager.c.obj
                0x0003afdc                dsm_address_get
 .text.dsm_address_handle_get
                0x0003b050      0x3cc examples/enocean_switch/CMakeFiles/enocean_switch_nrf52832_xxAA_s132_6.0.0.dir/__/__/mesh/access/src/device_state_manager.c.obj
                0x0003b050                dsm_address_handle_get
 .text.dsm_net_key_index_to_subnet_handle
                0x0003b41c       0x6c examples/enocean_switch/CMakeFiles/enocean_switch_nrf52832_xxAA_s132_6.0.0.dir/__/__/mesh/access/src/device_state_manager.c.obj
                0x0003b41c                dsm_net_key_index_to_subnet_handle
 .text.dsm_subnet_handle_get
                0x0003b488       0xa4 examples/enocean_switch/CMakeFiles/enocean_switch_nrf52832_xxAA_s132_6.0.0.dir/__/__/mesh/access/src/device_state_manager.c.obj
                0x0003b488                dsm_subnet_handle_get
 .text.dsm_appkey_index_to_appkey_handle
                0x0003b52c       0xcc examples/enocean_switch/CMakeFiles/enocean_switch_nrf52832_xxAA_s132_6.0.0.dir/__/__/mesh/access/src/device_state_manager.c.obj
                0x0003b52c                dsm_appkey_index_to_appkey_handle
 .text.dsm_appkey_handle_get
                0x0003b5f8       0x44 examples/enocean_switch/CMakeFiles/enocean_switch_nrf52832_xxAA_s132_6.0.0.dir/__/__/mesh/access/src/device_state_manager.c.obj
                0x0003b5f8                dsm_appkey_handle_get
 .text.dsm_appkey_handle_to_appkey_index
                0x0003b63c       0x34 examples/enocean_switch/CMakeFiles/enocean_switch_nrf52832_xxAA_s132_6.0.0.dir/__/__/mesh/access/src/device_state_manager.c.obj
                0x0003b63c                dsm_appkey_handle_to_appkey_index
 .text.dsm_appkey_handle_to_subnet_handle
                0x0003b670       0xb4 examples/enocean_switch/CMakeFiles/enocean_switch_nrf52832_xxAA_s132_6.0.0.dir/__/__/mesh/access/src/device_state_manager.c.obj
                0x0003b670                dsm_appkey_handle_to_subnet_handle
 .text.dsm_subnet_add
                0x0003b724      0x21c examples/enocean_switch/CMakeFiles/enocean_switch_nrf52832_xxAA_s132_6.0.0.dir/__/__/mesh/access/src/device_state_manager.c.obj
                0x0003b724                dsm_subnet_add
 .text.dsm_subnet_kr_phase_get
                0x0003b940       0x30 examples/enocean_switch/CMakeFiles/enocean_switch_nrf52832_xxAA_s132_6.0.0.dir/__/__/mesh/access/src/device_state_manager.c.obj
                0x0003b940                dsm_subnet_kr_phase_get
 .text.dsm_subnet_update
                0x0003b970      0x11c examples/enocean_switch/CMakeFiles/enocean_switch_nrf52832_xxAA_s132_6.0.0.dir/__/__/mesh/access/src/device_state_manager.c.obj
                0x0003b970                dsm_subnet_update
 .text.dsm_subnet_update_swap_keys
                0x0003ba8c       0xa8 examples/enocean_switch/CMakeFiles/enocean_switch_nrf52832_xxAA_s132_6.0.0.dir/__/__/mesh/access/src/device_state_manager.c.obj
                0x0003ba8c                dsm_subnet_update_swap_keys
 .text.dsm_subnet_update_commit
                0x0003bb34      0x194 examples/enocean_switch/CMakeFiles/enocean_switch_nrf52832_xxAA_s132_6.0.0.dir/__/__/mesh/access/src/device_state_manager.c.obj
                0x0003bb34                dsm_subnet_update_commit
 .text.dsm_subnet_delete
                0x0003bcc8      0x358 examples/enocean_switch/CMakeFiles/enocean_switch_nrf52832_xxAA_s132_6.0.0.dir/__/__/mesh/access/src/device_state_manager.c.obj
                0x0003bcc8                dsm_subnet_delete
 .text.dsm_subnet_get_all
                0x0003c020       0x90 examples/enocean_switch/CMakeFiles/enocean_switch_nrf52832_xxAA_s132_6.0.0.dir/__/__/mesh/access/src/device_state_manager.c.obj
                0x0003c020                dsm_subnet_get_all
 .text.dsm_devkey_add
                0x0003c0b0       0xb0 examples/enocean_switch/CMakeFiles/enocean_switch_nrf52832_xxAA_s132_6.0.0.dir/__/__/mesh/access/src/device_state_manager.c.obj
                0x0003c0b0                dsm_devkey_add
 .text.dsm_appkey_add
                0x0003c160      0x298 examples/enocean_switch/CMakeFiles/enocean_switch_nrf52832_xxAA_s132_6.0.0.dir/__/__/mesh/access/src/device_state_manager.c.obj
                0x0003c160                dsm_appkey_add
 .text.dsm_appkey_update
                0x0003c3f8       0xfc examples/enocean_switch/CMakeFiles/enocean_switch_nrf52832_xxAA_s132_6.0.0.dir/__/__/mesh/access/src/device_state_manager.c.obj
                0x0003c3f8                dsm_appkey_update
 .text.dsm_appkey_delete
                0x0003c4f4       0x68 examples/enocean_switch/CMakeFiles/enocean_switch_nrf52832_xxAA_s132_6.0.0.dir/__/__/mesh/access/src/device_state_manager.c.obj
                0x0003c4f4                dsm_appkey_delete
 .text.dsm_appkey_get_all
                0x0003c55c      0x158 examples/enocean_switch/CMakeFiles/enocean_switch_nrf52832_xxAA_s132_6.0.0.dir/__/__/mesh/access/src/device_state_manager.c.obj
                0x0003c55c                dsm_appkey_get_all
 .text.dsm_tx_secmat_get
                0x0003c6b4       0xd4 examples/enocean_switch/CMakeFiles/enocean_switch_nrf52832_xxAA_s132_6.0.0.dir/__/__/mesh/access/src/device_state_manager.c.obj
                0x0003c6b4                dsm_tx_secmat_get
 .text.dsm_net_secmat_from_keyindex_get
                0x0003c788       0x98 examples/enocean_switch/CMakeFiles/enocean_switch_nrf52832_xxAA_s132_6.0.0.dir/__/__/mesh/access/src/device_state_manager.c.obj
                0x0003c788                dsm_net_secmat_from_keyindex_get
 .text.nrf_mesh_net_secmat_next_get
                0x0003c820      0x21c examples/enocean_switch/CMakeFiles/enocean_switch_nrf52832_xxAA_s132_6.0.0.dir/__/__/mesh/access/src/device_state_manager.c.obj
                0x0003c820                nrf_mesh_net_secmat_next_get
 .text.nrf_mesh_app_secmat_next_get
                0x0003ca3c      0x280 examples/enocean_switch/CMakeFiles/enocean_switch_nrf52832_xxAA_s132_6.0.0.dir/__/__/mesh/access/src/device_state_manager.c.obj
                0x0003ca3c                nrf_mesh_app_secmat_next_get
 .text.nrf_mesh_devkey_secmat_get
                0x0003ccbc       0x30 examples/enocean_switch/CMakeFiles/enocean_switch_nrf52832_xxAA_s132_6.0.0.dir/__/__/mesh/access/src/device_state_manager.c.obj
                0x0003ccbc                nrf_mesh_devkey_secmat_get
 .text.nrf_mesh_beacon_info_next_get
                0x0003ccec      0x174 examples/enocean_switch/CMakeFiles/enocean_switch_nrf52832_xxAA_s132_6.0.0.dir/__/__/mesh/access/src/device_state_manager.c.obj
                0x0003ccec                nrf_mesh_beacon_info_next_get
 .text.nrf_mesh_rx_address_get
                0x0003ce60      0x558 examples/enocean_switch/CMakeFiles/enocean_switch_nrf52832_xxAA_s132_6.0.0.dir/__/__/mesh/access/src/device_state_manager.c.obj
                0x0003ce60                nrf_mesh_rx_address_get
 .text.nrf_mesh_unicast_address_get
                0x0003d3b8       0x24 examples/enocean_switch/CMakeFiles/enocean_switch_nrf52832_xxAA_s132_6.0.0.dir/__/__/mesh/access/src/device_state_manager.c.obj
                0x0003d3b8                nrf_mesh_unicast_address_get
 .text.prov_provisionee_cb_link_established
                0x0003d3dc       0x38 examples/enocean_switch/CMakeFiles/enocean_switch_nrf52832_xxAA_s132_6.0.0.dir/__/__/mesh/prov/src/prov_provisionee.c.obj
 .text.prov_provisionee_cb_link_closed
                0x0003d414       0x54 examples/enocean_switch/CMakeFiles/enocean_switch_nrf52832_xxAA_s132_6.0.0.dir/__/__/mesh/prov/src/prov_provisionee.c.obj
 .text.request_authentication
                0x0003d468       0x90 examples/enocean_switch/CMakeFiles/enocean_switch_nrf52832_xxAA_s132_6.0.0.dir/__/__/mesh/prov/src/prov_provisionee.c.obj
 .text.prov_provisionee_cb_ack_received
                0x0003d4f8      0x194 examples/enocean_switch/CMakeFiles/enocean_switch_nrf52832_xxAA_s132_6.0.0.dir/__/__/mesh/prov/src/prov_provisionee.c.obj
 .text.prov_provisionee_pkt_in
                0x0003d68c      0x420 examples/enocean_switch/CMakeFiles/enocean_switch_nrf52832_xxAA_s132_6.0.0.dir/__/__/mesh/prov/src/prov_provisionee.c.obj
 .text.prov_provisionee_listen
                0x0003daac       0x34 examples/enocean_switch/CMakeFiles/enocean_switch_nrf52832_xxAA_s132_6.0.0.dir/__/__/mesh/prov/src/prov_provisionee.c.obj
                0x0003daac                prov_provisionee_listen
 .text.prov_provisionee_auth_data
                0x0003dae0      0x104 examples/enocean_switch/CMakeFiles/enocean_switch_nrf52832_xxAA_s132_6.0.0.dir/__/__/mesh/prov/src/prov_provisionee.c.obj
                0x0003dae0                prov_provisionee_auth_data
 .text.bearer_compare_callback
                0x0003dbe4       0x10 examples/enocean_switch/CMakeFiles/enocean_switch_nrf52832_xxAA_s132_6.0.0.dir/__/__/mesh/prov/src/nrf_mesh_prov.c.obj
 .text.nrf_mesh_prov_init
                0x0003dbf4       0x3c examples/enocean_switch/CMakeFiles/enocean_switch_nrf52832_xxAA_s132_6.0.0.dir/__/__/mesh/prov/src/nrf_mesh_prov.c.obj
                0x0003dbf4                nrf_mesh_prov_init
 .text.nrf_mesh_prov_bearer_add
                0x0003dc30       0x2c examples/enocean_switch/CMakeFiles/enocean_switch_nrf52832_xxAA_s132_6.0.0.dir/__/__/mesh/prov/src/nrf_mesh_prov.c.obj
                0x0003dc30                nrf_mesh_prov_bearer_add
 .text.nrf_mesh_prov_generate_keys
                0x0003dc5c        0x4 examples/enocean_switch/CMakeFiles/enocean_switch_nrf52832_xxAA_s132_6.0.0.dir/__/__/mesh/prov/src/nrf_mesh_prov.c.obj
                0x0003dc5c                nrf_mesh_prov_generate_keys
 .text.nrf_mesh_prov_listen
                0x0003dc60       0xf8 examples/enocean_switch/CMakeFiles/enocean_switch_nrf52832_xxAA_s132_6.0.0.dir/__/__/mesh/prov/src/nrf_mesh_prov.c.obj
                0x0003dc60                nrf_mesh_prov_listen
 .text.nrf_mesh_prov_auth_data_provide
                0x0003dd58       0x10 examples/enocean_switch/CMakeFiles/enocean_switch_nrf52832_xxAA_s132_6.0.0.dir/__/__/mesh/prov/src/nrf_mesh_prov.c.obj
                0x0003dd58                nrf_mesh_prov_auth_data_provide
 .text.prov_packet_length_valid
                0x0003dd68       0x20 examples/enocean_switch/CMakeFiles/enocean_switch_nrf52832_xxAA_s132_6.0.0.dir/__/__/mesh/prov/src/provisioning.c.obj
                0x0003dd68                prov_packet_length_valid
 .text.prov_tx_capabilities
                0x0003dd88       0x38 examples/enocean_switch/CMakeFiles/enocean_switch_nrf52832_xxAA_s132_6.0.0.dir/__/__/mesh/prov/src/provisioning.c.obj
                0x0003dd88                prov_tx_capabilities
 .text.prov_tx_public_key
                0x0003ddc0       0x30 examples/enocean_switch/CMakeFiles/enocean_switch_nrf52832_xxAA_s132_6.0.0.dir/__/__/mesh/prov/src/provisioning.c.obj
                0x0003ddc0                prov_tx_public_key
 .text.prov_tx_input_complete
                0x0003ddf0       0x28 examples/enocean_switch/CMakeFiles/enocean_switch_nrf52832_xxAA_s132_6.0.0.dir/__/__/mesh/prov/src/provisioning.c.obj
                0x0003ddf0                prov_tx_input_complete
 .text.prov_tx_confirmation
                0x0003de18       0x30 examples/enocean_switch/CMakeFiles/enocean_switch_nrf52832_xxAA_s132_6.0.0.dir/__/__/mesh/prov/src/provisioning.c.obj
                0x0003de18                prov_tx_confirmation
 .text.prov_tx_random
                0x0003de48       0x30 examples/enocean_switch/CMakeFiles/enocean_switch_nrf52832_xxAA_s132_6.0.0.dir/__/__/mesh/prov/src/provisioning.c.obj
                0x0003de48                prov_tx_random
 .text.prov_tx_complete
                0x0003de78       0x28 examples/enocean_switch/CMakeFiles/enocean_switch_nrf52832_xxAA_s132_6.0.0.dir/__/__/mesh/prov/src/provisioning.c.obj
                0x0003de78                prov_tx_complete
 .text.prov_tx_failed
                0x0003dea0       0x2c examples/enocean_switch/CMakeFiles/enocean_switch_nrf52832_xxAA_s132_6.0.0.dir/__/__/mesh/prov/src/provisioning.c.obj
                0x0003dea0                prov_tx_failed
 .text.prov_beacon_unprov_build
                0x0003decc       0x54 examples/enocean_switch/CMakeFiles/enocean_switch_nrf52832_xxAA_s132_6.0.0.dir/__/__/mesh/prov/src/prov_beacon.c.obj
                0x0003decc                prov_beacon_unprov_build
 .text.prov_beacon_unprov_packet_in
                0x0003df20       0xd4 examples/enocean_switch/CMakeFiles/enocean_switch_nrf52832_xxAA_s132_6.0.0.dir/__/__/mesh/prov/src/prov_beacon.c.obj
                0x0003df20                prov_beacon_unprov_packet_in
 .text.prov_utils_opt_set
                0x0003dff4       0x24 examples/enocean_switch/CMakeFiles/enocean_switch_nrf52832_xxAA_s132_6.0.0.dir/__/__/mesh/prov/src/prov_utils.c.obj
                0x0003dff4                prov_utils_opt_set
 .text.prov_utils_opt_get
                0x0003e018       0x1c examples/enocean_switch/CMakeFiles/enocean_switch_nrf52832_xxAA_s132_6.0.0.dir/__/__/mesh/prov/src/prov_utils.c.obj
                0x0003e018                prov_utils_opt_get
 .text.prov_utils_use_ecdh_offloading
                0x0003e034        0xc examples/enocean_switch/CMakeFiles/enocean_switch_nrf52832_xxAA_s132_6.0.0.dir/__/__/mesh/prov/src/prov_utils.c.obj
                0x0003e034                prov_utils_use_ecdh_offloading
 .text.prov_utils_authentication_values_derive
                0x0003e040       0xa8 examples/enocean_switch/CMakeFiles/enocean_switch_nrf52832_xxAA_s132_6.0.0.dir/__/__/mesh/prov/src/prov_utils.c.obj
                0x0003e040                prov_utils_authentication_values_derive
 .text.prov_utils_keys_generate
                0x0003e0e8       0x20 examples/enocean_switch/CMakeFiles/enocean_switch_nrf52832_xxAA_s132_6.0.0.dir/__/__/mesh/prov/src/prov_utils.c.obj
                0x0003e0e8                prov_utils_keys_generate
 .text.prov_utils_derive_keys
                0x0003e108       0xb4 examples/enocean_switch/CMakeFiles/enocean_switch_nrf52832_xxAA_s132_6.0.0.dir/__/__/mesh/prov/src/prov_utils.c.obj
                0x0003e108                prov_utils_derive_keys
 .text.prov_utils_calculate_shared_secret
                0x0003e1bc       0x38 examples/enocean_switch/CMakeFiles/enocean_switch_nrf52832_xxAA_s132_6.0.0.dir/__/__/mesh/prov/src/prov_utils.c.obj
                0x0003e1bc                prov_utils_calculate_shared_secret
 .text.prov_utils_generate_oob_data
                0x0003e1f4      0x1b8 examples/enocean_switch/CMakeFiles/enocean_switch_nrf52832_xxAA_s132_6.0.0.dir/__/__/mesh/prov/src/prov_utils.c.obj
                0x0003e1f4                prov_utils_generate_oob_data
 .text.prov_utils_confirmation_check
                0x0003e3ac       0x5c examples/enocean_switch/CMakeFiles/enocean_switch_nrf52832_xxAA_s132_6.0.0.dir/__/__/mesh/prov/src/prov_utils.c.obj
                0x0003e3ac                prov_utils_confirmation_check
 .text.link_timeout_cb
                0x0003e408       0x10 examples/enocean_switch/CMakeFiles/enocean_switch_nrf52832_xxAA_s132_6.0.0.dir/__/__/mesh/prov/src/prov_bearer_adv.c.obj
 .text.prov_bearer_adv_listen_stop
                0x0003e418       0x8c examples/enocean_switch/CMakeFiles/enocean_switch_nrf52832_xxAA_s132_6.0.0.dir/__/__/mesh/prov/src/prov_bearer_adv.c.obj
 .text.tx_complete_cb
                0x0003e4a4       0x20 examples/enocean_switch/CMakeFiles/enocean_switch_nrf52832_xxAA_s132_6.0.0.dir/__/__/mesh/prov/src/prov_bearer_adv.c.obj
 .text.prov_bearer_adv_listen
                0x0003e4c4      0x160 examples/enocean_switch/CMakeFiles/enocean_switch_nrf52832_xxAA_s132_6.0.0.dir/__/__/mesh/prov/src/prov_bearer_adv.c.obj
 .text.prov_buffer_tx
                0x0003e624      0x1d8 examples/enocean_switch/CMakeFiles/enocean_switch_nrf52832_xxAA_s132_6.0.0.dir/__/__/mesh/prov/src/prov_bearer_adv.c.obj
 .text.close_link
                0x0003e7fc       0xc0 examples/enocean_switch/CMakeFiles/enocean_switch_nrf52832_xxAA_s132_6.0.0.dir/__/__/mesh/prov/src/prov_bearer_adv.c.obj
 .text.async_process
                0x0003e8bc       0x60 examples/enocean_switch/CMakeFiles/enocean_switch_nrf52832_xxAA_s132_6.0.0.dir/__/__/mesh/prov/src/prov_bearer_adv.c.obj
 .text.prov_bearer_adv_tx
                0x0003e91c       0xe4 examples/enocean_switch/CMakeFiles/enocean_switch_nrf52832_xxAA_s132_6.0.0.dir/__/__/mesh/prov/src/prov_bearer_adv.c.obj
 .text.send_link_ack
                0x0003ea00       0x80 examples/enocean_switch/CMakeFiles/enocean_switch_nrf52832_xxAA_s132_6.0.0.dir/__/__/mesh/prov/src/prov_bearer_adv.c.obj
 .text.tx_retry_cb
                0x0003ea80      0x13c examples/enocean_switch/CMakeFiles/enocean_switch_nrf52832_xxAA_s132_6.0.0.dir/__/__/mesh/prov/src/prov_bearer_adv.c.obj
 .text.send_transaction_ack
                0x0003ebbc       0x68 examples/enocean_switch/CMakeFiles/enocean_switch_nrf52832_xxAA_s132_6.0.0.dir/__/__/mesh/prov/src/prov_bearer_adv.c.obj
 .text.prov_buffer_rx
                0x0003ec24       0x9c examples/enocean_switch/CMakeFiles/enocean_switch_nrf52832_xxAA_s132_6.0.0.dir/__/__/mesh/prov/src/prov_bearer_adv.c.obj
 .text.prov_bearer_adv_link_open
                0x0003ecc0      0x1c0 examples/enocean_switch/CMakeFiles/enocean_switch_nrf52832_xxAA_s132_6.0.0.dir/__/__/mesh/prov/src/prov_bearer_adv.c.obj
 .text.prov_bearer_adv_link_close
                0x0003ee80       0xd8 examples/enocean_switch/CMakeFiles/enocean_switch_nrf52832_xxAA_s132_6.0.0.dir/__/__/mesh/prov/src/prov_bearer_adv.c.obj
 .text.nrf_mesh_prov_bearer_adv_interface_get
                0x0003ef58       0x40 examples/enocean_switch/CMakeFiles/enocean_switch_nrf52832_xxAA_s132_6.0.0.dir/__/__/mesh/prov/src/prov_bearer_adv.c.obj
                0x0003ef58                nrf_mesh_prov_bearer_adv_interface_get
 .text.prov_bearer_adv_packet_in
                0x0003ef98      0x950 examples/enocean_switch/CMakeFiles/enocean_switch_nrf52832_xxAA_s132_6.0.0.dir/__/__/mesh/prov/src/prov_bearer_adv.c.obj
                0x0003ef98                prov_bearer_adv_packet_in
 .text.SystemInit
                0x0003f8e8      0x3cc examples/enocean_switch/CMakeFiles/enocean_switch_nrf52832_xxAA_s132_6.0.0.dir/C_/ver/mod/nRF5_SDK_15.0.0_a53641a/modules/nrfx/mdk/system_nrf52.c.obj
                0x0003f8e8                SystemInit
 .text          0x0003fcb4       0x3c examples/enocean_switch/CMakeFiles/enocean_switch_nrf52832_xxAA_s132_6.0.0.dir/C_/ver/mod/nRF5_SDK_15.0.0_a53641a/modules/nrfx/mdk/gcc_startup_nrf52.S.obj
                0x0003fcb4                Reset_Handler
                0x0003fcdc                NMI_Handler
                0x0003fcde                HardFault_Handler
                0x0003fce0                MemoryManagement_Handler
                0x0003fce2                BusFault_Handler
                0x0003fce4                UsageFault_Handler
                0x0003fce6                SVC_Handler
                0x0003fce8                DebugMon_Handler
                0x0003fcea                PendSV_Handler
                0x0003fcec                SysTick_Handler
                0x0003fcee                PDM_IRQHandler
                0x0003fcee                TEMP_IRQHandler
                0x0003fcee                TIMER3_IRQHandler
                0x0003fcee                FPU_IRQHandler
                0x0003fcee                SPIM0_SPIS0_TWIM0_TWIS0_SPI0_TWI0_IRQHandler
                0x0003fcee                RADIO_IRQHandler
                0x0003fcee                UARTE0_UART0_IRQHandler
                0x0003fcee                TIMER4_IRQHandler
                0x0003fcee                I2S_IRQHandler
                0x0003fcee                SWI4_EGU4_IRQHandler
                0x0003fcee                TIMER0_IRQHandler
                0x0003fcee                RTC0_IRQHandler
                0x0003fcee                TIMER1_IRQHandler
                0x0003fcee                POWER_CLOCK_IRQHandler
                0x0003fcee                ECB_IRQHandler
                0x0003fcee                SPIM1_SPIS1_TWIM1_TWIS1_SPI1_TWI1_IRQHandler
                0x0003fcee                Default_Handler
                0x0003fcee                SAADC_IRQHandler
                0x0003fcee                CCM_AAR_IRQHandler
                0x0003fcee                WDT_IRQHandler
                0x0003fcee                SWI0_EGU0_IRQHandler
                0x0003fcee                SWI5_EGU5_IRQHandler
                0x0003fcee                RNG_IRQHandler
                0x0003fcee                RTC2_IRQHandler
                0x0003fcee                PWM0_IRQHandler
                0x0003fcee                SWI3_EGU3_IRQHandler
                0x0003fcee                RTC1_IRQHandler
                0x0003fcee                SWI1_EGU1_IRQHandler
                0x0003fcee                SPIM2_SPIS2_SPI2_IRQHandler
                0x0003fcee                NFCT_IRQHandler
                0x0003fcee                PWM1_IRQHandler
                0x0003fcee                MWU_IRQHandler
                0x0003fcee                PWM2_IRQHandler
                0x0003fcee                COMP_LPCOMP_IRQHandler
 .text.app_error_handler_bare
                0x0003fcf0       0x20 examples/enocean_switch/CMakeFiles/enocean_switch_nrf52832_xxAA_s132_6.0.0.dir/C_/ver/mod/nRF5_SDK_15.0.0_a53641a/components/libraries/util/app_error.c.obj
                0x0003fcf0                app_error_handler_bare
 .text.app_error_handler
                0x0003fd10       0x1c examples/enocean_switch/CMakeFiles/enocean_switch_nrf52832_xxAA_s132_6.0.0.dir/C_/ver/mod/nRF5_SDK_15.0.0_a53641a/components/libraries/util/app_error_handler_gcc.c.obj
                0x0003fd10                app_error_handler
 .text.SEGGER_RTT_Write
                0x0003fd2c      0x1e4 external/rtt/librtt_nrf52832_xxAA.a(SEGGER_RTT.c.obj)
                0x0003fd2c                SEGGER_RTT_Write
 .text.SEGGER_RTT_GetKey
                0x0003ff10       0xec external/rtt/librtt_nrf52832_xxAA.a(SEGGER_RTT.c.obj)
                0x0003ff10                SEGGER_RTT_GetKey
 .text._PrintUnsigned
                0x0003fffc      0x194 external/rtt/librtt_nrf52832_xxAA.a(SEGGER_RTT_printf.c.obj)
 .text.SEGGER_RTT_vprintf
                0x00040190      0x464 external/rtt/librtt_nrf52832_xxAA.a(SEGGER_RTT_printf.c.obj)
                0x00040190                SEGGER_RTT_vprintf
 .text.SEGGER_RTT_printf
                0x000405f4       0x20 external/rtt/librtt_nrf52832_xxAA.a(SEGGER_RTT_printf.c.obj)
                0x000405f4                SEGGER_RTT_printf
 .text.default_RNG
                0x00040614        0xc external/micro-ecc/libuECC_nrf52832_xxAA.a(uECC.c.obj)
 .text.uECC_generate_random_int
                0x00040620      0x170 external/micro-ecc/libuECC_nrf52832_xxAA.a(uECC.c.obj)
 .text.apply_z  0x00040790      0x1a8 external/micro-ecc/libuECC_nrf52832_xxAA.a(uECC.c.obj)
 .text.uECC_vli_modAdd
                0x00040938       0xc8 external/micro-ecc/libuECC_nrf52832_xxAA.a(uECC.c.obj)
 .text.x_side_default
                0x00040a00      0x254 external/micro-ecc/libuECC_nrf52832_xxAA.a(uECC.c.obj)
 .text.vli_mmod_fast_secp256r1
                0x00040c54      0x520 external/micro-ecc/libuECC_nrf52832_xxAA.a(uECC.c.obj)
 .text.XYcZ_add
                0x00041174      0x6dc external/micro-ecc/libuECC_nrf52832_xxAA.a(uECC.c.obj)
 .text.XYcZ_addC
                0x00041850      0xa94 external/micro-ecc/libuECC_nrf52832_xxAA.a(uECC.c.obj)
 .text.uECC_vli_modInv.part.4
                0x000422e4      0x6e8 external/micro-ecc/libuECC_nrf52832_xxAA.a(uECC.c.obj)
 .text.EccPoint_mult.constprop.5
                0x000429cc      0x470 external/micro-ecc/libuECC_nrf52832_xxAA.a(uECC.c.obj)
 .text.double_jacobian_default
                0x00042e3c      0x7ec external/micro-ecc/libuECC_nrf52832_xxAA.a(uECC.c.obj)
 .text.uECC_secp256r1
                0x00043628        0x8 external/micro-ecc/libuECC_nrf52832_xxAA.a(uECC.c.obj)
                0x00043628                uECC_secp256r1
 .text.uECC_make_key
                0x00043630      0x23c external/micro-ecc/libuECC_nrf52832_xxAA.a(uECC.c.obj)
                0x00043630                uECC_make_key
 .text.uECC_shared_secret
                0x0004386c      0x788 external/micro-ecc/libuECC_nrf52832_xxAA.a(uECC.c.obj)
                0x0004386c                uECC_shared_secret
 .text.uECC_valid_point
                0x00043ff4      0x134 external/micro-ecc/libuECC_nrf52832_xxAA.a(uECC.c.obj)
                0x00043ff4                uECC_valid_point
 .text.uECC_valid_public_key
                0x00044128       0xe8 external/micro-ecc/libuECC_nrf52832_xxAA.a(uECC.c.obj)
                0x00044128                uECC_valid_public_key
 .text          0x00044210       0x30 c:/mesh/arm_gcc/bin/../lib/gcc/arm-none-eabi/6.3.1/thumb/v7e-m/fpv4-sp/hard\libgcc.a(_aeabi_uldivmod.o)
                0x00044210                __aeabi_uldivmod
 .text          0x00044240      0x2dc c:/mesh/arm_gcc/bin/../lib/gcc/arm-none-eabi/6.3.1/thumb/v7e-m/fpv4-sp/hard\libgcc.a(_udivmoddi4.o)
                0x00044240                __udivmoddi4
 .text          0x0004451c        0x4 c:/mesh/arm_gcc/bin/../lib/gcc/arm-none-eabi/6.3.1/thumb/v7e-m/fpv4-sp/hard\libgcc.a(_dvmd_tls.o)
                0x0004451c                __aeabi_idiv0
                0x0004451c                __aeabi_ldiv0
 .text.exit     0x00044520       0x28 c:/mesh/arm_gcc/bin/../lib/gcc/arm-none-eabi/6.3.1/../../../../arm-none-eabi/lib/thumb/v7e-m/fpv4-sp/hard\libc_nano.a(lib_a-exit.o)
                0x00044520                exit
 .text.__libc_init_array
                0x00044548       0x48 c:/mesh/arm_gcc/bin/../lib/gcc/arm-none-eabi/6.3.1/../../../../arm-none-eabi/lib/thumb/v7e-m/fpv4-sp/hard\libc_nano.a(lib_a-init.o)
                0x00044548                __libc_init_array
 .text.malloc   0x00044590       0x10 c:/mesh/arm_gcc/bin/../lib/gcc/arm-none-eabi/6.3.1/../../../../arm-none-eabi/lib/thumb/v7e-m/fpv4-sp/hard\libc_nano.a(lib_a-malloc.o)
                0x00044590                malloc
 .text.free     0x000445a0       0x10 c:/mesh/arm_gcc/bin/../lib/gcc/arm-none-eabi/6.3.1/../../../../arm-none-eabi/lib/thumb/v7e-m/fpv4-sp/hard\libc_nano.a(lib_a-malloc.o)
                0x000445a0                free
 .text.memcmp   0x000445b0       0x1e c:/mesh/arm_gcc/bin/../lib/gcc/arm-none-eabi/6.3.1/../../../../arm-none-eabi/lib/thumb/v7e-m/fpv4-sp/hard\libc_nano.a(lib_a-memcmp.o)
                0x000445b0                memcmp
 .text.memcpy   0x000445ce       0x16 c:/mesh/arm_gcc/bin/../lib/gcc/arm-none-eabi/6.3.1/../../../../arm-none-eabi/lib/thumb/v7e-m/fpv4-sp/hard\libc_nano.a(lib_a-memcpy-stub.o)
                0x000445ce                memcpy
 .text.memset   0x000445e4       0x10 c:/mesh/arm_gcc/bin/../lib/gcc/arm-none-eabi/6.3.1/../../../../arm-none-eabi/lib/thumb/v7e-m/fpv4-sp/hard\libc_nano.a(lib_a-memset.o)
                0x000445e4                memset
 .text._free_r  0x000445f4       0x9c c:/mesh/arm_gcc/bin/../lib/gcc/arm-none-eabi/6.3.1/../../../../arm-none-eabi/lib/thumb/v7e-m/fpv4-sp/hard\libc_nano.a(lib_a-nano-freer.o)
                0x000445f4                _free_r
 .text._malloc_r
                0x00044690       0xbc c:/mesh/arm_gcc/bin/../lib/gcc/arm-none-eabi/6.3.1/../../../../arm-none-eabi/lib/thumb/v7e-m/fpv4-sp/hard\libc_nano.a(lib_a-nano-mallocr.o)
                0x00044690                _malloc_r
 .text._sbrk_r  0x0004474c       0x20 c:/mesh/arm_gcc/bin/../lib/gcc/arm-none-eabi/6.3.1/../../../../arm-none-eabi/lib/thumb/v7e-m/fpv4-sp/hard\libc_nano.a(lib_a-sbrkr.o)
                0x0004474c                _sbrk_r
 .text.strcpy   0x0004476c       0x10 c:/mesh/arm_gcc/bin/../lib/gcc/arm-none-eabi/6.3.1/../../../../arm-none-eabi/lib/thumb/v7e-m/fpv4-sp/hard\libc_nano.a(lib_a-strcpy.o)
                0x0004476c                strcpy
 .text          0x0004477c       0x10 c:/mesh/arm_gcc/bin/../lib/gcc/arm-none-eabi/6.3.1/../../../../arm-none-eabi/lib/thumb/v7e-m/fpv4-sp/hard\libc_nano.a(lib_a-strlen.o)
                0x0004477c                strlen
 .text.strrchr  0x0004478c       0x26 c:/mesh/arm_gcc/bin/../lib/gcc/arm-none-eabi/6.3.1/../../../../arm-none-eabi/lib/thumb/v7e-m/fpv4-sp/hard\libc_nano.a(lib_a-strrchr.o)
                0x0004478c                strrchr
 .text.__malloc_lock
                0x000447b2        0x2 c:/mesh/arm_gcc/bin/../lib/gcc/arm-none-eabi/6.3.1/../../../../arm-none-eabi/lib/thumb/v7e-m/fpv4-sp/hard\libc_nano.a(lib_a-mlock.o)
                0x000447b2                __malloc_lock
 .text.__malloc_unlock
                0x000447b4        0x2 c:/mesh/arm_gcc/bin/../lib/gcc/arm-none-eabi/6.3.1/../../../../arm-none-eabi/lib/thumb/v7e-m/fpv4-sp/hard\libc_nano.a(lib_a-mlock.o)
                0x000447b4                __malloc_unlock
 .text.strchr   0x000447b6       0x1c c:/mesh/arm_gcc/bin/../lib/gcc/arm-none-eabi/6.3.1/../../../../arm-none-eabi/lib/thumb/v7e-m/fpv4-sp/hard\libc_nano.a(lib_a-strchr.o)
                0x000447b6                strchr
 *fill*         0x000447d2        0x2 
 .text._sbrk    0x000447d4       0x1c c:/mesh/arm_gcc/bin/../lib/gcc/arm-none-eabi/6.3.1/../../../../arm-none-eabi/lib/thumb/v7e-m/fpv4-sp/hard\libnosys.a(sbrk.o)
                0x000447d4                _sbrk
 .text._exit    0x000447f0        0x4 c:/mesh/arm_gcc/bin/../lib/gcc/arm-none-eabi/6.3.1/../../../../arm-none-eabi/lib/thumb/v7e-m/fpv4-sp/hard\libnosys.a(_exit.o)
                0x000447f0                _exit
 *(.init)
 .init          0x000447f4        0x4 c:/mesh/arm_gcc/bin/../lib/gcc/arm-none-eabi/6.3.1/thumb/v7e-m/fpv4-sp/hard/crti.o
                0x000447f4                _init
 .init          0x000447f8        0x8 c:/mesh/arm_gcc/bin/../lib/gcc/arm-none-eabi/6.3.1/thumb/v7e-m/fpv4-sp/hard/crtn.o
 *(.fini)
 .fini          0x00044800        0x4 c:/mesh/arm_gcc/bin/../lib/gcc/arm-none-eabi/6.3.1/thumb/v7e-m/fpv4-sp/hard/crti.o
                0x00044800                _fini
 .fini          0x00044804        0x8 c:/mesh/arm_gcc/bin/../lib/gcc/arm-none-eabi/6.3.1/thumb/v7e-m/fpv4-sp/hard/crtn.o
 *crtbegin.o(.ctors)
 *crtbegin?.o(.ctors)
 *(EXCLUDE_FILE(*crtend.o *crtend?.o) .ctors)
 *(SORT(.ctors.*))
 *(.ctors)
 *crtbegin.o(.dtors)
 *crtbegin?.o(.dtors)
 *(EXCLUDE_FILE(*crtend.o *crtend?.o) .dtors)
 *(SORT(.dtors.*))
 *(.dtors)
 *(.rodata*)
 .rodata        0x0004480c       0x10 examples/enocean_switch/CMakeFiles/enocean_switch_nrf52832_xxAA_s132_6.0.0.dir/src/main.c.obj
 .rodata.app_data_store_try.str1.4
                0x0004481c       0x8d examples/enocean_switch/CMakeFiles/enocean_switch_nrf52832_xxAA_s132_6.0.0.dir/src/main.c.obj
 *fill*         0x000448a9        0x3 
 .rodata.app_enocean_cb.str1.4
                0x000448ac       0x90 examples/enocean_switch/CMakeFiles/enocean_switch_nrf52832_xxAA_s132_6.0.0.dir/src/main.c.obj
 .rodata.app_mesh_core_event_cb.str1.4
                0x0004493c       0x5a examples/enocean_switch/CMakeFiles/enocean_switch_nrf52832_xxAA_s132_6.0.0.dir/src/main.c.obj
 *fill*         0x00044996        0x2 
 .rodata.button_event_handler.str1.4
                0x00044998       0x13 examples/enocean_switch/CMakeFiles/enocean_switch_nrf52832_xxAA_s132_6.0.0.dir/src/main.c.obj
 *fill*         0x000449ab        0x1 
 .rodata.client_status_cb.str1.4
                0x000449ac       0x2f examples/enocean_switch/CMakeFiles/enocean_switch_nrf52832_xxAA_s132_6.0.0.dir/src/main.c.obj
 *fill*         0x000449db        0x1 
 .rodata.main.str1.4
                0x000449dc       0x50 examples/enocean_switch/CMakeFiles/enocean_switch_nrf52832_xxAA_s132_6.0.0.dir/src/main.c.obj
 .rodata.models_init_cb.str1.4
                0x00044a2c       0x20 examples/enocean_switch/CMakeFiles/enocean_switch_nrf52832_xxAA_s132_6.0.0.dir/src/main.c.obj
 .rodata.node_reset.str1.4
                0x00044a4c       0x19 examples/enocean_switch/CMakeFiles/enocean_switch_nrf52832_xxAA_s132_6.0.0.dir/src/main.c.obj
 *fill*         0x00044a65        0x3 
 .rodata.provisioning_complete_cb.str1.4
                0x00044a68       0x5b examples/enocean_switch/CMakeFiles/enocean_switch_nrf52832_xxAA_s132_6.0.0.dir/src/main.c.obj
 *fill*         0x00044ac3        0x1 
 .rodata.static_auth_data.12615
                0x00044ac4       0x10 examples/enocean_switch/CMakeFiles/enocean_switch_nrf52832_xxAA_s132_6.0.0.dir/src/main.c.obj
 .rodata.enocean_packet_process.str1.4
                0x00044ad4       0x48 examples/enocean_switch/CMakeFiles/enocean_switch_nrf52832_xxAA_s132_6.0.0.dir/src/enocean.c.obj
 .rodata.app_flash_data_store.str1.4
                0x00044b1c        0xe examples/enocean_switch/CMakeFiles/enocean_switch_nrf52832_xxAA_s132_6.0.0.dir/src/flash_helper.c.obj
 *fill*         0x00044b2a        0x2 
 .rodata.app_flash_init.str1.4
                0x00044b2c       0x2a examples/enocean_switch/CMakeFiles/enocean_switch_nrf52832_xxAA_s132_6.0.0.dir/src/flash_helper.c.obj
 *fill*         0x00044b56        0x2 
 .rodata.flash_manager_mem_available.str1.4
                0x00044b58       0x45 examples/enocean_switch/CMakeFiles/enocean_switch_nrf52832_xxAA_s132_6.0.0.dir/src/flash_helper.c.obj
 *fill*         0x00044b9d        0x3 
 .rodata.flash_remove_complete.str1.4
                0x00044ba0       0x17 examples/enocean_switch/CMakeFiles/enocean_switch_nrf52832_xxAA_s132_6.0.0.dir/src/flash_helper.c.obj
 *fill*         0x00044bb7        0x1 
 .rodata.flash_reset.str1.4
                0x00044bb8        0xf examples/enocean_switch/CMakeFiles/enocean_switch_nrf52832_xxAA_s132_6.0.0.dir/src/flash_helper.c.obj
 *fill*         0x00044bc7        0x1 
 .rodata.flash_write_complete.str1.4
                0x00044bc8       0x16 examples/enocean_switch/CMakeFiles/enocean_switch_nrf52832_xxAA_s132_6.0.0.dir/src/flash_helper.c.obj
 *fill*         0x00044bde        0x2 
 .rodata.mesh_softdevice_init.str1.4
                0x00044be0       0xa9 examples/enocean_switch/CMakeFiles/enocean_switch_nrf52832_xxAA_s132_6.0.0.dir/__/common/src/mesh_softdevice_init.c.obj
 *fill*         0x00044c89        0x3 
 .rodata        0x00044c8c        0xb examples/enocean_switch/CMakeFiles/enocean_switch_nrf52832_xxAA_s132_6.0.0.dir/__/common/src/mesh_provisionee.c.obj
 *fill*         0x00044c97        0x9 
 .rodata.delay_bytecode.8414
                0x00044ca0        0x6 examples/enocean_switch/CMakeFiles/enocean_switch_nrf52832_xxAA_s132_6.0.0.dir/__/common/src/simple_hal.c.obj
 *fill*         0x00044ca6        0x2 
 .rodata.app_error_fault_handler.str1.4
                0x00044ca8       0xc5 examples/enocean_switch/CMakeFiles/enocean_switch_nrf52832_xxAA_s132_6.0.0.dir/__/common/src/app_error_weak.c.obj
 .rodata.mesh_assertion_handler.str1.4
                0x00044d6d       0xc5 examples/enocean_switch/CMakeFiles/enocean_switch_nrf52832_xxAA_s132_6.0.0.dir/__/common/src/assertion_handler_weak.c.obj
                                  0x1 (size before relaxing)
 *fill*         0x00044d6d        0x3 
 .rodata.sar_ctx_cancel.str1.4
                0x00044d70       0x23 examples/enocean_switch/CMakeFiles/enocean_switch_nrf52832_xxAA_s132_6.0.0.dir/__/__/mesh/core/src/transport.c.obj
 *fill*         0x00044d93        0x1 
 .rodata.transport_packet_in.str1.4
                0x00044d94       0x24 examples/enocean_switch/CMakeFiles/enocean_switch_nrf52832_xxAA_s132_6.0.0.dir/__/__/mesh/core/src/transport.c.obj
 .rodata.upper_transport_access_packet_in.str1.4
                0x00044db8       0x3d examples/enocean_switch/CMakeFiles/enocean_switch_nrf52832_xxAA_s132_6.0.0.dir/__/__/mesh/core/src/transport.c.obj
 *fill*         0x00044df5        0x3 
 .rodata.upper_transport_packet_in.str1.4
                0x00044df8       0x2e examples/enocean_switch/CMakeFiles/enocean_switch_nrf52832_xxAA_s132_6.0.0.dir/__/__/mesh/core/src/transport.c.obj
 *fill*         0x00044e26        0x2 
 .rodata.upper_transport_tx.part.25.str1.4
                0x00044e28       0x2e examples/enocean_switch/CMakeFiles/enocean_switch_nrf52832_xxAA_s132_6.0.0.dir/__/__/mesh/core/src/transport.c.obj
                                 0x38 (size before relaxing)
 *fill*         0x00044e56        0x2 
 .rodata.m_procedure_steps
                0x00044e58       0x28 examples/enocean_switch/CMakeFiles/enocean_switch_nrf52832_xxAA_s132_6.0.0.dir/__/__/mesh/core/src/flash_manager_defrag.c.obj
 .rodata.m_all_operations
                0x00044e80       0x10 examples/enocean_switch/CMakeFiles/enocean_switch_nrf52832_xxAA_s132_6.0.0.dir/__/__/mesh/core/src/mesh_flash.c.obj
 .rodata.types_lookup.9059
                0x00044e90        0x4 examples/enocean_switch/CMakeFiles/enocean_switch_nrf52832_xxAA_s132_6.0.0.dir/__/__/mesh/core/src/nrf_mesh_utils.c.obj
 .rodata.__func__.11531
                0x00044e94       0x15 examples/enocean_switch/CMakeFiles/enocean_switch_nrf52832_xxAA_s132_6.0.0.dir/__/__/mesh/core/src/nrf_mesh.c.obj
 *fill*         0x00044ea9        0x3 
 .rodata.nrf_mesh_listen.str1.4
                0x00044eac       0x73 examples/enocean_switch/CMakeFiles/enocean_switch_nrf52832_xxAA_s132_6.0.0.dir/__/__/mesh/core/src/nrf_mesh.c.obj
 .rodata.nrf_mesh_packet_send.str1.4
                0x00044f1f       0x73 examples/enocean_switch/CMakeFiles/enocean_switch_nrf52832_xxAA_s132_6.0.0.dir/__/__/mesh/core/src/nrf_mesh.c.obj
                                  0x4 (size before relaxing)
 *fill*         0x00044f1f        0x1 
 .rodata.CSWTCH.8
                0x00044f20       0x20 examples/enocean_switch/CMakeFiles/enocean_switch_nrf52832_xxAA_s132_6.0.0.dir/__/__/mesh/core/src/hal.c.obj
 .rodata        0x00044f40       0x18 examples/enocean_switch/CMakeFiles/enocean_switch_nrf52832_xxAA_s132_6.0.0.dir/__/__/mesh/core/src/enc.c.obj
 .rodata.network_packet_in.str1.4
                0x00044f58       0x49 examples/enocean_switch/CMakeFiles/enocean_switch_nrf52832_xxAA_s132_6.0.0.dir/__/__/mesh/core/src/network.c.obj
 *fill*         0x00044fa1        0x3 
 .rodata.net_packet_decrypt.str1.4
                0x00044fa4       0x33 examples/enocean_switch/CMakeFiles/enocean_switch_nrf52832_xxAA_s132_6.0.0.dir/__/__/mesh/core/src/net_packet.c.obj
                                 0x3c (size before relaxing)
 *fill*         0x00044fd7        0x1 
 .rodata        0x00044fd8        0x7 examples/enocean_switch/CMakeFiles/enocean_switch_nrf52832_xxAA_s132_6.0.0.dir/__/__/mesh/core/src/nrf_mesh_keygen.c.obj
 *fill*         0x00044fdf        0x1 
 .rodata.log_callback_rtt.str1.4
                0x00044fe0       0x15 examples/enocean_switch/CMakeFiles/enocean_switch_nrf52832_xxAA_s132_6.0.0.dir/__/__/mesh/core/src/log.c.obj
 *fill*         0x00044ff5        0x3 
 .rodata.str1.4
                0x00044ff8       0x11 examples/enocean_switch/CMakeFiles/enocean_switch_nrf52832_xxAA_s132_6.0.0.dir/__/__/mesh/core/src/log.c.obj
 *fill*         0x00045009        0x3 
 .rodata.INVALID_HEADER
                0x0004500c        0x4 examples/enocean_switch/CMakeFiles/enocean_switch_nrf52832_xxAA_s132_6.0.0.dir/__/__/mesh/core/src/flash_manager.c.obj
                0x0004500c                INVALID_HEADER
 .rodata.PADDING_HEADER
                0x00045010        0x4 examples/enocean_switch/CMakeFiles/enocean_switch_nrf52832_xxAA_s132_6.0.0.dir/__/__/mesh/core/src/flash_manager.c.obj
                0x00045010                PADDING_HEADER
 .rodata.SEAL_HEADER
                0x00045014        0x4 examples/enocean_switch/CMakeFiles/enocean_switch_nrf52832_xxAA_s132_6.0.0.dir/__/__/mesh/core/src/flash_manager.c.obj
                0x00045014                SEAL_HEADER
 .rodata.beacon_packet_in.str1.4
                0x00045018       0x55 examples/enocean_switch/CMakeFiles/enocean_switch_nrf52832_xxAA_s132_6.0.0.dir/__/__/mesh/core/src/beacon.c.obj
                                 0x60 (size before relaxing)
 *fill*         0x0004506d        0x3 
 .rodata.cp_handler
                0x00045070        0x8 examples/enocean_switch/CMakeFiles/enocean_switch_nrf52832_xxAA_s132_6.0.0.dir/__/__/mesh/core/src/heartbeat.c.obj
 .rodata.beacon_tx.str1.4
                0x00045078       0x37 examples/enocean_switch/CMakeFiles/enocean_switch_nrf52832_xxAA_s132_6.0.0.dir/__/__/mesh/core/src/net_beacon.c.obj
 *fill*         0x000450af        0x1 
 .rodata.net_beacon_init.str1.4
                0x000450b0        0x5 examples/enocean_switch/CMakeFiles/enocean_switch_nrf52832_xxAA_s132_6.0.0.dir/__/__/mesh/core/src/net_beacon.c.obj
 *fill*         0x000450b5        0x3 
 .rodata.m_interface
                0x000450b8        0xc examples/enocean_switch/CMakeFiles/enocean_switch_nrf52832_xxAA_s132_6.0.0.dir/__/__/mesh/core/src/core_tx_adv.c.obj
 .rodata.radio_mode_to_us_per_byte.9452
                0x000450c4        0x6 examples/enocean_switch/CMakeFiles/enocean_switch_nrf52832_xxAA_s132_6.0.0.dir/__/__/mesh/bearer/src/broadcast.c.obj
 *fill*         0x000450ca        0x2 
 .rodata.channel_rf_offsets.8693
                0x000450cc       0x28 examples/enocean_switch/CMakeFiles/enocean_switch_nrf52832_xxAA_s132_6.0.0.dir/__/__/mesh/bearer/src/radio_config.c.obj
 .rodata.m_opcode_handlers
                0x000450f4        0x8 examples/enocean_switch/CMakeFiles/enocean_switch_nrf52832_xxAA_s132_6.0.0.dir/__/__/models/simple_on_off/src/simple_on_off_client.c.obj
 .rodata        0x000450fc        0x8 examples/enocean_switch/CMakeFiles/enocean_switch_nrf52832_xxAA_s132_6.0.0.dir/__/__/models/config/src/config_server.c.obj
 .rodata.CSWTCH.122
                0x00045104       0x10 examples/enocean_switch/CMakeFiles/enocean_switch_nrf52832_xxAA_s132_6.0.0.dir/__/__/models/config/src/config_server.c.obj
 .rodata.opcode_handlers
                0x00045114      0x170 examples/enocean_switch/CMakeFiles/enocean_switch_nrf52832_xxAA_s132_6.0.0.dir/__/__/models/config/src/config_server.c.obj
 .rodata.m_opcode_handlers
                0x00045284       0x58 examples/enocean_switch/CMakeFiles/enocean_switch_nrf52832_xxAA_s132_6.0.0.dir/__/__/models/health/src/health_server.c.obj
 .rodata.multiply_de_bruijn_bit_position.9304
                0x000452dc       0x20 examples/enocean_switch/CMakeFiles/enocean_switch_nrf52832_xxAA_s132_6.0.0.dir/__/__/models/health/src/health_server.c.obj
 .rodata.access_model_publish.str1.4
                0x000452fc       0x1c examples/enocean_switch/CMakeFiles/enocean_switch_nrf52832_xxAA_s132_6.0.0.dir/__/__/mesh/access/src/access.c.obj
                                 0x24 (size before relaxing)
 .rodata.mesh_evt_cb.str1.4
                0x00045318       0x2f examples/enocean_switch/CMakeFiles/enocean_switch_nrf52832_xxAA_s132_6.0.0.dir/__/__/mesh/access/src/access.c.obj
 *fill*         0x00045347        0x1 
 .rodata.multiply_de_bruijn_bit_position.9260
                0x00045348       0x20 examples/enocean_switch/CMakeFiles/enocean_switch_nrf52832_xxAA_s132_6.0.0.dir/__/__/mesh/access/src/access.c.obj
 .rodata.m_flash_groups
                0x00045368       0xa8 examples/enocean_switch/CMakeFiles/enocean_switch_nrf52832_xxAA_s132_6.0.0.dir/__/__/mesh/access/src/device_state_manager.c.obj
 .rodata.multiply_de_bruijn_bit_position.9366
                0x00045410       0x20 examples/enocean_switch/CMakeFiles/enocean_switch_nrf52832_xxAA_s132_6.0.0.dir/__/__/mesh/access/src/device_state_manager.c.obj
 .rodata.m_prov_callbacks
                0x00045430       0x10 examples/enocean_switch/CMakeFiles/enocean_switch_nrf52832_xxAA_s132_6.0.0.dir/__/__/mesh/prov/src/prov_provisionee.c.obj
 .rodata.prov_provisionee_cb_ack_received.str1.4
                0x00045440       0x53 examples/enocean_switch/CMakeFiles/enocean_switch_nrf52832_xxAA_s132_6.0.0.dir/__/__/mesh/prov/src/prov_provisionee.c.obj
 *fill*         0x00045493        0x1 
 .rodata.multiply_de_bruijn_bit_position.9313
                0x00045494       0x20 examples/enocean_switch/CMakeFiles/enocean_switch_nrf52832_xxAA_s132_6.0.0.dir/__/__/mesh/prov/src/nrf_mesh_prov.c.obj
 .rodata.pdu_sizes.11238
                0x000454b4        0xa examples/enocean_switch/CMakeFiles/enocean_switch_nrf52832_xxAA_s132_6.0.0.dir/__/__/mesh/prov/src/provisioning.c.obj
 *fill*         0x000454be        0x2 
 .rodata.alphanumeric.11343
                0x000454c0       0x25 examples/enocean_switch/CMakeFiles/enocean_switch_nrf52832_xxAA_s132_6.0.0.dir/__/__/mesh/prov/src/prov_utils.c.obj
 *fill*         0x000454e5        0x3 
 .rodata.numeric_max.11337
                0x000454e8       0x24 examples/enocean_switch/CMakeFiles/enocean_switch_nrf52832_xxAA_s132_6.0.0.dir/__/__/mesh/prov/src/prov_utils.c.obj
 .rodata.prov_utils_authentication_values_derive.str1.4
                0x0004550c        0x5 examples/enocean_switch/CMakeFiles/enocean_switch_nrf52832_xxAA_s132_6.0.0.dir/__/__/mesh/prov/src/prov_utils.c.obj
 *fill*         0x00045511        0x3 
 .rodata.prov_utils_derive_keys.str1.4
                0x00045514       0x15 examples/enocean_switch/CMakeFiles/enocean_switch_nrf52832_xxAA_s132_6.0.0.dir/__/__/mesh/prov/src/prov_utils.c.obj
 *fill*         0x00045529        0x3 
 .rodata.crctable.10972
                0x0004552c      0x100 examples/enocean_switch/CMakeFiles/enocean_switch_nrf52832_xxAA_s132_6.0.0.dir/__/__/mesh/prov/src/prov_bearer_adv.c.obj
 .rodata.interface.11202
                0x0004562c       0x14 examples/enocean_switch/CMakeFiles/enocean_switch_nrf52832_xxAA_s132_6.0.0.dir/__/__/mesh/prov/src/prov_bearer_adv.c.obj
 .rodata.prov_bearer_adv_listen.str1.4
                0x00045640       0x50 examples/enocean_switch/CMakeFiles/enocean_switch_nrf52832_xxAA_s132_6.0.0.dir/__/__/mesh/prov/src/prov_bearer_adv.c.obj
 .rodata.prov_bearer_adv_packet_in.str1.4
                0x00045690      0x283 examples/enocean_switch/CMakeFiles/enocean_switch_nrf52832_xxAA_s132_6.0.0.dir/__/__/mesh/prov/src/prov_bearer_adv.c.obj
 *fill*         0x00045913        0x1 
 .rodata.tx_retry_cb.str1.4
                0x00045914       0x14 examples/enocean_switch/CMakeFiles/enocean_switch_nrf52832_xxAA_s132_6.0.0.dir/__/__/mesh/prov/src/prov_bearer_adv.c.obj
 .rodata.SEGGER_RTT_ReadNoLock.str1.4
                0x00045928       0x18 external/rtt/librtt_nrf52832_xxAA.a(SEGGER_RTT.c.obj)
                                 0x17 (size before relaxing)
 .rodata._aV2C.5497
                0x00045940       0x10 external/rtt/librtt_nrf52832_xxAA.a(SEGGER_RTT_printf.c.obj)
 .rodata.curve_secp256r1
                0x00045950       0xb0 external/micro-ecc/libuECC_nrf52832_xxAA.a(uECC.c.obj)
 .rodata._global_impure_ptr
                0x00045a00        0x4 c:/mesh/arm_gcc/bin/../lib/gcc/arm-none-eabi/6.3.1/../../../../arm-none-eabi/lib/thumb/v7e-m/fpv4-sp/hard\libc_nano.a(lib_a-impure.o)
                0x00045a00                _global_impure_ptr
 *(.eh_frame*)
 .eh_frame      0x00045a04        0x0 c:/mesh/arm_gcc/bin/../lib/gcc/arm-none-eabi/6.3.1/thumb/v7e-m/fpv4-sp/hard/crtbegin.o
 .eh_frame      0x00045a04        0x4 c:/mesh/arm_gcc/bin/../lib/gcc/arm-none-eabi/6.3.1/thumb/v7e-m/fpv4-sp/hard/crtend.o

.glue_7         0x00045a08        0x0
 .glue_7        0x00045a08        0x0 linker stubs

.glue_7t        0x00045a08        0x0
 .glue_7t       0x00045a08        0x0 linker stubs

.vfp11_veneer   0x00045a08        0x0
 .vfp11_veneer  0x00045a08        0x0 linker stubs

.v4_bx          0x00045a08        0x0
 .v4_bx         0x00045a08        0x0 linker stubs

.iplt           0x00045a08        0x0
 .iplt          0x00045a08        0x0 c:/mesh/arm_gcc/bin/../lib/gcc/arm-none-eabi/6.3.1/thumb/v7e-m/fpv4-sp/hard/crtbegin.o

.pwr_mgmt_data  0x00045a08        0x0
                [!provide]                PROVIDE (__start_pwr_mgmt_data, .)
 *(SORT(.pwr_mgmt_data*))
                [!provide]                PROVIDE (__stop_pwr_mgmt_data, .)

.log_const_data
                0x00045a08        0x0
                [!provide]                PROVIDE (__start_log_const_data, .)
 *(.log_const_data)
                [!provide]                PROVIDE (__stop_log_const_data, .)

.cli_command    0x00045a08        0x0
                [!provide]                PROVIDE (__start_cli_command, .)
 *(.cli_command)
                [!provide]                PROVIDE (__stop_cli_command, .)

.sdh_stack_observers
                0x00045a08        0x0
                [!provide]                PROVIDE (__start_sdh_stack_observers, .)
 *(SORT(.sdh_stack_observers*))
                [!provide]                PROVIDE (__stop_sdh_stack_observers, .)

.sdh_req_observers
                0x00045a08        0x0
                [!provide]                PROVIDE (__start_sdh_req_observers, .)
 *(SORT(.sdh_req_observers*))
                [!provide]                PROVIDE (__stop_sdh_req_observers, .)

.sdh_state_observers
                0x00045a08        0x0
                [!provide]                PROVIDE (__start_sdh_state_observers, .)
 *(SORT(.sdh_state_observers*))
                [!provide]                PROVIDE (__stop_sdh_state_observers, .)

.sdh_ant_observers
                0x00045a08        0x0
                [!provide]                PROVIDE (__start_sdh_ant_observers, .)
 *(SORT(.sdh_ant_observers*))
                [!provide]                PROVIDE (__stop_sdh_ant_observers, .)

.sdh_ble_observers
                0x00045a08        0x0
                [!provide]                PROVIDE (__start_sdh_ble_observers, .)
 *(SORT(.sdh_ble_observers*))
                [!provide]                PROVIDE (__stop_sdh_ble_observers, .)

.sdh_soc_observers
                0x00045a08        0x0
                [!provide]                PROVIDE (__start_sdh_soc_observers, .)
 *(SORT(.sdh_soc_observers*))
                [!provide]                PROVIDE (__stop_sdh_soc_observers, .)

.ARM.extab
 *(.ARM.extab* .gnu.linkonce.armextab.*)
                0x00045a08                __exidx_start = .

.ARM.exidx      0x00045a08        0x8
 *(.ARM.exidx* .gnu.linkonce.armexidx.*)
 .ARM.exidx     0x00045a08        0x8 c:/mesh/arm_gcc/bin/../lib/gcc/arm-none-eabi/6.3.1/../../../../arm-none-eabi/lib/thumb/v7e-m/fpv4-sp/hard/crt0.o
 .ARM.exidx     0x00045a10        0x0 c:/mesh/arm_gcc/bin/../lib/gcc/arm-none-eabi/6.3.1/thumb/v7e-m/fpv4-sp/hard\libgcc.a(_udivmoddi4.o)
                                  0x8 (size before relaxing)
                0x00045a10                __exidx_end = .
                0x00045a10                __etext = .

.rel.dyn        0x00045a10        0x0
 .rel.iplt      0x00045a10        0x0 c:/mesh/arm_gcc/bin/../lib/gcc/arm-none-eabi/6.3.1/thumb/v7e-m/fpv4-sp/hard/crtbegin.o

.data           0x200032c8      0x16c load address 0x00045a10
                0x200032c8                __data_start__ = .
 *(vtable)
 *(.data*)
 .data.m_mesh_core_event_handler
                0x200032c8        0x8 examples/enocean_switch/CMakeFiles/enocean_switch_nrf52832_xxAA_s132_6.0.0.dir/src/main.c.obj
 .data.flash_add_mem_available_struct.9818
                0x200032d0       0x10 examples/enocean_switch/CMakeFiles/enocean_switch_nrf52832_xxAA_s132_6.0.0.dir/src/flash_helper.c.obj
 .data.mem_listener.9814
                0x200032e0       0x10 examples/enocean_switch/CMakeFiles/enocean_switch_nrf52832_xxAA_s132_6.0.0.dir/src/flash_helper.c.obj
 .data.s_evt_handler.11055
                0x200032f0        0x8 examples/enocean_switch/CMakeFiles/enocean_switch_nrf52832_xxAA_s132_6.0.0.dir/__/__/mesh/stack/src/mesh_stack.c.obj
 .data.wait.8936
                0x200032f8        0x1 examples/enocean_switch/CMakeFiles/enocean_switch_nrf52832_xxAA_s132_6.0.0.dir/__/common/src/app_error_weak.c.obj
 *fill*         0x200032f9        0x3 
 .data.mem_listener.9810
                0x200032fc       0x10 examples/enocean_switch/CMakeFiles/enocean_switch_nrf52832_xxAA_s132_6.0.0.dir/__/__/mesh/core/src/net_state.c.obj
 .data.mem_listener.9815
                0x2000330c       0x10 examples/enocean_switch/CMakeFiles/enocean_switch_nrf52832_xxAA_s132_6.0.0.dir/__/__/mesh/core/src/net_state.c.obj
 .data.mem_listener.9829
                0x2000331c       0x10 examples/enocean_switch/CMakeFiles/enocean_switch_nrf52832_xxAA_s132_6.0.0.dir/__/__/mesh/core/src/net_state.c.obj
 .data.mem_listener.9846
                0x2000332c       0x10 examples/enocean_switch/CMakeFiles/enocean_switch_nrf52832_xxAA_s132_6.0.0.dir/__/__/mesh/core/src/net_state.c.obj
 .data.m_nrf_mesh_listener
                0x2000333c        0xc examples/enocean_switch/CMakeFiles/enocean_switch_nrf52832_xxAA_s132_6.0.0.dir/__/__/mesh/core/src/nrf_mesh.c.obj
 .data.g_log_dbg_lvl
                0x20003348        0x4 examples/enocean_switch/CMakeFiles/enocean_switch_nrf52832_xxAA_s132_6.0.0.dir/__/__/mesh/core/src/log.c.obj
                0x20003348                g_log_dbg_lvl
 .data.g_log_dbg_msk
                0x2000334c        0x4 examples/enocean_switch/CMakeFiles/enocean_switch_nrf52832_xxAA_s132_6.0.0.dir/__/__/mesh/core/src/log.c.obj
                0x2000334c                g_log_dbg_msk
 .data.g_log_hex_digits
                0x20003350        0x4 examples/enocean_switch/CMakeFiles/enocean_switch_nrf52832_xxAA_s132_6.0.0.dir/__/__/mesh/core/src/log.c.obj
                0x20003350                g_log_hex_digits
 .data.m_log_callback
                0x20003354        0x4 examples/enocean_switch/CMakeFiles/enocean_switch_nrf52832_xxAA_s132_6.0.0.dir/__/__/mesh/core/src/log.c.obj
                0x20003354                m_log_callback
 .data.m_config_server_handle
                0x20003358        0x2 examples/enocean_switch/CMakeFiles/enocean_switch_nrf52832_xxAA_s132_6.0.0.dir/__/__/models/config/src/config_server.c.obj
 *fill*         0x2000335a        0x2 
 .data.m_mesh_evt_handler
                0x2000335c        0x8 examples/enocean_switch/CMakeFiles/enocean_switch_nrf52832_xxAA_s132_6.0.0.dir/__/__/models/config/src/config_server.c.obj
 .data.flash_add_mem_available_struct.10384
                0x20003364       0x10 examples/enocean_switch/CMakeFiles/enocean_switch_nrf52832_xxAA_s132_6.0.0.dir/__/__/mesh/access/src/access.c.obj
 .data.flash_clear_mem_available_struct.10473
                0x20003374       0x10 examples/enocean_switch/CMakeFiles/enocean_switch_nrf52832_xxAA_s132_6.0.0.dir/__/__/mesh/access/src/access.c.obj
 .data.flash_store_mem_available_struct.10497
                0x20003384       0x10 examples/enocean_switch/CMakeFiles/enocean_switch_nrf52832_xxAA_s132_6.0.0.dir/__/__/mesh/access/src/access.c.obj
 .data.m_default_ttl
                0x20003394        0x1 examples/enocean_switch/CMakeFiles/enocean_switch_nrf52832_xxAA_s132_6.0.0.dir/__/__/mesh/access/src/access.c.obj
 *fill*         0x20003395        0x3 
 .data.mem_listener.10673
                0x20003398       0x10 examples/enocean_switch/CMakeFiles/enocean_switch_nrf52832_xxAA_s132_6.0.0.dir/__/__/mesh/access/src/device_state_manager.c.obj
 .data.mem_listener.10699
                0x200033a8       0x10 examples/enocean_switch/CMakeFiles/enocean_switch_nrf52832_xxAA_s132_6.0.0.dir/__/__/mesh/access/src/device_state_manager.c.obj
 .data.m_async_process_flag
                0x200033b8        0x4 examples/enocean_switch/CMakeFiles/enocean_switch_nrf52832_xxAA_s132_6.0.0.dir/__/__/mesh/prov/src/prov_bearer_adv.c.obj
 .data.SystemCoreClock
                0x200033bc        0x4 examples/enocean_switch/CMakeFiles/enocean_switch_nrf52832_xxAA_s132_6.0.0.dir/C_/ver/mod/nRF5_SDK_15.0.0_a53641a/modules/nrfx/mdk/system_nrf52.c.obj
                0x200033bc                SystemCoreClock
 .data.g_rng_function
                0x200033c0        0x4 external/micro-ecc/libuECC_nrf52832_xxAA.a(uECC.c.obj)
 .data._impure_ptr
                0x200033c4        0x4 c:/mesh/arm_gcc/bin/../lib/gcc/arm-none-eabi/6.3.1/../../../../arm-none-eabi/lib/thumb/v7e-m/fpv4-sp/hard\libc_nano.a(lib_a-impure.o)
                0x200033c4                _impure_ptr
 .data.impure_data
                0x200033c8       0x60 c:/mesh/arm_gcc/bin/../lib/gcc/arm-none-eabi/6.3.1/../../../../arm-none-eabi/lib/thumb/v7e-m/fpv4-sp/hard\libc_nano.a(lib_a-impure.o)
                0x20003428                . = ALIGN (0x4)
                0x20003428                PROVIDE (__preinit_array_start, .)
 *(.preinit_array)
                0x20003428                PROVIDE (__preinit_array_end, .)
                0x20003428                . = ALIGN (0x4)
                0x20003428                PROVIDE (__init_array_start, .)
 *(SORT(.init_array.*))
 *(.init_array)
 .init_array    0x20003428        0x4 c:/mesh/arm_gcc/bin/../lib/gcc/arm-none-eabi/6.3.1/thumb/v7e-m/fpv4-sp/hard/crtbegin.o
                0x2000342c                PROVIDE (__init_array_end, .)
                0x2000342c                . = ALIGN (0x4)
                [!provide]                PROVIDE (__fini_array_start, .)
 *(SORT(.fini_array.*))
 *(.fini_array)
 .fini_array    0x2000342c        0x4 c:/mesh/arm_gcc/bin/../lib/gcc/arm-none-eabi/6.3.1/thumb/v7e-m/fpv4-sp/hard/crtbegin.o
                [!provide]                PROVIDE (__fini_array_end, .)
 *(.jcr*)
 .jcr           0x20003430        0x0 c:/mesh/arm_gcc/bin/../lib/gcc/arm-none-eabi/6.3.1/thumb/v7e-m/fpv4-sp/hard/crtbegin.o
 .jcr           0x20003430        0x4 c:/mesh/arm_gcc/bin/../lib/gcc/arm-none-eabi/6.3.1/thumb/v7e-m/fpv4-sp/hard/crtend.o
                0x20003434                . = ALIGN (0x4)
                0x20003434                __data_end__ = .
LOAD c:/mesh/arm_gcc/bin/../lib/gcc/arm-none-eabi/6.3.1/thumb/v7e-m/fpv4-sp/hard/crti.o
LOAD c:/mesh/arm_gcc/bin/../lib/gcc/arm-none-eabi/6.3.1/thumb/v7e-m/fpv4-sp/hard/crtbegin.o
LOAD c:/mesh/arm_gcc/bin/../lib/gcc/arm-none-eabi/6.3.1/../../../../arm-none-eabi/lib/thumb/v7e-m/fpv4-sp/hard/crt0.o
LOAD examples/enocean_switch/CMakeFiles/enocean_switch_nrf52832_xxAA_s132_6.0.0.dir/src/main.c.obj
LOAD examples/enocean_switch/CMakeFiles/enocean_switch_nrf52832_xxAA_s132_6.0.0.dir/src/enocean.c.obj
LOAD examples/enocean_switch/CMakeFiles/enocean_switch_nrf52832_xxAA_s132_6.0.0.dir/src/flash_helper.c.obj
LOAD examples/enocean_switch/CMakeFiles/enocean_switch_nrf52832_xxAA_s132_6.0.0.dir/__/__/mesh/stack/src/mesh_stack.c.obj
LOAD examples/enocean_switch/CMakeFiles/enocean_switch_nrf52832_xxAA_s132_6.0.0.dir/__/common/src/mesh_softdevice_init.c.obj
LOAD examples/enocean_switch/CMakeFiles/enocean_switch_nrf52832_xxAA_s132_6.0.0.dir/__/common/src/mesh_provisionee.c.obj
LOAD examples/enocean_switch/CMakeFiles/enocean_switch_nrf52832_xxAA_s132_6.0.0.dir/__/common/src/rtt_input.c.obj
LOAD examples/enocean_switch/CMakeFiles/enocean_switch_nrf52832_xxAA_s132_6.0.0.dir/__/common/src/simple_hal.c.obj
LOAD examples/enocean_switch/CMakeFiles/enocean_switch_nrf52832_xxAA_s132_6.0.0.dir/__/common/src/mesh_app_utils.c.obj
LOAD examples/enocean_switch/CMakeFiles/enocean_switch_nrf52832_xxAA_s132_6.0.0.dir/__/nrf_mesh_weak.c.obj
LOAD examples/enocean_switch/CMakeFiles/enocean_switch_nrf52832_xxAA_s132_6.0.0.dir/__/common/src/app_error_weak.c.obj
LOAD examples/enocean_switch/CMakeFiles/enocean_switch_nrf52832_xxAA_s132_6.0.0.dir/__/common/src/assertion_handler_weak.c.obj
LOAD examples/enocean_switch/CMakeFiles/enocean_switch_nrf52832_xxAA_s132_6.0.0.dir/__/__/mesh/core/src/internal_event.c.obj
LOAD examples/enocean_switch/CMakeFiles/enocean_switch_nrf52832_xxAA_s132_6.0.0.dir/__/__/mesh/core/src/nrf_mesh_configure.c.obj
LOAD examples/enocean_switch/CMakeFiles/enocean_switch_nrf52832_xxAA_s132_6.0.0.dir/__/__/mesh/core/src/aes.c.obj
LOAD examples/enocean_switch/CMakeFiles/enocean_switch_nrf52832_xxAA_s132_6.0.0.dir/__/__/mesh/core/src/msg_cache.c.obj
LOAD examples/enocean_switch/CMakeFiles/enocean_switch_nrf52832_xxAA_s132_6.0.0.dir/__/__/mesh/core/src/transport.c.obj
LOAD examples/enocean_switch/CMakeFiles/enocean_switch_nrf52832_xxAA_s132_6.0.0.dir/__/__/mesh/core/src/event.c.obj
LOAD examples/enocean_switch/CMakeFiles/enocean_switch_nrf52832_xxAA_s132_6.0.0.dir/__/__/mesh/core/src/packet_buffer.c.obj
LOAD examples/enocean_switch/CMakeFiles/enocean_switch_nrf52832_xxAA_s132_6.0.0.dir/__/__/mesh/core/src/flash_manager_defrag.c.obj
LOAD examples/enocean_switch/CMakeFiles/enocean_switch_nrf52832_xxAA_s132_6.0.0.dir/__/__/mesh/core/src/fifo.c.obj
LOAD examples/enocean_switch/CMakeFiles/enocean_switch_nrf52832_xxAA_s132_6.0.0.dir/__/__/mesh/core/src/nrf_flash.c.obj
LOAD examples/enocean_switch/CMakeFiles/enocean_switch_nrf52832_xxAA_s132_6.0.0.dir/__/__/mesh/core/src/packet_mgr.c.obj
LOAD examples/enocean_switch/CMakeFiles/enocean_switch_nrf52832_xxAA_s132_6.0.0.dir/__/__/mesh/core/src/net_state.c.obj
LOAD examples/enocean_switch/CMakeFiles/enocean_switch_nrf52832_xxAA_s132_6.0.0.dir/__/__/mesh/core/src/mesh_flash.c.obj
LOAD examples/enocean_switch/CMakeFiles/enocean_switch_nrf52832_xxAA_s132_6.0.0.dir/__/__/mesh/core/src/nrf_mesh_utils.c.obj
LOAD examples/enocean_switch/CMakeFiles/enocean_switch_nrf52832_xxAA_s132_6.0.0.dir/__/__/mesh/core/src/nrf_mesh.c.obj
LOAD examples/enocean_switch/CMakeFiles/enocean_switch_nrf52832_xxAA_s132_6.0.0.dir/__/__/mesh/core/src/queue.c.obj
LOAD examples/enocean_switch/CMakeFiles/enocean_switch_nrf52832_xxAA_s132_6.0.0.dir/__/__/mesh/core/src/hal.c.obj
LOAD examples/enocean_switch/CMakeFiles/enocean_switch_nrf52832_xxAA_s132_6.0.0.dir/__/__/mesh/core/src/aes_cmac.c.obj
LOAD examples/enocean_switch/CMakeFiles/enocean_switch_nrf52832_xxAA_s132_6.0.0.dir/__/__/mesh/core/src/timer_scheduler.c.obj
LOAD examples/enocean_switch/CMakeFiles/enocean_switch_nrf52832_xxAA_s132_6.0.0.dir/__/__/mesh/core/src/timer.c.obj
LOAD examples/enocean_switch/CMakeFiles/enocean_switch_nrf52832_xxAA_s132_6.0.0.dir/__/__/mesh/core/src/ticker.c.obj
LOAD examples/enocean_switch/CMakeFiles/enocean_switch_nrf52832_xxAA_s132_6.0.0.dir/__/__/mesh/core/src/rand.c.obj
LOAD examples/enocean_switch/CMakeFiles/enocean_switch_nrf52832_xxAA_s132_6.0.0.dir/__/__/mesh/core/src/nrf_mesh_opt.c.obj
LOAD examples/enocean_switch/CMakeFiles/enocean_switch_nrf52832_xxAA_s132_6.0.0.dir/__/__/mesh/core/src/timeslot.c.obj
LOAD examples/enocean_switch/CMakeFiles/enocean_switch_nrf52832_xxAA_s132_6.0.0.dir/__/__/mesh/core/src/bearer_event.c.obj
LOAD examples/enocean_switch/CMakeFiles/enocean_switch_nrf52832_xxAA_s132_6.0.0.dir/__/__/mesh/core/src/enc.c.obj
LOAD examples/enocean_switch/CMakeFiles/enocean_switch_nrf52832_xxAA_s132_6.0.0.dir/__/__/mesh/core/src/network.c.obj
LOAD examples/enocean_switch/CMakeFiles/enocean_switch_nrf52832_xxAA_s132_6.0.0.dir/__/__/mesh/core/src/net_packet.c.obj
LOAD examples/enocean_switch/CMakeFiles/enocean_switch_nrf52832_xxAA_s132_6.0.0.dir/__/__/mesh/core/src/msqueue.c.obj
LOAD examples/enocean_switch/CMakeFiles/enocean_switch_nrf52832_xxAA_s132_6.0.0.dir/__/__/mesh/core/src/nrf_mesh_keygen.c.obj
LOAD examples/enocean_switch/CMakeFiles/enocean_switch_nrf52832_xxAA_s132_6.0.0.dir/__/__/mesh/core/src/cache.c.obj
LOAD examples/enocean_switch/CMakeFiles/enocean_switch_nrf52832_xxAA_s132_6.0.0.dir/__/__/mesh/core/src/uri.c.obj
LOAD examples/enocean_switch/CMakeFiles/enocean_switch_nrf52832_xxAA_s132_6.0.0.dir/__/__/mesh/core/src/list.c.obj
LOAD examples/enocean_switch/CMakeFiles/enocean_switch_nrf52832_xxAA_s132_6.0.0.dir/__/__/mesh/core/src/log.c.obj
LOAD examples/enocean_switch/CMakeFiles/enocean_switch_nrf52832_xxAA_s132_6.0.0.dir/__/__/mesh/core/src/flash_manager.c.obj
LOAD examples/enocean_switch/CMakeFiles/enocean_switch_nrf52832_xxAA_s132_6.0.0.dir/__/__/mesh/core/src/ccm_soft.c.obj
LOAD examples/enocean_switch/CMakeFiles/enocean_switch_nrf52832_xxAA_s132_6.0.0.dir/__/__/mesh/core/src/toolchain.c.obj
LOAD examples/enocean_switch/CMakeFiles/enocean_switch_nrf52832_xxAA_s132_6.0.0.dir/__/__/mesh/core/src/replay_cache.c.obj
LOAD examples/enocean_switch/CMakeFiles/enocean_switch_nrf52832_xxAA_s132_6.0.0.dir/__/__/mesh/core/src/beacon.c.obj
LOAD examples/enocean_switch/CMakeFiles/enocean_switch_nrf52832_xxAA_s132_6.0.0.dir/__/__/mesh/core/src/flash_manager_internal.c.obj
LOAD examples/enocean_switch/CMakeFiles/enocean_switch_nrf52832_xxAA_s132_6.0.0.dir/__/__/mesh/core/src/core_tx.c.obj
LOAD examples/enocean_switch/CMakeFiles/enocean_switch_nrf52832_xxAA_s132_6.0.0.dir/__/__/mesh/core/src/heartbeat.c.obj
LOAD examples/enocean_switch/CMakeFiles/enocean_switch_nrf52832_xxAA_s132_6.0.0.dir/__/__/mesh/core/src/net_beacon.c.obj
LOAD examples/enocean_switch/CMakeFiles/enocean_switch_nrf52832_xxAA_s132_6.0.0.dir/__/__/mesh/core/src/fsm.c.obj
LOAD examples/enocean_switch/CMakeFiles/enocean_switch_nrf52832_xxAA_s132_6.0.0.dir/__/__/mesh/core/src/core_tx_adv.c.obj
LOAD examples/enocean_switch/CMakeFiles/enocean_switch_nrf52832_xxAA_s132_6.0.0.dir/__/__/mesh/bearer/src/ad_listener.c.obj
LOAD examples/enocean_switch/CMakeFiles/enocean_switch_nrf52832_xxAA_s132_6.0.0.dir/__/__/mesh/bearer/src/ad_type_filter.c.obj
LOAD examples/enocean_switch/CMakeFiles/enocean_switch_nrf52832_xxAA_s132_6.0.0.dir/__/__/mesh/bearer/src/adv_packet_filter.c.obj
LOAD examples/enocean_switch/CMakeFiles/enocean_switch_nrf52832_xxAA_s132_6.0.0.dir/__/__/mesh/bearer/src/advertiser.c.obj
LOAD examples/enocean_switch/CMakeFiles/enocean_switch_nrf52832_xxAA_s132_6.0.0.dir/__/__/mesh/bearer/src/bearer_handler.c.obj
LOAD examples/enocean_switch/CMakeFiles/enocean_switch_nrf52832_xxAA_s132_6.0.0.dir/__/__/mesh/bearer/src/broadcast.c.obj
LOAD examples/enocean_switch/CMakeFiles/enocean_switch_nrf52832_xxAA_s132_6.0.0.dir/__/__/mesh/bearer/src/filter_engine.c.obj
LOAD examples/enocean_switch/CMakeFiles/enocean_switch_nrf52832_xxAA_s132_6.0.0.dir/__/__/mesh/bearer/src/gap_address_filter.c.obj
LOAD examples/enocean_switch/CMakeFiles/enocean_switch_nrf52832_xxAA_s132_6.0.0.dir/__/__/mesh/bearer/src/radio_config.c.obj
LOAD examples/enocean_switch/CMakeFiles/enocean_switch_nrf52832_xxAA_s132_6.0.0.dir/__/__/mesh/bearer/src/rssi_filter.c.obj
LOAD examples/enocean_switch/CMakeFiles/enocean_switch_nrf52832_xxAA_s132_6.0.0.dir/__/__/mesh/bearer/src/scanner.c.obj
LOAD examples/enocean_switch/CMakeFiles/enocean_switch_nrf52832_xxAA_s132_6.0.0.dir/__/__/models/simple_on_off/src/simple_on_off_client.c.obj
LOAD examples/enocean_switch/CMakeFiles/enocean_switch_nrf52832_xxAA_s132_6.0.0.dir/__/__/models/config/src/composition_data.c.obj
LOAD examples/enocean_switch/CMakeFiles/enocean_switch_nrf52832_xxAA_s132_6.0.0.dir/__/__/models/config/src/config_server.c.obj
LOAD examples/enocean_switch/CMakeFiles/enocean_switch_nrf52832_xxAA_s132_6.0.0.dir/__/__/models/config/src/packed_index_list.c.obj
LOAD examples/enocean_switch/CMakeFiles/enocean_switch_nrf52832_xxAA_s132_6.0.0.dir/__/__/models/health/src/health_server.c.obj
LOAD examples/enocean_switch/CMakeFiles/enocean_switch_nrf52832_xxAA_s132_6.0.0.dir/__/__/mesh/access/src/access_publish.c.obj
LOAD examples/enocean_switch/CMakeFiles/enocean_switch_nrf52832_xxAA_s132_6.0.0.dir/__/__/mesh/access/src/access.c.obj
LOAD examples/enocean_switch/CMakeFiles/enocean_switch_nrf52832_xxAA_s132_6.0.0.dir/__/__/mesh/access/src/access_reliable.c.obj
LOAD examples/enocean_switch/CMakeFiles/enocean_switch_nrf52832_xxAA_s132_6.0.0.dir/__/__/mesh/access/src/device_state_manager.c.obj
LOAD examples/enocean_switch/CMakeFiles/enocean_switch_nrf52832_xxAA_s132_6.0.0.dir/__/__/mesh/prov/src/prov_provisionee.c.obj
LOAD examples/enocean_switch/CMakeFiles/enocean_switch_nrf52832_xxAA_s132_6.0.0.dir/__/__/mesh/prov/src/nrf_mesh_prov.c.obj
LOAD examples/enocean_switch/CMakeFiles/enocean_switch_nrf52832_xxAA_s132_6.0.0.dir/__/__/mesh/prov/src/provisioning.c.obj
LOAD examples/enocean_switch/CMakeFiles/enocean_switch_nrf52832_xxAA_s132_6.0.0.dir/__/__/mesh/prov/src/prov_beacon.c.obj
LOAD examples/enocean_switch/CMakeFiles/enocean_switch_nrf52832_xxAA_s132_6.0.0.dir/__/__/mesh/prov/src/prov_utils.c.obj
LOAD examples/enocean_switch/CMakeFiles/enocean_switch_nrf52832_xxAA_s132_6.0.0.dir/__/__/mesh/prov/src/prov_bearer_adv.c.obj
LOAD examples/enocean_switch/CMakeFiles/enocean_switch_nrf52832_xxAA_s132_6.0.0.dir/C_/ver/mod/nRF5_SDK_15.0.0_a53641a/modules/nrfx/mdk/system_nrf52.c.obj
LOAD examples/enocean_switch/CMakeFiles/enocean_switch_nrf52832_xxAA_s132_6.0.0.dir/C_/ver/mod/nRF5_SDK_15.0.0_a53641a/modules/nrfx/mdk/gcc_startup_nrf52.S.obj
LOAD examples/enocean_switch/CMakeFiles/enocean_switch_nrf52832_xxAA_s132_6.0.0.dir/C_/ver/mod/nRF5_SDK_15.0.0_a53641a/components/libraries/util/app_error.c.obj
LOAD examples/enocean_switch/CMakeFiles/enocean_switch_nrf52832_xxAA_s132_6.0.0.dir/C_/ver/mod/nRF5_SDK_15.0.0_a53641a/components/libraries/util/app_error_handler_gcc.c.obj
LOAD external/rtt/librtt_nrf52832_xxAA.a
LOAD external/micro-ecc/libuECC_nrf52832_xxAA.a
START GROUP
LOAD c:/mesh/arm_gcc/bin/../lib/gcc/arm-none-eabi/6.3.1/thumb/v7e-m/fpv4-sp/hard\libgcc.a
LOAD c:/mesh/arm_gcc/bin/../lib/gcc/arm-none-eabi/6.3.1/../../../../arm-none-eabi/lib/thumb/v7e-m/fpv4-sp/hard\libc_nano.a
END GROUP
START GROUP
LOAD c:/mesh/arm_gcc/bin/../lib/gcc/arm-none-eabi/6.3.1/thumb/v7e-m/fpv4-sp/hard\libgcc.a
LOAD c:/mesh/arm_gcc/bin/../lib/gcc/arm-none-eabi/6.3.1/../../../../arm-none-eabi/lib/thumb/v7e-m/fpv4-sp/hard\libc_nano.a
END GROUP
LOAD c:/mesh/arm_gcc/bin/../lib/gcc/arm-none-eabi/6.3.1/thumb/v7e-m/fpv4-sp/hard/crtend.o
LOAD c:/mesh/arm_gcc/bin/../lib/gcc/arm-none-eabi/6.3.1/thumb/v7e-m/fpv4-sp/hard/crtn.o
START GROUP
LOAD c:/mesh/arm_gcc/bin/../lib/gcc/arm-none-eabi/6.3.1/thumb/v7e-m/fpv4-sp/hard\libgcc.a
LOAD c:/mesh/arm_gcc/bin/../lib/gcc/arm-none-eabi/6.3.1/../../../../arm-none-eabi/lib/thumb/v7e-m/fpv4-sp/hard\libc.a
LOAD c:/mesh/arm_gcc/bin/../lib/gcc/arm-none-eabi/6.3.1/../../../../arm-none-eabi/lib/thumb/v7e-m/fpv4-sp/hard\libnosys.a
END GROUP

.igot.plt       0x20003434        0x0 load address 0x00045b7c
 .igot.plt      0x20003434        0x0 c:/mesh/arm_gcc/bin/../lib/gcc/arm-none-eabi/6.3.1/thumb/v7e-m/fpv4-sp/hard/crtbegin.o
                0x20003434                . = ALIGN (0x4)

.svc_data       0x20003434        0x0
                [!provide]                PROVIDE (__start_svc_data, .)
 *(.svc_data)
                [!provide]                PROVIDE (__stop_svc_data, .)

.fs_data        0x20003434        0x0
                [!provide]                PROVIDE (__start_fs_data, .)
 *(.fs_data)
                [!provide]                PROVIDE (__stop_fs_data, .)

.log_dynamic_data
                0x20003434        0x0
                [!provide]                PROVIDE (__start_log_dynamic_data, .)
 *(.log_dynamic_data)
                [!provide]                PROVIDE (__stop_log_dynamic_data, .)

.cli_sorted_cmd_ptrs
                0x20003434        0x0
                [!provide]                PROVIDE (__start_cli_sorted_cmd_ptrs, .)
 *(.cli_sorted_cmd_ptrs)
                [!provide]                PROVIDE (__stop_cli_sorted_cmd_ptrs, .)

.bss            0x20003438     0x3534 load address 0x00045b80
                0x20003438                . = ALIGN (0x4)
                0x20003438                __bss_start__ = .
 *(.bss*)
 .bss           0x20003438       0x1c c:/mesh/arm_gcc/bin/../lib/gcc/arm-none-eabi/6.3.1/thumb/v7e-m/fpv4-sp/hard/crtbegin.o
 .bss.m_app_secmat
                0x20003454       0x10 examples/enocean_switch/CMakeFiles/enocean_switch_nrf52832_xxAA_s132_6.0.0.dir/src/main.c.obj
 .bss.m_app_secmat_flash
                0x20003464       0x1c examples/enocean_switch/CMakeFiles/enocean_switch_nrf52832_xxAA_s132_6.0.0.dir/src/main.c.obj
 .bss.m_clients
                0x20003480       0x40 examples/enocean_switch/CMakeFiles/enocean_switch_nrf52832_xxAA_s132_6.0.0.dir/src/main.c.obj
 .bss.m_device_provisioned
                0x200034c0        0x1 examples/enocean_switch/CMakeFiles/enocean_switch_nrf52832_xxAA_s132_6.0.0.dir/src/main.c.obj
 .bss.m_enocean_dev_cnt
                0x200034c1        0x1 examples/enocean_switch/CMakeFiles/enocean_switch_nrf52832_xxAA_s132_6.0.0.dir/src/main.c.obj
 *fill*         0x200034c2        0x2 
 .bss.m_switch_state
                0x200034c4       0x20 examples/enocean_switch/CMakeFiles/enocean_switch_nrf52832_xxAA_s132_6.0.0.dir/src/main.c.obj
 .bss.s_app_started.12572
                0x200034e4        0x1 examples/enocean_switch/CMakeFiles/enocean_switch_nrf52832_xxAA_s132_6.0.0.dir/src/main.c.obj
 *fill*         0x200034e5        0x3 
 .bss.m_app_cb  0x200034e8        0x4 examples/enocean_switch/CMakeFiles/enocean_switch_nrf52832_xxAA_s132_6.0.0.dir/src/enocean.c.obj
 .bss.mp_secmats_list_head
                0x200034ec        0x4 examples/enocean_switch/CMakeFiles/enocean_switch_nrf52832_xxAA_s132_6.0.0.dir/src/enocean.c.obj
 .bss.m_flash_manager
                0x200034f0       0x24 examples/enocean_switch/CMakeFiles/enocean_switch_nrf52832_xxAA_s132_6.0.0.dir/src/flash_helper.c.obj
 .bss.m_health_server
                0x20003514       0x5c examples/enocean_switch/CMakeFiles/enocean_switch_nrf52832_xxAA_s132_6.0.0.dir/__/__/mesh/stack/src/mesh_stack.c.obj
 .bss.m_init_params
                0x20003570       0x24 examples/enocean_switch/CMakeFiles/enocean_switch_nrf52832_xxAA_s132_6.0.0.dir/__/__/mesh/stack/src/mesh_stack.c.obj
 .bss.m_device_provisioned
                0x20003594        0x1 examples/enocean_switch/CMakeFiles/enocean_switch_nrf52832_xxAA_s132_6.0.0.dir/__/common/src/mesh_provisionee.c.obj
 *fill*         0x20003595        0x3 
 .bss.m_params  0x20003598        0xc examples/enocean_switch/CMakeFiles/enocean_switch_nrf52832_xxAA_s132_6.0.0.dir/__/common/src/mesh_provisionee.c.obj
 .bss.m_private_key
                0x200035a4       0x20 examples/enocean_switch/CMakeFiles/enocean_switch_nrf52832_xxAA_s132_6.0.0.dir/__/common/src/mesh_provisionee.c.obj
 .bss.m_prov_bearer_adv
                0x200035c4      0x1c4 examples/enocean_switch/CMakeFiles/enocean_switch_nrf52832_xxAA_s132_6.0.0.dir/__/common/src/mesh_provisionee.c.obj
 .bss.m_prov_ctx
                0x20003788      0x134 examples/enocean_switch/CMakeFiles/enocean_switch_nrf52832_xxAA_s132_6.0.0.dir/__/common/src/mesh_provisionee.c.obj
 .bss.m_public_key
                0x200038bc       0x40 examples/enocean_switch/CMakeFiles/enocean_switch_nrf52832_xxAA_s132_6.0.0.dir/__/common/src/mesh_provisionee.c.obj
 .bss.m_rtt_input_handler
                0x200038fc        0x4 examples/enocean_switch/CMakeFiles/enocean_switch_nrf52832_xxAA_s132_6.0.0.dir/__/common/src/rtt_input.c.obj
 .bss.m_button_handler_cb
                0x20003900        0x4 examples/enocean_switch/CMakeFiles/enocean_switch_nrf52832_xxAA_s132_6.0.0.dir/__/common/src/simple_hal.c.obj
 .bss.m_last_button_press
                0x20003904        0x4 examples/enocean_switch/CMakeFiles/enocean_switch_nrf52832_xxAA_s132_6.0.0.dir/__/common/src/simple_hal.c.obj
 .bss.m_uuid    0x20003908       0x10 examples/enocean_switch/CMakeFiles/enocean_switch_nrf52832_xxAA_s132_6.0.0.dir/__/__/mesh/core/src/nrf_mesh_configure.c.obj
 .bss.m_msg_cache
                0x20003918      0x100 examples/enocean_switch/CMakeFiles/enocean_switch_nrf52832_xxAA_s132_6.0.0.dir/__/__/mesh/core/src/msg_cache.c.obj
 .bss.m_msg_cache_head
                0x20003a18        0x4 examples/enocean_switch/CMakeFiles/enocean_switch_nrf52832_xxAA_s132_6.0.0.dir/__/__/mesh/core/src/msg_cache.c.obj
 .bss.m_control_packet_consumer_count
                0x20003a1c        0x4 examples/enocean_switch/CMakeFiles/enocean_switch_nrf52832_xxAA_s132_6.0.0.dir/__/__/mesh/core/src/transport.c.obj
 .bss.m_control_packet_consumers
                0x20003a20        0x8 examples/enocean_switch/CMakeFiles/enocean_switch_nrf52832_xxAA_s132_6.0.0.dir/__/__/mesh/core/src/transport.c.obj
 .bss.m_sar_alloc
                0x20003a28        0x4 examples/enocean_switch/CMakeFiles/enocean_switch_nrf52832_xxAA_s132_6.0.0.dir/__/__/mesh/core/src/transport.c.obj
 .bss.m_sar_process_flag
                0x20003a2c        0x4 examples/enocean_switch/CMakeFiles/enocean_switch_nrf52832_xxAA_s132_6.0.0.dir/__/__/mesh/core/src/transport.c.obj
 .bss.m_sar_release
                0x20003a30        0x4 examples/enocean_switch/CMakeFiles/enocean_switch_nrf52832_xxAA_s132_6.0.0.dir/__/__/mesh/core/src/transport.c.obj
 .bss.m_sar_session_cache
                0x20003a34       0x40 examples/enocean_switch/CMakeFiles/enocean_switch_nrf52832_xxAA_s132_6.0.0.dir/__/__/mesh/core/src/transport.c.obj
 .bss.m_sar_session_cache_head
                0x20003a74        0x4 examples/enocean_switch/CMakeFiles/enocean_switch_nrf52832_xxAA_s132_6.0.0.dir/__/__/mesh/core/src/transport.c.obj
 .bss.m_trs_config
                0x20003a78       0x18 examples/enocean_switch/CMakeFiles/enocean_switch_nrf52832_xxAA_s132_6.0.0.dir/__/__/mesh/core/src/transport.c.obj
 .bss.m_trs_sar_sessions
                0x20003a90      0x1b0 examples/enocean_switch/CMakeFiles/enocean_switch_nrf52832_xxAA_s132_6.0.0.dir/__/__/mesh/core/src/transport.c.obj
 .bss.mp_evt_handlers_head
                0x20003c40        0x4 examples/enocean_switch/CMakeFiles/enocean_switch_nrf52832_xxAA_s132_6.0.0.dir/__/__/mesh/core/src/event.c.obj
 .bss.m_defrag  0x20003c44       0x1c examples/enocean_switch/CMakeFiles/enocean_switch_nrf52832_xxAA_s132_6.0.0.dir/__/__/mesh/core/src/flash_manager_defrag.c.obj
 .bss.m_token   0x20003c60        0x2 examples/enocean_switch/CMakeFiles/enocean_switch_nrf52832_xxAA_s132_6.0.0.dir/__/__/mesh/core/src/flash_manager_defrag.c.obj
 *fill*         0x20003c62        0x2 
 .bss.mp_recovery_area
                0x20003c64        0x4 examples/enocean_switch/CMakeFiles/enocean_switch_nrf52832_xxAA_s132_6.0.0.dir/__/__/mesh/core/src/flash_manager_defrag.c.obj
 .bss.p_null_ptr.10241
                0x20003c68        0x4 examples/enocean_switch/CMakeFiles/enocean_switch_nrf52832_xxAA_s132_6.0.0.dir/__/__/mesh/core/src/flash_manager_defrag.c.obj
 .bss.m_pool    0x20003c6c     0x1000 examples/enocean_switch/CMakeFiles/enocean_switch_nrf52832_xxAA_s132_6.0.0.dir/__/__/mesh/core/src/packet_mgr.c.obj
 .bss.mp_free_head
                0x20004c6c        0x4 examples/enocean_switch/CMakeFiles/enocean_switch_nrf52832_xxAA_s132_6.0.0.dir/__/__/mesh/core/src/packet_mgr.c.obj
 .bss.iv_state_set.9896
                0x20004c70        0x1 examples/enocean_switch/CMakeFiles/enocean_switch_nrf52832_xxAA_s132_6.0.0.dir/__/__/mesh/core/src/net_state.c.obj
 *fill*         0x20004c71        0x3 
 .bss.lock_count.9872
                0x20004c74        0x4 examples/enocean_switch/CMakeFiles/enocean_switch_nrf52832_xxAA_s132_6.0.0.dir/__/__/mesh/core/src/net_state.c.obj
 .bss.m_flash_manager
                0x20004c78       0x24 examples/enocean_switch/CMakeFiles/enocean_switch_nrf52832_xxAA_s132_6.0.0.dir/__/__/mesh/core/src/net_state.c.obj
 .bss.m_iv_update_timer
                0x20004c9c       0x18 examples/enocean_switch/CMakeFiles/enocean_switch_nrf52832_xxAA_s132_6.0.0.dir/__/__/mesh/core/src/net_state.c.obj
 .bss.m_mesh_evt_handler
                0x20004cb4        0x8 examples/enocean_switch/CMakeFiles/enocean_switch_nrf52832_xxAA_s132_6.0.0.dir/__/__/mesh/core/src/net_state.c.obj
 .bss.m_net_state
                0x20004cbc       0x14 examples/enocean_switch/CMakeFiles/enocean_switch_nrf52832_xxAA_s132_6.0.0.dir/__/__/mesh/core/src/net_state.c.obj
 .bss.m_seqnum_allocation_in_progress
                0x20004cd0        0x1 examples/enocean_switch/CMakeFiles/enocean_switch_nrf52832_xxAA_s132_6.0.0.dir/__/__/mesh/core/src/net_state.c.obj
 .bss.m_test_mode
                0x20004cd1        0x1 examples/enocean_switch/CMakeFiles/enocean_switch_nrf52832_xxAA_s132_6.0.0.dir/__/__/mesh/core/src/net_state.c.obj
 *fill*         0x20004cd2        0x2 
 .bss.m_event_flag
                0x20004cd4        0x4 examples/enocean_switch/CMakeFiles/enocean_switch_nrf52832_xxAA_s132_6.0.0.dir/__/__/mesh/core/src/mesh_flash.c.obj
 .bss.m_suspended
                0x20004cd8        0x1 examples/enocean_switch/CMakeFiles/enocean_switch_nrf52832_xxAA_s132_6.0.0.dir/__/__/mesh/core/src/mesh_flash.c.obj
 *fill*         0x20004cd9        0x3 
 .bss.m_users   0x20004cdc      0x228 examples/enocean_switch/CMakeFiles/enocean_switch_nrf52832_xxAA_s132_6.0.0.dir/__/__/mesh/core/src/mesh_flash.c.obj
 .bss.m_is_enabled
                0x20004f04        0x1 examples/enocean_switch/CMakeFiles/enocean_switch_nrf52832_xxAA_s132_6.0.0.dir/__/__/mesh/core/src/nrf_mesh.c.obj
 .bss.m_is_initialized
                0x20004f05        0x1 examples/enocean_switch/CMakeFiles/enocean_switch_nrf52832_xxAA_s132_6.0.0.dir/__/__/mesh/core/src/nrf_mesh.c.obj
 *fill*         0x20004f06        0x2 
 .bss.m_rx_cb   0x20004f08        0x4 examples/enocean_switch/CMakeFiles/enocean_switch_nrf52832_xxAA_s132_6.0.0.dir/__/__/mesh/core/src/nrf_mesh.c.obj
 .bss.m_128buf  0x20004f0c       0x10 examples/enocean_switch/CMakeFiles/enocean_switch_nrf52832_xxAA_s132_6.0.0.dir/__/__/mesh/core/src/aes_cmac.c.obj
 .bss.m_subkey1
                0x20004f1c       0x10 examples/enocean_switch/CMakeFiles/enocean_switch_nrf52832_xxAA_s132_6.0.0.dir/__/__/mesh/core/src/aes_cmac.c.obj
 .bss.m_subkey2
                0x20004f2c       0x10 examples/enocean_switch/CMakeFiles/enocean_switch_nrf52832_xxAA_s132_6.0.0.dir/__/__/mesh/core/src/aes_cmac.c.obj
 .bss.m_event_flag
                0x20004f3c        0x4 examples/enocean_switch/CMakeFiles/enocean_switch_nrf52832_xxAA_s132_6.0.0.dir/__/__/mesh/core/src/timer_scheduler.c.obj
 .bss.m_scheduler
                0x20004f40       0x10 examples/enocean_switch/CMakeFiles/enocean_switch_nrf52832_xxAA_s132_6.0.0.dir/__/__/mesh/core/src/timer_scheduler.c.obj
 .bss.m_attributes
                0x20004f50        0x3 examples/enocean_switch/CMakeFiles/enocean_switch_nrf52832_xxAA_s132_6.0.0.dir/__/__/mesh/core/src/timer.c.obj
 *fill*         0x20004f53        0x1 
 .bss.m_callbacks
                0x20004f54        0xc examples/enocean_switch/CMakeFiles/enocean_switch_nrf52832_xxAA_s132_6.0.0.dir/__/__/mesh/core/src/timer.c.obj
 .bss.m_is_in_ts
                0x20004f60        0x1 examples/enocean_switch/CMakeFiles/enocean_switch_nrf52832_xxAA_s132_6.0.0.dir/__/__/mesh/core/src/timer.c.obj
 *fill*         0x20004f61        0x3 
 .bss.m_reference_time
                0x20004f64        0x4 examples/enocean_switch/CMakeFiles/enocean_switch_nrf52832_xxAA_s132_6.0.0.dir/__/__/mesh/core/src/timer.c.obj
 .bss.m_timeouts
                0x20004f68        0xc examples/enocean_switch/CMakeFiles/enocean_switch_nrf52832_xxAA_s132_6.0.0.dir/__/__/mesh/core/src/timer.c.obj
 .bss.m_timer_mut
                0x20004f74        0x4 examples/enocean_switch/CMakeFiles/enocean_switch_nrf52832_xxAA_s132_6.0.0.dir/__/__/mesh/core/src/timer.c.obj
 .bss.m_ts_end_time
                0x20004f78        0x4 examples/enocean_switch/CMakeFiles/enocean_switch_nrf52832_xxAA_s132_6.0.0.dir/__/__/mesh/core/src/timer.c.obj
 .bss.mp_ppi_tasks
                0x20004f7c        0xc examples/enocean_switch/CMakeFiles/enocean_switch_nrf52832_xxAA_s132_6.0.0.dir/__/__/mesh/core/src/timer.c.obj
 .bss.m_current_time
                0x20004f88        0x4 examples/enocean_switch/CMakeFiles/enocean_switch_nrf52832_xxAA_s132_6.0.0.dir/__/__/mesh/core/src/ticker.c.obj
 .bss.m_timer   0x20004f8c       0x18 examples/enocean_switch/CMakeFiles/enocean_switch_nrf52832_xxAA_s132_6.0.0.dir/__/__/mesh/core/src/ticker.c.obj
 .bss.m_current_timeslot
                0x20004fa4       0x1c examples/enocean_switch/CMakeFiles/enocean_switch_nrf52832_xxAA_s132_6.0.0.dir/__/__/mesh/core/src/timeslot.c.obj
 .bss.m_lfclk_ppm
                0x20004fc0        0x4 examples/enocean_switch/CMakeFiles/enocean_switch_nrf52832_xxAA_s132_6.0.0.dir/__/__/mesh/core/src/timeslot.c.obj
 .bss.m_radio_request_earliest
                0x20004fc4       0x10 examples/enocean_switch/CMakeFiles/enocean_switch_nrf52832_xxAA_s132_6.0.0.dir/__/__/mesh/core/src/timeslot.c.obj
 .bss.m_state_lock
                0x20004fd4        0x1 examples/enocean_switch/CMakeFiles/enocean_switch_nrf52832_xxAA_s132_6.0.0.dir/__/__/mesh/core/src/timeslot.c.obj
 .bss.m_timeslot_forced_command
                0x20004fd5        0x1 examples/enocean_switch/CMakeFiles/enocean_switch_nrf52832_xxAA_s132_6.0.0.dir/__/__/mesh/core/src/timeslot.c.obj
 *fill*         0x20004fd6        0x2 
 .bss.s_last_rtc_value.9299
                0x20004fd8        0x8 examples/enocean_switch/CMakeFiles/enocean_switch_nrf52832_xxAA_s132_6.0.0.dir/__/__/mesh/core/src/timeslot.c.obj
 .bss.m_bearer_event_fifo
                0x20004fe0       0x14 examples/enocean_switch/CMakeFiles/enocean_switch_nrf52832_xxAA_s132_6.0.0.dir/__/__/mesh/core/src/bearer_event.c.obj
 .bss.m_bearer_event_fifo_buffer
                0x20004ff4      0x100 examples/enocean_switch/CMakeFiles/enocean_switch_nrf52832_xxAA_s132_6.0.0.dir/__/__/mesh/core/src/bearer_event.c.obj
 .bss.m_critical
                0x200050f4        0x4 examples/enocean_switch/CMakeFiles/enocean_switch_nrf52832_xxAA_s132_6.0.0.dir/__/__/mesh/core/src/bearer_event.c.obj
 .bss.m_flag_count
                0x200050f8        0x4 examples/enocean_switch/CMakeFiles/enocean_switch_nrf52832_xxAA_s132_6.0.0.dir/__/__/mesh/core/src/bearer_event.c.obj
 .bss.m_flag_event_callbacks
                0x200050fc       0x20 examples/enocean_switch/CMakeFiles/enocean_switch_nrf52832_xxAA_s132_6.0.0.dir/__/__/mesh/core/src/bearer_event.c.obj
 .bss.m_flags   0x2000511c        0x4 examples/enocean_switch/CMakeFiles/enocean_switch_nrf52832_xxAA_s132_6.0.0.dir/__/__/mesh/core/src/bearer_event.c.obj
 .bss.m_irq_priority
                0x20005120        0x1 examples/enocean_switch/CMakeFiles/enocean_switch_nrf52832_xxAA_s132_6.0.0.dir/__/__/mesh/core/src/bearer_event.c.obj
 *fill*         0x20005121        0x3 
 .bss.m_sequential_event_queue
                0x20005124        0x8 examples/enocean_switch/CMakeFiles/enocean_switch_nrf52832_xxAA_s132_6.0.0.dir/__/__/mesh/core/src/bearer_event.c.obj
 .bss.s_recursion_guard.9430
                0x2000512c        0x1 examples/enocean_switch/CMakeFiles/enocean_switch_nrf52832_xxAA_s132_6.0.0.dir/__/__/mesh/core/src/bearer_event.c.obj
 *fill*         0x2000512d        0x3 
 .bss.m_relay_check_cb
                0x20005130        0x4 examples/enocean_switch/CMakeFiles/enocean_switch_nrf52832_xxAA_s132_6.0.0.dir/__/__/mesh/core/src/network.c.obj
 .bss.m_relay_enable
                0x20005134        0x1 examples/enocean_switch/CMakeFiles/enocean_switch_nrf52832_xxAA_s132_6.0.0.dir/__/__/mesh/core/src/network.c.obj
 *fill*         0x20005135        0x3 
 .bss.m_action_queue
                0x20005138        0xc examples/enocean_switch/CMakeFiles/enocean_switch_nrf52832_xxAA_s132_6.0.0.dir/__/__/mesh/core/src/flash_manager.c.obj
 .bss.m_action_queue_buffer
                0x20005144      0x104 examples/enocean_switch/CMakeFiles/enocean_switch_nrf52832_xxAA_s132_6.0.0.dir/__/__/mesh/core/src/flash_manager.c.obj
 .bss.m_action_state
                0x20005248        0x1 examples/enocean_switch/CMakeFiles/enocean_switch_nrf52832_xxAA_s132_6.0.0.dir/__/__/mesh/core/src/flash_manager.c.obj
 *fill*         0x20005249        0x3 
 .bss.m_memory_listener_queue
                0x2000524c        0x8 examples/enocean_switch/CMakeFiles/enocean_switch_nrf52832_xxAA_s132_6.0.0.dir/__/__/mesh/core/src/flash_manager.c.obj
 .bss.m_processing_flag
                0x20005254        0x4 examples/enocean_switch/CMakeFiles/enocean_switch_nrf52832_xxAA_s132_6.0.0.dir/__/__/mesh/core/src/flash_manager.c.obj
 .bss.m_queue_empty_cb
                0x20005258        0x4 examples/enocean_switch/CMakeFiles/enocean_switch_nrf52832_xxAA_s132_6.0.0.dir/__/__/mesh/core/src/flash_manager.c.obj
 .bss.m_state   0x2000525c        0x1 examples/enocean_switch/CMakeFiles/enocean_switch_nrf52832_xxAA_s132_6.0.0.dir/__/__/mesh/core/src/flash_manager.c.obj
 *fill*         0x2000525d        0x1 
 .bss.m_token   0x2000525e        0x2 examples/enocean_switch/CMakeFiles/enocean_switch_nrf52832_xxAA_s132_6.0.0.dir/__/__/mesh/core/src/flash_manager.c.obj
 .bss.p_current.11149
                0x20005260        0x4 examples/enocean_switch/CMakeFiles/enocean_switch_nrf52832_xxAA_s132_6.0.0.dir/__/__/mesh/core/src/flash_manager.c.obj
 .bss.result.11150
                0x20005264        0x1 examples/enocean_switch/CMakeFiles/enocean_switch_nrf52832_xxAA_s132_6.0.0.dir/__/__/mesh/core/src/flash_manager.c.obj
 .bss.m_cache_index
                0x20005265        0x1 examples/enocean_switch/CMakeFiles/enocean_switch_nrf52832_xxAA_s132_6.0.0.dir/__/__/mesh/core/src/replay_cache.c.obj
 *fill*         0x20005266        0x2 
 .bss.m_replay_cache
                0x20005268      0x200 examples/enocean_switch/CMakeFiles/enocean_switch_nrf52832_xxAA_s132_6.0.0.dir/__/__/mesh/core/src/replay_cache.c.obj
 .bss.m_bearer_count
                0x20005468        0x1 examples/enocean_switch/CMakeFiles/enocean_switch_nrf52832_xxAA_s132_6.0.0.dir/__/__/mesh/core/src/core_tx.c.obj
 *fill*         0x20005469        0x3 
 .bss.m_tx_complete_callback
                0x2000546c        0x4 examples/enocean_switch/CMakeFiles/enocean_switch_nrf52832_xxAA_s132_6.0.0.dir/__/__/mesh/core/src/core_tx.c.obj
 .bss.mp_bearers
                0x20005470        0x4 examples/enocean_switch/CMakeFiles/enocean_switch_nrf52832_xxAA_s132_6.0.0.dir/__/__/mesh/core/src/core_tx.c.obj
 .bss.m_hb_core_evt_handler
                0x20005474        0x8 examples/enocean_switch/CMakeFiles/enocean_switch_nrf52832_xxAA_s132_6.0.0.dir/__/__/mesh/core/src/heartbeat.c.obj
 .bss.m_hb_pending_feat_msg
                0x2000547c        0x1 examples/enocean_switch/CMakeFiles/enocean_switch_nrf52832_xxAA_s132_6.0.0.dir/__/__/mesh/core/src/heartbeat.c.obj
 .bss.m_hb_pending_pub_msg
                0x2000547d        0x1 examples/enocean_switch/CMakeFiles/enocean_switch_nrf52832_xxAA_s132_6.0.0.dir/__/__/mesh/core/src/heartbeat.c.obj
 .bss.m_heartbeat_init_done
                0x2000547e        0x1 examples/enocean_switch/CMakeFiles/enocean_switch_nrf52832_xxAA_s132_6.0.0.dir/__/__/mesh/core/src/heartbeat.c.obj
 *fill*         0x2000547f        0x1 
 .bss.m_heartbeat_subscription
                0x20005480       0x10 examples/enocean_switch/CMakeFiles/enocean_switch_nrf52832_xxAA_s132_6.0.0.dir/__/__/mesh/core/src/heartbeat.c.obj
 .bss.m_publication_count_decrement_cb
                0x20005490        0x4 examples/enocean_switch/CMakeFiles/enocean_switch_nrf52832_xxAA_s132_6.0.0.dir/__/__/mesh/core/src/heartbeat.c.obj
 .bss.m_publication_get_cb
                0x20005494        0x4 examples/enocean_switch/CMakeFiles/enocean_switch_nrf52832_xxAA_s132_6.0.0.dir/__/__/mesh/core/src/heartbeat.c.obj
 .bss.m_publication_timer
                0x20005498       0x1c examples/enocean_switch/CMakeFiles/enocean_switch_nrf52832_xxAA_s132_6.0.0.dir/__/__/mesh/core/src/heartbeat.c.obj
 .bss.m_subscription_timer
                0x200054b4       0x18 examples/enocean_switch/CMakeFiles/enocean_switch_nrf52832_xxAA_s132_6.0.0.dir/__/__/mesh/core/src/heartbeat.c.obj
 .bss.m_adv     0x200054cc       0x98 examples/enocean_switch/CMakeFiles/enocean_switch_nrf52832_xxAA_s132_6.0.0.dir/__/__/mesh/core/src/net_beacon.c.obj
 .bss.m_adv_buf
                0x20005564       0x34 examples/enocean_switch/CMakeFiles/enocean_switch_nrf52832_xxAA_s132_6.0.0.dir/__/__/mesh/core/src/net_beacon.c.obj
 .bss.m_beacon_salt
                0x20005598       0x10 examples/enocean_switch/CMakeFiles/enocean_switch_nrf52832_xxAA_s132_6.0.0.dir/__/__/mesh/core/src/net_beacon.c.obj
 .bss.m_enabled
                0x200055a8        0x1 examples/enocean_switch/CMakeFiles/enocean_switch_nrf52832_xxAA_s132_6.0.0.dir/__/__/mesh/core/src/net_beacon.c.obj
 *fill*         0x200055a9        0x3 
 .bss.m_tx_timer
                0x200055ac       0x18 examples/enocean_switch/CMakeFiles/enocean_switch_nrf52832_xxAA_s132_6.0.0.dir/__/__/mesh/core/src/net_beacon.c.obj
 .bss.mp_beacon_info
                0x200055c4        0x4 examples/enocean_switch/CMakeFiles/enocean_switch_nrf52832_xxAA_s132_6.0.0.dir/__/__/mesh/core/src/net_beacon.c.obj
 .bss.m_bearer  0x200055c8        0xc examples/enocean_switch/CMakeFiles/enocean_switch_nrf52832_xxAA_s132_6.0.0.dir/__/__/mesh/core/src/core_tx_adv.c.obj
 .bss.m_bearer_roles
                0x200055d4      0x138 examples/enocean_switch/CMakeFiles/enocean_switch_nrf52832_xxAA_s132_6.0.0.dir/__/__/mesh/core/src/core_tx_adv.c.obj
 .bss.m_current_alloc
                0x2000570c        0x8 examples/enocean_switch/CMakeFiles/enocean_switch_nrf52832_xxAA_s132_6.0.0.dir/__/__/mesh/core/src/core_tx_adv.c.obj
 .bss.m_originator_adv_packet_buffer
                0x20005714      0x100 examples/enocean_switch/CMakeFiles/enocean_switch_nrf52832_xxAA_s132_6.0.0.dir/__/__/mesh/core/src/core_tx_adv.c.obj
 .bss.m_relay_adv_packet_buffer
                0x20005814       0x80 examples/enocean_switch/CMakeFiles/enocean_switch_nrf52832_xxAA_s132_6.0.0.dir/__/__/mesh/core/src/core_tx_adv.c.obj
 .bss.m_subscribers
                0x20005894        0x4 examples/enocean_switch/CMakeFiles/enocean_switch_nrf52832_xxAA_s132_6.0.0.dir/__/__/mesh/bearer/src/ad_listener.c.obj
 .bss.m_adtype_filter
                0x20005898       0x38 examples/enocean_switch/CMakeFiles/enocean_switch_nrf52832_xxAA_s132_6.0.0.dir/__/__/mesh/bearer/src/ad_type_filter.c.obj
 .bss.m_adv_prng
                0x200058d0       0x10 examples/enocean_switch/CMakeFiles/enocean_switch_nrf52832_xxAA_s132_6.0.0.dir/__/__/mesh/bearer/src/advertiser.c.obj
 .bss.m_action_queue
                0x200058e0        0x8 examples/enocean_switch/CMakeFiles/enocean_switch_nrf52832_xxAA_s132_6.0.0.dir/__/__/mesh/bearer/src/bearer_handler.c.obj
 .bss.m_end_time
                0x200058e8        0x4 examples/enocean_switch/CMakeFiles/enocean_switch_nrf52832_xxAA_s132_6.0.0.dir/__/__/mesh/bearer/src/bearer_handler.c.obj
 .bss.m_scanner_is_active
                0x200058ec        0x1 examples/enocean_switch/CMakeFiles/enocean_switch_nrf52832_xxAA_s132_6.0.0.dir/__/__/mesh/bearer/src/bearer_handler.c.obj
 .bss.m_stopped
                0x200058ed        0x1 examples/enocean_switch/CMakeFiles/enocean_switch_nrf52832_xxAA_s132_6.0.0.dir/__/__/mesh/bearer/src/bearer_handler.c.obj
 *fill*         0x200058ee        0x2 
 .bss.mp_action
                0x200058f0        0x4 examples/enocean_switch/CMakeFiles/enocean_switch_nrf52832_xxAA_s132_6.0.0.dir/__/__/mesh/bearer/src/bearer_handler.c.obj
 .bss.m_next_channel_index
                0x200058f4        0x1 examples/enocean_switch/CMakeFiles/enocean_switch_nrf52832_xxAA_s132_6.0.0.dir/__/__/mesh/bearer/src/broadcast.c.obj
 *fill*         0x200058f5        0x3 
 .bss.m_accepted_amount
                0x200058f8        0x4 examples/enocean_switch/CMakeFiles/enocean_switch_nrf52832_xxAA_s132_6.0.0.dir/__/__/mesh/bearer/src/filter_engine.c.obj
 .bss.m_filter_list_head
                0x200058fc        0x4 examples/enocean_switch/CMakeFiles/enocean_switch_nrf52832_xxAA_s132_6.0.0.dir/__/__/mesh/bearer/src/filter_engine.c.obj
 .bss.m_scanner
                0x20005900      0x290 examples/enocean_switch/CMakeFiles/enocean_switch_nrf52832_xxAA_s132_6.0.0.dir/__/__/mesh/bearer/src/scanner.c.obj
 .bss.m_tid     0x20005b90        0x1 examples/enocean_switch/CMakeFiles/enocean_switch_nrf52832_xxAA_s132_6.0.0.dir/__/__/models/simple_on_off/src/simple_on_off_client.c.obj
 *fill*         0x20005b91        0x3 
 .bss.m_evt_cb  0x20005b94        0x4 examples/enocean_switch/CMakeFiles/enocean_switch_nrf52832_xxAA_s132_6.0.0.dir/__/__/models/config/src/config_server.c.obj
 .bss.m_heartbeat_publication
                0x20005b98       0x14 examples/enocean_switch/CMakeFiles/enocean_switch_nrf52832_xxAA_s132_6.0.0.dir/__/__/models/config/src/config_server.c.obj
 .bss.m_node_reset_pending
                0x20005bac        0x1 examples/enocean_switch/CMakeFiles/enocean_switch_nrf52832_xxAA_s132_6.0.0.dir/__/__/models/config/src/config_server.c.obj
 *fill*         0x20005bad        0x3 
 .bss.m_attention_timer
                0x20005bb0       0x18 examples/enocean_switch/CMakeFiles/enocean_switch_nrf52832_xxAA_s132_6.0.0.dir/__/__/models/health/src/health_server.c.obj
 .bss.mp_attention_list
                0x20005bc8        0x4 examples/enocean_switch/CMakeFiles/enocean_switch_nrf52832_xxAA_s132_6.0.0.dir/__/__/models/health/src/health_server.c.obj
 .bss.m_publish_timer
                0x20005bcc       0x18 examples/enocean_switch/CMakeFiles/enocean_switch_nrf52832_xxAA_s132_6.0.0.dir/__/__/mesh/access/src/access_publish.c.obj
 .bss.m_publish_timer_counter
                0x20005be4        0x4 examples/enocean_switch/CMakeFiles/enocean_switch_nrf52832_xxAA_s132_6.0.0.dir/__/__/mesh/access/src/access_publish.c.obj
 .bss.m_publish_timer_running
                0x20005be8        0x1 examples/enocean_switch/CMakeFiles/enocean_switch_nrf52832_xxAA_s132_6.0.0.dir/__/__/mesh/access/src/access_publish.c.obj
 .bss.m_timer_resolution
                0x20005be9        0x1 examples/enocean_switch/CMakeFiles/enocean_switch_nrf52832_xxAA_s132_6.0.0.dir/__/__/mesh/access/src/access_publish.c.obj
 *fill*         0x20005bea        0x2 
 .bss.mp_publication_list
                0x20005bec        0x4 examples/enocean_switch/CMakeFiles/enocean_switch_nrf52832_xxAA_s132_6.0.0.dir/__/__/mesh/access/src/access_publish.c.obj
 .bss.m_element_pool
                0x20005bf0       0x1e examples/enocean_switch/CMakeFiles/enocean_switch_nrf52832_xxAA_s132_6.0.0.dir/__/__/mesh/access/src/access.c.obj
 *fill*         0x20005c0e        0x2 
 .bss.m_evt_handler
                0x20005c10        0x8 examples/enocean_switch/CMakeFiles/enocean_switch_nrf52832_xxAA_s132_6.0.0.dir/__/__/mesh/access/src/access.c.obj
 .bss.m_flash_manager
                0x20005c18       0x24 examples/enocean_switch/CMakeFiles/enocean_switch_nrf52832_xxAA_s132_6.0.0.dir/__/__/mesh/access/src/access.c.obj
 .bss.m_flash_not_ready
                0x20005c3c        0x1 examples/enocean_switch/CMakeFiles/enocean_switch_nrf52832_xxAA_s132_6.0.0.dir/__/__/mesh/access/src/access.c.obj
 .bss.m_metadata_stored
                0x20005c3d        0x1 examples/enocean_switch/CMakeFiles/enocean_switch_nrf52832_xxAA_s132_6.0.0.dir/__/__/mesh/access/src/access.c.obj
 *fill*         0x20005c3e        0x2 
 .bss.m_model_pool
                0x20005c40      0x138 examples/enocean_switch/CMakeFiles/enocean_switch_nrf52832_xxAA_s132_6.0.0.dir/__/__/mesh/access/src/access.c.obj
 .bss.m_subscription_list_pool
                0x20005d78       0x30 examples/enocean_switch/CMakeFiles/enocean_switch_nrf52832_xxAA_s132_6.0.0.dir/__/__/mesh/access/src/access.c.obj
 .bss.m_reliable
                0x20005da8      0x124 examples/enocean_switch/CMakeFiles/enocean_switch_nrf52832_xxAA_s132_6.0.0.dir/__/__/mesh/access/src/access_reliable.c.obj
 .bss.m_addr_nonvirtual_allocated
                0x20005ecc        0x4 examples/enocean_switch/CMakeFiles/enocean_switch_nrf52832_xxAA_s132_6.0.0.dir/__/__/mesh/access/src/device_state_manager.c.obj
 .bss.m_addr_nonvirtual_needs_flashing
                0x20005ed0        0x4 examples/enocean_switch/CMakeFiles/enocean_switch_nrf52832_xxAA_s132_6.0.0.dir/__/__/mesh/access/src/device_state_manager.c.obj
 .bss.m_addr_unicast_allocated
                0x20005ed4        0x4 examples/enocean_switch/CMakeFiles/enocean_switch_nrf52832_xxAA_s132_6.0.0.dir/__/__/mesh/access/src/device_state_manager.c.obj
 .bss.m_addr_unicast_needs_flashing
                0x20005ed8        0x4 examples/enocean_switch/CMakeFiles/enocean_switch_nrf52832_xxAA_s132_6.0.0.dir/__/__/mesh/access/src/device_state_manager.c.obj
 .bss.m_addr_virtual_allocated
                0x20005edc        0x4 examples/enocean_switch/CMakeFiles/enocean_switch_nrf52832_xxAA_s132_6.0.0.dir/__/__/mesh/access/src/device_state_manager.c.obj
 .bss.m_addr_virtual_needs_flashing
                0x20005ee0        0x4 examples/enocean_switch/CMakeFiles/enocean_switch_nrf52832_xxAA_s132_6.0.0.dir/__/__/mesh/access/src/device_state_manager.c.obj
 .bss.m_addresses
                0x20005ee4       0x40 examples/enocean_switch/CMakeFiles/enocean_switch_nrf52832_xxAA_s132_6.0.0.dir/__/__/mesh/access/src/device_state_manager.c.obj
 .bss.m_appkey_allocated
                0x20005f24        0x4 examples/enocean_switch/CMakeFiles/enocean_switch_nrf52832_xxAA_s132_6.0.0.dir/__/__/mesh/access/src/device_state_manager.c.obj
 .bss.m_appkey_needs_flashing
                0x20005f28        0x4 examples/enocean_switch/CMakeFiles/enocean_switch_nrf52832_xxAA_s132_6.0.0.dir/__/__/mesh/access/src/device_state_manager.c.obj
 .bss.m_appkeys
                0x20005f2c      0x150 examples/enocean_switch/CMakeFiles/enocean_switch_nrf52832_xxAA_s132_6.0.0.dir/__/__/mesh/access/src/device_state_manager.c.obj
 .bss.m_devkey_allocated
                0x2000607c        0x4 examples/enocean_switch/CMakeFiles/enocean_switch_nrf52832_xxAA_s132_6.0.0.dir/__/__/mesh/access/src/device_state_manager.c.obj
 .bss.m_devkey_needs_flashing
                0x20006080        0x4 examples/enocean_switch/CMakeFiles/enocean_switch_nrf52832_xxAA_s132_6.0.0.dir/__/__/mesh/access/src/device_state_manager.c.obj
 .bss.m_devkeys
                0x20006084       0x16 examples/enocean_switch/CMakeFiles/enocean_switch_nrf52832_xxAA_s132_6.0.0.dir/__/__/mesh/access/src/device_state_manager.c.obj
 .bss.m_flash_is_available
                0x2000609a        0x1 examples/enocean_switch/CMakeFiles/enocean_switch_nrf52832_xxAA_s132_6.0.0.dir/__/__/mesh/access/src/device_state_manager.c.obj
 *fill*         0x2000609b        0x1 
 .bss.m_flash_manager
                0x2000609c       0x24 examples/enocean_switch/CMakeFiles/enocean_switch_nrf52832_xxAA_s132_6.0.0.dir/__/__/mesh/access/src/device_state_manager.c.obj
 .bss.m_flash_mem_listener_update_all
                0x200060c0       0x10 examples/enocean_switch/CMakeFiles/enocean_switch_nrf52832_xxAA_s132_6.0.0.dir/__/__/mesh/access/src/device_state_manager.c.obj
 .bss.m_has_primary_subnet
                0x200060d0        0x1 examples/enocean_switch/CMakeFiles/enocean_switch_nrf52832_xxAA_s132_6.0.0.dir/__/__/mesh/access/src/device_state_manager.c.obj
 *fill*         0x200060d1        0x3 
 .bss.m_local_unicast_addr
                0x200060d4        0x4 examples/enocean_switch/CMakeFiles/enocean_switch_nrf52832_xxAA_s132_6.0.0.dir/__/__/mesh/access/src/device_state_manager.c.obj
 .bss.m_mesh_evt_handler
                0x200060d8        0x8 examples/enocean_switch/CMakeFiles/enocean_switch_nrf52832_xxAA_s132_6.0.0.dir/__/__/mesh/access/src/device_state_manager.c.obj
 .bss.m_subnet_allocated
                0x200060e0        0x4 examples/enocean_switch/CMakeFiles/enocean_switch_nrf52832_xxAA_s132_6.0.0.dir/__/__/mesh/access/src/device_state_manager.c.obj
 .bss.m_subnet_needs_flashing
                0x200060e4        0x4 examples/enocean_switch/CMakeFiles/enocean_switch_nrf52832_xxAA_s132_6.0.0.dir/__/__/mesh/access/src/device_state_manager.c.obj
 .bss.m_subnets
                0x200060e8      0x2a0 examples/enocean_switch/CMakeFiles/enocean_switch_nrf52832_xxAA_s132_6.0.0.dir/__/__/mesh/access/src/device_state_manager.c.obj
 .bss.m_virtual_addresses
                0x20006388       0xa0 examples/enocean_switch/CMakeFiles/enocean_switch_nrf52832_xxAA_s132_6.0.0.dir/__/__/mesh/access/src/device_state_manager.c.obj
 .bss.m_event_handler
                0x20006428        0x4 examples/enocean_switch/CMakeFiles/enocean_switch_nrf52832_xxAA_s132_6.0.0.dir/__/__/mesh/prov/src/prov_beacon.c.obj
 .bss.m_offload_ecdh
                0x2000642c        0x1 examples/enocean_switch/CMakeFiles/enocean_switch_nrf52832_xxAA_s132_6.0.0.dir/__/__/mesh/prov/src/prov_utils.c.obj
 *fill*         0x2000642d        0x3 
 .bss.mp_bearer_head
                0x20006430        0x4 examples/enocean_switch/CMakeFiles/enocean_switch_nrf52832_xxAA_s132_6.0.0.dir/__/__/mesh/prov/src/prov_bearer_adv.c.obj
 .bss._acDownBuffer
                0x20006434       0x80 external/rtt/librtt_nrf52832_xxAA.a(SEGGER_RTT.c.obj)
 .bss._acUpBuffer
                0x200064b4      0x400 external/rtt/librtt_nrf52832_xxAA.a(SEGGER_RTT.c.obj)
 .bss.__malloc_free_list
                0x200068b4        0x4 c:/mesh/arm_gcc/bin/../lib/gcc/arm-none-eabi/6.3.1/../../../../arm-none-eabi/lib/thumb/v7e-m/fpv4-sp/hard\libc_nano.a(lib_a-nano-mallocr.o)
                0x200068b4                __malloc_free_list
 .bss.__malloc_sbrk_start
                0x200068b8        0x4 c:/mesh/arm_gcc/bin/../lib/gcc/arm-none-eabi/6.3.1/../../../../arm-none-eabi/lib/thumb/v7e-m/fpv4-sp/hard\libc_nano.a(lib_a-nano-mallocr.o)
                0x200068b8                __malloc_sbrk_start
 .bss.heap_end.5239
                0x200068bc        0x4 c:/mesh/arm_gcc/bin/../lib/gcc/arm-none-eabi/6.3.1/../../../../arm-none-eabi/lib/thumb/v7e-m/fpv4-sp/hard\libnosys.a(sbrk.o)
 *(COMMON)
 COMMON         0x200068c0        0xc examples/enocean_switch/CMakeFiles/enocean_switch_nrf52832_xxAA_s132_6.0.0.dir/__/common/src/mesh_softdevice_init.c.obj
                0x200068c0                nrf_nvic_state
 COMMON         0x200068cc       0x24 examples/enocean_switch/CMakeFiles/enocean_switch_nrf52832_xxAA_s132_6.0.0.dir/__/__/mesh/core/src/core_tx.c.obj
                0x200068cc                m_packet
 COMMON         0x200068f0       0x78 external/rtt/librtt_nrf52832_xxAA.a(SEGGER_RTT.c.obj)
                0x200068f0                _SEGGER_RTT
 COMMON         0x20006968        0x4 c:/mesh/arm_gcc/bin/../lib/gcc/arm-none-eabi/6.3.1/../../../../arm-none-eabi/lib/thumb/v7e-m/fpv4-sp/hard\libc_nano.a(lib_a-reent.o)
                0x20006968                errno
                0x2000696c                . = ALIGN (0x4)
                0x2000696c                __bss_end__ = .

.heap           0x20006970     0x2000
                0x20006970                __HeapBase = .
                0x20006970                __end__ = .
                0x20006970                PROVIDE (end, .)
 *(.heap*)
 .heap          0x20006970     0x2000 examples/enocean_switch/CMakeFiles/enocean_switch_nrf52832_xxAA_s132_6.0.0.dir/C_/ver/mod/nRF5_SDK_15.0.0_a53641a/modules/nrfx/mdk/gcc_startup_nrf52.S.obj
                0x20008970                __HeapLimit = .

.stack_dummy    0x20006970     0x2000
 *(.stack*)
 .stack         0x20006970     0x2000 examples/enocean_switch/CMakeFiles/enocean_switch_nrf52832_xxAA_s132_6.0.0.dir/C_/ver/mod/nRF5_SDK_15.0.0_a53641a/modules/nrfx/mdk/gcc_startup_nrf52.S.obj
                0x2000fd00                __StackTop = (ORIGIN (RAM) + LENGTH (RAM))
                0x2000dd00                __StackLimit = (__StackTop - SIZEOF (.stack_dummy))
                0x2000fd00                PROVIDE (__stack, __StackTop)
                0x00000001                ASSERT ((__StackLimit >= __HeapLimit), region RAM overflowed with stack)
                0x00000170                DataInitFlashUsed = (__bss_start__ - __data_start__)
                0x0001fa10                CodeFlashUsed = (__etext - ORIGIN (FLASH))
                0x0001fb80                TotalFlashUsed = (CodeFlashUsed + DataInitFlashUsed)
                0x00000001                ASSERT ((TotalFlashUsed <= LENGTH (FLASH)), region FLASH overflowed with .data and user data)
OUTPUT(examples\enocean_switch\enocean_switch_nrf52832_xxAA_s132_6.0.0.elf elf32-littlearm)

.ARM.attributes
                0x00000000       0x30
 .ARM.attributes
                0x00000000       0x22 c:/mesh/arm_gcc/bin/../lib/gcc/arm-none-eabi/6.3.1/thumb/v7e-m/fpv4-sp/hard/crti.o
 .ARM.attributes
                0x00000022       0x34 c:/mesh/arm_gcc/bin/../lib/gcc/arm-none-eabi/6.3.1/thumb/v7e-m/fpv4-sp/hard/crtbegin.o
 .ARM.attributes
                0x00000056       0x20 c:/mesh/arm_gcc/bin/../lib/gcc/arm-none-eabi/6.3.1/../../../../arm-none-eabi/lib/thumb/v7e-m/fpv4-sp/hard/crt0.o
 .ARM.attributes
                0x00000076       0x39 examples/enocean_switch/CMakeFiles/enocean_switch_nrf52832_xxAA_s132_6.0.0.dir/src/main.c.obj
 .ARM.attributes
                0x000000af       0x39 examples/enocean_switch/CMakeFiles/enocean_switch_nrf52832_xxAA_s132_6.0.0.dir/src/enocean.c.obj
 .ARM.attributes
                0x000000e8       0x39 examples/enocean_switch/CMakeFiles/enocean_switch_nrf52832_xxAA_s132_6.0.0.dir/src/flash_helper.c.obj
 .ARM.attributes
                0x00000121       0x39 examples/enocean_switch/CMakeFiles/enocean_switch_nrf52832_xxAA_s132_6.0.0.dir/__/__/mesh/stack/src/mesh_stack.c.obj
 .ARM.attributes
                0x0000015a       0x39 examples/enocean_switch/CMakeFiles/enocean_switch_nrf52832_xxAA_s132_6.0.0.dir/__/common/src/mesh_softdevice_init.c.obj
 .ARM.attributes
                0x00000193       0x39 examples/enocean_switch/CMakeFiles/enocean_switch_nrf52832_xxAA_s132_6.0.0.dir/__/common/src/mesh_provisionee.c.obj
 .ARM.attributes
                0x000001cc       0x39 examples/enocean_switch/CMakeFiles/enocean_switch_nrf52832_xxAA_s132_6.0.0.dir/__/common/src/rtt_input.c.obj
 .ARM.attributes
                0x00000205       0x39 examples/enocean_switch/CMakeFiles/enocean_switch_nrf52832_xxAA_s132_6.0.0.dir/__/common/src/simple_hal.c.obj
 .ARM.attributes
                0x0000023e       0x39 examples/enocean_switch/CMakeFiles/enocean_switch_nrf52832_xxAA_s132_6.0.0.dir/__/nrf_mesh_weak.c.obj
 .ARM.attributes
                0x00000277       0x39 examples/enocean_switch/CMakeFiles/enocean_switch_nrf52832_xxAA_s132_6.0.0.dir/__/common/src/app_error_weak.c.obj
 .ARM.attributes
                0x000002b0       0x39 examples/enocean_switch/CMakeFiles/enocean_switch_nrf52832_xxAA_s132_6.0.0.dir/__/common/src/assertion_handler_weak.c.obj
 .ARM.attributes
                0x000002e9       0x39 examples/enocean_switch/CMakeFiles/enocean_switch_nrf52832_xxAA_s132_6.0.0.dir/__/__/mesh/core/src/nrf_mesh_configure.c.obj
 .ARM.attributes
                0x00000322       0x39 examples/enocean_switch/CMakeFiles/enocean_switch_nrf52832_xxAA_s132_6.0.0.dir/__/__/mesh/core/src/aes.c.obj
 .ARM.attributes
                0x0000035b       0x39 examples/enocean_switch/CMakeFiles/enocean_switch_nrf52832_xxAA_s132_6.0.0.dir/__/__/mesh/core/src/msg_cache.c.obj
 .ARM.attributes
                0x00000394       0x39 examples/enocean_switch/CMakeFiles/enocean_switch_nrf52832_xxAA_s132_6.0.0.dir/__/__/mesh/core/src/transport.c.obj
 .ARM.attributes
                0x000003cd       0x39 examples/enocean_switch/CMakeFiles/enocean_switch_nrf52832_xxAA_s132_6.0.0.dir/__/__/mesh/core/src/event.c.obj
 .ARM.attributes
                0x00000406       0x39 examples/enocean_switch/CMakeFiles/enocean_switch_nrf52832_xxAA_s132_6.0.0.dir/__/__/mesh/core/src/packet_buffer.c.obj
 .ARM.attributes
                0x0000043f       0x39 examples/enocean_switch/CMakeFiles/enocean_switch_nrf52832_xxAA_s132_6.0.0.dir/__/__/mesh/core/src/flash_manager_defrag.c.obj
 .ARM.attributes
                0x00000478       0x39 examples/enocean_switch/CMakeFiles/enocean_switch_nrf52832_xxAA_s132_6.0.0.dir/__/__/mesh/core/src/fifo.c.obj
 .ARM.attributes
                0x000004b1       0x39 examples/enocean_switch/CMakeFiles/enocean_switch_nrf52832_xxAA_s132_6.0.0.dir/__/__/mesh/core/src/nrf_flash.c.obj
 .ARM.attributes
                0x000004ea       0x39 examples/enocean_switch/CMakeFiles/enocean_switch_nrf52832_xxAA_s132_6.0.0.dir/__/__/mesh/core/src/packet_mgr.c.obj
 .ARM.attributes
                0x00000523       0x39 examples/enocean_switch/CMakeFiles/enocean_switch_nrf52832_xxAA_s132_6.0.0.dir/__/__/mesh/core/src/net_state.c.obj
 .ARM.attributes
                0x0000055c       0x39 examples/enocean_switch/CMakeFiles/enocean_switch_nrf52832_xxAA_s132_6.0.0.dir/__/__/mesh/core/src/mesh_flash.c.obj
 .ARM.attributes
                0x00000595       0x39 examples/enocean_switch/CMakeFiles/enocean_switch_nrf52832_xxAA_s132_6.0.0.dir/__/__/mesh/core/src/nrf_mesh_utils.c.obj
 .ARM.attributes
                0x000005ce       0x39 examples/enocean_switch/CMakeFiles/enocean_switch_nrf52832_xxAA_s132_6.0.0.dir/__/__/mesh/core/src/nrf_mesh.c.obj
 .ARM.attributes
                0x00000607       0x39 examples/enocean_switch/CMakeFiles/enocean_switch_nrf52832_xxAA_s132_6.0.0.dir/__/__/mesh/core/src/queue.c.obj
 .ARM.attributes
                0x00000640       0x39 examples/enocean_switch/CMakeFiles/enocean_switch_nrf52832_xxAA_s132_6.0.0.dir/__/__/mesh/core/src/hal.c.obj
 .ARM.attributes
                0x00000679       0x39 examples/enocean_switch/CMakeFiles/enocean_switch_nrf52832_xxAA_s132_6.0.0.dir/__/__/mesh/core/src/aes_cmac.c.obj
 .ARM.attributes
                0x000006b2       0x39 examples/enocean_switch/CMakeFiles/enocean_switch_nrf52832_xxAA_s132_6.0.0.dir/__/__/mesh/core/src/timer_scheduler.c.obj
 .ARM.attributes
                0x000006eb       0x39 examples/enocean_switch/CMakeFiles/enocean_switch_nrf52832_xxAA_s132_6.0.0.dir/__/__/mesh/core/src/timer.c.obj
 .ARM.attributes
                0x00000724       0x39 examples/enocean_switch/CMakeFiles/enocean_switch_nrf52832_xxAA_s132_6.0.0.dir/__/__/mesh/core/src/ticker.c.obj
 .ARM.attributes
                0x0000075d       0x39 examples/enocean_switch/CMakeFiles/enocean_switch_nrf52832_xxAA_s132_6.0.0.dir/__/__/mesh/core/src/rand.c.obj
 .ARM.attributes
                0x00000796       0x39 examples/enocean_switch/CMakeFiles/enocean_switch_nrf52832_xxAA_s132_6.0.0.dir/__/__/mesh/core/src/nrf_mesh_opt.c.obj
 .ARM.attributes
                0x000007cf       0x39 examples/enocean_switch/CMakeFiles/enocean_switch_nrf52832_xxAA_s132_6.0.0.dir/__/__/mesh/core/src/timeslot.c.obj
 .ARM.attributes
                0x00000808       0x39 examples/enocean_switch/CMakeFiles/enocean_switch_nrf52832_xxAA_s132_6.0.0.dir/__/__/mesh/core/src/bearer_event.c.obj
 .ARM.attributes
                0x00000841       0x39 examples/enocean_switch/CMakeFiles/enocean_switch_nrf52832_xxAA_s132_6.0.0.dir/__/__/mesh/core/src/enc.c.obj
 .ARM.attributes
                0x0000087a       0x39 examples/enocean_switch/CMakeFiles/enocean_switch_nrf52832_xxAA_s132_6.0.0.dir/__/__/mesh/core/src/network.c.obj
 .ARM.attributes
                0x000008b3       0x39 examples/enocean_switch/CMakeFiles/enocean_switch_nrf52832_xxAA_s132_6.0.0.dir/__/__/mesh/core/src/net_packet.c.obj
 .ARM.attributes
                0x000008ec       0x39 examples/enocean_switch/CMakeFiles/enocean_switch_nrf52832_xxAA_s132_6.0.0.dir/__/__/mesh/core/src/msqueue.c.obj
 .ARM.attributes
                0x00000925       0x39 examples/enocean_switch/CMakeFiles/enocean_switch_nrf52832_xxAA_s132_6.0.0.dir/__/__/mesh/core/src/nrf_mesh_keygen.c.obj
 .ARM.attributes
                0x0000095e       0x39 examples/enocean_switch/CMakeFiles/enocean_switch_nrf52832_xxAA_s132_6.0.0.dir/__/__/mesh/core/src/list.c.obj
 .ARM.attributes
                0x00000997       0x39 examples/enocean_switch/CMakeFiles/enocean_switch_nrf52832_xxAA_s132_6.0.0.dir/__/__/mesh/core/src/log.c.obj
 .ARM.attributes
                0x000009d0       0x39 examples/enocean_switch/CMakeFiles/enocean_switch_nrf52832_xxAA_s132_6.0.0.dir/__/__/mesh/core/src/flash_manager.c.obj
 .ARM.attributes
                0x00000a09       0x39 examples/enocean_switch/CMakeFiles/enocean_switch_nrf52832_xxAA_s132_6.0.0.dir/__/__/mesh/core/src/ccm_soft.c.obj
 .ARM.attributes
                0x00000a42       0x39 examples/enocean_switch/CMakeFiles/enocean_switch_nrf52832_xxAA_s132_6.0.0.dir/__/__/mesh/core/src/replay_cache.c.obj
 .ARM.attributes
                0x00000a7b       0x39 examples/enocean_switch/CMakeFiles/enocean_switch_nrf52832_xxAA_s132_6.0.0.dir/__/__/mesh/core/src/beacon.c.obj
 .ARM.attributes
                0x00000ab4       0x39 examples/enocean_switch/CMakeFiles/enocean_switch_nrf52832_xxAA_s132_6.0.0.dir/__/__/mesh/core/src/flash_manager_internal.c.obj
 .ARM.attributes
                0x00000aed       0x39 examples/enocean_switch/CMakeFiles/enocean_switch_nrf52832_xxAA_s132_6.0.0.dir/__/__/mesh/core/src/core_tx.c.obj
 .ARM.attributes
                0x00000b26       0x39 examples/enocean_switch/CMakeFiles/enocean_switch_nrf52832_xxAA_s132_6.0.0.dir/__/__/mesh/core/src/heartbeat.c.obj
 .ARM.attributes
                0x00000b5f       0x39 examples/enocean_switch/CMakeFiles/enocean_switch_nrf52832_xxAA_s132_6.0.0.dir/__/__/mesh/core/src/net_beacon.c.obj
 .ARM.attributes
                0x00000b98       0x39 examples/enocean_switch/CMakeFiles/enocean_switch_nrf52832_xxAA_s132_6.0.0.dir/__/__/mesh/core/src/core_tx_adv.c.obj
 .ARM.attributes
                0x00000bd1       0x39 examples/enocean_switch/CMakeFiles/enocean_switch_nrf52832_xxAA_s132_6.0.0.dir/__/__/mesh/bearer/src/ad_listener.c.obj
 .ARM.attributes
                0x00000c0a       0x39 examples/enocean_switch/CMakeFiles/enocean_switch_nrf52832_xxAA_s132_6.0.0.dir/__/__/mesh/bearer/src/ad_type_filter.c.obj
 .ARM.attributes
                0x00000c43       0x39 examples/enocean_switch/CMakeFiles/enocean_switch_nrf52832_xxAA_s132_6.0.0.dir/__/__/mesh/bearer/src/advertiser.c.obj
 .ARM.attributes
                0x00000c7c       0x39 examples/enocean_switch/CMakeFiles/enocean_switch_nrf52832_xxAA_s132_6.0.0.dir/__/__/mesh/bearer/src/bearer_handler.c.obj
 .ARM.attributes
                0x00000cb5       0x39 examples/enocean_switch/CMakeFiles/enocean_switch_nrf52832_xxAA_s132_6.0.0.dir/__/__/mesh/bearer/src/broadcast.c.obj
 .ARM.attributes
                0x00000cee       0x39 examples/enocean_switch/CMakeFiles/enocean_switch_nrf52832_xxAA_s132_6.0.0.dir/__/__/mesh/bearer/src/filter_engine.c.obj
 .ARM.attributes
                0x00000d27       0x39 examples/enocean_switch/CMakeFiles/enocean_switch_nrf52832_xxAA_s132_6.0.0.dir/__/__/mesh/bearer/src/radio_config.c.obj
 .ARM.attributes
                0x00000d60       0x39 examples/enocean_switch/CMakeFiles/enocean_switch_nrf52832_xxAA_s132_6.0.0.dir/__/__/mesh/bearer/src/scanner.c.obj
 .ARM.attributes
                0x00000d99       0x39 examples/enocean_switch/CMakeFiles/enocean_switch_nrf52832_xxAA_s132_6.0.0.dir/__/__/models/simple_on_off/src/simple_on_off_client.c.obj
 .ARM.attributes
                0x00000dd2       0x39 examples/enocean_switch/CMakeFiles/enocean_switch_nrf52832_xxAA_s132_6.0.0.dir/__/__/models/config/src/composition_data.c.obj
 .ARM.attributes
                0x00000e0b       0x39 examples/enocean_switch/CMakeFiles/enocean_switch_nrf52832_xxAA_s132_6.0.0.dir/__/__/models/config/src/config_server.c.obj
 .ARM.attributes
                0x00000e44       0x39 examples/enocean_switch/CMakeFiles/enocean_switch_nrf52832_xxAA_s132_6.0.0.dir/__/__/models/config/src/packed_index_list.c.obj
 .ARM.attributes
                0x00000e7d       0x39 examples/enocean_switch/CMakeFiles/enocean_switch_nrf52832_xxAA_s132_6.0.0.dir/__/__/models/health/src/health_server.c.obj
 .ARM.attributes
                0x00000eb6       0x39 examples/enocean_switch/CMakeFiles/enocean_switch_nrf52832_xxAA_s132_6.0.0.dir/__/__/mesh/access/src/access_publish.c.obj
 .ARM.attributes
                0x00000eef       0x39 examples/enocean_switch/CMakeFiles/enocean_switch_nrf52832_xxAA_s132_6.0.0.dir/__/__/mesh/access/src/access.c.obj
 .ARM.attributes
                0x00000f28       0x39 examples/enocean_switch/CMakeFiles/enocean_switch_nrf52832_xxAA_s132_6.0.0.dir/__/__/mesh/access/src/access_reliable.c.obj
 .ARM.attributes
                0x00000f61       0x39 examples/enocean_switch/CMakeFiles/enocean_switch_nrf52832_xxAA_s132_6.0.0.dir/__/__/mesh/access/src/device_state_manager.c.obj
 .ARM.attributes
                0x00000f9a       0x39 examples/enocean_switch/CMakeFiles/enocean_switch_nrf52832_xxAA_s132_6.0.0.dir/__/__/mesh/prov/src/prov_provisionee.c.obj
 .ARM.attributes
                0x00000fd3       0x39 examples/enocean_switch/CMakeFiles/enocean_switch_nrf52832_xxAA_s132_6.0.0.dir/__/__/mesh/prov/src/nrf_mesh_prov.c.obj
 .ARM.attributes
                0x0000100c       0x39 examples/enocean_switch/CMakeFiles/enocean_switch_nrf52832_xxAA_s132_6.0.0.dir/__/__/mesh/prov/src/provisioning.c.obj
 .ARM.attributes
                0x00001045       0x39 examples/enocean_switch/CMakeFiles/enocean_switch_nrf52832_xxAA_s132_6.0.0.dir/__/__/mesh/prov/src/prov_beacon.c.obj
 .ARM.attributes
                0x0000107e       0x39 examples/enocean_switch/CMakeFiles/enocean_switch_nrf52832_xxAA_s132_6.0.0.dir/__/__/mesh/prov/src/prov_utils.c.obj
 .ARM.attributes
                0x000010b7       0x39 examples/enocean_switch/CMakeFiles/enocean_switch_nrf52832_xxAA_s132_6.0.0.dir/__/__/mesh/prov/src/prov_bearer_adv.c.obj
 .ARM.attributes
                0x000010f0       0x39 examples/enocean_switch/CMakeFiles/enocean_switch_nrf52832_xxAA_s132_6.0.0.dir/C_/ver/mod/nRF5_SDK_15.0.0_a53641a/modules/nrfx/mdk/system_nrf52.c.obj
 .ARM.attributes
                0x00001129       0x20 examples/enocean_switch/CMakeFiles/enocean_switch_nrf52832_xxAA_s132_6.0.0.dir/C_/ver/mod/nRF5_SDK_15.0.0_a53641a/modules/nrfx/mdk/gcc_startup_nrf52.S.obj
 .ARM.attributes
                0x00001149       0x39 examples/enocean_switch/CMakeFiles/enocean_switch_nrf52832_xxAA_s132_6.0.0.dir/C_/ver/mod/nRF5_SDK_15.0.0_a53641a/components/libraries/util/app_error.c.obj
 .ARM.attributes
                0x00001182       0x39 examples/enocean_switch/CMakeFiles/enocean_switch_nrf52832_xxAA_s132_6.0.0.dir/C_/ver/mod/nRF5_SDK_15.0.0_a53641a/components/libraries/util/app_error_handler_gcc.c.obj
 .ARM.attributes
                0x000011bb       0x39 external/rtt/librtt_nrf52832_xxAA.a(SEGGER_RTT.c.obj)
 .ARM.attributes
                0x000011f4       0x39 external/rtt/librtt_nrf52832_xxAA.a(SEGGER_RTT_printf.c.obj)
 .ARM.attributes
                0x0000122d       0x39 external/micro-ecc/libuECC_nrf52832_xxAA.a(uECC.c.obj)
 .ARM.attributes
                0x00001266       0x22 c:/mesh/arm_gcc/bin/../lib/gcc/arm-none-eabi/6.3.1/thumb/v7e-m/fpv4-sp/hard\libgcc.a(_aeabi_uldivmod.o)
 .ARM.attributes
                0x00001288       0x34 c:/mesh/arm_gcc/bin/../lib/gcc/arm-none-eabi/6.3.1/thumb/v7e-m/fpv4-sp/hard\libgcc.a(_udivmoddi4.o)
 .ARM.attributes
                0x000012bc       0x22 c:/mesh/arm_gcc/bin/../lib/gcc/arm-none-eabi/6.3.1/thumb/v7e-m/fpv4-sp/hard\libgcc.a(_dvmd_tls.o)
 .ARM.attributes
                0x000012de       0x34 c:/mesh/arm_gcc/bin/../lib/gcc/arm-none-eabi/6.3.1/../../../../arm-none-eabi/lib/thumb/v7e-m/fpv4-sp/hard\libc_nano.a(lib_a-exit.o)
 .ARM.attributes
                0x00001312       0x34 c:/mesh/arm_gcc/bin/../lib/gcc/arm-none-eabi/6.3.1/../../../../arm-none-eabi/lib/thumb/v7e-m/fpv4-sp/hard\libc_nano.a(lib_a-impure.o)
 .ARM.attributes
                0x00001346       0x34 c:/mesh/arm_gcc/bin/../lib/gcc/arm-none-eabi/6.3.1/../../../../arm-none-eabi/lib/thumb/v7e-m/fpv4-sp/hard\libc_nano.a(lib_a-init.o)
 .ARM.attributes
                0x0000137a       0x34 c:/mesh/arm_gcc/bin/../lib/gcc/arm-none-eabi/6.3.1/../../../../arm-none-eabi/lib/thumb/v7e-m/fpv4-sp/hard\libc_nano.a(lib_a-malloc.o)
 .ARM.attributes
                0x000013ae       0x34 c:/mesh/arm_gcc/bin/../lib/gcc/arm-none-eabi/6.3.1/../../../../arm-none-eabi/lib/thumb/v7e-m/fpv4-sp/hard\libc_nano.a(lib_a-memcmp.o)
 .ARM.attributes
                0x000013e2       0x34 c:/mesh/arm_gcc/bin/../lib/gcc/arm-none-eabi/6.3.1/../../../../arm-none-eabi/lib/thumb/v7e-m/fpv4-sp/hard\libc_nano.a(lib_a-memcpy-stub.o)
 .ARM.attributes
                0x00001416       0x34 c:/mesh/arm_gcc/bin/../lib/gcc/arm-none-eabi/6.3.1/../../../../arm-none-eabi/lib/thumb/v7e-m/fpv4-sp/hard\libc_nano.a(lib_a-memset.o)
 .ARM.attributes
                0x0000144a       0x34 c:/mesh/arm_gcc/bin/../lib/gcc/arm-none-eabi/6.3.1/../../../../arm-none-eabi/lib/thumb/v7e-m/fpv4-sp/hard\libc_nano.a(lib_a-nano-freer.o)
 .ARM.attributes
                0x0000147e       0x34 c:/mesh/arm_gcc/bin/../lib/gcc/arm-none-eabi/6.3.1/../../../../arm-none-eabi/lib/thumb/v7e-m/fpv4-sp/hard\libc_nano.a(lib_a-nano-mallocr.o)
 .ARM.attributes
                0x000014b2       0x34 c:/mesh/arm_gcc/bin/../lib/gcc/arm-none-eabi/6.3.1/../../../../arm-none-eabi/lib/thumb/v7e-m/fpv4-sp/hard\libc_nano.a(lib_a-sbrkr.o)
 .ARM.attributes
                0x000014e6       0x34 c:/mesh/arm_gcc/bin/../lib/gcc/arm-none-eabi/6.3.1/../../../../arm-none-eabi/lib/thumb/v7e-m/fpv4-sp/hard\libc_nano.a(lib_a-strcpy.o)
 .ARM.attributes
                0x0000151a       0x1b c:/mesh/arm_gcc/bin/../lib/gcc/arm-none-eabi/6.3.1/../../../../arm-none-eabi/lib/thumb/v7e-m/fpv4-sp/hard\libc_nano.a(lib_a-strlen.o)
 .ARM.attributes
                0x00001535       0x34 c:/mesh/arm_gcc/bin/../lib/gcc/arm-none-eabi/6.3.1/../../../../arm-none-eabi/lib/thumb/v7e-m/fpv4-sp/hard\libc_nano.a(lib_a-strrchr.o)
 .ARM.attributes
                0x00001569       0x34 c:/mesh/arm_gcc/bin/../lib/gcc/arm-none-eabi/6.3.1/../../../../arm-none-eabi/lib/thumb/v7e-m/fpv4-sp/hard\libc_nano.a(lib_a-mlock.o)
 .ARM.attributes
                0x0000159d       0x34 c:/mesh/arm_gcc/bin/../lib/gcc/arm-none-eabi/6.3.1/../../../../arm-none-eabi/lib/thumb/v7e-m/fpv4-sp/hard\libc_nano.a(lib_a-reent.o)
 .ARM.attributes
                0x000015d1       0x34 c:/mesh/arm_gcc/bin/../lib/gcc/arm-none-eabi/6.3.1/../../../../arm-none-eabi/lib/thumb/v7e-m/fpv4-sp/hard\libc_nano.a(lib_a-strchr.o)
 .ARM.attributes
                0x00001605       0x34 c:/mesh/arm_gcc/bin/../lib/gcc/arm-none-eabi/6.3.1/thumb/v7e-m/fpv4-sp/hard/crtend.o
 .ARM.attributes
                0x00001639       0x22 c:/mesh/arm_gcc/bin/../lib/gcc/arm-none-eabi/6.3.1/thumb/v7e-m/fpv4-sp/hard/crtn.o
 .ARM.attributes
                0x0000165b       0x34 c:/mesh/arm_gcc/bin/../lib/gcc/arm-none-eabi/6.3.1/../../../../arm-none-eabi/lib/thumb/v7e-m/fpv4-sp/hard\libnosys.a(sbrk.o)
 .ARM.attributes
                0x0000168f       0x34 c:/mesh/arm_gcc/bin/../lib/gcc/arm-none-eabi/6.3.1/../../../../arm-none-eabi/lib/thumb/v7e-m/fpv4-sp/hard\libnosys.a(_exit.o)

.comment        0x00000000       0x7f
 .comment       0x00000000       0x7f examples/enocean_switch/CMakeFiles/enocean_switch_nrf52832_xxAA_s132_6.0.0.dir/src/main.c.obj
                                 0x80 (size before relaxing)
 .comment       0x0000007f       0x80 examples/enocean_switch/CMakeFiles/enocean_switch_nrf52832_xxAA_s132_6.0.0.dir/src/enocean.c.obj
 .comment       0x0000007f       0x80 examples/enocean_switch/CMakeFiles/enocean_switch_nrf52832_xxAA_s132_6.0.0.dir/src/flash_helper.c.obj
 .comment       0x0000007f       0x80 examples/enocean_switch/CMakeFiles/enocean_switch_nrf52832_xxAA_s132_6.0.0.dir/__/__/mesh/stack/src/mesh_stack.c.obj
 .comment       0x0000007f       0x80 examples/enocean_switch/CMakeFiles/enocean_switch_nrf52832_xxAA_s132_6.0.0.dir/__/common/src/mesh_softdevice_init.c.obj
 .comment       0x0000007f       0x80 examples/enocean_switch/CMakeFiles/enocean_switch_nrf52832_xxAA_s132_6.0.0.dir/__/common/src/mesh_provisionee.c.obj
 .comment       0x0000007f       0x80 examples/enocean_switch/CMakeFiles/enocean_switch_nrf52832_xxAA_s132_6.0.0.dir/__/common/src/rtt_input.c.obj
 .comment       0x0000007f       0x80 examples/enocean_switch/CMakeFiles/enocean_switch_nrf52832_xxAA_s132_6.0.0.dir/__/common/src/simple_hal.c.obj
 .comment       0x0000007f       0x80 examples/enocean_switch/CMakeFiles/enocean_switch_nrf52832_xxAA_s132_6.0.0.dir/__/nrf_mesh_weak.c.obj
 .comment       0x0000007f       0x80 examples/enocean_switch/CMakeFiles/enocean_switch_nrf52832_xxAA_s132_6.0.0.dir/__/common/src/app_error_weak.c.obj
 .comment       0x0000007f       0x80 examples/enocean_switch/CMakeFiles/enocean_switch_nrf52832_xxAA_s132_6.0.0.dir/__/common/src/assertion_handler_weak.c.obj
 .comment       0x0000007f       0x80 examples/enocean_switch/CMakeFiles/enocean_switch_nrf52832_xxAA_s132_6.0.0.dir/__/__/mesh/core/src/nrf_mesh_configure.c.obj
 .comment       0x0000007f       0x80 examples/enocean_switch/CMakeFiles/enocean_switch_nrf52832_xxAA_s132_6.0.0.dir/__/__/mesh/core/src/aes.c.obj
 .comment       0x0000007f       0x80 examples/enocean_switch/CMakeFiles/enocean_switch_nrf52832_xxAA_s132_6.0.0.dir/__/__/mesh/core/src/msg_cache.c.obj
 .comment       0x0000007f       0x80 examples/enocean_switch/CMakeFiles/enocean_switch_nrf52832_xxAA_s132_6.0.0.dir/__/__/mesh/core/src/transport.c.obj
 .comment       0x0000007f       0x80 examples/enocean_switch/CMakeFiles/enocean_switch_nrf52832_xxAA_s132_6.0.0.dir/__/__/mesh/core/src/event.c.obj
 .comment       0x0000007f       0x80 examples/enocean_switch/CMakeFiles/enocean_switch_nrf52832_xxAA_s132_6.0.0.dir/__/__/mesh/core/src/packet_buffer.c.obj
 .comment       0x0000007f       0x80 examples/enocean_switch/CMakeFiles/enocean_switch_nrf52832_xxAA_s132_6.0.0.dir/__/__/mesh/core/src/flash_manager_defrag.c.obj
 .comment       0x0000007f       0x80 examples/enocean_switch/CMakeFiles/enocean_switch_nrf52832_xxAA_s132_6.0.0.dir/__/__/mesh/core/src/fifo.c.obj
 .comment       0x0000007f       0x80 examples/enocean_switch/CMakeFiles/enocean_switch_nrf52832_xxAA_s132_6.0.0.dir/__/__/mesh/core/src/nrf_flash.c.obj
 .comment       0x0000007f       0x80 examples/enocean_switch/CMakeFiles/enocean_switch_nrf52832_xxAA_s132_6.0.0.dir/__/__/mesh/core/src/packet_mgr.c.obj
 .comment       0x0000007f       0x80 examples/enocean_switch/CMakeFiles/enocean_switch_nrf52832_xxAA_s132_6.0.0.dir/__/__/mesh/core/src/net_state.c.obj
 .comment       0x0000007f       0x80 examples/enocean_switch/CMakeFiles/enocean_switch_nrf52832_xxAA_s132_6.0.0.dir/__/__/mesh/core/src/mesh_flash.c.obj
 .comment       0x0000007f       0x80 examples/enocean_switch/CMakeFiles/enocean_switch_nrf52832_xxAA_s132_6.0.0.dir/__/__/mesh/core/src/nrf_mesh_utils.c.obj
 .comment       0x0000007f       0x80 examples/enocean_switch/CMakeFiles/enocean_switch_nrf52832_xxAA_s132_6.0.0.dir/__/__/mesh/core/src/nrf_mesh.c.obj
 .comment       0x0000007f       0x80 examples/enocean_switch/CMakeFiles/enocean_switch_nrf52832_xxAA_s132_6.0.0.dir/__/__/mesh/core/src/queue.c.obj
 .comment       0x0000007f       0x80 examples/enocean_switch/CMakeFiles/enocean_switch_nrf52832_xxAA_s132_6.0.0.dir/__/__/mesh/core/src/hal.c.obj
 .comment       0x0000007f       0x80 examples/enocean_switch/CMakeFiles/enocean_switch_nrf52832_xxAA_s132_6.0.0.dir/__/__/mesh/core/src/aes_cmac.c.obj
 .comment       0x0000007f       0x80 examples/enocean_switch/CMakeFiles/enocean_switch_nrf52832_xxAA_s132_6.0.0.dir/__/__/mesh/core/src/timer_scheduler.c.obj
 .comment       0x0000007f       0x80 examples/enocean_switch/CMakeFiles/enocean_switch_nrf52832_xxAA_s132_6.0.0.dir/__/__/mesh/core/src/timer.c.obj
 .comment       0x0000007f       0x80 examples/enocean_switch/CMakeFiles/enocean_switch_nrf52832_xxAA_s132_6.0.0.dir/__/__/mesh/core/src/ticker.c.obj
 .comment       0x0000007f       0x80 examples/enocean_switch/CMakeFiles/enocean_switch_nrf52832_xxAA_s132_6.0.0.dir/__/__/mesh/core/src/rand.c.obj
 .comment       0x0000007f       0x80 examples/enocean_switch/CMakeFiles/enocean_switch_nrf52832_xxAA_s132_6.0.0.dir/__/__/mesh/core/src/nrf_mesh_opt.c.obj
 .comment       0x0000007f       0x80 examples/enocean_switch/CMakeFiles/enocean_switch_nrf52832_xxAA_s132_6.0.0.dir/__/__/mesh/core/src/timeslot.c.obj
 .comment       0x0000007f       0x80 examples/enocean_switch/CMakeFiles/enocean_switch_nrf52832_xxAA_s132_6.0.0.dir/__/__/mesh/core/src/bearer_event.c.obj
 .comment       0x0000007f       0x80 examples/enocean_switch/CMakeFiles/enocean_switch_nrf52832_xxAA_s132_6.0.0.dir/__/__/mesh/core/src/enc.c.obj
 .comment       0x0000007f       0x80 examples/enocean_switch/CMakeFiles/enocean_switch_nrf52832_xxAA_s132_6.0.0.dir/__/__/mesh/core/src/network.c.obj
 .comment       0x0000007f       0x80 examples/enocean_switch/CMakeFiles/enocean_switch_nrf52832_xxAA_s132_6.0.0.dir/__/__/mesh/core/src/net_packet.c.obj
 .comment       0x0000007f       0x80 examples/enocean_switch/CMakeFiles/enocean_switch_nrf52832_xxAA_s132_6.0.0.dir/__/__/mesh/core/src/msqueue.c.obj
 .comment       0x0000007f       0x80 examples/enocean_switch/CMakeFiles/enocean_switch_nrf52832_xxAA_s132_6.0.0.dir/__/__/mesh/core/src/nrf_mesh_keygen.c.obj
 .comment       0x0000007f       0x80 examples/enocean_switch/CMakeFiles/enocean_switch_nrf52832_xxAA_s132_6.0.0.dir/__/__/mesh/core/src/list.c.obj
 .comment       0x0000007f       0x80 examples/enocean_switch/CMakeFiles/enocean_switch_nrf52832_xxAA_s132_6.0.0.dir/__/__/mesh/core/src/log.c.obj
 .comment       0x0000007f       0x80 examples/enocean_switch/CMakeFiles/enocean_switch_nrf52832_xxAA_s132_6.0.0.dir/__/__/mesh/core/src/flash_manager.c.obj
 .comment       0x0000007f       0x80 examples/enocean_switch/CMakeFiles/enocean_switch_nrf52832_xxAA_s132_6.0.0.dir/__/__/mesh/core/src/ccm_soft.c.obj
 .comment       0x0000007f       0x80 examples/enocean_switch/CMakeFiles/enocean_switch_nrf52832_xxAA_s132_6.0.0.dir/__/__/mesh/core/src/replay_cache.c.obj
 .comment       0x0000007f       0x80 examples/enocean_switch/CMakeFiles/enocean_switch_nrf52832_xxAA_s132_6.0.0.dir/__/__/mesh/core/src/beacon.c.obj
 .comment       0x0000007f       0x80 examples/enocean_switch/CMakeFiles/enocean_switch_nrf52832_xxAA_s132_6.0.0.dir/__/__/mesh/core/src/flash_manager_internal.c.obj
 .comment       0x0000007f       0x80 examples/enocean_switch/CMakeFiles/enocean_switch_nrf52832_xxAA_s132_6.0.0.dir/__/__/mesh/core/src/core_tx.c.obj
 .comment       0x0000007f       0x80 examples/enocean_switch/CMakeFiles/enocean_switch_nrf52832_xxAA_s132_6.0.0.dir/__/__/mesh/core/src/heartbeat.c.obj
 .comment       0x0000007f       0x80 examples/enocean_switch/CMakeFiles/enocean_switch_nrf52832_xxAA_s132_6.0.0.dir/__/__/mesh/core/src/net_beacon.c.obj
 .comment       0x0000007f       0x80 examples/enocean_switch/CMakeFiles/enocean_switch_nrf52832_xxAA_s132_6.0.0.dir/__/__/mesh/core/src/core_tx_adv.c.obj
 .comment       0x0000007f       0x80 examples/enocean_switch/CMakeFiles/enocean_switch_nrf52832_xxAA_s132_6.0.0.dir/__/__/mesh/bearer/src/ad_listener.c.obj
 .comment       0x0000007f       0x80 examples/enocean_switch/CMakeFiles/enocean_switch_nrf52832_xxAA_s132_6.0.0.dir/__/__/mesh/bearer/src/ad_type_filter.c.obj
 .comment       0x0000007f       0x80 examples/enocean_switch/CMakeFiles/enocean_switch_nrf52832_xxAA_s132_6.0.0.dir/__/__/mesh/bearer/src/advertiser.c.obj
 .comment       0x0000007f       0x80 examples/enocean_switch/CMakeFiles/enocean_switch_nrf52832_xxAA_s132_6.0.0.dir/__/__/mesh/bearer/src/bearer_handler.c.obj
 .comment       0x0000007f       0x80 examples/enocean_switch/CMakeFiles/enocean_switch_nrf52832_xxAA_s132_6.0.0.dir/__/__/mesh/bearer/src/broadcast.c.obj
 .comment       0x0000007f       0x80 examples/enocean_switch/CMakeFiles/enocean_switch_nrf52832_xxAA_s132_6.0.0.dir/__/__/mesh/bearer/src/filter_engine.c.obj
 .comment       0x0000007f       0x80 examples/enocean_switch/CMakeFiles/enocean_switch_nrf52832_xxAA_s132_6.0.0.dir/__/__/mesh/bearer/src/radio_config.c.obj
 .comment       0x0000007f       0x80 examples/enocean_switch/CMakeFiles/enocean_switch_nrf52832_xxAA_s132_6.0.0.dir/__/__/mesh/bearer/src/scanner.c.obj
 .comment       0x0000007f       0x80 examples/enocean_switch/CMakeFiles/enocean_switch_nrf52832_xxAA_s132_6.0.0.dir/__/__/models/simple_on_off/src/simple_on_off_client.c.obj
 .comment       0x0000007f       0x80 examples/enocean_switch/CMakeFiles/enocean_switch_nrf52832_xxAA_s132_6.0.0.dir/__/__/models/config/src/composition_data.c.obj
 .comment       0x0000007f       0x80 examples/enocean_switch/CMakeFiles/enocean_switch_nrf52832_xxAA_s132_6.0.0.dir/__/__/models/config/src/config_server.c.obj
 .comment       0x0000007f       0x80 examples/enocean_switch/CMakeFiles/enocean_switch_nrf52832_xxAA_s132_6.0.0.dir/__/__/models/config/src/packed_index_list.c.obj
 .comment       0x0000007f       0x80 examples/enocean_switch/CMakeFiles/enocean_switch_nrf52832_xxAA_s132_6.0.0.dir/__/__/models/health/src/health_server.c.obj
 .comment       0x0000007f       0x80 examples/enocean_switch/CMakeFiles/enocean_switch_nrf52832_xxAA_s132_6.0.0.dir/__/__/mesh/access/src/access_publish.c.obj
 .comment       0x0000007f       0x80 examples/enocean_switch/CMakeFiles/enocean_switch_nrf52832_xxAA_s132_6.0.0.dir/__/__/mesh/access/src/access.c.obj
 .comment       0x0000007f       0x80 examples/enocean_switch/CMakeFiles/enocean_switch_nrf52832_xxAA_s132_6.0.0.dir/__/__/mesh/access/src/access_reliable.c.obj
 .comment       0x0000007f       0x80 examples/enocean_switch/CMakeFiles/enocean_switch_nrf52832_xxAA_s132_6.0.0.dir/__/__/mesh/access/src/device_state_manager.c.obj
 .comment       0x0000007f       0x80 examples/enocean_switch/CMakeFiles/enocean_switch_nrf52832_xxAA_s132_6.0.0.dir/__/__/mesh/prov/src/prov_provisionee.c.obj
 .comment       0x0000007f       0x80 examples/enocean_switch/CMakeFiles/enocean_switch_nrf52832_xxAA_s132_6.0.0.dir/__/__/mesh/prov/src/nrf_mesh_prov.c.obj
 .comment       0x0000007f       0x80 examples/enocean_switch/CMakeFiles/enocean_switch_nrf52832_xxAA_s132_6.0.0.dir/__/__/mesh/prov/src/provisioning.c.obj
 .comment       0x0000007f       0x80 examples/enocean_switch/CMakeFiles/enocean_switch_nrf52832_xxAA_s132_6.0.0.dir/__/__/mesh/prov/src/prov_beacon.c.obj
 .comment       0x0000007f       0x80 examples/enocean_switch/CMakeFiles/enocean_switch_nrf52832_xxAA_s132_6.0.0.dir/__/__/mesh/prov/src/prov_utils.c.obj
 .comment       0x0000007f       0x80 examples/enocean_switch/CMakeFiles/enocean_switch_nrf52832_xxAA_s132_6.0.0.dir/__/__/mesh/prov/src/prov_bearer_adv.c.obj
 .comment       0x0000007f       0x80 examples/enocean_switch/CMakeFiles/enocean_switch_nrf52832_xxAA_s132_6.0.0.dir/C_/ver/mod/nRF5_SDK_15.0.0_a53641a/modules/nrfx/mdk/system_nrf52.c.obj
 .comment       0x0000007f       0x80 examples/enocean_switch/CMakeFiles/enocean_switch_nrf52832_xxAA_s132_6.0.0.dir/C_/ver/mod/nRF5_SDK_15.0.0_a53641a/components/libraries/util/app_error.c.obj
 .comment       0x0000007f       0x80 examples/enocean_switch/CMakeFiles/enocean_switch_nrf52832_xxAA_s132_6.0.0.dir/C_/ver/mod/nRF5_SDK_15.0.0_a53641a/components/libraries/util/app_error_handler_gcc.c.obj
 .comment       0x0000007f       0x80 external/rtt/librtt_nrf52832_xxAA.a(SEGGER_RTT.c.obj)
 .comment       0x0000007f       0x80 external/rtt/librtt_nrf52832_xxAA.a(SEGGER_RTT_printf.c.obj)
 .comment       0x0000007f       0x80 external/micro-ecc/libuECC_nrf52832_xxAA.a(uECC.c.obj)

.debug_frame    0x00000000      0x324
 .debug_frame   0x00000000       0x2c c:/mesh/arm_gcc/bin/../lib/gcc/arm-none-eabi/6.3.1/thumb/v7e-m/fpv4-sp/hard\libgcc.a(_aeabi_uldivmod.o)
 .debug_frame   0x0000002c       0x34 c:/mesh/arm_gcc/bin/../lib/gcc/arm-none-eabi/6.3.1/thumb/v7e-m/fpv4-sp/hard\libgcc.a(_udivmoddi4.o)
 .debug_frame   0x00000060       0x28 c:/mesh/arm_gcc/bin/../lib/gcc/arm-none-eabi/6.3.1/../../../../arm-none-eabi/lib/thumb/v7e-m/fpv4-sp/hard\libc_nano.a(lib_a-exit.o)
 .debug_frame   0x00000088       0x2c c:/mesh/arm_gcc/bin/../lib/gcc/arm-none-eabi/6.3.1/../../../../arm-none-eabi/lib/thumb/v7e-m/fpv4-sp/hard\libc_nano.a(lib_a-init.o)
 .debug_frame   0x000000b4       0x30 c:/mesh/arm_gcc/bin/../lib/gcc/arm-none-eabi/6.3.1/../../../../arm-none-eabi/lib/thumb/v7e-m/fpv4-sp/hard\libc_nano.a(lib_a-malloc.o)
 .debug_frame   0x000000e4       0x28 c:/mesh/arm_gcc/bin/../lib/gcc/arm-none-eabi/6.3.1/../../../../arm-none-eabi/lib/thumb/v7e-m/fpv4-sp/hard\libc_nano.a(lib_a-memcmp.o)
 .debug_frame   0x0000010c       0x28 c:/mesh/arm_gcc/bin/../lib/gcc/arm-none-eabi/6.3.1/../../../../arm-none-eabi/lib/thumb/v7e-m/fpv4-sp/hard\libc_nano.a(lib_a-memcpy-stub.o)
 .debug_frame   0x00000134       0x20 c:/mesh/arm_gcc/bin/../lib/gcc/arm-none-eabi/6.3.1/../../../../arm-none-eabi/lib/thumb/v7e-m/fpv4-sp/hard\libc_nano.a(lib_a-memset.o)
 .debug_frame   0x00000154       0x38 c:/mesh/arm_gcc/bin/../lib/gcc/arm-none-eabi/6.3.1/../../../../arm-none-eabi/lib/thumb/v7e-m/fpv4-sp/hard\libc_nano.a(lib_a-nano-freer.o)
 .debug_frame   0x0000018c       0x2c c:/mesh/arm_gcc/bin/../lib/gcc/arm-none-eabi/6.3.1/../../../../arm-none-eabi/lib/thumb/v7e-m/fpv4-sp/hard\libc_nano.a(lib_a-nano-mallocr.o)
 .debug_frame   0x000001b8       0x2c c:/mesh/arm_gcc/bin/../lib/gcc/arm-none-eabi/6.3.1/../../../../arm-none-eabi/lib/thumb/v7e-m/fpv4-sp/hard\libc_nano.a(lib_a-sbrkr.o)
 .debug_frame   0x000001e4       0x20 c:/mesh/arm_gcc/bin/../lib/gcc/arm-none-eabi/6.3.1/../../../../arm-none-eabi/lib/thumb/v7e-m/fpv4-sp/hard\libc_nano.a(lib_a-strcpy.o)
 .debug_frame   0x00000204       0x34 c:/mesh/arm_gcc/bin/../lib/gcc/arm-none-eabi/6.3.1/../../../../arm-none-eabi/lib/thumb/v7e-m/fpv4-sp/hard\libc_nano.a(lib_a-strrchr.o)
 .debug_frame   0x00000238       0x30 c:/mesh/arm_gcc/bin/../lib/gcc/arm-none-eabi/6.3.1/../../../../arm-none-eabi/lib/thumb/v7e-m/fpv4-sp/hard\libc_nano.a(lib_a-mlock.o)
 .debug_frame   0x00000268       0x5c c:/mesh/arm_gcc/bin/../lib/gcc/arm-none-eabi/6.3.1/../../../../arm-none-eabi/lib/thumb/v7e-m/fpv4-sp/hard\libc_nano.a(lib_a-reent.o)
 .debug_frame   0x000002c4       0x20 c:/mesh/arm_gcc/bin/../lib/gcc/arm-none-eabi/6.3.1/../../../../arm-none-eabi/lib/thumb/v7e-m/fpv4-sp/hard\libc_nano.a(lib_a-strchr.o)
 .debug_frame   0x000002e4       0x20 c:/mesh/arm_gcc/bin/../lib/gcc/arm-none-eabi/6.3.1/../../../../arm-none-eabi/lib/thumb/v7e-m/fpv4-sp/hard\libnosys.a(sbrk.o)
 .debug_frame   0x00000304       0x20 c:/mesh/arm_gcc/bin/../lib/gcc/arm-none-eabi/6.3.1/../../../../arm-none-eabi/lib/thumb/v7e-m/fpv4-sp/hard\libnosys.a(_exit.o)
