Archive member included to satisfy reference by file (symbol)

external/rtt/librtt_nrf52840_xxAA.a(SEGGER_RTT.c.obj)
                              examples/enocean_switch/CMakeFiles/enocean_switch_nrf52840_xxAA_s140_6.0.0.dir/__/__/mesh/core/src/log.c.obj (SEGGER_RTT_Write)
external/rtt/librtt_nrf52840_xxAA.a(SEGGER_RTT_printf.c.obj)
                              examples/enocean_switch/CMakeFiles/enocean_switch_nrf52840_xxAA_s140_6.0.0.dir/__/__/mesh/core/src/log.c.obj (SEGGER_RTT_vprintf)
external/micro-ecc/libuECC_nrf52840_xxAA.a(uECC.c.obj)
                              examples/enocean_switch/CMakeFiles/enocean_switch_nrf52840_xxAA_s140_6.0.0.dir/__/__/mesh/prov/src/prov_utils.c.obj (uECC_secp256r1)
c:/mesh/arm_gcc/bin/../lib/gcc/arm-none-eabi/6.3.1/thumb/v7e-m/fpv4-sp/hard\libgcc.a(_aeabi_uldivmod.o)
                              examples/enocean_switch/CMakeFiles/enocean_switch_nrf52840_xxAA_s140_6.0.0.dir/__/common/src/rtt_input.c.obj (__aeabi_uldivmod)
c:/mesh/arm_gcc/bin/../lib/gcc/arm-none-eabi/6.3.1/thumb/v7e-m/fpv4-sp/hard\libgcc.a(_udivmoddi4.o)
                              c:/mesh/arm_gcc/bin/../lib/gcc/arm-none-eabi/6.3.1/thumb/v7e-m/fpv4-sp/hard\libgcc.a(_aeabi_uldivmod.o) (__udivmoddi4)
c:/mesh/arm_gcc/bin/../lib/gcc/arm-none-eabi/6.3.1/thumb/v7e-m/fpv4-sp/hard\libgcc.a(_dvmd_tls.o)
                              c:/mesh/arm_gcc/bin/../lib/gcc/arm-none-eabi/6.3.1/thumb/v7e-m/fpv4-sp/hard\libgcc.a(_aeabi_uldivmod.o) (__aeabi_ldiv0)
c:/mesh/arm_gcc/bin/../lib/gcc/arm-none-eabi/6.3.1/../../../../arm-none-eabi/lib/thumb/v7e-m/fpv4-sp/hard\libc_nano.a(lib_a-exit.o)
                              c:/mesh/arm_gcc/bin/../lib/gcc/arm-none-eabi/6.3.1/../../../../arm-none-eabi/lib/thumb/v7e-m/fpv4-sp/hard/crt0.o (exit)
c:/mesh/arm_gcc/bin/../lib/gcc/arm-none-eabi/6.3.1/../../../../arm-none-eabi/lib/thumb/v7e-m/fpv4-sp/hard\libc_nano.a(lib_a-impure.o)
                              c:/mesh/arm_gcc/bin/../lib/gcc/arm-none-eabi/6.3.1/../../../../arm-none-eabi/lib/thumb/v7e-m/fpv4-sp/hard\libc_nano.a(lib_a-exit.o) (_global_impure_ptr)
c:/mesh/arm_gcc/bin/../lib/gcc/arm-none-eabi/6.3.1/../../../../arm-none-eabi/lib/thumb/v7e-m/fpv4-sp/hard\libc_nano.a(lib_a-init.o)
                              c:/mesh/arm_gcc/bin/../lib/gcc/arm-none-eabi/6.3.1/../../../../arm-none-eabi/lib/thumb/v7e-m/fpv4-sp/hard/crt0.o (__libc_init_array)
c:/mesh/arm_gcc/bin/../lib/gcc/arm-none-eabi/6.3.1/../../../../arm-none-eabi/lib/thumb/v7e-m/fpv4-sp/hard\libc_nano.a(lib_a-malloc.o)
                              examples/enocean_switch/CMakeFiles/enocean_switch_nrf52840_xxAA_s140_6.0.0.dir/__/__/mesh/core/src/transport.c.obj (malloc)
c:/mesh/arm_gcc/bin/../lib/gcc/arm-none-eabi/6.3.1/../../../../arm-none-eabi/lib/thumb/v7e-m/fpv4-sp/hard\libc_nano.a(lib_a-memcmp.o)
                              examples/enocean_switch/CMakeFiles/enocean_switch_nrf52840_xxAA_s140_6.0.0.dir/src/enocean.c.obj (memcmp)
c:/mesh/arm_gcc/bin/../lib/gcc/arm-none-eabi/6.3.1/../../../../arm-none-eabi/lib/thumb/v7e-m/fpv4-sp/hard\libc_nano.a(lib_a-memcpy-stub.o)
                              examples/enocean_switch/CMakeFiles/enocean_switch_nrf52840_xxAA_s140_6.0.0.dir/src/main.c.obj (memcpy)
c:/mesh/arm_gcc/bin/../lib/gcc/arm-none-eabi/6.3.1/../../../../arm-none-eabi/lib/thumb/v7e-m/fpv4-sp/hard\libc_nano.a(lib_a-memset.o)
                              c:/mesh/arm_gcc/bin/../lib/gcc/arm-none-eabi/6.3.1/../../../../arm-none-eabi/lib/thumb/v7e-m/fpv4-sp/hard/crt0.o (memset)
c:/mesh/arm_gcc/bin/../lib/gcc/arm-none-eabi/6.3.1/../../../../arm-none-eabi/lib/thumb/v7e-m/fpv4-sp/hard\libc_nano.a(lib_a-nano-freer.o)
                              c:/mesh/arm_gcc/bin/../lib/gcc/arm-none-eabi/6.3.1/../../../../arm-none-eabi/lib/thumb/v7e-m/fpv4-sp/hard\libc_nano.a(lib_a-malloc.o) (_free_r)
c:/mesh/arm_gcc/bin/../lib/gcc/arm-none-eabi/6.3.1/../../../../arm-none-eabi/lib/thumb/v7e-m/fpv4-sp/hard\libc_nano.a(lib_a-nano-mallocr.o)
                              c:/mesh/arm_gcc/bin/../lib/gcc/arm-none-eabi/6.3.1/../../../../arm-none-eabi/lib/thumb/v7e-m/fpv4-sp/hard\libc_nano.a(lib_a-malloc.o) (_malloc_r)
c:/mesh/arm_gcc/bin/../lib/gcc/arm-none-eabi/6.3.1/../../../../arm-none-eabi/lib/thumb/v7e-m/fpv4-sp/hard\libc_nano.a(lib_a-sbrkr.o)
                              c:/mesh/arm_gcc/bin/../lib/gcc/arm-none-eabi/6.3.1/../../../../arm-none-eabi/lib/thumb/v7e-m/fpv4-sp/hard\libc_nano.a(lib_a-nano-mallocr.o) (_sbrk_r)
c:/mesh/arm_gcc/bin/../lib/gcc/arm-none-eabi/6.3.1/../../../../arm-none-eabi/lib/thumb/v7e-m/fpv4-sp/hard\libc_nano.a(lib_a-strcpy.o)
                              external/rtt/librtt_nrf52840_xxAA.a(SEGGER_RTT.c.obj) (strcpy)
c:/mesh/arm_gcc/bin/../lib/gcc/arm-none-eabi/6.3.1/../../../../arm-none-eabi/lib/thumb/v7e-m/fpv4-sp/hard\libc_nano.a(lib_a-strlen.o)
                              examples/enocean_switch/CMakeFiles/enocean_switch_nrf52840_xxAA_s140_6.0.0.dir/__/__/mesh/core/src/uri.c.obj (strlen)
c:/mesh/arm_gcc/bin/../lib/gcc/arm-none-eabi/6.3.1/../../../../arm-none-eabi/lib/thumb/v7e-m/fpv4-sp/hard\libc_nano.a(lib_a-strrchr.o)
                              examples/enocean_switch/CMakeFiles/enocean_switch_nrf52840_xxAA_s140_6.0.0.dir/src/main.c.obj (strrchr)
c:/mesh/arm_gcc/bin/../lib/gcc/arm-none-eabi/6.3.1/../../../../arm-none-eabi/lib/thumb/v7e-m/fpv4-sp/hard\libc_nano.a(lib_a-mlock.o)
                              c:/mesh/arm_gcc/bin/../lib/gcc/arm-none-eabi/6.3.1/../../../../arm-none-eabi/lib/thumb/v7e-m/fpv4-sp/hard\libc_nano.a(lib_a-nano-freer.o) (__malloc_lock)
c:/mesh/arm_gcc/bin/../lib/gcc/arm-none-eabi/6.3.1/../../../../arm-none-eabi/lib/thumb/v7e-m/fpv4-sp/hard\libc_nano.a(lib_a-reent.o)
                              c:/mesh/arm_gcc/bin/../lib/gcc/arm-none-eabi/6.3.1/../../../../arm-none-eabi/lib/thumb/v7e-m/fpv4-sp/hard\libc_nano.a(lib_a-sbrkr.o) (errno)
c:/mesh/arm_gcc/bin/../lib/gcc/arm-none-eabi/6.3.1/../../../../arm-none-eabi/lib/thumb/v7e-m/fpv4-sp/hard\libc_nano.a(lib_a-strchr.o)
                              c:/mesh/arm_gcc/bin/../lib/gcc/arm-none-eabi/6.3.1/../../../../arm-none-eabi/lib/thumb/v7e-m/fpv4-sp/hard\libc_nano.a(lib_a-strrchr.o) (strchr)
c:/mesh/arm_gcc/bin/../lib/gcc/arm-none-eabi/6.3.1/../../../../arm-none-eabi/lib/thumb/v7e-m/fpv4-sp/hard\libnosys.a(sbrk.o)
                              c:/mesh/arm_gcc/bin/../lib/gcc/arm-none-eabi/6.3.1/../../../../arm-none-eabi/lib/thumb/v7e-m/fpv4-sp/hard\libc_nano.a(lib_a-sbrkr.o) (_sbrk)
c:/mesh/arm_gcc/bin/../lib/gcc/arm-none-eabi/6.3.1/../../../../arm-none-eabi/lib/thumb/v7e-m/fpv4-sp/hard\libnosys.a(_exit.o)
                              c:/mesh/arm_gcc/bin/../lib/gcc/arm-none-eabi/6.3.1/../../../../arm-none-eabi/lib/thumb/v7e-m/fpv4-sp/hard\libc_nano.a(lib_a-exit.o) (_exit)

Allocating common symbols
Common symbol       size              file

nrf_nvic_state      0xc               examples/enocean_switch/CMakeFiles/enocean_switch_nrf52840_xxAA_s140_6.0.0.dir/__/common/src/mesh_softdevice_init.c.obj
m_packet            0x24              examples/enocean_switch/CMakeFiles/enocean_switch_nrf52840_xxAA_s140_6.0.0.dir/__/__/mesh/core/src/core_tx.c.obj
errno               0x4               c:/mesh/arm_gcc/bin/../lib/gcc/arm-none-eabi/6.3.1/../../../../arm-none-eabi/lib/thumb/v7e-m/fpv4-sp/hard\libc_nano.a(lib_a-reent.o)
_SEGGER_RTT         0x78              external/rtt/librtt_nrf52840_xxAA.a(SEGGER_RTT.c.obj)

Discarded input sections

 .text          0x00000000        0x0 c:/mesh/arm_gcc/bin/../lib/gcc/arm-none-eabi/6.3.1/thumb/v7e-m/fpv4-sp/hard/crti.o
 .data          0x00000000        0x0 c:/mesh/arm_gcc/bin/../lib/gcc/arm-none-eabi/6.3.1/thumb/v7e-m/fpv4-sp/hard/crti.o
 .bss           0x00000000        0x0 c:/mesh/arm_gcc/bin/../lib/gcc/arm-none-eabi/6.3.1/thumb/v7e-m/fpv4-sp/hard/crti.o
 .data          0x00000000        0x4 c:/mesh/arm_gcc/bin/../lib/gcc/arm-none-eabi/6.3.1/thumb/v7e-m/fpv4-sp/hard/crtbegin.o
 .data          0x00000000        0x0 c:/mesh/arm_gcc/bin/../lib/gcc/arm-none-eabi/6.3.1/../../../../arm-none-eabi/lib/thumb/v7e-m/fpv4-sp/hard/crt0.o
 .bss           0x00000000        0x0 c:/mesh/arm_gcc/bin/../lib/gcc/arm-none-eabi/6.3.1/../../../../arm-none-eabi/lib/thumb/v7e-m/fpv4-sp/hard/crt0.o
 .ARM.extab     0x00000000        0x0 c:/mesh/arm_gcc/bin/../lib/gcc/arm-none-eabi/6.3.1/../../../../arm-none-eabi/lib/thumb/v7e-m/fpv4-sp/hard/crt0.o
 .text          0x00000000        0x0 examples/enocean_switch/CMakeFiles/enocean_switch_nrf52840_xxAA_s140_6.0.0.dir/src/main.c.obj
 .data          0x00000000        0x0 examples/enocean_switch/CMakeFiles/enocean_switch_nrf52840_xxAA_s140_6.0.0.dir/src/main.c.obj
 .bss           0x00000000        0x0 examples/enocean_switch/CMakeFiles/enocean_switch_nrf52840_xxAA_s140_6.0.0.dir/src/main.c.obj
 .text          0x00000000        0x0 examples/enocean_switch/CMakeFiles/enocean_switch_nrf52840_xxAA_s140_6.0.0.dir/src/enocean.c.obj
 .data          0x00000000        0x0 examples/enocean_switch/CMakeFiles/enocean_switch_nrf52840_xxAA_s140_6.0.0.dir/src/enocean.c.obj
 .bss           0x00000000        0x0 examples/enocean_switch/CMakeFiles/enocean_switch_nrf52840_xxAA_s140_6.0.0.dir/src/enocean.c.obj
 .text          0x00000000        0x0 examples/enocean_switch/CMakeFiles/enocean_switch_nrf52840_xxAA_s140_6.0.0.dir/src/flash_helper.c.obj
 .data          0x00000000        0x0 examples/enocean_switch/CMakeFiles/enocean_switch_nrf52840_xxAA_s140_6.0.0.dir/src/flash_helper.c.obj
 .bss           0x00000000        0x0 examples/enocean_switch/CMakeFiles/enocean_switch_nrf52840_xxAA_s140_6.0.0.dir/src/flash_helper.c.obj
 .text          0x00000000        0x0 examples/enocean_switch/CMakeFiles/enocean_switch_nrf52840_xxAA_s140_6.0.0.dir/__/__/mesh/stack/src/mesh_stack.c.obj
 .data          0x00000000        0x0 examples/enocean_switch/CMakeFiles/enocean_switch_nrf52840_xxAA_s140_6.0.0.dir/__/__/mesh/stack/src/mesh_stack.c.obj
 .bss           0x00000000        0x0 examples/enocean_switch/CMakeFiles/enocean_switch_nrf52840_xxAA_s140_6.0.0.dir/__/__/mesh/stack/src/mesh_stack.c.obj
 .text.mesh_stack_is_device_provisioned
                0x00000000       0x1c examples/enocean_switch/CMakeFiles/enocean_switch_nrf52840_xxAA_s140_6.0.0.dir/__/__/mesh/stack/src/mesh_stack.c.obj
 .text          0x00000000        0x0 examples/enocean_switch/CMakeFiles/enocean_switch_nrf52840_xxAA_s140_6.0.0.dir/__/common/src/mesh_softdevice_init.c.obj
 .data          0x00000000        0x0 examples/enocean_switch/CMakeFiles/enocean_switch_nrf52840_xxAA_s140_6.0.0.dir/__/common/src/mesh_softdevice_init.c.obj
 .bss           0x00000000        0x0 examples/enocean_switch/CMakeFiles/enocean_switch_nrf52840_xxAA_s140_6.0.0.dir/__/common/src/mesh_softdevice_init.c.obj
 .text          0x00000000        0x0 examples/enocean_switch/CMakeFiles/enocean_switch_nrf52840_xxAA_s140_6.0.0.dir/__/common/src/mesh_provisionee.c.obj
 .data          0x00000000        0x0 examples/enocean_switch/CMakeFiles/enocean_switch_nrf52840_xxAA_s140_6.0.0.dir/__/common/src/mesh_provisionee.c.obj
 .bss           0x00000000        0x0 examples/enocean_switch/CMakeFiles/enocean_switch_nrf52840_xxAA_s140_6.0.0.dir/__/common/src/mesh_provisionee.c.obj
 .text          0x00000000        0x0 examples/enocean_switch/CMakeFiles/enocean_switch_nrf52840_xxAA_s140_6.0.0.dir/__/common/src/rtt_input.c.obj
 .data          0x00000000        0x0 examples/enocean_switch/CMakeFiles/enocean_switch_nrf52840_xxAA_s140_6.0.0.dir/__/common/src/rtt_input.c.obj
 .bss           0x00000000        0x0 examples/enocean_switch/CMakeFiles/enocean_switch_nrf52840_xxAA_s140_6.0.0.dir/__/common/src/rtt_input.c.obj
 .text.rtt_input_disable
                0x00000000       0x28 examples/enocean_switch/CMakeFiles/enocean_switch_nrf52840_xxAA_s140_6.0.0.dir/__/common/src/rtt_input.c.obj
 .text          0x00000000        0x0 examples/enocean_switch/CMakeFiles/enocean_switch_nrf52840_xxAA_s140_6.0.0.dir/__/common/src/simple_hal.c.obj
 .data          0x00000000        0x0 examples/enocean_switch/CMakeFiles/enocean_switch_nrf52840_xxAA_s140_6.0.0.dir/__/common/src/simple_hal.c.obj
 .bss           0x00000000        0x0 examples/enocean_switch/CMakeFiles/enocean_switch_nrf52840_xxAA_s140_6.0.0.dir/__/common/src/simple_hal.c.obj
 .text.hal_led_pin_get
                0x00000000       0x18 examples/enocean_switch/CMakeFiles/enocean_switch_nrf52840_xxAA_s140_6.0.0.dir/__/common/src/simple_hal.c.obj
 .text          0x00000000        0x0 examples/enocean_switch/CMakeFiles/enocean_switch_nrf52840_xxAA_s140_6.0.0.dir/__/common/src/mesh_app_utils.c.obj
 .data          0x00000000        0x0 examples/enocean_switch/CMakeFiles/enocean_switch_nrf52840_xxAA_s140_6.0.0.dir/__/common/src/mesh_app_utils.c.obj
 .bss           0x00000000        0x0 examples/enocean_switch/CMakeFiles/enocean_switch_nrf52840_xxAA_s140_6.0.0.dir/__/common/src/mesh_app_utils.c.obj
 .text.mesh_app_uuid_gen
                0x00000000       0x34 examples/enocean_switch/CMakeFiles/enocean_switch_nrf52840_xxAA_s140_6.0.0.dir/__/common/src/mesh_app_utils.c.obj
 .comment       0x00000000       0x80 examples/enocean_switch/CMakeFiles/enocean_switch_nrf52840_xxAA_s140_6.0.0.dir/__/common/src/mesh_app_utils.c.obj
 .ARM.attributes
                0x00000000       0x39 examples/enocean_switch/CMakeFiles/enocean_switch_nrf52840_xxAA_s140_6.0.0.dir/__/common/src/mesh_app_utils.c.obj
 .text          0x00000000        0x0 examples/enocean_switch/CMakeFiles/enocean_switch_nrf52840_xxAA_s140_6.0.0.dir/__/nrf_mesh_weak.c.obj
 .data          0x00000000        0x0 examples/enocean_switch/CMakeFiles/enocean_switch_nrf52840_xxAA_s140_6.0.0.dir/__/nrf_mesh_weak.c.obj
 .bss           0x00000000        0x0 examples/enocean_switch/CMakeFiles/enocean_switch_nrf52840_xxAA_s140_6.0.0.dir/__/nrf_mesh_weak.c.obj
 .text._weak_handler_ptr
                0x00000000        0x4 examples/enocean_switch/CMakeFiles/enocean_switch_nrf52840_xxAA_s140_6.0.0.dir/__/nrf_mesh_weak.c.obj
 .text          0x00000000        0x0 examples/enocean_switch/CMakeFiles/enocean_switch_nrf52840_xxAA_s140_6.0.0.dir/__/common/src/app_error_weak.c.obj
 .data          0x00000000        0x0 examples/enocean_switch/CMakeFiles/enocean_switch_nrf52840_xxAA_s140_6.0.0.dir/__/common/src/app_error_weak.c.obj
 .bss           0x00000000        0x0 examples/enocean_switch/CMakeFiles/enocean_switch_nrf52840_xxAA_s140_6.0.0.dir/__/common/src/app_error_weak.c.obj
 .text          0x00000000        0x0 examples/enocean_switch/CMakeFiles/enocean_switch_nrf52840_xxAA_s140_6.0.0.dir/__/common/src/assertion_handler_weak.c.obj
 .data          0x00000000        0x0 examples/enocean_switch/CMakeFiles/enocean_switch_nrf52840_xxAA_s140_6.0.0.dir/__/common/src/assertion_handler_weak.c.obj
 .bss           0x00000000        0x0 examples/enocean_switch/CMakeFiles/enocean_switch_nrf52840_xxAA_s140_6.0.0.dir/__/common/src/assertion_handler_weak.c.obj
 .text          0x00000000        0x0 examples/enocean_switch/CMakeFiles/enocean_switch_nrf52840_xxAA_s140_6.0.0.dir/__/__/mesh/core/src/internal_event.c.obj
 .data          0x00000000        0x0 examples/enocean_switch/CMakeFiles/enocean_switch_nrf52840_xxAA_s140_6.0.0.dir/__/__/mesh/core/src/internal_event.c.obj
 .bss           0x00000000        0x0 examples/enocean_switch/CMakeFiles/enocean_switch_nrf52840_xxAA_s140_6.0.0.dir/__/__/mesh/core/src/internal_event.c.obj
 .comment       0x00000000       0x80 examples/enocean_switch/CMakeFiles/enocean_switch_nrf52840_xxAA_s140_6.0.0.dir/__/__/mesh/core/src/internal_event.c.obj
 .ARM.attributes
                0x00000000       0x39 examples/enocean_switch/CMakeFiles/enocean_switch_nrf52840_xxAA_s140_6.0.0.dir/__/__/mesh/core/src/internal_event.c.obj
 .text          0x00000000        0x0 examples/enocean_switch/CMakeFiles/enocean_switch_nrf52840_xxAA_s140_6.0.0.dir/__/__/mesh/core/src/nrf_mesh_configure.c.obj
 .data          0x00000000        0x0 examples/enocean_switch/CMakeFiles/enocean_switch_nrf52840_xxAA_s140_6.0.0.dir/__/__/mesh/core/src/nrf_mesh_configure.c.obj
 .bss           0x00000000        0x0 examples/enocean_switch/CMakeFiles/enocean_switch_nrf52840_xxAA_s140_6.0.0.dir/__/__/mesh/core/src/nrf_mesh_configure.c.obj
 .text          0x00000000        0x0 examples/enocean_switch/CMakeFiles/enocean_switch_nrf52840_xxAA_s140_6.0.0.dir/__/__/mesh/core/src/aes.c.obj
 .data          0x00000000        0x0 examples/enocean_switch/CMakeFiles/enocean_switch_nrf52840_xxAA_s140_6.0.0.dir/__/__/mesh/core/src/aes.c.obj
 .bss           0x00000000        0x0 examples/enocean_switch/CMakeFiles/enocean_switch_nrf52840_xxAA_s140_6.0.0.dir/__/__/mesh/core/src/aes.c.obj
 .text          0x00000000        0x0 examples/enocean_switch/CMakeFiles/enocean_switch_nrf52840_xxAA_s140_6.0.0.dir/__/__/mesh/core/src/msg_cache.c.obj
 .data          0x00000000        0x0 examples/enocean_switch/CMakeFiles/enocean_switch_nrf52840_xxAA_s140_6.0.0.dir/__/__/mesh/core/src/msg_cache.c.obj
 .bss           0x00000000        0x0 examples/enocean_switch/CMakeFiles/enocean_switch_nrf52840_xxAA_s140_6.0.0.dir/__/__/mesh/core/src/msg_cache.c.obj
 .text.msg_cache_clear
                0x00000000       0x18 examples/enocean_switch/CMakeFiles/enocean_switch_nrf52840_xxAA_s140_6.0.0.dir/__/__/mesh/core/src/msg_cache.c.obj
 .text          0x00000000        0x0 examples/enocean_switch/CMakeFiles/enocean_switch_nrf52840_xxAA_s140_6.0.0.dir/__/__/mesh/core/src/transport.c.obj
 .data          0x00000000        0x0 examples/enocean_switch/CMakeFiles/enocean_switch_nrf52840_xxAA_s140_6.0.0.dir/__/__/mesh/core/src/transport.c.obj
 .bss           0x00000000        0x0 examples/enocean_switch/CMakeFiles/enocean_switch_nrf52840_xxAA_s140_6.0.0.dir/__/__/mesh/core/src/transport.c.obj
 .text.transport_sar_mem_funcs_reset
                0x00000000       0x30 examples/enocean_switch/CMakeFiles/enocean_switch_nrf52840_xxAA_s140_6.0.0.dir/__/__/mesh/core/src/transport.c.obj
 .text.transport_sar_mem_funcs_set
                0x00000000       0x48 examples/enocean_switch/CMakeFiles/enocean_switch_nrf52840_xxAA_s140_6.0.0.dir/__/__/mesh/core/src/transport.c.obj
 .text          0x00000000        0x0 examples/enocean_switch/CMakeFiles/enocean_switch_nrf52840_xxAA_s140_6.0.0.dir/__/__/mesh/core/src/event.c.obj
 .data          0x00000000        0x0 examples/enocean_switch/CMakeFiles/enocean_switch_nrf52840_xxAA_s140_6.0.0.dir/__/__/mesh/core/src/event.c.obj
 .bss           0x00000000        0x0 examples/enocean_switch/CMakeFiles/enocean_switch_nrf52840_xxAA_s140_6.0.0.dir/__/__/mesh/core/src/event.c.obj
 .text          0x00000000        0x0 examples/enocean_switch/CMakeFiles/enocean_switch_nrf52840_xxAA_s140_6.0.0.dir/__/__/mesh/core/src/packet_buffer.c.obj
 .data          0x00000000        0x0 examples/enocean_switch/CMakeFiles/enocean_switch_nrf52840_xxAA_s140_6.0.0.dir/__/__/mesh/core/src/packet_buffer.c.obj
 .bss           0x00000000        0x0 examples/enocean_switch/CMakeFiles/enocean_switch_nrf52840_xxAA_s140_6.0.0.dir/__/__/mesh/core/src/packet_buffer.c.obj
 .text.packet_buffer_max_packet_len_get
                0x00000000       0x24 examples/enocean_switch/CMakeFiles/enocean_switch_nrf52840_xxAA_s140_6.0.0.dir/__/__/mesh/core/src/packet_buffer.c.obj
 .text          0x00000000        0x0 examples/enocean_switch/CMakeFiles/enocean_switch_nrf52840_xxAA_s140_6.0.0.dir/__/__/mesh/core/src/flash_manager_defrag.c.obj
 .data          0x00000000        0x0 examples/enocean_switch/CMakeFiles/enocean_switch_nrf52840_xxAA_s140_6.0.0.dir/__/__/mesh/core/src/flash_manager_defrag.c.obj
 .bss           0x00000000        0x0 examples/enocean_switch/CMakeFiles/enocean_switch_nrf52840_xxAA_s140_6.0.0.dir/__/__/mesh/core/src/flash_manager_defrag.c.obj
 .text.flash_manager_defragging
                0x00000000       0x44 examples/enocean_switch/CMakeFiles/enocean_switch_nrf52840_xxAA_s140_6.0.0.dir/__/__/mesh/core/src/flash_manager_defrag.c.obj
 .text          0x00000000        0x0 examples/enocean_switch/CMakeFiles/enocean_switch_nrf52840_xxAA_s140_6.0.0.dir/__/__/mesh/core/src/fifo.c.obj
 .data          0x00000000        0x0 examples/enocean_switch/CMakeFiles/enocean_switch_nrf52840_xxAA_s140_6.0.0.dir/__/__/mesh/core/src/fifo.c.obj
 .bss           0x00000000        0x0 examples/enocean_switch/CMakeFiles/enocean_switch_nrf52840_xxAA_s140_6.0.0.dir/__/__/mesh/core/src/fifo.c.obj
 .text.fifo_peek_at
                0x00000000       0x54 examples/enocean_switch/CMakeFiles/enocean_switch_nrf52840_xxAA_s140_6.0.0.dir/__/__/mesh/core/src/fifo.c.obj
 .text.fifo_peek
                0x00000000       0x50 examples/enocean_switch/CMakeFiles/enocean_switch_nrf52840_xxAA_s140_6.0.0.dir/__/__/mesh/core/src/fifo.c.obj
 .text.fifo_flush
                0x00000000        0x8 examples/enocean_switch/CMakeFiles/enocean_switch_nrf52840_xxAA_s140_6.0.0.dir/__/__/mesh/core/src/fifo.c.obj
 .text.fifo_get_len
                0x00000000        0x8 examples/enocean_switch/CMakeFiles/enocean_switch_nrf52840_xxAA_s140_6.0.0.dir/__/__/mesh/core/src/fifo.c.obj
 .text.fifo_is_full
                0x00000000       0x14 examples/enocean_switch/CMakeFiles/enocean_switch_nrf52840_xxAA_s140_6.0.0.dir/__/__/mesh/core/src/fifo.c.obj
 .text.fifo_is_empty
                0x00000000       0x10 examples/enocean_switch/CMakeFiles/enocean_switch_nrf52840_xxAA_s140_6.0.0.dir/__/__/mesh/core/src/fifo.c.obj
 .text          0x00000000        0x0 examples/enocean_switch/CMakeFiles/enocean_switch_nrf52840_xxAA_s140_6.0.0.dir/__/__/mesh/core/src/nrf_flash.c.obj
 .data          0x00000000        0x0 examples/enocean_switch/CMakeFiles/enocean_switch_nrf52840_xxAA_s140_6.0.0.dir/__/__/mesh/core/src/nrf_flash.c.obj
 .bss           0x00000000        0x0 examples/enocean_switch/CMakeFiles/enocean_switch_nrf52840_xxAA_s140_6.0.0.dir/__/__/mesh/core/src/nrf_flash.c.obj
 .text          0x00000000        0x0 examples/enocean_switch/CMakeFiles/enocean_switch_nrf52840_xxAA_s140_6.0.0.dir/__/__/mesh/core/src/packet_mgr.c.obj
 .data          0x00000000        0x0 examples/enocean_switch/CMakeFiles/enocean_switch_nrf52840_xxAA_s140_6.0.0.dir/__/__/mesh/core/src/packet_mgr.c.obj
 .bss           0x00000000        0x0 examples/enocean_switch/CMakeFiles/enocean_switch_nrf52840_xxAA_s140_6.0.0.dir/__/__/mesh/core/src/packet_mgr.c.obj
 .text.packet_mgr_alloc
                0x00000000      0x1a0 examples/enocean_switch/CMakeFiles/enocean_switch_nrf52840_xxAA_s140_6.0.0.dir/__/__/mesh/core/src/packet_mgr.c.obj
 .text.packet_mgr_free
                0x00000000       0x5c examples/enocean_switch/CMakeFiles/enocean_switch_nrf52840_xxAA_s140_6.0.0.dir/__/__/mesh/core/src/packet_mgr.c.obj
 .text.packet_mgr_get_free_space
                0x00000000       0x1c examples/enocean_switch/CMakeFiles/enocean_switch_nrf52840_xxAA_s140_6.0.0.dir/__/__/mesh/core/src/packet_mgr.c.obj
 .text.packet_mgr_refcount_get
                0x00000000        0x8 examples/enocean_switch/CMakeFiles/enocean_switch_nrf52840_xxAA_s140_6.0.0.dir/__/__/mesh/core/src/packet_mgr.c.obj
 .text.packet_mgr_size_get
                0x00000000        0x8 examples/enocean_switch/CMakeFiles/enocean_switch_nrf52840_xxAA_s140_6.0.0.dir/__/__/mesh/core/src/packet_mgr.c.obj
 .text          0x00000000        0x0 examples/enocean_switch/CMakeFiles/enocean_switch_nrf52840_xxAA_s140_6.0.0.dir/__/__/mesh/core/src/net_state.c.obj
 .data          0x00000000        0x0 examples/enocean_switch/CMakeFiles/enocean_switch_nrf52840_xxAA_s140_6.0.0.dir/__/__/mesh/core/src/net_state.c.obj
 .bss           0x00000000        0x0 examples/enocean_switch/CMakeFiles/enocean_switch_nrf52840_xxAA_s140_6.0.0.dir/__/__/mesh/core/src/net_state.c.obj
 .text.net_state_iv_update_start
                0x00000000       0x90 examples/enocean_switch/CMakeFiles/enocean_switch_nrf52840_xxAA_s140_6.0.0.dir/__/__/mesh/core/src/net_state.c.obj
 .text.net_state_iv_update_test_mode_set
                0x00000000        0xc examples/enocean_switch/CMakeFiles/enocean_switch_nrf52840_xxAA_s140_6.0.0.dir/__/__/mesh/core/src/net_state.c.obj
 .text.net_state_test_mode_transition_run
                0x00000000      0x170 examples/enocean_switch/CMakeFiles/enocean_switch_nrf52840_xxAA_s140_6.0.0.dir/__/__/mesh/core/src/net_state.c.obj
 .text          0x00000000        0x0 examples/enocean_switch/CMakeFiles/enocean_switch_nrf52840_xxAA_s140_6.0.0.dir/__/__/mesh/core/src/mesh_flash.c.obj
 .data          0x00000000        0x0 examples/enocean_switch/CMakeFiles/enocean_switch_nrf52840_xxAA_s140_6.0.0.dir/__/__/mesh/core/src/mesh_flash.c.obj
 .bss           0x00000000        0x0 examples/enocean_switch/CMakeFiles/enocean_switch_nrf52840_xxAA_s140_6.0.0.dir/__/__/mesh/core/src/mesh_flash.c.obj
 .text.mesh_flash_op_available_slots
                0x00000000       0x2c examples/enocean_switch/CMakeFiles/enocean_switch_nrf52840_xxAA_s140_6.0.0.dir/__/__/mesh/core/src/mesh_flash.c.obj
 .text.mesh_flash_in_progress
                0x00000000       0x34 examples/enocean_switch/CMakeFiles/enocean_switch_nrf52840_xxAA_s140_6.0.0.dir/__/__/mesh/core/src/mesh_flash.c.obj
 .text.mesh_flash_set_suspended
                0x00000000      0x228 examples/enocean_switch/CMakeFiles/enocean_switch_nrf52840_xxAA_s140_6.0.0.dir/__/__/mesh/core/src/mesh_flash.c.obj
 .bss.suspend_count.10416
                0x00000000        0x4 examples/enocean_switch/CMakeFiles/enocean_switch_nrf52840_xxAA_s140_6.0.0.dir/__/__/mesh/core/src/mesh_flash.c.obj
 .text          0x00000000        0x0 examples/enocean_switch/CMakeFiles/enocean_switch_nrf52840_xxAA_s140_6.0.0.dir/__/__/mesh/core/src/nrf_mesh_utils.c.obj
 .data          0x00000000        0x0 examples/enocean_switch/CMakeFiles/enocean_switch_nrf52840_xxAA_s140_6.0.0.dir/__/__/mesh/core/src/nrf_mesh_utils.c.obj
 .bss           0x00000000        0x0 examples/enocean_switch/CMakeFiles/enocean_switch_nrf52840_xxAA_s140_6.0.0.dir/__/__/mesh/core/src/nrf_mesh_utils.c.obj
 .text.nrf_mesh_rand_get
                0x00000000       0x10 examples/enocean_switch/CMakeFiles/enocean_switch_nrf52840_xxAA_s140_6.0.0.dir/__/__/mesh/core/src/nrf_mesh_utils.c.obj
 .text.nrf_mesh_gap_address_type_get
                0x00000000       0x34 examples/enocean_switch/CMakeFiles/enocean_switch_nrf52840_xxAA_s140_6.0.0.dir/__/__/mesh/core/src/nrf_mesh_utils.c.obj
 .text          0x00000000        0x0 examples/enocean_switch/CMakeFiles/enocean_switch_nrf52840_xxAA_s140_6.0.0.dir/__/__/mesh/core/src/nrf_mesh.c.obj
 .data          0x00000000        0x0 examples/enocean_switch/CMakeFiles/enocean_switch_nrf52840_xxAA_s140_6.0.0.dir/__/__/mesh/core/src/nrf_mesh.c.obj
 .bss           0x00000000        0x0 examples/enocean_switch/CMakeFiles/enocean_switch_nrf52840_xxAA_s140_6.0.0.dir/__/__/mesh/core/src/nrf_mesh.c.obj
 .text.nrf_mesh_disable
                0x00000000       0x2c examples/enocean_switch/CMakeFiles/enocean_switch_nrf52840_xxAA_s140_6.0.0.dir/__/__/mesh/core/src/nrf_mesh.c.obj
 .text.nrf_mesh_process
                0x00000000        0x4 examples/enocean_switch/CMakeFiles/enocean_switch_nrf52840_xxAA_s140_6.0.0.dir/__/__/mesh/core/src/nrf_mesh.c.obj
 .text.nrf_mesh_evt_handler_remove
                0x00000000        0x4 examples/enocean_switch/CMakeFiles/enocean_switch_nrf52840_xxAA_s140_6.0.0.dir/__/__/mesh/core/src/nrf_mesh.c.obj
 .text.nrf_mesh_rx_cb_clear
                0x00000000        0xc examples/enocean_switch/CMakeFiles/enocean_switch_nrf52840_xxAA_s140_6.0.0.dir/__/__/mesh/core/src/nrf_mesh.c.obj
 .text          0x00000000        0x0 examples/enocean_switch/CMakeFiles/enocean_switch_nrf52840_xxAA_s140_6.0.0.dir/__/__/mesh/core/src/queue.c.obj
 .data          0x00000000        0x0 examples/enocean_switch/CMakeFiles/enocean_switch_nrf52840_xxAA_s140_6.0.0.dir/__/__/mesh/core/src/queue.c.obj
 .bss           0x00000000        0x0 examples/enocean_switch/CMakeFiles/enocean_switch_nrf52840_xxAA_s140_6.0.0.dir/__/__/mesh/core/src/queue.c.obj
 .text          0x00000000        0x0 examples/enocean_switch/CMakeFiles/enocean_switch_nrf52840_xxAA_s140_6.0.0.dir/__/__/mesh/core/src/hal.c.obj
 .data          0x00000000        0x0 examples/enocean_switch/CMakeFiles/enocean_switch_nrf52840_xxAA_s140_6.0.0.dir/__/__/mesh/core/src/hal.c.obj
 .bss           0x00000000        0x0 examples/enocean_switch/CMakeFiles/enocean_switch_nrf52840_xxAA_s140_6.0.0.dir/__/__/mesh/core/src/hal.c.obj
 .text          0x00000000        0x0 examples/enocean_switch/CMakeFiles/enocean_switch_nrf52840_xxAA_s140_6.0.0.dir/__/__/mesh/core/src/aes_cmac.c.obj
 .data          0x00000000        0x0 examples/enocean_switch/CMakeFiles/enocean_switch_nrf52840_xxAA_s140_6.0.0.dir/__/__/mesh/core/src/aes_cmac.c.obj
 .bss           0x00000000        0x0 examples/enocean_switch/CMakeFiles/enocean_switch_nrf52840_xxAA_s140_6.0.0.dir/__/__/mesh/core/src/aes_cmac.c.obj
 .text          0x00000000        0x0 examples/enocean_switch/CMakeFiles/enocean_switch_nrf52840_xxAA_s140_6.0.0.dir/__/__/mesh/core/src/timer_scheduler.c.obj
 .data          0x00000000        0x0 examples/enocean_switch/CMakeFiles/enocean_switch_nrf52840_xxAA_s140_6.0.0.dir/__/__/mesh/core/src/timer_scheduler.c.obj
 .bss           0x00000000        0x0 examples/enocean_switch/CMakeFiles/enocean_switch_nrf52840_xxAA_s140_6.0.0.dir/__/__/mesh/core/src/timer_scheduler.c.obj
 .text          0x00000000        0x0 examples/enocean_switch/CMakeFiles/enocean_switch_nrf52840_xxAA_s140_6.0.0.dir/__/__/mesh/core/src/timer.c.obj
 .data          0x00000000        0x0 examples/enocean_switch/CMakeFiles/enocean_switch_nrf52840_xxAA_s140_6.0.0.dir/__/__/mesh/core/src/timer.c.obj
 .bss           0x00000000        0x0 examples/enocean_switch/CMakeFiles/enocean_switch_nrf52840_xxAA_s140_6.0.0.dir/__/__/mesh/core/src/timer.c.obj
 .text.timer_order_cb_ppi
                0x00000000       0xd8 examples/enocean_switch/CMakeFiles/enocean_switch_nrf52840_xxAA_s140_6.0.0.dir/__/__/mesh/core/src/timer.c.obj
 .text.timer_order_ppi
                0x00000000       0xc8 examples/enocean_switch/CMakeFiles/enocean_switch_nrf52840_xxAA_s140_6.0.0.dir/__/__/mesh/core/src/timer.c.obj
 .text.timer_abort
                0x00000000       0x84 examples/enocean_switch/CMakeFiles/enocean_switch_nrf52840_xxAA_s140_6.0.0.dir/__/__/mesh/core/src/timer.c.obj
 .text          0x00000000        0x0 examples/enocean_switch/CMakeFiles/enocean_switch_nrf52840_xxAA_s140_6.0.0.dir/__/__/mesh/core/src/ticker.c.obj
 .data          0x00000000        0x0 examples/enocean_switch/CMakeFiles/enocean_switch_nrf52840_xxAA_s140_6.0.0.dir/__/__/mesh/core/src/ticker.c.obj
 .bss           0x00000000        0x0 examples/enocean_switch/CMakeFiles/enocean_switch_nrf52840_xxAA_s140_6.0.0.dir/__/__/mesh/core/src/ticker.c.obj
 .text.ticker_get
                0x00000000        0xc examples/enocean_switch/CMakeFiles/enocean_switch_nrf52840_xxAA_s140_6.0.0.dir/__/__/mesh/core/src/ticker.c.obj
 .text          0x00000000        0x0 examples/enocean_switch/CMakeFiles/enocean_switch_nrf52840_xxAA_s140_6.0.0.dir/__/__/mesh/core/src/rand.c.obj
 .data          0x00000000        0x0 examples/enocean_switch/CMakeFiles/enocean_switch_nrf52840_xxAA_s140_6.0.0.dir/__/__/mesh/core/src/rand.c.obj
 .bss           0x00000000        0x0 examples/enocean_switch/CMakeFiles/enocean_switch_nrf52840_xxAA_s140_6.0.0.dir/__/__/mesh/core/src/rand.c.obj
 .text          0x00000000        0x0 examples/enocean_switch/CMakeFiles/enocean_switch_nrf52840_xxAA_s140_6.0.0.dir/__/__/mesh/core/src/nrf_mesh_opt.c.obj
 .data          0x00000000        0x0 examples/enocean_switch/CMakeFiles/enocean_switch_nrf52840_xxAA_s140_6.0.0.dir/__/__/mesh/core/src/nrf_mesh_opt.c.obj
 .bss           0x00000000        0x0 examples/enocean_switch/CMakeFiles/enocean_switch_nrf52840_xxAA_s140_6.0.0.dir/__/__/mesh/core/src/nrf_mesh_opt.c.obj
 .text          0x00000000        0x0 examples/enocean_switch/CMakeFiles/enocean_switch_nrf52840_xxAA_s140_6.0.0.dir/__/__/mesh/core/src/timeslot.c.obj
 .data          0x00000000        0x0 examples/enocean_switch/CMakeFiles/enocean_switch_nrf52840_xxAA_s140_6.0.0.dir/__/__/mesh/core/src/timeslot.c.obj
 .bss           0x00000000        0x0 examples/enocean_switch/CMakeFiles/enocean_switch_nrf52840_xxAA_s140_6.0.0.dir/__/__/mesh/core/src/timeslot.c.obj
 .text.timeslot_restart
                0x00000000       0x30 examples/enocean_switch/CMakeFiles/enocean_switch_nrf52840_xxAA_s140_6.0.0.dir/__/__/mesh/core/src/timeslot.c.obj
 .text.timeslot_end_time_get
                0x00000000       0x30 examples/enocean_switch/CMakeFiles/enocean_switch_nrf52840_xxAA_s140_6.0.0.dir/__/__/mesh/core/src/timeslot.c.obj
 .text.timeslot_is_in_ts
                0x00000000        0xc examples/enocean_switch/CMakeFiles/enocean_switch_nrf52840_xxAA_s140_6.0.0.dir/__/__/mesh/core/src/timeslot.c.obj
 .text          0x00000000        0x0 examples/enocean_switch/CMakeFiles/enocean_switch_nrf52840_xxAA_s140_6.0.0.dir/__/__/mesh/core/src/bearer_event.c.obj
 .data          0x00000000        0x0 examples/enocean_switch/CMakeFiles/enocean_switch_nrf52840_xxAA_s140_6.0.0.dir/__/__/mesh/core/src/bearer_event.c.obj
 .bss           0x00000000        0x0 examples/enocean_switch/CMakeFiles/enocean_switch_nrf52840_xxAA_s140_6.0.0.dir/__/__/mesh/core/src/bearer_event.c.obj
 .text.bearer_event_generic_post
                0x00000000       0x50 examples/enocean_switch/CMakeFiles/enocean_switch_nrf52840_xxAA_s140_6.0.0.dir/__/__/mesh/core/src/bearer_event.c.obj
 .text.bearer_event_timer_sch_post
                0x00000000       0x54 examples/enocean_switch/CMakeFiles/enocean_switch_nrf52840_xxAA_s140_6.0.0.dir/__/__/mesh/core/src/bearer_event.c.obj
 .text.bearer_event_in_correct_irq_priority
                0x00000000       0x54 examples/enocean_switch/CMakeFiles/enocean_switch_nrf52840_xxAA_s140_6.0.0.dir/__/__/mesh/core/src/bearer_event.c.obj
 .text          0x00000000        0x0 examples/enocean_switch/CMakeFiles/enocean_switch_nrf52840_xxAA_s140_6.0.0.dir/__/__/mesh/core/src/enc.c.obj
 .data          0x00000000        0x0 examples/enocean_switch/CMakeFiles/enocean_switch_nrf52840_xxAA_s140_6.0.0.dir/__/__/mesh/core/src/enc.c.obj
 .bss           0x00000000        0x0 examples/enocean_switch/CMakeFiles/enocean_switch_nrf52840_xxAA_s140_6.0.0.dir/__/__/mesh/core/src/enc.c.obj
 .text.enc_key_generate
                0x00000000        0x8 examples/enocean_switch/CMakeFiles/enocean_switch_nrf52840_xxAA_s140_6.0.0.dir/__/__/mesh/core/src/enc.c.obj
 .text          0x00000000        0x0 examples/enocean_switch/CMakeFiles/enocean_switch_nrf52840_xxAA_s140_6.0.0.dir/__/__/mesh/core/src/network.c.obj
 .data          0x00000000        0x0 examples/enocean_switch/CMakeFiles/enocean_switch_nrf52840_xxAA_s140_6.0.0.dir/__/__/mesh/core/src/network.c.obj
 .bss           0x00000000        0x0 examples/enocean_switch/CMakeFiles/enocean_switch_nrf52840_xxAA_s140_6.0.0.dir/__/__/mesh/core/src/network.c.obj
 .text.network_packet_discard
                0x00000000       0x28 examples/enocean_switch/CMakeFiles/enocean_switch_nrf52840_xxAA_s140_6.0.0.dir/__/__/mesh/core/src/network.c.obj
 .text          0x00000000        0x0 examples/enocean_switch/CMakeFiles/enocean_switch_nrf52840_xxAA_s140_6.0.0.dir/__/__/mesh/core/src/net_packet.c.obj
 .data          0x00000000        0x0 examples/enocean_switch/CMakeFiles/enocean_switch_nrf52840_xxAA_s140_6.0.0.dir/__/__/mesh/core/src/net_packet.c.obj
 .bss           0x00000000        0x0 examples/enocean_switch/CMakeFiles/enocean_switch_nrf52840_xxAA_s140_6.0.0.dir/__/__/mesh/core/src/net_packet.c.obj
 .text.net_packet_enc_start_get
                0x00000000        0x4 examples/enocean_switch/CMakeFiles/enocean_switch_nrf52840_xxAA_s140_6.0.0.dir/__/__/mesh/core/src/net_packet.c.obj
 .text.net_packet_payload_get
                0x00000000        0x4 examples/enocean_switch/CMakeFiles/enocean_switch_nrf52840_xxAA_s140_6.0.0.dir/__/__/mesh/core/src/net_packet.c.obj
 .text          0x00000000        0x0 examples/enocean_switch/CMakeFiles/enocean_switch_nrf52840_xxAA_s140_6.0.0.dir/__/__/mesh/core/src/msqueue.c.obj
 .data          0x00000000        0x0 examples/enocean_switch/CMakeFiles/enocean_switch_nrf52840_xxAA_s140_6.0.0.dir/__/__/mesh/core/src/msqueue.c.obj
 .bss           0x00000000        0x0 examples/enocean_switch/CMakeFiles/enocean_switch_nrf52840_xxAA_s140_6.0.0.dir/__/__/mesh/core/src/msqueue.c.obj
 .text.msq_reset
                0x00000000       0x24 examples/enocean_switch/CMakeFiles/enocean_switch_nrf52840_xxAA_s140_6.0.0.dir/__/__/mesh/core/src/msqueue.c.obj
 .text          0x00000000        0x0 examples/enocean_switch/CMakeFiles/enocean_switch_nrf52840_xxAA_s140_6.0.0.dir/__/__/mesh/core/src/nrf_mesh_keygen.c.obj
 .data          0x00000000        0x0 examples/enocean_switch/CMakeFiles/enocean_switch_nrf52840_xxAA_s140_6.0.0.dir/__/__/mesh/core/src/nrf_mesh_keygen.c.obj
 .bss           0x00000000        0x0 examples/enocean_switch/CMakeFiles/enocean_switch_nrf52840_xxAA_s140_6.0.0.dir/__/__/mesh/core/src/nrf_mesh_keygen.c.obj
 .text.nrf_mesh_keygen_identitykey
                0x00000000       0x4c examples/enocean_switch/CMakeFiles/enocean_switch_nrf52840_xxAA_s140_6.0.0.dir/__/__/mesh/core/src/nrf_mesh_keygen.c.obj
 .text          0x00000000        0x0 examples/enocean_switch/CMakeFiles/enocean_switch_nrf52840_xxAA_s140_6.0.0.dir/__/__/mesh/core/src/cache.c.obj
 .data          0x00000000        0x0 examples/enocean_switch/CMakeFiles/enocean_switch_nrf52840_xxAA_s140_6.0.0.dir/__/__/mesh/core/src/cache.c.obj
 .bss           0x00000000        0x0 examples/enocean_switch/CMakeFiles/enocean_switch_nrf52840_xxAA_s140_6.0.0.dir/__/__/mesh/core/src/cache.c.obj
 .text.cache_init
                0x00000000       0x44 examples/enocean_switch/CMakeFiles/enocean_switch_nrf52840_xxAA_s140_6.0.0.dir/__/__/mesh/core/src/cache.c.obj
 .text.cache_has_elem
                0x00000000       0x5c examples/enocean_switch/CMakeFiles/enocean_switch_nrf52840_xxAA_s140_6.0.0.dir/__/__/mesh/core/src/cache.c.obj
 .text.cache_put
                0x00000000       0x2c examples/enocean_switch/CMakeFiles/enocean_switch_nrf52840_xxAA_s140_6.0.0.dir/__/__/mesh/core/src/cache.c.obj
 .text.cache_erase_elem
                0x00000000       0x80 examples/enocean_switch/CMakeFiles/enocean_switch_nrf52840_xxAA_s140_6.0.0.dir/__/__/mesh/core/src/cache.c.obj
 .comment       0x00000000       0x80 examples/enocean_switch/CMakeFiles/enocean_switch_nrf52840_xxAA_s140_6.0.0.dir/__/__/mesh/core/src/cache.c.obj
 .ARM.attributes
                0x00000000       0x39 examples/enocean_switch/CMakeFiles/enocean_switch_nrf52840_xxAA_s140_6.0.0.dir/__/__/mesh/core/src/cache.c.obj
 .text          0x00000000        0x0 examples/enocean_switch/CMakeFiles/enocean_switch_nrf52840_xxAA_s140_6.0.0.dir/__/__/mesh/core/src/uri.c.obj
 .data          0x00000000        0x0 examples/enocean_switch/CMakeFiles/enocean_switch_nrf52840_xxAA_s140_6.0.0.dir/__/__/mesh/core/src/uri.c.obj
 .bss           0x00000000        0x0 examples/enocean_switch/CMakeFiles/enocean_switch_nrf52840_xxAA_s140_6.0.0.dir/__/__/mesh/core/src/uri.c.obj
 .text.uri_data_generate
                0x00000000       0x88 examples/enocean_switch/CMakeFiles/enocean_switch_nrf52840_xxAA_s140_6.0.0.dir/__/__/mesh/core/src/uri.c.obj
 .text.uri_data_parse
                0x00000000       0x80 examples/enocean_switch/CMakeFiles/enocean_switch_nrf52840_xxAA_s140_6.0.0.dir/__/__/mesh/core/src/uri.c.obj
 .text.uri_scheme_name_code_point
                0x00000000       0x5c examples/enocean_switch/CMakeFiles/enocean_switch_nrf52840_xxAA_s140_6.0.0.dir/__/__/mesh/core/src/uri.c.obj
 .text.uri_scheme_name_string
                0x00000000       0x14 examples/enocean_switch/CMakeFiles/enocean_switch_nrf52840_xxAA_s140_6.0.0.dir/__/__/mesh/core/src/uri.c.obj
 .rodata.m_code_point_strings
                0x00000000      0x2ec examples/enocean_switch/CMakeFiles/enocean_switch_nrf52840_xxAA_s140_6.0.0.dir/__/__/mesh/core/src/uri.c.obj
 .rodata.str1.4
                0x00000000      0x6ba examples/enocean_switch/CMakeFiles/enocean_switch_nrf52840_xxAA_s140_6.0.0.dir/__/__/mesh/core/src/uri.c.obj
 .comment       0x00000000       0x80 examples/enocean_switch/CMakeFiles/enocean_switch_nrf52840_xxAA_s140_6.0.0.dir/__/__/mesh/core/src/uri.c.obj
 .ARM.attributes
                0x00000000       0x39 examples/enocean_switch/CMakeFiles/enocean_switch_nrf52840_xxAA_s140_6.0.0.dir/__/__/mesh/core/src/uri.c.obj
 .text          0x00000000        0x0 examples/enocean_switch/CMakeFiles/enocean_switch_nrf52840_xxAA_s140_6.0.0.dir/__/__/mesh/core/src/list.c.obj
 .data          0x00000000        0x0 examples/enocean_switch/CMakeFiles/enocean_switch_nrf52840_xxAA_s140_6.0.0.dir/__/__/mesh/core/src/list.c.obj
 .bss           0x00000000        0x0 examples/enocean_switch/CMakeFiles/enocean_switch_nrf52840_xxAA_s140_6.0.0.dir/__/__/mesh/core/src/list.c.obj
 .text.list_size_get
                0x00000000       0x14 examples/enocean_switch/CMakeFiles/enocean_switch_nrf52840_xxAA_s140_6.0.0.dir/__/__/mesh/core/src/list.c.obj
 .text.list_sorted_add
                0x00000000       0x8c examples/enocean_switch/CMakeFiles/enocean_switch_nrf52840_xxAA_s140_6.0.0.dir/__/__/mesh/core/src/list.c.obj
 .text          0x00000000        0x0 examples/enocean_switch/CMakeFiles/enocean_switch_nrf52840_xxAA_s140_6.0.0.dir/__/__/mesh/core/src/log.c.obj
 .data          0x00000000        0x0 examples/enocean_switch/CMakeFiles/enocean_switch_nrf52840_xxAA_s140_6.0.0.dir/__/__/mesh/core/src/log.c.obj
 .bss           0x00000000        0x0 examples/enocean_switch/CMakeFiles/enocean_switch_nrf52840_xxAA_s140_6.0.0.dir/__/__/mesh/core/src/log.c.obj
 .text.log_callback_logview
                0x00000000       0x38 examples/enocean_switch/CMakeFiles/enocean_switch_nrf52840_xxAA_s140_6.0.0.dir/__/__/mesh/core/src/log.c.obj
 .text.log_set_callback
                0x00000000        0xc examples/enocean_switch/CMakeFiles/enocean_switch_nrf52840_xxAA_s140_6.0.0.dir/__/__/mesh/core/src/log.c.obj
 .text.log_vprintf
                0x00000000       0x18 examples/enocean_switch/CMakeFiles/enocean_switch_nrf52840_xxAA_s140_6.0.0.dir/__/__/mesh/core/src/log.c.obj
 .rodata.log_callback_logview.str1.4
                0x00000000       0x12 examples/enocean_switch/CMakeFiles/enocean_switch_nrf52840_xxAA_s140_6.0.0.dir/__/__/mesh/core/src/log.c.obj
 .text          0x00000000        0x0 examples/enocean_switch/CMakeFiles/enocean_switch_nrf52840_xxAA_s140_6.0.0.dir/__/__/mesh/core/src/flash_manager.c.obj
 .data          0x00000000        0x0 examples/enocean_switch/CMakeFiles/enocean_switch_nrf52840_xxAA_s140_6.0.0.dir/__/__/mesh/core/src/flash_manager.c.obj
 .bss           0x00000000        0x0 examples/enocean_switch/CMakeFiles/enocean_switch_nrf52840_xxAA_s140_6.0.0.dir/__/__/mesh/core/src/flash_manager.c.obj
 .text.flash_manager_entry_count_get
                0x00000000       0xf4 examples/enocean_switch/CMakeFiles/enocean_switch_nrf52840_xxAA_s140_6.0.0.dir/__/__/mesh/core/src/flash_manager.c.obj
 .text.flash_manager_entry_release
                0x00000000       0x74 examples/enocean_switch/CMakeFiles/enocean_switch_nrf52840_xxAA_s140_6.0.0.dir/__/__/mesh/core/src/flash_manager.c.obj
 .text          0x00000000        0x0 examples/enocean_switch/CMakeFiles/enocean_switch_nrf52840_xxAA_s140_6.0.0.dir/__/__/mesh/core/src/ccm_soft.c.obj
 .data          0x00000000        0x0 examples/enocean_switch/CMakeFiles/enocean_switch_nrf52840_xxAA_s140_6.0.0.dir/__/__/mesh/core/src/ccm_soft.c.obj
 .bss           0x00000000        0x0 examples/enocean_switch/CMakeFiles/enocean_switch_nrf52840_xxAA_s140_6.0.0.dir/__/__/mesh/core/src/ccm_soft.c.obj
 .text          0x00000000        0x0 examples/enocean_switch/CMakeFiles/enocean_switch_nrf52840_xxAA_s140_6.0.0.dir/__/__/mesh/core/src/toolchain.c.obj
 .data          0x00000000        0x0 examples/enocean_switch/CMakeFiles/enocean_switch_nrf52840_xxAA_s140_6.0.0.dir/__/__/mesh/core/src/toolchain.c.obj
 .bss           0x00000000        0x0 examples/enocean_switch/CMakeFiles/enocean_switch_nrf52840_xxAA_s140_6.0.0.dir/__/__/mesh/core/src/toolchain.c.obj
 .comment       0x00000000       0x80 examples/enocean_switch/CMakeFiles/enocean_switch_nrf52840_xxAA_s140_6.0.0.dir/__/__/mesh/core/src/toolchain.c.obj
 .ARM.attributes
                0x00000000       0x39 examples/enocean_switch/CMakeFiles/enocean_switch_nrf52840_xxAA_s140_6.0.0.dir/__/__/mesh/core/src/toolchain.c.obj
 .text          0x00000000        0x0 examples/enocean_switch/CMakeFiles/enocean_switch_nrf52840_xxAA_s140_6.0.0.dir/__/__/mesh/core/src/replay_cache.c.obj
 .data          0x00000000        0x0 examples/enocean_switch/CMakeFiles/enocean_switch_nrf52840_xxAA_s140_6.0.0.dir/__/__/mesh/core/src/replay_cache.c.obj
 .bss           0x00000000        0x0 examples/enocean_switch/CMakeFiles/enocean_switch_nrf52840_xxAA_s140_6.0.0.dir/__/__/mesh/core/src/replay_cache.c.obj
 .text.replay_cache_on_iv_update
                0x00000000       0x2c examples/enocean_switch/CMakeFiles/enocean_switch_nrf52840_xxAA_s140_6.0.0.dir/__/__/mesh/core/src/replay_cache.c.obj
 .text.replay_cache_clear
                0x00000000       0x20 examples/enocean_switch/CMakeFiles/enocean_switch_nrf52840_xxAA_s140_6.0.0.dir/__/__/mesh/core/src/replay_cache.c.obj
 .text          0x00000000        0x0 examples/enocean_switch/CMakeFiles/enocean_switch_nrf52840_xxAA_s140_6.0.0.dir/__/__/mesh/core/src/beacon.c.obj
 .data          0x00000000        0x0 examples/enocean_switch/CMakeFiles/enocean_switch_nrf52840_xxAA_s140_6.0.0.dir/__/__/mesh/core/src/beacon.c.obj
 .bss           0x00000000        0x0 examples/enocean_switch/CMakeFiles/enocean_switch_nrf52840_xxAA_s140_6.0.0.dir/__/__/mesh/core/src/beacon.c.obj
 .text          0x00000000        0x0 examples/enocean_switch/CMakeFiles/enocean_switch_nrf52840_xxAA_s140_6.0.0.dir/__/__/mesh/core/src/flash_manager_internal.c.obj
 .data          0x00000000        0x0 examples/enocean_switch/CMakeFiles/enocean_switch_nrf52840_xxAA_s140_6.0.0.dir/__/__/mesh/core/src/flash_manager_internal.c.obj
 .bss           0x00000000        0x0 examples/enocean_switch/CMakeFiles/enocean_switch_nrf52840_xxAA_s140_6.0.0.dir/__/__/mesh/core/src/flash_manager_internal.c.obj
 .text          0x00000000        0x0 examples/enocean_switch/CMakeFiles/enocean_switch_nrf52840_xxAA_s140_6.0.0.dir/__/__/mesh/core/src/core_tx.c.obj
 .data          0x00000000        0x0 examples/enocean_switch/CMakeFiles/enocean_switch_nrf52840_xxAA_s140_6.0.0.dir/__/__/mesh/core/src/core_tx.c.obj
 .bss           0x00000000        0x0 examples/enocean_switch/CMakeFiles/enocean_switch_nrf52840_xxAA_s140_6.0.0.dir/__/__/mesh/core/src/core_tx.c.obj
 .text.core_tx_bearer_type_get
                0x00000000       0x2c examples/enocean_switch/CMakeFiles/enocean_switch_nrf52840_xxAA_s140_6.0.0.dir/__/__/mesh/core/src/core_tx.c.obj
 .text.core_tx_bearer_count_get
                0x00000000        0xc examples/enocean_switch/CMakeFiles/enocean_switch_nrf52840_xxAA_s140_6.0.0.dir/__/__/mesh/core/src/core_tx.c.obj
 .text          0x00000000        0x0 examples/enocean_switch/CMakeFiles/enocean_switch_nrf52840_xxAA_s140_6.0.0.dir/__/__/mesh/core/src/heartbeat.c.obj
 .data          0x00000000        0x0 examples/enocean_switch/CMakeFiles/enocean_switch_nrf52840_xxAA_s140_6.0.0.dir/__/__/mesh/core/src/heartbeat.c.obj
 .bss           0x00000000        0x0 examples/enocean_switch/CMakeFiles/enocean_switch_nrf52840_xxAA_s140_6.0.0.dir/__/__/mesh/core/src/heartbeat.c.obj
 .text          0x00000000        0x0 examples/enocean_switch/CMakeFiles/enocean_switch_nrf52840_xxAA_s140_6.0.0.dir/__/__/mesh/core/src/net_beacon.c.obj
 .data          0x00000000        0x0 examples/enocean_switch/CMakeFiles/enocean_switch_nrf52840_xxAA_s140_6.0.0.dir/__/__/mesh/core/src/net_beacon.c.obj
 .bss           0x00000000        0x0 examples/enocean_switch/CMakeFiles/enocean_switch_nrf52840_xxAA_s140_6.0.0.dir/__/__/mesh/core/src/net_beacon.c.obj
 .text.net_beacon_build
                0x00000000       0x68 examples/enocean_switch/CMakeFiles/enocean_switch_nrf52840_xxAA_s140_6.0.0.dir/__/__/mesh/core/src/net_beacon.c.obj
 .text          0x00000000        0x0 examples/enocean_switch/CMakeFiles/enocean_switch_nrf52840_xxAA_s140_6.0.0.dir/__/__/mesh/core/src/fsm.c.obj
 .data          0x00000000        0x0 examples/enocean_switch/CMakeFiles/enocean_switch_nrf52840_xxAA_s140_6.0.0.dir/__/__/mesh/core/src/fsm.c.obj
 .bss           0x00000000        0x0 examples/enocean_switch/CMakeFiles/enocean_switch_nrf52840_xxAA_s140_6.0.0.dir/__/__/mesh/core/src/fsm.c.obj
 .text.fsm_event_post_try
                0x00000000      0x238 examples/enocean_switch/CMakeFiles/enocean_switch_nrf52840_xxAA_s140_6.0.0.dir/__/__/mesh/core/src/fsm.c.obj
 .text.fsm_init
                0x00000000      0x100 examples/enocean_switch/CMakeFiles/enocean_switch_nrf52840_xxAA_s140_6.0.0.dir/__/__/mesh/core/src/fsm.c.obj
 .text.fsm_event_post
                0x00000000       0xbc examples/enocean_switch/CMakeFiles/enocean_switch_nrf52840_xxAA_s140_6.0.0.dir/__/__/mesh/core/src/fsm.c.obj
 .text.fsm_is_processing
                0x00000000        0xc examples/enocean_switch/CMakeFiles/enocean_switch_nrf52840_xxAA_s140_6.0.0.dir/__/__/mesh/core/src/fsm.c.obj
 .rodata.fsm_event_post.str1.4
                0x00000000        0xb examples/enocean_switch/CMakeFiles/enocean_switch_nrf52840_xxAA_s140_6.0.0.dir/__/__/mesh/core/src/fsm.c.obj
 .rodata.fsm_event_post_try.str1.4
                0x00000000       0x44 examples/enocean_switch/CMakeFiles/enocean_switch_nrf52840_xxAA_s140_6.0.0.dir/__/__/mesh/core/src/fsm.c.obj
 .rodata.fsm_init.str1.4
                0x00000000        0xa examples/enocean_switch/CMakeFiles/enocean_switch_nrf52840_xxAA_s140_6.0.0.dir/__/__/mesh/core/src/fsm.c.obj
 .comment       0x00000000       0x80 examples/enocean_switch/CMakeFiles/enocean_switch_nrf52840_xxAA_s140_6.0.0.dir/__/__/mesh/core/src/fsm.c.obj
 .ARM.attributes
                0x00000000       0x39 examples/enocean_switch/CMakeFiles/enocean_switch_nrf52840_xxAA_s140_6.0.0.dir/__/__/mesh/core/src/fsm.c.obj
 .text          0x00000000        0x0 examples/enocean_switch/CMakeFiles/enocean_switch_nrf52840_xxAA_s140_6.0.0.dir/__/__/mesh/core/src/core_tx_adv.c.obj
 .data          0x00000000        0x0 examples/enocean_switch/CMakeFiles/enocean_switch_nrf52840_xxAA_s140_6.0.0.dir/__/__/mesh/core/src/core_tx_adv.c.obj
 .bss           0x00000000        0x0 examples/enocean_switch/CMakeFiles/enocean_switch_nrf52840_xxAA_s140_6.0.0.dir/__/__/mesh/core/src/core_tx_adv.c.obj
 .text.core_tx_adv_address_set
                0x00000000       0x28 examples/enocean_switch/CMakeFiles/enocean_switch_nrf52840_xxAA_s140_6.0.0.dir/__/__/mesh/core/src/core_tx_adv.c.obj
 .text          0x00000000        0x0 examples/enocean_switch/CMakeFiles/enocean_switch_nrf52840_xxAA_s140_6.0.0.dir/__/__/mesh/bearer/src/ad_listener.c.obj
 .data          0x00000000        0x0 examples/enocean_switch/CMakeFiles/enocean_switch_nrf52840_xxAA_s140_6.0.0.dir/__/__/mesh/bearer/src/ad_listener.c.obj
 .bss           0x00000000        0x0 examples/enocean_switch/CMakeFiles/enocean_switch_nrf52840_xxAA_s140_6.0.0.dir/__/__/mesh/bearer/src/ad_listener.c.obj
 .text.ad_listener_unsubscribe
                0x00000000       0x7c examples/enocean_switch/CMakeFiles/enocean_switch_nrf52840_xxAA_s140_6.0.0.dir/__/__/mesh/bearer/src/ad_listener.c.obj
 .text          0x00000000        0x0 examples/enocean_switch/CMakeFiles/enocean_switch_nrf52840_xxAA_s140_6.0.0.dir/__/__/mesh/bearer/src/ad_type_filter.c.obj
 .data          0x00000000        0x0 examples/enocean_switch/CMakeFiles/enocean_switch_nrf52840_xxAA_s140_6.0.0.dir/__/__/mesh/bearer/src/ad_type_filter.c.obj
 .bss           0x00000000        0x0 examples/enocean_switch/CMakeFiles/enocean_switch_nrf52840_xxAA_s140_6.0.0.dir/__/__/mesh/bearer/src/ad_type_filter.c.obj
 .text.bearer_adtype_remove
                0x00000000       0x28 examples/enocean_switch/CMakeFiles/enocean_switch_nrf52840_xxAA_s140_6.0.0.dir/__/__/mesh/bearer/src/ad_type_filter.c.obj
 .text.bearer_adtype_clear
                0x00000000       0x10 examples/enocean_switch/CMakeFiles/enocean_switch_nrf52840_xxAA_s140_6.0.0.dir/__/__/mesh/bearer/src/ad_type_filter.c.obj
 .text.bearer_invalid_length_amount_get
                0x00000000        0xc examples/enocean_switch/CMakeFiles/enocean_switch_nrf52840_xxAA_s140_6.0.0.dir/__/__/mesh/bearer/src/ad_type_filter.c.obj
 .text.bearer_adtype_filtered_amount_get
                0x00000000        0xc examples/enocean_switch/CMakeFiles/enocean_switch_nrf52840_xxAA_s140_6.0.0.dir/__/__/mesh/bearer/src/ad_type_filter.c.obj
 .text          0x00000000        0x0 examples/enocean_switch/CMakeFiles/enocean_switch_nrf52840_xxAA_s140_6.0.0.dir/__/__/mesh/bearer/src/adv_packet_filter.c.obj
 .data          0x00000000        0x0 examples/enocean_switch/CMakeFiles/enocean_switch_nrf52840_xxAA_s140_6.0.0.dir/__/__/mesh/bearer/src/adv_packet_filter.c.obj
 .bss           0x00000000        0x0 examples/enocean_switch/CMakeFiles/enocean_switch_nrf52840_xxAA_s140_6.0.0.dir/__/__/mesh/bearer/src/adv_packet_filter.c.obj
 .text.adv_filter_handle
                0x00000000       0x40 examples/enocean_switch/CMakeFiles/enocean_switch_nrf52840_xxAA_s140_6.0.0.dir/__/__/mesh/bearer/src/adv_packet_filter.c.obj
 .text.bearer_adv_packet_filtering_set
                0x00000000       0x1c examples/enocean_switch/CMakeFiles/enocean_switch_nrf52840_xxAA_s140_6.0.0.dir/__/__/mesh/bearer/src/adv_packet_filter.c.obj
 .text.bearer_adv_packet_remove
                0x00000000       0x18 examples/enocean_switch/CMakeFiles/enocean_switch_nrf52840_xxAA_s140_6.0.0.dir/__/__/mesh/bearer/src/adv_packet_filter.c.obj
 .text.bearer_adv_packet_add
                0x00000000       0x14 examples/enocean_switch/CMakeFiles/enocean_switch_nrf52840_xxAA_s140_6.0.0.dir/__/__/mesh/bearer/src/adv_packet_filter.c.obj
 .text.bearer_adv_packet_clear
                0x00000000        0xc examples/enocean_switch/CMakeFiles/enocean_switch_nrf52840_xxAA_s140_6.0.0.dir/__/__/mesh/bearer/src/adv_packet_filter.c.obj
 .text.bearer_adv_packet_filter_mode_set
                0x00000000       0x18 examples/enocean_switch/CMakeFiles/enocean_switch_nrf52840_xxAA_s140_6.0.0.dir/__/__/mesh/bearer/src/adv_packet_filter.c.obj
 .text.bearer_adv_packet_filtered_amount_get
                0x00000000        0xc examples/enocean_switch/CMakeFiles/enocean_switch_nrf52840_xxAA_s140_6.0.0.dir/__/__/mesh/bearer/src/adv_packet_filter.c.obj
 .bss.m_adv_packet_filter
                0x00000000       0x14 examples/enocean_switch/CMakeFiles/enocean_switch_nrf52840_xxAA_s140_6.0.0.dir/__/__/mesh/bearer/src/adv_packet_filter.c.obj
 .comment       0x00000000       0x80 examples/enocean_switch/CMakeFiles/enocean_switch_nrf52840_xxAA_s140_6.0.0.dir/__/__/mesh/bearer/src/adv_packet_filter.c.obj
 .ARM.attributes
                0x00000000       0x39 examples/enocean_switch/CMakeFiles/enocean_switch_nrf52840_xxAA_s140_6.0.0.dir/__/__/mesh/bearer/src/adv_packet_filter.c.obj
 .text          0x00000000        0x0 examples/enocean_switch/CMakeFiles/enocean_switch_nrf52840_xxAA_s140_6.0.0.dir/__/__/mesh/bearer/src/advertiser.c.obj
 .data          0x00000000        0x0 examples/enocean_switch/CMakeFiles/enocean_switch_nrf52840_xxAA_s140_6.0.0.dir/__/__/mesh/bearer/src/advertiser.c.obj
 .bss           0x00000000        0x0 examples/enocean_switch/CMakeFiles/enocean_switch_nrf52840_xxAA_s140_6.0.0.dir/__/__/mesh/bearer/src/advertiser.c.obj
 .text.advertiser_disable
                0x00000000        0xc examples/enocean_switch/CMakeFiles/enocean_switch_nrf52840_xxAA_s140_6.0.0.dir/__/__/mesh/bearer/src/advertiser.c.obj
 .text.advertiser_config_set
                0x00000000      0x180 examples/enocean_switch/CMakeFiles/enocean_switch_nrf52840_xxAA_s140_6.0.0.dir/__/__/mesh/bearer/src/advertiser.c.obj
 .text.advertiser_channels_set
                0x00000000       0x94 examples/enocean_switch/CMakeFiles/enocean_switch_nrf52840_xxAA_s140_6.0.0.dir/__/__/mesh/bearer/src/advertiser.c.obj
 .text.advertiser_address_set
                0x00000000       0x64 examples/enocean_switch/CMakeFiles/enocean_switch_nrf52840_xxAA_s140_6.0.0.dir/__/__/mesh/bearer/src/advertiser.c.obj
 .text.advertiser_config_get
                0x00000000       0x24 examples/enocean_switch/CMakeFiles/enocean_switch_nrf52840_xxAA_s140_6.0.0.dir/__/__/mesh/bearer/src/advertiser.c.obj
 .text.advertiser_address_default_get
                0x00000000       0x5c examples/enocean_switch/CMakeFiles/enocean_switch_nrf52840_xxAA_s140_6.0.0.dir/__/__/mesh/bearer/src/advertiser.c.obj
 .text          0x00000000        0x0 examples/enocean_switch/CMakeFiles/enocean_switch_nrf52840_xxAA_s140_6.0.0.dir/__/__/mesh/bearer/src/bearer_handler.c.obj
 .data          0x00000000        0x0 examples/enocean_switch/CMakeFiles/enocean_switch_nrf52840_xxAA_s140_6.0.0.dir/__/__/mesh/bearer/src/bearer_handler.c.obj
 .bss           0x00000000        0x0 examples/enocean_switch/CMakeFiles/enocean_switch_nrf52840_xxAA_s140_6.0.0.dir/__/__/mesh/bearer/src/bearer_handler.c.obj
 .text.bearer_handler_stop
                0x00000000       0x20 examples/enocean_switch/CMakeFiles/enocean_switch_nrf52840_xxAA_s140_6.0.0.dir/__/__/mesh/bearer/src/bearer_handler.c.obj
 .text.bearer_handler_action_fire
                0x00000000       0x9c examples/enocean_switch/CMakeFiles/enocean_switch_nrf52840_xxAA_s140_6.0.0.dir/__/__/mesh/bearer/src/bearer_handler.c.obj
 .text          0x00000000        0x0 examples/enocean_switch/CMakeFiles/enocean_switch_nrf52840_xxAA_s140_6.0.0.dir/__/__/mesh/bearer/src/broadcast.c.obj
 .data          0x00000000        0x0 examples/enocean_switch/CMakeFiles/enocean_switch_nrf52840_xxAA_s140_6.0.0.dir/__/__/mesh/bearer/src/broadcast.c.obj
 .bss           0x00000000        0x0 examples/enocean_switch/CMakeFiles/enocean_switch_nrf52840_xxAA_s140_6.0.0.dir/__/__/mesh/bearer/src/broadcast.c.obj
 .text          0x00000000        0x0 examples/enocean_switch/CMakeFiles/enocean_switch_nrf52840_xxAA_s140_6.0.0.dir/__/__/mesh/bearer/src/filter_engine.c.obj
 .data          0x00000000        0x0 examples/enocean_switch/CMakeFiles/enocean_switch_nrf52840_xxAA_s140_6.0.0.dir/__/__/mesh/bearer/src/filter_engine.c.obj
 .bss           0x00000000        0x0 examples/enocean_switch/CMakeFiles/enocean_switch_nrf52840_xxAA_s140_6.0.0.dir/__/__/mesh/bearer/src/filter_engine.c.obj
 .text.fen_accepted_amount_get
                0x00000000        0xc examples/enocean_switch/CMakeFiles/enocean_switch_nrf52840_xxAA_s140_6.0.0.dir/__/__/mesh/bearer/src/filter_engine.c.obj
 .text          0x00000000        0x0 examples/enocean_switch/CMakeFiles/enocean_switch_nrf52840_xxAA_s140_6.0.0.dir/__/__/mesh/bearer/src/gap_address_filter.c.obj
 .data          0x00000000        0x0 examples/enocean_switch/CMakeFiles/enocean_switch_nrf52840_xxAA_s140_6.0.0.dir/__/__/mesh/bearer/src/gap_address_filter.c.obj
 .bss           0x00000000        0x0 examples/enocean_switch/CMakeFiles/enocean_switch_nrf52840_xxAA_s140_6.0.0.dir/__/__/mesh/bearer/src/gap_address_filter.c.obj
 .text.gap_address_filter_handle
                0x00000000       0xb4 examples/enocean_switch/CMakeFiles/enocean_switch_nrf52840_xxAA_s140_6.0.0.dir/__/__/mesh/bearer/src/gap_address_filter.c.obj
 .text.bearer_filter_gap_addr_whitelist_set
                0x00000000       0x48 examples/enocean_switch/CMakeFiles/enocean_switch_nrf52840_xxAA_s140_6.0.0.dir/__/__/mesh/bearer/src/gap_address_filter.c.obj
 .text.bearer_filter_gap_addr_blacklist_set
                0x00000000       0x4c examples/enocean_switch/CMakeFiles/enocean_switch_nrf52840_xxAA_s140_6.0.0.dir/__/__/mesh/bearer/src/gap_address_filter.c.obj
 .text.bearer_filter_gap_addr_range_set
                0x00000000       0x64 examples/enocean_switch/CMakeFiles/enocean_switch_nrf52840_xxAA_s140_6.0.0.dir/__/__/mesh/bearer/src/gap_address_filter.c.obj
 .text.bearer_filter_gap_addr_clear
                0x00000000       0x24 examples/enocean_switch/CMakeFiles/enocean_switch_nrf52840_xxAA_s140_6.0.0.dir/__/__/mesh/bearer/src/gap_address_filter.c.obj
 .text.bearer_gap_addr_filtered_amount_get
                0x00000000        0xc examples/enocean_switch/CMakeFiles/enocean_switch_nrf52840_xxAA_s140_6.0.0.dir/__/__/mesh/bearer/src/gap_address_filter.c.obj
 .bss.m_addr_filter
                0x00000000       0x18 examples/enocean_switch/CMakeFiles/enocean_switch_nrf52840_xxAA_s140_6.0.0.dir/__/__/mesh/bearer/src/gap_address_filter.c.obj
 .comment       0x00000000       0x80 examples/enocean_switch/CMakeFiles/enocean_switch_nrf52840_xxAA_s140_6.0.0.dir/__/__/mesh/bearer/src/gap_address_filter.c.obj
 .ARM.attributes
                0x00000000       0x39 examples/enocean_switch/CMakeFiles/enocean_switch_nrf52840_xxAA_s140_6.0.0.dir/__/__/mesh/bearer/src/gap_address_filter.c.obj
 .text          0x00000000        0x0 examples/enocean_switch/CMakeFiles/enocean_switch_nrf52840_xxAA_s140_6.0.0.dir/__/__/mesh/bearer/src/radio_config.c.obj
 .data          0x00000000        0x0 examples/enocean_switch/CMakeFiles/enocean_switch_nrf52840_xxAA_s140_6.0.0.dir/__/__/mesh/bearer/src/radio_config.c.obj
 .bss           0x00000000        0x0 examples/enocean_switch/CMakeFiles/enocean_switch_nrf52840_xxAA_s140_6.0.0.dir/__/__/mesh/bearer/src/radio_config.c.obj
 .text.radio_config_access_addr_get
                0x00000000       0x54 examples/enocean_switch/CMakeFiles/enocean_switch_nrf52840_xxAA_s140_6.0.0.dir/__/__/mesh/bearer/src/radio_config.c.obj
 .text          0x00000000        0x0 examples/enocean_switch/CMakeFiles/enocean_switch_nrf52840_xxAA_s140_6.0.0.dir/__/__/mesh/bearer/src/rssi_filter.c.obj
 .data          0x00000000        0x0 examples/enocean_switch/CMakeFiles/enocean_switch_nrf52840_xxAA_s140_6.0.0.dir/__/__/mesh/bearer/src/rssi_filter.c.obj
 .bss           0x00000000        0x0 examples/enocean_switch/CMakeFiles/enocean_switch_nrf52840_xxAA_s140_6.0.0.dir/__/__/mesh/bearer/src/rssi_filter.c.obj
 .text.rssi_filter_handle
                0x00000000       0x20 examples/enocean_switch/CMakeFiles/enocean_switch_nrf52840_xxAA_s140_6.0.0.dir/__/__/mesh/bearer/src/rssi_filter.c.obj
 .text.bearer_rssi_filtering_set
                0x00000000       0x34 examples/enocean_switch/CMakeFiles/enocean_switch_nrf52840_xxAA_s140_6.0.0.dir/__/__/mesh/bearer/src/rssi_filter.c.obj
 .text.bearer_rssi_filtered_amount_get
                0x00000000        0xc examples/enocean_switch/CMakeFiles/enocean_switch_nrf52840_xxAA_s140_6.0.0.dir/__/__/mesh/bearer/src/rssi_filter.c.obj
 .bss.m_rssi_filter
                0x00000000       0x18 examples/enocean_switch/CMakeFiles/enocean_switch_nrf52840_xxAA_s140_6.0.0.dir/__/__/mesh/bearer/src/rssi_filter.c.obj
 .comment       0x00000000       0x80 examples/enocean_switch/CMakeFiles/enocean_switch_nrf52840_xxAA_s140_6.0.0.dir/__/__/mesh/bearer/src/rssi_filter.c.obj
 .ARM.attributes
                0x00000000       0x39 examples/enocean_switch/CMakeFiles/enocean_switch_nrf52840_xxAA_s140_6.0.0.dir/__/__/mesh/bearer/src/rssi_filter.c.obj
 .text          0x00000000        0x0 examples/enocean_switch/CMakeFiles/enocean_switch_nrf52840_xxAA_s140_6.0.0.dir/__/__/mesh/bearer/src/scanner.c.obj
 .data          0x00000000        0x0 examples/enocean_switch/CMakeFiles/enocean_switch_nrf52840_xxAA_s140_6.0.0.dir/__/__/mesh/bearer/src/scanner.c.obj
 .bss           0x00000000        0x0 examples/enocean_switch/CMakeFiles/enocean_switch_nrf52840_xxAA_s140_6.0.0.dir/__/__/mesh/bearer/src/scanner.c.obj
 .text.scanner_rx_callback_set
                0x00000000       0x20 examples/enocean_switch/CMakeFiles/enocean_switch_nrf52840_xxAA_s140_6.0.0.dir/__/__/mesh/bearer/src/scanner.c.obj
 .text.scanner_disable
                0x00000000       0x54 examples/enocean_switch/CMakeFiles/enocean_switch_nrf52840_xxAA_s140_6.0.0.dir/__/__/mesh/bearer/src/scanner.c.obj
 .text.scanner_is_enabled
                0x00000000       0x14 examples/enocean_switch/CMakeFiles/enocean_switch_nrf52840_xxAA_s140_6.0.0.dir/__/__/mesh/bearer/src/scanner.c.obj
 .text.scanner_stats_get
                0x00000000        0x8 examples/enocean_switch/CMakeFiles/enocean_switch_nrf52840_xxAA_s140_6.0.0.dir/__/__/mesh/bearer/src/scanner.c.obj
 .text.scanner_config_radio_mode_set
                0x00000000       0x10 examples/enocean_switch/CMakeFiles/enocean_switch_nrf52840_xxAA_s140_6.0.0.dir/__/__/mesh/bearer/src/scanner.c.obj
 .text.scanner_config_scan_time_set
                0x00000000       0x88 examples/enocean_switch/CMakeFiles/enocean_switch_nrf52840_xxAA_s140_6.0.0.dir/__/__/mesh/bearer/src/scanner.c.obj
 .text.scanner_config_channels_set
                0x00000000       0x50 examples/enocean_switch/CMakeFiles/enocean_switch_nrf52840_xxAA_s140_6.0.0.dir/__/__/mesh/bearer/src/scanner.c.obj
 .text.scanner_config_access_addresses_set
                0x00000000       0x38 examples/enocean_switch/CMakeFiles/enocean_switch_nrf52840_xxAA_s140_6.0.0.dir/__/__/mesh/bearer/src/scanner.c.obj
 .text          0x00000000        0x0 examples/enocean_switch/CMakeFiles/enocean_switch_nrf52840_xxAA_s140_6.0.0.dir/__/__/models/simple_on_off/src/simple_on_off_client.c.obj
 .data          0x00000000        0x0 examples/enocean_switch/CMakeFiles/enocean_switch_nrf52840_xxAA_s140_6.0.0.dir/__/__/models/simple_on_off/src/simple_on_off_client.c.obj
 .bss           0x00000000        0x0 examples/enocean_switch/CMakeFiles/enocean_switch_nrf52840_xxAA_s140_6.0.0.dir/__/__/models/simple_on_off/src/simple_on_off_client.c.obj
 .text.simple_on_off_client_get
                0x00000000       0x60 examples/enocean_switch/CMakeFiles/enocean_switch_nrf52840_xxAA_s140_6.0.0.dir/__/__/models/simple_on_off/src/simple_on_off_client.c.obj
 .text.simple_on_off_client_pending_msg_cancel
                0x00000000        0x8 examples/enocean_switch/CMakeFiles/enocean_switch_nrf52840_xxAA_s140_6.0.0.dir/__/__/models/simple_on_off/src/simple_on_off_client.c.obj
 .text          0x00000000        0x0 examples/enocean_switch/CMakeFiles/enocean_switch_nrf52840_xxAA_s140_6.0.0.dir/__/__/models/config/src/composition_data.c.obj
 .data          0x00000000        0x0 examples/enocean_switch/CMakeFiles/enocean_switch_nrf52840_xxAA_s140_6.0.0.dir/__/__/models/config/src/composition_data.c.obj
 .bss           0x00000000        0x0 examples/enocean_switch/CMakeFiles/enocean_switch_nrf52840_xxAA_s140_6.0.0.dir/__/__/models/config/src/composition_data.c.obj
 .text          0x00000000        0x0 examples/enocean_switch/CMakeFiles/enocean_switch_nrf52840_xxAA_s140_6.0.0.dir/__/__/models/config/src/config_server.c.obj
 .data          0x00000000        0x0 examples/enocean_switch/CMakeFiles/enocean_switch_nrf52840_xxAA_s140_6.0.0.dir/__/__/models/config/src/config_server.c.obj
 .bss           0x00000000        0x0 examples/enocean_switch/CMakeFiles/enocean_switch_nrf52840_xxAA_s140_6.0.0.dir/__/__/models/config/src/config_server.c.obj
 .text          0x00000000        0x0 examples/enocean_switch/CMakeFiles/enocean_switch_nrf52840_xxAA_s140_6.0.0.dir/__/__/models/config/src/packed_index_list.c.obj
 .data          0x00000000        0x0 examples/enocean_switch/CMakeFiles/enocean_switch_nrf52840_xxAA_s140_6.0.0.dir/__/__/models/config/src/packed_index_list.c.obj
 .bss           0x00000000        0x0 examples/enocean_switch/CMakeFiles/enocean_switch_nrf52840_xxAA_s140_6.0.0.dir/__/__/models/config/src/packed_index_list.c.obj
 .text          0x00000000        0x0 examples/enocean_switch/CMakeFiles/enocean_switch_nrf52840_xxAA_s140_6.0.0.dir/__/__/models/health/src/health_server.c.obj
 .data          0x00000000        0x0 examples/enocean_switch/CMakeFiles/enocean_switch_nrf52840_xxAA_s140_6.0.0.dir/__/__/models/health/src/health_server.c.obj
 .bss           0x00000000        0x0 examples/enocean_switch/CMakeFiles/enocean_switch_nrf52840_xxAA_s140_6.0.0.dir/__/__/models/health/src/health_server.c.obj
 .text.health_server_fault_register
                0x00000000      0x238 examples/enocean_switch/CMakeFiles/enocean_switch_nrf52840_xxAA_s140_6.0.0.dir/__/__/models/health/src/health_server.c.obj
 .text.health_server_fault_clear
                0x00000000      0x2f4 examples/enocean_switch/CMakeFiles/enocean_switch_nrf52840_xxAA_s140_6.0.0.dir/__/__/models/health/src/health_server.c.obj
 .text.health_server_fault_is_set
                0x00000000       0x1c examples/enocean_switch/CMakeFiles/enocean_switch_nrf52840_xxAA_s140_6.0.0.dir/__/__/models/health/src/health_server.c.obj
 .text.health_server_fault_count_get
                0x00000000      0x154 examples/enocean_switch/CMakeFiles/enocean_switch_nrf52840_xxAA_s140_6.0.0.dir/__/__/models/health/src/health_server.c.obj
 .text.health_server_attention_get
                0x00000000        0x8 examples/enocean_switch/CMakeFiles/enocean_switch_nrf52840_xxAA_s140_6.0.0.dir/__/__/models/health/src/health_server.c.obj
 .text.health_server_attention_set
                0x00000000       0x98 examples/enocean_switch/CMakeFiles/enocean_switch_nrf52840_xxAA_s140_6.0.0.dir/__/__/models/health/src/health_server.c.obj
 .text          0x00000000        0x0 examples/enocean_switch/CMakeFiles/enocean_switch_nrf52840_xxAA_s140_6.0.0.dir/__/__/mesh/access/src/access_publish.c.obj
 .data          0x00000000        0x0 examples/enocean_switch/CMakeFiles/enocean_switch_nrf52840_xxAA_s140_6.0.0.dir/__/__/mesh/access/src/access_publish.c.obj
 .bss           0x00000000        0x0 examples/enocean_switch/CMakeFiles/enocean_switch_nrf52840_xxAA_s140_6.0.0.dir/__/__/mesh/access/src/access_publish.c.obj
 .text          0x00000000        0x0 examples/enocean_switch/CMakeFiles/enocean_switch_nrf52840_xxAA_s140_6.0.0.dir/__/__/mesh/access/src/access.c.obj
 .data          0x00000000        0x0 examples/enocean_switch/CMakeFiles/enocean_switch_nrf52840_xxAA_s140_6.0.0.dir/__/__/mesh/access/src/access.c.obj
 .bss           0x00000000        0x0 examples/enocean_switch/CMakeFiles/enocean_switch_nrf52840_xxAA_s140_6.0.0.dir/__/__/mesh/access/src/access.c.obj
 .text.access_model_subscription_lists_share
                0x00000000       0x5c examples/enocean_switch/CMakeFiles/enocean_switch_nrf52840_xxAA_s140_6.0.0.dir/__/__/mesh/access/src/access.c.obj
 .text.access_element_location_set
                0x00000000       0x38 examples/enocean_switch/CMakeFiles/enocean_switch_nrf52840_xxAA_s140_6.0.0.dir/__/__/mesh/access/src/access.c.obj
 .text          0x00000000        0x0 examples/enocean_switch/CMakeFiles/enocean_switch_nrf52840_xxAA_s140_6.0.0.dir/__/__/mesh/access/src/access_reliable.c.obj
 .data          0x00000000        0x0 examples/enocean_switch/CMakeFiles/enocean_switch_nrf52840_xxAA_s140_6.0.0.dir/__/__/mesh/access/src/access_reliable.c.obj
 .bss           0x00000000        0x0 examples/enocean_switch/CMakeFiles/enocean_switch_nrf52840_xxAA_s140_6.0.0.dir/__/__/mesh/access/src/access_reliable.c.obj
 .text          0x00000000        0x0 examples/enocean_switch/CMakeFiles/enocean_switch_nrf52840_xxAA_s140_6.0.0.dir/__/__/mesh/access/src/device_state_manager.c.obj
 .data          0x00000000        0x0 examples/enocean_switch/CMakeFiles/enocean_switch_nrf52840_xxAA_s140_6.0.0.dir/__/__/mesh/access/src/device_state_manager.c.obj
 .bss           0x00000000        0x0 examples/enocean_switch/CMakeFiles/enocean_switch_nrf52840_xxAA_s140_6.0.0.dir/__/__/mesh/access/src/device_state_manager.c.obj
 .text.dsm_has_unflashed_data
                0x00000000       0x58 examples/enocean_switch/CMakeFiles/enocean_switch_nrf52840_xxAA_s140_6.0.0.dir/__/__/mesh/access/src/device_state_manager.c.obj
 .text.dsm_address_subscription_count_get
                0x00000000       0x80 examples/enocean_switch/CMakeFiles/enocean_switch_nrf52840_xxAA_s140_6.0.0.dir/__/__/mesh/access/src/device_state_manager.c.obj
 .text.dsm_address_get_all
                0x00000000      0x258 examples/enocean_switch/CMakeFiles/enocean_switch_nrf52840_xxAA_s140_6.0.0.dir/__/__/mesh/access/src/device_state_manager.c.obj
 .text.dsm_subnet_handle_to_netkey_index
                0x00000000       0x34 examples/enocean_switch/CMakeFiles/enocean_switch_nrf52840_xxAA_s140_6.0.0.dir/__/__/mesh/access/src/device_state_manager.c.obj
 .text.dsm_devkey_delete
                0x00000000       0x6c examples/enocean_switch/CMakeFiles/enocean_switch_nrf52840_xxAA_s140_6.0.0.dir/__/__/mesh/access/src/device_state_manager.c.obj
 .text.dsm_devkey_handle_get
                0x00000000       0x3c examples/enocean_switch/CMakeFiles/enocean_switch_nrf52840_xxAA_s140_6.0.0.dir/__/__/mesh/access/src/device_state_manager.c.obj
 .text.dsm_beacon_info_get
                0x00000000       0x34 examples/enocean_switch/CMakeFiles/enocean_switch_nrf52840_xxAA_s140_6.0.0.dir/__/__/mesh/access/src/device_state_manager.c.obj
 .text          0x00000000        0x0 examples/enocean_switch/CMakeFiles/enocean_switch_nrf52840_xxAA_s140_6.0.0.dir/__/__/mesh/prov/src/prov_provisionee.c.obj
 .data          0x00000000        0x0 examples/enocean_switch/CMakeFiles/enocean_switch_nrf52840_xxAA_s140_6.0.0.dir/__/__/mesh/prov/src/prov_provisionee.c.obj
 .bss           0x00000000        0x0 examples/enocean_switch/CMakeFiles/enocean_switch_nrf52840_xxAA_s140_6.0.0.dir/__/__/mesh/prov/src/prov_provisionee.c.obj
 .text.prov_provisionee_shared_secret
                0x00000000       0xa0 examples/enocean_switch/CMakeFiles/enocean_switch_nrf52840_xxAA_s140_6.0.0.dir/__/__/mesh/prov/src/prov_provisionee.c.obj
 .text          0x00000000        0x0 examples/enocean_switch/CMakeFiles/enocean_switch_nrf52840_xxAA_s140_6.0.0.dir/__/__/mesh/prov/src/nrf_mesh_prov.c.obj
 .data          0x00000000        0x0 examples/enocean_switch/CMakeFiles/enocean_switch_nrf52840_xxAA_s140_6.0.0.dir/__/__/mesh/prov/src/nrf_mesh_prov.c.obj
 .bss           0x00000000        0x0 examples/enocean_switch/CMakeFiles/enocean_switch_nrf52840_xxAA_s140_6.0.0.dir/__/__/mesh/prov/src/nrf_mesh_prov.c.obj
 .text.nrf_mesh_prov_listen_stop
                0x00000000       0x30 examples/enocean_switch/CMakeFiles/enocean_switch_nrf52840_xxAA_s140_6.0.0.dir/__/__/mesh/prov/src/nrf_mesh_prov.c.obj
 .text.nrf_mesh_prov_provision
                0x00000000       0x58 examples/enocean_switch/CMakeFiles/enocean_switch_nrf52840_xxAA_s140_6.0.0.dir/__/__/mesh/prov/src/nrf_mesh_prov.c.obj
 .text.nrf_mesh_prov_oob_use
                0x00000000       0x18 examples/enocean_switch/CMakeFiles/enocean_switch_nrf52840_xxAA_s140_6.0.0.dir/__/__/mesh/prov/src/nrf_mesh_prov.c.obj
 .text.nrf_mesh_prov_shared_secret_provide
                0x00000000       0x10 examples/enocean_switch/CMakeFiles/enocean_switch_nrf52840_xxAA_s140_6.0.0.dir/__/__/mesh/prov/src/nrf_mesh_prov.c.obj
 .text.nrf_mesh_prov_pubkey_provide
                0x00000000       0x10 examples/enocean_switch/CMakeFiles/enocean_switch_nrf52840_xxAA_s140_6.0.0.dir/__/__/mesh/prov/src/nrf_mesh_prov.c.obj
 .text.nrf_mesh_prov_scan_start
                0x00000000       0x10 examples/enocean_switch/CMakeFiles/enocean_switch_nrf52840_xxAA_s140_6.0.0.dir/__/__/mesh/prov/src/nrf_mesh_prov.c.obj
 .text.nrf_mesh_prov_scan_stop
                0x00000000        0x4 examples/enocean_switch/CMakeFiles/enocean_switch_nrf52840_xxAA_s140_6.0.0.dir/__/__/mesh/prov/src/nrf_mesh_prov.c.obj
 .text          0x00000000        0x0 examples/enocean_switch/CMakeFiles/enocean_switch_nrf52840_xxAA_s140_6.0.0.dir/__/__/mesh/prov/src/provisioning.c.obj
 .data          0x00000000        0x0 examples/enocean_switch/CMakeFiles/enocean_switch_nrf52840_xxAA_s140_6.0.0.dir/__/__/mesh/prov/src/provisioning.c.obj
 .bss           0x00000000        0x0 examples/enocean_switch/CMakeFiles/enocean_switch_nrf52840_xxAA_s140_6.0.0.dir/__/__/mesh/prov/src/provisioning.c.obj
 .text.prov_tx_invite
                0x00000000       0x38 examples/enocean_switch/CMakeFiles/enocean_switch_nrf52840_xxAA_s140_6.0.0.dir/__/__/mesh/prov/src/provisioning.c.obj
 .text.prov_tx_start
                0x00000000       0x38 examples/enocean_switch/CMakeFiles/enocean_switch_nrf52840_xxAA_s140_6.0.0.dir/__/__/mesh/prov/src/provisioning.c.obj
 .text.prov_tx_data
                0x00000000       0x34 examples/enocean_switch/CMakeFiles/enocean_switch_nrf52840_xxAA_s140_6.0.0.dir/__/__/mesh/prov/src/provisioning.c.obj
 .text.prov_tx  0x00000000       0x3c examples/enocean_switch/CMakeFiles/enocean_switch_nrf52840_xxAA_s140_6.0.0.dir/__/__/mesh/prov/src/provisioning.c.obj
 .text          0x00000000        0x0 examples/enocean_switch/CMakeFiles/enocean_switch_nrf52840_xxAA_s140_6.0.0.dir/__/__/mesh/prov/src/prov_beacon.c.obj
 .data          0x00000000        0x0 examples/enocean_switch/CMakeFiles/enocean_switch_nrf52840_xxAA_s140_6.0.0.dir/__/__/mesh/prov/src/prov_beacon.c.obj
 .bss           0x00000000        0x0 examples/enocean_switch/CMakeFiles/enocean_switch_nrf52840_xxAA_s140_6.0.0.dir/__/__/mesh/prov/src/prov_beacon.c.obj
 .text.prov_beacon_scan_start
                0x00000000       0x1c examples/enocean_switch/CMakeFiles/enocean_switch_nrf52840_xxAA_s140_6.0.0.dir/__/__/mesh/prov/src/prov_beacon.c.obj
 .text.prov_beacon_scan_stop
                0x00000000        0xc examples/enocean_switch/CMakeFiles/enocean_switch_nrf52840_xxAA_s140_6.0.0.dir/__/__/mesh/prov/src/prov_beacon.c.obj
 .text          0x00000000        0x0 examples/enocean_switch/CMakeFiles/enocean_switch_nrf52840_xxAA_s140_6.0.0.dir/__/__/mesh/prov/src/prov_utils.c.obj
 .data          0x00000000        0x0 examples/enocean_switch/CMakeFiles/enocean_switch_nrf52840_xxAA_s140_6.0.0.dir/__/__/mesh/prov/src/prov_utils.c.obj
 .bss           0x00000000        0x0 examples/enocean_switch/CMakeFiles/enocean_switch_nrf52840_xxAA_s140_6.0.0.dir/__/__/mesh/prov/src/prov_utils.c.obj
 .text          0x00000000        0x0 examples/enocean_switch/CMakeFiles/enocean_switch_nrf52840_xxAA_s140_6.0.0.dir/__/__/mesh/prov/src/prov_bearer_adv.c.obj
 .data          0x00000000        0x0 examples/enocean_switch/CMakeFiles/enocean_switch_nrf52840_xxAA_s140_6.0.0.dir/__/__/mesh/prov/src/prov_bearer_adv.c.obj
 .bss           0x00000000        0x0 examples/enocean_switch/CMakeFiles/enocean_switch_nrf52840_xxAA_s140_6.0.0.dir/__/__/mesh/prov/src/prov_bearer_adv.c.obj
 .text.calculate_3GPP_CRC
                0x00000000       0x28 examples/enocean_switch/CMakeFiles/enocean_switch_nrf52840_xxAA_s140_6.0.0.dir/__/__/mesh/prov/src/prov_bearer_adv.c.obj
 .text          0x00000000        0x0 examples/enocean_switch/CMakeFiles/enocean_switch_nrf52840_xxAA_s140_6.0.0.dir/C_/ver/mod/nRF5_SDK_15.0.0_a53641a/modules/nrfx/mdk/system_nrf52840.c.obj
 .data          0x00000000        0x0 examples/enocean_switch/CMakeFiles/enocean_switch_nrf52840_xxAA_s140_6.0.0.dir/C_/ver/mod/nRF5_SDK_15.0.0_a53641a/modules/nrfx/mdk/system_nrf52840.c.obj
 .bss           0x00000000        0x0 examples/enocean_switch/CMakeFiles/enocean_switch_nrf52840_xxAA_s140_6.0.0.dir/C_/ver/mod/nRF5_SDK_15.0.0_a53641a/modules/nrfx/mdk/system_nrf52840.c.obj
 .text.SystemCoreClockUpdate
                0x00000000       0x10 examples/enocean_switch/CMakeFiles/enocean_switch_nrf52840_xxAA_s140_6.0.0.dir/C_/ver/mod/nRF5_SDK_15.0.0_a53641a/modules/nrfx/mdk/system_nrf52840.c.obj
 .data          0x00000000        0x0 examples/enocean_switch/CMakeFiles/enocean_switch_nrf52840_xxAA_s140_6.0.0.dir/C_/ver/mod/nRF5_SDK_15.0.0_a53641a/modules/nrfx/mdk/gcc_startup_nrf52840.S.obj
 .bss           0x00000000        0x0 examples/enocean_switch/CMakeFiles/enocean_switch_nrf52840_xxAA_s140_6.0.0.dir/C_/ver/mod/nRF5_SDK_15.0.0_a53641a/modules/nrfx/mdk/gcc_startup_nrf52840.S.obj
 .text          0x00000000        0x0 examples/enocean_switch/CMakeFiles/enocean_switch_nrf52840_xxAA_s140_6.0.0.dir/C_/ver/mod/nRF5_SDK_15.0.0_a53641a/components/libraries/util/app_error.c.obj
 .data          0x00000000        0x0 examples/enocean_switch/CMakeFiles/enocean_switch_nrf52840_xxAA_s140_6.0.0.dir/C_/ver/mod/nRF5_SDK_15.0.0_a53641a/components/libraries/util/app_error.c.obj
 .bss           0x00000000        0x0 examples/enocean_switch/CMakeFiles/enocean_switch_nrf52840_xxAA_s140_6.0.0.dir/C_/ver/mod/nRF5_SDK_15.0.0_a53641a/components/libraries/util/app_error.c.obj
 .text.app_error_save_and_stop
                0x00000000       0x64 examples/enocean_switch/CMakeFiles/enocean_switch_nrf52840_xxAA_s140_6.0.0.dir/C_/ver/mod/nRF5_SDK_15.0.0_a53641a/components/libraries/util/app_error.c.obj
 .bss.m_error_data.8119
                0x00000000       0x20 examples/enocean_switch/CMakeFiles/enocean_switch_nrf52840_xxAA_s140_6.0.0.dir/C_/ver/mod/nRF5_SDK_15.0.0_a53641a/components/libraries/util/app_error.c.obj
 .text          0x00000000        0x0 examples/enocean_switch/CMakeFiles/enocean_switch_nrf52840_xxAA_s140_6.0.0.dir/C_/ver/mod/nRF5_SDK_15.0.0_a53641a/components/libraries/util/app_error_handler_gcc.c.obj
 .data          0x00000000        0x0 examples/enocean_switch/CMakeFiles/enocean_switch_nrf52840_xxAA_s140_6.0.0.dir/C_/ver/mod/nRF5_SDK_15.0.0_a53641a/components/libraries/util/app_error_handler_gcc.c.obj
 .bss           0x00000000        0x0 examples/enocean_switch/CMakeFiles/enocean_switch_nrf52840_xxAA_s140_6.0.0.dir/C_/ver/mod/nRF5_SDK_15.0.0_a53641a/components/libraries/util/app_error_handler_gcc.c.obj
 .text          0x00000000        0x0 external/rtt/librtt_nrf52840_xxAA.a(SEGGER_RTT.c.obj)
 .data          0x00000000        0x0 external/rtt/librtt_nrf52840_xxAA.a(SEGGER_RTT.c.obj)
 .bss           0x00000000        0x0 external/rtt/librtt_nrf52840_xxAA.a(SEGGER_RTT.c.obj)
 .text.SEGGER_RTT_ReadNoLock
                0x00000000      0x100 external/rtt/librtt_nrf52840_xxAA.a(SEGGER_RTT.c.obj)
 .text.SEGGER_RTT_Read
                0x00000000      0x114 external/rtt/librtt_nrf52840_xxAA.a(SEGGER_RTT.c.obj)
 .text.SEGGER_RTT_WriteSkipNoLock
                0x00000000      0x184 external/rtt/librtt_nrf52840_xxAA.a(SEGGER_RTT.c.obj)
 .text.SEGGER_RTT_WriteNoLock
                0x00000000      0x188 external/rtt/librtt_nrf52840_xxAA.a(SEGGER_RTT.c.obj)
 .text.SEGGER_RTT_WriteString
                0x00000000      0x20c external/rtt/librtt_nrf52840_xxAA.a(SEGGER_RTT.c.obj)
 .text.SEGGER_RTT_WaitKey
                0x00000000      0x114 external/rtt/librtt_nrf52840_xxAA.a(SEGGER_RTT.c.obj)
 .text.SEGGER_RTT_HasKey
                0x00000000       0x6c external/rtt/librtt_nrf52840_xxAA.a(SEGGER_RTT.c.obj)
 .text.SEGGER_RTT_HasData
                0x00000000       0x18 external/rtt/librtt_nrf52840_xxAA.a(SEGGER_RTT.c.obj)
 .text.SEGGER_RTT_AllocDownBuffer
                0x00000000       0xbc external/rtt/librtt_nrf52840_xxAA.a(SEGGER_RTT.c.obj)
 .text.SEGGER_RTT_AllocUpBuffer
                0x00000000       0xd8 external/rtt/librtt_nrf52840_xxAA.a(SEGGER_RTT.c.obj)
 .text.SEGGER_RTT_ConfigUpBuffer
                0x00000000       0xd0 external/rtt/librtt_nrf52840_xxAA.a(SEGGER_RTT.c.obj)
 .text.SEGGER_RTT_ConfigDownBuffer
                0x00000000       0xb8 external/rtt/librtt_nrf52840_xxAA.a(SEGGER_RTT.c.obj)
 .text.SEGGER_RTT_SetNameUpBuffer
                0x00000000       0x90 external/rtt/librtt_nrf52840_xxAA.a(SEGGER_RTT.c.obj)
 .text.SEGGER_RTT_SetNameDownBuffer
                0x00000000       0x90 external/rtt/librtt_nrf52840_xxAA.a(SEGGER_RTT.c.obj)
 .text.SEGGER_RTT_Init
                0x00000000       0x60 external/rtt/librtt_nrf52840_xxAA.a(SEGGER_RTT.c.obj)
 .text.SEGGER_RTT_SetTerminal
                0x00000000      0x15c external/rtt/librtt_nrf52840_xxAA.a(SEGGER_RTT.c.obj)
 .text.SEGGER_RTT_TerminalOut
                0x00000000      0x40c external/rtt/librtt_nrf52840_xxAA.a(SEGGER_RTT.c.obj)
 .bss._ActiveTerminal
                0x00000000        0x1 external/rtt/librtt_nrf52840_xxAA.a(SEGGER_RTT.c.obj)
 .rodata._aTerminalId
                0x00000000       0x10 external/rtt/librtt_nrf52840_xxAA.a(SEGGER_RTT.c.obj)
 .text          0x00000000        0x0 external/rtt/librtt_nrf52840_xxAA.a(SEGGER_RTT_printf.c.obj)
 .data          0x00000000        0x0 external/rtt/librtt_nrf52840_xxAA.a(SEGGER_RTT_printf.c.obj)
 .bss           0x00000000        0x0 external/rtt/librtt_nrf52840_xxAA.a(SEGGER_RTT_printf.c.obj)
 .text          0x00000000        0x0 external/micro-ecc/libuECC_nrf52840_xxAA.a(uECC.c.obj)
 .data          0x00000000        0x0 external/micro-ecc/libuECC_nrf52840_xxAA.a(uECC.c.obj)
 .bss           0x00000000        0x0 external/micro-ecc/libuECC_nrf52840_xxAA.a(uECC.c.obj)
 .text.HMAC_finish
                0x00000000       0x70 external/micro-ecc/libuECC_nrf52840_xxAA.a(uECC.c.obj)
 .text.uECC_vli_mmod
                0x00000000      0x3c8 external/micro-ecc/libuECC_nrf52840_xxAA.a(uECC.c.obj)
 .text.uECC_vli_modSub.isra.2
                0x00000000       0x98 external/micro-ecc/libuECC_nrf52840_xxAA.a(uECC.c.obj)
 .text.bits2int
                0x00000000      0x14c external/micro-ecc/libuECC_nrf52840_xxAA.a(uECC.c.obj)
 .text.uECC_sign_with_k
                0x00000000      0x60c external/micro-ecc/libuECC_nrf52840_xxAA.a(uECC.c.obj)
 .text.uECC_set_rng
                0x00000000        0xc external/micro-ecc/libuECC_nrf52840_xxAA.a(uECC.c.obj)
 .text.uECC_get_rng
                0x00000000        0xc external/micro-ecc/libuECC_nrf52840_xxAA.a(uECC.c.obj)
 .text.uECC_curve_private_key_size
                0x00000000       0x10 external/micro-ecc/libuECC_nrf52840_xxAA.a(uECC.c.obj)
 .text.uECC_curve_public_key_size
                0x00000000        0x8 external/micro-ecc/libuECC_nrf52840_xxAA.a(uECC.c.obj)
 .text.uECC_compute_public_key
                0x00000000      0x2e4 external/micro-ecc/libuECC_nrf52840_xxAA.a(uECC.c.obj)
 .text.uECC_sign
                0x00000000       0x60 external/micro-ecc/libuECC_nrf52840_xxAA.a(uECC.c.obj)
 .text.uECC_sign_deterministic
                0x00000000      0x400 external/micro-ecc/libuECC_nrf52840_xxAA.a(uECC.c.obj)
 .text.uECC_verify
                0x00000000      0x95c external/micro-ecc/libuECC_nrf52840_xxAA.a(uECC.c.obj)
 .data          0x00000000        0x0 c:/mesh/arm_gcc/bin/../lib/gcc/arm-none-eabi/6.3.1/thumb/v7e-m/fpv4-sp/hard\libgcc.a(_aeabi_uldivmod.o)
 .bss           0x00000000        0x0 c:/mesh/arm_gcc/bin/../lib/gcc/arm-none-eabi/6.3.1/thumb/v7e-m/fpv4-sp/hard\libgcc.a(_aeabi_uldivmod.o)
 .data          0x00000000        0x0 c:/mesh/arm_gcc/bin/../lib/gcc/arm-none-eabi/6.3.1/thumb/v7e-m/fpv4-sp/hard\libgcc.a(_udivmoddi4.o)
 .bss           0x00000000        0x0 c:/mesh/arm_gcc/bin/../lib/gcc/arm-none-eabi/6.3.1/thumb/v7e-m/fpv4-sp/hard\libgcc.a(_udivmoddi4.o)
 .ARM.extab     0x00000000        0x0 c:/mesh/arm_gcc/bin/../lib/gcc/arm-none-eabi/6.3.1/thumb/v7e-m/fpv4-sp/hard\libgcc.a(_udivmoddi4.o)
 .data          0x00000000        0x0 c:/mesh/arm_gcc/bin/../lib/gcc/arm-none-eabi/6.3.1/thumb/v7e-m/fpv4-sp/hard\libgcc.a(_dvmd_tls.o)
 .bss           0x00000000        0x0 c:/mesh/arm_gcc/bin/../lib/gcc/arm-none-eabi/6.3.1/thumb/v7e-m/fpv4-sp/hard\libgcc.a(_dvmd_tls.o)
 .text          0x00000000        0x0 c:/mesh/arm_gcc/bin/../lib/gcc/arm-none-eabi/6.3.1/../../../../arm-none-eabi/lib/thumb/v7e-m/fpv4-sp/hard\libc_nano.a(lib_a-exit.o)
 .data          0x00000000        0x0 c:/mesh/arm_gcc/bin/../lib/gcc/arm-none-eabi/6.3.1/../../../../arm-none-eabi/lib/thumb/v7e-m/fpv4-sp/hard\libc_nano.a(lib_a-exit.o)
 .bss           0x00000000        0x0 c:/mesh/arm_gcc/bin/../lib/gcc/arm-none-eabi/6.3.1/../../../../arm-none-eabi/lib/thumb/v7e-m/fpv4-sp/hard\libc_nano.a(lib_a-exit.o)
 .text          0x00000000        0x0 c:/mesh/arm_gcc/bin/../lib/gcc/arm-none-eabi/6.3.1/../../../../arm-none-eabi/lib/thumb/v7e-m/fpv4-sp/hard\libc_nano.a(lib_a-impure.o)
 .data          0x00000000        0x0 c:/mesh/arm_gcc/bin/../lib/gcc/arm-none-eabi/6.3.1/../../../../arm-none-eabi/lib/thumb/v7e-m/fpv4-sp/hard\libc_nano.a(lib_a-impure.o)
 .bss           0x00000000        0x0 c:/mesh/arm_gcc/bin/../lib/gcc/arm-none-eabi/6.3.1/../../../../arm-none-eabi/lib/thumb/v7e-m/fpv4-sp/hard\libc_nano.a(lib_a-impure.o)
 .text          0x00000000        0x0 c:/mesh/arm_gcc/bin/../lib/gcc/arm-none-eabi/6.3.1/../../../../arm-none-eabi/lib/thumb/v7e-m/fpv4-sp/hard\libc_nano.a(lib_a-init.o)
 .data          0x00000000        0x0 c:/mesh/arm_gcc/bin/../lib/gcc/arm-none-eabi/6.3.1/../../../../arm-none-eabi/lib/thumb/v7e-m/fpv4-sp/hard\libc_nano.a(lib_a-init.o)
 .bss           0x00000000        0x0 c:/mesh/arm_gcc/bin/../lib/gcc/arm-none-eabi/6.3.1/../../../../arm-none-eabi/lib/thumb/v7e-m/fpv4-sp/hard\libc_nano.a(lib_a-init.o)
 .text          0x00000000        0x0 c:/mesh/arm_gcc/bin/../lib/gcc/arm-none-eabi/6.3.1/../../../../arm-none-eabi/lib/thumb/v7e-m/fpv4-sp/hard\libc_nano.a(lib_a-malloc.o)
 .data          0x00000000        0x0 c:/mesh/arm_gcc/bin/../lib/gcc/arm-none-eabi/6.3.1/../../../../arm-none-eabi/lib/thumb/v7e-m/fpv4-sp/hard\libc_nano.a(lib_a-malloc.o)
 .bss           0x00000000        0x0 c:/mesh/arm_gcc/bin/../lib/gcc/arm-none-eabi/6.3.1/../../../../arm-none-eabi/lib/thumb/v7e-m/fpv4-sp/hard\libc_nano.a(lib_a-malloc.o)
 .text          0x00000000        0x0 c:/mesh/arm_gcc/bin/../lib/gcc/arm-none-eabi/6.3.1/../../../../arm-none-eabi/lib/thumb/v7e-m/fpv4-sp/hard\libc_nano.a(lib_a-memcmp.o)
 .data          0x00000000        0x0 c:/mesh/arm_gcc/bin/../lib/gcc/arm-none-eabi/6.3.1/../../../../arm-none-eabi/lib/thumb/v7e-m/fpv4-sp/hard\libc_nano.a(lib_a-memcmp.o)
 .bss           0x00000000        0x0 c:/mesh/arm_gcc/bin/../lib/gcc/arm-none-eabi/6.3.1/../../../../arm-none-eabi/lib/thumb/v7e-m/fpv4-sp/hard\libc_nano.a(lib_a-memcmp.o)
 .text          0x00000000        0x0 c:/mesh/arm_gcc/bin/../lib/gcc/arm-none-eabi/6.3.1/../../../../arm-none-eabi/lib/thumb/v7e-m/fpv4-sp/hard\libc_nano.a(lib_a-memcpy-stub.o)
 .data          0x00000000        0x0 c:/mesh/arm_gcc/bin/../lib/gcc/arm-none-eabi/6.3.1/../../../../arm-none-eabi/lib/thumb/v7e-m/fpv4-sp/hard\libc_nano.a(lib_a-memcpy-stub.o)
 .bss           0x00000000        0x0 c:/mesh/arm_gcc/bin/../lib/gcc/arm-none-eabi/6.3.1/../../../../arm-none-eabi/lib/thumb/v7e-m/fpv4-sp/hard\libc_nano.a(lib_a-memcpy-stub.o)
 .text          0x00000000        0x0 c:/mesh/arm_gcc/bin/../lib/gcc/arm-none-eabi/6.3.1/../../../../arm-none-eabi/lib/thumb/v7e-m/fpv4-sp/hard\libc_nano.a(lib_a-memset.o)
 .data          0x00000000        0x0 c:/mesh/arm_gcc/bin/../lib/gcc/arm-none-eabi/6.3.1/../../../../arm-none-eabi/lib/thumb/v7e-m/fpv4-sp/hard\libc_nano.a(lib_a-memset.o)
 .bss           0x00000000        0x0 c:/mesh/arm_gcc/bin/../lib/gcc/arm-none-eabi/6.3.1/../../../../arm-none-eabi/lib/thumb/v7e-m/fpv4-sp/hard\libc_nano.a(lib_a-memset.o)
 .text          0x00000000        0x0 c:/mesh/arm_gcc/bin/../lib/gcc/arm-none-eabi/6.3.1/../../../../arm-none-eabi/lib/thumb/v7e-m/fpv4-sp/hard\libc_nano.a(lib_a-nano-freer.o)
 .data          0x00000000        0x0 c:/mesh/arm_gcc/bin/../lib/gcc/arm-none-eabi/6.3.1/../../../../arm-none-eabi/lib/thumb/v7e-m/fpv4-sp/hard\libc_nano.a(lib_a-nano-freer.o)
 .bss           0x00000000        0x0 c:/mesh/arm_gcc/bin/../lib/gcc/arm-none-eabi/6.3.1/../../../../arm-none-eabi/lib/thumb/v7e-m/fpv4-sp/hard\libc_nano.a(lib_a-nano-freer.o)
 .text          0x00000000        0x0 c:/mesh/arm_gcc/bin/../lib/gcc/arm-none-eabi/6.3.1/../../../../arm-none-eabi/lib/thumb/v7e-m/fpv4-sp/hard\libc_nano.a(lib_a-nano-mallocr.o)
 .data          0x00000000        0x0 c:/mesh/arm_gcc/bin/../lib/gcc/arm-none-eabi/6.3.1/../../../../arm-none-eabi/lib/thumb/v7e-m/fpv4-sp/hard\libc_nano.a(lib_a-nano-mallocr.o)
 .bss           0x00000000        0x0 c:/mesh/arm_gcc/bin/../lib/gcc/arm-none-eabi/6.3.1/../../../../arm-none-eabi/lib/thumb/v7e-m/fpv4-sp/hard\libc_nano.a(lib_a-nano-mallocr.o)
 .text          0x00000000        0x0 c:/mesh/arm_gcc/bin/../lib/gcc/arm-none-eabi/6.3.1/../../../../arm-none-eabi/lib/thumb/v7e-m/fpv4-sp/hard\libc_nano.a(lib_a-sbrkr.o)
 .data          0x00000000        0x0 c:/mesh/arm_gcc/bin/../lib/gcc/arm-none-eabi/6.3.1/../../../../arm-none-eabi/lib/thumb/v7e-m/fpv4-sp/hard\libc_nano.a(lib_a-sbrkr.o)
 .bss           0x00000000        0x0 c:/mesh/arm_gcc/bin/../lib/gcc/arm-none-eabi/6.3.1/../../../../arm-none-eabi/lib/thumb/v7e-m/fpv4-sp/hard\libc_nano.a(lib_a-sbrkr.o)
 .text          0x00000000        0x0 c:/mesh/arm_gcc/bin/../lib/gcc/arm-none-eabi/6.3.1/../../../../arm-none-eabi/lib/thumb/v7e-m/fpv4-sp/hard\libc_nano.a(lib_a-strcpy.o)
 .data          0x00000000        0x0 c:/mesh/arm_gcc/bin/../lib/gcc/arm-none-eabi/6.3.1/../../../../arm-none-eabi/lib/thumb/v7e-m/fpv4-sp/hard\libc_nano.a(lib_a-strcpy.o)
 .bss           0x00000000        0x0 c:/mesh/arm_gcc/bin/../lib/gcc/arm-none-eabi/6.3.1/../../../../arm-none-eabi/lib/thumb/v7e-m/fpv4-sp/hard\libc_nano.a(lib_a-strcpy.o)
 .data          0x00000000        0x0 c:/mesh/arm_gcc/bin/../lib/gcc/arm-none-eabi/6.3.1/../../../../arm-none-eabi/lib/thumb/v7e-m/fpv4-sp/hard\libc_nano.a(lib_a-strlen.o)
 .bss           0x00000000        0x0 c:/mesh/arm_gcc/bin/../lib/gcc/arm-none-eabi/6.3.1/../../../../arm-none-eabi/lib/thumb/v7e-m/fpv4-sp/hard\libc_nano.a(lib_a-strlen.o)
 .text          0x00000000        0x0 c:/mesh/arm_gcc/bin/../lib/gcc/arm-none-eabi/6.3.1/../../../../arm-none-eabi/lib/thumb/v7e-m/fpv4-sp/hard\libc_nano.a(lib_a-strrchr.o)
 .data          0x00000000        0x0 c:/mesh/arm_gcc/bin/../lib/gcc/arm-none-eabi/6.3.1/../../../../arm-none-eabi/lib/thumb/v7e-m/fpv4-sp/hard\libc_nano.a(lib_a-strrchr.o)
 .bss           0x00000000        0x0 c:/mesh/arm_gcc/bin/../lib/gcc/arm-none-eabi/6.3.1/../../../../arm-none-eabi/lib/thumb/v7e-m/fpv4-sp/hard\libc_nano.a(lib_a-strrchr.o)
 .text          0x00000000        0x0 c:/mesh/arm_gcc/bin/../lib/gcc/arm-none-eabi/6.3.1/../../../../arm-none-eabi/lib/thumb/v7e-m/fpv4-sp/hard\libc_nano.a(lib_a-mlock.o)
 .data          0x00000000        0x0 c:/mesh/arm_gcc/bin/../lib/gcc/arm-none-eabi/6.3.1/../../../../arm-none-eabi/lib/thumb/v7e-m/fpv4-sp/hard\libc_nano.a(lib_a-mlock.o)
 .bss           0x00000000        0x0 c:/mesh/arm_gcc/bin/../lib/gcc/arm-none-eabi/6.3.1/../../../../arm-none-eabi/lib/thumb/v7e-m/fpv4-sp/hard\libc_nano.a(lib_a-mlock.o)
 .text          0x00000000        0x0 c:/mesh/arm_gcc/bin/../lib/gcc/arm-none-eabi/6.3.1/../../../../arm-none-eabi/lib/thumb/v7e-m/fpv4-sp/hard\libc_nano.a(lib_a-reent.o)
 .data          0x00000000        0x0 c:/mesh/arm_gcc/bin/../lib/gcc/arm-none-eabi/6.3.1/../../../../arm-none-eabi/lib/thumb/v7e-m/fpv4-sp/hard\libc_nano.a(lib_a-reent.o)
 .bss           0x00000000        0x0 c:/mesh/arm_gcc/bin/../lib/gcc/arm-none-eabi/6.3.1/../../../../arm-none-eabi/lib/thumb/v7e-m/fpv4-sp/hard\libc_nano.a(lib_a-reent.o)
 .text.cleanup_glue
                0x00000000       0x1a c:/mesh/arm_gcc/bin/../lib/gcc/arm-none-eabi/6.3.1/../../../../arm-none-eabi/lib/thumb/v7e-m/fpv4-sp/hard\libc_nano.a(lib_a-reent.o)
 .text._reclaim_reent
                0x00000000       0xb8 c:/mesh/arm_gcc/bin/../lib/gcc/arm-none-eabi/6.3.1/../../../../arm-none-eabi/lib/thumb/v7e-m/fpv4-sp/hard\libc_nano.a(lib_a-reent.o)
 .text          0x00000000        0x0 c:/mesh/arm_gcc/bin/../lib/gcc/arm-none-eabi/6.3.1/../../../../arm-none-eabi/lib/thumb/v7e-m/fpv4-sp/hard\libc_nano.a(lib_a-strchr.o)
 .data          0x00000000        0x0 c:/mesh/arm_gcc/bin/../lib/gcc/arm-none-eabi/6.3.1/../../../../arm-none-eabi/lib/thumb/v7e-m/fpv4-sp/hard\libc_nano.a(lib_a-strchr.o)
 .bss           0x00000000        0x0 c:/mesh/arm_gcc/bin/../lib/gcc/arm-none-eabi/6.3.1/../../../../arm-none-eabi/lib/thumb/v7e-m/fpv4-sp/hard\libc_nano.a(lib_a-strchr.o)
 .text          0x00000000        0x0 c:/mesh/arm_gcc/bin/../lib/gcc/arm-none-eabi/6.3.1/thumb/v7e-m/fpv4-sp/hard/crtend.o
 .data          0x00000000        0x0 c:/mesh/arm_gcc/bin/../lib/gcc/arm-none-eabi/6.3.1/thumb/v7e-m/fpv4-sp/hard/crtend.o
 .bss           0x00000000        0x0 c:/mesh/arm_gcc/bin/../lib/gcc/arm-none-eabi/6.3.1/thumb/v7e-m/fpv4-sp/hard/crtend.o
 .text          0x00000000        0x0 c:/mesh/arm_gcc/bin/../lib/gcc/arm-none-eabi/6.3.1/thumb/v7e-m/fpv4-sp/hard/crtn.o
 .data          0x00000000        0x0 c:/mesh/arm_gcc/bin/../lib/gcc/arm-none-eabi/6.3.1/thumb/v7e-m/fpv4-sp/hard/crtn.o
 .bss           0x00000000        0x0 c:/mesh/arm_gcc/bin/../lib/gcc/arm-none-eabi/6.3.1/thumb/v7e-m/fpv4-sp/hard/crtn.o
 .text          0x00000000        0x0 c:/mesh/arm_gcc/bin/../lib/gcc/arm-none-eabi/6.3.1/../../../../arm-none-eabi/lib/thumb/v7e-m/fpv4-sp/hard\libnosys.a(sbrk.o)
 .data          0x00000000        0x0 c:/mesh/arm_gcc/bin/../lib/gcc/arm-none-eabi/6.3.1/../../../../arm-none-eabi/lib/thumb/v7e-m/fpv4-sp/hard\libnosys.a(sbrk.o)
 .bss           0x00000000        0x0 c:/mesh/arm_gcc/bin/../lib/gcc/arm-none-eabi/6.3.1/../../../../arm-none-eabi/lib/thumb/v7e-m/fpv4-sp/hard\libnosys.a(sbrk.o)
 .text          0x00000000        0x0 c:/mesh/arm_gcc/bin/../lib/gcc/arm-none-eabi/6.3.1/../../../../arm-none-eabi/lib/thumb/v7e-m/fpv4-sp/hard\libnosys.a(_exit.o)
 .data          0x00000000        0x0 c:/mesh/arm_gcc/bin/../lib/gcc/arm-none-eabi/6.3.1/../../../../arm-none-eabi/lib/thumb/v7e-m/fpv4-sp/hard\libnosys.a(_exit.o)
 .bss           0x00000000        0x0 c:/mesh/arm_gcc/bin/../lib/gcc/arm-none-eabi/6.3.1/../../../../arm-none-eabi/lib/thumb/v7e-m/fpv4-sp/hard\libnosys.a(_exit.o)

Memory Configuration

Name             Origin             Length             Attributes
FLASH            0x00026000         0x000d1000         xr
RAM              0x200032c8         0x0003ca38         xrw
*default*        0x00000000         0xffffffff

Linker script and memory map


.text           0x00026000    0x1f7e8
 *(.isr_vector)
 .isr_vector    0x00026000      0x200 examples/enocean_switch/CMakeFiles/enocean_switch_nrf52840_xxAA_s140_6.0.0.dir/C_/ver/mod/nRF5_SDK_15.0.0_a53641a/modules/nrfx/mdk/gcc_startup_nrf52840.S.obj
                0x00026000                __isr_vector
 *(.text*)
 .text          0x00026200       0x6c c:/mesh/arm_gcc/bin/../lib/gcc/arm-none-eabi/6.3.1/thumb/v7e-m/fpv4-sp/hard/crtbegin.o
 .text          0x0002626c       0x74 c:/mesh/arm_gcc/bin/../lib/gcc/arm-none-eabi/6.3.1/../../../../arm-none-eabi/lib/thumb/v7e-m/fpv4-sp/hard/crt0.o
                0x0002626c                _start
                0x0002626c                _mainCRTStartup
 .text.sd_app_evt_wait
                0x000262e0        0x4 examples/enocean_switch/CMakeFiles/enocean_switch_nrf52840_xxAA_s140_6.0.0.dir/src/main.c.obj
 .text.provisioning_complete_cb
                0x000262e4       0xe8 examples/enocean_switch/CMakeFiles/enocean_switch_nrf52840_xxAA_s140_6.0.0.dir/src/main.c.obj
 .text.app_data_store_try
                0x000263cc      0x134 examples/enocean_switch/CMakeFiles/enocean_switch_nrf52840_xxAA_s140_6.0.0.dir/src/main.c.obj
 .text.node_reset
                0x00026500       0x84 examples/enocean_switch/CMakeFiles/enocean_switch_nrf52840_xxAA_s140_6.0.0.dir/src/main.c.obj
 .text.button_event_handler
                0x00026584       0xa0 examples/enocean_switch/CMakeFiles/enocean_switch_nrf52840_xxAA_s140_6.0.0.dir/src/main.c.obj
 .text.app_enocean_cb
                0x00026624      0x3e4 examples/enocean_switch/CMakeFiles/enocean_switch_nrf52840_xxAA_s140_6.0.0.dir/src/main.c.obj
 .text.rx_callback
                0x00026a08        0x4 examples/enocean_switch/CMakeFiles/enocean_switch_nrf52840_xxAA_s140_6.0.0.dir/src/main.c.obj
 .text.models_init_cb
                0x00026a0c       0xb4 examples/enocean_switch/CMakeFiles/enocean_switch_nrf52840_xxAA_s140_6.0.0.dir/src/main.c.obj
 .text.client_status_cb
                0x00026ac0       0xcc examples/enocean_switch/CMakeFiles/enocean_switch_nrf52840_xxAA_s140_6.0.0.dir/src/main.c.obj
 .text.app_mesh_core_event_cb
                0x00026b8c      0x18c examples/enocean_switch/CMakeFiles/enocean_switch_nrf52840_xxAA_s140_6.0.0.dir/src/main.c.obj
 .text.config_server_evt_cb
                0x00026d18       0x8c examples/enocean_switch/CMakeFiles/enocean_switch_nrf52840_xxAA_s140_6.0.0.dir/src/main.c.obj
 .text.app_rtt_input_handler
                0x00026da4       0xa4 examples/enocean_switch/CMakeFiles/enocean_switch_nrf52840_xxAA_s140_6.0.0.dir/src/main.c.obj
 .text.startup.main
                0x00026e48      0x3e0 examples/enocean_switch/CMakeFiles/enocean_switch_nrf52840_xxAA_s140_6.0.0.dir/src/main.c.obj
                0x00026e48                main
 .text.enocean_packet_process
                0x00027228      0x438 examples/enocean_switch/CMakeFiles/enocean_switch_nrf52840_xxAA_s140_6.0.0.dir/src/enocean.c.obj
                0x00027228                enocean_packet_process
 .text.enocean_secmat_add
                0x00027660       0x2c examples/enocean_switch/CMakeFiles/enocean_switch_nrf52840_xxAA_s140_6.0.0.dir/src/enocean.c.obj
                0x00027660                enocean_secmat_add
 .text.enocean_translator_init
                0x0002768c       0x1c examples/enocean_switch/CMakeFiles/enocean_switch_nrf52840_xxAA_s140_6.0.0.dir/src/enocean.c.obj
                0x0002768c                enocean_translator_init
 .text.flash_manager_mem_available
                0x000276a8       0x80 examples/enocean_switch/CMakeFiles/enocean_switch_nrf52840_xxAA_s140_6.0.0.dir/src/flash_helper.c.obj
 .text.flash_invalidate_complete
                0x00027728       0x10 examples/enocean_switch/CMakeFiles/enocean_switch_nrf52840_xxAA_s140_6.0.0.dir/src/flash_helper.c.obj
 .text.flash_write_complete
                0x00027738       0x98 examples/enocean_switch/CMakeFiles/enocean_switch_nrf52840_xxAA_s140_6.0.0.dir/src/flash_helper.c.obj
 .text.flash_reset
                0x000277d0       0x8c examples/enocean_switch/CMakeFiles/enocean_switch_nrf52840_xxAA_s140_6.0.0.dir/src/flash_helper.c.obj
 .text.app_flash_init
                0x0002785c       0xb8 examples/enocean_switch/CMakeFiles/enocean_switch_nrf52840_xxAA_s140_6.0.0.dir/src/flash_helper.c.obj
                0x0002785c                app_flash_init
 .text.flash_remove_complete
                0x00027914       0x70 examples/enocean_switch/CMakeFiles/enocean_switch_nrf52840_xxAA_s140_6.0.0.dir/src/flash_helper.c.obj
 .text.app_flash_data_load
                0x00027984       0x48 examples/enocean_switch/CMakeFiles/enocean_switch_nrf52840_xxAA_s140_6.0.0.dir/src/flash_helper.c.obj
                0x00027984                app_flash_data_load
 .text.app_flash_data_store
                0x000279cc       0xb8 examples/enocean_switch/CMakeFiles/enocean_switch_nrf52840_xxAA_s140_6.0.0.dir/src/flash_helper.c.obj
                0x000279cc                app_flash_data_store
 .text.app_flash_clear
                0x00027a84       0x94 examples/enocean_switch/CMakeFiles/enocean_switch_nrf52840_xxAA_s140_6.0.0.dir/src/flash_helper.c.obj
                0x00027a84                app_flash_clear
 .text.mesh_evt_handler
                0x00027b18       0x10 examples/enocean_switch/CMakeFiles/enocean_switch_nrf52840_xxAA_s140_6.0.0.dir/__/__/mesh/stack/src/mesh_stack.c.obj
 .text.mesh_stack_init
                0x00027b28       0x90 examples/enocean_switch/CMakeFiles/enocean_switch_nrf52840_xxAA_s140_6.0.0.dir/__/__/mesh/stack/src/mesh_stack.c.obj
                0x00027b28                mesh_stack_init
 .text.mesh_stack_start
                0x00027bb8        0x4 examples/enocean_switch/CMakeFiles/enocean_switch_nrf52840_xxAA_s140_6.0.0.dir/__/__/mesh/stack/src/mesh_stack.c.obj
                0x00027bb8                mesh_stack_start
 .text.mesh_stack_provisioning_data_store
                0x00027bbc       0x78 examples/enocean_switch/CMakeFiles/enocean_switch_nrf52840_xxAA_s140_6.0.0.dir/__/__/mesh/stack/src/mesh_stack.c.obj
                0x00027bbc                mesh_stack_provisioning_data_store
 .text.mesh_stack_config_clear
                0x00027c34       0x14 examples/enocean_switch/CMakeFiles/enocean_switch_nrf52840_xxAA_s140_6.0.0.dir/__/__/mesh/stack/src/mesh_stack.c.obj
                0x00027c34                mesh_stack_config_clear
 .text.mesh_stack_device_reset
                0x00027c48       0x20 examples/enocean_switch/CMakeFiles/enocean_switch_nrf52840_xxAA_s140_6.0.0.dir/__/__/mesh/stack/src/mesh_stack.c.obj
                0x00027c48                mesh_stack_device_reset
 .text.sd_evt_get
                0x00027c68        0x4 examples/enocean_switch/CMakeFiles/enocean_switch_nrf52840_xxAA_s140_6.0.0.dir/__/common/src/mesh_softdevice_init.c.obj
 .text.sd_softdevice_enable
                0x00027c6c        0x4 examples/enocean_switch/CMakeFiles/enocean_switch_nrf52840_xxAA_s140_6.0.0.dir/__/common/src/mesh_softdevice_init.c.obj
 .text.sd_ble_enable
                0x00027c70        0x4 examples/enocean_switch/CMakeFiles/enocean_switch_nrf52840_xxAA_s140_6.0.0.dir/__/common/src/mesh_softdevice_init.c.obj
 .text.SWI2_EGU2_IRQHandler
                0x00027c74       0x1c examples/enocean_switch/CMakeFiles/enocean_switch_nrf52840_xxAA_s140_6.0.0.dir/__/common/src/mesh_softdevice_init.c.obj
                0x00027c74                SWI2_EGU2_IRQHandler
 .text.mesh_softdevice_init
                0x00027c90      0x1f8 examples/enocean_switch/CMakeFiles/enocean_switch_nrf52840_xxAA_s140_6.0.0.dir/__/common/src/mesh_softdevice_init.c.obj
                0x00027c90                mesh_softdevice_init
 .text.prov_evt_handler
                0x00027e88       0x70 examples/enocean_switch/CMakeFiles/enocean_switch_nrf52840_xxAA_s140_6.0.0.dir/__/common/src/mesh_provisionee.c.obj
 .text.mesh_provisionee_prov_start
                0x00027ef8       0x88 examples/enocean_switch/CMakeFiles/enocean_switch_nrf52840_xxAA_s140_6.0.0.dir/__/common/src/mesh_provisionee.c.obj
                0x00027ef8                mesh_provisionee_prov_start
 .text.TIMER2_IRQHandler
                0x00027f80       0x34 examples/enocean_switch/CMakeFiles/enocean_switch_nrf52840_xxAA_s140_6.0.0.dir/__/common/src/rtt_input.c.obj
                0x00027f80                TIMER2_IRQHandler
 .text.rtt_input_enable
                0x00027fb4       0x5c examples/enocean_switch/CMakeFiles/enocean_switch_nrf52840_xxAA_s140_6.0.0.dir/__/common/src/rtt_input.c.obj
                0x00027fb4                rtt_input_enable
 .text.hal_led_pin_set
                0x00028010       0x18 examples/enocean_switch/CMakeFiles/enocean_switch_nrf52840_xxAA_s140_6.0.0.dir/__/common/src/simple_hal.c.obj
                0x00028010                hal_led_pin_set
 .text.hal_led_mask_set
                0x00028028       0x14 examples/enocean_switch/CMakeFiles/enocean_switch_nrf52840_xxAA_s140_6.0.0.dir/__/common/src/simple_hal.c.obj
                0x00028028                hal_led_mask_set
 .text.hal_led_blink_ms
                0x0002803c       0x4c examples/enocean_switch/CMakeFiles/enocean_switch_nrf52840_xxAA_s140_6.0.0.dir/__/common/src/simple_hal.c.obj
                0x0002803c                hal_led_blink_ms
 .text.hal_leds_init
                0x00028088       0x3c examples/enocean_switch/CMakeFiles/enocean_switch_nrf52840_xxAA_s140_6.0.0.dir/__/common/src/simple_hal.c.obj
                0x00028088                hal_leds_init
 .text.hal_buttons_init
                0x000280c4       0x54 examples/enocean_switch/CMakeFiles/enocean_switch_nrf52840_xxAA_s140_6.0.0.dir/__/common/src/simple_hal.c.obj
                0x000280c4                hal_buttons_init
 .text.GPIOTE_IRQHandler
                0x00028118      0x114 examples/enocean_switch/CMakeFiles/enocean_switch_nrf52840_xxAA_s140_6.0.0.dir/__/common/src/simple_hal.c.obj
                0x00028118                GPIOTE_IRQHandler
 .text._weak_handler
                0x0002822c        0x4 examples/enocean_switch/CMakeFiles/enocean_switch_nrf52840_xxAA_s140_6.0.0.dir/__/nrf_mesh_weak.c.obj
                0x0002822c                nrf_mesh_dfu_init
                0x0002822c                nrf_mesh_dfu_jump_to_bootloader
                0x0002822c                nrf_mesh_dfu_rx
                0x0002822c                prov_provisioner_provision
                0x0002822c                nrf_mesh_dfu_bank_info_get
                0x0002822c                prov_provisioner_oob_pubkey
                0x0002822c                nrf_mesh_dfu_request
                0x0002822c                nrf_mesh_dfu_bank_flash
                0x0002822c                _weak_handler
                0x0002822c                nrf_mesh_dfu_relay
                0x0002822c                nrf_mesh_dfu_abort
                0x0002822c                mesh_flash_op_execute
                0x0002822c                prov_provisionee_init
                0x0002822c                nrf_mesh_dfu_state_get
                0x0002822c                prov_provisioner_shared_secret
                0x0002822c                prov_provisioner_auth_data
                0x0002822c                prov_provisioner_oob_use
 .text.app_error_fault_handler
                0x00028230      0x240 examples/enocean_switch/CMakeFiles/enocean_switch_nrf52840_xxAA_s140_6.0.0.dir/__/common/src/app_error_weak.c.obj
                0x00028230                app_error_fault_handler
 .text.mesh_assertion_handler
                0x00028470       0x24 examples/enocean_switch/CMakeFiles/enocean_switch_nrf52840_xxAA_s140_6.0.0.dir/__/common/src/assertion_handler_weak.c.obj
                0x00028470                mesh_assertion_handler
 .text.nrf_mesh_configure_device_uuid_set
                0x00028494       0x10 examples/enocean_switch/CMakeFiles/enocean_switch_nrf52840_xxAA_s140_6.0.0.dir/__/__/mesh/core/src/nrf_mesh_configure.c.obj
                0x00028494                nrf_mesh_configure_device_uuid_set
 .text.nrf_mesh_configure_device_uuid_reset
                0x000284a4       0x2c examples/enocean_switch/CMakeFiles/enocean_switch_nrf52840_xxAA_s140_6.0.0.dir/__/__/mesh/core/src/nrf_mesh_configure.c.obj
                0x000284a4                nrf_mesh_configure_device_uuid_reset
 .text.nrf_mesh_configure_device_uuid_get
                0x000284d0        0x8 examples/enocean_switch/CMakeFiles/enocean_switch_nrf52840_xxAA_s140_6.0.0.dir/__/__/mesh/core/src/nrf_mesh_configure.c.obj
                0x000284d0                nrf_mesh_configure_device_uuid_get
 .text.sd_ecb_block_encrypt
                0x000284d8        0x4 examples/enocean_switch/CMakeFiles/enocean_switch_nrf52840_xxAA_s140_6.0.0.dir/__/__/mesh/core/src/aes.c.obj
 .text.aes_encrypt
                0x000284dc       0x34 examples/enocean_switch/CMakeFiles/enocean_switch_nrf52840_xxAA_s140_6.0.0.dir/__/__/mesh/core/src/aes.c.obj
                0x000284dc                aes_encrypt
 .text.msg_cache_init
                0x00028510       0x24 examples/enocean_switch/CMakeFiles/enocean_switch_nrf52840_xxAA_s140_6.0.0.dir/__/__/mesh/core/src/msg_cache.c.obj
                0x00028510                msg_cache_init
 .text.msg_cache_entry_exists
                0x00028534       0x40 examples/enocean_switch/CMakeFiles/enocean_switch_nrf52840_xxAA_s140_6.0.0.dir/__/__/mesh/core/src/msg_cache.c.obj
                0x00028534                msg_cache_entry_exists
 .text.msg_cache_entry_add
                0x00028574       0x30 examples/enocean_switch/CMakeFiles/enocean_switch_nrf52840_xxAA_s140_6.0.0.dir/__/__/mesh/core/src/msg_cache.c.obj
                0x00028574                msg_cache_entry_add
 .text.tx_complete
                0x000285a4       0x30 examples/enocean_switch/CMakeFiles/enocean_switch_nrf52840_xxAA_s140_6.0.0.dir/__/__/mesh/core/src/transport.c.obj
 .text.upper_trs_packet_encrypt
                0x000285d4       0xb4 examples/enocean_switch/CMakeFiles/enocean_switch_nrf52840_xxAA_s140_6.0.0.dir/__/__/mesh/core/src/transport.c.obj
 .text.trs_sar_packet_out
                0x00028688      0x1a4 examples/enocean_switch/CMakeFiles/enocean_switch_nrf52840_xxAA_s140_6.0.0.dir/__/__/mesh/core/src/transport.c.obj
 .text.upper_transport_tx.part.25
                0x0002882c      0x34c examples/enocean_switch/CMakeFiles/enocean_switch_nrf52840_xxAA_s140_6.0.0.dir/__/__/mesh/core/src/transport.c.obj
 .text.sar_ack_send.part.29
                0x00028b78       0xd4 examples/enocean_switch/CMakeFiles/enocean_switch_nrf52840_xxAA_s140_6.0.0.dir/__/__/mesh/core/src/transport.c.obj
 .text.ack_timeout
                0x00028c4c       0x34 examples/enocean_switch/CMakeFiles/enocean_switch_nrf52840_xxAA_s140_6.0.0.dir/__/__/mesh/core/src/transport.c.obj
 .text.upper_transport_access_packet_in
                0x00028c80      0x334 examples/enocean_switch/CMakeFiles/enocean_switch_nrf52840_xxAA_s140_6.0.0.dir/__/__/mesh/core/src/transport.c.obj
 .text.sar_ctx_cancel
                0x00028fb4      0x148 examples/enocean_switch/CMakeFiles/enocean_switch_nrf52840_xxAA_s140_6.0.0.dir/__/__/mesh/core/src/transport.c.obj
 .text.retry_timeout
                0x000290fc       0x98 examples/enocean_switch/CMakeFiles/enocean_switch_nrf52840_xxAA_s140_6.0.0.dir/__/__/mesh/core/src/transport.c.obj
 .text.transport_sar_process
                0x00029194      0x288 examples/enocean_switch/CMakeFiles/enocean_switch_nrf52840_xxAA_s140_6.0.0.dir/__/__/mesh/core/src/transport.c.obj
 .text.upper_transport_packet_in
                0x0002941c      0x2e4 examples/enocean_switch/CMakeFiles/enocean_switch_nrf52840_xxAA_s140_6.0.0.dir/__/__/mesh/core/src/transport.c.obj
 .text.abort_timeout
                0x00029700      0x13c examples/enocean_switch/CMakeFiles/enocean_switch_nrf52840_xxAA_s140_6.0.0.dir/__/__/mesh/core/src/transport.c.obj
 .text.transport_init
                0x0002983c       0xac examples/enocean_switch/CMakeFiles/enocean_switch_nrf52840_xxAA_s140_6.0.0.dir/__/__/mesh/core/src/transport.c.obj
                0x0002983c                transport_init
 .text.transport_packet_in
                0x000298e8      0x770 examples/enocean_switch/CMakeFiles/enocean_switch_nrf52840_xxAA_s140_6.0.0.dir/__/__/mesh/core/src/transport.c.obj
                0x000298e8                transport_packet_in
 .text.transport_tx
                0x0002a058      0x100 examples/enocean_switch/CMakeFiles/enocean_switch_nrf52840_xxAA_s140_6.0.0.dir/__/__/mesh/core/src/transport.c.obj
                0x0002a058                transport_tx
 .text.transport_control_tx
                0x0002a158       0xc0 examples/enocean_switch/CMakeFiles/enocean_switch_nrf52840_xxAA_s140_6.0.0.dir/__/__/mesh/core/src/transport.c.obj
                0x0002a158                transport_control_tx
 .text.transport_opt_set
                0x0002a218       0xdc examples/enocean_switch/CMakeFiles/enocean_switch_nrf52840_xxAA_s140_6.0.0.dir/__/__/mesh/core/src/transport.c.obj
                0x0002a218                transport_opt_set
 .text.transport_opt_get
                0x0002a2f4       0x84 examples/enocean_switch/CMakeFiles/enocean_switch_nrf52840_xxAA_s140_6.0.0.dir/__/__/mesh/core/src/transport.c.obj
                0x0002a2f4                transport_opt_get
 .text.transport_control_packet_consumer_add
                0x0002a378       0x60 examples/enocean_switch/CMakeFiles/enocean_switch_nrf52840_xxAA_s140_6.0.0.dir/__/__/mesh/core/src/transport.c.obj
                0x0002a378                transport_control_packet_consumer_add
 .text.event_handle
                0x0002a3d8       0x28 examples/enocean_switch/CMakeFiles/enocean_switch_nrf52840_xxAA_s140_6.0.0.dir/__/__/mesh/core/src/event.c.obj
                0x0002a3d8                event_handle
 .text.event_handler_add
                0x0002a400       0x28 examples/enocean_switch/CMakeFiles/enocean_switch_nrf52840_xxAA_s140_6.0.0.dir/__/__/mesh/core/src/event.c.obj
                0x0002a400                event_handler_add
 .text.event_handler_remove
                0x0002a428       0x28 examples/enocean_switch/CMakeFiles/enocean_switch_nrf52840_xxAA_s140_6.0.0.dir/__/__/mesh/core/src/event.c.obj
                0x0002a428                event_handler_remove
 .text.packet_buffer_init
                0x0002a450       0xb4 examples/enocean_switch/CMakeFiles/enocean_switch_nrf52840_xxAA_s140_6.0.0.dir/__/__/mesh/core/src/packet_buffer.c.obj
                0x0002a450                packet_buffer_init
 .text.packet_buffer_flush
                0x0002a504       0x74 examples/enocean_switch/CMakeFiles/enocean_switch_nrf52840_xxAA_s140_6.0.0.dir/__/__/mesh/core/src/packet_buffer.c.obj
                0x0002a504                packet_buffer_flush
 .text.packet_buffer_reserve
                0x0002a578       0x9c examples/enocean_switch/CMakeFiles/enocean_switch_nrf52840_xxAA_s140_6.0.0.dir/__/__/mesh/core/src/packet_buffer.c.obj
                0x0002a578                packet_buffer_reserve
 .text.packet_buffer_commit
                0x0002a614       0x7c examples/enocean_switch/CMakeFiles/enocean_switch_nrf52840_xxAA_s140_6.0.0.dir/__/__/mesh/core/src/packet_buffer.c.obj
                0x0002a614                packet_buffer_commit
 .text.packet_buffer_pop
                0x0002a690       0x50 examples/enocean_switch/CMakeFiles/enocean_switch_nrf52840_xxAA_s140_6.0.0.dir/__/__/mesh/core/src/packet_buffer.c.obj
                0x0002a690                packet_buffer_pop
 .text.packet_buffer_can_pop
                0x0002a6e0       0x24 examples/enocean_switch/CMakeFiles/enocean_switch_nrf52840_xxAA_s140_6.0.0.dir/__/__/mesh/core/src/packet_buffer.c.obj
                0x0002a6e0                packet_buffer_can_pop
 .text.packet_buffer_packets_ready_to_pop
                0x0002a704       0x48 examples/enocean_switch/CMakeFiles/enocean_switch_nrf52840_xxAA_s140_6.0.0.dir/__/__/mesh/core/src/packet_buffer.c.obj
                0x0002a704                packet_buffer_packets_ready_to_pop
 .text.packet_buffer_free
                0x0002a74c       0x8c examples/enocean_switch/CMakeFiles/enocean_switch_nrf52840_xxAA_s140_6.0.0.dir/__/__/mesh/core/src/packet_buffer.c.obj
                0x0002a74c                packet_buffer_free
 .text.erase_source
                0x0002a7d8       0x34 examples/enocean_switch/CMakeFiles/enocean_switch_nrf52840_xxAA_s140_6.0.0.dir/__/__/mesh/core/src/flash_manager_defrag.c.obj
 .text.erase_recovery_area
                0x0002a80c       0x34 examples/enocean_switch/CMakeFiles/enocean_switch_nrf52840_xxAA_s140_6.0.0.dir/__/__/mesh/core/src/flash_manager_defrag.c.obj
 .text.write_back
                0x0002a840       0x44 examples/enocean_switch/CMakeFiles/enocean_switch_nrf52840_xxAA_s140_6.0.0.dir/__/__/mesh/core/src/flash_manager_defrag.c.obj
 .text.write_defrag_start_pointer
                0x0002a884       0x38 examples/enocean_switch/CMakeFiles/enocean_switch_nrf52840_xxAA_s140_6.0.0.dir/__/__/mesh/core/src/flash_manager_defrag.c.obj
 .text.copy_metadata
                0x0002a8bc       0x58 examples/enocean_switch/CMakeFiles/enocean_switch_nrf52840_xxAA_s140_6.0.0.dir/__/__/mesh/core/src/flash_manager_defrag.c.obj
 .text.seal_storage_page
                0x0002a914       0x70 examples/enocean_switch/CMakeFiles/enocean_switch_nrf52840_xxAA_s140_6.0.0.dir/__/__/mesh/core/src/flash_manager_defrag.c.obj
 .text.post_process
                0x0002a984       0x64 examples/enocean_switch/CMakeFiles/enocean_switch_nrf52840_xxAA_s140_6.0.0.dir/__/__/mesh/core/src/flash_manager_defrag.c.obj
 .text.check_for_invalid_entries
                0x0002a9e8       0x40 examples/enocean_switch/CMakeFiles/enocean_switch_nrf52840_xxAA_s140_6.0.0.dir/__/__/mesh/core/src/flash_manager_defrag.c.obj
 .text.execute_procedure_step
                0x0002aa28       0xa0 examples/enocean_switch/CMakeFiles/enocean_switch_nrf52840_xxAA_s140_6.0.0.dir/__/__/mesh/core/src/flash_manager_defrag.c.obj
 .text.on_flash_op_end
                0x0002aac8       0x4c examples/enocean_switch/CMakeFiles/enocean_switch_nrf52840_xxAA_s140_6.0.0.dir/__/__/mesh/core/src/flash_manager_defrag.c.obj
 .text.invalidate_duplicate_entries
                0x0002ab14      0x158 examples/enocean_switch/CMakeFiles/enocean_switch_nrf52840_xxAA_s140_6.0.0.dir/__/__/mesh/core/src/flash_manager_defrag.c.obj
 .text.backup_entries
                0x0002ac6c      0x1c4 examples/enocean_switch/CMakeFiles/enocean_switch_nrf52840_xxAA_s140_6.0.0.dir/__/__/mesh/core/src/flash_manager_defrag.c.obj
 .text.flash_manager_defrag_init
                0x0002ae30       0x6c examples/enocean_switch/CMakeFiles/enocean_switch_nrf52840_xxAA_s140_6.0.0.dir/__/__/mesh/core/src/flash_manager_defrag.c.obj
                0x0002ae30                flash_manager_defrag_init
 .text.flash_manager_defrag_is_running
                0x0002ae9c       0x10 examples/enocean_switch/CMakeFiles/enocean_switch_nrf52840_xxAA_s140_6.0.0.dir/__/__/mesh/core/src/flash_manager_defrag.c.obj
                0x0002ae9c                flash_manager_defrag_is_running
 .text.flash_manager_defrag
                0x0002aeac       0x48 examples/enocean_switch/CMakeFiles/enocean_switch_nrf52840_xxAA_s140_6.0.0.dir/__/__/mesh/core/src/flash_manager_defrag.c.obj
                0x0002aeac                flash_manager_defrag
 .text.flash_manager_defrag_recovery_page_get
                0x0002aef4        0xc examples/enocean_switch/CMakeFiles/enocean_switch_nrf52840_xxAA_s140_6.0.0.dir/__/__/mesh/core/src/flash_manager_defrag.c.obj
                0x0002aef4                flash_manager_defrag_recovery_page_get
 .text.fifo_init
                0x0002af00       0x38 examples/enocean_switch/CMakeFiles/enocean_switch_nrf52840_xxAA_s140_6.0.0.dir/__/__/mesh/core/src/fifo.c.obj
                0x0002af00                fifo_init
 .text.fifo_push
                0x0002af38       0x54 examples/enocean_switch/CMakeFiles/enocean_switch_nrf52840_xxAA_s140_6.0.0.dir/__/__/mesh/core/src/fifo.c.obj
                0x0002af38                fifo_push
 .text.fifo_pop
                0x0002af8c       0x58 examples/enocean_switch/CMakeFiles/enocean_switch_nrf52840_xxAA_s140_6.0.0.dir/__/__/mesh/core/src/fifo.c.obj
                0x0002af8c                fifo_pop
 .text.nrf_flash_erase
                0x0002afe4       0x5c examples/enocean_switch/CMakeFiles/enocean_switch_nrf52840_xxAA_s140_6.0.0.dir/__/__/mesh/core/src/nrf_flash.c.obj
                0x0002afe4                nrf_flash_erase
 .text.nrf_flash_write
                0x0002b040       0x6c examples/enocean_switch/CMakeFiles/enocean_switch_nrf52840_xxAA_s140_6.0.0.dir/__/__/mesh/core/src/nrf_flash.c.obj
                0x0002b040                nrf_flash_write
 .text.packet_mgr_init
                0x0002b0ac       0x4c examples/enocean_switch/CMakeFiles/enocean_switch_nrf52840_xxAA_s140_6.0.0.dir/__/__/mesh/core/src/packet_mgr.c.obj
                0x0002b0ac                packet_mgr_init
 .text.flash_store_iv_index
                0x0002b0f8       0x38 examples/enocean_switch/CMakeFiles/enocean_switch_nrf52840_xxAA_s140_6.0.0.dir/__/__/mesh/core/src/net_state.c.obj
 .text.flash_mem_available
                0x0002b130       0x1c examples/enocean_switch/CMakeFiles/enocean_switch_nrf52840_xxAA_s140_6.0.0.dir/__/__/mesh/core/src/net_state.c.obj
 .text.init_flash_storage
                0x0002b14c       0x44 examples/enocean_switch/CMakeFiles/enocean_switch_nrf52840_xxAA_s140_6.0.0.dir/__/__/mesh/core/src/net_state.c.obj
 .text.flash_write_complete
                0x0002b190       0x68 examples/enocean_switch/CMakeFiles/enocean_switch_nrf52840_xxAA_s140_6.0.0.dir/__/__/mesh/core/src/net_state.c.obj
 .text.seqnum_block_allocate
                0x0002b1f8       0x4c examples/enocean_switch/CMakeFiles/enocean_switch_nrf52840_xxAA_s140_6.0.0.dir/__/__/mesh/core/src/net_state.c.obj
 .text.net_state_reset
                0x0002b244       0x78 examples/enocean_switch/CMakeFiles/enocean_switch_nrf52840_xxAA_s140_6.0.0.dir/__/__/mesh/core/src/net_state.c.obj
                0x0002b244                net_state_reset
 .text.iv_update_trigger_if_pending
                0x0002b2bc      0x170 examples/enocean_switch/CMakeFiles/enocean_switch_nrf52840_xxAA_s140_6.0.0.dir/__/__/mesh/core/src/net_state.c.obj
 .text.mesh_evt_handler
                0x0002b42c      0x108 examples/enocean_switch/CMakeFiles/enocean_switch_nrf52840_xxAA_s140_6.0.0.dir/__/__/mesh/core/src/net_state.c.obj
 .text.iv_update_timer_handler
                0x0002b534       0x70 examples/enocean_switch/CMakeFiles/enocean_switch_nrf52840_xxAA_s140_6.0.0.dir/__/__/mesh/core/src/net_state.c.obj
 .text.net_state_recover_from_flash
                0x0002b5a4      0x118 examples/enocean_switch/CMakeFiles/enocean_switch_nrf52840_xxAA_s140_6.0.0.dir/__/__/mesh/core/src/net_state.c.obj
                0x0002b5a4                net_state_recover_from_flash
 .text.net_state_flash_area_get
                0x0002b6bc        0xc examples/enocean_switch/CMakeFiles/enocean_switch_nrf52840_xxAA_s140_6.0.0.dir/__/__/mesh/core/src/net_state.c.obj
                0x0002b6bc                net_state_flash_area_get
 .text.net_state_init
                0x0002b6c8       0x94 examples/enocean_switch/CMakeFiles/enocean_switch_nrf52840_xxAA_s140_6.0.0.dir/__/__/mesh/core/src/net_state.c.obj
                0x0002b6c8                net_state_init
 .text.net_state_seqnum_alloc
                0x0002b75c       0xd4 examples/enocean_switch/CMakeFiles/enocean_switch_nrf52840_xxAA_s140_6.0.0.dir/__/__/mesh/core/src/net_state.c.obj
                0x0002b75c                net_state_seqnum_alloc
 .text.net_state_iv_index_lock
                0x0002b830      0x190 examples/enocean_switch/CMakeFiles/enocean_switch_nrf52840_xxAA_s140_6.0.0.dir/__/__/mesh/core/src/net_state.c.obj
                0x0002b830                net_state_iv_index_lock
 .text.net_state_key_refresh_phase_changed
                0x0002b9c0       0x20 examples/enocean_switch/CMakeFiles/enocean_switch_nrf52840_xxAA_s140_6.0.0.dir/__/__/mesh/core/src/net_state.c.obj
                0x0002b9c0                net_state_key_refresh_phase_changed
 .text.net_state_beacon_iv_index_get
                0x0002b9e0        0xc examples/enocean_switch/CMakeFiles/enocean_switch_nrf52840_xxAA_s140_6.0.0.dir/__/__/mesh/core/src/net_state.c.obj
                0x0002b9e0                net_state_beacon_iv_index_get
 .text.net_state_tx_iv_index_get
                0x0002b9ec       0x14 examples/enocean_switch/CMakeFiles/enocean_switch_nrf52840_xxAA_s140_6.0.0.dir/__/__/mesh/core/src/net_state.c.obj
                0x0002b9ec                net_state_tx_iv_index_get
 .text.net_state_rx_iv_index_get
                0x0002ba00       0x18 examples/enocean_switch/CMakeFiles/enocean_switch_nrf52840_xxAA_s140_6.0.0.dir/__/__/mesh/core/src/net_state.c.obj
                0x0002ba00                net_state_rx_iv_index_get
 .text.net_state_iv_update_get
                0x0002ba18        0xc examples/enocean_switch/CMakeFiles/enocean_switch_nrf52840_xxAA_s140_6.0.0.dir/__/__/mesh/core/src/net_state.c.obj
                0x0002ba18                net_state_iv_update_get
 .text.net_state_iv_index_set
                0x0002ba24       0x8c examples/enocean_switch/CMakeFiles/enocean_switch_nrf52840_xxAA_s140_6.0.0.dir/__/__/mesh/core/src/net_state.c.obj
                0x0002ba24                net_state_iv_index_set
 .text.send_end_events
                0x0002bab0       0x90 examples/enocean_switch/CMakeFiles/enocean_switch_nrf52840_xxAA_s140_6.0.0.dir/__/__/mesh/core/src/mesh_flash.c.obj
 .text.flash_op_start
                0x0002bb40      0x224 examples/enocean_switch/CMakeFiles/enocean_switch_nrf52840_xxAA_s140_6.0.0.dir/__/__/mesh/core/src/mesh_flash.c.obj
 .text.mesh_flash_init
                0x0002bd64       0x88 examples/enocean_switch/CMakeFiles/enocean_switch_nrf52840_xxAA_s140_6.0.0.dir/__/__/mesh/core/src/mesh_flash.c.obj
                0x0002bd64                mesh_flash_init
 .text.mesh_flash_user_callback_set
                0x0002bdec       0x20 examples/enocean_switch/CMakeFiles/enocean_switch_nrf52840_xxAA_s140_6.0.0.dir/__/__/mesh/core/src/mesh_flash.c.obj
                0x0002bdec                mesh_flash_user_callback_set
 .text.mesh_flash_op_push
                0x0002be0c      0x1a0 examples/enocean_switch/CMakeFiles/enocean_switch_nrf52840_xxAA_s140_6.0.0.dir/__/__/mesh/core/src/mesh_flash.c.obj
                0x0002be0c                mesh_flash_op_push
 .text.nrf_mesh_address_type_get
                0x0002bfac       0x10 examples/enocean_switch/CMakeFiles/enocean_switch_nrf52840_xxAA_s140_6.0.0.dir/__/__/mesh/core/src/nrf_mesh_utils.c.obj
                0x0002bfac                nrf_mesh_address_type_get
 .text.sd_softdevice_is_enabled
                0x0002bfbc        0x4 examples/enocean_switch/CMakeFiles/enocean_switch_nrf52840_xxAA_s140_6.0.0.dir/__/__/mesh/core/src/nrf_mesh.c.obj
 .text.nrf_mesh_listen
                0x0002bfc0      0x1c8 examples/enocean_switch/CMakeFiles/enocean_switch_nrf52840_xxAA_s140_6.0.0.dir/__/__/mesh/core/src/nrf_mesh.c.obj
 .text.flash_stable_cb
                0x0002c188       0x20 examples/enocean_switch/CMakeFiles/enocean_switch_nrf52840_xxAA_s140_6.0.0.dir/__/__/mesh/core/src/nrf_mesh.c.obj
 .text.scanner_packet_process_cb
                0x0002c1a8       0x88 examples/enocean_switch/CMakeFiles/enocean_switch_nrf52840_xxAA_s140_6.0.0.dir/__/__/mesh/core/src/nrf_mesh.c.obj
 .text.nrf_mesh_init
                0x0002c230       0xe0 examples/enocean_switch/CMakeFiles/enocean_switch_nrf52840_xxAA_s140_6.0.0.dir/__/__/mesh/core/src/nrf_mesh.c.obj
                0x0002c230                nrf_mesh_init
 .text.nrf_mesh_enable
                0x0002c310       0x48 examples/enocean_switch/CMakeFiles/enocean_switch_nrf52840_xxAA_s140_6.0.0.dir/__/__/mesh/core/src/nrf_mesh.c.obj
                0x0002c310                nrf_mesh_enable
 .text.nrf_mesh_packet_send
                0x0002c358       0x94 examples/enocean_switch/CMakeFiles/enocean_switch_nrf52840_xxAA_s140_6.0.0.dir/__/__/mesh/core/src/nrf_mesh.c.obj
                0x0002c358                nrf_mesh_packet_send
 .text.nrf_mesh_evt_handler_add
                0x0002c3ec        0x4 examples/enocean_switch/CMakeFiles/enocean_switch_nrf52840_xxAA_s140_6.0.0.dir/__/__/mesh/core/src/nrf_mesh.c.obj
                0x0002c3ec                nrf_mesh_evt_handler_add
 .text.nrf_mesh_on_sd_evt
                0x0002c3f0        0xc examples/enocean_switch/CMakeFiles/enocean_switch_nrf52840_xxAA_s140_6.0.0.dir/__/__/mesh/core/src/nrf_mesh.c.obj
                0x0002c3f0                nrf_mesh_on_sd_evt
 .text.nrf_mesh_rx_cb_set
                0x0002c3fc        0xc examples/enocean_switch/CMakeFiles/enocean_switch_nrf52840_xxAA_s140_6.0.0.dir/__/__/mesh/core/src/nrf_mesh.c.obj
                0x0002c3fc                nrf_mesh_rx_cb_set
 .text.nrf_mesh_subnet_added
                0x0002c408        0x4 examples/enocean_switch/CMakeFiles/enocean_switch_nrf52840_xxAA_s140_6.0.0.dir/__/__/mesh/core/src/nrf_mesh.c.obj
                0x0002c408                nrf_mesh_subnet_added
 .text.queue_init
                0x0002c40c       0x1c examples/enocean_switch/CMakeFiles/enocean_switch_nrf52840_xxAA_s140_6.0.0.dir/__/__/mesh/core/src/queue.c.obj
                0x0002c40c                queue_init
 .text.queue_push
                0x0002c428       0x44 examples/enocean_switch/CMakeFiles/enocean_switch_nrf52840_xxAA_s140_6.0.0.dir/__/__/mesh/core/src/queue.c.obj
                0x0002c428                queue_push
 .text.queue_pop
                0x0002c46c       0x2c examples/enocean_switch/CMakeFiles/enocean_switch_nrf52840_xxAA_s140_6.0.0.dir/__/__/mesh/core/src/queue.c.obj
                0x0002c46c                queue_pop
 .text.queue_peek
                0x0002c498       0x14 examples/enocean_switch/CMakeFiles/enocean_switch_nrf52840_xxAA_s140_6.0.0.dir/__/__/mesh/core/src/queue.c.obj
                0x0002c498                queue_peek
 .text.sd_power_reset_reason_clr
                0x0002c4ac        0x4 examples/enocean_switch/CMakeFiles/enocean_switch_nrf52840_xxAA_s140_6.0.0.dir/__/__/mesh/core/src/hal.c.obj
 .text.hal_device_reset
                0x0002c4b0       0x2c examples/enocean_switch/CMakeFiles/enocean_switch_nrf52840_xxAA_s140_6.0.0.dir/__/__/mesh/core/src/hal.c.obj
                0x0002c4b0                hal_device_reset
 .text.hal_lfclk_ppm_get
                0x0002c4dc       0x14 examples/enocean_switch/CMakeFiles/enocean_switch_nrf52840_xxAA_s140_6.0.0.dir/__/__/mesh/core/src/hal.c.obj
                0x0002c4dc                hal_lfclk_ppm_get
 .text.aes_cmac_subkey_generate
                0x0002c4f0      0x2b0 examples/enocean_switch/CMakeFiles/enocean_switch_nrf52840_xxAA_s140_6.0.0.dir/__/__/mesh/core/src/aes_cmac.c.obj
                0x0002c4f0                aes_cmac_subkey_generate
 .text.aes_cmac
                0x0002c7a0      0x49c examples/enocean_switch/CMakeFiles/enocean_switch_nrf52840_xxAA_s140_6.0.0.dir/__/__/mesh/core/src/aes_cmac.c.obj
                0x0002c7a0                aes_cmac
 .text.timer_cb
                0x0002cc3c        0xc examples/enocean_switch/CMakeFiles/enocean_switch_nrf52840_xxAA_s140_6.0.0.dir/__/__/mesh/core/src/timer_scheduler.c.obj
 .text.add_evt.constprop.1
                0x0002cc48       0x60 examples/enocean_switch/CMakeFiles/enocean_switch_nrf52840_xxAA_s140_6.0.0.dir/__/__/mesh/core/src/timer_scheduler.c.obj
 .text.flag_event_cb
                0x0002cca8      0x328 examples/enocean_switch/CMakeFiles/enocean_switch_nrf52840_xxAA_s140_6.0.0.dir/__/__/mesh/core/src/timer_scheduler.c.obj
 .text.timer_sch_init
                0x0002cfd0       0x24 examples/enocean_switch/CMakeFiles/enocean_switch_nrf52840_xxAA_s140_6.0.0.dir/__/__/mesh/core/src/timer_scheduler.c.obj
                0x0002cfd0                timer_sch_init
 .text.timer_sch_schedule
                0x0002cff4       0x64 examples/enocean_switch/CMakeFiles/enocean_switch_nrf52840_xxAA_s140_6.0.0.dir/__/__/mesh/core/src/timer_scheduler.c.obj
                0x0002cff4                timer_sch_schedule
 .text.timer_sch_abort
                0x0002d058       0x5c examples/enocean_switch/CMakeFiles/enocean_switch_nrf52840_xxAA_s140_6.0.0.dir/__/__/mesh/core/src/timer_scheduler.c.obj
                0x0002d058                timer_sch_abort
 .text.timer_sch_reschedule
                0x0002d0b4       0x88 examples/enocean_switch/CMakeFiles/enocean_switch_nrf52840_xxAA_s140_6.0.0.dir/__/__/mesh/core/src/timer_scheduler.c.obj
                0x0002d0b4                timer_sch_reschedule
 .text.timer_event_handler
                0x0002d13c       0xd0 examples/enocean_switch/CMakeFiles/enocean_switch_nrf52840_xxAA_s140_6.0.0.dir/__/__/mesh/core/src/timer.c.obj
                0x0002d13c                timer_event_handler
 .text.timer_order_cb
                0x0002d20c       0x98 examples/enocean_switch/CMakeFiles/enocean_switch_nrf52840_xxAA_s140_6.0.0.dir/__/__/mesh/core/src/timer.c.obj
                0x0002d20c                timer_order_cb
 .text.timer_now
                0x0002d2a4       0x58 examples/enocean_switch/CMakeFiles/enocean_switch_nrf52840_xxAA_s140_6.0.0.dir/__/__/mesh/core/src/timer.c.obj
                0x0002d2a4                timer_now
 .text.timer_on_ts_begin
                0x0002d2fc      0x104 examples/enocean_switch/CMakeFiles/enocean_switch_nrf52840_xxAA_s140_6.0.0.dir/__/__/mesh/core/src/timer.c.obj
                0x0002d2fc                timer_on_ts_begin
 .text.timer_on_ts_end
                0x0002d400       0x78 examples/enocean_switch/CMakeFiles/enocean_switch_nrf52840_xxAA_s140_6.0.0.dir/__/__/mesh/core/src/timer.c.obj
                0x0002d400                timer_on_ts_end
 .text.timer_cb
                0x0002d478       0x10 examples/enocean_switch/CMakeFiles/enocean_switch_nrf52840_xxAA_s140_6.0.0.dir/__/__/mesh/core/src/ticker.c.obj
 .text.ticker_init
                0x0002d488       0x3c examples/enocean_switch/CMakeFiles/enocean_switch_nrf52840_xxAA_s140_6.0.0.dir/__/__/mesh/core/src/ticker.c.obj
                0x0002d488                ticker_init
 .text.sd_rand_application_bytes_available_get
                0x0002d4c4        0x4 examples/enocean_switch/CMakeFiles/enocean_switch_nrf52840_xxAA_s140_6.0.0.dir/__/__/mesh/core/src/rand.c.obj
 .text.sd_rand_application_vector_get
                0x0002d4c8        0x4 examples/enocean_switch/CMakeFiles/enocean_switch_nrf52840_xxAA_s140_6.0.0.dir/__/__/mesh/core/src/rand.c.obj
 .text.rand_prng_seed
                0x0002d4cc       0x6c examples/enocean_switch/CMakeFiles/enocean_switch_nrf52840_xxAA_s140_6.0.0.dir/__/__/mesh/core/src/rand.c.obj
                0x0002d4cc                rand_prng_seed
 .text.rand_prng_get
                0x0002d538       0x28 examples/enocean_switch/CMakeFiles/enocean_switch_nrf52840_xxAA_s140_6.0.0.dir/__/__/mesh/core/src/rand.c.obj
                0x0002d538                rand_prng_get
 .text.rand_hw_rng_get
                0x0002d560       0x4c examples/enocean_switch/CMakeFiles/enocean_switch_nrf52840_xxAA_s140_6.0.0.dir/__/__/mesh/core/src/rand.c.obj
                0x0002d560                rand_hw_rng_get
 .text.nrf_mesh_opt_set
                0x0002d5ac       0x28 examples/enocean_switch/CMakeFiles/enocean_switch_nrf52840_xxAA_s140_6.0.0.dir/__/__/mesh/core/src/nrf_mesh_opt.c.obj
                0x0002d5ac                nrf_mesh_opt_set
 .text.nrf_mesh_opt_get
                0x0002d5d4       0x28 examples/enocean_switch/CMakeFiles/enocean_switch_nrf52840_xxAA_s140_6.0.0.dir/__/__/mesh/core/src/nrf_mesh_opt.c.obj
                0x0002d5d4                nrf_mesh_opt_get
 .text.sd_radio_session_open
                0x0002d5fc        0x4 examples/enocean_switch/CMakeFiles/enocean_switch_nrf52840_xxAA_s140_6.0.0.dir/__/__/mesh/core/src/timeslot.c.obj
 .text.sd_radio_session_close
                0x0002d600        0x4 examples/enocean_switch/CMakeFiles/enocean_switch_nrf52840_xxAA_s140_6.0.0.dir/__/__/mesh/core/src/timeslot.c.obj
 .text.sd_radio_request
                0x0002d604        0x4 examples/enocean_switch/CMakeFiles/enocean_switch_nrf52840_xxAA_s140_6.0.0.dir/__/__/mesh/core/src/timeslot.c.obj
 .text.end_timer_handler
                0x0002d608       0x2c examples/enocean_switch/CMakeFiles/enocean_switch_nrf52840_xxAA_s140_6.0.0.dir/__/__/mesh/core/src/timeslot.c.obj
 .text.radio_signal_callback
                0x0002d634      0x2e4 examples/enocean_switch/CMakeFiles/enocean_switch_nrf52840_xxAA_s140_6.0.0.dir/__/__/mesh/core/src/timeslot.c.obj
 .text.timeslot_sd_event_handler
                0x0002d918       0x44 examples/enocean_switch/CMakeFiles/enocean_switch_nrf52840_xxAA_s140_6.0.0.dir/__/__/mesh/core/src/timeslot.c.obj
                0x0002d918                timeslot_sd_event_handler
 .text.timeslot_init
                0x0002d95c       0x4c examples/enocean_switch/CMakeFiles/enocean_switch_nrf52840_xxAA_s140_6.0.0.dir/__/__/mesh/core/src/timeslot.c.obj
                0x0002d95c                timeslot_init
 .text.timeslot_start
                0x0002d9a8       0x20 examples/enocean_switch/CMakeFiles/enocean_switch_nrf52840_xxAA_s140_6.0.0.dir/__/__/mesh/core/src/timeslot.c.obj
                0x0002d9a8                timeslot_start
 .text.timeslot_stop
                0x0002d9c8       0x30 examples/enocean_switch/CMakeFiles/enocean_switch_nrf52840_xxAA_s140_6.0.0.dir/__/__/mesh/core/src/timeslot.c.obj
                0x0002d9c8                timeslot_stop
 .text.timeslot_state_lock
                0x0002d9f8       0x44 examples/enocean_switch/CMakeFiles/enocean_switch_nrf52840_xxAA_s140_6.0.0.dir/__/__/mesh/core/src/timeslot.c.obj
                0x0002d9f8                timeslot_state_lock
 .text.timeslot_end_is_pending
                0x0002da3c       0x24 examples/enocean_switch/CMakeFiles/enocean_switch_nrf52840_xxAA_s140_6.0.0.dir/__/__/mesh/core/src/timeslot.c.obj
                0x0002da3c                timeslot_end_is_pending
 .text.timeslot_start_time_get
                0x0002da60        0xc examples/enocean_switch/CMakeFiles/enocean_switch_nrf52840_xxAA_s140_6.0.0.dir/__/__/mesh/core/src/timeslot.c.obj
                0x0002da60                timeslot_start_time_get
 .text.timeslot_remaining_time_get
                0x0002da6c       0x40 examples/enocean_switch/CMakeFiles/enocean_switch_nrf52840_xxAA_s140_6.0.0.dir/__/__/mesh/core/src/timeslot.c.obj
                0x0002da6c                timeslot_remaining_time_get
 .text.timeslot_is_in_cb
                0x0002daac        0xc examples/enocean_switch/CMakeFiles/enocean_switch_nrf52840_xxAA_s140_6.0.0.dir/__/__/mesh/core/src/timeslot.c.obj
                0x0002daac                timeslot_is_in_cb
 .text.timeslot_trigger
                0x0002dab8       0x24 examples/enocean_switch/CMakeFiles/enocean_switch_nrf52840_xxAA_s140_6.0.0.dir/__/__/mesh/core/src/timeslot.c.obj
                0x0002dab8                timeslot_trigger
 .text.bearer_event_init
                0x0002dadc       0x4c examples/enocean_switch/CMakeFiles/enocean_switch_nrf52840_xxAA_s140_6.0.0.dir/__/__/mesh/core/src/bearer_event.c.obj
                0x0002dadc                bearer_event_init
 .text.bearer_event_timer_post
                0x0002db28       0x50 examples/enocean_switch/CMakeFiles/enocean_switch_nrf52840_xxAA_s140_6.0.0.dir/__/__/mesh/core/src/bearer_event.c.obj
                0x0002db28                bearer_event_timer_post
 .text.bearer_event_critical_section_begin
                0x0002db78       0x44 examples/enocean_switch/CMakeFiles/enocean_switch_nrf52840_xxAA_s140_6.0.0.dir/__/__/mesh/core/src/bearer_event.c.obj
                0x0002db78                bearer_event_critical_section_begin
 .text.bearer_event_critical_section_end
                0x0002dbbc       0x40 examples/enocean_switch/CMakeFiles/enocean_switch_nrf52840_xxAA_s140_6.0.0.dir/__/__/mesh/core/src/bearer_event.c.obj
                0x0002dbbc                bearer_event_critical_section_end
 .text.bearer_event_flag_add
                0x0002dbfc       0x40 examples/enocean_switch/CMakeFiles/enocean_switch_nrf52840_xxAA_s140_6.0.0.dir/__/__/mesh/core/src/bearer_event.c.obj
                0x0002dbfc                bearer_event_flag_add
 .text.bearer_event_flag_set
                0x0002dc3c       0x5c examples/enocean_switch/CMakeFiles/enocean_switch_nrf52840_xxAA_s140_6.0.0.dir/__/__/mesh/core/src/bearer_event.c.obj
                0x0002dc3c                bearer_event_flag_set
 .text.bearer_event_sequential_add
                0x0002dc98       0x44 examples/enocean_switch/CMakeFiles/enocean_switch_nrf52840_xxAA_s140_6.0.0.dir/__/__/mesh/core/src/bearer_event.c.obj
                0x0002dc98                bearer_event_sequential_add
 .text.bearer_event_sequential_post
                0x0002dcdc       0x64 examples/enocean_switch/CMakeFiles/enocean_switch_nrf52840_xxAA_s140_6.0.0.dir/__/__/mesh/core/src/bearer_event.c.obj
                0x0002dcdc                bearer_event_sequential_post
 .text.bearer_event_sequential_pending
                0x0002dd40       0x14 examples/enocean_switch/CMakeFiles/enocean_switch_nrf52840_xxAA_s140_6.0.0.dir/__/__/mesh/core/src/bearer_event.c.obj
                0x0002dd40                bearer_event_sequential_pending
 .text.bearer_event_handler
                0x0002dd54      0x154 examples/enocean_switch/CMakeFiles/enocean_switch_nrf52840_xxAA_s140_6.0.0.dir/__/__/mesh/core/src/bearer_event.c.obj
                0x0002dd54                bearer_event_handler
 .text.QDEC_IRQHandler
                0x0002dea8        0x4 examples/enocean_switch/CMakeFiles/enocean_switch_nrf52840_xxAA_s140_6.0.0.dir/__/__/mesh/core/src/bearer_event.c.obj
                0x0002dea8                QDEC_IRQHandler
 .text.enc_aes_encrypt
                0x0002deac        0x4 examples/enocean_switch/CMakeFiles/enocean_switch_nrf52840_xxAA_s140_6.0.0.dir/__/__/mesh/core/src/enc.c.obj
                0x0002deac                enc_aes_encrypt
 .text.enc_aes_cmac
                0x0002deb0        0x4 examples/enocean_switch/CMakeFiles/enocean_switch_nrf52840_xxAA_s140_6.0.0.dir/__/__/mesh/core/src/enc.c.obj
                0x0002deb0                enc_aes_cmac
 .text.enc_aes_ccm_encrypt
                0x0002deb4        0x4 examples/enocean_switch/CMakeFiles/enocean_switch_nrf52840_xxAA_s140_6.0.0.dir/__/__/mesh/core/src/enc.c.obj
                0x0002deb4                enc_aes_ccm_encrypt
 .text.enc_aes_ccm_decrypt
                0x0002deb8        0x4 examples/enocean_switch/CMakeFiles/enocean_switch_nrf52840_xxAA_s140_6.0.0.dir/__/__/mesh/core/src/enc.c.obj
                0x0002deb8                enc_aes_ccm_decrypt
 .text.enc_nonce_generate
                0x0002debc       0xc8 examples/enocean_switch/CMakeFiles/enocean_switch_nrf52840_xxAA_s140_6.0.0.dir/__/__/mesh/core/src/enc.c.obj
                0x0002debc                enc_nonce_generate
 .text.enc_s1   0x0002df84       0x30 examples/enocean_switch/CMakeFiles/enocean_switch_nrf52840_xxAA_s140_6.0.0.dir/__/__/mesh/core/src/enc.c.obj
                0x0002df84                enc_s1
 .text.enc_k1   0x0002dfb4       0x44 examples/enocean_switch/CMakeFiles/enocean_switch_nrf52840_xxAA_s140_6.0.0.dir/__/__/mesh/core/src/enc.c.obj
                0x0002dfb4                enc_k1
 .text.enc_k2   0x0002dff8       0xe0 examples/enocean_switch/CMakeFiles/enocean_switch_nrf52840_xxAA_s140_6.0.0.dir/__/__/mesh/core/src/enc.c.obj
                0x0002dff8                enc_k2
 .text.enc_k3   0x0002e0d8       0x68 examples/enocean_switch/CMakeFiles/enocean_switch_nrf52840_xxAA_s140_6.0.0.dir/__/__/mesh/core/src/enc.c.obj
                0x0002e0d8                enc_k3
 .text.enc_k4   0x0002e140       0x60 examples/enocean_switch/CMakeFiles/enocean_switch_nrf52840_xxAA_s140_6.0.0.dir/__/__/mesh/core/src/enc.c.obj
                0x0002e140                enc_k4
 .text.network_init
                0x0002e1a0       0x28 examples/enocean_switch/CMakeFiles/enocean_switch_nrf52840_xxAA_s140_6.0.0.dir/__/__/mesh/core/src/network.c.obj
                0x0002e1a0                network_init
 .text.network_opt_set
                0x0002e1c8       0x84 examples/enocean_switch/CMakeFiles/enocean_switch_nrf52840_xxAA_s140_6.0.0.dir/__/__/mesh/core/src/network.c.obj
                0x0002e1c8                network_opt_set
 .text.network_opt_get
                0x0002e24c       0x5c examples/enocean_switch/CMakeFiles/enocean_switch_nrf52840_xxAA_s140_6.0.0.dir/__/__/mesh/core/src/network.c.obj
                0x0002e24c                network_opt_get
 .text.network_packet_alloc
                0x0002e2a8       0x98 examples/enocean_switch/CMakeFiles/enocean_switch_nrf52840_xxAA_s140_6.0.0.dir/__/__/mesh/core/src/network.c.obj
                0x0002e2a8                network_packet_alloc
 .text.network_packet_send
                0x0002e340       0x50 examples/enocean_switch/CMakeFiles/enocean_switch_nrf52840_xxAA_s140_6.0.0.dir/__/__/mesh/core/src/network.c.obj
                0x0002e340                network_packet_send
 .text.network_packet_in
                0x0002e390      0x1c4 examples/enocean_switch/CMakeFiles/enocean_switch_nrf52840_xxAA_s140_6.0.0.dir/__/__/mesh/core/src/network.c.obj
                0x0002e390                network_packet_in
 .text.net_packet_decrypt
                0x0002e554      0x2dc examples/enocean_switch/CMakeFiles/enocean_switch_nrf52840_xxAA_s140_6.0.0.dir/__/__/mesh/core/src/net_packet.c.obj
                0x0002e554                net_packet_decrypt
 .text.net_packet_encrypt
                0x0002e830      0x100 examples/enocean_switch/CMakeFiles/enocean_switch_nrf52840_xxAA_s140_6.0.0.dir/__/__/mesh/core/src/net_packet.c.obj
                0x0002e830                net_packet_encrypt
 .text.net_packet_header_set
                0x0002e930       0xc0 examples/enocean_switch/CMakeFiles/enocean_switch_nrf52840_xxAA_s140_6.0.0.dir/__/__/mesh/core/src/net_packet.c.obj
                0x0002e930                net_packet_header_set
 .text.net_packet_payload_len_get
                0x0002e9f0       0x14 examples/enocean_switch/CMakeFiles/enocean_switch_nrf52840_xxAA_s140_6.0.0.dir/__/__/mesh/core/src/net_packet.c.obj
                0x0002e9f0                net_packet_payload_len_get
 .text.net_packet_from_payload
                0x0002ea04        0x4 examples/enocean_switch/CMakeFiles/enocean_switch_nrf52840_xxAA_s140_6.0.0.dir/__/__/mesh/core/src/net_packet.c.obj
                0x0002ea04                net_packet_from_payload
 .text.net_packet_obfuscation_start_get
                0x0002ea08        0x4 examples/enocean_switch/CMakeFiles/enocean_switch_nrf52840_xxAA_s140_6.0.0.dir/__/__/mesh/core/src/net_packet.c.obj
                0x0002ea08                net_packet_obfuscation_start_get
 .text.msq_init
                0x0002ea0c       0x64 examples/enocean_switch/CMakeFiles/enocean_switch_nrf52840_xxAA_s140_6.0.0.dir/__/__/mesh/core/src/msqueue.c.obj
                0x0002ea0c                msq_init
 .text.msq_get  0x0002ea70       0x54 examples/enocean_switch/CMakeFiles/enocean_switch_nrf52840_xxAA_s140_6.0.0.dir/__/__/mesh/core/src/msqueue.c.obj
                0x0002ea70                msq_get
 .text.msq_move
                0x0002eac4       0x4c examples/enocean_switch/CMakeFiles/enocean_switch_nrf52840_xxAA_s140_6.0.0.dir/__/__/mesh/core/src/msqueue.c.obj
                0x0002eac4                msq_move
 .text.msq_available
                0x0002eb10       0x44 examples/enocean_switch/CMakeFiles/enocean_switch_nrf52840_xxAA_s140_6.0.0.dir/__/__/mesh/core/src/msqueue.c.obj
                0x0002eb10                msq_available
 .text.nrf_mesh_keygen_aid
                0x0002eb54       0x18 examples/enocean_switch/CMakeFiles/enocean_switch_nrf52840_xxAA_s140_6.0.0.dir/__/__/mesh/core/src/nrf_mesh_keygen.c.obj
                0x0002eb54                nrf_mesh_keygen_aid
 .text.nrf_mesh_keygen_network_secmat
                0x0002eb6c       0x24 examples/enocean_switch/CMakeFiles/enocean_switch_nrf52840_xxAA_s140_6.0.0.dir/__/__/mesh/core/src/nrf_mesh_keygen.c.obj
                0x0002eb6c                nrf_mesh_keygen_network_secmat
 .text.nrf_mesh_keygen_beacon_secmat
                0x0002eb90       0x50 examples/enocean_switch/CMakeFiles/enocean_switch_nrf52840_xxAA_s140_6.0.0.dir/__/__/mesh/core/src/nrf_mesh_keygen.c.obj
                0x0002eb90                nrf_mesh_keygen_beacon_secmat
 .text.nrf_mesh_keygen_virtual_address
                0x0002ebe0       0x50 examples/enocean_switch/CMakeFiles/enocean_switch_nrf52840_xxAA_s140_6.0.0.dir/__/__/mesh/core/src/nrf_mesh_keygen.c.obj
                0x0002ebe0                nrf_mesh_keygen_virtual_address
 .text.list_add
                0x0002ec30       0x5c examples/enocean_switch/CMakeFiles/enocean_switch_nrf52840_xxAA_s140_6.0.0.dir/__/__/mesh/core/src/list.c.obj
                0x0002ec30                list_add
 .text.list_remove
                0x0002ec8c       0x44 examples/enocean_switch/CMakeFiles/enocean_switch_nrf52840_xxAA_s140_6.0.0.dir/__/__/mesh/core/src/list.c.obj
                0x0002ec8c                list_remove
 .text.list_compare_add
                0x0002ecd0       0x78 examples/enocean_switch/CMakeFiles/enocean_switch_nrf52840_xxAA_s140_6.0.0.dir/__/__/mesh/core/src/list.c.obj
                0x0002ecd0                list_compare_add
 .text.log_callback_rtt
                0x0002ed48       0x2c examples/enocean_switch/CMakeFiles/enocean_switch_nrf52840_xxAA_s140_6.0.0.dir/__/__/mesh/core/src/log.c.obj
                0x0002ed48                log_callback_rtt
 .text.log_init
                0x0002ed74       0x20 examples/enocean_switch/CMakeFiles/enocean_switch_nrf52840_xxAA_s140_6.0.0.dir/__/__/mesh/core/src/log.c.obj
                0x0002ed74                log_init
 .text.log_printf
                0x0002ed94       0x20 examples/enocean_switch/CMakeFiles/enocean_switch_nrf52840_xxAA_s140_6.0.0.dir/__/__/mesh/core/src/log.c.obj
                0x0002ed94                log_printf
 .text.process_action_queue
                0x0002edb4      0x644 examples/enocean_switch/CMakeFiles/enocean_switch_nrf52840_xxAA_s140_6.0.0.dir/__/__/mesh/core/src/flash_manager.c.obj
 .text.flash_op_ended_callback
                0x0002f3f8       0x24 examples/enocean_switch/CMakeFiles/enocean_switch_nrf52840_xxAA_s140_6.0.0.dir/__/__/mesh/core/src/flash_manager.c.obj
 .text.flash_manager_init
                0x0002f41c       0x68 examples/enocean_switch/CMakeFiles/enocean_switch_nrf52840_xxAA_s140_6.0.0.dir/__/__/mesh/core/src/flash_manager.c.obj
                0x0002f41c                flash_manager_init
 .text.flash_manager_remove
                0x0002f484       0x6c examples/enocean_switch/CMakeFiles/enocean_switch_nrf52840_xxAA_s140_6.0.0.dir/__/__/mesh/core/src/flash_manager.c.obj
                0x0002f484                flash_manager_remove
 .text.flash_manager_entry_get
                0x0002f4f0       0x48 examples/enocean_switch/CMakeFiles/enocean_switch_nrf52840_xxAA_s140_6.0.0.dir/__/__/mesh/core/src/flash_manager.c.obj
                0x0002f4f0                flash_manager_entry_get
 .text.flash_manager_entry_next_get
                0x0002f538      0x148 examples/enocean_switch/CMakeFiles/enocean_switch_nrf52840_xxAA_s140_6.0.0.dir/__/__/mesh/core/src/flash_manager.c.obj
                0x0002f538                flash_manager_entry_next_get
 .text.flash_manager_entry_alloc
                0x0002f680       0x88 examples/enocean_switch/CMakeFiles/enocean_switch_nrf52840_xxAA_s140_6.0.0.dir/__/__/mesh/core/src/flash_manager.c.obj
                0x0002f680                flash_manager_entry_alloc
 .text.flash_manager_entry_commit
                0x0002f708       0x58 examples/enocean_switch/CMakeFiles/enocean_switch_nrf52840_xxAA_s140_6.0.0.dir/__/__/mesh/core/src/flash_manager.c.obj
                0x0002f708                flash_manager_entry_commit
 .text.flash_manager_entry_invalidate
                0x0002f760       0x98 examples/enocean_switch/CMakeFiles/enocean_switch_nrf52840_xxAA_s140_6.0.0.dir/__/__/mesh/core/src/flash_manager.c.obj
                0x0002f760                flash_manager_entry_invalidate
 .text.flash_manager_add
                0x0002f7f8      0x410 examples/enocean_switch/CMakeFiles/enocean_switch_nrf52840_xxAA_s140_6.0.0.dir/__/__/mesh/core/src/flash_manager.c.obj
                0x0002f7f8                flash_manager_add
 .text.flash_manager_mem_listener_register
                0x0002fc08       0x34 examples/enocean_switch/CMakeFiles/enocean_switch_nrf52840_xxAA_s140_6.0.0.dir/__/__/mesh/core/src/flash_manager.c.obj
                0x0002fc08                flash_manager_mem_listener_register
 .text.flash_manager_is_stable
                0x0002fc3c       0x20 examples/enocean_switch/CMakeFiles/enocean_switch_nrf52840_xxAA_s140_6.0.0.dir/__/__/mesh/core/src/flash_manager.c.obj
                0x0002fc3c                flash_manager_is_stable
 .text.flash_manager_on_defrag_end
                0x0002fc5c       0x58 examples/enocean_switch/CMakeFiles/enocean_switch_nrf52840_xxAA_s140_6.0.0.dir/__/__/mesh/core/src/flash_manager.c.obj
                0x0002fc5c                flash_manager_on_defrag_end
 .text.flash_manager_recovery_page_get
                0x0002fcb4        0x4 examples/enocean_switch/CMakeFiles/enocean_switch_nrf52840_xxAA_s140_6.0.0.dir/__/__/mesh/core/src/flash_manager.c.obj
                0x0002fcb4                flash_manager_recovery_page_get
 .text.flash_manager_action_queue_empty_cb_set
                0x0002fcb8       0x20 examples/enocean_switch/CMakeFiles/enocean_switch_nrf52840_xxAA_s140_6.0.0.dir/__/__/mesh/core/src/flash_manager.c.obj
                0x0002fcb8                flash_manager_action_queue_empty_cb_set
 .text.ccm_soft_crypt.constprop.0
                0x0002fcd8      0x298 examples/enocean_switch/CMakeFiles/enocean_switch_nrf52840_xxAA_s140_6.0.0.dir/__/__/mesh/core/src/ccm_soft.c.obj
 .text.ccm_soft_authenticate
                0x0002ff70      0x324 examples/enocean_switch/CMakeFiles/enocean_switch_nrf52840_xxAA_s140_6.0.0.dir/__/__/mesh/core/src/ccm_soft.c.obj
 .text.ccm_soft_encrypt
                0x00030294       0x78 examples/enocean_switch/CMakeFiles/enocean_switch_nrf52840_xxAA_s140_6.0.0.dir/__/__/mesh/core/src/ccm_soft.c.obj
                0x00030294                ccm_soft_encrypt
 .text.ccm_soft_decrypt
                0x0003030c      0x10c examples/enocean_switch/CMakeFiles/enocean_switch_nrf52840_xxAA_s140_6.0.0.dir/__/__/mesh/core/src/ccm_soft.c.obj
                0x0003030c                ccm_soft_decrypt
 .text.replay_cache_init
                0x00030418       0x20 examples/enocean_switch/CMakeFiles/enocean_switch_nrf52840_xxAA_s140_6.0.0.dir/__/__/mesh/core/src/replay_cache.c.obj
                0x00030418                replay_cache_init
 .text.replay_cache_add
                0x00030438       0x5c examples/enocean_switch/CMakeFiles/enocean_switch_nrf52840_xxAA_s140_6.0.0.dir/__/__/mesh/core/src/replay_cache.c.obj
                0x00030438                replay_cache_add
 .text.replay_cache_has_elem
                0x00030494       0x40 examples/enocean_switch/CMakeFiles/enocean_switch_nrf52840_xxAA_s140_6.0.0.dir/__/__/mesh/core/src/replay_cache.c.obj
                0x00030494                replay_cache_has_elem
 .text.beacon_create
                0x000304d4       0x50 examples/enocean_switch/CMakeFiles/enocean_switch_nrf52840_xxAA_s140_6.0.0.dir/__/__/mesh/core/src/beacon.c.obj
                0x000304d4                beacon_create
 .text.beacon_packet_in
                0x00030524      0x174 examples/enocean_switch/CMakeFiles/enocean_switch_nrf52840_xxAA_s140_6.0.0.dir/__/__/mesh/core/src/beacon.c.obj
                0x00030524                beacon_packet_in
 .text.entry_get
                0x00030698       0x80 examples/enocean_switch/CMakeFiles/enocean_switch_nrf52840_xxAA_s140_6.0.0.dir/__/__/mesh/core/src/flash_manager_internal.c.obj
                0x00030698                entry_get
 .text.core_tx_complete_cb_set
                0x00030718        0xc examples/enocean_switch/CMakeFiles/enocean_switch_nrf52840_xxAA_s140_6.0.0.dir/__/__/mesh/core/src/core_tx.c.obj
                0x00030718                core_tx_complete_cb_set
 .text.core_tx_packet_alloc
                0x00030724       0xb4 examples/enocean_switch/CMakeFiles/enocean_switch_nrf52840_xxAA_s140_6.0.0.dir/__/__/mesh/core/src/core_tx.c.obj
                0x00030724                core_tx_packet_alloc
 .text.core_tx_packet_send
                0x000307d8       0x58 examples/enocean_switch/CMakeFiles/enocean_switch_nrf52840_xxAA_s140_6.0.0.dir/__/__/mesh/core/src/core_tx.c.obj
                0x000307d8                core_tx_packet_send
 .text.core_tx_packet_discard
                0x00030830       0x4c examples/enocean_switch/CMakeFiles/enocean_switch_nrf52840_xxAA_s140_6.0.0.dir/__/__/mesh/core/src/core_tx.c.obj
                0x00030830                core_tx_packet_discard
 .text.core_tx_complete
                0x0003087c       0x38 examples/enocean_switch/CMakeFiles/enocean_switch_nrf52840_xxAA_s140_6.0.0.dir/__/__/mesh/core/src/core_tx.c.obj
                0x0003087c                core_tx_complete
 .text.core_tx_bearer_add
                0x000308b4       0x84 examples/enocean_switch/CMakeFiles/enocean_switch_nrf52840_xxAA_s140_6.0.0.dir/__/__/mesh/core/src/core_tx.c.obj
                0x000308b4                core_tx_bearer_add
 .text.heartbeat_subscription_timer_cb
                0x00030938       0x1c examples/enocean_switch/CMakeFiles/enocean_switch_nrf52840_xxAA_s140_6.0.0.dir/__/__/mesh/core/src/heartbeat.c.obj
 .text.heartbeat_opcode_handle
                0x00030954       0x8c examples/enocean_switch/CMakeFiles/enocean_switch_nrf52840_xxAA_s140_6.0.0.dir/__/__/mesh/core/src/heartbeat.c.obj
 .text.heartbeat_send
                0x000309e0       0xbc examples/enocean_switch/CMakeFiles/enocean_switch_nrf52840_xxAA_s140_6.0.0.dir/__/__/mesh/core/src/heartbeat.c.obj
 .text.heartbeat_core_evt_cb
                0x00030a9c       0x94 examples/enocean_switch/CMakeFiles/enocean_switch_nrf52840_xxAA_s140_6.0.0.dir/__/__/mesh/core/src/heartbeat.c.obj
 .text.heartbeat_publication_timer_cb
                0x00030b30       0xb0 examples/enocean_switch/CMakeFiles/enocean_switch_nrf52840_xxAA_s140_6.0.0.dir/__/__/mesh/core/src/heartbeat.c.obj
 .text.heartbeat_on_feature_change_trigger
                0x00030be0       0x48 examples/enocean_switch/CMakeFiles/enocean_switch_nrf52840_xxAA_s140_6.0.0.dir/__/__/mesh/core/src/heartbeat.c.obj
                0x00030be0                heartbeat_on_feature_change_trigger
 .text.heartbeat_init
                0x00030c28       0x7c examples/enocean_switch/CMakeFiles/enocean_switch_nrf52840_xxAA_s140_6.0.0.dir/__/__/mesh/core/src/heartbeat.c.obj
                0x00030c28                heartbeat_init
 .text.heartbeat_subscription_set
                0x00030ca4       0xa4 examples/enocean_switch/CMakeFiles/enocean_switch_nrf52840_xxAA_s140_6.0.0.dir/__/__/mesh/core/src/heartbeat.c.obj
                0x00030ca4                heartbeat_subscription_set
 .text.heartbeat_subscription_get
                0x00030d48        0x8 examples/enocean_switch/CMakeFiles/enocean_switch_nrf52840_xxAA_s140_6.0.0.dir/__/__/mesh/core/src/heartbeat.c.obj
                0x00030d48                heartbeat_subscription_get
 .text.heartbeat_config_server_cb_set
                0x00030d50       0x38 examples/enocean_switch/CMakeFiles/enocean_switch_nrf52840_xxAA_s140_6.0.0.dir/__/__/mesh/core/src/heartbeat.c.obj
                0x00030d50                heartbeat_config_server_cb_set
 .text.heartbeat_publication_state_updated
                0x00030d88       0x78 examples/enocean_switch/CMakeFiles/enocean_switch_nrf52840_xxAA_s140_6.0.0.dir/__/__/mesh/core/src/heartbeat.c.obj
                0x00030d88                heartbeat_publication_state_updated
 .text.beacon_tx
                0x00030e00      0x194 examples/enocean_switch/CMakeFiles/enocean_switch_nrf52840_xxAA_s140_6.0.0.dir/__/__/mesh/core/src/net_beacon.c.obj
 .text.tx_complete_cb
                0x00030f94       0x10 examples/enocean_switch/CMakeFiles/enocean_switch_nrf52840_xxAA_s140_6.0.0.dir/__/__/mesh/core/src/net_beacon.c.obj
 .text.beacon_tx_timeout
                0x00030fa4        0x4 examples/enocean_switch/CMakeFiles/enocean_switch_nrf52840_xxAA_s140_6.0.0.dir/__/__/mesh/core/src/net_beacon.c.obj
 .text.net_beacon_init
                0x00030fa8       0x94 examples/enocean_switch/CMakeFiles/enocean_switch_nrf52840_xxAA_s140_6.0.0.dir/__/__/mesh/core/src/net_beacon.c.obj
                0x00030fa8                net_beacon_init
 .text.net_beacon_state_set
                0x0003103c       0x3c examples/enocean_switch/CMakeFiles/enocean_switch_nrf52840_xxAA_s140_6.0.0.dir/__/__/mesh/core/src/net_beacon.c.obj
                0x0003103c                net_beacon_state_set
 .text.net_beacon_state_get
                0x00031078        0xc examples/enocean_switch/CMakeFiles/enocean_switch_nrf52840_xxAA_s140_6.0.0.dir/__/__/mesh/core/src/net_beacon.c.obj
                0x00031078                net_beacon_state_get
 .text.net_beacon_packet_in
                0x00031084      0x14c examples/enocean_switch/CMakeFiles/enocean_switch_nrf52840_xxAA_s140_6.0.0.dir/__/__/mesh/core/src/net_beacon.c.obj
                0x00031084                net_beacon_packet_in
 .text.packet_discard
                0x000311d0       0x40 examples/enocean_switch/CMakeFiles/enocean_switch_nrf52840_xxAA_s140_6.0.0.dir/__/__/mesh/core/src/core_tx_adv.c.obj
 .text.packet_send
                0x00031210       0x58 examples/enocean_switch/CMakeFiles/enocean_switch_nrf52840_xxAA_s140_6.0.0.dir/__/__/mesh/core/src/core_tx_adv.c.obj
 .text.packet_alloc
                0x00031268       0x5c examples/enocean_switch/CMakeFiles/enocean_switch_nrf52840_xxAA_s140_6.0.0.dir/__/__/mesh/core/src/core_tx_adv.c.obj
 .text.adv_tx_complete_callback
                0x000312c4       0x28 examples/enocean_switch/CMakeFiles/enocean_switch_nrf52840_xxAA_s140_6.0.0.dir/__/__/mesh/core/src/core_tx_adv.c.obj
 .text.core_tx_adv_init
                0x000312ec       0x60 examples/enocean_switch/CMakeFiles/enocean_switch_nrf52840_xxAA_s140_6.0.0.dir/__/__/mesh/core/src/core_tx_adv.c.obj
                0x000312ec                core_tx_adv_init
 .text.core_tx_adv_count_set
                0x0003134c       0x28 examples/enocean_switch/CMakeFiles/enocean_switch_nrf52840_xxAA_s140_6.0.0.dir/__/__/mesh/core/src/core_tx_adv.c.obj
                0x0003134c                core_tx_adv_count_set
 .text.core_tx_adv_count_get
                0x00031374       0x20 examples/enocean_switch/CMakeFiles/enocean_switch_nrf52840_xxAA_s140_6.0.0.dir/__/__/mesh/core/src/core_tx_adv.c.obj
                0x00031374                core_tx_adv_count_get
 .text.core_tx_adv_interval_set
                0x00031394       0x28 examples/enocean_switch/CMakeFiles/enocean_switch_nrf52840_xxAA_s140_6.0.0.dir/__/__/mesh/core/src/core_tx_adv.c.obj
                0x00031394                core_tx_adv_interval_set
 .text.core_tx_adv_interval_get
                0x000313bc       0x2c examples/enocean_switch/CMakeFiles/enocean_switch_nrf52840_xxAA_s140_6.0.0.dir/__/__/mesh/core/src/core_tx_adv.c.obj
                0x000313bc                core_tx_adv_interval_get
 .text.ad_listener_subscribe
                0x000313e8       0x60 examples/enocean_switch/CMakeFiles/enocean_switch_nrf52840_xxAA_s140_6.0.0.dir/__/__/mesh/bearer/src/ad_listener.c.obj
                0x000313e8                ad_listener_subscribe
 .text.ad_listener_process
                0x00031448       0x7c examples/enocean_switch/CMakeFiles/enocean_switch_nrf52840_xxAA_s140_6.0.0.dir/__/__/mesh/bearer/src/ad_listener.c.obj
                0x00031448                ad_listener_process
 .text.adtype_filter_handle
                0x000314c4       0x98 examples/enocean_switch/CMakeFiles/enocean_switch_nrf52840_xxAA_s140_6.0.0.dir/__/__/mesh/bearer/src/ad_type_filter.c.obj
 .text.bearer_adtype_filtering_set
                0x0003155c       0x1c examples/enocean_switch/CMakeFiles/enocean_switch_nrf52840_xxAA_s140_6.0.0.dir/__/__/mesh/bearer/src/ad_type_filter.c.obj
                0x0003155c                bearer_adtype_filtering_set
 .text.bearer_adtype_add
                0x00031578       0x24 examples/enocean_switch/CMakeFiles/enocean_switch_nrf52840_xxAA_s140_6.0.0.dir/__/__/mesh/bearer/src/ad_type_filter.c.obj
                0x00031578                bearer_adtype_add
 .text.bearer_adtype_mode_set
                0x0003159c       0x18 examples/enocean_switch/CMakeFiles/enocean_switch_nrf52840_xxAA_s140_6.0.0.dir/__/__/mesh/bearer/src/ad_type_filter.c.obj
                0x0003159c                bearer_adtype_mode_set
 .text.tx_complete_event_callback
                0x000315b4       0x2c examples/enocean_switch/CMakeFiles/enocean_switch_nrf52840_xxAA_s140_6.0.0.dir/__/__/mesh/bearer/src/advertiser.c.obj
 .text.broadcast_complete_cb
                0x000315e0       0x48 examples/enocean_switch/CMakeFiles/enocean_switch_nrf52840_xxAA_s140_6.0.0.dir/__/__/mesh/bearer/src/advertiser.c.obj
 .text.timeout_event
                0x00031628      0x120 examples/enocean_switch/CMakeFiles/enocean_switch_nrf52840_xxAA_s140_6.0.0.dir/__/__/mesh/bearer/src/advertiser.c.obj
 .text.advertiser_init
                0x00031748        0xc examples/enocean_switch/CMakeFiles/enocean_switch_nrf52840_xxAA_s140_6.0.0.dir/__/__/mesh/bearer/src/advertiser.c.obj
                0x00031748                advertiser_init
 .text.advertiser_instance_init
                0x00031754       0xfc examples/enocean_switch/CMakeFiles/enocean_switch_nrf52840_xxAA_s140_6.0.0.dir/__/__/mesh/bearer/src/advertiser.c.obj
                0x00031754                advertiser_instance_init
 .text.advertiser_enable
                0x00031850       0x44 examples/enocean_switch/CMakeFiles/enocean_switch_nrf52840_xxAA_s140_6.0.0.dir/__/__/mesh/bearer/src/advertiser.c.obj
                0x00031850                advertiser_enable
 .text.advertiser_packet_alloc
                0x00031894       0x80 examples/enocean_switch/CMakeFiles/enocean_switch_nrf52840_xxAA_s140_6.0.0.dir/__/__/mesh/bearer/src/advertiser.c.obj
                0x00031894                advertiser_packet_alloc
 .text.advertiser_packet_send
                0x00031914       0x80 examples/enocean_switch/CMakeFiles/enocean_switch_nrf52840_xxAA_s140_6.0.0.dir/__/__/mesh/bearer/src/advertiser.c.obj
                0x00031914                advertiser_packet_send
 .text.advertiser_packet_discard
                0x00031994       0x2c examples/enocean_switch/CMakeFiles/enocean_switch_nrf52840_xxAA_s140_6.0.0.dir/__/__/mesh/bearer/src/advertiser.c.obj
                0x00031994                advertiser_packet_discard
 .text.advertiser_interval_set
                0x000319c0       0x70 examples/enocean_switch/CMakeFiles/enocean_switch_nrf52840_xxAA_s140_6.0.0.dir/__/__/mesh/bearer/src/advertiser.c.obj
                0x000319c0                advertiser_interval_set
 .text.advertiser_flush
                0x00031a30       0x20 examples/enocean_switch/CMakeFiles/enocean_switch_nrf52840_xxAA_s140_6.0.0.dir/__/__/mesh/bearer/src/advertiser.c.obj
                0x00031a30                advertiser_flush
 .text.action_switch.part.2
                0x00031a50       0xb4 examples/enocean_switch/CMakeFiles/enocean_switch_nrf52840_xxAA_s140_6.0.0.dir/__/__/mesh/bearer/src/bearer_handler.c.obj
 .text.bearer_handler_init
                0x00031b04       0x2c examples/enocean_switch/CMakeFiles/enocean_switch_nrf52840_xxAA_s140_6.0.0.dir/__/__/mesh/bearer/src/bearer_handler.c.obj
                0x00031b04                bearer_handler_init
 .text.bearer_handler_start
                0x00031b30       0x1c examples/enocean_switch/CMakeFiles/enocean_switch_nrf52840_xxAA_s140_6.0.0.dir/__/__/mesh/bearer/src/bearer_handler.c.obj
                0x00031b30                bearer_handler_start
 .text.bearer_handler_action_enqueue
                0x00031b4c       0x7c examples/enocean_switch/CMakeFiles/enocean_switch_nrf52840_xxAA_s140_6.0.0.dir/__/__/mesh/bearer/src/bearer_handler.c.obj
                0x00031b4c                bearer_handler_action_enqueue
 .text.bearer_handler_action_end
                0x00031bc8       0x68 examples/enocean_switch/CMakeFiles/enocean_switch_nrf52840_xxAA_s140_6.0.0.dir/__/__/mesh/bearer/src/bearer_handler.c.obj
                0x00031bc8                bearer_handler_action_end
 .text.bearer_handler_radio_irq_handler
                0x00031c30       0x54 examples/enocean_switch/CMakeFiles/enocean_switch_nrf52840_xxAA_s140_6.0.0.dir/__/__/mesh/bearer/src/bearer_handler.c.obj
                0x00031c30                bearer_handler_radio_irq_handler
 .text.bearer_handler_timer_irq_handler
                0x00031c84       0x34 examples/enocean_switch/CMakeFiles/enocean_switch_nrf52840_xxAA_s140_6.0.0.dir/__/__/mesh/bearer/src/bearer_handler.c.obj
                0x00031c84                bearer_handler_timer_irq_handler
 .text.bearer_handler_on_ts_begin
                0x00031cb8       0x3c examples/enocean_switch/CMakeFiles/enocean_switch_nrf52840_xxAA_s140_6.0.0.dir/__/__/mesh/bearer/src/bearer_handler.c.obj
                0x00031cb8                bearer_handler_on_ts_begin
 .text.bearer_handler_on_ts_end
                0x00031cf4       0x34 examples/enocean_switch/CMakeFiles/enocean_switch_nrf52840_xxAA_s140_6.0.0.dir/__/__/mesh/bearer/src/bearer_handler.c.obj
                0x00031cf4                bearer_handler_on_ts_end
 .text.radio_irq_handler
                0x00031d28       0x98 examples/enocean_switch/CMakeFiles/enocean_switch_nrf52840_xxAA_s140_6.0.0.dir/__/__/mesh/bearer/src/broadcast.c.obj
 .text.broadcast_start
                0x00031dc0       0x8c examples/enocean_switch/CMakeFiles/enocean_switch_nrf52840_xxAA_s140_6.0.0.dir/__/__/mesh/bearer/src/broadcast.c.obj
 .text.broadcast_send
                0x00031e4c       0x74 examples/enocean_switch/CMakeFiles/enocean_switch_nrf52840_xxAA_s140_6.0.0.dir/__/__/mesh/bearer/src/broadcast.c.obj
                0x00031e4c                broadcast_send
 .text.fen_filter_start
                0x00031ec0       0x38 examples/enocean_switch/CMakeFiles/enocean_switch_nrf52840_xxAA_s140_6.0.0.dir/__/__/mesh/bearer/src/filter_engine.c.obj
                0x00031ec0                fen_filter_start
 .text.fen_filter_stop
                0x00031ef8       0x2c examples/enocean_switch/CMakeFiles/enocean_switch_nrf52840_xxAA_s140_6.0.0.dir/__/__/mesh/bearer/src/filter_engine.c.obj
                0x00031ef8                fen_filter_stop
 .text.fen_filters_apply
                0x00031f24       0x38 examples/enocean_switch/CMakeFiles/enocean_switch_nrf52840_xxAA_s140_6.0.0.dir/__/__/mesh/bearer/src/filter_engine.c.obj
                0x00031f24                fen_filters_apply
 .text.radio_config_reset
                0x00031f5c       0x38 examples/enocean_switch/CMakeFiles/enocean_switch_nrf52840_xxAA_s140_6.0.0.dir/__/__/mesh/bearer/src/radio_config.c.obj
                0x00031f5c                radio_config_reset
 .text.radio_config_channel_set
                0x00031f94       0x28 examples/enocean_switch/CMakeFiles/enocean_switch_nrf52840_xxAA_s140_6.0.0.dir/__/__/mesh/bearer/src/radio_config.c.obj
                0x00031f94                radio_config_channel_set
 .text.radio_config_config
                0x00031fbc       0x90 examples/enocean_switch/CMakeFiles/enocean_switch_nrf52840_xxAA_s140_6.0.0.dir/__/__/mesh/bearer/src/radio_config.c.obj
                0x00031fbc                radio_config_config
 .text.radio_config_access_addr_set
                0x0003204c       0x54 examples/enocean_switch/CMakeFiles/enocean_switch_nrf52840_xxAA_s140_6.0.0.dir/__/__/mesh/bearer/src/radio_config.c.obj
                0x0003204c                radio_config_access_addr_set
 .text.scan_window_end
                0x000320a0       0x28 examples/enocean_switch/CMakeFiles/enocean_switch_nrf52840_xxAA_s140_6.0.0.dir/__/__/mesh/bearer/src/scanner.c.obj
 .text.scan_window_start
                0x000320c8       0x38 examples/enocean_switch/CMakeFiles/enocean_switch_nrf52840_xxAA_s140_6.0.0.dir/__/__/mesh/bearer/src/scanner.c.obj
 .text.radio_start
                0x00032100      0x188 examples/enocean_switch/CMakeFiles/enocean_switch_nrf52840_xxAA_s140_6.0.0.dir/__/__/mesh/bearer/src/scanner.c.obj
 .text.scanner_radio_start
                0x00032288      0x14c examples/enocean_switch/CMakeFiles/enocean_switch_nrf52840_xxAA_s140_6.0.0.dir/__/__/mesh/bearer/src/scanner.c.obj
                0x00032288                scanner_radio_start
 .text.scanner_radio_stop
                0x000323d4       0x34 examples/enocean_switch/CMakeFiles/enocean_switch_nrf52840_xxAA_s140_6.0.0.dir/__/__/mesh/bearer/src/scanner.c.obj
                0x000323d4                scanner_radio_stop
 .text.scanner_radio_irq_handler
                0x00032408      0x204 examples/enocean_switch/CMakeFiles/enocean_switch_nrf52840_xxAA_s140_6.0.0.dir/__/__/mesh/bearer/src/scanner.c.obj
                0x00032408                scanner_radio_irq_handler
 .text.scanner_enable
                0x0003260c       0x54 examples/enocean_switch/CMakeFiles/enocean_switch_nrf52840_xxAA_s140_6.0.0.dir/__/__/mesh/bearer/src/scanner.c.obj
                0x0003260c                scanner_enable
 .text.scanner_rx
                0x00032660       0x78 examples/enocean_switch/CMakeFiles/enocean_switch_nrf52840_xxAA_s140_6.0.0.dir/__/__/mesh/bearer/src/scanner.c.obj
                0x00032660                scanner_rx
 .text.scanner_packet_release
                0x000326d8       0x40 examples/enocean_switch/CMakeFiles/enocean_switch_nrf52840_xxAA_s140_6.0.0.dir/__/__/mesh/bearer/src/scanner.c.obj
                0x000326d8                scanner_packet_release
 .text.scanner_rx_pending
                0x00032718        0xc examples/enocean_switch/CMakeFiles/enocean_switch_nrf52840_xxAA_s140_6.0.0.dir/__/__/mesh/bearer/src/scanner.c.obj
                0x00032718                scanner_rx_pending
 .text.scanner_config_reset
                0x00032724       0xa8 examples/enocean_switch/CMakeFiles/enocean_switch_nrf52840_xxAA_s140_6.0.0.dir/__/__/mesh/bearer/src/scanner.c.obj
                0x00032724                scanner_config_reset
 .text.scanner_init
                0x000327cc       0x54 examples/enocean_switch/CMakeFiles/enocean_switch_nrf52840_xxAA_s140_6.0.0.dir/__/__/mesh/bearer/src/scanner.c.obj
                0x000327cc                scanner_init
 .text.handle_publish_timeout
                0x00032820        0x8 examples/enocean_switch/CMakeFiles/enocean_switch_nrf52840_xxAA_s140_6.0.0.dir/__/__/models/simple_on_off/src/simple_on_off_client.c.obj
 .text.reliable_status_cb
                0x00032828       0x7c examples/enocean_switch/CMakeFiles/enocean_switch_nrf52840_xxAA_s140_6.0.0.dir/__/__/models/simple_on_off/src/simple_on_off_client.c.obj
 .text.handle_status_cb
                0x000328a4       0x54 examples/enocean_switch/CMakeFiles/enocean_switch_nrf52840_xxAA_s140_6.0.0.dir/__/__/models/simple_on_off/src/simple_on_off_client.c.obj
 .text.simple_on_off_client_init
                0x000328f8       0x44 examples/enocean_switch/CMakeFiles/enocean_switch_nrf52840_xxAA_s140_6.0.0.dir/__/__/models/simple_on_off/src/simple_on_off_client.c.obj
                0x000328f8                simple_on_off_client_init
 .text.simple_on_off_client_set
                0x0003293c       0x74 examples/enocean_switch/CMakeFiles/enocean_switch_nrf52840_xxAA_s140_6.0.0.dir/__/__/models/simple_on_off/src/simple_on_off_client.c.obj
                0x0003293c                simple_on_off_client_set
 .text.simple_on_off_client_set_unreliable
                0x000329b0       0x5c examples/enocean_switch/CMakeFiles/enocean_switch_nrf52840_xxAA_s140_6.0.0.dir/__/__/models/simple_on_off/src/simple_on_off_client.c.obj
                0x000329b0                simple_on_off_client_set_unreliable
 .text.config_composition_data_get
                0x00032a0c      0x1ec examples/enocean_switch/CMakeFiles/enocean_switch_nrf52840_xxAA_s140_6.0.0.dir/__/__/models/config/src/composition_data.c.obj
                0x00032a0c                config_composition_data_get
 .text.config_server_heartbeat_publication_count_decrement
                0x00032bf8       0x1c examples/enocean_switch/CMakeFiles/enocean_switch_nrf52840_xxAA_s140_6.0.0.dir/__/__/models/config/src/config_server.c.obj
 .text.config_server_heartbeat_publication_params_get
                0x00032c14       0x38 examples/enocean_switch/CMakeFiles/enocean_switch_nrf52840_xxAA_s140_6.0.0.dir/__/__/models/config/src/config_server.c.obj
 .text.handle_config_network_transmit_set
                0x00032c4c      0x11c examples/enocean_switch/CMakeFiles/enocean_switch_nrf52840_xxAA_s140_6.0.0.dir/__/__/models/config/src/config_server.c.obj
 .text.handle_node_reset
                0x00032d68       0x30 examples/enocean_switch/CMakeFiles/enocean_switch_nrf52840_xxAA_s140_6.0.0.dir/__/__/models/config/src/config_server.c.obj
 .text.handle_config_relay_set
                0x00032d98      0x1b0 examples/enocean_switch/CMakeFiles/enocean_switch_nrf52840_xxAA_s140_6.0.0.dir/__/__/models/config/src/config_server.c.obj
 .text.handle_config_gatt_proxy_set
                0x00032f48       0x38 examples/enocean_switch/CMakeFiles/enocean_switch_nrf52840_xxAA_s140_6.0.0.dir/__/__/models/config/src/config_server.c.obj
 .text.handle_netkey_get
                0x00032f80       0x68 examples/enocean_switch/CMakeFiles/enocean_switch_nrf52840_xxAA_s140_6.0.0.dir/__/__/models/config/src/config_server.c.obj
 .text.handle_model_app_bind_unbind
                0x00032fe8      0x238 examples/enocean_switch/CMakeFiles/enocean_switch_nrf52840_xxAA_s140_6.0.0.dir/__/__/models/config/src/config_server.c.obj
 .text.status_error_sub_send
                0x00033220      0x184 examples/enocean_switch/CMakeFiles/enocean_switch_nrf52840_xxAA_s140_6.0.0.dir/__/__/models/config/src/config_server.c.obj
 .text.handle_config_model_subscription_overwrite
                0x000333a4      0x1f8 examples/enocean_switch/CMakeFiles/enocean_switch_nrf52840_xxAA_s140_6.0.0.dir/__/__/models/config/src/config_server.c.obj
 .text.send_publication_status
                0x0003359c      0x1a4 examples/enocean_switch/CMakeFiles/enocean_switch_nrf52840_xxAA_s140_6.0.0.dir/__/__/models/config/src/config_server.c.obj
 .text.handle_config_key_refresh_phase_set
                0x00033740       0xf0 examples/enocean_switch/CMakeFiles/enocean_switch_nrf52840_xxAA_s140_6.0.0.dir/__/__/models/config/src/config_server.c.obj
 .text.handle_config_default_ttl_set
                0x00033830       0x70 examples/enocean_switch/CMakeFiles/enocean_switch_nrf52840_xxAA_s140_6.0.0.dir/__/__/models/config/src/config_server.c.obj
 .text.handle_heartbeat_publication_set
                0x000338a0      0x170 examples/enocean_switch/CMakeFiles/enocean_switch_nrf52840_xxAA_s140_6.0.0.dir/__/__/models/config/src/config_server.c.obj
 .text.mesh_event_cb
                0x00033a10       0x70 examples/enocean_switch/CMakeFiles/enocean_switch_nrf52840_xxAA_s140_6.0.0.dir/__/__/models/config/src/config_server.c.obj
 .text.handle_node_identity_set
                0x00033a80       0x48 examples/enocean_switch/CMakeFiles/enocean_switch_nrf52840_xxAA_s140_6.0.0.dir/__/__/models/config/src/config_server.c.obj
 .text.handle_node_identity_get
                0x00033ac8       0x44 examples/enocean_switch/CMakeFiles/enocean_switch_nrf52840_xxAA_s140_6.0.0.dir/__/__/models/config/src/config_server.c.obj
 .text.handle_config_friend_set
                0x00033b0c       0x38 examples/enocean_switch/CMakeFiles/enocean_switch_nrf52840_xxAA_s140_6.0.0.dir/__/__/models/config/src/config_server.c.obj
 .text.status_error_pub_send
                0x00033b44       0xc8 examples/enocean_switch/CMakeFiles/enocean_switch_nrf52840_xxAA_s140_6.0.0.dir/__/__/models/config/src/config_server.c.obj
 .text.handle_config_model_publication_get
                0x00033c0c       0xb0 examples/enocean_switch/CMakeFiles/enocean_switch_nrf52840_xxAA_s140_6.0.0.dir/__/__/models/config/src/config_server.c.obj
 .text.handle_config_model_publication_set
                0x00033cbc      0x32c examples/enocean_switch/CMakeFiles/enocean_switch_nrf52840_xxAA_s140_6.0.0.dir/__/__/models/config/src/config_server.c.obj
 .text.handle_config_key_refresh_phase_get
                0x00033fe8       0x70 examples/enocean_switch/CMakeFiles/enocean_switch_nrf52840_xxAA_s140_6.0.0.dir/__/__/models/config/src/config_server.c.obj
 .text.handle_config_default_ttl_get
                0x00034058       0x48 examples/enocean_switch/CMakeFiles/enocean_switch_nrf52840_xxAA_s140_6.0.0.dir/__/__/models/config/src/config_server.c.obj
 .text.handle_config_beacon_set
                0x000340a0       0x80 examples/enocean_switch/CMakeFiles/enocean_switch_nrf52840_xxAA_s140_6.0.0.dir/__/__/models/config/src/config_server.c.obj
 .text.handle_composition_data_get
                0x00034120       0x64 examples/enocean_switch/CMakeFiles/enocean_switch_nrf52840_xxAA_s140_6.0.0.dir/__/__/models/config/src/config_server.c.obj
 .text.handle_appkey_delete
                0x00034184      0x124 examples/enocean_switch/CMakeFiles/enocean_switch_nrf52840_xxAA_s140_6.0.0.dir/__/__/models/config/src/config_server.c.obj
 .text.handle_model_app_get
                0x000342a8      0x220 examples/enocean_switch/CMakeFiles/enocean_switch_nrf52840_xxAA_s140_6.0.0.dir/__/__/models/config/src/config_server.c.obj
 .text.handle_config_vendor_model_subscription_get
                0x000344c8      0x190 examples/enocean_switch/CMakeFiles/enocean_switch_nrf52840_xxAA_s140_6.0.0.dir/__/__/models/config/src/config_server.c.obj
 .text.handle_appkey_get
                0x00034658      0x104 examples/enocean_switch/CMakeFiles/enocean_switch_nrf52840_xxAA_s140_6.0.0.dir/__/__/models/config/src/config_server.c.obj
 .text.handle_heartbeat_subscription_get
                0x0003475c       0xd8 examples/enocean_switch/CMakeFiles/enocean_switch_nrf52840_xxAA_s140_6.0.0.dir/__/__/models/config/src/config_server.c.obj
 .text.handle_config_gatt_proxy_get
                0x00034834       0x38 examples/enocean_switch/CMakeFiles/enocean_switch_nrf52840_xxAA_s140_6.0.0.dir/__/__/models/config/src/config_server.c.obj
 .text.handle_heartbeat_subscription_set
                0x0003486c      0x110 examples/enocean_switch/CMakeFiles/enocean_switch_nrf52840_xxAA_s140_6.0.0.dir/__/__/models/config/src/config_server.c.obj
 .text.handle_config_friend_get
                0x0003497c       0x38 examples/enocean_switch/CMakeFiles/enocean_switch_nrf52840_xxAA_s140_6.0.0.dir/__/__/models/config/src/config_server.c.obj
 .text.handle_heartbeat_publication_get
                0x000349b4       0xcc examples/enocean_switch/CMakeFiles/enocean_switch_nrf52840_xxAA_s140_6.0.0.dir/__/__/models/config/src/config_server.c.obj
 .text.handle_config_beacon_get
                0x00034a80       0x40 examples/enocean_switch/CMakeFiles/enocean_switch_nrf52840_xxAA_s140_6.0.0.dir/__/__/models/config/src/config_server.c.obj
 .text.handle_config_sig_model_subscription_get
                0x00034ac0      0x158 examples/enocean_switch/CMakeFiles/enocean_switch_nrf52840_xxAA_s140_6.0.0.dir/__/__/models/config/src/config_server.c.obj
 .text.handle_appkey_update
                0x00034c18      0x11c examples/enocean_switch/CMakeFiles/enocean_switch_nrf52840_xxAA_s140_6.0.0.dir/__/__/models/config/src/config_server.c.obj
 .text.handle_appkey_add
                0x00034d34      0x12c examples/enocean_switch/CMakeFiles/enocean_switch_nrf52840_xxAA_s140_6.0.0.dir/__/__/models/config/src/config_server.c.obj
 .text.handle_netkey_add_update
                0x00034e60       0xe8 examples/enocean_switch/CMakeFiles/enocean_switch_nrf52840_xxAA_s140_6.0.0.dir/__/__/models/config/src/config_server.c.obj
 .text.handle_netkey_delete
                0x00034f48      0x148 examples/enocean_switch/CMakeFiles/enocean_switch_nrf52840_xxAA_s140_6.0.0.dir/__/__/models/config/src/config_server.c.obj
 .text.handle_config_network_transmit_get
                0x00035090       0x9c examples/enocean_switch/CMakeFiles/enocean_switch_nrf52840_xxAA_s140_6.0.0.dir/__/__/models/config/src/config_server.c.obj
 .text.handle_config_relay_get
                0x0003512c       0xd8 examples/enocean_switch/CMakeFiles/enocean_switch_nrf52840_xxAA_s140_6.0.0.dir/__/__/models/config/src/config_server.c.obj
 .text.handle_config_model_subscription_virtual_address_delete
                0x00035204      0x184 examples/enocean_switch/CMakeFiles/enocean_switch_nrf52840_xxAA_s140_6.0.0.dir/__/__/models/config/src/config_server.c.obj
 .text.handle_config_model_subscription_delete_all
                0x00035388      0x1b0 examples/enocean_switch/CMakeFiles/enocean_switch_nrf52840_xxAA_s140_6.0.0.dir/__/__/models/config/src/config_server.c.obj
 .text.handle_config_model_subscription_virtual_address_add
                0x00035538      0x180 examples/enocean_switch/CMakeFiles/enocean_switch_nrf52840_xxAA_s140_6.0.0.dir/__/__/models/config/src/config_server.c.obj
 .text.handle_config_model_subscription_delete
                0x000356b8      0x17c examples/enocean_switch/CMakeFiles/enocean_switch_nrf52840_xxAA_s140_6.0.0.dir/__/__/models/config/src/config_server.c.obj
 .text.handle_config_model_subscription_virtual_address_overwrite
                0x00035834      0x214 examples/enocean_switch/CMakeFiles/enocean_switch_nrf52840_xxAA_s140_6.0.0.dir/__/__/models/config/src/config_server.c.obj
 .text.handle_config_model_subscription_add
                0x00035a48      0x174 examples/enocean_switch/CMakeFiles/enocean_switch_nrf52840_xxAA_s140_6.0.0.dir/__/__/models/config/src/config_server.c.obj
 .text.config_server_init
                0x00035bbc       0x64 examples/enocean_switch/CMakeFiles/enocean_switch_nrf52840_xxAA_s140_6.0.0.dir/__/__/models/config/src/config_server.c.obj
                0x00035bbc                config_server_init
 .text.config_server_bind
                0x00035c20       0x10 examples/enocean_switch/CMakeFiles/enocean_switch_nrf52840_xxAA_s140_6.0.0.dir/__/__/models/config/src/config_server.c.obj
                0x00035c20                config_server_bind
 .text.packed_index_list_create
                0x00035c30       0x38 examples/enocean_switch/CMakeFiles/enocean_switch_nrf52840_xxAA_s140_6.0.0.dir/__/__/models/config/src/packed_index_list.c.obj
                0x00035c30                packed_index_list_create
 .text.attention_timer_handler
                0x00035c68       0x6c examples/enocean_switch/CMakeFiles/enocean_switch_nrf52840_xxAA_s140_6.0.0.dir/__/__/models/health/src/health_server.c.obj
 .text.handle_attention_get
                0x00035cd4       0x3c examples/enocean_switch/CMakeFiles/enocean_switch_nrf52840_xxAA_s140_6.0.0.dir/__/__/models/health/src/health_server.c.obj
 .text.handle_period_get
                0x00035d10       0x38 examples/enocean_switch/CMakeFiles/enocean_switch_nrf52840_xxAA_s140_6.0.0.dir/__/__/models/health/src/health_server.c.obj
 .text.handle_attention_set
                0x00035d48       0xd8 examples/enocean_switch/CMakeFiles/enocean_switch_nrf52840_xxAA_s140_6.0.0.dir/__/__/models/health/src/health_server.c.obj
 .text.handle_period_set
                0x00035e20       0x50 examples/enocean_switch/CMakeFiles/enocean_switch_nrf52840_xxAA_s140_6.0.0.dir/__/__/models/health/src/health_server.c.obj
 .text.send_fault_status
                0x00035e70      0x37c examples/enocean_switch/CMakeFiles/enocean_switch_nrf52840_xxAA_s140_6.0.0.dir/__/__/models/health/src/health_server.c.obj
 .text.health_publish_timeout_handler
                0x000361ec        0xc examples/enocean_switch/CMakeFiles/enocean_switch_nrf52840_xxAA_s140_6.0.0.dir/__/__/models/health/src/health_server.c.obj
 .text.handle_fault_test
                0x000361f8       0x7c examples/enocean_switch/CMakeFiles/enocean_switch_nrf52840_xxAA_s140_6.0.0.dir/__/__/models/health/src/health_server.c.obj
 .text.handle_fault_clear
                0x00036274       0x48 examples/enocean_switch/CMakeFiles/enocean_switch_nrf52840_xxAA_s140_6.0.0.dir/__/__/models/health/src/health_server.c.obj
 .text.handle_fault_get
                0x000362bc       0x34 examples/enocean_switch/CMakeFiles/enocean_switch_nrf52840_xxAA_s140_6.0.0.dir/__/__/models/health/src/health_server.c.obj
 .text.health_server_init
                0x000362f0       0x74 examples/enocean_switch/CMakeFiles/enocean_switch_nrf52840_xxAA_s140_6.0.0.dir/__/__/models/health/src/health_server.c.obj
                0x000362f0                health_server_init
 .text.schedule_publication_timer
                0x00036364      0x2c4 examples/enocean_switch/CMakeFiles/enocean_switch_nrf52840_xxAA_s140_6.0.0.dir/__/__/mesh/access/src/access_publish.c.obj
 .text.publish_timer_tick
                0x00036628      0x134 examples/enocean_switch/CMakeFiles/enocean_switch_nrf52840_xxAA_s140_6.0.0.dir/__/__/mesh/access/src/access_publish.c.obj
 .text.access_publish_init
                0x0003675c       0x38 examples/enocean_switch/CMakeFiles/enocean_switch_nrf52840_xxAA_s140_6.0.0.dir/__/__/mesh/access/src/access_publish.c.obj
                0x0003675c                access_publish_init
 .text.access_publish_period_set
                0x00036794      0x12c examples/enocean_switch/CMakeFiles/enocean_switch_nrf52840_xxAA_s140_6.0.0.dir/__/__/mesh/access/src/access_publish.c.obj
                0x00036794                access_publish_period_set
 .text.access_publish_period_get
                0x000368c0       0x2c examples/enocean_switch/CMakeFiles/enocean_switch_nrf52840_xxAA_s140_6.0.0.dir/__/__/mesh/access/src/access_publish.c.obj
                0x000368c0                access_publish_period_get
 .text.flash_manager_mem_available
                0x000368ec        0x4 examples/enocean_switch/CMakeFiles/enocean_switch_nrf52840_xxAA_s140_6.0.0.dir/__/__/mesh/access/src/access.c.obj
 .text.flash_invalidate_complete
                0x000368f0        0x8 examples/enocean_switch/CMakeFiles/enocean_switch_nrf52840_xxAA_s140_6.0.0.dir/__/__/mesh/access/src/access.c.obj
 .text.access_flash_config_clear
                0x000368f8       0x28 examples/enocean_switch/CMakeFiles/enocean_switch_nrf52840_xxAA_s140_6.0.0.dir/__/__/mesh/access/src/access.c.obj
 .text.access_flash_config_store
                0x00036920      0x154 examples/enocean_switch/CMakeFiles/enocean_switch_nrf52840_xxAA_s140_6.0.0.dir/__/__/mesh/access/src/access.c.obj
                0x00036920                access_flash_config_store
 .text.handle_incoming
                0x00036a74      0x194 examples/enocean_switch/CMakeFiles/enocean_switch_nrf52840_xxAA_s140_6.0.0.dir/__/__/mesh/access/src/access.c.obj
 .text.mesh_evt_cb
                0x00036c08      0x164 examples/enocean_switch/CMakeFiles/enocean_switch_nrf52840_xxAA_s140_6.0.0.dir/__/__/mesh/access/src/access.c.obj
 .text.add_flash_manager
                0x00036d6c       0x58 examples/enocean_switch/CMakeFiles/enocean_switch_nrf52840_xxAA_s140_6.0.0.dir/__/__/mesh/access/src/access.c.obj
 .text.flash_write_complete
                0x00036dc4       0x4c examples/enocean_switch/CMakeFiles/enocean_switch_nrf52840_xxAA_s140_6.0.0.dir/__/__/mesh/access/src/access.c.obj
 .text.flash_remove_complete
                0x00036e10      0x158 examples/enocean_switch/CMakeFiles/enocean_switch_nrf52840_xxAA_s140_6.0.0.dir/__/__/mesh/access/src/access.c.obj
 .text.access_flash_config_load
                0x00036f68      0x328 examples/enocean_switch/CMakeFiles/enocean_switch_nrf52840_xxAA_s140_6.0.0.dir/__/__/mesh/access/src/access.c.obj
                0x00036f68                access_flash_config_load
 .text.access_clear
                0x00037290       0x88 examples/enocean_switch/CMakeFiles/enocean_switch_nrf52840_xxAA_s140_6.0.0.dir/__/__/mesh/access/src/access.c.obj
                0x00037290                access_clear
 .text.access_init
                0x00037318       0xd0 examples/enocean_switch/CMakeFiles/enocean_switch_nrf52840_xxAA_s140_6.0.0.dir/__/__/mesh/access/src/access.c.obj
                0x00037318                access_init
 .text.access_model_add
                0x000373e8      0x2d0 examples/enocean_switch/CMakeFiles/enocean_switch_nrf52840_xxAA_s140_6.0.0.dir/__/__/mesh/access/src/access.c.obj
                0x000373e8                access_model_add
 .text.access_model_publish
                0x000376b8      0x3bc examples/enocean_switch/CMakeFiles/enocean_switch_nrf52840_xxAA_s140_6.0.0.dir/__/__/mesh/access/src/access.c.obj
                0x000376b8                access_model_publish
 .text.access_model_reply
                0x00037a74      0x3d8 examples/enocean_switch/CMakeFiles/enocean_switch_nrf52840_xxAA_s140_6.0.0.dir/__/__/mesh/access/src/access.c.obj
                0x00037a74                access_model_reply
 .text.access_model_publish_address_set
                0x00037e4c       0x3c examples/enocean_switch/CMakeFiles/enocean_switch_nrf52840_xxAA_s140_6.0.0.dir/__/__/mesh/access/src/access.c.obj
                0x00037e4c                access_model_publish_address_set
 .text.access_model_publish_address_get
                0x00037e88       0x2c examples/enocean_switch/CMakeFiles/enocean_switch_nrf52840_xxAA_s140_6.0.0.dir/__/__/mesh/access/src/access.c.obj
                0x00037e88                access_model_publish_address_get
 .text.access_model_publish_retransmit_set
                0x00037eb4       0x58 examples/enocean_switch/CMakeFiles/enocean_switch_nrf52840_xxAA_s140_6.0.0.dir/__/__/mesh/access/src/access.c.obj
                0x00037eb4                access_model_publish_retransmit_set
 .text.access_model_publish_retransmit_get
                0x00037f0c       0x2c examples/enocean_switch/CMakeFiles/enocean_switch_nrf52840_xxAA_s140_6.0.0.dir/__/__/mesh/access/src/access.c.obj
                0x00037f0c                access_model_publish_retransmit_get
 .text.access_model_publish_period_set
                0x00037f38       0x78 examples/enocean_switch/CMakeFiles/enocean_switch_nrf52840_xxAA_s140_6.0.0.dir/__/__/mesh/access/src/access.c.obj
                0x00037f38                access_model_publish_period_set
 .text.access_model_publish_period_get
                0x00037fb0       0x40 examples/enocean_switch/CMakeFiles/enocean_switch_nrf52840_xxAA_s140_6.0.0.dir/__/__/mesh/access/src/access.c.obj
                0x00037fb0                access_model_publish_period_get
 .text.access_model_subscription_list_alloc
                0x00037ff0       0x84 examples/enocean_switch/CMakeFiles/enocean_switch_nrf52840_xxAA_s140_6.0.0.dir/__/__/mesh/access/src/access.c.obj
                0x00037ff0                access_model_subscription_list_alloc
 .text.access_model_subscription_add
                0x00038074       0x60 examples/enocean_switch/CMakeFiles/enocean_switch_nrf52840_xxAA_s140_6.0.0.dir/__/__/mesh/access/src/access.c.obj
                0x00038074                access_model_subscription_add
 .text.access_model_subscription_remove
                0x000380d4       0x60 examples/enocean_switch/CMakeFiles/enocean_switch_nrf52840_xxAA_s140_6.0.0.dir/__/__/mesh/access/src/access.c.obj
                0x000380d4                access_model_subscription_remove
 .text.access_model_subscriptions_get
                0x00038134       0x78 examples/enocean_switch/CMakeFiles/enocean_switch_nrf52840_xxAA_s140_6.0.0.dir/__/__/mesh/access/src/access.c.obj
                0x00038134                access_model_subscriptions_get
 .text.access_model_application_bind
                0x000381ac       0x58 examples/enocean_switch/CMakeFiles/enocean_switch_nrf52840_xxAA_s140_6.0.0.dir/__/__/mesh/access/src/access.c.obj
                0x000381ac                access_model_application_bind
 .text.access_model_application_unbind
                0x00038204       0x58 examples/enocean_switch/CMakeFiles/enocean_switch_nrf52840_xxAA_s140_6.0.0.dir/__/__/mesh/access/src/access.c.obj
                0x00038204                access_model_application_unbind
 .text.access_model_applications_get
                0x0003825c      0x100 examples/enocean_switch/CMakeFiles/enocean_switch_nrf52840_xxAA_s140_6.0.0.dir/__/__/mesh/access/src/access.c.obj
                0x0003825c                access_model_applications_get
 .text.access_model_publish_application_set
                0x0003835c       0x3c examples/enocean_switch/CMakeFiles/enocean_switch_nrf52840_xxAA_s140_6.0.0.dir/__/__/mesh/access/src/access.c.obj
                0x0003835c                access_model_publish_application_set
 .text.access_model_publish_application_get
                0x00038398       0x2c examples/enocean_switch/CMakeFiles/enocean_switch_nrf52840_xxAA_s140_6.0.0.dir/__/__/mesh/access/src/access.c.obj
                0x00038398                access_model_publish_application_get
 .text.access_default_ttl_set
                0x000383c4       0x1c examples/enocean_switch/CMakeFiles/enocean_switch_nrf52840_xxAA_s140_6.0.0.dir/__/__/mesh/access/src/access.c.obj
                0x000383c4                access_default_ttl_set
 .text.access_default_ttl_get
                0x000383e0        0xc examples/enocean_switch/CMakeFiles/enocean_switch_nrf52840_xxAA_s140_6.0.0.dir/__/__/mesh/access/src/access.c.obj
                0x000383e0                access_default_ttl_get
 .text.access_model_publish_ttl_set
                0x000383ec       0x40 examples/enocean_switch/CMakeFiles/enocean_switch_nrf52840_xxAA_s140_6.0.0.dir/__/__/mesh/access/src/access.c.obj
                0x000383ec                access_model_publish_ttl_set
 .text.access_model_publish_ttl_get
                0x0003842c       0x2c examples/enocean_switch/CMakeFiles/enocean_switch_nrf52840_xxAA_s140_6.0.0.dir/__/__/mesh/access/src/access.c.obj
                0x0003842c                access_model_publish_ttl_get
 .text.access_element_location_get
                0x00038458       0x24 examples/enocean_switch/CMakeFiles/enocean_switch_nrf52840_xxAA_s140_6.0.0.dir/__/__/mesh/access/src/access.c.obj
                0x00038458                access_element_location_get
 .text.access_element_sig_model_count_get
                0x0003847c       0x24 examples/enocean_switch/CMakeFiles/enocean_switch_nrf52840_xxAA_s140_6.0.0.dir/__/__/mesh/access/src/access.c.obj
                0x0003847c                access_element_sig_model_count_get
 .text.access_element_vendor_model_count_get
                0x000384a0       0x24 examples/enocean_switch/CMakeFiles/enocean_switch_nrf52840_xxAA_s140_6.0.0.dir/__/__/mesh/access/src/access.c.obj
                0x000384a0                access_element_vendor_model_count_get
 .text.access_model_id_get
                0x000384c4       0x40 examples/enocean_switch/CMakeFiles/enocean_switch_nrf52840_xxAA_s140_6.0.0.dir/__/__/mesh/access/src/access.c.obj
                0x000384c4                access_model_id_get
 .text.access_handle_get
                0x00038504       0xd4 examples/enocean_switch/CMakeFiles/enocean_switch_nrf52840_xxAA_s140_6.0.0.dir/__/__/mesh/access/src/access.c.obj
                0x00038504                access_handle_get
 .text.access_element_models_get
                0x000385d8       0xfc examples/enocean_switch/CMakeFiles/enocean_switch_nrf52840_xxAA_s140_6.0.0.dir/__/__/mesh/access/src/access.c.obj
                0x000385d8                access_element_models_get
 .text.access_model_p_args_get
                0x000386d4       0x2c examples/enocean_switch/CMakeFiles/enocean_switch_nrf52840_xxAA_s140_6.0.0.dir/__/__/mesh/access/src/access.c.obj
                0x000386d4                access_model_p_args_get
 .text.access_model_publication_stop
                0x00038700       0x74 examples/enocean_switch/CMakeFiles/enocean_switch_nrf52840_xxAA_s140_6.0.0.dir/__/__/mesh/access/src/access.c.obj
                0x00038700                access_model_publication_stop
 .text.access_model_publication_by_appkey_stop
                0x00038774      0x2a4 examples/enocean_switch/CMakeFiles/enocean_switch_nrf52840_xxAA_s140_6.0.0.dir/__/__/mesh/access/src/access.c.obj
                0x00038774                access_model_publication_by_appkey_stop
 .text.remove_and_reschedule
                0x00038a18      0x11c examples/enocean_switch/CMakeFiles/enocean_switch_nrf52840_xxAA_s140_6.0.0.dir/__/__/mesh/access/src/access_reliable.c.obj
 .text.reliable_timer_cb
                0x00038b34      0x128 examples/enocean_switch/CMakeFiles/enocean_switch_nrf52840_xxAA_s140_6.0.0.dir/__/__/mesh/access/src/access_reliable.c.obj
 .text.access_reliable_message_rx_cb
                0x00038c5c       0xb4 examples/enocean_switch/CMakeFiles/enocean_switch_nrf52840_xxAA_s140_6.0.0.dir/__/__/mesh/access/src/access_reliable.c.obj
                0x00038c5c                access_reliable_message_rx_cb
 .text.access_reliable_init
                0x00038d10       0x20 examples/enocean_switch/CMakeFiles/enocean_switch_nrf52840_xxAA_s140_6.0.0.dir/__/__/mesh/access/src/access_reliable.c.obj
                0x00038d10                access_reliable_init
 .text.access_reliable_cancel_all
                0x00038d30      0x1b0 examples/enocean_switch/CMakeFiles/enocean_switch_nrf52840_xxAA_s140_6.0.0.dir/__/__/mesh/access/src/access_reliable.c.obj
                0x00038d30                access_reliable_cancel_all
 .text.access_model_reliable_cancel
                0x00038ee0       0xbc examples/enocean_switch/CMakeFiles/enocean_switch_nrf52840_xxAA_s140_6.0.0.dir/__/__/mesh/access/src/access_reliable.c.obj
                0x00038ee0                access_model_reliable_cancel
 .text.access_model_reliable_publish
                0x00038f9c      0x284 examples/enocean_switch/CMakeFiles/enocean_switch_nrf52840_xxAA_s140_6.0.0.dir/__/__/mesh/access/src/access_reliable.c.obj
                0x00038f9c                access_model_reliable_publish
 .text.addr_nonvirtual_to_dsm_entry
                0x00039220       0x48 examples/enocean_switch/CMakeFiles/enocean_switch_nrf52840_xxAA_s140_6.0.0.dir/__/__/mesh/access/src/device_state_manager.c.obj
 .text.addr_nonvirtual_to_flash_entry
                0x00039268       0x10 examples/enocean_switch/CMakeFiles/enocean_switch_nrf52840_xxAA_s140_6.0.0.dir/__/__/mesh/access/src/device_state_manager.c.obj
 .text.devkey_to_flash_entry
                0x00039278       0x28 examples/enocean_switch/CMakeFiles/enocean_switch_nrf52840_xxAA_s140_6.0.0.dir/__/__/mesh/access/src/device_state_manager.c.obj
 .text.addr_virtual_to_flash_entry
                0x000392a0       0x18 examples/enocean_switch/CMakeFiles/enocean_switch_nrf52840_xxAA_s140_6.0.0.dir/__/__/mesh/access/src/device_state_manager.c.obj
 .text.addr_unicast_to_dsm_entry
                0x000392b8        0xc examples/enocean_switch/CMakeFiles/enocean_switch_nrf52840_xxAA_s140_6.0.0.dir/__/__/mesh/access/src/device_state_manager.c.obj
 .text.addr_unicast_to_flash_entry
                0x000392c4       0x10 examples/enocean_switch/CMakeFiles/enocean_switch_nrf52840_xxAA_s140_6.0.0.dir/__/__/mesh/access/src/device_state_manager.c.obj
 .text.flash_mem_listener_callback
                0x000392d4       0x1c examples/enocean_switch/CMakeFiles/enocean_switch_nrf52840_xxAA_s140_6.0.0.dir/__/__/mesh/access/src/device_state_manager.c.obj
 .text.appkey_to_flash_entry
                0x000392f0       0x54 examples/enocean_switch/CMakeFiles/enocean_switch_nrf52840_xxAA_s140_6.0.0.dir/__/__/mesh/access/src/device_state_manager.c.obj
 .text.subnet_to_flash_entry
                0x00039344       0x60 examples/enocean_switch/CMakeFiles/enocean_switch_nrf52840_xxAA_s140_6.0.0.dir/__/__/mesh/access/src/device_state_manager.c.obj
 .text.reset_flash_area
                0x000393a4       0x28 examples/enocean_switch/CMakeFiles/enocean_switch_nrf52840_xxAA_s140_6.0.0.dir/__/__/mesh/access/src/device_state_manager.c.obj
 .text.flash_save
                0x000393cc       0xb0 examples/enocean_switch/CMakeFiles/enocean_switch_nrf52840_xxAA_s140_6.0.0.dir/__/__/mesh/access/src/device_state_manager.c.obj
 .text.build_flash_area
                0x0003947c       0x90 examples/enocean_switch/CMakeFiles/enocean_switch_nrf52840_xxAA_s140_6.0.0.dir/__/__/mesh/access/src/device_state_manager.c.obj
 .text.flash_invalidate_complete
                0x0003950c       0x54 examples/enocean_switch/CMakeFiles/enocean_switch_nrf52840_xxAA_s140_6.0.0.dir/__/__/mesh/access/src/device_state_manager.c.obj
 .text.flash_write_complete
                0x00039560       0x50 examples/enocean_switch/CMakeFiles/enocean_switch_nrf52840_xxAA_s140_6.0.0.dir/__/__/mesh/access/src/device_state_manager.c.obj
 .text.devkey_to_dsm_entry
                0x000395b0       0x70 examples/enocean_switch/CMakeFiles/enocean_switch_nrf52840_xxAA_s140_6.0.0.dir/__/__/mesh/access/src/device_state_manager.c.obj
 .text.addr_virtual_to_dsm_entry
                0x00039620       0x60 examples/enocean_switch/CMakeFiles/enocean_switch_nrf52840_xxAA_s140_6.0.0.dir/__/__/mesh/access/src/device_state_manager.c.obj
 .text.appkey_to_dsm_entry
                0x00039680       0xf4 examples/enocean_switch/CMakeFiles/enocean_switch_nrf52840_xxAA_s140_6.0.0.dir/__/__/mesh/access/src/device_state_manager.c.obj
 .text.subnet_to_dsm_entry
                0x00039774      0x11c examples/enocean_switch/CMakeFiles/enocean_switch_nrf52840_xxAA_s140_6.0.0.dir/__/__/mesh/access/src/device_state_manager.c.obj
 .text.flash_remove_complete
                0x00039890       0x90 examples/enocean_switch/CMakeFiles/enocean_switch_nrf52840_xxAA_s140_6.0.0.dir/__/__/mesh/access/src/device_state_manager.c.obj
 .text.flash_update_all
                0x00039920      0x17c examples/enocean_switch/CMakeFiles/enocean_switch_nrf52840_xxAA_s140_6.0.0.dir/__/__/mesh/access/src/device_state_manager.c.obj
 .text.address_delete_if_unused
                0x00039a9c      0x100 examples/enocean_switch/CMakeFiles/enocean_switch_nrf52840_xxAA_s140_6.0.0.dir/__/__/mesh/access/src/device_state_manager.c.obj
 .text.mesh_evt_handler
                0x00039b9c      0x234 examples/enocean_switch/CMakeFiles/enocean_switch_nrf52840_xxAA_s140_6.0.0.dir/__/__/mesh/access/src/device_state_manager.c.obj
 .text.dsm_flash_config_load
                0x00039dd0      0x1c8 examples/enocean_switch/CMakeFiles/enocean_switch_nrf52840_xxAA_s140_6.0.0.dir/__/__/mesh/access/src/device_state_manager.c.obj
                0x00039dd0                dsm_flash_config_load
 .text.dsm_flash_area_get
                0x00039f98        0xc examples/enocean_switch/CMakeFiles/enocean_switch_nrf52840_xxAA_s140_6.0.0.dir/__/__/mesh/access/src/device_state_manager.c.obj
                0x00039f98                dsm_flash_area_get
 .text.dsm_clear
                0x00039fa4      0x160 examples/enocean_switch/CMakeFiles/enocean_switch_nrf52840_xxAA_s140_6.0.0.dir/__/__/mesh/access/src/device_state_manager.c.obj
                0x00039fa4                dsm_clear
 .text.dsm_init
                0x0003a104       0xbc examples/enocean_switch/CMakeFiles/enocean_switch_nrf52840_xxAA_s140_6.0.0.dir/__/__/mesh/access/src/device_state_manager.c.obj
                0x0003a104                dsm_init
 .text.dsm_local_unicast_addresses_set
                0x0003a1c0       0x78 examples/enocean_switch/CMakeFiles/enocean_switch_nrf52840_xxAA_s140_6.0.0.dir/__/__/mesh/access/src/device_state_manager.c.obj
                0x0003a1c0                dsm_local_unicast_addresses_set
 .text.dsm_local_unicast_addresses_get
                0x0003a238       0x20 examples/enocean_switch/CMakeFiles/enocean_switch_nrf52840_xxAA_s140_6.0.0.dir/__/__/mesh/access/src/device_state_manager.c.obj
                0x0003a238                dsm_local_unicast_addresses_get
 .text.dsm_address_publish_add
                0x0003a258      0x330 examples/enocean_switch/CMakeFiles/enocean_switch_nrf52840_xxAA_s140_6.0.0.dir/__/__/mesh/access/src/device_state_manager.c.obj
                0x0003a258                dsm_address_publish_add
 .text.dsm_address_publish_add_handle
                0x0003a588       0x54 examples/enocean_switch/CMakeFiles/enocean_switch_nrf52840_xxAA_s140_6.0.0.dir/__/__/mesh/access/src/device_state_manager.c.obj
                0x0003a588                dsm_address_publish_add_handle
 .text.dsm_address_publish_virtual_add
                0x0003a5dc      0x268 examples/enocean_switch/CMakeFiles/enocean_switch_nrf52840_xxAA_s140_6.0.0.dir/__/__/mesh/access/src/device_state_manager.c.obj
                0x0003a5dc                dsm_address_publish_virtual_add
 .text.dsm_address_publish_remove
                0x0003a844       0xbc examples/enocean_switch/CMakeFiles/enocean_switch_nrf52840_xxAA_s140_6.0.0.dir/__/__/mesh/access/src/device_state_manager.c.obj
                0x0003a844                dsm_address_publish_remove
 .text.dsm_address_subscription_add
                0x0003a900      0x320 examples/enocean_switch/CMakeFiles/enocean_switch_nrf52840_xxAA_s140_6.0.0.dir/__/__/mesh/access/src/device_state_manager.c.obj
                0x0003a900                dsm_address_subscription_add
 .text.dsm_address_subscription_virtual_add
                0x0003ac20      0x268 examples/enocean_switch/CMakeFiles/enocean_switch_nrf52840_xxAA_s140_6.0.0.dir/__/__/mesh/access/src/device_state_manager.c.obj
                0x0003ac20                dsm_address_subscription_virtual_add
 .text.dsm_address_subscription_add_handle
                0x0003ae88       0x54 examples/enocean_switch/CMakeFiles/enocean_switch_nrf52840_xxAA_s140_6.0.0.dir/__/__/mesh/access/src/device_state_manager.c.obj
                0x0003ae88                dsm_address_subscription_add_handle
 .text.dsm_address_subscription_get
                0x0003aedc       0x5c examples/enocean_switch/CMakeFiles/enocean_switch_nrf52840_xxAA_s140_6.0.0.dir/__/__/mesh/access/src/device_state_manager.c.obj
                0x0003aedc                dsm_address_subscription_get
 .text.dsm_address_subscription_remove
                0x0003af38       0x94 examples/enocean_switch/CMakeFiles/enocean_switch_nrf52840_xxAA_s140_6.0.0.dir/__/__/mesh/access/src/device_state_manager.c.obj
                0x0003af38                dsm_address_subscription_remove
 .text.dsm_address_get
                0x0003afcc       0x74 examples/enocean_switch/CMakeFiles/enocean_switch_nrf52840_xxAA_s140_6.0.0.dir/__/__/mesh/access/src/device_state_manager.c.obj
                0x0003afcc                dsm_address_get
 .text.dsm_address_handle_get
                0x0003b040      0x3cc examples/enocean_switch/CMakeFiles/enocean_switch_nrf52840_xxAA_s140_6.0.0.dir/__/__/mesh/access/src/device_state_manager.c.obj
                0x0003b040                dsm_address_handle_get
 .text.dsm_net_key_index_to_subnet_handle
                0x0003b40c       0x6c examples/enocean_switch/CMakeFiles/enocean_switch_nrf52840_xxAA_s140_6.0.0.dir/__/__/mesh/access/src/device_state_manager.c.obj
                0x0003b40c                dsm_net_key_index_to_subnet_handle
 .text.dsm_subnet_handle_get
                0x0003b478       0xa4 examples/enocean_switch/CMakeFiles/enocean_switch_nrf52840_xxAA_s140_6.0.0.dir/__/__/mesh/access/src/device_state_manager.c.obj
                0x0003b478                dsm_subnet_handle_get
 .text.dsm_appkey_index_to_appkey_handle
                0x0003b51c       0xcc examples/enocean_switch/CMakeFiles/enocean_switch_nrf52840_xxAA_s140_6.0.0.dir/__/__/mesh/access/src/device_state_manager.c.obj
                0x0003b51c                dsm_appkey_index_to_appkey_handle
 .text.dsm_appkey_handle_get
                0x0003b5e8       0x44 examples/enocean_switch/CMakeFiles/enocean_switch_nrf52840_xxAA_s140_6.0.0.dir/__/__/mesh/access/src/device_state_manager.c.obj
                0x0003b5e8                dsm_appkey_handle_get
 .text.dsm_appkey_handle_to_appkey_index
                0x0003b62c       0x34 examples/enocean_switch/CMakeFiles/enocean_switch_nrf52840_xxAA_s140_6.0.0.dir/__/__/mesh/access/src/device_state_manager.c.obj
                0x0003b62c                dsm_appkey_handle_to_appkey_index
 .text.dsm_appkey_handle_to_subnet_handle
                0x0003b660       0xb4 examples/enocean_switch/CMakeFiles/enocean_switch_nrf52840_xxAA_s140_6.0.0.dir/__/__/mesh/access/src/device_state_manager.c.obj
                0x0003b660                dsm_appkey_handle_to_subnet_handle
 .text.dsm_subnet_add
                0x0003b714      0x21c examples/enocean_switch/CMakeFiles/enocean_switch_nrf52840_xxAA_s140_6.0.0.dir/__/__/mesh/access/src/device_state_manager.c.obj
                0x0003b714                dsm_subnet_add
 .text.dsm_subnet_kr_phase_get
                0x0003b930       0x30 examples/enocean_switch/CMakeFiles/enocean_switch_nrf52840_xxAA_s140_6.0.0.dir/__/__/mesh/access/src/device_state_manager.c.obj
                0x0003b930                dsm_subnet_kr_phase_get
 .text.dsm_subnet_update
                0x0003b960      0x11c examples/enocean_switch/CMakeFiles/enocean_switch_nrf52840_xxAA_s140_6.0.0.dir/__/__/mesh/access/src/device_state_manager.c.obj
                0x0003b960                dsm_subnet_update
 .text.dsm_subnet_update_swap_keys
                0x0003ba7c       0xa8 examples/enocean_switch/CMakeFiles/enocean_switch_nrf52840_xxAA_s140_6.0.0.dir/__/__/mesh/access/src/device_state_manager.c.obj
                0x0003ba7c                dsm_subnet_update_swap_keys
 .text.dsm_subnet_update_commit
                0x0003bb24      0x194 examples/enocean_switch/CMakeFiles/enocean_switch_nrf52840_xxAA_s140_6.0.0.dir/__/__/mesh/access/src/device_state_manager.c.obj
                0x0003bb24                dsm_subnet_update_commit
 .text.dsm_subnet_delete
                0x0003bcb8      0x358 examples/enocean_switch/CMakeFiles/enocean_switch_nrf52840_xxAA_s140_6.0.0.dir/__/__/mesh/access/src/device_state_manager.c.obj
                0x0003bcb8                dsm_subnet_delete
 .text.dsm_subnet_get_all
                0x0003c010       0x90 examples/enocean_switch/CMakeFiles/enocean_switch_nrf52840_xxAA_s140_6.0.0.dir/__/__/mesh/access/src/device_state_manager.c.obj
                0x0003c010                dsm_subnet_get_all
 .text.dsm_devkey_add
                0x0003c0a0       0xb0 examples/enocean_switch/CMakeFiles/enocean_switch_nrf52840_xxAA_s140_6.0.0.dir/__/__/mesh/access/src/device_state_manager.c.obj
                0x0003c0a0                dsm_devkey_add
 .text.dsm_appkey_add
                0x0003c150      0x298 examples/enocean_switch/CMakeFiles/enocean_switch_nrf52840_xxAA_s140_6.0.0.dir/__/__/mesh/access/src/device_state_manager.c.obj
                0x0003c150                dsm_appkey_add
 .text.dsm_appkey_update
                0x0003c3e8       0xfc examples/enocean_switch/CMakeFiles/enocean_switch_nrf52840_xxAA_s140_6.0.0.dir/__/__/mesh/access/src/device_state_manager.c.obj
                0x0003c3e8                dsm_appkey_update
 .text.dsm_appkey_delete
                0x0003c4e4       0x68 examples/enocean_switch/CMakeFiles/enocean_switch_nrf52840_xxAA_s140_6.0.0.dir/__/__/mesh/access/src/device_state_manager.c.obj
                0x0003c4e4                dsm_appkey_delete
 .text.dsm_appkey_get_all
                0x0003c54c      0x158 examples/enocean_switch/CMakeFiles/enocean_switch_nrf52840_xxAA_s140_6.0.0.dir/__/__/mesh/access/src/device_state_manager.c.obj
                0x0003c54c                dsm_appkey_get_all
 .text.dsm_tx_secmat_get
                0x0003c6a4       0xd4 examples/enocean_switch/CMakeFiles/enocean_switch_nrf52840_xxAA_s140_6.0.0.dir/__/__/mesh/access/src/device_state_manager.c.obj
                0x0003c6a4                dsm_tx_secmat_get
 .text.dsm_net_secmat_from_keyindex_get
                0x0003c778       0x98 examples/enocean_switch/CMakeFiles/enocean_switch_nrf52840_xxAA_s140_6.0.0.dir/__/__/mesh/access/src/device_state_manager.c.obj
                0x0003c778                dsm_net_secmat_from_keyindex_get
 .text.nrf_mesh_net_secmat_next_get
                0x0003c810      0x21c examples/enocean_switch/CMakeFiles/enocean_switch_nrf52840_xxAA_s140_6.0.0.dir/__/__/mesh/access/src/device_state_manager.c.obj
                0x0003c810                nrf_mesh_net_secmat_next_get
 .text.nrf_mesh_app_secmat_next_get
                0x0003ca2c      0x280 examples/enocean_switch/CMakeFiles/enocean_switch_nrf52840_xxAA_s140_6.0.0.dir/__/__/mesh/access/src/device_state_manager.c.obj
                0x0003ca2c                nrf_mesh_app_secmat_next_get
 .text.nrf_mesh_devkey_secmat_get
                0x0003ccac       0x30 examples/enocean_switch/CMakeFiles/enocean_switch_nrf52840_xxAA_s140_6.0.0.dir/__/__/mesh/access/src/device_state_manager.c.obj
                0x0003ccac                nrf_mesh_devkey_secmat_get
 .text.nrf_mesh_beacon_info_next_get
                0x0003ccdc      0x174 examples/enocean_switch/CMakeFiles/enocean_switch_nrf52840_xxAA_s140_6.0.0.dir/__/__/mesh/access/src/device_state_manager.c.obj
                0x0003ccdc                nrf_mesh_beacon_info_next_get
 .text.nrf_mesh_rx_address_get
                0x0003ce50      0x558 examples/enocean_switch/CMakeFiles/enocean_switch_nrf52840_xxAA_s140_6.0.0.dir/__/__/mesh/access/src/device_state_manager.c.obj
                0x0003ce50                nrf_mesh_rx_address_get
 .text.nrf_mesh_unicast_address_get
                0x0003d3a8       0x24 examples/enocean_switch/CMakeFiles/enocean_switch_nrf52840_xxAA_s140_6.0.0.dir/__/__/mesh/access/src/device_state_manager.c.obj
                0x0003d3a8                nrf_mesh_unicast_address_get
 .text.prov_provisionee_cb_link_established
                0x0003d3cc       0x38 examples/enocean_switch/CMakeFiles/enocean_switch_nrf52840_xxAA_s140_6.0.0.dir/__/__/mesh/prov/src/prov_provisionee.c.obj
 .text.prov_provisionee_cb_link_closed
                0x0003d404       0x54 examples/enocean_switch/CMakeFiles/enocean_switch_nrf52840_xxAA_s140_6.0.0.dir/__/__/mesh/prov/src/prov_provisionee.c.obj
 .text.request_authentication
                0x0003d458       0x90 examples/enocean_switch/CMakeFiles/enocean_switch_nrf52840_xxAA_s140_6.0.0.dir/__/__/mesh/prov/src/prov_provisionee.c.obj
 .text.prov_provisionee_cb_ack_received
                0x0003d4e8      0x194 examples/enocean_switch/CMakeFiles/enocean_switch_nrf52840_xxAA_s140_6.0.0.dir/__/__/mesh/prov/src/prov_provisionee.c.obj
 .text.prov_provisionee_pkt_in
                0x0003d67c      0x420 examples/enocean_switch/CMakeFiles/enocean_switch_nrf52840_xxAA_s140_6.0.0.dir/__/__/mesh/prov/src/prov_provisionee.c.obj
 .text.prov_provisionee_listen
                0x0003da9c       0x34 examples/enocean_switch/CMakeFiles/enocean_switch_nrf52840_xxAA_s140_6.0.0.dir/__/__/mesh/prov/src/prov_provisionee.c.obj
                0x0003da9c                prov_provisionee_listen
 .text.prov_provisionee_auth_data
                0x0003dad0      0x104 examples/enocean_switch/CMakeFiles/enocean_switch_nrf52840_xxAA_s140_6.0.0.dir/__/__/mesh/prov/src/prov_provisionee.c.obj
                0x0003dad0                prov_provisionee_auth_data
 .text.bearer_compare_callback
                0x0003dbd4       0x10 examples/enocean_switch/CMakeFiles/enocean_switch_nrf52840_xxAA_s140_6.0.0.dir/__/__/mesh/prov/src/nrf_mesh_prov.c.obj
 .text.nrf_mesh_prov_init
                0x0003dbe4       0x3c examples/enocean_switch/CMakeFiles/enocean_switch_nrf52840_xxAA_s140_6.0.0.dir/__/__/mesh/prov/src/nrf_mesh_prov.c.obj
                0x0003dbe4                nrf_mesh_prov_init
 .text.nrf_mesh_prov_bearer_add
                0x0003dc20       0x2c examples/enocean_switch/CMakeFiles/enocean_switch_nrf52840_xxAA_s140_6.0.0.dir/__/__/mesh/prov/src/nrf_mesh_prov.c.obj
                0x0003dc20                nrf_mesh_prov_bearer_add
 .text.nrf_mesh_prov_generate_keys
                0x0003dc4c        0x4 examples/enocean_switch/CMakeFiles/enocean_switch_nrf52840_xxAA_s140_6.0.0.dir/__/__/mesh/prov/src/nrf_mesh_prov.c.obj
                0x0003dc4c                nrf_mesh_prov_generate_keys
 .text.nrf_mesh_prov_listen
                0x0003dc50       0xf8 examples/enocean_switch/CMakeFiles/enocean_switch_nrf52840_xxAA_s140_6.0.0.dir/__/__/mesh/prov/src/nrf_mesh_prov.c.obj
                0x0003dc50                nrf_mesh_prov_listen
 .text.nrf_mesh_prov_auth_data_provide
                0x0003dd48       0x10 examples/enocean_switch/CMakeFiles/enocean_switch_nrf52840_xxAA_s140_6.0.0.dir/__/__/mesh/prov/src/nrf_mesh_prov.c.obj
                0x0003dd48                nrf_mesh_prov_auth_data_provide
 .text.prov_packet_length_valid
                0x0003dd58       0x20 examples/enocean_switch/CMakeFiles/enocean_switch_nrf52840_xxAA_s140_6.0.0.dir/__/__/mesh/prov/src/provisioning.c.obj
                0x0003dd58                prov_packet_length_valid
 .text.prov_tx_capabilities
                0x0003dd78       0x38 examples/enocean_switch/CMakeFiles/enocean_switch_nrf52840_xxAA_s140_6.0.0.dir/__/__/mesh/prov/src/provisioning.c.obj
                0x0003dd78                prov_tx_capabilities
 .text.prov_tx_public_key
                0x0003ddb0       0x30 examples/enocean_switch/CMakeFiles/enocean_switch_nrf52840_xxAA_s140_6.0.0.dir/__/__/mesh/prov/src/provisioning.c.obj
                0x0003ddb0                prov_tx_public_key
 .text.prov_tx_input_complete
                0x0003dde0       0x28 examples/enocean_switch/CMakeFiles/enocean_switch_nrf52840_xxAA_s140_6.0.0.dir/__/__/mesh/prov/src/provisioning.c.obj
                0x0003dde0                prov_tx_input_complete
 .text.prov_tx_confirmation
                0x0003de08       0x30 examples/enocean_switch/CMakeFiles/enocean_switch_nrf52840_xxAA_s140_6.0.0.dir/__/__/mesh/prov/src/provisioning.c.obj
                0x0003de08                prov_tx_confirmation
 .text.prov_tx_random
                0x0003de38       0x30 examples/enocean_switch/CMakeFiles/enocean_switch_nrf52840_xxAA_s140_6.0.0.dir/__/__/mesh/prov/src/provisioning.c.obj
                0x0003de38                prov_tx_random
 .text.prov_tx_complete
                0x0003de68       0x28 examples/enocean_switch/CMakeFiles/enocean_switch_nrf52840_xxAA_s140_6.0.0.dir/__/__/mesh/prov/src/provisioning.c.obj
                0x0003de68                prov_tx_complete
 .text.prov_tx_failed
                0x0003de90       0x2c examples/enocean_switch/CMakeFiles/enocean_switch_nrf52840_xxAA_s140_6.0.0.dir/__/__/mesh/prov/src/provisioning.c.obj
                0x0003de90                prov_tx_failed
 .text.prov_beacon_unprov_build
                0x0003debc       0x54 examples/enocean_switch/CMakeFiles/enocean_switch_nrf52840_xxAA_s140_6.0.0.dir/__/__/mesh/prov/src/prov_beacon.c.obj
                0x0003debc                prov_beacon_unprov_build
 .text.prov_beacon_unprov_packet_in
                0x0003df10       0xd4 examples/enocean_switch/CMakeFiles/enocean_switch_nrf52840_xxAA_s140_6.0.0.dir/__/__/mesh/prov/src/prov_beacon.c.obj
                0x0003df10                prov_beacon_unprov_packet_in
 .text.prov_utils_opt_set
                0x0003dfe4       0x24 examples/enocean_switch/CMakeFiles/enocean_switch_nrf52840_xxAA_s140_6.0.0.dir/__/__/mesh/prov/src/prov_utils.c.obj
                0x0003dfe4                prov_utils_opt_set
 .text.prov_utils_opt_get
                0x0003e008       0x1c examples/enocean_switch/CMakeFiles/enocean_switch_nrf52840_xxAA_s140_6.0.0.dir/__/__/mesh/prov/src/prov_utils.c.obj
                0x0003e008                prov_utils_opt_get
 .text.prov_utils_use_ecdh_offloading
                0x0003e024        0xc examples/enocean_switch/CMakeFiles/enocean_switch_nrf52840_xxAA_s140_6.0.0.dir/__/__/mesh/prov/src/prov_utils.c.obj
                0x0003e024                prov_utils_use_ecdh_offloading
 .text.prov_utils_authentication_values_derive
                0x0003e030       0xa8 examples/enocean_switch/CMakeFiles/enocean_switch_nrf52840_xxAA_s140_6.0.0.dir/__/__/mesh/prov/src/prov_utils.c.obj
                0x0003e030                prov_utils_authentication_values_derive
 .text.prov_utils_keys_generate
                0x0003e0d8       0x20 examples/enocean_switch/CMakeFiles/enocean_switch_nrf52840_xxAA_s140_6.0.0.dir/__/__/mesh/prov/src/prov_utils.c.obj
                0x0003e0d8                prov_utils_keys_generate
 .text.prov_utils_derive_keys
                0x0003e0f8       0xb4 examples/enocean_switch/CMakeFiles/enocean_switch_nrf52840_xxAA_s140_6.0.0.dir/__/__/mesh/prov/src/prov_utils.c.obj
                0x0003e0f8                prov_utils_derive_keys
 .text.prov_utils_calculate_shared_secret
                0x0003e1ac       0x38 examples/enocean_switch/CMakeFiles/enocean_switch_nrf52840_xxAA_s140_6.0.0.dir/__/__/mesh/prov/src/prov_utils.c.obj
                0x0003e1ac                prov_utils_calculate_shared_secret
 .text.prov_utils_generate_oob_data
                0x0003e1e4      0x1b8 examples/enocean_switch/CMakeFiles/enocean_switch_nrf52840_xxAA_s140_6.0.0.dir/__/__/mesh/prov/src/prov_utils.c.obj
                0x0003e1e4                prov_utils_generate_oob_data
 .text.prov_utils_confirmation_check
                0x0003e39c       0x5c examples/enocean_switch/CMakeFiles/enocean_switch_nrf52840_xxAA_s140_6.0.0.dir/__/__/mesh/prov/src/prov_utils.c.obj
                0x0003e39c                prov_utils_confirmation_check
 .text.link_timeout_cb
                0x0003e3f8       0x10 examples/enocean_switch/CMakeFiles/enocean_switch_nrf52840_xxAA_s140_6.0.0.dir/__/__/mesh/prov/src/prov_bearer_adv.c.obj
 .text.prov_bearer_adv_listen_stop
                0x0003e408       0x8c examples/enocean_switch/CMakeFiles/enocean_switch_nrf52840_xxAA_s140_6.0.0.dir/__/__/mesh/prov/src/prov_bearer_adv.c.obj
 .text.tx_complete_cb
                0x0003e494       0x20 examples/enocean_switch/CMakeFiles/enocean_switch_nrf52840_xxAA_s140_6.0.0.dir/__/__/mesh/prov/src/prov_bearer_adv.c.obj
 .text.prov_bearer_adv_listen
                0x0003e4b4      0x160 examples/enocean_switch/CMakeFiles/enocean_switch_nrf52840_xxAA_s140_6.0.0.dir/__/__/mesh/prov/src/prov_bearer_adv.c.obj
 .text.prov_buffer_tx
                0x0003e614      0x1d8 examples/enocean_switch/CMakeFiles/enocean_switch_nrf52840_xxAA_s140_6.0.0.dir/__/__/mesh/prov/src/prov_bearer_adv.c.obj
 .text.close_link
                0x0003e7ec       0xc0 examples/enocean_switch/CMakeFiles/enocean_switch_nrf52840_xxAA_s140_6.0.0.dir/__/__/mesh/prov/src/prov_bearer_adv.c.obj
 .text.async_process
                0x0003e8ac       0x60 examples/enocean_switch/CMakeFiles/enocean_switch_nrf52840_xxAA_s140_6.0.0.dir/__/__/mesh/prov/src/prov_bearer_adv.c.obj
 .text.prov_bearer_adv_tx
                0x0003e90c       0xe4 examples/enocean_switch/CMakeFiles/enocean_switch_nrf52840_xxAA_s140_6.0.0.dir/__/__/mesh/prov/src/prov_bearer_adv.c.obj
 .text.send_link_ack
                0x0003e9f0       0x80 examples/enocean_switch/CMakeFiles/enocean_switch_nrf52840_xxAA_s140_6.0.0.dir/__/__/mesh/prov/src/prov_bearer_adv.c.obj
 .text.tx_retry_cb
                0x0003ea70      0x13c examples/enocean_switch/CMakeFiles/enocean_switch_nrf52840_xxAA_s140_6.0.0.dir/__/__/mesh/prov/src/prov_bearer_adv.c.obj
 .text.send_transaction_ack
                0x0003ebac       0x68 examples/enocean_switch/CMakeFiles/enocean_switch_nrf52840_xxAA_s140_6.0.0.dir/__/__/mesh/prov/src/prov_bearer_adv.c.obj
 .text.prov_buffer_rx
                0x0003ec14       0x9c examples/enocean_switch/CMakeFiles/enocean_switch_nrf52840_xxAA_s140_6.0.0.dir/__/__/mesh/prov/src/prov_bearer_adv.c.obj
 .text.prov_bearer_adv_link_open
                0x0003ecb0      0x1c0 examples/enocean_switch/CMakeFiles/enocean_switch_nrf52840_xxAA_s140_6.0.0.dir/__/__/mesh/prov/src/prov_bearer_adv.c.obj
 .text.prov_bearer_adv_link_close
                0x0003ee70       0xd8 examples/enocean_switch/CMakeFiles/enocean_switch_nrf52840_xxAA_s140_6.0.0.dir/__/__/mesh/prov/src/prov_bearer_adv.c.obj
 .text.nrf_mesh_prov_bearer_adv_interface_get
                0x0003ef48       0x40 examples/enocean_switch/CMakeFiles/enocean_switch_nrf52840_xxAA_s140_6.0.0.dir/__/__/mesh/prov/src/prov_bearer_adv.c.obj
                0x0003ef48                nrf_mesh_prov_bearer_adv_interface_get
 .text.prov_bearer_adv_packet_in
                0x0003ef88      0x950 examples/enocean_switch/CMakeFiles/enocean_switch_nrf52840_xxAA_s140_6.0.0.dir/__/__/mesh/prov/src/prov_bearer_adv.c.obj
                0x0003ef88                prov_bearer_adv_packet_in
 .text.SystemInit
                0x0003f8d8      0x1c4 examples/enocean_switch/CMakeFiles/enocean_switch_nrf52840_xxAA_s140_6.0.0.dir/C_/ver/mod/nRF5_SDK_15.0.0_a53641a/modules/nrfx/mdk/system_nrf52840.c.obj
                0x0003f8d8                SystemInit
 .text          0x0003fa9c       0x3c examples/enocean_switch/CMakeFiles/enocean_switch_nrf52840_xxAA_s140_6.0.0.dir/C_/ver/mod/nRF5_SDK_15.0.0_a53641a/modules/nrfx/mdk/gcc_startup_nrf52840.S.obj
                0x0003fa9c                Reset_Handler
                0x0003fac4                NMI_Handler
                0x0003fac6                HardFault_Handler
                0x0003fac8                MemoryManagement_Handler
                0x0003faca                BusFault_Handler
                0x0003facc                UsageFault_Handler
                0x0003face                SVC_Handler
                0x0003fad0                DebugMon_Handler
                0x0003fad2                PendSV_Handler
                0x0003fad4                SysTick_Handler
                0x0003fad6                PDM_IRQHandler
                0x0003fad6                TEMP_IRQHandler
                0x0003fad6                TIMER3_IRQHandler
                0x0003fad6                PWM3_IRQHandler
                0x0003fad6                FPU_IRQHandler
                0x0003fad6                USBD_IRQHandler
                0x0003fad6                SPIM0_SPIS0_TWIM0_TWIS0_SPI0_TWI0_IRQHandler
                0x0003fad6                RADIO_IRQHandler
                0x0003fad6                UARTE0_UART0_IRQHandler
                0x0003fad6                TIMER4_IRQHandler
                0x0003fad6                CRYPTOCELL_IRQHandler
                0x0003fad6                I2S_IRQHandler
                0x0003fad6                SWI4_EGU4_IRQHandler
                0x0003fad6                TIMER0_IRQHandler
                0x0003fad6                RTC0_IRQHandler
                0x0003fad6                UARTE1_IRQHandler
                0x0003fad6                POWER_CLOCK_IRQHandler
                0x0003fad6                SPIM3_IRQHandler
                0x0003fad6                PWM2_IRQHandler
                0x0003fad6                ECB_IRQHandler
                0x0003fad6                SPIM1_SPIS1_TWIM1_TWIS1_SPI1_TWI1_IRQHandler
                0x0003fad6                Default_Handler
                0x0003fad6                SAADC_IRQHandler
                0x0003fad6                CCM_AAR_IRQHandler
                0x0003fad6                WDT_IRQHandler
                0x0003fad6                SWI0_EGU0_IRQHandler
                0x0003fad6                SWI5_EGU5_IRQHandler
                0x0003fad6                RNG_IRQHandler
                0x0003fad6                RTC2_IRQHandler
                0x0003fad6                PWM0_IRQHandler
                0x0003fad6                SWI3_EGU3_IRQHandler
                0x0003fad6                RTC1_IRQHandler
                0x0003fad6                SWI1_EGU1_IRQHandler
                0x0003fad6                SPIM2_SPIS2_SPI2_IRQHandler
                0x0003fad6                NFCT_IRQHandler
                0x0003fad6                PWM1_IRQHandler
                0x0003fad6                MWU_IRQHandler
                0x0003fad6                TIMER1_IRQHandler
                0x0003fad6                QSPI_IRQHandler
                0x0003fad6                COMP_LPCOMP_IRQHandler
 .text.app_error_handler_bare
                0x0003fad8       0x20 examples/enocean_switch/CMakeFiles/enocean_switch_nrf52840_xxAA_s140_6.0.0.dir/C_/ver/mod/nRF5_SDK_15.0.0_a53641a/components/libraries/util/app_error.c.obj
                0x0003fad8                app_error_handler_bare
 .text.app_error_handler
                0x0003faf8       0x1c examples/enocean_switch/CMakeFiles/enocean_switch_nrf52840_xxAA_s140_6.0.0.dir/C_/ver/mod/nRF5_SDK_15.0.0_a53641a/components/libraries/util/app_error_handler_gcc.c.obj
                0x0003faf8                app_error_handler
 .text.SEGGER_RTT_Write
                0x0003fb14      0x1e4 external/rtt/librtt_nrf52840_xxAA.a(SEGGER_RTT.c.obj)
                0x0003fb14                SEGGER_RTT_Write
 .text.SEGGER_RTT_GetKey
                0x0003fcf8       0xec external/rtt/librtt_nrf52840_xxAA.a(SEGGER_RTT.c.obj)
                0x0003fcf8                SEGGER_RTT_GetKey
 .text._PrintUnsigned
                0x0003fde4      0x194 external/rtt/librtt_nrf52840_xxAA.a(SEGGER_RTT_printf.c.obj)
 .text.SEGGER_RTT_vprintf
                0x0003ff78      0x464 external/rtt/librtt_nrf52840_xxAA.a(SEGGER_RTT_printf.c.obj)
                0x0003ff78                SEGGER_RTT_vprintf
 .text.SEGGER_RTT_printf
                0x000403dc       0x20 external/rtt/librtt_nrf52840_xxAA.a(SEGGER_RTT_printf.c.obj)
                0x000403dc                SEGGER_RTT_printf
 .text.default_RNG
                0x000403fc        0xc external/micro-ecc/libuECC_nrf52840_xxAA.a(uECC.c.obj)
 .text.uECC_generate_random_int
                0x00040408      0x170 external/micro-ecc/libuECC_nrf52840_xxAA.a(uECC.c.obj)
 .text.apply_z  0x00040578      0x1a8 external/micro-ecc/libuECC_nrf52840_xxAA.a(uECC.c.obj)
 .text.uECC_vli_modAdd
                0x00040720       0xc8 external/micro-ecc/libuECC_nrf52840_xxAA.a(uECC.c.obj)
 .text.x_side_default
                0x000407e8      0x254 external/micro-ecc/libuECC_nrf52840_xxAA.a(uECC.c.obj)
 .text.vli_mmod_fast_secp256r1
                0x00040a3c      0x520 external/micro-ecc/libuECC_nrf52840_xxAA.a(uECC.c.obj)
 .text.XYcZ_add
                0x00040f5c      0x6dc external/micro-ecc/libuECC_nrf52840_xxAA.a(uECC.c.obj)
 .text.XYcZ_addC
                0x00041638      0xa94 external/micro-ecc/libuECC_nrf52840_xxAA.a(uECC.c.obj)
 .text.uECC_vli_modInv.part.4
                0x000420cc      0x6e8 external/micro-ecc/libuECC_nrf52840_xxAA.a(uECC.c.obj)
 .text.EccPoint_mult.constprop.5
                0x000427b4      0x470 external/micro-ecc/libuECC_nrf52840_xxAA.a(uECC.c.obj)
 .text.double_jacobian_default
                0x00042c24      0x7ec external/micro-ecc/libuECC_nrf52840_xxAA.a(uECC.c.obj)
 .text.uECC_secp256r1
                0x00043410        0x8 external/micro-ecc/libuECC_nrf52840_xxAA.a(uECC.c.obj)
                0x00043410                uECC_secp256r1
 .text.uECC_make_key
                0x00043418      0x23c external/micro-ecc/libuECC_nrf52840_xxAA.a(uECC.c.obj)
                0x00043418                uECC_make_key
 .text.uECC_shared_secret
                0x00043654      0x788 external/micro-ecc/libuECC_nrf52840_xxAA.a(uECC.c.obj)
                0x00043654                uECC_shared_secret
 .text.uECC_valid_point
                0x00043ddc      0x134 external/micro-ecc/libuECC_nrf52840_xxAA.a(uECC.c.obj)
                0x00043ddc                uECC_valid_point
 .text.uECC_valid_public_key
                0x00043f10       0xe8 external/micro-ecc/libuECC_nrf52840_xxAA.a(uECC.c.obj)
                0x00043f10                uECC_valid_public_key
 .text          0x00043ff8       0x30 c:/mesh/arm_gcc/bin/../lib/gcc/arm-none-eabi/6.3.1/thumb/v7e-m/fpv4-sp/hard\libgcc.a(_aeabi_uldivmod.o)
                0x00043ff8                __aeabi_uldivmod
 .text          0x00044028      0x2dc c:/mesh/arm_gcc/bin/../lib/gcc/arm-none-eabi/6.3.1/thumb/v7e-m/fpv4-sp/hard\libgcc.a(_udivmoddi4.o)
                0x00044028                __udivmoddi4
 .text          0x00044304        0x4 c:/mesh/arm_gcc/bin/../lib/gcc/arm-none-eabi/6.3.1/thumb/v7e-m/fpv4-sp/hard\libgcc.a(_dvmd_tls.o)
                0x00044304                __aeabi_idiv0
                0x00044304                __aeabi_ldiv0
 .text.exit     0x00044308       0x28 c:/mesh/arm_gcc/bin/../lib/gcc/arm-none-eabi/6.3.1/../../../../arm-none-eabi/lib/thumb/v7e-m/fpv4-sp/hard\libc_nano.a(lib_a-exit.o)
                0x00044308                exit
 .text.__libc_init_array
                0x00044330       0x48 c:/mesh/arm_gcc/bin/../lib/gcc/arm-none-eabi/6.3.1/../../../../arm-none-eabi/lib/thumb/v7e-m/fpv4-sp/hard\libc_nano.a(lib_a-init.o)
                0x00044330                __libc_init_array
 .text.malloc   0x00044378       0x10 c:/mesh/arm_gcc/bin/../lib/gcc/arm-none-eabi/6.3.1/../../../../arm-none-eabi/lib/thumb/v7e-m/fpv4-sp/hard\libc_nano.a(lib_a-malloc.o)
                0x00044378                malloc
 .text.free     0x00044388       0x10 c:/mesh/arm_gcc/bin/../lib/gcc/arm-none-eabi/6.3.1/../../../../arm-none-eabi/lib/thumb/v7e-m/fpv4-sp/hard\libc_nano.a(lib_a-malloc.o)
                0x00044388                free
 .text.memcmp   0x00044398       0x1e c:/mesh/arm_gcc/bin/../lib/gcc/arm-none-eabi/6.3.1/../../../../arm-none-eabi/lib/thumb/v7e-m/fpv4-sp/hard\libc_nano.a(lib_a-memcmp.o)
                0x00044398                memcmp
 .text.memcpy   0x000443b6       0x16 c:/mesh/arm_gcc/bin/../lib/gcc/arm-none-eabi/6.3.1/../../../../arm-none-eabi/lib/thumb/v7e-m/fpv4-sp/hard\libc_nano.a(lib_a-memcpy-stub.o)
                0x000443b6                memcpy
 .text.memset   0x000443cc       0x10 c:/mesh/arm_gcc/bin/../lib/gcc/arm-none-eabi/6.3.1/../../../../arm-none-eabi/lib/thumb/v7e-m/fpv4-sp/hard\libc_nano.a(lib_a-memset.o)
                0x000443cc                memset
 .text._free_r  0x000443dc       0x9c c:/mesh/arm_gcc/bin/../lib/gcc/arm-none-eabi/6.3.1/../../../../arm-none-eabi/lib/thumb/v7e-m/fpv4-sp/hard\libc_nano.a(lib_a-nano-freer.o)
                0x000443dc                _free_r
 .text._malloc_r
                0x00044478       0xbc c:/mesh/arm_gcc/bin/../lib/gcc/arm-none-eabi/6.3.1/../../../../arm-none-eabi/lib/thumb/v7e-m/fpv4-sp/hard\libc_nano.a(lib_a-nano-mallocr.o)
                0x00044478                _malloc_r
 .text._sbrk_r  0x00044534       0x20 c:/mesh/arm_gcc/bin/../lib/gcc/arm-none-eabi/6.3.1/../../../../arm-none-eabi/lib/thumb/v7e-m/fpv4-sp/hard\libc_nano.a(lib_a-sbrkr.o)
                0x00044534                _sbrk_r
 .text.strcpy   0x00044554       0x10 c:/mesh/arm_gcc/bin/../lib/gcc/arm-none-eabi/6.3.1/../../../../arm-none-eabi/lib/thumb/v7e-m/fpv4-sp/hard\libc_nano.a(lib_a-strcpy.o)
                0x00044554                strcpy
 .text          0x00044564       0x10 c:/mesh/arm_gcc/bin/../lib/gcc/arm-none-eabi/6.3.1/../../../../arm-none-eabi/lib/thumb/v7e-m/fpv4-sp/hard\libc_nano.a(lib_a-strlen.o)
                0x00044564                strlen
 .text.strrchr  0x00044574       0x26 c:/mesh/arm_gcc/bin/../lib/gcc/arm-none-eabi/6.3.1/../../../../arm-none-eabi/lib/thumb/v7e-m/fpv4-sp/hard\libc_nano.a(lib_a-strrchr.o)
                0x00044574                strrchr
 .text.__malloc_lock
                0x0004459a        0x2 c:/mesh/arm_gcc/bin/../lib/gcc/arm-none-eabi/6.3.1/../../../../arm-none-eabi/lib/thumb/v7e-m/fpv4-sp/hard\libc_nano.a(lib_a-mlock.o)
                0x0004459a                __malloc_lock
 .text.__malloc_unlock
                0x0004459c        0x2 c:/mesh/arm_gcc/bin/../lib/gcc/arm-none-eabi/6.3.1/../../../../arm-none-eabi/lib/thumb/v7e-m/fpv4-sp/hard\libc_nano.a(lib_a-mlock.o)
                0x0004459c                __malloc_unlock
 .text.strchr   0x0004459e       0x1c c:/mesh/arm_gcc/bin/../lib/gcc/arm-none-eabi/6.3.1/../../../../arm-none-eabi/lib/thumb/v7e-m/fpv4-sp/hard\libc_nano.a(lib_a-strchr.o)
                0x0004459e                strchr
 *fill*         0x000445ba        0x2 
 .text._sbrk    0x000445bc       0x1c c:/mesh/arm_gcc/bin/../lib/gcc/arm-none-eabi/6.3.1/../../../../arm-none-eabi/lib/thumb/v7e-m/fpv4-sp/hard\libnosys.a(sbrk.o)
                0x000445bc                _sbrk
 .text._exit    0x000445d8        0x4 c:/mesh/arm_gcc/bin/../lib/gcc/arm-none-eabi/6.3.1/../../../../arm-none-eabi/lib/thumb/v7e-m/fpv4-sp/hard\libnosys.a(_exit.o)
                0x000445d8                _exit
 *(.init)
 .init          0x000445dc        0x4 c:/mesh/arm_gcc/bin/../lib/gcc/arm-none-eabi/6.3.1/thumb/v7e-m/fpv4-sp/hard/crti.o
                0x000445dc                _init
 .init          0x000445e0        0x8 c:/mesh/arm_gcc/bin/../lib/gcc/arm-none-eabi/6.3.1/thumb/v7e-m/fpv4-sp/hard/crtn.o
 *(.fini)
 .fini          0x000445e8        0x4 c:/mesh/arm_gcc/bin/../lib/gcc/arm-none-eabi/6.3.1/thumb/v7e-m/fpv4-sp/hard/crti.o
                0x000445e8                _fini
 .fini          0x000445ec        0x8 c:/mesh/arm_gcc/bin/../lib/gcc/arm-none-eabi/6.3.1/thumb/v7e-m/fpv4-sp/hard/crtn.o
 *crtbegin.o(.ctors)
 *crtbegin?.o(.ctors)
 *(EXCLUDE_FILE(*crtend.o *crtend?.o) .ctors)
 *(SORT(.ctors.*))
 *(.ctors)
 *crtbegin.o(.dtors)
 *crtbegin?.o(.dtors)
 *(EXCLUDE_FILE(*crtend.o *crtend?.o) .dtors)
 *(SORT(.dtors.*))
 *(.dtors)
 *(.rodata*)
 .rodata        0x000445f4       0x10 examples/enocean_switch/CMakeFiles/enocean_switch_nrf52840_xxAA_s140_6.0.0.dir/src/main.c.obj
 .rodata.app_data_store_try.str1.4
                0x00044604       0x8d examples/enocean_switch/CMakeFiles/enocean_switch_nrf52840_xxAA_s140_6.0.0.dir/src/main.c.obj
 *fill*         0x00044691        0x3 
 .rodata.app_enocean_cb.str1.4
                0x00044694       0x90 examples/enocean_switch/CMakeFiles/enocean_switch_nrf52840_xxAA_s140_6.0.0.dir/src/main.c.obj
 .rodata.app_mesh_core_event_cb.str1.4
                0x00044724       0x5a examples/enocean_switch/CMakeFiles/enocean_switch_nrf52840_xxAA_s140_6.0.0.dir/src/main.c.obj
 *fill*         0x0004477e        0x2 
 .rodata.button_event_handler.str1.4
                0x00044780       0x13 examples/enocean_switch/CMakeFiles/enocean_switch_nrf52840_xxAA_s140_6.0.0.dir/src/main.c.obj
 *fill*         0x00044793        0x1 
 .rodata.client_status_cb.str1.4
                0x00044794       0x2f examples/enocean_switch/CMakeFiles/enocean_switch_nrf52840_xxAA_s140_6.0.0.dir/src/main.c.obj
 *fill*         0x000447c3        0x1 
 .rodata.main.str1.4
                0x000447c4       0x50 examples/enocean_switch/CMakeFiles/enocean_switch_nrf52840_xxAA_s140_6.0.0.dir/src/main.c.obj
 .rodata.models_init_cb.str1.4
                0x00044814       0x20 examples/enocean_switch/CMakeFiles/enocean_switch_nrf52840_xxAA_s140_6.0.0.dir/src/main.c.obj
 .rodata.node_reset.str1.4
                0x00044834       0x19 examples/enocean_switch/CMakeFiles/enocean_switch_nrf52840_xxAA_s140_6.0.0.dir/src/main.c.obj
 *fill*         0x0004484d        0x3 
 .rodata.provisioning_complete_cb.str1.4
                0x00044850       0x5b examples/enocean_switch/CMakeFiles/enocean_switch_nrf52840_xxAA_s140_6.0.0.dir/src/main.c.obj
 *fill*         0x000448ab        0x1 
 .rodata.static_auth_data.12908
                0x000448ac       0x10 examples/enocean_switch/CMakeFiles/enocean_switch_nrf52840_xxAA_s140_6.0.0.dir/src/main.c.obj
 .rodata.enocean_packet_process.str1.4
                0x000448bc       0x48 examples/enocean_switch/CMakeFiles/enocean_switch_nrf52840_xxAA_s140_6.0.0.dir/src/enocean.c.obj
 .rodata.app_flash_data_store.str1.4
                0x00044904        0xe examples/enocean_switch/CMakeFiles/enocean_switch_nrf52840_xxAA_s140_6.0.0.dir/src/flash_helper.c.obj
 *fill*         0x00044912        0x2 
 .rodata.app_flash_init.str1.4
                0x00044914       0x2a examples/enocean_switch/CMakeFiles/enocean_switch_nrf52840_xxAA_s140_6.0.0.dir/src/flash_helper.c.obj
 *fill*         0x0004493e        0x2 
 .rodata.flash_manager_mem_available.str1.4
                0x00044940       0x45 examples/enocean_switch/CMakeFiles/enocean_switch_nrf52840_xxAA_s140_6.0.0.dir/src/flash_helper.c.obj
 *fill*         0x00044985        0x3 
 .rodata.flash_remove_complete.str1.4
                0x00044988       0x17 examples/enocean_switch/CMakeFiles/enocean_switch_nrf52840_xxAA_s140_6.0.0.dir/src/flash_helper.c.obj
 *fill*         0x0004499f        0x1 
 .rodata.flash_reset.str1.4
                0x000449a0        0xf examples/enocean_switch/CMakeFiles/enocean_switch_nrf52840_xxAA_s140_6.0.0.dir/src/flash_helper.c.obj
 *fill*         0x000449af        0x1 
 .rodata.flash_write_complete.str1.4
                0x000449b0       0x16 examples/enocean_switch/CMakeFiles/enocean_switch_nrf52840_xxAA_s140_6.0.0.dir/src/flash_helper.c.obj
 *fill*         0x000449c6        0x2 
 .rodata.mesh_softdevice_init.str1.4
                0x000449c8       0xa9 examples/enocean_switch/CMakeFiles/enocean_switch_nrf52840_xxAA_s140_6.0.0.dir/__/common/src/mesh_softdevice_init.c.obj
 *fill*         0x00044a71        0x3 
 .rodata        0x00044a74        0xb examples/enocean_switch/CMakeFiles/enocean_switch_nrf52840_xxAA_s140_6.0.0.dir/__/common/src/mesh_provisionee.c.obj
 *fill*         0x00044a7f        0x1 
 .rodata.delay_bytecode.8707
                0x00044a80        0x6 examples/enocean_switch/CMakeFiles/enocean_switch_nrf52840_xxAA_s140_6.0.0.dir/__/common/src/simple_hal.c.obj
 *fill*         0x00044a86        0x2 
 .rodata.app_error_fault_handler.str1.4
                0x00044a88       0xc5 examples/enocean_switch/CMakeFiles/enocean_switch_nrf52840_xxAA_s140_6.0.0.dir/__/common/src/app_error_weak.c.obj
 .rodata.mesh_assertion_handler.str1.4
                0x00044b4d       0xc5 examples/enocean_switch/CMakeFiles/enocean_switch_nrf52840_xxAA_s140_6.0.0.dir/__/common/src/assertion_handler_weak.c.obj
                                  0x1 (size before relaxing)
 *fill*         0x00044b4d        0x3 
 .rodata.sar_ctx_cancel.str1.4
                0x00044b50       0x23 examples/enocean_switch/CMakeFiles/enocean_switch_nrf52840_xxAA_s140_6.0.0.dir/__/__/mesh/core/src/transport.c.obj
 *fill*         0x00044b73        0x1 
 .rodata.transport_packet_in.str1.4
                0x00044b74       0x24 examples/enocean_switch/CMakeFiles/enocean_switch_nrf52840_xxAA_s140_6.0.0.dir/__/__/mesh/core/src/transport.c.obj
 .rodata.upper_transport_access_packet_in.str1.4
                0x00044b98       0x3d examples/enocean_switch/CMakeFiles/enocean_switch_nrf52840_xxAA_s140_6.0.0.dir/__/__/mesh/core/src/transport.c.obj
 *fill*         0x00044bd5        0x3 
 .rodata.upper_transport_packet_in.str1.4
                0x00044bd8       0x2e examples/enocean_switch/CMakeFiles/enocean_switch_nrf52840_xxAA_s140_6.0.0.dir/__/__/mesh/core/src/transport.c.obj
 *fill*         0x00044c06        0x2 
 .rodata.upper_transport_tx.part.25.str1.4
                0x00044c08       0x2e examples/enocean_switch/CMakeFiles/enocean_switch_nrf52840_xxAA_s140_6.0.0.dir/__/__/mesh/core/src/transport.c.obj
                                 0x38 (size before relaxing)
 *fill*         0x00044c36        0x2 
 .rodata.m_procedure_steps
                0x00044c38       0x28 examples/enocean_switch/CMakeFiles/enocean_switch_nrf52840_xxAA_s140_6.0.0.dir/__/__/mesh/core/src/flash_manager_defrag.c.obj
 .rodata.m_all_operations
                0x00044c60       0x10 examples/enocean_switch/CMakeFiles/enocean_switch_nrf52840_xxAA_s140_6.0.0.dir/__/__/mesh/core/src/mesh_flash.c.obj
 .rodata.types_lookup.9352
                0x00044c70        0x4 examples/enocean_switch/CMakeFiles/enocean_switch_nrf52840_xxAA_s140_6.0.0.dir/__/__/mesh/core/src/nrf_mesh_utils.c.obj
 .rodata.__func__.11824
                0x00044c74       0x15 examples/enocean_switch/CMakeFiles/enocean_switch_nrf52840_xxAA_s140_6.0.0.dir/__/__/mesh/core/src/nrf_mesh.c.obj
 *fill*         0x00044c89        0x3 
 .rodata.nrf_mesh_listen.str1.4
                0x00044c8c       0x73 examples/enocean_switch/CMakeFiles/enocean_switch_nrf52840_xxAA_s140_6.0.0.dir/__/__/mesh/core/src/nrf_mesh.c.obj
 .rodata.nrf_mesh_packet_send.str1.4
                0x00044cff       0x73 examples/enocean_switch/CMakeFiles/enocean_switch_nrf52840_xxAA_s140_6.0.0.dir/__/__/mesh/core/src/nrf_mesh.c.obj
                                  0x4 (size before relaxing)
 *fill*         0x00044cff        0x1 
 .rodata.CSWTCH.7
                0x00044d00       0x20 examples/enocean_switch/CMakeFiles/enocean_switch_nrf52840_xxAA_s140_6.0.0.dir/__/__/mesh/core/src/hal.c.obj
 .rodata        0x00044d20       0x18 examples/enocean_switch/CMakeFiles/enocean_switch_nrf52840_xxAA_s140_6.0.0.dir/__/__/mesh/core/src/enc.c.obj
 .rodata.network_packet_in.str1.4
                0x00044d38       0x49 examples/enocean_switch/CMakeFiles/enocean_switch_nrf52840_xxAA_s140_6.0.0.dir/__/__/mesh/core/src/network.c.obj
 *fill*         0x00044d81        0x3 
 .rodata.net_packet_decrypt.str1.4
                0x00044d84       0x33 examples/enocean_switch/CMakeFiles/enocean_switch_nrf52840_xxAA_s140_6.0.0.dir/__/__/mesh/core/src/net_packet.c.obj
                                 0x3c (size before relaxing)
 *fill*         0x00044db7        0x1 
 .rodata        0x00044db8        0x7 examples/enocean_switch/CMakeFiles/enocean_switch_nrf52840_xxAA_s140_6.0.0.dir/__/__/mesh/core/src/nrf_mesh_keygen.c.obj
 *fill*         0x00044dbf        0x1 
 .rodata.log_callback_rtt.str1.4
                0x00044dc0       0x15 examples/enocean_switch/CMakeFiles/enocean_switch_nrf52840_xxAA_s140_6.0.0.dir/__/__/mesh/core/src/log.c.obj
 *fill*         0x00044dd5        0x3 
 .rodata.str1.4
                0x00044dd8       0x11 examples/enocean_switch/CMakeFiles/enocean_switch_nrf52840_xxAA_s140_6.0.0.dir/__/__/mesh/core/src/log.c.obj
 *fill*         0x00044de9        0x3 
 .rodata.INVALID_HEADER
                0x00044dec        0x4 examples/enocean_switch/CMakeFiles/enocean_switch_nrf52840_xxAA_s140_6.0.0.dir/__/__/mesh/core/src/flash_manager.c.obj
                0x00044dec                INVALID_HEADER
 .rodata.PADDING_HEADER
                0x00044df0        0x4 examples/enocean_switch/CMakeFiles/enocean_switch_nrf52840_xxAA_s140_6.0.0.dir/__/__/mesh/core/src/flash_manager.c.obj
                0x00044df0                PADDING_HEADER
 .rodata.SEAL_HEADER
                0x00044df4        0x4 examples/enocean_switch/CMakeFiles/enocean_switch_nrf52840_xxAA_s140_6.0.0.dir/__/__/mesh/core/src/flash_manager.c.obj
                0x00044df4                SEAL_HEADER
 .rodata.beacon_packet_in.str1.4
                0x00044df8       0x55 examples/enocean_switch/CMakeFiles/enocean_switch_nrf52840_xxAA_s140_6.0.0.dir/__/__/mesh/core/src/beacon.c.obj
                                 0x60 (size before relaxing)
 *fill*         0x00044e4d        0x3 
 .rodata.cp_handler
                0x00044e50        0x8 examples/enocean_switch/CMakeFiles/enocean_switch_nrf52840_xxAA_s140_6.0.0.dir/__/__/mesh/core/src/heartbeat.c.obj
 .rodata.beacon_tx.str1.4
                0x00044e58       0x37 examples/enocean_switch/CMakeFiles/enocean_switch_nrf52840_xxAA_s140_6.0.0.dir/__/__/mesh/core/src/net_beacon.c.obj
 *fill*         0x00044e8f        0x1 
 .rodata.net_beacon_init.str1.4
                0x00044e90        0x5 examples/enocean_switch/CMakeFiles/enocean_switch_nrf52840_xxAA_s140_6.0.0.dir/__/__/mesh/core/src/net_beacon.c.obj
 *fill*         0x00044e95        0x3 
 .rodata.m_interface
                0x00044e98        0xc examples/enocean_switch/CMakeFiles/enocean_switch_nrf52840_xxAA_s140_6.0.0.dir/__/__/mesh/core/src/core_tx_adv.c.obj
 .rodata.radio_mode_to_us_per_byte.9745
                0x00044ea4        0x6 examples/enocean_switch/CMakeFiles/enocean_switch_nrf52840_xxAA_s140_6.0.0.dir/__/__/mesh/bearer/src/broadcast.c.obj
 *fill*         0x00044eaa        0x2 
 .rodata.channel_rf_offsets.8986
                0x00044eac       0x28 examples/enocean_switch/CMakeFiles/enocean_switch_nrf52840_xxAA_s140_6.0.0.dir/__/__/mesh/bearer/src/radio_config.c.obj
 .rodata.m_opcode_handlers
                0x00044ed4        0x8 examples/enocean_switch/CMakeFiles/enocean_switch_nrf52840_xxAA_s140_6.0.0.dir/__/__/models/simple_on_off/src/simple_on_off_client.c.obj
 .rodata        0x00044edc        0x8 examples/enocean_switch/CMakeFiles/enocean_switch_nrf52840_xxAA_s140_6.0.0.dir/__/__/models/config/src/config_server.c.obj
 .rodata.CSWTCH.122
                0x00044ee4       0x10 examples/enocean_switch/CMakeFiles/enocean_switch_nrf52840_xxAA_s140_6.0.0.dir/__/__/models/config/src/config_server.c.obj
 .rodata.opcode_handlers
                0x00044ef4      0x170 examples/enocean_switch/CMakeFiles/enocean_switch_nrf52840_xxAA_s140_6.0.0.dir/__/__/models/config/src/config_server.c.obj
 .rodata.m_opcode_handlers
                0x00045064       0x58 examples/enocean_switch/CMakeFiles/enocean_switch_nrf52840_xxAA_s140_6.0.0.dir/__/__/models/health/src/health_server.c.obj
 .rodata.multiply_de_bruijn_bit_position.9597
                0x000450bc       0x20 examples/enocean_switch/CMakeFiles/enocean_switch_nrf52840_xxAA_s140_6.0.0.dir/__/__/models/health/src/health_server.c.obj
 .rodata.access_model_publish.str1.4
                0x000450dc       0x1c examples/enocean_switch/CMakeFiles/enocean_switch_nrf52840_xxAA_s140_6.0.0.dir/__/__/mesh/access/src/access.c.obj
                                 0x24 (size before relaxing)
 .rodata.mesh_evt_cb.str1.4
                0x000450f8       0x2f examples/enocean_switch/CMakeFiles/enocean_switch_nrf52840_xxAA_s140_6.0.0.dir/__/__/mesh/access/src/access.c.obj
 *fill*         0x00045127        0x1 
 .rodata.multiply_de_bruijn_bit_position.9553
                0x00045128       0x20 examples/enocean_switch/CMakeFiles/enocean_switch_nrf52840_xxAA_s140_6.0.0.dir/__/__/mesh/access/src/access.c.obj
 .rodata.m_flash_groups
                0x00045148       0xa8 examples/enocean_switch/CMakeFiles/enocean_switch_nrf52840_xxAA_s140_6.0.0.dir/__/__/mesh/access/src/device_state_manager.c.obj
 .rodata.multiply_de_bruijn_bit_position.9659
                0x000451f0       0x20 examples/enocean_switch/CMakeFiles/enocean_switch_nrf52840_xxAA_s140_6.0.0.dir/__/__/mesh/access/src/device_state_manager.c.obj
 .rodata.m_prov_callbacks
                0x00045210       0x10 examples/enocean_switch/CMakeFiles/enocean_switch_nrf52840_xxAA_s140_6.0.0.dir/__/__/mesh/prov/src/prov_provisionee.c.obj
 .rodata.prov_provisionee_cb_ack_received.str1.4
                0x00045220       0x53 examples/enocean_switch/CMakeFiles/enocean_switch_nrf52840_xxAA_s140_6.0.0.dir/__/__/mesh/prov/src/prov_provisionee.c.obj
 *fill*         0x00045273        0x1 
 .rodata.multiply_de_bruijn_bit_position.9606
                0x00045274       0x20 examples/enocean_switch/CMakeFiles/enocean_switch_nrf52840_xxAA_s140_6.0.0.dir/__/__/mesh/prov/src/nrf_mesh_prov.c.obj
 .rodata.pdu_sizes.11531
                0x00045294        0xa examples/enocean_switch/CMakeFiles/enocean_switch_nrf52840_xxAA_s140_6.0.0.dir/__/__/mesh/prov/src/provisioning.c.obj
 *fill*         0x0004529e        0x2 
 .rodata.alphanumeric.11636
                0x000452a0       0x25 examples/enocean_switch/CMakeFiles/enocean_switch_nrf52840_xxAA_s140_6.0.0.dir/__/__/mesh/prov/src/prov_utils.c.obj
 *fill*         0x000452c5        0x3 
 .rodata.numeric_max.11630
                0x000452c8       0x24 examples/enocean_switch/CMakeFiles/enocean_switch_nrf52840_xxAA_s140_6.0.0.dir/__/__/mesh/prov/src/prov_utils.c.obj
 .rodata.prov_utils_authentication_values_derive.str1.4
                0x000452ec        0x5 examples/enocean_switch/CMakeFiles/enocean_switch_nrf52840_xxAA_s140_6.0.0.dir/__/__/mesh/prov/src/prov_utils.c.obj
 *fill*         0x000452f1        0x3 
 .rodata.prov_utils_derive_keys.str1.4
                0x000452f4       0x15 examples/enocean_switch/CMakeFiles/enocean_switch_nrf52840_xxAA_s140_6.0.0.dir/__/__/mesh/prov/src/prov_utils.c.obj
 *fill*         0x00045309        0x3 
 .rodata.crctable.11265
                0x0004530c      0x100 examples/enocean_switch/CMakeFiles/enocean_switch_nrf52840_xxAA_s140_6.0.0.dir/__/__/mesh/prov/src/prov_bearer_adv.c.obj
 .rodata.interface.11495
                0x0004540c       0x14 examples/enocean_switch/CMakeFiles/enocean_switch_nrf52840_xxAA_s140_6.0.0.dir/__/__/mesh/prov/src/prov_bearer_adv.c.obj
 .rodata.prov_bearer_adv_listen.str1.4
                0x00045420       0x50 examples/enocean_switch/CMakeFiles/enocean_switch_nrf52840_xxAA_s140_6.0.0.dir/__/__/mesh/prov/src/prov_bearer_adv.c.obj
 .rodata.prov_bearer_adv_packet_in.str1.4
                0x00045470      0x283 examples/enocean_switch/CMakeFiles/enocean_switch_nrf52840_xxAA_s140_6.0.0.dir/__/__/mesh/prov/src/prov_bearer_adv.c.obj
 *fill*         0x000456f3        0x1 
 .rodata.tx_retry_cb.str1.4
                0x000456f4       0x14 examples/enocean_switch/CMakeFiles/enocean_switch_nrf52840_xxAA_s140_6.0.0.dir/__/__/mesh/prov/src/prov_bearer_adv.c.obj
 .rodata.SEGGER_RTT_ReadNoLock.str1.4
                0x00045708       0x18 external/rtt/librtt_nrf52840_xxAA.a(SEGGER_RTT.c.obj)
                                 0x17 (size before relaxing)
 .rodata._aV2C.5497
                0x00045720       0x10 external/rtt/librtt_nrf52840_xxAA.a(SEGGER_RTT_printf.c.obj)
 .rodata.curve_secp256r1
                0x00045730       0xb0 external/micro-ecc/libuECC_nrf52840_xxAA.a(uECC.c.obj)
 .rodata._global_impure_ptr
                0x000457e0        0x4 c:/mesh/arm_gcc/bin/../lib/gcc/arm-none-eabi/6.3.1/../../../../arm-none-eabi/lib/thumb/v7e-m/fpv4-sp/hard\libc_nano.a(lib_a-impure.o)
                0x000457e0                _global_impure_ptr
 *(.eh_frame*)
 .eh_frame      0x000457e4        0x0 c:/mesh/arm_gcc/bin/../lib/gcc/arm-none-eabi/6.3.1/thumb/v7e-m/fpv4-sp/hard/crtbegin.o
 .eh_frame      0x000457e4        0x4 c:/mesh/arm_gcc/bin/../lib/gcc/arm-none-eabi/6.3.1/thumb/v7e-m/fpv4-sp/hard/crtend.o

.glue_7         0x000457e8        0x0
 .glue_7        0x000457e8        0x0 linker stubs

.glue_7t        0x000457e8        0x0
 .glue_7t       0x000457e8        0x0 linker stubs

.vfp11_veneer   0x000457e8        0x0
 .vfp11_veneer  0x000457e8        0x0 linker stubs

.v4_bx          0x000457e8        0x0
 .v4_bx         0x000457e8        0x0 linker stubs

.iplt           0x000457e8        0x0
 .iplt          0x000457e8        0x0 c:/mesh/arm_gcc/bin/../lib/gcc/arm-none-eabi/6.3.1/thumb/v7e-m/fpv4-sp/hard/crtbegin.o

.pwr_mgmt_data  0x000457e8        0x0
                [!provide]                PROVIDE (__start_pwr_mgmt_data, .)
 *(SORT(.pwr_mgmt_data*))
                [!provide]                PROVIDE (__stop_pwr_mgmt_data, .)

.log_const_data
                0x000457e8        0x0
                [!provide]                PROVIDE (__start_log_const_data, .)
 *(.log_const_data)
                [!provide]                PROVIDE (__stop_log_const_data, .)

.cli_command    0x000457e8        0x0
                [!provide]                PROVIDE (__start_cli_command, .)
 *(.cli_command)
                [!provide]                PROVIDE (__stop_cli_command, .)

.sdh_stack_observers
                0x000457e8        0x0
                [!provide]                PROVIDE (__start_sdh_stack_observers, .)
 *(SORT(.sdh_stack_observers*))
                [!provide]                PROVIDE (__stop_sdh_stack_observers, .)

.sdh_req_observers
                0x000457e8        0x0
                [!provide]                PROVIDE (__start_sdh_req_observers, .)
 *(SORT(.sdh_req_observers*))
                [!provide]                PROVIDE (__stop_sdh_req_observers, .)

.sdh_state_observers
                0x000457e8        0x0
                [!provide]                PROVIDE (__start_sdh_state_observers, .)
 *(SORT(.sdh_state_observers*))
                [!provide]                PROVIDE (__stop_sdh_state_observers, .)

.sdh_ant_observers
                0x000457e8        0x0
                [!provide]                PROVIDE (__start_sdh_ant_observers, .)
 *(SORT(.sdh_ant_observers*))
                [!provide]                PROVIDE (__stop_sdh_ant_observers, .)

.sdh_ble_observers
                0x000457e8        0x0
                [!provide]                PROVIDE (__start_sdh_ble_observers, .)
 *(SORT(.sdh_ble_observers*))
                [!provide]                PROVIDE (__stop_sdh_ble_observers, .)

.sdh_soc_observers
                0x000457e8        0x0
                [!provide]                PROVIDE (__start_sdh_soc_observers, .)
 *(SORT(.sdh_soc_observers*))
                [!provide]                PROVIDE (__stop_sdh_soc_observers, .)

.ARM.extab
 *(.ARM.extab* .gnu.linkonce.armextab.*)
                0x000457e8                __exidx_start = .

.ARM.exidx      0x000457e8        0x8
 *(.ARM.exidx* .gnu.linkonce.armexidx.*)
 .ARM.exidx     0x000457e8        0x8 c:/mesh/arm_gcc/bin/../lib/gcc/arm-none-eabi/6.3.1/../../../../arm-none-eabi/lib/thumb/v7e-m/fpv4-sp/hard/crt0.o
 .ARM.exidx     0x000457f0        0x0 c:/mesh/arm_gcc/bin/../lib/gcc/arm-none-eabi/6.3.1/thumb/v7e-m/fpv4-sp/hard\libgcc.a(_udivmoddi4.o)
                                  0x8 (size before relaxing)
                0x000457f0                __exidx_end = .
                0x000457f0                __etext = .

.rel.dyn        0x000457f0        0x0
 .rel.iplt      0x000457f0        0x0 c:/mesh/arm_gcc/bin/../lib/gcc/arm-none-eabi/6.3.1/thumb/v7e-m/fpv4-sp/hard/crtbegin.o

.data           0x200032c8      0x16c load address 0x000457f0
                0x200032c8                __data_start__ = .
 *(vtable)
 *(.data*)
 .data.m_mesh_core_event_handler
                0x200032c8        0x8 examples/enocean_switch/CMakeFiles/enocean_switch_nrf52840_xxAA_s140_6.0.0.dir/src/main.c.obj
 .data.flash_add_mem_available_struct.10111
                0x200032d0       0x10 examples/enocean_switch/CMakeFiles/enocean_switch_nrf52840_xxAA_s140_6.0.0.dir/src/flash_helper.c.obj
 .data.mem_listener.10107
                0x200032e0       0x10 examples/enocean_switch/CMakeFiles/enocean_switch_nrf52840_xxAA_s140_6.0.0.dir/src/flash_helper.c.obj
 .data.s_evt_handler.11348
                0x200032f0        0x8 examples/enocean_switch/CMakeFiles/enocean_switch_nrf52840_xxAA_s140_6.0.0.dir/__/__/mesh/stack/src/mesh_stack.c.obj
 .data.wait.9229
                0x200032f8        0x1 examples/enocean_switch/CMakeFiles/enocean_switch_nrf52840_xxAA_s140_6.0.0.dir/__/common/src/app_error_weak.c.obj
 *fill*         0x200032f9        0x3 
 .data.mem_listener.10103
                0x200032fc       0x10 examples/enocean_switch/CMakeFiles/enocean_switch_nrf52840_xxAA_s140_6.0.0.dir/__/__/mesh/core/src/net_state.c.obj
 .data.mem_listener.10108
                0x2000330c       0x10 examples/enocean_switch/CMakeFiles/enocean_switch_nrf52840_xxAA_s140_6.0.0.dir/__/__/mesh/core/src/net_state.c.obj
 .data.mem_listener.10122
                0x2000331c       0x10 examples/enocean_switch/CMakeFiles/enocean_switch_nrf52840_xxAA_s140_6.0.0.dir/__/__/mesh/core/src/net_state.c.obj
 .data.mem_listener.10139
                0x2000332c       0x10 examples/enocean_switch/CMakeFiles/enocean_switch_nrf52840_xxAA_s140_6.0.0.dir/__/__/mesh/core/src/net_state.c.obj
 .data.m_nrf_mesh_listener
                0x2000333c        0xc examples/enocean_switch/CMakeFiles/enocean_switch_nrf52840_xxAA_s140_6.0.0.dir/__/__/mesh/core/src/nrf_mesh.c.obj
 .data.g_log_dbg_lvl
                0x20003348        0x4 examples/enocean_switch/CMakeFiles/enocean_switch_nrf52840_xxAA_s140_6.0.0.dir/__/__/mesh/core/src/log.c.obj
                0x20003348                g_log_dbg_lvl
 .data.g_log_dbg_msk
                0x2000334c        0x4 examples/enocean_switch/CMakeFiles/enocean_switch_nrf52840_xxAA_s140_6.0.0.dir/__/__/mesh/core/src/log.c.obj
                0x2000334c                g_log_dbg_msk
 .data.g_log_hex_digits
                0x20003350        0x4 examples/enocean_switch/CMakeFiles/enocean_switch_nrf52840_xxAA_s140_6.0.0.dir/__/__/mesh/core/src/log.c.obj
                0x20003350                g_log_hex_digits
 .data.m_log_callback
                0x20003354        0x4 examples/enocean_switch/CMakeFiles/enocean_switch_nrf52840_xxAA_s140_6.0.0.dir/__/__/mesh/core/src/log.c.obj
                0x20003354                m_log_callback
 .data.m_config_server_handle
                0x20003358        0x2 examples/enocean_switch/CMakeFiles/enocean_switch_nrf52840_xxAA_s140_6.0.0.dir/__/__/models/config/src/config_server.c.obj
 *fill*         0x2000335a        0x2 
 .data.m_mesh_evt_handler
                0x2000335c        0x8 examples/enocean_switch/CMakeFiles/enocean_switch_nrf52840_xxAA_s140_6.0.0.dir/__/__/models/config/src/config_server.c.obj
 .data.flash_add_mem_available_struct.10677
                0x20003364       0x10 examples/enocean_switch/CMakeFiles/enocean_switch_nrf52840_xxAA_s140_6.0.0.dir/__/__/mesh/access/src/access.c.obj
 .data.flash_clear_mem_available_struct.10766
                0x20003374       0x10 examples/enocean_switch/CMakeFiles/enocean_switch_nrf52840_xxAA_s140_6.0.0.dir/__/__/mesh/access/src/access.c.obj
 .data.flash_store_mem_available_struct.10790
                0x20003384       0x10 examples/enocean_switch/CMakeFiles/enocean_switch_nrf52840_xxAA_s140_6.0.0.dir/__/__/mesh/access/src/access.c.obj
 .data.m_default_ttl
                0x20003394        0x1 examples/enocean_switch/CMakeFiles/enocean_switch_nrf52840_xxAA_s140_6.0.0.dir/__/__/mesh/access/src/access.c.obj
 *fill*         0x20003395        0x3 
 .data.mem_listener.10966
                0x20003398       0x10 examples/enocean_switch/CMakeFiles/enocean_switch_nrf52840_xxAA_s140_6.0.0.dir/__/__/mesh/access/src/device_state_manager.c.obj
 .data.mem_listener.10992
                0x200033a8       0x10 examples/enocean_switch/CMakeFiles/enocean_switch_nrf52840_xxAA_s140_6.0.0.dir/__/__/mesh/access/src/device_state_manager.c.obj
 .data.m_async_process_flag
                0x200033b8        0x4 examples/enocean_switch/CMakeFiles/enocean_switch_nrf52840_xxAA_s140_6.0.0.dir/__/__/mesh/prov/src/prov_bearer_adv.c.obj
 .data.SystemCoreClock
                0x200033bc        0x4 examples/enocean_switch/CMakeFiles/enocean_switch_nrf52840_xxAA_s140_6.0.0.dir/C_/ver/mod/nRF5_SDK_15.0.0_a53641a/modules/nrfx/mdk/system_nrf52840.c.obj
                0x200033bc                SystemCoreClock
 .data.g_rng_function
                0x200033c0        0x4 external/micro-ecc/libuECC_nrf52840_xxAA.a(uECC.c.obj)
 .data._impure_ptr
                0x200033c4        0x4 c:/mesh/arm_gcc/bin/../lib/gcc/arm-none-eabi/6.3.1/../../../../arm-none-eabi/lib/thumb/v7e-m/fpv4-sp/hard\libc_nano.a(lib_a-impure.o)
                0x200033c4                _impure_ptr
 .data.impure_data
                0x200033c8       0x60 c:/mesh/arm_gcc/bin/../lib/gcc/arm-none-eabi/6.3.1/../../../../arm-none-eabi/lib/thumb/v7e-m/fpv4-sp/hard\libc_nano.a(lib_a-impure.o)
                0x20003428                . = ALIGN (0x4)
                0x20003428                PROVIDE (__preinit_array_start, .)
 *(.preinit_array)
                0x20003428                PROVIDE (__preinit_array_end, .)
                0x20003428                . = ALIGN (0x4)
                0x20003428                PROVIDE (__init_array_start, .)
 *(SORT(.init_array.*))
 *(.init_array)
 .init_array    0x20003428        0x4 c:/mesh/arm_gcc/bin/../lib/gcc/arm-none-eabi/6.3.1/thumb/v7e-m/fpv4-sp/hard/crtbegin.o
                0x2000342c                PROVIDE (__init_array_end, .)
                0x2000342c                . = ALIGN (0x4)
                [!provide]                PROVIDE (__fini_array_start, .)
 *(SORT(.fini_array.*))
 *(.fini_array)
 .fini_array    0x2000342c        0x4 c:/mesh/arm_gcc/bin/../lib/gcc/arm-none-eabi/6.3.1/thumb/v7e-m/fpv4-sp/hard/crtbegin.o
                [!provide]                PROVIDE (__fini_array_end, .)
 *(.jcr*)
 .jcr           0x20003430        0x0 c:/mesh/arm_gcc/bin/../lib/gcc/arm-none-eabi/6.3.1/thumb/v7e-m/fpv4-sp/hard/crtbegin.o
 .jcr           0x20003430        0x4 c:/mesh/arm_gcc/bin/../lib/gcc/arm-none-eabi/6.3.1/thumb/v7e-m/fpv4-sp/hard/crtend.o
                0x20003434                . = ALIGN (0x4)
                0x20003434                __data_end__ = .
LOAD c:/mesh/arm_gcc/bin/../lib/gcc/arm-none-eabi/6.3.1/thumb/v7e-m/fpv4-sp/hard/crti.o
LOAD c:/mesh/arm_gcc/bin/../lib/gcc/arm-none-eabi/6.3.1/thumb/v7e-m/fpv4-sp/hard/crtbegin.o
LOAD c:/mesh/arm_gcc/bin/../lib/gcc/arm-none-eabi/6.3.1/../../../../arm-none-eabi/lib/thumb/v7e-m/fpv4-sp/hard/crt0.o
LOAD examples/enocean_switch/CMakeFiles/enocean_switch_nrf52840_xxAA_s140_6.0.0.dir/src/main.c.obj
LOAD examples/enocean_switch/CMakeFiles/enocean_switch_nrf52840_xxAA_s140_6.0.0.dir/src/enocean.c.obj
LOAD examples/enocean_switch/CMakeFiles/enocean_switch_nrf52840_xxAA_s140_6.0.0.dir/src/flash_helper.c.obj
LOAD examples/enocean_switch/CMakeFiles/enocean_switch_nrf52840_xxAA_s140_6.0.0.dir/__/__/mesh/stack/src/mesh_stack.c.obj
LOAD examples/enocean_switch/CMakeFiles/enocean_switch_nrf52840_xxAA_s140_6.0.0.dir/__/common/src/mesh_softdevice_init.c.obj
LOAD examples/enocean_switch/CMakeFiles/enocean_switch_nrf52840_xxAA_s140_6.0.0.dir/__/common/src/mesh_provisionee.c.obj
LOAD examples/enocean_switch/CMakeFiles/enocean_switch_nrf52840_xxAA_s140_6.0.0.dir/__/common/src/rtt_input.c.obj
LOAD examples/enocean_switch/CMakeFiles/enocean_switch_nrf52840_xxAA_s140_6.0.0.dir/__/common/src/simple_hal.c.obj
LOAD examples/enocean_switch/CMakeFiles/enocean_switch_nrf52840_xxAA_s140_6.0.0.dir/__/common/src/mesh_app_utils.c.obj
LOAD examples/enocean_switch/CMakeFiles/enocean_switch_nrf52840_xxAA_s140_6.0.0.dir/__/nrf_mesh_weak.c.obj
LOAD examples/enocean_switch/CMakeFiles/enocean_switch_nrf52840_xxAA_s140_6.0.0.dir/__/common/src/app_error_weak.c.obj
LOAD examples/enocean_switch/CMakeFiles/enocean_switch_nrf52840_xxAA_s140_6.0.0.dir/__/common/src/assertion_handler_weak.c.obj
LOAD examples/enocean_switch/CMakeFiles/enocean_switch_nrf52840_xxAA_s140_6.0.0.dir/__/__/mesh/core/src/internal_event.c.obj
LOAD examples/enocean_switch/CMakeFiles/enocean_switch_nrf52840_xxAA_s140_6.0.0.dir/__/__/mesh/core/src/nrf_mesh_configure.c.obj
LOAD examples/enocean_switch/CMakeFiles/enocean_switch_nrf52840_xxAA_s140_6.0.0.dir/__/__/mesh/core/src/aes.c.obj
LOAD examples/enocean_switch/CMakeFiles/enocean_switch_nrf52840_xxAA_s140_6.0.0.dir/__/__/mesh/core/src/msg_cache.c.obj
LOAD examples/enocean_switch/CMakeFiles/enocean_switch_nrf52840_xxAA_s140_6.0.0.dir/__/__/mesh/core/src/transport.c.obj
LOAD examples/enocean_switch/CMakeFiles/enocean_switch_nrf52840_xxAA_s140_6.0.0.dir/__/__/mesh/core/src/event.c.obj
LOAD examples/enocean_switch/CMakeFiles/enocean_switch_nrf52840_xxAA_s140_6.0.0.dir/__/__/mesh/core/src/packet_buffer.c.obj
LOAD examples/enocean_switch/CMakeFiles/enocean_switch_nrf52840_xxAA_s140_6.0.0.dir/__/__/mesh/core/src/flash_manager_defrag.c.obj
LOAD examples/enocean_switch/CMakeFiles/enocean_switch_nrf52840_xxAA_s140_6.0.0.dir/__/__/mesh/core/src/fifo.c.obj
LOAD examples/enocean_switch/CMakeFiles/enocean_switch_nrf52840_xxAA_s140_6.0.0.dir/__/__/mesh/core/src/nrf_flash.c.obj
LOAD examples/enocean_switch/CMakeFiles/enocean_switch_nrf52840_xxAA_s140_6.0.0.dir/__/__/mesh/core/src/packet_mgr.c.obj
LOAD examples/enocean_switch/CMakeFiles/enocean_switch_nrf52840_xxAA_s140_6.0.0.dir/__/__/mesh/core/src/net_state.c.obj
LOAD examples/enocean_switch/CMakeFiles/enocean_switch_nrf52840_xxAA_s140_6.0.0.dir/__/__/mesh/core/src/mesh_flash.c.obj
LOAD examples/enocean_switch/CMakeFiles/enocean_switch_nrf52840_xxAA_s140_6.0.0.dir/__/__/mesh/core/src/nrf_mesh_utils.c.obj
LOAD examples/enocean_switch/CMakeFiles/enocean_switch_nrf52840_xxAA_s140_6.0.0.dir/__/__/mesh/core/src/nrf_mesh.c.obj
LOAD examples/enocean_switch/CMakeFiles/enocean_switch_nrf52840_xxAA_s140_6.0.0.dir/__/__/mesh/core/src/queue.c.obj
LOAD examples/enocean_switch/CMakeFiles/enocean_switch_nrf52840_xxAA_s140_6.0.0.dir/__/__/mesh/core/src/hal.c.obj
LOAD examples/enocean_switch/CMakeFiles/enocean_switch_nrf52840_xxAA_s140_6.0.0.dir/__/__/mesh/core/src/aes_cmac.c.obj
LOAD examples/enocean_switch/CMakeFiles/enocean_switch_nrf52840_xxAA_s140_6.0.0.dir/__/__/mesh/core/src/timer_scheduler.c.obj
LOAD examples/enocean_switch/CMakeFiles/enocean_switch_nrf52840_xxAA_s140_6.0.0.dir/__/__/mesh/core/src/timer.c.obj
LOAD examples/enocean_switch/CMakeFiles/enocean_switch_nrf52840_xxAA_s140_6.0.0.dir/__/__/mesh/core/src/ticker.c.obj
LOAD examples/enocean_switch/CMakeFiles/enocean_switch_nrf52840_xxAA_s140_6.0.0.dir/__/__/mesh/core/src/rand.c.obj
LOAD examples/enocean_switch/CMakeFiles/enocean_switch_nrf52840_xxAA_s140_6.0.0.dir/__/__/mesh/core/src/nrf_mesh_opt.c.obj
LOAD examples/enocean_switch/CMakeFiles/enocean_switch_nrf52840_xxAA_s140_6.0.0.dir/__/__/mesh/core/src/timeslot.c.obj
LOAD examples/enocean_switch/CMakeFiles/enocean_switch_nrf52840_xxAA_s140_6.0.0.dir/__/__/mesh/core/src/bearer_event.c.obj
LOAD examples/enocean_switch/CMakeFiles/enocean_switch_nrf52840_xxAA_s140_6.0.0.dir/__/__/mesh/core/src/enc.c.obj
LOAD examples/enocean_switch/CMakeFiles/enocean_switch_nrf52840_xxAA_s140_6.0.0.dir/__/__/mesh/core/src/network.c.obj
LOAD examples/enocean_switch/CMakeFiles/enocean_switch_nrf52840_xxAA_s140_6.0.0.dir/__/__/mesh/core/src/net_packet.c.obj
LOAD examples/enocean_switch/CMakeFiles/enocean_switch_nrf52840_xxAA_s140_6.0.0.dir/__/__/mesh/core/src/msqueue.c.obj
LOAD examples/enocean_switch/CMakeFiles/enocean_switch_nrf52840_xxAA_s140_6.0.0.dir/__/__/mesh/core/src/nrf_mesh_keygen.c.obj
LOAD examples/enocean_switch/CMakeFiles/enocean_switch_nrf52840_xxAA_s140_6.0.0.dir/__/__/mesh/core/src/cache.c.obj
LOAD examples/enocean_switch/CMakeFiles/enocean_switch_nrf52840_xxAA_s140_6.0.0.dir/__/__/mesh/core/src/uri.c.obj
LOAD examples/enocean_switch/CMakeFiles/enocean_switch_nrf52840_xxAA_s140_6.0.0.dir/__/__/mesh/core/src/list.c.obj
LOAD examples/enocean_switch/CMakeFiles/enocean_switch_nrf52840_xxAA_s140_6.0.0.dir/__/__/mesh/core/src/log.c.obj
LOAD examples/enocean_switch/CMakeFiles/enocean_switch_nrf52840_xxAA_s140_6.0.0.dir/__/__/mesh/core/src/flash_manager.c.obj
LOAD examples/enocean_switch/CMakeFiles/enocean_switch_nrf52840_xxAA_s140_6.0.0.dir/__/__/mesh/core/src/ccm_soft.c.obj
LOAD examples/enocean_switch/CMakeFiles/enocean_switch_nrf52840_xxAA_s140_6.0.0.dir/__/__/mesh/core/src/toolchain.c.obj
LOAD examples/enocean_switch/CMakeFiles/enocean_switch_nrf52840_xxAA_s140_6.0.0.dir/__/__/mesh/core/src/replay_cache.c.obj
LOAD examples/enocean_switch/CMakeFiles/enocean_switch_nrf52840_xxAA_s140_6.0.0.dir/__/__/mesh/core/src/beacon.c.obj
LOAD examples/enocean_switch/CMakeFiles/enocean_switch_nrf52840_xxAA_s140_6.0.0.dir/__/__/mesh/core/src/flash_manager_internal.c.obj
LOAD examples/enocean_switch/CMakeFiles/enocean_switch_nrf52840_xxAA_s140_6.0.0.dir/__/__/mesh/core/src/core_tx.c.obj
LOAD examples/enocean_switch/CMakeFiles/enocean_switch_nrf52840_xxAA_s140_6.0.0.dir/__/__/mesh/core/src/heartbeat.c.obj
LOAD examples/enocean_switch/CMakeFiles/enocean_switch_nrf52840_xxAA_s140_6.0.0.dir/__/__/mesh/core/src/net_beacon.c.obj
LOAD examples/enocean_switch/CMakeFiles/enocean_switch_nrf52840_xxAA_s140_6.0.0.dir/__/__/mesh/core/src/fsm.c.obj
LOAD examples/enocean_switch/CMakeFiles/enocean_switch_nrf52840_xxAA_s140_6.0.0.dir/__/__/mesh/core/src/core_tx_adv.c.obj
LOAD examples/enocean_switch/CMakeFiles/enocean_switch_nrf52840_xxAA_s140_6.0.0.dir/__/__/mesh/bearer/src/ad_listener.c.obj
LOAD examples/enocean_switch/CMakeFiles/enocean_switch_nrf52840_xxAA_s140_6.0.0.dir/__/__/mesh/bearer/src/ad_type_filter.c.obj
LOAD examples/enocean_switch/CMakeFiles/enocean_switch_nrf52840_xxAA_s140_6.0.0.dir/__/__/mesh/bearer/src/adv_packet_filter.c.obj
LOAD examples/enocean_switch/CMakeFiles/enocean_switch_nrf52840_xxAA_s140_6.0.0.dir/__/__/mesh/bearer/src/advertiser.c.obj
LOAD examples/enocean_switch/CMakeFiles/enocean_switch_nrf52840_xxAA_s140_6.0.0.dir/__/__/mesh/bearer/src/bearer_handler.c.obj
LOAD examples/enocean_switch/CMakeFiles/enocean_switch_nrf52840_xxAA_s140_6.0.0.dir/__/__/mesh/bearer/src/broadcast.c.obj
LOAD examples/enocean_switch/CMakeFiles/enocean_switch_nrf52840_xxAA_s140_6.0.0.dir/__/__/mesh/bearer/src/filter_engine.c.obj
LOAD examples/enocean_switch/CMakeFiles/enocean_switch_nrf52840_xxAA_s140_6.0.0.dir/__/__/mesh/bearer/src/gap_address_filter.c.obj
LOAD examples/enocean_switch/CMakeFiles/enocean_switch_nrf52840_xxAA_s140_6.0.0.dir/__/__/mesh/bearer/src/radio_config.c.obj
LOAD examples/enocean_switch/CMakeFiles/enocean_switch_nrf52840_xxAA_s140_6.0.0.dir/__/__/mesh/bearer/src/rssi_filter.c.obj
LOAD examples/enocean_switch/CMakeFiles/enocean_switch_nrf52840_xxAA_s140_6.0.0.dir/__/__/mesh/bearer/src/scanner.c.obj
LOAD examples/enocean_switch/CMakeFiles/enocean_switch_nrf52840_xxAA_s140_6.0.0.dir/__/__/models/simple_on_off/src/simple_on_off_client.c.obj
LOAD examples/enocean_switch/CMakeFiles/enocean_switch_nrf52840_xxAA_s140_6.0.0.dir/__/__/models/config/src/composition_data.c.obj
LOAD examples/enocean_switch/CMakeFiles/enocean_switch_nrf52840_xxAA_s140_6.0.0.dir/__/__/models/config/src/config_server.c.obj
LOAD examples/enocean_switch/CMakeFiles/enocean_switch_nrf52840_xxAA_s140_6.0.0.dir/__/__/models/config/src/packed_index_list.c.obj
LOAD examples/enocean_switch/CMakeFiles/enocean_switch_nrf52840_xxAA_s140_6.0.0.dir/__/__/models/health/src/health_server.c.obj
LOAD examples/enocean_switch/CMakeFiles/enocean_switch_nrf52840_xxAA_s140_6.0.0.dir/__/__/mesh/access/src/access_publish.c.obj
LOAD examples/enocean_switch/CMakeFiles/enocean_switch_nrf52840_xxAA_s140_6.0.0.dir/__/__/mesh/access/src/access.c.obj
LOAD examples/enocean_switch/CMakeFiles/enocean_switch_nrf52840_xxAA_s140_6.0.0.dir/__/__/mesh/access/src/access_reliable.c.obj
LOAD examples/enocean_switch/CMakeFiles/enocean_switch_nrf52840_xxAA_s140_6.0.0.dir/__/__/mesh/access/src/device_state_manager.c.obj
LOAD examples/enocean_switch/CMakeFiles/enocean_switch_nrf52840_xxAA_s140_6.0.0.dir/__/__/mesh/prov/src/prov_provisionee.c.obj
LOAD examples/enocean_switch/CMakeFiles/enocean_switch_nrf52840_xxAA_s140_6.0.0.dir/__/__/mesh/prov/src/nrf_mesh_prov.c.obj
LOAD examples/enocean_switch/CMakeFiles/enocean_switch_nrf52840_xxAA_s140_6.0.0.dir/__/__/mesh/prov/src/provisioning.c.obj
LOAD examples/enocean_switch/CMakeFiles/enocean_switch_nrf52840_xxAA_s140_6.0.0.dir/__/__/mesh/prov/src/prov_beacon.c.obj
LOAD examples/enocean_switch/CMakeFiles/enocean_switch_nrf52840_xxAA_s140_6.0.0.dir/__/__/mesh/prov/src/prov_utils.c.obj
LOAD examples/enocean_switch/CMakeFiles/enocean_switch_nrf52840_xxAA_s140_6.0.0.dir/__/__/mesh/prov/src/prov_bearer_adv.c.obj
LOAD examples/enocean_switch/CMakeFiles/enocean_switch_nrf52840_xxAA_s140_6.0.0.dir/C_/ver/mod/nRF5_SDK_15.0.0_a53641a/modules/nrfx/mdk/system_nrf52840.c.obj
LOAD examples/enocean_switch/CMakeFiles/enocean_switch_nrf52840_xxAA_s140_6.0.0.dir/C_/ver/mod/nRF5_SDK_15.0.0_a53641a/modules/nrfx/mdk/gcc_startup_nrf52840.S.obj
LOAD examples/enocean_switch/CMakeFiles/enocean_switch_nrf52840_xxAA_s140_6.0.0.dir/C_/ver/mod/nRF5_SDK_15.0.0_a53641a/components/libraries/util/app_error.c.obj
LOAD examples/enocean_switch/CMakeFiles/enocean_switch_nrf52840_xxAA_s140_6.0.0.dir/C_/ver/mod/nRF5_SDK_15.0.0_a53641a/components/libraries/util/app_error_handler_gcc.c.obj
LOAD external/rtt/librtt_nrf52840_xxAA.a
LOAD external/micro-ecc/libuECC_nrf52840_xxAA.a
START GROUP
LOAD c:/mesh/arm_gcc/bin/../lib/gcc/arm-none-eabi/6.3.1/thumb/v7e-m/fpv4-sp/hard\libgcc.a
LOAD c:/mesh/arm_gcc/bin/../lib/gcc/arm-none-eabi/6.3.1/../../../../arm-none-eabi/lib/thumb/v7e-m/fpv4-sp/hard\libc_nano.a
END GROUP
START GROUP
LOAD c:/mesh/arm_gcc/bin/../lib/gcc/arm-none-eabi/6.3.1/thumb/v7e-m/fpv4-sp/hard\libgcc.a
LOAD c:/mesh/arm_gcc/bin/../lib/gcc/arm-none-eabi/6.3.1/../../../../arm-none-eabi/lib/thumb/v7e-m/fpv4-sp/hard\libc_nano.a
END GROUP
LOAD c:/mesh/arm_gcc/bin/../lib/gcc/arm-none-eabi/6.3.1/thumb/v7e-m/fpv4-sp/hard/crtend.o
LOAD c:/mesh/arm_gcc/bin/../lib/gcc/arm-none-eabi/6.3.1/thumb/v7e-m/fpv4-sp/hard/crtn.o
START GROUP
LOAD c:/mesh/arm_gcc/bin/../lib/gcc/arm-none-eabi/6.3.1/thumb/v7e-m/fpv4-sp/hard\libgcc.a
LOAD c:/mesh/arm_gcc/bin/../lib/gcc/arm-none-eabi/6.3.1/../../../../arm-none-eabi/lib/thumb/v7e-m/fpv4-sp/hard\libc.a
LOAD c:/mesh/arm_gcc/bin/../lib/gcc/arm-none-eabi/6.3.1/../../../../arm-none-eabi/lib/thumb/v7e-m/fpv4-sp/hard\libnosys.a
END GROUP

.igot.plt       0x20003434        0x0 load address 0x0004595c
 .igot.plt      0x20003434        0x0 c:/mesh/arm_gcc/bin/../lib/gcc/arm-none-eabi/6.3.1/thumb/v7e-m/fpv4-sp/hard/crtbegin.o
                0x20003434                . = ALIGN (0x4)

.svc_data       0x20003434        0x0
                [!provide]                PROVIDE (__start_svc_data, .)
 *(.svc_data)
                [!provide]                PROVIDE (__stop_svc_data, .)

.fs_data        0x20003434        0x0
                [!provide]                PROVIDE (__start_fs_data, .)
 *(.fs_data)
                [!provide]                PROVIDE (__stop_fs_data, .)

.log_dynamic_data
                0x20003434        0x0
                [!provide]                PROVIDE (__start_log_dynamic_data, .)
 *(.log_dynamic_data)
                [!provide]                PROVIDE (__stop_log_dynamic_data, .)

.cli_sorted_cmd_ptrs
                0x20003434        0x0
                [!provide]                PROVIDE (__start_cli_sorted_cmd_ptrs, .)
 *(.cli_sorted_cmd_ptrs)
                [!provide]                PROVIDE (__stop_cli_sorted_cmd_ptrs, .)

.bss            0x20003438     0x3534 load address 0x00045960
                0x20003438                . = ALIGN (0x4)
                0x20003438                __bss_start__ = .
 *(.bss*)
 .bss           0x20003438       0x1c c:/mesh/arm_gcc/bin/../lib/gcc/arm-none-eabi/6.3.1/thumb/v7e-m/fpv4-sp/hard/crtbegin.o
 .bss.m_app_secmat
                0x20003454       0x10 examples/enocean_switch/CMakeFiles/enocean_switch_nrf52840_xxAA_s140_6.0.0.dir/src/main.c.obj
 .bss.m_app_secmat_flash
                0x20003464       0x1c examples/enocean_switch/CMakeFiles/enocean_switch_nrf52840_xxAA_s140_6.0.0.dir/src/main.c.obj
 .bss.m_clients
                0x20003480       0x40 examples/enocean_switch/CMakeFiles/enocean_switch_nrf52840_xxAA_s140_6.0.0.dir/src/main.c.obj
 .bss.m_device_provisioned
                0x200034c0        0x1 examples/enocean_switch/CMakeFiles/enocean_switch_nrf52840_xxAA_s140_6.0.0.dir/src/main.c.obj
 .bss.m_enocean_dev_cnt
                0x200034c1        0x1 examples/enocean_switch/CMakeFiles/enocean_switch_nrf52840_xxAA_s140_6.0.0.dir/src/main.c.obj
 *fill*         0x200034c2        0x2 
 .bss.m_switch_state
                0x200034c4       0x20 examples/enocean_switch/CMakeFiles/enocean_switch_nrf52840_xxAA_s140_6.0.0.dir/src/main.c.obj
 .bss.s_app_started.12865
                0x200034e4        0x1 examples/enocean_switch/CMakeFiles/enocean_switch_nrf52840_xxAA_s140_6.0.0.dir/src/main.c.obj
 *fill*         0x200034e5        0x3 
 .bss.m_app_cb  0x200034e8        0x4 examples/enocean_switch/CMakeFiles/enocean_switch_nrf52840_xxAA_s140_6.0.0.dir/src/enocean.c.obj
 .bss.mp_secmats_list_head
                0x200034ec        0x4 examples/enocean_switch/CMakeFiles/enocean_switch_nrf52840_xxAA_s140_6.0.0.dir/src/enocean.c.obj
 .bss.m_flash_manager
                0x200034f0       0x24 examples/enocean_switch/CMakeFiles/enocean_switch_nrf52840_xxAA_s140_6.0.0.dir/src/flash_helper.c.obj
 .bss.m_health_server
                0x20003514       0x5c examples/enocean_switch/CMakeFiles/enocean_switch_nrf52840_xxAA_s140_6.0.0.dir/__/__/mesh/stack/src/mesh_stack.c.obj
 .bss.m_init_params
                0x20003570       0x24 examples/enocean_switch/CMakeFiles/enocean_switch_nrf52840_xxAA_s140_6.0.0.dir/__/__/mesh/stack/src/mesh_stack.c.obj
 .bss.m_device_provisioned
                0x20003594        0x1 examples/enocean_switch/CMakeFiles/enocean_switch_nrf52840_xxAA_s140_6.0.0.dir/__/common/src/mesh_provisionee.c.obj
 *fill*         0x20003595        0x3 
 .bss.m_params  0x20003598        0xc examples/enocean_switch/CMakeFiles/enocean_switch_nrf52840_xxAA_s140_6.0.0.dir/__/common/src/mesh_provisionee.c.obj
 .bss.m_private_key
                0x200035a4       0x20 examples/enocean_switch/CMakeFiles/enocean_switch_nrf52840_xxAA_s140_6.0.0.dir/__/common/src/mesh_provisionee.c.obj
 .bss.m_prov_bearer_adv
                0x200035c4      0x1c4 examples/enocean_switch/CMakeFiles/enocean_switch_nrf52840_xxAA_s140_6.0.0.dir/__/common/src/mesh_provisionee.c.obj
 .bss.m_prov_ctx
                0x20003788      0x134 examples/enocean_switch/CMakeFiles/enocean_switch_nrf52840_xxAA_s140_6.0.0.dir/__/common/src/mesh_provisionee.c.obj
 .bss.m_public_key
                0x200038bc       0x40 examples/enocean_switch/CMakeFiles/enocean_switch_nrf52840_xxAA_s140_6.0.0.dir/__/common/src/mesh_provisionee.c.obj
 .bss.m_rtt_input_handler
                0x200038fc        0x4 examples/enocean_switch/CMakeFiles/enocean_switch_nrf52840_xxAA_s140_6.0.0.dir/__/common/src/rtt_input.c.obj
 .bss.m_button_handler_cb
                0x20003900        0x4 examples/enocean_switch/CMakeFiles/enocean_switch_nrf52840_xxAA_s140_6.0.0.dir/__/common/src/simple_hal.c.obj
 .bss.m_last_button_press
                0x20003904        0x4 examples/enocean_switch/CMakeFiles/enocean_switch_nrf52840_xxAA_s140_6.0.0.dir/__/common/src/simple_hal.c.obj
 .bss.m_uuid    0x20003908       0x10 examples/enocean_switch/CMakeFiles/enocean_switch_nrf52840_xxAA_s140_6.0.0.dir/__/__/mesh/core/src/nrf_mesh_configure.c.obj
 .bss.m_msg_cache
                0x20003918      0x100 examples/enocean_switch/CMakeFiles/enocean_switch_nrf52840_xxAA_s140_6.0.0.dir/__/__/mesh/core/src/msg_cache.c.obj
 .bss.m_msg_cache_head
                0x20003a18        0x4 examples/enocean_switch/CMakeFiles/enocean_switch_nrf52840_xxAA_s140_6.0.0.dir/__/__/mesh/core/src/msg_cache.c.obj
 .bss.m_control_packet_consumer_count
                0x20003a1c        0x4 examples/enocean_switch/CMakeFiles/enocean_switch_nrf52840_xxAA_s140_6.0.0.dir/__/__/mesh/core/src/transport.c.obj
 .bss.m_control_packet_consumers
                0x20003a20        0x8 examples/enocean_switch/CMakeFiles/enocean_switch_nrf52840_xxAA_s140_6.0.0.dir/__/__/mesh/core/src/transport.c.obj
 .bss.m_sar_alloc
                0x20003a28        0x4 examples/enocean_switch/CMakeFiles/enocean_switch_nrf52840_xxAA_s140_6.0.0.dir/__/__/mesh/core/src/transport.c.obj
 .bss.m_sar_process_flag
                0x20003a2c        0x4 examples/enocean_switch/CMakeFiles/enocean_switch_nrf52840_xxAA_s140_6.0.0.dir/__/__/mesh/core/src/transport.c.obj
 .bss.m_sar_release
                0x20003a30        0x4 examples/enocean_switch/CMakeFiles/enocean_switch_nrf52840_xxAA_s140_6.0.0.dir/__/__/mesh/core/src/transport.c.obj
 .bss.m_sar_session_cache
                0x20003a34       0x40 examples/enocean_switch/CMakeFiles/enocean_switch_nrf52840_xxAA_s140_6.0.0.dir/__/__/mesh/core/src/transport.c.obj
 .bss.m_sar_session_cache_head
                0x20003a74        0x4 examples/enocean_switch/CMakeFiles/enocean_switch_nrf52840_xxAA_s140_6.0.0.dir/__/__/mesh/core/src/transport.c.obj
 .bss.m_trs_config
                0x20003a78       0x18 examples/enocean_switch/CMakeFiles/enocean_switch_nrf52840_xxAA_s140_6.0.0.dir/__/__/mesh/core/src/transport.c.obj
 .bss.m_trs_sar_sessions
                0x20003a90      0x1b0 examples/enocean_switch/CMakeFiles/enocean_switch_nrf52840_xxAA_s140_6.0.0.dir/__/__/mesh/core/src/transport.c.obj
 .bss.mp_evt_handlers_head
                0x20003c40        0x4 examples/enocean_switch/CMakeFiles/enocean_switch_nrf52840_xxAA_s140_6.0.0.dir/__/__/mesh/core/src/event.c.obj
 .bss.m_defrag  0x20003c44       0x1c examples/enocean_switch/CMakeFiles/enocean_switch_nrf52840_xxAA_s140_6.0.0.dir/__/__/mesh/core/src/flash_manager_defrag.c.obj
 .bss.m_token   0x20003c60        0x2 examples/enocean_switch/CMakeFiles/enocean_switch_nrf52840_xxAA_s140_6.0.0.dir/__/__/mesh/core/src/flash_manager_defrag.c.obj
 *fill*         0x20003c62        0x2 
 .bss.mp_recovery_area
                0x20003c64        0x4 examples/enocean_switch/CMakeFiles/enocean_switch_nrf52840_xxAA_s140_6.0.0.dir/__/__/mesh/core/src/flash_manager_defrag.c.obj
 .bss.p_null_ptr.10534
                0x20003c68        0x4 examples/enocean_switch/CMakeFiles/enocean_switch_nrf52840_xxAA_s140_6.0.0.dir/__/__/mesh/core/src/flash_manager_defrag.c.obj
 .bss.m_pool    0x20003c6c     0x1000 examples/enocean_switch/CMakeFiles/enocean_switch_nrf52840_xxAA_s140_6.0.0.dir/__/__/mesh/core/src/packet_mgr.c.obj
 .bss.mp_free_head
                0x20004c6c        0x4 examples/enocean_switch/CMakeFiles/enocean_switch_nrf52840_xxAA_s140_6.0.0.dir/__/__/mesh/core/src/packet_mgr.c.obj
 .bss.iv_state_set.10189
                0x20004c70        0x1 examples/enocean_switch/CMakeFiles/enocean_switch_nrf52840_xxAA_s140_6.0.0.dir/__/__/mesh/core/src/net_state.c.obj
 *fill*         0x20004c71        0x3 
 .bss.lock_count.10165
                0x20004c74        0x4 examples/enocean_switch/CMakeFiles/enocean_switch_nrf52840_xxAA_s140_6.0.0.dir/__/__/mesh/core/src/net_state.c.obj
 .bss.m_flash_manager
                0x20004c78       0x24 examples/enocean_switch/CMakeFiles/enocean_switch_nrf52840_xxAA_s140_6.0.0.dir/__/__/mesh/core/src/net_state.c.obj
 .bss.m_iv_update_timer
                0x20004c9c       0x18 examples/enocean_switch/CMakeFiles/enocean_switch_nrf52840_xxAA_s140_6.0.0.dir/__/__/mesh/core/src/net_state.c.obj
 .bss.m_mesh_evt_handler
                0x20004cb4        0x8 examples/enocean_switch/CMakeFiles/enocean_switch_nrf52840_xxAA_s140_6.0.0.dir/__/__/mesh/core/src/net_state.c.obj
 .bss.m_net_state
                0x20004cbc       0x14 examples/enocean_switch/CMakeFiles/enocean_switch_nrf52840_xxAA_s140_6.0.0.dir/__/__/mesh/core/src/net_state.c.obj
 .bss.m_seqnum_allocation_in_progress
                0x20004cd0        0x1 examples/enocean_switch/CMakeFiles/enocean_switch_nrf52840_xxAA_s140_6.0.0.dir/__/__/mesh/core/src/net_state.c.obj
 .bss.m_test_mode
                0x20004cd1        0x1 examples/enocean_switch/CMakeFiles/enocean_switch_nrf52840_xxAA_s140_6.0.0.dir/__/__/mesh/core/src/net_state.c.obj
 *fill*         0x20004cd2        0x2 
 .bss.m_event_flag
                0x20004cd4        0x4 examples/enocean_switch/CMakeFiles/enocean_switch_nrf52840_xxAA_s140_6.0.0.dir/__/__/mesh/core/src/mesh_flash.c.obj
 .bss.m_suspended
                0x20004cd8        0x1 examples/enocean_switch/CMakeFiles/enocean_switch_nrf52840_xxAA_s140_6.0.0.dir/__/__/mesh/core/src/mesh_flash.c.obj
 *fill*         0x20004cd9        0x3 
 .bss.m_users   0x20004cdc      0x228 examples/enocean_switch/CMakeFiles/enocean_switch_nrf52840_xxAA_s140_6.0.0.dir/__/__/mesh/core/src/mesh_flash.c.obj
 .bss.m_is_enabled
                0x20004f04        0x1 examples/enocean_switch/CMakeFiles/enocean_switch_nrf52840_xxAA_s140_6.0.0.dir/__/__/mesh/core/src/nrf_mesh.c.obj
 .bss.m_is_initialized
                0x20004f05        0x1 examples/enocean_switch/CMakeFiles/enocean_switch_nrf52840_xxAA_s140_6.0.0.dir/__/__/mesh/core/src/nrf_mesh.c.obj
 *fill*         0x20004f06        0x2 
 .bss.m_rx_cb   0x20004f08        0x4 examples/enocean_switch/CMakeFiles/enocean_switch_nrf52840_xxAA_s140_6.0.0.dir/__/__/mesh/core/src/nrf_mesh.c.obj
 .bss.m_128buf  0x20004f0c       0x10 examples/enocean_switch/CMakeFiles/enocean_switch_nrf52840_xxAA_s140_6.0.0.dir/__/__/mesh/core/src/aes_cmac.c.obj
 .bss.m_subkey1
                0x20004f1c       0x10 examples/enocean_switch/CMakeFiles/enocean_switch_nrf52840_xxAA_s140_6.0.0.dir/__/__/mesh/core/src/aes_cmac.c.obj
 .bss.m_subkey2
                0x20004f2c       0x10 examples/enocean_switch/CMakeFiles/enocean_switch_nrf52840_xxAA_s140_6.0.0.dir/__/__/mesh/core/src/aes_cmac.c.obj
 .bss.m_event_flag
                0x20004f3c        0x4 examples/enocean_switch/CMakeFiles/enocean_switch_nrf52840_xxAA_s140_6.0.0.dir/__/__/mesh/core/src/timer_scheduler.c.obj
 .bss.m_scheduler
                0x20004f40       0x10 examples/enocean_switch/CMakeFiles/enocean_switch_nrf52840_xxAA_s140_6.0.0.dir/__/__/mesh/core/src/timer_scheduler.c.obj
 .bss.m_attributes
                0x20004f50        0x3 examples/enocean_switch/CMakeFiles/enocean_switch_nrf52840_xxAA_s140_6.0.0.dir/__/__/mesh/core/src/timer.c.obj
 *fill*         0x20004f53        0x1 
 .bss.m_callbacks
                0x20004f54        0xc examples/enocean_switch/CMakeFiles/enocean_switch_nrf52840_xxAA_s140_6.0.0.dir/__/__/mesh/core/src/timer.c.obj
 .bss.m_is_in_ts
                0x20004f60        0x1 examples/enocean_switch/CMakeFiles/enocean_switch_nrf52840_xxAA_s140_6.0.0.dir/__/__/mesh/core/src/timer.c.obj
 *fill*         0x20004f61        0x3 
 .bss.m_reference_time
                0x20004f64        0x4 examples/enocean_switch/CMakeFiles/enocean_switch_nrf52840_xxAA_s140_6.0.0.dir/__/__/mesh/core/src/timer.c.obj
 .bss.m_timeouts
                0x20004f68        0xc examples/enocean_switch/CMakeFiles/enocean_switch_nrf52840_xxAA_s140_6.0.0.dir/__/__/mesh/core/src/timer.c.obj
 .bss.m_timer_mut
                0x20004f74        0x4 examples/enocean_switch/CMakeFiles/enocean_switch_nrf52840_xxAA_s140_6.0.0.dir/__/__/mesh/core/src/timer.c.obj
 .bss.m_ts_end_time
                0x20004f78        0x4 examples/enocean_switch/CMakeFiles/enocean_switch_nrf52840_xxAA_s140_6.0.0.dir/__/__/mesh/core/src/timer.c.obj
 .bss.mp_ppi_tasks
                0x20004f7c        0xc examples/enocean_switch/CMakeFiles/enocean_switch_nrf52840_xxAA_s140_6.0.0.dir/__/__/mesh/core/src/timer.c.obj
 .bss.m_current_time
                0x20004f88        0x4 examples/enocean_switch/CMakeFiles/enocean_switch_nrf52840_xxAA_s140_6.0.0.dir/__/__/mesh/core/src/ticker.c.obj
 .bss.m_timer   0x20004f8c       0x18 examples/enocean_switch/CMakeFiles/enocean_switch_nrf52840_xxAA_s140_6.0.0.dir/__/__/mesh/core/src/ticker.c.obj
 .bss.m_current_timeslot
                0x20004fa4       0x1c examples/enocean_switch/CMakeFiles/enocean_switch_nrf52840_xxAA_s140_6.0.0.dir/__/__/mesh/core/src/timeslot.c.obj
 .bss.m_lfclk_ppm
                0x20004fc0        0x4 examples/enocean_switch/CMakeFiles/enocean_switch_nrf52840_xxAA_s140_6.0.0.dir/__/__/mesh/core/src/timeslot.c.obj
 .bss.m_radio_request_earliest
                0x20004fc4       0x10 examples/enocean_switch/CMakeFiles/enocean_switch_nrf52840_xxAA_s140_6.0.0.dir/__/__/mesh/core/src/timeslot.c.obj
 .bss.m_state_lock
                0x20004fd4        0x1 examples/enocean_switch/CMakeFiles/enocean_switch_nrf52840_xxAA_s140_6.0.0.dir/__/__/mesh/core/src/timeslot.c.obj
 .bss.m_timeslot_forced_command
                0x20004fd5        0x1 examples/enocean_switch/CMakeFiles/enocean_switch_nrf52840_xxAA_s140_6.0.0.dir/__/__/mesh/core/src/timeslot.c.obj
 *fill*         0x20004fd6        0x2 
 .bss.s_last_rtc_value.9592
                0x20004fd8        0x8 examples/enocean_switch/CMakeFiles/enocean_switch_nrf52840_xxAA_s140_6.0.0.dir/__/__/mesh/core/src/timeslot.c.obj
 .bss.m_bearer_event_fifo
                0x20004fe0       0x14 examples/enocean_switch/CMakeFiles/enocean_switch_nrf52840_xxAA_s140_6.0.0.dir/__/__/mesh/core/src/bearer_event.c.obj
 .bss.m_bearer_event_fifo_buffer
                0x20004ff4      0x100 examples/enocean_switch/CMakeFiles/enocean_switch_nrf52840_xxAA_s140_6.0.0.dir/__/__/mesh/core/src/bearer_event.c.obj
 .bss.m_critical
                0x200050f4        0x4 examples/enocean_switch/CMakeFiles/enocean_switch_nrf52840_xxAA_s140_6.0.0.dir/__/__/mesh/core/src/bearer_event.c.obj
 .bss.m_flag_count
                0x200050f8        0x4 examples/enocean_switch/CMakeFiles/enocean_switch_nrf52840_xxAA_s140_6.0.0.dir/__/__/mesh/core/src/bearer_event.c.obj
 .bss.m_flag_event_callbacks
                0x200050fc       0x20 examples/enocean_switch/CMakeFiles/enocean_switch_nrf52840_xxAA_s140_6.0.0.dir/__/__/mesh/core/src/bearer_event.c.obj
 .bss.m_flags   0x2000511c        0x4 examples/enocean_switch/CMakeFiles/enocean_switch_nrf52840_xxAA_s140_6.0.0.dir/__/__/mesh/core/src/bearer_event.c.obj
 .bss.m_irq_priority
                0x20005120        0x1 examples/enocean_switch/CMakeFiles/enocean_switch_nrf52840_xxAA_s140_6.0.0.dir/__/__/mesh/core/src/bearer_event.c.obj
 *fill*         0x20005121        0x3 
 .bss.m_sequential_event_queue
                0x20005124        0x8 examples/enocean_switch/CMakeFiles/enocean_switch_nrf52840_xxAA_s140_6.0.0.dir/__/__/mesh/core/src/bearer_event.c.obj
 .bss.s_recursion_guard.9723
                0x2000512c        0x1 examples/enocean_switch/CMakeFiles/enocean_switch_nrf52840_xxAA_s140_6.0.0.dir/__/__/mesh/core/src/bearer_event.c.obj
 *fill*         0x2000512d        0x3 
 .bss.m_relay_check_cb
                0x20005130        0x4 examples/enocean_switch/CMakeFiles/enocean_switch_nrf52840_xxAA_s140_6.0.0.dir/__/__/mesh/core/src/network.c.obj
 .bss.m_relay_enable
                0x20005134        0x1 examples/enocean_switch/CMakeFiles/enocean_switch_nrf52840_xxAA_s140_6.0.0.dir/__/__/mesh/core/src/network.c.obj
 *fill*         0x20005135        0x3 
 .bss.m_action_queue
                0x20005138        0xc examples/enocean_switch/CMakeFiles/enocean_switch_nrf52840_xxAA_s140_6.0.0.dir/__/__/mesh/core/src/flash_manager.c.obj
 .bss.m_action_queue_buffer
                0x20005144      0x104 examples/enocean_switch/CMakeFiles/enocean_switch_nrf52840_xxAA_s140_6.0.0.dir/__/__/mesh/core/src/flash_manager.c.obj
 .bss.m_action_state
                0x20005248        0x1 examples/enocean_switch/CMakeFiles/enocean_switch_nrf52840_xxAA_s140_6.0.0.dir/__/__/mesh/core/src/flash_manager.c.obj
 *fill*         0x20005249        0x3 
 .bss.m_memory_listener_queue
                0x2000524c        0x8 examples/enocean_switch/CMakeFiles/enocean_switch_nrf52840_xxAA_s140_6.0.0.dir/__/__/mesh/core/src/flash_manager.c.obj
 .bss.m_processing_flag
                0x20005254        0x4 examples/enocean_switch/CMakeFiles/enocean_switch_nrf52840_xxAA_s140_6.0.0.dir/__/__/mesh/core/src/flash_manager.c.obj
 .bss.m_queue_empty_cb
                0x20005258        0x4 examples/enocean_switch/CMakeFiles/enocean_switch_nrf52840_xxAA_s140_6.0.0.dir/__/__/mesh/core/src/flash_manager.c.obj
 .bss.m_state   0x2000525c        0x1 examples/enocean_switch/CMakeFiles/enocean_switch_nrf52840_xxAA_s140_6.0.0.dir/__/__/mesh/core/src/flash_manager.c.obj
 *fill*         0x2000525d        0x1 
 .bss.m_token   0x2000525e        0x2 examples/enocean_switch/CMakeFiles/enocean_switch_nrf52840_xxAA_s140_6.0.0.dir/__/__/mesh/core/src/flash_manager.c.obj
 .bss.p_current.11442
                0x20005260        0x4 examples/enocean_switch/CMakeFiles/enocean_switch_nrf52840_xxAA_s140_6.0.0.dir/__/__/mesh/core/src/flash_manager.c.obj
 .bss.result.11443
                0x20005264        0x1 examples/enocean_switch/CMakeFiles/enocean_switch_nrf52840_xxAA_s140_6.0.0.dir/__/__/mesh/core/src/flash_manager.c.obj
 .bss.m_cache_index
                0x20005265        0x1 examples/enocean_switch/CMakeFiles/enocean_switch_nrf52840_xxAA_s140_6.0.0.dir/__/__/mesh/core/src/replay_cache.c.obj
 *fill*         0x20005266        0x2 
 .bss.m_replay_cache
                0x20005268      0x200 examples/enocean_switch/CMakeFiles/enocean_switch_nrf52840_xxAA_s140_6.0.0.dir/__/__/mesh/core/src/replay_cache.c.obj
 .bss.m_bearer_count
                0x20005468        0x1 examples/enocean_switch/CMakeFiles/enocean_switch_nrf52840_xxAA_s140_6.0.0.dir/__/__/mesh/core/src/core_tx.c.obj
 *fill*         0x20005469        0x3 
 .bss.m_tx_complete_callback
                0x2000546c        0x4 examples/enocean_switch/CMakeFiles/enocean_switch_nrf52840_xxAA_s140_6.0.0.dir/__/__/mesh/core/src/core_tx.c.obj
 .bss.mp_bearers
                0x20005470        0x4 examples/enocean_switch/CMakeFiles/enocean_switch_nrf52840_xxAA_s140_6.0.0.dir/__/__/mesh/core/src/core_tx.c.obj
 .bss.m_hb_core_evt_handler
                0x20005474        0x8 examples/enocean_switch/CMakeFiles/enocean_switch_nrf52840_xxAA_s140_6.0.0.dir/__/__/mesh/core/src/heartbeat.c.obj
 .bss.m_hb_pending_feat_msg
                0x2000547c        0x1 examples/enocean_switch/CMakeFiles/enocean_switch_nrf52840_xxAA_s140_6.0.0.dir/__/__/mesh/core/src/heartbeat.c.obj
 .bss.m_hb_pending_pub_msg
                0x2000547d        0x1 examples/enocean_switch/CMakeFiles/enocean_switch_nrf52840_xxAA_s140_6.0.0.dir/__/__/mesh/core/src/heartbeat.c.obj
 .bss.m_heartbeat_init_done
                0x2000547e        0x1 examples/enocean_switch/CMakeFiles/enocean_switch_nrf52840_xxAA_s140_6.0.0.dir/__/__/mesh/core/src/heartbeat.c.obj
 *fill*         0x2000547f        0x1 
 .bss.m_heartbeat_subscription
                0x20005480       0x10 examples/enocean_switch/CMakeFiles/enocean_switch_nrf52840_xxAA_s140_6.0.0.dir/__/__/mesh/core/src/heartbeat.c.obj
 .bss.m_publication_count_decrement_cb
                0x20005490        0x4 examples/enocean_switch/CMakeFiles/enocean_switch_nrf52840_xxAA_s140_6.0.0.dir/__/__/mesh/core/src/heartbeat.c.obj
 .bss.m_publication_get_cb
                0x20005494        0x4 examples/enocean_switch/CMakeFiles/enocean_switch_nrf52840_xxAA_s140_6.0.0.dir/__/__/mesh/core/src/heartbeat.c.obj
 .bss.m_publication_timer
                0x20005498       0x1c examples/enocean_switch/CMakeFiles/enocean_switch_nrf52840_xxAA_s140_6.0.0.dir/__/__/mesh/core/src/heartbeat.c.obj
 .bss.m_subscription_timer
                0x200054b4       0x18 examples/enocean_switch/CMakeFiles/enocean_switch_nrf52840_xxAA_s140_6.0.0.dir/__/__/mesh/core/src/heartbeat.c.obj
 .bss.m_adv     0x200054cc       0x98 examples/enocean_switch/CMakeFiles/enocean_switch_nrf52840_xxAA_s140_6.0.0.dir/__/__/mesh/core/src/net_beacon.c.obj
 .bss.m_adv_buf
                0x20005564       0x34 examples/enocean_switch/CMakeFiles/enocean_switch_nrf52840_xxAA_s140_6.0.0.dir/__/__/mesh/core/src/net_beacon.c.obj
 .bss.m_beacon_salt
                0x20005598       0x10 examples/enocean_switch/CMakeFiles/enocean_switch_nrf52840_xxAA_s140_6.0.0.dir/__/__/mesh/core/src/net_beacon.c.obj
 .bss.m_enabled
                0x200055a8        0x1 examples/enocean_switch/CMakeFiles/enocean_switch_nrf52840_xxAA_s140_6.0.0.dir/__/__/mesh/core/src/net_beacon.c.obj
 *fill*         0x200055a9        0x3 
 .bss.m_tx_timer
                0x200055ac       0x18 examples/enocean_switch/CMakeFiles/enocean_switch_nrf52840_xxAA_s140_6.0.0.dir/__/__/mesh/core/src/net_beacon.c.obj
 .bss.mp_beacon_info
                0x200055c4        0x4 examples/enocean_switch/CMakeFiles/enocean_switch_nrf52840_xxAA_s140_6.0.0.dir/__/__/mesh/core/src/net_beacon.c.obj
 .bss.m_bearer  0x200055c8        0xc examples/enocean_switch/CMakeFiles/enocean_switch_nrf52840_xxAA_s140_6.0.0.dir/__/__/mesh/core/src/core_tx_adv.c.obj
 .bss.m_bearer_roles
                0x200055d4      0x138 examples/enocean_switch/CMakeFiles/enocean_switch_nrf52840_xxAA_s140_6.0.0.dir/__/__/mesh/core/src/core_tx_adv.c.obj
 .bss.m_current_alloc
                0x2000570c        0x8 examples/enocean_switch/CMakeFiles/enocean_switch_nrf52840_xxAA_s140_6.0.0.dir/__/__/mesh/core/src/core_tx_adv.c.obj
 .bss.m_originator_adv_packet_buffer
                0x20005714      0x100 examples/enocean_switch/CMakeFiles/enocean_switch_nrf52840_xxAA_s140_6.0.0.dir/__/__/mesh/core/src/core_tx_adv.c.obj
 .bss.m_relay_adv_packet_buffer
                0x20005814       0x80 examples/enocean_switch/CMakeFiles/enocean_switch_nrf52840_xxAA_s140_6.0.0.dir/__/__/mesh/core/src/core_tx_adv.c.obj
 .bss.m_subscribers
                0x20005894        0x4 examples/enocean_switch/CMakeFiles/enocean_switch_nrf52840_xxAA_s140_6.0.0.dir/__/__/mesh/bearer/src/ad_listener.c.obj
 .bss.m_adtype_filter
                0x20005898       0x38 examples/enocean_switch/CMakeFiles/enocean_switch_nrf52840_xxAA_s140_6.0.0.dir/__/__/mesh/bearer/src/ad_type_filter.c.obj
 .bss.m_adv_prng
                0x200058d0       0x10 examples/enocean_switch/CMakeFiles/enocean_switch_nrf52840_xxAA_s140_6.0.0.dir/__/__/mesh/bearer/src/advertiser.c.obj
 .bss.m_action_queue
                0x200058e0        0x8 examples/enocean_switch/CMakeFiles/enocean_switch_nrf52840_xxAA_s140_6.0.0.dir/__/__/mesh/bearer/src/bearer_handler.c.obj
 .bss.m_end_time
                0x200058e8        0x4 examples/enocean_switch/CMakeFiles/enocean_switch_nrf52840_xxAA_s140_6.0.0.dir/__/__/mesh/bearer/src/bearer_handler.c.obj
 .bss.m_scanner_is_active
                0x200058ec        0x1 examples/enocean_switch/CMakeFiles/enocean_switch_nrf52840_xxAA_s140_6.0.0.dir/__/__/mesh/bearer/src/bearer_handler.c.obj
 .bss.m_stopped
                0x200058ed        0x1 examples/enocean_switch/CMakeFiles/enocean_switch_nrf52840_xxAA_s140_6.0.0.dir/__/__/mesh/bearer/src/bearer_handler.c.obj
 *fill*         0x200058ee        0x2 
 .bss.mp_action
                0x200058f0        0x4 examples/enocean_switch/CMakeFiles/enocean_switch_nrf52840_xxAA_s140_6.0.0.dir/__/__/mesh/bearer/src/bearer_handler.c.obj
 .bss.m_next_channel_index
                0x200058f4        0x1 examples/enocean_switch/CMakeFiles/enocean_switch_nrf52840_xxAA_s140_6.0.0.dir/__/__/mesh/bearer/src/broadcast.c.obj
 *fill*         0x200058f5        0x3 
 .bss.m_accepted_amount
                0x200058f8        0x4 examples/enocean_switch/CMakeFiles/enocean_switch_nrf52840_xxAA_s140_6.0.0.dir/__/__/mesh/bearer/src/filter_engine.c.obj
 .bss.m_filter_list_head
                0x200058fc        0x4 examples/enocean_switch/CMakeFiles/enocean_switch_nrf52840_xxAA_s140_6.0.0.dir/__/__/mesh/bearer/src/filter_engine.c.obj
 .bss.m_scanner
                0x20005900      0x290 examples/enocean_switch/CMakeFiles/enocean_switch_nrf52840_xxAA_s140_6.0.0.dir/__/__/mesh/bearer/src/scanner.c.obj
 .bss.m_tid     0x20005b90        0x1 examples/enocean_switch/CMakeFiles/enocean_switch_nrf52840_xxAA_s140_6.0.0.dir/__/__/models/simple_on_off/src/simple_on_off_client.c.obj
 *fill*         0x20005b91        0x3 
 .bss.m_evt_cb  0x20005b94        0x4 examples/enocean_switch/CMakeFiles/enocean_switch_nrf52840_xxAA_s140_6.0.0.dir/__/__/models/config/src/config_server.c.obj
 .bss.m_heartbeat_publication
                0x20005b98       0x14 examples/enocean_switch/CMakeFiles/enocean_switch_nrf52840_xxAA_s140_6.0.0.dir/__/__/models/config/src/config_server.c.obj
 .bss.m_node_reset_pending
                0x20005bac        0x1 examples/enocean_switch/CMakeFiles/enocean_switch_nrf52840_xxAA_s140_6.0.0.dir/__/__/models/config/src/config_server.c.obj
 *fill*         0x20005bad        0x3 
 .bss.m_attention_timer
                0x20005bb0       0x18 examples/enocean_switch/CMakeFiles/enocean_switch_nrf52840_xxAA_s140_6.0.0.dir/__/__/models/health/src/health_server.c.obj
 .bss.mp_attention_list
                0x20005bc8        0x4 examples/enocean_switch/CMakeFiles/enocean_switch_nrf52840_xxAA_s140_6.0.0.dir/__/__/models/health/src/health_server.c.obj
 .bss.m_publish_timer
                0x20005bcc       0x18 examples/enocean_switch/CMakeFiles/enocean_switch_nrf52840_xxAA_s140_6.0.0.dir/__/__/mesh/access/src/access_publish.c.obj
 .bss.m_publish_timer_counter
                0x20005be4        0x4 examples/enocean_switch/CMakeFiles/enocean_switch_nrf52840_xxAA_s140_6.0.0.dir/__/__/mesh/access/src/access_publish.c.obj
 .bss.m_publish_timer_running
                0x20005be8        0x1 examples/enocean_switch/CMakeFiles/enocean_switch_nrf52840_xxAA_s140_6.0.0.dir/__/__/mesh/access/src/access_publish.c.obj
 .bss.m_timer_resolution
                0x20005be9        0x1 examples/enocean_switch/CMakeFiles/enocean_switch_nrf52840_xxAA_s140_6.0.0.dir/__/__/mesh/access/src/access_publish.c.obj
 *fill*         0x20005bea        0x2 
 .bss.mp_publication_list
                0x20005bec        0x4 examples/enocean_switch/CMakeFiles/enocean_switch_nrf52840_xxAA_s140_6.0.0.dir/__/__/mesh/access/src/access_publish.c.obj
 .bss.m_element_pool
                0x20005bf0       0x1e examples/enocean_switch/CMakeFiles/enocean_switch_nrf52840_xxAA_s140_6.0.0.dir/__/__/mesh/access/src/access.c.obj
 *fill*         0x20005c0e        0x2 
 .bss.m_evt_handler
                0x20005c10        0x8 examples/enocean_switch/CMakeFiles/enocean_switch_nrf52840_xxAA_s140_6.0.0.dir/__/__/mesh/access/src/access.c.obj
 .bss.m_flash_manager
                0x20005c18       0x24 examples/enocean_switch/CMakeFiles/enocean_switch_nrf52840_xxAA_s140_6.0.0.dir/__/__/mesh/access/src/access.c.obj
 .bss.m_flash_not_ready
                0x20005c3c        0x1 examples/enocean_switch/CMakeFiles/enocean_switch_nrf52840_xxAA_s140_6.0.0.dir/__/__/mesh/access/src/access.c.obj
 .bss.m_metadata_stored
                0x20005c3d        0x1 examples/enocean_switch/CMakeFiles/enocean_switch_nrf52840_xxAA_s140_6.0.0.dir/__/__/mesh/access/src/access.c.obj
 *fill*         0x20005c3e        0x2 
 .bss.m_model_pool
                0x20005c40      0x138 examples/enocean_switch/CMakeFiles/enocean_switch_nrf52840_xxAA_s140_6.0.0.dir/__/__/mesh/access/src/access.c.obj
 .bss.m_subscription_list_pool
                0x20005d78       0x30 examples/enocean_switch/CMakeFiles/enocean_switch_nrf52840_xxAA_s140_6.0.0.dir/__/__/mesh/access/src/access.c.obj
 .bss.m_reliable
                0x20005da8      0x124 examples/enocean_switch/CMakeFiles/enocean_switch_nrf52840_xxAA_s140_6.0.0.dir/__/__/mesh/access/src/access_reliable.c.obj
 .bss.m_addr_nonvirtual_allocated
                0x20005ecc        0x4 examples/enocean_switch/CMakeFiles/enocean_switch_nrf52840_xxAA_s140_6.0.0.dir/__/__/mesh/access/src/device_state_manager.c.obj
 .bss.m_addr_nonvirtual_needs_flashing
                0x20005ed0        0x4 examples/enocean_switch/CMakeFiles/enocean_switch_nrf52840_xxAA_s140_6.0.0.dir/__/__/mesh/access/src/device_state_manager.c.obj
 .bss.m_addr_unicast_allocated
                0x20005ed4        0x4 examples/enocean_switch/CMakeFiles/enocean_switch_nrf52840_xxAA_s140_6.0.0.dir/__/__/mesh/access/src/device_state_manager.c.obj
 .bss.m_addr_unicast_needs_flashing
                0x20005ed8        0x4 examples/enocean_switch/CMakeFiles/enocean_switch_nrf52840_xxAA_s140_6.0.0.dir/__/__/mesh/access/src/device_state_manager.c.obj
 .bss.m_addr_virtual_allocated
                0x20005edc        0x4 examples/enocean_switch/CMakeFiles/enocean_switch_nrf52840_xxAA_s140_6.0.0.dir/__/__/mesh/access/src/device_state_manager.c.obj
 .bss.m_addr_virtual_needs_flashing
                0x20005ee0        0x4 examples/enocean_switch/CMakeFiles/enocean_switch_nrf52840_xxAA_s140_6.0.0.dir/__/__/mesh/access/src/device_state_manager.c.obj
 .bss.m_addresses
                0x20005ee4       0x40 examples/enocean_switch/CMakeFiles/enocean_switch_nrf52840_xxAA_s140_6.0.0.dir/__/__/mesh/access/src/device_state_manager.c.obj
 .bss.m_appkey_allocated
                0x20005f24        0x4 examples/enocean_switch/CMakeFiles/enocean_switch_nrf52840_xxAA_s140_6.0.0.dir/__/__/mesh/access/src/device_state_manager.c.obj
 .bss.m_appkey_needs_flashing
                0x20005f28        0x4 examples/enocean_switch/CMakeFiles/enocean_switch_nrf52840_xxAA_s140_6.0.0.dir/__/__/mesh/access/src/device_state_manager.c.obj
 .bss.m_appkeys
                0x20005f2c      0x150 examples/enocean_switch/CMakeFiles/enocean_switch_nrf52840_xxAA_s140_6.0.0.dir/__/__/mesh/access/src/device_state_manager.c.obj
 .bss.m_devkey_allocated
                0x2000607c        0x4 examples/enocean_switch/CMakeFiles/enocean_switch_nrf52840_xxAA_s140_6.0.0.dir/__/__/mesh/access/src/device_state_manager.c.obj
 .bss.m_devkey_needs_flashing
                0x20006080        0x4 examples/enocean_switch/CMakeFiles/enocean_switch_nrf52840_xxAA_s140_6.0.0.dir/__/__/mesh/access/src/device_state_manager.c.obj
 .bss.m_devkeys
                0x20006084       0x16 examples/enocean_switch/CMakeFiles/enocean_switch_nrf52840_xxAA_s140_6.0.0.dir/__/__/mesh/access/src/device_state_manager.c.obj
 .bss.m_flash_is_available
                0x2000609a        0x1 examples/enocean_switch/CMakeFiles/enocean_switch_nrf52840_xxAA_s140_6.0.0.dir/__/__/mesh/access/src/device_state_manager.c.obj
 *fill*         0x2000609b        0x1 
 .bss.m_flash_manager
                0x2000609c       0x24 examples/enocean_switch/CMakeFiles/enocean_switch_nrf52840_xxAA_s140_6.0.0.dir/__/__/mesh/access/src/device_state_manager.c.obj
 .bss.m_flash_mem_listener_update_all
                0x200060c0       0x10 examples/enocean_switch/CMakeFiles/enocean_switch_nrf52840_xxAA_s140_6.0.0.dir/__/__/mesh/access/src/device_state_manager.c.obj
 .bss.m_has_primary_subnet
                0x200060d0        0x1 examples/enocean_switch/CMakeFiles/enocean_switch_nrf52840_xxAA_s140_6.0.0.dir/__/__/mesh/access/src/device_state_manager.c.obj
 *fill*         0x200060d1        0x3 
 .bss.m_local_unicast_addr
                0x200060d4        0x4 examples/enocean_switch/CMakeFiles/enocean_switch_nrf52840_xxAA_s140_6.0.0.dir/__/__/mesh/access/src/device_state_manager.c.obj
 .bss.m_mesh_evt_handler
                0x200060d8        0x8 examples/enocean_switch/CMakeFiles/enocean_switch_nrf52840_xxAA_s140_6.0.0.dir/__/__/mesh/access/src/device_state_manager.c.obj
 .bss.m_subnet_allocated
                0x200060e0        0x4 examples/enocean_switch/CMakeFiles/enocean_switch_nrf52840_xxAA_s140_6.0.0.dir/__/__/mesh/access/src/device_state_manager.c.obj
 .bss.m_subnet_needs_flashing
                0x200060e4        0x4 examples/enocean_switch/CMakeFiles/enocean_switch_nrf52840_xxAA_s140_6.0.0.dir/__/__/mesh/access/src/device_state_manager.c.obj
 .bss.m_subnets
                0x200060e8      0x2a0 examples/enocean_switch/CMakeFiles/enocean_switch_nrf52840_xxAA_s140_6.0.0.dir/__/__/mesh/access/src/device_state_manager.c.obj
 .bss.m_virtual_addresses
                0x20006388       0xa0 examples/enocean_switch/CMakeFiles/enocean_switch_nrf52840_xxAA_s140_6.0.0.dir/__/__/mesh/access/src/device_state_manager.c.obj
 .bss.m_event_handler
                0x20006428        0x4 examples/enocean_switch/CMakeFiles/enocean_switch_nrf52840_xxAA_s140_6.0.0.dir/__/__/mesh/prov/src/prov_beacon.c.obj
 .bss.m_offload_ecdh
                0x2000642c        0x1 examples/enocean_switch/CMakeFiles/enocean_switch_nrf52840_xxAA_s140_6.0.0.dir/__/__/mesh/prov/src/prov_utils.c.obj
 *fill*         0x2000642d        0x3 
 .bss.mp_bearer_head
                0x20006430        0x4 examples/enocean_switch/CMakeFiles/enocean_switch_nrf52840_xxAA_s140_6.0.0.dir/__/__/mesh/prov/src/prov_bearer_adv.c.obj
 .bss._acDownBuffer
                0x20006434       0x80 external/rtt/librtt_nrf52840_xxAA.a(SEGGER_RTT.c.obj)
 .bss._acUpBuffer
                0x200064b4      0x400 external/rtt/librtt_nrf52840_xxAA.a(SEGGER_RTT.c.obj)
 .bss.__malloc_free_list
                0x200068b4        0x4 c:/mesh/arm_gcc/bin/../lib/gcc/arm-none-eabi/6.3.1/../../../../arm-none-eabi/lib/thumb/v7e-m/fpv4-sp/hard\libc_nano.a(lib_a-nano-mallocr.o)
                0x200068b4                __malloc_free_list
 .bss.__malloc_sbrk_start
                0x200068b8        0x4 c:/mesh/arm_gcc/bin/../lib/gcc/arm-none-eabi/6.3.1/../../../../arm-none-eabi/lib/thumb/v7e-m/fpv4-sp/hard\libc_nano.a(lib_a-nano-mallocr.o)
                0x200068b8                __malloc_sbrk_start
 .bss.heap_end.5239
                0x200068bc        0x4 c:/mesh/arm_gcc/bin/../lib/gcc/arm-none-eabi/6.3.1/../../../../arm-none-eabi/lib/thumb/v7e-m/fpv4-sp/hard\libnosys.a(sbrk.o)
 *(COMMON)
 COMMON         0x200068c0        0xc examples/enocean_switch/CMakeFiles/enocean_switch_nrf52840_xxAA_s140_6.0.0.dir/__/common/src/mesh_softdevice_init.c.obj
                0x200068c0                nrf_nvic_state
 COMMON         0x200068cc       0x24 examples/enocean_switch/CMakeFiles/enocean_switch_nrf52840_xxAA_s140_6.0.0.dir/__/__/mesh/core/src/core_tx.c.obj
                0x200068cc                m_packet
 COMMON         0x200068f0       0x78 external/rtt/librtt_nrf52840_xxAA.a(SEGGER_RTT.c.obj)
                0x200068f0                _SEGGER_RTT
 COMMON         0x20006968        0x4 c:/mesh/arm_gcc/bin/../lib/gcc/arm-none-eabi/6.3.1/../../../../arm-none-eabi/lib/thumb/v7e-m/fpv4-sp/hard\libc_nano.a(lib_a-reent.o)
                0x20006968                errno
                0x2000696c                . = ALIGN (0x4)
                0x2000696c                __bss_end__ = .

.heap           0x20006970     0x2000
                0x20006970                __HeapBase = .
                0x20006970                __end__ = .
                0x20006970                PROVIDE (end, .)
 *(.heap*)
 .heap          0x20006970     0x2000 examples/enocean_switch/CMakeFiles/enocean_switch_nrf52840_xxAA_s140_6.0.0.dir/C_/ver/mod/nRF5_SDK_15.0.0_a53641a/modules/nrfx/mdk/gcc_startup_nrf52840.S.obj
                0x20008970                __HeapLimit = .

.stack_dummy    0x20006970     0x2000
 *(.stack*)
 .stack         0x20006970     0x2000 examples/enocean_switch/CMakeFiles/enocean_switch_nrf52840_xxAA_s140_6.0.0.dir/C_/ver/mod/nRF5_SDK_15.0.0_a53641a/modules/nrfx/mdk/gcc_startup_nrf52840.S.obj
                0x2003fd00                __StackTop = (ORIGIN (RAM) + LENGTH (RAM))
                0x2003dd00                __StackLimit = (__StackTop - SIZEOF (.stack_dummy))
                0x2003fd00                PROVIDE (__stack, __StackTop)
                0x00000001                ASSERT ((__StackLimit >= __HeapLimit), region RAM overflowed with stack)
                0x00000170                DataInitFlashUsed = (__bss_start__ - __data_start__)
                0x0001f7f0                CodeFlashUsed = (__etext - ORIGIN (FLASH))
                0x0001f960                TotalFlashUsed = (CodeFlashUsed + DataInitFlashUsed)
                0x00000001                ASSERT ((TotalFlashUsed <= LENGTH (FLASH)), region FLASH overflowed with .data and user data)
OUTPUT(examples\enocean_switch\enocean_switch_nrf52840_xxAA_s140_6.0.0.elf elf32-littlearm)

.ARM.attributes
                0x00000000       0x30
 .ARM.attributes
                0x00000000       0x22 c:/mesh/arm_gcc/bin/../lib/gcc/arm-none-eabi/6.3.1/thumb/v7e-m/fpv4-sp/hard/crti.o
 .ARM.attributes
                0x00000022       0x34 c:/mesh/arm_gcc/bin/../lib/gcc/arm-none-eabi/6.3.1/thumb/v7e-m/fpv4-sp/hard/crtbegin.o
 .ARM.attributes
                0x00000056       0x20 c:/mesh/arm_gcc/bin/../lib/gcc/arm-none-eabi/6.3.1/../../../../arm-none-eabi/lib/thumb/v7e-m/fpv4-sp/hard/crt0.o
 .ARM.attributes
                0x00000076       0x39 examples/enocean_switch/CMakeFiles/enocean_switch_nrf52840_xxAA_s140_6.0.0.dir/src/main.c.obj
 .ARM.attributes
                0x000000af       0x39 examples/enocean_switch/CMakeFiles/enocean_switch_nrf52840_xxAA_s140_6.0.0.dir/src/enocean.c.obj
 .ARM.attributes
                0x000000e8       0x39 examples/enocean_switch/CMakeFiles/enocean_switch_nrf52840_xxAA_s140_6.0.0.dir/src/flash_helper.c.obj
 .ARM.attributes
                0x00000121       0x39 examples/enocean_switch/CMakeFiles/enocean_switch_nrf52840_xxAA_s140_6.0.0.dir/__/__/mesh/stack/src/mesh_stack.c.obj
 .ARM.attributes
                0x0000015a       0x39 examples/enocean_switch/CMakeFiles/enocean_switch_nrf52840_xxAA_s140_6.0.0.dir/__/common/src/mesh_softdevice_init.c.obj
 .ARM.attributes
                0x00000193       0x39 examples/enocean_switch/CMakeFiles/enocean_switch_nrf52840_xxAA_s140_6.0.0.dir/__/common/src/mesh_provisionee.c.obj
 .ARM.attributes
                0x000001cc       0x39 examples/enocean_switch/CMakeFiles/enocean_switch_nrf52840_xxAA_s140_6.0.0.dir/__/common/src/rtt_input.c.obj
 .ARM.attributes
                0x00000205       0x39 examples/enocean_switch/CMakeFiles/enocean_switch_nrf52840_xxAA_s140_6.0.0.dir/__/common/src/simple_hal.c.obj
 .ARM.attributes
                0x0000023e       0x39 examples/enocean_switch/CMakeFiles/enocean_switch_nrf52840_xxAA_s140_6.0.0.dir/__/nrf_mesh_weak.c.obj
 .ARM.attributes
                0x00000277       0x39 examples/enocean_switch/CMakeFiles/enocean_switch_nrf52840_xxAA_s140_6.0.0.dir/__/common/src/app_error_weak.c.obj
 .ARM.attributes
                0x000002b0       0x39 examples/enocean_switch/CMakeFiles/enocean_switch_nrf52840_xxAA_s140_6.0.0.dir/__/common/src/assertion_handler_weak.c.obj
 .ARM.attributes
                0x000002e9       0x39 examples/enocean_switch/CMakeFiles/enocean_switch_nrf52840_xxAA_s140_6.0.0.dir/__/__/mesh/core/src/nrf_mesh_configure.c.obj
 .ARM.attributes
                0x00000322       0x39 examples/enocean_switch/CMakeFiles/enocean_switch_nrf52840_xxAA_s140_6.0.0.dir/__/__/mesh/core/src/aes.c.obj
 .ARM.attributes
                0x0000035b       0x39 examples/enocean_switch/CMakeFiles/enocean_switch_nrf52840_xxAA_s140_6.0.0.dir/__/__/mesh/core/src/msg_cache.c.obj
 .ARM.attributes
                0x00000394       0x39 examples/enocean_switch/CMakeFiles/enocean_switch_nrf52840_xxAA_s140_6.0.0.dir/__/__/mesh/core/src/transport.c.obj
 .ARM.attributes
                0x000003cd       0x39 examples/enocean_switch/CMakeFiles/enocean_switch_nrf52840_xxAA_s140_6.0.0.dir/__/__/mesh/core/src/event.c.obj
 .ARM.attributes
                0x00000406       0x39 examples/enocean_switch/CMakeFiles/enocean_switch_nrf52840_xxAA_s140_6.0.0.dir/__/__/mesh/core/src/packet_buffer.c.obj
 .ARM.attributes
                0x0000043f       0x39 examples/enocean_switch/CMakeFiles/enocean_switch_nrf52840_xxAA_s140_6.0.0.dir/__/__/mesh/core/src/flash_manager_defrag.c.obj
 .ARM.attributes
                0x00000478       0x39 examples/enocean_switch/CMakeFiles/enocean_switch_nrf52840_xxAA_s140_6.0.0.dir/__/__/mesh/core/src/fifo.c.obj
 .ARM.attributes
                0x000004b1       0x39 examples/enocean_switch/CMakeFiles/enocean_switch_nrf52840_xxAA_s140_6.0.0.dir/__/__/mesh/core/src/nrf_flash.c.obj
 .ARM.attributes
                0x000004ea       0x39 examples/enocean_switch/CMakeFiles/enocean_switch_nrf52840_xxAA_s140_6.0.0.dir/__/__/mesh/core/src/packet_mgr.c.obj
 .ARM.attributes
                0x00000523       0x39 examples/enocean_switch/CMakeFiles/enocean_switch_nrf52840_xxAA_s140_6.0.0.dir/__/__/mesh/core/src/net_state.c.obj
 .ARM.attributes
                0x0000055c       0x39 examples/enocean_switch/CMakeFiles/enocean_switch_nrf52840_xxAA_s140_6.0.0.dir/__/__/mesh/core/src/mesh_flash.c.obj
 .ARM.attributes
                0x00000595       0x39 examples/enocean_switch/CMakeFiles/enocean_switch_nrf52840_xxAA_s140_6.0.0.dir/__/__/mesh/core/src/nrf_mesh_utils.c.obj
 .ARM.attributes
                0x000005ce       0x39 examples/enocean_switch/CMakeFiles/enocean_switch_nrf52840_xxAA_s140_6.0.0.dir/__/__/mesh/core/src/nrf_mesh.c.obj
 .ARM.attributes
                0x00000607       0x39 examples/enocean_switch/CMakeFiles/enocean_switch_nrf52840_xxAA_s140_6.0.0.dir/__/__/mesh/core/src/queue.c.obj
 .ARM.attributes
                0x00000640       0x39 examples/enocean_switch/CMakeFiles/enocean_switch_nrf52840_xxAA_s140_6.0.0.dir/__/__/mesh/core/src/hal.c.obj
 .ARM.attributes
                0x00000679       0x39 examples/enocean_switch/CMakeFiles/enocean_switch_nrf52840_xxAA_s140_6.0.0.dir/__/__/mesh/core/src/aes_cmac.c.obj
 .ARM.attributes
                0x000006b2       0x39 examples/enocean_switch/CMakeFiles/enocean_switch_nrf52840_xxAA_s140_6.0.0.dir/__/__/mesh/core/src/timer_scheduler.c.obj
 .ARM.attributes
                0x000006eb       0x39 examples/enocean_switch/CMakeFiles/enocean_switch_nrf52840_xxAA_s140_6.0.0.dir/__/__/mesh/core/src/timer.c.obj
 .ARM.attributes
                0x00000724       0x39 examples/enocean_switch/CMakeFiles/enocean_switch_nrf52840_xxAA_s140_6.0.0.dir/__/__/mesh/core/src/ticker.c.obj
 .ARM.attributes
                0x0000075d       0x39 examples/enocean_switch/CMakeFiles/enocean_switch_nrf52840_xxAA_s140_6.0.0.dir/__/__/mesh/core/src/rand.c.obj
 .ARM.attributes
                0x00000796       0x39 examples/enocean_switch/CMakeFiles/enocean_switch_nrf52840_xxAA_s140_6.0.0.dir/__/__/mesh/core/src/nrf_mesh_opt.c.obj
 .ARM.attributes
                0x000007cf       0x39 examples/enocean_switch/CMakeFiles/enocean_switch_nrf52840_xxAA_s140_6.0.0.dir/__/__/mesh/core/src/timeslot.c.obj
 .ARM.attributes
                0x00000808       0x39 examples/enocean_switch/CMakeFiles/enocean_switch_nrf52840_xxAA_s140_6.0.0.dir/__/__/mesh/core/src/bearer_event.c.obj
 .ARM.attributes
                0x00000841       0x39 examples/enocean_switch/CMakeFiles/enocean_switch_nrf52840_xxAA_s140_6.0.0.dir/__/__/mesh/core/src/enc.c.obj
 .ARM.attributes
                0x0000087a       0x39 examples/enocean_switch/CMakeFiles/enocean_switch_nrf52840_xxAA_s140_6.0.0.dir/__/__/mesh/core/src/network.c.obj
 .ARM.attributes
                0x000008b3       0x39 examples/enocean_switch/CMakeFiles/enocean_switch_nrf52840_xxAA_s140_6.0.0.dir/__/__/mesh/core/src/net_packet.c.obj
 .ARM.attributes
                0x000008ec       0x39 examples/enocean_switch/CMakeFiles/enocean_switch_nrf52840_xxAA_s140_6.0.0.dir/__/__/mesh/core/src/msqueue.c.obj
 .ARM.attributes
                0x00000925       0x39 examples/enocean_switch/CMakeFiles/enocean_switch_nrf52840_xxAA_s140_6.0.0.dir/__/__/mesh/core/src/nrf_mesh_keygen.c.obj
 .ARM.attributes
                0x0000095e       0x39 examples/enocean_switch/CMakeFiles/enocean_switch_nrf52840_xxAA_s140_6.0.0.dir/__/__/mesh/core/src/list.c.obj
 .ARM.attributes
                0x00000997       0x39 examples/enocean_switch/CMakeFiles/enocean_switch_nrf52840_xxAA_s140_6.0.0.dir/__/__/mesh/core/src/log.c.obj
 .ARM.attributes
                0x000009d0       0x39 examples/enocean_switch/CMakeFiles/enocean_switch_nrf52840_xxAA_s140_6.0.0.dir/__/__/mesh/core/src/flash_manager.c.obj
 .ARM.attributes
                0x00000a09       0x39 examples/enocean_switch/CMakeFiles/enocean_switch_nrf52840_xxAA_s140_6.0.0.dir/__/__/mesh/core/src/ccm_soft.c.obj
 .ARM.attributes
                0x00000a42       0x39 examples/enocean_switch/CMakeFiles/enocean_switch_nrf52840_xxAA_s140_6.0.0.dir/__/__/mesh/core/src/replay_cache.c.obj
 .ARM.attributes
                0x00000a7b       0x39 examples/enocean_switch/CMakeFiles/enocean_switch_nrf52840_xxAA_s140_6.0.0.dir/__/__/mesh/core/src/beacon.c.obj
 .ARM.attributes
                0x00000ab4       0x39 examples/enocean_switch/CMakeFiles/enocean_switch_nrf52840_xxAA_s140_6.0.0.dir/__/__/mesh/core/src/flash_manager_internal.c.obj
 .ARM.attributes
                0x00000aed       0x39 examples/enocean_switch/CMakeFiles/enocean_switch_nrf52840_xxAA_s140_6.0.0.dir/__/__/mesh/core/src/core_tx.c.obj
 .ARM.attributes
                0x00000b26       0x39 examples/enocean_switch/CMakeFiles/enocean_switch_nrf52840_xxAA_s140_6.0.0.dir/__/__/mesh/core/src/heartbeat.c.obj
 .ARM.attributes
                0x00000b5f       0x39 examples/enocean_switch/CMakeFiles/enocean_switch_nrf52840_xxAA_s140_6.0.0.dir/__/__/mesh/core/src/net_beacon.c.obj
 .ARM.attributes
                0x00000b98       0x39 examples/enocean_switch/CMakeFiles/enocean_switch_nrf52840_xxAA_s140_6.0.0.dir/__/__/mesh/core/src/core_tx_adv.c.obj
 .ARM.attributes
                0x00000bd1       0x39 examples/enocean_switch/CMakeFiles/enocean_switch_nrf52840_xxAA_s140_6.0.0.dir/__/__/mesh/bearer/src/ad_listener.c.obj
 .ARM.attributes
                0x00000c0a       0x39 examples/enocean_switch/CMakeFiles/enocean_switch_nrf52840_xxAA_s140_6.0.0.dir/__/__/mesh/bearer/src/ad_type_filter.c.obj
 .ARM.attributes
                0x00000c43       0x39 examples/enocean_switch/CMakeFiles/enocean_switch_nrf52840_xxAA_s140_6.0.0.dir/__/__/mesh/bearer/src/advertiser.c.obj
 .ARM.attributes
                0x00000c7c       0x39 examples/enocean_switch/CMakeFiles/enocean_switch_nrf52840_xxAA_s140_6.0.0.dir/__/__/mesh/bearer/src/bearer_handler.c.obj
 .ARM.attributes
                0x00000cb5       0x39 examples/enocean_switch/CMakeFiles/enocean_switch_nrf52840_xxAA_s140_6.0.0.dir/__/__/mesh/bearer/src/broadcast.c.obj
 .ARM.attributes
                0x00000cee       0x39 examples/enocean_switch/CMakeFiles/enocean_switch_nrf52840_xxAA_s140_6.0.0.dir/__/__/mesh/bearer/src/filter_engine.c.obj
 .ARM.attributes
                0x00000d27       0x39 examples/enocean_switch/CMakeFiles/enocean_switch_nrf52840_xxAA_s140_6.0.0.dir/__/__/mesh/bearer/src/radio_config.c.obj
 .ARM.attributes
                0x00000d60       0x39 examples/enocean_switch/CMakeFiles/enocean_switch_nrf52840_xxAA_s140_6.0.0.dir/__/__/mesh/bearer/src/scanner.c.obj
 .ARM.attributes
                0x00000d99       0x39 examples/enocean_switch/CMakeFiles/enocean_switch_nrf52840_xxAA_s140_6.0.0.dir/__/__/models/simple_on_off/src/simple_on_off_client.c.obj
 .ARM.attributes
                0x00000dd2       0x39 examples/enocean_switch/CMakeFiles/enocean_switch_nrf52840_xxAA_s140_6.0.0.dir/__/__/models/config/src/composition_data.c.obj
 .ARM.attributes
                0x00000e0b       0x39 examples/enocean_switch/CMakeFiles/enocean_switch_nrf52840_xxAA_s140_6.0.0.dir/__/__/models/config/src/config_server.c.obj
 .ARM.attributes
                0x00000e44       0x39 examples/enocean_switch/CMakeFiles/enocean_switch_nrf52840_xxAA_s140_6.0.0.dir/__/__/models/config/src/packed_index_list.c.obj
 .ARM.attributes
                0x00000e7d       0x39 examples/enocean_switch/CMakeFiles/enocean_switch_nrf52840_xxAA_s140_6.0.0.dir/__/__/models/health/src/health_server.c.obj
 .ARM.attributes
                0x00000eb6       0x39 examples/enocean_switch/CMakeFiles/enocean_switch_nrf52840_xxAA_s140_6.0.0.dir/__/__/mesh/access/src/access_publish.c.obj
 .ARM.attributes
                0x00000eef       0x39 examples/enocean_switch/CMakeFiles/enocean_switch_nrf52840_xxAA_s140_6.0.0.dir/__/__/mesh/access/src/access.c.obj
 .ARM.attributes
                0x00000f28       0x39 examples/enocean_switch/CMakeFiles/enocean_switch_nrf52840_xxAA_s140_6.0.0.dir/__/__/mesh/access/src/access_reliable.c.obj
 .ARM.attributes
                0x00000f61       0x39 examples/enocean_switch/CMakeFiles/enocean_switch_nrf52840_xxAA_s140_6.0.0.dir/__/__/mesh/access/src/device_state_manager.c.obj
 .ARM.attributes
                0x00000f9a       0x39 examples/enocean_switch/CMakeFiles/enocean_switch_nrf52840_xxAA_s140_6.0.0.dir/__/__/mesh/prov/src/prov_provisionee.c.obj
 .ARM.attributes
                0x00000fd3       0x39 examples/enocean_switch/CMakeFiles/enocean_switch_nrf52840_xxAA_s140_6.0.0.dir/__/__/mesh/prov/src/nrf_mesh_prov.c.obj
 .ARM.attributes
                0x0000100c       0x39 examples/enocean_switch/CMakeFiles/enocean_switch_nrf52840_xxAA_s140_6.0.0.dir/__/__/mesh/prov/src/provisioning.c.obj
 .ARM.attributes
                0x00001045       0x39 examples/enocean_switch/CMakeFiles/enocean_switch_nrf52840_xxAA_s140_6.0.0.dir/__/__/mesh/prov/src/prov_beacon.c.obj
 .ARM.attributes
                0x0000107e       0x39 examples/enocean_switch/CMakeFiles/enocean_switch_nrf52840_xxAA_s140_6.0.0.dir/__/__/mesh/prov/src/prov_utils.c.obj
 .ARM.attributes
                0x000010b7       0x39 examples/enocean_switch/CMakeFiles/enocean_switch_nrf52840_xxAA_s140_6.0.0.dir/__/__/mesh/prov/src/prov_bearer_adv.c.obj
 .ARM.attributes
                0x000010f0       0x39 examples/enocean_switch/CMakeFiles/enocean_switch_nrf52840_xxAA_s140_6.0.0.dir/C_/ver/mod/nRF5_SDK_15.0.0_a53641a/modules/nrfx/mdk/system_nrf52840.c.obj
 .ARM.attributes
                0x00001129       0x20 examples/enocean_switch/CMakeFiles/enocean_switch_nrf52840_xxAA_s140_6.0.0.dir/C_/ver/mod/nRF5_SDK_15.0.0_a53641a/modules/nrfx/mdk/gcc_startup_nrf52840.S.obj
 .ARM.attributes
                0x00001149       0x39 examples/enocean_switch/CMakeFiles/enocean_switch_nrf52840_xxAA_s140_6.0.0.dir/C_/ver/mod/nRF5_SDK_15.0.0_a53641a/components/libraries/util/app_error.c.obj
 .ARM.attributes
                0x00001182       0x39 examples/enocean_switch/CMakeFiles/enocean_switch_nrf52840_xxAA_s140_6.0.0.dir/C_/ver/mod/nRF5_SDK_15.0.0_a53641a/components/libraries/util/app_error_handler_gcc.c.obj
 .ARM.attributes
                0x000011bb       0x39 external/rtt/librtt_nrf52840_xxAA.a(SEGGER_RTT.c.obj)
 .ARM.attributes
                0x000011f4       0x39 external/rtt/librtt_nrf52840_xxAA.a(SEGGER_RTT_printf.c.obj)
 .ARM.attributes
                0x0000122d       0x39 external/micro-ecc/libuECC_nrf52840_xxAA.a(uECC.c.obj)
 .ARM.attributes
                0x00001266       0x22 c:/mesh/arm_gcc/bin/../lib/gcc/arm-none-eabi/6.3.1/thumb/v7e-m/fpv4-sp/hard\libgcc.a(_aeabi_uldivmod.o)
 .ARM.attributes
                0x00001288       0x34 c:/mesh/arm_gcc/bin/../lib/gcc/arm-none-eabi/6.3.1/thumb/v7e-m/fpv4-sp/hard\libgcc.a(_udivmoddi4.o)
 .ARM.attributes
                0x000012bc       0x22 c:/mesh/arm_gcc/bin/../lib/gcc/arm-none-eabi/6.3.1/thumb/v7e-m/fpv4-sp/hard\libgcc.a(_dvmd_tls.o)
 .ARM.attributes
                0x000012de       0x34 c:/mesh/arm_gcc/bin/../lib/gcc/arm-none-eabi/6.3.1/../../../../arm-none-eabi/lib/thumb/v7e-m/fpv4-sp/hard\libc_nano.a(lib_a-exit.o)
 .ARM.attributes
                0x00001312       0x34 c:/mesh/arm_gcc/bin/../lib/gcc/arm-none-eabi/6.3.1/../../../../arm-none-eabi/lib/thumb/v7e-m/fpv4-sp/hard\libc_nano.a(lib_a-impure.o)
 .ARM.attributes
                0x00001346       0x34 c:/mesh/arm_gcc/bin/../lib/gcc/arm-none-eabi/6.3.1/../../../../arm-none-eabi/lib/thumb/v7e-m/fpv4-sp/hard\libc_nano.a(lib_a-init.o)
 .ARM.attributes
                0x0000137a       0x34 c:/mesh/arm_gcc/bin/../lib/gcc/arm-none-eabi/6.3.1/../../../../arm-none-eabi/lib/thumb/v7e-m/fpv4-sp/hard\libc_nano.a(lib_a-malloc.o)
 .ARM.attributes
                0x000013ae       0x34 c:/mesh/arm_gcc/bin/../lib/gcc/arm-none-eabi/6.3.1/../../../../arm-none-eabi/lib/thumb/v7e-m/fpv4-sp/hard\libc_nano.a(lib_a-memcmp.o)
 .ARM.attributes
                0x000013e2       0x34 c:/mesh/arm_gcc/bin/../lib/gcc/arm-none-eabi/6.3.1/../../../../arm-none-eabi/lib/thumb/v7e-m/fpv4-sp/hard\libc_nano.a(lib_a-memcpy-stub.o)
 .ARM.attributes
                0x00001416       0x34 c:/mesh/arm_gcc/bin/../lib/gcc/arm-none-eabi/6.3.1/../../../../arm-none-eabi/lib/thumb/v7e-m/fpv4-sp/hard\libc_nano.a(lib_a-memset.o)
 .ARM.attributes
                0x0000144a       0x34 c:/mesh/arm_gcc/bin/../lib/gcc/arm-none-eabi/6.3.1/../../../../arm-none-eabi/lib/thumb/v7e-m/fpv4-sp/hard\libc_nano.a(lib_a-nano-freer.o)
 .ARM.attributes
                0x0000147e       0x34 c:/mesh/arm_gcc/bin/../lib/gcc/arm-none-eabi/6.3.1/../../../../arm-none-eabi/lib/thumb/v7e-m/fpv4-sp/hard\libc_nano.a(lib_a-nano-mallocr.o)
 .ARM.attributes
                0x000014b2       0x34 c:/mesh/arm_gcc/bin/../lib/gcc/arm-none-eabi/6.3.1/../../../../arm-none-eabi/lib/thumb/v7e-m/fpv4-sp/hard\libc_nano.a(lib_a-sbrkr.o)
 .ARM.attributes
                0x000014e6       0x34 c:/mesh/arm_gcc/bin/../lib/gcc/arm-none-eabi/6.3.1/../../../../arm-none-eabi/lib/thumb/v7e-m/fpv4-sp/hard\libc_nano.a(lib_a-strcpy.o)
 .ARM.attributes
                0x0000151a       0x1b c:/mesh/arm_gcc/bin/../lib/gcc/arm-none-eabi/6.3.1/../../../../arm-none-eabi/lib/thumb/v7e-m/fpv4-sp/hard\libc_nano.a(lib_a-strlen.o)
 .ARM.attributes
                0x00001535       0x34 c:/mesh/arm_gcc/bin/../lib/gcc/arm-none-eabi/6.3.1/../../../../arm-none-eabi/lib/thumb/v7e-m/fpv4-sp/hard\libc_nano.a(lib_a-strrchr.o)
 .ARM.attributes
                0x00001569       0x34 c:/mesh/arm_gcc/bin/../lib/gcc/arm-none-eabi/6.3.1/../../../../arm-none-eabi/lib/thumb/v7e-m/fpv4-sp/hard\libc_nano.a(lib_a-mlock.o)
 .ARM.attributes
                0x0000159d       0x34 c:/mesh/arm_gcc/bin/../lib/gcc/arm-none-eabi/6.3.1/../../../../arm-none-eabi/lib/thumb/v7e-m/fpv4-sp/hard\libc_nano.a(lib_a-reent.o)
 .ARM.attributes
                0x000015d1       0x34 c:/mesh/arm_gcc/bin/../lib/gcc/arm-none-eabi/6.3.1/../../../../arm-none-eabi/lib/thumb/v7e-m/fpv4-sp/hard\libc_nano.a(lib_a-strchr.o)
 .ARM.attributes
                0x00001605       0x34 c:/mesh/arm_gcc/bin/../lib/gcc/arm-none-eabi/6.3.1/thumb/v7e-m/fpv4-sp/hard/crtend.o
 .ARM.attributes
                0x00001639       0x22 c:/mesh/arm_gcc/bin/../lib/gcc/arm-none-eabi/6.3.1/thumb/v7e-m/fpv4-sp/hard/crtn.o
 .ARM.attributes
                0x0000165b       0x34 c:/mesh/arm_gcc/bin/../lib/gcc/arm-none-eabi/6.3.1/../../../../arm-none-eabi/lib/thumb/v7e-m/fpv4-sp/hard\libnosys.a(sbrk.o)
 .ARM.attributes
                0x0000168f       0x34 c:/mesh/arm_gcc/bin/../lib/gcc/arm-none-eabi/6.3.1/../../../../arm-none-eabi/lib/thumb/v7e-m/fpv4-sp/hard\libnosys.a(_exit.o)

.comment        0x00000000       0x7f
 .comment       0x00000000       0x7f examples/enocean_switch/CMakeFiles/enocean_switch_nrf52840_xxAA_s140_6.0.0.dir/src/main.c.obj
                                 0x80 (size before relaxing)
 .comment       0x0000007f       0x80 examples/enocean_switch/CMakeFiles/enocean_switch_nrf52840_xxAA_s140_6.0.0.dir/src/enocean.c.obj
 .comment       0x0000007f       0x80 examples/enocean_switch/CMakeFiles/enocean_switch_nrf52840_xxAA_s140_6.0.0.dir/src/flash_helper.c.obj
 .comment       0x0000007f       0x80 examples/enocean_switch/CMakeFiles/enocean_switch_nrf52840_xxAA_s140_6.0.0.dir/__/__/mesh/stack/src/mesh_stack.c.obj
 .comment       0x0000007f       0x80 examples/enocean_switch/CMakeFiles/enocean_switch_nrf52840_xxAA_s140_6.0.0.dir/__/common/src/mesh_softdevice_init.c.obj
 .comment       0x0000007f       0x80 examples/enocean_switch/CMakeFiles/enocean_switch_nrf52840_xxAA_s140_6.0.0.dir/__/common/src/mesh_provisionee.c.obj
 .comment       0x0000007f       0x80 examples/enocean_switch/CMakeFiles/enocean_switch_nrf52840_xxAA_s140_6.0.0.dir/__/common/src/rtt_input.c.obj
 .comment       0x0000007f       0x80 examples/enocean_switch/CMakeFiles/enocean_switch_nrf52840_xxAA_s140_6.0.0.dir/__/common/src/simple_hal.c.obj
 .comment       0x0000007f       0x80 examples/enocean_switch/CMakeFiles/enocean_switch_nrf52840_xxAA_s140_6.0.0.dir/__/nrf_mesh_weak.c.obj
 .comment       0x0000007f       0x80 examples/enocean_switch/CMakeFiles/enocean_switch_nrf52840_xxAA_s140_6.0.0.dir/__/common/src/app_error_weak.c.obj
 .comment       0x0000007f       0x80 examples/enocean_switch/CMakeFiles/enocean_switch_nrf52840_xxAA_s140_6.0.0.dir/__/common/src/assertion_handler_weak.c.obj
 .comment       0x0000007f       0x80 examples/enocean_switch/CMakeFiles/enocean_switch_nrf52840_xxAA_s140_6.0.0.dir/__/__/mesh/core/src/nrf_mesh_configure.c.obj
 .comment       0x0000007f       0x80 examples/enocean_switch/CMakeFiles/enocean_switch_nrf52840_xxAA_s140_6.0.0.dir/__/__/mesh/core/src/aes.c.obj
 .comment       0x0000007f       0x80 examples/enocean_switch/CMakeFiles/enocean_switch_nrf52840_xxAA_s140_6.0.0.dir/__/__/mesh/core/src/msg_cache.c.obj
 .comment       0x0000007f       0x80 examples/enocean_switch/CMakeFiles/enocean_switch_nrf52840_xxAA_s140_6.0.0.dir/__/__/mesh/core/src/transport.c.obj
 .comment       0x0000007f       0x80 examples/enocean_switch/CMakeFiles/enocean_switch_nrf52840_xxAA_s140_6.0.0.dir/__/__/mesh/core/src/event.c.obj
 .comment       0x0000007f       0x80 examples/enocean_switch/CMakeFiles/enocean_switch_nrf52840_xxAA_s140_6.0.0.dir/__/__/mesh/core/src/packet_buffer.c.obj
 .comment       0x0000007f       0x80 examples/enocean_switch/CMakeFiles/enocean_switch_nrf52840_xxAA_s140_6.0.0.dir/__/__/mesh/core/src/flash_manager_defrag.c.obj
 .comment       0x0000007f       0x80 examples/enocean_switch/CMakeFiles/enocean_switch_nrf52840_xxAA_s140_6.0.0.dir/__/__/mesh/core/src/fifo.c.obj
 .comment       0x0000007f       0x80 examples/enocean_switch/CMakeFiles/enocean_switch_nrf52840_xxAA_s140_6.0.0.dir/__/__/mesh/core/src/nrf_flash.c.obj
 .comment       0x0000007f       0x80 examples/enocean_switch/CMakeFiles/enocean_switch_nrf52840_xxAA_s140_6.0.0.dir/__/__/mesh/core/src/packet_mgr.c.obj
 .comment       0x0000007f       0x80 examples/enocean_switch/CMakeFiles/enocean_switch_nrf52840_xxAA_s140_6.0.0.dir/__/__/mesh/core/src/net_state.c.obj
 .comment       0x0000007f       0x80 examples/enocean_switch/CMakeFiles/enocean_switch_nrf52840_xxAA_s140_6.0.0.dir/__/__/mesh/core/src/mesh_flash.c.obj
 .comment       0x0000007f       0x80 examples/enocean_switch/CMakeFiles/enocean_switch_nrf52840_xxAA_s140_6.0.0.dir/__/__/mesh/core/src/nrf_mesh_utils.c.obj
 .comment       0x0000007f       0x80 examples/enocean_switch/CMakeFiles/enocean_switch_nrf52840_xxAA_s140_6.0.0.dir/__/__/mesh/core/src/nrf_mesh.c.obj
 .comment       0x0000007f       0x80 examples/enocean_switch/CMakeFiles/enocean_switch_nrf52840_xxAA_s140_6.0.0.dir/__/__/mesh/core/src/queue.c.obj
 .comment       0x0000007f       0x80 examples/enocean_switch/CMakeFiles/enocean_switch_nrf52840_xxAA_s140_6.0.0.dir/__/__/mesh/core/src/hal.c.obj
 .comment       0x0000007f       0x80 examples/enocean_switch/CMakeFiles/enocean_switch_nrf52840_xxAA_s140_6.0.0.dir/__/__/mesh/core/src/aes_cmac.c.obj
 .comment       0x0000007f       0x80 examples/enocean_switch/CMakeFiles/enocean_switch_nrf52840_xxAA_s140_6.0.0.dir/__/__/mesh/core/src/timer_scheduler.c.obj
 .comment       0x0000007f       0x80 examples/enocean_switch/CMakeFiles/enocean_switch_nrf52840_xxAA_s140_6.0.0.dir/__/__/mesh/core/src/timer.c.obj
 .comment       0x0000007f       0x80 examples/enocean_switch/CMakeFiles/enocean_switch_nrf52840_xxAA_s140_6.0.0.dir/__/__/mesh/core/src/ticker.c.obj
 .comment       0x0000007f       0x80 examples/enocean_switch/CMakeFiles/enocean_switch_nrf52840_xxAA_s140_6.0.0.dir/__/__/mesh/core/src/rand.c.obj
 .comment       0x0000007f       0x80 examples/enocean_switch/CMakeFiles/enocean_switch_nrf52840_xxAA_s140_6.0.0.dir/__/__/mesh/core/src/nrf_mesh_opt.c.obj
 .comment       0x0000007f       0x80 examples/enocean_switch/CMakeFiles/enocean_switch_nrf52840_xxAA_s140_6.0.0.dir/__/__/mesh/core/src/timeslot.c.obj
 .comment       0x0000007f       0x80 examples/enocean_switch/CMakeFiles/enocean_switch_nrf52840_xxAA_s140_6.0.0.dir/__/__/mesh/core/src/bearer_event.c.obj
 .comment       0x0000007f       0x80 examples/enocean_switch/CMakeFiles/enocean_switch_nrf52840_xxAA_s140_6.0.0.dir/__/__/mesh/core/src/enc.c.obj
 .comment       0x0000007f       0x80 examples/enocean_switch/CMakeFiles/enocean_switch_nrf52840_xxAA_s140_6.0.0.dir/__/__/mesh/core/src/network.c.obj
 .comment       0x0000007f       0x80 examples/enocean_switch/CMakeFiles/enocean_switch_nrf52840_xxAA_s140_6.0.0.dir/__/__/mesh/core/src/net_packet.c.obj
 .comment       0x0000007f       0x80 examples/enocean_switch/CMakeFiles/enocean_switch_nrf52840_xxAA_s140_6.0.0.dir/__/__/mesh/core/src/msqueue.c.obj
 .comment       0x0000007f       0x80 examples/enocean_switch/CMakeFiles/enocean_switch_nrf52840_xxAA_s140_6.0.0.dir/__/__/mesh/core/src/nrf_mesh_keygen.c.obj
 .comment       0x0000007f       0x80 examples/enocean_switch/CMakeFiles/enocean_switch_nrf52840_xxAA_s140_6.0.0.dir/__/__/mesh/core/src/list.c.obj
 .comment       0x0000007f       0x80 examples/enocean_switch/CMakeFiles/enocean_switch_nrf52840_xxAA_s140_6.0.0.dir/__/__/mesh/core/src/log.c.obj
 .comment       0x0000007f       0x80 examples/enocean_switch/CMakeFiles/enocean_switch_nrf52840_xxAA_s140_6.0.0.dir/__/__/mesh/core/src/flash_manager.c.obj
 .comment       0x0000007f       0x80 examples/enocean_switch/CMakeFiles/enocean_switch_nrf52840_xxAA_s140_6.0.0.dir/__/__/mesh/core/src/ccm_soft.c.obj
 .comment       0x0000007f       0x80 examples/enocean_switch/CMakeFiles/enocean_switch_nrf52840_xxAA_s140_6.0.0.dir/__/__/mesh/core/src/replay_cache.c.obj
 .comment       0x0000007f       0x80 examples/enocean_switch/CMakeFiles/enocean_switch_nrf52840_xxAA_s140_6.0.0.dir/__/__/mesh/core/src/beacon.c.obj
 .comment       0x0000007f       0x80 examples/enocean_switch/CMakeFiles/enocean_switch_nrf52840_xxAA_s140_6.0.0.dir/__/__/mesh/core/src/flash_manager_internal.c.obj
 .comment       0x0000007f       0x80 examples/enocean_switch/CMakeFiles/enocean_switch_nrf52840_xxAA_s140_6.0.0.dir/__/__/mesh/core/src/core_tx.c.obj
 .comment       0x0000007f       0x80 examples/enocean_switch/CMakeFiles/enocean_switch_nrf52840_xxAA_s140_6.0.0.dir/__/__/mesh/core/src/heartbeat.c.obj
 .comment       0x0000007f       0x80 examples/enocean_switch/CMakeFiles/enocean_switch_nrf52840_xxAA_s140_6.0.0.dir/__/__/mesh/core/src/net_beacon.c.obj
 .comment       0x0000007f       0x80 examples/enocean_switch/CMakeFiles/enocean_switch_nrf52840_xxAA_s140_6.0.0.dir/__/__/mesh/core/src/core_tx_adv.c.obj
 .comment       0x0000007f       0x80 examples/enocean_switch/CMakeFiles/enocean_switch_nrf52840_xxAA_s140_6.0.0.dir/__/__/mesh/bearer/src/ad_listener.c.obj
 .comment       0x0000007f       0x80 examples/enocean_switch/CMakeFiles/enocean_switch_nrf52840_xxAA_s140_6.0.0.dir/__/__/mesh/bearer/src/ad_type_filter.c.obj
 .comment       0x0000007f       0x80 examples/enocean_switch/CMakeFiles/enocean_switch_nrf52840_xxAA_s140_6.0.0.dir/__/__/mesh/bearer/src/advertiser.c.obj
 .comment       0x0000007f       0x80 examples/enocean_switch/CMakeFiles/enocean_switch_nrf52840_xxAA_s140_6.0.0.dir/__/__/mesh/bearer/src/bearer_handler.c.obj
 .comment       0x0000007f       0x80 examples/enocean_switch/CMakeFiles/enocean_switch_nrf52840_xxAA_s140_6.0.0.dir/__/__/mesh/bearer/src/broadcast.c.obj
 .comment       0x0000007f       0x80 examples/enocean_switch/CMakeFiles/enocean_switch_nrf52840_xxAA_s140_6.0.0.dir/__/__/mesh/bearer/src/filter_engine.c.obj
 .comment       0x0000007f       0x80 examples/enocean_switch/CMakeFiles/enocean_switch_nrf52840_xxAA_s140_6.0.0.dir/__/__/mesh/bearer/src/radio_config.c.obj
 .comment       0x0000007f       0x80 examples/enocean_switch/CMakeFiles/enocean_switch_nrf52840_xxAA_s140_6.0.0.dir/__/__/mesh/bearer/src/scanner.c.obj
 .comment       0x0000007f       0x80 examples/enocean_switch/CMakeFiles/enocean_switch_nrf52840_xxAA_s140_6.0.0.dir/__/__/models/simple_on_off/src/simple_on_off_client.c.obj
 .comment       0x0000007f       0x80 examples/enocean_switch/CMakeFiles/enocean_switch_nrf52840_xxAA_s140_6.0.0.dir/__/__/models/config/src/composition_data.c.obj
 .comment       0x0000007f       0x80 examples/enocean_switch/CMakeFiles/enocean_switch_nrf52840_xxAA_s140_6.0.0.dir/__/__/models/config/src/config_server.c.obj
 .comment       0x0000007f       0x80 examples/enocean_switch/CMakeFiles/enocean_switch_nrf52840_xxAA_s140_6.0.0.dir/__/__/models/config/src/packed_index_list.c.obj
 .comment       0x0000007f       0x80 examples/enocean_switch/CMakeFiles/enocean_switch_nrf52840_xxAA_s140_6.0.0.dir/__/__/models/health/src/health_server.c.obj
 .comment       0x0000007f       0x80 examples/enocean_switch/CMakeFiles/enocean_switch_nrf52840_xxAA_s140_6.0.0.dir/__/__/mesh/access/src/access_publish.c.obj
 .comment       0x0000007f       0x80 examples/enocean_switch/CMakeFiles/enocean_switch_nrf52840_xxAA_s140_6.0.0.dir/__/__/mesh/access/src/access.c.obj
 .comment       0x0000007f       0x80 examples/enocean_switch/CMakeFiles/enocean_switch_nrf52840_xxAA_s140_6.0.0.dir/__/__/mesh/access/src/access_reliable.c.obj
 .comment       0x0000007f       0x80 examples/enocean_switch/CMakeFiles/enocean_switch_nrf52840_xxAA_s140_6.0.0.dir/__/__/mesh/access/src/device_state_manager.c.obj
 .comment       0x0000007f       0x80 examples/enocean_switch/CMakeFiles/enocean_switch_nrf52840_xxAA_s140_6.0.0.dir/__/__/mesh/prov/src/prov_provisionee.c.obj
 .comment       0x0000007f       0x80 examples/enocean_switch/CMakeFiles/enocean_switch_nrf52840_xxAA_s140_6.0.0.dir/__/__/mesh/prov/src/nrf_mesh_prov.c.obj
 .comment       0x0000007f       0x80 examples/enocean_switch/CMakeFiles/enocean_switch_nrf52840_xxAA_s140_6.0.0.dir/__/__/mesh/prov/src/provisioning.c.obj
 .comment       0x0000007f       0x80 examples/enocean_switch/CMakeFiles/enocean_switch_nrf52840_xxAA_s140_6.0.0.dir/__/__/mesh/prov/src/prov_beacon.c.obj
 .comment       0x0000007f       0x80 examples/enocean_switch/CMakeFiles/enocean_switch_nrf52840_xxAA_s140_6.0.0.dir/__/__/mesh/prov/src/prov_utils.c.obj
 .comment       0x0000007f       0x80 examples/enocean_switch/CMakeFiles/enocean_switch_nrf52840_xxAA_s140_6.0.0.dir/__/__/mesh/prov/src/prov_bearer_adv.c.obj
 .comment       0x0000007f       0x80 examples/enocean_switch/CMakeFiles/enocean_switch_nrf52840_xxAA_s140_6.0.0.dir/C_/ver/mod/nRF5_SDK_15.0.0_a53641a/modules/nrfx/mdk/system_nrf52840.c.obj
 .comment       0x0000007f       0x80 examples/enocean_switch/CMakeFiles/enocean_switch_nrf52840_xxAA_s140_6.0.0.dir/C_/ver/mod/nRF5_SDK_15.0.0_a53641a/components/libraries/util/app_error.c.obj
 .comment       0x0000007f       0x80 examples/enocean_switch/CMakeFiles/enocean_switch_nrf52840_xxAA_s140_6.0.0.dir/C_/ver/mod/nRF5_SDK_15.0.0_a53641a/components/libraries/util/app_error_handler_gcc.c.obj
 .comment       0x0000007f       0x80 external/rtt/librtt_nrf52840_xxAA.a(SEGGER_RTT.c.obj)
 .comment       0x0000007f       0x80 external/rtt/librtt_nrf52840_xxAA.a(SEGGER_RTT_printf.c.obj)
 .comment       0x0000007f       0x80 external/micro-ecc/libuECC_nrf52840_xxAA.a(uECC.c.obj)

.debug_frame    0x00000000      0x324
 .debug_frame   0x00000000       0x2c c:/mesh/arm_gcc/bin/../lib/gcc/arm-none-eabi/6.3.1/thumb/v7e-m/fpv4-sp/hard\libgcc.a(_aeabi_uldivmod.o)
 .debug_frame   0x0000002c       0x34 c:/mesh/arm_gcc/bin/../lib/gcc/arm-none-eabi/6.3.1/thumb/v7e-m/fpv4-sp/hard\libgcc.a(_udivmoddi4.o)
 .debug_frame   0x00000060       0x28 c:/mesh/arm_gcc/bin/../lib/gcc/arm-none-eabi/6.3.1/../../../../arm-none-eabi/lib/thumb/v7e-m/fpv4-sp/hard\libc_nano.a(lib_a-exit.o)
 .debug_frame   0x00000088       0x2c c:/mesh/arm_gcc/bin/../lib/gcc/arm-none-eabi/6.3.1/../../../../arm-none-eabi/lib/thumb/v7e-m/fpv4-sp/hard\libc_nano.a(lib_a-init.o)
 .debug_frame   0x000000b4       0x30 c:/mesh/arm_gcc/bin/../lib/gcc/arm-none-eabi/6.3.1/../../../../arm-none-eabi/lib/thumb/v7e-m/fpv4-sp/hard\libc_nano.a(lib_a-malloc.o)
 .debug_frame   0x000000e4       0x28 c:/mesh/arm_gcc/bin/../lib/gcc/arm-none-eabi/6.3.1/../../../../arm-none-eabi/lib/thumb/v7e-m/fpv4-sp/hard\libc_nano.a(lib_a-memcmp.o)
 .debug_frame   0x0000010c       0x28 c:/mesh/arm_gcc/bin/../lib/gcc/arm-none-eabi/6.3.1/../../../../arm-none-eabi/lib/thumb/v7e-m/fpv4-sp/hard\libc_nano.a(lib_a-memcpy-stub.o)
 .debug_frame   0x00000134       0x20 c:/mesh/arm_gcc/bin/../lib/gcc/arm-none-eabi/6.3.1/../../../../arm-none-eabi/lib/thumb/v7e-m/fpv4-sp/hard\libc_nano.a(lib_a-memset.o)
 .debug_frame   0x00000154       0x38 c:/mesh/arm_gcc/bin/../lib/gcc/arm-none-eabi/6.3.1/../../../../arm-none-eabi/lib/thumb/v7e-m/fpv4-sp/hard\libc_nano.a(lib_a-nano-freer.o)
 .debug_frame   0x0000018c       0x2c c:/mesh/arm_gcc/bin/../lib/gcc/arm-none-eabi/6.3.1/../../../../arm-none-eabi/lib/thumb/v7e-m/fpv4-sp/hard\libc_nano.a(lib_a-nano-mallocr.o)
 .debug_frame   0x000001b8       0x2c c:/mesh/arm_gcc/bin/../lib/gcc/arm-none-eabi/6.3.1/../../../../arm-none-eabi/lib/thumb/v7e-m/fpv4-sp/hard\libc_nano.a(lib_a-sbrkr.o)
 .debug_frame   0x000001e4       0x20 c:/mesh/arm_gcc/bin/../lib/gcc/arm-none-eabi/6.3.1/../../../../arm-none-eabi/lib/thumb/v7e-m/fpv4-sp/hard\libc_nano.a(lib_a-strcpy.o)
 .debug_frame   0x00000204       0x34 c:/mesh/arm_gcc/bin/../lib/gcc/arm-none-eabi/6.3.1/../../../../arm-none-eabi/lib/thumb/v7e-m/fpv4-sp/hard\libc_nano.a(lib_a-strrchr.o)
 .debug_frame   0x00000238       0x30 c:/mesh/arm_gcc/bin/../lib/gcc/arm-none-eabi/6.3.1/../../../../arm-none-eabi/lib/thumb/v7e-m/fpv4-sp/hard\libc_nano.a(lib_a-mlock.o)
 .debug_frame   0x00000268       0x5c c:/mesh/arm_gcc/bin/../lib/gcc/arm-none-eabi/6.3.1/../../../../arm-none-eabi/lib/thumb/v7e-m/fpv4-sp/hard\libc_nano.a(lib_a-reent.o)
 .debug_frame   0x000002c4       0x20 c:/mesh/arm_gcc/bin/../lib/gcc/arm-none-eabi/6.3.1/../../../../arm-none-eabi/lib/thumb/v7e-m/fpv4-sp/hard\libc_nano.a(lib_a-strchr.o)
 .debug_frame   0x000002e4       0x20 c:/mesh/arm_gcc/bin/../lib/gcc/arm-none-eabi/6.3.1/../../../../arm-none-eabi/lib/thumb/v7e-m/fpv4-sp/hard\libnosys.a(sbrk.o)
 .debug_frame   0x00000304       0x20 c:/mesh/arm_gcc/bin/../lib/gcc/arm-none-eabi/6.3.1/../../../../arm-none-eabi/lib/thumb/v7e-m/fpv4-sp/hard\libnosys.a(_exit.o)
