Archive member included to satisfy reference by file (symbol)

external/rtt/librtt_nrf52832_xxAA.a(SEGGER_RTT.c.obj)
                              examples/light_switch/proxy_client/CMakeFiles/light_switch_proxy_client_nrf52832_xxAA_s132_6.0.0.dir/__/__/__/mesh/core/src/log.c.obj (SEGGER_RTT_Write)
external/rtt/librtt_nrf52832_xxAA.a(SEGGER_RTT_printf.c.obj)
                              examples/light_switch/proxy_client/CMakeFiles/light_switch_proxy_client_nrf52832_xxAA_s132_6.0.0.dir/__/__/__/mesh/core/src/log.c.obj (SEGGER_RTT_vprintf)
external/micro-ecc/libuECC_nrf52832_xxAA.a(uECC.c.obj)
                              examples/light_switch/proxy_client/CMakeFiles/light_switch_proxy_client_nrf52832_xxAA_s132_6.0.0.dir/__/__/__/mesh/prov/src/prov_utils.c.obj (uECC_secp256r1)
c:/mesh/arm_gcc/bin/../lib/gcc/arm-none-eabi/6.3.1/thumb/v7e-m/fpv4-sp/hard\libgcc.a(_aeabi_uldivmod.o)
                              examples/light_switch/proxy_client/CMakeFiles/light_switch_proxy_client_nrf52832_xxAA_s132_6.0.0.dir/__/__/common/src/rtt_input.c.obj (__aeabi_uldivmod)
c:/mesh/arm_gcc/bin/../lib/gcc/arm-none-eabi/6.3.1/thumb/v7e-m/fpv4-sp/hard\libgcc.a(_udivmoddi4.o)
                              c:/mesh/arm_gcc/bin/../lib/gcc/arm-none-eabi/6.3.1/thumb/v7e-m/fpv4-sp/hard\libgcc.a(_aeabi_uldivmod.o) (__udivmoddi4)
c:/mesh/arm_gcc/bin/../lib/gcc/arm-none-eabi/6.3.1/thumb/v7e-m/fpv4-sp/hard\libgcc.a(_dvmd_tls.o)
                              c:/mesh/arm_gcc/bin/../lib/gcc/arm-none-eabi/6.3.1/thumb/v7e-m/fpv4-sp/hard\libgcc.a(_aeabi_uldivmod.o) (__aeabi_ldiv0)
c:/mesh/arm_gcc/bin/../lib/gcc/arm-none-eabi/6.3.1/../../../../arm-none-eabi/lib/thumb/v7e-m/fpv4-sp/hard\libc_nano.a(lib_a-exit.o)
                              c:/mesh/arm_gcc/bin/../lib/gcc/arm-none-eabi/6.3.1/../../../../arm-none-eabi/lib/thumb/v7e-m/fpv4-sp/hard/crt0.o (exit)
c:/mesh/arm_gcc/bin/../lib/gcc/arm-none-eabi/6.3.1/../../../../arm-none-eabi/lib/thumb/v7e-m/fpv4-sp/hard\libc_nano.a(lib_a-impure.o)
                              c:/mesh/arm_gcc/bin/../lib/gcc/arm-none-eabi/6.3.1/../../../../arm-none-eabi/lib/thumb/v7e-m/fpv4-sp/hard\libc_nano.a(lib_a-exit.o) (_global_impure_ptr)
c:/mesh/arm_gcc/bin/../lib/gcc/arm-none-eabi/6.3.1/../../../../arm-none-eabi/lib/thumb/v7e-m/fpv4-sp/hard\libc_nano.a(lib_a-init.o)
                              c:/mesh/arm_gcc/bin/../lib/gcc/arm-none-eabi/6.3.1/../../../../arm-none-eabi/lib/thumb/v7e-m/fpv4-sp/hard/crt0.o (__libc_init_array)
c:/mesh/arm_gcc/bin/../lib/gcc/arm-none-eabi/6.3.1/../../../../arm-none-eabi/lib/thumb/v7e-m/fpv4-sp/hard\libc_nano.a(lib_a-malloc.o)
                              examples/light_switch/proxy_client/CMakeFiles/light_switch_proxy_client_nrf52832_xxAA_s132_6.0.0.dir/__/__/__/mesh/core/src/transport.c.obj (malloc)
c:/mesh/arm_gcc/bin/../lib/gcc/arm-none-eabi/6.3.1/../../../../arm-none-eabi/lib/thumb/v7e-m/fpv4-sp/hard\libc_nano.a(lib_a-memcmp.o)
                              examples/light_switch/proxy_client/CMakeFiles/light_switch_proxy_client_nrf52832_xxAA_s132_6.0.0.dir/C_/b/nRF5_SDK_15.0.0_a53641a/components/ble/common/ble_advdata.c.obj (memcmp)
c:/mesh/arm_gcc/bin/../lib/gcc/arm-none-eabi/6.3.1/../../../../arm-none-eabi/lib/thumb/v7e-m/fpv4-sp/hard\libc_nano.a(lib_a-memcpy-stub.o)
                              examples/light_switch/proxy_client/CMakeFiles/light_switch_proxy_client_nrf52832_xxAA_s132_6.0.0.dir/__/__/__/mesh/prov/src/nrf_mesh_prov_bearer_gatt.c.obj (memcpy)
c:/mesh/arm_gcc/bin/../lib/gcc/arm-none-eabi/6.3.1/../../../../arm-none-eabi/lib/thumb/v7e-m/fpv4-sp/hard\libc_nano.a(lib_a-memset.o)
                              c:/mesh/arm_gcc/bin/../lib/gcc/arm-none-eabi/6.3.1/../../../../arm-none-eabi/lib/thumb/v7e-m/fpv4-sp/hard/crt0.o (memset)
c:/mesh/arm_gcc/bin/../lib/gcc/arm-none-eabi/6.3.1/../../../../arm-none-eabi/lib/thumb/v7e-m/fpv4-sp/hard\libc_nano.a(lib_a-nano-freer.o)
                              c:/mesh/arm_gcc/bin/../lib/gcc/arm-none-eabi/6.3.1/../../../../arm-none-eabi/lib/thumb/v7e-m/fpv4-sp/hard\libc_nano.a(lib_a-malloc.o) (_free_r)
c:/mesh/arm_gcc/bin/../lib/gcc/arm-none-eabi/6.3.1/../../../../arm-none-eabi/lib/thumb/v7e-m/fpv4-sp/hard\libc_nano.a(lib_a-nano-mallocr.o)
                              c:/mesh/arm_gcc/bin/../lib/gcc/arm-none-eabi/6.3.1/../../../../arm-none-eabi/lib/thumb/v7e-m/fpv4-sp/hard\libc_nano.a(lib_a-malloc.o) (_malloc_r)
c:/mesh/arm_gcc/bin/../lib/gcc/arm-none-eabi/6.3.1/../../../../arm-none-eabi/lib/thumb/v7e-m/fpv4-sp/hard\libc_nano.a(lib_a-sbrkr.o)
                              c:/mesh/arm_gcc/bin/../lib/gcc/arm-none-eabi/6.3.1/../../../../arm-none-eabi/lib/thumb/v7e-m/fpv4-sp/hard\libc_nano.a(lib_a-nano-mallocr.o) (_sbrk_r)
c:/mesh/arm_gcc/bin/../lib/gcc/arm-none-eabi/6.3.1/../../../../arm-none-eabi/lib/thumb/v7e-m/fpv4-sp/hard\libc_nano.a(lib_a-strcpy.o)
                              external/rtt/librtt_nrf52832_xxAA.a(SEGGER_RTT.c.obj) (strcpy)
c:/mesh/arm_gcc/bin/../lib/gcc/arm-none-eabi/6.3.1/../../../../arm-none-eabi/lib/thumb/v7e-m/fpv4-sp/hard\libc_nano.a(lib_a-strlen.o)
                              examples/light_switch/proxy_client/CMakeFiles/light_switch_proxy_client_nrf52832_xxAA_s132_6.0.0.dir/src/main.c.obj (strlen)
c:/mesh/arm_gcc/bin/../lib/gcc/arm-none-eabi/6.3.1/../../../../arm-none-eabi/lib/thumb/v7e-m/fpv4-sp/hard\libc_nano.a(lib_a-strrchr.o)
                              examples/light_switch/proxy_client/CMakeFiles/light_switch_proxy_client_nrf52832_xxAA_s132_6.0.0.dir/src/main.c.obj (strrchr)
c:/mesh/arm_gcc/bin/../lib/gcc/arm-none-eabi/6.3.1/../../../../arm-none-eabi/lib/thumb/v7e-m/fpv4-sp/hard\libc_nano.a(lib_a-mlock.o)
                              c:/mesh/arm_gcc/bin/../lib/gcc/arm-none-eabi/6.3.1/../../../../arm-none-eabi/lib/thumb/v7e-m/fpv4-sp/hard\libc_nano.a(lib_a-nano-freer.o) (__malloc_lock)
c:/mesh/arm_gcc/bin/../lib/gcc/arm-none-eabi/6.3.1/../../../../arm-none-eabi/lib/thumb/v7e-m/fpv4-sp/hard\libc_nano.a(lib_a-reent.o)
                              c:/mesh/arm_gcc/bin/../lib/gcc/arm-none-eabi/6.3.1/../../../../arm-none-eabi/lib/thumb/v7e-m/fpv4-sp/hard\libc_nano.a(lib_a-sbrkr.o) (errno)
c:/mesh/arm_gcc/bin/../lib/gcc/arm-none-eabi/6.3.1/../../../../arm-none-eabi/lib/thumb/v7e-m/fpv4-sp/hard\libc_nano.a(lib_a-strchr.o)
                              c:/mesh/arm_gcc/bin/../lib/gcc/arm-none-eabi/6.3.1/../../../../arm-none-eabi/lib/thumb/v7e-m/fpv4-sp/hard\libc_nano.a(lib_a-strrchr.o) (strchr)
c:/mesh/arm_gcc/bin/../lib/gcc/arm-none-eabi/6.3.1/../../../../arm-none-eabi/lib/thumb/v7e-m/fpv4-sp/hard\libnosys.a(sbrk.o)
                              c:/mesh/arm_gcc/bin/../lib/gcc/arm-none-eabi/6.3.1/../../../../arm-none-eabi/lib/thumb/v7e-m/fpv4-sp/hard\libc_nano.a(lib_a-sbrkr.o) (_sbrk)
c:/mesh/arm_gcc/bin/../lib/gcc/arm-none-eabi/6.3.1/../../../../arm-none-eabi/lib/thumb/v7e-m/fpv4-sp/hard\libnosys.a(_exit.o)
                              c:/mesh/arm_gcc/bin/../lib/gcc/arm-none-eabi/6.3.1/../../../../arm-none-eabi/lib/thumb/v7e-m/fpv4-sp/hard\libc_nano.a(lib_a-exit.o) (_exit)

Allocating common symbols
Common symbol       size              file

nrf_nvic_state      0xc               examples/light_switch/proxy_client/CMakeFiles/light_switch_proxy_client_nrf52832_xxAA_s132_6.0.0.dir/C_/b/nRF5_SDK_15.0.0_a53641a/components/libraries/util/app_util_platform.c.obj
m_packet            0x24              examples/light_switch/proxy_client/CMakeFiles/light_switch_proxy_client_nrf52832_xxAA_s132_6.0.0.dir/__/__/__/mesh/core/src/core_tx.c.obj
errno               0x4               c:/mesh/arm_gcc/bin/../lib/gcc/arm-none-eabi/6.3.1/../../../../arm-none-eabi/lib/thumb/v7e-m/fpv4-sp/hard\libc_nano.a(lib_a-reent.o)
_SEGGER_RTT         0x78              external/rtt/librtt_nrf52832_xxAA.a(SEGGER_RTT.c.obj)

Discarded input sections

 .text          0x00000000        0x0 c:/mesh/arm_gcc/bin/../lib/gcc/arm-none-eabi/6.3.1/thumb/v7e-m/fpv4-sp/hard/crti.o
 .data          0x00000000        0x0 c:/mesh/arm_gcc/bin/../lib/gcc/arm-none-eabi/6.3.1/thumb/v7e-m/fpv4-sp/hard/crti.o
 .bss           0x00000000        0x0 c:/mesh/arm_gcc/bin/../lib/gcc/arm-none-eabi/6.3.1/thumb/v7e-m/fpv4-sp/hard/crti.o
 .data          0x00000000        0x4 c:/mesh/arm_gcc/bin/../lib/gcc/arm-none-eabi/6.3.1/thumb/v7e-m/fpv4-sp/hard/crtbegin.o
 .data          0x00000000        0x0 c:/mesh/arm_gcc/bin/../lib/gcc/arm-none-eabi/6.3.1/../../../../arm-none-eabi/lib/thumb/v7e-m/fpv4-sp/hard/crt0.o
 .bss           0x00000000        0x0 c:/mesh/arm_gcc/bin/../lib/gcc/arm-none-eabi/6.3.1/../../../../arm-none-eabi/lib/thumb/v7e-m/fpv4-sp/hard/crt0.o
 .ARM.extab     0x00000000        0x0 c:/mesh/arm_gcc/bin/../lib/gcc/arm-none-eabi/6.3.1/../../../../arm-none-eabi/lib/thumb/v7e-m/fpv4-sp/hard/crt0.o
 .text          0x00000000        0x0 examples/light_switch/proxy_client/CMakeFiles/light_switch_proxy_client_nrf52832_xxAA_s132_6.0.0.dir/src/main.c.obj
 .data          0x00000000        0x0 examples/light_switch/proxy_client/CMakeFiles/light_switch_proxy_client_nrf52832_xxAA_s132_6.0.0.dir/src/main.c.obj
 .bss           0x00000000        0x0 examples/light_switch/proxy_client/CMakeFiles/light_switch_proxy_client_nrf52832_xxAA_s132_6.0.0.dir/src/main.c.obj
 .text          0x00000000        0x0 examples/light_switch/proxy_client/CMakeFiles/light_switch_proxy_client_nrf52832_xxAA_s132_6.0.0.dir/__/__/__/mesh/stack/src/mesh_stack.c.obj
 .data          0x00000000        0x0 examples/light_switch/proxy_client/CMakeFiles/light_switch_proxy_client_nrf52832_xxAA_s132_6.0.0.dir/__/__/__/mesh/stack/src/mesh_stack.c.obj
 .bss           0x00000000        0x0 examples/light_switch/proxy_client/CMakeFiles/light_switch_proxy_client_nrf52832_xxAA_s132_6.0.0.dir/__/__/__/mesh/stack/src/mesh_stack.c.obj
 .text.mesh_stack_is_device_provisioned
                0x00000000       0x1c examples/light_switch/proxy_client/CMakeFiles/light_switch_proxy_client_nrf52832_xxAA_s132_6.0.0.dir/__/__/__/mesh/stack/src/mesh_stack.c.obj
 .text          0x00000000        0x0 examples/light_switch/proxy_client/CMakeFiles/light_switch_proxy_client_nrf52832_xxAA_s132_6.0.0.dir/__/__/common/src/mesh_provisionee.c.obj
 .data          0x00000000        0x0 examples/light_switch/proxy_client/CMakeFiles/light_switch_proxy_client_nrf52832_xxAA_s132_6.0.0.dir/__/__/common/src/mesh_provisionee.c.obj
 .bss           0x00000000        0x0 examples/light_switch/proxy_client/CMakeFiles/light_switch_proxy_client_nrf52832_xxAA_s132_6.0.0.dir/__/__/common/src/mesh_provisionee.c.obj
 .text          0x00000000        0x0 examples/light_switch/proxy_client/CMakeFiles/light_switch_proxy_client_nrf52832_xxAA_s132_6.0.0.dir/__/__/common/src/rtt_input.c.obj
 .data          0x00000000        0x0 examples/light_switch/proxy_client/CMakeFiles/light_switch_proxy_client_nrf52832_xxAA_s132_6.0.0.dir/__/__/common/src/rtt_input.c.obj
 .bss           0x00000000        0x0 examples/light_switch/proxy_client/CMakeFiles/light_switch_proxy_client_nrf52832_xxAA_s132_6.0.0.dir/__/__/common/src/rtt_input.c.obj
 .text.rtt_input_disable
                0x00000000       0x28 examples/light_switch/proxy_client/CMakeFiles/light_switch_proxy_client_nrf52832_xxAA_s132_6.0.0.dir/__/__/common/src/rtt_input.c.obj
 .text          0x00000000        0x0 examples/light_switch/proxy_client/CMakeFiles/light_switch_proxy_client_nrf52832_xxAA_s132_6.0.0.dir/__/__/common/src/simple_hal.c.obj
 .data          0x00000000        0x0 examples/light_switch/proxy_client/CMakeFiles/light_switch_proxy_client_nrf52832_xxAA_s132_6.0.0.dir/__/__/common/src/simple_hal.c.obj
 .bss           0x00000000        0x0 examples/light_switch/proxy_client/CMakeFiles/light_switch_proxy_client_nrf52832_xxAA_s132_6.0.0.dir/__/__/common/src/simple_hal.c.obj
 .text          0x00000000        0x0 examples/light_switch/proxy_client/CMakeFiles/light_switch_proxy_client_nrf52832_xxAA_s132_6.0.0.dir/__/__/common/src/mesh_adv.c.obj
 .data          0x00000000        0x0 examples/light_switch/proxy_client/CMakeFiles/light_switch_proxy_client_nrf52832_xxAA_s132_6.0.0.dir/__/__/common/src/mesh_adv.c.obj
 .bss           0x00000000        0x0 examples/light_switch/proxy_client/CMakeFiles/light_switch_proxy_client_nrf52832_xxAA_s132_6.0.0.dir/__/__/common/src/mesh_adv.c.obj
 .text          0x00000000        0x0 examples/light_switch/proxy_client/CMakeFiles/light_switch_proxy_client_nrf52832_xxAA_s132_6.0.0.dir/__/__/__/mesh/prov/src/nrf_mesh_prov_bearer_gatt.c.obj
 .data          0x00000000        0x0 examples/light_switch/proxy_client/CMakeFiles/light_switch_proxy_client_nrf52832_xxAA_s132_6.0.0.dir/__/__/__/mesh/prov/src/nrf_mesh_prov_bearer_gatt.c.obj
 .bss           0x00000000        0x0 examples/light_switch/proxy_client/CMakeFiles/light_switch_proxy_client_nrf52832_xxAA_s132_6.0.0.dir/__/__/__/mesh/prov/src/nrf_mesh_prov_bearer_gatt.c.obj
 .text          0x00000000        0x0 examples/light_switch/proxy_client/CMakeFiles/light_switch_proxy_client_nrf52832_xxAA_s132_6.0.0.dir/C_/b/nRF5_SDK_15.0.0_a53641a/components/libraries/util/app_error.c.obj
 .data          0x00000000        0x0 examples/light_switch/proxy_client/CMakeFiles/light_switch_proxy_client_nrf52832_xxAA_s132_6.0.0.dir/C_/b/nRF5_SDK_15.0.0_a53641a/components/libraries/util/app_error.c.obj
 .bss           0x00000000        0x0 examples/light_switch/proxy_client/CMakeFiles/light_switch_proxy_client_nrf52832_xxAA_s132_6.0.0.dir/C_/b/nRF5_SDK_15.0.0_a53641a/components/libraries/util/app_error.c.obj
 .text.app_error_save_and_stop
                0x00000000       0x64 examples/light_switch/proxy_client/CMakeFiles/light_switch_proxy_client_nrf52832_xxAA_s132_6.0.0.dir/C_/b/nRF5_SDK_15.0.0_a53641a/components/libraries/util/app_error.c.obj
 .bss.m_error_data.7863
                0x00000000       0x20 examples/light_switch/proxy_client/CMakeFiles/light_switch_proxy_client_nrf52832_xxAA_s132_6.0.0.dir/C_/b/nRF5_SDK_15.0.0_a53641a/components/libraries/util/app_error.c.obj
 .text          0x00000000        0x0 examples/light_switch/proxy_client/CMakeFiles/light_switch_proxy_client_nrf52832_xxAA_s132_6.0.0.dir/C_/b/nRF5_SDK_15.0.0_a53641a/components/libraries/util/app_util_platform.c.obj
 .data          0x00000000        0x0 examples/light_switch/proxy_client/CMakeFiles/light_switch_proxy_client_nrf52832_xxAA_s132_6.0.0.dir/C_/b/nRF5_SDK_15.0.0_a53641a/components/libraries/util/app_util_platform.c.obj
 .bss           0x00000000        0x0 examples/light_switch/proxy_client/CMakeFiles/light_switch_proxy_client_nrf52832_xxAA_s132_6.0.0.dir/C_/b/nRF5_SDK_15.0.0_a53641a/components/libraries/util/app_util_platform.c.obj
 .text.app_util_disable_irq
                0x00000000       0x10 examples/light_switch/proxy_client/CMakeFiles/light_switch_proxy_client_nrf52832_xxAA_s132_6.0.0.dir/C_/b/nRF5_SDK_15.0.0_a53641a/components/libraries/util/app_util_platform.c.obj
 .text.app_util_enable_irq
                0x00000000       0x14 examples/light_switch/proxy_client/CMakeFiles/light_switch_proxy_client_nrf52832_xxAA_s132_6.0.0.dir/C_/b/nRF5_SDK_15.0.0_a53641a/components/libraries/util/app_util_platform.c.obj
 .text.privilege_level_get
                0x00000000       0x1c examples/light_switch/proxy_client/CMakeFiles/light_switch_proxy_client_nrf52832_xxAA_s132_6.0.0.dir/C_/b/nRF5_SDK_15.0.0_a53641a/components/libraries/util/app_util_platform.c.obj
 .text.current_int_priority_get
                0x00000000       0x3c examples/light_switch/proxy_client/CMakeFiles/light_switch_proxy_client_nrf52832_xxAA_s132_6.0.0.dir/C_/b/nRF5_SDK_15.0.0_a53641a/components/libraries/util/app_util_platform.c.obj
 .bss.m_in_critical_region
                0x00000000        0x4 examples/light_switch/proxy_client/CMakeFiles/light_switch_proxy_client_nrf52832_xxAA_s132_6.0.0.dir/C_/b/nRF5_SDK_15.0.0_a53641a/components/libraries/util/app_util_platform.c.obj
 .text          0x00000000        0x0 examples/light_switch/proxy_client/CMakeFiles/light_switch_proxy_client_nrf52832_xxAA_s132_6.0.0.dir/C_/b/nRF5_SDK_15.0.0_a53641a/components/ble/common/ble_advdata.c.obj
 .data          0x00000000        0x0 examples/light_switch/proxy_client/CMakeFiles/light_switch_proxy_client_nrf52832_xxAA_s132_6.0.0.dir/C_/b/nRF5_SDK_15.0.0_a53641a/components/ble/common/ble_advdata.c.obj
 .bss           0x00000000        0x0 examples/light_switch/proxy_client/CMakeFiles/light_switch_proxy_client_nrf52832_xxAA_s132_6.0.0.dir/C_/b/nRF5_SDK_15.0.0_a53641a/components/ble/common/ble_advdata.c.obj
 .text.ble_advdata_search
                0x00000000       0x40 examples/light_switch/proxy_client/CMakeFiles/light_switch_proxy_client_nrf52832_xxAA_s132_6.0.0.dir/C_/b/nRF5_SDK_15.0.0_a53641a/components/ble/common/ble_advdata.c.obj
 .text.ble_advdata_parse
                0x00000000       0x48 examples/light_switch/proxy_client/CMakeFiles/light_switch_proxy_client_nrf52832_xxAA_s132_6.0.0.dir/C_/b/nRF5_SDK_15.0.0_a53641a/components/ble/common/ble_advdata.c.obj
 .text.ble_advdata_name_find
                0x00000000       0x78 examples/light_switch/proxy_client/CMakeFiles/light_switch_proxy_client_nrf52832_xxAA_s132_6.0.0.dir/C_/b/nRF5_SDK_15.0.0_a53641a/components/ble/common/ble_advdata.c.obj
 .text.ble_advdata_short_name_find
                0x00000000       0x78 examples/light_switch/proxy_client/CMakeFiles/light_switch_proxy_client_nrf52832_xxAA_s132_6.0.0.dir/C_/b/nRF5_SDK_15.0.0_a53641a/components/ble/common/ble_advdata.c.obj
 .text.ble_advdata_uuid_find
                0x00000000       0xd4 examples/light_switch/proxy_client/CMakeFiles/light_switch_proxy_client_nrf52832_xxAA_s132_6.0.0.dir/C_/b/nRF5_SDK_15.0.0_a53641a/components/ble/common/ble_advdata.c.obj
 .text.ble_advdata_appearance_find
                0x00000000       0x68 examples/light_switch/proxy_client/CMakeFiles/light_switch_proxy_client_nrf52832_xxAA_s132_6.0.0.dir/C_/b/nRF5_SDK_15.0.0_a53641a/components/ble/common/ble_advdata.c.obj
 .text          0x00000000        0x0 examples/light_switch/proxy_client/CMakeFiles/light_switch_proxy_client_nrf52832_xxAA_s132_6.0.0.dir/C_/b/nRF5_SDK_15.0.0_a53641a/components/libraries/experimental_section_vars/nrf_section_iter.c.obj
 .data          0x00000000        0x0 examples/light_switch/proxy_client/CMakeFiles/light_switch_proxy_client_nrf52832_xxAA_s132_6.0.0.dir/C_/b/nRF5_SDK_15.0.0_a53641a/components/libraries/experimental_section_vars/nrf_section_iter.c.obj
 .bss           0x00000000        0x0 examples/light_switch/proxy_client/CMakeFiles/light_switch_proxy_client_nrf52832_xxAA_s132_6.0.0.dir/C_/b/nRF5_SDK_15.0.0_a53641a/components/libraries/experimental_section_vars/nrf_section_iter.c.obj
 .text          0x00000000        0x0 examples/light_switch/proxy_client/CMakeFiles/light_switch_proxy_client_nrf52832_xxAA_s132_6.0.0.dir/C_/b/nRF5_SDK_15.0.0_a53641a/components/softdevice/common/nrf_sdh.c.obj
 .data          0x00000000        0x0 examples/light_switch/proxy_client/CMakeFiles/light_switch_proxy_client_nrf52832_xxAA_s132_6.0.0.dir/C_/b/nRF5_SDK_15.0.0_a53641a/components/softdevice/common/nrf_sdh.c.obj
 .bss           0x00000000        0x0 examples/light_switch/proxy_client/CMakeFiles/light_switch_proxy_client_nrf52832_xxAA_s132_6.0.0.dir/C_/b/nRF5_SDK_15.0.0_a53641a/components/softdevice/common/nrf_sdh.c.obj
 .text.nrf_sdh_request_continue
                0x00000000       0x20 examples/light_switch/proxy_client/CMakeFiles/light_switch_proxy_client_nrf52832_xxAA_s132_6.0.0.dir/C_/b/nRF5_SDK_15.0.0_a53641a/components/softdevice/common/nrf_sdh.c.obj
 .text.nrf_sdh_is_enabled
                0x00000000        0xc examples/light_switch/proxy_client/CMakeFiles/light_switch_proxy_client_nrf52832_xxAA_s132_6.0.0.dir/C_/b/nRF5_SDK_15.0.0_a53641a/components/softdevice/common/nrf_sdh.c.obj
 .text.nrf_sdh_suspend
                0x00000000       0x38 examples/light_switch/proxy_client/CMakeFiles/light_switch_proxy_client_nrf52832_xxAA_s132_6.0.0.dir/C_/b/nRF5_SDK_15.0.0_a53641a/components/softdevice/common/nrf_sdh.c.obj
 .text.nrf_sdh_resume
                0x00000000       0x5c examples/light_switch/proxy_client/CMakeFiles/light_switch_proxy_client_nrf52832_xxAA_s132_6.0.0.dir/C_/b/nRF5_SDK_15.0.0_a53641a/components/softdevice/common/nrf_sdh.c.obj
 .text.nrf_sdh_is_suspended
                0x00000000       0x18 examples/light_switch/proxy_client/CMakeFiles/light_switch_proxy_client_nrf52832_xxAA_s132_6.0.0.dir/C_/b/nRF5_SDK_15.0.0_a53641a/components/softdevice/common/nrf_sdh.c.obj
 .text.nrf_sdh_evts_poll
                0x00000000       0x2c examples/light_switch/proxy_client/CMakeFiles/light_switch_proxy_client_nrf52832_xxAA_s132_6.0.0.dir/C_/b/nRF5_SDK_15.0.0_a53641a/components/softdevice/common/nrf_sdh.c.obj
 .text          0x00000000        0x0 examples/light_switch/proxy_client/CMakeFiles/light_switch_proxy_client_nrf52832_xxAA_s132_6.0.0.dir/C_/b/nRF5_SDK_15.0.0_a53641a/components/softdevice/common/nrf_sdh_soc.c.obj
 .data          0x00000000        0x0 examples/light_switch/proxy_client/CMakeFiles/light_switch_proxy_client_nrf52832_xxAA_s132_6.0.0.dir/C_/b/nRF5_SDK_15.0.0_a53641a/components/softdevice/common/nrf_sdh_soc.c.obj
 .bss           0x00000000        0x0 examples/light_switch/proxy_client/CMakeFiles/light_switch_proxy_client_nrf52832_xxAA_s132_6.0.0.dir/C_/b/nRF5_SDK_15.0.0_a53641a/components/softdevice/common/nrf_sdh_soc.c.obj
 .text          0x00000000        0x0 examples/light_switch/proxy_client/CMakeFiles/light_switch_proxy_client_nrf52832_xxAA_s132_6.0.0.dir/C_/b/nRF5_SDK_15.0.0_a53641a/components/softdevice/common/nrf_sdh_ble.c.obj
 .data          0x00000000        0x0 examples/light_switch/proxy_client/CMakeFiles/light_switch_proxy_client_nrf52832_xxAA_s132_6.0.0.dir/C_/b/nRF5_SDK_15.0.0_a53641a/components/softdevice/common/nrf_sdh_ble.c.obj
 .bss           0x00000000        0x0 examples/light_switch/proxy_client/CMakeFiles/light_switch_proxy_client_nrf52832_xxAA_s132_6.0.0.dir/C_/b/nRF5_SDK_15.0.0_a53641a/components/softdevice/common/nrf_sdh_ble.c.obj
 .text.nrf_sdh_ble_app_ram_start_get
                0x00000000       0x14 examples/light_switch/proxy_client/CMakeFiles/light_switch_proxy_client_nrf52832_xxAA_s132_6.0.0.dir/C_/b/nRF5_SDK_15.0.0_a53641a/components/softdevice/common/nrf_sdh_ble.c.obj
 .rodata.m_ram_start
                0x00000000        0x4 examples/light_switch/proxy_client/CMakeFiles/light_switch_proxy_client_nrf52832_xxAA_s132_6.0.0.dir/C_/b/nRF5_SDK_15.0.0_a53641a/components/softdevice/common/nrf_sdh_ble.c.obj
 .text          0x00000000        0x0 examples/light_switch/proxy_client/CMakeFiles/light_switch_proxy_client_nrf52832_xxAA_s132_6.0.0.dir/__/__/nrf_mesh_weak.c.obj
 .data          0x00000000        0x0 examples/light_switch/proxy_client/CMakeFiles/light_switch_proxy_client_nrf52832_xxAA_s132_6.0.0.dir/__/__/nrf_mesh_weak.c.obj
 .bss           0x00000000        0x0 examples/light_switch/proxy_client/CMakeFiles/light_switch_proxy_client_nrf52832_xxAA_s132_6.0.0.dir/__/__/nrf_mesh_weak.c.obj
 .text._weak_handler_ptr
                0x00000000        0x4 examples/light_switch/proxy_client/CMakeFiles/light_switch_proxy_client_nrf52832_xxAA_s132_6.0.0.dir/__/__/nrf_mesh_weak.c.obj
 .text          0x00000000        0x0 examples/light_switch/proxy_client/CMakeFiles/light_switch_proxy_client_nrf52832_xxAA_s132_6.0.0.dir/__/__/common/src/app_error_weak.c.obj
 .data          0x00000000        0x0 examples/light_switch/proxy_client/CMakeFiles/light_switch_proxy_client_nrf52832_xxAA_s132_6.0.0.dir/__/__/common/src/app_error_weak.c.obj
 .bss           0x00000000        0x0 examples/light_switch/proxy_client/CMakeFiles/light_switch_proxy_client_nrf52832_xxAA_s132_6.0.0.dir/__/__/common/src/app_error_weak.c.obj
 .text          0x00000000        0x0 examples/light_switch/proxy_client/CMakeFiles/light_switch_proxy_client_nrf52832_xxAA_s132_6.0.0.dir/__/__/common/src/assertion_handler_weak.c.obj
 .data          0x00000000        0x0 examples/light_switch/proxy_client/CMakeFiles/light_switch_proxy_client_nrf52832_xxAA_s132_6.0.0.dir/__/__/common/src/assertion_handler_weak.c.obj
 .bss           0x00000000        0x0 examples/light_switch/proxy_client/CMakeFiles/light_switch_proxy_client_nrf52832_xxAA_s132_6.0.0.dir/__/__/common/src/assertion_handler_weak.c.obj
 .text          0x00000000        0x0 examples/light_switch/proxy_client/CMakeFiles/light_switch_proxy_client_nrf52832_xxAA_s132_6.0.0.dir/__/__/__/mesh/core/src/internal_event.c.obj
 .data          0x00000000        0x0 examples/light_switch/proxy_client/CMakeFiles/light_switch_proxy_client_nrf52832_xxAA_s132_6.0.0.dir/__/__/__/mesh/core/src/internal_event.c.obj
 .bss           0x00000000        0x0 examples/light_switch/proxy_client/CMakeFiles/light_switch_proxy_client_nrf52832_xxAA_s132_6.0.0.dir/__/__/__/mesh/core/src/internal_event.c.obj
 .comment       0x00000000       0x80 examples/light_switch/proxy_client/CMakeFiles/light_switch_proxy_client_nrf52832_xxAA_s132_6.0.0.dir/__/__/__/mesh/core/src/internal_event.c.obj
 .ARM.attributes
                0x00000000       0x39 examples/light_switch/proxy_client/CMakeFiles/light_switch_proxy_client_nrf52832_xxAA_s132_6.0.0.dir/__/__/__/mesh/core/src/internal_event.c.obj
 .text          0x00000000        0x0 examples/light_switch/proxy_client/CMakeFiles/light_switch_proxy_client_nrf52832_xxAA_s132_6.0.0.dir/__/__/__/mesh/core/src/nrf_mesh_configure.c.obj
 .data          0x00000000        0x0 examples/light_switch/proxy_client/CMakeFiles/light_switch_proxy_client_nrf52832_xxAA_s132_6.0.0.dir/__/__/__/mesh/core/src/nrf_mesh_configure.c.obj
 .bss           0x00000000        0x0 examples/light_switch/proxy_client/CMakeFiles/light_switch_proxy_client_nrf52832_xxAA_s132_6.0.0.dir/__/__/__/mesh/core/src/nrf_mesh_configure.c.obj
 .text          0x00000000        0x0 examples/light_switch/proxy_client/CMakeFiles/light_switch_proxy_client_nrf52832_xxAA_s132_6.0.0.dir/__/__/__/mesh/core/src/aes.c.obj
 .data          0x00000000        0x0 examples/light_switch/proxy_client/CMakeFiles/light_switch_proxy_client_nrf52832_xxAA_s132_6.0.0.dir/__/__/__/mesh/core/src/aes.c.obj
 .bss           0x00000000        0x0 examples/light_switch/proxy_client/CMakeFiles/light_switch_proxy_client_nrf52832_xxAA_s132_6.0.0.dir/__/__/__/mesh/core/src/aes.c.obj
 .text          0x00000000        0x0 examples/light_switch/proxy_client/CMakeFiles/light_switch_proxy_client_nrf52832_xxAA_s132_6.0.0.dir/__/__/__/mesh/core/src/msg_cache.c.obj
 .data          0x00000000        0x0 examples/light_switch/proxy_client/CMakeFiles/light_switch_proxy_client_nrf52832_xxAA_s132_6.0.0.dir/__/__/__/mesh/core/src/msg_cache.c.obj
 .bss           0x00000000        0x0 examples/light_switch/proxy_client/CMakeFiles/light_switch_proxy_client_nrf52832_xxAA_s132_6.0.0.dir/__/__/__/mesh/core/src/msg_cache.c.obj
 .text.msg_cache_clear
                0x00000000       0x18 examples/light_switch/proxy_client/CMakeFiles/light_switch_proxy_client_nrf52832_xxAA_s132_6.0.0.dir/__/__/__/mesh/core/src/msg_cache.c.obj
 .text          0x00000000        0x0 examples/light_switch/proxy_client/CMakeFiles/light_switch_proxy_client_nrf52832_xxAA_s132_6.0.0.dir/__/__/__/mesh/core/src/transport.c.obj
 .data          0x00000000        0x0 examples/light_switch/proxy_client/CMakeFiles/light_switch_proxy_client_nrf52832_xxAA_s132_6.0.0.dir/__/__/__/mesh/core/src/transport.c.obj
 .bss           0x00000000        0x0 examples/light_switch/proxy_client/CMakeFiles/light_switch_proxy_client_nrf52832_xxAA_s132_6.0.0.dir/__/__/__/mesh/core/src/transport.c.obj
 .text.transport_sar_mem_funcs_reset
                0x00000000       0x30 examples/light_switch/proxy_client/CMakeFiles/light_switch_proxy_client_nrf52832_xxAA_s132_6.0.0.dir/__/__/__/mesh/core/src/transport.c.obj
 .text.transport_sar_mem_funcs_set
                0x00000000       0x48 examples/light_switch/proxy_client/CMakeFiles/light_switch_proxy_client_nrf52832_xxAA_s132_6.0.0.dir/__/__/__/mesh/core/src/transport.c.obj
 .text          0x00000000        0x0 examples/light_switch/proxy_client/CMakeFiles/light_switch_proxy_client_nrf52832_xxAA_s132_6.0.0.dir/__/__/__/mesh/core/src/event.c.obj
 .data          0x00000000        0x0 examples/light_switch/proxy_client/CMakeFiles/light_switch_proxy_client_nrf52832_xxAA_s132_6.0.0.dir/__/__/__/mesh/core/src/event.c.obj
 .bss           0x00000000        0x0 examples/light_switch/proxy_client/CMakeFiles/light_switch_proxy_client_nrf52832_xxAA_s132_6.0.0.dir/__/__/__/mesh/core/src/event.c.obj
 .text          0x00000000        0x0 examples/light_switch/proxy_client/CMakeFiles/light_switch_proxy_client_nrf52832_xxAA_s132_6.0.0.dir/__/__/__/mesh/core/src/packet_buffer.c.obj
 .data          0x00000000        0x0 examples/light_switch/proxy_client/CMakeFiles/light_switch_proxy_client_nrf52832_xxAA_s132_6.0.0.dir/__/__/__/mesh/core/src/packet_buffer.c.obj
 .bss           0x00000000        0x0 examples/light_switch/proxy_client/CMakeFiles/light_switch_proxy_client_nrf52832_xxAA_s132_6.0.0.dir/__/__/__/mesh/core/src/packet_buffer.c.obj
 .text.packet_buffer_max_packet_len_get
                0x00000000       0x24 examples/light_switch/proxy_client/CMakeFiles/light_switch_proxy_client_nrf52832_xxAA_s132_6.0.0.dir/__/__/__/mesh/core/src/packet_buffer.c.obj
 .text          0x00000000        0x0 examples/light_switch/proxy_client/CMakeFiles/light_switch_proxy_client_nrf52832_xxAA_s132_6.0.0.dir/__/__/__/mesh/core/src/flash_manager_defrag.c.obj
 .data          0x00000000        0x0 examples/light_switch/proxy_client/CMakeFiles/light_switch_proxy_client_nrf52832_xxAA_s132_6.0.0.dir/__/__/__/mesh/core/src/flash_manager_defrag.c.obj
 .bss           0x00000000        0x0 examples/light_switch/proxy_client/CMakeFiles/light_switch_proxy_client_nrf52832_xxAA_s132_6.0.0.dir/__/__/__/mesh/core/src/flash_manager_defrag.c.obj
 .text.erase_source
                0x00000000       0x34 examples/light_switch/proxy_client/CMakeFiles/light_switch_proxy_client_nrf52832_xxAA_s132_6.0.0.dir/__/__/__/mesh/core/src/flash_manager_defrag.c.obj
 .text.erase_recovery_area
                0x00000000       0x34 examples/light_switch/proxy_client/CMakeFiles/light_switch_proxy_client_nrf52832_xxAA_s132_6.0.0.dir/__/__/__/mesh/core/src/flash_manager_defrag.c.obj
 .text.write_back
                0x00000000       0x44 examples/light_switch/proxy_client/CMakeFiles/light_switch_proxy_client_nrf52832_xxAA_s132_6.0.0.dir/__/__/__/mesh/core/src/flash_manager_defrag.c.obj
 .text.write_defrag_start_pointer
                0x00000000       0x38 examples/light_switch/proxy_client/CMakeFiles/light_switch_proxy_client_nrf52832_xxAA_s132_6.0.0.dir/__/__/__/mesh/core/src/flash_manager_defrag.c.obj
 .text.copy_metadata
                0x00000000       0x58 examples/light_switch/proxy_client/CMakeFiles/light_switch_proxy_client_nrf52832_xxAA_s132_6.0.0.dir/__/__/__/mesh/core/src/flash_manager_defrag.c.obj
 .text.seal_storage_page
                0x00000000       0x70 examples/light_switch/proxy_client/CMakeFiles/light_switch_proxy_client_nrf52832_xxAA_s132_6.0.0.dir/__/__/__/mesh/core/src/flash_manager_defrag.c.obj
 .text.post_process
                0x00000000       0x64 examples/light_switch/proxy_client/CMakeFiles/light_switch_proxy_client_nrf52832_xxAA_s132_6.0.0.dir/__/__/__/mesh/core/src/flash_manager_defrag.c.obj
 .text.check_for_invalid_entries
                0x00000000       0x40 examples/light_switch/proxy_client/CMakeFiles/light_switch_proxy_client_nrf52832_xxAA_s132_6.0.0.dir/__/__/__/mesh/core/src/flash_manager_defrag.c.obj
 .text.execute_procedure_step
                0x00000000       0xa0 examples/light_switch/proxy_client/CMakeFiles/light_switch_proxy_client_nrf52832_xxAA_s132_6.0.0.dir/__/__/__/mesh/core/src/flash_manager_defrag.c.obj
 .text.on_flash_op_end
                0x00000000       0x4c examples/light_switch/proxy_client/CMakeFiles/light_switch_proxy_client_nrf52832_xxAA_s132_6.0.0.dir/__/__/__/mesh/core/src/flash_manager_defrag.c.obj
 .text.invalidate_duplicate_entries
                0x00000000      0x158 examples/light_switch/proxy_client/CMakeFiles/light_switch_proxy_client_nrf52832_xxAA_s132_6.0.0.dir/__/__/__/mesh/core/src/flash_manager_defrag.c.obj
 .text.backup_entries
                0x00000000      0x1c4 examples/light_switch/proxy_client/CMakeFiles/light_switch_proxy_client_nrf52832_xxAA_s132_6.0.0.dir/__/__/__/mesh/core/src/flash_manager_defrag.c.obj
 .text.flash_manager_defrag_init
                0x00000000       0x6c examples/light_switch/proxy_client/CMakeFiles/light_switch_proxy_client_nrf52832_xxAA_s132_6.0.0.dir/__/__/__/mesh/core/src/flash_manager_defrag.c.obj
 .text.flash_manager_defragging
                0x00000000       0x44 examples/light_switch/proxy_client/CMakeFiles/light_switch_proxy_client_nrf52832_xxAA_s132_6.0.0.dir/__/__/__/mesh/core/src/flash_manager_defrag.c.obj
 .text.flash_manager_defrag
                0x00000000       0x48 examples/light_switch/proxy_client/CMakeFiles/light_switch_proxy_client_nrf52832_xxAA_s132_6.0.0.dir/__/__/__/mesh/core/src/flash_manager_defrag.c.obj
 .text.flash_manager_defrag_recovery_page_get
                0x00000000        0xc examples/light_switch/proxy_client/CMakeFiles/light_switch_proxy_client_nrf52832_xxAA_s132_6.0.0.dir/__/__/__/mesh/core/src/flash_manager_defrag.c.obj
 .bss.m_token   0x00000000        0x2 examples/light_switch/proxy_client/CMakeFiles/light_switch_proxy_client_nrf52832_xxAA_s132_6.0.0.dir/__/__/__/mesh/core/src/flash_manager_defrag.c.obj
 .bss.mp_recovery_area
                0x00000000        0x4 examples/light_switch/proxy_client/CMakeFiles/light_switch_proxy_client_nrf52832_xxAA_s132_6.0.0.dir/__/__/__/mesh/core/src/flash_manager_defrag.c.obj
 .bss.p_null_ptr.10242
                0x00000000        0x4 examples/light_switch/proxy_client/CMakeFiles/light_switch_proxy_client_nrf52832_xxAA_s132_6.0.0.dir/__/__/__/mesh/core/src/flash_manager_defrag.c.obj
 .rodata.m_procedure_steps
                0x00000000       0x28 examples/light_switch/proxy_client/CMakeFiles/light_switch_proxy_client_nrf52832_xxAA_s132_6.0.0.dir/__/__/__/mesh/core/src/flash_manager_defrag.c.obj
 .text          0x00000000        0x0 examples/light_switch/proxy_client/CMakeFiles/light_switch_proxy_client_nrf52832_xxAA_s132_6.0.0.dir/__/__/__/mesh/core/src/fifo.c.obj
 .data          0x00000000        0x0 examples/light_switch/proxy_client/CMakeFiles/light_switch_proxy_client_nrf52832_xxAA_s132_6.0.0.dir/__/__/__/mesh/core/src/fifo.c.obj
 .bss           0x00000000        0x0 examples/light_switch/proxy_client/CMakeFiles/light_switch_proxy_client_nrf52832_xxAA_s132_6.0.0.dir/__/__/__/mesh/core/src/fifo.c.obj
 .text.fifo_peek_at
                0x00000000       0x54 examples/light_switch/proxy_client/CMakeFiles/light_switch_proxy_client_nrf52832_xxAA_s132_6.0.0.dir/__/__/__/mesh/core/src/fifo.c.obj
 .text.fifo_peek
                0x00000000       0x50 examples/light_switch/proxy_client/CMakeFiles/light_switch_proxy_client_nrf52832_xxAA_s132_6.0.0.dir/__/__/__/mesh/core/src/fifo.c.obj
 .text.fifo_flush
                0x00000000        0x8 examples/light_switch/proxy_client/CMakeFiles/light_switch_proxy_client_nrf52832_xxAA_s132_6.0.0.dir/__/__/__/mesh/core/src/fifo.c.obj
 .text.fifo_get_len
                0x00000000        0x8 examples/light_switch/proxy_client/CMakeFiles/light_switch_proxy_client_nrf52832_xxAA_s132_6.0.0.dir/__/__/__/mesh/core/src/fifo.c.obj
 .text.fifo_is_full
                0x00000000       0x14 examples/light_switch/proxy_client/CMakeFiles/light_switch_proxy_client_nrf52832_xxAA_s132_6.0.0.dir/__/__/__/mesh/core/src/fifo.c.obj
 .text.fifo_is_empty
                0x00000000       0x10 examples/light_switch/proxy_client/CMakeFiles/light_switch_proxy_client_nrf52832_xxAA_s132_6.0.0.dir/__/__/__/mesh/core/src/fifo.c.obj
 .text          0x00000000        0x0 examples/light_switch/proxy_client/CMakeFiles/light_switch_proxy_client_nrf52832_xxAA_s132_6.0.0.dir/__/__/__/mesh/core/src/nrf_flash.c.obj
 .data          0x00000000        0x0 examples/light_switch/proxy_client/CMakeFiles/light_switch_proxy_client_nrf52832_xxAA_s132_6.0.0.dir/__/__/__/mesh/core/src/nrf_flash.c.obj
 .bss           0x00000000        0x0 examples/light_switch/proxy_client/CMakeFiles/light_switch_proxy_client_nrf52832_xxAA_s132_6.0.0.dir/__/__/__/mesh/core/src/nrf_flash.c.obj
 .text.nrf_flash_erase
                0x00000000       0x5c examples/light_switch/proxy_client/CMakeFiles/light_switch_proxy_client_nrf52832_xxAA_s132_6.0.0.dir/__/__/__/mesh/core/src/nrf_flash.c.obj
 .text.nrf_flash_write
                0x00000000       0x6c examples/light_switch/proxy_client/CMakeFiles/light_switch_proxy_client_nrf52832_xxAA_s132_6.0.0.dir/__/__/__/mesh/core/src/nrf_flash.c.obj
 .comment       0x00000000       0x80 examples/light_switch/proxy_client/CMakeFiles/light_switch_proxy_client_nrf52832_xxAA_s132_6.0.0.dir/__/__/__/mesh/core/src/nrf_flash.c.obj
 .ARM.attributes
                0x00000000       0x39 examples/light_switch/proxy_client/CMakeFiles/light_switch_proxy_client_nrf52832_xxAA_s132_6.0.0.dir/__/__/__/mesh/core/src/nrf_flash.c.obj
 .text          0x00000000        0x0 examples/light_switch/proxy_client/CMakeFiles/light_switch_proxy_client_nrf52832_xxAA_s132_6.0.0.dir/__/__/__/mesh/core/src/packet_mgr.c.obj
 .data          0x00000000        0x0 examples/light_switch/proxy_client/CMakeFiles/light_switch_proxy_client_nrf52832_xxAA_s132_6.0.0.dir/__/__/__/mesh/core/src/packet_mgr.c.obj
 .bss           0x00000000        0x0 examples/light_switch/proxy_client/CMakeFiles/light_switch_proxy_client_nrf52832_xxAA_s132_6.0.0.dir/__/__/__/mesh/core/src/packet_mgr.c.obj
 .text.packet_mgr_alloc
                0x00000000      0x1a0 examples/light_switch/proxy_client/CMakeFiles/light_switch_proxy_client_nrf52832_xxAA_s132_6.0.0.dir/__/__/__/mesh/core/src/packet_mgr.c.obj
 .text.packet_mgr_free
                0x00000000       0x5c examples/light_switch/proxy_client/CMakeFiles/light_switch_proxy_client_nrf52832_xxAA_s132_6.0.0.dir/__/__/__/mesh/core/src/packet_mgr.c.obj
 .text.packet_mgr_get_free_space
                0x00000000       0x1c examples/light_switch/proxy_client/CMakeFiles/light_switch_proxy_client_nrf52832_xxAA_s132_6.0.0.dir/__/__/__/mesh/core/src/packet_mgr.c.obj
 .text.packet_mgr_refcount_get
                0x00000000        0x8 examples/light_switch/proxy_client/CMakeFiles/light_switch_proxy_client_nrf52832_xxAA_s132_6.0.0.dir/__/__/__/mesh/core/src/packet_mgr.c.obj
 .text.packet_mgr_size_get
                0x00000000        0x8 examples/light_switch/proxy_client/CMakeFiles/light_switch_proxy_client_nrf52832_xxAA_s132_6.0.0.dir/__/__/__/mesh/core/src/packet_mgr.c.obj
 .text          0x00000000        0x0 examples/light_switch/proxy_client/CMakeFiles/light_switch_proxy_client_nrf52832_xxAA_s132_6.0.0.dir/__/__/__/mesh/core/src/net_state.c.obj
 .data          0x00000000        0x0 examples/light_switch/proxy_client/CMakeFiles/light_switch_proxy_client_nrf52832_xxAA_s132_6.0.0.dir/__/__/__/mesh/core/src/net_state.c.obj
 .bss           0x00000000        0x0 examples/light_switch/proxy_client/CMakeFiles/light_switch_proxy_client_nrf52832_xxAA_s132_6.0.0.dir/__/__/__/mesh/core/src/net_state.c.obj
 .text.net_state_flash_area_get
                0x00000000        0x4 examples/light_switch/proxy_client/CMakeFiles/light_switch_proxy_client_nrf52832_xxAA_s132_6.0.0.dir/__/__/__/mesh/core/src/net_state.c.obj
 .text.net_state_iv_update_start
                0x00000000       0x60 examples/light_switch/proxy_client/CMakeFiles/light_switch_proxy_client_nrf52832_xxAA_s132_6.0.0.dir/__/__/__/mesh/core/src/net_state.c.obj
 .text.net_state_iv_update_test_mode_set
                0x00000000        0xc examples/light_switch/proxy_client/CMakeFiles/light_switch_proxy_client_nrf52832_xxAA_s132_6.0.0.dir/__/__/__/mesh/core/src/net_state.c.obj
 .text.net_state_test_mode_transition_run
                0x00000000       0xe0 examples/light_switch/proxy_client/CMakeFiles/light_switch_proxy_client_nrf52832_xxAA_s132_6.0.0.dir/__/__/__/mesh/core/src/net_state.c.obj
 .text          0x00000000        0x0 examples/light_switch/proxy_client/CMakeFiles/light_switch_proxy_client_nrf52832_xxAA_s132_6.0.0.dir/__/__/__/mesh/core/src/mesh_flash.c.obj
 .data          0x00000000        0x0 examples/light_switch/proxy_client/CMakeFiles/light_switch_proxy_client_nrf52832_xxAA_s132_6.0.0.dir/__/__/__/mesh/core/src/mesh_flash.c.obj
 .bss           0x00000000        0x0 examples/light_switch/proxy_client/CMakeFiles/light_switch_proxy_client_nrf52832_xxAA_s132_6.0.0.dir/__/__/__/mesh/core/src/mesh_flash.c.obj
 .text.flash_op_start
                0x00000000      0x224 examples/light_switch/proxy_client/CMakeFiles/light_switch_proxy_client_nrf52832_xxAA_s132_6.0.0.dir/__/__/__/mesh/core/src/mesh_flash.c.obj
 .text.mesh_flash_user_callback_set
                0x00000000       0x20 examples/light_switch/proxy_client/CMakeFiles/light_switch_proxy_client_nrf52832_xxAA_s132_6.0.0.dir/__/__/__/mesh/core/src/mesh_flash.c.obj
 .text.mesh_flash_op_push
                0x00000000      0x1a0 examples/light_switch/proxy_client/CMakeFiles/light_switch_proxy_client_nrf52832_xxAA_s132_6.0.0.dir/__/__/__/mesh/core/src/mesh_flash.c.obj
 .text.mesh_flash_op_available_slots
                0x00000000       0x2c examples/light_switch/proxy_client/CMakeFiles/light_switch_proxy_client_nrf52832_xxAA_s132_6.0.0.dir/__/__/__/mesh/core/src/mesh_flash.c.obj
 .text.mesh_flash_in_progress
                0x00000000       0x34 examples/light_switch/proxy_client/CMakeFiles/light_switch_proxy_client_nrf52832_xxAA_s132_6.0.0.dir/__/__/__/mesh/core/src/mesh_flash.c.obj
 .text.mesh_flash_set_suspended
                0x00000000      0x228 examples/light_switch/proxy_client/CMakeFiles/light_switch_proxy_client_nrf52832_xxAA_s132_6.0.0.dir/__/__/__/mesh/core/src/mesh_flash.c.obj
 .bss.m_suspended
                0x00000000        0x1 examples/light_switch/proxy_client/CMakeFiles/light_switch_proxy_client_nrf52832_xxAA_s132_6.0.0.dir/__/__/__/mesh/core/src/mesh_flash.c.obj
 .bss.suspend_count.10124
                0x00000000        0x4 examples/light_switch/proxy_client/CMakeFiles/light_switch_proxy_client_nrf52832_xxAA_s132_6.0.0.dir/__/__/__/mesh/core/src/mesh_flash.c.obj
 .text          0x00000000        0x0 examples/light_switch/proxy_client/CMakeFiles/light_switch_proxy_client_nrf52832_xxAA_s132_6.0.0.dir/__/__/__/mesh/core/src/nrf_mesh_utils.c.obj
 .data          0x00000000        0x0 examples/light_switch/proxy_client/CMakeFiles/light_switch_proxy_client_nrf52832_xxAA_s132_6.0.0.dir/__/__/__/mesh/core/src/nrf_mesh_utils.c.obj
 .bss           0x00000000        0x0 examples/light_switch/proxy_client/CMakeFiles/light_switch_proxy_client_nrf52832_xxAA_s132_6.0.0.dir/__/__/__/mesh/core/src/nrf_mesh_utils.c.obj
 .text.nrf_mesh_rand_get
                0x00000000       0x10 examples/light_switch/proxy_client/CMakeFiles/light_switch_proxy_client_nrf52832_xxAA_s132_6.0.0.dir/__/__/__/mesh/core/src/nrf_mesh_utils.c.obj
 .text.nrf_mesh_gap_address_type_get
                0x00000000       0x34 examples/light_switch/proxy_client/CMakeFiles/light_switch_proxy_client_nrf52832_xxAA_s132_6.0.0.dir/__/__/__/mesh/core/src/nrf_mesh_utils.c.obj
 .text          0x00000000        0x0 examples/light_switch/proxy_client/CMakeFiles/light_switch_proxy_client_nrf52832_xxAA_s132_6.0.0.dir/__/__/__/mesh/core/src/nrf_mesh.c.obj
 .data          0x00000000        0x0 examples/light_switch/proxy_client/CMakeFiles/light_switch_proxy_client_nrf52832_xxAA_s132_6.0.0.dir/__/__/__/mesh/core/src/nrf_mesh.c.obj
 .bss           0x00000000        0x0 examples/light_switch/proxy_client/CMakeFiles/light_switch_proxy_client_nrf52832_xxAA_s132_6.0.0.dir/__/__/__/mesh/core/src/nrf_mesh.c.obj
 .text.nrf_mesh_process
                0x00000000        0x4 examples/light_switch/proxy_client/CMakeFiles/light_switch_proxy_client_nrf52832_xxAA_s132_6.0.0.dir/__/__/__/mesh/core/src/nrf_mesh.c.obj
 .text.nrf_mesh_evt_handler_remove
                0x00000000        0x4 examples/light_switch/proxy_client/CMakeFiles/light_switch_proxy_client_nrf52832_xxAA_s132_6.0.0.dir/__/__/__/mesh/core/src/nrf_mesh.c.obj
 .text.nrf_mesh_rx_cb_set
                0x00000000        0xc examples/light_switch/proxy_client/CMakeFiles/light_switch_proxy_client_nrf52832_xxAA_s132_6.0.0.dir/__/__/__/mesh/core/src/nrf_mesh.c.obj
 .text.nrf_mesh_rx_cb_clear
                0x00000000        0xc examples/light_switch/proxy_client/CMakeFiles/light_switch_proxy_client_nrf52832_xxAA_s132_6.0.0.dir/__/__/__/mesh/core/src/nrf_mesh.c.obj
 .text          0x00000000        0x0 examples/light_switch/proxy_client/CMakeFiles/light_switch_proxy_client_nrf52832_xxAA_s132_6.0.0.dir/__/__/__/mesh/core/src/queue.c.obj
 .data          0x00000000        0x0 examples/light_switch/proxy_client/CMakeFiles/light_switch_proxy_client_nrf52832_xxAA_s132_6.0.0.dir/__/__/__/mesh/core/src/queue.c.obj
 .bss           0x00000000        0x0 examples/light_switch/proxy_client/CMakeFiles/light_switch_proxy_client_nrf52832_xxAA_s132_6.0.0.dir/__/__/__/mesh/core/src/queue.c.obj
 .text          0x00000000        0x0 examples/light_switch/proxy_client/CMakeFiles/light_switch_proxy_client_nrf52832_xxAA_s132_6.0.0.dir/__/__/__/mesh/core/src/hal.c.obj
 .data          0x00000000        0x0 examples/light_switch/proxy_client/CMakeFiles/light_switch_proxy_client_nrf52832_xxAA_s132_6.0.0.dir/__/__/__/mesh/core/src/hal.c.obj
 .bss           0x00000000        0x0 examples/light_switch/proxy_client/CMakeFiles/light_switch_proxy_client_nrf52832_xxAA_s132_6.0.0.dir/__/__/__/mesh/core/src/hal.c.obj
 .text          0x00000000        0x0 examples/light_switch/proxy_client/CMakeFiles/light_switch_proxy_client_nrf52832_xxAA_s132_6.0.0.dir/__/__/__/mesh/core/src/aes_cmac.c.obj
 .data          0x00000000        0x0 examples/light_switch/proxy_client/CMakeFiles/light_switch_proxy_client_nrf52832_xxAA_s132_6.0.0.dir/__/__/__/mesh/core/src/aes_cmac.c.obj
 .bss           0x00000000        0x0 examples/light_switch/proxy_client/CMakeFiles/light_switch_proxy_client_nrf52832_xxAA_s132_6.0.0.dir/__/__/__/mesh/core/src/aes_cmac.c.obj
 .text          0x00000000        0x0 examples/light_switch/proxy_client/CMakeFiles/light_switch_proxy_client_nrf52832_xxAA_s132_6.0.0.dir/__/__/__/mesh/core/src/timer_scheduler.c.obj
 .data          0x00000000        0x0 examples/light_switch/proxy_client/CMakeFiles/light_switch_proxy_client_nrf52832_xxAA_s132_6.0.0.dir/__/__/__/mesh/core/src/timer_scheduler.c.obj
 .bss           0x00000000        0x0 examples/light_switch/proxy_client/CMakeFiles/light_switch_proxy_client_nrf52832_xxAA_s132_6.0.0.dir/__/__/__/mesh/core/src/timer_scheduler.c.obj
 .text          0x00000000        0x0 examples/light_switch/proxy_client/CMakeFiles/light_switch_proxy_client_nrf52832_xxAA_s132_6.0.0.dir/__/__/__/mesh/core/src/timer.c.obj
 .data          0x00000000        0x0 examples/light_switch/proxy_client/CMakeFiles/light_switch_proxy_client_nrf52832_xxAA_s132_6.0.0.dir/__/__/__/mesh/core/src/timer.c.obj
 .bss           0x00000000        0x0 examples/light_switch/proxy_client/CMakeFiles/light_switch_proxy_client_nrf52832_xxAA_s132_6.0.0.dir/__/__/__/mesh/core/src/timer.c.obj
 .text.timer_order_cb_ppi
                0x00000000       0xd8 examples/light_switch/proxy_client/CMakeFiles/light_switch_proxy_client_nrf52832_xxAA_s132_6.0.0.dir/__/__/__/mesh/core/src/timer.c.obj
 .text.timer_order_ppi
                0x00000000       0xc8 examples/light_switch/proxy_client/CMakeFiles/light_switch_proxy_client_nrf52832_xxAA_s132_6.0.0.dir/__/__/__/mesh/core/src/timer.c.obj
 .text.timer_abort
                0x00000000       0x84 examples/light_switch/proxy_client/CMakeFiles/light_switch_proxy_client_nrf52832_xxAA_s132_6.0.0.dir/__/__/__/mesh/core/src/timer.c.obj
 .text          0x00000000        0x0 examples/light_switch/proxy_client/CMakeFiles/light_switch_proxy_client_nrf52832_xxAA_s132_6.0.0.dir/__/__/__/mesh/core/src/ticker.c.obj
 .data          0x00000000        0x0 examples/light_switch/proxy_client/CMakeFiles/light_switch_proxy_client_nrf52832_xxAA_s132_6.0.0.dir/__/__/__/mesh/core/src/ticker.c.obj
 .bss           0x00000000        0x0 examples/light_switch/proxy_client/CMakeFiles/light_switch_proxy_client_nrf52832_xxAA_s132_6.0.0.dir/__/__/__/mesh/core/src/ticker.c.obj
 .text.ticker_get
                0x00000000        0xc examples/light_switch/proxy_client/CMakeFiles/light_switch_proxy_client_nrf52832_xxAA_s132_6.0.0.dir/__/__/__/mesh/core/src/ticker.c.obj
 .text          0x00000000        0x0 examples/light_switch/proxy_client/CMakeFiles/light_switch_proxy_client_nrf52832_xxAA_s132_6.0.0.dir/__/__/__/mesh/core/src/rand.c.obj
 .data          0x00000000        0x0 examples/light_switch/proxy_client/CMakeFiles/light_switch_proxy_client_nrf52832_xxAA_s132_6.0.0.dir/__/__/__/mesh/core/src/rand.c.obj
 .bss           0x00000000        0x0 examples/light_switch/proxy_client/CMakeFiles/light_switch_proxy_client_nrf52832_xxAA_s132_6.0.0.dir/__/__/__/mesh/core/src/rand.c.obj
 .text          0x00000000        0x0 examples/light_switch/proxy_client/CMakeFiles/light_switch_proxy_client_nrf52832_xxAA_s132_6.0.0.dir/__/__/__/mesh/core/src/nrf_mesh_opt.c.obj
 .data          0x00000000        0x0 examples/light_switch/proxy_client/CMakeFiles/light_switch_proxy_client_nrf52832_xxAA_s132_6.0.0.dir/__/__/__/mesh/core/src/nrf_mesh_opt.c.obj
 .bss           0x00000000        0x0 examples/light_switch/proxy_client/CMakeFiles/light_switch_proxy_client_nrf52832_xxAA_s132_6.0.0.dir/__/__/__/mesh/core/src/nrf_mesh_opt.c.obj
 .text          0x00000000        0x0 examples/light_switch/proxy_client/CMakeFiles/light_switch_proxy_client_nrf52832_xxAA_s132_6.0.0.dir/__/__/__/mesh/core/src/timeslot.c.obj
 .data          0x00000000        0x0 examples/light_switch/proxy_client/CMakeFiles/light_switch_proxy_client_nrf52832_xxAA_s132_6.0.0.dir/__/__/__/mesh/core/src/timeslot.c.obj
 .bss           0x00000000        0x0 examples/light_switch/proxy_client/CMakeFiles/light_switch_proxy_client_nrf52832_xxAA_s132_6.0.0.dir/__/__/__/mesh/core/src/timeslot.c.obj
 .text.timeslot_restart
                0x00000000       0x30 examples/light_switch/proxy_client/CMakeFiles/light_switch_proxy_client_nrf52832_xxAA_s132_6.0.0.dir/__/__/__/mesh/core/src/timeslot.c.obj
 .text.timeslot_end_time_get
                0x00000000       0x30 examples/light_switch/proxy_client/CMakeFiles/light_switch_proxy_client_nrf52832_xxAA_s132_6.0.0.dir/__/__/__/mesh/core/src/timeslot.c.obj
 .text.timeslot_is_in_ts
                0x00000000        0xc examples/light_switch/proxy_client/CMakeFiles/light_switch_proxy_client_nrf52832_xxAA_s132_6.0.0.dir/__/__/__/mesh/core/src/timeslot.c.obj
 .text          0x00000000        0x0 examples/light_switch/proxy_client/CMakeFiles/light_switch_proxy_client_nrf52832_xxAA_s132_6.0.0.dir/__/__/__/mesh/core/src/bearer_event.c.obj
 .data          0x00000000        0x0 examples/light_switch/proxy_client/CMakeFiles/light_switch_proxy_client_nrf52832_xxAA_s132_6.0.0.dir/__/__/__/mesh/core/src/bearer_event.c.obj
 .bss           0x00000000        0x0 examples/light_switch/proxy_client/CMakeFiles/light_switch_proxy_client_nrf52832_xxAA_s132_6.0.0.dir/__/__/__/mesh/core/src/bearer_event.c.obj
 .text.bearer_event_generic_post
                0x00000000       0x50 examples/light_switch/proxy_client/CMakeFiles/light_switch_proxy_client_nrf52832_xxAA_s132_6.0.0.dir/__/__/__/mesh/core/src/bearer_event.c.obj
 .text.bearer_event_timer_sch_post
                0x00000000       0x54 examples/light_switch/proxy_client/CMakeFiles/light_switch_proxy_client_nrf52832_xxAA_s132_6.0.0.dir/__/__/__/mesh/core/src/bearer_event.c.obj
 .text.bearer_event_in_correct_irq_priority
                0x00000000       0x54 examples/light_switch/proxy_client/CMakeFiles/light_switch_proxy_client_nrf52832_xxAA_s132_6.0.0.dir/__/__/__/mesh/core/src/bearer_event.c.obj
 .text          0x00000000        0x0 examples/light_switch/proxy_client/CMakeFiles/light_switch_proxy_client_nrf52832_xxAA_s132_6.0.0.dir/__/__/__/mesh/core/src/enc.c.obj
 .data          0x00000000        0x0 examples/light_switch/proxy_client/CMakeFiles/light_switch_proxy_client_nrf52832_xxAA_s132_6.0.0.dir/__/__/__/mesh/core/src/enc.c.obj
 .bss           0x00000000        0x0 examples/light_switch/proxy_client/CMakeFiles/light_switch_proxy_client_nrf52832_xxAA_s132_6.0.0.dir/__/__/__/mesh/core/src/enc.c.obj
 .text.enc_key_generate
                0x00000000        0x8 examples/light_switch/proxy_client/CMakeFiles/light_switch_proxy_client_nrf52832_xxAA_s132_6.0.0.dir/__/__/__/mesh/core/src/enc.c.obj
 .text          0x00000000        0x0 examples/light_switch/proxy_client/CMakeFiles/light_switch_proxy_client_nrf52832_xxAA_s132_6.0.0.dir/__/__/__/mesh/core/src/network.c.obj
 .data          0x00000000        0x0 examples/light_switch/proxy_client/CMakeFiles/light_switch_proxy_client_nrf52832_xxAA_s132_6.0.0.dir/__/__/__/mesh/core/src/network.c.obj
 .bss           0x00000000        0x0 examples/light_switch/proxy_client/CMakeFiles/light_switch_proxy_client_nrf52832_xxAA_s132_6.0.0.dir/__/__/__/mesh/core/src/network.c.obj
 .text.network_packet_discard
                0x00000000       0x28 examples/light_switch/proxy_client/CMakeFiles/light_switch_proxy_client_nrf52832_xxAA_s132_6.0.0.dir/__/__/__/mesh/core/src/network.c.obj
 .text          0x00000000        0x0 examples/light_switch/proxy_client/CMakeFiles/light_switch_proxy_client_nrf52832_xxAA_s132_6.0.0.dir/__/__/__/mesh/core/src/net_packet.c.obj
 .data          0x00000000        0x0 examples/light_switch/proxy_client/CMakeFiles/light_switch_proxy_client_nrf52832_xxAA_s132_6.0.0.dir/__/__/__/mesh/core/src/net_packet.c.obj
 .bss           0x00000000        0x0 examples/light_switch/proxy_client/CMakeFiles/light_switch_proxy_client_nrf52832_xxAA_s132_6.0.0.dir/__/__/__/mesh/core/src/net_packet.c.obj
 .text.net_packet_enc_start_get
                0x00000000        0x4 examples/light_switch/proxy_client/CMakeFiles/light_switch_proxy_client_nrf52832_xxAA_s132_6.0.0.dir/__/__/__/mesh/core/src/net_packet.c.obj
 .text          0x00000000        0x0 examples/light_switch/proxy_client/CMakeFiles/light_switch_proxy_client_nrf52832_xxAA_s132_6.0.0.dir/__/__/__/mesh/core/src/msqueue.c.obj
 .data          0x00000000        0x0 examples/light_switch/proxy_client/CMakeFiles/light_switch_proxy_client_nrf52832_xxAA_s132_6.0.0.dir/__/__/__/mesh/core/src/msqueue.c.obj
 .bss           0x00000000        0x0 examples/light_switch/proxy_client/CMakeFiles/light_switch_proxy_client_nrf52832_xxAA_s132_6.0.0.dir/__/__/__/mesh/core/src/msqueue.c.obj
 .text.msq_reset
                0x00000000       0x24 examples/light_switch/proxy_client/CMakeFiles/light_switch_proxy_client_nrf52832_xxAA_s132_6.0.0.dir/__/__/__/mesh/core/src/msqueue.c.obj
 .text          0x00000000        0x0 examples/light_switch/proxy_client/CMakeFiles/light_switch_proxy_client_nrf52832_xxAA_s132_6.0.0.dir/__/__/__/mesh/core/src/nrf_mesh_keygen.c.obj
 .data          0x00000000        0x0 examples/light_switch/proxy_client/CMakeFiles/light_switch_proxy_client_nrf52832_xxAA_s132_6.0.0.dir/__/__/__/mesh/core/src/nrf_mesh_keygen.c.obj
 .bss           0x00000000        0x0 examples/light_switch/proxy_client/CMakeFiles/light_switch_proxy_client_nrf52832_xxAA_s132_6.0.0.dir/__/__/__/mesh/core/src/nrf_mesh_keygen.c.obj
 .text          0x00000000        0x0 examples/light_switch/proxy_client/CMakeFiles/light_switch_proxy_client_nrf52832_xxAA_s132_6.0.0.dir/__/__/__/mesh/core/src/cache.c.obj
 .data          0x00000000        0x0 examples/light_switch/proxy_client/CMakeFiles/light_switch_proxy_client_nrf52832_xxAA_s132_6.0.0.dir/__/__/__/mesh/core/src/cache.c.obj
 .bss           0x00000000        0x0 examples/light_switch/proxy_client/CMakeFiles/light_switch_proxy_client_nrf52832_xxAA_s132_6.0.0.dir/__/__/__/mesh/core/src/cache.c.obj
 .text.cache_erase_elem
                0x00000000       0x80 examples/light_switch/proxy_client/CMakeFiles/light_switch_proxy_client_nrf52832_xxAA_s132_6.0.0.dir/__/__/__/mesh/core/src/cache.c.obj
 .text          0x00000000        0x0 examples/light_switch/proxy_client/CMakeFiles/light_switch_proxy_client_nrf52832_xxAA_s132_6.0.0.dir/__/__/__/mesh/core/src/uri.c.obj
 .data          0x00000000        0x0 examples/light_switch/proxy_client/CMakeFiles/light_switch_proxy_client_nrf52832_xxAA_s132_6.0.0.dir/__/__/__/mesh/core/src/uri.c.obj
 .bss           0x00000000        0x0 examples/light_switch/proxy_client/CMakeFiles/light_switch_proxy_client_nrf52832_xxAA_s132_6.0.0.dir/__/__/__/mesh/core/src/uri.c.obj
 .text.uri_data_generate
                0x00000000       0x88 examples/light_switch/proxy_client/CMakeFiles/light_switch_proxy_client_nrf52832_xxAA_s132_6.0.0.dir/__/__/__/mesh/core/src/uri.c.obj
 .text.uri_data_parse
                0x00000000       0x80 examples/light_switch/proxy_client/CMakeFiles/light_switch_proxy_client_nrf52832_xxAA_s132_6.0.0.dir/__/__/__/mesh/core/src/uri.c.obj
 .text.uri_scheme_name_code_point
                0x00000000       0x5c examples/light_switch/proxy_client/CMakeFiles/light_switch_proxy_client_nrf52832_xxAA_s132_6.0.0.dir/__/__/__/mesh/core/src/uri.c.obj
 .text.uri_scheme_name_string
                0x00000000       0x14 examples/light_switch/proxy_client/CMakeFiles/light_switch_proxy_client_nrf52832_xxAA_s132_6.0.0.dir/__/__/__/mesh/core/src/uri.c.obj
 .rodata.m_code_point_strings
                0x00000000      0x2ec examples/light_switch/proxy_client/CMakeFiles/light_switch_proxy_client_nrf52832_xxAA_s132_6.0.0.dir/__/__/__/mesh/core/src/uri.c.obj
 .rodata.str1.4
                0x00000000      0x6ba examples/light_switch/proxy_client/CMakeFiles/light_switch_proxy_client_nrf52832_xxAA_s132_6.0.0.dir/__/__/__/mesh/core/src/uri.c.obj
 .comment       0x00000000       0x80 examples/light_switch/proxy_client/CMakeFiles/light_switch_proxy_client_nrf52832_xxAA_s132_6.0.0.dir/__/__/__/mesh/core/src/uri.c.obj
 .ARM.attributes
                0x00000000       0x39 examples/light_switch/proxy_client/CMakeFiles/light_switch_proxy_client_nrf52832_xxAA_s132_6.0.0.dir/__/__/__/mesh/core/src/uri.c.obj
 .text          0x00000000        0x0 examples/light_switch/proxy_client/CMakeFiles/light_switch_proxy_client_nrf52832_xxAA_s132_6.0.0.dir/__/__/__/mesh/core/src/list.c.obj
 .data          0x00000000        0x0 examples/light_switch/proxy_client/CMakeFiles/light_switch_proxy_client_nrf52832_xxAA_s132_6.0.0.dir/__/__/__/mesh/core/src/list.c.obj
 .bss           0x00000000        0x0 examples/light_switch/proxy_client/CMakeFiles/light_switch_proxy_client_nrf52832_xxAA_s132_6.0.0.dir/__/__/__/mesh/core/src/list.c.obj
 .text.list_size_get
                0x00000000       0x14 examples/light_switch/proxy_client/CMakeFiles/light_switch_proxy_client_nrf52832_xxAA_s132_6.0.0.dir/__/__/__/mesh/core/src/list.c.obj
 .text.list_sorted_add
                0x00000000       0x8c examples/light_switch/proxy_client/CMakeFiles/light_switch_proxy_client_nrf52832_xxAA_s132_6.0.0.dir/__/__/__/mesh/core/src/list.c.obj
 .text          0x00000000        0x0 examples/light_switch/proxy_client/CMakeFiles/light_switch_proxy_client_nrf52832_xxAA_s132_6.0.0.dir/__/__/__/mesh/core/src/log.c.obj
 .data          0x00000000        0x0 examples/light_switch/proxy_client/CMakeFiles/light_switch_proxy_client_nrf52832_xxAA_s132_6.0.0.dir/__/__/__/mesh/core/src/log.c.obj
 .bss           0x00000000        0x0 examples/light_switch/proxy_client/CMakeFiles/light_switch_proxy_client_nrf52832_xxAA_s132_6.0.0.dir/__/__/__/mesh/core/src/log.c.obj
 .text.log_callback_logview
                0x00000000       0x38 examples/light_switch/proxy_client/CMakeFiles/light_switch_proxy_client_nrf52832_xxAA_s132_6.0.0.dir/__/__/__/mesh/core/src/log.c.obj
 .text.log_set_callback
                0x00000000        0xc examples/light_switch/proxy_client/CMakeFiles/light_switch_proxy_client_nrf52832_xxAA_s132_6.0.0.dir/__/__/__/mesh/core/src/log.c.obj
 .text.log_vprintf
                0x00000000       0x18 examples/light_switch/proxy_client/CMakeFiles/light_switch_proxy_client_nrf52832_xxAA_s132_6.0.0.dir/__/__/__/mesh/core/src/log.c.obj
 .rodata.log_callback_logview.str1.4
                0x00000000       0x12 examples/light_switch/proxy_client/CMakeFiles/light_switch_proxy_client_nrf52832_xxAA_s132_6.0.0.dir/__/__/__/mesh/core/src/log.c.obj
 .text          0x00000000        0x0 examples/light_switch/proxy_client/CMakeFiles/light_switch_proxy_client_nrf52832_xxAA_s132_6.0.0.dir/__/__/__/mesh/core/src/flash_manager.c.obj
 .data          0x00000000        0x0 examples/light_switch/proxy_client/CMakeFiles/light_switch_proxy_client_nrf52832_xxAA_s132_6.0.0.dir/__/__/__/mesh/core/src/flash_manager.c.obj
 .bss           0x00000000        0x0 examples/light_switch/proxy_client/CMakeFiles/light_switch_proxy_client_nrf52832_xxAA_s132_6.0.0.dir/__/__/__/mesh/core/src/flash_manager.c.obj
 .text.process_action_queue
                0x00000000      0x644 examples/light_switch/proxy_client/CMakeFiles/light_switch_proxy_client_nrf52832_xxAA_s132_6.0.0.dir/__/__/__/mesh/core/src/flash_manager.c.obj
 .text.flash_op_ended_callback
                0x00000000       0x24 examples/light_switch/proxy_client/CMakeFiles/light_switch_proxy_client_nrf52832_xxAA_s132_6.0.0.dir/__/__/__/mesh/core/src/flash_manager.c.obj
 .text.flash_manager_init
                0x00000000       0x68 examples/light_switch/proxy_client/CMakeFiles/light_switch_proxy_client_nrf52832_xxAA_s132_6.0.0.dir/__/__/__/mesh/core/src/flash_manager.c.obj
 .text.flash_manager_remove
                0x00000000       0x6c examples/light_switch/proxy_client/CMakeFiles/light_switch_proxy_client_nrf52832_xxAA_s132_6.0.0.dir/__/__/__/mesh/core/src/flash_manager.c.obj
 .text.flash_manager_entry_get
                0x00000000       0x48 examples/light_switch/proxy_client/CMakeFiles/light_switch_proxy_client_nrf52832_xxAA_s132_6.0.0.dir/__/__/__/mesh/core/src/flash_manager.c.obj
 .text.flash_manager_entry_next_get
                0x00000000      0x148 examples/light_switch/proxy_client/CMakeFiles/light_switch_proxy_client_nrf52832_xxAA_s132_6.0.0.dir/__/__/__/mesh/core/src/flash_manager.c.obj
 .text.flash_manager_entry_count_get
                0x00000000       0xf4 examples/light_switch/proxy_client/CMakeFiles/light_switch_proxy_client_nrf52832_xxAA_s132_6.0.0.dir/__/__/__/mesh/core/src/flash_manager.c.obj
 .text.flash_manager_entry_alloc
                0x00000000       0x88 examples/light_switch/proxy_client/CMakeFiles/light_switch_proxy_client_nrf52832_xxAA_s132_6.0.0.dir/__/__/__/mesh/core/src/flash_manager.c.obj
 .text.flash_manager_entry_commit
                0x00000000       0x58 examples/light_switch/proxy_client/CMakeFiles/light_switch_proxy_client_nrf52832_xxAA_s132_6.0.0.dir/__/__/__/mesh/core/src/flash_manager.c.obj
 .text.flash_manager_entry_invalidate
                0x00000000       0x98 examples/light_switch/proxy_client/CMakeFiles/light_switch_proxy_client_nrf52832_xxAA_s132_6.0.0.dir/__/__/__/mesh/core/src/flash_manager.c.obj
 .text.flash_manager_add
                0x00000000      0x410 examples/light_switch/proxy_client/CMakeFiles/light_switch_proxy_client_nrf52832_xxAA_s132_6.0.0.dir/__/__/__/mesh/core/src/flash_manager.c.obj
 .text.flash_manager_entry_release
                0x00000000       0x74 examples/light_switch/proxy_client/CMakeFiles/light_switch_proxy_client_nrf52832_xxAA_s132_6.0.0.dir/__/__/__/mesh/core/src/flash_manager.c.obj
 .text.flash_manager_mem_listener_register
                0x00000000       0x34 examples/light_switch/proxy_client/CMakeFiles/light_switch_proxy_client_nrf52832_xxAA_s132_6.0.0.dir/__/__/__/mesh/core/src/flash_manager.c.obj
 .text.flash_manager_on_defrag_end
                0x00000000       0x58 examples/light_switch/proxy_client/CMakeFiles/light_switch_proxy_client_nrf52832_xxAA_s132_6.0.0.dir/__/__/__/mesh/core/src/flash_manager.c.obj
 .text.flash_manager_recovery_page_get
                0x00000000        0x4 examples/light_switch/proxy_client/CMakeFiles/light_switch_proxy_client_nrf52832_xxAA_s132_6.0.0.dir/__/__/__/mesh/core/src/flash_manager.c.obj
 .text.flash_manager_action_queue_empty_cb_set
                0x00000000       0x20 examples/light_switch/proxy_client/CMakeFiles/light_switch_proxy_client_nrf52832_xxAA_s132_6.0.0.dir/__/__/__/mesh/core/src/flash_manager.c.obj
 .bss.m_action_queue_buffer
                0x00000000      0x104 examples/light_switch/proxy_client/CMakeFiles/light_switch_proxy_client_nrf52832_xxAA_s132_6.0.0.dir/__/__/__/mesh/core/src/flash_manager.c.obj
 .bss.m_action_state
                0x00000000        0x1 examples/light_switch/proxy_client/CMakeFiles/light_switch_proxy_client_nrf52832_xxAA_s132_6.0.0.dir/__/__/__/mesh/core/src/flash_manager.c.obj
 .bss.m_memory_listener_queue
                0x00000000        0x8 examples/light_switch/proxy_client/CMakeFiles/light_switch_proxy_client_nrf52832_xxAA_s132_6.0.0.dir/__/__/__/mesh/core/src/flash_manager.c.obj
 .bss.m_processing_flag
                0x00000000        0x4 examples/light_switch/proxy_client/CMakeFiles/light_switch_proxy_client_nrf52832_xxAA_s132_6.0.0.dir/__/__/__/mesh/core/src/flash_manager.c.obj
 .bss.m_queue_empty_cb
                0x00000000        0x4 examples/light_switch/proxy_client/CMakeFiles/light_switch_proxy_client_nrf52832_xxAA_s132_6.0.0.dir/__/__/__/mesh/core/src/flash_manager.c.obj
 .bss.m_state   0x00000000        0x1 examples/light_switch/proxy_client/CMakeFiles/light_switch_proxy_client_nrf52832_xxAA_s132_6.0.0.dir/__/__/__/mesh/core/src/flash_manager.c.obj
 .bss.m_token   0x00000000        0x2 examples/light_switch/proxy_client/CMakeFiles/light_switch_proxy_client_nrf52832_xxAA_s132_6.0.0.dir/__/__/__/mesh/core/src/flash_manager.c.obj
 .bss.p_current.11150
                0x00000000        0x4 examples/light_switch/proxy_client/CMakeFiles/light_switch_proxy_client_nrf52832_xxAA_s132_6.0.0.dir/__/__/__/mesh/core/src/flash_manager.c.obj
 .bss.result.11151
                0x00000000        0x1 examples/light_switch/proxy_client/CMakeFiles/light_switch_proxy_client_nrf52832_xxAA_s132_6.0.0.dir/__/__/__/mesh/core/src/flash_manager.c.obj
 .rodata.INVALID_HEADER
                0x00000000        0x4 examples/light_switch/proxy_client/CMakeFiles/light_switch_proxy_client_nrf52832_xxAA_s132_6.0.0.dir/__/__/__/mesh/core/src/flash_manager.c.obj
 .rodata.PADDING_HEADER
                0x00000000        0x4 examples/light_switch/proxy_client/CMakeFiles/light_switch_proxy_client_nrf52832_xxAA_s132_6.0.0.dir/__/__/__/mesh/core/src/flash_manager.c.obj
 .rodata.SEAL_HEADER
                0x00000000        0x4 examples/light_switch/proxy_client/CMakeFiles/light_switch_proxy_client_nrf52832_xxAA_s132_6.0.0.dir/__/__/__/mesh/core/src/flash_manager.c.obj
 .text          0x00000000        0x0 examples/light_switch/proxy_client/CMakeFiles/light_switch_proxy_client_nrf52832_xxAA_s132_6.0.0.dir/__/__/__/mesh/core/src/ccm_soft.c.obj
 .data          0x00000000        0x0 examples/light_switch/proxy_client/CMakeFiles/light_switch_proxy_client_nrf52832_xxAA_s132_6.0.0.dir/__/__/__/mesh/core/src/ccm_soft.c.obj
 .bss           0x00000000        0x0 examples/light_switch/proxy_client/CMakeFiles/light_switch_proxy_client_nrf52832_xxAA_s132_6.0.0.dir/__/__/__/mesh/core/src/ccm_soft.c.obj
 .text          0x00000000        0x0 examples/light_switch/proxy_client/CMakeFiles/light_switch_proxy_client_nrf52832_xxAA_s132_6.0.0.dir/__/__/__/mesh/core/src/toolchain.c.obj
 .data          0x00000000        0x0 examples/light_switch/proxy_client/CMakeFiles/light_switch_proxy_client_nrf52832_xxAA_s132_6.0.0.dir/__/__/__/mesh/core/src/toolchain.c.obj
 .bss           0x00000000        0x0 examples/light_switch/proxy_client/CMakeFiles/light_switch_proxy_client_nrf52832_xxAA_s132_6.0.0.dir/__/__/__/mesh/core/src/toolchain.c.obj
 .comment       0x00000000       0x80 examples/light_switch/proxy_client/CMakeFiles/light_switch_proxy_client_nrf52832_xxAA_s132_6.0.0.dir/__/__/__/mesh/core/src/toolchain.c.obj
 .ARM.attributes
                0x00000000       0x39 examples/light_switch/proxy_client/CMakeFiles/light_switch_proxy_client_nrf52832_xxAA_s132_6.0.0.dir/__/__/__/mesh/core/src/toolchain.c.obj
 .text          0x00000000        0x0 examples/light_switch/proxy_client/CMakeFiles/light_switch_proxy_client_nrf52832_xxAA_s132_6.0.0.dir/__/__/__/mesh/core/src/replay_cache.c.obj
 .data          0x00000000        0x0 examples/light_switch/proxy_client/CMakeFiles/light_switch_proxy_client_nrf52832_xxAA_s132_6.0.0.dir/__/__/__/mesh/core/src/replay_cache.c.obj
 .bss           0x00000000        0x0 examples/light_switch/proxy_client/CMakeFiles/light_switch_proxy_client_nrf52832_xxAA_s132_6.0.0.dir/__/__/__/mesh/core/src/replay_cache.c.obj
 .text.replay_cache_on_iv_update
                0x00000000       0x2c examples/light_switch/proxy_client/CMakeFiles/light_switch_proxy_client_nrf52832_xxAA_s132_6.0.0.dir/__/__/__/mesh/core/src/replay_cache.c.obj
 .text.replay_cache_clear
                0x00000000       0x20 examples/light_switch/proxy_client/CMakeFiles/light_switch_proxy_client_nrf52832_xxAA_s132_6.0.0.dir/__/__/__/mesh/core/src/replay_cache.c.obj
 .text          0x00000000        0x0 examples/light_switch/proxy_client/CMakeFiles/light_switch_proxy_client_nrf52832_xxAA_s132_6.0.0.dir/__/__/__/mesh/core/src/beacon.c.obj
 .data          0x00000000        0x0 examples/light_switch/proxy_client/CMakeFiles/light_switch_proxy_client_nrf52832_xxAA_s132_6.0.0.dir/__/__/__/mesh/core/src/beacon.c.obj
 .bss           0x00000000        0x0 examples/light_switch/proxy_client/CMakeFiles/light_switch_proxy_client_nrf52832_xxAA_s132_6.0.0.dir/__/__/__/mesh/core/src/beacon.c.obj
 .text          0x00000000        0x0 examples/light_switch/proxy_client/CMakeFiles/light_switch_proxy_client_nrf52832_xxAA_s132_6.0.0.dir/__/__/__/mesh/core/src/flash_manager_internal.c.obj
 .data          0x00000000        0x0 examples/light_switch/proxy_client/CMakeFiles/light_switch_proxy_client_nrf52832_xxAA_s132_6.0.0.dir/__/__/__/mesh/core/src/flash_manager_internal.c.obj
 .bss           0x00000000        0x0 examples/light_switch/proxy_client/CMakeFiles/light_switch_proxy_client_nrf52832_xxAA_s132_6.0.0.dir/__/__/__/mesh/core/src/flash_manager_internal.c.obj
 .text.entry_get
                0x00000000       0x80 examples/light_switch/proxy_client/CMakeFiles/light_switch_proxy_client_nrf52832_xxAA_s132_6.0.0.dir/__/__/__/mesh/core/src/flash_manager_internal.c.obj
 .comment       0x00000000       0x80 examples/light_switch/proxy_client/CMakeFiles/light_switch_proxy_client_nrf52832_xxAA_s132_6.0.0.dir/__/__/__/mesh/core/src/flash_manager_internal.c.obj
 .ARM.attributes
                0x00000000       0x39 examples/light_switch/proxy_client/CMakeFiles/light_switch_proxy_client_nrf52832_xxAA_s132_6.0.0.dir/__/__/__/mesh/core/src/flash_manager_internal.c.obj
 .text          0x00000000        0x0 examples/light_switch/proxy_client/CMakeFiles/light_switch_proxy_client_nrf52832_xxAA_s132_6.0.0.dir/__/__/__/mesh/core/src/core_tx.c.obj
 .data          0x00000000        0x0 examples/light_switch/proxy_client/CMakeFiles/light_switch_proxy_client_nrf52832_xxAA_s132_6.0.0.dir/__/__/__/mesh/core/src/core_tx.c.obj
 .bss           0x00000000        0x0 examples/light_switch/proxy_client/CMakeFiles/light_switch_proxy_client_nrf52832_xxAA_s132_6.0.0.dir/__/__/__/mesh/core/src/core_tx.c.obj
 .text.core_tx_bearer_type_get
                0x00000000       0x2c examples/light_switch/proxy_client/CMakeFiles/light_switch_proxy_client_nrf52832_xxAA_s132_6.0.0.dir/__/__/__/mesh/core/src/core_tx.c.obj
 .text.core_tx_bearer_count_get
                0x00000000        0xc examples/light_switch/proxy_client/CMakeFiles/light_switch_proxy_client_nrf52832_xxAA_s132_6.0.0.dir/__/__/__/mesh/core/src/core_tx.c.obj
 .text          0x00000000        0x0 examples/light_switch/proxy_client/CMakeFiles/light_switch_proxy_client_nrf52832_xxAA_s132_6.0.0.dir/__/__/__/mesh/core/src/heartbeat.c.obj
 .data          0x00000000        0x0 examples/light_switch/proxy_client/CMakeFiles/light_switch_proxy_client_nrf52832_xxAA_s132_6.0.0.dir/__/__/__/mesh/core/src/heartbeat.c.obj
 .bss           0x00000000        0x0 examples/light_switch/proxy_client/CMakeFiles/light_switch_proxy_client_nrf52832_xxAA_s132_6.0.0.dir/__/__/__/mesh/core/src/heartbeat.c.obj
 .text          0x00000000        0x0 examples/light_switch/proxy_client/CMakeFiles/light_switch_proxy_client_nrf52832_xxAA_s132_6.0.0.dir/__/__/__/mesh/core/src/net_beacon.c.obj
 .data          0x00000000        0x0 examples/light_switch/proxy_client/CMakeFiles/light_switch_proxy_client_nrf52832_xxAA_s132_6.0.0.dir/__/__/__/mesh/core/src/net_beacon.c.obj
 .bss           0x00000000        0x0 examples/light_switch/proxy_client/CMakeFiles/light_switch_proxy_client_nrf52832_xxAA_s132_6.0.0.dir/__/__/__/mesh/core/src/net_beacon.c.obj
 .text          0x00000000        0x0 examples/light_switch/proxy_client/CMakeFiles/light_switch_proxy_client_nrf52832_xxAA_s132_6.0.0.dir/__/__/__/mesh/core/src/fsm.c.obj
 .data          0x00000000        0x0 examples/light_switch/proxy_client/CMakeFiles/light_switch_proxy_client_nrf52832_xxAA_s132_6.0.0.dir/__/__/__/mesh/core/src/fsm.c.obj
 .bss           0x00000000        0x0 examples/light_switch/proxy_client/CMakeFiles/light_switch_proxy_client_nrf52832_xxAA_s132_6.0.0.dir/__/__/__/mesh/core/src/fsm.c.obj
 .text          0x00000000        0x0 examples/light_switch/proxy_client/CMakeFiles/light_switch_proxy_client_nrf52832_xxAA_s132_6.0.0.dir/__/__/__/mesh/core/src/core_tx_adv.c.obj
 .data          0x00000000        0x0 examples/light_switch/proxy_client/CMakeFiles/light_switch_proxy_client_nrf52832_xxAA_s132_6.0.0.dir/__/__/__/mesh/core/src/core_tx_adv.c.obj
 .bss           0x00000000        0x0 examples/light_switch/proxy_client/CMakeFiles/light_switch_proxy_client_nrf52832_xxAA_s132_6.0.0.dir/__/__/__/mesh/core/src/core_tx_adv.c.obj
 .text.core_tx_adv_address_set
                0x00000000       0x28 examples/light_switch/proxy_client/CMakeFiles/light_switch_proxy_client_nrf52832_xxAA_s132_6.0.0.dir/__/__/__/mesh/core/src/core_tx_adv.c.obj
 .text          0x00000000        0x0 examples/light_switch/proxy_client/CMakeFiles/light_switch_proxy_client_nrf52832_xxAA_s132_6.0.0.dir/__/__/__/mesh/bearer/src/ad_listener.c.obj
 .data          0x00000000        0x0 examples/light_switch/proxy_client/CMakeFiles/light_switch_proxy_client_nrf52832_xxAA_s132_6.0.0.dir/__/__/__/mesh/bearer/src/ad_listener.c.obj
 .bss           0x00000000        0x0 examples/light_switch/proxy_client/CMakeFiles/light_switch_proxy_client_nrf52832_xxAA_s132_6.0.0.dir/__/__/__/mesh/bearer/src/ad_listener.c.obj
 .text.ad_listener_unsubscribe
                0x00000000       0x7c examples/light_switch/proxy_client/CMakeFiles/light_switch_proxy_client_nrf52832_xxAA_s132_6.0.0.dir/__/__/__/mesh/bearer/src/ad_listener.c.obj
 .text          0x00000000        0x0 examples/light_switch/proxy_client/CMakeFiles/light_switch_proxy_client_nrf52832_xxAA_s132_6.0.0.dir/__/__/__/mesh/bearer/src/ad_type_filter.c.obj
 .data          0x00000000        0x0 examples/light_switch/proxy_client/CMakeFiles/light_switch_proxy_client_nrf52832_xxAA_s132_6.0.0.dir/__/__/__/mesh/bearer/src/ad_type_filter.c.obj
 .bss           0x00000000        0x0 examples/light_switch/proxy_client/CMakeFiles/light_switch_proxy_client_nrf52832_xxAA_s132_6.0.0.dir/__/__/__/mesh/bearer/src/ad_type_filter.c.obj
 .text.bearer_adtype_remove
                0x00000000       0x28 examples/light_switch/proxy_client/CMakeFiles/light_switch_proxy_client_nrf52832_xxAA_s132_6.0.0.dir/__/__/__/mesh/bearer/src/ad_type_filter.c.obj
 .text.bearer_adtype_clear
                0x00000000       0x10 examples/light_switch/proxy_client/CMakeFiles/light_switch_proxy_client_nrf52832_xxAA_s132_6.0.0.dir/__/__/__/mesh/bearer/src/ad_type_filter.c.obj
 .text.bearer_invalid_length_amount_get
                0x00000000        0xc examples/light_switch/proxy_client/CMakeFiles/light_switch_proxy_client_nrf52832_xxAA_s132_6.0.0.dir/__/__/__/mesh/bearer/src/ad_type_filter.c.obj
 .text.bearer_adtype_filtered_amount_get
                0x00000000        0xc examples/light_switch/proxy_client/CMakeFiles/light_switch_proxy_client_nrf52832_xxAA_s132_6.0.0.dir/__/__/__/mesh/bearer/src/ad_type_filter.c.obj
 .text          0x00000000        0x0 examples/light_switch/proxy_client/CMakeFiles/light_switch_proxy_client_nrf52832_xxAA_s132_6.0.0.dir/__/__/__/mesh/bearer/src/adv_packet_filter.c.obj
 .data          0x00000000        0x0 examples/light_switch/proxy_client/CMakeFiles/light_switch_proxy_client_nrf52832_xxAA_s132_6.0.0.dir/__/__/__/mesh/bearer/src/adv_packet_filter.c.obj
 .bss           0x00000000        0x0 examples/light_switch/proxy_client/CMakeFiles/light_switch_proxy_client_nrf52832_xxAA_s132_6.0.0.dir/__/__/__/mesh/bearer/src/adv_packet_filter.c.obj
 .text.adv_filter_handle
                0x00000000       0x40 examples/light_switch/proxy_client/CMakeFiles/light_switch_proxy_client_nrf52832_xxAA_s132_6.0.0.dir/__/__/__/mesh/bearer/src/adv_packet_filter.c.obj
 .text.bearer_adv_packet_filtering_set
                0x00000000       0x1c examples/light_switch/proxy_client/CMakeFiles/light_switch_proxy_client_nrf52832_xxAA_s132_6.0.0.dir/__/__/__/mesh/bearer/src/adv_packet_filter.c.obj
 .text.bearer_adv_packet_remove
                0x00000000       0x18 examples/light_switch/proxy_client/CMakeFiles/light_switch_proxy_client_nrf52832_xxAA_s132_6.0.0.dir/__/__/__/mesh/bearer/src/adv_packet_filter.c.obj
 .text.bearer_adv_packet_add
                0x00000000       0x14 examples/light_switch/proxy_client/CMakeFiles/light_switch_proxy_client_nrf52832_xxAA_s132_6.0.0.dir/__/__/__/mesh/bearer/src/adv_packet_filter.c.obj
 .text.bearer_adv_packet_clear
                0x00000000        0xc examples/light_switch/proxy_client/CMakeFiles/light_switch_proxy_client_nrf52832_xxAA_s132_6.0.0.dir/__/__/__/mesh/bearer/src/adv_packet_filter.c.obj
 .text.bearer_adv_packet_filter_mode_set
                0x00000000       0x18 examples/light_switch/proxy_client/CMakeFiles/light_switch_proxy_client_nrf52832_xxAA_s132_6.0.0.dir/__/__/__/mesh/bearer/src/adv_packet_filter.c.obj
 .text.bearer_adv_packet_filtered_amount_get
                0x00000000        0xc examples/light_switch/proxy_client/CMakeFiles/light_switch_proxy_client_nrf52832_xxAA_s132_6.0.0.dir/__/__/__/mesh/bearer/src/adv_packet_filter.c.obj
 .bss.m_adv_packet_filter
                0x00000000       0x14 examples/light_switch/proxy_client/CMakeFiles/light_switch_proxy_client_nrf52832_xxAA_s132_6.0.0.dir/__/__/__/mesh/bearer/src/adv_packet_filter.c.obj
 .comment       0x00000000       0x80 examples/light_switch/proxy_client/CMakeFiles/light_switch_proxy_client_nrf52832_xxAA_s132_6.0.0.dir/__/__/__/mesh/bearer/src/adv_packet_filter.c.obj
 .ARM.attributes
                0x00000000       0x39 examples/light_switch/proxy_client/CMakeFiles/light_switch_proxy_client_nrf52832_xxAA_s132_6.0.0.dir/__/__/__/mesh/bearer/src/adv_packet_filter.c.obj
 .text          0x00000000        0x0 examples/light_switch/proxy_client/CMakeFiles/light_switch_proxy_client_nrf52832_xxAA_s132_6.0.0.dir/__/__/__/mesh/bearer/src/advertiser.c.obj
 .data          0x00000000        0x0 examples/light_switch/proxy_client/CMakeFiles/light_switch_proxy_client_nrf52832_xxAA_s132_6.0.0.dir/__/__/__/mesh/bearer/src/advertiser.c.obj
 .bss           0x00000000        0x0 examples/light_switch/proxy_client/CMakeFiles/light_switch_proxy_client_nrf52832_xxAA_s132_6.0.0.dir/__/__/__/mesh/bearer/src/advertiser.c.obj
 .text.advertiser_disable
                0x00000000        0xc examples/light_switch/proxy_client/CMakeFiles/light_switch_proxy_client_nrf52832_xxAA_s132_6.0.0.dir/__/__/__/mesh/bearer/src/advertiser.c.obj
 .text.advertiser_config_set
                0x00000000      0x180 examples/light_switch/proxy_client/CMakeFiles/light_switch_proxy_client_nrf52832_xxAA_s132_6.0.0.dir/__/__/__/mesh/bearer/src/advertiser.c.obj
 .text.advertiser_channels_set
                0x00000000       0x94 examples/light_switch/proxy_client/CMakeFiles/light_switch_proxy_client_nrf52832_xxAA_s132_6.0.0.dir/__/__/__/mesh/bearer/src/advertiser.c.obj
 .text.advertiser_address_set
                0x00000000       0x64 examples/light_switch/proxy_client/CMakeFiles/light_switch_proxy_client_nrf52832_xxAA_s132_6.0.0.dir/__/__/__/mesh/bearer/src/advertiser.c.obj
 .text.advertiser_config_get
                0x00000000       0x24 examples/light_switch/proxy_client/CMakeFiles/light_switch_proxy_client_nrf52832_xxAA_s132_6.0.0.dir/__/__/__/mesh/bearer/src/advertiser.c.obj
 .text.advertiser_address_default_get
                0x00000000       0x5c examples/light_switch/proxy_client/CMakeFiles/light_switch_proxy_client_nrf52832_xxAA_s132_6.0.0.dir/__/__/__/mesh/bearer/src/advertiser.c.obj
 .text          0x00000000        0x0 examples/light_switch/proxy_client/CMakeFiles/light_switch_proxy_client_nrf52832_xxAA_s132_6.0.0.dir/__/__/__/mesh/bearer/src/bearer_handler.c.obj
 .data          0x00000000        0x0 examples/light_switch/proxy_client/CMakeFiles/light_switch_proxy_client_nrf52832_xxAA_s132_6.0.0.dir/__/__/__/mesh/bearer/src/bearer_handler.c.obj
 .bss           0x00000000        0x0 examples/light_switch/proxy_client/CMakeFiles/light_switch_proxy_client_nrf52832_xxAA_s132_6.0.0.dir/__/__/__/mesh/bearer/src/bearer_handler.c.obj
 .text.bearer_handler_action_fire
                0x00000000       0x9c examples/light_switch/proxy_client/CMakeFiles/light_switch_proxy_client_nrf52832_xxAA_s132_6.0.0.dir/__/__/__/mesh/bearer/src/bearer_handler.c.obj
 .text          0x00000000        0x0 examples/light_switch/proxy_client/CMakeFiles/light_switch_proxy_client_nrf52832_xxAA_s132_6.0.0.dir/__/__/__/mesh/bearer/src/broadcast.c.obj
 .data          0x00000000        0x0 examples/light_switch/proxy_client/CMakeFiles/light_switch_proxy_client_nrf52832_xxAA_s132_6.0.0.dir/__/__/__/mesh/bearer/src/broadcast.c.obj
 .bss           0x00000000        0x0 examples/light_switch/proxy_client/CMakeFiles/light_switch_proxy_client_nrf52832_xxAA_s132_6.0.0.dir/__/__/__/mesh/bearer/src/broadcast.c.obj
 .text          0x00000000        0x0 examples/light_switch/proxy_client/CMakeFiles/light_switch_proxy_client_nrf52832_xxAA_s132_6.0.0.dir/__/__/__/mesh/bearer/src/filter_engine.c.obj
 .data          0x00000000        0x0 examples/light_switch/proxy_client/CMakeFiles/light_switch_proxy_client_nrf52832_xxAA_s132_6.0.0.dir/__/__/__/mesh/bearer/src/filter_engine.c.obj
 .bss           0x00000000        0x0 examples/light_switch/proxy_client/CMakeFiles/light_switch_proxy_client_nrf52832_xxAA_s132_6.0.0.dir/__/__/__/mesh/bearer/src/filter_engine.c.obj
 .text.fen_accepted_amount_get
                0x00000000        0xc examples/light_switch/proxy_client/CMakeFiles/light_switch_proxy_client_nrf52832_xxAA_s132_6.0.0.dir/__/__/__/mesh/bearer/src/filter_engine.c.obj
 .text          0x00000000        0x0 examples/light_switch/proxy_client/CMakeFiles/light_switch_proxy_client_nrf52832_xxAA_s132_6.0.0.dir/__/__/__/mesh/bearer/src/gap_address_filter.c.obj
 .data          0x00000000        0x0 examples/light_switch/proxy_client/CMakeFiles/light_switch_proxy_client_nrf52832_xxAA_s132_6.0.0.dir/__/__/__/mesh/bearer/src/gap_address_filter.c.obj
 .bss           0x00000000        0x0 examples/light_switch/proxy_client/CMakeFiles/light_switch_proxy_client_nrf52832_xxAA_s132_6.0.0.dir/__/__/__/mesh/bearer/src/gap_address_filter.c.obj
 .text.gap_address_filter_handle
                0x00000000       0xb4 examples/light_switch/proxy_client/CMakeFiles/light_switch_proxy_client_nrf52832_xxAA_s132_6.0.0.dir/__/__/__/mesh/bearer/src/gap_address_filter.c.obj
 .text.bearer_filter_gap_addr_whitelist_set
                0x00000000       0x48 examples/light_switch/proxy_client/CMakeFiles/light_switch_proxy_client_nrf52832_xxAA_s132_6.0.0.dir/__/__/__/mesh/bearer/src/gap_address_filter.c.obj
 .text.bearer_filter_gap_addr_blacklist_set
                0x00000000       0x4c examples/light_switch/proxy_client/CMakeFiles/light_switch_proxy_client_nrf52832_xxAA_s132_6.0.0.dir/__/__/__/mesh/bearer/src/gap_address_filter.c.obj
 .text.bearer_filter_gap_addr_range_set
                0x00000000       0x64 examples/light_switch/proxy_client/CMakeFiles/light_switch_proxy_client_nrf52832_xxAA_s132_6.0.0.dir/__/__/__/mesh/bearer/src/gap_address_filter.c.obj
 .text.bearer_filter_gap_addr_clear
                0x00000000       0x24 examples/light_switch/proxy_client/CMakeFiles/light_switch_proxy_client_nrf52832_xxAA_s132_6.0.0.dir/__/__/__/mesh/bearer/src/gap_address_filter.c.obj
 .text.bearer_gap_addr_filtered_amount_get
                0x00000000        0xc examples/light_switch/proxy_client/CMakeFiles/light_switch_proxy_client_nrf52832_xxAA_s132_6.0.0.dir/__/__/__/mesh/bearer/src/gap_address_filter.c.obj
 .bss.m_addr_filter
                0x00000000       0x18 examples/light_switch/proxy_client/CMakeFiles/light_switch_proxy_client_nrf52832_xxAA_s132_6.0.0.dir/__/__/__/mesh/bearer/src/gap_address_filter.c.obj
 .comment       0x00000000       0x80 examples/light_switch/proxy_client/CMakeFiles/light_switch_proxy_client_nrf52832_xxAA_s132_6.0.0.dir/__/__/__/mesh/bearer/src/gap_address_filter.c.obj
 .ARM.attributes
                0x00000000       0x39 examples/light_switch/proxy_client/CMakeFiles/light_switch_proxy_client_nrf52832_xxAA_s132_6.0.0.dir/__/__/__/mesh/bearer/src/gap_address_filter.c.obj
 .text          0x00000000        0x0 examples/light_switch/proxy_client/CMakeFiles/light_switch_proxy_client_nrf52832_xxAA_s132_6.0.0.dir/__/__/__/mesh/bearer/src/radio_config.c.obj
 .data          0x00000000        0x0 examples/light_switch/proxy_client/CMakeFiles/light_switch_proxy_client_nrf52832_xxAA_s132_6.0.0.dir/__/__/__/mesh/bearer/src/radio_config.c.obj
 .bss           0x00000000        0x0 examples/light_switch/proxy_client/CMakeFiles/light_switch_proxy_client_nrf52832_xxAA_s132_6.0.0.dir/__/__/__/mesh/bearer/src/radio_config.c.obj
 .text.radio_config_access_addr_get
                0x00000000       0x54 examples/light_switch/proxy_client/CMakeFiles/light_switch_proxy_client_nrf52832_xxAA_s132_6.0.0.dir/__/__/__/mesh/bearer/src/radio_config.c.obj
 .text          0x00000000        0x0 examples/light_switch/proxy_client/CMakeFiles/light_switch_proxy_client_nrf52832_xxAA_s132_6.0.0.dir/__/__/__/mesh/bearer/src/rssi_filter.c.obj
 .data          0x00000000        0x0 examples/light_switch/proxy_client/CMakeFiles/light_switch_proxy_client_nrf52832_xxAA_s132_6.0.0.dir/__/__/__/mesh/bearer/src/rssi_filter.c.obj
 .bss           0x00000000        0x0 examples/light_switch/proxy_client/CMakeFiles/light_switch_proxy_client_nrf52832_xxAA_s132_6.0.0.dir/__/__/__/mesh/bearer/src/rssi_filter.c.obj
 .text.rssi_filter_handle
                0x00000000       0x20 examples/light_switch/proxy_client/CMakeFiles/light_switch_proxy_client_nrf52832_xxAA_s132_6.0.0.dir/__/__/__/mesh/bearer/src/rssi_filter.c.obj
 .text.bearer_rssi_filtering_set
                0x00000000       0x34 examples/light_switch/proxy_client/CMakeFiles/light_switch_proxy_client_nrf52832_xxAA_s132_6.0.0.dir/__/__/__/mesh/bearer/src/rssi_filter.c.obj
 .text.bearer_rssi_filtered_amount_get
                0x00000000        0xc examples/light_switch/proxy_client/CMakeFiles/light_switch_proxy_client_nrf52832_xxAA_s132_6.0.0.dir/__/__/__/mesh/bearer/src/rssi_filter.c.obj
 .bss.m_rssi_filter
                0x00000000       0x18 examples/light_switch/proxy_client/CMakeFiles/light_switch_proxy_client_nrf52832_xxAA_s132_6.0.0.dir/__/__/__/mesh/bearer/src/rssi_filter.c.obj
 .comment       0x00000000       0x80 examples/light_switch/proxy_client/CMakeFiles/light_switch_proxy_client_nrf52832_xxAA_s132_6.0.0.dir/__/__/__/mesh/bearer/src/rssi_filter.c.obj
 .ARM.attributes
                0x00000000       0x39 examples/light_switch/proxy_client/CMakeFiles/light_switch_proxy_client_nrf52832_xxAA_s132_6.0.0.dir/__/__/__/mesh/bearer/src/rssi_filter.c.obj
 .text          0x00000000        0x0 examples/light_switch/proxy_client/CMakeFiles/light_switch_proxy_client_nrf52832_xxAA_s132_6.0.0.dir/__/__/__/mesh/bearer/src/scanner.c.obj
 .data          0x00000000        0x0 examples/light_switch/proxy_client/CMakeFiles/light_switch_proxy_client_nrf52832_xxAA_s132_6.0.0.dir/__/__/__/mesh/bearer/src/scanner.c.obj
 .bss           0x00000000        0x0 examples/light_switch/proxy_client/CMakeFiles/light_switch_proxy_client_nrf52832_xxAA_s132_6.0.0.dir/__/__/__/mesh/bearer/src/scanner.c.obj
 .text.scanner_rx_callback_set
                0x00000000       0x20 examples/light_switch/proxy_client/CMakeFiles/light_switch_proxy_client_nrf52832_xxAA_s132_6.0.0.dir/__/__/__/mesh/bearer/src/scanner.c.obj
 .text.scanner_is_enabled
                0x00000000       0x14 examples/light_switch/proxy_client/CMakeFiles/light_switch_proxy_client_nrf52832_xxAA_s132_6.0.0.dir/__/__/__/mesh/bearer/src/scanner.c.obj
 .text.scanner_stats_get
                0x00000000        0x8 examples/light_switch/proxy_client/CMakeFiles/light_switch_proxy_client_nrf52832_xxAA_s132_6.0.0.dir/__/__/__/mesh/bearer/src/scanner.c.obj
 .text.scanner_config_radio_mode_set
                0x00000000       0x10 examples/light_switch/proxy_client/CMakeFiles/light_switch_proxy_client_nrf52832_xxAA_s132_6.0.0.dir/__/__/__/mesh/bearer/src/scanner.c.obj
 .text.scanner_config_scan_time_set
                0x00000000       0x88 examples/light_switch/proxy_client/CMakeFiles/light_switch_proxy_client_nrf52832_xxAA_s132_6.0.0.dir/__/__/__/mesh/bearer/src/scanner.c.obj
 .text.scanner_config_channels_set
                0x00000000       0x50 examples/light_switch/proxy_client/CMakeFiles/light_switch_proxy_client_nrf52832_xxAA_s132_6.0.0.dir/__/__/__/mesh/bearer/src/scanner.c.obj
 .text.scanner_config_access_addresses_set
                0x00000000       0x38 examples/light_switch/proxy_client/CMakeFiles/light_switch_proxy_client_nrf52832_xxAA_s132_6.0.0.dir/__/__/__/mesh/bearer/src/scanner.c.obj
 .text          0x00000000        0x0 examples/light_switch/proxy_client/CMakeFiles/light_switch_proxy_client_nrf52832_xxAA_s132_6.0.0.dir/__/__/__/mesh/gatt/src/mesh_gatt.c.obj
 .data          0x00000000        0x0 examples/light_switch/proxy_client/CMakeFiles/light_switch_proxy_client_nrf52832_xxAA_s132_6.0.0.dir/__/__/__/mesh/gatt/src/mesh_gatt.c.obj
 .bss           0x00000000        0x0 examples/light_switch/proxy_client/CMakeFiles/light_switch_proxy_client_nrf52832_xxAA_s132_6.0.0.dir/__/__/__/mesh/gatt/src/mesh_gatt.c.obj
 .text          0x00000000        0x0 examples/light_switch/proxy_client/CMakeFiles/light_switch_proxy_client_nrf52832_xxAA_s132_6.0.0.dir/__/__/__/mesh/gatt/src/proxy.c.obj
 .data          0x00000000        0x0 examples/light_switch/proxy_client/CMakeFiles/light_switch_proxy_client_nrf52832_xxAA_s132_6.0.0.dir/__/__/__/mesh/gatt/src/proxy.c.obj
 .bss           0x00000000        0x0 examples/light_switch/proxy_client/CMakeFiles/light_switch_proxy_client_nrf52832_xxAA_s132_6.0.0.dir/__/__/__/mesh/gatt/src/proxy.c.obj
 .text.proxy_is_connected
                0x00000000       0x18 examples/light_switch/proxy_client/CMakeFiles/light_switch_proxy_client_nrf52832_xxAA_s132_6.0.0.dir/__/__/__/mesh/gatt/src/proxy.c.obj
 .text          0x00000000        0x0 examples/light_switch/proxy_client/CMakeFiles/light_switch_proxy_client_nrf52832_xxAA_s132_6.0.0.dir/__/__/__/mesh/gatt/src/proxy_filter.c.obj
 .data          0x00000000        0x0 examples/light_switch/proxy_client/CMakeFiles/light_switch_proxy_client_nrf52832_xxAA_s132_6.0.0.dir/__/__/__/mesh/gatt/src/proxy_filter.c.obj
 .bss           0x00000000        0x0 examples/light_switch/proxy_client/CMakeFiles/light_switch_proxy_client_nrf52832_xxAA_s132_6.0.0.dir/__/__/__/mesh/gatt/src/proxy_filter.c.obj
 .text          0x00000000        0x0 examples/light_switch/proxy_client/CMakeFiles/light_switch_proxy_client_nrf52832_xxAA_s132_6.0.0.dir/__/__/__/models/simple_on_off/src/simple_on_off_client.c.obj
 .data          0x00000000        0x0 examples/light_switch/proxy_client/CMakeFiles/light_switch_proxy_client_nrf52832_xxAA_s132_6.0.0.dir/__/__/__/models/simple_on_off/src/simple_on_off_client.c.obj
 .bss           0x00000000        0x0 examples/light_switch/proxy_client/CMakeFiles/light_switch_proxy_client_nrf52832_xxAA_s132_6.0.0.dir/__/__/__/models/simple_on_off/src/simple_on_off_client.c.obj
 .text.simple_on_off_client_get
                0x00000000       0x60 examples/light_switch/proxy_client/CMakeFiles/light_switch_proxy_client_nrf52832_xxAA_s132_6.0.0.dir/__/__/__/models/simple_on_off/src/simple_on_off_client.c.obj
 .text.simple_on_off_client_pending_msg_cancel
                0x00000000        0x8 examples/light_switch/proxy_client/CMakeFiles/light_switch_proxy_client_nrf52832_xxAA_s132_6.0.0.dir/__/__/__/models/simple_on_off/src/simple_on_off_client.c.obj
 .text          0x00000000        0x0 examples/light_switch/proxy_client/CMakeFiles/light_switch_proxy_client_nrf52832_xxAA_s132_6.0.0.dir/__/__/__/models/config/src/composition_data.c.obj
 .data          0x00000000        0x0 examples/light_switch/proxy_client/CMakeFiles/light_switch_proxy_client_nrf52832_xxAA_s132_6.0.0.dir/__/__/__/models/config/src/composition_data.c.obj
 .bss           0x00000000        0x0 examples/light_switch/proxy_client/CMakeFiles/light_switch_proxy_client_nrf52832_xxAA_s132_6.0.0.dir/__/__/__/models/config/src/composition_data.c.obj
 .text          0x00000000        0x0 examples/light_switch/proxy_client/CMakeFiles/light_switch_proxy_client_nrf52832_xxAA_s132_6.0.0.dir/__/__/__/models/config/src/config_server.c.obj
 .data          0x00000000        0x0 examples/light_switch/proxy_client/CMakeFiles/light_switch_proxy_client_nrf52832_xxAA_s132_6.0.0.dir/__/__/__/models/config/src/config_server.c.obj
 .bss           0x00000000        0x0 examples/light_switch/proxy_client/CMakeFiles/light_switch_proxy_client_nrf52832_xxAA_s132_6.0.0.dir/__/__/__/models/config/src/config_server.c.obj
 .text          0x00000000        0x0 examples/light_switch/proxy_client/CMakeFiles/light_switch_proxy_client_nrf52832_xxAA_s132_6.0.0.dir/__/__/__/models/config/src/packed_index_list.c.obj
 .data          0x00000000        0x0 examples/light_switch/proxy_client/CMakeFiles/light_switch_proxy_client_nrf52832_xxAA_s132_6.0.0.dir/__/__/__/models/config/src/packed_index_list.c.obj
 .bss           0x00000000        0x0 examples/light_switch/proxy_client/CMakeFiles/light_switch_proxy_client_nrf52832_xxAA_s132_6.0.0.dir/__/__/__/models/config/src/packed_index_list.c.obj
 .text          0x00000000        0x0 examples/light_switch/proxy_client/CMakeFiles/light_switch_proxy_client_nrf52832_xxAA_s132_6.0.0.dir/__/__/__/models/health/src/health_server.c.obj
 .data          0x00000000        0x0 examples/light_switch/proxy_client/CMakeFiles/light_switch_proxy_client_nrf52832_xxAA_s132_6.0.0.dir/__/__/__/models/health/src/health_server.c.obj
 .bss           0x00000000        0x0 examples/light_switch/proxy_client/CMakeFiles/light_switch_proxy_client_nrf52832_xxAA_s132_6.0.0.dir/__/__/__/models/health/src/health_server.c.obj
 .text.health_server_fault_register
                0x00000000      0x238 examples/light_switch/proxy_client/CMakeFiles/light_switch_proxy_client_nrf52832_xxAA_s132_6.0.0.dir/__/__/__/models/health/src/health_server.c.obj
 .text.health_server_fault_clear
                0x00000000      0x2f4 examples/light_switch/proxy_client/CMakeFiles/light_switch_proxy_client_nrf52832_xxAA_s132_6.0.0.dir/__/__/__/models/health/src/health_server.c.obj
 .text.health_server_fault_is_set
                0x00000000       0x1c examples/light_switch/proxy_client/CMakeFiles/light_switch_proxy_client_nrf52832_xxAA_s132_6.0.0.dir/__/__/__/models/health/src/health_server.c.obj
 .text.health_server_fault_count_get
                0x00000000      0x154 examples/light_switch/proxy_client/CMakeFiles/light_switch_proxy_client_nrf52832_xxAA_s132_6.0.0.dir/__/__/__/models/health/src/health_server.c.obj
 .text.health_server_attention_get
                0x00000000        0x8 examples/light_switch/proxy_client/CMakeFiles/light_switch_proxy_client_nrf52832_xxAA_s132_6.0.0.dir/__/__/__/models/health/src/health_server.c.obj
 .text.health_server_attention_set
                0x00000000       0x98 examples/light_switch/proxy_client/CMakeFiles/light_switch_proxy_client_nrf52832_xxAA_s132_6.0.0.dir/__/__/__/models/health/src/health_server.c.obj
 .text          0x00000000        0x0 examples/light_switch/proxy_client/CMakeFiles/light_switch_proxy_client_nrf52832_xxAA_s132_6.0.0.dir/__/__/__/mesh/access/src/access_publish.c.obj
 .data          0x00000000        0x0 examples/light_switch/proxy_client/CMakeFiles/light_switch_proxy_client_nrf52832_xxAA_s132_6.0.0.dir/__/__/__/mesh/access/src/access_publish.c.obj
 .bss           0x00000000        0x0 examples/light_switch/proxy_client/CMakeFiles/light_switch_proxy_client_nrf52832_xxAA_s132_6.0.0.dir/__/__/__/mesh/access/src/access_publish.c.obj
 .text          0x00000000        0x0 examples/light_switch/proxy_client/CMakeFiles/light_switch_proxy_client_nrf52832_xxAA_s132_6.0.0.dir/__/__/__/mesh/access/src/access.c.obj
 .data          0x00000000        0x0 examples/light_switch/proxy_client/CMakeFiles/light_switch_proxy_client_nrf52832_xxAA_s132_6.0.0.dir/__/__/__/mesh/access/src/access.c.obj
 .bss           0x00000000        0x0 examples/light_switch/proxy_client/CMakeFiles/light_switch_proxy_client_nrf52832_xxAA_s132_6.0.0.dir/__/__/__/mesh/access/src/access.c.obj
 .text.access_model_subscription_lists_share
                0x00000000       0x5c examples/light_switch/proxy_client/CMakeFiles/light_switch_proxy_client_nrf52832_xxAA_s132_6.0.0.dir/__/__/__/mesh/access/src/access.c.obj
 .text.access_element_location_set
                0x00000000       0x38 examples/light_switch/proxy_client/CMakeFiles/light_switch_proxy_client_nrf52832_xxAA_s132_6.0.0.dir/__/__/__/mesh/access/src/access.c.obj
 .text          0x00000000        0x0 examples/light_switch/proxy_client/CMakeFiles/light_switch_proxy_client_nrf52832_xxAA_s132_6.0.0.dir/__/__/__/mesh/access/src/access_reliable.c.obj
 .data          0x00000000        0x0 examples/light_switch/proxy_client/CMakeFiles/light_switch_proxy_client_nrf52832_xxAA_s132_6.0.0.dir/__/__/__/mesh/access/src/access_reliable.c.obj
 .bss           0x00000000        0x0 examples/light_switch/proxy_client/CMakeFiles/light_switch_proxy_client_nrf52832_xxAA_s132_6.0.0.dir/__/__/__/mesh/access/src/access_reliable.c.obj
 .text          0x00000000        0x0 examples/light_switch/proxy_client/CMakeFiles/light_switch_proxy_client_nrf52832_xxAA_s132_6.0.0.dir/__/__/__/mesh/access/src/device_state_manager.c.obj
 .data          0x00000000        0x0 examples/light_switch/proxy_client/CMakeFiles/light_switch_proxy_client_nrf52832_xxAA_s132_6.0.0.dir/__/__/__/mesh/access/src/device_state_manager.c.obj
 .bss           0x00000000        0x0 examples/light_switch/proxy_client/CMakeFiles/light_switch_proxy_client_nrf52832_xxAA_s132_6.0.0.dir/__/__/__/mesh/access/src/device_state_manager.c.obj
 .text.dsm_has_unflashed_data
                0x00000000        0x4 examples/light_switch/proxy_client/CMakeFiles/light_switch_proxy_client_nrf52832_xxAA_s132_6.0.0.dir/__/__/__/mesh/access/src/device_state_manager.c.obj
 .text.dsm_address_publish_add_handle
                0x00000000       0x4c examples/light_switch/proxy_client/CMakeFiles/light_switch_proxy_client_nrf52832_xxAA_s132_6.0.0.dir/__/__/__/mesh/access/src/device_state_manager.c.obj
 .text.dsm_address_subscription_add_handle
                0x00000000       0x4c examples/light_switch/proxy_client/CMakeFiles/light_switch_proxy_client_nrf52832_xxAA_s132_6.0.0.dir/__/__/__/mesh/access/src/device_state_manager.c.obj
 .text.dsm_address_subscription_count_get
                0x00000000       0x78 examples/light_switch/proxy_client/CMakeFiles/light_switch_proxy_client_nrf52832_xxAA_s132_6.0.0.dir/__/__/__/mesh/access/src/device_state_manager.c.obj
 .text.dsm_address_get_all
                0x00000000       0xdc examples/light_switch/proxy_client/CMakeFiles/light_switch_proxy_client_nrf52832_xxAA_s132_6.0.0.dir/__/__/__/mesh/access/src/device_state_manager.c.obj
 .text.dsm_subnet_handle_to_netkey_index
                0x00000000       0x24 examples/light_switch/proxy_client/CMakeFiles/light_switch_proxy_client_nrf52832_xxAA_s132_6.0.0.dir/__/__/__/mesh/access/src/device_state_manager.c.obj
 .text.dsm_devkey_delete
                0x00000000       0x28 examples/light_switch/proxy_client/CMakeFiles/light_switch_proxy_client_nrf52832_xxAA_s132_6.0.0.dir/__/__/__/mesh/access/src/device_state_manager.c.obj
 .text.dsm_devkey_handle_get
                0x00000000       0x3c examples/light_switch/proxy_client/CMakeFiles/light_switch_proxy_client_nrf52832_xxAA_s132_6.0.0.dir/__/__/__/mesh/access/src/device_state_manager.c.obj
 .text          0x00000000        0x0 examples/light_switch/proxy_client/CMakeFiles/light_switch_proxy_client_nrf52832_xxAA_s132_6.0.0.dir/__/__/__/mesh/prov/src/prov_provisionee.c.obj
 .data          0x00000000        0x0 examples/light_switch/proxy_client/CMakeFiles/light_switch_proxy_client_nrf52832_xxAA_s132_6.0.0.dir/__/__/__/mesh/prov/src/prov_provisionee.c.obj
 .bss           0x00000000        0x0 examples/light_switch/proxy_client/CMakeFiles/light_switch_proxy_client_nrf52832_xxAA_s132_6.0.0.dir/__/__/__/mesh/prov/src/prov_provisionee.c.obj
 .text.prov_provisionee_shared_secret
                0x00000000       0xa0 examples/light_switch/proxy_client/CMakeFiles/light_switch_proxy_client_nrf52832_xxAA_s132_6.0.0.dir/__/__/__/mesh/prov/src/prov_provisionee.c.obj
 .text          0x00000000        0x0 examples/light_switch/proxy_client/CMakeFiles/light_switch_proxy_client_nrf52832_xxAA_s132_6.0.0.dir/__/__/__/mesh/prov/src/nrf_mesh_prov.c.obj
 .data          0x00000000        0x0 examples/light_switch/proxy_client/CMakeFiles/light_switch_proxy_client_nrf52832_xxAA_s132_6.0.0.dir/__/__/__/mesh/prov/src/nrf_mesh_prov.c.obj
 .bss           0x00000000        0x0 examples/light_switch/proxy_client/CMakeFiles/light_switch_proxy_client_nrf52832_xxAA_s132_6.0.0.dir/__/__/__/mesh/prov/src/nrf_mesh_prov.c.obj
 .text.nrf_mesh_prov_listen_stop
                0x00000000       0x30 examples/light_switch/proxy_client/CMakeFiles/light_switch_proxy_client_nrf52832_xxAA_s132_6.0.0.dir/__/__/__/mesh/prov/src/nrf_mesh_prov.c.obj
 .text.nrf_mesh_prov_provision
                0x00000000       0x58 examples/light_switch/proxy_client/CMakeFiles/light_switch_proxy_client_nrf52832_xxAA_s132_6.0.0.dir/__/__/__/mesh/prov/src/nrf_mesh_prov.c.obj
 .text.nrf_mesh_prov_oob_use
                0x00000000       0x18 examples/light_switch/proxy_client/CMakeFiles/light_switch_proxy_client_nrf52832_xxAA_s132_6.0.0.dir/__/__/__/mesh/prov/src/nrf_mesh_prov.c.obj
 .text.nrf_mesh_prov_shared_secret_provide
                0x00000000       0x10 examples/light_switch/proxy_client/CMakeFiles/light_switch_proxy_client_nrf52832_xxAA_s132_6.0.0.dir/__/__/__/mesh/prov/src/nrf_mesh_prov.c.obj
 .text.nrf_mesh_prov_pubkey_provide
                0x00000000       0x10 examples/light_switch/proxy_client/CMakeFiles/light_switch_proxy_client_nrf52832_xxAA_s132_6.0.0.dir/__/__/__/mesh/prov/src/nrf_mesh_prov.c.obj
 .text.nrf_mesh_prov_scan_start
                0x00000000       0x10 examples/light_switch/proxy_client/CMakeFiles/light_switch_proxy_client_nrf52832_xxAA_s132_6.0.0.dir/__/__/__/mesh/prov/src/nrf_mesh_prov.c.obj
 .text.nrf_mesh_prov_scan_stop
                0x00000000        0x4 examples/light_switch/proxy_client/CMakeFiles/light_switch_proxy_client_nrf52832_xxAA_s132_6.0.0.dir/__/__/__/mesh/prov/src/nrf_mesh_prov.c.obj
 .text          0x00000000        0x0 examples/light_switch/proxy_client/CMakeFiles/light_switch_proxy_client_nrf52832_xxAA_s132_6.0.0.dir/__/__/__/mesh/prov/src/provisioning.c.obj
 .data          0x00000000        0x0 examples/light_switch/proxy_client/CMakeFiles/light_switch_proxy_client_nrf52832_xxAA_s132_6.0.0.dir/__/__/__/mesh/prov/src/provisioning.c.obj
 .bss           0x00000000        0x0 examples/light_switch/proxy_client/CMakeFiles/light_switch_proxy_client_nrf52832_xxAA_s132_6.0.0.dir/__/__/__/mesh/prov/src/provisioning.c.obj
 .text.prov_tx_invite
                0x00000000       0x38 examples/light_switch/proxy_client/CMakeFiles/light_switch_proxy_client_nrf52832_xxAA_s132_6.0.0.dir/__/__/__/mesh/prov/src/provisioning.c.obj
 .text.prov_tx_start
                0x00000000       0x38 examples/light_switch/proxy_client/CMakeFiles/light_switch_proxy_client_nrf52832_xxAA_s132_6.0.0.dir/__/__/__/mesh/prov/src/provisioning.c.obj
 .text.prov_tx_data
                0x00000000       0x34 examples/light_switch/proxy_client/CMakeFiles/light_switch_proxy_client_nrf52832_xxAA_s132_6.0.0.dir/__/__/__/mesh/prov/src/provisioning.c.obj
 .text.prov_tx  0x00000000       0x3c examples/light_switch/proxy_client/CMakeFiles/light_switch_proxy_client_nrf52832_xxAA_s132_6.0.0.dir/__/__/__/mesh/prov/src/provisioning.c.obj
 .text          0x00000000        0x0 examples/light_switch/proxy_client/CMakeFiles/light_switch_proxy_client_nrf52832_xxAA_s132_6.0.0.dir/__/__/__/mesh/prov/src/prov_beacon.c.obj
 .data          0x00000000        0x0 examples/light_switch/proxy_client/CMakeFiles/light_switch_proxy_client_nrf52832_xxAA_s132_6.0.0.dir/__/__/__/mesh/prov/src/prov_beacon.c.obj
 .bss           0x00000000        0x0 examples/light_switch/proxy_client/CMakeFiles/light_switch_proxy_client_nrf52832_xxAA_s132_6.0.0.dir/__/__/__/mesh/prov/src/prov_beacon.c.obj
 .text.prov_beacon_scan_start
                0x00000000       0x1c examples/light_switch/proxy_client/CMakeFiles/light_switch_proxy_client_nrf52832_xxAA_s132_6.0.0.dir/__/__/__/mesh/prov/src/prov_beacon.c.obj
 .text.prov_beacon_scan_stop
                0x00000000        0xc examples/light_switch/proxy_client/CMakeFiles/light_switch_proxy_client_nrf52832_xxAA_s132_6.0.0.dir/__/__/__/mesh/prov/src/prov_beacon.c.obj
 .text          0x00000000        0x0 examples/light_switch/proxy_client/CMakeFiles/light_switch_proxy_client_nrf52832_xxAA_s132_6.0.0.dir/__/__/__/mesh/prov/src/prov_utils.c.obj
 .data          0x00000000        0x0 examples/light_switch/proxy_client/CMakeFiles/light_switch_proxy_client_nrf52832_xxAA_s132_6.0.0.dir/__/__/__/mesh/prov/src/prov_utils.c.obj
 .bss           0x00000000        0x0 examples/light_switch/proxy_client/CMakeFiles/light_switch_proxy_client_nrf52832_xxAA_s132_6.0.0.dir/__/__/__/mesh/prov/src/prov_utils.c.obj
 .text          0x00000000        0x0 examples/light_switch/proxy_client/CMakeFiles/light_switch_proxy_client_nrf52832_xxAA_s132_6.0.0.dir/__/__/__/mesh/prov/src/prov_bearer_adv.c.obj
 .data          0x00000000        0x0 examples/light_switch/proxy_client/CMakeFiles/light_switch_proxy_client_nrf52832_xxAA_s132_6.0.0.dir/__/__/__/mesh/prov/src/prov_bearer_adv.c.obj
 .bss           0x00000000        0x0 examples/light_switch/proxy_client/CMakeFiles/light_switch_proxy_client_nrf52832_xxAA_s132_6.0.0.dir/__/__/__/mesh/prov/src/prov_bearer_adv.c.obj
 .text.calculate_3GPP_CRC
                0x00000000       0x28 examples/light_switch/proxy_client/CMakeFiles/light_switch_proxy_client_nrf52832_xxAA_s132_6.0.0.dir/__/__/__/mesh/prov/src/prov_bearer_adv.c.obj
 .text          0x00000000        0x0 examples/light_switch/proxy_client/CMakeFiles/light_switch_proxy_client_nrf52832_xxAA_s132_6.0.0.dir/C_/b/nRF5_SDK_15.0.0_a53641a/modules/nrfx/mdk/system_nrf52.c.obj
 .data          0x00000000        0x0 examples/light_switch/proxy_client/CMakeFiles/light_switch_proxy_client_nrf52832_xxAA_s132_6.0.0.dir/C_/b/nRF5_SDK_15.0.0_a53641a/modules/nrfx/mdk/system_nrf52.c.obj
 .bss           0x00000000        0x0 examples/light_switch/proxy_client/CMakeFiles/light_switch_proxy_client_nrf52832_xxAA_s132_6.0.0.dir/C_/b/nRF5_SDK_15.0.0_a53641a/modules/nrfx/mdk/system_nrf52.c.obj
 .text.SystemCoreClockUpdate
                0x00000000       0x10 examples/light_switch/proxy_client/CMakeFiles/light_switch_proxy_client_nrf52832_xxAA_s132_6.0.0.dir/C_/b/nRF5_SDK_15.0.0_a53641a/modules/nrfx/mdk/system_nrf52.c.obj
 .data          0x00000000        0x0 examples/light_switch/proxy_client/CMakeFiles/light_switch_proxy_client_nrf52832_xxAA_s132_6.0.0.dir/C_/b/nRF5_SDK_15.0.0_a53641a/modules/nrfx/mdk/gcc_startup_nrf52.S.obj
 .bss           0x00000000        0x0 examples/light_switch/proxy_client/CMakeFiles/light_switch_proxy_client_nrf52832_xxAA_s132_6.0.0.dir/C_/b/nRF5_SDK_15.0.0_a53641a/modules/nrfx/mdk/gcc_startup_nrf52.S.obj
 .text          0x00000000        0x0 examples/light_switch/proxy_client/CMakeFiles/light_switch_proxy_client_nrf52832_xxAA_s132_6.0.0.dir/C_/b/nRF5_SDK_15.0.0_a53641a/components/libraries/util/app_error_handler_gcc.c.obj
 .data          0x00000000        0x0 examples/light_switch/proxy_client/CMakeFiles/light_switch_proxy_client_nrf52832_xxAA_s132_6.0.0.dir/C_/b/nRF5_SDK_15.0.0_a53641a/components/libraries/util/app_error_handler_gcc.c.obj
 .bss           0x00000000        0x0 examples/light_switch/proxy_client/CMakeFiles/light_switch_proxy_client_nrf52832_xxAA_s132_6.0.0.dir/C_/b/nRF5_SDK_15.0.0_a53641a/components/libraries/util/app_error_handler_gcc.c.obj
 .text          0x00000000        0x0 external/rtt/librtt_nrf52832_xxAA.a(SEGGER_RTT.c.obj)
 .data          0x00000000        0x0 external/rtt/librtt_nrf52832_xxAA.a(SEGGER_RTT.c.obj)
 .bss           0x00000000        0x0 external/rtt/librtt_nrf52832_xxAA.a(SEGGER_RTT.c.obj)
 .text.SEGGER_RTT_ReadNoLock
                0x00000000      0x100 external/rtt/librtt_nrf52832_xxAA.a(SEGGER_RTT.c.obj)
 .text.SEGGER_RTT_Read
                0x00000000      0x114 external/rtt/librtt_nrf52832_xxAA.a(SEGGER_RTT.c.obj)
 .text.SEGGER_RTT_WriteSkipNoLock
                0x00000000      0x184 external/rtt/librtt_nrf52832_xxAA.a(SEGGER_RTT.c.obj)
 .text.SEGGER_RTT_WriteNoLock
                0x00000000      0x188 external/rtt/librtt_nrf52832_xxAA.a(SEGGER_RTT.c.obj)
 .text.SEGGER_RTT_WriteString
                0x00000000      0x20c external/rtt/librtt_nrf52832_xxAA.a(SEGGER_RTT.c.obj)
 .text.SEGGER_RTT_WaitKey
                0x00000000      0x114 external/rtt/librtt_nrf52832_xxAA.a(SEGGER_RTT.c.obj)
 .text.SEGGER_RTT_HasKey
                0x00000000       0x6c external/rtt/librtt_nrf52832_xxAA.a(SEGGER_RTT.c.obj)
 .text.SEGGER_RTT_HasData
                0x00000000       0x18 external/rtt/librtt_nrf52832_xxAA.a(SEGGER_RTT.c.obj)
 .text.SEGGER_RTT_AllocDownBuffer
                0x00000000       0xbc external/rtt/librtt_nrf52832_xxAA.a(SEGGER_RTT.c.obj)
 .text.SEGGER_RTT_AllocUpBuffer
                0x00000000       0xd8 external/rtt/librtt_nrf52832_xxAA.a(SEGGER_RTT.c.obj)
 .text.SEGGER_RTT_ConfigUpBuffer
                0x00000000       0xd0 external/rtt/librtt_nrf52832_xxAA.a(SEGGER_RTT.c.obj)
 .text.SEGGER_RTT_ConfigDownBuffer
                0x00000000       0xb8 external/rtt/librtt_nrf52832_xxAA.a(SEGGER_RTT.c.obj)
 .text.SEGGER_RTT_SetNameUpBuffer
                0x00000000       0x90 external/rtt/librtt_nrf52832_xxAA.a(SEGGER_RTT.c.obj)
 .text.SEGGER_RTT_SetNameDownBuffer
                0x00000000       0x90 external/rtt/librtt_nrf52832_xxAA.a(SEGGER_RTT.c.obj)
 .text.SEGGER_RTT_Init
                0x00000000       0x60 external/rtt/librtt_nrf52832_xxAA.a(SEGGER_RTT.c.obj)
 .text.SEGGER_RTT_SetTerminal
                0x00000000      0x15c external/rtt/librtt_nrf52832_xxAA.a(SEGGER_RTT.c.obj)
 .text.SEGGER_RTT_TerminalOut
                0x00000000      0x40c external/rtt/librtt_nrf52832_xxAA.a(SEGGER_RTT.c.obj)
 .bss._ActiveTerminal
                0x00000000        0x1 external/rtt/librtt_nrf52832_xxAA.a(SEGGER_RTT.c.obj)
 .rodata._aTerminalId
                0x00000000       0x10 external/rtt/librtt_nrf52832_xxAA.a(SEGGER_RTT.c.obj)
 .text          0x00000000        0x0 external/rtt/librtt_nrf52832_xxAA.a(SEGGER_RTT_printf.c.obj)
 .data          0x00000000        0x0 external/rtt/librtt_nrf52832_xxAA.a(SEGGER_RTT_printf.c.obj)
 .bss           0x00000000        0x0 external/rtt/librtt_nrf52832_xxAA.a(SEGGER_RTT_printf.c.obj)
 .text          0x00000000        0x0 external/micro-ecc/libuECC_nrf52832_xxAA.a(uECC.c.obj)
 .data          0x00000000        0x0 external/micro-ecc/libuECC_nrf52832_xxAA.a(uECC.c.obj)
 .bss           0x00000000        0x0 external/micro-ecc/libuECC_nrf52832_xxAA.a(uECC.c.obj)
 .text.HMAC_finish
                0x00000000       0x70 external/micro-ecc/libuECC_nrf52832_xxAA.a(uECC.c.obj)
 .text.uECC_vli_mmod
                0x00000000      0x3c8 external/micro-ecc/libuECC_nrf52832_xxAA.a(uECC.c.obj)
 .text.uECC_vli_modSub.isra.2
                0x00000000       0x98 external/micro-ecc/libuECC_nrf52832_xxAA.a(uECC.c.obj)
 .text.bits2int
                0x00000000      0x14c external/micro-ecc/libuECC_nrf52832_xxAA.a(uECC.c.obj)
 .text.uECC_sign_with_k
                0x00000000      0x60c external/micro-ecc/libuECC_nrf52832_xxAA.a(uECC.c.obj)
 .text.uECC_set_rng
                0x00000000        0xc external/micro-ecc/libuECC_nrf52832_xxAA.a(uECC.c.obj)
 .text.uECC_get_rng
                0x00000000        0xc external/micro-ecc/libuECC_nrf52832_xxAA.a(uECC.c.obj)
 .text.uECC_curve_private_key_size
                0x00000000       0x10 external/micro-ecc/libuECC_nrf52832_xxAA.a(uECC.c.obj)
 .text.uECC_curve_public_key_size
                0x00000000        0x8 external/micro-ecc/libuECC_nrf52832_xxAA.a(uECC.c.obj)
 .text.uECC_compute_public_key
                0x00000000      0x2e4 external/micro-ecc/libuECC_nrf52832_xxAA.a(uECC.c.obj)
 .text.uECC_sign
                0x00000000       0x60 external/micro-ecc/libuECC_nrf52832_xxAA.a(uECC.c.obj)
 .text.uECC_sign_deterministic
                0x00000000      0x400 external/micro-ecc/libuECC_nrf52832_xxAA.a(uECC.c.obj)
 .text.uECC_verify
                0x00000000      0x95c external/micro-ecc/libuECC_nrf52832_xxAA.a(uECC.c.obj)
 .data          0x00000000        0x0 c:/mesh/arm_gcc/bin/../lib/gcc/arm-none-eabi/6.3.1/thumb/v7e-m/fpv4-sp/hard\libgcc.a(_aeabi_uldivmod.o)
 .bss           0x00000000        0x0 c:/mesh/arm_gcc/bin/../lib/gcc/arm-none-eabi/6.3.1/thumb/v7e-m/fpv4-sp/hard\libgcc.a(_aeabi_uldivmod.o)
 .data          0x00000000        0x0 c:/mesh/arm_gcc/bin/../lib/gcc/arm-none-eabi/6.3.1/thumb/v7e-m/fpv4-sp/hard\libgcc.a(_udivmoddi4.o)
 .bss           0x00000000        0x0 c:/mesh/arm_gcc/bin/../lib/gcc/arm-none-eabi/6.3.1/thumb/v7e-m/fpv4-sp/hard\libgcc.a(_udivmoddi4.o)
 .ARM.extab     0x00000000        0x0 c:/mesh/arm_gcc/bin/../lib/gcc/arm-none-eabi/6.3.1/thumb/v7e-m/fpv4-sp/hard\libgcc.a(_udivmoddi4.o)
 .data          0x00000000        0x0 c:/mesh/arm_gcc/bin/../lib/gcc/arm-none-eabi/6.3.1/thumb/v7e-m/fpv4-sp/hard\libgcc.a(_dvmd_tls.o)
 .bss           0x00000000        0x0 c:/mesh/arm_gcc/bin/../lib/gcc/arm-none-eabi/6.3.1/thumb/v7e-m/fpv4-sp/hard\libgcc.a(_dvmd_tls.o)
 .text          0x00000000        0x0 c:/mesh/arm_gcc/bin/../lib/gcc/arm-none-eabi/6.3.1/../../../../arm-none-eabi/lib/thumb/v7e-m/fpv4-sp/hard\libc_nano.a(lib_a-exit.o)
 .data          0x00000000        0x0 c:/mesh/arm_gcc/bin/../lib/gcc/arm-none-eabi/6.3.1/../../../../arm-none-eabi/lib/thumb/v7e-m/fpv4-sp/hard\libc_nano.a(lib_a-exit.o)
 .bss           0x00000000        0x0 c:/mesh/arm_gcc/bin/../lib/gcc/arm-none-eabi/6.3.1/../../../../arm-none-eabi/lib/thumb/v7e-m/fpv4-sp/hard\libc_nano.a(lib_a-exit.o)
 .text          0x00000000        0x0 c:/mesh/arm_gcc/bin/../lib/gcc/arm-none-eabi/6.3.1/../../../../arm-none-eabi/lib/thumb/v7e-m/fpv4-sp/hard\libc_nano.a(lib_a-impure.o)
 .data          0x00000000        0x0 c:/mesh/arm_gcc/bin/../lib/gcc/arm-none-eabi/6.3.1/../../../../arm-none-eabi/lib/thumb/v7e-m/fpv4-sp/hard\libc_nano.a(lib_a-impure.o)
 .bss           0x00000000        0x0 c:/mesh/arm_gcc/bin/../lib/gcc/arm-none-eabi/6.3.1/../../../../arm-none-eabi/lib/thumb/v7e-m/fpv4-sp/hard\libc_nano.a(lib_a-impure.o)
 .text          0x00000000        0x0 c:/mesh/arm_gcc/bin/../lib/gcc/arm-none-eabi/6.3.1/../../../../arm-none-eabi/lib/thumb/v7e-m/fpv4-sp/hard\libc_nano.a(lib_a-init.o)
 .data          0x00000000        0x0 c:/mesh/arm_gcc/bin/../lib/gcc/arm-none-eabi/6.3.1/../../../../arm-none-eabi/lib/thumb/v7e-m/fpv4-sp/hard\libc_nano.a(lib_a-init.o)
 .bss           0x00000000        0x0 c:/mesh/arm_gcc/bin/../lib/gcc/arm-none-eabi/6.3.1/../../../../arm-none-eabi/lib/thumb/v7e-m/fpv4-sp/hard\libc_nano.a(lib_a-init.o)
 .text          0x00000000        0x0 c:/mesh/arm_gcc/bin/../lib/gcc/arm-none-eabi/6.3.1/../../../../arm-none-eabi/lib/thumb/v7e-m/fpv4-sp/hard\libc_nano.a(lib_a-malloc.o)
 .data          0x00000000        0x0 c:/mesh/arm_gcc/bin/../lib/gcc/arm-none-eabi/6.3.1/../../../../arm-none-eabi/lib/thumb/v7e-m/fpv4-sp/hard\libc_nano.a(lib_a-malloc.o)
 .bss           0x00000000        0x0 c:/mesh/arm_gcc/bin/../lib/gcc/arm-none-eabi/6.3.1/../../../../arm-none-eabi/lib/thumb/v7e-m/fpv4-sp/hard\libc_nano.a(lib_a-malloc.o)
 .text          0x00000000        0x0 c:/mesh/arm_gcc/bin/../lib/gcc/arm-none-eabi/6.3.1/../../../../arm-none-eabi/lib/thumb/v7e-m/fpv4-sp/hard\libc_nano.a(lib_a-memcmp.o)
 .data          0x00000000        0x0 c:/mesh/arm_gcc/bin/../lib/gcc/arm-none-eabi/6.3.1/../../../../arm-none-eabi/lib/thumb/v7e-m/fpv4-sp/hard\libc_nano.a(lib_a-memcmp.o)
 .bss           0x00000000        0x0 c:/mesh/arm_gcc/bin/../lib/gcc/arm-none-eabi/6.3.1/../../../../arm-none-eabi/lib/thumb/v7e-m/fpv4-sp/hard\libc_nano.a(lib_a-memcmp.o)
 .text          0x00000000        0x0 c:/mesh/arm_gcc/bin/../lib/gcc/arm-none-eabi/6.3.1/../../../../arm-none-eabi/lib/thumb/v7e-m/fpv4-sp/hard\libc_nano.a(lib_a-memcpy-stub.o)
 .data          0x00000000        0x0 c:/mesh/arm_gcc/bin/../lib/gcc/arm-none-eabi/6.3.1/../../../../arm-none-eabi/lib/thumb/v7e-m/fpv4-sp/hard\libc_nano.a(lib_a-memcpy-stub.o)
 .bss           0x00000000        0x0 c:/mesh/arm_gcc/bin/../lib/gcc/arm-none-eabi/6.3.1/../../../../arm-none-eabi/lib/thumb/v7e-m/fpv4-sp/hard\libc_nano.a(lib_a-memcpy-stub.o)
 .text          0x00000000        0x0 c:/mesh/arm_gcc/bin/../lib/gcc/arm-none-eabi/6.3.1/../../../../arm-none-eabi/lib/thumb/v7e-m/fpv4-sp/hard\libc_nano.a(lib_a-memset.o)
 .data          0x00000000        0x0 c:/mesh/arm_gcc/bin/../lib/gcc/arm-none-eabi/6.3.1/../../../../arm-none-eabi/lib/thumb/v7e-m/fpv4-sp/hard\libc_nano.a(lib_a-memset.o)
 .bss           0x00000000        0x0 c:/mesh/arm_gcc/bin/../lib/gcc/arm-none-eabi/6.3.1/../../../../arm-none-eabi/lib/thumb/v7e-m/fpv4-sp/hard\libc_nano.a(lib_a-memset.o)
 .text          0x00000000        0x0 c:/mesh/arm_gcc/bin/../lib/gcc/arm-none-eabi/6.3.1/../../../../arm-none-eabi/lib/thumb/v7e-m/fpv4-sp/hard\libc_nano.a(lib_a-nano-freer.o)
 .data          0x00000000        0x0 c:/mesh/arm_gcc/bin/../lib/gcc/arm-none-eabi/6.3.1/../../../../arm-none-eabi/lib/thumb/v7e-m/fpv4-sp/hard\libc_nano.a(lib_a-nano-freer.o)
 .bss           0x00000000        0x0 c:/mesh/arm_gcc/bin/../lib/gcc/arm-none-eabi/6.3.1/../../../../arm-none-eabi/lib/thumb/v7e-m/fpv4-sp/hard\libc_nano.a(lib_a-nano-freer.o)
 .text          0x00000000        0x0 c:/mesh/arm_gcc/bin/../lib/gcc/arm-none-eabi/6.3.1/../../../../arm-none-eabi/lib/thumb/v7e-m/fpv4-sp/hard\libc_nano.a(lib_a-nano-mallocr.o)
 .data          0x00000000        0x0 c:/mesh/arm_gcc/bin/../lib/gcc/arm-none-eabi/6.3.1/../../../../arm-none-eabi/lib/thumb/v7e-m/fpv4-sp/hard\libc_nano.a(lib_a-nano-mallocr.o)
 .bss           0x00000000        0x0 c:/mesh/arm_gcc/bin/../lib/gcc/arm-none-eabi/6.3.1/../../../../arm-none-eabi/lib/thumb/v7e-m/fpv4-sp/hard\libc_nano.a(lib_a-nano-mallocr.o)
 .text          0x00000000        0x0 c:/mesh/arm_gcc/bin/../lib/gcc/arm-none-eabi/6.3.1/../../../../arm-none-eabi/lib/thumb/v7e-m/fpv4-sp/hard\libc_nano.a(lib_a-sbrkr.o)
 .data          0x00000000        0x0 c:/mesh/arm_gcc/bin/../lib/gcc/arm-none-eabi/6.3.1/../../../../arm-none-eabi/lib/thumb/v7e-m/fpv4-sp/hard\libc_nano.a(lib_a-sbrkr.o)
 .bss           0x00000000        0x0 c:/mesh/arm_gcc/bin/../lib/gcc/arm-none-eabi/6.3.1/../../../../arm-none-eabi/lib/thumb/v7e-m/fpv4-sp/hard\libc_nano.a(lib_a-sbrkr.o)
 .text          0x00000000        0x0 c:/mesh/arm_gcc/bin/../lib/gcc/arm-none-eabi/6.3.1/../../../../arm-none-eabi/lib/thumb/v7e-m/fpv4-sp/hard\libc_nano.a(lib_a-strcpy.o)
 .data          0x00000000        0x0 c:/mesh/arm_gcc/bin/../lib/gcc/arm-none-eabi/6.3.1/../../../../arm-none-eabi/lib/thumb/v7e-m/fpv4-sp/hard\libc_nano.a(lib_a-strcpy.o)
 .bss           0x00000000        0x0 c:/mesh/arm_gcc/bin/../lib/gcc/arm-none-eabi/6.3.1/../../../../arm-none-eabi/lib/thumb/v7e-m/fpv4-sp/hard\libc_nano.a(lib_a-strcpy.o)
 .data          0x00000000        0x0 c:/mesh/arm_gcc/bin/../lib/gcc/arm-none-eabi/6.3.1/../../../../arm-none-eabi/lib/thumb/v7e-m/fpv4-sp/hard\libc_nano.a(lib_a-strlen.o)
 .bss           0x00000000        0x0 c:/mesh/arm_gcc/bin/../lib/gcc/arm-none-eabi/6.3.1/../../../../arm-none-eabi/lib/thumb/v7e-m/fpv4-sp/hard\libc_nano.a(lib_a-strlen.o)
 .text          0x00000000        0x0 c:/mesh/arm_gcc/bin/../lib/gcc/arm-none-eabi/6.3.1/../../../../arm-none-eabi/lib/thumb/v7e-m/fpv4-sp/hard\libc_nano.a(lib_a-strrchr.o)
 .data          0x00000000        0x0 c:/mesh/arm_gcc/bin/../lib/gcc/arm-none-eabi/6.3.1/../../../../arm-none-eabi/lib/thumb/v7e-m/fpv4-sp/hard\libc_nano.a(lib_a-strrchr.o)
 .bss           0x00000000        0x0 c:/mesh/arm_gcc/bin/../lib/gcc/arm-none-eabi/6.3.1/../../../../arm-none-eabi/lib/thumb/v7e-m/fpv4-sp/hard\libc_nano.a(lib_a-strrchr.o)
 .text          0x00000000        0x0 c:/mesh/arm_gcc/bin/../lib/gcc/arm-none-eabi/6.3.1/../../../../arm-none-eabi/lib/thumb/v7e-m/fpv4-sp/hard\libc_nano.a(lib_a-mlock.o)
 .data          0x00000000        0x0 c:/mesh/arm_gcc/bin/../lib/gcc/arm-none-eabi/6.3.1/../../../../arm-none-eabi/lib/thumb/v7e-m/fpv4-sp/hard\libc_nano.a(lib_a-mlock.o)
 .bss           0x00000000        0x0 c:/mesh/arm_gcc/bin/../lib/gcc/arm-none-eabi/6.3.1/../../../../arm-none-eabi/lib/thumb/v7e-m/fpv4-sp/hard\libc_nano.a(lib_a-mlock.o)
 .text          0x00000000        0x0 c:/mesh/arm_gcc/bin/../lib/gcc/arm-none-eabi/6.3.1/../../../../arm-none-eabi/lib/thumb/v7e-m/fpv4-sp/hard\libc_nano.a(lib_a-reent.o)
 .data          0x00000000        0x0 c:/mesh/arm_gcc/bin/../lib/gcc/arm-none-eabi/6.3.1/../../../../arm-none-eabi/lib/thumb/v7e-m/fpv4-sp/hard\libc_nano.a(lib_a-reent.o)
 .bss           0x00000000        0x0 c:/mesh/arm_gcc/bin/../lib/gcc/arm-none-eabi/6.3.1/../../../../arm-none-eabi/lib/thumb/v7e-m/fpv4-sp/hard\libc_nano.a(lib_a-reent.o)
 .text.cleanup_glue
                0x00000000       0x1a c:/mesh/arm_gcc/bin/../lib/gcc/arm-none-eabi/6.3.1/../../../../arm-none-eabi/lib/thumb/v7e-m/fpv4-sp/hard\libc_nano.a(lib_a-reent.o)
 .text._reclaim_reent
                0x00000000       0xb8 c:/mesh/arm_gcc/bin/../lib/gcc/arm-none-eabi/6.3.1/../../../../arm-none-eabi/lib/thumb/v7e-m/fpv4-sp/hard\libc_nano.a(lib_a-reent.o)
 .text          0x00000000        0x0 c:/mesh/arm_gcc/bin/../lib/gcc/arm-none-eabi/6.3.1/../../../../arm-none-eabi/lib/thumb/v7e-m/fpv4-sp/hard\libc_nano.a(lib_a-strchr.o)
 .data          0x00000000        0x0 c:/mesh/arm_gcc/bin/../lib/gcc/arm-none-eabi/6.3.1/../../../../arm-none-eabi/lib/thumb/v7e-m/fpv4-sp/hard\libc_nano.a(lib_a-strchr.o)
 .bss           0x00000000        0x0 c:/mesh/arm_gcc/bin/../lib/gcc/arm-none-eabi/6.3.1/../../../../arm-none-eabi/lib/thumb/v7e-m/fpv4-sp/hard\libc_nano.a(lib_a-strchr.o)
 .text          0x00000000        0x0 c:/mesh/arm_gcc/bin/../lib/gcc/arm-none-eabi/6.3.1/thumb/v7e-m/fpv4-sp/hard/crtend.o
 .data          0x00000000        0x0 c:/mesh/arm_gcc/bin/../lib/gcc/arm-none-eabi/6.3.1/thumb/v7e-m/fpv4-sp/hard/crtend.o
 .bss           0x00000000        0x0 c:/mesh/arm_gcc/bin/../lib/gcc/arm-none-eabi/6.3.1/thumb/v7e-m/fpv4-sp/hard/crtend.o
 .text          0x00000000        0x0 c:/mesh/arm_gcc/bin/../lib/gcc/arm-none-eabi/6.3.1/thumb/v7e-m/fpv4-sp/hard/crtn.o
 .data          0x00000000        0x0 c:/mesh/arm_gcc/bin/../lib/gcc/arm-none-eabi/6.3.1/thumb/v7e-m/fpv4-sp/hard/crtn.o
 .bss           0x00000000        0x0 c:/mesh/arm_gcc/bin/../lib/gcc/arm-none-eabi/6.3.1/thumb/v7e-m/fpv4-sp/hard/crtn.o
 .text          0x00000000        0x0 c:/mesh/arm_gcc/bin/../lib/gcc/arm-none-eabi/6.3.1/../../../../arm-none-eabi/lib/thumb/v7e-m/fpv4-sp/hard\libnosys.a(sbrk.o)
 .data          0x00000000        0x0 c:/mesh/arm_gcc/bin/../lib/gcc/arm-none-eabi/6.3.1/../../../../arm-none-eabi/lib/thumb/v7e-m/fpv4-sp/hard\libnosys.a(sbrk.o)
 .bss           0x00000000        0x0 c:/mesh/arm_gcc/bin/../lib/gcc/arm-none-eabi/6.3.1/../../../../arm-none-eabi/lib/thumb/v7e-m/fpv4-sp/hard\libnosys.a(sbrk.o)
 .text          0x00000000        0x0 c:/mesh/arm_gcc/bin/../lib/gcc/arm-none-eabi/6.3.1/../../../../arm-none-eabi/lib/thumb/v7e-m/fpv4-sp/hard\libnosys.a(_exit.o)
 .data          0x00000000        0x0 c:/mesh/arm_gcc/bin/../lib/gcc/arm-none-eabi/6.3.1/../../../../arm-none-eabi/lib/thumb/v7e-m/fpv4-sp/hard\libnosys.a(_exit.o)
 .bss           0x00000000        0x0 c:/mesh/arm_gcc/bin/../lib/gcc/arm-none-eabi/6.3.1/../../../../arm-none-eabi/lib/thumb/v7e-m/fpv4-sp/hard\libnosys.a(_exit.o)

Memory Configuration

Name             Origin             Length             Attributes
FLASH            0x00026000         0x00051000         xr
RAM              0x200032c8         0x0000ca38         xrw
*default*        0x00000000         0xffffffff

Linker script and memory map


.text           0x00026000    0x1c654
 *(.isr_vector)
 .isr_vector    0x00026000      0x200 examples/light_switch/proxy_client/CMakeFiles/light_switch_proxy_client_nrf52832_xxAA_s132_6.0.0.dir/C_/b/nRF5_SDK_15.0.0_a53641a/modules/nrfx/mdk/gcc_startup_nrf52.S.obj
                0x00026000                __isr_vector
 *(.text*)
 .text          0x00026200       0x6c c:/mesh/arm_gcc/bin/../lib/gcc/arm-none-eabi/6.3.1/thumb/v7e-m/fpv4-sp/hard/crtbegin.o
 .text          0x0002626c       0x74 c:/mesh/arm_gcc/bin/../lib/gcc/arm-none-eabi/6.3.1/../../../../arm-none-eabi/lib/thumb/v7e-m/fpv4-sp/hard/crt0.o
                0x0002626c                _start
                0x0002626c                _mainCRTStartup
 .text.sd_app_evt_wait
                0x000262e0        0x4 examples/light_switch/proxy_client/CMakeFiles/light_switch_proxy_client_nrf52832_xxAA_s132_6.0.0.dir/src/main.c.obj
 .text.sd_ble_gap_ppcp_set
                0x000262e4        0x4 examples/light_switch/proxy_client/CMakeFiles/light_switch_proxy_client_nrf52832_xxAA_s132_6.0.0.dir/src/main.c.obj
 .text.sd_ble_gap_device_name_set
                0x000262e8        0x4 examples/light_switch/proxy_client/CMakeFiles/light_switch_proxy_client_nrf52832_xxAA_s132_6.0.0.dir/src/main.c.obj
 .text.on_sd_evt
                0x000262ec        0x4 examples/light_switch/proxy_client/CMakeFiles/light_switch_proxy_client_nrf52832_xxAA_s132_6.0.0.dir/src/main.c.obj
 .text.provisioning_complete_cb
                0x000262f0       0xe4 examples/light_switch/proxy_client/CMakeFiles/light_switch_proxy_client_nrf52832_xxAA_s132_6.0.0.dir/src/main.c.obj
 .text.button_event_handler
                0x000263d4      0x1d0 examples/light_switch/proxy_client/CMakeFiles/light_switch_proxy_client_nrf52832_xxAA_s132_6.0.0.dir/src/main.c.obj
 .text.rtt_input_handler
                0x000265a4        0xc examples/light_switch/proxy_client/CMakeFiles/light_switch_proxy_client_nrf52832_xxAA_s132_6.0.0.dir/src/main.c.obj
 .text.models_init_cb
                0x000265b0       0xbc examples/light_switch/proxy_client/CMakeFiles/light_switch_proxy_client_nrf52832_xxAA_s132_6.0.0.dir/src/main.c.obj
 .text.client_status_cb
                0x0002666c      0x120 examples/light_switch/proxy_client/CMakeFiles/light_switch_proxy_client_nrf52832_xxAA_s132_6.0.0.dir/src/main.c.obj
 .text.config_server_evt_cb
                0x0002678c       0x88 examples/light_switch/proxy_client/CMakeFiles/light_switch_proxy_client_nrf52832_xxAA_s132_6.0.0.dir/src/main.c.obj
 .text.client_publish_timeout_cb
                0x00026814       0x70 examples/light_switch/proxy_client/CMakeFiles/light_switch_proxy_client_nrf52832_xxAA_s132_6.0.0.dir/src/main.c.obj
 .text.startup.main
                0x00026884      0x438 examples/light_switch/proxy_client/CMakeFiles/light_switch_proxy_client_nrf52832_xxAA_s132_6.0.0.dir/src/main.c.obj
                0x00026884                main
 .text.mesh_stack_init
                0x00026cbc       0x9c examples/light_switch/proxy_client/CMakeFiles/light_switch_proxy_client_nrf52832_xxAA_s132_6.0.0.dir/__/__/__/mesh/stack/src/mesh_stack.c.obj
                0x00026cbc                mesh_stack_init
 .text.mesh_stack_start
                0x00026d58       0x20 examples/light_switch/proxy_client/CMakeFiles/light_switch_proxy_client_nrf52832_xxAA_s132_6.0.0.dir/__/__/__/mesh/stack/src/mesh_stack.c.obj
                0x00026d58                mesh_stack_start
 .text.mesh_stack_provisioning_data_store
                0x00026d78       0x78 examples/light_switch/proxy_client/CMakeFiles/light_switch_proxy_client_nrf52832_xxAA_s132_6.0.0.dir/__/__/__/mesh/stack/src/mesh_stack.c.obj
                0x00026d78                mesh_stack_provisioning_data_store
 .text.mesh_stack_config_clear
                0x00026df0       0x14 examples/light_switch/proxy_client/CMakeFiles/light_switch_proxy_client_nrf52832_xxAA_s132_6.0.0.dir/__/__/__/mesh/stack/src/mesh_stack.c.obj
                0x00026df0                mesh_stack_config_clear
 .text.mesh_stack_device_reset
                0x00026e04        0x8 examples/light_switch/proxy_client/CMakeFiles/light_switch_proxy_client_nrf52832_xxAA_s132_6.0.0.dir/__/__/__/mesh/stack/src/mesh_stack.c.obj
                0x00026e04                mesh_stack_device_reset
 .text.sd_state_evt_handler
                0x00026e0c       0x9c examples/light_switch/proxy_client/CMakeFiles/light_switch_proxy_client_nrf52832_xxAA_s132_6.0.0.dir/__/__/common/src/mesh_provisionee.c.obj
 .text.prov_evt_handler
                0x00026ea8       0x8c examples/light_switch/proxy_client/CMakeFiles/light_switch_proxy_client_nrf52832_xxAA_s132_6.0.0.dir/__/__/common/src/mesh_provisionee.c.obj
 .text.mesh_provisionee_prov_start
                0x00026f34       0xac examples/light_switch/proxy_client/CMakeFiles/light_switch_proxy_client_nrf52832_xxAA_s132_6.0.0.dir/__/__/common/src/mesh_provisionee.c.obj
                0x00026f34                mesh_provisionee_prov_start
 .text.TIMER2_IRQHandler
                0x00026fe0       0x34 examples/light_switch/proxy_client/CMakeFiles/light_switch_proxy_client_nrf52832_xxAA_s132_6.0.0.dir/__/__/common/src/rtt_input.c.obj
                0x00026fe0                TIMER2_IRQHandler
 .text.rtt_input_enable
                0x00027014       0x5c examples/light_switch/proxy_client/CMakeFiles/light_switch_proxy_client_nrf52832_xxAA_s132_6.0.0.dir/__/__/common/src/rtt_input.c.obj
                0x00027014                rtt_input_enable
 .text.hal_led_pin_get
                0x00027070       0x18 examples/light_switch/proxy_client/CMakeFiles/light_switch_proxy_client_nrf52832_xxAA_s132_6.0.0.dir/__/__/common/src/simple_hal.c.obj
                0x00027070                hal_led_pin_get
 .text.hal_led_pin_set
                0x00027088       0x18 examples/light_switch/proxy_client/CMakeFiles/light_switch_proxy_client_nrf52832_xxAA_s132_6.0.0.dir/__/__/common/src/simple_hal.c.obj
                0x00027088                hal_led_pin_set
 .text.hal_led_mask_set
                0x000270a0       0x14 examples/light_switch/proxy_client/CMakeFiles/light_switch_proxy_client_nrf52832_xxAA_s132_6.0.0.dir/__/__/common/src/simple_hal.c.obj
                0x000270a0                hal_led_mask_set
 .text.hal_led_blink_ms
                0x000270b4       0x4c examples/light_switch/proxy_client/CMakeFiles/light_switch_proxy_client_nrf52832_xxAA_s132_6.0.0.dir/__/__/common/src/simple_hal.c.obj
                0x000270b4                hal_led_blink_ms
 .text.hal_leds_init
                0x00027100       0x3c examples/light_switch/proxy_client/CMakeFiles/light_switch_proxy_client_nrf52832_xxAA_s132_6.0.0.dir/__/__/common/src/simple_hal.c.obj
                0x00027100                hal_leds_init
 .text.hal_buttons_init
                0x0002713c       0x54 examples/light_switch/proxy_client/CMakeFiles/light_switch_proxy_client_nrf52832_xxAA_s132_6.0.0.dir/__/__/common/src/simple_hal.c.obj
                0x0002713c                hal_buttons_init
 .text.GPIOTE_IRQHandler
                0x00027190      0x114 examples/light_switch/proxy_client/CMakeFiles/light_switch_proxy_client_nrf52832_xxAA_s132_6.0.0.dir/__/__/common/src/simple_hal.c.obj
                0x00027190                GPIOTE_IRQHandler
 .text.sd_ble_gap_adv_set_configure
                0x000272a4        0x4 examples/light_switch/proxy_client/CMakeFiles/light_switch_proxy_client_nrf52832_xxAA_s132_6.0.0.dir/__/__/common/src/mesh_adv.c.obj
 .text.sd_ble_gap_adv_start
                0x000272a8        0x4 examples/light_switch/proxy_client/CMakeFiles/light_switch_proxy_client_nrf52832_xxAA_s132_6.0.0.dir/__/__/common/src/mesh_adv.c.obj
 .text.sd_ble_gap_adv_stop
                0x000272ac        0x4 examples/light_switch/proxy_client/CMakeFiles/light_switch_proxy_client_nrf52832_xxAA_s132_6.0.0.dir/__/__/common/src/mesh_adv.c.obj
 .text.mesh_adv_data_set
                0x000272b0       0xe4 examples/light_switch/proxy_client/CMakeFiles/light_switch_proxy_client_nrf52832_xxAA_s132_6.0.0.dir/__/__/common/src/mesh_adv.c.obj
                0x000272b0                mesh_adv_data_set
 .text.mesh_adv_params_set
                0x00027394       0x14 examples/light_switch/proxy_client/CMakeFiles/light_switch_proxy_client_nrf52832_xxAA_s132_6.0.0.dir/__/__/common/src/mesh_adv.c.obj
                0x00027394                mesh_adv_params_set
 .text.mesh_adv_start
                0x000273a8       0x1c examples/light_switch/proxy_client/CMakeFiles/light_switch_proxy_client_nrf52832_xxAA_s132_6.0.0.dir/__/__/common/src/mesh_adv.c.obj
                0x000273a8                mesh_adv_start
 .text.mesh_adv_stop
                0x000273c4       0x1c examples/light_switch/proxy_client/CMakeFiles/light_switch_proxy_client_nrf52832_xxAA_s132_6.0.0.dir/__/__/common/src/mesh_adv.c.obj
                0x000273c4                mesh_adv_stop
 .text.pb_gatt_fsm_action
                0x000273e0       0x10 examples/light_switch/proxy_client/CMakeFiles/light_switch_proxy_client_nrf52832_xxAA_s132_6.0.0.dir/__/__/__/mesh/prov/src/nrf_mesh_prov_bearer_gatt.c.obj
 .text.pb_gatt_fsm_guard
                0x000273f0       0x10 examples/light_switch/proxy_client/CMakeFiles/light_switch_proxy_client_nrf52832_xxAA_s132_6.0.0.dir/__/__/__/mesh/prov/src/nrf_mesh_prov_bearer_gatt.c.obj
 .text.a_link_open_notify
                0x00027400        0xc examples/light_switch/proxy_client/CMakeFiles/light_switch_proxy_client_nrf52832_xxAA_s132_6.0.0.dir/__/__/__/mesh/prov/src/nrf_mesh_prov_bearer_gatt.c.obj
 .text.a_pdu_ack
                0x0002740c        0xc examples/light_switch/proxy_client/CMakeFiles/light_switch_proxy_client_nrf52832_xxAA_s132_6.0.0.dir/__/__/__/mesh/prov/src/nrf_mesh_prov_bearer_gatt.c.obj
 .text.link_evt_process
                0x00027418        0xc examples/light_switch/proxy_client/CMakeFiles/light_switch_proxy_client_nrf52832_xxAA_s132_6.0.0.dir/__/__/__/mesh/prov/src/nrf_mesh_prov_bearer_gatt.c.obj
 .text.link_timer_cb
                0x00027424       0x24 examples/light_switch/proxy_client/CMakeFiles/light_switch_proxy_client_nrf52832_xxAA_s132_6.0.0.dir/__/__/__/mesh/prov/src/nrf_mesh_prov_bearer_gatt.c.obj
 .text.tx_cb    0x00027448       0x30 examples/light_switch/proxy_client/CMakeFiles/light_switch_proxy_client_nrf52832_xxAA_s132_6.0.0.dir/__/__/__/mesh/prov/src/nrf_mesh_prov_bearer_gatt.c.obj
 .text.mesh_gatt_event_handler
                0x00027478       0xb0 examples/light_switch/proxy_client/CMakeFiles/light_switch_proxy_client_nrf52832_xxAA_s132_6.0.0.dir/__/__/__/mesh/prov/src/nrf_mesh_prov_bearer_gatt.c.obj
 .text.a_listen_stop
                0x00027528        0x4 examples/light_switch/proxy_client/CMakeFiles/light_switch_proxy_client_nrf52832_xxAA_s132_6.0.0.dir/__/__/__/mesh/prov/src/nrf_mesh_prov_bearer_gatt.c.obj
 .text.a_listen_start
                0x0002752c       0x3c examples/light_switch/proxy_client/CMakeFiles/light_switch_proxy_client_nrf52832_xxAA_s132_6.0.0.dir/__/__/__/mesh/prov/src/nrf_mesh_prov_bearer_gatt.c.obj
 .text.a_pdu_tx
                0x00027568       0x50 examples/light_switch/proxy_client/CMakeFiles/light_switch_proxy_client_nrf52832_xxAA_s132_6.0.0.dir/__/__/__/mesh/prov/src/nrf_mesh_prov_bearer_gatt.c.obj
 .text.a_link_close_notify
                0x000275b8       0x1c examples/light_switch/proxy_client/CMakeFiles/light_switch_proxy_client_nrf52832_xxAA_s132_6.0.0.dir/__/__/__/mesh/prov/src/nrf_mesh_prov_bearer_gatt.c.obj
 .text.a_link_close
                0x000275d4       0x18 examples/light_switch/proxy_client/CMakeFiles/light_switch_proxy_client_nrf52832_xxAA_s132_6.0.0.dir/__/__/__/mesh/prov/src/nrf_mesh_prov_bearer_gatt.c.obj
 .text.listen_start_cb
                0x000275ec       0x48 examples/light_switch/proxy_client/CMakeFiles/light_switch_proxy_client_nrf52832_xxAA_s132_6.0.0.dir/__/__/__/mesh/prov/src/nrf_mesh_prov_bearer_gatt.c.obj
 .text.a_link_timer_start
                0x00027634       0x18 examples/light_switch/proxy_client/CMakeFiles/light_switch_proxy_client_nrf52832_xxAA_s132_6.0.0.dir/__/__/__/mesh/prov/src/nrf_mesh_prov_bearer_gatt.c.obj
 .text.a_pdu_rx
                0x0002764c       0x28 examples/light_switch/proxy_client/CMakeFiles/light_switch_proxy_client_nrf52832_xxAA_s132_6.0.0.dir/__/__/__/mesh/prov/src/nrf_mesh_prov_bearer_gatt.c.obj
 .text.link_close_cb
                0x00027674       0x40 examples/light_switch/proxy_client/CMakeFiles/light_switch_proxy_client_nrf52832_xxAA_s132_6.0.0.dir/__/__/__/mesh/prov/src/nrf_mesh_prov_bearer_gatt.c.obj
 .text.listen_stop_cb
                0x000276b4       0x40 examples/light_switch/proxy_client/CMakeFiles/light_switch_proxy_client_nrf52832_xxAA_s132_6.0.0.dir/__/__/__/mesh/prov/src/nrf_mesh_prov_bearer_gatt.c.obj
 .text.nrf_mesh_prov_bearer_gatt_init
                0x000276f4       0x6c examples/light_switch/proxy_client/CMakeFiles/light_switch_proxy_client_nrf52832_xxAA_s132_6.0.0.dir/__/__/__/mesh/prov/src/nrf_mesh_prov_bearer_gatt.c.obj
                0x000276f4                nrf_mesh_prov_bearer_gatt_init
 .text.nrf_mesh_prov_bearer_gatt_interface_get
                0x00027760       0x14 examples/light_switch/proxy_client/CMakeFiles/light_switch_proxy_client_nrf52832_xxAA_s132_6.0.0.dir/__/__/__/mesh/prov/src/nrf_mesh_prov_bearer_gatt.c.obj
                0x00027760                nrf_mesh_prov_bearer_gatt_interface_get
 .text.app_error_handler_bare
                0x00027774       0x20 examples/light_switch/proxy_client/CMakeFiles/light_switch_proxy_client_nrf52832_xxAA_s132_6.0.0.dir/C_/b/nRF5_SDK_15.0.0_a53641a/components/libraries/util/app_error.c.obj
                0x00027774                app_error_handler_bare
 .text.app_util_critical_region_enter
                0x00027794       0x4c examples/light_switch/proxy_client/CMakeFiles/light_switch_proxy_client_nrf52832_xxAA_s132_6.0.0.dir/C_/b/nRF5_SDK_15.0.0_a53641a/components/libraries/util/app_util_platform.c.obj
                0x00027794                app_util_critical_region_enter
 .text.app_util_critical_region_exit
                0x000277e0       0x30 examples/light_switch/proxy_client/CMakeFiles/light_switch_proxy_client_nrf52832_xxAA_s132_6.0.0.dir/C_/b/nRF5_SDK_15.0.0_a53641a/components/libraries/util/app_util_platform.c.obj
                0x000277e0                app_util_critical_region_exit
 .text.sd_ble_gap_addr_get
                0x00027810        0x4 examples/light_switch/proxy_client/CMakeFiles/light_switch_proxy_client_nrf52832_xxAA_s132_6.0.0.dir/C_/b/nRF5_SDK_15.0.0_a53641a/components/ble/common/ble_advdata.c.obj
 .text.sd_ble_gap_appearance_get
                0x00027814        0x4 examples/light_switch/proxy_client/CMakeFiles/light_switch_proxy_client_nrf52832_xxAA_s132_6.0.0.dir/C_/b/nRF5_SDK_15.0.0_a53641a/components/ble/common/ble_advdata.c.obj
 .text.sd_ble_gap_device_name_get
                0x00027818        0x4 examples/light_switch/proxy_client/CMakeFiles/light_switch_proxy_client_nrf52832_xxAA_s132_6.0.0.dir/C_/b/nRF5_SDK_15.0.0_a53641a/components/ble/common/ble_advdata.c.obj
 .text.sd_ble_uuid_encode
                0x0002781c        0x4 examples/light_switch/proxy_client/CMakeFiles/light_switch_proxy_client_nrf52832_xxAA_s132_6.0.0.dir/C_/b/nRF5_SDK_15.0.0_a53641a/components/ble/common/ble_advdata.c.obj
 .text.uuid_list_sized_encode
                0x00027820       0xb8 examples/light_switch/proxy_client/CMakeFiles/light_switch_proxy_client_nrf52832_xxAA_s132_6.0.0.dir/C_/b/nRF5_SDK_15.0.0_a53641a/components/ble/common/ble_advdata.c.obj
 .text.ble_advdata_encode
                0x000278d8      0x3fc examples/light_switch/proxy_client/CMakeFiles/light_switch_proxy_client_nrf52832_xxAA_s132_6.0.0.dir/C_/b/nRF5_SDK_15.0.0_a53641a/components/ble/common/ble_advdata.c.obj
                0x000278d8                ble_advdata_encode
 .text.nrf_section_iter_init
                0x00027cd4       0x14 examples/light_switch/proxy_client/CMakeFiles/light_switch_proxy_client_nrf52832_xxAA_s132_6.0.0.dir/C_/b/nRF5_SDK_15.0.0_a53641a/components/libraries/experimental_section_vars/nrf_section_iter.c.obj
                0x00027cd4                nrf_section_iter_init
 .text.nrf_section_iter_next
                0x00027ce8       0x18 examples/light_switch/proxy_client/CMakeFiles/light_switch_proxy_client_nrf52832_xxAA_s132_6.0.0.dir/C_/b/nRF5_SDK_15.0.0_a53641a/components/libraries/experimental_section_vars/nrf_section_iter.c.obj
                0x00027ce8                nrf_section_iter_next
 .text.sd_softdevice_enable
                0x00027d00        0x4 examples/light_switch/proxy_client/CMakeFiles/light_switch_proxy_client_nrf52832_xxAA_s132_6.0.0.dir/C_/b/nRF5_SDK_15.0.0_a53641a/components/softdevice/common/nrf_sdh.c.obj
 .text.sd_softdevice_disable
                0x00027d04        0x4 examples/light_switch/proxy_client/CMakeFiles/light_switch_proxy_client_nrf52832_xxAA_s132_6.0.0.dir/C_/b/nRF5_SDK_15.0.0_a53641a/components/softdevice/common/nrf_sdh.c.obj
 .text.nrf_sdh_enable_request
                0x00027d08      0x118 examples/light_switch/proxy_client/CMakeFiles/light_switch_proxy_client_nrf52832_xxAA_s132_6.0.0.dir/C_/b/nRF5_SDK_15.0.0_a53641a/components/softdevice/common/nrf_sdh.c.obj
                0x00027d08                nrf_sdh_enable_request
 .text.nrf_sdh_disable_request
                0x00027e20       0xd8 examples/light_switch/proxy_client/CMakeFiles/light_switch_proxy_client_nrf52832_xxAA_s132_6.0.0.dir/C_/b/nRF5_SDK_15.0.0_a53641a/components/softdevice/common/nrf_sdh.c.obj
                0x00027e20                nrf_sdh_disable_request
 .text.SWI2_EGU2_IRQHandler
                0x00027ef8       0x2c examples/light_switch/proxy_client/CMakeFiles/light_switch_proxy_client_nrf52832_xxAA_s132_6.0.0.dir/C_/b/nRF5_SDK_15.0.0_a53641a/components/softdevice/common/nrf_sdh.c.obj
                0x00027ef8                SWI2_EGU2_IRQHandler
 .text.sd_evt_get
                0x00027f24        0x4 examples/light_switch/proxy_client/CMakeFiles/light_switch_proxy_client_nrf52832_xxAA_s132_6.0.0.dir/C_/b/nRF5_SDK_15.0.0_a53641a/components/softdevice/common/nrf_sdh_soc.c.obj
 .text.nrf_sdh_soc_evts_poll
                0x00027f28       0x4c examples/light_switch/proxy_client/CMakeFiles/light_switch_proxy_client_nrf52832_xxAA_s132_6.0.0.dir/C_/b/nRF5_SDK_15.0.0_a53641a/components/softdevice/common/nrf_sdh_soc.c.obj
 .text.sd_ble_enable
                0x00027f74        0x4 examples/light_switch/proxy_client/CMakeFiles/light_switch_proxy_client_nrf52832_xxAA_s132_6.0.0.dir/C_/b/nRF5_SDK_15.0.0_a53641a/components/softdevice/common/nrf_sdh_ble.c.obj
 .text.sd_ble_cfg_set
                0x00027f78        0x4 examples/light_switch/proxy_client/CMakeFiles/light_switch_proxy_client_nrf52832_xxAA_s132_6.0.0.dir/C_/b/nRF5_SDK_15.0.0_a53641a/components/softdevice/common/nrf_sdh_ble.c.obj
 .text.sd_ble_evt_get
                0x00027f7c        0x4 examples/light_switch/proxy_client/CMakeFiles/light_switch_proxy_client_nrf52832_xxAA_s132_6.0.0.dir/C_/b/nRF5_SDK_15.0.0_a53641a/components/softdevice/common/nrf_sdh_ble.c.obj
 .text.nrf_sdh_ble_evts_poll
                0x00027f80       0x58 examples/light_switch/proxy_client/CMakeFiles/light_switch_proxy_client_nrf52832_xxAA_s132_6.0.0.dir/C_/b/nRF5_SDK_15.0.0_a53641a/components/softdevice/common/nrf_sdh_ble.c.obj
 .text.nrf_sdh_ble_default_cfg_set
                0x00027fd8       0xd4 examples/light_switch/proxy_client/CMakeFiles/light_switch_proxy_client_nrf52832_xxAA_s132_6.0.0.dir/C_/b/nRF5_SDK_15.0.0_a53641a/components/softdevice/common/nrf_sdh_ble.c.obj
                0x00027fd8                nrf_sdh_ble_default_cfg_set
 .text.nrf_sdh_ble_enable
                0x000280ac       0x14 examples/light_switch/proxy_client/CMakeFiles/light_switch_proxy_client_nrf52832_xxAA_s132_6.0.0.dir/C_/b/nRF5_SDK_15.0.0_a53641a/components/softdevice/common/nrf_sdh_ble.c.obj
                0x000280ac                nrf_sdh_ble_enable
 .text._weak_handler
                0x000280c0        0x4 examples/light_switch/proxy_client/CMakeFiles/light_switch_proxy_client_nrf52832_xxAA_s132_6.0.0.dir/__/__/nrf_mesh_weak.c.obj
                0x000280c0                nrf_mesh_dfu_init
                0x000280c0                nrf_mesh_dfu_jump_to_bootloader
                0x000280c0                nrf_mesh_dfu_rx
                0x000280c0                prov_provisioner_provision
                0x000280c0                nrf_mesh_dfu_bank_info_get
                0x000280c0                prov_provisioner_oob_pubkey
                0x000280c0                nrf_mesh_dfu_request
                0x000280c0                nrf_mesh_dfu_bank_flash
                0x000280c0                _weak_handler
                0x000280c0                nrf_mesh_dfu_relay
                0x000280c0                nrf_mesh_dfu_abort
                0x000280c0                mesh_flash_op_execute
                0x000280c0                prov_provisionee_init
                0x000280c0                nrf_mesh_dfu_state_get
                0x000280c0                prov_provisioner_shared_secret
                0x000280c0                prov_provisioner_auth_data
                0x000280c0                prov_provisioner_oob_use
 .text.app_error_fault_handler
                0x000280c4      0x240 examples/light_switch/proxy_client/CMakeFiles/light_switch_proxy_client_nrf52832_xxAA_s132_6.0.0.dir/__/__/common/src/app_error_weak.c.obj
                0x000280c4                app_error_fault_handler
 .text.mesh_assertion_handler
                0x00028304       0x24 examples/light_switch/proxy_client/CMakeFiles/light_switch_proxy_client_nrf52832_xxAA_s132_6.0.0.dir/__/__/common/src/assertion_handler_weak.c.obj
                0x00028304                mesh_assertion_handler
 .text.nrf_mesh_configure_device_uuid_set
                0x00028328       0x10 examples/light_switch/proxy_client/CMakeFiles/light_switch_proxy_client_nrf52832_xxAA_s132_6.0.0.dir/__/__/__/mesh/core/src/nrf_mesh_configure.c.obj
                0x00028328                nrf_mesh_configure_device_uuid_set
 .text.nrf_mesh_configure_device_uuid_reset
                0x00028338       0x2c examples/light_switch/proxy_client/CMakeFiles/light_switch_proxy_client_nrf52832_xxAA_s132_6.0.0.dir/__/__/__/mesh/core/src/nrf_mesh_configure.c.obj
                0x00028338                nrf_mesh_configure_device_uuid_reset
 .text.nrf_mesh_configure_device_uuid_get
                0x00028364        0x8 examples/light_switch/proxy_client/CMakeFiles/light_switch_proxy_client_nrf52832_xxAA_s132_6.0.0.dir/__/__/__/mesh/core/src/nrf_mesh_configure.c.obj
                0x00028364                nrf_mesh_configure_device_uuid_get
 .text.sd_ecb_block_encrypt
                0x0002836c        0x4 examples/light_switch/proxy_client/CMakeFiles/light_switch_proxy_client_nrf52832_xxAA_s132_6.0.0.dir/__/__/__/mesh/core/src/aes.c.obj
 .text.aes_encrypt
                0x00028370       0x34 examples/light_switch/proxy_client/CMakeFiles/light_switch_proxy_client_nrf52832_xxAA_s132_6.0.0.dir/__/__/__/mesh/core/src/aes.c.obj
                0x00028370                aes_encrypt
 .text.msg_cache_init
                0x000283a4       0x24 examples/light_switch/proxy_client/CMakeFiles/light_switch_proxy_client_nrf52832_xxAA_s132_6.0.0.dir/__/__/__/mesh/core/src/msg_cache.c.obj
                0x000283a4                msg_cache_init
 .text.msg_cache_entry_exists
                0x000283c8       0x40 examples/light_switch/proxy_client/CMakeFiles/light_switch_proxy_client_nrf52832_xxAA_s132_6.0.0.dir/__/__/__/mesh/core/src/msg_cache.c.obj
                0x000283c8                msg_cache_entry_exists
 .text.msg_cache_entry_add
                0x00028408       0x30 examples/light_switch/proxy_client/CMakeFiles/light_switch_proxy_client_nrf52832_xxAA_s132_6.0.0.dir/__/__/__/mesh/core/src/msg_cache.c.obj
                0x00028408                msg_cache_entry_add
 .text.tx_complete
                0x00028438       0x30 examples/light_switch/proxy_client/CMakeFiles/light_switch_proxy_client_nrf52832_xxAA_s132_6.0.0.dir/__/__/__/mesh/core/src/transport.c.obj
 .text.upper_trs_packet_encrypt
                0x00028468       0xb4 examples/light_switch/proxy_client/CMakeFiles/light_switch_proxy_client_nrf52832_xxAA_s132_6.0.0.dir/__/__/__/mesh/core/src/transport.c.obj
 .text.trs_sar_packet_out
                0x0002851c      0x1a4 examples/light_switch/proxy_client/CMakeFiles/light_switch_proxy_client_nrf52832_xxAA_s132_6.0.0.dir/__/__/__/mesh/core/src/transport.c.obj
 .text.upper_transport_tx.part.25
                0x000286c0      0x34c examples/light_switch/proxy_client/CMakeFiles/light_switch_proxy_client_nrf52832_xxAA_s132_6.0.0.dir/__/__/__/mesh/core/src/transport.c.obj
 .text.sar_ack_send.part.29
                0x00028a0c       0xd4 examples/light_switch/proxy_client/CMakeFiles/light_switch_proxy_client_nrf52832_xxAA_s132_6.0.0.dir/__/__/__/mesh/core/src/transport.c.obj
 .text.ack_timeout
                0x00028ae0       0x34 examples/light_switch/proxy_client/CMakeFiles/light_switch_proxy_client_nrf52832_xxAA_s132_6.0.0.dir/__/__/__/mesh/core/src/transport.c.obj
 .text.upper_transport_access_packet_in
                0x00028b14      0x334 examples/light_switch/proxy_client/CMakeFiles/light_switch_proxy_client_nrf52832_xxAA_s132_6.0.0.dir/__/__/__/mesh/core/src/transport.c.obj
 .text.sar_ctx_cancel
                0x00028e48      0x148 examples/light_switch/proxy_client/CMakeFiles/light_switch_proxy_client_nrf52832_xxAA_s132_6.0.0.dir/__/__/__/mesh/core/src/transport.c.obj
 .text.retry_timeout
                0x00028f90       0x98 examples/light_switch/proxy_client/CMakeFiles/light_switch_proxy_client_nrf52832_xxAA_s132_6.0.0.dir/__/__/__/mesh/core/src/transport.c.obj
 .text.transport_sar_process
                0x00029028      0x288 examples/light_switch/proxy_client/CMakeFiles/light_switch_proxy_client_nrf52832_xxAA_s132_6.0.0.dir/__/__/__/mesh/core/src/transport.c.obj
 .text.upper_transport_packet_in
                0x000292b0      0x2e4 examples/light_switch/proxy_client/CMakeFiles/light_switch_proxy_client_nrf52832_xxAA_s132_6.0.0.dir/__/__/__/mesh/core/src/transport.c.obj
 .text.abort_timeout
                0x00029594      0x13c examples/light_switch/proxy_client/CMakeFiles/light_switch_proxy_client_nrf52832_xxAA_s132_6.0.0.dir/__/__/__/mesh/core/src/transport.c.obj
 .text.transport_init
                0x000296d0       0xac examples/light_switch/proxy_client/CMakeFiles/light_switch_proxy_client_nrf52832_xxAA_s132_6.0.0.dir/__/__/__/mesh/core/src/transport.c.obj
                0x000296d0                transport_init
 .text.transport_packet_in
                0x0002977c      0x770 examples/light_switch/proxy_client/CMakeFiles/light_switch_proxy_client_nrf52832_xxAA_s132_6.0.0.dir/__/__/__/mesh/core/src/transport.c.obj
                0x0002977c                transport_packet_in
 .text.transport_tx
                0x00029eec      0x100 examples/light_switch/proxy_client/CMakeFiles/light_switch_proxy_client_nrf52832_xxAA_s132_6.0.0.dir/__/__/__/mesh/core/src/transport.c.obj
                0x00029eec                transport_tx
 .text.transport_control_tx
                0x00029fec       0xc0 examples/light_switch/proxy_client/CMakeFiles/light_switch_proxy_client_nrf52832_xxAA_s132_6.0.0.dir/__/__/__/mesh/core/src/transport.c.obj
                0x00029fec                transport_control_tx
 .text.transport_opt_set
                0x0002a0ac       0xdc examples/light_switch/proxy_client/CMakeFiles/light_switch_proxy_client_nrf52832_xxAA_s132_6.0.0.dir/__/__/__/mesh/core/src/transport.c.obj
                0x0002a0ac                transport_opt_set
 .text.transport_opt_get
                0x0002a188       0x84 examples/light_switch/proxy_client/CMakeFiles/light_switch_proxy_client_nrf52832_xxAA_s132_6.0.0.dir/__/__/__/mesh/core/src/transport.c.obj
                0x0002a188                transport_opt_get
 .text.transport_control_packet_consumer_add
                0x0002a20c       0x60 examples/light_switch/proxy_client/CMakeFiles/light_switch_proxy_client_nrf52832_xxAA_s132_6.0.0.dir/__/__/__/mesh/core/src/transport.c.obj
                0x0002a20c                transport_control_packet_consumer_add
 .text.event_handle
                0x0002a26c       0x28 examples/light_switch/proxy_client/CMakeFiles/light_switch_proxy_client_nrf52832_xxAA_s132_6.0.0.dir/__/__/__/mesh/core/src/event.c.obj
                0x0002a26c                event_handle
 .text.event_handler_add
                0x0002a294       0x28 examples/light_switch/proxy_client/CMakeFiles/light_switch_proxy_client_nrf52832_xxAA_s132_6.0.0.dir/__/__/__/mesh/core/src/event.c.obj
                0x0002a294                event_handler_add
 .text.event_handler_remove
                0x0002a2bc       0x28 examples/light_switch/proxy_client/CMakeFiles/light_switch_proxy_client_nrf52832_xxAA_s132_6.0.0.dir/__/__/__/mesh/core/src/event.c.obj
                0x0002a2bc                event_handler_remove
 .text.packet_buffer_init
                0x0002a2e4       0xb4 examples/light_switch/proxy_client/CMakeFiles/light_switch_proxy_client_nrf52832_xxAA_s132_6.0.0.dir/__/__/__/mesh/core/src/packet_buffer.c.obj
                0x0002a2e4                packet_buffer_init
 .text.packet_buffer_flush
                0x0002a398       0x74 examples/light_switch/proxy_client/CMakeFiles/light_switch_proxy_client_nrf52832_xxAA_s132_6.0.0.dir/__/__/__/mesh/core/src/packet_buffer.c.obj
                0x0002a398                packet_buffer_flush
 .text.packet_buffer_reserve
                0x0002a40c       0x9c examples/light_switch/proxy_client/CMakeFiles/light_switch_proxy_client_nrf52832_xxAA_s132_6.0.0.dir/__/__/__/mesh/core/src/packet_buffer.c.obj
                0x0002a40c                packet_buffer_reserve
 .text.packet_buffer_commit
                0x0002a4a8       0x7c examples/light_switch/proxy_client/CMakeFiles/light_switch_proxy_client_nrf52832_xxAA_s132_6.0.0.dir/__/__/__/mesh/core/src/packet_buffer.c.obj
                0x0002a4a8                packet_buffer_commit
 .text.packet_buffer_pop
                0x0002a524       0x50 examples/light_switch/proxy_client/CMakeFiles/light_switch_proxy_client_nrf52832_xxAA_s132_6.0.0.dir/__/__/__/mesh/core/src/packet_buffer.c.obj
                0x0002a524                packet_buffer_pop
 .text.packet_buffer_can_pop
                0x0002a574       0x24 examples/light_switch/proxy_client/CMakeFiles/light_switch_proxy_client_nrf52832_xxAA_s132_6.0.0.dir/__/__/__/mesh/core/src/packet_buffer.c.obj
                0x0002a574                packet_buffer_can_pop
 .text.packet_buffer_packets_ready_to_pop
                0x0002a598       0x48 examples/light_switch/proxy_client/CMakeFiles/light_switch_proxy_client_nrf52832_xxAA_s132_6.0.0.dir/__/__/__/mesh/core/src/packet_buffer.c.obj
                0x0002a598                packet_buffer_packets_ready_to_pop
 .text.packet_buffer_free
                0x0002a5e0       0x8c examples/light_switch/proxy_client/CMakeFiles/light_switch_proxy_client_nrf52832_xxAA_s132_6.0.0.dir/__/__/__/mesh/core/src/packet_buffer.c.obj
                0x0002a5e0                packet_buffer_free
 .text.flash_manager_defrag_is_running
                0x0002a66c       0x10 examples/light_switch/proxy_client/CMakeFiles/light_switch_proxy_client_nrf52832_xxAA_s132_6.0.0.dir/__/__/__/mesh/core/src/flash_manager_defrag.c.obj
                0x0002a66c                flash_manager_defrag_is_running
 .text.fifo_init
                0x0002a67c       0x38 examples/light_switch/proxy_client/CMakeFiles/light_switch_proxy_client_nrf52832_xxAA_s132_6.0.0.dir/__/__/__/mesh/core/src/fifo.c.obj
                0x0002a67c                fifo_init
 .text.fifo_push
                0x0002a6b4       0x54 examples/light_switch/proxy_client/CMakeFiles/light_switch_proxy_client_nrf52832_xxAA_s132_6.0.0.dir/__/__/__/mesh/core/src/fifo.c.obj
                0x0002a6b4                fifo_push
 .text.fifo_pop
                0x0002a708       0x58 examples/light_switch/proxy_client/CMakeFiles/light_switch_proxy_client_nrf52832_xxAA_s132_6.0.0.dir/__/__/__/mesh/core/src/fifo.c.obj
                0x0002a708                fifo_pop
 .text.packet_mgr_init
                0x0002a760       0x4c examples/light_switch/proxy_client/CMakeFiles/light_switch_proxy_client_nrf52832_xxAA_s132_6.0.0.dir/__/__/__/mesh/core/src/packet_mgr.c.obj
                0x0002a760                packet_mgr_init
 .text.iv_update_trigger_if_pending
                0x0002a7ac       0xdc examples/light_switch/proxy_client/CMakeFiles/light_switch_proxy_client_nrf52832_xxAA_s132_6.0.0.dir/__/__/__/mesh/core/src/net_state.c.obj
 .text.mesh_evt_handler
                0x0002a888       0x98 examples/light_switch/proxy_client/CMakeFiles/light_switch_proxy_client_nrf52832_xxAA_s132_6.0.0.dir/__/__/__/mesh/core/src/net_state.c.obj
 .text.iv_update_timer_handler
                0x0002a920       0x70 examples/light_switch/proxy_client/CMakeFiles/light_switch_proxy_client_nrf52832_xxAA_s132_6.0.0.dir/__/__/__/mesh/core/src/net_state.c.obj
 .text.net_state_recover_from_flash
                0x0002a990        0x4 examples/light_switch/proxy_client/CMakeFiles/light_switch_proxy_client_nrf52832_xxAA_s132_6.0.0.dir/__/__/__/mesh/core/src/net_state.c.obj
                0x0002a990                net_state_recover_from_flash
 .text.net_state_reset
                0x0002a994       0x1c examples/light_switch/proxy_client/CMakeFiles/light_switch_proxy_client_nrf52832_xxAA_s132_6.0.0.dir/__/__/__/mesh/core/src/net_state.c.obj
                0x0002a994                net_state_reset
 .text.net_state_init
                0x0002a9b0       0x60 examples/light_switch/proxy_client/CMakeFiles/light_switch_proxy_client_nrf52832_xxAA_s132_6.0.0.dir/__/__/__/mesh/core/src/net_state.c.obj
                0x0002a9b0                net_state_init
 .text.net_state_seqnum_alloc
                0x0002aa10       0x50 examples/light_switch/proxy_client/CMakeFiles/light_switch_proxy_client_nrf52832_xxAA_s132_6.0.0.dir/__/__/__/mesh/core/src/net_state.c.obj
                0x0002aa10                net_state_seqnum_alloc
 .text.net_state_iv_index_lock
                0x0002aa60      0x100 examples/light_switch/proxy_client/CMakeFiles/light_switch_proxy_client_nrf52832_xxAA_s132_6.0.0.dir/__/__/__/mesh/core/src/net_state.c.obj
                0x0002aa60                net_state_iv_index_lock
 .text.net_state_key_refresh_phase_changed
                0x0002ab60       0x20 examples/light_switch/proxy_client/CMakeFiles/light_switch_proxy_client_nrf52832_xxAA_s132_6.0.0.dir/__/__/__/mesh/core/src/net_state.c.obj
                0x0002ab60                net_state_key_refresh_phase_changed
 .text.net_state_beacon_iv_index_get
                0x0002ab80        0xc examples/light_switch/proxy_client/CMakeFiles/light_switch_proxy_client_nrf52832_xxAA_s132_6.0.0.dir/__/__/__/mesh/core/src/net_state.c.obj
                0x0002ab80                net_state_beacon_iv_index_get
 .text.net_state_tx_iv_index_get
                0x0002ab8c       0x14 examples/light_switch/proxy_client/CMakeFiles/light_switch_proxy_client_nrf52832_xxAA_s132_6.0.0.dir/__/__/__/mesh/core/src/net_state.c.obj
                0x0002ab8c                net_state_tx_iv_index_get
 .text.net_state_rx_iv_index_get
                0x0002aba0       0x18 examples/light_switch/proxy_client/CMakeFiles/light_switch_proxy_client_nrf52832_xxAA_s132_6.0.0.dir/__/__/__/mesh/core/src/net_state.c.obj
                0x0002aba0                net_state_rx_iv_index_get
 .text.net_state_iv_update_get
                0x0002abb8        0xc examples/light_switch/proxy_client/CMakeFiles/light_switch_proxy_client_nrf52832_xxAA_s132_6.0.0.dir/__/__/__/mesh/core/src/net_state.c.obj
                0x0002abb8                net_state_iv_update_get
 .text.net_state_iv_index_set
                0x0002abc4       0x2c examples/light_switch/proxy_client/CMakeFiles/light_switch_proxy_client_nrf52832_xxAA_s132_6.0.0.dir/__/__/__/mesh/core/src/net_state.c.obj
                0x0002abc4                net_state_iv_index_set
 .text.send_end_events
                0x0002abf0       0x90 examples/light_switch/proxy_client/CMakeFiles/light_switch_proxy_client_nrf52832_xxAA_s132_6.0.0.dir/__/__/__/mesh/core/src/mesh_flash.c.obj
 .text.mesh_flash_init
                0x0002ac80       0x88 examples/light_switch/proxy_client/CMakeFiles/light_switch_proxy_client_nrf52832_xxAA_s132_6.0.0.dir/__/__/__/mesh/core/src/mesh_flash.c.obj
                0x0002ac80                mesh_flash_init
 .text.nrf_mesh_address_type_get
                0x0002ad08       0x10 examples/light_switch/proxy_client/CMakeFiles/light_switch_proxy_client_nrf52832_xxAA_s132_6.0.0.dir/__/__/__/mesh/core/src/nrf_mesh_utils.c.obj
                0x0002ad08                nrf_mesh_address_type_get
 .text.sd_softdevice_is_enabled
                0x0002ad18        0x4 examples/light_switch/proxy_client/CMakeFiles/light_switch_proxy_client_nrf52832_xxAA_s132_6.0.0.dir/__/__/__/mesh/core/src/nrf_mesh.c.obj
 .text.nrf_mesh_listen
                0x0002ad1c      0x1c8 examples/light_switch/proxy_client/CMakeFiles/light_switch_proxy_client_nrf52832_xxAA_s132_6.0.0.dir/__/__/__/mesh/core/src/nrf_mesh.c.obj
 .text.scanner_packet_process_cb
                0x0002aee4       0x88 examples/light_switch/proxy_client/CMakeFiles/light_switch_proxy_client_nrf52832_xxAA_s132_6.0.0.dir/__/__/__/mesh/core/src/nrf_mesh.c.obj
 .text.nrf_mesh_init
                0x0002af6c       0xd0 examples/light_switch/proxy_client/CMakeFiles/light_switch_proxy_client_nrf52832_xxAA_s132_6.0.0.dir/__/__/__/mesh/core/src/nrf_mesh.c.obj
                0x0002af6c                nrf_mesh_init
 .text.nrf_mesh_enable
                0x0002b03c       0x48 examples/light_switch/proxy_client/CMakeFiles/light_switch_proxy_client_nrf52832_xxAA_s132_6.0.0.dir/__/__/__/mesh/core/src/nrf_mesh.c.obj
                0x0002b03c                nrf_mesh_enable
 .text.nrf_mesh_disable
                0x0002b084       0x2c examples/light_switch/proxy_client/CMakeFiles/light_switch_proxy_client_nrf52832_xxAA_s132_6.0.0.dir/__/__/__/mesh/core/src/nrf_mesh.c.obj
                0x0002b084                nrf_mesh_disable
 .text.nrf_mesh_packet_send
                0x0002b0b0       0x94 examples/light_switch/proxy_client/CMakeFiles/light_switch_proxy_client_nrf52832_xxAA_s132_6.0.0.dir/__/__/__/mesh/core/src/nrf_mesh.c.obj
                0x0002b0b0                nrf_mesh_packet_send
 .text.nrf_mesh_evt_handler_add
                0x0002b144        0x4 examples/light_switch/proxy_client/CMakeFiles/light_switch_proxy_client_nrf52832_xxAA_s132_6.0.0.dir/__/__/__/mesh/core/src/nrf_mesh.c.obj
                0x0002b144                nrf_mesh_evt_handler_add
 .text.nrf_mesh_on_sd_evt
                0x0002b148        0xc examples/light_switch/proxy_client/CMakeFiles/light_switch_proxy_client_nrf52832_xxAA_s132_6.0.0.dir/__/__/__/mesh/core/src/nrf_mesh.c.obj
                0x0002b148                nrf_mesh_on_sd_evt
 .text.nrf_mesh_subnet_added
                0x0002b154        0x4 examples/light_switch/proxy_client/CMakeFiles/light_switch_proxy_client_nrf52832_xxAA_s132_6.0.0.dir/__/__/__/mesh/core/src/nrf_mesh.c.obj
                0x0002b154                nrf_mesh_subnet_added
 .text.queue_init
                0x0002b158       0x1c examples/light_switch/proxy_client/CMakeFiles/light_switch_proxy_client_nrf52832_xxAA_s132_6.0.0.dir/__/__/__/mesh/core/src/queue.c.obj
                0x0002b158                queue_init
 .text.queue_push
                0x0002b174       0x44 examples/light_switch/proxy_client/CMakeFiles/light_switch_proxy_client_nrf52832_xxAA_s132_6.0.0.dir/__/__/__/mesh/core/src/queue.c.obj
                0x0002b174                queue_push
 .text.queue_pop
                0x0002b1b8       0x2c examples/light_switch/proxy_client/CMakeFiles/light_switch_proxy_client_nrf52832_xxAA_s132_6.0.0.dir/__/__/__/mesh/core/src/queue.c.obj
                0x0002b1b8                queue_pop
 .text.queue_peek
                0x0002b1e4       0x14 examples/light_switch/proxy_client/CMakeFiles/light_switch_proxy_client_nrf52832_xxAA_s132_6.0.0.dir/__/__/__/mesh/core/src/queue.c.obj
                0x0002b1e4                queue_peek
 .text.sd_power_reset_reason_clr
                0x0002b1f8        0x4 examples/light_switch/proxy_client/CMakeFiles/light_switch_proxy_client_nrf52832_xxAA_s132_6.0.0.dir/__/__/__/mesh/core/src/hal.c.obj
 .text.sd_power_gpregret_set
                0x0002b1fc        0x4 examples/light_switch/proxy_client/CMakeFiles/light_switch_proxy_client_nrf52832_xxAA_s132_6.0.0.dir/__/__/__/mesh/core/src/hal.c.obj
 .text.hal_device_reset
                0x0002b200       0x38 examples/light_switch/proxy_client/CMakeFiles/light_switch_proxy_client_nrf52832_xxAA_s132_6.0.0.dir/__/__/__/mesh/core/src/hal.c.obj
                0x0002b200                hal_device_reset
 .text.hal_lfclk_ppm_get
                0x0002b238       0x14 examples/light_switch/proxy_client/CMakeFiles/light_switch_proxy_client_nrf52832_xxAA_s132_6.0.0.dir/__/__/__/mesh/core/src/hal.c.obj
                0x0002b238                hal_lfclk_ppm_get
 .text.aes_cmac_subkey_generate
                0x0002b24c      0x2b0 examples/light_switch/proxy_client/CMakeFiles/light_switch_proxy_client_nrf52832_xxAA_s132_6.0.0.dir/__/__/__/mesh/core/src/aes_cmac.c.obj
                0x0002b24c                aes_cmac_subkey_generate
 .text.aes_cmac
                0x0002b4fc      0x49c examples/light_switch/proxy_client/CMakeFiles/light_switch_proxy_client_nrf52832_xxAA_s132_6.0.0.dir/__/__/__/mesh/core/src/aes_cmac.c.obj
                0x0002b4fc                aes_cmac
 .text.timer_cb
                0x0002b998        0xc examples/light_switch/proxy_client/CMakeFiles/light_switch_proxy_client_nrf52832_xxAA_s132_6.0.0.dir/__/__/__/mesh/core/src/timer_scheduler.c.obj
 .text.add_evt.constprop.1
                0x0002b9a4       0x60 examples/light_switch/proxy_client/CMakeFiles/light_switch_proxy_client_nrf52832_xxAA_s132_6.0.0.dir/__/__/__/mesh/core/src/timer_scheduler.c.obj
 .text.flag_event_cb
                0x0002ba04      0x328 examples/light_switch/proxy_client/CMakeFiles/light_switch_proxy_client_nrf52832_xxAA_s132_6.0.0.dir/__/__/__/mesh/core/src/timer_scheduler.c.obj
 .text.timer_sch_init
                0x0002bd2c       0x24 examples/light_switch/proxy_client/CMakeFiles/light_switch_proxy_client_nrf52832_xxAA_s132_6.0.0.dir/__/__/__/mesh/core/src/timer_scheduler.c.obj
                0x0002bd2c                timer_sch_init
 .text.timer_sch_schedule
                0x0002bd50       0x64 examples/light_switch/proxy_client/CMakeFiles/light_switch_proxy_client_nrf52832_xxAA_s132_6.0.0.dir/__/__/__/mesh/core/src/timer_scheduler.c.obj
                0x0002bd50                timer_sch_schedule
 .text.timer_sch_abort
                0x0002bdb4       0x5c examples/light_switch/proxy_client/CMakeFiles/light_switch_proxy_client_nrf52832_xxAA_s132_6.0.0.dir/__/__/__/mesh/core/src/timer_scheduler.c.obj
                0x0002bdb4                timer_sch_abort
 .text.timer_sch_reschedule
                0x0002be10       0x88 examples/light_switch/proxy_client/CMakeFiles/light_switch_proxy_client_nrf52832_xxAA_s132_6.0.0.dir/__/__/__/mesh/core/src/timer_scheduler.c.obj
                0x0002be10                timer_sch_reschedule
 .text.timer_event_handler
                0x0002be98       0xd0 examples/light_switch/proxy_client/CMakeFiles/light_switch_proxy_client_nrf52832_xxAA_s132_6.0.0.dir/__/__/__/mesh/core/src/timer.c.obj
                0x0002be98                timer_event_handler
 .text.timer_order_cb
                0x0002bf68       0x98 examples/light_switch/proxy_client/CMakeFiles/light_switch_proxy_client_nrf52832_xxAA_s132_6.0.0.dir/__/__/__/mesh/core/src/timer.c.obj
                0x0002bf68                timer_order_cb
 .text.timer_now
                0x0002c000       0x58 examples/light_switch/proxy_client/CMakeFiles/light_switch_proxy_client_nrf52832_xxAA_s132_6.0.0.dir/__/__/__/mesh/core/src/timer.c.obj
                0x0002c000                timer_now
 .text.timer_on_ts_begin
                0x0002c058      0x104 examples/light_switch/proxy_client/CMakeFiles/light_switch_proxy_client_nrf52832_xxAA_s132_6.0.0.dir/__/__/__/mesh/core/src/timer.c.obj
                0x0002c058                timer_on_ts_begin
 .text.timer_on_ts_end
                0x0002c15c       0x78 examples/light_switch/proxy_client/CMakeFiles/light_switch_proxy_client_nrf52832_xxAA_s132_6.0.0.dir/__/__/__/mesh/core/src/timer.c.obj
                0x0002c15c                timer_on_ts_end
 .text.timer_cb
                0x0002c1d4       0x10 examples/light_switch/proxy_client/CMakeFiles/light_switch_proxy_client_nrf52832_xxAA_s132_6.0.0.dir/__/__/__/mesh/core/src/ticker.c.obj
 .text.ticker_init
                0x0002c1e4       0x3c examples/light_switch/proxy_client/CMakeFiles/light_switch_proxy_client_nrf52832_xxAA_s132_6.0.0.dir/__/__/__/mesh/core/src/ticker.c.obj
                0x0002c1e4                ticker_init
 .text.sd_rand_application_bytes_available_get
                0x0002c220        0x4 examples/light_switch/proxy_client/CMakeFiles/light_switch_proxy_client_nrf52832_xxAA_s132_6.0.0.dir/__/__/__/mesh/core/src/rand.c.obj
 .text.sd_rand_application_vector_get
                0x0002c224        0x4 examples/light_switch/proxy_client/CMakeFiles/light_switch_proxy_client_nrf52832_xxAA_s132_6.0.0.dir/__/__/__/mesh/core/src/rand.c.obj
 .text.rand_prng_seed
                0x0002c228       0x6c examples/light_switch/proxy_client/CMakeFiles/light_switch_proxy_client_nrf52832_xxAA_s132_6.0.0.dir/__/__/__/mesh/core/src/rand.c.obj
                0x0002c228                rand_prng_seed
 .text.rand_prng_get
                0x0002c294       0x28 examples/light_switch/proxy_client/CMakeFiles/light_switch_proxy_client_nrf52832_xxAA_s132_6.0.0.dir/__/__/__/mesh/core/src/rand.c.obj
                0x0002c294                rand_prng_get
 .text.rand_hw_rng_get
                0x0002c2bc       0x4c examples/light_switch/proxy_client/CMakeFiles/light_switch_proxy_client_nrf52832_xxAA_s132_6.0.0.dir/__/__/__/mesh/core/src/rand.c.obj
                0x0002c2bc                rand_hw_rng_get
 .text.nrf_mesh_opt_set
                0x0002c308       0x28 examples/light_switch/proxy_client/CMakeFiles/light_switch_proxy_client_nrf52832_xxAA_s132_6.0.0.dir/__/__/__/mesh/core/src/nrf_mesh_opt.c.obj
                0x0002c308                nrf_mesh_opt_set
 .text.nrf_mesh_opt_get
                0x0002c330       0x28 examples/light_switch/proxy_client/CMakeFiles/light_switch_proxy_client_nrf52832_xxAA_s132_6.0.0.dir/__/__/__/mesh/core/src/nrf_mesh_opt.c.obj
                0x0002c330                nrf_mesh_opt_get
 .text.sd_radio_session_open
                0x0002c358        0x4 examples/light_switch/proxy_client/CMakeFiles/light_switch_proxy_client_nrf52832_xxAA_s132_6.0.0.dir/__/__/__/mesh/core/src/timeslot.c.obj
 .text.sd_radio_session_close
                0x0002c35c        0x4 examples/light_switch/proxy_client/CMakeFiles/light_switch_proxy_client_nrf52832_xxAA_s132_6.0.0.dir/__/__/__/mesh/core/src/timeslot.c.obj
 .text.sd_radio_request
                0x0002c360        0x4 examples/light_switch/proxy_client/CMakeFiles/light_switch_proxy_client_nrf52832_xxAA_s132_6.0.0.dir/__/__/__/mesh/core/src/timeslot.c.obj
 .text.end_timer_handler
                0x0002c364       0x2c examples/light_switch/proxy_client/CMakeFiles/light_switch_proxy_client_nrf52832_xxAA_s132_6.0.0.dir/__/__/__/mesh/core/src/timeslot.c.obj
 .text.radio_signal_callback
                0x0002c390      0x2e4 examples/light_switch/proxy_client/CMakeFiles/light_switch_proxy_client_nrf52832_xxAA_s132_6.0.0.dir/__/__/__/mesh/core/src/timeslot.c.obj
 .text.timeslot_sd_event_handler
                0x0002c674       0x44 examples/light_switch/proxy_client/CMakeFiles/light_switch_proxy_client_nrf52832_xxAA_s132_6.0.0.dir/__/__/__/mesh/core/src/timeslot.c.obj
                0x0002c674                timeslot_sd_event_handler
 .text.timeslot_init
                0x0002c6b8       0x4c examples/light_switch/proxy_client/CMakeFiles/light_switch_proxy_client_nrf52832_xxAA_s132_6.0.0.dir/__/__/__/mesh/core/src/timeslot.c.obj
                0x0002c6b8                timeslot_init
 .text.timeslot_start
                0x0002c704       0x20 examples/light_switch/proxy_client/CMakeFiles/light_switch_proxy_client_nrf52832_xxAA_s132_6.0.0.dir/__/__/__/mesh/core/src/timeslot.c.obj
                0x0002c704                timeslot_start
 .text.timeslot_stop
                0x0002c724       0x30 examples/light_switch/proxy_client/CMakeFiles/light_switch_proxy_client_nrf52832_xxAA_s132_6.0.0.dir/__/__/__/mesh/core/src/timeslot.c.obj
                0x0002c724                timeslot_stop
 .text.timeslot_state_lock
                0x0002c754       0x44 examples/light_switch/proxy_client/CMakeFiles/light_switch_proxy_client_nrf52832_xxAA_s132_6.0.0.dir/__/__/__/mesh/core/src/timeslot.c.obj
                0x0002c754                timeslot_state_lock
 .text.timeslot_end_is_pending
                0x0002c798       0x24 examples/light_switch/proxy_client/CMakeFiles/light_switch_proxy_client_nrf52832_xxAA_s132_6.0.0.dir/__/__/__/mesh/core/src/timeslot.c.obj
                0x0002c798                timeslot_end_is_pending
 .text.timeslot_start_time_get
                0x0002c7bc        0xc examples/light_switch/proxy_client/CMakeFiles/light_switch_proxy_client_nrf52832_xxAA_s132_6.0.0.dir/__/__/__/mesh/core/src/timeslot.c.obj
                0x0002c7bc                timeslot_start_time_get
 .text.timeslot_remaining_time_get
                0x0002c7c8       0x40 examples/light_switch/proxy_client/CMakeFiles/light_switch_proxy_client_nrf52832_xxAA_s132_6.0.0.dir/__/__/__/mesh/core/src/timeslot.c.obj
                0x0002c7c8                timeslot_remaining_time_get
 .text.timeslot_is_in_cb
                0x0002c808        0xc examples/light_switch/proxy_client/CMakeFiles/light_switch_proxy_client_nrf52832_xxAA_s132_6.0.0.dir/__/__/__/mesh/core/src/timeslot.c.obj
                0x0002c808                timeslot_is_in_cb
 .text.timeslot_trigger
                0x0002c814       0x24 examples/light_switch/proxy_client/CMakeFiles/light_switch_proxy_client_nrf52832_xxAA_s132_6.0.0.dir/__/__/__/mesh/core/src/timeslot.c.obj
                0x0002c814                timeslot_trigger
 .text.bearer_event_init
                0x0002c838       0x4c examples/light_switch/proxy_client/CMakeFiles/light_switch_proxy_client_nrf52832_xxAA_s132_6.0.0.dir/__/__/__/mesh/core/src/bearer_event.c.obj
                0x0002c838                bearer_event_init
 .text.bearer_event_timer_post
                0x0002c884       0x50 examples/light_switch/proxy_client/CMakeFiles/light_switch_proxy_client_nrf52832_xxAA_s132_6.0.0.dir/__/__/__/mesh/core/src/bearer_event.c.obj
                0x0002c884                bearer_event_timer_post
 .text.bearer_event_critical_section_begin
                0x0002c8d4       0x44 examples/light_switch/proxy_client/CMakeFiles/light_switch_proxy_client_nrf52832_xxAA_s132_6.0.0.dir/__/__/__/mesh/core/src/bearer_event.c.obj
                0x0002c8d4                bearer_event_critical_section_begin
 .text.bearer_event_critical_section_end
                0x0002c918       0x40 examples/light_switch/proxy_client/CMakeFiles/light_switch_proxy_client_nrf52832_xxAA_s132_6.0.0.dir/__/__/__/mesh/core/src/bearer_event.c.obj
                0x0002c918                bearer_event_critical_section_end
 .text.bearer_event_flag_add
                0x0002c958       0x40 examples/light_switch/proxy_client/CMakeFiles/light_switch_proxy_client_nrf52832_xxAA_s132_6.0.0.dir/__/__/__/mesh/core/src/bearer_event.c.obj
                0x0002c958                bearer_event_flag_add
 .text.bearer_event_flag_set
                0x0002c998       0x5c examples/light_switch/proxy_client/CMakeFiles/light_switch_proxy_client_nrf52832_xxAA_s132_6.0.0.dir/__/__/__/mesh/core/src/bearer_event.c.obj
                0x0002c998                bearer_event_flag_set
 .text.bearer_event_sequential_add
                0x0002c9f4       0x44 examples/light_switch/proxy_client/CMakeFiles/light_switch_proxy_client_nrf52832_xxAA_s132_6.0.0.dir/__/__/__/mesh/core/src/bearer_event.c.obj
                0x0002c9f4                bearer_event_sequential_add
 .text.bearer_event_sequential_post
                0x0002ca38       0x64 examples/light_switch/proxy_client/CMakeFiles/light_switch_proxy_client_nrf52832_xxAA_s132_6.0.0.dir/__/__/__/mesh/core/src/bearer_event.c.obj
                0x0002ca38                bearer_event_sequential_post
 .text.bearer_event_sequential_pending
                0x0002ca9c       0x14 examples/light_switch/proxy_client/CMakeFiles/light_switch_proxy_client_nrf52832_xxAA_s132_6.0.0.dir/__/__/__/mesh/core/src/bearer_event.c.obj
                0x0002ca9c                bearer_event_sequential_pending
 .text.bearer_event_handler
                0x0002cab0      0x154 examples/light_switch/proxy_client/CMakeFiles/light_switch_proxy_client_nrf52832_xxAA_s132_6.0.0.dir/__/__/__/mesh/core/src/bearer_event.c.obj
                0x0002cab0                bearer_event_handler
 .text.QDEC_IRQHandler
                0x0002cc04        0x4 examples/light_switch/proxy_client/CMakeFiles/light_switch_proxy_client_nrf52832_xxAA_s132_6.0.0.dir/__/__/__/mesh/core/src/bearer_event.c.obj
                0x0002cc04                QDEC_IRQHandler
 .text.enc_aes_encrypt
                0x0002cc08        0x4 examples/light_switch/proxy_client/CMakeFiles/light_switch_proxy_client_nrf52832_xxAA_s132_6.0.0.dir/__/__/__/mesh/core/src/enc.c.obj
                0x0002cc08                enc_aes_encrypt
 .text.enc_aes_cmac
                0x0002cc0c        0x4 examples/light_switch/proxy_client/CMakeFiles/light_switch_proxy_client_nrf52832_xxAA_s132_6.0.0.dir/__/__/__/mesh/core/src/enc.c.obj
                0x0002cc0c                enc_aes_cmac
 .text.enc_aes_ccm_encrypt
                0x0002cc10        0x4 examples/light_switch/proxy_client/CMakeFiles/light_switch_proxy_client_nrf52832_xxAA_s132_6.0.0.dir/__/__/__/mesh/core/src/enc.c.obj
                0x0002cc10                enc_aes_ccm_encrypt
 .text.enc_aes_ccm_decrypt
                0x0002cc14        0x4 examples/light_switch/proxy_client/CMakeFiles/light_switch_proxy_client_nrf52832_xxAA_s132_6.0.0.dir/__/__/__/mesh/core/src/enc.c.obj
                0x0002cc14                enc_aes_ccm_decrypt
 .text.enc_nonce_generate
                0x0002cc18       0xc8 examples/light_switch/proxy_client/CMakeFiles/light_switch_proxy_client_nrf52832_xxAA_s132_6.0.0.dir/__/__/__/mesh/core/src/enc.c.obj
                0x0002cc18                enc_nonce_generate
 .text.enc_s1   0x0002cce0       0x30 examples/light_switch/proxy_client/CMakeFiles/light_switch_proxy_client_nrf52832_xxAA_s132_6.0.0.dir/__/__/__/mesh/core/src/enc.c.obj
                0x0002cce0                enc_s1
 .text.enc_k1   0x0002cd10       0x44 examples/light_switch/proxy_client/CMakeFiles/light_switch_proxy_client_nrf52832_xxAA_s132_6.0.0.dir/__/__/__/mesh/core/src/enc.c.obj
                0x0002cd10                enc_k1
 .text.enc_k2   0x0002cd54       0xe0 examples/light_switch/proxy_client/CMakeFiles/light_switch_proxy_client_nrf52832_xxAA_s132_6.0.0.dir/__/__/__/mesh/core/src/enc.c.obj
                0x0002cd54                enc_k2
 .text.enc_k3   0x0002ce34       0x68 examples/light_switch/proxy_client/CMakeFiles/light_switch_proxy_client_nrf52832_xxAA_s132_6.0.0.dir/__/__/__/mesh/core/src/enc.c.obj
                0x0002ce34                enc_k3
 .text.enc_k4   0x0002ce9c       0x60 examples/light_switch/proxy_client/CMakeFiles/light_switch_proxy_client_nrf52832_xxAA_s132_6.0.0.dir/__/__/__/mesh/core/src/enc.c.obj
                0x0002ce9c                enc_k4
 .text.network_init
                0x0002cefc       0x28 examples/light_switch/proxy_client/CMakeFiles/light_switch_proxy_client_nrf52832_xxAA_s132_6.0.0.dir/__/__/__/mesh/core/src/network.c.obj
                0x0002cefc                network_init
 .text.network_opt_set
                0x0002cf24       0x84 examples/light_switch/proxy_client/CMakeFiles/light_switch_proxy_client_nrf52832_xxAA_s132_6.0.0.dir/__/__/__/mesh/core/src/network.c.obj
                0x0002cf24                network_opt_set
 .text.network_opt_get
                0x0002cfa8       0x5c examples/light_switch/proxy_client/CMakeFiles/light_switch_proxy_client_nrf52832_xxAA_s132_6.0.0.dir/__/__/__/mesh/core/src/network.c.obj
                0x0002cfa8                network_opt_get
 .text.network_packet_alloc
                0x0002d004       0x98 examples/light_switch/proxy_client/CMakeFiles/light_switch_proxy_client_nrf52832_xxAA_s132_6.0.0.dir/__/__/__/mesh/core/src/network.c.obj
                0x0002d004                network_packet_alloc
 .text.network_packet_send
                0x0002d09c       0x50 examples/light_switch/proxy_client/CMakeFiles/light_switch_proxy_client_nrf52832_xxAA_s132_6.0.0.dir/__/__/__/mesh/core/src/network.c.obj
                0x0002d09c                network_packet_send
 .text.network_packet_in
                0x0002d0ec      0x1cc examples/light_switch/proxy_client/CMakeFiles/light_switch_proxy_client_nrf52832_xxAA_s132_6.0.0.dir/__/__/__/mesh/core/src/network.c.obj
                0x0002d0ec                network_packet_in
 .text.net_packet_decrypt
                0x0002d2b8      0x2dc examples/light_switch/proxy_client/CMakeFiles/light_switch_proxy_client_nrf52832_xxAA_s132_6.0.0.dir/__/__/__/mesh/core/src/net_packet.c.obj
                0x0002d2b8                net_packet_decrypt
 .text.net_packet_encrypt
                0x0002d594      0x100 examples/light_switch/proxy_client/CMakeFiles/light_switch_proxy_client_nrf52832_xxAA_s132_6.0.0.dir/__/__/__/mesh/core/src/net_packet.c.obj
                0x0002d594                net_packet_encrypt
 .text.net_packet_header_set
                0x0002d694       0xc0 examples/light_switch/proxy_client/CMakeFiles/light_switch_proxy_client_nrf52832_xxAA_s132_6.0.0.dir/__/__/__/mesh/core/src/net_packet.c.obj
                0x0002d694                net_packet_header_set
 .text.net_packet_payload_len_get
                0x0002d754       0x14 examples/light_switch/proxy_client/CMakeFiles/light_switch_proxy_client_nrf52832_xxAA_s132_6.0.0.dir/__/__/__/mesh/core/src/net_packet.c.obj
                0x0002d754                net_packet_payload_len_get
 .text.net_packet_from_payload
                0x0002d768        0x4 examples/light_switch/proxy_client/CMakeFiles/light_switch_proxy_client_nrf52832_xxAA_s132_6.0.0.dir/__/__/__/mesh/core/src/net_packet.c.obj
                0x0002d768                net_packet_from_payload
 .text.net_packet_payload_get
                0x0002d76c        0x4 examples/light_switch/proxy_client/CMakeFiles/light_switch_proxy_client_nrf52832_xxAA_s132_6.0.0.dir/__/__/__/mesh/core/src/net_packet.c.obj
                0x0002d76c                net_packet_payload_get
 .text.net_packet_obfuscation_start_get
                0x0002d770        0x4 examples/light_switch/proxy_client/CMakeFiles/light_switch_proxy_client_nrf52832_xxAA_s132_6.0.0.dir/__/__/__/mesh/core/src/net_packet.c.obj
                0x0002d770                net_packet_obfuscation_start_get
 .text.msq_init
                0x0002d774       0x64 examples/light_switch/proxy_client/CMakeFiles/light_switch_proxy_client_nrf52832_xxAA_s132_6.0.0.dir/__/__/__/mesh/core/src/msqueue.c.obj
                0x0002d774                msq_init
 .text.msq_get  0x0002d7d8       0x54 examples/light_switch/proxy_client/CMakeFiles/light_switch_proxy_client_nrf52832_xxAA_s132_6.0.0.dir/__/__/__/mesh/core/src/msqueue.c.obj
                0x0002d7d8                msq_get
 .text.msq_move
                0x0002d82c       0x4c examples/light_switch/proxy_client/CMakeFiles/light_switch_proxy_client_nrf52832_xxAA_s132_6.0.0.dir/__/__/__/mesh/core/src/msqueue.c.obj
                0x0002d82c                msq_move
 .text.msq_available
                0x0002d878       0x44 examples/light_switch/proxy_client/CMakeFiles/light_switch_proxy_client_nrf52832_xxAA_s132_6.0.0.dir/__/__/__/mesh/core/src/msqueue.c.obj
                0x0002d878                msq_available
 .text.nrf_mesh_keygen_aid
                0x0002d8bc       0x18 examples/light_switch/proxy_client/CMakeFiles/light_switch_proxy_client_nrf52832_xxAA_s132_6.0.0.dir/__/__/__/mesh/core/src/nrf_mesh_keygen.c.obj
                0x0002d8bc                nrf_mesh_keygen_aid
 .text.nrf_mesh_keygen_network_secmat
                0x0002d8d4       0x24 examples/light_switch/proxy_client/CMakeFiles/light_switch_proxy_client_nrf52832_xxAA_s132_6.0.0.dir/__/__/__/mesh/core/src/nrf_mesh_keygen.c.obj
                0x0002d8d4                nrf_mesh_keygen_network_secmat
 .text.nrf_mesh_keygen_beacon_secmat
                0x0002d8f8       0x50 examples/light_switch/proxy_client/CMakeFiles/light_switch_proxy_client_nrf52832_xxAA_s132_6.0.0.dir/__/__/__/mesh/core/src/nrf_mesh_keygen.c.obj
                0x0002d8f8                nrf_mesh_keygen_beacon_secmat
 .text.nrf_mesh_keygen_identitykey
                0x0002d948       0x4c examples/light_switch/proxy_client/CMakeFiles/light_switch_proxy_client_nrf52832_xxAA_s132_6.0.0.dir/__/__/__/mesh/core/src/nrf_mesh_keygen.c.obj
                0x0002d948                nrf_mesh_keygen_identitykey
 .text.nrf_mesh_keygen_virtual_address
                0x0002d994       0x50 examples/light_switch/proxy_client/CMakeFiles/light_switch_proxy_client_nrf52832_xxAA_s132_6.0.0.dir/__/__/__/mesh/core/src/nrf_mesh_keygen.c.obj
                0x0002d994                nrf_mesh_keygen_virtual_address
 .text.cache_init
                0x0002d9e4       0x44 examples/light_switch/proxy_client/CMakeFiles/light_switch_proxy_client_nrf52832_xxAA_s132_6.0.0.dir/__/__/__/mesh/core/src/cache.c.obj
                0x0002d9e4                cache_init
 .text.cache_has_elem
                0x0002da28       0x5c examples/light_switch/proxy_client/CMakeFiles/light_switch_proxy_client_nrf52832_xxAA_s132_6.0.0.dir/__/__/__/mesh/core/src/cache.c.obj
                0x0002da28                cache_has_elem
 .text.cache_put
                0x0002da84       0x2c examples/light_switch/proxy_client/CMakeFiles/light_switch_proxy_client_nrf52832_xxAA_s132_6.0.0.dir/__/__/__/mesh/core/src/cache.c.obj
                0x0002da84                cache_put
 .text.list_add
                0x0002dab0       0x5c examples/light_switch/proxy_client/CMakeFiles/light_switch_proxy_client_nrf52832_xxAA_s132_6.0.0.dir/__/__/__/mesh/core/src/list.c.obj
                0x0002dab0                list_add
 .text.list_remove
                0x0002db0c       0x44 examples/light_switch/proxy_client/CMakeFiles/light_switch_proxy_client_nrf52832_xxAA_s132_6.0.0.dir/__/__/__/mesh/core/src/list.c.obj
                0x0002db0c                list_remove
 .text.list_compare_add
                0x0002db50       0x78 examples/light_switch/proxy_client/CMakeFiles/light_switch_proxy_client_nrf52832_xxAA_s132_6.0.0.dir/__/__/__/mesh/core/src/list.c.obj
                0x0002db50                list_compare_add
 .text.log_callback_rtt
                0x0002dbc8       0x2c examples/light_switch/proxy_client/CMakeFiles/light_switch_proxy_client_nrf52832_xxAA_s132_6.0.0.dir/__/__/__/mesh/core/src/log.c.obj
                0x0002dbc8                log_callback_rtt
 .text.log_init
                0x0002dbf4       0x20 examples/light_switch/proxy_client/CMakeFiles/light_switch_proxy_client_nrf52832_xxAA_s132_6.0.0.dir/__/__/__/mesh/core/src/log.c.obj
                0x0002dbf4                log_init
 .text.log_printf
                0x0002dc14       0x20 examples/light_switch/proxy_client/CMakeFiles/light_switch_proxy_client_nrf52832_xxAA_s132_6.0.0.dir/__/__/__/mesh/core/src/log.c.obj
                0x0002dc14                log_printf
 .text.flash_manager_is_stable
                0x0002dc34       0x20 examples/light_switch/proxy_client/CMakeFiles/light_switch_proxy_client_nrf52832_xxAA_s132_6.0.0.dir/__/__/__/mesh/core/src/flash_manager.c.obj
                0x0002dc34                flash_manager_is_stable
 .text.ccm_soft_crypt.constprop.0
                0x0002dc54      0x298 examples/light_switch/proxy_client/CMakeFiles/light_switch_proxy_client_nrf52832_xxAA_s132_6.0.0.dir/__/__/__/mesh/core/src/ccm_soft.c.obj
 .text.ccm_soft_authenticate
                0x0002deec      0x324 examples/light_switch/proxy_client/CMakeFiles/light_switch_proxy_client_nrf52832_xxAA_s132_6.0.0.dir/__/__/__/mesh/core/src/ccm_soft.c.obj
 .text.ccm_soft_encrypt
                0x0002e210       0x78 examples/light_switch/proxy_client/CMakeFiles/light_switch_proxy_client_nrf52832_xxAA_s132_6.0.0.dir/__/__/__/mesh/core/src/ccm_soft.c.obj
                0x0002e210                ccm_soft_encrypt
 .text.ccm_soft_decrypt
                0x0002e288      0x10c examples/light_switch/proxy_client/CMakeFiles/light_switch_proxy_client_nrf52832_xxAA_s132_6.0.0.dir/__/__/__/mesh/core/src/ccm_soft.c.obj
                0x0002e288                ccm_soft_decrypt
 .text.replay_cache_init
                0x0002e394       0x20 examples/light_switch/proxy_client/CMakeFiles/light_switch_proxy_client_nrf52832_xxAA_s132_6.0.0.dir/__/__/__/mesh/core/src/replay_cache.c.obj
                0x0002e394                replay_cache_init
 .text.replay_cache_add
                0x0002e3b4       0x5c examples/light_switch/proxy_client/CMakeFiles/light_switch_proxy_client_nrf52832_xxAA_s132_6.0.0.dir/__/__/__/mesh/core/src/replay_cache.c.obj
                0x0002e3b4                replay_cache_add
 .text.replay_cache_has_elem
                0x0002e410       0x40 examples/light_switch/proxy_client/CMakeFiles/light_switch_proxy_client_nrf52832_xxAA_s132_6.0.0.dir/__/__/__/mesh/core/src/replay_cache.c.obj
                0x0002e410                replay_cache_has_elem
 .text.beacon_create
                0x0002e450       0x50 examples/light_switch/proxy_client/CMakeFiles/light_switch_proxy_client_nrf52832_xxAA_s132_6.0.0.dir/__/__/__/mesh/core/src/beacon.c.obj
                0x0002e450                beacon_create
 .text.beacon_packet_in
                0x0002e4a0      0x174 examples/light_switch/proxy_client/CMakeFiles/light_switch_proxy_client_nrf52832_xxAA_s132_6.0.0.dir/__/__/__/mesh/core/src/beacon.c.obj
                0x0002e4a0                beacon_packet_in
 .text.core_tx_complete_cb_set
                0x0002e614        0xc examples/light_switch/proxy_client/CMakeFiles/light_switch_proxy_client_nrf52832_xxAA_s132_6.0.0.dir/__/__/__/mesh/core/src/core_tx.c.obj
                0x0002e614                core_tx_complete_cb_set
 .text.core_tx_packet_alloc
                0x0002e620       0xb4 examples/light_switch/proxy_client/CMakeFiles/light_switch_proxy_client_nrf52832_xxAA_s132_6.0.0.dir/__/__/__/mesh/core/src/core_tx.c.obj
                0x0002e620                core_tx_packet_alloc
 .text.core_tx_packet_send
                0x0002e6d4       0x58 examples/light_switch/proxy_client/CMakeFiles/light_switch_proxy_client_nrf52832_xxAA_s132_6.0.0.dir/__/__/__/mesh/core/src/core_tx.c.obj
                0x0002e6d4                core_tx_packet_send
 .text.core_tx_packet_discard
                0x0002e72c       0x4c examples/light_switch/proxy_client/CMakeFiles/light_switch_proxy_client_nrf52832_xxAA_s132_6.0.0.dir/__/__/__/mesh/core/src/core_tx.c.obj
                0x0002e72c                core_tx_packet_discard
 .text.core_tx_complete
                0x0002e778       0x38 examples/light_switch/proxy_client/CMakeFiles/light_switch_proxy_client_nrf52832_xxAA_s132_6.0.0.dir/__/__/__/mesh/core/src/core_tx.c.obj
                0x0002e778                core_tx_complete
 .text.core_tx_bearer_add
                0x0002e7b0       0x84 examples/light_switch/proxy_client/CMakeFiles/light_switch_proxy_client_nrf52832_xxAA_s132_6.0.0.dir/__/__/__/mesh/core/src/core_tx.c.obj
                0x0002e7b0                core_tx_bearer_add
 .text.heartbeat_subscription_timer_cb
                0x0002e834       0x1c examples/light_switch/proxy_client/CMakeFiles/light_switch_proxy_client_nrf52832_xxAA_s132_6.0.0.dir/__/__/__/mesh/core/src/heartbeat.c.obj
 .text.heartbeat_opcode_handle
                0x0002e850       0x8c examples/light_switch/proxy_client/CMakeFiles/light_switch_proxy_client_nrf52832_xxAA_s132_6.0.0.dir/__/__/__/mesh/core/src/heartbeat.c.obj
 .text.heartbeat_send
                0x0002e8dc       0xbc examples/light_switch/proxy_client/CMakeFiles/light_switch_proxy_client_nrf52832_xxAA_s132_6.0.0.dir/__/__/__/mesh/core/src/heartbeat.c.obj
 .text.heartbeat_core_evt_cb
                0x0002e998       0x94 examples/light_switch/proxy_client/CMakeFiles/light_switch_proxy_client_nrf52832_xxAA_s132_6.0.0.dir/__/__/__/mesh/core/src/heartbeat.c.obj
 .text.heartbeat_publication_timer_cb
                0x0002ea2c       0xb0 examples/light_switch/proxy_client/CMakeFiles/light_switch_proxy_client_nrf52832_xxAA_s132_6.0.0.dir/__/__/__/mesh/core/src/heartbeat.c.obj
 .text.heartbeat_on_feature_change_trigger
                0x0002eadc       0x48 examples/light_switch/proxy_client/CMakeFiles/light_switch_proxy_client_nrf52832_xxAA_s132_6.0.0.dir/__/__/__/mesh/core/src/heartbeat.c.obj
                0x0002eadc                heartbeat_on_feature_change_trigger
 .text.heartbeat_init
                0x0002eb24       0x7c examples/light_switch/proxy_client/CMakeFiles/light_switch_proxy_client_nrf52832_xxAA_s132_6.0.0.dir/__/__/__/mesh/core/src/heartbeat.c.obj
                0x0002eb24                heartbeat_init
 .text.heartbeat_subscription_set
                0x0002eba0       0xa4 examples/light_switch/proxy_client/CMakeFiles/light_switch_proxy_client_nrf52832_xxAA_s132_6.0.0.dir/__/__/__/mesh/core/src/heartbeat.c.obj
                0x0002eba0                heartbeat_subscription_set
 .text.heartbeat_subscription_get
                0x0002ec44        0x8 examples/light_switch/proxy_client/CMakeFiles/light_switch_proxy_client_nrf52832_xxAA_s132_6.0.0.dir/__/__/__/mesh/core/src/heartbeat.c.obj
                0x0002ec44                heartbeat_subscription_get
 .text.heartbeat_config_server_cb_set
                0x0002ec4c       0x38 examples/light_switch/proxy_client/CMakeFiles/light_switch_proxy_client_nrf52832_xxAA_s132_6.0.0.dir/__/__/__/mesh/core/src/heartbeat.c.obj
                0x0002ec4c                heartbeat_config_server_cb_set
 .text.heartbeat_publication_state_updated
                0x0002ec84       0x78 examples/light_switch/proxy_client/CMakeFiles/light_switch_proxy_client_nrf52832_xxAA_s132_6.0.0.dir/__/__/__/mesh/core/src/heartbeat.c.obj
                0x0002ec84                heartbeat_publication_state_updated
 .text.beacon_tx
                0x0002ecfc      0x194 examples/light_switch/proxy_client/CMakeFiles/light_switch_proxy_client_nrf52832_xxAA_s132_6.0.0.dir/__/__/__/mesh/core/src/net_beacon.c.obj
 .text.tx_complete_cb
                0x0002ee90       0x10 examples/light_switch/proxy_client/CMakeFiles/light_switch_proxy_client_nrf52832_xxAA_s132_6.0.0.dir/__/__/__/mesh/core/src/net_beacon.c.obj
 .text.beacon_tx_timeout
                0x0002eea0        0x4 examples/light_switch/proxy_client/CMakeFiles/light_switch_proxy_client_nrf52832_xxAA_s132_6.0.0.dir/__/__/__/mesh/core/src/net_beacon.c.obj
 .text.net_beacon_init
                0x0002eea4       0x94 examples/light_switch/proxy_client/CMakeFiles/light_switch_proxy_client_nrf52832_xxAA_s132_6.0.0.dir/__/__/__/mesh/core/src/net_beacon.c.obj
                0x0002eea4                net_beacon_init
 .text.net_beacon_state_set
                0x0002ef38       0x3c examples/light_switch/proxy_client/CMakeFiles/light_switch_proxy_client_nrf52832_xxAA_s132_6.0.0.dir/__/__/__/mesh/core/src/net_beacon.c.obj
                0x0002ef38                net_beacon_state_set
 .text.net_beacon_state_get
                0x0002ef74        0xc examples/light_switch/proxy_client/CMakeFiles/light_switch_proxy_client_nrf52832_xxAA_s132_6.0.0.dir/__/__/__/mesh/core/src/net_beacon.c.obj
                0x0002ef74                net_beacon_state_get
 .text.net_beacon_build
                0x0002ef80       0x68 examples/light_switch/proxy_client/CMakeFiles/light_switch_proxy_client_nrf52832_xxAA_s132_6.0.0.dir/__/__/__/mesh/core/src/net_beacon.c.obj
                0x0002ef80                net_beacon_build
 .text.net_beacon_packet_in
                0x0002efe8      0x14c examples/light_switch/proxy_client/CMakeFiles/light_switch_proxy_client_nrf52832_xxAA_s132_6.0.0.dir/__/__/__/mesh/core/src/net_beacon.c.obj
                0x0002efe8                net_beacon_packet_in
 .text.fsm_event_post_try
                0x0002f134      0x238 examples/light_switch/proxy_client/CMakeFiles/light_switch_proxy_client_nrf52832_xxAA_s132_6.0.0.dir/__/__/__/mesh/core/src/fsm.c.obj
 .text.fsm_init
                0x0002f36c      0x100 examples/light_switch/proxy_client/CMakeFiles/light_switch_proxy_client_nrf52832_xxAA_s132_6.0.0.dir/__/__/__/mesh/core/src/fsm.c.obj
                0x0002f36c                fsm_init
 .text.fsm_event_post
                0x0002f46c       0xbc examples/light_switch/proxy_client/CMakeFiles/light_switch_proxy_client_nrf52832_xxAA_s132_6.0.0.dir/__/__/__/mesh/core/src/fsm.c.obj
                0x0002f46c                fsm_event_post
 .text.fsm_is_processing
                0x0002f528        0xc examples/light_switch/proxy_client/CMakeFiles/light_switch_proxy_client_nrf52832_xxAA_s132_6.0.0.dir/__/__/__/mesh/core/src/fsm.c.obj
                0x0002f528                fsm_is_processing
 .text.packet_discard
                0x0002f534       0x40 examples/light_switch/proxy_client/CMakeFiles/light_switch_proxy_client_nrf52832_xxAA_s132_6.0.0.dir/__/__/__/mesh/core/src/core_tx_adv.c.obj
 .text.packet_send
                0x0002f574       0x58 examples/light_switch/proxy_client/CMakeFiles/light_switch_proxy_client_nrf52832_xxAA_s132_6.0.0.dir/__/__/__/mesh/core/src/core_tx_adv.c.obj
 .text.packet_alloc
                0x0002f5cc       0x5c examples/light_switch/proxy_client/CMakeFiles/light_switch_proxy_client_nrf52832_xxAA_s132_6.0.0.dir/__/__/__/mesh/core/src/core_tx_adv.c.obj
 .text.adv_tx_complete_callback
                0x0002f628       0x28 examples/light_switch/proxy_client/CMakeFiles/light_switch_proxy_client_nrf52832_xxAA_s132_6.0.0.dir/__/__/__/mesh/core/src/core_tx_adv.c.obj
 .text.core_tx_adv_init
                0x0002f650       0x60 examples/light_switch/proxy_client/CMakeFiles/light_switch_proxy_client_nrf52832_xxAA_s132_6.0.0.dir/__/__/__/mesh/core/src/core_tx_adv.c.obj
                0x0002f650                core_tx_adv_init
 .text.core_tx_adv_count_set
                0x0002f6b0       0x28 examples/light_switch/proxy_client/CMakeFiles/light_switch_proxy_client_nrf52832_xxAA_s132_6.0.0.dir/__/__/__/mesh/core/src/core_tx_adv.c.obj
                0x0002f6b0                core_tx_adv_count_set
 .text.core_tx_adv_count_get
                0x0002f6d8       0x20 examples/light_switch/proxy_client/CMakeFiles/light_switch_proxy_client_nrf52832_xxAA_s132_6.0.0.dir/__/__/__/mesh/core/src/core_tx_adv.c.obj
                0x0002f6d8                core_tx_adv_count_get
 .text.core_tx_adv_interval_set
                0x0002f6f8       0x28 examples/light_switch/proxy_client/CMakeFiles/light_switch_proxy_client_nrf52832_xxAA_s132_6.0.0.dir/__/__/__/mesh/core/src/core_tx_adv.c.obj
                0x0002f6f8                core_tx_adv_interval_set
 .text.core_tx_adv_interval_get
                0x0002f720       0x2c examples/light_switch/proxy_client/CMakeFiles/light_switch_proxy_client_nrf52832_xxAA_s132_6.0.0.dir/__/__/__/mesh/core/src/core_tx_adv.c.obj
                0x0002f720                core_tx_adv_interval_get
 .text.ad_listener_subscribe
                0x0002f74c       0x60 examples/light_switch/proxy_client/CMakeFiles/light_switch_proxy_client_nrf52832_xxAA_s132_6.0.0.dir/__/__/__/mesh/bearer/src/ad_listener.c.obj
                0x0002f74c                ad_listener_subscribe
 .text.ad_listener_process
                0x0002f7ac       0x7c examples/light_switch/proxy_client/CMakeFiles/light_switch_proxy_client_nrf52832_xxAA_s132_6.0.0.dir/__/__/__/mesh/bearer/src/ad_listener.c.obj
                0x0002f7ac                ad_listener_process
 .text.adtype_filter_handle
                0x0002f828       0x98 examples/light_switch/proxy_client/CMakeFiles/light_switch_proxy_client_nrf52832_xxAA_s132_6.0.0.dir/__/__/__/mesh/bearer/src/ad_type_filter.c.obj
 .text.bearer_adtype_filtering_set
                0x0002f8c0       0x1c examples/light_switch/proxy_client/CMakeFiles/light_switch_proxy_client_nrf52832_xxAA_s132_6.0.0.dir/__/__/__/mesh/bearer/src/ad_type_filter.c.obj
                0x0002f8c0                bearer_adtype_filtering_set
 .text.bearer_adtype_add
                0x0002f8dc       0x24 examples/light_switch/proxy_client/CMakeFiles/light_switch_proxy_client_nrf52832_xxAA_s132_6.0.0.dir/__/__/__/mesh/bearer/src/ad_type_filter.c.obj
                0x0002f8dc                bearer_adtype_add
 .text.bearer_adtype_mode_set
                0x0002f900       0x18 examples/light_switch/proxy_client/CMakeFiles/light_switch_proxy_client_nrf52832_xxAA_s132_6.0.0.dir/__/__/__/mesh/bearer/src/ad_type_filter.c.obj
                0x0002f900                bearer_adtype_mode_set
 .text.tx_complete_event_callback
                0x0002f918       0x2c examples/light_switch/proxy_client/CMakeFiles/light_switch_proxy_client_nrf52832_xxAA_s132_6.0.0.dir/__/__/__/mesh/bearer/src/advertiser.c.obj
 .text.broadcast_complete_cb
                0x0002f944       0x48 examples/light_switch/proxy_client/CMakeFiles/light_switch_proxy_client_nrf52832_xxAA_s132_6.0.0.dir/__/__/__/mesh/bearer/src/advertiser.c.obj
 .text.timeout_event
                0x0002f98c      0x120 examples/light_switch/proxy_client/CMakeFiles/light_switch_proxy_client_nrf52832_xxAA_s132_6.0.0.dir/__/__/__/mesh/bearer/src/advertiser.c.obj
 .text.advertiser_init
                0x0002faac        0xc examples/light_switch/proxy_client/CMakeFiles/light_switch_proxy_client_nrf52832_xxAA_s132_6.0.0.dir/__/__/__/mesh/bearer/src/advertiser.c.obj
                0x0002faac                advertiser_init
 .text.advertiser_instance_init
                0x0002fab8       0xfc examples/light_switch/proxy_client/CMakeFiles/light_switch_proxy_client_nrf52832_xxAA_s132_6.0.0.dir/__/__/__/mesh/bearer/src/advertiser.c.obj
                0x0002fab8                advertiser_instance_init
 .text.advertiser_enable
                0x0002fbb4       0x44 examples/light_switch/proxy_client/CMakeFiles/light_switch_proxy_client_nrf52832_xxAA_s132_6.0.0.dir/__/__/__/mesh/bearer/src/advertiser.c.obj
                0x0002fbb4                advertiser_enable
 .text.advertiser_packet_alloc
                0x0002fbf8       0x80 examples/light_switch/proxy_client/CMakeFiles/light_switch_proxy_client_nrf52832_xxAA_s132_6.0.0.dir/__/__/__/mesh/bearer/src/advertiser.c.obj
                0x0002fbf8                advertiser_packet_alloc
 .text.advertiser_packet_send
                0x0002fc78       0x80 examples/light_switch/proxy_client/CMakeFiles/light_switch_proxy_client_nrf52832_xxAA_s132_6.0.0.dir/__/__/__/mesh/bearer/src/advertiser.c.obj
                0x0002fc78                advertiser_packet_send
 .text.advertiser_packet_discard
                0x0002fcf8       0x2c examples/light_switch/proxy_client/CMakeFiles/light_switch_proxy_client_nrf52832_xxAA_s132_6.0.0.dir/__/__/__/mesh/bearer/src/advertiser.c.obj
                0x0002fcf8                advertiser_packet_discard
 .text.advertiser_interval_set
                0x0002fd24       0x70 examples/light_switch/proxy_client/CMakeFiles/light_switch_proxy_client_nrf52832_xxAA_s132_6.0.0.dir/__/__/__/mesh/bearer/src/advertiser.c.obj
                0x0002fd24                advertiser_interval_set
 .text.advertiser_flush
                0x0002fd94       0x20 examples/light_switch/proxy_client/CMakeFiles/light_switch_proxy_client_nrf52832_xxAA_s132_6.0.0.dir/__/__/__/mesh/bearer/src/advertiser.c.obj
                0x0002fd94                advertiser_flush
 .text.action_switch.part.2
                0x0002fdb4       0xb4 examples/light_switch/proxy_client/CMakeFiles/light_switch_proxy_client_nrf52832_xxAA_s132_6.0.0.dir/__/__/__/mesh/bearer/src/bearer_handler.c.obj
 .text.bearer_handler_init
                0x0002fe68       0x2c examples/light_switch/proxy_client/CMakeFiles/light_switch_proxy_client_nrf52832_xxAA_s132_6.0.0.dir/__/__/__/mesh/bearer/src/bearer_handler.c.obj
                0x0002fe68                bearer_handler_init
 .text.bearer_handler_start
                0x0002fe94       0x1c examples/light_switch/proxy_client/CMakeFiles/light_switch_proxy_client_nrf52832_xxAA_s132_6.0.0.dir/__/__/__/mesh/bearer/src/bearer_handler.c.obj
                0x0002fe94                bearer_handler_start
 .text.bearer_handler_stop
                0x0002feb0       0x20 examples/light_switch/proxy_client/CMakeFiles/light_switch_proxy_client_nrf52832_xxAA_s132_6.0.0.dir/__/__/__/mesh/bearer/src/bearer_handler.c.obj
                0x0002feb0                bearer_handler_stop
 .text.bearer_handler_action_enqueue
                0x0002fed0       0x7c examples/light_switch/proxy_client/CMakeFiles/light_switch_proxy_client_nrf52832_xxAA_s132_6.0.0.dir/__/__/__/mesh/bearer/src/bearer_handler.c.obj
                0x0002fed0                bearer_handler_action_enqueue
 .text.bearer_handler_action_end
                0x0002ff4c       0x68 examples/light_switch/proxy_client/CMakeFiles/light_switch_proxy_client_nrf52832_xxAA_s132_6.0.0.dir/__/__/__/mesh/bearer/src/bearer_handler.c.obj
                0x0002ff4c                bearer_handler_action_end
 .text.bearer_handler_radio_irq_handler
                0x0002ffb4       0x54 examples/light_switch/proxy_client/CMakeFiles/light_switch_proxy_client_nrf52832_xxAA_s132_6.0.0.dir/__/__/__/mesh/bearer/src/bearer_handler.c.obj
                0x0002ffb4                bearer_handler_radio_irq_handler
 .text.bearer_handler_timer_irq_handler
                0x00030008       0x34 examples/light_switch/proxy_client/CMakeFiles/light_switch_proxy_client_nrf52832_xxAA_s132_6.0.0.dir/__/__/__/mesh/bearer/src/bearer_handler.c.obj
                0x00030008                bearer_handler_timer_irq_handler
 .text.bearer_handler_on_ts_begin
                0x0003003c       0x3c examples/light_switch/proxy_client/CMakeFiles/light_switch_proxy_client_nrf52832_xxAA_s132_6.0.0.dir/__/__/__/mesh/bearer/src/bearer_handler.c.obj
                0x0003003c                bearer_handler_on_ts_begin
 .text.bearer_handler_on_ts_end
                0x00030078       0x34 examples/light_switch/proxy_client/CMakeFiles/light_switch_proxy_client_nrf52832_xxAA_s132_6.0.0.dir/__/__/__/mesh/bearer/src/bearer_handler.c.obj
                0x00030078                bearer_handler_on_ts_end
 .text.radio_irq_handler
                0x000300ac       0x98 examples/light_switch/proxy_client/CMakeFiles/light_switch_proxy_client_nrf52832_xxAA_s132_6.0.0.dir/__/__/__/mesh/bearer/src/broadcast.c.obj
 .text.broadcast_start
                0x00030144       0x8c examples/light_switch/proxy_client/CMakeFiles/light_switch_proxy_client_nrf52832_xxAA_s132_6.0.0.dir/__/__/__/mesh/bearer/src/broadcast.c.obj
 .text.broadcast_send
                0x000301d0       0x74 examples/light_switch/proxy_client/CMakeFiles/light_switch_proxy_client_nrf52832_xxAA_s132_6.0.0.dir/__/__/__/mesh/bearer/src/broadcast.c.obj
                0x000301d0                broadcast_send
 .text.fen_filter_start
                0x00030244       0x38 examples/light_switch/proxy_client/CMakeFiles/light_switch_proxy_client_nrf52832_xxAA_s132_6.0.0.dir/__/__/__/mesh/bearer/src/filter_engine.c.obj
                0x00030244                fen_filter_start
 .text.fen_filter_stop
                0x0003027c       0x2c examples/light_switch/proxy_client/CMakeFiles/light_switch_proxy_client_nrf52832_xxAA_s132_6.0.0.dir/__/__/__/mesh/bearer/src/filter_engine.c.obj
                0x0003027c                fen_filter_stop
 .text.fen_filters_apply
                0x000302a8       0x38 examples/light_switch/proxy_client/CMakeFiles/light_switch_proxy_client_nrf52832_xxAA_s132_6.0.0.dir/__/__/__/mesh/bearer/src/filter_engine.c.obj
                0x000302a8                fen_filters_apply
 .text.radio_config_reset
                0x000302e0       0x38 examples/light_switch/proxy_client/CMakeFiles/light_switch_proxy_client_nrf52832_xxAA_s132_6.0.0.dir/__/__/__/mesh/bearer/src/radio_config.c.obj
                0x000302e0                radio_config_reset
 .text.radio_config_channel_set
                0x00030318       0x28 examples/light_switch/proxy_client/CMakeFiles/light_switch_proxy_client_nrf52832_xxAA_s132_6.0.0.dir/__/__/__/mesh/bearer/src/radio_config.c.obj
                0x00030318                radio_config_channel_set
 .text.radio_config_config
                0x00030340       0x90 examples/light_switch/proxy_client/CMakeFiles/light_switch_proxy_client_nrf52832_xxAA_s132_6.0.0.dir/__/__/__/mesh/bearer/src/radio_config.c.obj
                0x00030340                radio_config_config
 .text.radio_config_access_addr_set
                0x000303d0       0x54 examples/light_switch/proxy_client/CMakeFiles/light_switch_proxy_client_nrf52832_xxAA_s132_6.0.0.dir/__/__/__/mesh/bearer/src/radio_config.c.obj
                0x000303d0                radio_config_access_addr_set
 .text.scan_window_end
                0x00030424       0x28 examples/light_switch/proxy_client/CMakeFiles/light_switch_proxy_client_nrf52832_xxAA_s132_6.0.0.dir/__/__/__/mesh/bearer/src/scanner.c.obj
 .text.scan_window_start
                0x0003044c       0x38 examples/light_switch/proxy_client/CMakeFiles/light_switch_proxy_client_nrf52832_xxAA_s132_6.0.0.dir/__/__/__/mesh/bearer/src/scanner.c.obj
 .text.radio_start
                0x00030484      0x188 examples/light_switch/proxy_client/CMakeFiles/light_switch_proxy_client_nrf52832_xxAA_s132_6.0.0.dir/__/__/__/mesh/bearer/src/scanner.c.obj
 .text.scanner_radio_start
                0x0003060c      0x14c examples/light_switch/proxy_client/CMakeFiles/light_switch_proxy_client_nrf52832_xxAA_s132_6.0.0.dir/__/__/__/mesh/bearer/src/scanner.c.obj
                0x0003060c                scanner_radio_start
 .text.scanner_radio_stop
                0x00030758       0x34 examples/light_switch/proxy_client/CMakeFiles/light_switch_proxy_client_nrf52832_xxAA_s132_6.0.0.dir/__/__/__/mesh/bearer/src/scanner.c.obj
                0x00030758                scanner_radio_stop
 .text.scanner_radio_irq_handler
                0x0003078c      0x204 examples/light_switch/proxy_client/CMakeFiles/light_switch_proxy_client_nrf52832_xxAA_s132_6.0.0.dir/__/__/__/mesh/bearer/src/scanner.c.obj
                0x0003078c                scanner_radio_irq_handler
 .text.scanner_enable
                0x00030990       0x54 examples/light_switch/proxy_client/CMakeFiles/light_switch_proxy_client_nrf52832_xxAA_s132_6.0.0.dir/__/__/__/mesh/bearer/src/scanner.c.obj
                0x00030990                scanner_enable
 .text.scanner_disable
                0x000309e4       0x54 examples/light_switch/proxy_client/CMakeFiles/light_switch_proxy_client_nrf52832_xxAA_s132_6.0.0.dir/__/__/__/mesh/bearer/src/scanner.c.obj
                0x000309e4                scanner_disable
 .text.scanner_rx
                0x00030a38       0x78 examples/light_switch/proxy_client/CMakeFiles/light_switch_proxy_client_nrf52832_xxAA_s132_6.0.0.dir/__/__/__/mesh/bearer/src/scanner.c.obj
                0x00030a38                scanner_rx
 .text.scanner_packet_release
                0x00030ab0       0x40 examples/light_switch/proxy_client/CMakeFiles/light_switch_proxy_client_nrf52832_xxAA_s132_6.0.0.dir/__/__/__/mesh/bearer/src/scanner.c.obj
                0x00030ab0                scanner_packet_release
 .text.scanner_rx_pending
                0x00030af0        0xc examples/light_switch/proxy_client/CMakeFiles/light_switch_proxy_client_nrf52832_xxAA_s132_6.0.0.dir/__/__/__/mesh/bearer/src/scanner.c.obj
                0x00030af0                scanner_rx_pending
 .text.scanner_config_reset
                0x00030afc       0xa8 examples/light_switch/proxy_client/CMakeFiles/light_switch_proxy_client_nrf52832_xxAA_s132_6.0.0.dir/__/__/__/mesh/bearer/src/scanner.c.obj
                0x00030afc                scanner_config_reset
 .text.scanner_init
                0x00030ba4       0x54 examples/light_switch/proxy_client/CMakeFiles/light_switch_proxy_client_nrf52832_xxAA_s132_6.0.0.dir/__/__/__/mesh/bearer/src/scanner.c.obj
                0x00030ba4                scanner_init
 .text.sd_ble_gap_disconnect
                0x00030bf8        0x4 examples/light_switch/proxy_client/CMakeFiles/light_switch_proxy_client_nrf52832_xxAA_s132_6.0.0.dir/__/__/__/mesh/gatt/src/mesh_gatt.c.obj
 .text.sd_ble_gap_sec_params_reply
                0x00030bfc        0x4 examples/light_switch/proxy_client/CMakeFiles/light_switch_proxy_client_nrf52832_xxAA_s132_6.0.0.dir/__/__/__/mesh/gatt/src/mesh_gatt.c.obj
 .text.sd_ble_gap_phy_update
                0x00030c00        0x4 examples/light_switch/proxy_client/CMakeFiles/light_switch_proxy_client_nrf52832_xxAA_s132_6.0.0.dir/__/__/__/mesh/gatt/src/mesh_gatt.c.obj
 .text.sd_ble_gap_data_length_update
                0x00030c04        0x4 examples/light_switch/proxy_client/CMakeFiles/light_switch_proxy_client_nrf52832_xxAA_s132_6.0.0.dir/__/__/__/mesh/gatt/src/mesh_gatt.c.obj
 .text.sd_ble_gatts_service_add
                0x00030c08        0x4 examples/light_switch/proxy_client/CMakeFiles/light_switch_proxy_client_nrf52832_xxAA_s132_6.0.0.dir/__/__/__/mesh/gatt/src/mesh_gatt.c.obj
 .text.sd_ble_gatts_characteristic_add
                0x00030c0c        0x4 examples/light_switch/proxy_client/CMakeFiles/light_switch_proxy_client_nrf52832_xxAA_s132_6.0.0.dir/__/__/__/mesh/gatt/src/mesh_gatt.c.obj
 .text.sd_ble_gatts_hvx
                0x00030c10        0x4 examples/light_switch/proxy_client/CMakeFiles/light_switch_proxy_client_nrf52832_xxAA_s132_6.0.0.dir/__/__/__/mesh/gatt/src/mesh_gatt.c.obj
 .text.sd_ble_gatts_service_changed
                0x00030c14        0x4 examples/light_switch/proxy_client/CMakeFiles/light_switch_proxy_client_nrf52832_xxAA_s132_6.0.0.dir/__/__/__/mesh/gatt/src/mesh_gatt.c.obj
 .text.sd_ble_gatts_sys_attr_set
                0x00030c18        0x4 examples/light_switch/proxy_client/CMakeFiles/light_switch_proxy_client_nrf52832_xxAA_s132_6.0.0.dir/__/__/__/mesh/gatt/src/mesh_gatt.c.obj
 .text.sd_ble_gatts_exchange_mtu_reply
                0x00030c1c        0x4 examples/light_switch/proxy_client/CMakeFiles/light_switch_proxy_client_nrf52832_xxAA_s132_6.0.0.dir/__/__/__/mesh/gatt/src/mesh_gatt.c.obj
 .text.timeout_cb
                0x00030c20       0x1c examples/light_switch/proxy_client/CMakeFiles/light_switch_proxy_client_nrf52832_xxAA_s132_6.0.0.dir/__/__/__/mesh/gatt/src/mesh_gatt.c.obj
 .text.mesh_gatt_pdu_send
                0x00030c3c      0x164 examples/light_switch/proxy_client/CMakeFiles/light_switch_proxy_client_nrf52832_xxAA_s132_6.0.0.dir/__/__/__/mesh/gatt/src/mesh_gatt.c.obj
 .text.mesh_gatt_init
                0x00030da0      0x170 examples/light_switch/proxy_client/CMakeFiles/light_switch_proxy_client_nrf52832_xxAA_s132_6.0.0.dir/__/__/__/mesh/gatt/src/mesh_gatt.c.obj
                0x00030da0                mesh_gatt_init
 .text.mesh_gatt_packet_alloc
                0x00030f10       0x8c examples/light_switch/proxy_client/CMakeFiles/light_switch_proxy_client_nrf52832_xxAA_s132_6.0.0.dir/__/__/__/mesh/gatt/src/mesh_gatt.c.obj
                0x00030f10                mesh_gatt_packet_alloc
 .text.mesh_gatt_packet_send
                0x00030f9c       0x8c examples/light_switch/proxy_client/CMakeFiles/light_switch_proxy_client_nrf52832_xxAA_s132_6.0.0.dir/__/__/__/mesh/gatt/src/mesh_gatt.c.obj
                0x00030f9c                mesh_gatt_packet_send
 .text.mesh_gatt_packet_discard
                0x00031028       0x50 examples/light_switch/proxy_client/CMakeFiles/light_switch_proxy_client_nrf52832_xxAA_s132_6.0.0.dir/__/__/__/mesh/gatt/src/mesh_gatt.c.obj
                0x00031028                mesh_gatt_packet_discard
 .text.mesh_gatt_disconnect
                0x00031078       0x34 examples/light_switch/proxy_client/CMakeFiles/light_switch_proxy_client_nrf52832_xxAA_s132_6.0.0.dir/__/__/__/mesh/gatt/src/mesh_gatt.c.obj
                0x00031078                mesh_gatt_disconnect
 .text.mesh_gatt_on_ble_evt
                0x000310ac      0x408 examples/light_switch/proxy_client/CMakeFiles/light_switch_proxy_client_nrf52832_xxAA_s132_6.0.0.dir/__/__/__/mesh/gatt/src/mesh_gatt.c.obj
                0x000310ac                mesh_gatt_on_ble_evt
 .text.adv_start
                0x000314b4      0x12c examples/light_switch/proxy_client/CMakeFiles/light_switch_proxy_client_nrf52832_xxAA_s132_6.0.0.dir/__/__/__/mesh/gatt/src/proxy.c.obj
 .text.mesh_evt_handle
                0x000315e0       0xac examples/light_switch/proxy_client/CMakeFiles/light_switch_proxy_client_nrf52832_xxAA_s132_6.0.0.dir/__/__/__/mesh/gatt/src/proxy.c.obj
 .text.core_tx_packet_discard_cb
                0x0003168c       0x50 examples/light_switch/proxy_client/CMakeFiles/light_switch_proxy_client_nrf52832_xxAA_s132_6.0.0.dir/__/__/__/mesh/gatt/src/proxy.c.obj
 .text.core_tx_packet_alloc_cb
                0x000316dc       0x6c examples/light_switch/proxy_client/CMakeFiles/light_switch_proxy_client_nrf52832_xxAA_s132_6.0.0.dir/__/__/__/mesh/gatt/src/proxy.c.obj
 .text.core_tx_packet_send_cb
                0x00031748       0x8c examples/light_switch/proxy_client/CMakeFiles/light_switch_proxy_client_nrf52832_xxAA_s132_6.0.0.dir/__/__/__/mesh/gatt/src/proxy.c.obj
 .text.adv_timer_handler
                0x000317d4       0xec examples/light_switch/proxy_client/CMakeFiles/light_switch_proxy_client_nrf52832_xxAA_s132_6.0.0.dir/__/__/__/mesh/gatt/src/proxy.c.obj
 .text.gatt_evt_handler
                0x000318c0      0x7b8 examples/light_switch/proxy_client/CMakeFiles/light_switch_proxy_client_nrf52832_xxAA_s132_6.0.0.dir/__/__/__/mesh/gatt/src/proxy.c.obj
 .text.proxy_init
                0x00032078       0x90 examples/light_switch/proxy_client/CMakeFiles/light_switch_proxy_client_nrf52832_xxAA_s132_6.0.0.dir/__/__/__/mesh/gatt/src/proxy.c.obj
                0x00032078                proxy_init
 .text.proxy_subnet_added
                0x00032108       0xc8 examples/light_switch/proxy_client/CMakeFiles/light_switch_proxy_client_nrf52832_xxAA_s132_6.0.0.dir/__/__/__/mesh/gatt/src/proxy.c.obj
                0x00032108                proxy_subnet_added
 .text.proxy_net_packet_processed
                0x000321d0       0x48 examples/light_switch/proxy_client/CMakeFiles/light_switch_proxy_client_nrf52832_xxAA_s132_6.0.0.dir/__/__/__/mesh/gatt/src/proxy.c.obj
                0x000321d0                proxy_net_packet_processed
 .text.proxy_enable
                0x00032218      0x11c examples/light_switch/proxy_client/CMakeFiles/light_switch_proxy_client_nrf52832_xxAA_s132_6.0.0.dir/__/__/__/mesh/gatt/src/proxy.c.obj
                0x00032218                proxy_enable
 .text.proxy_node_id_enable
                0x00032334       0x38 examples/light_switch/proxy_client/CMakeFiles/light_switch_proxy_client_nrf52832_xxAA_s132_6.0.0.dir/__/__/__/mesh/gatt/src/proxy.c.obj
                0x00032334                proxy_node_id_enable
 .text.proxy_node_id_is_enabled
                0x0003236c       0x30 examples/light_switch/proxy_client/CMakeFiles/light_switch_proxy_client_nrf52832_xxAA_s132_6.0.0.dir/__/__/__/mesh/gatt/src/proxy.c.obj
                0x0003236c                proxy_node_id_is_enabled
 .text.proxy_node_id_disable
                0x0003239c      0x120 examples/light_switch/proxy_client/CMakeFiles/light_switch_proxy_client_nrf52832_xxAA_s132_6.0.0.dir/__/__/__/mesh/gatt/src/proxy.c.obj
                0x0003239c                proxy_node_id_disable
 .text.proxy_disable
                0x000324bc       0x4c examples/light_switch/proxy_client/CMakeFiles/light_switch_proxy_client_nrf52832_xxAA_s132_6.0.0.dir/__/__/__/mesh/gatt/src/proxy.c.obj
                0x000324bc                proxy_disable
 .text.proxy_is_enabled
                0x00032508        0xc examples/light_switch/proxy_client/CMakeFiles/light_switch_proxy_client_nrf52832_xxAA_s132_6.0.0.dir/__/__/__/mesh/gatt/src/proxy.c.obj
                0x00032508                proxy_is_enabled
 .text.proxy_filter_clear
                0x00032514       0x24 examples/light_switch/proxy_client/CMakeFiles/light_switch_proxy_client_nrf52832_xxAA_s132_6.0.0.dir/__/__/__/mesh/gatt/src/proxy_filter.c.obj
                0x00032514                proxy_filter_clear
 .text.proxy_filter_type_set
                0x00032538       0x38 examples/light_switch/proxy_client/CMakeFiles/light_switch_proxy_client_nrf52832_xxAA_s132_6.0.0.dir/__/__/__/mesh/gatt/src/proxy_filter.c.obj
                0x00032538                proxy_filter_type_set
 .text.proxy_filter_add
                0x00032570       0x94 examples/light_switch/proxy_client/CMakeFiles/light_switch_proxy_client_nrf52832_xxAA_s132_6.0.0.dir/__/__/__/mesh/gatt/src/proxy_filter.c.obj
                0x00032570                proxy_filter_add
 .text.proxy_filter_remove
                0x00032604       0x80 examples/light_switch/proxy_client/CMakeFiles/light_switch_proxy_client_nrf52832_xxAA_s132_6.0.0.dir/__/__/__/mesh/gatt/src/proxy_filter.c.obj
                0x00032604                proxy_filter_remove
 .text.proxy_filter_accept
                0x00032684       0x50 examples/light_switch/proxy_client/CMakeFiles/light_switch_proxy_client_nrf52832_xxAA_s132_6.0.0.dir/__/__/__/mesh/gatt/src/proxy_filter.c.obj
                0x00032684                proxy_filter_accept
 .text.handle_publish_timeout
                0x000326d4        0x8 examples/light_switch/proxy_client/CMakeFiles/light_switch_proxy_client_nrf52832_xxAA_s132_6.0.0.dir/__/__/__/models/simple_on_off/src/simple_on_off_client.c.obj
 .text.reliable_status_cb
                0x000326dc       0x7c examples/light_switch/proxy_client/CMakeFiles/light_switch_proxy_client_nrf52832_xxAA_s132_6.0.0.dir/__/__/__/models/simple_on_off/src/simple_on_off_client.c.obj
 .text.handle_status_cb
                0x00032758       0x54 examples/light_switch/proxy_client/CMakeFiles/light_switch_proxy_client_nrf52832_xxAA_s132_6.0.0.dir/__/__/__/models/simple_on_off/src/simple_on_off_client.c.obj
 .text.simple_on_off_client_init
                0x000327ac       0x44 examples/light_switch/proxy_client/CMakeFiles/light_switch_proxy_client_nrf52832_xxAA_s132_6.0.0.dir/__/__/__/models/simple_on_off/src/simple_on_off_client.c.obj
                0x000327ac                simple_on_off_client_init
 .text.simple_on_off_client_set
                0x000327f0       0x74 examples/light_switch/proxy_client/CMakeFiles/light_switch_proxy_client_nrf52832_xxAA_s132_6.0.0.dir/__/__/__/models/simple_on_off/src/simple_on_off_client.c.obj
                0x000327f0                simple_on_off_client_set
 .text.simple_on_off_client_set_unreliable
                0x00032864       0x5c examples/light_switch/proxy_client/CMakeFiles/light_switch_proxy_client_nrf52832_xxAA_s132_6.0.0.dir/__/__/__/models/simple_on_off/src/simple_on_off_client.c.obj
                0x00032864                simple_on_off_client_set_unreliable
 .text.config_composition_data_get
                0x000328c0      0x1ec examples/light_switch/proxy_client/CMakeFiles/light_switch_proxy_client_nrf52832_xxAA_s132_6.0.0.dir/__/__/__/models/config/src/composition_data.c.obj
                0x000328c0                config_composition_data_get
 .text.config_server_heartbeat_publication_count_decrement
                0x00032aac       0x1c examples/light_switch/proxy_client/CMakeFiles/light_switch_proxy_client_nrf52832_xxAA_s132_6.0.0.dir/__/__/__/models/config/src/config_server.c.obj
 .text.config_server_heartbeat_publication_params_get
                0x00032ac8       0x38 examples/light_switch/proxy_client/CMakeFiles/light_switch_proxy_client_nrf52832_xxAA_s132_6.0.0.dir/__/__/__/models/config/src/config_server.c.obj
 .text.handle_config_network_transmit_set
                0x00032b00      0x11c examples/light_switch/proxy_client/CMakeFiles/light_switch_proxy_client_nrf52832_xxAA_s132_6.0.0.dir/__/__/__/models/config/src/config_server.c.obj
 .text.handle_node_reset
                0x00032c1c       0x30 examples/light_switch/proxy_client/CMakeFiles/light_switch_proxy_client_nrf52832_xxAA_s132_6.0.0.dir/__/__/__/models/config/src/config_server.c.obj
 .text.handle_config_relay_set
                0x00032c4c      0x1b0 examples/light_switch/proxy_client/CMakeFiles/light_switch_proxy_client_nrf52832_xxAA_s132_6.0.0.dir/__/__/__/models/config/src/config_server.c.obj
 .text.handle_node_identity_set
                0x00032dfc       0xd8 examples/light_switch/proxy_client/CMakeFiles/light_switch_proxy_client_nrf52832_xxAA_s132_6.0.0.dir/__/__/__/models/config/src/config_server.c.obj
 .text.handle_netkey_get
                0x00032ed4       0x68 examples/light_switch/proxy_client/CMakeFiles/light_switch_proxy_client_nrf52832_xxAA_s132_6.0.0.dir/__/__/__/models/config/src/config_server.c.obj
 .text.handle_model_app_bind_unbind
                0x00032f3c      0x238 examples/light_switch/proxy_client/CMakeFiles/light_switch_proxy_client_nrf52832_xxAA_s132_6.0.0.dir/__/__/__/models/config/src/config_server.c.obj
 .text.status_error_sub_send
                0x00033174      0x184 examples/light_switch/proxy_client/CMakeFiles/light_switch_proxy_client_nrf52832_xxAA_s132_6.0.0.dir/__/__/__/models/config/src/config_server.c.obj
 .text.handle_config_model_subscription_overwrite
                0x000332f8      0x1f8 examples/light_switch/proxy_client/CMakeFiles/light_switch_proxy_client_nrf52832_xxAA_s132_6.0.0.dir/__/__/__/models/config/src/config_server.c.obj
 .text.send_publication_status
                0x000334f0      0x1a4 examples/light_switch/proxy_client/CMakeFiles/light_switch_proxy_client_nrf52832_xxAA_s132_6.0.0.dir/__/__/__/models/config/src/config_server.c.obj
 .text.handle_config_key_refresh_phase_set
                0x00033694       0xf0 examples/light_switch/proxy_client/CMakeFiles/light_switch_proxy_client_nrf52832_xxAA_s132_6.0.0.dir/__/__/__/models/config/src/config_server.c.obj
 .text.handle_config_default_ttl_set
                0x00033784       0x70 examples/light_switch/proxy_client/CMakeFiles/light_switch_proxy_client_nrf52832_xxAA_s132_6.0.0.dir/__/__/__/models/config/src/config_server.c.obj
 .text.handle_heartbeat_publication_set
                0x000337f4      0x170 examples/light_switch/proxy_client/CMakeFiles/light_switch_proxy_client_nrf52832_xxAA_s132_6.0.0.dir/__/__/__/models/config/src/config_server.c.obj
 .text.mesh_event_cb
                0x00033964       0x70 examples/light_switch/proxy_client/CMakeFiles/light_switch_proxy_client_nrf52832_xxAA_s132_6.0.0.dir/__/__/__/models/config/src/config_server.c.obj
 .text.handle_config_friend_set
                0x000339d4       0x40 examples/light_switch/proxy_client/CMakeFiles/light_switch_proxy_client_nrf52832_xxAA_s132_6.0.0.dir/__/__/__/models/config/src/config_server.c.obj
 .text.handle_config_key_refresh_phase_get
                0x00033a14       0x70 examples/light_switch/proxy_client/CMakeFiles/light_switch_proxy_client_nrf52832_xxAA_s132_6.0.0.dir/__/__/__/models/config/src/config_server.c.obj
 .text.handle_node_identity_get
                0x00033a84       0x88 examples/light_switch/proxy_client/CMakeFiles/light_switch_proxy_client_nrf52832_xxAA_s132_6.0.0.dir/__/__/__/models/config/src/config_server.c.obj
 .text.status_error_pub_send
                0x00033b0c       0xc8 examples/light_switch/proxy_client/CMakeFiles/light_switch_proxy_client_nrf52832_xxAA_s132_6.0.0.dir/__/__/__/models/config/src/config_server.c.obj
 .text.handle_config_model_publication_get
                0x00033bd4       0xb0 examples/light_switch/proxy_client/CMakeFiles/light_switch_proxy_client_nrf52832_xxAA_s132_6.0.0.dir/__/__/__/models/config/src/config_server.c.obj
 .text.handle_config_model_publication_set
                0x00033c84      0x32c examples/light_switch/proxy_client/CMakeFiles/light_switch_proxy_client_nrf52832_xxAA_s132_6.0.0.dir/__/__/__/models/config/src/config_server.c.obj
 .text.handle_config_gatt_proxy_set
                0x00033fb0       0x5c examples/light_switch/proxy_client/CMakeFiles/light_switch_proxy_client_nrf52832_xxAA_s132_6.0.0.dir/__/__/__/models/config/src/config_server.c.obj
 .text.handle_config_default_ttl_get
                0x0003400c       0x48 examples/light_switch/proxy_client/CMakeFiles/light_switch_proxy_client_nrf52832_xxAA_s132_6.0.0.dir/__/__/__/models/config/src/config_server.c.obj
 .text.handle_config_beacon_set
                0x00034054       0x80 examples/light_switch/proxy_client/CMakeFiles/light_switch_proxy_client_nrf52832_xxAA_s132_6.0.0.dir/__/__/__/models/config/src/config_server.c.obj
 .text.handle_composition_data_get
                0x000340d4       0x64 examples/light_switch/proxy_client/CMakeFiles/light_switch_proxy_client_nrf52832_xxAA_s132_6.0.0.dir/__/__/__/models/config/src/config_server.c.obj
 .text.handle_appkey_add
                0x00034138      0x12c examples/light_switch/proxy_client/CMakeFiles/light_switch_proxy_client_nrf52832_xxAA_s132_6.0.0.dir/__/__/__/models/config/src/config_server.c.obj
 .text.handle_model_app_get
                0x00034264      0x204 examples/light_switch/proxy_client/CMakeFiles/light_switch_proxy_client_nrf52832_xxAA_s132_6.0.0.dir/__/__/__/models/config/src/config_server.c.obj
 .text.handle_config_vendor_model_subscription_get
                0x00034468      0x18c examples/light_switch/proxy_client/CMakeFiles/light_switch_proxy_client_nrf52832_xxAA_s132_6.0.0.dir/__/__/__/models/config/src/config_server.c.obj
 .text.handle_appkey_get
                0x000345f4      0x104 examples/light_switch/proxy_client/CMakeFiles/light_switch_proxy_client_nrf52832_xxAA_s132_6.0.0.dir/__/__/__/models/config/src/config_server.c.obj
 .text.handle_heartbeat_subscription_get
                0x000346f8       0xd8 examples/light_switch/proxy_client/CMakeFiles/light_switch_proxy_client_nrf52832_xxAA_s132_6.0.0.dir/__/__/__/models/config/src/config_server.c.obj
 .text.handle_heartbeat_subscription_set
                0x000347d0      0x110 examples/light_switch/proxy_client/CMakeFiles/light_switch_proxy_client_nrf52832_xxAA_s132_6.0.0.dir/__/__/__/models/config/src/config_server.c.obj
 .text.handle_config_friend_get
                0x000348e0       0x38 examples/light_switch/proxy_client/CMakeFiles/light_switch_proxy_client_nrf52832_xxAA_s132_6.0.0.dir/__/__/__/models/config/src/config_server.c.obj
 .text.handle_heartbeat_publication_get
                0x00034918       0xcc examples/light_switch/proxy_client/CMakeFiles/light_switch_proxy_client_nrf52832_xxAA_s132_6.0.0.dir/__/__/__/models/config/src/config_server.c.obj
 .text.handle_config_beacon_get
                0x000349e4       0x40 examples/light_switch/proxy_client/CMakeFiles/light_switch_proxy_client_nrf52832_xxAA_s132_6.0.0.dir/__/__/__/models/config/src/config_server.c.obj
 .text.handle_config_gatt_proxy_get
                0x00034a24       0x44 examples/light_switch/proxy_client/CMakeFiles/light_switch_proxy_client_nrf52832_xxAA_s132_6.0.0.dir/__/__/__/models/config/src/config_server.c.obj
 .text.handle_config_sig_model_subscription_get
                0x00034a68      0x150 examples/light_switch/proxy_client/CMakeFiles/light_switch_proxy_client_nrf52832_xxAA_s132_6.0.0.dir/__/__/__/models/config/src/config_server.c.obj
 .text.handle_appkey_update
                0x00034bb8      0x11c examples/light_switch/proxy_client/CMakeFiles/light_switch_proxy_client_nrf52832_xxAA_s132_6.0.0.dir/__/__/__/models/config/src/config_server.c.obj
 .text.handle_appkey_delete
                0x00034cd4      0x124 examples/light_switch/proxy_client/CMakeFiles/light_switch_proxy_client_nrf52832_xxAA_s132_6.0.0.dir/__/__/__/models/config/src/config_server.c.obj
 .text.handle_netkey_add_update
                0x00034df8       0xe8 examples/light_switch/proxy_client/CMakeFiles/light_switch_proxy_client_nrf52832_xxAA_s132_6.0.0.dir/__/__/__/models/config/src/config_server.c.obj
 .text.handle_netkey_delete
                0x00034ee0      0x11c examples/light_switch/proxy_client/CMakeFiles/light_switch_proxy_client_nrf52832_xxAA_s132_6.0.0.dir/__/__/__/models/config/src/config_server.c.obj
 .text.handle_config_network_transmit_get
                0x00034ffc       0x9c examples/light_switch/proxy_client/CMakeFiles/light_switch_proxy_client_nrf52832_xxAA_s132_6.0.0.dir/__/__/__/models/config/src/config_server.c.obj
 .text.handle_config_relay_get
                0x00035098       0xd8 examples/light_switch/proxy_client/CMakeFiles/light_switch_proxy_client_nrf52832_xxAA_s132_6.0.0.dir/__/__/__/models/config/src/config_server.c.obj
 .text.handle_config_model_subscription_virtual_address_delete
                0x00035170      0x184 examples/light_switch/proxy_client/CMakeFiles/light_switch_proxy_client_nrf52832_xxAA_s132_6.0.0.dir/__/__/__/models/config/src/config_server.c.obj
 .text.handle_config_model_subscription_delete_all
                0x000352f4      0x1b0 examples/light_switch/proxy_client/CMakeFiles/light_switch_proxy_client_nrf52832_xxAA_s132_6.0.0.dir/__/__/__/models/config/src/config_server.c.obj
 .text.handle_config_model_subscription_virtual_address_add
                0x000354a4      0x180 examples/light_switch/proxy_client/CMakeFiles/light_switch_proxy_client_nrf52832_xxAA_s132_6.0.0.dir/__/__/__/models/config/src/config_server.c.obj
 .text.handle_config_model_subscription_delete
                0x00035624      0x17c examples/light_switch/proxy_client/CMakeFiles/light_switch_proxy_client_nrf52832_xxAA_s132_6.0.0.dir/__/__/__/models/config/src/config_server.c.obj
 .text.handle_config_model_subscription_virtual_address_overwrite
                0x000357a0      0x214 examples/light_switch/proxy_client/CMakeFiles/light_switch_proxy_client_nrf52832_xxAA_s132_6.0.0.dir/__/__/__/models/config/src/config_server.c.obj
 .text.handle_config_model_subscription_add
                0x000359b4      0x174 examples/light_switch/proxy_client/CMakeFiles/light_switch_proxy_client_nrf52832_xxAA_s132_6.0.0.dir/__/__/__/models/config/src/config_server.c.obj
 .text.config_server_init
                0x00035b28       0x64 examples/light_switch/proxy_client/CMakeFiles/light_switch_proxy_client_nrf52832_xxAA_s132_6.0.0.dir/__/__/__/models/config/src/config_server.c.obj
                0x00035b28                config_server_init
 .text.config_server_bind
                0x00035b8c       0x10 examples/light_switch/proxy_client/CMakeFiles/light_switch_proxy_client_nrf52832_xxAA_s132_6.0.0.dir/__/__/__/models/config/src/config_server.c.obj
                0x00035b8c                config_server_bind
 .text.packed_index_list_create
                0x00035b9c       0x38 examples/light_switch/proxy_client/CMakeFiles/light_switch_proxy_client_nrf52832_xxAA_s132_6.0.0.dir/__/__/__/models/config/src/packed_index_list.c.obj
                0x00035b9c                packed_index_list_create
 .text.attention_timer_handler
                0x00035bd4       0x6c examples/light_switch/proxy_client/CMakeFiles/light_switch_proxy_client_nrf52832_xxAA_s132_6.0.0.dir/__/__/__/models/health/src/health_server.c.obj
 .text.handle_attention_get
                0x00035c40       0x3c examples/light_switch/proxy_client/CMakeFiles/light_switch_proxy_client_nrf52832_xxAA_s132_6.0.0.dir/__/__/__/models/health/src/health_server.c.obj
 .text.handle_period_get
                0x00035c7c       0x38 examples/light_switch/proxy_client/CMakeFiles/light_switch_proxy_client_nrf52832_xxAA_s132_6.0.0.dir/__/__/__/models/health/src/health_server.c.obj
 .text.handle_attention_set
                0x00035cb4       0xd8 examples/light_switch/proxy_client/CMakeFiles/light_switch_proxy_client_nrf52832_xxAA_s132_6.0.0.dir/__/__/__/models/health/src/health_server.c.obj
 .text.handle_period_set
                0x00035d8c       0x50 examples/light_switch/proxy_client/CMakeFiles/light_switch_proxy_client_nrf52832_xxAA_s132_6.0.0.dir/__/__/__/models/health/src/health_server.c.obj
 .text.send_fault_status
                0x00035ddc      0x37c examples/light_switch/proxy_client/CMakeFiles/light_switch_proxy_client_nrf52832_xxAA_s132_6.0.0.dir/__/__/__/models/health/src/health_server.c.obj
 .text.health_publish_timeout_handler
                0x00036158        0xc examples/light_switch/proxy_client/CMakeFiles/light_switch_proxy_client_nrf52832_xxAA_s132_6.0.0.dir/__/__/__/models/health/src/health_server.c.obj
 .text.handle_fault_test
                0x00036164       0x7c examples/light_switch/proxy_client/CMakeFiles/light_switch_proxy_client_nrf52832_xxAA_s132_6.0.0.dir/__/__/__/models/health/src/health_server.c.obj
 .text.handle_fault_clear
                0x000361e0       0x48 examples/light_switch/proxy_client/CMakeFiles/light_switch_proxy_client_nrf52832_xxAA_s132_6.0.0.dir/__/__/__/models/health/src/health_server.c.obj
 .text.handle_fault_get
                0x00036228       0x34 examples/light_switch/proxy_client/CMakeFiles/light_switch_proxy_client_nrf52832_xxAA_s132_6.0.0.dir/__/__/__/models/health/src/health_server.c.obj
 .text.health_server_init
                0x0003625c       0x74 examples/light_switch/proxy_client/CMakeFiles/light_switch_proxy_client_nrf52832_xxAA_s132_6.0.0.dir/__/__/__/models/health/src/health_server.c.obj
                0x0003625c                health_server_init
 .text.schedule_publication_timer
                0x000362d0      0x2c4 examples/light_switch/proxy_client/CMakeFiles/light_switch_proxy_client_nrf52832_xxAA_s132_6.0.0.dir/__/__/__/mesh/access/src/access_publish.c.obj
 .text.publish_timer_tick
                0x00036594      0x134 examples/light_switch/proxy_client/CMakeFiles/light_switch_proxy_client_nrf52832_xxAA_s132_6.0.0.dir/__/__/__/mesh/access/src/access_publish.c.obj
 .text.access_publish_init
                0x000366c8       0x38 examples/light_switch/proxy_client/CMakeFiles/light_switch_proxy_client_nrf52832_xxAA_s132_6.0.0.dir/__/__/__/mesh/access/src/access_publish.c.obj
                0x000366c8                access_publish_init
 .text.access_publish_period_set
                0x00036700      0x12c examples/light_switch/proxy_client/CMakeFiles/light_switch_proxy_client_nrf52832_xxAA_s132_6.0.0.dir/__/__/__/mesh/access/src/access_publish.c.obj
                0x00036700                access_publish_period_set
 .text.access_publish_period_get
                0x0003682c       0x2c examples/light_switch/proxy_client/CMakeFiles/light_switch_proxy_client_nrf52832_xxAA_s132_6.0.0.dir/__/__/__/mesh/access/src/access_publish.c.obj
                0x0003682c                access_publish_period_get
 .text.handle_incoming
                0x00036858      0x194 examples/light_switch/proxy_client/CMakeFiles/light_switch_proxy_client_nrf52832_xxAA_s132_6.0.0.dir/__/__/__/mesh/access/src/access.c.obj
 .text.mesh_evt_cb
                0x000369ec      0x164 examples/light_switch/proxy_client/CMakeFiles/light_switch_proxy_client_nrf52832_xxAA_s132_6.0.0.dir/__/__/__/mesh/access/src/access.c.obj
 .text.access_flash_config_load
                0x00036b50        0x4 examples/light_switch/proxy_client/CMakeFiles/light_switch_proxy_client_nrf52832_xxAA_s132_6.0.0.dir/__/__/__/mesh/access/src/access.c.obj
                0x00036b50                access_flash_config_load
 .text.access_flash_config_store
                0x00036b54        0x4 examples/light_switch/proxy_client/CMakeFiles/light_switch_proxy_client_nrf52832_xxAA_s132_6.0.0.dir/__/__/__/mesh/access/src/access.c.obj
                0x00036b54                access_flash_config_store
 .text.access_clear
                0x00036b58       0x68 examples/light_switch/proxy_client/CMakeFiles/light_switch_proxy_client_nrf52832_xxAA_s132_6.0.0.dir/__/__/__/mesh/access/src/access.c.obj
                0x00036b58                access_clear
 .text.access_init
                0x00036bc0       0x80 examples/light_switch/proxy_client/CMakeFiles/light_switch_proxy_client_nrf52832_xxAA_s132_6.0.0.dir/__/__/__/mesh/access/src/access.c.obj
                0x00036bc0                access_init
 .text.access_model_add
                0x00036c40      0x2d0 examples/light_switch/proxy_client/CMakeFiles/light_switch_proxy_client_nrf52832_xxAA_s132_6.0.0.dir/__/__/__/mesh/access/src/access.c.obj
                0x00036c40                access_model_add
 .text.access_model_publish
                0x00036f10      0x3bc examples/light_switch/proxy_client/CMakeFiles/light_switch_proxy_client_nrf52832_xxAA_s132_6.0.0.dir/__/__/__/mesh/access/src/access.c.obj
                0x00036f10                access_model_publish
 .text.access_model_reply
                0x000372cc      0x3d8 examples/light_switch/proxy_client/CMakeFiles/light_switch_proxy_client_nrf52832_xxAA_s132_6.0.0.dir/__/__/__/mesh/access/src/access.c.obj
                0x000372cc                access_model_reply
 .text.access_model_publish_address_set
                0x000376a4       0x3c examples/light_switch/proxy_client/CMakeFiles/light_switch_proxy_client_nrf52832_xxAA_s132_6.0.0.dir/__/__/__/mesh/access/src/access.c.obj
                0x000376a4                access_model_publish_address_set
 .text.access_model_publish_address_get
                0x000376e0       0x2c examples/light_switch/proxy_client/CMakeFiles/light_switch_proxy_client_nrf52832_xxAA_s132_6.0.0.dir/__/__/__/mesh/access/src/access.c.obj
                0x000376e0                access_model_publish_address_get
 .text.access_model_publish_retransmit_set
                0x0003770c       0x58 examples/light_switch/proxy_client/CMakeFiles/light_switch_proxy_client_nrf52832_xxAA_s132_6.0.0.dir/__/__/__/mesh/access/src/access.c.obj
                0x0003770c                access_model_publish_retransmit_set
 .text.access_model_publish_retransmit_get
                0x00037764       0x2c examples/light_switch/proxy_client/CMakeFiles/light_switch_proxy_client_nrf52832_xxAA_s132_6.0.0.dir/__/__/__/mesh/access/src/access.c.obj
                0x00037764                access_model_publish_retransmit_get
 .text.access_model_publish_period_set
                0x00037790       0x78 examples/light_switch/proxy_client/CMakeFiles/light_switch_proxy_client_nrf52832_xxAA_s132_6.0.0.dir/__/__/__/mesh/access/src/access.c.obj
                0x00037790                access_model_publish_period_set
 .text.access_model_publish_period_get
                0x00037808       0x40 examples/light_switch/proxy_client/CMakeFiles/light_switch_proxy_client_nrf52832_xxAA_s132_6.0.0.dir/__/__/__/mesh/access/src/access.c.obj
                0x00037808                access_model_publish_period_get
 .text.access_model_subscription_list_alloc
                0x00037848       0x84 examples/light_switch/proxy_client/CMakeFiles/light_switch_proxy_client_nrf52832_xxAA_s132_6.0.0.dir/__/__/__/mesh/access/src/access.c.obj
                0x00037848                access_model_subscription_list_alloc
 .text.access_model_subscription_add
                0x000378cc       0x60 examples/light_switch/proxy_client/CMakeFiles/light_switch_proxy_client_nrf52832_xxAA_s132_6.0.0.dir/__/__/__/mesh/access/src/access.c.obj
                0x000378cc                access_model_subscription_add
 .text.access_model_subscription_remove
                0x0003792c       0x60 examples/light_switch/proxy_client/CMakeFiles/light_switch_proxy_client_nrf52832_xxAA_s132_6.0.0.dir/__/__/__/mesh/access/src/access.c.obj
                0x0003792c                access_model_subscription_remove
 .text.access_model_subscriptions_get
                0x0003798c      0x1d4 examples/light_switch/proxy_client/CMakeFiles/light_switch_proxy_client_nrf52832_xxAA_s132_6.0.0.dir/__/__/__/mesh/access/src/access.c.obj
                0x0003798c                access_model_subscriptions_get
 .text.access_model_application_bind
                0x00037b60       0x58 examples/light_switch/proxy_client/CMakeFiles/light_switch_proxy_client_nrf52832_xxAA_s132_6.0.0.dir/__/__/__/mesh/access/src/access.c.obj
                0x00037b60                access_model_application_bind
 .text.access_model_application_unbind
                0x00037bb8       0x58 examples/light_switch/proxy_client/CMakeFiles/light_switch_proxy_client_nrf52832_xxAA_s132_6.0.0.dir/__/__/__/mesh/access/src/access.c.obj
                0x00037bb8                access_model_application_unbind
 .text.access_model_applications_get
                0x00037c10       0x50 examples/light_switch/proxy_client/CMakeFiles/light_switch_proxy_client_nrf52832_xxAA_s132_6.0.0.dir/__/__/__/mesh/access/src/access.c.obj
                0x00037c10                access_model_applications_get
 .text.access_model_publish_application_set
                0x00037c60       0x3c examples/light_switch/proxy_client/CMakeFiles/light_switch_proxy_client_nrf52832_xxAA_s132_6.0.0.dir/__/__/__/mesh/access/src/access.c.obj
                0x00037c60                access_model_publish_application_set
 .text.access_model_publish_application_get
                0x00037c9c       0x2c examples/light_switch/proxy_client/CMakeFiles/light_switch_proxy_client_nrf52832_xxAA_s132_6.0.0.dir/__/__/__/mesh/access/src/access.c.obj
                0x00037c9c                access_model_publish_application_get
 .text.access_default_ttl_set
                0x00037cc8       0x1c examples/light_switch/proxy_client/CMakeFiles/light_switch_proxy_client_nrf52832_xxAA_s132_6.0.0.dir/__/__/__/mesh/access/src/access.c.obj
                0x00037cc8                access_default_ttl_set
 .text.access_default_ttl_get
                0x00037ce4        0xc examples/light_switch/proxy_client/CMakeFiles/light_switch_proxy_client_nrf52832_xxAA_s132_6.0.0.dir/__/__/__/mesh/access/src/access.c.obj
                0x00037ce4                access_default_ttl_get
 .text.access_model_publish_ttl_set
                0x00037cf0       0x40 examples/light_switch/proxy_client/CMakeFiles/light_switch_proxy_client_nrf52832_xxAA_s132_6.0.0.dir/__/__/__/mesh/access/src/access.c.obj
                0x00037cf0                access_model_publish_ttl_set
 .text.access_model_publish_ttl_get
                0x00037d30       0x2c examples/light_switch/proxy_client/CMakeFiles/light_switch_proxy_client_nrf52832_xxAA_s132_6.0.0.dir/__/__/__/mesh/access/src/access.c.obj
                0x00037d30                access_model_publish_ttl_get
 .text.access_element_location_get
                0x00037d5c       0x24 examples/light_switch/proxy_client/CMakeFiles/light_switch_proxy_client_nrf52832_xxAA_s132_6.0.0.dir/__/__/__/mesh/access/src/access.c.obj
                0x00037d5c                access_element_location_get
 .text.access_element_sig_model_count_get
                0x00037d80       0x24 examples/light_switch/proxy_client/CMakeFiles/light_switch_proxy_client_nrf52832_xxAA_s132_6.0.0.dir/__/__/__/mesh/access/src/access.c.obj
                0x00037d80                access_element_sig_model_count_get
 .text.access_element_vendor_model_count_get
                0x00037da4       0x24 examples/light_switch/proxy_client/CMakeFiles/light_switch_proxy_client_nrf52832_xxAA_s132_6.0.0.dir/__/__/__/mesh/access/src/access.c.obj
                0x00037da4                access_element_vendor_model_count_get
 .text.access_model_id_get
                0x00037dc8       0x40 examples/light_switch/proxy_client/CMakeFiles/light_switch_proxy_client_nrf52832_xxAA_s132_6.0.0.dir/__/__/__/mesh/access/src/access.c.obj
                0x00037dc8                access_model_id_get
 .text.access_handle_get
                0x00037e08       0xd4 examples/light_switch/proxy_client/CMakeFiles/light_switch_proxy_client_nrf52832_xxAA_s132_6.0.0.dir/__/__/__/mesh/access/src/access.c.obj
                0x00037e08                access_handle_get
 .text.access_element_models_get
                0x00037edc       0xfc examples/light_switch/proxy_client/CMakeFiles/light_switch_proxy_client_nrf52832_xxAA_s132_6.0.0.dir/__/__/__/mesh/access/src/access.c.obj
                0x00037edc                access_element_models_get
 .text.access_model_p_args_get
                0x00037fd8       0x2c examples/light_switch/proxy_client/CMakeFiles/light_switch_proxy_client_nrf52832_xxAA_s132_6.0.0.dir/__/__/__/mesh/access/src/access.c.obj
                0x00037fd8                access_model_p_args_get
 .text.access_model_publication_stop
                0x00038004       0x74 examples/light_switch/proxy_client/CMakeFiles/light_switch_proxy_client_nrf52832_xxAA_s132_6.0.0.dir/__/__/__/mesh/access/src/access.c.obj
                0x00038004                access_model_publication_stop
 .text.access_model_publication_by_appkey_stop
                0x00038078      0x2a4 examples/light_switch/proxy_client/CMakeFiles/light_switch_proxy_client_nrf52832_xxAA_s132_6.0.0.dir/__/__/__/mesh/access/src/access.c.obj
                0x00038078                access_model_publication_by_appkey_stop
 .text.remove_and_reschedule
                0x0003831c      0x11c examples/light_switch/proxy_client/CMakeFiles/light_switch_proxy_client_nrf52832_xxAA_s132_6.0.0.dir/__/__/__/mesh/access/src/access_reliable.c.obj
 .text.reliable_timer_cb
                0x00038438      0x128 examples/light_switch/proxy_client/CMakeFiles/light_switch_proxy_client_nrf52832_xxAA_s132_6.0.0.dir/__/__/__/mesh/access/src/access_reliable.c.obj
 .text.access_reliable_message_rx_cb
                0x00038560       0xb4 examples/light_switch/proxy_client/CMakeFiles/light_switch_proxy_client_nrf52832_xxAA_s132_6.0.0.dir/__/__/__/mesh/access/src/access_reliable.c.obj
                0x00038560                access_reliable_message_rx_cb
 .text.access_reliable_init
                0x00038614       0x20 examples/light_switch/proxy_client/CMakeFiles/light_switch_proxy_client_nrf52832_xxAA_s132_6.0.0.dir/__/__/__/mesh/access/src/access_reliable.c.obj
                0x00038614                access_reliable_init
 .text.access_reliable_cancel_all
                0x00038634      0x1b0 examples/light_switch/proxy_client/CMakeFiles/light_switch_proxy_client_nrf52832_xxAA_s132_6.0.0.dir/__/__/__/mesh/access/src/access_reliable.c.obj
                0x00038634                access_reliable_cancel_all
 .text.access_model_reliable_cancel
                0x000387e4       0xbc examples/light_switch/proxy_client/CMakeFiles/light_switch_proxy_client_nrf52832_xxAA_s132_6.0.0.dir/__/__/__/mesh/access/src/access_reliable.c.obj
                0x000387e4                access_model_reliable_cancel
 .text.access_model_reliable_publish
                0x000388a0      0x284 examples/light_switch/proxy_client/CMakeFiles/light_switch_proxy_client_nrf52832_xxAA_s132_6.0.0.dir/__/__/__/mesh/access/src/access_reliable.c.obj
                0x000388a0                access_model_reliable_publish
 .text.mesh_evt_handler
                0x00038b24       0xf4 examples/light_switch/proxy_client/CMakeFiles/light_switch_proxy_client_nrf52832_xxAA_s132_6.0.0.dir/__/__/__/mesh/access/src/device_state_manager.c.obj
 .text.address_delete_if_unused
                0x00038c18       0x6c examples/light_switch/proxy_client/CMakeFiles/light_switch_proxy_client_nrf52832_xxAA_s132_6.0.0.dir/__/__/__/mesh/access/src/device_state_manager.c.obj
 .text.dsm_flash_config_load
                0x00038c84        0x4 examples/light_switch/proxy_client/CMakeFiles/light_switch_proxy_client_nrf52832_xxAA_s132_6.0.0.dir/__/__/__/mesh/access/src/device_state_manager.c.obj
                0x00038c84                dsm_flash_config_load
 .text.dsm_clear
                0x00038c88       0x98 examples/light_switch/proxy_client/CMakeFiles/light_switch_proxy_client_nrf52832_xxAA_s132_6.0.0.dir/__/__/__/mesh/access/src/device_state_manager.c.obj
                0x00038c88                dsm_clear
 .text.dsm_init
                0x00038d20       0x14 examples/light_switch/proxy_client/CMakeFiles/light_switch_proxy_client_nrf52832_xxAA_s132_6.0.0.dir/__/__/__/mesh/access/src/device_state_manager.c.obj
                0x00038d20                dsm_init
 .text.dsm_local_unicast_addresses_set
                0x00038d34       0x70 examples/light_switch/proxy_client/CMakeFiles/light_switch_proxy_client_nrf52832_xxAA_s132_6.0.0.dir/__/__/__/mesh/access/src/device_state_manager.c.obj
                0x00038d34                dsm_local_unicast_addresses_set
 .text.dsm_local_unicast_addresses_get
                0x00038da4       0x20 examples/light_switch/proxy_client/CMakeFiles/light_switch_proxy_client_nrf52832_xxAA_s132_6.0.0.dir/__/__/__/mesh/access/src/device_state_manager.c.obj
                0x00038da4                dsm_local_unicast_addresses_get
 .text.dsm_address_publish_add
                0x00038dc4      0x150 examples/light_switch/proxy_client/CMakeFiles/light_switch_proxy_client_nrf52832_xxAA_s132_6.0.0.dir/__/__/__/mesh/access/src/device_state_manager.c.obj
                0x00038dc4                dsm_address_publish_add
 .text.dsm_address_publish_virtual_add
                0x00038f14       0x78 examples/light_switch/proxy_client/CMakeFiles/light_switch_proxy_client_nrf52832_xxAA_s132_6.0.0.dir/__/__/__/mesh/access/src/device_state_manager.c.obj
                0x00038f14                dsm_address_publish_virtual_add
 .text.dsm_address_publish_remove
                0x00038f8c       0x70 examples/light_switch/proxy_client/CMakeFiles/light_switch_proxy_client_nrf52832_xxAA_s132_6.0.0.dir/__/__/__/mesh/access/src/device_state_manager.c.obj
                0x00038f8c                dsm_address_publish_remove
 .text.dsm_address_subscription_add
                0x00038ffc      0x138 examples/light_switch/proxy_client/CMakeFiles/light_switch_proxy_client_nrf52832_xxAA_s132_6.0.0.dir/__/__/__/mesh/access/src/device_state_manager.c.obj
                0x00038ffc                dsm_address_subscription_add
 .text.dsm_address_subscription_virtual_add
                0x00039134       0x78 examples/light_switch/proxy_client/CMakeFiles/light_switch_proxy_client_nrf52832_xxAA_s132_6.0.0.dir/__/__/__/mesh/access/src/device_state_manager.c.obj
                0x00039134                dsm_address_subscription_virtual_add
 .text.dsm_address_subscription_get
                0x000391ac       0x50 examples/light_switch/proxy_client/CMakeFiles/light_switch_proxy_client_nrf52832_xxAA_s132_6.0.0.dir/__/__/__/mesh/access/src/device_state_manager.c.obj
                0x000391ac                dsm_address_subscription_get
 .text.dsm_address_subscription_remove
                0x000391fc       0x84 examples/light_switch/proxy_client/CMakeFiles/light_switch_proxy_client_nrf52832_xxAA_s132_6.0.0.dir/__/__/__/mesh/access/src/device_state_manager.c.obj
                0x000391fc                dsm_address_subscription_remove
 .text.dsm_address_get
                0x00039280       0x64 examples/light_switch/proxy_client/CMakeFiles/light_switch_proxy_client_nrf52832_xxAA_s132_6.0.0.dir/__/__/__/mesh/access/src/device_state_manager.c.obj
                0x00039280                dsm_address_get
 .text.dsm_address_handle_get
                0x000392e4      0x150 examples/light_switch/proxy_client/CMakeFiles/light_switch_proxy_client_nrf52832_xxAA_s132_6.0.0.dir/__/__/__/mesh/access/src/device_state_manager.c.obj
                0x000392e4                dsm_address_handle_get
 .text.dsm_net_key_index_to_subnet_handle
                0x00039434       0x28 examples/light_switch/proxy_client/CMakeFiles/light_switch_proxy_client_nrf52832_xxAA_s132_6.0.0.dir/__/__/__/mesh/access/src/device_state_manager.c.obj
                0x00039434                dsm_net_key_index_to_subnet_handle
 .text.dsm_subnet_handle_get
                0x0003945c       0x3c examples/light_switch/proxy_client/CMakeFiles/light_switch_proxy_client_nrf52832_xxAA_s132_6.0.0.dir/__/__/__/mesh/access/src/device_state_manager.c.obj
                0x0003945c                dsm_subnet_handle_get
 .text.dsm_appkey_index_to_appkey_handle
                0x00039498       0x28 examples/light_switch/proxy_client/CMakeFiles/light_switch_proxy_client_nrf52832_xxAA_s132_6.0.0.dir/__/__/__/mesh/access/src/device_state_manager.c.obj
                0x00039498                dsm_appkey_index_to_appkey_handle
 .text.dsm_appkey_handle_get
                0x000394c0       0x2c examples/light_switch/proxy_client/CMakeFiles/light_switch_proxy_client_nrf52832_xxAA_s132_6.0.0.dir/__/__/__/mesh/access/src/device_state_manager.c.obj
                0x000394c0                dsm_appkey_handle_get
 .text.dsm_appkey_handle_to_appkey_index
                0x000394ec       0x24 examples/light_switch/proxy_client/CMakeFiles/light_switch_proxy_client_nrf52832_xxAA_s132_6.0.0.dir/__/__/__/mesh/access/src/device_state_manager.c.obj
                0x000394ec                dsm_appkey_handle_to_appkey_index
 .text.dsm_appkey_handle_to_subnet_handle
                0x00039510       0x78 examples/light_switch/proxy_client/CMakeFiles/light_switch_proxy_client_nrf52832_xxAA_s132_6.0.0.dir/__/__/__/mesh/access/src/device_state_manager.c.obj
                0x00039510                dsm_appkey_handle_to_subnet_handle
 .text.dsm_subnet_add
                0x00039588      0x10c examples/light_switch/proxy_client/CMakeFiles/light_switch_proxy_client_nrf52832_xxAA_s132_6.0.0.dir/__/__/__/mesh/access/src/device_state_manager.c.obj
                0x00039588                dsm_subnet_add
 .text.dsm_subnet_kr_phase_get
                0x00039694       0x20 examples/light_switch/proxy_client/CMakeFiles/light_switch_proxy_client_nrf52832_xxAA_s132_6.0.0.dir/__/__/__/mesh/access/src/device_state_manager.c.obj
                0x00039694                dsm_subnet_kr_phase_get
 .text.dsm_subnet_update
                0x000396b4       0xb4 examples/light_switch/proxy_client/CMakeFiles/light_switch_proxy_client_nrf52832_xxAA_s132_6.0.0.dir/__/__/__/mesh/access/src/device_state_manager.c.obj
                0x000396b4                dsm_subnet_update
 .text.dsm_subnet_update_swap_keys
                0x00039768       0x4c examples/light_switch/proxy_client/CMakeFiles/light_switch_proxy_client_nrf52832_xxAA_s132_6.0.0.dir/__/__/__/mesh/access/src/device_state_manager.c.obj
                0x00039768                dsm_subnet_update_swap_keys
 .text.dsm_subnet_update_commit
                0x000397b4       0xb0 examples/light_switch/proxy_client/CMakeFiles/light_switch_proxy_client_nrf52832_xxAA_s132_6.0.0.dir/__/__/__/mesh/access/src/device_state_manager.c.obj
                0x000397b4                dsm_subnet_update_commit
 .text.dsm_subnet_delete
                0x00039864       0x74 examples/light_switch/proxy_client/CMakeFiles/light_switch_proxy_client_nrf52832_xxAA_s132_6.0.0.dir/__/__/__/mesh/access/src/device_state_manager.c.obj
                0x00039864                dsm_subnet_delete
 .text.dsm_subnet_get_all
                0x000398d8       0x44 examples/light_switch/proxy_client/CMakeFiles/light_switch_proxy_client_nrf52832_xxAA_s132_6.0.0.dir/__/__/__/mesh/access/src/device_state_manager.c.obj
                0x000398d8                dsm_subnet_get_all
 .text.dsm_devkey_add
                0x0003991c       0xa4 examples/light_switch/proxy_client/CMakeFiles/light_switch_proxy_client_nrf52832_xxAA_s132_6.0.0.dir/__/__/__/mesh/access/src/device_state_manager.c.obj
                0x0003991c                dsm_devkey_add
 .text.dsm_appkey_add
                0x000399c0       0xc4 examples/light_switch/proxy_client/CMakeFiles/light_switch_proxy_client_nrf52832_xxAA_s132_6.0.0.dir/__/__/__/mesh/access/src/device_state_manager.c.obj
                0x000399c0                dsm_appkey_add
 .text.dsm_appkey_update
                0x00039a84       0x88 examples/light_switch/proxy_client/CMakeFiles/light_switch_proxy_client_nrf52832_xxAA_s132_6.0.0.dir/__/__/__/mesh/access/src/device_state_manager.c.obj
                0x00039a84                dsm_appkey_update
 .text.dsm_appkey_delete
                0x00039b0c       0x1c examples/light_switch/proxy_client/CMakeFiles/light_switch_proxy_client_nrf52832_xxAA_s132_6.0.0.dir/__/__/__/mesh/access/src/device_state_manager.c.obj
                0x00039b0c                dsm_appkey_delete
 .text.dsm_appkey_get_all
                0x00039b28       0x54 examples/light_switch/proxy_client/CMakeFiles/light_switch_proxy_client_nrf52832_xxAA_s132_6.0.0.dir/__/__/__/mesh/access/src/device_state_manager.c.obj
                0x00039b28                dsm_appkey_get_all
 .text.dsm_tx_secmat_get
                0x00039b7c       0xac examples/light_switch/proxy_client/CMakeFiles/light_switch_proxy_client_nrf52832_xxAA_s132_6.0.0.dir/__/__/__/mesh/access/src/device_state_manager.c.obj
                0x00039b7c                dsm_tx_secmat_get
 .text.dsm_beacon_info_get
                0x00039c28       0x24 examples/light_switch/proxy_client/CMakeFiles/light_switch_proxy_client_nrf52832_xxAA_s132_6.0.0.dir/__/__/__/mesh/access/src/device_state_manager.c.obj
                0x00039c28                dsm_beacon_info_get
 .text.dsm_net_secmat_from_keyindex_get
                0x00039c4c       0x44 examples/light_switch/proxy_client/CMakeFiles/light_switch_proxy_client_nrf52832_xxAA_s132_6.0.0.dir/__/__/__/mesh/access/src/device_state_manager.c.obj
                0x00039c4c                dsm_net_secmat_from_keyindex_get
 .text.nrf_mesh_net_secmat_next_get
                0x00039c90       0x9c examples/light_switch/proxy_client/CMakeFiles/light_switch_proxy_client_nrf52832_xxAA_s132_6.0.0.dir/__/__/__/mesh/access/src/device_state_manager.c.obj
                0x00039c90                nrf_mesh_net_secmat_next_get
 .text.nrf_mesh_app_secmat_next_get
                0x00039d2c       0x80 examples/light_switch/proxy_client/CMakeFiles/light_switch_proxy_client_nrf52832_xxAA_s132_6.0.0.dir/__/__/__/mesh/access/src/device_state_manager.c.obj
                0x00039d2c                nrf_mesh_app_secmat_next_get
 .text.nrf_mesh_devkey_secmat_get
                0x00039dac       0x30 examples/light_switch/proxy_client/CMakeFiles/light_switch_proxy_client_nrf52832_xxAA_s132_6.0.0.dir/__/__/__/mesh/access/src/device_state_manager.c.obj
                0x00039dac                nrf_mesh_devkey_secmat_get
 .text.nrf_mesh_beacon_info_next_get
                0x00039ddc       0xb0 examples/light_switch/proxy_client/CMakeFiles/light_switch_proxy_client_nrf52832_xxAA_s132_6.0.0.dir/__/__/__/mesh/access/src/device_state_manager.c.obj
                0x00039ddc                nrf_mesh_beacon_info_next_get
 .text.nrf_mesh_rx_address_get
                0x00039e8c      0x184 examples/light_switch/proxy_client/CMakeFiles/light_switch_proxy_client_nrf52832_xxAA_s132_6.0.0.dir/__/__/__/mesh/access/src/device_state_manager.c.obj
                0x00039e8c                nrf_mesh_rx_address_get
 .text.nrf_mesh_unicast_address_get
                0x0003a010       0x24 examples/light_switch/proxy_client/CMakeFiles/light_switch_proxy_client_nrf52832_xxAA_s132_6.0.0.dir/__/__/__/mesh/access/src/device_state_manager.c.obj
                0x0003a010                nrf_mesh_unicast_address_get
 .text.prov_provisionee_cb_link_established
                0x0003a034       0x38 examples/light_switch/proxy_client/CMakeFiles/light_switch_proxy_client_nrf52832_xxAA_s132_6.0.0.dir/__/__/__/mesh/prov/src/prov_provisionee.c.obj
 .text.prov_provisionee_cb_link_closed
                0x0003a06c       0x54 examples/light_switch/proxy_client/CMakeFiles/light_switch_proxy_client_nrf52832_xxAA_s132_6.0.0.dir/__/__/__/mesh/prov/src/prov_provisionee.c.obj
 .text.request_authentication
                0x0003a0c0       0x90 examples/light_switch/proxy_client/CMakeFiles/light_switch_proxy_client_nrf52832_xxAA_s132_6.0.0.dir/__/__/__/mesh/prov/src/prov_provisionee.c.obj
 .text.prov_provisionee_cb_ack_received
                0x0003a150      0x194 examples/light_switch/proxy_client/CMakeFiles/light_switch_proxy_client_nrf52832_xxAA_s132_6.0.0.dir/__/__/__/mesh/prov/src/prov_provisionee.c.obj
 .text.prov_provisionee_pkt_in
                0x0003a2e4      0x420 examples/light_switch/proxy_client/CMakeFiles/light_switch_proxy_client_nrf52832_xxAA_s132_6.0.0.dir/__/__/__/mesh/prov/src/prov_provisionee.c.obj
 .text.prov_provisionee_listen
                0x0003a704       0x34 examples/light_switch/proxy_client/CMakeFiles/light_switch_proxy_client_nrf52832_xxAA_s132_6.0.0.dir/__/__/__/mesh/prov/src/prov_provisionee.c.obj
                0x0003a704                prov_provisionee_listen
 .text.prov_provisionee_auth_data
                0x0003a738      0x104 examples/light_switch/proxy_client/CMakeFiles/light_switch_proxy_client_nrf52832_xxAA_s132_6.0.0.dir/__/__/__/mesh/prov/src/prov_provisionee.c.obj
                0x0003a738                prov_provisionee_auth_data
 .text.bearer_compare_callback
                0x0003a83c       0x10 examples/light_switch/proxy_client/CMakeFiles/light_switch_proxy_client_nrf52832_xxAA_s132_6.0.0.dir/__/__/__/mesh/prov/src/nrf_mesh_prov.c.obj
 .text.nrf_mesh_prov_init
                0x0003a84c       0x3c examples/light_switch/proxy_client/CMakeFiles/light_switch_proxy_client_nrf52832_xxAA_s132_6.0.0.dir/__/__/__/mesh/prov/src/nrf_mesh_prov.c.obj
                0x0003a84c                nrf_mesh_prov_init
 .text.nrf_mesh_prov_bearer_add
                0x0003a888       0x2c examples/light_switch/proxy_client/CMakeFiles/light_switch_proxy_client_nrf52832_xxAA_s132_6.0.0.dir/__/__/__/mesh/prov/src/nrf_mesh_prov.c.obj
                0x0003a888                nrf_mesh_prov_bearer_add
 .text.nrf_mesh_prov_generate_keys
                0x0003a8b4        0x4 examples/light_switch/proxy_client/CMakeFiles/light_switch_proxy_client_nrf52832_xxAA_s132_6.0.0.dir/__/__/__/mesh/prov/src/nrf_mesh_prov.c.obj
                0x0003a8b4                nrf_mesh_prov_generate_keys
 .text.nrf_mesh_prov_listen
                0x0003a8b8       0xf8 examples/light_switch/proxy_client/CMakeFiles/light_switch_proxy_client_nrf52832_xxAA_s132_6.0.0.dir/__/__/__/mesh/prov/src/nrf_mesh_prov.c.obj
                0x0003a8b8                nrf_mesh_prov_listen
 .text.nrf_mesh_prov_auth_data_provide
                0x0003a9b0       0x10 examples/light_switch/proxy_client/CMakeFiles/light_switch_proxy_client_nrf52832_xxAA_s132_6.0.0.dir/__/__/__/mesh/prov/src/nrf_mesh_prov.c.obj
                0x0003a9b0                nrf_mesh_prov_auth_data_provide
 .text.prov_packet_length_valid
                0x0003a9c0       0x20 examples/light_switch/proxy_client/CMakeFiles/light_switch_proxy_client_nrf52832_xxAA_s132_6.0.0.dir/__/__/__/mesh/prov/src/provisioning.c.obj
                0x0003a9c0                prov_packet_length_valid
 .text.prov_tx_capabilities
                0x0003a9e0       0x38 examples/light_switch/proxy_client/CMakeFiles/light_switch_proxy_client_nrf52832_xxAA_s132_6.0.0.dir/__/__/__/mesh/prov/src/provisioning.c.obj
                0x0003a9e0                prov_tx_capabilities
 .text.prov_tx_public_key
                0x0003aa18       0x30 examples/light_switch/proxy_client/CMakeFiles/light_switch_proxy_client_nrf52832_xxAA_s132_6.0.0.dir/__/__/__/mesh/prov/src/provisioning.c.obj
                0x0003aa18                prov_tx_public_key
 .text.prov_tx_input_complete
                0x0003aa48       0x28 examples/light_switch/proxy_client/CMakeFiles/light_switch_proxy_client_nrf52832_xxAA_s132_6.0.0.dir/__/__/__/mesh/prov/src/provisioning.c.obj
                0x0003aa48                prov_tx_input_complete
 .text.prov_tx_confirmation
                0x0003aa70       0x30 examples/light_switch/proxy_client/CMakeFiles/light_switch_proxy_client_nrf52832_xxAA_s132_6.0.0.dir/__/__/__/mesh/prov/src/provisioning.c.obj
                0x0003aa70                prov_tx_confirmation
 .text.prov_tx_random
                0x0003aaa0       0x30 examples/light_switch/proxy_client/CMakeFiles/light_switch_proxy_client_nrf52832_xxAA_s132_6.0.0.dir/__/__/__/mesh/prov/src/provisioning.c.obj
                0x0003aaa0                prov_tx_random
 .text.prov_tx_complete
                0x0003aad0       0x28 examples/light_switch/proxy_client/CMakeFiles/light_switch_proxy_client_nrf52832_xxAA_s132_6.0.0.dir/__/__/__/mesh/prov/src/provisioning.c.obj
                0x0003aad0                prov_tx_complete
 .text.prov_tx_failed
                0x0003aaf8       0x2c examples/light_switch/proxy_client/CMakeFiles/light_switch_proxy_client_nrf52832_xxAA_s132_6.0.0.dir/__/__/__/mesh/prov/src/provisioning.c.obj
                0x0003aaf8                prov_tx_failed
 .text.prov_beacon_unprov_build
                0x0003ab24       0x54 examples/light_switch/proxy_client/CMakeFiles/light_switch_proxy_client_nrf52832_xxAA_s132_6.0.0.dir/__/__/__/mesh/prov/src/prov_beacon.c.obj
                0x0003ab24                prov_beacon_unprov_build
 .text.prov_beacon_unprov_packet_in
                0x0003ab78       0xd4 examples/light_switch/proxy_client/CMakeFiles/light_switch_proxy_client_nrf52832_xxAA_s132_6.0.0.dir/__/__/__/mesh/prov/src/prov_beacon.c.obj
                0x0003ab78                prov_beacon_unprov_packet_in
 .text.prov_utils_opt_set
                0x0003ac4c       0x24 examples/light_switch/proxy_client/CMakeFiles/light_switch_proxy_client_nrf52832_xxAA_s132_6.0.0.dir/__/__/__/mesh/prov/src/prov_utils.c.obj
                0x0003ac4c                prov_utils_opt_set
 .text.prov_utils_opt_get
                0x0003ac70       0x1c examples/light_switch/proxy_client/CMakeFiles/light_switch_proxy_client_nrf52832_xxAA_s132_6.0.0.dir/__/__/__/mesh/prov/src/prov_utils.c.obj
                0x0003ac70                prov_utils_opt_get
 .text.prov_utils_use_ecdh_offloading
                0x0003ac8c        0xc examples/light_switch/proxy_client/CMakeFiles/light_switch_proxy_client_nrf52832_xxAA_s132_6.0.0.dir/__/__/__/mesh/prov/src/prov_utils.c.obj
                0x0003ac8c                prov_utils_use_ecdh_offloading
 .text.prov_utils_authentication_values_derive
                0x0003ac98       0xa8 examples/light_switch/proxy_client/CMakeFiles/light_switch_proxy_client_nrf52832_xxAA_s132_6.0.0.dir/__/__/__/mesh/prov/src/prov_utils.c.obj
                0x0003ac98                prov_utils_authentication_values_derive
 .text.prov_utils_keys_generate
                0x0003ad40       0x20 examples/light_switch/proxy_client/CMakeFiles/light_switch_proxy_client_nrf52832_xxAA_s132_6.0.0.dir/__/__/__/mesh/prov/src/prov_utils.c.obj
                0x0003ad40                prov_utils_keys_generate
 .text.prov_utils_derive_keys
                0x0003ad60       0xb4 examples/light_switch/proxy_client/CMakeFiles/light_switch_proxy_client_nrf52832_xxAA_s132_6.0.0.dir/__/__/__/mesh/prov/src/prov_utils.c.obj
                0x0003ad60                prov_utils_derive_keys
 .text.prov_utils_calculate_shared_secret
                0x0003ae14       0x38 examples/light_switch/proxy_client/CMakeFiles/light_switch_proxy_client_nrf52832_xxAA_s132_6.0.0.dir/__/__/__/mesh/prov/src/prov_utils.c.obj
                0x0003ae14                prov_utils_calculate_shared_secret
 .text.prov_utils_generate_oob_data
                0x0003ae4c      0x1b8 examples/light_switch/proxy_client/CMakeFiles/light_switch_proxy_client_nrf52832_xxAA_s132_6.0.0.dir/__/__/__/mesh/prov/src/prov_utils.c.obj
                0x0003ae4c                prov_utils_generate_oob_data
 .text.prov_utils_confirmation_check
                0x0003b004       0x5c examples/light_switch/proxy_client/CMakeFiles/light_switch_proxy_client_nrf52832_xxAA_s132_6.0.0.dir/__/__/__/mesh/prov/src/prov_utils.c.obj
                0x0003b004                prov_utils_confirmation_check
 .text.link_timeout_cb
                0x0003b060       0x10 examples/light_switch/proxy_client/CMakeFiles/light_switch_proxy_client_nrf52832_xxAA_s132_6.0.0.dir/__/__/__/mesh/prov/src/prov_bearer_adv.c.obj
 .text.prov_bearer_adv_listen_stop
                0x0003b070       0x8c examples/light_switch/proxy_client/CMakeFiles/light_switch_proxy_client_nrf52832_xxAA_s132_6.0.0.dir/__/__/__/mesh/prov/src/prov_bearer_adv.c.obj
 .text.tx_complete_cb
                0x0003b0fc       0x20 examples/light_switch/proxy_client/CMakeFiles/light_switch_proxy_client_nrf52832_xxAA_s132_6.0.0.dir/__/__/__/mesh/prov/src/prov_bearer_adv.c.obj
 .text.prov_bearer_adv_listen
                0x0003b11c      0x160 examples/light_switch/proxy_client/CMakeFiles/light_switch_proxy_client_nrf52832_xxAA_s132_6.0.0.dir/__/__/__/mesh/prov/src/prov_bearer_adv.c.obj
 .text.prov_buffer_tx
                0x0003b27c      0x1d8 examples/light_switch/proxy_client/CMakeFiles/light_switch_proxy_client_nrf52832_xxAA_s132_6.0.0.dir/__/__/__/mesh/prov/src/prov_bearer_adv.c.obj
 .text.close_link
                0x0003b454       0xc0 examples/light_switch/proxy_client/CMakeFiles/light_switch_proxy_client_nrf52832_xxAA_s132_6.0.0.dir/__/__/__/mesh/prov/src/prov_bearer_adv.c.obj
 .text.async_process
                0x0003b514       0x60 examples/light_switch/proxy_client/CMakeFiles/light_switch_proxy_client_nrf52832_xxAA_s132_6.0.0.dir/__/__/__/mesh/prov/src/prov_bearer_adv.c.obj
 .text.prov_bearer_adv_tx
                0x0003b574       0xe4 examples/light_switch/proxy_client/CMakeFiles/light_switch_proxy_client_nrf52832_xxAA_s132_6.0.0.dir/__/__/__/mesh/prov/src/prov_bearer_adv.c.obj
 .text.send_link_ack
                0x0003b658       0x80 examples/light_switch/proxy_client/CMakeFiles/light_switch_proxy_client_nrf52832_xxAA_s132_6.0.0.dir/__/__/__/mesh/prov/src/prov_bearer_adv.c.obj
 .text.tx_retry_cb
                0x0003b6d8      0x13c examples/light_switch/proxy_client/CMakeFiles/light_switch_proxy_client_nrf52832_xxAA_s132_6.0.0.dir/__/__/__/mesh/prov/src/prov_bearer_adv.c.obj
 .text.send_transaction_ack
                0x0003b814       0x68 examples/light_switch/proxy_client/CMakeFiles/light_switch_proxy_client_nrf52832_xxAA_s132_6.0.0.dir/__/__/__/mesh/prov/src/prov_bearer_adv.c.obj
 .text.prov_buffer_rx
                0x0003b87c       0x9c examples/light_switch/proxy_client/CMakeFiles/light_switch_proxy_client_nrf52832_xxAA_s132_6.0.0.dir/__/__/__/mesh/prov/src/prov_bearer_adv.c.obj
 .text.prov_bearer_adv_link_open
                0x0003b918      0x1c0 examples/light_switch/proxy_client/CMakeFiles/light_switch_proxy_client_nrf52832_xxAA_s132_6.0.0.dir/__/__/__/mesh/prov/src/prov_bearer_adv.c.obj
 .text.prov_bearer_adv_link_close
                0x0003bad8       0xd8 examples/light_switch/proxy_client/CMakeFiles/light_switch_proxy_client_nrf52832_xxAA_s132_6.0.0.dir/__/__/__/mesh/prov/src/prov_bearer_adv.c.obj
 .text.nrf_mesh_prov_bearer_adv_interface_get
                0x0003bbb0       0x40 examples/light_switch/proxy_client/CMakeFiles/light_switch_proxy_client_nrf52832_xxAA_s132_6.0.0.dir/__/__/__/mesh/prov/src/prov_bearer_adv.c.obj
                0x0003bbb0                nrf_mesh_prov_bearer_adv_interface_get
 .text.prov_bearer_adv_packet_in
                0x0003bbf0      0x950 examples/light_switch/proxy_client/CMakeFiles/light_switch_proxy_client_nrf52832_xxAA_s132_6.0.0.dir/__/__/__/mesh/prov/src/prov_bearer_adv.c.obj
                0x0003bbf0                prov_bearer_adv_packet_in
 .text.SystemInit
                0x0003c540      0x3cc examples/light_switch/proxy_client/CMakeFiles/light_switch_proxy_client_nrf52832_xxAA_s132_6.0.0.dir/C_/b/nRF5_SDK_15.0.0_a53641a/modules/nrfx/mdk/system_nrf52.c.obj
                0x0003c540                SystemInit
 .text          0x0003c90c       0x3c examples/light_switch/proxy_client/CMakeFiles/light_switch_proxy_client_nrf52832_xxAA_s132_6.0.0.dir/C_/b/nRF5_SDK_15.0.0_a53641a/modules/nrfx/mdk/gcc_startup_nrf52.S.obj
                0x0003c90c                Reset_Handler
                0x0003c934                NMI_Handler
                0x0003c936                HardFault_Handler
                0x0003c938                MemoryManagement_Handler
                0x0003c93a                BusFault_Handler
                0x0003c93c                UsageFault_Handler
                0x0003c93e                SVC_Handler
                0x0003c940                DebugMon_Handler
                0x0003c942                PendSV_Handler
                0x0003c944                SysTick_Handler
                0x0003c946                PDM_IRQHandler
                0x0003c946                TEMP_IRQHandler
                0x0003c946                TIMER3_IRQHandler
                0x0003c946                FPU_IRQHandler
                0x0003c946                SPIM0_SPIS0_TWIM0_TWIS0_SPI0_TWI0_IRQHandler
                0x0003c946                RADIO_IRQHandler
                0x0003c946                UARTE0_UART0_IRQHandler
                0x0003c946                TIMER4_IRQHandler
                0x0003c946                I2S_IRQHandler
                0x0003c946                SWI4_EGU4_IRQHandler
                0x0003c946                TIMER0_IRQHandler
                0x0003c946                RTC0_IRQHandler
                0x0003c946                TIMER1_IRQHandler
                0x0003c946                POWER_CLOCK_IRQHandler
                0x0003c946                ECB_IRQHandler
                0x0003c946                SPIM1_SPIS1_TWIM1_TWIS1_SPI1_TWI1_IRQHandler
                0x0003c946                Default_Handler
                0x0003c946                SAADC_IRQHandler
                0x0003c946                CCM_AAR_IRQHandler
                0x0003c946                WDT_IRQHandler
                0x0003c946                SWI0_EGU0_IRQHandler
                0x0003c946                SWI5_EGU5_IRQHandler
                0x0003c946                RNG_IRQHandler
                0x0003c946                RTC2_IRQHandler
                0x0003c946                PWM0_IRQHandler
                0x0003c946                SWI3_EGU3_IRQHandler
                0x0003c946                RTC1_IRQHandler
                0x0003c946                SWI1_EGU1_IRQHandler
                0x0003c946                SPIM2_SPIS2_SPI2_IRQHandler
                0x0003c946                NFCT_IRQHandler
                0x0003c946                PWM1_IRQHandler
                0x0003c946                MWU_IRQHandler
                0x0003c946                PWM2_IRQHandler
                0x0003c946                COMP_LPCOMP_IRQHandler
 .text.app_error_handler
                0x0003c948       0x1c examples/light_switch/proxy_client/CMakeFiles/light_switch_proxy_client_nrf52832_xxAA_s132_6.0.0.dir/C_/b/nRF5_SDK_15.0.0_a53641a/components/libraries/util/app_error_handler_gcc.c.obj
                0x0003c948                app_error_handler
 .text.SEGGER_RTT_Write
                0x0003c964      0x1e4 external/rtt/librtt_nrf52832_xxAA.a(SEGGER_RTT.c.obj)
                0x0003c964                SEGGER_RTT_Write
 .text.SEGGER_RTT_GetKey
                0x0003cb48       0xec external/rtt/librtt_nrf52832_xxAA.a(SEGGER_RTT.c.obj)
                0x0003cb48                SEGGER_RTT_GetKey
 .text._PrintUnsigned
                0x0003cc34      0x194 external/rtt/librtt_nrf52832_xxAA.a(SEGGER_RTT_printf.c.obj)
 .text.SEGGER_RTT_vprintf
                0x0003cdc8      0x464 external/rtt/librtt_nrf52832_xxAA.a(SEGGER_RTT_printf.c.obj)
                0x0003cdc8                SEGGER_RTT_vprintf
 .text.SEGGER_RTT_printf
                0x0003d22c       0x20 external/rtt/librtt_nrf52832_xxAA.a(SEGGER_RTT_printf.c.obj)
                0x0003d22c                SEGGER_RTT_printf
 .text.default_RNG
                0x0003d24c        0xc external/micro-ecc/libuECC_nrf52832_xxAA.a(uECC.c.obj)
 .text.uECC_generate_random_int
                0x0003d258      0x170 external/micro-ecc/libuECC_nrf52832_xxAA.a(uECC.c.obj)
 .text.apply_z  0x0003d3c8      0x1a8 external/micro-ecc/libuECC_nrf52832_xxAA.a(uECC.c.obj)
 .text.uECC_vli_modAdd
                0x0003d570       0xc8 external/micro-ecc/libuECC_nrf52832_xxAA.a(uECC.c.obj)
 .text.x_side_default
                0x0003d638      0x254 external/micro-ecc/libuECC_nrf52832_xxAA.a(uECC.c.obj)
 .text.vli_mmod_fast_secp256r1
                0x0003d88c      0x520 external/micro-ecc/libuECC_nrf52832_xxAA.a(uECC.c.obj)
 .text.XYcZ_add
                0x0003ddac      0x6dc external/micro-ecc/libuECC_nrf52832_xxAA.a(uECC.c.obj)
 .text.XYcZ_addC
                0x0003e488      0xa94 external/micro-ecc/libuECC_nrf52832_xxAA.a(uECC.c.obj)
 .text.uECC_vli_modInv.part.4
                0x0003ef1c      0x6e8 external/micro-ecc/libuECC_nrf52832_xxAA.a(uECC.c.obj)
 .text.EccPoint_mult.constprop.5
                0x0003f604      0x470 external/micro-ecc/libuECC_nrf52832_xxAA.a(uECC.c.obj)
 .text.double_jacobian_default
                0x0003fa74      0x7ec external/micro-ecc/libuECC_nrf52832_xxAA.a(uECC.c.obj)
 .text.uECC_secp256r1
                0x00040260        0x8 external/micro-ecc/libuECC_nrf52832_xxAA.a(uECC.c.obj)
                0x00040260                uECC_secp256r1
 .text.uECC_make_key
                0x00040268      0x23c external/micro-ecc/libuECC_nrf52832_xxAA.a(uECC.c.obj)
                0x00040268                uECC_make_key
 .text.uECC_shared_secret
                0x000404a4      0x788 external/micro-ecc/libuECC_nrf52832_xxAA.a(uECC.c.obj)
                0x000404a4                uECC_shared_secret
 .text.uECC_valid_point
                0x00040c2c      0x134 external/micro-ecc/libuECC_nrf52832_xxAA.a(uECC.c.obj)
                0x00040c2c                uECC_valid_point
 .text.uECC_valid_public_key
                0x00040d60       0xe8 external/micro-ecc/libuECC_nrf52832_xxAA.a(uECC.c.obj)
                0x00040d60                uECC_valid_public_key
 .text          0x00040e48       0x30 c:/mesh/arm_gcc/bin/../lib/gcc/arm-none-eabi/6.3.1/thumb/v7e-m/fpv4-sp/hard\libgcc.a(_aeabi_uldivmod.o)
                0x00040e48                __aeabi_uldivmod
 .text          0x00040e78      0x2dc c:/mesh/arm_gcc/bin/../lib/gcc/arm-none-eabi/6.3.1/thumb/v7e-m/fpv4-sp/hard\libgcc.a(_udivmoddi4.o)
                0x00040e78                __udivmoddi4
 .text          0x00041154        0x4 c:/mesh/arm_gcc/bin/../lib/gcc/arm-none-eabi/6.3.1/thumb/v7e-m/fpv4-sp/hard\libgcc.a(_dvmd_tls.o)
                0x00041154                __aeabi_idiv0
                0x00041154                __aeabi_ldiv0
 .text.exit     0x00041158       0x28 c:/mesh/arm_gcc/bin/../lib/gcc/arm-none-eabi/6.3.1/../../../../arm-none-eabi/lib/thumb/v7e-m/fpv4-sp/hard\libc_nano.a(lib_a-exit.o)
                0x00041158                exit
 .text.__libc_init_array
                0x00041180       0x48 c:/mesh/arm_gcc/bin/../lib/gcc/arm-none-eabi/6.3.1/../../../../arm-none-eabi/lib/thumb/v7e-m/fpv4-sp/hard\libc_nano.a(lib_a-init.o)
                0x00041180                __libc_init_array
 .text.malloc   0x000411c8       0x10 c:/mesh/arm_gcc/bin/../lib/gcc/arm-none-eabi/6.3.1/../../../../arm-none-eabi/lib/thumb/v7e-m/fpv4-sp/hard\libc_nano.a(lib_a-malloc.o)
                0x000411c8                malloc
 .text.free     0x000411d8       0x10 c:/mesh/arm_gcc/bin/../lib/gcc/arm-none-eabi/6.3.1/../../../../arm-none-eabi/lib/thumb/v7e-m/fpv4-sp/hard\libc_nano.a(lib_a-malloc.o)
                0x000411d8                free
 .text.memcmp   0x000411e8       0x1e c:/mesh/arm_gcc/bin/../lib/gcc/arm-none-eabi/6.3.1/../../../../arm-none-eabi/lib/thumb/v7e-m/fpv4-sp/hard\libc_nano.a(lib_a-memcmp.o)
                0x000411e8                memcmp
 .text.memcpy   0x00041206       0x16 c:/mesh/arm_gcc/bin/../lib/gcc/arm-none-eabi/6.3.1/../../../../arm-none-eabi/lib/thumb/v7e-m/fpv4-sp/hard\libc_nano.a(lib_a-memcpy-stub.o)
                0x00041206                memcpy
 .text.memset   0x0004121c       0x10 c:/mesh/arm_gcc/bin/../lib/gcc/arm-none-eabi/6.3.1/../../../../arm-none-eabi/lib/thumb/v7e-m/fpv4-sp/hard\libc_nano.a(lib_a-memset.o)
                0x0004121c                memset
 .text._free_r  0x0004122c       0x9c c:/mesh/arm_gcc/bin/../lib/gcc/arm-none-eabi/6.3.1/../../../../arm-none-eabi/lib/thumb/v7e-m/fpv4-sp/hard\libc_nano.a(lib_a-nano-freer.o)
                0x0004122c                _free_r
 .text._malloc_r
                0x000412c8       0xbc c:/mesh/arm_gcc/bin/../lib/gcc/arm-none-eabi/6.3.1/../../../../arm-none-eabi/lib/thumb/v7e-m/fpv4-sp/hard\libc_nano.a(lib_a-nano-mallocr.o)
                0x000412c8                _malloc_r
 .text._sbrk_r  0x00041384       0x20 c:/mesh/arm_gcc/bin/../lib/gcc/arm-none-eabi/6.3.1/../../../../arm-none-eabi/lib/thumb/v7e-m/fpv4-sp/hard\libc_nano.a(lib_a-sbrkr.o)
                0x00041384                _sbrk_r
 .text.strcpy   0x000413a4       0x10 c:/mesh/arm_gcc/bin/../lib/gcc/arm-none-eabi/6.3.1/../../../../arm-none-eabi/lib/thumb/v7e-m/fpv4-sp/hard\libc_nano.a(lib_a-strcpy.o)
                0x000413a4                strcpy
 .text          0x000413b4       0x10 c:/mesh/arm_gcc/bin/../lib/gcc/arm-none-eabi/6.3.1/../../../../arm-none-eabi/lib/thumb/v7e-m/fpv4-sp/hard\libc_nano.a(lib_a-strlen.o)
                0x000413b4                strlen
 .text.strrchr  0x000413c4       0x26 c:/mesh/arm_gcc/bin/../lib/gcc/arm-none-eabi/6.3.1/../../../../arm-none-eabi/lib/thumb/v7e-m/fpv4-sp/hard\libc_nano.a(lib_a-strrchr.o)
                0x000413c4                strrchr
 .text.__malloc_lock
                0x000413ea        0x2 c:/mesh/arm_gcc/bin/../lib/gcc/arm-none-eabi/6.3.1/../../../../arm-none-eabi/lib/thumb/v7e-m/fpv4-sp/hard\libc_nano.a(lib_a-mlock.o)
                0x000413ea                __malloc_lock
 .text.__malloc_unlock
                0x000413ec        0x2 c:/mesh/arm_gcc/bin/../lib/gcc/arm-none-eabi/6.3.1/../../../../arm-none-eabi/lib/thumb/v7e-m/fpv4-sp/hard\libc_nano.a(lib_a-mlock.o)
                0x000413ec                __malloc_unlock
 .text.strchr   0x000413ee       0x1c c:/mesh/arm_gcc/bin/../lib/gcc/arm-none-eabi/6.3.1/../../../../arm-none-eabi/lib/thumb/v7e-m/fpv4-sp/hard\libc_nano.a(lib_a-strchr.o)
                0x000413ee                strchr
 *fill*         0x0004140a        0x2 
 .text._sbrk    0x0004140c       0x1c c:/mesh/arm_gcc/bin/../lib/gcc/arm-none-eabi/6.3.1/../../../../arm-none-eabi/lib/thumb/v7e-m/fpv4-sp/hard\libnosys.a(sbrk.o)
                0x0004140c                _sbrk
 .text._exit    0x00041428        0x4 c:/mesh/arm_gcc/bin/../lib/gcc/arm-none-eabi/6.3.1/../../../../arm-none-eabi/lib/thumb/v7e-m/fpv4-sp/hard\libnosys.a(_exit.o)
                0x00041428                _exit
 *(.init)
 .init          0x0004142c        0x4 c:/mesh/arm_gcc/bin/../lib/gcc/arm-none-eabi/6.3.1/thumb/v7e-m/fpv4-sp/hard/crti.o
                0x0004142c                _init
 .init          0x00041430        0x8 c:/mesh/arm_gcc/bin/../lib/gcc/arm-none-eabi/6.3.1/thumb/v7e-m/fpv4-sp/hard/crtn.o
 *(.fini)
 .fini          0x00041438        0x4 c:/mesh/arm_gcc/bin/../lib/gcc/arm-none-eabi/6.3.1/thumb/v7e-m/fpv4-sp/hard/crti.o
                0x00041438                _fini
 .fini          0x0004143c        0x8 c:/mesh/arm_gcc/bin/../lib/gcc/arm-none-eabi/6.3.1/thumb/v7e-m/fpv4-sp/hard/crtn.o
 *crtbegin.o(.ctors)
 *crtbegin?.o(.ctors)
 *(EXCLUDE_FILE(*crtend.o *crtend?.o) .ctors)
 *(SORT(.ctors.*))
 *(.ctors)
 *crtbegin.o(.dtors)
 *crtbegin?.o(.dtors)
 *(EXCLUDE_FILE(*crtend.o *crtend?.o) .dtors)
 *(SORT(.dtors.*))
 *(.dtors)
 *(.rodata*)
 .rodata.button_event_handler.str1.4
                0x00041444       0x56 examples/light_switch/proxy_client/CMakeFiles/light_switch_proxy_client_nrf52832_xxAA_s132_6.0.0.dir/src/main.c.obj
 *fill*         0x0004149a        0x2 
 .rodata.client_publish_timeout_cb.str1.4
                0x0004149c       0x1c examples/light_switch/proxy_client/CMakeFiles/light_switch_proxy_client_nrf52832_xxAA_s132_6.0.0.dir/src/main.c.obj
 .rodata.client_status_cb.str1.4
                0x000414b8       0x2d examples/light_switch/proxy_client/CMakeFiles/light_switch_proxy_client_nrf52832_xxAA_s132_6.0.0.dir/src/main.c.obj
 *fill*         0x000414e5        0x3 
 .rodata.config_server_evt_cb.str1.4
                0x000414e8       0x19 examples/light_switch/proxy_client/CMakeFiles/light_switch_proxy_client_nrf52832_xxAA_s132_6.0.0.dir/src/main.c.obj
 *fill*         0x00041501        0x3 
 .rodata.m_client_node_uuid
                0x00041504       0x10 examples/light_switch/proxy_client/CMakeFiles/light_switch_proxy_client_nrf52832_xxAA_s132_6.0.0.dir/src/main.c.obj
 .rodata.main.str1.4
                0x00041514       0x5c examples/light_switch/proxy_client/CMakeFiles/light_switch_proxy_client_nrf52832_xxAA_s132_6.0.0.dir/src/main.c.obj
 .rodata.models_init_cb.str1.4
                0x00041570       0x20 examples/light_switch/proxy_client/CMakeFiles/light_switch_proxy_client_nrf52832_xxAA_s132_6.0.0.dir/src/main.c.obj
 .rodata.provisioning_complete_cb.str1.4
                0x00041590       0x67 examples/light_switch/proxy_client/CMakeFiles/light_switch_proxy_client_nrf52832_xxAA_s132_6.0.0.dir/src/main.c.obj
 *fill*         0x000415f7        0x1 
 .rodata.static_auth_data.12187
                0x000415f8       0x10 examples/light_switch/proxy_client/CMakeFiles/light_switch_proxy_client_nrf52832_xxAA_s132_6.0.0.dir/src/main.c.obj
 .rodata        0x00041608        0xb examples/light_switch/proxy_client/CMakeFiles/light_switch_proxy_client_nrf52832_xxAA_s132_6.0.0.dir/__/__/common/src/mesh_provisionee.c.obj
 *fill*         0x00041613        0xd 
 .rodata.delay_bytecode.8414
                0x00041620        0x6 examples/light_switch/proxy_client/CMakeFiles/light_switch_proxy_client_nrf52832_xxAA_s132_6.0.0.dir/__/__/common/src/simple_hal.c.obj
 *fill*         0x00041626        0x2 
 .rodata.m_pb_gatt_fsm_descriptor
                0x00041628       0x24 examples/light_switch/proxy_client/CMakeFiles/light_switch_proxy_client_nrf52832_xxAA_s132_6.0.0.dir/__/__/__/mesh/prov/src/nrf_mesh_prov_bearer_gatt.c.obj
 .rodata.m_pb_gatt_fsm_transition_table
                0x0004164c       0x48 examples/light_switch/proxy_client/CMakeFiles/light_switch_proxy_client_nrf52832_xxAA_s132_6.0.0.dir/__/__/__/mesh/prov/src/nrf_mesh_prov_bearer_gatt.c.obj
 .rodata.pb_gatt_fsm_actions
                0x00041694       0x24 examples/light_switch/proxy_client/CMakeFiles/light_switch_proxy_client_nrf52832_xxAA_s132_6.0.0.dir/__/__/__/mesh/prov/src/nrf_mesh_prov_bearer_gatt.c.obj
 .rodata.prov_bearer_interface.9812
                0x000416b8       0x14 examples/light_switch/proxy_client/CMakeFiles/light_switch_proxy_client_nrf52832_xxAA_s132_6.0.0.dir/__/__/__/mesh/prov/src/nrf_mesh_prov_bearer_gatt.c.obj
 .rodata.str1.4
                0x000416cc      0x186 examples/light_switch/proxy_client/CMakeFiles/light_switch_proxy_client_nrf52832_xxAA_s132_6.0.0.dir/__/__/__/mesh/prov/src/nrf_mesh_prov_bearer_gatt.c.obj
 *fill*         0x00041852        0x2 
 .rodata        0x00041854        0x4 examples/light_switch/proxy_client/CMakeFiles/light_switch_proxy_client_nrf52832_xxAA_s132_6.0.0.dir/C_/b/nRF5_SDK_15.0.0_a53641a/components/softdevice/common/nrf_sdh.c.obj
 .rodata.sdh_req_observers
                0x00041858        0xc examples/light_switch/proxy_client/CMakeFiles/light_switch_proxy_client_nrf52832_xxAA_s132_6.0.0.dir/C_/b/nRF5_SDK_15.0.0_a53641a/components/softdevice/common/nrf_sdh.c.obj
 .rodata.sdh_stack_observers
                0x00041864        0xc examples/light_switch/proxy_client/CMakeFiles/light_switch_proxy_client_nrf52832_xxAA_s132_6.0.0.dir/C_/b/nRF5_SDK_15.0.0_a53641a/components/softdevice/common/nrf_sdh.c.obj
 .rodata.sdh_state_observers
                0x00041870        0xc examples/light_switch/proxy_client/CMakeFiles/light_switch_proxy_client_nrf52832_xxAA_s132_6.0.0.dir/C_/b/nRF5_SDK_15.0.0_a53641a/components/softdevice/common/nrf_sdh.c.obj
 .rodata.sdh_soc_observers
                0x0004187c        0xc examples/light_switch/proxy_client/CMakeFiles/light_switch_proxy_client_nrf52832_xxAA_s132_6.0.0.dir/C_/b/nRF5_SDK_15.0.0_a53641a/components/softdevice/common/nrf_sdh_soc.c.obj
 .rodata.sdh_ble_observers
                0x00041888        0xc examples/light_switch/proxy_client/CMakeFiles/light_switch_proxy_client_nrf52832_xxAA_s132_6.0.0.dir/C_/b/nRF5_SDK_15.0.0_a53641a/components/softdevice/common/nrf_sdh_ble.c.obj
 .rodata.app_error_fault_handler.str1.4
                0x00041894       0xc5 examples/light_switch/proxy_client/CMakeFiles/light_switch_proxy_client_nrf52832_xxAA_s132_6.0.0.dir/__/__/common/src/app_error_weak.c.obj
 .rodata.mesh_assertion_handler.str1.4
                0x00041959       0xc5 examples/light_switch/proxy_client/CMakeFiles/light_switch_proxy_client_nrf52832_xxAA_s132_6.0.0.dir/__/__/common/src/assertion_handler_weak.c.obj
                                  0x1 (size before relaxing)
 *fill*         0x00041959        0x3 
 .rodata.sar_ctx_cancel.str1.4
                0x0004195c       0x23 examples/light_switch/proxy_client/CMakeFiles/light_switch_proxy_client_nrf52832_xxAA_s132_6.0.0.dir/__/__/__/mesh/core/src/transport.c.obj
 *fill*         0x0004197f        0x1 
 .rodata.transport_packet_in.str1.4
                0x00041980       0x24 examples/light_switch/proxy_client/CMakeFiles/light_switch_proxy_client_nrf52832_xxAA_s132_6.0.0.dir/__/__/__/mesh/core/src/transport.c.obj
 .rodata.upper_transport_access_packet_in.str1.4
                0x000419a4       0x3d examples/light_switch/proxy_client/CMakeFiles/light_switch_proxy_client_nrf52832_xxAA_s132_6.0.0.dir/__/__/__/mesh/core/src/transport.c.obj
 *fill*         0x000419e1        0x3 
 .rodata.upper_transport_packet_in.str1.4
                0x000419e4       0x2e examples/light_switch/proxy_client/CMakeFiles/light_switch_proxy_client_nrf52832_xxAA_s132_6.0.0.dir/__/__/__/mesh/core/src/transport.c.obj
 *fill*         0x00041a12        0x2 
 .rodata.upper_transport_tx.part.25.str1.4
                0x00041a14       0x2e examples/light_switch/proxy_client/CMakeFiles/light_switch_proxy_client_nrf52832_xxAA_s132_6.0.0.dir/__/__/__/mesh/core/src/transport.c.obj
                                 0x38 (size before relaxing)
 *fill*         0x00041a42        0x2 
 .rodata.m_all_operations
                0x00041a44       0x10 examples/light_switch/proxy_client/CMakeFiles/light_switch_proxy_client_nrf52832_xxAA_s132_6.0.0.dir/__/__/__/mesh/core/src/mesh_flash.c.obj
 .rodata.types_lookup.9060
                0x00041a54        0x4 examples/light_switch/proxy_client/CMakeFiles/light_switch_proxy_client_nrf52832_xxAA_s132_6.0.0.dir/__/__/__/mesh/core/src/nrf_mesh_utils.c.obj
 .rodata.__func__.11551
                0x00041a58       0x15 examples/light_switch/proxy_client/CMakeFiles/light_switch_proxy_client_nrf52832_xxAA_s132_6.0.0.dir/__/__/__/mesh/core/src/nrf_mesh.c.obj
 *fill*         0x00041a6d        0x3 
 .rodata.nrf_mesh_listen.str1.4
                0x00041a70       0x73 examples/light_switch/proxy_client/CMakeFiles/light_switch_proxy_client_nrf52832_xxAA_s132_6.0.0.dir/__/__/__/mesh/core/src/nrf_mesh.c.obj
 .rodata.nrf_mesh_packet_send.str1.4
                0x00041ae3       0x73 examples/light_switch/proxy_client/CMakeFiles/light_switch_proxy_client_nrf52832_xxAA_s132_6.0.0.dir/__/__/__/mesh/core/src/nrf_mesh.c.obj
                                  0x4 (size before relaxing)
 *fill*         0x00041ae3        0x1 
 .rodata.CSWTCH.8
                0x00041ae4       0x20 examples/light_switch/proxy_client/CMakeFiles/light_switch_proxy_client_nrf52832_xxAA_s132_6.0.0.dir/__/__/__/mesh/core/src/hal.c.obj
 .rodata        0x00041b04       0x18 examples/light_switch/proxy_client/CMakeFiles/light_switch_proxy_client_nrf52832_xxAA_s132_6.0.0.dir/__/__/__/mesh/core/src/enc.c.obj
 .rodata.network_packet_in.str1.4
                0x00041b1c       0x49 examples/light_switch/proxy_client/CMakeFiles/light_switch_proxy_client_nrf52832_xxAA_s132_6.0.0.dir/__/__/__/mesh/core/src/network.c.obj
 *fill*         0x00041b65        0x3 
 .rodata.net_packet_decrypt.str1.4
                0x00041b68       0x33 examples/light_switch/proxy_client/CMakeFiles/light_switch_proxy_client_nrf52832_xxAA_s132_6.0.0.dir/__/__/__/mesh/core/src/net_packet.c.obj
                                 0x3c (size before relaxing)
 *fill*         0x00041b9b        0x1 
 .rodata        0x00041b9c        0x7 examples/light_switch/proxy_client/CMakeFiles/light_switch_proxy_client_nrf52832_xxAA_s132_6.0.0.dir/__/__/__/mesh/core/src/nrf_mesh_keygen.c.obj
 *fill*         0x00041ba3        0x1 
 .rodata.log_callback_rtt.str1.4
                0x00041ba4       0x15 examples/light_switch/proxy_client/CMakeFiles/light_switch_proxy_client_nrf52832_xxAA_s132_6.0.0.dir/__/__/__/mesh/core/src/log.c.obj
 *fill*         0x00041bb9        0x3 
 .rodata.str1.4
                0x00041bbc       0x11 examples/light_switch/proxy_client/CMakeFiles/light_switch_proxy_client_nrf52832_xxAA_s132_6.0.0.dir/__/__/__/mesh/core/src/log.c.obj
 *fill*         0x00041bcd        0x3 
 .rodata.beacon_packet_in.str1.4
                0x00041bd0       0x55 examples/light_switch/proxy_client/CMakeFiles/light_switch_proxy_client_nrf52832_xxAA_s132_6.0.0.dir/__/__/__/mesh/core/src/beacon.c.obj
                                 0x60 (size before relaxing)
 *fill*         0x00041c25        0x3 
 .rodata.cp_handler
                0x00041c28        0x8 examples/light_switch/proxy_client/CMakeFiles/light_switch_proxy_client_nrf52832_xxAA_s132_6.0.0.dir/__/__/__/mesh/core/src/heartbeat.c.obj
 .rodata.beacon_tx.str1.4
                0x00041c30       0x37 examples/light_switch/proxy_client/CMakeFiles/light_switch_proxy_client_nrf52832_xxAA_s132_6.0.0.dir/__/__/__/mesh/core/src/net_beacon.c.obj
 *fill*         0x00041c67        0x1 
 .rodata.net_beacon_init.str1.4
                0x00041c68        0x5 examples/light_switch/proxy_client/CMakeFiles/light_switch_proxy_client_nrf52832_xxAA_s132_6.0.0.dir/__/__/__/mesh/core/src/net_beacon.c.obj
 *fill*         0x00041c6d        0x3 
 .rodata.fsm_event_post.str1.4
                0x00041c70        0xb examples/light_switch/proxy_client/CMakeFiles/light_switch_proxy_client_nrf52832_xxAA_s132_6.0.0.dir/__/__/__/mesh/core/src/fsm.c.obj
 *fill*         0x00041c7b        0x1 
 .rodata.fsm_event_post_try.str1.4
                0x00041c7c       0x44 examples/light_switch/proxy_client/CMakeFiles/light_switch_proxy_client_nrf52832_xxAA_s132_6.0.0.dir/__/__/__/mesh/core/src/fsm.c.obj
 .rodata.fsm_init.str1.4
                0x00041cc0        0xa examples/light_switch/proxy_client/CMakeFiles/light_switch_proxy_client_nrf52832_xxAA_s132_6.0.0.dir/__/__/__/mesh/core/src/fsm.c.obj
 *fill*         0x00041cca        0x2 
 .rodata.m_interface
                0x00041ccc        0xc examples/light_switch/proxy_client/CMakeFiles/light_switch_proxy_client_nrf52832_xxAA_s132_6.0.0.dir/__/__/__/mesh/core/src/core_tx_adv.c.obj
 .rodata.radio_mode_to_us_per_byte.9453
                0x00041cd8        0x6 examples/light_switch/proxy_client/CMakeFiles/light_switch_proxy_client_nrf52832_xxAA_s132_6.0.0.dir/__/__/__/mesh/bearer/src/broadcast.c.obj
 *fill*         0x00041cde        0x2 
 .rodata.channel_rf_offsets.8694
                0x00041ce0       0x28 examples/light_switch/proxy_client/CMakeFiles/light_switch_proxy_client_nrf52832_xxAA_s132_6.0.0.dir/__/__/__/mesh/bearer/src/radio_config.c.obj
 .rodata        0x00041d08        0x6 examples/light_switch/proxy_client/CMakeFiles/light_switch_proxy_client_nrf52832_xxAA_s132_6.0.0.dir/__/__/__/mesh/gatt/src/proxy.c.obj
 *fill*         0x00041d0e        0x2 
 .rodata.gatt_evt_handler.str1.4
                0x00041d10       0xea examples/light_switch/proxy_client/CMakeFiles/light_switch_proxy_client_nrf52832_xxAA_s132_6.0.0.dir/__/__/__/mesh/gatt/src/proxy.c.obj
 *fill*         0x00041dfa        0x2 
 .rodata.m_interface
                0x00041dfc        0xc examples/light_switch/proxy_client/CMakeFiles/light_switch_proxy_client_nrf52832_xxAA_s132_6.0.0.dir/__/__/__/mesh/gatt/src/proxy.c.obj
 .rodata.m_opcode_handlers
                0x00041e08        0x8 examples/light_switch/proxy_client/CMakeFiles/light_switch_proxy_client_nrf52832_xxAA_s132_6.0.0.dir/__/__/__/models/simple_on_off/src/simple_on_off_client.c.obj
 .rodata        0x00041e10        0x8 examples/light_switch/proxy_client/CMakeFiles/light_switch_proxy_client_nrf52832_xxAA_s132_6.0.0.dir/__/__/__/models/config/src/config_server.c.obj
 .rodata.CSWTCH.126
                0x00041e18       0x10 examples/light_switch/proxy_client/CMakeFiles/light_switch_proxy_client_nrf52832_xxAA_s132_6.0.0.dir/__/__/__/models/config/src/config_server.c.obj
 .rodata.opcode_handlers
                0x00041e28      0x170 examples/light_switch/proxy_client/CMakeFiles/light_switch_proxy_client_nrf52832_xxAA_s132_6.0.0.dir/__/__/__/models/config/src/config_server.c.obj
 .rodata.m_opcode_handlers
                0x00041f98       0x58 examples/light_switch/proxy_client/CMakeFiles/light_switch_proxy_client_nrf52832_xxAA_s132_6.0.0.dir/__/__/__/models/health/src/health_server.c.obj
 .rodata.multiply_de_bruijn_bit_position.9305
                0x00041ff0       0x20 examples/light_switch/proxy_client/CMakeFiles/light_switch_proxy_client_nrf52832_xxAA_s132_6.0.0.dir/__/__/__/models/health/src/health_server.c.obj
 .rodata.access_model_publish.str1.4
                0x00042010       0x1c examples/light_switch/proxy_client/CMakeFiles/light_switch_proxy_client_nrf52832_xxAA_s132_6.0.0.dir/__/__/__/mesh/access/src/access.c.obj
                                 0x24 (size before relaxing)
 .rodata.mesh_evt_cb.str1.4
                0x0004202c       0x2f examples/light_switch/proxy_client/CMakeFiles/light_switch_proxy_client_nrf52832_xxAA_s132_6.0.0.dir/__/__/__/mesh/access/src/access.c.obj
 *fill*         0x0004205b        0x1 
 .rodata.multiply_de_bruijn_bit_position.9367
                0x0004205c       0x20 examples/light_switch/proxy_client/CMakeFiles/light_switch_proxy_client_nrf52832_xxAA_s132_6.0.0.dir/__/__/__/mesh/access/src/device_state_manager.c.obj
 .rodata.m_prov_callbacks
                0x0004207c       0x10 examples/light_switch/proxy_client/CMakeFiles/light_switch_proxy_client_nrf52832_xxAA_s132_6.0.0.dir/__/__/__/mesh/prov/src/prov_provisionee.c.obj
 .rodata.prov_provisionee_cb_ack_received.str1.4
                0x0004208c       0x53 examples/light_switch/proxy_client/CMakeFiles/light_switch_proxy_client_nrf52832_xxAA_s132_6.0.0.dir/__/__/__/mesh/prov/src/prov_provisionee.c.obj
 *fill*         0x000420df        0x1 
 .rodata.multiply_de_bruijn_bit_position.9314
                0x000420e0       0x20 examples/light_switch/proxy_client/CMakeFiles/light_switch_proxy_client_nrf52832_xxAA_s132_6.0.0.dir/__/__/__/mesh/prov/src/nrf_mesh_prov.c.obj
 .rodata.pdu_sizes.11239
                0x00042100        0xa examples/light_switch/proxy_client/CMakeFiles/light_switch_proxy_client_nrf52832_xxAA_s132_6.0.0.dir/__/__/__/mesh/prov/src/provisioning.c.obj
 *fill*         0x0004210a        0x2 
 .rodata.alphanumeric.11344
                0x0004210c       0x25 examples/light_switch/proxy_client/CMakeFiles/light_switch_proxy_client_nrf52832_xxAA_s132_6.0.0.dir/__/__/__/mesh/prov/src/prov_utils.c.obj
 *fill*         0x00042131        0x3 
 .rodata.numeric_max.11338
                0x00042134       0x24 examples/light_switch/proxy_client/CMakeFiles/light_switch_proxy_client_nrf52832_xxAA_s132_6.0.0.dir/__/__/__/mesh/prov/src/prov_utils.c.obj
 .rodata.prov_utils_authentication_values_derive.str1.4
                0x00042158        0x5 examples/light_switch/proxy_client/CMakeFiles/light_switch_proxy_client_nrf52832_xxAA_s132_6.0.0.dir/__/__/__/mesh/prov/src/prov_utils.c.obj
 *fill*         0x0004215d        0x3 
 .rodata.prov_utils_derive_keys.str1.4
                0x00042160       0x15 examples/light_switch/proxy_client/CMakeFiles/light_switch_proxy_client_nrf52832_xxAA_s132_6.0.0.dir/__/__/__/mesh/prov/src/prov_utils.c.obj
 *fill*         0x00042175        0x3 
 .rodata.crctable.10973
                0x00042178      0x100 examples/light_switch/proxy_client/CMakeFiles/light_switch_proxy_client_nrf52832_xxAA_s132_6.0.0.dir/__/__/__/mesh/prov/src/prov_bearer_adv.c.obj
 .rodata.interface.11203
                0x00042278       0x14 examples/light_switch/proxy_client/CMakeFiles/light_switch_proxy_client_nrf52832_xxAA_s132_6.0.0.dir/__/__/__/mesh/prov/src/prov_bearer_adv.c.obj
 .rodata.prov_bearer_adv_listen.str1.4
                0x0004228c       0x50 examples/light_switch/proxy_client/CMakeFiles/light_switch_proxy_client_nrf52832_xxAA_s132_6.0.0.dir/__/__/__/mesh/prov/src/prov_bearer_adv.c.obj
 .rodata.prov_bearer_adv_packet_in.str1.4
                0x000422dc      0x283 examples/light_switch/proxy_client/CMakeFiles/light_switch_proxy_client_nrf52832_xxAA_s132_6.0.0.dir/__/__/__/mesh/prov/src/prov_bearer_adv.c.obj
 *fill*         0x0004255f        0x1 
 .rodata.tx_retry_cb.str1.4
                0x00042560       0x14 examples/light_switch/proxy_client/CMakeFiles/light_switch_proxy_client_nrf52832_xxAA_s132_6.0.0.dir/__/__/__/mesh/prov/src/prov_bearer_adv.c.obj
 .rodata.SEGGER_RTT_ReadNoLock.str1.4
                0x00042574       0x18 external/rtt/librtt_nrf52832_xxAA.a(SEGGER_RTT.c.obj)
                                 0x17 (size before relaxing)
 .rodata._aV2C.5497
                0x0004258c       0x10 external/rtt/librtt_nrf52832_xxAA.a(SEGGER_RTT_printf.c.obj)
 .rodata.curve_secp256r1
                0x0004259c       0xb0 external/micro-ecc/libuECC_nrf52832_xxAA.a(uECC.c.obj)
 .rodata._global_impure_ptr
                0x0004264c        0x4 c:/mesh/arm_gcc/bin/../lib/gcc/arm-none-eabi/6.3.1/../../../../arm-none-eabi/lib/thumb/v7e-m/fpv4-sp/hard\libc_nano.a(lib_a-impure.o)
                0x0004264c                _global_impure_ptr
 *(.eh_frame*)
 .eh_frame      0x00042650        0x0 c:/mesh/arm_gcc/bin/../lib/gcc/arm-none-eabi/6.3.1/thumb/v7e-m/fpv4-sp/hard/crtbegin.o
 .eh_frame      0x00042650        0x4 c:/mesh/arm_gcc/bin/../lib/gcc/arm-none-eabi/6.3.1/thumb/v7e-m/fpv4-sp/hard/crtend.o

.glue_7         0x00042654        0x0
 .glue_7        0x00042654        0x0 linker stubs

.glue_7t        0x00042654        0x0
 .glue_7t       0x00042654        0x0 linker stubs

.vfp11_veneer   0x00042654        0x0
 .vfp11_veneer  0x00042654        0x0 linker stubs

.v4_bx          0x00042654        0x0
 .v4_bx         0x00042654        0x0 linker stubs

.iplt           0x00042654        0x0
 .iplt          0x00042654        0x0 c:/mesh/arm_gcc/bin/../lib/gcc/arm-none-eabi/6.3.1/thumb/v7e-m/fpv4-sp/hard/crtbegin.o

.pwr_mgmt_data  0x00042654        0x0
                [!provide]                PROVIDE (__start_pwr_mgmt_data, .)
 *(SORT(.pwr_mgmt_data*))
                [!provide]                PROVIDE (__stop_pwr_mgmt_data, .)

.log_const_data
                0x00042654        0x0
                [!provide]                PROVIDE (__start_log_const_data, .)
 *(.log_const_data)
                [!provide]                PROVIDE (__stop_log_const_data, .)

.cli_command    0x00042654        0x0
                [!provide]                PROVIDE (__start_cli_command, .)
 *(.cli_command)
                [!provide]                PROVIDE (__stop_cli_command, .)

.sdh_stack_observers
                0x00042654       0x10
                0x00042654                PROVIDE (__start_sdh_stack_observers, .)
 *(SORT(.sdh_stack_observers*))
 .sdh_stack_observers0
                0x00042654        0x8 examples/light_switch/proxy_client/CMakeFiles/light_switch_proxy_client_nrf52832_xxAA_s132_6.0.0.dir/C_/b/nRF5_SDK_15.0.0_a53641a/components/softdevice/common/nrf_sdh_soc.c.obj
 .sdh_stack_observers0
                0x0004265c        0x8 examples/light_switch/proxy_client/CMakeFiles/light_switch_proxy_client_nrf52832_xxAA_s132_6.0.0.dir/C_/b/nRF5_SDK_15.0.0_a53641a/components/softdevice/common/nrf_sdh_ble.c.obj
                0x00042664                PROVIDE (__stop_sdh_stack_observers, .)

.sdh_req_observers
                0x00042664        0x0
                0x00042664                PROVIDE (__start_sdh_req_observers, .)
 *(SORT(.sdh_req_observers*))
                0x00042664                PROVIDE (__stop_sdh_req_observers, .)

.sdh_state_observers
                0x00042664        0x8
                0x00042664                PROVIDE (__start_sdh_state_observers, .)
 *(SORT(.sdh_state_observers*))
 .sdh_state_observers1
                0x00042664        0x8 examples/light_switch/proxy_client/CMakeFiles/light_switch_proxy_client_nrf52832_xxAA_s132_6.0.0.dir/__/__/common/src/mesh_provisionee.c.obj
                0x0004266c                PROVIDE (__stop_sdh_state_observers, .)

.sdh_ant_observers
                0x0004266c        0x0
                [!provide]                PROVIDE (__start_sdh_ant_observers, .)
 *(SORT(.sdh_ant_observers*))
                [!provide]                PROVIDE (__stop_sdh_ant_observers, .)

.sdh_ble_observers
                0x0004266c        0x8
                0x0004266c                PROVIDE (__start_sdh_ble_observers, .)
 *(SORT(.sdh_ble_observers*))
 .sdh_ble_observers2
                0x0004266c        0x8 examples/light_switch/proxy_client/CMakeFiles/light_switch_proxy_client_nrf52832_xxAA_s132_6.0.0.dir/__/__/__/mesh/gatt/src/mesh_gatt.c.obj
                0x00042674                PROVIDE (__stop_sdh_ble_observers, .)

.sdh_soc_observers
                0x00042674        0x8
                0x00042674                PROVIDE (__start_sdh_soc_observers, .)
 *(SORT(.sdh_soc_observers*))
 .sdh_soc_observers0
                0x00042674        0x8 examples/light_switch/proxy_client/CMakeFiles/light_switch_proxy_client_nrf52832_xxAA_s132_6.0.0.dir/src/main.c.obj
                0x0004267c                PROVIDE (__stop_sdh_soc_observers, .)

.ARM.extab
 *(.ARM.extab* .gnu.linkonce.armextab.*)
                0x0004267c                __exidx_start = .

.ARM.exidx      0x0004267c        0x8
 *(.ARM.exidx* .gnu.linkonce.armexidx.*)
 .ARM.exidx     0x0004267c        0x8 c:/mesh/arm_gcc/bin/../lib/gcc/arm-none-eabi/6.3.1/../../../../arm-none-eabi/lib/thumb/v7e-m/fpv4-sp/hard/crt0.o
 .ARM.exidx     0x00042684        0x0 c:/mesh/arm_gcc/bin/../lib/gcc/arm-none-eabi/6.3.1/thumb/v7e-m/fpv4-sp/hard\libgcc.a(_udivmoddi4.o)
                                  0x8 (size before relaxing)
                0x00042684                __exidx_end = .
                0x00042684                __etext = .

.rel.dyn        0x00042684        0x0
 .rel.iplt      0x00042684        0x0 c:/mesh/arm_gcc/bin/../lib/gcc/arm-none-eabi/6.3.1/thumb/v7e-m/fpv4-sp/hard/crtbegin.o

.data           0x200032c8      0x12c load address 0x00042684
                0x200032c8                __data_start__ = .
 *(vtable)
 *(.data*)
 .data.m_adv_handle
                0x200032c8        0x1 examples/light_switch/proxy_client/CMakeFiles/light_switch_proxy_client_nrf52832_xxAA_s132_6.0.0.dir/__/__/common/src/mesh_adv.c.obj
 *fill*         0x200032c9        0x3 
 .data.m_adv_params
                0x200032cc       0x18 examples/light_switch/proxy_client/CMakeFiles/light_switch_proxy_client_nrf52832_xxAA_s132_6.0.0.dir/__/__/common/src/mesh_adv.c.obj
 .data.m_action_lookup_table
                0x200032e4       0x24 examples/light_switch/proxy_client/CMakeFiles/light_switch_proxy_client_nrf52832_xxAA_s132_6.0.0.dir/__/__/__/mesh/prov/src/nrf_mesh_prov_bearer_gatt.c.obj
 .data.m_event_lookup_table
                0x20003308       0x2c examples/light_switch/proxy_client/CMakeFiles/light_switch_proxy_client_nrf52832_xxAA_s132_6.0.0.dir/__/__/__/mesh/prov/src/nrf_mesh_prov_bearer_gatt.c.obj
 .data.m_guard_lookup_table
                0x20003334        0x4 examples/light_switch/proxy_client/CMakeFiles/light_switch_proxy_client_nrf52832_xxAA_s132_6.0.0.dir/__/__/__/mesh/prov/src/nrf_mesh_prov_bearer_gatt.c.obj
 .data.m_state_lookup_table
                0x20003338       0x10 examples/light_switch/proxy_client/CMakeFiles/light_switch_proxy_client_nrf52832_xxAA_s132_6.0.0.dir/__/__/__/mesh/prov/src/nrf_mesh_prov_bearer_gatt.c.obj
 .data.wait.8936
                0x20003348        0x1 examples/light_switch/proxy_client/CMakeFiles/light_switch_proxy_client_nrf52832_xxAA_s132_6.0.0.dir/__/__/common/src/app_error_weak.c.obj
 *fill*         0x20003349        0x3 
 .data.m_nrf_mesh_listener
                0x2000334c        0xc examples/light_switch/proxy_client/CMakeFiles/light_switch_proxy_client_nrf52832_xxAA_s132_6.0.0.dir/__/__/__/mesh/core/src/nrf_mesh.c.obj
 .data.g_log_dbg_lvl
                0x20003358        0x4 examples/light_switch/proxy_client/CMakeFiles/light_switch_proxy_client_nrf52832_xxAA_s132_6.0.0.dir/__/__/__/mesh/core/src/log.c.obj
                0x20003358                g_log_dbg_lvl
 .data.g_log_dbg_msk
                0x2000335c        0x4 examples/light_switch/proxy_client/CMakeFiles/light_switch_proxy_client_nrf52832_xxAA_s132_6.0.0.dir/__/__/__/mesh/core/src/log.c.obj
                0x2000335c                g_log_dbg_msk
 .data.g_log_hex_digits
                0x20003360        0x4 examples/light_switch/proxy_client/CMakeFiles/light_switch_proxy_client_nrf52832_xxAA_s132_6.0.0.dir/__/__/__/mesh/core/src/log.c.obj
                0x20003360                g_log_hex_digits
 .data.m_log_callback
                0x20003364        0x4 examples/light_switch/proxy_client/CMakeFiles/light_switch_proxy_client_nrf52832_xxAA_s132_6.0.0.dir/__/__/__/mesh/core/src/log.c.obj
                0x20003364                m_log_callback
 .data.m_config_server_handle
                0x20003368        0x2 examples/light_switch/proxy_client/CMakeFiles/light_switch_proxy_client_nrf52832_xxAA_s132_6.0.0.dir/__/__/__/models/config/src/config_server.c.obj
 *fill*         0x2000336a        0x2 
 .data.m_mesh_evt_handler
                0x2000336c        0x8 examples/light_switch/proxy_client/CMakeFiles/light_switch_proxy_client_nrf52832_xxAA_s132_6.0.0.dir/__/__/__/models/config/src/config_server.c.obj
 .data.m_default_ttl
                0x20003374        0x1 examples/light_switch/proxy_client/CMakeFiles/light_switch_proxy_client_nrf52832_xxAA_s132_6.0.0.dir/__/__/__/mesh/access/src/access.c.obj
 *fill*         0x20003375        0x3 
 .data.m_async_process_flag
                0x20003378        0x4 examples/light_switch/proxy_client/CMakeFiles/light_switch_proxy_client_nrf52832_xxAA_s132_6.0.0.dir/__/__/__/mesh/prov/src/prov_bearer_adv.c.obj
 .data.SystemCoreClock
                0x2000337c        0x4 examples/light_switch/proxy_client/CMakeFiles/light_switch_proxy_client_nrf52832_xxAA_s132_6.0.0.dir/C_/b/nRF5_SDK_15.0.0_a53641a/modules/nrfx/mdk/system_nrf52.c.obj
                0x2000337c                SystemCoreClock
 .data.g_rng_function
                0x20003380        0x4 external/micro-ecc/libuECC_nrf52832_xxAA.a(uECC.c.obj)
 .data._impure_ptr
                0x20003384        0x4 c:/mesh/arm_gcc/bin/../lib/gcc/arm-none-eabi/6.3.1/../../../../arm-none-eabi/lib/thumb/v7e-m/fpv4-sp/hard\libc_nano.a(lib_a-impure.o)
                0x20003384                _impure_ptr
 .data.impure_data
                0x20003388       0x60 c:/mesh/arm_gcc/bin/../lib/gcc/arm-none-eabi/6.3.1/../../../../arm-none-eabi/lib/thumb/v7e-m/fpv4-sp/hard\libc_nano.a(lib_a-impure.o)
                0x200033e8                . = ALIGN (0x4)
                0x200033e8                PROVIDE (__preinit_array_start, .)
 *(.preinit_array)
                0x200033e8                PROVIDE (__preinit_array_end, .)
                0x200033e8                . = ALIGN (0x4)
                0x200033e8                PROVIDE (__init_array_start, .)
 *(SORT(.init_array.*))
 *(.init_array)
 .init_array    0x200033e8        0x4 c:/mesh/arm_gcc/bin/../lib/gcc/arm-none-eabi/6.3.1/thumb/v7e-m/fpv4-sp/hard/crtbegin.o
                0x200033ec                PROVIDE (__init_array_end, .)
                0x200033ec                . = ALIGN (0x4)
                [!provide]                PROVIDE (__fini_array_start, .)
 *(SORT(.fini_array.*))
 *(.fini_array)
 .fini_array    0x200033ec        0x4 c:/mesh/arm_gcc/bin/../lib/gcc/arm-none-eabi/6.3.1/thumb/v7e-m/fpv4-sp/hard/crtbegin.o
                [!provide]                PROVIDE (__fini_array_end, .)
 *(.jcr*)
 .jcr           0x200033f0        0x0 c:/mesh/arm_gcc/bin/../lib/gcc/arm-none-eabi/6.3.1/thumb/v7e-m/fpv4-sp/hard/crtbegin.o
 .jcr           0x200033f0        0x4 c:/mesh/arm_gcc/bin/../lib/gcc/arm-none-eabi/6.3.1/thumb/v7e-m/fpv4-sp/hard/crtend.o
                0x200033f4                . = ALIGN (0x4)
                0x200033f4                __data_end__ = .
LOAD c:/mesh/arm_gcc/bin/../lib/gcc/arm-none-eabi/6.3.1/thumb/v7e-m/fpv4-sp/hard/crti.o
LOAD c:/mesh/arm_gcc/bin/../lib/gcc/arm-none-eabi/6.3.1/thumb/v7e-m/fpv4-sp/hard/crtbegin.o
LOAD c:/mesh/arm_gcc/bin/../lib/gcc/arm-none-eabi/6.3.1/../../../../arm-none-eabi/lib/thumb/v7e-m/fpv4-sp/hard/crt0.o
LOAD examples/light_switch/proxy_client/CMakeFiles/light_switch_proxy_client_nrf52832_xxAA_s132_6.0.0.dir/src/main.c.obj
LOAD examples/light_switch/proxy_client/CMakeFiles/light_switch_proxy_client_nrf52832_xxAA_s132_6.0.0.dir/__/__/__/mesh/stack/src/mesh_stack.c.obj
LOAD examples/light_switch/proxy_client/CMakeFiles/light_switch_proxy_client_nrf52832_xxAA_s132_6.0.0.dir/__/__/common/src/mesh_provisionee.c.obj
LOAD examples/light_switch/proxy_client/CMakeFiles/light_switch_proxy_client_nrf52832_xxAA_s132_6.0.0.dir/__/__/common/src/rtt_input.c.obj
LOAD examples/light_switch/proxy_client/CMakeFiles/light_switch_proxy_client_nrf52832_xxAA_s132_6.0.0.dir/__/__/common/src/simple_hal.c.obj
LOAD examples/light_switch/proxy_client/CMakeFiles/light_switch_proxy_client_nrf52832_xxAA_s132_6.0.0.dir/__/__/common/src/mesh_adv.c.obj
LOAD examples/light_switch/proxy_client/CMakeFiles/light_switch_proxy_client_nrf52832_xxAA_s132_6.0.0.dir/__/__/__/mesh/prov/src/nrf_mesh_prov_bearer_gatt.c.obj
LOAD examples/light_switch/proxy_client/CMakeFiles/light_switch_proxy_client_nrf52832_xxAA_s132_6.0.0.dir/C_/b/nRF5_SDK_15.0.0_a53641a/components/libraries/util/app_error.c.obj
LOAD examples/light_switch/proxy_client/CMakeFiles/light_switch_proxy_client_nrf52832_xxAA_s132_6.0.0.dir/C_/b/nRF5_SDK_15.0.0_a53641a/components/libraries/util/app_util_platform.c.obj
LOAD examples/light_switch/proxy_client/CMakeFiles/light_switch_proxy_client_nrf52832_xxAA_s132_6.0.0.dir/C_/b/nRF5_SDK_15.0.0_a53641a/components/ble/common/ble_advdata.c.obj
LOAD examples/light_switch/proxy_client/CMakeFiles/light_switch_proxy_client_nrf52832_xxAA_s132_6.0.0.dir/C_/b/nRF5_SDK_15.0.0_a53641a/components/libraries/experimental_section_vars/nrf_section_iter.c.obj
LOAD examples/light_switch/proxy_client/CMakeFiles/light_switch_proxy_client_nrf52832_xxAA_s132_6.0.0.dir/C_/b/nRF5_SDK_15.0.0_a53641a/components/softdevice/common/nrf_sdh.c.obj
LOAD examples/light_switch/proxy_client/CMakeFiles/light_switch_proxy_client_nrf52832_xxAA_s132_6.0.0.dir/C_/b/nRF5_SDK_15.0.0_a53641a/components/softdevice/common/nrf_sdh_soc.c.obj
LOAD examples/light_switch/proxy_client/CMakeFiles/light_switch_proxy_client_nrf52832_xxAA_s132_6.0.0.dir/C_/b/nRF5_SDK_15.0.0_a53641a/components/softdevice/common/nrf_sdh_ble.c.obj
LOAD examples/light_switch/proxy_client/CMakeFiles/light_switch_proxy_client_nrf52832_xxAA_s132_6.0.0.dir/__/__/nrf_mesh_weak.c.obj
LOAD examples/light_switch/proxy_client/CMakeFiles/light_switch_proxy_client_nrf52832_xxAA_s132_6.0.0.dir/__/__/common/src/app_error_weak.c.obj
LOAD examples/light_switch/proxy_client/CMakeFiles/light_switch_proxy_client_nrf52832_xxAA_s132_6.0.0.dir/__/__/common/src/assertion_handler_weak.c.obj
LOAD examples/light_switch/proxy_client/CMakeFiles/light_switch_proxy_client_nrf52832_xxAA_s132_6.0.0.dir/__/__/__/mesh/core/src/internal_event.c.obj
LOAD examples/light_switch/proxy_client/CMakeFiles/light_switch_proxy_client_nrf52832_xxAA_s132_6.0.0.dir/__/__/__/mesh/core/src/nrf_mesh_configure.c.obj
LOAD examples/light_switch/proxy_client/CMakeFiles/light_switch_proxy_client_nrf52832_xxAA_s132_6.0.0.dir/__/__/__/mesh/core/src/aes.c.obj
LOAD examples/light_switch/proxy_client/CMakeFiles/light_switch_proxy_client_nrf52832_xxAA_s132_6.0.0.dir/__/__/__/mesh/core/src/msg_cache.c.obj
LOAD examples/light_switch/proxy_client/CMakeFiles/light_switch_proxy_client_nrf52832_xxAA_s132_6.0.0.dir/__/__/__/mesh/core/src/transport.c.obj
LOAD examples/light_switch/proxy_client/CMakeFiles/light_switch_proxy_client_nrf52832_xxAA_s132_6.0.0.dir/__/__/__/mesh/core/src/event.c.obj
LOAD examples/light_switch/proxy_client/CMakeFiles/light_switch_proxy_client_nrf52832_xxAA_s132_6.0.0.dir/__/__/__/mesh/core/src/packet_buffer.c.obj
LOAD examples/light_switch/proxy_client/CMakeFiles/light_switch_proxy_client_nrf52832_xxAA_s132_6.0.0.dir/__/__/__/mesh/core/src/flash_manager_defrag.c.obj
LOAD examples/light_switch/proxy_client/CMakeFiles/light_switch_proxy_client_nrf52832_xxAA_s132_6.0.0.dir/__/__/__/mesh/core/src/fifo.c.obj
LOAD examples/light_switch/proxy_client/CMakeFiles/light_switch_proxy_client_nrf52832_xxAA_s132_6.0.0.dir/__/__/__/mesh/core/src/nrf_flash.c.obj
LOAD examples/light_switch/proxy_client/CMakeFiles/light_switch_proxy_client_nrf52832_xxAA_s132_6.0.0.dir/__/__/__/mesh/core/src/packet_mgr.c.obj
LOAD examples/light_switch/proxy_client/CMakeFiles/light_switch_proxy_client_nrf52832_xxAA_s132_6.0.0.dir/__/__/__/mesh/core/src/net_state.c.obj
LOAD examples/light_switch/proxy_client/CMakeFiles/light_switch_proxy_client_nrf52832_xxAA_s132_6.0.0.dir/__/__/__/mesh/core/src/mesh_flash.c.obj
LOAD examples/light_switch/proxy_client/CMakeFiles/light_switch_proxy_client_nrf52832_xxAA_s132_6.0.0.dir/__/__/__/mesh/core/src/nrf_mesh_utils.c.obj
LOAD examples/light_switch/proxy_client/CMakeFiles/light_switch_proxy_client_nrf52832_xxAA_s132_6.0.0.dir/__/__/__/mesh/core/src/nrf_mesh.c.obj
LOAD examples/light_switch/proxy_client/CMakeFiles/light_switch_proxy_client_nrf52832_xxAA_s132_6.0.0.dir/__/__/__/mesh/core/src/queue.c.obj
LOAD examples/light_switch/proxy_client/CMakeFiles/light_switch_proxy_client_nrf52832_xxAA_s132_6.0.0.dir/__/__/__/mesh/core/src/hal.c.obj
LOAD examples/light_switch/proxy_client/CMakeFiles/light_switch_proxy_client_nrf52832_xxAA_s132_6.0.0.dir/__/__/__/mesh/core/src/aes_cmac.c.obj
LOAD examples/light_switch/proxy_client/CMakeFiles/light_switch_proxy_client_nrf52832_xxAA_s132_6.0.0.dir/__/__/__/mesh/core/src/timer_scheduler.c.obj
LOAD examples/light_switch/proxy_client/CMakeFiles/light_switch_proxy_client_nrf52832_xxAA_s132_6.0.0.dir/__/__/__/mesh/core/src/timer.c.obj
LOAD examples/light_switch/proxy_client/CMakeFiles/light_switch_proxy_client_nrf52832_xxAA_s132_6.0.0.dir/__/__/__/mesh/core/src/ticker.c.obj
LOAD examples/light_switch/proxy_client/CMakeFiles/light_switch_proxy_client_nrf52832_xxAA_s132_6.0.0.dir/__/__/__/mesh/core/src/rand.c.obj
LOAD examples/light_switch/proxy_client/CMakeFiles/light_switch_proxy_client_nrf52832_xxAA_s132_6.0.0.dir/__/__/__/mesh/core/src/nrf_mesh_opt.c.obj
LOAD examples/light_switch/proxy_client/CMakeFiles/light_switch_proxy_client_nrf52832_xxAA_s132_6.0.0.dir/__/__/__/mesh/core/src/timeslot.c.obj
LOAD examples/light_switch/proxy_client/CMakeFiles/light_switch_proxy_client_nrf52832_xxAA_s132_6.0.0.dir/__/__/__/mesh/core/src/bearer_event.c.obj
LOAD examples/light_switch/proxy_client/CMakeFiles/light_switch_proxy_client_nrf52832_xxAA_s132_6.0.0.dir/__/__/__/mesh/core/src/enc.c.obj
LOAD examples/light_switch/proxy_client/CMakeFiles/light_switch_proxy_client_nrf52832_xxAA_s132_6.0.0.dir/__/__/__/mesh/core/src/network.c.obj
LOAD examples/light_switch/proxy_client/CMakeFiles/light_switch_proxy_client_nrf52832_xxAA_s132_6.0.0.dir/__/__/__/mesh/core/src/net_packet.c.obj
LOAD examples/light_switch/proxy_client/CMakeFiles/light_switch_proxy_client_nrf52832_xxAA_s132_6.0.0.dir/__/__/__/mesh/core/src/msqueue.c.obj
LOAD examples/light_switch/proxy_client/CMakeFiles/light_switch_proxy_client_nrf52832_xxAA_s132_6.0.0.dir/__/__/__/mesh/core/src/nrf_mesh_keygen.c.obj
LOAD examples/light_switch/proxy_client/CMakeFiles/light_switch_proxy_client_nrf52832_xxAA_s132_6.0.0.dir/__/__/__/mesh/core/src/cache.c.obj
LOAD examples/light_switch/proxy_client/CMakeFiles/light_switch_proxy_client_nrf52832_xxAA_s132_6.0.0.dir/__/__/__/mesh/core/src/uri.c.obj
LOAD examples/light_switch/proxy_client/CMakeFiles/light_switch_proxy_client_nrf52832_xxAA_s132_6.0.0.dir/__/__/__/mesh/core/src/list.c.obj
LOAD examples/light_switch/proxy_client/CMakeFiles/light_switch_proxy_client_nrf52832_xxAA_s132_6.0.0.dir/__/__/__/mesh/core/src/log.c.obj
LOAD examples/light_switch/proxy_client/CMakeFiles/light_switch_proxy_client_nrf52832_xxAA_s132_6.0.0.dir/__/__/__/mesh/core/src/flash_manager.c.obj
LOAD examples/light_switch/proxy_client/CMakeFiles/light_switch_proxy_client_nrf52832_xxAA_s132_6.0.0.dir/__/__/__/mesh/core/src/ccm_soft.c.obj
LOAD examples/light_switch/proxy_client/CMakeFiles/light_switch_proxy_client_nrf52832_xxAA_s132_6.0.0.dir/__/__/__/mesh/core/src/toolchain.c.obj
LOAD examples/light_switch/proxy_client/CMakeFiles/light_switch_proxy_client_nrf52832_xxAA_s132_6.0.0.dir/__/__/__/mesh/core/src/replay_cache.c.obj
LOAD examples/light_switch/proxy_client/CMakeFiles/light_switch_proxy_client_nrf52832_xxAA_s132_6.0.0.dir/__/__/__/mesh/core/src/beacon.c.obj
LOAD examples/light_switch/proxy_client/CMakeFiles/light_switch_proxy_client_nrf52832_xxAA_s132_6.0.0.dir/__/__/__/mesh/core/src/flash_manager_internal.c.obj
LOAD examples/light_switch/proxy_client/CMakeFiles/light_switch_proxy_client_nrf52832_xxAA_s132_6.0.0.dir/__/__/__/mesh/core/src/core_tx.c.obj
LOAD examples/light_switch/proxy_client/CMakeFiles/light_switch_proxy_client_nrf52832_xxAA_s132_6.0.0.dir/__/__/__/mesh/core/src/heartbeat.c.obj
LOAD examples/light_switch/proxy_client/CMakeFiles/light_switch_proxy_client_nrf52832_xxAA_s132_6.0.0.dir/__/__/__/mesh/core/src/net_beacon.c.obj
LOAD examples/light_switch/proxy_client/CMakeFiles/light_switch_proxy_client_nrf52832_xxAA_s132_6.0.0.dir/__/__/__/mesh/core/src/fsm.c.obj
LOAD examples/light_switch/proxy_client/CMakeFiles/light_switch_proxy_client_nrf52832_xxAA_s132_6.0.0.dir/__/__/__/mesh/core/src/core_tx_adv.c.obj
LOAD examples/light_switch/proxy_client/CMakeFiles/light_switch_proxy_client_nrf52832_xxAA_s132_6.0.0.dir/__/__/__/mesh/bearer/src/ad_listener.c.obj
LOAD examples/light_switch/proxy_client/CMakeFiles/light_switch_proxy_client_nrf52832_xxAA_s132_6.0.0.dir/__/__/__/mesh/bearer/src/ad_type_filter.c.obj
LOAD examples/light_switch/proxy_client/CMakeFiles/light_switch_proxy_client_nrf52832_xxAA_s132_6.0.0.dir/__/__/__/mesh/bearer/src/adv_packet_filter.c.obj
LOAD examples/light_switch/proxy_client/CMakeFiles/light_switch_proxy_client_nrf52832_xxAA_s132_6.0.0.dir/__/__/__/mesh/bearer/src/advertiser.c.obj
LOAD examples/light_switch/proxy_client/CMakeFiles/light_switch_proxy_client_nrf52832_xxAA_s132_6.0.0.dir/__/__/__/mesh/bearer/src/bearer_handler.c.obj
LOAD examples/light_switch/proxy_client/CMakeFiles/light_switch_proxy_client_nrf52832_xxAA_s132_6.0.0.dir/__/__/__/mesh/bearer/src/broadcast.c.obj
LOAD examples/light_switch/proxy_client/CMakeFiles/light_switch_proxy_client_nrf52832_xxAA_s132_6.0.0.dir/__/__/__/mesh/bearer/src/filter_engine.c.obj
LOAD examples/light_switch/proxy_client/CMakeFiles/light_switch_proxy_client_nrf52832_xxAA_s132_6.0.0.dir/__/__/__/mesh/bearer/src/gap_address_filter.c.obj
LOAD examples/light_switch/proxy_client/CMakeFiles/light_switch_proxy_client_nrf52832_xxAA_s132_6.0.0.dir/__/__/__/mesh/bearer/src/radio_config.c.obj
LOAD examples/light_switch/proxy_client/CMakeFiles/light_switch_proxy_client_nrf52832_xxAA_s132_6.0.0.dir/__/__/__/mesh/bearer/src/rssi_filter.c.obj
LOAD examples/light_switch/proxy_client/CMakeFiles/light_switch_proxy_client_nrf52832_xxAA_s132_6.0.0.dir/__/__/__/mesh/bearer/src/scanner.c.obj
LOAD examples/light_switch/proxy_client/CMakeFiles/light_switch_proxy_client_nrf52832_xxAA_s132_6.0.0.dir/__/__/__/mesh/gatt/src/mesh_gatt.c.obj
LOAD examples/light_switch/proxy_client/CMakeFiles/light_switch_proxy_client_nrf52832_xxAA_s132_6.0.0.dir/__/__/__/mesh/gatt/src/proxy.c.obj
LOAD examples/light_switch/proxy_client/CMakeFiles/light_switch_proxy_client_nrf52832_xxAA_s132_6.0.0.dir/__/__/__/mesh/gatt/src/proxy_filter.c.obj
LOAD examples/light_switch/proxy_client/CMakeFiles/light_switch_proxy_client_nrf52832_xxAA_s132_6.0.0.dir/__/__/__/models/simple_on_off/src/simple_on_off_client.c.obj
LOAD examples/light_switch/proxy_client/CMakeFiles/light_switch_proxy_client_nrf52832_xxAA_s132_6.0.0.dir/__/__/__/models/config/src/composition_data.c.obj
LOAD examples/light_switch/proxy_client/CMakeFiles/light_switch_proxy_client_nrf52832_xxAA_s132_6.0.0.dir/__/__/__/models/config/src/config_server.c.obj
LOAD examples/light_switch/proxy_client/CMakeFiles/light_switch_proxy_client_nrf52832_xxAA_s132_6.0.0.dir/__/__/__/models/config/src/packed_index_list.c.obj
LOAD examples/light_switch/proxy_client/CMakeFiles/light_switch_proxy_client_nrf52832_xxAA_s132_6.0.0.dir/__/__/__/models/health/src/health_server.c.obj
LOAD examples/light_switch/proxy_client/CMakeFiles/light_switch_proxy_client_nrf52832_xxAA_s132_6.0.0.dir/__/__/__/mesh/access/src/access_publish.c.obj
LOAD examples/light_switch/proxy_client/CMakeFiles/light_switch_proxy_client_nrf52832_xxAA_s132_6.0.0.dir/__/__/__/mesh/access/src/access.c.obj
LOAD examples/light_switch/proxy_client/CMakeFiles/light_switch_proxy_client_nrf52832_xxAA_s132_6.0.0.dir/__/__/__/mesh/access/src/access_reliable.c.obj
LOAD examples/light_switch/proxy_client/CMakeFiles/light_switch_proxy_client_nrf52832_xxAA_s132_6.0.0.dir/__/__/__/mesh/access/src/device_state_manager.c.obj
LOAD examples/light_switch/proxy_client/CMakeFiles/light_switch_proxy_client_nrf52832_xxAA_s132_6.0.0.dir/__/__/__/mesh/prov/src/prov_provisionee.c.obj
LOAD examples/light_switch/proxy_client/CMakeFiles/light_switch_proxy_client_nrf52832_xxAA_s132_6.0.0.dir/__/__/__/mesh/prov/src/nrf_mesh_prov.c.obj
LOAD examples/light_switch/proxy_client/CMakeFiles/light_switch_proxy_client_nrf52832_xxAA_s132_6.0.0.dir/__/__/__/mesh/prov/src/provisioning.c.obj
LOAD examples/light_switch/proxy_client/CMakeFiles/light_switch_proxy_client_nrf52832_xxAA_s132_6.0.0.dir/__/__/__/mesh/prov/src/prov_beacon.c.obj
LOAD examples/light_switch/proxy_client/CMakeFiles/light_switch_proxy_client_nrf52832_xxAA_s132_6.0.0.dir/__/__/__/mesh/prov/src/prov_utils.c.obj
LOAD examples/light_switch/proxy_client/CMakeFiles/light_switch_proxy_client_nrf52832_xxAA_s132_6.0.0.dir/__/__/__/mesh/prov/src/prov_bearer_adv.c.obj
LOAD examples/light_switch/proxy_client/CMakeFiles/light_switch_proxy_client_nrf52832_xxAA_s132_6.0.0.dir/C_/b/nRF5_SDK_15.0.0_a53641a/modules/nrfx/mdk/system_nrf52.c.obj
LOAD examples/light_switch/proxy_client/CMakeFiles/light_switch_proxy_client_nrf52832_xxAA_s132_6.0.0.dir/C_/b/nRF5_SDK_15.0.0_a53641a/modules/nrfx/mdk/gcc_startup_nrf52.S.obj
LOAD examples/light_switch/proxy_client/CMakeFiles/light_switch_proxy_client_nrf52832_xxAA_s132_6.0.0.dir/C_/b/nRF5_SDK_15.0.0_a53641a/components/libraries/util/app_error_handler_gcc.c.obj
LOAD external/rtt/librtt_nrf52832_xxAA.a
LOAD external/micro-ecc/libuECC_nrf52832_xxAA.a
START GROUP
LOAD c:/mesh/arm_gcc/bin/../lib/gcc/arm-none-eabi/6.3.1/thumb/v7e-m/fpv4-sp/hard\libgcc.a
LOAD c:/mesh/arm_gcc/bin/../lib/gcc/arm-none-eabi/6.3.1/../../../../arm-none-eabi/lib/thumb/v7e-m/fpv4-sp/hard\libc_nano.a
END GROUP
START GROUP
LOAD c:/mesh/arm_gcc/bin/../lib/gcc/arm-none-eabi/6.3.1/thumb/v7e-m/fpv4-sp/hard\libgcc.a
LOAD c:/mesh/arm_gcc/bin/../lib/gcc/arm-none-eabi/6.3.1/../../../../arm-none-eabi/lib/thumb/v7e-m/fpv4-sp/hard\libc_nano.a
END GROUP
LOAD c:/mesh/arm_gcc/bin/../lib/gcc/arm-none-eabi/6.3.1/thumb/v7e-m/fpv4-sp/hard/crtend.o
LOAD c:/mesh/arm_gcc/bin/../lib/gcc/arm-none-eabi/6.3.1/thumb/v7e-m/fpv4-sp/hard/crtn.o
START GROUP
LOAD c:/mesh/arm_gcc/bin/../lib/gcc/arm-none-eabi/6.3.1/thumb/v7e-m/fpv4-sp/hard\libgcc.a
LOAD c:/mesh/arm_gcc/bin/../lib/gcc/arm-none-eabi/6.3.1/../../../../arm-none-eabi/lib/thumb/v7e-m/fpv4-sp/hard\libc.a
LOAD c:/mesh/arm_gcc/bin/../lib/gcc/arm-none-eabi/6.3.1/../../../../arm-none-eabi/lib/thumb/v7e-m/fpv4-sp/hard\libnosys.a
END GROUP

.igot.plt       0x200033f4        0x0 load address 0x000427b0
 .igot.plt      0x200033f4        0x0 c:/mesh/arm_gcc/bin/../lib/gcc/arm-none-eabi/6.3.1/thumb/v7e-m/fpv4-sp/hard/crtbegin.o
                0x200033f4                . = ALIGN (0x4)

.svc_data       0x200033f4        0x0
                [!provide]                PROVIDE (__start_svc_data, .)
 *(.svc_data)
                [!provide]                PROVIDE (__stop_svc_data, .)

.fs_data        0x200033f4        0x0
                [!provide]                PROVIDE (__start_fs_data, .)
 *(.fs_data)
                [!provide]                PROVIDE (__stop_fs_data, .)

.log_dynamic_data
                0x200033f4        0x0
                [!provide]                PROVIDE (__start_log_dynamic_data, .)
 *(.log_dynamic_data)
                [!provide]                PROVIDE (__stop_log_dynamic_data, .)

.cli_sorted_cmd_ptrs
                0x200033f4        0x0
                [!provide]                PROVIDE (__start_cli_sorted_cmd_ptrs, .)
 *(.cli_sorted_cmd_ptrs)
                [!provide]                PROVIDE (__stop_cli_sorted_cmd_ptrs, .)

.bss            0x200033f8     0x32a4 load address 0x000427b8
                0x200033f8                . = ALIGN (0x4)
                0x200033f8                __bss_start__ = .
 *(.bss*)
 .bss           0x200033f8       0x1c c:/mesh/arm_gcc/bin/../lib/gcc/arm-none-eabi/6.3.1/thumb/v7e-m/fpv4-sp/hard/crtbegin.o
 .bss.m_clients
                0x20003414       0x40 examples/light_switch/proxy_client/CMakeFiles/light_switch_proxy_client_nrf52832_xxAA_s132_6.0.0.dir/src/main.c.obj
 .bss.m_device_provisioned
                0x20003454        0x1 examples/light_switch/proxy_client/CMakeFiles/light_switch_proxy_client_nrf52832_xxAA_s132_6.0.0.dir/src/main.c.obj
 *fill*         0x20003455        0x3 
 .bss.m_health_server
                0x20003458       0x5c examples/light_switch/proxy_client/CMakeFiles/light_switch_proxy_client_nrf52832_xxAA_s132_6.0.0.dir/__/__/__/mesh/stack/src/mesh_stack.c.obj
 .bss.m_init_params
                0x200034b4       0x24 examples/light_switch/proxy_client/CMakeFiles/light_switch_proxy_client_nrf52832_xxAA_s132_6.0.0.dir/__/__/__/mesh/stack/src/mesh_stack.c.obj
 .bss.m_device_provisioned
                0x200034d8        0x1 examples/light_switch/proxy_client/CMakeFiles/light_switch_proxy_client_nrf52832_xxAA_s132_6.0.0.dir/__/__/common/src/mesh_provisionee.c.obj
 .bss.m_doing_gatt_reset
                0x200034d9        0x1 examples/light_switch/proxy_client/CMakeFiles/light_switch_proxy_client_nrf52832_xxAA_s132_6.0.0.dir/__/__/common/src/mesh_provisionee.c.obj
 *fill*         0x200034da        0x2 
 .bss.m_params  0x200034dc        0xc examples/light_switch/proxy_client/CMakeFiles/light_switch_proxy_client_nrf52832_xxAA_s132_6.0.0.dir/__/__/common/src/mesh_provisionee.c.obj
 .bss.m_private_key
                0x200034e8       0x20 examples/light_switch/proxy_client/CMakeFiles/light_switch_proxy_client_nrf52832_xxAA_s132_6.0.0.dir/__/__/common/src/mesh_provisionee.c.obj
 .bss.m_prov_bearer_adv
                0x20003508      0x1c4 examples/light_switch/proxy_client/CMakeFiles/light_switch_proxy_client_nrf52832_xxAA_s132_6.0.0.dir/__/__/common/src/mesh_provisionee.c.obj
 .bss.m_prov_bearer_gatt
                0x200036cc       0x50 examples/light_switch/proxy_client/CMakeFiles/light_switch_proxy_client_nrf52832_xxAA_s132_6.0.0.dir/__/__/common/src/mesh_provisionee.c.obj
 .bss.m_prov_ctx
                0x2000371c      0x134 examples/light_switch/proxy_client/CMakeFiles/light_switch_proxy_client_nrf52832_xxAA_s132_6.0.0.dir/__/__/common/src/mesh_provisionee.c.obj
 .bss.m_public_key
                0x20003850       0x40 examples/light_switch/proxy_client/CMakeFiles/light_switch_proxy_client_nrf52832_xxAA_s132_6.0.0.dir/__/__/common/src/mesh_provisionee.c.obj
 .bss.m_rtt_input_handler
                0x20003890        0x4 examples/light_switch/proxy_client/CMakeFiles/light_switch_proxy_client_nrf52832_xxAA_s132_6.0.0.dir/__/__/common/src/rtt_input.c.obj
 .bss.m_button_handler_cb
                0x20003894        0x4 examples/light_switch/proxy_client/CMakeFiles/light_switch_proxy_client_nrf52832_xxAA_s132_6.0.0.dir/__/__/common/src/simple_hal.c.obj
 .bss.m_last_button_press
                0x20003898        0x4 examples/light_switch/proxy_client/CMakeFiles/light_switch_proxy_client_nrf52832_xxAA_s132_6.0.0.dir/__/__/common/src/simple_hal.c.obj
 .bss.m_adv_set_index
                0x2000389c        0x1 examples/light_switch/proxy_client/CMakeFiles/light_switch_proxy_client_nrf52832_xxAA_s132_6.0.0.dir/__/__/common/src/mesh_adv.c.obj
 *fill*         0x2000389d        0x3 
 .bss.m_advdata_raw
                0x200038a0       0x3e examples/light_switch/proxy_client/CMakeFiles/light_switch_proxy_client_nrf52832_xxAA_s132_6.0.0.dir/__/__/common/src/mesh_adv.c.obj
 *fill*         0x200038de        0x2 
 .bss.m_gap_adv_data
                0x200038e0       0x10 examples/light_switch/proxy_client/CMakeFiles/light_switch_proxy_client_nrf52832_xxAA_s132_6.0.0.dir/__/__/common/src/mesh_adv.c.obj
 .bss.m_srdata_raw
                0x200038f0       0x3e examples/light_switch/proxy_client/CMakeFiles/light_switch_proxy_client_nrf52832_xxAA_s132_6.0.0.dir/__/__/common/src/mesh_adv.c.obj
 *fill*         0x2000392e        0x2 
 .bss.m_evt_prov_link
                0x20003930        0xc examples/light_switch/proxy_client/CMakeFiles/light_switch_proxy_client_nrf52832_xxAA_s132_6.0.0.dir/__/__/__/mesh/prov/src/nrf_mesh_prov_bearer_gatt.c.obj
 .bss.m_nrf_sdh_continue
                0x2000393c        0x1 examples/light_switch/proxy_client/CMakeFiles/light_switch_proxy_client_nrf52832_xxAA_s132_6.0.0.dir/C_/b/nRF5_SDK_15.0.0_a53641a/components/softdevice/common/nrf_sdh.c.obj
 .bss.m_nrf_sdh_enabled
                0x2000393d        0x1 examples/light_switch/proxy_client/CMakeFiles/light_switch_proxy_client_nrf52832_xxAA_s132_6.0.0.dir/C_/b/nRF5_SDK_15.0.0_a53641a/components/softdevice/common/nrf_sdh.c.obj
 .bss.m_nrf_sdh_suspended
                0x2000393e        0x1 examples/light_switch/proxy_client/CMakeFiles/light_switch_proxy_client_nrf52832_xxAA_s132_6.0.0.dir/C_/b/nRF5_SDK_15.0.0_a53641a/components/softdevice/common/nrf_sdh.c.obj
 .bss.m_stack_is_enabled
                0x2000393f        0x1 examples/light_switch/proxy_client/CMakeFiles/light_switch_proxy_client_nrf52832_xxAA_s132_6.0.0.dir/C_/b/nRF5_SDK_15.0.0_a53641a/components/softdevice/common/nrf_sdh_ble.c.obj
 .bss.m_uuid    0x20003940       0x10 examples/light_switch/proxy_client/CMakeFiles/light_switch_proxy_client_nrf52832_xxAA_s132_6.0.0.dir/__/__/__/mesh/core/src/nrf_mesh_configure.c.obj
 .bss.m_msg_cache
                0x20003950      0x100 examples/light_switch/proxy_client/CMakeFiles/light_switch_proxy_client_nrf52832_xxAA_s132_6.0.0.dir/__/__/__/mesh/core/src/msg_cache.c.obj
 .bss.m_msg_cache_head
                0x20003a50        0x4 examples/light_switch/proxy_client/CMakeFiles/light_switch_proxy_client_nrf52832_xxAA_s132_6.0.0.dir/__/__/__/mesh/core/src/msg_cache.c.obj
 .bss.m_control_packet_consumer_count
                0x20003a54        0x4 examples/light_switch/proxy_client/CMakeFiles/light_switch_proxy_client_nrf52832_xxAA_s132_6.0.0.dir/__/__/__/mesh/core/src/transport.c.obj
 .bss.m_control_packet_consumers
                0x20003a58        0x8 examples/light_switch/proxy_client/CMakeFiles/light_switch_proxy_client_nrf52832_xxAA_s132_6.0.0.dir/__/__/__/mesh/core/src/transport.c.obj
 .bss.m_sar_alloc
                0x20003a60        0x4 examples/light_switch/proxy_client/CMakeFiles/light_switch_proxy_client_nrf52832_xxAA_s132_6.0.0.dir/__/__/__/mesh/core/src/transport.c.obj
 .bss.m_sar_process_flag
                0x20003a64        0x4 examples/light_switch/proxy_client/CMakeFiles/light_switch_proxy_client_nrf52832_xxAA_s132_6.0.0.dir/__/__/__/mesh/core/src/transport.c.obj
 .bss.m_sar_release
                0x20003a68        0x4 examples/light_switch/proxy_client/CMakeFiles/light_switch_proxy_client_nrf52832_xxAA_s132_6.0.0.dir/__/__/__/mesh/core/src/transport.c.obj
 .bss.m_sar_session_cache
                0x20003a6c       0x40 examples/light_switch/proxy_client/CMakeFiles/light_switch_proxy_client_nrf52832_xxAA_s132_6.0.0.dir/__/__/__/mesh/core/src/transport.c.obj
 .bss.m_sar_session_cache_head
                0x20003aac        0x4 examples/light_switch/proxy_client/CMakeFiles/light_switch_proxy_client_nrf52832_xxAA_s132_6.0.0.dir/__/__/__/mesh/core/src/transport.c.obj
 .bss.m_trs_config
                0x20003ab0       0x18 examples/light_switch/proxy_client/CMakeFiles/light_switch_proxy_client_nrf52832_xxAA_s132_6.0.0.dir/__/__/__/mesh/core/src/transport.c.obj
 .bss.m_trs_sar_sessions
                0x20003ac8      0x1b0 examples/light_switch/proxy_client/CMakeFiles/light_switch_proxy_client_nrf52832_xxAA_s132_6.0.0.dir/__/__/__/mesh/core/src/transport.c.obj
 .bss.mp_evt_handlers_head
                0x20003c78        0x4 examples/light_switch/proxy_client/CMakeFiles/light_switch_proxy_client_nrf52832_xxAA_s132_6.0.0.dir/__/__/__/mesh/core/src/event.c.obj
 .bss.m_defrag  0x20003c7c       0x1c examples/light_switch/proxy_client/CMakeFiles/light_switch_proxy_client_nrf52832_xxAA_s132_6.0.0.dir/__/__/__/mesh/core/src/flash_manager_defrag.c.obj
 .bss.m_pool    0x20003c98     0x1000 examples/light_switch/proxy_client/CMakeFiles/light_switch_proxy_client_nrf52832_xxAA_s132_6.0.0.dir/__/__/__/mesh/core/src/packet_mgr.c.obj
 .bss.mp_free_head
                0x20004c98        0x4 examples/light_switch/proxy_client/CMakeFiles/light_switch_proxy_client_nrf52832_xxAA_s132_6.0.0.dir/__/__/__/mesh/core/src/packet_mgr.c.obj
 .bss.iv_state_set.9853
                0x20004c9c        0x1 examples/light_switch/proxy_client/CMakeFiles/light_switch_proxy_client_nrf52832_xxAA_s132_6.0.0.dir/__/__/__/mesh/core/src/net_state.c.obj
 *fill*         0x20004c9d        0x3 
 .bss.lock_count.9829
                0x20004ca0        0x4 examples/light_switch/proxy_client/CMakeFiles/light_switch_proxy_client_nrf52832_xxAA_s132_6.0.0.dir/__/__/__/mesh/core/src/net_state.c.obj
 .bss.m_iv_update_timer
                0x20004ca4       0x18 examples/light_switch/proxy_client/CMakeFiles/light_switch_proxy_client_nrf52832_xxAA_s132_6.0.0.dir/__/__/__/mesh/core/src/net_state.c.obj
 .bss.m_mesh_evt_handler
                0x20004cbc        0x8 examples/light_switch/proxy_client/CMakeFiles/light_switch_proxy_client_nrf52832_xxAA_s132_6.0.0.dir/__/__/__/mesh/core/src/net_state.c.obj
 .bss.m_net_state
                0x20004cc4       0x14 examples/light_switch/proxy_client/CMakeFiles/light_switch_proxy_client_nrf52832_xxAA_s132_6.0.0.dir/__/__/__/mesh/core/src/net_state.c.obj
 .bss.m_test_mode
                0x20004cd8        0x1 examples/light_switch/proxy_client/CMakeFiles/light_switch_proxy_client_nrf52832_xxAA_s132_6.0.0.dir/__/__/__/mesh/core/src/net_state.c.obj
 *fill*         0x20004cd9        0x3 
 .bss.m_event_flag
                0x20004cdc        0x4 examples/light_switch/proxy_client/CMakeFiles/light_switch_proxy_client_nrf52832_xxAA_s132_6.0.0.dir/__/__/__/mesh/core/src/mesh_flash.c.obj
 .bss.m_users   0x20004ce0      0x228 examples/light_switch/proxy_client/CMakeFiles/light_switch_proxy_client_nrf52832_xxAA_s132_6.0.0.dir/__/__/__/mesh/core/src/mesh_flash.c.obj
 .bss.m_is_enabled
                0x20004f08        0x1 examples/light_switch/proxy_client/CMakeFiles/light_switch_proxy_client_nrf52832_xxAA_s132_6.0.0.dir/__/__/__/mesh/core/src/nrf_mesh.c.obj
 .bss.m_is_initialized
                0x20004f09        0x1 examples/light_switch/proxy_client/CMakeFiles/light_switch_proxy_client_nrf52832_xxAA_s132_6.0.0.dir/__/__/__/mesh/core/src/nrf_mesh.c.obj
 *fill*         0x20004f0a        0x2 
 .bss.m_rx_cb   0x20004f0c        0x4 examples/light_switch/proxy_client/CMakeFiles/light_switch_proxy_client_nrf52832_xxAA_s132_6.0.0.dir/__/__/__/mesh/core/src/nrf_mesh.c.obj
 .bss.m_128buf  0x20004f10       0x10 examples/light_switch/proxy_client/CMakeFiles/light_switch_proxy_client_nrf52832_xxAA_s132_6.0.0.dir/__/__/__/mesh/core/src/aes_cmac.c.obj
 .bss.m_subkey1
                0x20004f20       0x10 examples/light_switch/proxy_client/CMakeFiles/light_switch_proxy_client_nrf52832_xxAA_s132_6.0.0.dir/__/__/__/mesh/core/src/aes_cmac.c.obj
 .bss.m_subkey2
                0x20004f30       0x10 examples/light_switch/proxy_client/CMakeFiles/light_switch_proxy_client_nrf52832_xxAA_s132_6.0.0.dir/__/__/__/mesh/core/src/aes_cmac.c.obj
 .bss.m_event_flag
                0x20004f40        0x4 examples/light_switch/proxy_client/CMakeFiles/light_switch_proxy_client_nrf52832_xxAA_s132_6.0.0.dir/__/__/__/mesh/core/src/timer_scheduler.c.obj
 .bss.m_scheduler
                0x20004f44       0x10 examples/light_switch/proxy_client/CMakeFiles/light_switch_proxy_client_nrf52832_xxAA_s132_6.0.0.dir/__/__/__/mesh/core/src/timer_scheduler.c.obj
 .bss.m_attributes
                0x20004f54        0x3 examples/light_switch/proxy_client/CMakeFiles/light_switch_proxy_client_nrf52832_xxAA_s132_6.0.0.dir/__/__/__/mesh/core/src/timer.c.obj
 *fill*         0x20004f57        0x1 
 .bss.m_callbacks
                0x20004f58        0xc examples/light_switch/proxy_client/CMakeFiles/light_switch_proxy_client_nrf52832_xxAA_s132_6.0.0.dir/__/__/__/mesh/core/src/timer.c.obj
 .bss.m_is_in_ts
                0x20004f64        0x1 examples/light_switch/proxy_client/CMakeFiles/light_switch_proxy_client_nrf52832_xxAA_s132_6.0.0.dir/__/__/__/mesh/core/src/timer.c.obj
 *fill*         0x20004f65        0x3 
 .bss.m_reference_time
                0x20004f68        0x4 examples/light_switch/proxy_client/CMakeFiles/light_switch_proxy_client_nrf52832_xxAA_s132_6.0.0.dir/__/__/__/mesh/core/src/timer.c.obj
 .bss.m_timeouts
                0x20004f6c        0xc examples/light_switch/proxy_client/CMakeFiles/light_switch_proxy_client_nrf52832_xxAA_s132_6.0.0.dir/__/__/__/mesh/core/src/timer.c.obj
 .bss.m_timer_mut
                0x20004f78        0x4 examples/light_switch/proxy_client/CMakeFiles/light_switch_proxy_client_nrf52832_xxAA_s132_6.0.0.dir/__/__/__/mesh/core/src/timer.c.obj
 .bss.m_ts_end_time
                0x20004f7c        0x4 examples/light_switch/proxy_client/CMakeFiles/light_switch_proxy_client_nrf52832_xxAA_s132_6.0.0.dir/__/__/__/mesh/core/src/timer.c.obj
 .bss.mp_ppi_tasks
                0x20004f80        0xc examples/light_switch/proxy_client/CMakeFiles/light_switch_proxy_client_nrf52832_xxAA_s132_6.0.0.dir/__/__/__/mesh/core/src/timer.c.obj
 .bss.m_current_time
                0x20004f8c        0x4 examples/light_switch/proxy_client/CMakeFiles/light_switch_proxy_client_nrf52832_xxAA_s132_6.0.0.dir/__/__/__/mesh/core/src/ticker.c.obj
 .bss.m_timer   0x20004f90       0x18 examples/light_switch/proxy_client/CMakeFiles/light_switch_proxy_client_nrf52832_xxAA_s132_6.0.0.dir/__/__/__/mesh/core/src/ticker.c.obj
 .bss.m_current_timeslot
                0x20004fa8       0x1c examples/light_switch/proxy_client/CMakeFiles/light_switch_proxy_client_nrf52832_xxAA_s132_6.0.0.dir/__/__/__/mesh/core/src/timeslot.c.obj
 .bss.m_lfclk_ppm
                0x20004fc4        0x4 examples/light_switch/proxy_client/CMakeFiles/light_switch_proxy_client_nrf52832_xxAA_s132_6.0.0.dir/__/__/__/mesh/core/src/timeslot.c.obj
 .bss.m_radio_request_earliest
                0x20004fc8       0x10 examples/light_switch/proxy_client/CMakeFiles/light_switch_proxy_client_nrf52832_xxAA_s132_6.0.0.dir/__/__/__/mesh/core/src/timeslot.c.obj
 .bss.m_state_lock
                0x20004fd8        0x1 examples/light_switch/proxy_client/CMakeFiles/light_switch_proxy_client_nrf52832_xxAA_s132_6.0.0.dir/__/__/__/mesh/core/src/timeslot.c.obj
 .bss.m_timeslot_forced_command
                0x20004fd9        0x1 examples/light_switch/proxy_client/CMakeFiles/light_switch_proxy_client_nrf52832_xxAA_s132_6.0.0.dir/__/__/__/mesh/core/src/timeslot.c.obj
 *fill*         0x20004fda        0x6 
 .bss.s_last_rtc_value.9300
                0x20004fe0        0x8 examples/light_switch/proxy_client/CMakeFiles/light_switch_proxy_client_nrf52832_xxAA_s132_6.0.0.dir/__/__/__/mesh/core/src/timeslot.c.obj
 .bss.m_bearer_event_fifo
                0x20004fe8       0x14 examples/light_switch/proxy_client/CMakeFiles/light_switch_proxy_client_nrf52832_xxAA_s132_6.0.0.dir/__/__/__/mesh/core/src/bearer_event.c.obj
 .bss.m_bearer_event_fifo_buffer
                0x20004ffc      0x100 examples/light_switch/proxy_client/CMakeFiles/light_switch_proxy_client_nrf52832_xxAA_s132_6.0.0.dir/__/__/__/mesh/core/src/bearer_event.c.obj
 .bss.m_critical
                0x200050fc        0x4 examples/light_switch/proxy_client/CMakeFiles/light_switch_proxy_client_nrf52832_xxAA_s132_6.0.0.dir/__/__/__/mesh/core/src/bearer_event.c.obj
 .bss.m_flag_count
                0x20005100        0x4 examples/light_switch/proxy_client/CMakeFiles/light_switch_proxy_client_nrf52832_xxAA_s132_6.0.0.dir/__/__/__/mesh/core/src/bearer_event.c.obj
 .bss.m_flag_event_callbacks
                0x20005104       0x20 examples/light_switch/proxy_client/CMakeFiles/light_switch_proxy_client_nrf52832_xxAA_s132_6.0.0.dir/__/__/__/mesh/core/src/bearer_event.c.obj
 .bss.m_flags   0x20005124        0x4 examples/light_switch/proxy_client/CMakeFiles/light_switch_proxy_client_nrf52832_xxAA_s132_6.0.0.dir/__/__/__/mesh/core/src/bearer_event.c.obj
 .bss.m_irq_priority
                0x20005128        0x1 examples/light_switch/proxy_client/CMakeFiles/light_switch_proxy_client_nrf52832_xxAA_s132_6.0.0.dir/__/__/__/mesh/core/src/bearer_event.c.obj
 *fill*         0x20005129        0x3 
 .bss.m_sequential_event_queue
                0x2000512c        0x8 examples/light_switch/proxy_client/CMakeFiles/light_switch_proxy_client_nrf52832_xxAA_s132_6.0.0.dir/__/__/__/mesh/core/src/bearer_event.c.obj
 .bss.s_recursion_guard.9431
                0x20005134        0x1 examples/light_switch/proxy_client/CMakeFiles/light_switch_proxy_client_nrf52832_xxAA_s132_6.0.0.dir/__/__/__/mesh/core/src/bearer_event.c.obj
 *fill*         0x20005135        0x3 
 .bss.m_relay_check_cb
                0x20005138        0x4 examples/light_switch/proxy_client/CMakeFiles/light_switch_proxy_client_nrf52832_xxAA_s132_6.0.0.dir/__/__/__/mesh/core/src/network.c.obj
 .bss.m_relay_enable
                0x2000513c        0x1 examples/light_switch/proxy_client/CMakeFiles/light_switch_proxy_client_nrf52832_xxAA_s132_6.0.0.dir/__/__/__/mesh/core/src/network.c.obj
 *fill*         0x2000513d        0x3 
 .bss.m_action_queue
                0x20005140        0xc examples/light_switch/proxy_client/CMakeFiles/light_switch_proxy_client_nrf52832_xxAA_s132_6.0.0.dir/__/__/__/mesh/core/src/flash_manager.c.obj
 .bss.m_cache_index
                0x2000514c        0x1 examples/light_switch/proxy_client/CMakeFiles/light_switch_proxy_client_nrf52832_xxAA_s132_6.0.0.dir/__/__/__/mesh/core/src/replay_cache.c.obj
 *fill*         0x2000514d        0x3 
 .bss.m_replay_cache
                0x20005150      0x200 examples/light_switch/proxy_client/CMakeFiles/light_switch_proxy_client_nrf52832_xxAA_s132_6.0.0.dir/__/__/__/mesh/core/src/replay_cache.c.obj
 .bss.m_bearer_count
                0x20005350        0x1 examples/light_switch/proxy_client/CMakeFiles/light_switch_proxy_client_nrf52832_xxAA_s132_6.0.0.dir/__/__/__/mesh/core/src/core_tx.c.obj
 *fill*         0x20005351        0x3 
 .bss.m_tx_complete_callback
                0x20005354        0x4 examples/light_switch/proxy_client/CMakeFiles/light_switch_proxy_client_nrf52832_xxAA_s132_6.0.0.dir/__/__/__/mesh/core/src/core_tx.c.obj
 .bss.mp_bearers
                0x20005358        0x4 examples/light_switch/proxy_client/CMakeFiles/light_switch_proxy_client_nrf52832_xxAA_s132_6.0.0.dir/__/__/__/mesh/core/src/core_tx.c.obj
 .bss.m_hb_core_evt_handler
                0x2000535c        0x8 examples/light_switch/proxy_client/CMakeFiles/light_switch_proxy_client_nrf52832_xxAA_s132_6.0.0.dir/__/__/__/mesh/core/src/heartbeat.c.obj
 .bss.m_hb_pending_feat_msg
                0x20005364        0x1 examples/light_switch/proxy_client/CMakeFiles/light_switch_proxy_client_nrf52832_xxAA_s132_6.0.0.dir/__/__/__/mesh/core/src/heartbeat.c.obj
 .bss.m_hb_pending_pub_msg
                0x20005365        0x1 examples/light_switch/proxy_client/CMakeFiles/light_switch_proxy_client_nrf52832_xxAA_s132_6.0.0.dir/__/__/__/mesh/core/src/heartbeat.c.obj
 .bss.m_heartbeat_init_done
                0x20005366        0x1 examples/light_switch/proxy_client/CMakeFiles/light_switch_proxy_client_nrf52832_xxAA_s132_6.0.0.dir/__/__/__/mesh/core/src/heartbeat.c.obj
 *fill*         0x20005367        0x1 
 .bss.m_heartbeat_subscription
                0x20005368       0x10 examples/light_switch/proxy_client/CMakeFiles/light_switch_proxy_client_nrf52832_xxAA_s132_6.0.0.dir/__/__/__/mesh/core/src/heartbeat.c.obj
 .bss.m_publication_count_decrement_cb
                0x20005378        0x4 examples/light_switch/proxy_client/CMakeFiles/light_switch_proxy_client_nrf52832_xxAA_s132_6.0.0.dir/__/__/__/mesh/core/src/heartbeat.c.obj
 .bss.m_publication_get_cb
                0x2000537c        0x4 examples/light_switch/proxy_client/CMakeFiles/light_switch_proxy_client_nrf52832_xxAA_s132_6.0.0.dir/__/__/__/mesh/core/src/heartbeat.c.obj
 .bss.m_publication_timer
                0x20005380       0x1c examples/light_switch/proxy_client/CMakeFiles/light_switch_proxy_client_nrf52832_xxAA_s132_6.0.0.dir/__/__/__/mesh/core/src/heartbeat.c.obj
 .bss.m_subscription_timer
                0x2000539c       0x18 examples/light_switch/proxy_client/CMakeFiles/light_switch_proxy_client_nrf52832_xxAA_s132_6.0.0.dir/__/__/__/mesh/core/src/heartbeat.c.obj
 .bss.m_adv     0x200053b4       0x98 examples/light_switch/proxy_client/CMakeFiles/light_switch_proxy_client_nrf52832_xxAA_s132_6.0.0.dir/__/__/__/mesh/core/src/net_beacon.c.obj
 .bss.m_adv_buf
                0x2000544c       0x34 examples/light_switch/proxy_client/CMakeFiles/light_switch_proxy_client_nrf52832_xxAA_s132_6.0.0.dir/__/__/__/mesh/core/src/net_beacon.c.obj
 .bss.m_beacon_salt
                0x20005480       0x10 examples/light_switch/proxy_client/CMakeFiles/light_switch_proxy_client_nrf52832_xxAA_s132_6.0.0.dir/__/__/__/mesh/core/src/net_beacon.c.obj
 .bss.m_enabled
                0x20005490        0x1 examples/light_switch/proxy_client/CMakeFiles/light_switch_proxy_client_nrf52832_xxAA_s132_6.0.0.dir/__/__/__/mesh/core/src/net_beacon.c.obj
 *fill*         0x20005491        0x3 
 .bss.m_tx_timer
                0x20005494       0x18 examples/light_switch/proxy_client/CMakeFiles/light_switch_proxy_client_nrf52832_xxAA_s132_6.0.0.dir/__/__/__/mesh/core/src/net_beacon.c.obj
 .bss.mp_beacon_info
                0x200054ac        0x4 examples/light_switch/proxy_client/CMakeFiles/light_switch_proxy_client_nrf52832_xxAA_s132_6.0.0.dir/__/__/__/mesh/core/src/net_beacon.c.obj
 .bss.m_bearer  0x200054b0        0xc examples/light_switch/proxy_client/CMakeFiles/light_switch_proxy_client_nrf52832_xxAA_s132_6.0.0.dir/__/__/__/mesh/core/src/core_tx_adv.c.obj
 .bss.m_bearer_roles
                0x200054bc      0x138 examples/light_switch/proxy_client/CMakeFiles/light_switch_proxy_client_nrf52832_xxAA_s132_6.0.0.dir/__/__/__/mesh/core/src/core_tx_adv.c.obj
 .bss.m_current_alloc
                0x200055f4        0x8 examples/light_switch/proxy_client/CMakeFiles/light_switch_proxy_client_nrf52832_xxAA_s132_6.0.0.dir/__/__/__/mesh/core/src/core_tx_adv.c.obj
 .bss.m_originator_adv_packet_buffer
                0x200055fc      0x100 examples/light_switch/proxy_client/CMakeFiles/light_switch_proxy_client_nrf52832_xxAA_s132_6.0.0.dir/__/__/__/mesh/core/src/core_tx_adv.c.obj
 .bss.m_relay_adv_packet_buffer
                0x200056fc       0x80 examples/light_switch/proxy_client/CMakeFiles/light_switch_proxy_client_nrf52832_xxAA_s132_6.0.0.dir/__/__/__/mesh/core/src/core_tx_adv.c.obj
 .bss.m_subscribers
                0x2000577c        0x4 examples/light_switch/proxy_client/CMakeFiles/light_switch_proxy_client_nrf52832_xxAA_s132_6.0.0.dir/__/__/__/mesh/bearer/src/ad_listener.c.obj
 .bss.m_adtype_filter
                0x20005780       0x38 examples/light_switch/proxy_client/CMakeFiles/light_switch_proxy_client_nrf52832_xxAA_s132_6.0.0.dir/__/__/__/mesh/bearer/src/ad_type_filter.c.obj
 .bss.m_adv_prng
                0x200057b8       0x10 examples/light_switch/proxy_client/CMakeFiles/light_switch_proxy_client_nrf52832_xxAA_s132_6.0.0.dir/__/__/__/mesh/bearer/src/advertiser.c.obj
 .bss.m_action_queue
                0x200057c8        0x8 examples/light_switch/proxy_client/CMakeFiles/light_switch_proxy_client_nrf52832_xxAA_s132_6.0.0.dir/__/__/__/mesh/bearer/src/bearer_handler.c.obj
 .bss.m_end_time
                0x200057d0        0x4 examples/light_switch/proxy_client/CMakeFiles/light_switch_proxy_client_nrf52832_xxAA_s132_6.0.0.dir/__/__/__/mesh/bearer/src/bearer_handler.c.obj
 .bss.m_scanner_is_active
                0x200057d4        0x1 examples/light_switch/proxy_client/CMakeFiles/light_switch_proxy_client_nrf52832_xxAA_s132_6.0.0.dir/__/__/__/mesh/bearer/src/bearer_handler.c.obj
 .bss.m_stopped
                0x200057d5        0x1 examples/light_switch/proxy_client/CMakeFiles/light_switch_proxy_client_nrf52832_xxAA_s132_6.0.0.dir/__/__/__/mesh/bearer/src/bearer_handler.c.obj
 *fill*         0x200057d6        0x2 
 .bss.mp_action
                0x200057d8        0x4 examples/light_switch/proxy_client/CMakeFiles/light_switch_proxy_client_nrf52832_xxAA_s132_6.0.0.dir/__/__/__/mesh/bearer/src/bearer_handler.c.obj
 .bss.m_next_channel_index
                0x200057dc        0x1 examples/light_switch/proxy_client/CMakeFiles/light_switch_proxy_client_nrf52832_xxAA_s132_6.0.0.dir/__/__/__/mesh/bearer/src/broadcast.c.obj
 *fill*         0x200057dd        0x3 
 .bss.m_accepted_amount
                0x200057e0        0x4 examples/light_switch/proxy_client/CMakeFiles/light_switch_proxy_client_nrf52832_xxAA_s132_6.0.0.dir/__/__/__/mesh/bearer/src/filter_engine.c.obj
 .bss.m_filter_list_head
                0x200057e4        0x4 examples/light_switch/proxy_client/CMakeFiles/light_switch_proxy_client_nrf52832_xxAA_s132_6.0.0.dir/__/__/__/mesh/bearer/src/filter_engine.c.obj
 .bss.m_scanner
                0x200057e8      0x290 examples/light_switch/proxy_client/CMakeFiles/light_switch_proxy_client_nrf52832_xxAA_s132_6.0.0.dir/__/__/__/mesh/bearer/src/scanner.c.obj
 .bss.m_gatt    0x20005a78      0x16c examples/light_switch/proxy_client/CMakeFiles/light_switch_proxy_client_nrf52832_xxAA_s132_6.0.0.dir/__/__/__/mesh/gatt/src/mesh_gatt.c.obj
 .bss.m_advertising
                0x20005be4       0x24 examples/light_switch/proxy_client/CMakeFiles/light_switch_proxy_client_nrf52832_xxAA_s132_6.0.0.dir/__/__/__/mesh/gatt/src/proxy.c.obj
 .bss.m_beacon_cache
                0x20005c08       0x1c examples/light_switch/proxy_client/CMakeFiles/light_switch_proxy_client_nrf52832_xxAA_s132_6.0.0.dir/__/__/__/mesh/gatt/src/proxy.c.obj
 .bss.m_beacon_cache_entries
                0x20005c24       0x40 examples/light_switch/proxy_client/CMakeFiles/light_switch_proxy_client_nrf52832_xxAA_s132_6.0.0.dir/__/__/__/mesh/gatt/src/proxy.c.obj
 .bss.m_connections
                0x20005c64       0x5c examples/light_switch/proxy_client/CMakeFiles/light_switch_proxy_client_nrf52832_xxAA_s132_6.0.0.dir/__/__/__/mesh/gatt/src/proxy.c.obj
 .bss.m_enabled
                0x20005cc0        0x1 examples/light_switch/proxy_client/CMakeFiles/light_switch_proxy_client_nrf52832_xxAA_s132_6.0.0.dir/__/__/__/mesh/gatt/src/proxy.c.obj
 *fill*         0x20005cc1        0x3 
 .bss.m_mesh_evt_handler
                0x20005cc4        0x8 examples/light_switch/proxy_client/CMakeFiles/light_switch_proxy_client_nrf52832_xxAA_s132_6.0.0.dir/__/__/__/mesh/gatt/src/proxy.c.obj
 .bss.m_tid     0x20005ccc        0x1 examples/light_switch/proxy_client/CMakeFiles/light_switch_proxy_client_nrf52832_xxAA_s132_6.0.0.dir/__/__/__/models/simple_on_off/src/simple_on_off_client.c.obj
 *fill*         0x20005ccd        0x3 
 .bss.m_evt_cb  0x20005cd0        0x4 examples/light_switch/proxy_client/CMakeFiles/light_switch_proxy_client_nrf52832_xxAA_s132_6.0.0.dir/__/__/__/models/config/src/config_server.c.obj
 .bss.m_heartbeat_publication
                0x20005cd4       0x14 examples/light_switch/proxy_client/CMakeFiles/light_switch_proxy_client_nrf52832_xxAA_s132_6.0.0.dir/__/__/__/models/config/src/config_server.c.obj
 .bss.m_node_reset_pending
                0x20005ce8        0x1 examples/light_switch/proxy_client/CMakeFiles/light_switch_proxy_client_nrf52832_xxAA_s132_6.0.0.dir/__/__/__/models/config/src/config_server.c.obj
 *fill*         0x20005ce9        0x3 
 .bss.m_attention_timer
                0x20005cec       0x18 examples/light_switch/proxy_client/CMakeFiles/light_switch_proxy_client_nrf52832_xxAA_s132_6.0.0.dir/__/__/__/models/health/src/health_server.c.obj
 .bss.mp_attention_list
                0x20005d04        0x4 examples/light_switch/proxy_client/CMakeFiles/light_switch_proxy_client_nrf52832_xxAA_s132_6.0.0.dir/__/__/__/models/health/src/health_server.c.obj
 .bss.m_publish_timer
                0x20005d08       0x18 examples/light_switch/proxy_client/CMakeFiles/light_switch_proxy_client_nrf52832_xxAA_s132_6.0.0.dir/__/__/__/mesh/access/src/access_publish.c.obj
 .bss.m_publish_timer_counter
                0x20005d20        0x4 examples/light_switch/proxy_client/CMakeFiles/light_switch_proxy_client_nrf52832_xxAA_s132_6.0.0.dir/__/__/__/mesh/access/src/access_publish.c.obj
 .bss.m_publish_timer_running
                0x20005d24        0x1 examples/light_switch/proxy_client/CMakeFiles/light_switch_proxy_client_nrf52832_xxAA_s132_6.0.0.dir/__/__/__/mesh/access/src/access_publish.c.obj
 .bss.m_timer_resolution
                0x20005d25        0x1 examples/light_switch/proxy_client/CMakeFiles/light_switch_proxy_client_nrf52832_xxAA_s132_6.0.0.dir/__/__/__/mesh/access/src/access_publish.c.obj
 *fill*         0x20005d26        0x2 
 .bss.mp_publication_list
                0x20005d28        0x4 examples/light_switch/proxy_client/CMakeFiles/light_switch_proxy_client_nrf52832_xxAA_s132_6.0.0.dir/__/__/__/mesh/access/src/access_publish.c.obj
 .bss.m_element_pool
                0x20005d2c       0x1e examples/light_switch/proxy_client/CMakeFiles/light_switch_proxy_client_nrf52832_xxAA_s132_6.0.0.dir/__/__/__/mesh/access/src/access.c.obj
 *fill*         0x20005d4a        0x2 
 .bss.m_evt_handler
                0x20005d4c        0x8 examples/light_switch/proxy_client/CMakeFiles/light_switch_proxy_client_nrf52832_xxAA_s132_6.0.0.dir/__/__/__/mesh/access/src/access.c.obj
 .bss.m_model_pool
                0x20005d54      0x138 examples/light_switch/proxy_client/CMakeFiles/light_switch_proxy_client_nrf52832_xxAA_s132_6.0.0.dir/__/__/__/mesh/access/src/access.c.obj
 .bss.m_subscription_list_pool
                0x20005e8c       0x30 examples/light_switch/proxy_client/CMakeFiles/light_switch_proxy_client_nrf52832_xxAA_s132_6.0.0.dir/__/__/__/mesh/access/src/access.c.obj
 .bss.m_reliable
                0x20005ebc      0x124 examples/light_switch/proxy_client/CMakeFiles/light_switch_proxy_client_nrf52832_xxAA_s132_6.0.0.dir/__/__/__/mesh/access/src/access_reliable.c.obj
 .bss.m_addr_nonvirtual_allocated
                0x20005fe0        0x4 examples/light_switch/proxy_client/CMakeFiles/light_switch_proxy_client_nrf52832_xxAA_s132_6.0.0.dir/__/__/__/mesh/access/src/device_state_manager.c.obj
 .bss.m_addr_nonvirtual_needs_flashing
                0x20005fe4        0x4 examples/light_switch/proxy_client/CMakeFiles/light_switch_proxy_client_nrf52832_xxAA_s132_6.0.0.dir/__/__/__/mesh/access/src/device_state_manager.c.obj
 .bss.m_addr_unicast_allocated
                0x20005fe8        0x4 examples/light_switch/proxy_client/CMakeFiles/light_switch_proxy_client_nrf52832_xxAA_s132_6.0.0.dir/__/__/__/mesh/access/src/device_state_manager.c.obj
 .bss.m_addr_unicast_needs_flashing
                0x20005fec        0x4 examples/light_switch/proxy_client/CMakeFiles/light_switch_proxy_client_nrf52832_xxAA_s132_6.0.0.dir/__/__/__/mesh/access/src/device_state_manager.c.obj
 .bss.m_addr_virtual_allocated
                0x20005ff0        0x4 examples/light_switch/proxy_client/CMakeFiles/light_switch_proxy_client_nrf52832_xxAA_s132_6.0.0.dir/__/__/__/mesh/access/src/device_state_manager.c.obj
 .bss.m_addr_virtual_needs_flashing
                0x20005ff4        0x4 examples/light_switch/proxy_client/CMakeFiles/light_switch_proxy_client_nrf52832_xxAA_s132_6.0.0.dir/__/__/__/mesh/access/src/device_state_manager.c.obj
 .bss.m_addresses
                0x20005ff8       0x1c examples/light_switch/proxy_client/CMakeFiles/light_switch_proxy_client_nrf52832_xxAA_s132_6.0.0.dir/__/__/__/mesh/access/src/device_state_manager.c.obj
 .bss.m_appkey_allocated
                0x20006014        0x4 examples/light_switch/proxy_client/CMakeFiles/light_switch_proxy_client_nrf52832_xxAA_s132_6.0.0.dir/__/__/__/mesh/access/src/device_state_manager.c.obj
 .bss.m_appkey_needs_flashing
                0x20006018        0x4 examples/light_switch/proxy_client/CMakeFiles/light_switch_proxy_client_nrf52832_xxAA_s132_6.0.0.dir/__/__/__/mesh/access/src/device_state_manager.c.obj
 .bss.m_appkeys
                0x2000601c       0x2a examples/light_switch/proxy_client/CMakeFiles/light_switch_proxy_client_nrf52832_xxAA_s132_6.0.0.dir/__/__/__/mesh/access/src/device_state_manager.c.obj
 *fill*         0x20006046        0x2 
 .bss.m_devkey_allocated
                0x20006048        0x4 examples/light_switch/proxy_client/CMakeFiles/light_switch_proxy_client_nrf52832_xxAA_s132_6.0.0.dir/__/__/__/mesh/access/src/device_state_manager.c.obj
 .bss.m_devkey_needs_flashing
                0x2000604c        0x4 examples/light_switch/proxy_client/CMakeFiles/light_switch_proxy_client_nrf52832_xxAA_s132_6.0.0.dir/__/__/__/mesh/access/src/device_state_manager.c.obj
 .bss.m_devkeys
                0x20006050       0x16 examples/light_switch/proxy_client/CMakeFiles/light_switch_proxy_client_nrf52832_xxAA_s132_6.0.0.dir/__/__/__/mesh/access/src/device_state_manager.c.obj
 .bss.m_has_primary_subnet
                0x20006066        0x1 examples/light_switch/proxy_client/CMakeFiles/light_switch_proxy_client_nrf52832_xxAA_s132_6.0.0.dir/__/__/__/mesh/access/src/device_state_manager.c.obj
 *fill*         0x20006067        0x1 
 .bss.m_local_unicast_addr
                0x20006068        0x4 examples/light_switch/proxy_client/CMakeFiles/light_switch_proxy_client_nrf52832_xxAA_s132_6.0.0.dir/__/__/__/mesh/access/src/device_state_manager.c.obj
 .bss.m_mesh_evt_handler
                0x2000606c        0x8 examples/light_switch/proxy_client/CMakeFiles/light_switch_proxy_client_nrf52832_xxAA_s132_6.0.0.dir/__/__/__/mesh/access/src/device_state_manager.c.obj
 .bss.m_subnet_allocated
                0x20006074        0x4 examples/light_switch/proxy_client/CMakeFiles/light_switch_proxy_client_nrf52832_xxAA_s132_6.0.0.dir/__/__/__/mesh/access/src/device_state_manager.c.obj
 .bss.m_subnet_needs_flashing
                0x20006078        0x4 examples/light_switch/proxy_client/CMakeFiles/light_switch_proxy_client_nrf52832_xxAA_s132_6.0.0.dir/__/__/__/mesh/access/src/device_state_manager.c.obj
 .bss.m_subnets
                0x2000607c       0xc8 examples/light_switch/proxy_client/CMakeFiles/light_switch_proxy_client_nrf52832_xxAA_s132_6.0.0.dir/__/__/__/mesh/access/src/device_state_manager.c.obj
 .bss.m_virtual_addresses
                0x20006144       0x14 examples/light_switch/proxy_client/CMakeFiles/light_switch_proxy_client_nrf52832_xxAA_s132_6.0.0.dir/__/__/__/mesh/access/src/device_state_manager.c.obj
 .bss.m_event_handler
                0x20006158        0x4 examples/light_switch/proxy_client/CMakeFiles/light_switch_proxy_client_nrf52832_xxAA_s132_6.0.0.dir/__/__/__/mesh/prov/src/prov_beacon.c.obj
 .bss.m_offload_ecdh
                0x2000615c        0x1 examples/light_switch/proxy_client/CMakeFiles/light_switch_proxy_client_nrf52832_xxAA_s132_6.0.0.dir/__/__/__/mesh/prov/src/prov_utils.c.obj
 *fill*         0x2000615d        0x3 
 .bss.mp_bearer_head
                0x20006160        0x4 examples/light_switch/proxy_client/CMakeFiles/light_switch_proxy_client_nrf52832_xxAA_s132_6.0.0.dir/__/__/__/mesh/prov/src/prov_bearer_adv.c.obj
 .bss._acDownBuffer
                0x20006164       0x80 external/rtt/librtt_nrf52832_xxAA.a(SEGGER_RTT.c.obj)
 .bss._acUpBuffer
                0x200061e4      0x400 external/rtt/librtt_nrf52832_xxAA.a(SEGGER_RTT.c.obj)
 .bss.__malloc_free_list
                0x200065e4        0x4 c:/mesh/arm_gcc/bin/../lib/gcc/arm-none-eabi/6.3.1/../../../../arm-none-eabi/lib/thumb/v7e-m/fpv4-sp/hard\libc_nano.a(lib_a-nano-mallocr.o)
                0x200065e4                __malloc_free_list
 .bss.__malloc_sbrk_start
                0x200065e8        0x4 c:/mesh/arm_gcc/bin/../lib/gcc/arm-none-eabi/6.3.1/../../../../arm-none-eabi/lib/thumb/v7e-m/fpv4-sp/hard\libc_nano.a(lib_a-nano-mallocr.o)
                0x200065e8                __malloc_sbrk_start
 .bss.heap_end.5239
                0x200065ec        0x4 c:/mesh/arm_gcc/bin/../lib/gcc/arm-none-eabi/6.3.1/../../../../arm-none-eabi/lib/thumb/v7e-m/fpv4-sp/hard\libnosys.a(sbrk.o)
 *(COMMON)
 COMMON         0x200065f0        0xc examples/light_switch/proxy_client/CMakeFiles/light_switch_proxy_client_nrf52832_xxAA_s132_6.0.0.dir/C_/b/nRF5_SDK_15.0.0_a53641a/components/libraries/util/app_util_platform.c.obj
                0x200065f0                nrf_nvic_state
 COMMON         0x200065fc       0x24 examples/light_switch/proxy_client/CMakeFiles/light_switch_proxy_client_nrf52832_xxAA_s132_6.0.0.dir/__/__/__/mesh/core/src/core_tx.c.obj
                0x200065fc                m_packet
 COMMON         0x20006620       0x78 external/rtt/librtt_nrf52832_xxAA.a(SEGGER_RTT.c.obj)
                0x20006620                _SEGGER_RTT
 COMMON         0x20006698        0x4 c:/mesh/arm_gcc/bin/../lib/gcc/arm-none-eabi/6.3.1/../../../../arm-none-eabi/lib/thumb/v7e-m/fpv4-sp/hard\libc_nano.a(lib_a-reent.o)
                0x20006698                errno
                0x2000669c                . = ALIGN (0x4)
                0x2000669c                __bss_end__ = .

.heap           0x200066a0     0x2000
                0x200066a0                __HeapBase = .
                0x200066a0                __end__ = .
                0x200066a0                PROVIDE (end, .)
 *(.heap*)
 .heap          0x200066a0     0x2000 examples/light_switch/proxy_client/CMakeFiles/light_switch_proxy_client_nrf52832_xxAA_s132_6.0.0.dir/C_/b/nRF5_SDK_15.0.0_a53641a/modules/nrfx/mdk/gcc_startup_nrf52.S.obj
                0x200086a0                __HeapLimit = .

.stack_dummy    0x200066a0     0x2000
 *(.stack*)
 .stack         0x200066a0     0x2000 examples/light_switch/proxy_client/CMakeFiles/light_switch_proxy_client_nrf52832_xxAA_s132_6.0.0.dir/C_/b/nRF5_SDK_15.0.0_a53641a/modules/nrfx/mdk/gcc_startup_nrf52.S.obj
                0x2000fd00                __StackTop = (ORIGIN (RAM) + LENGTH (RAM))
                0x2000dd00                __StackLimit = (__StackTop - SIZEOF (.stack_dummy))
                0x2000fd00                PROVIDE (__stack, __StackTop)
                0x00000001                ASSERT ((__StackLimit >= __HeapLimit), region RAM overflowed with stack)
                0x00000130                DataInitFlashUsed = (__bss_start__ - __data_start__)
                0x0001c684                CodeFlashUsed = (__etext - ORIGIN (FLASH))
                0x0001c7b4                TotalFlashUsed = (CodeFlashUsed + DataInitFlashUsed)
                0x00000001                ASSERT ((TotalFlashUsed <= LENGTH (FLASH)), region FLASH overflowed with .data and user data)
OUTPUT(examples\light_switch\proxy_client\light_switch_proxy_client_nrf52832_xxAA_s132_6.0.0.elf elf32-littlearm)

.ARM.attributes
                0x00000000       0x30
 .ARM.attributes
                0x00000000       0x22 c:/mesh/arm_gcc/bin/../lib/gcc/arm-none-eabi/6.3.1/thumb/v7e-m/fpv4-sp/hard/crti.o
 .ARM.attributes
                0x00000022       0x34 c:/mesh/arm_gcc/bin/../lib/gcc/arm-none-eabi/6.3.1/thumb/v7e-m/fpv4-sp/hard/crtbegin.o
 .ARM.attributes
                0x00000056       0x20 c:/mesh/arm_gcc/bin/../lib/gcc/arm-none-eabi/6.3.1/../../../../arm-none-eabi/lib/thumb/v7e-m/fpv4-sp/hard/crt0.o
 .ARM.attributes
                0x00000076       0x39 examples/light_switch/proxy_client/CMakeFiles/light_switch_proxy_client_nrf52832_xxAA_s132_6.0.0.dir/src/main.c.obj
 .ARM.attributes
                0x000000af       0x39 examples/light_switch/proxy_client/CMakeFiles/light_switch_proxy_client_nrf52832_xxAA_s132_6.0.0.dir/__/__/__/mesh/stack/src/mesh_stack.c.obj
 .ARM.attributes
                0x000000e8       0x39 examples/light_switch/proxy_client/CMakeFiles/light_switch_proxy_client_nrf52832_xxAA_s132_6.0.0.dir/__/__/common/src/mesh_provisionee.c.obj
 .ARM.attributes
                0x00000121       0x39 examples/light_switch/proxy_client/CMakeFiles/light_switch_proxy_client_nrf52832_xxAA_s132_6.0.0.dir/__/__/common/src/rtt_input.c.obj
 .ARM.attributes
                0x0000015a       0x39 examples/light_switch/proxy_client/CMakeFiles/light_switch_proxy_client_nrf52832_xxAA_s132_6.0.0.dir/__/__/common/src/simple_hal.c.obj
 .ARM.attributes
                0x00000193       0x39 examples/light_switch/proxy_client/CMakeFiles/light_switch_proxy_client_nrf52832_xxAA_s132_6.0.0.dir/__/__/common/src/mesh_adv.c.obj
 .ARM.attributes
                0x000001cc       0x39 examples/light_switch/proxy_client/CMakeFiles/light_switch_proxy_client_nrf52832_xxAA_s132_6.0.0.dir/__/__/__/mesh/prov/src/nrf_mesh_prov_bearer_gatt.c.obj
 .ARM.attributes
                0x00000205       0x39 examples/light_switch/proxy_client/CMakeFiles/light_switch_proxy_client_nrf52832_xxAA_s132_6.0.0.dir/C_/b/nRF5_SDK_15.0.0_a53641a/components/libraries/util/app_error.c.obj
 .ARM.attributes
                0x0000023e       0x39 examples/light_switch/proxy_client/CMakeFiles/light_switch_proxy_client_nrf52832_xxAA_s132_6.0.0.dir/C_/b/nRF5_SDK_15.0.0_a53641a/components/libraries/util/app_util_platform.c.obj
 .ARM.attributes
                0x00000277       0x39 examples/light_switch/proxy_client/CMakeFiles/light_switch_proxy_client_nrf52832_xxAA_s132_6.0.0.dir/C_/b/nRF5_SDK_15.0.0_a53641a/components/ble/common/ble_advdata.c.obj
 .ARM.attributes
                0x000002b0       0x39 examples/light_switch/proxy_client/CMakeFiles/light_switch_proxy_client_nrf52832_xxAA_s132_6.0.0.dir/C_/b/nRF5_SDK_15.0.0_a53641a/components/libraries/experimental_section_vars/nrf_section_iter.c.obj
 .ARM.attributes
                0x000002e9       0x39 examples/light_switch/proxy_client/CMakeFiles/light_switch_proxy_client_nrf52832_xxAA_s132_6.0.0.dir/C_/b/nRF5_SDK_15.0.0_a53641a/components/softdevice/common/nrf_sdh.c.obj
 .ARM.attributes
                0x00000322       0x39 examples/light_switch/proxy_client/CMakeFiles/light_switch_proxy_client_nrf52832_xxAA_s132_6.0.0.dir/C_/b/nRF5_SDK_15.0.0_a53641a/components/softdevice/common/nrf_sdh_soc.c.obj
 .ARM.attributes
                0x0000035b       0x39 examples/light_switch/proxy_client/CMakeFiles/light_switch_proxy_client_nrf52832_xxAA_s132_6.0.0.dir/C_/b/nRF5_SDK_15.0.0_a53641a/components/softdevice/common/nrf_sdh_ble.c.obj
 .ARM.attributes
                0x00000394       0x39 examples/light_switch/proxy_client/CMakeFiles/light_switch_proxy_client_nrf52832_xxAA_s132_6.0.0.dir/__/__/nrf_mesh_weak.c.obj
 .ARM.attributes
                0x000003cd       0x39 examples/light_switch/proxy_client/CMakeFiles/light_switch_proxy_client_nrf52832_xxAA_s132_6.0.0.dir/__/__/common/src/app_error_weak.c.obj
 .ARM.attributes
                0x00000406       0x39 examples/light_switch/proxy_client/CMakeFiles/light_switch_proxy_client_nrf52832_xxAA_s132_6.0.0.dir/__/__/common/src/assertion_handler_weak.c.obj
 .ARM.attributes
                0x0000043f       0x39 examples/light_switch/proxy_client/CMakeFiles/light_switch_proxy_client_nrf52832_xxAA_s132_6.0.0.dir/__/__/__/mesh/core/src/nrf_mesh_configure.c.obj
 .ARM.attributes
                0x00000478       0x39 examples/light_switch/proxy_client/CMakeFiles/light_switch_proxy_client_nrf52832_xxAA_s132_6.0.0.dir/__/__/__/mesh/core/src/aes.c.obj
 .ARM.attributes
                0x000004b1       0x39 examples/light_switch/proxy_client/CMakeFiles/light_switch_proxy_client_nrf52832_xxAA_s132_6.0.0.dir/__/__/__/mesh/core/src/msg_cache.c.obj
 .ARM.attributes
                0x000004ea       0x39 examples/light_switch/proxy_client/CMakeFiles/light_switch_proxy_client_nrf52832_xxAA_s132_6.0.0.dir/__/__/__/mesh/core/src/transport.c.obj
 .ARM.attributes
                0x00000523       0x39 examples/light_switch/proxy_client/CMakeFiles/light_switch_proxy_client_nrf52832_xxAA_s132_6.0.0.dir/__/__/__/mesh/core/src/event.c.obj
 .ARM.attributes
                0x0000055c       0x39 examples/light_switch/proxy_client/CMakeFiles/light_switch_proxy_client_nrf52832_xxAA_s132_6.0.0.dir/__/__/__/mesh/core/src/packet_buffer.c.obj
 .ARM.attributes
                0x00000595       0x39 examples/light_switch/proxy_client/CMakeFiles/light_switch_proxy_client_nrf52832_xxAA_s132_6.0.0.dir/__/__/__/mesh/core/src/flash_manager_defrag.c.obj
 .ARM.attributes
                0x000005ce       0x39 examples/light_switch/proxy_client/CMakeFiles/light_switch_proxy_client_nrf52832_xxAA_s132_6.0.0.dir/__/__/__/mesh/core/src/fifo.c.obj
 .ARM.attributes
                0x00000607       0x39 examples/light_switch/proxy_client/CMakeFiles/light_switch_proxy_client_nrf52832_xxAA_s132_6.0.0.dir/__/__/__/mesh/core/src/packet_mgr.c.obj
 .ARM.attributes
                0x00000640       0x39 examples/light_switch/proxy_client/CMakeFiles/light_switch_proxy_client_nrf52832_xxAA_s132_6.0.0.dir/__/__/__/mesh/core/src/net_state.c.obj
 .ARM.attributes
                0x00000679       0x39 examples/light_switch/proxy_client/CMakeFiles/light_switch_proxy_client_nrf52832_xxAA_s132_6.0.0.dir/__/__/__/mesh/core/src/mesh_flash.c.obj
 .ARM.attributes
                0x000006b2       0x39 examples/light_switch/proxy_client/CMakeFiles/light_switch_proxy_client_nrf52832_xxAA_s132_6.0.0.dir/__/__/__/mesh/core/src/nrf_mesh_utils.c.obj
 .ARM.attributes
                0x000006eb       0x39 examples/light_switch/proxy_client/CMakeFiles/light_switch_proxy_client_nrf52832_xxAA_s132_6.0.0.dir/__/__/__/mesh/core/src/nrf_mesh.c.obj
 .ARM.attributes
                0x00000724       0x39 examples/light_switch/proxy_client/CMakeFiles/light_switch_proxy_client_nrf52832_xxAA_s132_6.0.0.dir/__/__/__/mesh/core/src/queue.c.obj
 .ARM.attributes
                0x0000075d       0x39 examples/light_switch/proxy_client/CMakeFiles/light_switch_proxy_client_nrf52832_xxAA_s132_6.0.0.dir/__/__/__/mesh/core/src/hal.c.obj
 .ARM.attributes
                0x00000796       0x39 examples/light_switch/proxy_client/CMakeFiles/light_switch_proxy_client_nrf52832_xxAA_s132_6.0.0.dir/__/__/__/mesh/core/src/aes_cmac.c.obj
 .ARM.attributes
                0x000007cf       0x39 examples/light_switch/proxy_client/CMakeFiles/light_switch_proxy_client_nrf52832_xxAA_s132_6.0.0.dir/__/__/__/mesh/core/src/timer_scheduler.c.obj
 .ARM.attributes
                0x00000808       0x39 examples/light_switch/proxy_client/CMakeFiles/light_switch_proxy_client_nrf52832_xxAA_s132_6.0.0.dir/__/__/__/mesh/core/src/timer.c.obj
 .ARM.attributes
                0x00000841       0x39 examples/light_switch/proxy_client/CMakeFiles/light_switch_proxy_client_nrf52832_xxAA_s132_6.0.0.dir/__/__/__/mesh/core/src/ticker.c.obj
 .ARM.attributes
                0x0000087a       0x39 examples/light_switch/proxy_client/CMakeFiles/light_switch_proxy_client_nrf52832_xxAA_s132_6.0.0.dir/__/__/__/mesh/core/src/rand.c.obj
 .ARM.attributes
                0x000008b3       0x39 examples/light_switch/proxy_client/CMakeFiles/light_switch_proxy_client_nrf52832_xxAA_s132_6.0.0.dir/__/__/__/mesh/core/src/nrf_mesh_opt.c.obj
 .ARM.attributes
                0x000008ec       0x39 examples/light_switch/proxy_client/CMakeFiles/light_switch_proxy_client_nrf52832_xxAA_s132_6.0.0.dir/__/__/__/mesh/core/src/timeslot.c.obj
 .ARM.attributes
                0x00000925       0x39 examples/light_switch/proxy_client/CMakeFiles/light_switch_proxy_client_nrf52832_xxAA_s132_6.0.0.dir/__/__/__/mesh/core/src/bearer_event.c.obj
 .ARM.attributes
                0x0000095e       0x39 examples/light_switch/proxy_client/CMakeFiles/light_switch_proxy_client_nrf52832_xxAA_s132_6.0.0.dir/__/__/__/mesh/core/src/enc.c.obj
 .ARM.attributes
                0x00000997       0x39 examples/light_switch/proxy_client/CMakeFiles/light_switch_proxy_client_nrf52832_xxAA_s132_6.0.0.dir/__/__/__/mesh/core/src/network.c.obj
 .ARM.attributes
                0x000009d0       0x39 examples/light_switch/proxy_client/CMakeFiles/light_switch_proxy_client_nrf52832_xxAA_s132_6.0.0.dir/__/__/__/mesh/core/src/net_packet.c.obj
 .ARM.attributes
                0x00000a09       0x39 examples/light_switch/proxy_client/CMakeFiles/light_switch_proxy_client_nrf52832_xxAA_s132_6.0.0.dir/__/__/__/mesh/core/src/msqueue.c.obj
 .ARM.attributes
                0x00000a42       0x39 examples/light_switch/proxy_client/CMakeFiles/light_switch_proxy_client_nrf52832_xxAA_s132_6.0.0.dir/__/__/__/mesh/core/src/nrf_mesh_keygen.c.obj
 .ARM.attributes
                0x00000a7b       0x39 examples/light_switch/proxy_client/CMakeFiles/light_switch_proxy_client_nrf52832_xxAA_s132_6.0.0.dir/__/__/__/mesh/core/src/cache.c.obj
 .ARM.attributes
                0x00000ab4       0x39 examples/light_switch/proxy_client/CMakeFiles/light_switch_proxy_client_nrf52832_xxAA_s132_6.0.0.dir/__/__/__/mesh/core/src/list.c.obj
 .ARM.attributes
                0x00000aed       0x39 examples/light_switch/proxy_client/CMakeFiles/light_switch_proxy_client_nrf52832_xxAA_s132_6.0.0.dir/__/__/__/mesh/core/src/log.c.obj
 .ARM.attributes
                0x00000b26       0x39 examples/light_switch/proxy_client/CMakeFiles/light_switch_proxy_client_nrf52832_xxAA_s132_6.0.0.dir/__/__/__/mesh/core/src/flash_manager.c.obj
 .ARM.attributes
                0x00000b5f       0x39 examples/light_switch/proxy_client/CMakeFiles/light_switch_proxy_client_nrf52832_xxAA_s132_6.0.0.dir/__/__/__/mesh/core/src/ccm_soft.c.obj
 .ARM.attributes
                0x00000b98       0x39 examples/light_switch/proxy_client/CMakeFiles/light_switch_proxy_client_nrf52832_xxAA_s132_6.0.0.dir/__/__/__/mesh/core/src/replay_cache.c.obj
 .ARM.attributes
                0x00000bd1       0x39 examples/light_switch/proxy_client/CMakeFiles/light_switch_proxy_client_nrf52832_xxAA_s132_6.0.0.dir/__/__/__/mesh/core/src/beacon.c.obj
 .ARM.attributes
                0x00000c0a       0x39 examples/light_switch/proxy_client/CMakeFiles/light_switch_proxy_client_nrf52832_xxAA_s132_6.0.0.dir/__/__/__/mesh/core/src/core_tx.c.obj
 .ARM.attributes
                0x00000c43       0x39 examples/light_switch/proxy_client/CMakeFiles/light_switch_proxy_client_nrf52832_xxAA_s132_6.0.0.dir/__/__/__/mesh/core/src/heartbeat.c.obj
 .ARM.attributes
                0x00000c7c       0x39 examples/light_switch/proxy_client/CMakeFiles/light_switch_proxy_client_nrf52832_xxAA_s132_6.0.0.dir/__/__/__/mesh/core/src/net_beacon.c.obj
 .ARM.attributes
                0x00000cb5       0x39 examples/light_switch/proxy_client/CMakeFiles/light_switch_proxy_client_nrf52832_xxAA_s132_6.0.0.dir/__/__/__/mesh/core/src/fsm.c.obj
 .ARM.attributes
                0x00000cee       0x39 examples/light_switch/proxy_client/CMakeFiles/light_switch_proxy_client_nrf52832_xxAA_s132_6.0.0.dir/__/__/__/mesh/core/src/core_tx_adv.c.obj
 .ARM.attributes
                0x00000d27       0x39 examples/light_switch/proxy_client/CMakeFiles/light_switch_proxy_client_nrf52832_xxAA_s132_6.0.0.dir/__/__/__/mesh/bearer/src/ad_listener.c.obj
 .ARM.attributes
                0x00000d60       0x39 examples/light_switch/proxy_client/CMakeFiles/light_switch_proxy_client_nrf52832_xxAA_s132_6.0.0.dir/__/__/__/mesh/bearer/src/ad_type_filter.c.obj
 .ARM.attributes
                0x00000d99       0x39 examples/light_switch/proxy_client/CMakeFiles/light_switch_proxy_client_nrf52832_xxAA_s132_6.0.0.dir/__/__/__/mesh/bearer/src/advertiser.c.obj
 .ARM.attributes
                0x00000dd2       0x39 examples/light_switch/proxy_client/CMakeFiles/light_switch_proxy_client_nrf52832_xxAA_s132_6.0.0.dir/__/__/__/mesh/bearer/src/bearer_handler.c.obj
 .ARM.attributes
                0x00000e0b       0x39 examples/light_switch/proxy_client/CMakeFiles/light_switch_proxy_client_nrf52832_xxAA_s132_6.0.0.dir/__/__/__/mesh/bearer/src/broadcast.c.obj
 .ARM.attributes
                0x00000e44       0x39 examples/light_switch/proxy_client/CMakeFiles/light_switch_proxy_client_nrf52832_xxAA_s132_6.0.0.dir/__/__/__/mesh/bearer/src/filter_engine.c.obj
 .ARM.attributes
                0x00000e7d       0x39 examples/light_switch/proxy_client/CMakeFiles/light_switch_proxy_client_nrf52832_xxAA_s132_6.0.0.dir/__/__/__/mesh/bearer/src/radio_config.c.obj
 .ARM.attributes
                0x00000eb6       0x39 examples/light_switch/proxy_client/CMakeFiles/light_switch_proxy_client_nrf52832_xxAA_s132_6.0.0.dir/__/__/__/mesh/bearer/src/scanner.c.obj
 .ARM.attributes
                0x00000eef       0x39 examples/light_switch/proxy_client/CMakeFiles/light_switch_proxy_client_nrf52832_xxAA_s132_6.0.0.dir/__/__/__/mesh/gatt/src/mesh_gatt.c.obj
 .ARM.attributes
                0x00000f28       0x39 examples/light_switch/proxy_client/CMakeFiles/light_switch_proxy_client_nrf52832_xxAA_s132_6.0.0.dir/__/__/__/mesh/gatt/src/proxy.c.obj
 .ARM.attributes
                0x00000f61       0x39 examples/light_switch/proxy_client/CMakeFiles/light_switch_proxy_client_nrf52832_xxAA_s132_6.0.0.dir/__/__/__/mesh/gatt/src/proxy_filter.c.obj
 .ARM.attributes
                0x00000f9a       0x39 examples/light_switch/proxy_client/CMakeFiles/light_switch_proxy_client_nrf52832_xxAA_s132_6.0.0.dir/__/__/__/models/simple_on_off/src/simple_on_off_client.c.obj
 .ARM.attributes
                0x00000fd3       0x39 examples/light_switch/proxy_client/CMakeFiles/light_switch_proxy_client_nrf52832_xxAA_s132_6.0.0.dir/__/__/__/models/config/src/composition_data.c.obj
 .ARM.attributes
                0x0000100c       0x39 examples/light_switch/proxy_client/CMakeFiles/light_switch_proxy_client_nrf52832_xxAA_s132_6.0.0.dir/__/__/__/models/config/src/config_server.c.obj
 .ARM.attributes
                0x00001045       0x39 examples/light_switch/proxy_client/CMakeFiles/light_switch_proxy_client_nrf52832_xxAA_s132_6.0.0.dir/__/__/__/models/config/src/packed_index_list.c.obj
 .ARM.attributes
                0x0000107e       0x39 examples/light_switch/proxy_client/CMakeFiles/light_switch_proxy_client_nrf52832_xxAA_s132_6.0.0.dir/__/__/__/models/health/src/health_server.c.obj
 .ARM.attributes
                0x000010b7       0x39 examples/light_switch/proxy_client/CMakeFiles/light_switch_proxy_client_nrf52832_xxAA_s132_6.0.0.dir/__/__/__/mesh/access/src/access_publish.c.obj
 .ARM.attributes
                0x000010f0       0x39 examples/light_switch/proxy_client/CMakeFiles/light_switch_proxy_client_nrf52832_xxAA_s132_6.0.0.dir/__/__/__/mesh/access/src/access.c.obj
 .ARM.attributes
                0x00001129       0x39 examples/light_switch/proxy_client/CMakeFiles/light_switch_proxy_client_nrf52832_xxAA_s132_6.0.0.dir/__/__/__/mesh/access/src/access_reliable.c.obj
 .ARM.attributes
                0x00001162       0x39 examples/light_switch/proxy_client/CMakeFiles/light_switch_proxy_client_nrf52832_xxAA_s132_6.0.0.dir/__/__/__/mesh/access/src/device_state_manager.c.obj
 .ARM.attributes
                0x0000119b       0x39 examples/light_switch/proxy_client/CMakeFiles/light_switch_proxy_client_nrf52832_xxAA_s132_6.0.0.dir/__/__/__/mesh/prov/src/prov_provisionee.c.obj
 .ARM.attributes
                0x000011d4       0x39 examples/light_switch/proxy_client/CMakeFiles/light_switch_proxy_client_nrf52832_xxAA_s132_6.0.0.dir/__/__/__/mesh/prov/src/nrf_mesh_prov.c.obj
 .ARM.attributes
                0x0000120d       0x39 examples/light_switch/proxy_client/CMakeFiles/light_switch_proxy_client_nrf52832_xxAA_s132_6.0.0.dir/__/__/__/mesh/prov/src/provisioning.c.obj
 .ARM.attributes
                0x00001246       0x39 examples/light_switch/proxy_client/CMakeFiles/light_switch_proxy_client_nrf52832_xxAA_s132_6.0.0.dir/__/__/__/mesh/prov/src/prov_beacon.c.obj
 .ARM.attributes
                0x0000127f       0x39 examples/light_switch/proxy_client/CMakeFiles/light_switch_proxy_client_nrf52832_xxAA_s132_6.0.0.dir/__/__/__/mesh/prov/src/prov_utils.c.obj
 .ARM.attributes
                0x000012b8       0x39 examples/light_switch/proxy_client/CMakeFiles/light_switch_proxy_client_nrf52832_xxAA_s132_6.0.0.dir/__/__/__/mesh/prov/src/prov_bearer_adv.c.obj
 .ARM.attributes
                0x000012f1       0x39 examples/light_switch/proxy_client/CMakeFiles/light_switch_proxy_client_nrf52832_xxAA_s132_6.0.0.dir/C_/b/nRF5_SDK_15.0.0_a53641a/modules/nrfx/mdk/system_nrf52.c.obj
 .ARM.attributes
                0x0000132a       0x20 examples/light_switch/proxy_client/CMakeFiles/light_switch_proxy_client_nrf52832_xxAA_s132_6.0.0.dir/C_/b/nRF5_SDK_15.0.0_a53641a/modules/nrfx/mdk/gcc_startup_nrf52.S.obj
 .ARM.attributes
                0x0000134a       0x39 examples/light_switch/proxy_client/CMakeFiles/light_switch_proxy_client_nrf52832_xxAA_s132_6.0.0.dir/C_/b/nRF5_SDK_15.0.0_a53641a/components/libraries/util/app_error_handler_gcc.c.obj
 .ARM.attributes
                0x00001383       0x39 external/rtt/librtt_nrf52832_xxAA.a(SEGGER_RTT.c.obj)
 .ARM.attributes
                0x000013bc       0x39 external/rtt/librtt_nrf52832_xxAA.a(SEGGER_RTT_printf.c.obj)
 .ARM.attributes
                0x000013f5       0x39 external/micro-ecc/libuECC_nrf52832_xxAA.a(uECC.c.obj)
 .ARM.attributes
                0x0000142e       0x22 c:/mesh/arm_gcc/bin/../lib/gcc/arm-none-eabi/6.3.1/thumb/v7e-m/fpv4-sp/hard\libgcc.a(_aeabi_uldivmod.o)
 .ARM.attributes
                0x00001450       0x34 c:/mesh/arm_gcc/bin/../lib/gcc/arm-none-eabi/6.3.1/thumb/v7e-m/fpv4-sp/hard\libgcc.a(_udivmoddi4.o)
 .ARM.attributes
                0x00001484       0x22 c:/mesh/arm_gcc/bin/../lib/gcc/arm-none-eabi/6.3.1/thumb/v7e-m/fpv4-sp/hard\libgcc.a(_dvmd_tls.o)
 .ARM.attributes
                0x000014a6       0x34 c:/mesh/arm_gcc/bin/../lib/gcc/arm-none-eabi/6.3.1/../../../../arm-none-eabi/lib/thumb/v7e-m/fpv4-sp/hard\libc_nano.a(lib_a-exit.o)
 .ARM.attributes
                0x000014da       0x34 c:/mesh/arm_gcc/bin/../lib/gcc/arm-none-eabi/6.3.1/../../../../arm-none-eabi/lib/thumb/v7e-m/fpv4-sp/hard\libc_nano.a(lib_a-impure.o)
 .ARM.attributes
                0x0000150e       0x34 c:/mesh/arm_gcc/bin/../lib/gcc/arm-none-eabi/6.3.1/../../../../arm-none-eabi/lib/thumb/v7e-m/fpv4-sp/hard\libc_nano.a(lib_a-init.o)
 .ARM.attributes
                0x00001542       0x34 c:/mesh/arm_gcc/bin/../lib/gcc/arm-none-eabi/6.3.1/../../../../arm-none-eabi/lib/thumb/v7e-m/fpv4-sp/hard\libc_nano.a(lib_a-malloc.o)
 .ARM.attributes
                0x00001576       0x34 c:/mesh/arm_gcc/bin/../lib/gcc/arm-none-eabi/6.3.1/../../../../arm-none-eabi/lib/thumb/v7e-m/fpv4-sp/hard\libc_nano.a(lib_a-memcmp.o)
 .ARM.attributes
                0x000015aa       0x34 c:/mesh/arm_gcc/bin/../lib/gcc/arm-none-eabi/6.3.1/../../../../arm-none-eabi/lib/thumb/v7e-m/fpv4-sp/hard\libc_nano.a(lib_a-memcpy-stub.o)
 .ARM.attributes
                0x000015de       0x34 c:/mesh/arm_gcc/bin/../lib/gcc/arm-none-eabi/6.3.1/../../../../arm-none-eabi/lib/thumb/v7e-m/fpv4-sp/hard\libc_nano.a(lib_a-memset.o)
 .ARM.attributes
                0x00001612       0x34 c:/mesh/arm_gcc/bin/../lib/gcc/arm-none-eabi/6.3.1/../../../../arm-none-eabi/lib/thumb/v7e-m/fpv4-sp/hard\libc_nano.a(lib_a-nano-freer.o)
 .ARM.attributes
                0x00001646       0x34 c:/mesh/arm_gcc/bin/../lib/gcc/arm-none-eabi/6.3.1/../../../../arm-none-eabi/lib/thumb/v7e-m/fpv4-sp/hard\libc_nano.a(lib_a-nano-mallocr.o)
 .ARM.attributes
                0x0000167a       0x34 c:/mesh/arm_gcc/bin/../lib/gcc/arm-none-eabi/6.3.1/../../../../arm-none-eabi/lib/thumb/v7e-m/fpv4-sp/hard\libc_nano.a(lib_a-sbrkr.o)
 .ARM.attributes
                0x000016ae       0x34 c:/mesh/arm_gcc/bin/../lib/gcc/arm-none-eabi/6.3.1/../../../../arm-none-eabi/lib/thumb/v7e-m/fpv4-sp/hard\libc_nano.a(lib_a-strcpy.o)
 .ARM.attributes
                0x000016e2       0x1b c:/mesh/arm_gcc/bin/../lib/gcc/arm-none-eabi/6.3.1/../../../../arm-none-eabi/lib/thumb/v7e-m/fpv4-sp/hard\libc_nano.a(lib_a-strlen.o)
 .ARM.attributes
                0x000016fd       0x34 c:/mesh/arm_gcc/bin/../lib/gcc/arm-none-eabi/6.3.1/../../../../arm-none-eabi/lib/thumb/v7e-m/fpv4-sp/hard\libc_nano.a(lib_a-strrchr.o)
 .ARM.attributes
                0x00001731       0x34 c:/mesh/arm_gcc/bin/../lib/gcc/arm-none-eabi/6.3.1/../../../../arm-none-eabi/lib/thumb/v7e-m/fpv4-sp/hard\libc_nano.a(lib_a-mlock.o)
 .ARM.attributes
                0x00001765       0x34 c:/mesh/arm_gcc/bin/../lib/gcc/arm-none-eabi/6.3.1/../../../../arm-none-eabi/lib/thumb/v7e-m/fpv4-sp/hard\libc_nano.a(lib_a-reent.o)
 .ARM.attributes
                0x00001799       0x34 c:/mesh/arm_gcc/bin/../lib/gcc/arm-none-eabi/6.3.1/../../../../arm-none-eabi/lib/thumb/v7e-m/fpv4-sp/hard\libc_nano.a(lib_a-strchr.o)
 .ARM.attributes
                0x000017cd       0x34 c:/mesh/arm_gcc/bin/../lib/gcc/arm-none-eabi/6.3.1/thumb/v7e-m/fpv4-sp/hard/crtend.o
 .ARM.attributes
                0x00001801       0x22 c:/mesh/arm_gcc/bin/../lib/gcc/arm-none-eabi/6.3.1/thumb/v7e-m/fpv4-sp/hard/crtn.o
 .ARM.attributes
                0x00001823       0x34 c:/mesh/arm_gcc/bin/../lib/gcc/arm-none-eabi/6.3.1/../../../../arm-none-eabi/lib/thumb/v7e-m/fpv4-sp/hard\libnosys.a(sbrk.o)
 .ARM.attributes
                0x00001857       0x34 c:/mesh/arm_gcc/bin/../lib/gcc/arm-none-eabi/6.3.1/../../../../arm-none-eabi/lib/thumb/v7e-m/fpv4-sp/hard\libnosys.a(_exit.o)

.comment        0x00000000       0x7f
 .comment       0x00000000       0x7f examples/light_switch/proxy_client/CMakeFiles/light_switch_proxy_client_nrf52832_xxAA_s132_6.0.0.dir/src/main.c.obj
                                 0x80 (size before relaxing)
 .comment       0x0000007f       0x80 examples/light_switch/proxy_client/CMakeFiles/light_switch_proxy_client_nrf52832_xxAA_s132_6.0.0.dir/__/__/__/mesh/stack/src/mesh_stack.c.obj
 .comment       0x0000007f       0x80 examples/light_switch/proxy_client/CMakeFiles/light_switch_proxy_client_nrf52832_xxAA_s132_6.0.0.dir/__/__/common/src/mesh_provisionee.c.obj
 .comment       0x0000007f       0x80 examples/light_switch/proxy_client/CMakeFiles/light_switch_proxy_client_nrf52832_xxAA_s132_6.0.0.dir/__/__/common/src/rtt_input.c.obj
 .comment       0x0000007f       0x80 examples/light_switch/proxy_client/CMakeFiles/light_switch_proxy_client_nrf52832_xxAA_s132_6.0.0.dir/__/__/common/src/simple_hal.c.obj
 .comment       0x0000007f       0x80 examples/light_switch/proxy_client/CMakeFiles/light_switch_proxy_client_nrf52832_xxAA_s132_6.0.0.dir/__/__/common/src/mesh_adv.c.obj
 .comment       0x0000007f       0x80 examples/light_switch/proxy_client/CMakeFiles/light_switch_proxy_client_nrf52832_xxAA_s132_6.0.0.dir/__/__/__/mesh/prov/src/nrf_mesh_prov_bearer_gatt.c.obj
 .comment       0x0000007f       0x80 examples/light_switch/proxy_client/CMakeFiles/light_switch_proxy_client_nrf52832_xxAA_s132_6.0.0.dir/C_/b/nRF5_SDK_15.0.0_a53641a/components/libraries/util/app_error.c.obj
 .comment       0x0000007f       0x80 examples/light_switch/proxy_client/CMakeFiles/light_switch_proxy_client_nrf52832_xxAA_s132_6.0.0.dir/C_/b/nRF5_SDK_15.0.0_a53641a/components/libraries/util/app_util_platform.c.obj
 .comment       0x0000007f       0x80 examples/light_switch/proxy_client/CMakeFiles/light_switch_proxy_client_nrf52832_xxAA_s132_6.0.0.dir/C_/b/nRF5_SDK_15.0.0_a53641a/components/ble/common/ble_advdata.c.obj
 .comment       0x0000007f       0x80 examples/light_switch/proxy_client/CMakeFiles/light_switch_proxy_client_nrf52832_xxAA_s132_6.0.0.dir/C_/b/nRF5_SDK_15.0.0_a53641a/components/libraries/experimental_section_vars/nrf_section_iter.c.obj
 .comment       0x0000007f       0x80 examples/light_switch/proxy_client/CMakeFiles/light_switch_proxy_client_nrf52832_xxAA_s132_6.0.0.dir/C_/b/nRF5_SDK_15.0.0_a53641a/components/softdevice/common/nrf_sdh.c.obj
 .comment       0x0000007f       0x80 examples/light_switch/proxy_client/CMakeFiles/light_switch_proxy_client_nrf52832_xxAA_s132_6.0.0.dir/C_/b/nRF5_SDK_15.0.0_a53641a/components/softdevice/common/nrf_sdh_soc.c.obj
 .comment       0x0000007f       0x80 examples/light_switch/proxy_client/CMakeFiles/light_switch_proxy_client_nrf52832_xxAA_s132_6.0.0.dir/C_/b/nRF5_SDK_15.0.0_a53641a/components/softdevice/common/nrf_sdh_ble.c.obj
 .comment       0x0000007f       0x80 examples/light_switch/proxy_client/CMakeFiles/light_switch_proxy_client_nrf52832_xxAA_s132_6.0.0.dir/__/__/nrf_mesh_weak.c.obj
 .comment       0x0000007f       0x80 examples/light_switch/proxy_client/CMakeFiles/light_switch_proxy_client_nrf52832_xxAA_s132_6.0.0.dir/__/__/common/src/app_error_weak.c.obj
 .comment       0x0000007f       0x80 examples/light_switch/proxy_client/CMakeFiles/light_switch_proxy_client_nrf52832_xxAA_s132_6.0.0.dir/__/__/common/src/assertion_handler_weak.c.obj
 .comment       0x0000007f       0x80 examples/light_switch/proxy_client/CMakeFiles/light_switch_proxy_client_nrf52832_xxAA_s132_6.0.0.dir/__/__/__/mesh/core/src/nrf_mesh_configure.c.obj
 .comment       0x0000007f       0x80 examples/light_switch/proxy_client/CMakeFiles/light_switch_proxy_client_nrf52832_xxAA_s132_6.0.0.dir/__/__/__/mesh/core/src/aes.c.obj
 .comment       0x0000007f       0x80 examples/light_switch/proxy_client/CMakeFiles/light_switch_proxy_client_nrf52832_xxAA_s132_6.0.0.dir/__/__/__/mesh/core/src/msg_cache.c.obj
 .comment       0x0000007f       0x80 examples/light_switch/proxy_client/CMakeFiles/light_switch_proxy_client_nrf52832_xxAA_s132_6.0.0.dir/__/__/__/mesh/core/src/transport.c.obj
 .comment       0x0000007f       0x80 examples/light_switch/proxy_client/CMakeFiles/light_switch_proxy_client_nrf52832_xxAA_s132_6.0.0.dir/__/__/__/mesh/core/src/event.c.obj
 .comment       0x0000007f       0x80 examples/light_switch/proxy_client/CMakeFiles/light_switch_proxy_client_nrf52832_xxAA_s132_6.0.0.dir/__/__/__/mesh/core/src/packet_buffer.c.obj
 .comment       0x0000007f       0x80 examples/light_switch/proxy_client/CMakeFiles/light_switch_proxy_client_nrf52832_xxAA_s132_6.0.0.dir/__/__/__/mesh/core/src/flash_manager_defrag.c.obj
 .comment       0x0000007f       0x80 examples/light_switch/proxy_client/CMakeFiles/light_switch_proxy_client_nrf52832_xxAA_s132_6.0.0.dir/__/__/__/mesh/core/src/fifo.c.obj
 .comment       0x0000007f       0x80 examples/light_switch/proxy_client/CMakeFiles/light_switch_proxy_client_nrf52832_xxAA_s132_6.0.0.dir/__/__/__/mesh/core/src/packet_mgr.c.obj
 .comment       0x0000007f       0x80 examples/light_switch/proxy_client/CMakeFiles/light_switch_proxy_client_nrf52832_xxAA_s132_6.0.0.dir/__/__/__/mesh/core/src/net_state.c.obj
 .comment       0x0000007f       0x80 examples/light_switch/proxy_client/CMakeFiles/light_switch_proxy_client_nrf52832_xxAA_s132_6.0.0.dir/__/__/__/mesh/core/src/mesh_flash.c.obj
 .comment       0x0000007f       0x80 examples/light_switch/proxy_client/CMakeFiles/light_switch_proxy_client_nrf52832_xxAA_s132_6.0.0.dir/__/__/__/mesh/core/src/nrf_mesh_utils.c.obj
 .comment       0x0000007f       0x80 examples/light_switch/proxy_client/CMakeFiles/light_switch_proxy_client_nrf52832_xxAA_s132_6.0.0.dir/__/__/__/mesh/core/src/nrf_mesh.c.obj
 .comment       0x0000007f       0x80 examples/light_switch/proxy_client/CMakeFiles/light_switch_proxy_client_nrf52832_xxAA_s132_6.0.0.dir/__/__/__/mesh/core/src/queue.c.obj
 .comment       0x0000007f       0x80 examples/light_switch/proxy_client/CMakeFiles/light_switch_proxy_client_nrf52832_xxAA_s132_6.0.0.dir/__/__/__/mesh/core/src/hal.c.obj
 .comment       0x0000007f       0x80 examples/light_switch/proxy_client/CMakeFiles/light_switch_proxy_client_nrf52832_xxAA_s132_6.0.0.dir/__/__/__/mesh/core/src/aes_cmac.c.obj
 .comment       0x0000007f       0x80 examples/light_switch/proxy_client/CMakeFiles/light_switch_proxy_client_nrf52832_xxAA_s132_6.0.0.dir/__/__/__/mesh/core/src/timer_scheduler.c.obj
 .comment       0x0000007f       0x80 examples/light_switch/proxy_client/CMakeFiles/light_switch_proxy_client_nrf52832_xxAA_s132_6.0.0.dir/__/__/__/mesh/core/src/timer.c.obj
 .comment       0x0000007f       0x80 examples/light_switch/proxy_client/CMakeFiles/light_switch_proxy_client_nrf52832_xxAA_s132_6.0.0.dir/__/__/__/mesh/core/src/ticker.c.obj
 .comment       0x0000007f       0x80 examples/light_switch/proxy_client/CMakeFiles/light_switch_proxy_client_nrf52832_xxAA_s132_6.0.0.dir/__/__/__/mesh/core/src/rand.c.obj
 .comment       0x0000007f       0x80 examples/light_switch/proxy_client/CMakeFiles/light_switch_proxy_client_nrf52832_xxAA_s132_6.0.0.dir/__/__/__/mesh/core/src/nrf_mesh_opt.c.obj
 .comment       0x0000007f       0x80 examples/light_switch/proxy_client/CMakeFiles/light_switch_proxy_client_nrf52832_xxAA_s132_6.0.0.dir/__/__/__/mesh/core/src/timeslot.c.obj
 .comment       0x0000007f       0x80 examples/light_switch/proxy_client/CMakeFiles/light_switch_proxy_client_nrf52832_xxAA_s132_6.0.0.dir/__/__/__/mesh/core/src/bearer_event.c.obj
 .comment       0x0000007f       0x80 examples/light_switch/proxy_client/CMakeFiles/light_switch_proxy_client_nrf52832_xxAA_s132_6.0.0.dir/__/__/__/mesh/core/src/enc.c.obj
 .comment       0x0000007f       0x80 examples/light_switch/proxy_client/CMakeFiles/light_switch_proxy_client_nrf52832_xxAA_s132_6.0.0.dir/__/__/__/mesh/core/src/network.c.obj
 .comment       0x0000007f       0x80 examples/light_switch/proxy_client/CMakeFiles/light_switch_proxy_client_nrf52832_xxAA_s132_6.0.0.dir/__/__/__/mesh/core/src/net_packet.c.obj
 .comment       0x0000007f       0x80 examples/light_switch/proxy_client/CMakeFiles/light_switch_proxy_client_nrf52832_xxAA_s132_6.0.0.dir/__/__/__/mesh/core/src/msqueue.c.obj
 .comment       0x0000007f       0x80 examples/light_switch/proxy_client/CMakeFiles/light_switch_proxy_client_nrf52832_xxAA_s132_6.0.0.dir/__/__/__/mesh/core/src/nrf_mesh_keygen.c.obj
 .comment       0x0000007f       0x80 examples/light_switch/proxy_client/CMakeFiles/light_switch_proxy_client_nrf52832_xxAA_s132_6.0.0.dir/__/__/__/mesh/core/src/cache.c.obj
 .comment       0x0000007f       0x80 examples/light_switch/proxy_client/CMakeFiles/light_switch_proxy_client_nrf52832_xxAA_s132_6.0.0.dir/__/__/__/mesh/core/src/list.c.obj
 .comment       0x0000007f       0x80 examples/light_switch/proxy_client/CMakeFiles/light_switch_proxy_client_nrf52832_xxAA_s132_6.0.0.dir/__/__/__/mesh/core/src/log.c.obj
 .comment       0x0000007f       0x80 examples/light_switch/proxy_client/CMakeFiles/light_switch_proxy_client_nrf52832_xxAA_s132_6.0.0.dir/__/__/__/mesh/core/src/flash_manager.c.obj
 .comment       0x0000007f       0x80 examples/light_switch/proxy_client/CMakeFiles/light_switch_proxy_client_nrf52832_xxAA_s132_6.0.0.dir/__/__/__/mesh/core/src/ccm_soft.c.obj
 .comment       0x0000007f       0x80 examples/light_switch/proxy_client/CMakeFiles/light_switch_proxy_client_nrf52832_xxAA_s132_6.0.0.dir/__/__/__/mesh/core/src/replay_cache.c.obj
 .comment       0x0000007f       0x80 examples/light_switch/proxy_client/CMakeFiles/light_switch_proxy_client_nrf52832_xxAA_s132_6.0.0.dir/__/__/__/mesh/core/src/beacon.c.obj
 .comment       0x0000007f       0x80 examples/light_switch/proxy_client/CMakeFiles/light_switch_proxy_client_nrf52832_xxAA_s132_6.0.0.dir/__/__/__/mesh/core/src/core_tx.c.obj
 .comment       0x0000007f       0x80 examples/light_switch/proxy_client/CMakeFiles/light_switch_proxy_client_nrf52832_xxAA_s132_6.0.0.dir/__/__/__/mesh/core/src/heartbeat.c.obj
 .comment       0x0000007f       0x80 examples/light_switch/proxy_client/CMakeFiles/light_switch_proxy_client_nrf52832_xxAA_s132_6.0.0.dir/__/__/__/mesh/core/src/net_beacon.c.obj
 .comment       0x0000007f       0x80 examples/light_switch/proxy_client/CMakeFiles/light_switch_proxy_client_nrf52832_xxAA_s132_6.0.0.dir/__/__/__/mesh/core/src/fsm.c.obj
 .comment       0x0000007f       0x80 examples/light_switch/proxy_client/CMakeFiles/light_switch_proxy_client_nrf52832_xxAA_s132_6.0.0.dir/__/__/__/mesh/core/src/core_tx_adv.c.obj
 .comment       0x0000007f       0x80 examples/light_switch/proxy_client/CMakeFiles/light_switch_proxy_client_nrf52832_xxAA_s132_6.0.0.dir/__/__/__/mesh/bearer/src/ad_listener.c.obj
 .comment       0x0000007f       0x80 examples/light_switch/proxy_client/CMakeFiles/light_switch_proxy_client_nrf52832_xxAA_s132_6.0.0.dir/__/__/__/mesh/bearer/src/ad_type_filter.c.obj
 .comment       0x0000007f       0x80 examples/light_switch/proxy_client/CMakeFiles/light_switch_proxy_client_nrf52832_xxAA_s132_6.0.0.dir/__/__/__/mesh/bearer/src/advertiser.c.obj
 .comment       0x0000007f       0x80 examples/light_switch/proxy_client/CMakeFiles/light_switch_proxy_client_nrf52832_xxAA_s132_6.0.0.dir/__/__/__/mesh/bearer/src/bearer_handler.c.obj
 .comment       0x0000007f       0x80 examples/light_switch/proxy_client/CMakeFiles/light_switch_proxy_client_nrf52832_xxAA_s132_6.0.0.dir/__/__/__/mesh/bearer/src/broadcast.c.obj
 .comment       0x0000007f       0x80 examples/light_switch/proxy_client/CMakeFiles/light_switch_proxy_client_nrf52832_xxAA_s132_6.0.0.dir/__/__/__/mesh/bearer/src/filter_engine.c.obj
 .comment       0x0000007f       0x80 examples/light_switch/proxy_client/CMakeFiles/light_switch_proxy_client_nrf52832_xxAA_s132_6.0.0.dir/__/__/__/mesh/bearer/src/radio_config.c.obj
 .comment       0x0000007f       0x80 examples/light_switch/proxy_client/CMakeFiles/light_switch_proxy_client_nrf52832_xxAA_s132_6.0.0.dir/__/__/__/mesh/bearer/src/scanner.c.obj
 .comment       0x0000007f       0x80 examples/light_switch/proxy_client/CMakeFiles/light_switch_proxy_client_nrf52832_xxAA_s132_6.0.0.dir/__/__/__/mesh/gatt/src/mesh_gatt.c.obj
 .comment       0x0000007f       0x80 examples/light_switch/proxy_client/CMakeFiles/light_switch_proxy_client_nrf52832_xxAA_s132_6.0.0.dir/__/__/__/mesh/gatt/src/proxy.c.obj
 .comment       0x0000007f       0x80 examples/light_switch/proxy_client/CMakeFiles/light_switch_proxy_client_nrf52832_xxAA_s132_6.0.0.dir/__/__/__/mesh/gatt/src/proxy_filter.c.obj
 .comment       0x0000007f       0x80 examples/light_switch/proxy_client/CMakeFiles/light_switch_proxy_client_nrf52832_xxAA_s132_6.0.0.dir/__/__/__/models/simple_on_off/src/simple_on_off_client.c.obj
 .comment       0x0000007f       0x80 examples/light_switch/proxy_client/CMakeFiles/light_switch_proxy_client_nrf52832_xxAA_s132_6.0.0.dir/__/__/__/models/config/src/composition_data.c.obj
 .comment       0x0000007f       0x80 examples/light_switch/proxy_client/CMakeFiles/light_switch_proxy_client_nrf52832_xxAA_s132_6.0.0.dir/__/__/__/models/config/src/config_server.c.obj
 .comment       0x0000007f       0x80 examples/light_switch/proxy_client/CMakeFiles/light_switch_proxy_client_nrf52832_xxAA_s132_6.0.0.dir/__/__/__/models/config/src/packed_index_list.c.obj
 .comment       0x0000007f       0x80 examples/light_switch/proxy_client/CMakeFiles/light_switch_proxy_client_nrf52832_xxAA_s132_6.0.0.dir/__/__/__/models/health/src/health_server.c.obj
 .comment       0x0000007f       0x80 examples/light_switch/proxy_client/CMakeFiles/light_switch_proxy_client_nrf52832_xxAA_s132_6.0.0.dir/__/__/__/mesh/access/src/access_publish.c.obj
 .comment       0x0000007f       0x80 examples/light_switch/proxy_client/CMakeFiles/light_switch_proxy_client_nrf52832_xxAA_s132_6.0.0.dir/__/__/__/mesh/access/src/access.c.obj
 .comment       0x0000007f       0x80 examples/light_switch/proxy_client/CMakeFiles/light_switch_proxy_client_nrf52832_xxAA_s132_6.0.0.dir/__/__/__/mesh/access/src/access_reliable.c.obj
 .comment       0x0000007f       0x80 examples/light_switch/proxy_client/CMakeFiles/light_switch_proxy_client_nrf52832_xxAA_s132_6.0.0.dir/__/__/__/mesh/access/src/device_state_manager.c.obj
 .comment       0x0000007f       0x80 examples/light_switch/proxy_client/CMakeFiles/light_switch_proxy_client_nrf52832_xxAA_s132_6.0.0.dir/__/__/__/mesh/prov/src/prov_provisionee.c.obj
 .comment       0x0000007f       0x80 examples/light_switch/proxy_client/CMakeFiles/light_switch_proxy_client_nrf52832_xxAA_s132_6.0.0.dir/__/__/__/mesh/prov/src/nrf_mesh_prov.c.obj
 .comment       0x0000007f       0x80 examples/light_switch/proxy_client/CMakeFiles/light_switch_proxy_client_nrf52832_xxAA_s132_6.0.0.dir/__/__/__/mesh/prov/src/provisioning.c.obj
 .comment       0x0000007f       0x80 examples/light_switch/proxy_client/CMakeFiles/light_switch_proxy_client_nrf52832_xxAA_s132_6.0.0.dir/__/__/__/mesh/prov/src/prov_beacon.c.obj
 .comment       0x0000007f       0x80 examples/light_switch/proxy_client/CMakeFiles/light_switch_proxy_client_nrf52832_xxAA_s132_6.0.0.dir/__/__/__/mesh/prov/src/prov_utils.c.obj
 .comment       0x0000007f       0x80 examples/light_switch/proxy_client/CMakeFiles/light_switch_proxy_client_nrf52832_xxAA_s132_6.0.0.dir/__/__/__/mesh/prov/src/prov_bearer_adv.c.obj
 .comment       0x0000007f       0x80 examples/light_switch/proxy_client/CMakeFiles/light_switch_proxy_client_nrf52832_xxAA_s132_6.0.0.dir/C_/b/nRF5_SDK_15.0.0_a53641a/modules/nrfx/mdk/system_nrf52.c.obj
 .comment       0x0000007f       0x80 examples/light_switch/proxy_client/CMakeFiles/light_switch_proxy_client_nrf52832_xxAA_s132_6.0.0.dir/C_/b/nRF5_SDK_15.0.0_a53641a/components/libraries/util/app_error_handler_gcc.c.obj
 .comment       0x0000007f       0x80 external/rtt/librtt_nrf52832_xxAA.a(SEGGER_RTT.c.obj)
 .comment       0x0000007f       0x80 external/rtt/librtt_nrf52832_xxAA.a(SEGGER_RTT_printf.c.obj)
 .comment       0x0000007f       0x80 external/micro-ecc/libuECC_nrf52832_xxAA.a(uECC.c.obj)

.debug_frame    0x00000000      0x324
 .debug_frame   0x00000000       0x2c c:/mesh/arm_gcc/bin/../lib/gcc/arm-none-eabi/6.3.1/thumb/v7e-m/fpv4-sp/hard\libgcc.a(_aeabi_uldivmod.o)
 .debug_frame   0x0000002c       0x34 c:/mesh/arm_gcc/bin/../lib/gcc/arm-none-eabi/6.3.1/thumb/v7e-m/fpv4-sp/hard\libgcc.a(_udivmoddi4.o)
 .debug_frame   0x00000060       0x28 c:/mesh/arm_gcc/bin/../lib/gcc/arm-none-eabi/6.3.1/../../../../arm-none-eabi/lib/thumb/v7e-m/fpv4-sp/hard\libc_nano.a(lib_a-exit.o)
 .debug_frame   0x00000088       0x2c c:/mesh/arm_gcc/bin/../lib/gcc/arm-none-eabi/6.3.1/../../../../arm-none-eabi/lib/thumb/v7e-m/fpv4-sp/hard\libc_nano.a(lib_a-init.o)
 .debug_frame   0x000000b4       0x30 c:/mesh/arm_gcc/bin/../lib/gcc/arm-none-eabi/6.3.1/../../../../arm-none-eabi/lib/thumb/v7e-m/fpv4-sp/hard\libc_nano.a(lib_a-malloc.o)
 .debug_frame   0x000000e4       0x28 c:/mesh/arm_gcc/bin/../lib/gcc/arm-none-eabi/6.3.1/../../../../arm-none-eabi/lib/thumb/v7e-m/fpv4-sp/hard\libc_nano.a(lib_a-memcmp.o)
 .debug_frame   0x0000010c       0x28 c:/mesh/arm_gcc/bin/../lib/gcc/arm-none-eabi/6.3.1/../../../../arm-none-eabi/lib/thumb/v7e-m/fpv4-sp/hard\libc_nano.a(lib_a-memcpy-stub.o)
 .debug_frame   0x00000134       0x20 c:/mesh/arm_gcc/bin/../lib/gcc/arm-none-eabi/6.3.1/../../../../arm-none-eabi/lib/thumb/v7e-m/fpv4-sp/hard\libc_nano.a(lib_a-memset.o)
 .debug_frame   0x00000154       0x38 c:/mesh/arm_gcc/bin/../lib/gcc/arm-none-eabi/6.3.1/../../../../arm-none-eabi/lib/thumb/v7e-m/fpv4-sp/hard\libc_nano.a(lib_a-nano-freer.o)
 .debug_frame   0x0000018c       0x2c c:/mesh/arm_gcc/bin/../lib/gcc/arm-none-eabi/6.3.1/../../../../arm-none-eabi/lib/thumb/v7e-m/fpv4-sp/hard\libc_nano.a(lib_a-nano-mallocr.o)
 .debug_frame   0x000001b8       0x2c c:/mesh/arm_gcc/bin/../lib/gcc/arm-none-eabi/6.3.1/../../../../arm-none-eabi/lib/thumb/v7e-m/fpv4-sp/hard\libc_nano.a(lib_a-sbrkr.o)
 .debug_frame   0x000001e4       0x20 c:/mesh/arm_gcc/bin/../lib/gcc/arm-none-eabi/6.3.1/../../../../arm-none-eabi/lib/thumb/v7e-m/fpv4-sp/hard\libc_nano.a(lib_a-strcpy.o)
 .debug_frame   0x00000204       0x34 c:/mesh/arm_gcc/bin/../lib/gcc/arm-none-eabi/6.3.1/../../../../arm-none-eabi/lib/thumb/v7e-m/fpv4-sp/hard\libc_nano.a(lib_a-strrchr.o)
 .debug_frame   0x00000238       0x30 c:/mesh/arm_gcc/bin/../lib/gcc/arm-none-eabi/6.3.1/../../../../arm-none-eabi/lib/thumb/v7e-m/fpv4-sp/hard\libc_nano.a(lib_a-mlock.o)
 .debug_frame   0x00000268       0x5c c:/mesh/arm_gcc/bin/../lib/gcc/arm-none-eabi/6.3.1/../../../../arm-none-eabi/lib/thumb/v7e-m/fpv4-sp/hard\libc_nano.a(lib_a-reent.o)
 .debug_frame   0x000002c4       0x20 c:/mesh/arm_gcc/bin/../lib/gcc/arm-none-eabi/6.3.1/../../../../arm-none-eabi/lib/thumb/v7e-m/fpv4-sp/hard\libc_nano.a(lib_a-strchr.o)
 .debug_frame   0x000002e4       0x20 c:/mesh/arm_gcc/bin/../lib/gcc/arm-none-eabi/6.3.1/../../../../arm-none-eabi/lib/thumb/v7e-m/fpv4-sp/hard\libnosys.a(sbrk.o)
 .debug_frame   0x00000304       0x20 c:/mesh/arm_gcc/bin/../lib/gcc/arm-none-eabi/6.3.1/../../../../arm-none-eabi/lib/thumb/v7e-m/fpv4-sp/hard\libnosys.a(_exit.o)
