Archive member included to satisfy reference by file (symbol)

mesh/core/libmesh_core_nrf52832_xxAA.a(nrf_mesh_configure.c.obj)
                              examples/light_switch/client/CMakeFiles/light_switch_client_nrf52832_xxAA_s132_3.1.0.dir/__/__/__/mesh/prov/src/prov_beacon.c.obj (nrf_mesh_configure_device_uuid_get)
mesh/core/libmesh_core_nrf52832_xxAA.a(event.c.obj)
                              examples/light_switch/client/CMakeFiles/light_switch_client_nrf52832_xxAA_s132_3.1.0.dir/__/__/__/mesh/access/src/access.c.obj (event_handle)
mesh/core/libmesh_core_nrf52832_xxAA.a(packet_mgr.c.obj)
                              examples/light_switch/client/CMakeFiles/light_switch_client_nrf52832_xxAA_s132_3.1.0.dir/__/__/__/models/config/src/config_client.c.obj (packet_mgr_alloc)
mesh/core/libmesh_core_nrf52832_xxAA.a(net_state.c.obj)
                              examples/light_switch/client/CMakeFiles/light_switch_client_nrf52832_xxAA_s132_3.1.0.dir/__/__/__/mesh/access/src/device_state_manager.c.obj (net_state_flash_area_get)
mesh/core/libmesh_core_nrf52832_xxAA.a(nrf_mesh_utils.c.obj)
                              examples/light_switch/client/CMakeFiles/light_switch_client_nrf52832_xxAA_s132_3.1.0.dir/__/__/__/mesh/access/src/device_state_manager.c.obj (nrf_mesh_address_type_get)
mesh/core/libmesh_core_nrf52832_xxAA.a(nrf_mesh.c.obj)
                              examples/light_switch/client/CMakeFiles/light_switch_client_nrf52832_xxAA_s132_3.1.0.dir/__/__/nrf_mesh_sdk.c.obj (nrf_mesh_init)
mesh/core/libmesh_core_nrf52832_xxAA.a(hal.c.obj)
                              mesh/core/libmesh_core_nrf52832_xxAA.a(nrf_mesh.c.obj) (hal_lfclk_ppm_get)
mesh/core/libmesh_core_nrf52832_xxAA.a(timer_scheduler.c.obj)
                              mesh/core/libmesh_core_nrf52832_xxAA.a(nrf_mesh.c.obj) (timer_sch_init)
mesh/core/libmesh_core_nrf52832_xxAA.a(timer.c.obj)
                              mesh/core/libmesh_core_nrf52832_xxAA.a(timer_scheduler.c.obj) (timer_order_cb)
mesh/core/libmesh_core_nrf52832_xxAA.a(ticker.c.obj)
                              mesh/core/libmesh_core_nrf52832_xxAA.a(nrf_mesh.c.obj) (ticker_init)
mesh/core/libmesh_core_nrf52832_xxAA.a(rand.c.obj)
                              examples/light_switch/client/CMakeFiles/light_switch_client_nrf52832_xxAA_s132_3.1.0.dir/__/__/__/mesh/prov/src/prov_utils.c.obj (rand_hw_rng_get)
mesh/core/libmesh_core_nrf52832_xxAA.a(timeslot.c.obj)
                              mesh/core/libmesh_core_nrf52832_xxAA.a(nrf_mesh.c.obj) (timeslot_sd_event_handler)
mesh/core/libmesh_core_nrf52832_xxAA.a(bearer_event.c.obj)
                              mesh/core/libmesh_core_nrf52832_xxAA.a(nrf_mesh.c.obj) (bearer_event_init)
mesh/core/libmesh_core_nrf52832_xxAA.a(enc.c.obj)
                              examples/light_switch/client/CMakeFiles/light_switch_client_nrf52832_xxAA_s132_3.1.0.dir/__/__/__/mesh/prov/src/prov_utils.c.obj (enc_aes_cmac)
mesh/core/libmesh_core_nrf52832_xxAA.a(network.c.obj)
                              mesh/core/libmesh_core_nrf52832_xxAA.a(nrf_mesh.c.obj) (network_init)
mesh/core/libmesh_core_nrf52832_xxAA.a(nrf_mesh_keygen.c.obj)
                              examples/light_switch/client/CMakeFiles/light_switch_client_nrf52832_xxAA_s132_3.1.0.dir/__/__/__/mesh/access/src/device_state_manager.c.obj (nrf_mesh_keygen_aid)
mesh/core/libmesh_core_nrf52832_xxAA.a(list.c.obj)
                              mesh/core/libmesh_core_nrf52832_xxAA.a(event.c.obj) (list_add)
mesh/core/libmesh_core_nrf52832_xxAA.a(log.c.obj)
                              examples/light_switch/client/CMakeFiles/light_switch_client_nrf52832_xxAA_s132_3.1.0.dir/src/main.c.obj (log_callback_rtt)
mesh/core/libmesh_core_nrf52832_xxAA.a(flash_manager.c.obj)
                              mesh/core/libmesh_core_nrf52832_xxAA.a(nrf_mesh.c.obj) (flash_manager_init)
mesh/core/libmesh_core_nrf52832_xxAA.a(ccm_soft.c.obj)
                              mesh/core/libmesh_core_nrf52832_xxAA.a(enc.c.obj) (ccm_soft_encrypt)
mesh/core/libmesh_core_nrf52832_xxAA.a(beacon.c.obj)
                              mesh/core/libmesh_core_nrf52832_xxAA.a(nrf_mesh.c.obj) (beacon_init)
mesh/core/libmesh_core_nrf52832_xxAA.a(flash_manager_internal.c.obj)
                              mesh/core/libmesh_core_nrf52832_xxAA.a(flash_manager.c.obj) (entry_get)
mesh/core/libmesh_core_nrf52832_xxAA.a(core_tx.c.obj)
                              mesh/core/libmesh_core_nrf52832_xxAA.a(network.c.obj) (core_tx_packet_alloc)
mesh/core/libmesh_core_nrf52832_xxAA.a(heartbeat.c.obj)
                              mesh/core/libmesh_core_nrf52832_xxAA.a(network.c.obj) (heartbeat_on_feature_change_trigger)
mesh/core/libmesh_core_nrf52832_xxAA.a(net_beacon.c.obj)
                              mesh/core/libmesh_core_nrf52832_xxAA.a(network.c.obj) (net_beacon_init)
mesh/core/libmesh_core_nrf52832_xxAA.a(core_tx_adv.c.obj)
                              mesh/core/libmesh_core_nrf52832_xxAA.a(nrf_mesh.c.obj) (core_tx_adv_init)
mesh/core/libmesh_core_nrf52832_xxAA.a(ad_listener.c.obj)
                              mesh/core/libmesh_core_nrf52832_xxAA.a(nrf_mesh.c.obj) (ad_listener_subscribe)
mesh/core/libmesh_core_nrf52832_xxAA.a(ad_type_filter.c.obj)
                              mesh/core/libmesh_core_nrf52832_xxAA.a(ad_listener.c.obj) (bearer_adtype_filtering_set)
mesh/core/libmesh_core_nrf52832_xxAA.a(advertiser.c.obj)
                              mesh/core/libmesh_core_nrf52832_xxAA.a(nrf_mesh.c.obj) (advertiser_init)
mesh/core/libmesh_core_nrf52832_xxAA.a(bearer_handler.c.obj)
                              mesh/core/libmesh_core_nrf52832_xxAA.a(nrf_mesh.c.obj) (bearer_handler_init)
mesh/core/libmesh_core_nrf52832_xxAA.a(broadcast.c.obj)
                              mesh/core/libmesh_core_nrf52832_xxAA.a(advertiser.c.obj) (broadcast_send)
mesh/core/libmesh_core_nrf52832_xxAA.a(filter_engine.c.obj)
                              mesh/core/libmesh_core_nrf52832_xxAA.a(ad_type_filter.c.obj) (fen_filter_start)
mesh/core/libmesh_core_nrf52832_xxAA.a(radio_config.c.obj)
                              mesh/core/libmesh_core_nrf52832_xxAA.a(broadcast.c.obj) (radio_config_reset)
mesh/core/libmesh_core_nrf52832_xxAA.a(scanner.c.obj)
                              mesh/core/libmesh_core_nrf52832_xxAA.a(bearer_handler.c.obj) (scanner_radio_start)
mesh/core/libmesh_core_nrf52832_xxAA.a(internal_event.c.obj)
                              mesh/core/libmesh_core_nrf52832_xxAA.a(network.c.obj) (internal_event_push)
mesh/core/libmesh_core_nrf52832_xxAA.a(aes.c.obj)
                              mesh/core/libmesh_core_nrf52832_xxAA.a(enc.c.obj) (aes_encrypt)
mesh/core/libmesh_core_nrf52832_xxAA.a(msg_cache.c.obj)
                              mesh/core/libmesh_core_nrf52832_xxAA.a(nrf_mesh.c.obj) (msg_cache_init)
mesh/core/libmesh_core_nrf52832_xxAA.a(transport.c.obj)
                              mesh/core/libmesh_core_nrf52832_xxAA.a(nrf_mesh.c.obj) (transport_init)
mesh/core/libmesh_core_nrf52832_xxAA.a(packet_buffer.c.obj)
                              mesh/core/libmesh_core_nrf52832_xxAA.a(flash_manager.c.obj) (packet_buffer_init)
mesh/core/libmesh_core_nrf52832_xxAA.a(flash_manager_defrag.c.obj)
                              mesh/core/libmesh_core_nrf52832_xxAA.a(flash_manager.c.obj) (flash_manager_defrag_init)
mesh/core/libmesh_core_nrf52832_xxAA.a(fifo.c.obj)
                              mesh/core/libmesh_core_nrf52832_xxAA.a(bearer_event.c.obj) (fifo_init)
mesh/core/libmesh_core_nrf52832_xxAA.a(mesh_flash.c.obj)
                              mesh/core/libmesh_core_nrf52832_xxAA.a(flash_manager.c.obj) (mesh_flash_user_callback_set)
mesh/core/libmesh_core_nrf52832_xxAA.a(queue.c.obj)
                              mesh/core/libmesh_core_nrf52832_xxAA.a(bearer_event.c.obj) (queue_init)
mesh/core/libmesh_core_nrf52832_xxAA.a(aes_cmac.c.obj)
                              mesh/core/libmesh_core_nrf52832_xxAA.a(enc.c.obj) (aes_cmac)
mesh/core/libmesh_core_nrf52832_xxAA.a(nrf_mesh_opt.c.obj)
                              mesh/core/libmesh_core_nrf52832_xxAA.a(heartbeat.c.obj) (nrf_mesh_opt_get)
mesh/core/libmesh_core_nrf52832_xxAA.a(msqueue.c.obj)
                              mesh/core/libmesh_core_nrf52832_xxAA.a(mesh_flash.c.obj) (msq_get)
mesh/core/libmesh_core_nrf52832_xxAA.a(replay_cache.c.obj)
                              mesh/core/libmesh_core_nrf52832_xxAA.a(transport.c.obj) (replay_cache_add)
mesh/core/libmesh_core_nrf52832_xxAA.a(nrf_flash.c.obj)
                              mesh/core/libmesh_core_nrf52832_xxAA.a(mesh_flash.c.obj) (nrf_flash_erase)
external/rtt/librtt_nrf52832_xxAA.a(SEGGER_RTT.c.obj)
                              mesh/core/libmesh_core_nrf52832_xxAA.a(log.c.obj) (SEGGER_RTT_Write)
external/rtt/librtt_nrf52832_xxAA.a(SEGGER_RTT_printf.c.obj)
                              mesh/core/libmesh_core_nrf52832_xxAA.a(log.c.obj) (SEGGER_RTT_vprintf)
external/micro-ecc/libuECC_nrf52832_xxAA.a(uECC.c.obj)
                              examples/light_switch/client/CMakeFiles/light_switch_client_nrf52832_xxAA_s132_3.1.0.dir/__/__/__/mesh/prov/src/prov_utils.c.obj (uECC_secp256r1)
c:/a/gcc_arm/6/bin/../lib/gcc/arm-none-eabi/6.3.1/thumb/v7e-m/fpv4-sp/hard\libgcc.a(_aeabi_uldivmod.o)
                              examples/light_switch/client/CMakeFiles/light_switch_client_nrf52832_xxAA_s132_3.1.0.dir/__/__/common/src/rtt_input.c.obj (__aeabi_uldivmod)
c:/a/gcc_arm/6/bin/../lib/gcc/arm-none-eabi/6.3.1/thumb/v7e-m/fpv4-sp/hard\libgcc.a(_udivmoddi4.o)
                              c:/a/gcc_arm/6/bin/../lib/gcc/arm-none-eabi/6.3.1/thumb/v7e-m/fpv4-sp/hard\libgcc.a(_aeabi_uldivmod.o) (__udivmoddi4)
c:/a/gcc_arm/6/bin/../lib/gcc/arm-none-eabi/6.3.1/thumb/v7e-m/fpv4-sp/hard\libgcc.a(_dvmd_tls.o)
                              c:/a/gcc_arm/6/bin/../lib/gcc/arm-none-eabi/6.3.1/thumb/v7e-m/fpv4-sp/hard\libgcc.a(_aeabi_uldivmod.o) (__aeabi_ldiv0)
c:/a/gcc_arm/6/bin/../lib/gcc/arm-none-eabi/6.3.1/../../../../arm-none-eabi/lib/thumb/v7e-m/fpv4-sp/hard\libg_nano.a(lib_a-exit.o)
                              c:/a/gcc_arm/6/bin/../lib/gcc/arm-none-eabi/6.3.1/../../../../arm-none-eabi/lib/thumb/v7e-m/fpv4-sp/hard/crt0.o (exit)
c:/a/gcc_arm/6/bin/../lib/gcc/arm-none-eabi/6.3.1/../../../../arm-none-eabi/lib/thumb/v7e-m/fpv4-sp/hard\libg_nano.a(lib_a-impure.o)
                              c:/a/gcc_arm/6/bin/../lib/gcc/arm-none-eabi/6.3.1/../../../../arm-none-eabi/lib/thumb/v7e-m/fpv4-sp/hard\libg_nano.a(lib_a-exit.o) (_global_impure_ptr)
c:/a/gcc_arm/6/bin/../lib/gcc/arm-none-eabi/6.3.1/../../../../arm-none-eabi/lib/thumb/v7e-m/fpv4-sp/hard\libg_nano.a(lib_a-init.o)
                              c:/a/gcc_arm/6/bin/../lib/gcc/arm-none-eabi/6.3.1/../../../../arm-none-eabi/lib/thumb/v7e-m/fpv4-sp/hard/crt0.o (__libc_init_array)
c:/a/gcc_arm/6/bin/../lib/gcc/arm-none-eabi/6.3.1/../../../../arm-none-eabi/lib/thumb/v7e-m/fpv4-sp/hard\libg_nano.a(lib_a-malloc.o)
                              mesh/core/libmesh_core_nrf52832_xxAA.a(transport.c.obj) (malloc)
c:/a/gcc_arm/6/bin/../lib/gcc/arm-none-eabi/6.3.1/../../../../arm-none-eabi/lib/thumb/v7e-m/fpv4-sp/hard\libg_nano.a(lib_a-memcmp.o)
                              examples/light_switch/client/CMakeFiles/light_switch_client_nrf52832_xxAA_s132_3.1.0.dir/__/__/__/mesh/access/src/device_state_manager.c.obj (memcmp)
c:/a/gcc_arm/6/bin/../lib/gcc/arm-none-eabi/6.3.1/../../../../arm-none-eabi/lib/thumb/v7e-m/fpv4-sp/hard\libg_nano.a(lib_a-memcpy-stub.o)
                              examples/light_switch/client/CMakeFiles/light_switch_client_nrf52832_xxAA_s132_3.1.0.dir/__/__/__/models/config/src/config_client.c.obj (memcpy)
c:/a/gcc_arm/6/bin/../lib/gcc/arm-none-eabi/6.3.1/../../../../arm-none-eabi/lib/thumb/v7e-m/fpv4-sp/hard\libg_nano.a(lib_a-memset.o)
                              c:/a/gcc_arm/6/bin/../lib/gcc/arm-none-eabi/6.3.1/../../../../arm-none-eabi/lib/thumb/v7e-m/fpv4-sp/hard/crt0.o (memset)
c:/a/gcc_arm/6/bin/../lib/gcc/arm-none-eabi/6.3.1/../../../../arm-none-eabi/lib/thumb/v7e-m/fpv4-sp/hard\libg_nano.a(lib_a-nano-freer.o)
                              c:/a/gcc_arm/6/bin/../lib/gcc/arm-none-eabi/6.3.1/../../../../arm-none-eabi/lib/thumb/v7e-m/fpv4-sp/hard\libg_nano.a(lib_a-malloc.o) (_free_r)
c:/a/gcc_arm/6/bin/../lib/gcc/arm-none-eabi/6.3.1/../../../../arm-none-eabi/lib/thumb/v7e-m/fpv4-sp/hard\libg_nano.a(lib_a-nano-mallocr.o)
                              c:/a/gcc_arm/6/bin/../lib/gcc/arm-none-eabi/6.3.1/../../../../arm-none-eabi/lib/thumb/v7e-m/fpv4-sp/hard\libg_nano.a(lib_a-malloc.o) (_malloc_r)
c:/a/gcc_arm/6/bin/../lib/gcc/arm-none-eabi/6.3.1/../../../../arm-none-eabi/lib/thumb/v7e-m/fpv4-sp/hard\libg_nano.a(lib_a-sbrkr.o)
                              c:/a/gcc_arm/6/bin/../lib/gcc/arm-none-eabi/6.3.1/../../../../arm-none-eabi/lib/thumb/v7e-m/fpv4-sp/hard\libg_nano.a(lib_a-nano-mallocr.o) (_sbrk_r)
c:/a/gcc_arm/6/bin/../lib/gcc/arm-none-eabi/6.3.1/../../../../arm-none-eabi/lib/thumb/v7e-m/fpv4-sp/hard\libg_nano.a(lib_a-strcpy.o)
                              external/rtt/librtt_nrf52832_xxAA.a(SEGGER_RTT.c.obj) (strcpy)
c:/a/gcc_arm/6/bin/../lib/gcc/arm-none-eabi/6.3.1/../../../../arm-none-eabi/lib/thumb/v7e-m/fpv4-sp/hard\libg_nano.a(lib_a-strlen.o)
                              examples/light_switch/client/CMakeFiles/light_switch_client_nrf52832_xxAA_s132_3.1.0.dir/__/__/__/mesh/prov/src/prov_beacon.c.obj (strlen)
c:/a/gcc_arm/6/bin/../lib/gcc/arm-none-eabi/6.3.1/../../../../arm-none-eabi/lib/thumb/v7e-m/fpv4-sp/hard\libg_nano.a(lib_a-strrchr.o)
                              examples/light_switch/client/CMakeFiles/light_switch_client_nrf52832_xxAA_s132_3.1.0.dir/src/main.c.obj (strrchr)
c:/a/gcc_arm/6/bin/../lib/gcc/arm-none-eabi/6.3.1/../../../../arm-none-eabi/lib/thumb/v7e-m/fpv4-sp/hard\libg_nano.a(lib_a-mlock.o)
                              c:/a/gcc_arm/6/bin/../lib/gcc/arm-none-eabi/6.3.1/../../../../arm-none-eabi/lib/thumb/v7e-m/fpv4-sp/hard\libg_nano.a(lib_a-nano-freer.o) (__malloc_lock)
c:/a/gcc_arm/6/bin/../lib/gcc/arm-none-eabi/6.3.1/../../../../arm-none-eabi/lib/thumb/v7e-m/fpv4-sp/hard\libg_nano.a(lib_a-reent.o)
                              c:/a/gcc_arm/6/bin/../lib/gcc/arm-none-eabi/6.3.1/../../../../arm-none-eabi/lib/thumb/v7e-m/fpv4-sp/hard\libg_nano.a(lib_a-sbrkr.o) (errno)
c:/a/gcc_arm/6/bin/../lib/gcc/arm-none-eabi/6.3.1/../../../../arm-none-eabi/lib/thumb/v7e-m/fpv4-sp/hard\libg_nano.a(lib_a-strchr.o)
                              c:/a/gcc_arm/6/bin/../lib/gcc/arm-none-eabi/6.3.1/../../../../arm-none-eabi/lib/thumb/v7e-m/fpv4-sp/hard\libg_nano.a(lib_a-strrchr.o) (strchr)
c:/a/gcc_arm/6/bin/../lib/gcc/arm-none-eabi/6.3.1/../../../../arm-none-eabi/lib/thumb/v7e-m/fpv4-sp/hard\libnosys.a(sbrk.o)
                              c:/a/gcc_arm/6/bin/../lib/gcc/arm-none-eabi/6.3.1/../../../../arm-none-eabi/lib/thumb/v7e-m/fpv4-sp/hard\libg_nano.a(lib_a-sbrkr.o) (_sbrk)
c:/a/gcc_arm/6/bin/../lib/gcc/arm-none-eabi/6.3.1/../../../../arm-none-eabi/lib/thumb/v7e-m/fpv4-sp/hard\libnosys.a(_exit.o)
                              c:/a/gcc_arm/6/bin/../lib/gcc/arm-none-eabi/6.3.1/../../../../arm-none-eabi/lib/thumb/v7e-m/fpv4-sp/hard\libg_nano.a(lib_a-exit.o) (_exit)

Allocating common symbols
Common symbol       size              file

nrf_nvic_state      0xc               examples/light_switch/client/CMakeFiles/light_switch_client_nrf52832_xxAA_s132_3.1.0.dir/__/__/nrf_mesh_sdk.c.obj
errno               0x4               c:/a/gcc_arm/6/bin/../lib/gcc/arm-none-eabi/6.3.1/../../../../arm-none-eabi/lib/thumb/v7e-m/fpv4-sp/hard\libg_nano.a(lib_a-reent.o)
m_assertion_handler
                    0x4               mesh/core/libmesh_core_nrf52832_xxAA.a(nrf_mesh.c.obj)
_SEGGER_RTT         0x78              external/rtt/librtt_nrf52832_xxAA.a(SEGGER_RTT.c.obj)

Discarded input sections

 .text          0x00000000        0x0 c:/a/gcc_arm/6/bin/../lib/gcc/arm-none-eabi/6.3.1/thumb/v7e-m/fpv4-sp/hard/crti.o
 .data          0x00000000        0x0 c:/a/gcc_arm/6/bin/../lib/gcc/arm-none-eabi/6.3.1/thumb/v7e-m/fpv4-sp/hard/crti.o
 .bss           0x00000000        0x0 c:/a/gcc_arm/6/bin/../lib/gcc/arm-none-eabi/6.3.1/thumb/v7e-m/fpv4-sp/hard/crti.o
 .data          0x00000000        0x4 c:/a/gcc_arm/6/bin/../lib/gcc/arm-none-eabi/6.3.1/thumb/v7e-m/fpv4-sp/hard/crtbegin.o
 .data          0x00000000        0x0 c:/a/gcc_arm/6/bin/../lib/gcc/arm-none-eabi/6.3.1/../../../../arm-none-eabi/lib/thumb/v7e-m/fpv4-sp/hard/crt0.o
 .bss           0x00000000        0x0 c:/a/gcc_arm/6/bin/../lib/gcc/arm-none-eabi/6.3.1/../../../../arm-none-eabi/lib/thumb/v7e-m/fpv4-sp/hard/crt0.o
 .ARM.extab     0x00000000        0x0 c:/a/gcc_arm/6/bin/../lib/gcc/arm-none-eabi/6.3.1/../../../../arm-none-eabi/lib/thumb/v7e-m/fpv4-sp/hard/crt0.o
 .text          0x00000000        0x0 examples/light_switch/client/CMakeFiles/light_switch_client_nrf52832_xxAA_s132_3.1.0.dir/src/main.c.obj
 .data          0x00000000        0x0 examples/light_switch/client/CMakeFiles/light_switch_client_nrf52832_xxAA_s132_3.1.0.dir/src/main.c.obj
 .bss           0x00000000        0x0 examples/light_switch/client/CMakeFiles/light_switch_client_nrf52832_xxAA_s132_3.1.0.dir/src/main.c.obj
 .text          0x00000000        0x0 examples/light_switch/client/CMakeFiles/light_switch_client_nrf52832_xxAA_s132_3.1.0.dir/src/provisioner.c.obj
 .data          0x00000000        0x0 examples/light_switch/client/CMakeFiles/light_switch_client_nrf52832_xxAA_s132_3.1.0.dir/src/provisioner.c.obj
 .bss           0x00000000        0x0 examples/light_switch/client/CMakeFiles/light_switch_client_nrf52832_xxAA_s132_3.1.0.dir/src/provisioner.c.obj
 .text          0x00000000        0x0 examples/light_switch/client/CMakeFiles/light_switch_client_nrf52832_xxAA_s132_3.1.0.dir/__/__/nrf_mesh_sdk.c.obj
 .data          0x00000000        0x0 examples/light_switch/client/CMakeFiles/light_switch_client_nrf52832_xxAA_s132_3.1.0.dir/__/__/nrf_mesh_sdk.c.obj
 .bss           0x00000000        0x0 examples/light_switch/client/CMakeFiles/light_switch_client_nrf52832_xxAA_s132_3.1.0.dir/__/__/nrf_mesh_sdk.c.obj
 .text          0x00000000        0x0 examples/light_switch/client/CMakeFiles/light_switch_client_nrf52832_xxAA_s132_3.1.0.dir/__/__/common/src/rtt_input.c.obj
 .data          0x00000000        0x0 examples/light_switch/client/CMakeFiles/light_switch_client_nrf52832_xxAA_s132_3.1.0.dir/__/__/common/src/rtt_input.c.obj
 .bss           0x00000000        0x0 examples/light_switch/client/CMakeFiles/light_switch_client_nrf52832_xxAA_s132_3.1.0.dir/__/__/common/src/rtt_input.c.obj
 .text.rtt_input_disable
                0x00000000       0x24 examples/light_switch/client/CMakeFiles/light_switch_client_nrf52832_xxAA_s132_3.1.0.dir/__/__/common/src/rtt_input.c.obj
 .text          0x00000000        0x0 examples/light_switch/client/CMakeFiles/light_switch_client_nrf52832_xxAA_s132_3.1.0.dir/__/__/common/src/simple_hal.c.obj
 .data          0x00000000        0x0 examples/light_switch/client/CMakeFiles/light_switch_client_nrf52832_xxAA_s132_3.1.0.dir/__/__/common/src/simple_hal.c.obj
 .bss           0x00000000        0x0 examples/light_switch/client/CMakeFiles/light_switch_client_nrf52832_xxAA_s132_3.1.0.dir/__/__/common/src/simple_hal.c.obj
 .text.hal_led_mask_set
                0x00000000       0x12 examples/light_switch/client/CMakeFiles/light_switch_client_nrf52832_xxAA_s132_3.1.0.dir/__/__/common/src/simple_hal.c.obj
 .text          0x00000000        0x0 examples/light_switch/client/CMakeFiles/light_switch_client_nrf52832_xxAA_s132_3.1.0.dir/__/__/nrf_mesh_weak.c.obj
 .data          0x00000000        0x0 examples/light_switch/client/CMakeFiles/light_switch_client_nrf52832_xxAA_s132_3.1.0.dir/__/__/nrf_mesh_weak.c.obj
 .bss           0x00000000        0x0 examples/light_switch/client/CMakeFiles/light_switch_client_nrf52832_xxAA_s132_3.1.0.dir/__/__/nrf_mesh_weak.c.obj
 .text._weak_handler_ptr
                0x00000000        0x4 examples/light_switch/client/CMakeFiles/light_switch_client_nrf52832_xxAA_s132_3.1.0.dir/__/__/nrf_mesh_weak.c.obj
 .text          0x00000000        0x0 examples/light_switch/client/CMakeFiles/light_switch_client_nrf52832_xxAA_s132_3.1.0.dir/__/__/__/models/simple_on_off/src/simple_on_off_client.c.obj
 .data          0x00000000        0x0 examples/light_switch/client/CMakeFiles/light_switch_client_nrf52832_xxAA_s132_3.1.0.dir/__/__/__/models/simple_on_off/src/simple_on_off_client.c.obj
 .bss           0x00000000        0x0 examples/light_switch/client/CMakeFiles/light_switch_client_nrf52832_xxAA_s132_3.1.0.dir/__/__/__/models/simple_on_off/src/simple_on_off_client.c.obj
 .text.simple_on_off_client_get
                0x00000000       0x5c examples/light_switch/client/CMakeFiles/light_switch_client_nrf52832_xxAA_s132_3.1.0.dir/__/__/__/models/simple_on_off/src/simple_on_off_client.c.obj
 .text          0x00000000        0x0 examples/light_switch/client/CMakeFiles/light_switch_client_nrf52832_xxAA_s132_3.1.0.dir/__/__/__/models/config/src/config_client.c.obj
 .data          0x00000000        0x0 examples/light_switch/client/CMakeFiles/light_switch_client_nrf52832_xxAA_s132_3.1.0.dir/__/__/__/models/config/src/config_client.c.obj
 .bss           0x00000000        0x0 examples/light_switch/client/CMakeFiles/light_switch_client_nrf52832_xxAA_s132_3.1.0.dir/__/__/__/models/config/src/config_client.c.obj
 .text.config_client_appkey_delete
                0x00000000       0x6c examples/light_switch/client/CMakeFiles/light_switch_client_nrf52832_xxAA_s132_3.1.0.dir/__/__/__/models/config/src/config_client.c.obj
 .text.config_client_appkey_get
                0x00000000       0x5c examples/light_switch/client/CMakeFiles/light_switch_client_nrf52832_xxAA_s132_3.1.0.dir/__/__/__/models/config/src/config_client.c.obj
 .text.config_client_appkey_update
                0x00000000       0x74 examples/light_switch/client/CMakeFiles/light_switch_client_nrf52832_xxAA_s132_3.1.0.dir/__/__/__/models/config/src/config_client.c.obj
 .text.config_client_model_publication_get
                0x00000000       0x70 examples/light_switch/client/CMakeFiles/light_switch_client_nrf52832_xxAA_s132_3.1.0.dir/__/__/__/models/config/src/config_client.c.obj
 .text.config_client_net_beacon_get
                0x00000000       0x28 examples/light_switch/client/CMakeFiles/light_switch_client_nrf52832_xxAA_s132_3.1.0.dir/__/__/__/models/config/src/config_client.c.obj
 .text.config_client_net_beacon_set
                0x00000000       0x58 examples/light_switch/client/CMakeFiles/light_switch_client_nrf52832_xxAA_s132_3.1.0.dir/__/__/__/models/config/src/config_client.c.obj
 .text.config_client_default_ttl_get
                0x00000000        0xe examples/light_switch/client/CMakeFiles/light_switch_client_nrf52832_xxAA_s132_3.1.0.dir/__/__/__/models/config/src/config_client.c.obj
 .text.config_client_default_ttl_set
                0x00000000       0x60 examples/light_switch/client/CMakeFiles/light_switch_client_nrf52832_xxAA_s132_3.1.0.dir/__/__/__/models/config/src/config_client.c.obj
 .text.config_client_model_subscription_delete
                0x00000000       0x4c examples/light_switch/client/CMakeFiles/light_switch_client_nrf52832_xxAA_s132_3.1.0.dir/__/__/__/models/config/src/config_client.c.obj
 .text.config_client_model_subscription_delete_all
                0x00000000       0x70 examples/light_switch/client/CMakeFiles/light_switch_client_nrf52832_xxAA_s132_3.1.0.dir/__/__/__/models/config/src/config_client.c.obj
 .text.config_client_model_subscription_get
                0x00000000       0x7c examples/light_switch/client/CMakeFiles/light_switch_client_nrf52832_xxAA_s132_3.1.0.dir/__/__/__/models/config/src/config_client.c.obj
 .text.config_client_model_subscription_overwrite
                0x00000000       0x4c examples/light_switch/client/CMakeFiles/light_switch_client_nrf52832_xxAA_s132_3.1.0.dir/__/__/__/models/config/src/config_client.c.obj
 .text.config_client_relay_get
                0x00000000        0xe examples/light_switch/client/CMakeFiles/light_switch_client_nrf52832_xxAA_s132_3.1.0.dir/__/__/__/models/config/src/config_client.c.obj
 .text.config_client_relay_set
                0x00000000       0x74 examples/light_switch/client/CMakeFiles/light_switch_client_nrf52832_xxAA_s132_3.1.0.dir/__/__/__/models/config/src/config_client.c.obj
 .text.config_client_model_app_get
                0x00000000       0x7c examples/light_switch/client/CMakeFiles/light_switch_client_nrf52832_xxAA_s132_3.1.0.dir/__/__/__/models/config/src/config_client.c.obj
 .text.config_client_model_app_unbind
                0x00000000        0xe examples/light_switch/client/CMakeFiles/light_switch_client_nrf52832_xxAA_s132_3.1.0.dir/__/__/__/models/config/src/config_client.c.obj
 .text.config_client_netkey_add
                0x00000000       0x68 examples/light_switch/client/CMakeFiles/light_switch_client_nrf52832_xxAA_s132_3.1.0.dir/__/__/__/models/config/src/config_client.c.obj
 .text.config_client_netkey_delete
                0x00000000       0x5c examples/light_switch/client/CMakeFiles/light_switch_client_nrf52832_xxAA_s132_3.1.0.dir/__/__/__/models/config/src/config_client.c.obj
 .text.config_client_netkey_get
                0x00000000       0x28 examples/light_switch/client/CMakeFiles/light_switch_client_nrf52832_xxAA_s132_3.1.0.dir/__/__/__/models/config/src/config_client.c.obj
 .text.config_client_netkey_update
                0x00000000       0x68 examples/light_switch/client/CMakeFiles/light_switch_client_nrf52832_xxAA_s132_3.1.0.dir/__/__/__/models/config/src/config_client.c.obj
 .text.config_client_node_reset
                0x00000000       0x28 examples/light_switch/client/CMakeFiles/light_switch_client_nrf52832_xxAA_s132_3.1.0.dir/__/__/__/models/config/src/config_client.c.obj
 .text.config_client_key_refresh_phase_get
                0x00000000       0x5c examples/light_switch/client/CMakeFiles/light_switch_client_nrf52832_xxAA_s132_3.1.0.dir/__/__/__/models/config/src/config_client.c.obj
 .text.config_client_key_refresh_phase_set
                0x00000000       0x60 examples/light_switch/client/CMakeFiles/light_switch_client_nrf52832_xxAA_s132_3.1.0.dir/__/__/__/models/config/src/config_client.c.obj
 .text.config_client_friend_get
                0x00000000        0x4 examples/light_switch/client/CMakeFiles/light_switch_client_nrf52832_xxAA_s132_3.1.0.dir/__/__/__/models/config/src/config_client.c.obj
 .text.config_client_friend_set
                0x00000000        0x4 examples/light_switch/client/CMakeFiles/light_switch_client_nrf52832_xxAA_s132_3.1.0.dir/__/__/__/models/config/src/config_client.c.obj
 .text.config_client_gatt_proxy_get
                0x00000000        0x4 examples/light_switch/client/CMakeFiles/light_switch_client_nrf52832_xxAA_s132_3.1.0.dir/__/__/__/models/config/src/config_client.c.obj
 .text.config_client_gatt_proxy_set
                0x00000000        0x4 examples/light_switch/client/CMakeFiles/light_switch_client_nrf52832_xxAA_s132_3.1.0.dir/__/__/__/models/config/src/config_client.c.obj
 .text.config_client_node_identity_get
                0x00000000        0x4 examples/light_switch/client/CMakeFiles/light_switch_client_nrf52832_xxAA_s132_3.1.0.dir/__/__/__/models/config/src/config_client.c.obj
 .text.config_client_node_identity_set
                0x00000000        0x4 examples/light_switch/client/CMakeFiles/light_switch_client_nrf52832_xxAA_s132_3.1.0.dir/__/__/__/models/config/src/config_client.c.obj
 .text.config_client_heartbeat_publication_get
                0x00000000       0x26 examples/light_switch/client/CMakeFiles/light_switch_client_nrf52832_xxAA_s132_3.1.0.dir/__/__/__/models/config/src/config_client.c.obj
 .text.config_client_heartbeat_publication_set
                0x00000000       0x60 examples/light_switch/client/CMakeFiles/light_switch_client_nrf52832_xxAA_s132_3.1.0.dir/__/__/__/models/config/src/config_client.c.obj
 .text.config_client_heartbeat_subscription_get
                0x00000000       0x28 examples/light_switch/client/CMakeFiles/light_switch_client_nrf52832_xxAA_s132_3.1.0.dir/__/__/__/models/config/src/config_client.c.obj
 .text.config_client_heartbeat_subscription_set
                0x00000000       0x5c examples/light_switch/client/CMakeFiles/light_switch_client_nrf52832_xxAA_s132_3.1.0.dir/__/__/__/models/config/src/config_client.c.obj
 .text          0x00000000        0x0 examples/light_switch/client/CMakeFiles/light_switch_client_nrf52832_xxAA_s132_3.1.0.dir/__/__/__/models/health/src/health_client.c.obj
 .data          0x00000000        0x0 examples/light_switch/client/CMakeFiles/light_switch_client_nrf52832_xxAA_s132_3.1.0.dir/__/__/__/models/health/src/health_client.c.obj
 .bss           0x00000000        0x0 examples/light_switch/client/CMakeFiles/light_switch_client_nrf52832_xxAA_s132_3.1.0.dir/__/__/__/models/health/src/health_client.c.obj
 .text.reliable_status_cb
                0x00000000       0x2e examples/light_switch/client/CMakeFiles/light_switch_client_nrf52832_xxAA_s132_3.1.0.dir/__/__/__/models/health/src/health_client.c.obj
 .text.reliable_send
                0x00000000       0xc4 examples/light_switch/client/CMakeFiles/light_switch_client_nrf52832_xxAA_s132_3.1.0.dir/__/__/__/models/health/src/health_client.c.obj
 .text.health_client_fault_get
                0x00000000       0x1c examples/light_switch/client/CMakeFiles/light_switch_client_nrf52832_xxAA_s132_3.1.0.dir/__/__/__/models/health/src/health_client.c.obj
 .text.health_client_fault_clear
                0x00000000       0x50 examples/light_switch/client/CMakeFiles/light_switch_client_nrf52832_xxAA_s132_3.1.0.dir/__/__/__/models/health/src/health_client.c.obj
 .text.health_client_fault_test
                0x00000000       0x54 examples/light_switch/client/CMakeFiles/light_switch_client_nrf52832_xxAA_s132_3.1.0.dir/__/__/__/models/health/src/health_client.c.obj
 .text.health_client_period_get
                0x00000000       0x18 examples/light_switch/client/CMakeFiles/light_switch_client_nrf52832_xxAA_s132_3.1.0.dir/__/__/__/models/health/src/health_client.c.obj
 .text.health_client_period_set
                0x00000000       0x52 examples/light_switch/client/CMakeFiles/light_switch_client_nrf52832_xxAA_s132_3.1.0.dir/__/__/__/models/health/src/health_client.c.obj
 .text.health_client_attention_get
                0x00000000       0x18 examples/light_switch/client/CMakeFiles/light_switch_client_nrf52832_xxAA_s132_3.1.0.dir/__/__/__/models/health/src/health_client.c.obj
 .text.health_client_attention_set
                0x00000000       0x52 examples/light_switch/client/CMakeFiles/light_switch_client_nrf52832_xxAA_s132_3.1.0.dir/__/__/__/models/health/src/health_client.c.obj
 .text          0x00000000        0x0 examples/light_switch/client/CMakeFiles/light_switch_client_nrf52832_xxAA_s132_3.1.0.dir/__/__/__/mesh/access/src/access_publish.c.obj
 .data          0x00000000        0x0 examples/light_switch/client/CMakeFiles/light_switch_client_nrf52832_xxAA_s132_3.1.0.dir/__/__/__/mesh/access/src/access_publish.c.obj
 .bss           0x00000000        0x0 examples/light_switch/client/CMakeFiles/light_switch_client_nrf52832_xxAA_s132_3.1.0.dir/__/__/__/mesh/access/src/access_publish.c.obj
 .text.access_publish_period_set
                0x00000000       0x6c examples/light_switch/client/CMakeFiles/light_switch_client_nrf52832_xxAA_s132_3.1.0.dir/__/__/__/mesh/access/src/access_publish.c.obj
 .text.access_publish_period_get
                0x00000000       0x30 examples/light_switch/client/CMakeFiles/light_switch_client_nrf52832_xxAA_s132_3.1.0.dir/__/__/__/mesh/access/src/access_publish.c.obj
 .text          0x00000000        0x0 examples/light_switch/client/CMakeFiles/light_switch_client_nrf52832_xxAA_s132_3.1.0.dir/__/__/__/mesh/access/src/access.c.obj
 .data          0x00000000        0x0 examples/light_switch/client/CMakeFiles/light_switch_client_nrf52832_xxAA_s132_3.1.0.dir/__/__/__/mesh/access/src/access.c.obj
 .bss           0x00000000        0x0 examples/light_switch/client/CMakeFiles/light_switch_client_nrf52832_xxAA_s132_3.1.0.dir/__/__/__/mesh/access/src/access.c.obj
 .text.access_clear
                0x00000000       0x12 examples/light_switch/client/CMakeFiles/light_switch_client_nrf52832_xxAA_s132_3.1.0.dir/__/__/__/mesh/access/src/access.c.obj
 .text.access_model_reply
                0x00000000       0x12 examples/light_switch/client/CMakeFiles/light_switch_client_nrf52832_xxAA_s132_3.1.0.dir/__/__/__/mesh/access/src/access.c.obj
 .text.access_model_publish_period_set
                0x00000000       0x6c examples/light_switch/client/CMakeFiles/light_switch_client_nrf52832_xxAA_s132_3.1.0.dir/__/__/__/mesh/access/src/access.c.obj
 .text.access_model_publish_period_get
                0x00000000       0x3c examples/light_switch/client/CMakeFiles/light_switch_client_nrf52832_xxAA_s132_3.1.0.dir/__/__/__/mesh/access/src/access.c.obj
 .text.access_model_subscription_lists_share
                0x00000000       0x4c examples/light_switch/client/CMakeFiles/light_switch_client_nrf52832_xxAA_s132_3.1.0.dir/__/__/__/mesh/access/src/access.c.obj
 .text.access_model_subscription_add
                0x00000000       0x60 examples/light_switch/client/CMakeFiles/light_switch_client_nrf52832_xxAA_s132_3.1.0.dir/__/__/__/mesh/access/src/access.c.obj
 .text.access_model_subscription_remove
                0x00000000       0x60 examples/light_switch/client/CMakeFiles/light_switch_client_nrf52832_xxAA_s132_3.1.0.dir/__/__/__/mesh/access/src/access.c.obj
 .text.access_model_subscriptions_get
                0x00000000       0x7c examples/light_switch/client/CMakeFiles/light_switch_client_nrf52832_xxAA_s132_3.1.0.dir/__/__/__/mesh/access/src/access.c.obj
 .text.access_model_application_unbind
                0x00000000       0x50 examples/light_switch/client/CMakeFiles/light_switch_client_nrf52832_xxAA_s132_3.1.0.dir/__/__/__/mesh/access/src/access.c.obj
 .text.access_model_applications_get
                0x00000000       0x58 examples/light_switch/client/CMakeFiles/light_switch_client_nrf52832_xxAA_s132_3.1.0.dir/__/__/__/mesh/access/src/access.c.obj
 .text.access_model_publish_application_get
                0x00000000       0x28 examples/light_switch/client/CMakeFiles/light_switch_client_nrf52832_xxAA_s132_3.1.0.dir/__/__/__/mesh/access/src/access.c.obj
 .text.access_default_ttl_set
                0x00000000       0x10 examples/light_switch/client/CMakeFiles/light_switch_client_nrf52832_xxAA_s132_3.1.0.dir/__/__/__/mesh/access/src/access.c.obj
 .text.access_default_ttl_get
                0x00000000        0xc examples/light_switch/client/CMakeFiles/light_switch_client_nrf52832_xxAA_s132_3.1.0.dir/__/__/__/mesh/access/src/access.c.obj
 .text.access_model_publish_ttl_set
                0x00000000       0x40 examples/light_switch/client/CMakeFiles/light_switch_client_nrf52832_xxAA_s132_3.1.0.dir/__/__/__/mesh/access/src/access.c.obj
 .text.access_element_location_set
                0x00000000       0x2c examples/light_switch/client/CMakeFiles/light_switch_client_nrf52832_xxAA_s132_3.1.0.dir/__/__/__/mesh/access/src/access.c.obj
 .text.access_element_location_get
                0x00000000       0x20 examples/light_switch/client/CMakeFiles/light_switch_client_nrf52832_xxAA_s132_3.1.0.dir/__/__/__/mesh/access/src/access.c.obj
 .text.access_element_sig_model_count_get
                0x00000000       0x24 examples/light_switch/client/CMakeFiles/light_switch_client_nrf52832_xxAA_s132_3.1.0.dir/__/__/__/mesh/access/src/access.c.obj
 .text.access_element_vendor_model_count_get
                0x00000000       0x24 examples/light_switch/client/CMakeFiles/light_switch_client_nrf52832_xxAA_s132_3.1.0.dir/__/__/__/mesh/access/src/access.c.obj
 .text.access_model_id_get
                0x00000000       0x2c examples/light_switch/client/CMakeFiles/light_switch_client_nrf52832_xxAA_s132_3.1.0.dir/__/__/__/mesh/access/src/access.c.obj
 .text.access_handle_get
                0x00000000       0x50 examples/light_switch/client/CMakeFiles/light_switch_client_nrf52832_xxAA_s132_3.1.0.dir/__/__/__/mesh/access/src/access.c.obj
 .text.access_element_models_get
                0x00000000       0x50 examples/light_switch/client/CMakeFiles/light_switch_client_nrf52832_xxAA_s132_3.1.0.dir/__/__/__/mesh/access/src/access.c.obj
 .text          0x00000000        0x0 examples/light_switch/client/CMakeFiles/light_switch_client_nrf52832_xxAA_s132_3.1.0.dir/__/__/__/mesh/access/src/access_reliable.c.obj
 .data          0x00000000        0x0 examples/light_switch/client/CMakeFiles/light_switch_client_nrf52832_xxAA_s132_3.1.0.dir/__/__/__/mesh/access/src/access_reliable.c.obj
 .bss           0x00000000        0x0 examples/light_switch/client/CMakeFiles/light_switch_client_nrf52832_xxAA_s132_3.1.0.dir/__/__/__/mesh/access/src/access_reliable.c.obj
 .text.access_reliable_cancel_all
                0x00000000       0x34 examples/light_switch/client/CMakeFiles/light_switch_client_nrf52832_xxAA_s132_3.1.0.dir/__/__/__/mesh/access/src/access_reliable.c.obj
 .text.access_model_reliable_cancel
                0x00000000       0x44 examples/light_switch/client/CMakeFiles/light_switch_client_nrf52832_xxAA_s132_3.1.0.dir/__/__/__/mesh/access/src/access_reliable.c.obj
 .text          0x00000000        0x0 examples/light_switch/client/CMakeFiles/light_switch_client_nrf52832_xxAA_s132_3.1.0.dir/__/__/__/mesh/access/src/device_state_manager.c.obj
 .data          0x00000000        0x0 examples/light_switch/client/CMakeFiles/light_switch_client_nrf52832_xxAA_s132_3.1.0.dir/__/__/__/mesh/access/src/device_state_manager.c.obj
 .bss           0x00000000        0x0 examples/light_switch/client/CMakeFiles/light_switch_client_nrf52832_xxAA_s132_3.1.0.dir/__/__/__/mesh/access/src/device_state_manager.c.obj
 .text.add_address_virtual
                0x00000000       0x70 examples/light_switch/client/CMakeFiles/light_switch_client_nrf52832_xxAA_s132_3.1.0.dir/__/__/__/mesh/access/src/device_state_manager.c.obj
 .text.dsm_has_unflashed_data
                0x00000000       0x24 examples/light_switch/client/CMakeFiles/light_switch_client_nrf52832_xxAA_s132_3.1.0.dir/__/__/__/mesh/access/src/device_state_manager.c.obj
 .text.dsm_clear
                0x00000000       0x6c examples/light_switch/client/CMakeFiles/light_switch_client_nrf52832_xxAA_s132_3.1.0.dir/__/__/__/mesh/access/src/device_state_manager.c.obj
 .text.dsm_address_publish_virtual_add
                0x00000000        0x6 examples/light_switch/client/CMakeFiles/light_switch_client_nrf52832_xxAA_s132_3.1.0.dir/__/__/__/mesh/access/src/device_state_manager.c.obj
 .text.dsm_address_subscription_add
                0x00000000        0xc examples/light_switch/client/CMakeFiles/light_switch_client_nrf52832_xxAA_s132_3.1.0.dir/__/__/__/mesh/access/src/device_state_manager.c.obj
 .text.dsm_address_subscription_virtual_add
                0x00000000        0x6 examples/light_switch/client/CMakeFiles/light_switch_client_nrf52832_xxAA_s132_3.1.0.dir/__/__/__/mesh/access/src/device_state_manager.c.obj
 .text.dsm_address_subscription_count_get
                0x00000000       0x58 examples/light_switch/client/CMakeFiles/light_switch_client_nrf52832_xxAA_s132_3.1.0.dir/__/__/__/mesh/access/src/device_state_manager.c.obj
 .text.dsm_address_subscription_remove
                0x00000000       0x58 examples/light_switch/client/CMakeFiles/light_switch_client_nrf52832_xxAA_s132_3.1.0.dir/__/__/__/mesh/access/src/device_state_manager.c.obj
 .text.dsm_net_key_index_to_subnet_handle
                0x00000000       0x1c examples/light_switch/client/CMakeFiles/light_switch_client_nrf52832_xxAA_s132_3.1.0.dir/__/__/__/mesh/access/src/device_state_manager.c.obj
 .text.dsm_subnet_handle_get
                0x00000000        0xc examples/light_switch/client/CMakeFiles/light_switch_client_nrf52832_xxAA_s132_3.1.0.dir/__/__/__/mesh/access/src/device_state_manager.c.obj
 .text.dsm_subnet_handle_to_netkey_index
                0x00000000       0x30 examples/light_switch/client/CMakeFiles/light_switch_client_nrf52832_xxAA_s132_3.1.0.dir/__/__/__/mesh/access/src/device_state_manager.c.obj
 .text.dsm_appkey_index_to_appkey_handle
                0x00000000       0x1c examples/light_switch/client/CMakeFiles/light_switch_client_nrf52832_xxAA_s132_3.1.0.dir/__/__/__/mesh/access/src/device_state_manager.c.obj
 .text.dsm_appkey_handle_to_appkey_index
                0x00000000       0x30 examples/light_switch/client/CMakeFiles/light_switch_client_nrf52832_xxAA_s132_3.1.0.dir/__/__/__/mesh/access/src/device_state_manager.c.obj
 .text.dsm_subnet_kr_phase_get
                0x00000000       0x2c examples/light_switch/client/CMakeFiles/light_switch_client_nrf52832_xxAA_s132_3.1.0.dir/__/__/__/mesh/access/src/device_state_manager.c.obj
 .text.dsm_subnet_update
                0x00000000       0xa4 examples/light_switch/client/CMakeFiles/light_switch_client_nrf52832_xxAA_s132_3.1.0.dir/__/__/__/mesh/access/src/device_state_manager.c.obj
 .text.dsm_appkey_update
                0x00000000       0x8c examples/light_switch/client/CMakeFiles/light_switch_client_nrf52832_xxAA_s132_3.1.0.dir/__/__/__/mesh/access/src/device_state_manager.c.obj
 .text.dsm_appkey_delete
                0x00000000       0x2c examples/light_switch/client/CMakeFiles/light_switch_client_nrf52832_xxAA_s132_3.1.0.dir/__/__/__/mesh/access/src/device_state_manager.c.obj
 .text.dsm_subnet_delete
                0x00000000       0x94 examples/light_switch/client/CMakeFiles/light_switch_client_nrf52832_xxAA_s132_3.1.0.dir/__/__/__/mesh/access/src/device_state_manager.c.obj
 .text.dsm_beacon_secmat_get
                0x00000000       0x2c examples/light_switch/client/CMakeFiles/light_switch_client_nrf52832_xxAA_s132_3.1.0.dir/__/__/__/mesh/access/src/device_state_manager.c.obj
 .text.dsm_net_secmat_from_keyindex_get
                0x00000000       0x30 examples/light_switch/client/CMakeFiles/light_switch_client_nrf52832_xxAA_s132_3.1.0.dir/__/__/__/mesh/access/src/device_state_manager.c.obj
 .text.dsm_proxy_identity_get
                0x00000000        0x4 examples/light_switch/client/CMakeFiles/light_switch_client_nrf52832_xxAA_s132_3.1.0.dir/__/__/__/mesh/access/src/device_state_manager.c.obj
 .text          0x00000000        0x0 examples/light_switch/client/CMakeFiles/light_switch_client_nrf52832_xxAA_s132_3.1.0.dir/__/__/__/mesh/prov/src/prov_provisioner.c.obj
 .data          0x00000000        0x0 examples/light_switch/client/CMakeFiles/light_switch_client_nrf52832_xxAA_s132_3.1.0.dir/__/__/__/mesh/prov/src/prov_provisioner.c.obj
 .bss           0x00000000        0x0 examples/light_switch/client/CMakeFiles/light_switch_client_nrf52832_xxAA_s132_3.1.0.dir/__/__/__/mesh/prov/src/prov_provisioner.c.obj
 .text.prov_provisioner_shared_secret
                0x00000000       0x28 examples/light_switch/client/CMakeFiles/light_switch_client_nrf52832_xxAA_s132_3.1.0.dir/__/__/__/mesh/prov/src/prov_provisioner.c.obj
 .text.prov_provisioner_oob_pubkey
                0x00000000       0x30 examples/light_switch/client/CMakeFiles/light_switch_client_nrf52832_xxAA_s132_3.1.0.dir/__/__/__/mesh/prov/src/prov_provisioner.c.obj
 .text          0x00000000        0x0 examples/light_switch/client/CMakeFiles/light_switch_client_nrf52832_xxAA_s132_3.1.0.dir/__/__/__/mesh/prov/src/nrf_mesh_prov.c.obj
 .data          0x00000000        0x0 examples/light_switch/client/CMakeFiles/light_switch_client_nrf52832_xxAA_s132_3.1.0.dir/__/__/__/mesh/prov/src/nrf_mesh_prov.c.obj
 .bss           0x00000000        0x0 examples/light_switch/client/CMakeFiles/light_switch_client_nrf52832_xxAA_s132_3.1.0.dir/__/__/__/mesh/prov/src/nrf_mesh_prov.c.obj
 .text.nrf_mesh_prov_listen
                0x00000000       0x30 examples/light_switch/client/CMakeFiles/light_switch_client_nrf52832_xxAA_s132_3.1.0.dir/__/__/__/mesh/prov/src/nrf_mesh_prov.c.obj
 .text.nrf_mesh_prov_shared_secret_provide
                0x00000000        0xe examples/light_switch/client/CMakeFiles/light_switch_client_nrf52832_xxAA_s132_3.1.0.dir/__/__/__/mesh/prov/src/nrf_mesh_prov.c.obj
 .text.nrf_mesh_prov_pubkey_provide
                0x00000000       0x10 examples/light_switch/client/CMakeFiles/light_switch_client_nrf52832_xxAA_s132_3.1.0.dir/__/__/__/mesh/prov/src/nrf_mesh_prov.c.obj
 .text.nrf_mesh_prov_scan_stop
                0x00000000        0x4 examples/light_switch/client/CMakeFiles/light_switch_client_nrf52832_xxAA_s132_3.1.0.dir/__/__/__/mesh/prov/src/nrf_mesh_prov.c.obj
 .text          0x00000000        0x0 examples/light_switch/client/CMakeFiles/light_switch_client_nrf52832_xxAA_s132_3.1.0.dir/__/__/__/mesh/prov/src/provisioning.c.obj
 .data          0x00000000        0x0 examples/light_switch/client/CMakeFiles/light_switch_client_nrf52832_xxAA_s132_3.1.0.dir/__/__/__/mesh/prov/src/provisioning.c.obj
 .bss           0x00000000        0x0 examples/light_switch/client/CMakeFiles/light_switch_client_nrf52832_xxAA_s132_3.1.0.dir/__/__/__/mesh/prov/src/provisioning.c.obj
 .text.prov_tx_capabilities
                0x00000000       0x1e examples/light_switch/client/CMakeFiles/light_switch_client_nrf52832_xxAA_s132_3.1.0.dir/__/__/__/mesh/prov/src/provisioning.c.obj
 .text.prov_tx_input_complete
                0x00000000       0x16 examples/light_switch/client/CMakeFiles/light_switch_client_nrf52832_xxAA_s132_3.1.0.dir/__/__/__/mesh/prov/src/provisioning.c.obj
 .text.prov_tx_complete
                0x00000000       0x16 examples/light_switch/client/CMakeFiles/light_switch_client_nrf52832_xxAA_s132_3.1.0.dir/__/__/__/mesh/prov/src/provisioning.c.obj
 .text.prov_tx_failed
                0x00000000       0x1a examples/light_switch/client/CMakeFiles/light_switch_client_nrf52832_xxAA_s132_3.1.0.dir/__/__/__/mesh/prov/src/provisioning.c.obj
 .text.prov_tx  0x00000000        0x4 examples/light_switch/client/CMakeFiles/light_switch_client_nrf52832_xxAA_s132_3.1.0.dir/__/__/__/mesh/prov/src/provisioning.c.obj
 .text          0x00000000        0x0 examples/light_switch/client/CMakeFiles/light_switch_client_nrf52832_xxAA_s132_3.1.0.dir/__/__/__/mesh/prov/src/prov_beacon.c.obj
 .data          0x00000000        0x0 examples/light_switch/client/CMakeFiles/light_switch_client_nrf52832_xxAA_s132_3.1.0.dir/__/__/__/mesh/prov/src/prov_beacon.c.obj
 .bss           0x00000000        0x0 examples/light_switch/client/CMakeFiles/light_switch_client_nrf52832_xxAA_s132_3.1.0.dir/__/__/__/mesh/prov/src/prov_beacon.c.obj
 .text.prov_beacon_scan_stop
                0x00000000        0xc examples/light_switch/client/CMakeFiles/light_switch_client_nrf52832_xxAA_s132_3.1.0.dir/__/__/__/mesh/prov/src/prov_beacon.c.obj
 .text          0x00000000        0x0 examples/light_switch/client/CMakeFiles/light_switch_client_nrf52832_xxAA_s132_3.1.0.dir/__/__/__/mesh/prov/src/prov_utils.c.obj
 .data          0x00000000        0x0 examples/light_switch/client/CMakeFiles/light_switch_client_nrf52832_xxAA_s132_3.1.0.dir/__/__/__/mesh/prov/src/prov_utils.c.obj
 .bss           0x00000000        0x0 examples/light_switch/client/CMakeFiles/light_switch_client_nrf52832_xxAA_s132_3.1.0.dir/__/__/__/mesh/prov/src/prov_utils.c.obj
 .text.prov_utils_opt_set
                0x00000000       0x20 examples/light_switch/client/CMakeFiles/light_switch_client_nrf52832_xxAA_s132_3.1.0.dir/__/__/__/mesh/prov/src/prov_utils.c.obj
 .text          0x00000000        0x0 examples/light_switch/client/CMakeFiles/light_switch_client_nrf52832_xxAA_s132_3.1.0.dir/__/__/__/mesh/prov/src/prov_bearer_adv.c.obj
 .data          0x00000000        0x0 examples/light_switch/client/CMakeFiles/light_switch_client_nrf52832_xxAA_s132_3.1.0.dir/__/__/__/mesh/prov/src/prov_bearer_adv.c.obj
 .bss           0x00000000        0x0 examples/light_switch/client/CMakeFiles/light_switch_client_nrf52832_xxAA_s132_3.1.0.dir/__/__/__/mesh/prov/src/prov_bearer_adv.c.obj
 .text          0x00000000        0x0 examples/light_switch/client/CMakeFiles/light_switch_client_nrf52832_xxAA_s132_3.1.0.dir/__/__/__/external/nRF5_SDK_14.2.0_17b948a/components/toolchain/system_nrf52.c.obj
 .data          0x00000000        0x0 examples/light_switch/client/CMakeFiles/light_switch_client_nrf52832_xxAA_s132_3.1.0.dir/__/__/__/external/nRF5_SDK_14.2.0_17b948a/components/toolchain/system_nrf52.c.obj
 .bss           0x00000000        0x0 examples/light_switch/client/CMakeFiles/light_switch_client_nrf52832_xxAA_s132_3.1.0.dir/__/__/__/external/nRF5_SDK_14.2.0_17b948a/components/toolchain/system_nrf52.c.obj
 .text.SystemCoreClockUpdate
                0x00000000       0x10 examples/light_switch/client/CMakeFiles/light_switch_client_nrf52832_xxAA_s132_3.1.0.dir/__/__/__/external/nRF5_SDK_14.2.0_17b948a/components/toolchain/system_nrf52.c.obj
 .data          0x00000000        0x0 examples/light_switch/client/CMakeFiles/light_switch_client_nrf52832_xxAA_s132_3.1.0.dir/__/__/__/external/nRF5_SDK_14.2.0_17b948a/components/toolchain/gcc/gcc_startup_nrf52.S.obj
 .bss           0x00000000        0x0 examples/light_switch/client/CMakeFiles/light_switch_client_nrf52832_xxAA_s132_3.1.0.dir/__/__/__/external/nRF5_SDK_14.2.0_17b948a/components/toolchain/gcc/gcc_startup_nrf52.S.obj
 .text          0x00000000        0x0 mesh/core/libmesh_core_nrf52832_xxAA.a(nrf_mesh_configure.c.obj)
 .data          0x00000000        0x0 mesh/core/libmesh_core_nrf52832_xxAA.a(nrf_mesh_configure.c.obj)
 .bss           0x00000000        0x0 mesh/core/libmesh_core_nrf52832_xxAA.a(nrf_mesh_configure.c.obj)
 .text.nrf_mesh_configure_device_uuid_set
                0x00000000       0x10 mesh/core/libmesh_core_nrf52832_xxAA.a(nrf_mesh_configure.c.obj)
 .text          0x00000000        0x0 mesh/core/libmesh_core_nrf52832_xxAA.a(event.c.obj)
 .data          0x00000000        0x0 mesh/core/libmesh_core_nrf52832_xxAA.a(event.c.obj)
 .bss           0x00000000        0x0 mesh/core/libmesh_core_nrf52832_xxAA.a(event.c.obj)
 .text          0x00000000        0x0 mesh/core/libmesh_core_nrf52832_xxAA.a(packet_mgr.c.obj)
 .data          0x00000000        0x0 mesh/core/libmesh_core_nrf52832_xxAA.a(packet_mgr.c.obj)
 .bss           0x00000000        0x0 mesh/core/libmesh_core_nrf52832_xxAA.a(packet_mgr.c.obj)
 .text.packet_mgr_get_free_space
                0x00000000       0x1c mesh/core/libmesh_core_nrf52832_xxAA.a(packet_mgr.c.obj)
 .text.packet_mgr_refcount_get
                0x00000000        0x6 mesh/core/libmesh_core_nrf52832_xxAA.a(packet_mgr.c.obj)
 .text.packet_mgr_size_get
                0x00000000        0x6 mesh/core/libmesh_core_nrf52832_xxAA.a(packet_mgr.c.obj)
 .text          0x00000000        0x0 mesh/core/libmesh_core_nrf52832_xxAA.a(net_state.c.obj)
 .data          0x00000000        0x0 mesh/core/libmesh_core_nrf52832_xxAA.a(net_state.c.obj)
 .bss           0x00000000        0x0 mesh/core/libmesh_core_nrf52832_xxAA.a(net_state.c.obj)
 .text.net_state_reset
                0x00000000       0x3c mesh/core/libmesh_core_nrf52832_xxAA.a(net_state.c.obj)
 .text.net_state_iv_update_test_mode_set
                0x00000000        0xc mesh/core/libmesh_core_nrf52832_xxAA.a(net_state.c.obj)
 .text.net_state_iv_index_set
                0x00000000       0x28 mesh/core/libmesh_core_nrf52832_xxAA.a(net_state.c.obj)
 .bss.iv_state_set.9648
                0x00000000        0x1 mesh/core/libmesh_core_nrf52832_xxAA.a(net_state.c.obj)
 .data.mem_listener.9597
                0x00000000       0x10 mesh/core/libmesh_core_nrf52832_xxAA.a(net_state.c.obj)
 .text          0x00000000        0x0 mesh/core/libmesh_core_nrf52832_xxAA.a(nrf_mesh_utils.c.obj)
 .data          0x00000000        0x0 mesh/core/libmesh_core_nrf52832_xxAA.a(nrf_mesh_utils.c.obj)
 .bss           0x00000000        0x0 mesh/core/libmesh_core_nrf52832_xxAA.a(nrf_mesh_utils.c.obj)
 .text.nrf_mesh_rand_get
                0x00000000       0x10 mesh/core/libmesh_core_nrf52832_xxAA.a(nrf_mesh_utils.c.obj)
 .text.nrf_mesh_gap_address_type_get
                0x00000000       0x3c mesh/core/libmesh_core_nrf52832_xxAA.a(nrf_mesh_utils.c.obj)
 .text          0x00000000        0x0 mesh/core/libmesh_core_nrf52832_xxAA.a(nrf_mesh.c.obj)
 .data          0x00000000        0x0 mesh/core/libmesh_core_nrf52832_xxAA.a(nrf_mesh.c.obj)
 .bss           0x00000000        0x0 mesh/core/libmesh_core_nrf52832_xxAA.a(nrf_mesh.c.obj)
 .text.nrf_mesh_disable
                0x00000000       0x28 mesh/core/libmesh_core_nrf52832_xxAA.a(nrf_mesh.c.obj)
 .text.nrf_mesh_process
                0x00000000        0x4 mesh/core/libmesh_core_nrf52832_xxAA.a(nrf_mesh.c.obj)
 .text.nrf_mesh_evt_handler_remove
                0x00000000        0x4 mesh/core/libmesh_core_nrf52832_xxAA.a(nrf_mesh.c.obj)
 .text.nrf_mesh_rx_cb_set
                0x00000000        0xc mesh/core/libmesh_core_nrf52832_xxAA.a(nrf_mesh.c.obj)
 .text.nrf_mesh_rx_cb_clear
                0x00000000        0xc mesh/core/libmesh_core_nrf52832_xxAA.a(nrf_mesh.c.obj)
 .text          0x00000000        0x0 mesh/core/libmesh_core_nrf52832_xxAA.a(hal.c.obj)
 .data          0x00000000        0x0 mesh/core/libmesh_core_nrf52832_xxAA.a(hal.c.obj)
 .bss           0x00000000        0x0 mesh/core/libmesh_core_nrf52832_xxAA.a(hal.c.obj)
 .text.sd_power_reset_reason_clr
                0x00000000        0x4 mesh/core/libmesh_core_nrf52832_xxAA.a(hal.c.obj)
 .text.sd_power_gpregret_set
                0x00000000        0x4 mesh/core/libmesh_core_nrf52832_xxAA.a(hal.c.obj)
 .text.hal_device_reset
                0x00000000       0x38 mesh/core/libmesh_core_nrf52832_xxAA.a(hal.c.obj)
 .text          0x00000000        0x0 mesh/core/libmesh_core_nrf52832_xxAA.a(timer_scheduler.c.obj)
 .data          0x00000000        0x0 mesh/core/libmesh_core_nrf52832_xxAA.a(timer_scheduler.c.obj)
 .bss           0x00000000        0x0 mesh/core/libmesh_core_nrf52832_xxAA.a(timer_scheduler.c.obj)
 .text          0x00000000        0x0 mesh/core/libmesh_core_nrf52832_xxAA.a(timer.c.obj)
 .data          0x00000000        0x0 mesh/core/libmesh_core_nrf52832_xxAA.a(timer.c.obj)
 .bss           0x00000000        0x0 mesh/core/libmesh_core_nrf52832_xxAA.a(timer.c.obj)
 .text.timer_order_cb_ppi
                0x00000000       0xc4 mesh/core/libmesh_core_nrf52832_xxAA.a(timer.c.obj)
 .text.timer_order_ppi
                0x00000000       0xc0 mesh/core/libmesh_core_nrf52832_xxAA.a(timer.c.obj)
 .text.timer_abort
                0x00000000       0x78 mesh/core/libmesh_core_nrf52832_xxAA.a(timer.c.obj)
 .text          0x00000000        0x0 mesh/core/libmesh_core_nrf52832_xxAA.a(ticker.c.obj)
 .data          0x00000000        0x0 mesh/core/libmesh_core_nrf52832_xxAA.a(ticker.c.obj)
 .bss           0x00000000        0x0 mesh/core/libmesh_core_nrf52832_xxAA.a(ticker.c.obj)
 .text.ticker_get
                0x00000000        0xc mesh/core/libmesh_core_nrf52832_xxAA.a(ticker.c.obj)
 .text          0x00000000        0x0 mesh/core/libmesh_core_nrf52832_xxAA.a(rand.c.obj)
 .data          0x00000000        0x0 mesh/core/libmesh_core_nrf52832_xxAA.a(rand.c.obj)
 .bss           0x00000000        0x0 mesh/core/libmesh_core_nrf52832_xxAA.a(rand.c.obj)
 .text          0x00000000        0x0 mesh/core/libmesh_core_nrf52832_xxAA.a(timeslot.c.obj)
 .data          0x00000000        0x0 mesh/core/libmesh_core_nrf52832_xxAA.a(timeslot.c.obj)
 .bss           0x00000000        0x0 mesh/core/libmesh_core_nrf52832_xxAA.a(timeslot.c.obj)
 .text.timeslot_end_time_get
                0x00000000       0x10 mesh/core/libmesh_core_nrf52832_xxAA.a(timeslot.c.obj)
 .text.timeslot_is_in_ts
                0x00000000        0xc mesh/core/libmesh_core_nrf52832_xxAA.a(timeslot.c.obj)
 .text.timeslot_restart
                0x00000000       0x10 mesh/core/libmesh_core_nrf52832_xxAA.a(timeslot.c.obj)
 .text          0x00000000        0x0 mesh/core/libmesh_core_nrf52832_xxAA.a(bearer_event.c.obj)
 .data          0x00000000        0x0 mesh/core/libmesh_core_nrf52832_xxAA.a(bearer_event.c.obj)
 .bss           0x00000000        0x0 mesh/core/libmesh_core_nrf52832_xxAA.a(bearer_event.c.obj)
 .text.bearer_event_generic_post
                0x00000000       0x30 mesh/core/libmesh_core_nrf52832_xxAA.a(bearer_event.c.obj)
 .text.bearer_event_timer_sch_post
                0x00000000       0x34 mesh/core/libmesh_core_nrf52832_xxAA.a(bearer_event.c.obj)
 .text.bearer_event_in_correct_irq_priority
                0x00000000       0x48 mesh/core/libmesh_core_nrf52832_xxAA.a(bearer_event.c.obj)
 .text          0x00000000        0x0 mesh/core/libmesh_core_nrf52832_xxAA.a(enc.c.obj)
 .data          0x00000000        0x0 mesh/core/libmesh_core_nrf52832_xxAA.a(enc.c.obj)
 .bss           0x00000000        0x0 mesh/core/libmesh_core_nrf52832_xxAA.a(enc.c.obj)
 .text.enc_key_generate
                0x00000000        0x6 mesh/core/libmesh_core_nrf52832_xxAA.a(enc.c.obj)
 .text          0x00000000        0x0 mesh/core/libmesh_core_nrf52832_xxAA.a(network.c.obj)
 .data          0x00000000        0x0 mesh/core/libmesh_core_nrf52832_xxAA.a(network.c.obj)
 .bss           0x00000000        0x0 mesh/core/libmesh_core_nrf52832_xxAA.a(network.c.obj)
 .text.network_opt_set
                0x00000000       0x68 mesh/core/libmesh_core_nrf52832_xxAA.a(network.c.obj)
 .text.network_packet_discard
                0x00000000       0x3c mesh/core/libmesh_core_nrf52832_xxAA.a(network.c.obj)
 .text          0x00000000        0x0 mesh/core/libmesh_core_nrf52832_xxAA.a(nrf_mesh_keygen.c.obj)
 .data          0x00000000        0x0 mesh/core/libmesh_core_nrf52832_xxAA.a(nrf_mesh_keygen.c.obj)
 .bss           0x00000000        0x0 mesh/core/libmesh_core_nrf52832_xxAA.a(nrf_mesh_keygen.c.obj)
 .text.nrf_mesh_keygen_identitykey
                0x00000000       0x4c mesh/core/libmesh_core_nrf52832_xxAA.a(nrf_mesh_keygen.c.obj)
 .text          0x00000000        0x0 mesh/core/libmesh_core_nrf52832_xxAA.a(list.c.obj)
 .data          0x00000000        0x0 mesh/core/libmesh_core_nrf52832_xxAA.a(list.c.obj)
 .bss           0x00000000        0x0 mesh/core/libmesh_core_nrf52832_xxAA.a(list.c.obj)
 .text.list_size_get
                0x00000000       0x12 mesh/core/libmesh_core_nrf52832_xxAA.a(list.c.obj)
 .text.list_sorted_add
                0x00000000       0x90 mesh/core/libmesh_core_nrf52832_xxAA.a(list.c.obj)
 .text          0x00000000        0x0 mesh/core/libmesh_core_nrf52832_xxAA.a(log.c.obj)
 .data          0x00000000        0x0 mesh/core/libmesh_core_nrf52832_xxAA.a(log.c.obj)
 .bss           0x00000000        0x0 mesh/core/libmesh_core_nrf52832_xxAA.a(log.c.obj)
 .text.log_callback_logview
                0x00000000       0x38 mesh/core/libmesh_core_nrf52832_xxAA.a(log.c.obj)
 .text.log_set_callback
                0x00000000        0xc mesh/core/libmesh_core_nrf52832_xxAA.a(log.c.obj)
 .rodata.log_callback_logview.str1.1
                0x00000000        0xf mesh/core/libmesh_core_nrf52832_xxAA.a(log.c.obj)
 .text          0x00000000        0x0 mesh/core/libmesh_core_nrf52832_xxAA.a(flash_manager.c.obj)
 .data          0x00000000        0x0 mesh/core/libmesh_core_nrf52832_xxAA.a(flash_manager.c.obj)
 .bss           0x00000000        0x0 mesh/core/libmesh_core_nrf52832_xxAA.a(flash_manager.c.obj)
 .text.flash_manager_entry_count_get
                0x00000000       0x5c mesh/core/libmesh_core_nrf52832_xxAA.a(flash_manager.c.obj)
 .text.flash_manager_entry_release
                0x00000000       0x12 mesh/core/libmesh_core_nrf52832_xxAA.a(flash_manager.c.obj)
 .text.flash_manager_action_queue_empty_cb_set
                0x00000000       0x28 mesh/core/libmesh_core_nrf52832_xxAA.a(flash_manager.c.obj)
 .text          0x00000000        0x0 mesh/core/libmesh_core_nrf52832_xxAA.a(ccm_soft.c.obj)
 .data          0x00000000        0x0 mesh/core/libmesh_core_nrf52832_xxAA.a(ccm_soft.c.obj)
 .bss           0x00000000        0x0 mesh/core/libmesh_core_nrf52832_xxAA.a(ccm_soft.c.obj)
 .text          0x00000000        0x0 mesh/core/libmesh_core_nrf52832_xxAA.a(beacon.c.obj)
 .data          0x00000000        0x0 mesh/core/libmesh_core_nrf52832_xxAA.a(beacon.c.obj)
 .bss           0x00000000        0x0 mesh/core/libmesh_core_nrf52832_xxAA.a(beacon.c.obj)
 .text          0x00000000        0x0 mesh/core/libmesh_core_nrf52832_xxAA.a(flash_manager_internal.c.obj)
 .data          0x00000000        0x0 mesh/core/libmesh_core_nrf52832_xxAA.a(flash_manager_internal.c.obj)
 .bss           0x00000000        0x0 mesh/core/libmesh_core_nrf52832_xxAA.a(flash_manager_internal.c.obj)
 .text          0x00000000        0x0 mesh/core/libmesh_core_nrf52832_xxAA.a(core_tx.c.obj)
 .data          0x00000000        0x0 mesh/core/libmesh_core_nrf52832_xxAA.a(core_tx.c.obj)
 .bss           0x00000000        0x0 mesh/core/libmesh_core_nrf52832_xxAA.a(core_tx.c.obj)
 .text          0x00000000        0x0 mesh/core/libmesh_core_nrf52832_xxAA.a(heartbeat.c.obj)
 .data          0x00000000        0x0 mesh/core/libmesh_core_nrf52832_xxAA.a(heartbeat.c.obj)
 .bss           0x00000000        0x0 mesh/core/libmesh_core_nrf52832_xxAA.a(heartbeat.c.obj)
 .text.heartbeat_on_feature_change_trigger
                0x00000000       0x50 mesh/core/libmesh_core_nrf52832_xxAA.a(heartbeat.c.obj)
 .text.heartbeat_subscription_set
                0x00000000       0x90 mesh/core/libmesh_core_nrf52832_xxAA.a(heartbeat.c.obj)
 .text.heartbeat_subscription_get
                0x00000000        0x8 mesh/core/libmesh_core_nrf52832_xxAA.a(heartbeat.c.obj)
 .text.heartbeat_config_server_cb_set
                0x00000000       0x3c mesh/core/libmesh_core_nrf52832_xxAA.a(heartbeat.c.obj)
 .text.heartbeat_publication_state_updated
                0x00000000       0x80 mesh/core/libmesh_core_nrf52832_xxAA.a(heartbeat.c.obj)
 .text          0x00000000        0x0 mesh/core/libmesh_core_nrf52832_xxAA.a(net_beacon.c.obj)
 .data          0x00000000        0x0 mesh/core/libmesh_core_nrf52832_xxAA.a(net_beacon.c.obj)
 .bss           0x00000000        0x0 mesh/core/libmesh_core_nrf52832_xxAA.a(net_beacon.c.obj)
 .text.net_beacon_state_set
                0x00000000       0x34 mesh/core/libmesh_core_nrf52832_xxAA.a(net_beacon.c.obj)
 .text.net_beacon_state_get
                0x00000000        0xc mesh/core/libmesh_core_nrf52832_xxAA.a(net_beacon.c.obj)
 .text          0x00000000        0x0 mesh/core/libmesh_core_nrf52832_xxAA.a(core_tx_adv.c.obj)
 .data          0x00000000        0x0 mesh/core/libmesh_core_nrf52832_xxAA.a(core_tx_adv.c.obj)
 .bss           0x00000000        0x0 mesh/core/libmesh_core_nrf52832_xxAA.a(core_tx_adv.c.obj)
 .text.core_tx_adv_count_set
                0x00000000       0x38 mesh/core/libmesh_core_nrf52832_xxAA.a(core_tx_adv.c.obj)
 .text.core_tx_adv_interval_set
                0x00000000       0x34 mesh/core/libmesh_core_nrf52832_xxAA.a(core_tx_adv.c.obj)
 .text.core_tx_adv_address_set
                0x00000000       0x34 mesh/core/libmesh_core_nrf52832_xxAA.a(core_tx_adv.c.obj)
 .text          0x00000000        0x0 mesh/core/libmesh_core_nrf52832_xxAA.a(ad_listener.c.obj)
 .data          0x00000000        0x0 mesh/core/libmesh_core_nrf52832_xxAA.a(ad_listener.c.obj)
 .bss           0x00000000        0x0 mesh/core/libmesh_core_nrf52832_xxAA.a(ad_listener.c.obj)
 .text.ad_listener_unsubscribe
                0x00000000       0x6c mesh/core/libmesh_core_nrf52832_xxAA.a(ad_listener.c.obj)
 .text          0x00000000        0x0 mesh/core/libmesh_core_nrf52832_xxAA.a(ad_type_filter.c.obj)
 .data          0x00000000        0x0 mesh/core/libmesh_core_nrf52832_xxAA.a(ad_type_filter.c.obj)
 .bss           0x00000000        0x0 mesh/core/libmesh_core_nrf52832_xxAA.a(ad_type_filter.c.obj)
 .text.bearer_adtype_remove
                0x00000000       0x20 mesh/core/libmesh_core_nrf52832_xxAA.a(ad_type_filter.c.obj)
 .text.bearer_adtype_clear
                0x00000000       0x10 mesh/core/libmesh_core_nrf52832_xxAA.a(ad_type_filter.c.obj)
 .text.bearer_invalid_length_amount_get
                0x00000000        0xc mesh/core/libmesh_core_nrf52832_xxAA.a(ad_type_filter.c.obj)
 .text.bearer_adtype_filtered_amount_get
                0x00000000        0xc mesh/core/libmesh_core_nrf52832_xxAA.a(ad_type_filter.c.obj)
 .text          0x00000000        0x0 mesh/core/libmesh_core_nrf52832_xxAA.a(advertiser.c.obj)
 .data          0x00000000        0x0 mesh/core/libmesh_core_nrf52832_xxAA.a(advertiser.c.obj)
 .bss           0x00000000        0x0 mesh/core/libmesh_core_nrf52832_xxAA.a(advertiser.c.obj)
 .text.advertiser_disable
                0x00000000        0xa mesh/core/libmesh_core_nrf52832_xxAA.a(advertiser.c.obj)
 .text.advertiser_channels_set
                0x00000000       0x84 mesh/core/libmesh_core_nrf52832_xxAA.a(advertiser.c.obj)
 .text.advertiser_address_set
                0x00000000       0x50 mesh/core/libmesh_core_nrf52832_xxAA.a(advertiser.c.obj)
 .text.advertiser_config_set
                0x00000000       0x44 mesh/core/libmesh_core_nrf52832_xxAA.a(advertiser.c.obj)
 .text.advertiser_config_get
                0x00000000       0x2c mesh/core/libmesh_core_nrf52832_xxAA.a(advertiser.c.obj)
 .text          0x00000000        0x0 mesh/core/libmesh_core_nrf52832_xxAA.a(bearer_handler.c.obj)
 .data          0x00000000        0x0 mesh/core/libmesh_core_nrf52832_xxAA.a(bearer_handler.c.obj)
 .bss           0x00000000        0x0 mesh/core/libmesh_core_nrf52832_xxAA.a(bearer_handler.c.obj)
 .text.bearer_handler_stop
                0x00000000       0x20 mesh/core/libmesh_core_nrf52832_xxAA.a(bearer_handler.c.obj)
 .text.bearer_handler_action_fire
                0x00000000       0xbc mesh/core/libmesh_core_nrf52832_xxAA.a(bearer_handler.c.obj)
 .text          0x00000000        0x0 mesh/core/libmesh_core_nrf52832_xxAA.a(broadcast.c.obj)
 .data          0x00000000        0x0 mesh/core/libmesh_core_nrf52832_xxAA.a(broadcast.c.obj)
 .bss           0x00000000        0x0 mesh/core/libmesh_core_nrf52832_xxAA.a(broadcast.c.obj)
 .text          0x00000000        0x0 mesh/core/libmesh_core_nrf52832_xxAA.a(filter_engine.c.obj)
 .data          0x00000000        0x0 mesh/core/libmesh_core_nrf52832_xxAA.a(filter_engine.c.obj)
 .bss           0x00000000        0x0 mesh/core/libmesh_core_nrf52832_xxAA.a(filter_engine.c.obj)
 .text.fen_accepted_amount_get
                0x00000000        0xc mesh/core/libmesh_core_nrf52832_xxAA.a(filter_engine.c.obj)
 .text          0x00000000        0x0 mesh/core/libmesh_core_nrf52832_xxAA.a(radio_config.c.obj)
 .data          0x00000000        0x0 mesh/core/libmesh_core_nrf52832_xxAA.a(radio_config.c.obj)
 .bss           0x00000000        0x0 mesh/core/libmesh_core_nrf52832_xxAA.a(radio_config.c.obj)
 .text.radio_config_access_addr_get
                0x00000000       0x64 mesh/core/libmesh_core_nrf52832_xxAA.a(radio_config.c.obj)
 .text          0x00000000        0x0 mesh/core/libmesh_core_nrf52832_xxAA.a(scanner.c.obj)
 .data          0x00000000        0x0 mesh/core/libmesh_core_nrf52832_xxAA.a(scanner.c.obj)
 .bss           0x00000000        0x0 mesh/core/libmesh_core_nrf52832_xxAA.a(scanner.c.obj)
 .text.scanner_rx_callback_set
                0x00000000       0x2c mesh/core/libmesh_core_nrf52832_xxAA.a(scanner.c.obj)
 .text.scanner_disable
                0x00000000       0x48 mesh/core/libmesh_core_nrf52832_xxAA.a(scanner.c.obj)
 .text.scanner_is_enabled
                0x00000000       0x10 mesh/core/libmesh_core_nrf52832_xxAA.a(scanner.c.obj)
 .text.scanner_stats_get
                0x00000000        0x8 mesh/core/libmesh_core_nrf52832_xxAA.a(scanner.c.obj)
 .text.scanner_config_radio_mode_set
                0x00000000       0x10 mesh/core/libmesh_core_nrf52832_xxAA.a(scanner.c.obj)
 .text          0x00000000        0x0 mesh/core/libmesh_core_nrf52832_xxAA.a(internal_event.c.obj)
 .data          0x00000000        0x0 mesh/core/libmesh_core_nrf52832_xxAA.a(internal_event.c.obj)
 .bss           0x00000000        0x0 mesh/core/libmesh_core_nrf52832_xxAA.a(internal_event.c.obj)
 .text.internal_event_init
                0x00000000       0x40 mesh/core/libmesh_core_nrf52832_xxAA.a(internal_event.c.obj)
 .text.internal_event_pop
                0x00000000       0x1c mesh/core/libmesh_core_nrf52832_xxAA.a(internal_event.c.obj)
 .bss.m_internal_event_fifo_buffer
                0x00000000      0x100 mesh/core/libmesh_core_nrf52832_xxAA.a(internal_event.c.obj)
 .text          0x00000000        0x0 mesh/core/libmesh_core_nrf52832_xxAA.a(aes.c.obj)
 .data          0x00000000        0x0 mesh/core/libmesh_core_nrf52832_xxAA.a(aes.c.obj)
 .bss           0x00000000        0x0 mesh/core/libmesh_core_nrf52832_xxAA.a(aes.c.obj)
 .text          0x00000000        0x0 mesh/core/libmesh_core_nrf52832_xxAA.a(msg_cache.c.obj)
 .data          0x00000000        0x0 mesh/core/libmesh_core_nrf52832_xxAA.a(msg_cache.c.obj)
 .bss           0x00000000        0x0 mesh/core/libmesh_core_nrf52832_xxAA.a(msg_cache.c.obj)
 .text.msg_cache_clear
                0x00000000       0x18 mesh/core/libmesh_core_nrf52832_xxAA.a(msg_cache.c.obj)
 .text          0x00000000        0x0 mesh/core/libmesh_core_nrf52832_xxAA.a(transport.c.obj)
 .data          0x00000000        0x0 mesh/core/libmesh_core_nrf52832_xxAA.a(transport.c.obj)
 .bss           0x00000000        0x0 mesh/core/libmesh_core_nrf52832_xxAA.a(transport.c.obj)
 .text.transport_sar_mem_funcs_set
                0x00000000       0x44 mesh/core/libmesh_core_nrf52832_xxAA.a(transport.c.obj)
 .text.transport_opt_set
                0x00000000       0xd0 mesh/core/libmesh_core_nrf52832_xxAA.a(transport.c.obj)
 .text          0x00000000        0x0 mesh/core/libmesh_core_nrf52832_xxAA.a(packet_buffer.c.obj)
 .data          0x00000000        0x0 mesh/core/libmesh_core_nrf52832_xxAA.a(packet_buffer.c.obj)
 .bss           0x00000000        0x0 mesh/core/libmesh_core_nrf52832_xxAA.a(packet_buffer.c.obj)
 .text.packet_buffer_max_packet_len_get
                0x00000000       0x34 mesh/core/libmesh_core_nrf52832_xxAA.a(packet_buffer.c.obj)
 .text          0x00000000        0x0 mesh/core/libmesh_core_nrf52832_xxAA.a(flash_manager_defrag.c.obj)
 .data          0x00000000        0x0 mesh/core/libmesh_core_nrf52832_xxAA.a(flash_manager_defrag.c.obj)
 .bss           0x00000000        0x0 mesh/core/libmesh_core_nrf52832_xxAA.a(flash_manager_defrag.c.obj)
 .text.flash_manager_defragging
                0x00000000       0x44 mesh/core/libmesh_core_nrf52832_xxAA.a(flash_manager_defrag.c.obj)
 .text          0x00000000        0x0 mesh/core/libmesh_core_nrf52832_xxAA.a(fifo.c.obj)
 .data          0x00000000        0x0 mesh/core/libmesh_core_nrf52832_xxAA.a(fifo.c.obj)
 .bss           0x00000000        0x0 mesh/core/libmesh_core_nrf52832_xxAA.a(fifo.c.obj)
 .text.fifo_peek_at
                0x00000000       0x50 mesh/core/libmesh_core_nrf52832_xxAA.a(fifo.c.obj)
 .text.fifo_peek
                0x00000000        0x6 mesh/core/libmesh_core_nrf52832_xxAA.a(fifo.c.obj)
 .text.fifo_flush
                0x00000000        0x6 mesh/core/libmesh_core_nrf52832_xxAA.a(fifo.c.obj)
 .text.fifo_get_len
                0x00000000        0x8 mesh/core/libmesh_core_nrf52832_xxAA.a(fifo.c.obj)
 .text.fifo_is_full
                0x00000000       0x10 mesh/core/libmesh_core_nrf52832_xxAA.a(fifo.c.obj)
 .text.fifo_is_empty
                0x00000000        0xc mesh/core/libmesh_core_nrf52832_xxAA.a(fifo.c.obj)
 .text          0x00000000        0x0 mesh/core/libmesh_core_nrf52832_xxAA.a(mesh_flash.c.obj)
 .data          0x00000000        0x0 mesh/core/libmesh_core_nrf52832_xxAA.a(mesh_flash.c.obj)
 .bss           0x00000000        0x0 mesh/core/libmesh_core_nrf52832_xxAA.a(mesh_flash.c.obj)
 .text.mesh_flash_op_available_slots
                0x00000000       0x2c mesh/core/libmesh_core_nrf52832_xxAA.a(mesh_flash.c.obj)
 .text.mesh_flash_in_progress
                0x00000000       0x34 mesh/core/libmesh_core_nrf52832_xxAA.a(mesh_flash.c.obj)
 .text.mesh_flash_set_suspended
                0x00000000       0x80 mesh/core/libmesh_core_nrf52832_xxAA.a(mesh_flash.c.obj)
 .bss.suspend_count.9905
                0x00000000        0x4 mesh/core/libmesh_core_nrf52832_xxAA.a(mesh_flash.c.obj)
 .text          0x00000000        0x0 mesh/core/libmesh_core_nrf52832_xxAA.a(queue.c.obj)
 .data          0x00000000        0x0 mesh/core/libmesh_core_nrf52832_xxAA.a(queue.c.obj)
 .bss           0x00000000        0x0 mesh/core/libmesh_core_nrf52832_xxAA.a(queue.c.obj)
 .text          0x00000000        0x0 mesh/core/libmesh_core_nrf52832_xxAA.a(aes_cmac.c.obj)
 .data          0x00000000        0x0 mesh/core/libmesh_core_nrf52832_xxAA.a(aes_cmac.c.obj)
 .bss           0x00000000        0x0 mesh/core/libmesh_core_nrf52832_xxAA.a(aes_cmac.c.obj)
 .text          0x00000000        0x0 mesh/core/libmesh_core_nrf52832_xxAA.a(nrf_mesh_opt.c.obj)
 .data          0x00000000        0x0 mesh/core/libmesh_core_nrf52832_xxAA.a(nrf_mesh_opt.c.obj)
 .bss           0x00000000        0x0 mesh/core/libmesh_core_nrf52832_xxAA.a(nrf_mesh_opt.c.obj)
 .text.nrf_mesh_opt_set
                0x00000000       0x26 mesh/core/libmesh_core_nrf52832_xxAA.a(nrf_mesh_opt.c.obj)
 .text          0x00000000        0x0 mesh/core/libmesh_core_nrf52832_xxAA.a(msqueue.c.obj)
 .data          0x00000000        0x0 mesh/core/libmesh_core_nrf52832_xxAA.a(msqueue.c.obj)
 .bss           0x00000000        0x0 mesh/core/libmesh_core_nrf52832_xxAA.a(msqueue.c.obj)
 .text          0x00000000        0x0 mesh/core/libmesh_core_nrf52832_xxAA.a(replay_cache.c.obj)
 .data          0x00000000        0x0 mesh/core/libmesh_core_nrf52832_xxAA.a(replay_cache.c.obj)
 .bss           0x00000000        0x0 mesh/core/libmesh_core_nrf52832_xxAA.a(replay_cache.c.obj)
 .text.replay_cache_on_iv_update
                0x00000000       0x24 mesh/core/libmesh_core_nrf52832_xxAA.a(replay_cache.c.obj)
 .text          0x00000000        0x0 mesh/core/libmesh_core_nrf52832_xxAA.a(nrf_flash.c.obj)
 .data          0x00000000        0x0 mesh/core/libmesh_core_nrf52832_xxAA.a(nrf_flash.c.obj)
 .bss           0x00000000        0x0 mesh/core/libmesh_core_nrf52832_xxAA.a(nrf_flash.c.obj)
 .text          0x00000000        0x0 external/rtt/librtt_nrf52832_xxAA.a(SEGGER_RTT.c.obj)
 .data          0x00000000        0x0 external/rtt/librtt_nrf52832_xxAA.a(SEGGER_RTT.c.obj)
 .bss           0x00000000        0x0 external/rtt/librtt_nrf52832_xxAA.a(SEGGER_RTT.c.obj)
 .text._PostTerminalSwitch.constprop.0
                0x00000000       0x28 external/rtt/librtt_nrf52832_xxAA.a(SEGGER_RTT.c.obj)
 .text.SEGGER_RTT_WriteSkipNoLock
                0x00000000       0xb4 external/rtt/librtt_nrf52832_xxAA.a(SEGGER_RTT.c.obj)
 .text.SEGGER_RTT_WriteString
                0x00000000       0x1a external/rtt/librtt_nrf52832_xxAA.a(SEGGER_RTT.c.obj)
 .text.SEGGER_RTT_WaitKey
                0x00000000        0xc external/rtt/librtt_nrf52832_xxAA.a(SEGGER_RTT.c.obj)
 .text.SEGGER_RTT_HasKey
                0x00000000       0x1c external/rtt/librtt_nrf52832_xxAA.a(SEGGER_RTT.c.obj)
 .text.SEGGER_RTT_HasData
                0x00000000       0x14 external/rtt/librtt_nrf52832_xxAA.a(SEGGER_RTT.c.obj)
 .text.SEGGER_RTT_AllocDownBuffer
                0x00000000       0x68 external/rtt/librtt_nrf52832_xxAA.a(SEGGER_RTT.c.obj)
 .text.SEGGER_RTT_AllocUpBuffer
                0x00000000       0x70 external/rtt/librtt_nrf52832_xxAA.a(SEGGER_RTT.c.obj)
 .text.SEGGER_RTT_ConfigUpBuffer
                0x00000000       0x68 external/rtt/librtt_nrf52832_xxAA.a(SEGGER_RTT.c.obj)
 .text.SEGGER_RTT_ConfigDownBuffer
                0x00000000       0x60 external/rtt/librtt_nrf52832_xxAA.a(SEGGER_RTT.c.obj)
 .text.SEGGER_RTT_SetNameUpBuffer
                0x00000000       0x3c external/rtt/librtt_nrf52832_xxAA.a(SEGGER_RTT.c.obj)
 .text.SEGGER_RTT_SetNameDownBuffer
                0x00000000       0x3c external/rtt/librtt_nrf52832_xxAA.a(SEGGER_RTT.c.obj)
 .text.SEGGER_RTT_Init
                0x00000000       0x10 external/rtt/librtt_nrf52832_xxAA.a(SEGGER_RTT.c.obj)
 .text.SEGGER_RTT_SetTerminal
                0x00000000       0x84 external/rtt/librtt_nrf52832_xxAA.a(SEGGER_RTT.c.obj)
 .text.SEGGER_RTT_TerminalOut
                0x00000000       0xa0 external/rtt/librtt_nrf52832_xxAA.a(SEGGER_RTT.c.obj)
 .bss._ActiveTerminal
                0x00000000        0x1 external/rtt/librtt_nrf52832_xxAA.a(SEGGER_RTT.c.obj)
 .rodata._aTerminalId
                0x00000000       0x10 external/rtt/librtt_nrf52832_xxAA.a(SEGGER_RTT.c.obj)
 .text          0x00000000        0x0 external/rtt/librtt_nrf52832_xxAA.a(SEGGER_RTT_printf.c.obj)
 .data          0x00000000        0x0 external/rtt/librtt_nrf52832_xxAA.a(SEGGER_RTT_printf.c.obj)
 .bss           0x00000000        0x0 external/rtt/librtt_nrf52832_xxAA.a(SEGGER_RTT_printf.c.obj)
 .text          0x00000000        0x0 external/micro-ecc/libuECC_nrf52832_xxAA.a(uECC.c.obj)
 .data          0x00000000        0x0 external/micro-ecc/libuECC_nrf52832_xxAA.a(uECC.c.obj)
 .bss           0x00000000        0x0 external/micro-ecc/libuECC_nrf52832_xxAA.a(uECC.c.obj)
 .text.uECC_vli_modMult
                0x00000000      0x148 external/micro-ecc/libuECC_nrf52832_xxAA.a(uECC.c.obj)
 .text.HMAC_init
                0x00000000       0x46 external/micro-ecc/libuECC_nrf52832_xxAA.a(uECC.c.obj)
 .text.HMAC_update
                0x00000000        0x4 external/micro-ecc/libuECC_nrf52832_xxAA.a(uECC.c.obj)
 .text.HMAC_finish
                0x00000000       0x62 external/micro-ecc/libuECC_nrf52832_xxAA.a(uECC.c.obj)
 .text.update_V
                0x00000000       0x24 external/micro-ecc/libuECC_nrf52832_xxAA.a(uECC.c.obj)
 .text.bits2int
                0x00000000       0x88 external/micro-ecc/libuECC_nrf52832_xxAA.a(uECC.c.obj)
 .text.uECC_sign_with_k
                0x00000000      0x17c external/micro-ecc/libuECC_nrf52832_xxAA.a(uECC.c.obj)
 .text.uECC_set_rng
                0x00000000        0xc external/micro-ecc/libuECC_nrf52832_xxAA.a(uECC.c.obj)
 .text.uECC_get_rng
                0x00000000        0xc external/micro-ecc/libuECC_nrf52832_xxAA.a(uECC.c.obj)
 .text.uECC_curve_private_key_size
                0x00000000        0xe external/micro-ecc/libuECC_nrf52832_xxAA.a(uECC.c.obj)
 .text.uECC_curve_public_key_size
                0x00000000        0x8 external/micro-ecc/libuECC_nrf52832_xxAA.a(uECC.c.obj)
 .text.uECC_compute_public_key
                0x00000000       0x7e external/micro-ecc/libuECC_nrf52832_xxAA.a(uECC.c.obj)
 .text.uECC_sign
                0x00000000       0x56 external/micro-ecc/libuECC_nrf52832_xxAA.a(uECC.c.obj)
 .text.uECC_sign_deterministic
                0x00000000      0x192 external/micro-ecc/libuECC_nrf52832_xxAA.a(uECC.c.obj)
 .text.uECC_verify
                0x00000000      0x2f0 external/micro-ecc/libuECC_nrf52832_xxAA.a(uECC.c.obj)
 .data          0x00000000        0x0 c:/a/gcc_arm/6/bin/../lib/gcc/arm-none-eabi/6.3.1/thumb/v7e-m/fpv4-sp/hard\libgcc.a(_aeabi_uldivmod.o)
 .bss           0x00000000        0x0 c:/a/gcc_arm/6/bin/../lib/gcc/arm-none-eabi/6.3.1/thumb/v7e-m/fpv4-sp/hard\libgcc.a(_aeabi_uldivmod.o)
 .data          0x00000000        0x0 c:/a/gcc_arm/6/bin/../lib/gcc/arm-none-eabi/6.3.1/thumb/v7e-m/fpv4-sp/hard\libgcc.a(_udivmoddi4.o)
 .bss           0x00000000        0x0 c:/a/gcc_arm/6/bin/../lib/gcc/arm-none-eabi/6.3.1/thumb/v7e-m/fpv4-sp/hard\libgcc.a(_udivmoddi4.o)
 .ARM.extab     0x00000000        0x0 c:/a/gcc_arm/6/bin/../lib/gcc/arm-none-eabi/6.3.1/thumb/v7e-m/fpv4-sp/hard\libgcc.a(_udivmoddi4.o)
 .data          0x00000000        0x0 c:/a/gcc_arm/6/bin/../lib/gcc/arm-none-eabi/6.3.1/thumb/v7e-m/fpv4-sp/hard\libgcc.a(_dvmd_tls.o)
 .bss           0x00000000        0x0 c:/a/gcc_arm/6/bin/../lib/gcc/arm-none-eabi/6.3.1/thumb/v7e-m/fpv4-sp/hard\libgcc.a(_dvmd_tls.o)
 .text          0x00000000        0x0 c:/a/gcc_arm/6/bin/../lib/gcc/arm-none-eabi/6.3.1/../../../../arm-none-eabi/lib/thumb/v7e-m/fpv4-sp/hard\libg_nano.a(lib_a-exit.o)
 .data          0x00000000        0x0 c:/a/gcc_arm/6/bin/../lib/gcc/arm-none-eabi/6.3.1/../../../../arm-none-eabi/lib/thumb/v7e-m/fpv4-sp/hard\libg_nano.a(lib_a-exit.o)
 .bss           0x00000000        0x0 c:/a/gcc_arm/6/bin/../lib/gcc/arm-none-eabi/6.3.1/../../../../arm-none-eabi/lib/thumb/v7e-m/fpv4-sp/hard\libg_nano.a(lib_a-exit.o)
 .text          0x00000000        0x0 c:/a/gcc_arm/6/bin/../lib/gcc/arm-none-eabi/6.3.1/../../../../arm-none-eabi/lib/thumb/v7e-m/fpv4-sp/hard\libg_nano.a(lib_a-impure.o)
 .data          0x00000000        0x0 c:/a/gcc_arm/6/bin/../lib/gcc/arm-none-eabi/6.3.1/../../../../arm-none-eabi/lib/thumb/v7e-m/fpv4-sp/hard\libg_nano.a(lib_a-impure.o)
 .bss           0x00000000        0x0 c:/a/gcc_arm/6/bin/../lib/gcc/arm-none-eabi/6.3.1/../../../../arm-none-eabi/lib/thumb/v7e-m/fpv4-sp/hard\libg_nano.a(lib_a-impure.o)
 .text          0x00000000        0x0 c:/a/gcc_arm/6/bin/../lib/gcc/arm-none-eabi/6.3.1/../../../../arm-none-eabi/lib/thumb/v7e-m/fpv4-sp/hard\libg_nano.a(lib_a-init.o)
 .data          0x00000000        0x0 c:/a/gcc_arm/6/bin/../lib/gcc/arm-none-eabi/6.3.1/../../../../arm-none-eabi/lib/thumb/v7e-m/fpv4-sp/hard\libg_nano.a(lib_a-init.o)
 .bss           0x00000000        0x0 c:/a/gcc_arm/6/bin/../lib/gcc/arm-none-eabi/6.3.1/../../../../arm-none-eabi/lib/thumb/v7e-m/fpv4-sp/hard\libg_nano.a(lib_a-init.o)
 .text          0x00000000        0x0 c:/a/gcc_arm/6/bin/../lib/gcc/arm-none-eabi/6.3.1/../../../../arm-none-eabi/lib/thumb/v7e-m/fpv4-sp/hard\libg_nano.a(lib_a-malloc.o)
 .data          0x00000000        0x0 c:/a/gcc_arm/6/bin/../lib/gcc/arm-none-eabi/6.3.1/../../../../arm-none-eabi/lib/thumb/v7e-m/fpv4-sp/hard\libg_nano.a(lib_a-malloc.o)
 .bss           0x00000000        0x0 c:/a/gcc_arm/6/bin/../lib/gcc/arm-none-eabi/6.3.1/../../../../arm-none-eabi/lib/thumb/v7e-m/fpv4-sp/hard\libg_nano.a(lib_a-malloc.o)
 .text          0x00000000        0x0 c:/a/gcc_arm/6/bin/../lib/gcc/arm-none-eabi/6.3.1/../../../../arm-none-eabi/lib/thumb/v7e-m/fpv4-sp/hard\libg_nano.a(lib_a-memcmp.o)
 .data          0x00000000        0x0 c:/a/gcc_arm/6/bin/../lib/gcc/arm-none-eabi/6.3.1/../../../../arm-none-eabi/lib/thumb/v7e-m/fpv4-sp/hard\libg_nano.a(lib_a-memcmp.o)
 .bss           0x00000000        0x0 c:/a/gcc_arm/6/bin/../lib/gcc/arm-none-eabi/6.3.1/../../../../arm-none-eabi/lib/thumb/v7e-m/fpv4-sp/hard\libg_nano.a(lib_a-memcmp.o)
 .text          0x00000000        0x0 c:/a/gcc_arm/6/bin/../lib/gcc/arm-none-eabi/6.3.1/../../../../arm-none-eabi/lib/thumb/v7e-m/fpv4-sp/hard\libg_nano.a(lib_a-memcpy-stub.o)
 .data          0x00000000        0x0 c:/a/gcc_arm/6/bin/../lib/gcc/arm-none-eabi/6.3.1/../../../../arm-none-eabi/lib/thumb/v7e-m/fpv4-sp/hard\libg_nano.a(lib_a-memcpy-stub.o)
 .bss           0x00000000        0x0 c:/a/gcc_arm/6/bin/../lib/gcc/arm-none-eabi/6.3.1/../../../../arm-none-eabi/lib/thumb/v7e-m/fpv4-sp/hard\libg_nano.a(lib_a-memcpy-stub.o)
 .text          0x00000000        0x0 c:/a/gcc_arm/6/bin/../lib/gcc/arm-none-eabi/6.3.1/../../../../arm-none-eabi/lib/thumb/v7e-m/fpv4-sp/hard\libg_nano.a(lib_a-memset.o)
 .data          0x00000000        0x0 c:/a/gcc_arm/6/bin/../lib/gcc/arm-none-eabi/6.3.1/../../../../arm-none-eabi/lib/thumb/v7e-m/fpv4-sp/hard\libg_nano.a(lib_a-memset.o)
 .bss           0x00000000        0x0 c:/a/gcc_arm/6/bin/../lib/gcc/arm-none-eabi/6.3.1/../../../../arm-none-eabi/lib/thumb/v7e-m/fpv4-sp/hard\libg_nano.a(lib_a-memset.o)
 .text          0x00000000        0x0 c:/a/gcc_arm/6/bin/../lib/gcc/arm-none-eabi/6.3.1/../../../../arm-none-eabi/lib/thumb/v7e-m/fpv4-sp/hard\libg_nano.a(lib_a-nano-freer.o)
 .data          0x00000000        0x0 c:/a/gcc_arm/6/bin/../lib/gcc/arm-none-eabi/6.3.1/../../../../arm-none-eabi/lib/thumb/v7e-m/fpv4-sp/hard\libg_nano.a(lib_a-nano-freer.o)
 .bss           0x00000000        0x0 c:/a/gcc_arm/6/bin/../lib/gcc/arm-none-eabi/6.3.1/../../../../arm-none-eabi/lib/thumb/v7e-m/fpv4-sp/hard\libg_nano.a(lib_a-nano-freer.o)
 .text          0x00000000        0x0 c:/a/gcc_arm/6/bin/../lib/gcc/arm-none-eabi/6.3.1/../../../../arm-none-eabi/lib/thumb/v7e-m/fpv4-sp/hard\libg_nano.a(lib_a-nano-mallocr.o)
 .data          0x00000000        0x0 c:/a/gcc_arm/6/bin/../lib/gcc/arm-none-eabi/6.3.1/../../../../arm-none-eabi/lib/thumb/v7e-m/fpv4-sp/hard\libg_nano.a(lib_a-nano-mallocr.o)
 .bss           0x00000000        0x0 c:/a/gcc_arm/6/bin/../lib/gcc/arm-none-eabi/6.3.1/../../../../arm-none-eabi/lib/thumb/v7e-m/fpv4-sp/hard\libg_nano.a(lib_a-nano-mallocr.o)
 .text          0x00000000        0x0 c:/a/gcc_arm/6/bin/../lib/gcc/arm-none-eabi/6.3.1/../../../../arm-none-eabi/lib/thumb/v7e-m/fpv4-sp/hard\libg_nano.a(lib_a-sbrkr.o)
 .data          0x00000000        0x0 c:/a/gcc_arm/6/bin/../lib/gcc/arm-none-eabi/6.3.1/../../../../arm-none-eabi/lib/thumb/v7e-m/fpv4-sp/hard\libg_nano.a(lib_a-sbrkr.o)
 .bss           0x00000000        0x0 c:/a/gcc_arm/6/bin/../lib/gcc/arm-none-eabi/6.3.1/../../../../arm-none-eabi/lib/thumb/v7e-m/fpv4-sp/hard\libg_nano.a(lib_a-sbrkr.o)
 .text          0x00000000        0x0 c:/a/gcc_arm/6/bin/../lib/gcc/arm-none-eabi/6.3.1/../../../../arm-none-eabi/lib/thumb/v7e-m/fpv4-sp/hard\libg_nano.a(lib_a-strcpy.o)
 .data          0x00000000        0x0 c:/a/gcc_arm/6/bin/../lib/gcc/arm-none-eabi/6.3.1/../../../../arm-none-eabi/lib/thumb/v7e-m/fpv4-sp/hard\libg_nano.a(lib_a-strcpy.o)
 .bss           0x00000000        0x0 c:/a/gcc_arm/6/bin/../lib/gcc/arm-none-eabi/6.3.1/../../../../arm-none-eabi/lib/thumb/v7e-m/fpv4-sp/hard\libg_nano.a(lib_a-strcpy.o)
 .data          0x00000000        0x0 c:/a/gcc_arm/6/bin/../lib/gcc/arm-none-eabi/6.3.1/../../../../arm-none-eabi/lib/thumb/v7e-m/fpv4-sp/hard\libg_nano.a(lib_a-strlen.o)
 .bss           0x00000000        0x0 c:/a/gcc_arm/6/bin/../lib/gcc/arm-none-eabi/6.3.1/../../../../arm-none-eabi/lib/thumb/v7e-m/fpv4-sp/hard\libg_nano.a(lib_a-strlen.o)
 .text          0x00000000        0x0 c:/a/gcc_arm/6/bin/../lib/gcc/arm-none-eabi/6.3.1/../../../../arm-none-eabi/lib/thumb/v7e-m/fpv4-sp/hard\libg_nano.a(lib_a-strrchr.o)
 .data          0x00000000        0x0 c:/a/gcc_arm/6/bin/../lib/gcc/arm-none-eabi/6.3.1/../../../../arm-none-eabi/lib/thumb/v7e-m/fpv4-sp/hard\libg_nano.a(lib_a-strrchr.o)
 .bss           0x00000000        0x0 c:/a/gcc_arm/6/bin/../lib/gcc/arm-none-eabi/6.3.1/../../../../arm-none-eabi/lib/thumb/v7e-m/fpv4-sp/hard\libg_nano.a(lib_a-strrchr.o)
 .text          0x00000000        0x0 c:/a/gcc_arm/6/bin/../lib/gcc/arm-none-eabi/6.3.1/../../../../arm-none-eabi/lib/thumb/v7e-m/fpv4-sp/hard\libg_nano.a(lib_a-mlock.o)
 .data          0x00000000        0x0 c:/a/gcc_arm/6/bin/../lib/gcc/arm-none-eabi/6.3.1/../../../../arm-none-eabi/lib/thumb/v7e-m/fpv4-sp/hard\libg_nano.a(lib_a-mlock.o)
 .bss           0x00000000        0x0 c:/a/gcc_arm/6/bin/../lib/gcc/arm-none-eabi/6.3.1/../../../../arm-none-eabi/lib/thumb/v7e-m/fpv4-sp/hard\libg_nano.a(lib_a-mlock.o)
 .text          0x00000000        0x0 c:/a/gcc_arm/6/bin/../lib/gcc/arm-none-eabi/6.3.1/../../../../arm-none-eabi/lib/thumb/v7e-m/fpv4-sp/hard\libg_nano.a(lib_a-reent.o)
 .data          0x00000000        0x0 c:/a/gcc_arm/6/bin/../lib/gcc/arm-none-eabi/6.3.1/../../../../arm-none-eabi/lib/thumb/v7e-m/fpv4-sp/hard\libg_nano.a(lib_a-reent.o)
 .bss           0x00000000        0x0 c:/a/gcc_arm/6/bin/../lib/gcc/arm-none-eabi/6.3.1/../../../../arm-none-eabi/lib/thumb/v7e-m/fpv4-sp/hard\libg_nano.a(lib_a-reent.o)
 .text.cleanup_glue
                0x00000000       0x1a c:/a/gcc_arm/6/bin/../lib/gcc/arm-none-eabi/6.3.1/../../../../arm-none-eabi/lib/thumb/v7e-m/fpv4-sp/hard\libg_nano.a(lib_a-reent.o)
 .text._reclaim_reent
                0x00000000       0xb8 c:/a/gcc_arm/6/bin/../lib/gcc/arm-none-eabi/6.3.1/../../../../arm-none-eabi/lib/thumb/v7e-m/fpv4-sp/hard\libg_nano.a(lib_a-reent.o)
 .text          0x00000000        0x0 c:/a/gcc_arm/6/bin/../lib/gcc/arm-none-eabi/6.3.1/../../../../arm-none-eabi/lib/thumb/v7e-m/fpv4-sp/hard\libg_nano.a(lib_a-strchr.o)
 .data          0x00000000        0x0 c:/a/gcc_arm/6/bin/../lib/gcc/arm-none-eabi/6.3.1/../../../../arm-none-eabi/lib/thumb/v7e-m/fpv4-sp/hard\libg_nano.a(lib_a-strchr.o)
 .bss           0x00000000        0x0 c:/a/gcc_arm/6/bin/../lib/gcc/arm-none-eabi/6.3.1/../../../../arm-none-eabi/lib/thumb/v7e-m/fpv4-sp/hard\libg_nano.a(lib_a-strchr.o)
 .text          0x00000000        0x0 c:/a/gcc_arm/6/bin/../lib/gcc/arm-none-eabi/6.3.1/thumb/v7e-m/fpv4-sp/hard/crtend.o
 .data          0x00000000        0x0 c:/a/gcc_arm/6/bin/../lib/gcc/arm-none-eabi/6.3.1/thumb/v7e-m/fpv4-sp/hard/crtend.o
 .bss           0x00000000        0x0 c:/a/gcc_arm/6/bin/../lib/gcc/arm-none-eabi/6.3.1/thumb/v7e-m/fpv4-sp/hard/crtend.o
 .text          0x00000000        0x0 c:/a/gcc_arm/6/bin/../lib/gcc/arm-none-eabi/6.3.1/thumb/v7e-m/fpv4-sp/hard/crtn.o
 .data          0x00000000        0x0 c:/a/gcc_arm/6/bin/../lib/gcc/arm-none-eabi/6.3.1/thumb/v7e-m/fpv4-sp/hard/crtn.o
 .bss           0x00000000        0x0 c:/a/gcc_arm/6/bin/../lib/gcc/arm-none-eabi/6.3.1/thumb/v7e-m/fpv4-sp/hard/crtn.o
 .text          0x00000000        0x0 c:/a/gcc_arm/6/bin/../lib/gcc/arm-none-eabi/6.3.1/../../../../arm-none-eabi/lib/thumb/v7e-m/fpv4-sp/hard\libnosys.a(sbrk.o)
 .data          0x00000000        0x0 c:/a/gcc_arm/6/bin/../lib/gcc/arm-none-eabi/6.3.1/../../../../arm-none-eabi/lib/thumb/v7e-m/fpv4-sp/hard\libnosys.a(sbrk.o)
 .bss           0x00000000        0x0 c:/a/gcc_arm/6/bin/../lib/gcc/arm-none-eabi/6.3.1/../../../../arm-none-eabi/lib/thumb/v7e-m/fpv4-sp/hard\libnosys.a(sbrk.o)
 .text          0x00000000        0x0 c:/a/gcc_arm/6/bin/../lib/gcc/arm-none-eabi/6.3.1/../../../../arm-none-eabi/lib/thumb/v7e-m/fpv4-sp/hard\libnosys.a(_exit.o)
 .data          0x00000000        0x0 c:/a/gcc_arm/6/bin/../lib/gcc/arm-none-eabi/6.3.1/../../../../arm-none-eabi/lib/thumb/v7e-m/fpv4-sp/hard\libnosys.a(_exit.o)
 .bss           0x00000000        0x0 c:/a/gcc_arm/6/bin/../lib/gcc/arm-none-eabi/6.3.1/../../../../arm-none-eabi/lib/thumb/v7e-m/fpv4-sp/hard\libnosys.a(_exit.o)

Memory Configuration

Name             Origin             Length             Attributes
FLASH            0x0001f000         0x00059000         xr
RAM              0x200019c0         0x0000e340         xrw
*default*        0x00000000         0xffffffff

Linker script and memory map


.text           0x0001f000    0x1253c
 *(.isr_vector)
 .isr_vector    0x0001f000      0x200 examples/light_switch/client/CMakeFiles/light_switch_client_nrf52832_xxAA_s132_3.1.0.dir/__/__/__/external/nRF5_SDK_14.2.0_17b948a/components/toolchain/gcc/gcc_startup_nrf52.S.obj
                0x0001f000                __isr_vector
 *(.text*)
 .text          0x0001f200       0x6c c:/a/gcc_arm/6/bin/../lib/gcc/arm-none-eabi/6.3.1/thumb/v7e-m/fpv4-sp/hard/crtbegin.o
 .text          0x0001f26c       0x74 c:/a/gcc_arm/6/bin/../lib/gcc/arm-none-eabi/6.3.1/../../../../arm-none-eabi/lib/thumb/v7e-m/fpv4-sp/hard/crt0.o
                0x0001f26c                _start
                0x0001f26c                _mainCRTStartup
 .text.sd_app_evt_wait
                0x0001f2e0        0x4 examples/light_switch/client/CMakeFiles/light_switch_client_nrf52832_xxAA_s132_3.1.0.dir/src/main.c.obj
 .text.client_status_cb
                0x0001f2e4       0x8c examples/light_switch/client/CMakeFiles/light_switch_client_nrf52832_xxAA_s132_3.1.0.dir/src/main.c.obj
 .text.button_event_handler
                0x0001f370      0x1dc examples/light_switch/client/CMakeFiles/light_switch_client_nrf52832_xxAA_s132_3.1.0.dir/src/main.c.obj
 .text.rtt_input_handler
                0x0001f54c        0xc examples/light_switch/client/CMakeFiles/light_switch_client_nrf52832_xxAA_s132_3.1.0.dir/src/main.c.obj
 .text.health_event_cb
                0x0001f558       0x7c examples/light_switch/client/CMakeFiles/light_switch_client_nrf52832_xxAA_s132_3.1.0.dir/src/main.c.obj
 .text.provisioner_config_successful_cb
                0x0001f5d4      0x130 examples/light_switch/client/CMakeFiles/light_switch_client_nrf52832_xxAA_s132_3.1.0.dir/src/main.c.obj
                0x0001f5d4                provisioner_config_successful_cb
 .text.provisioner_config_failed_cb
                0x0001f704       0xc0 examples/light_switch/client/CMakeFiles/light_switch_client_nrf52832_xxAA_s132_3.1.0.dir/src/main.c.obj
                0x0001f704                provisioner_config_failed_cb
 .text.provisioner_prov_complete_cb
                0x0001f7c4      0x128 examples/light_switch/client/CMakeFiles/light_switch_client_nrf52832_xxAA_s132_3.1.0.dir/src/main.c.obj
                0x0001f7c4                provisioner_prov_complete_cb
 .text.startup.main
                0x0001f8ec      0x41c examples/light_switch/client/CMakeFiles/light_switch_client_nrf52832_xxAA_s132_3.1.0.dir/src/main.c.obj
                0x0001f8ec                main
 .text.do_config_step
                0x0001fd08      0x3e8 examples/light_switch/client/CMakeFiles/light_switch_client_nrf52832_xxAA_s132_3.1.0.dir/src/provisioner.c.obj
 .text.prov_evt_handler
                0x000200f0      0x320 examples/light_switch/client/CMakeFiles/light_switch_client_nrf52832_xxAA_s132_3.1.0.dir/src/provisioner.c.obj
 .text.provisioner_configure
                0x00020410       0x20 examples/light_switch/client/CMakeFiles/light_switch_client_nrf52832_xxAA_s132_3.1.0.dir/src/provisioner.c.obj
                0x00020410                provisioner_configure
 .text.provisioner_wait_for_unprov
                0x00020430       0x14 examples/light_switch/client/CMakeFiles/light_switch_client_nrf52832_xxAA_s132_3.1.0.dir/src/provisioner.c.obj
                0x00020430                provisioner_wait_for_unprov
 .text.config_client_event_cb
                0x00020444      0x1f0 examples/light_switch/client/CMakeFiles/light_switch_client_nrf52832_xxAA_s132_3.1.0.dir/src/provisioner.c.obj
                0x00020444                config_client_event_cb
 .text.provisioner_init
                0x00020634       0x9c examples/light_switch/client/CMakeFiles/light_switch_client_nrf52832_xxAA_s132_3.1.0.dir/src/provisioner.c.obj
                0x00020634                provisioner_init
 .text.sd_evt_get
                0x000206d0        0x4 examples/light_switch/client/CMakeFiles/light_switch_client_nrf52832_xxAA_s132_3.1.0.dir/__/__/nrf_mesh_sdk.c.obj
 .text.sd_softdevice_enable
                0x000206d4        0x4 examples/light_switch/client/CMakeFiles/light_switch_client_nrf52832_xxAA_s132_3.1.0.dir/__/__/nrf_mesh_sdk.c.obj
 .text.sd_ble_enable
                0x000206d8        0x4 examples/light_switch/client/CMakeFiles/light_switch_client_nrf52832_xxAA_s132_3.1.0.dir/__/__/nrf_mesh_sdk.c.obj
 .text.sd_ble_evt_get
                0x000206dc        0x4 examples/light_switch/client/CMakeFiles/light_switch_client_nrf52832_xxAA_s132_3.1.0.dir/__/__/nrf_mesh_sdk.c.obj
 .text.sleep_forever
                0x000206e0       0x1c examples/light_switch/client/CMakeFiles/light_switch_client_nrf52832_xxAA_s132_3.1.0.dir/__/__/nrf_mesh_sdk.c.obj
 .text.mesh_assert_handler
                0x000206fc       0x70 examples/light_switch/client/CMakeFiles/light_switch_client_nrf52832_xxAA_s132_3.1.0.dir/__/__/nrf_mesh_sdk.c.obj
                0x000206fc                mesh_assert_handler
 .text.softdevice_assert_handler
                0x0002076c       0x78 examples/light_switch/client/CMakeFiles/light_switch_client_nrf52832_xxAA_s132_3.1.0.dir/__/__/nrf_mesh_sdk.c.obj
                0x0002076c                softdevice_assert_handler
 .text.app_error_handler
                0x000207e4       0x78 examples/light_switch/client/CMakeFiles/light_switch_client_nrf52832_xxAA_s132_3.1.0.dir/__/__/nrf_mesh_sdk.c.obj
                0x000207e4                app_error_handler
 .text.HardFault_Handler
                0x0002085c       0x6c examples/light_switch/client/CMakeFiles/light_switch_client_nrf52832_xxAA_s132_3.1.0.dir/__/__/nrf_mesh_sdk.c.obj
                0x0002085c                HardFault_Handler
 .text.SWI2_EGU2_IRQHandler
                0x000208c8       0x3c examples/light_switch/client/CMakeFiles/light_switch_client_nrf52832_xxAA_s132_3.1.0.dir/__/__/nrf_mesh_sdk.c.obj
                0x000208c8                SWI2_EGU2_IRQHandler
 .text.mesh_softdevice_enable
                0x00020904      0x128 examples/light_switch/client/CMakeFiles/light_switch_client_nrf52832_xxAA_s132_3.1.0.dir/__/__/nrf_mesh_sdk.c.obj
                0x00020904                mesh_softdevice_enable
 .text.mesh_softdevice_setup
                0x00020a2c       0x88 examples/light_switch/client/CMakeFiles/light_switch_client_nrf52832_xxAA_s132_3.1.0.dir/__/__/nrf_mesh_sdk.c.obj
                0x00020a2c                mesh_softdevice_setup
 .text.mesh_core_setup
                0x00020ab4      0x15c examples/light_switch/client/CMakeFiles/light_switch_client_nrf52832_xxAA_s132_3.1.0.dir/__/__/nrf_mesh_sdk.c.obj
                0x00020ab4                mesh_core_setup
 .text.TIMER2_IRQHandler
                0x00020c10       0x30 examples/light_switch/client/CMakeFiles/light_switch_client_nrf52832_xxAA_s132_3.1.0.dir/__/__/common/src/rtt_input.c.obj
                0x00020c10                TIMER2_IRQHandler
 .text.rtt_input_enable
                0x00020c40       0x5c examples/light_switch/client/CMakeFiles/light_switch_client_nrf52832_xxAA_s132_3.1.0.dir/__/__/common/src/rtt_input.c.obj
                0x00020c40                rtt_input_enable
 .text.hal_led_pin_get
                0x00020c9c       0x18 examples/light_switch/client/CMakeFiles/light_switch_client_nrf52832_xxAA_s132_3.1.0.dir/__/__/common/src/simple_hal.c.obj
                0x00020c9c                hal_led_pin_get
 .text.hal_led_pin_set
                0x00020cb4       0x16 examples/light_switch/client/CMakeFiles/light_switch_client_nrf52832_xxAA_s132_3.1.0.dir/__/__/common/src/simple_hal.c.obj
                0x00020cb4                hal_led_pin_set
 *fill*         0x00020cca        0x2 
 .text.hal_led_blink_ms
                0x00020ccc       0xb4 examples/light_switch/client/CMakeFiles/light_switch_client_nrf52832_xxAA_s132_3.1.0.dir/__/__/common/src/simple_hal.c.obj
                0x00020ccc                hal_led_blink_ms
 .text.hal_leds_init
                0x00020d80       0x38 examples/light_switch/client/CMakeFiles/light_switch_client_nrf52832_xxAA_s132_3.1.0.dir/__/__/common/src/simple_hal.c.obj
                0x00020d80                hal_leds_init
 .text.hal_buttons_init
                0x00020db8       0x50 examples/light_switch/client/CMakeFiles/light_switch_client_nrf52832_xxAA_s132_3.1.0.dir/__/__/common/src/simple_hal.c.obj
                0x00020db8                hal_buttons_init
 .text.GPIOTE_IRQHandler
                0x00020e08       0x60 examples/light_switch/client/CMakeFiles/light_switch_client_nrf52832_xxAA_s132_3.1.0.dir/__/__/common/src/simple_hal.c.obj
                0x00020e08                GPIOTE_IRQHandler
 .text._weak_handler
                0x00020e68        0x4 examples/light_switch/client/CMakeFiles/light_switch_client_nrf52832_xxAA_s132_3.1.0.dir/__/__/nrf_mesh_weak.c.obj
                0x00020e68                nrf_mesh_dfu_init
                0x00020e68                nrf_mesh_dfu_jump_to_bootloader
                0x00020e68                nrf_mesh_dfu_rx
                0x00020e68                nrf_mesh_dfu_bank_info_get
                0x00020e68                nrf_mesh_dfu_request
                0x00020e68                nrf_mesh_dfu_bank_flash
                0x00020e68                _weak_handler
                0x00020e68                prov_provisionee_auth_data
                0x00020e68                nrf_mesh_dfu_relay
                0x00020e68                prov_provisionee_shared_secret
                0x00020e68                nrf_mesh_dfu_abort
                0x00020e68                mesh_flash_op_execute
                0x00020e68                prov_provisionee_init
                0x00020e68                nrf_mesh_dfu_state_get
 .text.reliable_status_cb
                0x00020e6c       0x48 examples/light_switch/client/CMakeFiles/light_switch_client_nrf52832_xxAA_s132_3.1.0.dir/__/__/__/models/simple_on_off/src/simple_on_off_client.c.obj
 .text.handle_status_cb
                0x00020eb4       0x5c examples/light_switch/client/CMakeFiles/light_switch_client_nrf52832_xxAA_s132_3.1.0.dir/__/__/__/models/simple_on_off/src/simple_on_off_client.c.obj
 .text.simple_on_off_client_init
                0x00020f10       0x3c examples/light_switch/client/CMakeFiles/light_switch_client_nrf52832_xxAA_s132_3.1.0.dir/__/__/__/models/simple_on_off/src/simple_on_off_client.c.obj
                0x00020f10                simple_on_off_client_init
 .text.simple_on_off_client_set
                0x00020f4c       0x70 examples/light_switch/client/CMakeFiles/light_switch_client_nrf52832_xxAA_s132_3.1.0.dir/__/__/__/models/simple_on_off/src/simple_on_off_client.c.obj
                0x00020f4c                simple_on_off_client_set
 .text.simple_on_off_client_set_unreliable
                0x00020fbc       0x50 examples/light_switch/client/CMakeFiles/light_switch_client_nrf52832_xxAA_s132_3.1.0.dir/__/__/__/models/simple_on_off/src/simple_on_off_client.c.obj
                0x00020fbc                simple_on_off_client_set_unreliable
 .text.reliable_status_cb
                0x0002100c       0x30 examples/light_switch/client/CMakeFiles/light_switch_client_nrf52832_xxAA_s132_3.1.0.dir/__/__/__/models/config/src/config_client.c.obj
 .text.send_reliable
                0x0002103c       0x64 examples/light_switch/client/CMakeFiles/light_switch_client_nrf52832_xxAA_s132_3.1.0.dir/__/__/__/models/config/src/config_client.c.obj
 .text.subscription_add_del_owr_send.isra.1
                0x000210a0       0x6c examples/light_switch/client/CMakeFiles/light_switch_client_nrf52832_xxAA_s132_3.1.0.dir/__/__/__/models/config/src/config_client.c.obj
 .text.subscription_virtual_add_del_owr_send.isra.2
                0x0002110c       0x70 examples/light_switch/client/CMakeFiles/light_switch_client_nrf52832_xxAA_s132_3.1.0.dir/__/__/__/models/config/src/config_client.c.obj
 .text.client_in_wrong_state.constprop.3
                0x0002117c       0x20 examples/light_switch/client/CMakeFiles/light_switch_client_nrf52832_xxAA_s132_3.1.0.dir/__/__/__/models/config/src/config_client.c.obj
 .text.app_bind_unbind_send
                0x0002119c       0x80 examples/light_switch/client/CMakeFiles/light_switch_client_nrf52832_xxAA_s132_3.1.0.dir/__/__/__/models/config/src/config_client.c.obj
 .text.config_opcode_handler
                0x0002121c       0x68 examples/light_switch/client/CMakeFiles/light_switch_client_nrf52832_xxAA_s132_3.1.0.dir/__/__/__/models/config/src/config_client.c.obj
 .text.config_client_init
                0x00021284       0x60 examples/light_switch/client/CMakeFiles/light_switch_client_nrf52832_xxAA_s132_3.1.0.dir/__/__/__/models/config/src/config_client.c.obj
                0x00021284                config_client_init
 .text.config_client_server_set
                0x000212e4       0x94 examples/light_switch/client/CMakeFiles/light_switch_client_nrf52832_xxAA_s132_3.1.0.dir/__/__/__/models/config/src/config_client.c.obj
                0x000212e4                config_client_server_set
 .text.config_client_server_bind
                0x00021378       0x30 examples/light_switch/client/CMakeFiles/light_switch_client_nrf52832_xxAA_s132_3.1.0.dir/__/__/__/models/config/src/config_client.c.obj
                0x00021378                config_client_server_bind
 .text.config_client_composition_data_get
                0x000213a8       0x54 examples/light_switch/client/CMakeFiles/light_switch_client_nrf52832_xxAA_s132_3.1.0.dir/__/__/__/models/config/src/config_client.c.obj
                0x000213a8                config_client_composition_data_get
 .text.config_client_appkey_add
                0x000213fc       0x94 examples/light_switch/client/CMakeFiles/light_switch_client_nrf52832_xxAA_s132_3.1.0.dir/__/__/__/models/config/src/config_client.c.obj
                0x000213fc                config_client_appkey_add
 .text.config_client_model_publication_set
                0x00021490      0x180 examples/light_switch/client/CMakeFiles/light_switch_client_nrf52832_xxAA_s132_3.1.0.dir/__/__/__/models/config/src/config_client.c.obj
                0x00021490                config_client_model_publication_set
 .text.config_client_model_subscription_add
                0x00021610       0x4c examples/light_switch/client/CMakeFiles/light_switch_client_nrf52832_xxAA_s132_3.1.0.dir/__/__/__/models/config/src/config_client.c.obj
                0x00021610                config_client_model_subscription_add
 .text.config_client_model_app_bind
                0x0002165c        0xe examples/light_switch/client/CMakeFiles/light_switch_client_nrf52832_xxAA_s132_3.1.0.dir/__/__/__/models/config/src/config_client.c.obj
                0x0002165c                config_client_model_app_bind
 .text.handle_fault_status
                0x0002166a       0x48 examples/light_switch/client/CMakeFiles/light_switch_client_nrf52832_xxAA_s132_3.1.0.dir/__/__/__/models/health/src/health_client.c.obj
 .text.handle_period_status
                0x000216b2       0x28 examples/light_switch/client/CMakeFiles/light_switch_client_nrf52832_xxAA_s132_3.1.0.dir/__/__/__/models/health/src/health_client.c.obj
 .text.handle_attention_status
                0x000216da       0x28 examples/light_switch/client/CMakeFiles/light_switch_client_nrf52832_xxAA_s132_3.1.0.dir/__/__/__/models/health/src/health_client.c.obj
 *fill*         0x00021702        0x2 
 .text.health_client_init
                0x00021704       0x54 examples/light_switch/client/CMakeFiles/light_switch_client_nrf52832_xxAA_s132_3.1.0.dir/__/__/__/models/health/src/health_client.c.obj
                0x00021704                health_client_init
 .text.add_to_publication_list
                0x00021758       0x84 examples/light_switch/client/CMakeFiles/light_switch_client_nrf52832_xxAA_s132_3.1.0.dir/__/__/__/mesh/access/src/access_publish.c.obj
 .text.step_resolution_to_us
                0x000217dc       0x44 examples/light_switch/client/CMakeFiles/light_switch_client_nrf52832_xxAA_s132_3.1.0.dir/__/__/__/mesh/access/src/access_publish.c.obj
 .text.schedule_publication_timer
                0x00021820      0x184 examples/light_switch/client/CMakeFiles/light_switch_client_nrf52832_xxAA_s132_3.1.0.dir/__/__/__/mesh/access/src/access_publish.c.obj
 .text.publish_timer_tick
                0x000219a4       0xbc examples/light_switch/client/CMakeFiles/light_switch_client_nrf52832_xxAA_s132_3.1.0.dir/__/__/__/mesh/access/src/access_publish.c.obj
 .text.access_publish_init
                0x00021a60       0x38 examples/light_switch/client/CMakeFiles/light_switch_client_nrf52832_xxAA_s132_3.1.0.dir/__/__/__/mesh/access/src/access_publish.c.obj
                0x00021a60                access_publish_init
 .text.bitfield_get
                0x00021a98       0x1a examples/light_switch/client/CMakeFiles/light_switch_client_nrf52832_xxAA_s132_3.1.0.dir/__/__/__/mesh/access/src/access.c.obj
 .text.is_valid_opcode
                0x00021ab2       0x42 examples/light_switch/client/CMakeFiles/light_switch_client_nrf52832_xxAA_s132_3.1.0.dir/__/__/__/mesh/access/src/access.c.obj
 .text.model_handle_valid_and_allocated
                0x00021af4       0x20 examples/light_switch/client/CMakeFiles/light_switch_client_nrf52832_xxAA_s132_3.1.0.dir/__/__/__/mesh/access/src/access.c.obj
 .text.flash_invalidate_complete
                0x00021b14       0x14 examples/light_switch/client/CMakeFiles/light_switch_client_nrf52832_xxAA_s132_3.1.0.dir/__/__/__/mesh/access/src/access.c.obj
 .text.flash_manager_mem_available
                0x00021b28        0x2 examples/light_switch/client/CMakeFiles/light_switch_client_nrf52832_xxAA_s132_3.1.0.dir/__/__/__/mesh/access/src/access.c.obj
 *fill*         0x00021b2a        0x2 
 .text.restore_acquired_subscription
                0x00021b2c       0x30 examples/light_switch/client/CMakeFiles/light_switch_client_nrf52832_xxAA_s132_3.1.0.dir/__/__/__/mesh/access/src/access.c.obj
 .text.restore_acquired_element
                0x00021b5c       0x20 examples/light_switch/client/CMakeFiles/light_switch_client_nrf52832_xxAA_s132_3.1.0.dir/__/__/__/mesh/access/src/access.c.obj
 .text.restore_flash_data
                0x00021b7c       0x5c examples/light_switch/client/CMakeFiles/light_switch_client_nrf52832_xxAA_s132_3.1.0.dir/__/__/__/mesh/access/src/access.c.obj
 .text.access_flash_config_clear
                0x00021bd8       0x28 examples/light_switch/client/CMakeFiles/light_switch_client_nrf52832_xxAA_s132_3.1.0.dir/__/__/__/mesh/access/src/access.c.obj
 .text.access_flash_config_store
                0x00021c00      0x150 examples/light_switch/client/CMakeFiles/light_switch_client_nrf52832_xxAA_s132_3.1.0.dir/__/__/__/mesh/access/src/access.c.obj
                0x00021c00                access_flash_config_store
 .text.access_state_clear
                0x00021d50       0x4c examples/light_switch/client/CMakeFiles/light_switch_client_nrf52832_xxAA_s132_3.1.0.dir/__/__/__/mesh/access/src/access.c.obj
 .text.add_flash_manager
                0x00021d9c       0x58 examples/light_switch/client/CMakeFiles/light_switch_client_nrf52832_xxAA_s132_3.1.0.dir/__/__/__/mesh/access/src/access.c.obj
 .text.flash_remove_complete
                0x00021df4       0x64 examples/light_switch/client/CMakeFiles/light_switch_client_nrf52832_xxAA_s132_3.1.0.dir/__/__/__/mesh/access/src/access.c.obj
 .text.flash_write_complete
                0x00021e58       0x54 examples/light_switch/client/CMakeFiles/light_switch_client_nrf52832_xxAA_s132_3.1.0.dir/__/__/__/mesh/access/src/access.c.obj
 .text.unlikely.bitfield_next_get.part.0.constprop.3
                0x00021eac       0x34 examples/light_switch/client/CMakeFiles/light_switch_client_nrf52832_xxAA_s132_3.1.0.dir/__/__/__/mesh/access/src/access.c.obj
 .text.restore_acquired_model
                0x00021ee0       0x94 examples/light_switch/client/CMakeFiles/light_switch_client_nrf52832_xxAA_s132_3.1.0.dir/__/__/__/mesh/access/src/access.c.obj
 .text.handle_incoming
                0x00021f74      0x158 examples/light_switch/client/CMakeFiles/light_switch_client_nrf52832_xxAA_s132_3.1.0.dir/__/__/__/mesh/access/src/access.c.obj
 .text.mesh_evt_cb
                0x000220cc      0x134 examples/light_switch/client/CMakeFiles/light_switch_client_nrf52832_xxAA_s132_3.1.0.dir/__/__/__/mesh/access/src/access.c.obj
 .text.packet_tx
                0x00022200      0x2c4 examples/light_switch/client/CMakeFiles/light_switch_client_nrf52832_xxAA_s132_3.1.0.dir/__/__/__/mesh/access/src/access.c.obj
 .text.access_flash_config_load
                0x000224c4      0x134 examples/light_switch/client/CMakeFiles/light_switch_client_nrf52832_xxAA_s132_3.1.0.dir/__/__/__/mesh/access/src/access.c.obj
                0x000224c4                access_flash_config_load
 .text.access_init
                0x000225f8       0x28 examples/light_switch/client/CMakeFiles/light_switch_client_nrf52832_xxAA_s132_3.1.0.dir/__/__/__/mesh/access/src/access.c.obj
                0x000225f8                access_init
 .text.access_model_add
                0x00022620      0x1bc examples/light_switch/client/CMakeFiles/light_switch_client_nrf52832_xxAA_s132_3.1.0.dir/__/__/__/mesh/access/src/access.c.obj
                0x00022620                access_model_add
 .text.access_model_publish
                0x000227dc        0xc examples/light_switch/client/CMakeFiles/light_switch_client_nrf52832_xxAA_s132_3.1.0.dir/__/__/__/mesh/access/src/access.c.obj
                0x000227dc                access_model_publish
 .text.access_model_publish_address_set
                0x000227e8       0x3c examples/light_switch/client/CMakeFiles/light_switch_client_nrf52832_xxAA_s132_3.1.0.dir/__/__/__/mesh/access/src/access.c.obj
                0x000227e8                access_model_publish_address_set
 .text.access_model_publish_address_get
                0x00022824       0x28 examples/light_switch/client/CMakeFiles/light_switch_client_nrf52832_xxAA_s132_3.1.0.dir/__/__/__/mesh/access/src/access.c.obj
                0x00022824                access_model_publish_address_get
 .text.access_model_subscription_list_alloc
                0x0002284c       0x54 examples/light_switch/client/CMakeFiles/light_switch_client_nrf52832_xxAA_s132_3.1.0.dir/__/__/__/mesh/access/src/access.c.obj
                0x0002284c                access_model_subscription_list_alloc
 .text.access_model_application_bind
                0x000228a0       0x50 examples/light_switch/client/CMakeFiles/light_switch_client_nrf52832_xxAA_s132_3.1.0.dir/__/__/__/mesh/access/src/access.c.obj
                0x000228a0                access_model_application_bind
 .text.access_model_publish_application_set
                0x000228f0       0x3c examples/light_switch/client/CMakeFiles/light_switch_client_nrf52832_xxAA_s132_3.1.0.dir/__/__/__/mesh/access/src/access.c.obj
                0x000228f0                access_model_publish_application_set
 .text.access_model_publish_ttl_get
                0x0002292c       0x28 examples/light_switch/client/CMakeFiles/light_switch_client_nrf52832_xxAA_s132_3.1.0.dir/__/__/__/mesh/access/src/access.c.obj
                0x0002292c                access_model_publish_ttl_get
 .text.access_model_p_args_get
                0x00022954       0x28 examples/light_switch/client/CMakeFiles/light_switch_client_nrf52832_xxAA_s132_3.1.0.dir/__/__/__/mesh/access/src/access.c.obj
                0x00022954                access_model_p_args_get
 .text.remove_and_reschedule
                0x0002297c       0xd0 examples/light_switch/client/CMakeFiles/light_switch_client_nrf52832_xxAA_s132_3.1.0.dir/__/__/__/mesh/access/src/access_reliable.c.obj
 .text.reliable_timer_cb
                0x00022a4c      0x148 examples/light_switch/client/CMakeFiles/light_switch_client_nrf52832_xxAA_s132_3.1.0.dir/__/__/__/mesh/access/src/access_reliable.c.obj
 .text.access_reliable_message_rx_cb
                0x00022b94       0x74 examples/light_switch/client/CMakeFiles/light_switch_client_nrf52832_xxAA_s132_3.1.0.dir/__/__/__/mesh/access/src/access_reliable.c.obj
                0x00022b94                access_reliable_message_rx_cb
 .text.access_reliable_init
                0x00022c08       0x20 examples/light_switch/client/CMakeFiles/light_switch_client_nrf52832_xxAA_s132_3.1.0.dir/__/__/__/mesh/access/src/access_reliable.c.obj
                0x00022c08                access_reliable_init
 .text.access_model_reliable_publish
                0x00022c28      0x1a8 examples/light_switch/client/CMakeFiles/light_switch_client_nrf52832_xxAA_s132_3.1.0.dir/__/__/__/mesh/access/src/access_reliable.c.obj
                0x00022c28                access_model_reliable_publish
 .text.bitfield_get
                0x00022dd0       0x1a examples/light_switch/client/CMakeFiles/light_switch_client_nrf52832_xxAA_s132_3.1.0.dir/__/__/__/mesh/access/src/device_state_manager.c.obj
 .text.bitfield_set
                0x00022dea       0x18 examples/light_switch/client/CMakeFiles/light_switch_client_nrf52832_xxAA_s132_3.1.0.dir/__/__/__/mesh/access/src/device_state_manager.c.obj
 .text.bitfield_clear
                0x00022e02       0x1a examples/light_switch/client/CMakeFiles/light_switch_client_nrf52832_xxAA_s132_3.1.0.dir/__/__/__/mesh/access/src/device_state_manager.c.obj
 .text.bitfield_is_all_clear
                0x00022e1c       0x3c examples/light_switch/client/CMakeFiles/light_switch_client_nrf52832_xxAA_s132_3.1.0.dir/__/__/__/mesh/access/src/device_state_manager.c.obj
 .text.address_handle_virtual_valid
                0x00022e58       0x14 examples/light_switch/client/CMakeFiles/light_switch_client_nrf52832_xxAA_s132_3.1.0.dir/__/__/__/mesh/access/src/device_state_manager.c.obj
 .text.net_key_handle_get
                0x00022e6c       0x38 examples/light_switch/client/CMakeFiles/light_switch_client_nrf52832_xxAA_s132_3.1.0.dir/__/__/__/mesh/access/src/device_state_manager.c.obj
 .text.dev_key_handle_get
                0x00022ea4       0x58 examples/light_switch/client/CMakeFiles/light_switch_client_nrf52832_xxAA_s132_3.1.0.dir/__/__/__/mesh/access/src/device_state_manager.c.obj
 .text.app_key_handle_get
                0x00022efc       0x38 examples/light_switch/client/CMakeFiles/light_switch_client_nrf52832_xxAA_s132_3.1.0.dir/__/__/__/mesh/access/src/device_state_manager.c.obj
 .text.get_subnet_handle
                0x00022f34       0x40 examples/light_switch/client/CMakeFiles/light_switch_client_nrf52832_xxAA_s132_3.1.0.dir/__/__/__/mesh/access/src/device_state_manager.c.obj
 .text.addr_nonvirtual_to_flash_entry
                0x00022f74       0x10 examples/light_switch/client/CMakeFiles/light_switch_client_nrf52832_xxAA_s132_3.1.0.dir/__/__/__/mesh/access/src/device_state_manager.c.obj
 .text.flash_mem_listener_callback
                0x00022f84       0x20 examples/light_switch/client/CMakeFiles/light_switch_client_nrf52832_xxAA_s132_3.1.0.dir/__/__/__/mesh/access/src/device_state_manager.c.obj
 .text.devkey_set
                0x00022fa4       0x4c examples/light_switch/client/CMakeFiles/light_switch_client_nrf52832_xxAA_s132_3.1.0.dir/__/__/__/mesh/access/src/device_state_manager.c.obj
 .text.devkey_to_dsm_entry
                0x00022ff0       0x16 examples/light_switch/client/CMakeFiles/light_switch_client_nrf52832_xxAA_s132_3.1.0.dir/__/__/__/mesh/access/src/device_state_manager.c.obj
 *fill*         0x00023006        0x2 
 .text.devkey_to_flash_entry
                0x00023008       0x28 examples/light_switch/client/CMakeFiles/light_switch_client_nrf52832_xxAA_s132_3.1.0.dir/__/__/__/mesh/access/src/device_state_manager.c.obj
 .text.addr_virtual_to_flash_entry
                0x00023030       0x18 examples/light_switch/client/CMakeFiles/light_switch_client_nrf52832_xxAA_s132_3.1.0.dir/__/__/__/mesh/access/src/device_state_manager.c.obj
 .text.addr_unicast_to_dsm_entry
                0x00023048        0xc examples/light_switch/client/CMakeFiles/light_switch_client_nrf52832_xxAA_s132_3.1.0.dir/__/__/__/mesh/access/src/device_state_manager.c.obj
 .text.addr_unicast_to_flash_entry
                0x00023054       0x10 examples/light_switch/client/CMakeFiles/light_switch_client_nrf52832_xxAA_s132_3.1.0.dir/__/__/__/mesh/access/src/device_state_manager.c.obj
 .text.appkey_set
                0x00023064       0x7c examples/light_switch/client/CMakeFiles/light_switch_client_nrf52832_xxAA_s132_3.1.0.dir/__/__/__/mesh/access/src/device_state_manager.c.obj
 .text.appkey_to_flash_entry
                0x000230e0       0x54 examples/light_switch/client/CMakeFiles/light_switch_client_nrf52832_xxAA_s132_3.1.0.dir/__/__/__/mesh/access/src/device_state_manager.c.obj
 .text.subnet_to_flash_entry
                0x00023134       0x60 examples/light_switch/client/CMakeFiles/light_switch_client_nrf52832_xxAA_s132_3.1.0.dir/__/__/__/mesh/access/src/device_state_manager.c.obj
 .text.subnet_set
                0x00023194       0xb4 examples/light_switch/client/CMakeFiles/light_switch_client_nrf52832_xxAA_s132_3.1.0.dir/__/__/__/mesh/access/src/device_state_manager.c.obj
 .text.virtual_address_set
                0x00023248       0x54 examples/light_switch/client/CMakeFiles/light_switch_client_nrf52832_xxAA_s132_3.1.0.dir/__/__/__/mesh/access/src/device_state_manager.c.obj
 .text.addr_virtual_to_dsm_entry
                0x0002329c        0xc examples/light_switch/client/CMakeFiles/light_switch_client_nrf52832_xxAA_s132_3.1.0.dir/__/__/__/mesh/access/src/device_state_manager.c.obj
 .text.reset_flash_area
                0x000232a8       0x28 examples/light_switch/client/CMakeFiles/light_switch_client_nrf52832_xxAA_s132_3.1.0.dir/__/__/__/mesh/access/src/device_state_manager.c.obj
 .text.flash_save
                0x000232d0       0x88 examples/light_switch/client/CMakeFiles/light_switch_client_nrf52832_xxAA_s132_3.1.0.dir/__/__/__/mesh/access/src/device_state_manager.c.obj
 .text.flash_invalidate
                0x00023358       0x70 examples/light_switch/client/CMakeFiles/light_switch_client_nrf52832_xxAA_s132_3.1.0.dir/__/__/__/mesh/access/src/device_state_manager.c.obj
 .text.flash_update_all
                0x000233c8       0x6c examples/light_switch/client/CMakeFiles/light_switch_client_nrf52832_xxAA_s132_3.1.0.dir/__/__/__/mesh/access/src/device_state_manager.c.obj
 .text.virtual_address_uuid_index_get
                0x00023434       0x3c examples/light_switch/client/CMakeFiles/light_switch_client_nrf52832_xxAA_s132_3.1.0.dir/__/__/__/mesh/access/src/device_state_manager.c.obj
 .text.get_subnet_handle_by_beacon_info
                0x00023470       0x30 examples/light_switch/client/CMakeFiles/light_switch_client_nrf52832_xxAA_s132_3.1.0.dir/__/__/__/mesh/access/src/device_state_manager.c.obj
 .text.get_app_handle
                0x000234a0       0x4c examples/light_switch/client/CMakeFiles/light_switch_client_nrf52832_xxAA_s132_3.1.0.dir/__/__/__/mesh/access/src/device_state_manager.c.obj
 .text.appkey_to_dsm_entry
                0x000234ec       0x80 examples/light_switch/client/CMakeFiles/light_switch_client_nrf52832_xxAA_s132_3.1.0.dir/__/__/__/mesh/access/src/device_state_manager.c.obj
 .text.subnet_to_dsm_entry
                0x0002356c       0x7c examples/light_switch/client/CMakeFiles/light_switch_client_nrf52832_xxAA_s132_3.1.0.dir/__/__/__/mesh/access/src/device_state_manager.c.obj
 .text.flash_operation_complete
                0x000235e8       0x58 examples/light_switch/client/CMakeFiles/light_switch_client_nrf52832_xxAA_s132_3.1.0.dir/__/__/__/mesh/access/src/device_state_manager.c.obj
 .text.flash_invalidate_complete
                0x00023640        0x8 examples/light_switch/client/CMakeFiles/light_switch_client_nrf52832_xxAA_s132_3.1.0.dir/__/__/__/mesh/access/src/device_state_manager.c.obj
 .text.flash_write_complete
                0x00023648        0x8 examples/light_switch/client/CMakeFiles/light_switch_client_nrf52832_xxAA_s132_3.1.0.dir/__/__/__/mesh/access/src/device_state_manager.c.obj
 .text.add_address.part.7
                0x00023650      0x144 examples/light_switch/client/CMakeFiles/light_switch_client_nrf52832_xxAA_s132_3.1.0.dir/__/__/__/mesh/access/src/device_state_manager.c.obj
 .text.address_handle_valid
                0x00023794       0x28 examples/light_switch/client/CMakeFiles/light_switch_client_nrf52832_xxAA_s132_3.1.0.dir/__/__/__/mesh/access/src/device_state_manager.c.obj
 .text.address_handle_nonvirtual_valid
                0x000237bc       0x14 examples/light_switch/client/CMakeFiles/light_switch_client_nrf52832_xxAA_s132_3.1.0.dir/__/__/__/mesh/access/src/device_state_manager.c.obj
 .text.address_delete_if_unused
                0x000237d0       0x78 examples/light_switch/client/CMakeFiles/light_switch_client_nrf52832_xxAA_s132_3.1.0.dir/__/__/__/mesh/access/src/device_state_manager.c.obj
 .text.addr_nonvirtual_to_dsm_entry
                0x00023848       0x38 examples/light_switch/client/CMakeFiles/light_switch_client_nrf52832_xxAA_s132_3.1.0.dir/__/__/__/mesh/access/src/device_state_manager.c.obj
 .text.dsm_flash_config_load
                0x00023880      0x134 examples/light_switch/client/CMakeFiles/light_switch_client_nrf52832_xxAA_s132_3.1.0.dir/__/__/__/mesh/access/src/device_state_manager.c.obj
                0x00023880                dsm_flash_config_load
 .text.dsm_flash_area_get
                0x000239b4        0xc examples/light_switch/client/CMakeFiles/light_switch_client_nrf52832_xxAA_s132_3.1.0.dir/__/__/__/mesh/access/src/device_state_manager.c.obj
                0x000239b4                dsm_flash_area_get
 .text.build_flash_area
                0x000239c0       0x8c examples/light_switch/client/CMakeFiles/light_switch_client_nrf52832_xxAA_s132_3.1.0.dir/__/__/__/mesh/access/src/device_state_manager.c.obj
 .text.flash_remove_complete
                0x00023a4c        0x4 examples/light_switch/client/CMakeFiles/light_switch_client_nrf52832_xxAA_s132_3.1.0.dir/__/__/__/mesh/access/src/device_state_manager.c.obj
 .text.dsm_init
                0x00023a50       0x24 examples/light_switch/client/CMakeFiles/light_switch_client_nrf52832_xxAA_s132_3.1.0.dir/__/__/__/mesh/access/src/device_state_manager.c.obj
                0x00023a50                dsm_init
 .text.dsm_local_unicast_addresses_set
                0x00023a74       0x84 examples/light_switch/client/CMakeFiles/light_switch_client_nrf52832_xxAA_s132_3.1.0.dir/__/__/__/mesh/access/src/device_state_manager.c.obj
                0x00023a74                dsm_local_unicast_addresses_set
 .text.dsm_local_unicast_addresses_get
                0x00023af8       0x2c examples/light_switch/client/CMakeFiles/light_switch_client_nrf52832_xxAA_s132_3.1.0.dir/__/__/__/mesh/access/src/device_state_manager.c.obj
                0x00023af8                dsm_local_unicast_addresses_get
 .text.dsm_address_publish_add
                0x00023b24        0xc examples/light_switch/client/CMakeFiles/light_switch_client_nrf52832_xxAA_s132_3.1.0.dir/__/__/__/mesh/access/src/device_state_manager.c.obj
                0x00023b24                dsm_address_publish_add
 .text.dsm_address_publish_add_handle
                0x00023b30       0x38 examples/light_switch/client/CMakeFiles/light_switch_client_nrf52832_xxAA_s132_3.1.0.dir/__/__/__/mesh/access/src/device_state_manager.c.obj
                0x00023b30                dsm_address_publish_add_handle
 .text.dsm_address_publish_remove
                0x00023b68       0x40 examples/light_switch/client/CMakeFiles/light_switch_client_nrf52832_xxAA_s132_3.1.0.dir/__/__/__/mesh/access/src/device_state_manager.c.obj
                0x00023b68                dsm_address_publish_remove
 .text.dsm_address_subscription_add_handle
                0x00023ba8       0x38 examples/light_switch/client/CMakeFiles/light_switch_client_nrf52832_xxAA_s132_3.1.0.dir/__/__/__/mesh/access/src/device_state_manager.c.obj
                0x00023ba8                dsm_address_subscription_add_handle
 .text.dsm_address_subscription_get
                0x00023be0       0x34 examples/light_switch/client/CMakeFiles/light_switch_client_nrf52832_xxAA_s132_3.1.0.dir/__/__/__/mesh/access/src/device_state_manager.c.obj
                0x00023be0                dsm_address_subscription_get
 .text.dsm_address_get
                0x00023c14       0x5c examples/light_switch/client/CMakeFiles/light_switch_client_nrf52832_xxAA_s132_3.1.0.dir/__/__/__/mesh/access/src/device_state_manager.c.obj
                0x00023c14                dsm_address_get
 .text.dsm_address_get_all
                0x00023c70       0x64 examples/light_switch/client/CMakeFiles/light_switch_client_nrf52832_xxAA_s132_3.1.0.dir/__/__/__/mesh/access/src/device_state_manager.c.obj
                0x00023c70                dsm_address_get_all
 .text.dsm_address_handle_get
                0x00023cd4       0x98 examples/light_switch/client/CMakeFiles/light_switch_client_nrf52832_xxAA_s132_3.1.0.dir/__/__/__/mesh/access/src/device_state_manager.c.obj
                0x00023cd4                dsm_address_handle_get
 .text.dsm_appkey_handle_get
                0x00023d6c        0xc examples/light_switch/client/CMakeFiles/light_switch_client_nrf52832_xxAA_s132_3.1.0.dir/__/__/__/mesh/access/src/device_state_manager.c.obj
                0x00023d6c                dsm_appkey_handle_get
 .text.dsm_subnet_add
                0x00023d78       0x58 examples/light_switch/client/CMakeFiles/light_switch_client_nrf52832_xxAA_s132_3.1.0.dir/__/__/__/mesh/access/src/device_state_manager.c.obj
                0x00023d78                dsm_subnet_add
 .text.dsm_subnet_update_swap_keys
                0x00023dd0       0x50 examples/light_switch/client/CMakeFiles/light_switch_client_nrf52832_xxAA_s132_3.1.0.dir/__/__/__/mesh/access/src/device_state_manager.c.obj
                0x00023dd0                dsm_subnet_update_swap_keys
 .text.dsm_subnet_update_commit
                0x00023e20       0xb8 examples/light_switch/client/CMakeFiles/light_switch_client_nrf52832_xxAA_s132_3.1.0.dir/__/__/__/mesh/access/src/device_state_manager.c.obj
                0x00023e20                dsm_subnet_update_commit
 .text.net_beacon_callback
                0x00023ed8       0x74 examples/light_switch/client/CMakeFiles/light_switch_client_nrf52832_xxAA_s132_3.1.0.dir/__/__/__/mesh/access/src/device_state_manager.c.obj
 .text.dsm_subnet_get_all
                0x00023f4c       0x3c examples/light_switch/client/CMakeFiles/light_switch_client_nrf52832_xxAA_s132_3.1.0.dir/__/__/__/mesh/access/src/device_state_manager.c.obj
                0x00023f4c                dsm_subnet_get_all
 .text.dsm_devkey_add
                0x00023f88       0x78 examples/light_switch/client/CMakeFiles/light_switch_client_nrf52832_xxAA_s132_3.1.0.dir/__/__/__/mesh/access/src/device_state_manager.c.obj
                0x00023f88                dsm_devkey_add
 .text.dsm_devkey_delete
                0x00024000       0x40 examples/light_switch/client/CMakeFiles/light_switch_client_nrf52832_xxAA_s132_3.1.0.dir/__/__/__/mesh/access/src/device_state_manager.c.obj
                0x00024000                dsm_devkey_delete
 .text.dsm_devkey_handle_get
                0x00024040       0x34 examples/light_switch/client/CMakeFiles/light_switch_client_nrf52832_xxAA_s132_3.1.0.dir/__/__/__/mesh/access/src/device_state_manager.c.obj
                0x00024040                dsm_devkey_handle_get
 .text.dsm_appkey_add
                0x00024074       0x70 examples/light_switch/client/CMakeFiles/light_switch_client_nrf52832_xxAA_s132_3.1.0.dir/__/__/__/mesh/access/src/device_state_manager.c.obj
                0x00024074                dsm_appkey_add
 .text.dsm_appkey_get_all
                0x000240e4       0x58 examples/light_switch/client/CMakeFiles/light_switch_client_nrf52832_xxAA_s132_3.1.0.dir/__/__/__/mesh/access/src/device_state_manager.c.obj
                0x000240e4                dsm_appkey_get_all
 .text.dsm_tx_secmat_get
                0x0002413c      0x104 examples/light_switch/client/CMakeFiles/light_switch_client_nrf52832_xxAA_s132_3.1.0.dir/__/__/__/mesh/access/src/device_state_manager.c.obj
                0x0002413c                dsm_tx_secmat_get
 .text.nrf_mesh_net_secmat_next_get
                0x00024240       0xa4 examples/light_switch/client/CMakeFiles/light_switch_client_nrf52832_xxAA_s132_3.1.0.dir/__/__/__/mesh/access/src/device_state_manager.c.obj
                0x00024240                nrf_mesh_net_secmat_next_get
 .text.nrf_mesh_app_secmat_next_get
                0x000242e4       0x84 examples/light_switch/client/CMakeFiles/light_switch_client_nrf52832_xxAA_s132_3.1.0.dir/__/__/__/mesh/access/src/device_state_manager.c.obj
                0x000242e4                nrf_mesh_app_secmat_next_get
 .text.nrf_mesh_devkey_secmat_get
                0x00024368       0x50 examples/light_switch/client/CMakeFiles/light_switch_client_nrf52832_xxAA_s132_3.1.0.dir/__/__/__/mesh/access/src/device_state_manager.c.obj
                0x00024368                nrf_mesh_devkey_secmat_get
 .text.nrf_mesh_beacon_info_next_get
                0x000243b8       0xc8 examples/light_switch/client/CMakeFiles/light_switch_client_nrf52832_xxAA_s132_3.1.0.dir/__/__/__/mesh/access/src/device_state_manager.c.obj
                0x000243b8                nrf_mesh_beacon_info_next_get
 .text.nrf_mesh_rx_address_get
                0x00024480       0xfc examples/light_switch/client/CMakeFiles/light_switch_client_nrf52832_xxAA_s132_3.1.0.dir/__/__/__/mesh/access/src/device_state_manager.c.obj
                0x00024480                nrf_mesh_rx_address_get
 .text.prov_provisioner_cb_link_closed
                0x0002457c       0x2a examples/light_switch/client/CMakeFiles/light_switch_client_nrf52832_xxAA_s132_3.1.0.dir/__/__/__/mesh/prov/src/prov_provisioner.c.obj
 .text.prov_provisioner_cb_link_established
                0x000245a6       0x3e examples/light_switch/client/CMakeFiles/light_switch_client_nrf52832_xxAA_s132_3.1.0.dir/__/__/__/mesh/prov/src/prov_provisioner.c.obj
 .text.prov_provisioner_cb_ack_received
                0x000245e4       0x48 examples/light_switch/client/CMakeFiles/light_switch_client_nrf52832_xxAA_s132_3.1.0.dir/__/__/__/mesh/prov/src/prov_provisioner.c.obj
 .text.send_confirmation
                0x0002462c       0x26 examples/light_switch/client/CMakeFiles/light_switch_client_nrf52832_xxAA_s132_3.1.0.dir/__/__/__/mesh/prov/src/prov_provisioner.c.obj
 .text.request_authentication
                0x00024652       0x8a examples/light_switch/client/CMakeFiles/light_switch_client_nrf52832_xxAA_s132_3.1.0.dir/__/__/__/mesh/prov/src/prov_provisioner.c.obj
 .text.prov_provisioner_pkt_in
                0x000246dc      0x2a4 examples/light_switch/client/CMakeFiles/light_switch_client_nrf52832_xxAA_s132_3.1.0.dir/__/__/__/mesh/prov/src/prov_provisioner.c.obj
 .text.prov_provisioner_provision
                0x00024980       0x44 examples/light_switch/client/CMakeFiles/light_switch_client_nrf52832_xxAA_s132_3.1.0.dir/__/__/__/mesh/prov/src/prov_provisioner.c.obj
                0x00024980                prov_provisioner_provision
 .text.prov_provisioner_oob_use
                0x000249c4       0x7e examples/light_switch/client/CMakeFiles/light_switch_client_nrf52832_xxAA_s132_3.1.0.dir/__/__/__/mesh/prov/src/prov_provisioner.c.obj
                0x000249c4                prov_provisioner_oob_use
 .text.prov_provisioner_auth_data
                0x00024a42       0x44 examples/light_switch/client/CMakeFiles/light_switch_client_nrf52832_xxAA_s132_3.1.0.dir/__/__/__/mesh/prov/src/prov_provisioner.c.obj
                0x00024a42                prov_provisioner_auth_data
 .text.bearer_compare_callback
                0x00024a86        0xc examples/light_switch/client/CMakeFiles/light_switch_client_nrf52832_xxAA_s132_3.1.0.dir/__/__/__/mesh/prov/src/nrf_mesh_prov.c.obj
 .text.nrf_mesh_prov_init
                0x00024a92       0x32 examples/light_switch/client/CMakeFiles/light_switch_client_nrf52832_xxAA_s132_3.1.0.dir/__/__/__/mesh/prov/src/nrf_mesh_prov.c.obj
                0x00024a92                nrf_mesh_prov_init
 .text.nrf_mesh_prov_bearer_add
                0x00024ac4       0x20 examples/light_switch/client/CMakeFiles/light_switch_client_nrf52832_xxAA_s132_3.1.0.dir/__/__/__/mesh/prov/src/nrf_mesh_prov.c.obj
                0x00024ac4                nrf_mesh_prov_bearer_add
 .text.nrf_mesh_prov_generate_keys
                0x00024ae4        0x4 examples/light_switch/client/CMakeFiles/light_switch_client_nrf52832_xxAA_s132_3.1.0.dir/__/__/__/mesh/prov/src/nrf_mesh_prov.c.obj
                0x00024ae4                nrf_mesh_prov_generate_keys
 .text.nrf_mesh_prov_provision
                0x00024ae8       0x4e examples/light_switch/client/CMakeFiles/light_switch_client_nrf52832_xxAA_s132_3.1.0.dir/__/__/__/mesh/prov/src/nrf_mesh_prov.c.obj
                0x00024ae8                nrf_mesh_prov_provision
 .text.nrf_mesh_prov_oob_use
                0x00024b36       0x18 examples/light_switch/client/CMakeFiles/light_switch_client_nrf52832_xxAA_s132_3.1.0.dir/__/__/__/mesh/prov/src/nrf_mesh_prov.c.obj
                0x00024b36                nrf_mesh_prov_oob_use
 .text.nrf_mesh_prov_auth_data_provide
                0x00024b4e        0xe examples/light_switch/client/CMakeFiles/light_switch_client_nrf52832_xxAA_s132_3.1.0.dir/__/__/__/mesh/prov/src/nrf_mesh_prov.c.obj
                0x00024b4e                nrf_mesh_prov_auth_data_provide
 .text.nrf_mesh_prov_scan_start
                0x00024b5c       0x10 examples/light_switch/client/CMakeFiles/light_switch_client_nrf52832_xxAA_s132_3.1.0.dir/__/__/__/mesh/prov/src/nrf_mesh_prov.c.obj
                0x00024b5c                nrf_mesh_prov_scan_start
 .text.send_data
                0x00024b6c       0x3c examples/light_switch/client/CMakeFiles/light_switch_client_nrf52832_xxAA_s132_3.1.0.dir/__/__/__/mesh/prov/src/provisioning.c.obj
 .text.prov_packet_length_valid
                0x00024ba8       0x1c examples/light_switch/client/CMakeFiles/light_switch_client_nrf52832_xxAA_s132_3.1.0.dir/__/__/__/mesh/prov/src/provisioning.c.obj
                0x00024ba8                prov_packet_length_valid
 .text.prov_tx_invite
                0x00024bc4       0x28 examples/light_switch/client/CMakeFiles/light_switch_client_nrf52832_xxAA_s132_3.1.0.dir/__/__/__/mesh/prov/src/provisioning.c.obj
                0x00024bc4                prov_tx_invite
 .text.prov_tx_start
                0x00024bec       0x20 examples/light_switch/client/CMakeFiles/light_switch_client_nrf52832_xxAA_s132_3.1.0.dir/__/__/__/mesh/prov/src/provisioning.c.obj
                0x00024bec                prov_tx_start
 .text.prov_tx_public_key
                0x00024c0c       0x26 examples/light_switch/client/CMakeFiles/light_switch_client_nrf52832_xxAA_s132_3.1.0.dir/__/__/__/mesh/prov/src/provisioning.c.obj
                0x00024c0c                prov_tx_public_key
 .text.prov_tx_confirmation
                0x00024c32       0x26 examples/light_switch/client/CMakeFiles/light_switch_client_nrf52832_xxAA_s132_3.1.0.dir/__/__/__/mesh/prov/src/provisioning.c.obj
                0x00024c32                prov_tx_confirmation
 .text.prov_tx_random
                0x00024c58       0x26 examples/light_switch/client/CMakeFiles/light_switch_client_nrf52832_xxAA_s132_3.1.0.dir/__/__/__/mesh/prov/src/provisioning.c.obj
                0x00024c58                prov_tx_random
 .text.prov_tx_data
                0x00024c7e        0x6 examples/light_switch/client/CMakeFiles/light_switch_client_nrf52832_xxAA_s132_3.1.0.dir/__/__/__/mesh/prov/src/provisioning.c.obj
                0x00024c7e                prov_tx_data
 .text.prov_beacon_unprov_build
                0x00024c84       0x54 examples/light_switch/client/CMakeFiles/light_switch_client_nrf52832_xxAA_s132_3.1.0.dir/__/__/__/mesh/prov/src/prov_beacon.c.obj
                0x00024c84                prov_beacon_unprov_build
 .text.prov_beacon_unprov_packet_in
                0x00024cd8       0x9c examples/light_switch/client/CMakeFiles/light_switch_client_nrf52832_xxAA_s132_3.1.0.dir/__/__/__/mesh/prov/src/prov_beacon.c.obj
                0x00024cd8                prov_beacon_unprov_packet_in
 .text.prov_beacon_scan_start
                0x00024d74       0x24 examples/light_switch/client/CMakeFiles/light_switch_client_nrf52832_xxAA_s132_3.1.0.dir/__/__/__/mesh/prov/src/prov_beacon.c.obj
                0x00024d74                prov_beacon_scan_start
 .text.oob_gen_alphanumeric
                0x00024d98       0x34 examples/light_switch/client/CMakeFiles/light_switch_client_nrf52832_xxAA_s132_3.1.0.dir/__/__/__/mesh/prov/src/prov_utils.c.obj
 .text.oob_gen_numeric
                0x00024dcc       0x3c examples/light_switch/client/CMakeFiles/light_switch_client_nrf52832_xxAA_s132_3.1.0.dir/__/__/__/mesh/prov/src/prov_utils.c.obj
 .text.prov_utils_opt_get
                0x00024e08       0x1c examples/light_switch/client/CMakeFiles/light_switch_client_nrf52832_xxAA_s132_3.1.0.dir/__/__/__/mesh/prov/src/prov_utils.c.obj
                0x00024e08                prov_utils_opt_get
 .text.prov_utils_use_ecdh_offloading
                0x00024e24        0xc examples/light_switch/client/CMakeFiles/light_switch_client_nrf52832_xxAA_s132_3.1.0.dir/__/__/__/mesh/prov/src/prov_utils.c.obj
                0x00024e24                prov_utils_use_ecdh_offloading
 .text.prov_utils_authentication_values_derive
                0x00024e30       0xa0 examples/light_switch/client/CMakeFiles/light_switch_client_nrf52832_xxAA_s132_3.1.0.dir/__/__/__/mesh/prov/src/prov_utils.c.obj
                0x00024e30                prov_utils_authentication_values_derive
 .text.prov_utils_keys_generate
                0x00024ed0       0x1e examples/light_switch/client/CMakeFiles/light_switch_client_nrf52832_xxAA_s132_3.1.0.dir/__/__/__/mesh/prov/src/prov_utils.c.obj
                0x00024ed0                prov_utils_keys_generate
 *fill*         0x00024eee        0x2 
 .text.prov_utils_derive_keys
                0x00024ef0       0xac examples/light_switch/client/CMakeFiles/light_switch_client_nrf52832_xxAA_s132_3.1.0.dir/__/__/__/mesh/prov/src/prov_utils.c.obj
                0x00024ef0                prov_utils_derive_keys
 .text.prov_utils_calculate_shared_secret
                0x00024f9c       0x36 examples/light_switch/client/CMakeFiles/light_switch_client_nrf52832_xxAA_s132_3.1.0.dir/__/__/__/mesh/prov/src/prov_utils.c.obj
                0x00024f9c                prov_utils_calculate_shared_secret
 *fill*         0x00024fd2        0x2 
 .text.prov_utils_generate_oob_data
                0x00024fd4       0x98 examples/light_switch/client/CMakeFiles/light_switch_client_nrf52832_xxAA_s132_3.1.0.dir/__/__/__/mesh/prov/src/prov_utils.c.obj
                0x00024fd4                prov_utils_generate_oob_data
 .text.prov_utils_confirmation_check
                0x0002506c       0x5c examples/light_switch/client/CMakeFiles/light_switch_client_nrf52832_xxAA_s132_3.1.0.dir/__/__/__/mesh/prov/src/prov_utils.c.obj
                0x0002506c                prov_utils_confirmation_check
 .text.link_timeout_cb
                0x000250c8       0x10 examples/light_switch/client/CMakeFiles/light_switch_client_nrf52832_xxAA_s132_3.1.0.dir/__/__/__/mesh/prov/src/prov_bearer_adv.c.obj
 .text.remove_active_bearer
                0x000250d8       0x60 examples/light_switch/client/CMakeFiles/light_switch_client_nrf52832_xxAA_s132_3.1.0.dir/__/__/__/mesh/prov/src/prov_bearer_adv.c.obj
 .text.close_link
                0x00025138       0x6c examples/light_switch/client/CMakeFiles/light_switch_client_nrf52832_xxAA_s132_3.1.0.dir/__/__/__/mesh/prov/src/prov_bearer_adv.c.obj
 .text.prov_bearer_adv_listen_stop
                0x000251a4       0x3c examples/light_switch/client/CMakeFiles/light_switch_client_nrf52832_xxAA_s132_3.1.0.dir/__/__/__/mesh/prov/src/prov_bearer_adv.c.obj
 .text.send_packet
                0x000251e0       0x6c examples/light_switch/client/CMakeFiles/light_switch_client_nrf52832_xxAA_s132_3.1.0.dir/__/__/__/mesh/prov/src/prov_bearer_adv.c.obj
 .text.prov_buffer_tx
                0x0002524c      0x158 examples/light_switch/client/CMakeFiles/light_switch_client_nrf52832_xxAA_s132_3.1.0.dir/__/__/__/mesh/prov/src/prov_bearer_adv.c.obj
 .text.send_link_close
                0x000253a4       0x38 examples/light_switch/client/CMakeFiles/light_switch_client_nrf52832_xxAA_s132_3.1.0.dir/__/__/__/mesh/prov/src/prov_bearer_adv.c.obj
 .text.prov_bearer_adv_link_close
                0x000253dc       0x74 examples/light_switch/client/CMakeFiles/light_switch_client_nrf52832_xxAA_s132_3.1.0.dir/__/__/__/mesh/prov/src/prov_bearer_adv.c.obj
 .text.send_transaction_ack
                0x00025450       0x24 examples/light_switch/client/CMakeFiles/light_switch_client_nrf52832_xxAA_s132_3.1.0.dir/__/__/__/mesh/prov/src/prov_bearer_adv.c.obj
 .text.send_link_ack
                0x00025474       0x32 examples/light_switch/client/CMakeFiles/light_switch_client_nrf52832_xxAA_s132_3.1.0.dir/__/__/__/mesh/prov/src/prov_bearer_adv.c.obj
 .text.reset_timeout_timer
                0x000254a6       0x1a examples/light_switch/client/CMakeFiles/light_switch_client_nrf52832_xxAA_s132_3.1.0.dir/__/__/__/mesh/prov/src/prov_bearer_adv.c.obj
 .text.tx_complete_cb
                0x000254c0       0x1c examples/light_switch/client/CMakeFiles/light_switch_client_nrf52832_xxAA_s132_3.1.0.dir/__/__/__/mesh/prov/src/prov_bearer_adv.c.obj
 .text.tx_retry_cb
                0x000254dc       0xcc examples/light_switch/client/CMakeFiles/light_switch_client_nrf52832_xxAA_s132_3.1.0.dir/__/__/__/mesh/prov/src/prov_bearer_adv.c.obj
 .text.add_active_bearer
                0x000255a8       0x80 examples/light_switch/client/CMakeFiles/light_switch_client_nrf52832_xxAA_s132_3.1.0.dir/__/__/__/mesh/prov/src/prov_bearer_adv.c.obj
 .text.prov_bearer_adv_link_open
                0x00025628       0xf8 examples/light_switch/client/CMakeFiles/light_switch_client_nrf52832_xxAA_s132_3.1.0.dir/__/__/__/mesh/prov/src/prov_bearer_adv.c.obj
 .text.async_process
                0x00025720       0x50 examples/light_switch/client/CMakeFiles/light_switch_client_nrf52832_xxAA_s132_3.1.0.dir/__/__/__/mesh/prov/src/prov_bearer_adv.c.obj
 .text.prov_bearer_adv_listen
                0x00025770       0xec examples/light_switch/client/CMakeFiles/light_switch_client_nrf52832_xxAA_s132_3.1.0.dir/__/__/__/mesh/prov/src/prov_bearer_adv.c.obj
 .text.calculate_3GPP_CRC
                0x0002585c       0x24 examples/light_switch/client/CMakeFiles/light_switch_client_nrf52832_xxAA_s132_3.1.0.dir/__/__/__/mesh/prov/src/prov_bearer_adv.c.obj
                0x0002585c                calculate_3GPP_CRC
 .text.prov_bearer_adv_tx
                0x00025880       0xb4 examples/light_switch/client/CMakeFiles/light_switch_client_nrf52832_xxAA_s132_3.1.0.dir/__/__/__/mesh/prov/src/prov_bearer_adv.c.obj
 .text.prov_buffer_rx
                0x00025934       0x7c examples/light_switch/client/CMakeFiles/light_switch_client_nrf52832_xxAA_s132_3.1.0.dir/__/__/__/mesh/prov/src/prov_bearer_adv.c.obj
 .text.nrf_mesh_prov_bearer_adv_interface_get
                0x000259b0       0x48 examples/light_switch/client/CMakeFiles/light_switch_client_nrf52832_xxAA_s132_3.1.0.dir/__/__/__/mesh/prov/src/prov_bearer_adv.c.obj
                0x000259b0                nrf_mesh_prov_bearer_adv_interface_get
 .text.prov_bearer_adv_packet_in
                0x000259f8      0x80c examples/light_switch/client/CMakeFiles/light_switch_client_nrf52832_xxAA_s132_3.1.0.dir/__/__/__/mesh/prov/src/prov_bearer_adv.c.obj
                0x000259f8                prov_bearer_adv_packet_in
 .text.errata_57
                0x00026204       0x34 examples/light_switch/client/CMakeFiles/light_switch_client_nrf52832_xxAA_s132_3.1.0.dir/__/__/__/external/nRF5_SDK_14.2.0_17b948a/components/toolchain/system_nrf52.c.obj
 .text.errata_136
                0x00026238       0x40 examples/light_switch/client/CMakeFiles/light_switch_client_nrf52832_xxAA_s132_3.1.0.dir/__/__/__/external/nRF5_SDK_14.2.0_17b948a/components/toolchain/system_nrf52.c.obj
 .text.SystemInit
                0x00026278      0x238 examples/light_switch/client/CMakeFiles/light_switch_client_nrf52832_xxAA_s132_3.1.0.dir/__/__/__/external/nRF5_SDK_14.2.0_17b948a/components/toolchain/system_nrf52.c.obj
                0x00026278                SystemInit
 .text          0x000264b0       0x3c examples/light_switch/client/CMakeFiles/light_switch_client_nrf52832_xxAA_s132_3.1.0.dir/__/__/__/external/nRF5_SDK_14.2.0_17b948a/components/toolchain/gcc/gcc_startup_nrf52.S.obj
                0x000264b0                Reset_Handler
                0x000264d8                NMI_Handler
                0x000264dc                MemoryManagement_Handler
                0x000264de                BusFault_Handler
                0x000264e0                UsageFault_Handler
                0x000264e2                SVC_Handler
                0x000264e4                DebugMon_Handler
                0x000264e6                PendSV_Handler
                0x000264e8                SysTick_Handler
                0x000264ea                PDM_IRQHandler
                0x000264ea                TEMP_IRQHandler
                0x000264ea                TIMER3_IRQHandler
                0x000264ea                FPU_IRQHandler
                0x000264ea                SPIM0_SPIS0_TWIM0_TWIS0_SPI0_TWI0_IRQHandler
                0x000264ea                RADIO_IRQHandler
                0x000264ea                UARTE0_UART0_IRQHandler
                0x000264ea                TIMER4_IRQHandler
                0x000264ea                I2S_IRQHandler
                0x000264ea                SWI4_EGU4_IRQHandler
                0x000264ea                TIMER0_IRQHandler
                0x000264ea                PWM1_IRQHandler
                0x000264ea                POWER_CLOCK_IRQHandler
                0x000264ea                PWM2_IRQHandler
                0x000264ea                ECB_IRQHandler
                0x000264ea                SPIM1_SPIS1_TWIM1_TWIS1_SPI1_TWI1_IRQHandler
                0x000264ea                Default_Handler
                0x000264ea                SAADC_IRQHandler
                0x000264ea                CCM_AAR_IRQHandler
                0x000264ea                WDT_IRQHandler
                0x000264ea                SWI0_EGU0_IRQHandler
                0x000264ea                SWI5_EGU5_IRQHandler
                0x000264ea                RNG_IRQHandler
                0x000264ea                RTC2_IRQHandler
                0x000264ea                PWM0_IRQHandler
                0x000264ea                SWI3_EGU3_IRQHandler
                0x000264ea                RTC1_IRQHandler
                0x000264ea                SWI1_EGU1_IRQHandler
                0x000264ea                SPIM2_SPIS2_SPI2_IRQHandler
                0x000264ea                NFCT_IRQHandler
                0x000264ea                RTC0_IRQHandler
                0x000264ea                MWU_IRQHandler
                0x000264ea                TIMER1_IRQHandler
                0x000264ea                COMP_LPCOMP_IRQHandler
 .text.nrf_mesh_configure_device_uuid_reset
                0x000264ec       0x28 mesh/core/libmesh_core_nrf52832_xxAA.a(nrf_mesh_configure.c.obj)
                0x000264ec                nrf_mesh_configure_device_uuid_reset
 .text.nrf_mesh_configure_device_uuid_get
                0x00026514        0x8 mesh/core/libmesh_core_nrf52832_xxAA.a(nrf_mesh_configure.c.obj)
                0x00026514                nrf_mesh_configure_device_uuid_get
 .text.event_handle
                0x0002651c       0x30 mesh/core/libmesh_core_nrf52832_xxAA.a(event.c.obj)
                0x0002651c                event_handle
 .text.event_handler_add
                0x0002654c       0x28 mesh/core/libmesh_core_nrf52832_xxAA.a(event.c.obj)
                0x0002654c                event_handler_add
 .text.event_handler_remove
                0x00026574       0x28 mesh/core/libmesh_core_nrf52832_xxAA.a(event.c.obj)
                0x00026574                event_handler_remove
 .text.packet_mgr_init
                0x0002659c       0x4c mesh/core/libmesh_core_nrf52832_xxAA.a(packet_mgr.c.obj)
                0x0002659c                packet_mgr_init
 .text.packet_mgr_alloc
                0x000265e8      0x19c mesh/core/libmesh_core_nrf52832_xxAA.a(packet_mgr.c.obj)
                0x000265e8                packet_mgr_alloc
 .text.packet_mgr_free
                0x00026784       0x6c mesh/core/libmesh_core_nrf52832_xxAA.a(packet_mgr.c.obj)
                0x00026784                packet_mgr_free
 .text.flash_mem_available
                0x000267f0       0x20 mesh/core/libmesh_core_nrf52832_xxAA.a(net_state.c.obj)
 .text.flash_store_iv_index
                0x00026810       0x38 mesh/core/libmesh_core_nrf52832_xxAA.a(net_state.c.obj)
 .text.seqnum_block_allocate
                0x00026848       0x48 mesh/core/libmesh_core_nrf52832_xxAA.a(net_state.c.obj)
 .text.flash_write_complete
                0x00026890       0x78 mesh/core/libmesh_core_nrf52832_xxAA.a(net_state.c.obj)
 .text.net_state_recover_from_flash
                0x00026908       0x8c mesh/core/libmesh_core_nrf52832_xxAA.a(net_state.c.obj)
                0x00026908                net_state_recover_from_flash
 .text.net_state_flash_area_get
                0x00026994        0xc mesh/core/libmesh_core_nrf52832_xxAA.a(net_state.c.obj)
                0x00026994                net_state_flash_area_get
 .text.init_flash_storage
                0x000269a0       0x40 mesh/core/libmesh_core_nrf52832_xxAA.a(net_state.c.obj)
 .text.net_state_init
                0x000269e0       0x48 mesh/core/libmesh_core_nrf52832_xxAA.a(net_state.c.obj)
                0x000269e0                net_state_init
 .text.net_state_iv_update_start
                0x00026a28       0x64 mesh/core/libmesh_core_nrf52832_xxAA.a(net_state.c.obj)
                0x00026a28                net_state_iv_update_start
 .text.iv_update_trigger_if_pending
                0x00026a8c       0x8c mesh/core/libmesh_core_nrf52832_xxAA.a(net_state.c.obj)
 .text.iv_update_timer_handler
                0x00026b18       0x74 mesh/core/libmesh_core_nrf52832_xxAA.a(net_state.c.obj)
 .text.net_state_seqnum_alloc
                0x00026b8c       0x68 mesh/core/libmesh_core_nrf52832_xxAA.a(net_state.c.obj)
                0x00026b8c                net_state_seqnum_alloc
 .text.net_state_iv_index_lock
                0x00026bf4       0x48 mesh/core/libmesh_core_nrf52832_xxAA.a(net_state.c.obj)
                0x00026bf4                net_state_iv_index_lock
 .text.net_state_key_refresh_phase_changed
                0x00026c3c       0x1e mesh/core/libmesh_core_nrf52832_xxAA.a(net_state.c.obj)
                0x00026c3c                net_state_key_refresh_phase_changed
 *fill*         0x00026c5a        0x2 
 .text.net_state_beacon_received
                0x00026c5c       0x94 mesh/core/libmesh_core_nrf52832_xxAA.a(net_state.c.obj)
                0x00026c5c                net_state_beacon_received
 .text.net_state_beacon_iv_index_get
                0x00026cf0        0xc mesh/core/libmesh_core_nrf52832_xxAA.a(net_state.c.obj)
                0x00026cf0                net_state_beacon_iv_index_get
 .text.net_state_tx_iv_index_get
                0x00026cfc       0x14 mesh/core/libmesh_core_nrf52832_xxAA.a(net_state.c.obj)
                0x00026cfc                net_state_tx_iv_index_get
 .text.net_state_rx_iv_index_get
                0x00026d10       0x18 mesh/core/libmesh_core_nrf52832_xxAA.a(net_state.c.obj)
                0x00026d10                net_state_rx_iv_index_get
 .text.net_state_iv_update_get
                0x00026d28        0xc mesh/core/libmesh_core_nrf52832_xxAA.a(net_state.c.obj)
                0x00026d28                net_state_iv_update_get
 .text.nrf_mesh_address_type_get
                0x00026d34       0x10 mesh/core/libmesh_core_nrf52832_xxAA.a(nrf_mesh_utils.c.obj)
                0x00026d34                nrf_mesh_address_type_get
 .text.sd_softdevice_is_enabled
                0x00026d44        0x4 mesh/core/libmesh_core_nrf52832_xxAA.a(nrf_mesh.c.obj)
 .text.nrf_mesh_listen
                0x00026d48      0x138 mesh/core/libmesh_core_nrf52832_xxAA.a(nrf_mesh.c.obj)
 .text.scanner_packet_process_cb
                0x00026e80       0x8c mesh/core/libmesh_core_nrf52832_xxAA.a(nrf_mesh.c.obj)
 .text.nrf_mesh_init
                0x00026f0c       0xe4 mesh/core/libmesh_core_nrf52832_xxAA.a(nrf_mesh.c.obj)
                0x00026f0c                nrf_mesh_init
 .text.nrf_mesh_enable
                0x00026ff0       0x48 mesh/core/libmesh_core_nrf52832_xxAA.a(nrf_mesh.c.obj)
                0x00026ff0                nrf_mesh_enable
 .text.nrf_mesh_packet_send
                0x00027038        0x4 mesh/core/libmesh_core_nrf52832_xxAA.a(nrf_mesh.c.obj)
                0x00027038                nrf_mesh_packet_send
 .text.nrf_mesh_on_ble_evt
                0x0002703c        0x4 mesh/core/libmesh_core_nrf52832_xxAA.a(nrf_mesh.c.obj)
                0x0002703c                nrf_mesh_on_ble_evt
 .text.nrf_mesh_on_sd_evt
                0x00027040        0xa mesh/core/libmesh_core_nrf52832_xxAA.a(nrf_mesh.c.obj)
                0x00027040                nrf_mesh_on_sd_evt
 .text.nrf_mesh_evt_handler_add
                0x0002704a        0x4 mesh/core/libmesh_core_nrf52832_xxAA.a(nrf_mesh.c.obj)
                0x0002704a                nrf_mesh_evt_handler_add
 *fill*         0x0002704e        0x2 
 .text.hal_lfclk_ppm_get
                0x00027050       0x14 mesh/core/libmesh_core_nrf52832_xxAA.a(hal.c.obj)
                0x00027050                hal_lfclk_ppm_get
 .text.add_to_add_list
                0x00027064       0x44 mesh/core/libmesh_core_nrf52832_xxAA.a(timer_scheduler.c.obj)
 .text.process_dirty_events
                0x000270a8       0x6c mesh/core/libmesh_core_nrf52832_xxAA.a(timer_scheduler.c.obj)
 .text.timer_cb
                0x00027114        0xc mesh/core/libmesh_core_nrf52832_xxAA.a(timer_scheduler.c.obj)
 .text.add_evt.constprop.0
                0x00027120       0x68 mesh/core/libmesh_core_nrf52832_xxAA.a(timer_scheduler.c.obj)
 .text.process_add_list
                0x00027188       0x48 mesh/core/libmesh_core_nrf52832_xxAA.a(timer_scheduler.c.obj)
 .text.flag_event_cb
                0x000271d0      0x100 mesh/core/libmesh_core_nrf52832_xxAA.a(timer_scheduler.c.obj)
 .text.timer_sch_init
                0x000272d0       0x24 mesh/core/libmesh_core_nrf52832_xxAA.a(timer_scheduler.c.obj)
                0x000272d0                timer_sch_init
 .text.timer_sch_schedule
                0x000272f4       0x50 mesh/core/libmesh_core_nrf52832_xxAA.a(timer_scheduler.c.obj)
                0x000272f4                timer_sch_schedule
 .text.timer_sch_abort
                0x00027344       0x64 mesh/core/libmesh_core_nrf52832_xxAA.a(timer_scheduler.c.obj)
                0x00027344                timer_sch_abort
 .text.timer_sch_reschedule
                0x000273a8       0x70 mesh/core/libmesh_core_nrf52832_xxAA.a(timer_scheduler.c.obj)
                0x000273a8                timer_sch_reschedule
 .text.timer_mut_unlock
                0x00027418       0x10 mesh/core/libmesh_core_nrf52832_xxAA.a(timer.c.obj)
 .text.timer_order_cb
                0x00027428       0x94 mesh/core/libmesh_core_nrf52832_xxAA.a(timer.c.obj)
                0x00027428                timer_order_cb
 .text.timer_now
                0x000274bc       0x48 mesh/core/libmesh_core_nrf52832_xxAA.a(timer.c.obj)
                0x000274bc                timer_now
 .text.timer_event_handler
                0x00027504       0x98 mesh/core/libmesh_core_nrf52832_xxAA.a(timer.c.obj)
                0x00027504                timer_event_handler
 .text.timer_on_ts_begin
                0x0002759c       0xfc mesh/core/libmesh_core_nrf52832_xxAA.a(timer.c.obj)
                0x0002759c                timer_on_ts_begin
 .text.timer_on_ts_end
                0x00027698       0x60 mesh/core/libmesh_core_nrf52832_xxAA.a(timer.c.obj)
                0x00027698                timer_on_ts_end
 .text.timer_cb
                0x000276f8       0x10 mesh/core/libmesh_core_nrf52832_xxAA.a(ticker.c.obj)
 .text.ticker_init
                0x00027708       0x3c mesh/core/libmesh_core_nrf52832_xxAA.a(ticker.c.obj)
                0x00027708                ticker_init
 .text.sd_rand_application_bytes_available_get
                0x00027744        0x4 mesh/core/libmesh_core_nrf52832_xxAA.a(rand.c.obj)
 .text.sd_rand_application_vector_get
                0x00027748        0x4 mesh/core/libmesh_core_nrf52832_xxAA.a(rand.c.obj)
 .text.rand_prng_get
                0x0002774c       0x22 mesh/core/libmesh_core_nrf52832_xxAA.a(rand.c.obj)
                0x0002774c                rand_prng_get
 *fill*         0x0002776e        0x2 
 .text.rand_hw_rng_get
                0x00027770       0x50 mesh/core/libmesh_core_nrf52832_xxAA.a(rand.c.obj)
                0x00027770                rand_hw_rng_get
 .text.rand_prng_seed
                0x000277c0       0x34 mesh/core/libmesh_core_nrf52832_xxAA.a(rand.c.obj)
                0x000277c0                rand_prng_seed
 .text.sd_radio_session_open
                0x000277f4        0x4 mesh/core/libmesh_core_nrf52832_xxAA.a(timeslot.c.obj)
 .text.sd_radio_session_close
                0x000277f8        0x4 mesh/core/libmesh_core_nrf52832_xxAA.a(timeslot.c.obj)
 .text.sd_radio_request
                0x000277fc        0x4 mesh/core/libmesh_core_nrf52832_xxAA.a(timeslot.c.obj)
 .text.end_timer_handler
                0x00027800       0x24 mesh/core/libmesh_core_nrf52832_xxAA.a(timeslot.c.obj)
 .text.get_end_time.constprop.10
                0x00027824       0x28 mesh/core/libmesh_core_nrf52832_xxAA.a(timeslot.c.obj)
 .text.handle_extend_end.constprop.3
                0x0002784c       0xc0 mesh/core/libmesh_core_nrf52832_xxAA.a(timeslot.c.obj)
 .text.radio_signal_callback
                0x0002790c      0x14c mesh/core/libmesh_core_nrf52832_xxAA.a(timeslot.c.obj)
 .text.timeslot_sd_event_handler
                0x00027a58       0x44 mesh/core/libmesh_core_nrf52832_xxAA.a(timeslot.c.obj)
                0x00027a58                timeslot_sd_event_handler
 .text.timeslot_init
                0x00027a9c       0x48 mesh/core/libmesh_core_nrf52832_xxAA.a(timeslot.c.obj)
                0x00027a9c                timeslot_init
 .text.timeslot_start
                0x00027ae4       0x20 mesh/core/libmesh_core_nrf52832_xxAA.a(timeslot.c.obj)
                0x00027ae4                timeslot_start
 .text.timeslot_end_is_pending
                0x00027b04       0x24 mesh/core/libmesh_core_nrf52832_xxAA.a(timeslot.c.obj)
                0x00027b04                timeslot_end_is_pending
 .text.timeslot_start_time_get
                0x00027b28        0xc mesh/core/libmesh_core_nrf52832_xxAA.a(timeslot.c.obj)
                0x00027b28                timeslot_start_time_get
 .text.timeslot_remaining_time_get
                0x00027b34       0x20 mesh/core/libmesh_core_nrf52832_xxAA.a(timeslot.c.obj)
                0x00027b34                timeslot_remaining_time_get
 .text.timeslot_is_in_cb
                0x00027b54        0xc mesh/core/libmesh_core_nrf52832_xxAA.a(timeslot.c.obj)
                0x00027b54                timeslot_is_in_cb
 .text.timeslot_trigger
                0x00027b60       0x24 mesh/core/libmesh_core_nrf52832_xxAA.a(timeslot.c.obj)
                0x00027b60                timeslot_trigger
 .text.timeslot_stop
                0x00027b84       0x10 mesh/core/libmesh_core_nrf52832_xxAA.a(timeslot.c.obj)
                0x00027b84                timeslot_stop
 .text.timeslot_state_lock
                0x00027b94       0x28 mesh/core/libmesh_core_nrf52832_xxAA.a(timeslot.c.obj)
                0x00027b94                timeslot_state_lock
 .text.trigger_event_handler
                0x00027bbc       0x1c mesh/core/libmesh_core_nrf52832_xxAA.a(bearer_event.c.obj)
 .text.evt_push
                0x00027bd8       0x1c mesh/core/libmesh_core_nrf52832_xxAA.a(bearer_event.c.obj)
 .text.bearer_event_init
                0x00027bf4       0x48 mesh/core/libmesh_core_nrf52832_xxAA.a(bearer_event.c.obj)
                0x00027bf4                bearer_event_init
 .text.bearer_event_timer_post
                0x00027c3c       0x30 mesh/core/libmesh_core_nrf52832_xxAA.a(bearer_event.c.obj)
                0x00027c3c                bearer_event_timer_post
 .text.bearer_event_critical_section_begin
                0x00027c6c       0x50 mesh/core/libmesh_core_nrf52832_xxAA.a(bearer_event.c.obj)
                0x00027c6c                bearer_event_critical_section_begin
 .text.bearer_event_critical_section_end
                0x00027cbc       0x4c mesh/core/libmesh_core_nrf52832_xxAA.a(bearer_event.c.obj)
                0x00027cbc                bearer_event_critical_section_end
 .text.bearer_event_flag_add
                0x00027d08       0x50 mesh/core/libmesh_core_nrf52832_xxAA.a(bearer_event.c.obj)
                0x00027d08                bearer_event_flag_add
 .text.bearer_event_flag_set
                0x00027d58       0x50 mesh/core/libmesh_core_nrf52832_xxAA.a(bearer_event.c.obj)
                0x00027d58                bearer_event_flag_set
 .text.bearer_event_sequential_add
                0x00027da8       0x44 mesh/core/libmesh_core_nrf52832_xxAA.a(bearer_event.c.obj)
                0x00027da8                bearer_event_sequential_add
 .text.bearer_event_sequential_post
                0x00027dec       0x58 mesh/core/libmesh_core_nrf52832_xxAA.a(bearer_event.c.obj)
                0x00027dec                bearer_event_sequential_post
 .text.bearer_event_sequential_pending
                0x00027e44       0x1c mesh/core/libmesh_core_nrf52832_xxAA.a(bearer_event.c.obj)
                0x00027e44                bearer_event_sequential_pending
 .text.bearer_event_handler
                0x00027e60      0x104 mesh/core/libmesh_core_nrf52832_xxAA.a(bearer_event.c.obj)
                0x00027e60                bearer_event_handler
 .text.QDEC_IRQHandler
                0x00027f64        0x4 mesh/core/libmesh_core_nrf52832_xxAA.a(bearer_event.c.obj)
                0x00027f64                QDEC_IRQHandler
 .text.enc_aes_encrypt
                0x00027f68        0x4 mesh/core/libmesh_core_nrf52832_xxAA.a(enc.c.obj)
                0x00027f68                enc_aes_encrypt
 .text.enc_aes_cmac
                0x00027f6c        0x4 mesh/core/libmesh_core_nrf52832_xxAA.a(enc.c.obj)
                0x00027f6c                enc_aes_cmac
 .text.enc_aes_ccm_encrypt
                0x00027f70        0x4 mesh/core/libmesh_core_nrf52832_xxAA.a(enc.c.obj)
                0x00027f70                enc_aes_ccm_encrypt
 .text.enc_aes_ccm_decrypt
                0x00027f74        0x4 mesh/core/libmesh_core_nrf52832_xxAA.a(enc.c.obj)
                0x00027f74                enc_aes_ccm_decrypt
 .text.enc_nonce_generate
                0x00027f78       0xb8 mesh/core/libmesh_core_nrf52832_xxAA.a(enc.c.obj)
                0x00027f78                enc_nonce_generate
 .text.enc_s1   0x00028030       0x38 mesh/core/libmesh_core_nrf52832_xxAA.a(enc.c.obj)
                0x00028030                enc_s1
 .text.enc_k1   0x00028068       0x48 mesh/core/libmesh_core_nrf52832_xxAA.a(enc.c.obj)
                0x00028068                enc_k1
 .text.enc_k2   0x000280b0       0xd8 mesh/core/libmesh_core_nrf52832_xxAA.a(enc.c.obj)
                0x000280b0                enc_k2
 .text.enc_k3   0x00028188       0x68 mesh/core/libmesh_core_nrf52832_xxAA.a(enc.c.obj)
                0x00028188                enc_k3
 .text.enc_k4   0x000281f0       0x60 mesh/core/libmesh_core_nrf52832_xxAA.a(enc.c.obj)
                0x000281f0                enc_k4
 .text.header_transfuscate
                0x00028250       0x54 mesh/core/libmesh_core_nrf52832_xxAA.a(network.c.obj)
 .text.allocate_packet
                0x000282a4      0x14c mesh/core/libmesh_core_nrf52832_xxAA.a(network.c.obj)
 .text.network_init
                0x000283f0       0x2c mesh/core/libmesh_core_nrf52832_xxAA.a(network.c.obj)
                0x000283f0                network_init
 .text.network_opt_get
                0x0002841c       0x4c mesh/core/libmesh_core_nrf52832_xxAA.a(network.c.obj)
                0x0002841c                network_opt_get
 .text.network_packet_alloc
                0x00028468       0x50 mesh/core/libmesh_core_nrf52832_xxAA.a(network.c.obj)
                0x00028468                network_packet_alloc
 .text.network_packet_send
                0x000284b8      0x140 mesh/core/libmesh_core_nrf52832_xxAA.a(network.c.obj)
                0x000284b8                network_packet_send
 .text.network_packet_in
                0x000285f8      0x460 mesh/core/libmesh_core_nrf52832_xxAA.a(network.c.obj)
                0x000285f8                network_packet_in
 .text.nrf_mesh_keygen_aid
                0x00028a58       0x12 mesh/core/libmesh_core_nrf52832_xxAA.a(nrf_mesh_keygen.c.obj)
                0x00028a58                nrf_mesh_keygen_aid
 .text.nrf_mesh_keygen_network_secmat
                0x00028a6a       0x20 mesh/core/libmesh_core_nrf52832_xxAA.a(nrf_mesh_keygen.c.obj)
                0x00028a6a                nrf_mesh_keygen_network_secmat
 *fill*         0x00028a8a        0x2 
 .text.nrf_mesh_keygen_beacon_secmat
                0x00028a8c       0x50 mesh/core/libmesh_core_nrf52832_xxAA.a(nrf_mesh_keygen.c.obj)
                0x00028a8c                nrf_mesh_keygen_beacon_secmat
 .text.nrf_mesh_keygen_virtual_address
                0x00028adc       0x50 mesh/core/libmesh_core_nrf52832_xxAA.a(nrf_mesh_keygen.c.obj)
                0x00028adc                nrf_mesh_keygen_virtual_address
 .text.list_insert
                0x00028b2c       0x28 mesh/core/libmesh_core_nrf52832_xxAA.a(list.c.obj)
 .text.list_add
                0x00028b54       0x60 mesh/core/libmesh_core_nrf52832_xxAA.a(list.c.obj)
                0x00028b54                list_add
 .text.list_remove
                0x00028bb4       0x48 mesh/core/libmesh_core_nrf52832_xxAA.a(list.c.obj)
                0x00028bb4                list_remove
 .text.list_compare_add
                0x00028bfc       0x80 mesh/core/libmesh_core_nrf52832_xxAA.a(list.c.obj)
                0x00028bfc                list_compare_add
 .text.log_callback_rtt
                0x00028c7c       0x2c mesh/core/libmesh_core_nrf52832_xxAA.a(log.c.obj)
                0x00028c7c                log_callback_rtt
 .text.log_init
                0x00028ca8       0x1c mesh/core/libmesh_core_nrf52832_xxAA.a(log.c.obj)
                0x00028ca8                log_init
 .text.log_vprintf
                0x00028cc4       0x18 mesh/core/libmesh_core_nrf52832_xxAA.a(log.c.obj)
                0x00028cc4                log_vprintf
 .text.log_printf
                0x00028cdc       0x18 mesh/core/libmesh_core_nrf52832_xxAA.a(log.c.obj)
                0x00028cdc                log_printf
 .text.get_area_end
                0x00028cf4        0xc mesh/core/libmesh_core_nrf52832_xxAA.a(flash_manager.c.obj)
 .text.handle_matches_filter
                0x00028d00       0x26 mesh/core/libmesh_core_nrf52832_xxAA.a(flash_manager.c.obj)
 *fill*         0x00028d26        0x2 
 .text.get_packet_buffer
                0x00028d28       0x2c mesh/core/libmesh_core_nrf52832_xxAA.a(flash_manager.c.obj)
 .text.get_entry_action
                0x00028d54       0x30 mesh/core/libmesh_core_nrf52832_xxAA.a(flash_manager.c.obj)
 .text.flash_area_is_blank
                0x00028d84       0x48 mesh/core/libmesh_core_nrf52832_xxAA.a(flash_manager.c.obj)
 .text.flash    0x00028dcc       0x1c mesh/core/libmesh_core_nrf52832_xxAA.a(flash_manager.c.obj)
 .text.free_packet_buffer
                0x00028de8       0x54 mesh/core/libmesh_core_nrf52832_xxAA.a(flash_manager.c.obj)
 .text.reserve_action_buffer
                0x00028e3c       0x24 mesh/core/libmesh_core_nrf52832_xxAA.a(flash_manager.c.obj)
 .text.commit_action_buffer
                0x00028e60       0x18 mesh/core/libmesh_core_nrf52832_xxAA.a(flash_manager.c.obj)
 .text.schedule_processing
                0x00028e78        0xc mesh/core/libmesh_core_nrf52832_xxAA.a(flash_manager.c.obj)
 .text.get_next_entry
                0x00028e84       0x40 mesh/core/libmesh_core_nrf52832_xxAA.a(flash_manager.c.obj)
 .text.get_last_entry.isra.1
                0x00028ec4       0x30 mesh/core/libmesh_core_nrf52832_xxAA.a(flash_manager.c.obj)
 .text.process_action_queue
                0x00028ef4      0x4e4 mesh/core/libmesh_core_nrf52832_xxAA.a(flash_manager.c.obj)
 .text.flash_op_ended_callback
                0x000293d8       0x24 mesh/core/libmesh_core_nrf52832_xxAA.a(flash_manager.c.obj)
 .text.flash_manager_init
                0x000293fc       0x68 mesh/core/libmesh_core_nrf52832_xxAA.a(flash_manager.c.obj)
                0x000293fc                flash_manager_init
 .text.flash_manager_remove
                0x00029464       0x24 mesh/core/libmesh_core_nrf52832_xxAA.a(flash_manager.c.obj)
                0x00029464                flash_manager_remove
 .text.flash_manager_entry_get
                0x00029488       0x48 mesh/core/libmesh_core_nrf52832_xxAA.a(flash_manager.c.obj)
                0x00029488                flash_manager_entry_get
 .text.flash_manager_entry_next_get
                0x000294d0       0x6c mesh/core/libmesh_core_nrf52832_xxAA.a(flash_manager.c.obj)
                0x000294d0                flash_manager_entry_next_get
 .text.flash_manager_entry_alloc
                0x0002953c       0x78 mesh/core/libmesh_core_nrf52832_xxAA.a(flash_manager.c.obj)
                0x0002953c                flash_manager_entry_alloc
 .text.flash_manager_entry_commit
                0x000295b4       0x12 mesh/core/libmesh_core_nrf52832_xxAA.a(flash_manager.c.obj)
                0x000295b4                flash_manager_entry_commit
 *fill*         0x000295c6        0x2 
 .text.flash_manager_entry_invalidate
                0x000295c8       0x64 mesh/core/libmesh_core_nrf52832_xxAA.a(flash_manager.c.obj)
                0x000295c8                flash_manager_entry_invalidate
 .text.flash_manager_add
                0x0002962c      0x248 mesh/core/libmesh_core_nrf52832_xxAA.a(flash_manager.c.obj)
                0x0002962c                flash_manager_add
 .text.flash_manager_mem_listener_register
                0x00029874       0x44 mesh/core/libmesh_core_nrf52832_xxAA.a(flash_manager.c.obj)
                0x00029874                flash_manager_mem_listener_register
 .text.flash_manager_is_stable
                0x000298b8       0x24 mesh/core/libmesh_core_nrf52832_xxAA.a(flash_manager.c.obj)
                0x000298b8                flash_manager_is_stable
 .text.flash_manager_on_defrag_end
                0x000298dc       0x58 mesh/core/libmesh_core_nrf52832_xxAA.a(flash_manager.c.obj)
                0x000298dc                flash_manager_on_defrag_end
 .text.flash_manager_recovery_page_get
                0x00029934        0x4 mesh/core/libmesh_core_nrf52832_xxAA.a(flash_manager.c.obj)
                0x00029934                flash_manager_recovery_page_get
 .text.utils_xor
                0x00029938       0x14 mesh/core/libmesh_core_nrf52832_xxAA.a(ccm_soft.c.obj)
 .text.ccm_soft_authenticate_blocks
                0x0002994c       0x68 mesh/core/libmesh_core_nrf52832_xxAA.a(ccm_soft.c.obj)
 .text.utils_reverse_memcpy.constprop.0
                0x000299b4        0xa mesh/core/libmesh_core_nrf52832_xxAA.a(ccm_soft.c.obj)
 .text.ccm_soft_authenticate
                0x000299be       0xa0 mesh/core/libmesh_core_nrf52832_xxAA.a(ccm_soft.c.obj)
 .text.ccm_soft_crypt
                0x00029a5e       0x6c mesh/core/libmesh_core_nrf52832_xxAA.a(ccm_soft.c.obj)
 .text.ccm_soft_encrypt
                0x00029aca       0x70 mesh/core/libmesh_core_nrf52832_xxAA.a(ccm_soft.c.obj)
                0x00029aca                ccm_soft_encrypt
 .text.ccm_soft_decrypt
                0x00029b3a       0xfe mesh/core/libmesh_core_nrf52832_xxAA.a(ccm_soft.c.obj)
                0x00029b3a                ccm_soft_decrypt
 .text.beacon_init
                0x00029c38       0x48 mesh/core/libmesh_core_nrf52832_xxAA.a(beacon.c.obj)
                0x00029c38                beacon_init
 .text.beacon_create
                0x00029c80       0x46 mesh/core/libmesh_core_nrf52832_xxAA.a(beacon.c.obj)
                0x00029c80                beacon_create
 *fill*         0x00029cc6        0x2 
 .text.beacon_tx
                0x00029cc8       0x3c mesh/core/libmesh_core_nrf52832_xxAA.a(beacon.c.obj)
                0x00029cc8                beacon_tx
 .text.beacon_packet_in
                0x00029d04      0x160 mesh/core/libmesh_core_nrf52832_xxAA.a(beacon.c.obj)
                0x00029d04                beacon_packet_in
 .text.entry_get
                0x00029e64       0x88 mesh/core/libmesh_core_nrf52832_xxAA.a(flash_manager_internal.c.obj)
                0x00029e64                entry_get
 .text.is_power_of_two
                0x00029eec        0xe mesh/core/libmesh_core_nrf52832_xxAA.a(core_tx.c.obj)
 *fill*         0x00029efa        0x2 
 .text.bearer_if_get
                0x00029efc       0x44 mesh/core/libmesh_core_nrf52832_xxAA.a(core_tx.c.obj)
 .text.core_tx_complete_cb_set
                0x00029f40        0xc mesh/core/libmesh_core_nrf52832_xxAA.a(core_tx.c.obj)
                0x00029f40                core_tx_complete_cb_set
 .text.core_tx_packet_alloc
                0x00029f4c       0x88 mesh/core/libmesh_core_nrf52832_xxAA.a(core_tx.c.obj)
                0x00029f4c                core_tx_packet_alloc
 .text.core_tx_packet_send
                0x00029fd4       0x80 mesh/core/libmesh_core_nrf52832_xxAA.a(core_tx.c.obj)
                0x00029fd4                core_tx_packet_send
 .text.core_tx_packet_discard
                0x0002a054       0x80 mesh/core/libmesh_core_nrf52832_xxAA.a(core_tx.c.obj)
                0x0002a054                core_tx_packet_discard
 .text.core_tx_complete
                0x0002a0d4       0x10 mesh/core/libmesh_core_nrf52832_xxAA.a(core_tx.c.obj)
                0x0002a0d4                core_tx_complete
 .text.core_tx_bearer_register
                0x0002a0e4       0x84 mesh/core/libmesh_core_nrf52832_xxAA.a(core_tx.c.obj)
                0x0002a0e4                core_tx_bearer_register
 .text.heartbeat_subscription_timer_cb
                0x0002a168       0x1c mesh/core/libmesh_core_nrf52832_xxAA.a(heartbeat.c.obj)
 .text.heartbeat_opcode_handle
                0x0002a184       0x78 mesh/core/libmesh_core_nrf52832_xxAA.a(heartbeat.c.obj)
 .text.heartbeat_send
                0x0002a1fc       0xd0 mesh/core/libmesh_core_nrf52832_xxAA.a(heartbeat.c.obj)
 .text.heartbeat_core_evt_cb
                0x0002a2cc       0x90 mesh/core/libmesh_core_nrf52832_xxAA.a(heartbeat.c.obj)
 .text.heartbeat_publication_timer_cb
                0x0002a35c       0xc8 mesh/core/libmesh_core_nrf52832_xxAA.a(heartbeat.c.obj)
 .text.heartbeat_init
                0x0002a424       0x8c mesh/core/libmesh_core_nrf52832_xxAA.a(heartbeat.c.obj)
                0x0002a424                heartbeat_init
 .text.make_network_beacon_cmac
                0x0002a4b0       0x22 mesh/core/libmesh_core_nrf52832_xxAA.a(net_beacon.c.obj)
 *fill*         0x0002a4d2        0x2 
 .text.network_beacon_tx_cb
                0x0002a4d4       0xe8 mesh/core/libmesh_core_nrf52832_xxAA.a(net_beacon.c.obj)
 .text.net_beacon_init
                0x0002a5bc       0x60 mesh/core/libmesh_core_nrf52832_xxAA.a(net_beacon.c.obj)
                0x0002a5bc                net_beacon_init
 .text.net_beacon_packet_in
                0x0002a61c      0x104 mesh/core/libmesh_core_nrf52832_xxAA.a(net_beacon.c.obj)
                0x0002a61c                net_beacon_packet_in
 .text.packet_discard
                0x0002a720       0x14 mesh/core/libmesh_core_nrf52832_xxAA.a(core_tx_adv.c.obj)
 .text.packet_send
                0x0002a734       0x14 mesh/core/libmesh_core_nrf52832_xxAA.a(core_tx_adv.c.obj)
 .text.packet_alloc
                0x0002a748       0x3c mesh/core/libmesh_core_nrf52832_xxAA.a(core_tx_adv.c.obj)
 .text.adv_tx_complete_callback
                0x0002a784       0x30 mesh/core/libmesh_core_nrf52832_xxAA.a(core_tx_adv.c.obj)
 .text.core_tx_adv_init
                0x0002a7b4       0x58 mesh/core/libmesh_core_nrf52832_xxAA.a(core_tx_adv.c.obj)
                0x0002a7b4                core_tx_adv_init
 .text.core_tx_adv_count_get
                0x0002a80c       0x28 mesh/core/libmesh_core_nrf52832_xxAA.a(core_tx_adv.c.obj)
                0x0002a80c                core_tx_adv_count_get
 .text.core_tx_adv_interval_get
                0x0002a834       0x34 mesh/core/libmesh_core_nrf52832_xxAA.a(core_tx_adv.c.obj)
                0x0002a834                core_tx_adv_interval_get
 .text.ad_listener_subscribe
                0x0002a868       0x5c mesh/core/libmesh_core_nrf52832_xxAA.a(ad_listener.c.obj)
                0x0002a868                ad_listener_subscribe
 .text.ad_listener_process
                0x0002a8c4       0x64 mesh/core/libmesh_core_nrf52832_xxAA.a(ad_listener.c.obj)
                0x0002a8c4                ad_listener_process
 .text.adtype_filter_handle
                0x0002a928       0x64 mesh/core/libmesh_core_nrf52832_xxAA.a(ad_type_filter.c.obj)
 .text.bearer_adtype_filtering_set
                0x0002a98c       0x1c mesh/core/libmesh_core_nrf52832_xxAA.a(ad_type_filter.c.obj)
                0x0002a98c                bearer_adtype_filtering_set
 .text.bearer_adtype_add
                0x0002a9a8       0x20 mesh/core/libmesh_core_nrf52832_xxAA.a(ad_type_filter.c.obj)
                0x0002a9a8                bearer_adtype_add
 .text.bearer_adtype_mode_set
                0x0002a9c8       0x24 mesh/core/libmesh_core_nrf52832_xxAA.a(ad_type_filter.c.obj)
                0x0002a9c8                bearer_adtype_mode_set
 .text.set_gap_addr_type
                0x0002a9ec       0x34 mesh/core/libmesh_core_nrf52832_xxAA.a(advertiser.c.obj)
 .text.tx_complete_event_callback
                0x0002aa20       0x3c mesh/core/libmesh_core_nrf52832_xxAA.a(advertiser.c.obj)
 .text.broadcast_complete_cb
                0x0002aa5c       0x64 mesh/core/libmesh_core_nrf52832_xxAA.a(advertiser.c.obj)
 .text.schedule_first_time
                0x0002aac0       0x28 mesh/core/libmesh_core_nrf52832_xxAA.a(advertiser.c.obj)
 .text.timeout_event
                0x0002aae8      0x130 mesh/core/libmesh_core_nrf52832_xxAA.a(advertiser.c.obj)
 .text.advertiser_init
                0x0002ac18        0xc mesh/core/libmesh_core_nrf52832_xxAA.a(advertiser.c.obj)
                0x0002ac18                advertiser_init
 .text.advertiser_enable
                0x0002ac24       0x2a mesh/core/libmesh_core_nrf52832_xxAA.a(advertiser.c.obj)
                0x0002ac24                advertiser_enable
 *fill*         0x0002ac4e        0x2 
 .text.advertiser_packet_alloc
                0x0002ac50       0x94 mesh/core/libmesh_core_nrf52832_xxAA.a(advertiser.c.obj)
                0x0002ac50                advertiser_packet_alloc
 .text.advertiser_packet_send
                0x0002ace4       0x78 mesh/core/libmesh_core_nrf52832_xxAA.a(advertiser.c.obj)
                0x0002ace4                advertiser_packet_send
 .text.advertiser_packet_discard
                0x0002ad5c       0x2c mesh/core/libmesh_core_nrf52832_xxAA.a(advertiser.c.obj)
                0x0002ad5c                advertiser_packet_discard
 .text.advertiser_interval_set
                0x0002ad88       0x68 mesh/core/libmesh_core_nrf52832_xxAA.a(advertiser.c.obj)
                0x0002ad88                advertiser_interval_set
 .text.advertiser_flush
                0x0002adf0       0x1e mesh/core/libmesh_core_nrf52832_xxAA.a(advertiser.c.obj)
                0x0002adf0                advertiser_flush
 *fill*         0x0002ae0e        0x2 
 .text.advertiser_address_default_get
                0x0002ae10       0x38 mesh/core/libmesh_core_nrf52832_xxAA.a(advertiser.c.obj)
                0x0002ae10                advertiser_address_default_get
 .text.advertiser_instance_init
                0x0002ae48       0xbc mesh/core/libmesh_core_nrf52832_xxAA.a(advertiser.c.obj)
                0x0002ae48                advertiser_instance_init
 .text.action_switch
                0x0002af04       0xc0 mesh/core/libmesh_core_nrf52832_xxAA.a(bearer_handler.c.obj)
 .text.bearer_handler_init
                0x0002afc4       0x2c mesh/core/libmesh_core_nrf52832_xxAA.a(bearer_handler.c.obj)
                0x0002afc4                bearer_handler_init
 .text.bearer_handler_start
                0x0002aff0       0x1c mesh/core/libmesh_core_nrf52832_xxAA.a(bearer_handler.c.obj)
                0x0002aff0                bearer_handler_start
 .text.bearer_handler_action_enqueue
                0x0002b00c       0x94 mesh/core/libmesh_core_nrf52832_xxAA.a(bearer_handler.c.obj)
                0x0002b00c                bearer_handler_action_enqueue
 .text.bearer_handler_action_end
                0x0002b0a0       0x78 mesh/core/libmesh_core_nrf52832_xxAA.a(bearer_handler.c.obj)
                0x0002b0a0                bearer_handler_action_end
 .text.bearer_handler_radio_irq_handler
                0x0002b118       0x64 mesh/core/libmesh_core_nrf52832_xxAA.a(bearer_handler.c.obj)
                0x0002b118                bearer_handler_radio_irq_handler
 .text.bearer_handler_timer_irq_handler
                0x0002b17c       0x30 mesh/core/libmesh_core_nrf52832_xxAA.a(bearer_handler.c.obj)
                0x0002b17c                bearer_handler_timer_irq_handler
 .text.bearer_handler_on_ts_begin
                0x0002b1ac       0x44 mesh/core/libmesh_core_nrf52832_xxAA.a(bearer_handler.c.obj)
                0x0002b1ac                bearer_handler_on_ts_begin
 .text.bearer_handler_on_ts_end
                0x0002b1f0       0x48 mesh/core/libmesh_core_nrf52832_xxAA.a(bearer_handler.c.obj)
                0x0002b1f0                bearer_handler_on_ts_end
 .text.radio_irq_handler
                0x0002b238       0xb0 mesh/core/libmesh_core_nrf52832_xxAA.a(broadcast.c.obj)
 .text.broadcast_start
                0x0002b2e8       0x8c mesh/core/libmesh_core_nrf52832_xxAA.a(broadcast.c.obj)
 .text.broadcast_send
                0x0002b374       0x80 mesh/core/libmesh_core_nrf52832_xxAA.a(broadcast.c.obj)
                0x0002b374                broadcast_send
 .text.fen_filter_start
                0x0002b3f4       0x3c mesh/core/libmesh_core_nrf52832_xxAA.a(filter_engine.c.obj)
                0x0002b3f4                fen_filter_start
 .text.fen_filter_stop
                0x0002b430       0x2c mesh/core/libmesh_core_nrf52832_xxAA.a(filter_engine.c.obj)
                0x0002b430                fen_filter_stop
 .text.fen_filters_apply
                0x0002b45c       0x34 mesh/core/libmesh_core_nrf52832_xxAA.a(filter_engine.c.obj)
                0x0002b45c                fen_filters_apply
 .text.radio_config_reset
                0x0002b490       0x34 mesh/core/libmesh_core_nrf52832_xxAA.a(radio_config.c.obj)
                0x0002b490                radio_config_reset
 .text.radio_config_channel_set
                0x0002b4c4       0x34 mesh/core/libmesh_core_nrf52832_xxAA.a(radio_config.c.obj)
                0x0002b4c4                radio_config_channel_set
 .text.radio_config_config
                0x0002b4f8       0xa4 mesh/core/libmesh_core_nrf52832_xxAA.a(radio_config.c.obj)
                0x0002b4f8                radio_config_config
 .text.radio_config_access_addr_set
                0x0002b59c       0x68 mesh/core/libmesh_core_nrf52832_xxAA.a(radio_config.c.obj)
                0x0002b59c                radio_config_access_addr_set
 .text.radio_trigger
                0x0002b604       0x24 mesh/core/libmesh_core_nrf52832_xxAA.a(scanner.c.obj)
 .text.scan_window_end
                0x0002b628       0x10 mesh/core/libmesh_core_nrf52832_xxAA.a(scanner.c.obj)
 .text.scan_window_start
                0x0002b638       0x24 mesh/core/libmesh_core_nrf52832_xxAA.a(scanner.c.obj)
 .text.radio_configure
                0x0002b65c       0x78 mesh/core/libmesh_core_nrf52832_xxAA.a(scanner.c.obj)
 .text.radio_set_packet
                0x0002b6d4       0x50 mesh/core/libmesh_core_nrf52832_xxAA.a(scanner.c.obj)
 .text.radio_start
                0x0002b724       0x4c mesh/core/libmesh_core_nrf52832_xxAA.a(scanner.c.obj)
 .text.radio_stop
                0x0002b770       0x30 mesh/core/libmesh_core_nrf52832_xxAA.a(scanner.c.obj)
 .text.schedule_timers
                0x0002b7a0       0x38 mesh/core/libmesh_core_nrf52832_xxAA.a(scanner.c.obj)
 .text.scanner_radio_start
                0x0002b7d8       0x28 mesh/core/libmesh_core_nrf52832_xxAA.a(scanner.c.obj)
                0x0002b7d8                scanner_radio_start
 .text.scanner_radio_stop
                0x0002b800       0x10 mesh/core/libmesh_core_nrf52832_xxAA.a(scanner.c.obj)
                0x0002b800                scanner_radio_stop
 .text.scanner_radio_irq_handler
                0x0002b810      0x13c mesh/core/libmesh_core_nrf52832_xxAA.a(scanner.c.obj)
                0x0002b810                scanner_radio_irq_handler
 .text.scanner_enable
                0x0002b94c       0x30 mesh/core/libmesh_core_nrf52832_xxAA.a(scanner.c.obj)
                0x0002b94c                scanner_enable
 .text.scanner_packet_release
                0x0002b97c       0x38 mesh/core/libmesh_core_nrf52832_xxAA.a(scanner.c.obj)
                0x0002b97c                scanner_packet_release
 .text.scanner_rx
                0x0002b9b4       0x30 mesh/core/libmesh_core_nrf52832_xxAA.a(scanner.c.obj)
                0x0002b9b4                scanner_rx
 .text.scanner_rx_pending
                0x0002b9e4        0xc mesh/core/libmesh_core_nrf52832_xxAA.a(scanner.c.obj)
                0x0002b9e4                scanner_rx_pending
 .text.scanner_config_scan_time_set
                0x0002b9f0       0x68 mesh/core/libmesh_core_nrf52832_xxAA.a(scanner.c.obj)
                0x0002b9f0                scanner_config_scan_time_set
 .text.scanner_config_channels_set
                0x0002ba58       0x64 mesh/core/libmesh_core_nrf52832_xxAA.a(scanner.c.obj)
                0x0002ba58                scanner_config_channels_set
 .text.scanner_config_access_addresses_set
                0x0002babc       0x44 mesh/core/libmesh_core_nrf52832_xxAA.a(scanner.c.obj)
                0x0002babc                scanner_config_access_addresses_set
 .text.scanner_config_reset
                0x0002bb00       0x50 mesh/core/libmesh_core_nrf52832_xxAA.a(scanner.c.obj)
                0x0002bb00                scanner_config_reset
 .text.scanner_init
                0x0002bb50       0x54 mesh/core/libmesh_core_nrf52832_xxAA.a(scanner.c.obj)
                0x0002bb50                scanner_init
 .text.internal_event_push
                0x0002bba4       0x28 mesh/core/libmesh_core_nrf52832_xxAA.a(internal_event.c.obj)
                0x0002bba4                internal_event_push
 .text.sd_ecb_block_encrypt
                0x0002bbcc        0x4 mesh/core/libmesh_core_nrf52832_xxAA.a(aes.c.obj)
 .text.aes_encrypt
                0x0002bbd0       0x32 mesh/core/libmesh_core_nrf52832_xxAA.a(aes.c.obj)
                0x0002bbd0                aes_encrypt
 *fill*         0x0002bc02        0x2 
 .text.msg_cache_init
                0x0002bc04       0x24 mesh/core/libmesh_core_nrf52832_xxAA.a(msg_cache.c.obj)
                0x0002bc04                msg_cache_init
 .text.msg_cache_entry_exists
                0x0002bc28       0x3c mesh/core/libmesh_core_nrf52832_xxAA.a(msg_cache.c.obj)
                0x0002bc28                msg_cache_entry_exists
 .text.msg_cache_entry_add
                0x0002bc64       0x2c mesh/core/libmesh_core_nrf52832_xxAA.a(msg_cache.c.obj)
                0x0002bc64                msg_cache_entry_add
 .text.block_ack_full
                0x0002bc90       0x28 mesh/core/libmesh_core_nrf52832_xxAA.a(transport.c.obj)
 .text.seqauth_sequence_number_get
                0x0002bcb8       0x12 mesh/core/libmesh_core_nrf52832_xxAA.a(transport.c.obj)
 *fill*         0x0002bcca        0x2 
 .text.sar_rx_session_mark_as_handled
                0x0002bccc       0x54 mesh/core/libmesh_core_nrf52832_xxAA.a(transport.c.obj)
 .text.sar_ctx_find
                0x0002bd20       0x3c mesh/core/libmesh_core_nrf52832_xxAA.a(transport.c.obj)
 .text.control_packet_callback_get
                0x0002bd5c       0x44 mesh/core/libmesh_core_nrf52832_xxAA.a(transport.c.obj)
 .text.m_send_sar_cancel_event
                0x0002bda0       0x28 mesh/core/libmesh_core_nrf52832_xxAA.a(transport.c.obj)
 .text.tx_complete
                0x0002bdc8       0x34 mesh/core/libmesh_core_nrf52832_xxAA.a(transport.c.obj)
 .text.upper_trs_packet_encrypt
                0x0002bdfc       0xbc mesh/core/libmesh_core_nrf52832_xxAA.a(transport.c.obj)
 .text.sar_ctx_free
                0x0002beb8       0x3c mesh/core/libmesh_core_nrf52832_xxAA.a(transport.c.obj)
 .text.sar_ctx_tx_complete
                0x0002bef4       0xb8 mesh/core/libmesh_core_nrf52832_xxAA.a(transport.c.obj)
 .text.sar_ctx_cancel
                0x0002bfac      0x108 mesh/core/libmesh_core_nrf52832_xxAA.a(transport.c.obj)
 .text.abort_timeout
                0x0002c0b4        0x8 mesh/core/libmesh_core_nrf52832_xxAA.a(transport.c.obj)
 .text.sar_ctx_alloc
                0x0002c0bc       0xbc mesh/core/libmesh_core_nrf52832_xxAA.a(transport.c.obj)
 .text.test_transport_decrypt
                0x0002c178       0x88 mesh/core/libmesh_core_nrf52832_xxAA.a(transport.c.obj)
 .text.upper_transport_access_packet_in
                0x0002c200      0x28c mesh/core/libmesh_core_nrf52832_xxAA.a(transport.c.obj)
 .text.trs_packet_header_build
                0x0002c48c       0xa6 mesh/core/libmesh_core_nrf52832_xxAA.a(transport.c.obj)
 *fill*         0x0002c532        0x2 
 .text.tx_retry_timer_reset
                0x0002c534       0x50 mesh/core/libmesh_core_nrf52832_xxAA.a(transport.c.obj)
 .text.trs_sar_packet_out
                0x0002c584       0xec mesh/core/libmesh_core_nrf52832_xxAA.a(transport.c.obj)
 .text.retry_timeout
                0x0002c670       0x54 mesh/core/libmesh_core_nrf52832_xxAA.a(transport.c.obj)
 .text.upper_transport_packet_in
                0x0002c6c4      0x1b0 mesh/core/libmesh_core_nrf52832_xxAA.a(transport.c.obj)
 .text.upper_transport_tx
                0x0002c874      0x230 mesh/core/libmesh_core_nrf52832_xxAA.a(transport.c.obj)
 .text.transport_sar_mem_funcs_reset
                0x0002caa4       0x28 mesh/core/libmesh_core_nrf52832_xxAA.a(transport.c.obj)
                0x0002caa4                transport_sar_mem_funcs_reset
 .text.transport_init
                0x0002cacc       0x7c mesh/core/libmesh_core_nrf52832_xxAA.a(transport.c.obj)
                0x0002cacc                transport_init
 .text.transport_tx
                0x0002cb48       0xa4 mesh/core/libmesh_core_nrf52832_xxAA.a(transport.c.obj)
                0x0002cb48                transport_tx
 .text.transport_control_tx
                0x0002cbec       0x8e mesh/core/libmesh_core_nrf52832_xxAA.a(transport.c.obj)
                0x0002cbec                transport_control_tx
 *fill*         0x0002cc7a        0x2 
 .text.sar_ack_send
                0x0002cc7c      0x124 mesh/core/libmesh_core_nrf52832_xxAA.a(transport.c.obj)
 .text.transport_sar_process
                0x0002cda0       0x74 mesh/core/libmesh_core_nrf52832_xxAA.a(transport.c.obj)
 .text.transport_packet_in
                0x0002ce14      0x524 mesh/core/libmesh_core_nrf52832_xxAA.a(transport.c.obj)
                0x0002ce14                transport_packet_in
 .text.ack_timeout
                0x0002d338       0x34 mesh/core/libmesh_core_nrf52832_xxAA.a(transport.c.obj)
 .text.transport_opt_get
                0x0002d36c       0x68 mesh/core/libmesh_core_nrf52832_xxAA.a(transport.c.obj)
                0x0002d36c                transport_opt_get
 .text.transport_control_packet_consumer_add
                0x0002d3d4       0x5c mesh/core/libmesh_core_nrf52832_xxAA.a(transport.c.obj)
                0x0002d3d4                transport_control_packet_consumer_add
 .text.m_adjust_desired_packet_length
                0x0002d430       0x34 mesh/core/libmesh_core_nrf52832_xxAA.a(packet_buffer.c.obj)
 .text.m_index_increment.part.0
                0x0002d464       0x14 mesh/core/libmesh_core_nrf52832_xxAA.a(packet_buffer.c.obj)
 .text.m_free_popped_packet
                0x0002d478       0x60 mesh/core/libmesh_core_nrf52832_xxAA.a(packet_buffer.c.obj)
 .text.free_skipped_packets
                0x0002d4d8       0x1c mesh/core/libmesh_core_nrf52832_xxAA.a(packet_buffer.c.obj)
 .text.packet_buffer_init
                0x0002d4f4       0xe0 mesh/core/libmesh_core_nrf52832_xxAA.a(packet_buffer.c.obj)
                0x0002d4f4                packet_buffer_init
 .text.packet_buffer_flush
                0x0002d5d4       0x5e mesh/core/libmesh_core_nrf52832_xxAA.a(packet_buffer.c.obj)
                0x0002d5d4                packet_buffer_flush
 *fill*         0x0002d632        0x2 
 .text.packet_buffer_reserve
                0x0002d634      0x11c mesh/core/libmesh_core_nrf52832_xxAA.a(packet_buffer.c.obj)
                0x0002d634                packet_buffer_reserve
 .text.packet_buffer_commit
                0x0002d750      0x104 mesh/core/libmesh_core_nrf52832_xxAA.a(packet_buffer.c.obj)
                0x0002d750                packet_buffer_commit
 .text.packet_buffer_pop
                0x0002d854       0x58 mesh/core/libmesh_core_nrf52832_xxAA.a(packet_buffer.c.obj)
                0x0002d854                packet_buffer_pop
 .text.packet_buffer_can_pop
                0x0002d8ac       0x28 mesh/core/libmesh_core_nrf52832_xxAA.a(packet_buffer.c.obj)
                0x0002d8ac                packet_buffer_can_pop
 .text.packet_buffer_packets_ready_to_pop
                0x0002d8d4       0x58 mesh/core/libmesh_core_nrf52832_xxAA.a(packet_buffer.c.obj)
                0x0002d8d4                packet_buffer_packets_ready_to_pop
 .text.packet_buffer_free
                0x0002d92c       0x8c mesh/core/libmesh_core_nrf52832_xxAA.a(packet_buffer.c.obj)
                0x0002d92c                packet_buffer_free
 .text.get_last_page
                0x0002d9b8       0x14 mesh/core/libmesh_core_nrf52832_xxAA.a(flash_manager_defrag.c.obj)
 .text.defrag_on_end
                0x0002d9cc       0x1c mesh/core/libmesh_core_nrf52832_xxAA.a(flash_manager_defrag.c.obj)
 .text.execute_procedure_step
                0x0002d9e8       0xa0 mesh/core/libmesh_core_nrf52832_xxAA.a(flash_manager_defrag.c.obj)
 .text.get_next_entry
                0x0002da88       0x40 mesh/core/libmesh_core_nrf52832_xxAA.a(flash_manager_defrag.c.obj)
 .text.get_next_data_entry
                0x0002dac8       0x20 mesh/core/libmesh_core_nrf52832_xxAA.a(flash_manager_defrag.c.obj)
 .text.on_flash_op_end
                0x0002dae8       0x30 mesh/core/libmesh_core_nrf52832_xxAA.a(flash_manager_defrag.c.obj)
 .text.check_for_invalid_entries
                0x0002db18       0x38 mesh/core/libmesh_core_nrf52832_xxAA.a(flash_manager_defrag.c.obj)
 .text.erase_recovery_area
                0x0002db50       0x34 mesh/core/libmesh_core_nrf52832_xxAA.a(flash_manager_defrag.c.obj)
 .text.flash.constprop.6
                0x0002db84       0x24 mesh/core/libmesh_core_nrf52832_xxAA.a(flash_manager_defrag.c.obj)
 .text.seal_storage_page
                0x0002dba8       0x50 mesh/core/libmesh_core_nrf52832_xxAA.a(flash_manager_defrag.c.obj)
 .text.invalidate_duplicate_entries
                0x0002dbf8       0x9c mesh/core/libmesh_core_nrf52832_xxAA.a(flash_manager_defrag.c.obj)
 .text.copy_metadata
                0x0002dc94       0x3c mesh/core/libmesh_core_nrf52832_xxAA.a(flash_manager_defrag.c.obj)
 .text.write_defrag_start_pointer
                0x0002dcd0       0x20 mesh/core/libmesh_core_nrf52832_xxAA.a(flash_manager_defrag.c.obj)
 .text.write_back
                0x0002dcf0       0x28 mesh/core/libmesh_core_nrf52832_xxAA.a(flash_manager_defrag.c.obj)
 .text.post_process
                0x0002dd18       0x40 mesh/core/libmesh_core_nrf52832_xxAA.a(flash_manager_defrag.c.obj)
 .text.backup_entries
                0x0002dd58      0x118 mesh/core/libmesh_core_nrf52832_xxAA.a(flash_manager_defrag.c.obj)
 .text.erase_source
                0x0002de70       0x34 mesh/core/libmesh_core_nrf52832_xxAA.a(flash_manager_defrag.c.obj)
 .text.flash_manager_defrag_init
                0x0002dea4       0x98 mesh/core/libmesh_core_nrf52832_xxAA.a(flash_manager_defrag.c.obj)
                0x0002dea4                flash_manager_defrag_init
 .text.flash_manager_defrag_is_running
                0x0002df3c       0x10 mesh/core/libmesh_core_nrf52832_xxAA.a(flash_manager_defrag.c.obj)
                0x0002df3c                flash_manager_defrag_is_running
 .text.flash_manager_defrag
                0x0002df4c       0xd8 mesh/core/libmesh_core_nrf52832_xxAA.a(flash_manager_defrag.c.obj)
                0x0002df4c                flash_manager_defrag
 .text.flash_manager_defrag_recovery_page_get
                0x0002e024        0xc mesh/core/libmesh_core_nrf52832_xxAA.a(flash_manager_defrag.c.obj)
                0x0002e024                flash_manager_defrag_recovery_page_get
 .text.fifo_init
                0x0002e030       0x50 mesh/core/libmesh_core_nrf52832_xxAA.a(fifo.c.obj)
                0x0002e030                fifo_init
 .text.fifo_push
                0x0002e080       0x50 mesh/core/libmesh_core_nrf52832_xxAA.a(fifo.c.obj)
                0x0002e080                fifo_push
 .text.fifo_pop
                0x0002e0d0       0x52 mesh/core/libmesh_core_nrf52832_xxAA.a(fifo.c.obj)
                0x0002e0d0                fifo_pop
 *fill*         0x0002e122        0x2 
 .text.send_end_events
                0x0002e124       0x84 mesh/core/libmesh_core_nrf52832_xxAA.a(mesh_flash.c.obj)
 .text.flash_op_schedule
                0x0002e1a8       0x9c mesh/core/libmesh_core_nrf52832_xxAA.a(mesh_flash.c.obj)
 .text.flash_op_start
                0x0002e244      0x170 mesh/core/libmesh_core_nrf52832_xxAA.a(mesh_flash.c.obj)
 .text.mesh_flash_init
                0x0002e3b4       0x88 mesh/core/libmesh_core_nrf52832_xxAA.a(mesh_flash.c.obj)
                0x0002e3b4                mesh_flash_init
 .text.mesh_flash_user_callback_set
                0x0002e43c       0x2c mesh/core/libmesh_core_nrf52832_xxAA.a(mesh_flash.c.obj)
                0x0002e43c                mesh_flash_user_callback_set
 .text.mesh_flash_op_push
                0x0002e468      0x128 mesh/core/libmesh_core_nrf52832_xxAA.a(mesh_flash.c.obj)
                0x0002e468                mesh_flash_op_push
 .text.queue_init
                0x0002e590       0x20 mesh/core/libmesh_core_nrf52832_xxAA.a(queue.c.obj)
                0x0002e590                queue_init
 .text.queue_push
                0x0002e5b0       0x48 mesh/core/libmesh_core_nrf52832_xxAA.a(queue.c.obj)
                0x0002e5b0                queue_push
 .text.queue_pop
                0x0002e5f8       0x34 mesh/core/libmesh_core_nrf52832_xxAA.a(queue.c.obj)
                0x0002e5f8                queue_pop
 .text.queue_peek
                0x0002e62c       0x1c mesh/core/libmesh_core_nrf52832_xxAA.a(queue.c.obj)
                0x0002e62c                queue_peek
 .text.my_xor.constprop.1
                0x0002e648       0x20 mesh/core/libmesh_core_nrf52832_xxAA.a(aes_cmac.c.obj)
 .text.utils_lshift.constprop.2
                0x0002e668       0x24 mesh/core/libmesh_core_nrf52832_xxAA.a(aes_cmac.c.obj)
 .text.aes_cmac_subkey_generate
                0x0002e68c       0x6c mesh/core/libmesh_core_nrf52832_xxAA.a(aes_cmac.c.obj)
                0x0002e68c                aes_cmac_subkey_generate
 .text.aes_cmac
                0x0002e6f8       0xbc mesh/core/libmesh_core_nrf52832_xxAA.a(aes_cmac.c.obj)
                0x0002e6f8                aes_cmac
 .text.nrf_mesh_opt_get
                0x0002e7b4       0x26 mesh/core/libmesh_core_nrf52832_xxAA.a(nrf_mesh_opt.c.obj)
                0x0002e7b4                nrf_mesh_opt_get
 .text.stage_get_available
                0x0002e7da       0x24 mesh/core/libmesh_core_nrf52832_xxAA.a(msqueue.c.obj)
 *fill*         0x0002e7fe        0x2 
 .text.msq_get  0x0002e800       0x4c mesh/core/libmesh_core_nrf52832_xxAA.a(msqueue.c.obj)
                0x0002e800                msq_get
 .text.msq_move
                0x0002e84c       0x44 mesh/core/libmesh_core_nrf52832_xxAA.a(msqueue.c.obj)
                0x0002e84c                msq_move
 .text.msq_reset
                0x0002e890       0x2c mesh/core/libmesh_core_nrf52832_xxAA.a(msqueue.c.obj)
                0x0002e890                msq_reset
 .text.msq_init
                0x0002e8bc       0x78 mesh/core/libmesh_core_nrf52832_xxAA.a(msqueue.c.obj)
                0x0002e8bc                msq_init
 .text.msq_available
                0x0002e934       0x3c mesh/core/libmesh_core_nrf52832_xxAA.a(msqueue.c.obj)
                0x0002e934                msq_available
 .text.replay_cache_add
                0x0002e970       0x60 mesh/core/libmesh_core_nrf52832_xxAA.a(replay_cache.c.obj)
                0x0002e970                replay_cache_add
 .text.replay_cache_has_room
                0x0002e9d0       0x38 mesh/core/libmesh_core_nrf52832_xxAA.a(replay_cache.c.obj)
                0x0002e9d0                replay_cache_has_room
 .text.replay_cache_has_elem
                0x0002ea08       0x38 mesh/core/libmesh_core_nrf52832_xxAA.a(replay_cache.c.obj)
                0x0002ea08                replay_cache_has_elem
 .text.replay_cache_clear
                0x0002ea40       0x28 mesh/core/libmesh_core_nrf52832_xxAA.a(replay_cache.c.obj)
                0x0002ea40                replay_cache_clear
 .text.replay_cache_init
                0x0002ea68        0x4 mesh/core/libmesh_core_nrf52832_xxAA.a(replay_cache.c.obj)
                0x0002ea68                replay_cache_init
 .text.wait_for_ready
                0x0002ea6c       0x10 mesh/core/libmesh_core_nrf52832_xxAA.a(nrf_flash.c.obj)
 .text.nrf_flash_erase
                0x0002ea7c       0x50 mesh/core/libmesh_core_nrf52832_xxAA.a(nrf_flash.c.obj)
                0x0002ea7c                nrf_flash_erase
 .text.nrf_flash_write
                0x0002eacc       0x50 mesh/core/libmesh_core_nrf52832_xxAA.a(nrf_flash.c.obj)
                0x0002eacc                nrf_flash_write
 .text._GetAvailWriteSpace
                0x0002eb1c       0x1c external/rtt/librtt_nrf52832_xxAA.a(SEGGER_RTT.c.obj)
 .text._WriteNoCheck
                0x0002eb38       0x3c external/rtt/librtt_nrf52832_xxAA.a(SEGGER_RTT.c.obj)
 .text._WriteBlocking
                0x0002eb74       0x52 external/rtt/librtt_nrf52832_xxAA.a(SEGGER_RTT.c.obj)
 *fill*         0x0002ebc6        0x2 
 .text._DoInit  0x0002ebc8       0x60 external/rtt/librtt_nrf52832_xxAA.a(SEGGER_RTT.c.obj)
 .text.SEGGER_RTT_ReadNoLock
                0x0002ec28       0x88 external/rtt/librtt_nrf52832_xxAA.a(SEGGER_RTT.c.obj)
                0x0002ec28                SEGGER_RTT_ReadNoLock
 .text.SEGGER_RTT_Read
                0x0002ecb0       0x1c external/rtt/librtt_nrf52832_xxAA.a(SEGGER_RTT.c.obj)
                0x0002ecb0                SEGGER_RTT_Read
 .text.SEGGER_RTT_WriteNoLock
                0x0002eccc       0x68 external/rtt/librtt_nrf52832_xxAA.a(SEGGER_RTT.c.obj)
                0x0002eccc                SEGGER_RTT_WriteNoLock
 .text.SEGGER_RTT_Write
                0x0002ed34       0x34 external/rtt/librtt_nrf52832_xxAA.a(SEGGER_RTT.c.obj)
                0x0002ed34                SEGGER_RTT_Write
 .text.SEGGER_RTT_GetKey
                0x0002ed68       0x20 external/rtt/librtt_nrf52832_xxAA.a(SEGGER_RTT.c.obj)
                0x0002ed68                SEGGER_RTT_GetKey
 .text._StoreChar
                0x0002ed88       0x3e external/rtt/librtt_nrf52832_xxAA.a(SEGGER_RTT_printf.c.obj)
 *fill*         0x0002edc6        0x2 
 .text._PrintUnsigned
                0x0002edc8       0xd0 external/rtt/librtt_nrf52832_xxAA.a(SEGGER_RTT_printf.c.obj)
 .text.SEGGER_RTT_vprintf
                0x0002ee98      0x246 external/rtt/librtt_nrf52832_xxAA.a(SEGGER_RTT_printf.c.obj)
                0x0002ee98                SEGGER_RTT_vprintf
 .text.SEGGER_RTT_printf
                0x0002f0de       0x1e external/rtt/librtt_nrf52832_xxAA.a(SEGGER_RTT_printf.c.obj)
                0x0002f0de                SEGGER_RTT_printf
 .text.uECC_vli_mult
                0x0002f0fc       0x64 external/micro-ecc/libuECC_nrf52832_xxAA.a(uECC.c.obj)
 .text.uECC_vli_clear
                0x0002f160       0x16 external/micro-ecc/libuECC_nrf52832_xxAA.a(uECC.c.obj)
 .text.uECC_vli_isZero
                0x0002f176       0x1e external/micro-ecc/libuECC_nrf52832_xxAA.a(uECC.c.obj)
 .text.uECC_vli_testBit
                0x0002f194       0x14 external/micro-ecc/libuECC_nrf52832_xxAA.a(uECC.c.obj)
 .text.uECC_vli_numBits
                0x0002f1a8       0x3a external/micro-ecc/libuECC_nrf52832_xxAA.a(uECC.c.obj)
 .text.uECC_vli_set
                0x0002f1e2       0x18 external/micro-ecc/libuECC_nrf52832_xxAA.a(uECC.c.obj)
 .text.uECC_vli_cmp_unsafe
                0x0002f1fa       0x28 external/micro-ecc/libuECC_nrf52832_xxAA.a(uECC.c.obj)
 .text.uECC_vli_rshift1
                0x0002f222       0x1c external/micro-ecc/libuECC_nrf52832_xxAA.a(uECC.c.obj)
 .text.uECC_vli_modMult_fast
                0x0002f23e       0x20 external/micro-ecc/libuECC_nrf52832_xxAA.a(uECC.c.obj)
 .text.uECC_vli_modSquare_fast
                0x0002f25e        0x8 external/micro-ecc/libuECC_nrf52832_xxAA.a(uECC.c.obj)
 .text.apply_z  0x0002f266       0x3e external/micro-ecc/libuECC_nrf52832_xxAA.a(uECC.c.obj)
 .text.uECC_vli_nativeToBytes
                0x0002f2a4       0x28 external/micro-ecc/libuECC_nrf52832_xxAA.a(uECC.c.obj)
 .text.uECC_vli_bytesToNative
                0x0002f2cc       0x40 external/micro-ecc/libuECC_nrf52832_xxAA.a(uECC.c.obj)
 .text.default_RNG
                0x0002f30c        0xc external/micro-ecc/libuECC_nrf52832_xxAA.a(uECC.c.obj)
 .text.uECC_vli_add.isra.0
                0x0002f318       0x4a external/micro-ecc/libuECC_nrf52832_xxAA.a(uECC.c.obj)
 .text.regularize_k
                0x0002f362       0x50 external/micro-ecc/libuECC_nrf52832_xxAA.a(uECC.c.obj)
 .text.uECC_vli_sub.isra.1
                0x0002f3b2       0x4e external/micro-ecc/libuECC_nrf52832_xxAA.a(uECC.c.obj)
 .text.uECC_vli_cmp
                0x0002f400       0x30 external/micro-ecc/libuECC_nrf52832_xxAA.a(uECC.c.obj)
 .text.uECC_generate_random_int
                0x0002f430       0x78 external/micro-ecc/libuECC_nrf52832_xxAA.a(uECC.c.obj)
 .text.uECC_vli_modAdd
                0x0002f4a8       0x2e external/micro-ecc/libuECC_nrf52832_xxAA.a(uECC.c.obj)
 *fill*         0x0002f4d6        0x2 
 .text.vli_mmod_fast_secp256r1
                0x0002f4d8      0x194 external/micro-ecc/libuECC_nrf52832_xxAA.a(uECC.c.obj)
 .text.uECC_vli_modSub.isra.2
                0x0002f66c       0x1c external/micro-ecc/libuECC_nrf52832_xxAA.a(uECC.c.obj)
 .text.double_jacobian_default
                0x0002f688      0x14a external/micro-ecc/libuECC_nrf52832_xxAA.a(uECC.c.obj)
 .text.x_side_default
                0x0002f7d2       0x5a external/micro-ecc/libuECC_nrf52832_xxAA.a(uECC.c.obj)
 .text.XYcZ_add
                0x0002f82c       0xbc external/micro-ecc/libuECC_nrf52832_xxAA.a(uECC.c.obj)
 .text.XYcZ_addC
                0x0002f8e8      0x10a external/micro-ecc/libuECC_nrf52832_xxAA.a(uECC.c.obj)
 .text.vli_modInv_update
                0x0002f9f2       0x36 external/micro-ecc/libuECC_nrf52832_xxAA.a(uECC.c.obj)
 .text.uECC_vli_modInv
                0x0002fa28      0x102 external/micro-ecc/libuECC_nrf52832_xxAA.a(uECC.c.obj)
 .text.EccPoint_mult
                0x0002fb2a      0x19e external/micro-ecc/libuECC_nrf52832_xxAA.a(uECC.c.obj)
 .text.EccPoint_compute_public_key
                0x0002fcc8       0x54 external/micro-ecc/libuECC_nrf52832_xxAA.a(uECC.c.obj)
 .text.uECC_secp256r1
                0x0002fd1c        0x8 external/micro-ecc/libuECC_nrf52832_xxAA.a(uECC.c.obj)
                0x0002fd1c                uECC_secp256r1
 .text.uECC_make_key
                0x0002fd24       0x7e external/micro-ecc/libuECC_nrf52832_xxAA.a(uECC.c.obj)
                0x0002fd24                uECC_make_key
 *fill*         0x0002fda2        0x2 
 .text.uECC_shared_secret
                0x0002fda4       0xbc external/micro-ecc/libuECC_nrf52832_xxAA.a(uECC.c.obj)
                0x0002fda4                uECC_shared_secret
 .text.uECC_valid_point
                0x0002fe60       0x86 external/micro-ecc/libuECC_nrf52832_xxAA.a(uECC.c.obj)
                0x0002fe60                uECC_valid_point
 .text.uECC_valid_public_key
                0x0002fee6       0x32 external/micro-ecc/libuECC_nrf52832_xxAA.a(uECC.c.obj)
                0x0002fee6                uECC_valid_public_key
 .text          0x0002ff18       0x30 c:/a/gcc_arm/6/bin/../lib/gcc/arm-none-eabi/6.3.1/thumb/v7e-m/fpv4-sp/hard\libgcc.a(_aeabi_uldivmod.o)
                0x0002ff18                __aeabi_uldivmod
 .text          0x0002ff48      0x2dc c:/a/gcc_arm/6/bin/../lib/gcc/arm-none-eabi/6.3.1/thumb/v7e-m/fpv4-sp/hard\libgcc.a(_udivmoddi4.o)
                0x0002ff48                __udivmoddi4
 .text          0x00030224        0x4 c:/a/gcc_arm/6/bin/../lib/gcc/arm-none-eabi/6.3.1/thumb/v7e-m/fpv4-sp/hard\libgcc.a(_dvmd_tls.o)
                0x00030224                __aeabi_idiv0
                0x00030224                __aeabi_ldiv0
 .text.exit     0x00030228       0x28 c:/a/gcc_arm/6/bin/../lib/gcc/arm-none-eabi/6.3.1/../../../../arm-none-eabi/lib/thumb/v7e-m/fpv4-sp/hard\libg_nano.a(lib_a-exit.o)
                0x00030228                exit
 .text.__libc_init_array
                0x00030250       0x48 c:/a/gcc_arm/6/bin/../lib/gcc/arm-none-eabi/6.3.1/../../../../arm-none-eabi/lib/thumb/v7e-m/fpv4-sp/hard\libg_nano.a(lib_a-init.o)
                0x00030250                __libc_init_array
 .text.malloc   0x00030298       0x10 c:/a/gcc_arm/6/bin/../lib/gcc/arm-none-eabi/6.3.1/../../../../arm-none-eabi/lib/thumb/v7e-m/fpv4-sp/hard\libg_nano.a(lib_a-malloc.o)
                0x00030298                malloc
 .text.free     0x000302a8       0x10 c:/a/gcc_arm/6/bin/../lib/gcc/arm-none-eabi/6.3.1/../../../../arm-none-eabi/lib/thumb/v7e-m/fpv4-sp/hard\libg_nano.a(lib_a-malloc.o)
                0x000302a8                free
 .text.memcmp   0x000302b8       0x1e c:/a/gcc_arm/6/bin/../lib/gcc/arm-none-eabi/6.3.1/../../../../arm-none-eabi/lib/thumb/v7e-m/fpv4-sp/hard\libg_nano.a(lib_a-memcmp.o)
                0x000302b8                memcmp
 .text.memcpy   0x000302d6       0x16 c:/a/gcc_arm/6/bin/../lib/gcc/arm-none-eabi/6.3.1/../../../../arm-none-eabi/lib/thumb/v7e-m/fpv4-sp/hard\libg_nano.a(lib_a-memcpy-stub.o)
                0x000302d6                memcpy
 .text.memset   0x000302ec       0x10 c:/a/gcc_arm/6/bin/../lib/gcc/arm-none-eabi/6.3.1/../../../../arm-none-eabi/lib/thumb/v7e-m/fpv4-sp/hard\libg_nano.a(lib_a-memset.o)
                0x000302ec                memset
 .text._free_r  0x000302fc       0x9c c:/a/gcc_arm/6/bin/../lib/gcc/arm-none-eabi/6.3.1/../../../../arm-none-eabi/lib/thumb/v7e-m/fpv4-sp/hard\libg_nano.a(lib_a-nano-freer.o)
                0x000302fc                _free_r
 .text._malloc_r
                0x00030398       0xbc c:/a/gcc_arm/6/bin/../lib/gcc/arm-none-eabi/6.3.1/../../../../arm-none-eabi/lib/thumb/v7e-m/fpv4-sp/hard\libg_nano.a(lib_a-nano-mallocr.o)
                0x00030398                _malloc_r
 .text._sbrk_r  0x00030454       0x20 c:/a/gcc_arm/6/bin/../lib/gcc/arm-none-eabi/6.3.1/../../../../arm-none-eabi/lib/thumb/v7e-m/fpv4-sp/hard\libg_nano.a(lib_a-sbrkr.o)
                0x00030454                _sbrk_r
 .text.strcpy   0x00030474       0x10 c:/a/gcc_arm/6/bin/../lib/gcc/arm-none-eabi/6.3.1/../../../../arm-none-eabi/lib/thumb/v7e-m/fpv4-sp/hard\libg_nano.a(lib_a-strcpy.o)
                0x00030474                strcpy
 .text          0x00030484       0x10 c:/a/gcc_arm/6/bin/../lib/gcc/arm-none-eabi/6.3.1/../../../../arm-none-eabi/lib/thumb/v7e-m/fpv4-sp/hard\libg_nano.a(lib_a-strlen.o)
                0x00030484                strlen
 .text.strrchr  0x00030494       0x26 c:/a/gcc_arm/6/bin/../lib/gcc/arm-none-eabi/6.3.1/../../../../arm-none-eabi/lib/thumb/v7e-m/fpv4-sp/hard\libg_nano.a(lib_a-strrchr.o)
                0x00030494                strrchr
 .text.__malloc_lock
                0x000304ba        0x2 c:/a/gcc_arm/6/bin/../lib/gcc/arm-none-eabi/6.3.1/../../../../arm-none-eabi/lib/thumb/v7e-m/fpv4-sp/hard\libg_nano.a(lib_a-mlock.o)
                0x000304ba                __malloc_lock
 .text.__malloc_unlock
                0x000304bc        0x2 c:/a/gcc_arm/6/bin/../lib/gcc/arm-none-eabi/6.3.1/../../../../arm-none-eabi/lib/thumb/v7e-m/fpv4-sp/hard\libg_nano.a(lib_a-mlock.o)
                0x000304bc                __malloc_unlock
 .text.strchr   0x000304be       0x1c c:/a/gcc_arm/6/bin/../lib/gcc/arm-none-eabi/6.3.1/../../../../arm-none-eabi/lib/thumb/v7e-m/fpv4-sp/hard\libg_nano.a(lib_a-strchr.o)
                0x000304be                strchr
 *fill*         0x000304da        0x2 
 .text._sbrk    0x000304dc       0x1c c:/a/gcc_arm/6/bin/../lib/gcc/arm-none-eabi/6.3.1/../../../../arm-none-eabi/lib/thumb/v7e-m/fpv4-sp/hard\libnosys.a(sbrk.o)
                0x000304dc                _sbrk
 .text._exit    0x000304f8        0x4 c:/a/gcc_arm/6/bin/../lib/gcc/arm-none-eabi/6.3.1/../../../../arm-none-eabi/lib/thumb/v7e-m/fpv4-sp/hard\libnosys.a(_exit.o)
                0x000304f8                _exit
 *(.init)
 .init          0x000304fc        0x4 c:/a/gcc_arm/6/bin/../lib/gcc/arm-none-eabi/6.3.1/thumb/v7e-m/fpv4-sp/hard/crti.o
                0x000304fc                _init
 .init          0x00030500        0x8 c:/a/gcc_arm/6/bin/../lib/gcc/arm-none-eabi/6.3.1/thumb/v7e-m/fpv4-sp/hard/crtn.o
 *(.fini)
 .fini          0x00030508        0x4 c:/a/gcc_arm/6/bin/../lib/gcc/arm-none-eabi/6.3.1/thumb/v7e-m/fpv4-sp/hard/crti.o
                0x00030508                _fini
 .fini          0x0003050c        0x8 c:/a/gcc_arm/6/bin/../lib/gcc/arm-none-eabi/6.3.1/thumb/v7e-m/fpv4-sp/hard/crtn.o
 *crtbegin.o(.ctors)
 *crtbegin?.o(.ctors)
 *(EXCLUDE_FILE(*crtend.o *crtend?.o) .ctors)
 *(SORT(.ctors.*))
 *(.ctors)
 *crtbegin.o(.dtors)
 *crtbegin?.o(.dtors)
 *(EXCLUDE_FILE(*crtend.o *crtend?.o) .dtors)
 *(SORT(.dtors.*))
 *(.dtors)
 *(.rodata*)
 .rodata        0x00030514        0x4 examples/light_switch/client/CMakeFiles/light_switch_client_nrf52832_xxAA_s132_3.1.0.dir/src/main.c.obj
 .rodata.button_event_handler.str1.1
                0x00030518       0x94 examples/light_switch/client/CMakeFiles/light_switch_client_nrf52832_xxAA_s132_3.1.0.dir/src/main.c.obj
 .rodata.health_event_cb.str1.1
                0x000305ac       0x35 examples/light_switch/client/CMakeFiles/light_switch_client_nrf52832_xxAA_s132_3.1.0.dir/src/main.c.obj
 .rodata.m_appkey
                0x000305e1       0x10 examples/light_switch/client/CMakeFiles/light_switch_client_nrf52832_xxAA_s132_3.1.0.dir/src/main.c.obj
 .rodata.m_netkey
                0x000305f1       0x10 examples/light_switch/client/CMakeFiles/light_switch_client_nrf52832_xxAA_s132_3.1.0.dir/src/main.c.obj
 .rodata.main.str1.1
                0x00030601       0x53 examples/light_switch/client/CMakeFiles/light_switch_client_nrf52832_xxAA_s132_3.1.0.dir/src/main.c.obj
 .rodata.provisioner_config_failed_cb.str1.1
                0x00030654       0x23 examples/light_switch/client/CMakeFiles/light_switch_client_nrf52832_xxAA_s132_3.1.0.dir/src/main.c.obj
 .rodata.provisioner_config_successful_cb.str1.1
                0x00030677       0x40 examples/light_switch/client/CMakeFiles/light_switch_client_nrf52832_xxAA_s132_3.1.0.dir/src/main.c.obj
 .rodata.provisioner_prov_complete_cb.str1.1
                0x000306b7       0x2f examples/light_switch/client/CMakeFiles/light_switch_client_nrf52832_xxAA_s132_3.1.0.dir/src/main.c.obj
 .rodata        0x000306e6       0x2b examples/light_switch/client/CMakeFiles/light_switch_client_nrf52832_xxAA_s132_3.1.0.dir/src/provisioner.c.obj
 .rodata.config_client_event_cb.str1.1
                0x00030711       0x19 examples/light_switch/client/CMakeFiles/light_switch_client_nrf52832_xxAA_s132_3.1.0.dir/src/provisioner.c.obj
 .rodata.do_config_step.str1.1
                0x0003072a      0x139 examples/light_switch/client/CMakeFiles/light_switch_client_nrf52832_xxAA_s132_3.1.0.dir/src/provisioner.c.obj
 .rodata.prov_evt_handler.str1.1
                0x00030863       0xea examples/light_switch/client/CMakeFiles/light_switch_client_nrf52832_xxAA_s132_3.1.0.dir/src/provisioner.c.obj
 .rodata.HardFault_Handler.str1.1
                0x0003094d        0xe examples/light_switch/client/CMakeFiles/light_switch_client_nrf52832_xxAA_s132_3.1.0.dir/__/__/nrf_mesh_sdk.c.obj
 .rodata.app_error_handler.str1.1
                0x0003095b       0x1d examples/light_switch/client/CMakeFiles/light_switch_client_nrf52832_xxAA_s132_3.1.0.dir/__/__/nrf_mesh_sdk.c.obj
 .rodata.mesh_assert_handler.str1.1
                0x00030978       0x34 examples/light_switch/client/CMakeFiles/light_switch_client_nrf52832_xxAA_s132_3.1.0.dir/__/__/nrf_mesh_sdk.c.obj
 .rodata.mesh_core_setup.str1.1
                0x000309ac       0x47 examples/light_switch/client/CMakeFiles/light_switch_client_nrf52832_xxAA_s132_3.1.0.dir/__/__/nrf_mesh_sdk.c.obj
 .rodata.mesh_softdevice_enable.str1.1
                0x000309f3       0x65 examples/light_switch/client/CMakeFiles/light_switch_client_nrf52832_xxAA_s132_3.1.0.dir/__/__/nrf_mesh_sdk.c.obj
 .rodata.softdevice_assert_handler.str1.1
                0x00030a58       0x1d examples/light_switch/client/CMakeFiles/light_switch_client_nrf52832_xxAA_s132_3.1.0.dir/__/__/nrf_mesh_sdk.c.obj
 .rodata.m_buttons_list
                0x00030a75        0x4 examples/light_switch/client/CMakeFiles/light_switch_client_nrf52832_xxAA_s132_3.1.0.dir/__/__/common/src/simple_hal.c.obj
 *fill*         0x00030a79        0x3 
 .rodata.m_opcode_handlers
                0x00030a7c        0x8 examples/light_switch/client/CMakeFiles/light_switch_client_nrf52832_xxAA_s132_3.1.0.dir/__/__/__/models/simple_on_off/src/simple_on_off_client.c.obj
 .rodata.m_config_message_lut
                0x00030a84       0x5a examples/light_switch/client/CMakeFiles/light_switch_client_nrf52832_xxAA_s132_3.1.0.dir/__/__/__/models/config/src/config_client.c.obj
 *fill*         0x00030ade        0x2 
 .rodata.m_opcode_handlers
                0x00030ae0       0x78 examples/light_switch/client/CMakeFiles/light_switch_client_nrf52832_xxAA_s132_3.1.0.dir/__/__/__/models/config/src/config_client.c.obj
 .rodata.m_opcode_handlers
                0x00030b58       0x20 examples/light_switch/client/CMakeFiles/light_switch_client_nrf52832_xxAA_s132_3.1.0.dir/__/__/__/models/health/src/health_client.c.obj
 .rodata.mesh_evt_cb.str1.1
                0x00030b78       0x2f examples/light_switch/client/CMakeFiles/light_switch_client_nrf52832_xxAA_s132_3.1.0.dir/__/__/__/mesh/access/src/access.c.obj
 .rodata.multiply_de_bruijn_bit_position.9032
                0x00030ba7       0x20 examples/light_switch/client/CMakeFiles/light_switch_client_nrf52832_xxAA_s132_3.1.0.dir/__/__/__/mesh/access/src/access.c.obj
 .rodata.packet_tx.str1.1
                0x00030bc7       0x13 examples/light_switch/client/CMakeFiles/light_switch_client_nrf52832_xxAA_s132_3.1.0.dir/__/__/__/mesh/access/src/access.c.obj
 *fill*         0x00030bda        0x2 
 .rodata.m_flash_groups
                0x00030bdc       0xa8 examples/light_switch/client/CMakeFiles/light_switch_client_nrf52832_xxAA_s132_3.1.0.dir/__/__/__/mesh/access/src/device_state_manager.c.obj
 .rodata.m_prov_callbacks
                0x00030c84       0x10 examples/light_switch/client/CMakeFiles/light_switch_client_nrf52832_xxAA_s132_3.1.0.dir/__/__/__/mesh/prov/src/prov_provisioner.c.obj
 .rodata.pdu_sizes.10817
                0x00030c94        0xa examples/light_switch/client/CMakeFiles/light_switch_client_nrf52832_xxAA_s132_3.1.0.dir/__/__/__/mesh/prov/src/provisioning.c.obj
 .rodata.alphanumeric.10922
                0x00030c9e       0x25 examples/light_switch/client/CMakeFiles/light_switch_client_nrf52832_xxAA_s132_3.1.0.dir/__/__/__/mesh/prov/src/prov_utils.c.obj
 *fill*         0x00030cc3        0x1 
 .rodata.numeric_max.10916
                0x00030cc4       0x24 examples/light_switch/client/CMakeFiles/light_switch_client_nrf52832_xxAA_s132_3.1.0.dir/__/__/__/mesh/prov/src/prov_utils.c.obj
 .rodata.prov_utils_authentication_values_derive.str1.1
                0x00030ce8        0x5 examples/light_switch/client/CMakeFiles/light_switch_client_nrf52832_xxAA_s132_3.1.0.dir/__/__/__/mesh/prov/src/prov_utils.c.obj
 .rodata.prov_utils_derive_keys.str1.1
                0x00030ced        0xf examples/light_switch/client/CMakeFiles/light_switch_client_nrf52832_xxAA_s132_3.1.0.dir/__/__/__/mesh/prov/src/prov_utils.c.obj
 .rodata.add_active_bearer.str1.1
                0x00030cfc       0x2c examples/light_switch/client/CMakeFiles/light_switch_client_nrf52832_xxAA_s132_3.1.0.dir/__/__/__/mesh/prov/src/prov_bearer_adv.c.obj
 .rodata.crctable.10675
                0x00030d28      0x100 examples/light_switch/client/CMakeFiles/light_switch_client_nrf52832_xxAA_s132_3.1.0.dir/__/__/__/mesh/prov/src/prov_bearer_adv.c.obj
 .rodata.interface.10905
                0x00030e28       0x14 examples/light_switch/client/CMakeFiles/light_switch_client_nrf52832_xxAA_s132_3.1.0.dir/__/__/__/mesh/prov/src/prov_bearer_adv.c.obj
 .rodata.prov_bearer_adv_packet_in.str1.1
                0x00030e3c      0x26e examples/light_switch/client/CMakeFiles/light_switch_client_nrf52832_xxAA_s132_3.1.0.dir/__/__/__/mesh/prov/src/prov_bearer_adv.c.obj
 .rodata.tx_retry_cb.str1.1
                0x000310aa       0x37 examples/light_switch/client/CMakeFiles/light_switch_client_nrf52832_xxAA_s132_3.1.0.dir/__/__/__/mesh/prov/src/prov_bearer_adv.c.obj
 .rodata.types_lookup.8837
                0x000310e1        0x4 mesh/core/libmesh_core_nrf52832_xxAA.a(nrf_mesh_utils.c.obj)
 .rodata.nrf_mesh_listen.str1.1
                0x000310e5       0x70 mesh/core/libmesh_core_nrf52832_xxAA.a(nrf_mesh.c.obj)
 *fill*         0x00031155        0x1 
 .rodata.CSWTCH.9
                0x00031156       0x10 mesh/core/libmesh_core_nrf52832_xxAA.a(hal.c.obj)
 .rodata        0x00031166       0x15 mesh/core/libmesh_core_nrf52832_xxAA.a(enc.c.obj)
 .rodata.network_packet_in.str1.1
                0x0003117b       0x40 mesh/core/libmesh_core_nrf52832_xxAA.a(network.c.obj)
                                 0x48 (size before relaxing)
 .rodata.network_packet_send.str1.1
                0x000311bb       0x49 mesh/core/libmesh_core_nrf52832_xxAA.a(network.c.obj)
 .rodata        0x00031204        0x7 mesh/core/libmesh_core_nrf52832_xxAA.a(nrf_mesh_keygen.c.obj)
 .rodata.log_callback_rtt.str1.1
                0x0003120b       0x15 mesh/core/libmesh_core_nrf52832_xxAA.a(log.c.obj)
 .rodata.str1.1
                0x00031220       0x11 mesh/core/libmesh_core_nrf52832_xxAA.a(log.c.obj)
 *fill*         0x00031231        0x3 
 .rodata.INVALID_HEADER
                0x00031234        0x4 mesh/core/libmesh_core_nrf52832_xxAA.a(flash_manager.c.obj)
                0x00031234                INVALID_HEADER
 .rodata.PADDING_HEADER
                0x00031238        0x4 mesh/core/libmesh_core_nrf52832_xxAA.a(flash_manager.c.obj)
                0x00031238                PADDING_HEADER
 .rodata.SEAL_HEADER
                0x0003123c        0x4 mesh/core/libmesh_core_nrf52832_xxAA.a(flash_manager.c.obj)
                0x0003123c                SEAL_HEADER
 .rodata.process_action_queue.str1.1
                0x00031240       0x21 mesh/core/libmesh_core_nrf52832_xxAA.a(flash_manager.c.obj)
                                 0x4f (size before relaxing)
 .rodata.beacon_packet_in.str1.1
                0x00031261       0x51 mesh/core/libmesh_core_nrf52832_xxAA.a(beacon.c.obj)
                                 0x59 (size before relaxing)
 *fill*         0x000312b2        0x2 
 .rodata.cp_handler
                0x000312b4        0x8 mesh/core/libmesh_core_nrf52832_xxAA.a(heartbeat.c.obj)
 .rodata.net_beacon_init.str1.1
                0x000312bc        0x5 mesh/core/libmesh_core_nrf52832_xxAA.a(net_beacon.c.obj)
 *fill*         0x000312c1        0x3 
 .rodata.m_interface
                0x000312c4        0xc mesh/core/libmesh_core_nrf52832_xxAA.a(core_tx_adv.c.obj)
 .rodata.radio_mode_to_us_per_byte.9234
                0x000312d0        0x6 mesh/core/libmesh_core_nrf52832_xxAA.a(broadcast.c.obj)
 .rodata.channel_rf_offsets.8475
                0x000312d6       0x28 mesh/core/libmesh_core_nrf52832_xxAA.a(radio_config.c.obj)
 .rodata        0x000312fe        0x3 mesh/core/libmesh_core_nrf52832_xxAA.a(scanner.c.obj)
 .rodata.sar_ctx_cancel.str1.1
                0x00031301       0x18 mesh/core/libmesh_core_nrf52832_xxAA.a(transport.c.obj)
 .rodata.sar_ctx_tx_complete.str1.1
                0x00031319       0x1d mesh/core/libmesh_core_nrf52832_xxAA.a(transport.c.obj)
                                 0x4b (size before relaxing)
 .rodata.test_transport_decrypt.str1.1
                0x00031336       0x13 mesh/core/libmesh_core_nrf52832_xxAA.a(transport.c.obj)
 .rodata.transport_packet_in.str1.1
                0x00031349       0x24 mesh/core/libmesh_core_nrf52832_xxAA.a(transport.c.obj)
 .rodata.upper_transport_access_packet_in.str1.1
                0x0003136d       0x29 mesh/core/libmesh_core_nrf52832_xxAA.a(transport.c.obj)
 .rodata.upper_transport_packet_in.str1.1
                0x00031396       0x2e mesh/core/libmesh_core_nrf52832_xxAA.a(transport.c.obj)
 .rodata.upper_transport_tx.str1.1
                0x000313c4       0x2c mesh/core/libmesh_core_nrf52832_xxAA.a(transport.c.obj)
                                 0x34 (size before relaxing)
 .rodata.flash_manager_defrag.str1.1
                0x000313f0       0x28 mesh/core/libmesh_core_nrf52832_xxAA.a(flash_manager_defrag.c.obj)
                                 0x56 (size before relaxing)
 .rodata.m_procedure_steps
                0x00031418       0x28 mesh/core/libmesh_core_nrf52832_xxAA.a(flash_manager_defrag.c.obj)
 .rodata.m_all_operations
                0x00031440       0x10 mesh/core/libmesh_core_nrf52832_xxAA.a(mesh_flash.c.obj)
 .rodata.Rb.7348
                0x00031450       0x10 mesh/core/libmesh_core_nrf52832_xxAA.a(aes_cmac.c.obj)
 .rodata._DoInit.str1.1
                0x00031460       0x14 external/rtt/librtt_nrf52832_xxAA.a(SEGGER_RTT.c.obj)
 .rodata._aV2C.5497
                0x00031474       0x10 external/rtt/librtt_nrf52832_xxAA.a(SEGGER_RTT_printf.c.obj)
 .rodata.curve_secp256r1
                0x00031484       0xb0 external/micro-ecc/libuECC_nrf52832_xxAA.a(uECC.c.obj)
 .rodata._global_impure_ptr
                0x00031534        0x4 c:/a/gcc_arm/6/bin/../lib/gcc/arm-none-eabi/6.3.1/../../../../arm-none-eabi/lib/thumb/v7e-m/fpv4-sp/hard\libg_nano.a(lib_a-impure.o)
                0x00031534                _global_impure_ptr
 *(.eh_frame*)
 .eh_frame      0x00031538        0x0 c:/a/gcc_arm/6/bin/../lib/gcc/arm-none-eabi/6.3.1/thumb/v7e-m/fpv4-sp/hard/crtbegin.o
 .eh_frame      0x00031538        0x4 c:/a/gcc_arm/6/bin/../lib/gcc/arm-none-eabi/6.3.1/thumb/v7e-m/fpv4-sp/hard/crtend.o

.glue_7         0x0003153c        0x0
 .glue_7        0x0003153c        0x0 linker stubs

.glue_7t        0x0003153c        0x0
 .glue_7t       0x0003153c        0x0 linker stubs

.vfp11_veneer   0x0003153c        0x0
 .vfp11_veneer  0x0003153c        0x0 linker stubs

.v4_bx          0x0003153c        0x0
 .v4_bx         0x0003153c        0x0 linker stubs

.iplt           0x0003153c        0x0
 .iplt          0x0003153c        0x0 c:/a/gcc_arm/6/bin/../lib/gcc/arm-none-eabi/6.3.1/thumb/v7e-m/fpv4-sp/hard/crtbegin.o

.pwr_mgmt_data  0x0003153c        0x0
                [!provide]                PROVIDE (__start_pwr_mgmt_data, .)
 *(SORT(.pwr_mgmt_data*))
                [!provide]                PROVIDE (__stop_pwr_mgmt_data, .)

.log_const_data
                0x0003153c        0x0
                [!provide]                PROVIDE (__start_log_const_data, .)
 *(.log_const_data)
                [!provide]                PROVIDE (__stop_log_const_data, .)

.cli_command    0x0003153c        0x0
                [!provide]                PROVIDE (__start_cli_command, .)
 *(.cli_command)
                [!provide]                PROVIDE (__stop_cli_command, .)

.sdh_stack_observers
                0x0003153c        0x0
                [!provide]                PROVIDE (__start_sdh_stack_observers, .)
 *(SORT(.sdh_stack_observers*))
                [!provide]                PROVIDE (__stop_sdh_stack_observers, .)

.sdh_req_observers
                0x0003153c        0x0
                [!provide]                PROVIDE (__start_sdh_req_observers, .)
 *(SORT(.sdh_req_observers*))
                [!provide]                PROVIDE (__stop_sdh_req_observers, .)

.sdh_state_observers
                0x0003153c        0x0
                [!provide]                PROVIDE (__start_sdh_state_observers, .)
 *(SORT(.sdh_state_observers*))
                [!provide]                PROVIDE (__stop_sdh_state_observers, .)

.sdh_ant_observers
                0x0003153c        0x0
                [!provide]                PROVIDE (__start_sdh_ant_observers, .)
 *(SORT(.sdh_ant_observers*))
                [!provide]                PROVIDE (__stop_sdh_ant_observers, .)

.sdh_ble_observers
                0x0003153c        0x0
                [!provide]                PROVIDE (__start_sdh_ble_observers, .)
 *(SORT(.sdh_ble_observers*))
                [!provide]                PROVIDE (__stop_sdh_ble_observers, .)

.sdh_soc_observers
                0x0003153c        0x0
                [!provide]                PROVIDE (__start_sdh_soc_observers, .)
 *(SORT(.sdh_soc_observers*))
                [!provide]                PROVIDE (__stop_sdh_soc_observers, .)

.ARM.extab
 *(.ARM.extab* .gnu.linkonce.armextab.*)
                0x0003153c                __exidx_start = .

.ARM.exidx      0x0003153c        0x8
 *(.ARM.exidx* .gnu.linkonce.armexidx.*)
 .ARM.exidx     0x0003153c        0x8 c:/a/gcc_arm/6/bin/../lib/gcc/arm-none-eabi/6.3.1/../../../../arm-none-eabi/lib/thumb/v7e-m/fpv4-sp/hard/crt0.o
 .ARM.exidx     0x00031544        0x0 c:/a/gcc_arm/6/bin/../lib/gcc/arm-none-eabi/6.3.1/thumb/v7e-m/fpv4-sp/hard\libgcc.a(_udivmoddi4.o)
                                  0x8 (size before relaxing)
                0x00031544                __exidx_end = .
                0x00031544                __etext = .

.rel.dyn        0x00031544        0x0
 .rel.iplt      0x00031544        0x0 c:/a/gcc_arm/6/bin/../lib/gcc/arm-none-eabi/6.3.1/thumb/v7e-m/fpv4-sp/hard/crtbegin.o

.data           0x200019c0      0x11c load address 0x00031544
                0x200019c0                __data_start__ = .
 *(vtable)
 *(.data*)
 .data.flash_add_mem_available_struct.10104
                0x200019c0       0x10 examples/light_switch/client/CMakeFiles/light_switch_client_nrf52832_xxAA_s132_3.1.0.dir/__/__/__/mesh/access/src/access.c.obj
 .data.flash_clear_mem_available_struct.10193
                0x200019d0       0x10 examples/light_switch/client/CMakeFiles/light_switch_client_nrf52832_xxAA_s132_3.1.0.dir/__/__/__/mesh/access/src/access.c.obj
 .data.flash_store_mem_available_struct.10217
                0x200019e0       0x10 examples/light_switch/client/CMakeFiles/light_switch_client_nrf52832_xxAA_s132_3.1.0.dir/__/__/__/mesh/access/src/access.c.obj
 .data.m_default_ttl
                0x200019f0        0x1 examples/light_switch/client/CMakeFiles/light_switch_client_nrf52832_xxAA_s132_3.1.0.dir/__/__/__/mesh/access/src/access.c.obj
 *fill*         0x200019f1        0x3 
 .data.mem_listener.10415
                0x200019f4       0x10 examples/light_switch/client/CMakeFiles/light_switch_client_nrf52832_xxAA_s132_3.1.0.dir/__/__/__/mesh/access/src/device_state_manager.c.obj
 .data.mem_listener.10441
                0x20001a04       0x10 examples/light_switch/client/CMakeFiles/light_switch_client_nrf52832_xxAA_s132_3.1.0.dir/__/__/__/mesh/access/src/device_state_manager.c.obj
 .data.m_async_process_flag
                0x20001a14        0x4 examples/light_switch/client/CMakeFiles/light_switch_client_nrf52832_xxAA_s132_3.1.0.dir/__/__/__/mesh/prov/src/prov_bearer_adv.c.obj
 .data.SystemCoreClock
                0x20001a18        0x4 examples/light_switch/client/CMakeFiles/light_switch_client_nrf52832_xxAA_s132_3.1.0.dir/__/__/__/external/nRF5_SDK_14.2.0_17b948a/components/toolchain/system_nrf52.c.obj
                0x20001a18                SystemCoreClock
 .data.mem_listener.9561
                0x20001a1c       0x10 mesh/core/libmesh_core_nrf52832_xxAA.a(net_state.c.obj)
 .data.mem_listener.9566
                0x20001a2c       0x10 mesh/core/libmesh_core_nrf52832_xxAA.a(net_state.c.obj)
 .data.mem_listener.9580
                0x20001a3c       0x10 mesh/core/libmesh_core_nrf52832_xxAA.a(net_state.c.obj)
 .data.m_nrf_mesh_listener
                0x20001a4c        0xc mesh/core/libmesh_core_nrf52832_xxAA.a(nrf_mesh.c.obj)
 .data.g_log_dbg_lvl
                0x20001a58        0x4 mesh/core/libmesh_core_nrf52832_xxAA.a(log.c.obj)
                0x20001a58                g_log_dbg_lvl
 .data.g_log_dbg_msk
                0x20001a5c        0x4 mesh/core/libmesh_core_nrf52832_xxAA.a(log.c.obj)
                0x20001a5c                g_log_dbg_msk
 .data.g_log_hex_digits
                0x20001a60        0x4 mesh/core/libmesh_core_nrf52832_xxAA.a(log.c.obj)
                0x20001a60                g_log_hex_digits
 .data.m_log_callback
                0x20001a64        0x4 mesh/core/libmesh_core_nrf52832_xxAA.a(log.c.obj)
                0x20001a64                m_log_callback
 .data.g_rng_function
                0x20001a68        0x4 external/micro-ecc/libuECC_nrf52832_xxAA.a(uECC.c.obj)
 .data._impure_ptr
                0x20001a6c        0x4 c:/a/gcc_arm/6/bin/../lib/gcc/arm-none-eabi/6.3.1/../../../../arm-none-eabi/lib/thumb/v7e-m/fpv4-sp/hard\libg_nano.a(lib_a-impure.o)
                0x20001a6c                _impure_ptr
 .data.impure_data
                0x20001a70       0x60 c:/a/gcc_arm/6/bin/../lib/gcc/arm-none-eabi/6.3.1/../../../../arm-none-eabi/lib/thumb/v7e-m/fpv4-sp/hard\libg_nano.a(lib_a-impure.o)
                0x20001ad0                . = ALIGN (0x4)
                0x20001ad0                PROVIDE (__preinit_array_start, .)
 *(.preinit_array)
                0x20001ad0                PROVIDE (__preinit_array_end, .)
                0x20001ad0                . = ALIGN (0x4)
                0x20001ad0                PROVIDE (__init_array_start, .)
 *(SORT(.init_array.*))
 *(.init_array)
 .init_array    0x20001ad0        0x4 c:/a/gcc_arm/6/bin/../lib/gcc/arm-none-eabi/6.3.1/thumb/v7e-m/fpv4-sp/hard/crtbegin.o
                0x20001ad4                PROVIDE (__init_array_end, .)
                0x20001ad4                . = ALIGN (0x4)
                [!provide]                PROVIDE (__fini_array_start, .)
 *(SORT(.fini_array.*))
 *(.fini_array)
 .fini_array    0x20001ad4        0x4 c:/a/gcc_arm/6/bin/../lib/gcc/arm-none-eabi/6.3.1/thumb/v7e-m/fpv4-sp/hard/crtbegin.o
                [!provide]                PROVIDE (__fini_array_end, .)
 *(.jcr*)
 .jcr           0x20001ad8        0x0 c:/a/gcc_arm/6/bin/../lib/gcc/arm-none-eabi/6.3.1/thumb/v7e-m/fpv4-sp/hard/crtbegin.o
 .jcr           0x20001ad8        0x4 c:/a/gcc_arm/6/bin/../lib/gcc/arm-none-eabi/6.3.1/thumb/v7e-m/fpv4-sp/hard/crtend.o
                0x20001adc                . = ALIGN (0x4)
                0x20001adc                __data_end__ = .
LOAD c:/a/gcc_arm/6/bin/../lib/gcc/arm-none-eabi/6.3.1/thumb/v7e-m/fpv4-sp/hard/crti.o
LOAD c:/a/gcc_arm/6/bin/../lib/gcc/arm-none-eabi/6.3.1/thumb/v7e-m/fpv4-sp/hard/crtbegin.o
LOAD c:/a/gcc_arm/6/bin/../lib/gcc/arm-none-eabi/6.3.1/../../../../arm-none-eabi/lib/thumb/v7e-m/fpv4-sp/hard/crt0.o
LOAD examples/light_switch/client/CMakeFiles/light_switch_client_nrf52832_xxAA_s132_3.1.0.dir/src/main.c.obj
LOAD examples/light_switch/client/CMakeFiles/light_switch_client_nrf52832_xxAA_s132_3.1.0.dir/src/provisioner.c.obj
LOAD examples/light_switch/client/CMakeFiles/light_switch_client_nrf52832_xxAA_s132_3.1.0.dir/__/__/nrf_mesh_sdk.c.obj
LOAD examples/light_switch/client/CMakeFiles/light_switch_client_nrf52832_xxAA_s132_3.1.0.dir/__/__/common/src/rtt_input.c.obj
LOAD examples/light_switch/client/CMakeFiles/light_switch_client_nrf52832_xxAA_s132_3.1.0.dir/__/__/common/src/simple_hal.c.obj
LOAD examples/light_switch/client/CMakeFiles/light_switch_client_nrf52832_xxAA_s132_3.1.0.dir/__/__/nrf_mesh_weak.c.obj
LOAD examples/light_switch/client/CMakeFiles/light_switch_client_nrf52832_xxAA_s132_3.1.0.dir/__/__/__/models/simple_on_off/src/simple_on_off_client.c.obj
LOAD examples/light_switch/client/CMakeFiles/light_switch_client_nrf52832_xxAA_s132_3.1.0.dir/__/__/__/models/config/src/config_client.c.obj
LOAD examples/light_switch/client/CMakeFiles/light_switch_client_nrf52832_xxAA_s132_3.1.0.dir/__/__/__/models/health/src/health_client.c.obj
LOAD examples/light_switch/client/CMakeFiles/light_switch_client_nrf52832_xxAA_s132_3.1.0.dir/__/__/__/mesh/access/src/access_publish.c.obj
LOAD examples/light_switch/client/CMakeFiles/light_switch_client_nrf52832_xxAA_s132_3.1.0.dir/__/__/__/mesh/access/src/access.c.obj
LOAD examples/light_switch/client/CMakeFiles/light_switch_client_nrf52832_xxAA_s132_3.1.0.dir/__/__/__/mesh/access/src/access_reliable.c.obj
LOAD examples/light_switch/client/CMakeFiles/light_switch_client_nrf52832_xxAA_s132_3.1.0.dir/__/__/__/mesh/access/src/device_state_manager.c.obj
LOAD examples/light_switch/client/CMakeFiles/light_switch_client_nrf52832_xxAA_s132_3.1.0.dir/__/__/__/mesh/prov/src/prov_provisioner.c.obj
LOAD examples/light_switch/client/CMakeFiles/light_switch_client_nrf52832_xxAA_s132_3.1.0.dir/__/__/__/mesh/prov/src/nrf_mesh_prov.c.obj
LOAD examples/light_switch/client/CMakeFiles/light_switch_client_nrf52832_xxAA_s132_3.1.0.dir/__/__/__/mesh/prov/src/provisioning.c.obj
LOAD examples/light_switch/client/CMakeFiles/light_switch_client_nrf52832_xxAA_s132_3.1.0.dir/__/__/__/mesh/prov/src/prov_beacon.c.obj
LOAD examples/light_switch/client/CMakeFiles/light_switch_client_nrf52832_xxAA_s132_3.1.0.dir/__/__/__/mesh/prov/src/prov_utils.c.obj
LOAD examples/light_switch/client/CMakeFiles/light_switch_client_nrf52832_xxAA_s132_3.1.0.dir/__/__/__/mesh/prov/src/prov_bearer_adv.c.obj
LOAD examples/light_switch/client/CMakeFiles/light_switch_client_nrf52832_xxAA_s132_3.1.0.dir/__/__/__/external/nRF5_SDK_14.2.0_17b948a/components/toolchain/system_nrf52.c.obj
LOAD examples/light_switch/client/CMakeFiles/light_switch_client_nrf52832_xxAA_s132_3.1.0.dir/__/__/__/external/nRF5_SDK_14.2.0_17b948a/components/toolchain/gcc/gcc_startup_nrf52.S.obj
LOAD mesh/core/libmesh_core_nrf52832_xxAA.a
LOAD external/rtt/librtt_nrf52832_xxAA.a
LOAD external/micro-ecc/libuECC_nrf52832_xxAA.a
START GROUP
LOAD c:/a/gcc_arm/6/bin/../lib/gcc/arm-none-eabi/6.3.1/thumb/v7e-m/fpv4-sp/hard\libgcc.a
LOAD c:/a/gcc_arm/6/bin/../lib/gcc/arm-none-eabi/6.3.1/../../../../arm-none-eabi/lib/thumb/v7e-m/fpv4-sp/hard\libg_nano.a
LOAD c:/a/gcc_arm/6/bin/../lib/gcc/arm-none-eabi/6.3.1/../../../../arm-none-eabi/lib/thumb/v7e-m/fpv4-sp/hard\libc_nano.a
END GROUP
START GROUP
LOAD c:/a/gcc_arm/6/bin/../lib/gcc/arm-none-eabi/6.3.1/thumb/v7e-m/fpv4-sp/hard\libgcc.a
LOAD c:/a/gcc_arm/6/bin/../lib/gcc/arm-none-eabi/6.3.1/../../../../arm-none-eabi/lib/thumb/v7e-m/fpv4-sp/hard\libc_nano.a
END GROUP
LOAD c:/a/gcc_arm/6/bin/../lib/gcc/arm-none-eabi/6.3.1/thumb/v7e-m/fpv4-sp/hard/crtend.o
LOAD c:/a/gcc_arm/6/bin/../lib/gcc/arm-none-eabi/6.3.1/thumb/v7e-m/fpv4-sp/hard/crtn.o
START GROUP
LOAD c:/a/gcc_arm/6/bin/../lib/gcc/arm-none-eabi/6.3.1/thumb/v7e-m/fpv4-sp/hard\libgcc.a
LOAD c:/a/gcc_arm/6/bin/../lib/gcc/arm-none-eabi/6.3.1/../../../../arm-none-eabi/lib/thumb/v7e-m/fpv4-sp/hard\libc.a
LOAD c:/a/gcc_arm/6/bin/../lib/gcc/arm-none-eabi/6.3.1/../../../../arm-none-eabi/lib/thumb/v7e-m/fpv4-sp/hard\libnosys.a
END GROUP

.igot.plt       0x20001adc        0x0 load address 0x00031660
 .igot.plt      0x20001adc        0x0 c:/a/gcc_arm/6/bin/../lib/gcc/arm-none-eabi/6.3.1/thumb/v7e-m/fpv4-sp/hard/crtbegin.o
                0x20001adc                . = ALIGN (0x4)

.svc_data       0x20001adc        0x0
                [!provide]                PROVIDE (__start_svc_data, .)
 *(.svc_data)
                [!provide]                PROVIDE (__stop_svc_data, .)

.fs_data        0x20001adc        0x0
                [!provide]                PROVIDE (__start_fs_data, .)
 *(.fs_data)
                [!provide]                PROVIDE (__stop_fs_data, .)

.log_dynamic_data
                0x20001adc        0x0
                [!provide]                PROVIDE (__start_log_dynamic_data, .)
 *(.log_dynamic_data)
                [!provide]                PROVIDE (__stop_log_dynamic_data, .)

.cli_sorted_cmd_ptrs
                0x20001adc        0x0
                [!provide]                PROVIDE (__start_cli_sorted_cmd_ptrs, .)
 *(.cli_sorted_cmd_ptrs)
                [!provide]                PROVIDE (__stop_cli_sorted_cmd_ptrs, .)

.bss            0x20001ae0     0x30a0 load address 0x00031668
                0x20001ae0                . = ALIGN (0x4)
                0x20001ae0                __bss_start__ = .
 *(.bss*)
 .bss           0x20001ae0       0x1c c:/a/gcc_arm/6/bin/../lib/gcc/arm-none-eabi/6.3.1/thumb/v7e-m/fpv4-sp/hard/crtbegin.o
 .bss.m_appkey_handle
                0x20001afc        0x2 examples/light_switch/client/CMakeFiles/light_switch_client_nrf52832_xxAA_s132_3.1.0.dir/src/main.c.obj
 *fill*         0x20001afe        0x2 
 .bss.m_clients
                0x20001b00       0x30 examples/light_switch/client/CMakeFiles/light_switch_client_nrf52832_xxAA_s132_3.1.0.dir/src/main.c.obj
 .bss.m_configured_devices
                0x20001b30        0x2 examples/light_switch/client/CMakeFiles/light_switch_client_nrf52832_xxAA_s132_3.1.0.dir/src/main.c.obj
 .bss.m_devkey_handles
                0x20001b32        0x6 examples/light_switch/client/CMakeFiles/light_switch_client_nrf52832_xxAA_s132_3.1.0.dir/src/main.c.obj
 .bss.m_group_handle
                0x20001b38        0x2 examples/light_switch/client/CMakeFiles/light_switch_client_nrf52832_xxAA_s132_3.1.0.dir/src/main.c.obj
 *fill*         0x20001b3a        0x2 
 .bss.m_health_client
                0x20001b3c       0x10 examples/light_switch/client/CMakeFiles/light_switch_client_nrf52832_xxAA_s132_3.1.0.dir/src/main.c.obj
 .bss.m_netkey_handle
                0x20001b4c        0x2 examples/light_switch/client/CMakeFiles/light_switch_client_nrf52832_xxAA_s132_3.1.0.dir/src/main.c.obj
 .bss.m_provisioned_devices
                0x20001b4e        0x2 examples/light_switch/client/CMakeFiles/light_switch_client_nrf52832_xxAA_s132_3.1.0.dir/src/main.c.obj
 .bss.m_server_handles
                0x20001b50        0x6 examples/light_switch/client/CMakeFiles/light_switch_client_nrf52832_xxAA_s132_3.1.0.dir/src/main.c.obj
 .bss.m_private_key
                0x20001b56       0x20 examples/light_switch/client/CMakeFiles/light_switch_client_nrf52832_xxAA_s132_3.1.0.dir/src/provisioner.c.obj
 *fill*         0x20001b76        0x2 
 .bss.m_prov_bearer_adv
                0x20001b78      0x1c0 examples/light_switch/client/CMakeFiles/light_switch_client_nrf52832_xxAA_s132_3.1.0.dir/src/provisioner.c.obj
 .bss.m_prov_ctx
                0x20001d38      0x130 examples/light_switch/client/CMakeFiles/light_switch_client_nrf52832_xxAA_s132_3.1.0.dir/src/provisioner.c.obj
 .bss.m_prov_state
                0x20001e68        0x1 examples/light_switch/client/CMakeFiles/light_switch_client_nrf52832_xxAA_s132_3.1.0.dir/src/provisioner.c.obj
 .bss.m_public_key
                0x20001e69       0x40 examples/light_switch/client/CMakeFiles/light_switch_client_nrf52832_xxAA_s132_3.1.0.dir/src/provisioner.c.obj
 *fill*         0x20001ea9        0x1 
 .bss.m_target_address
                0x20001eaa        0x2 examples/light_switch/client/CMakeFiles/light_switch_client_nrf52832_xxAA_s132_3.1.0.dir/src/provisioner.c.obj
 .bss.m_ble_evt_buffer
                0x20001eac       0x4f examples/light_switch/client/CMakeFiles/light_switch_client_nrf52832_xxAA_s132_3.1.0.dir/__/__/nrf_mesh_sdk.c.obj
 *fill*         0x20001efb        0x1 
 .bss.m_rtt_input_handler
                0x20001efc        0x4 examples/light_switch/client/CMakeFiles/light_switch_client_nrf52832_xxAA_s132_3.1.0.dir/__/__/common/src/rtt_input.c.obj
 .bss.m_button_handler_cb
                0x20001f00        0x4 examples/light_switch/client/CMakeFiles/light_switch_client_nrf52832_xxAA_s132_3.1.0.dir/__/__/common/src/simple_hal.c.obj
 .bss.m_last_button_press
                0x20001f04        0x4 examples/light_switch/client/CMakeFiles/light_switch_client_nrf52832_xxAA_s132_3.1.0.dir/__/__/common/src/simple_hal.c.obj
 .bss.m_tid     0x20001f08        0x1 examples/light_switch/client/CMakeFiles/light_switch_client_nrf52832_xxAA_s132_3.1.0.dir/__/__/__/models/simple_on_off/src/simple_on_off_client.c.obj
 *fill*         0x20001f09        0x3 
 .bss.m_client  0x20001f0c        0x8 examples/light_switch/client/CMakeFiles/light_switch_client_nrf52832_xxAA_s132_3.1.0.dir/__/__/__/models/config/src/config_client.c.obj
 .bss.mp_packet_buffer
                0x20001f14        0x4 examples/light_switch/client/CMakeFiles/light_switch_client_nrf52832_xxAA_s132_3.1.0.dir/__/__/__/models/config/src/config_client.c.obj
 .bss.m_publish_timer
                0x20001f18       0x18 examples/light_switch/client/CMakeFiles/light_switch_client_nrf52832_xxAA_s132_3.1.0.dir/__/__/__/mesh/access/src/access_publish.c.obj
 .bss.m_publish_timer_counter
                0x20001f30        0x4 examples/light_switch/client/CMakeFiles/light_switch_client_nrf52832_xxAA_s132_3.1.0.dir/__/__/__/mesh/access/src/access_publish.c.obj
 .bss.m_publish_timer_running
                0x20001f34        0x1 examples/light_switch/client/CMakeFiles/light_switch_client_nrf52832_xxAA_s132_3.1.0.dir/__/__/__/mesh/access/src/access_publish.c.obj
 .bss.m_timer_resolution
                0x20001f35        0x1 examples/light_switch/client/CMakeFiles/light_switch_client_nrf52832_xxAA_s132_3.1.0.dir/__/__/__/mesh/access/src/access_publish.c.obj
 *fill*         0x20001f36        0x2 
 .bss.mp_publication_list
                0x20001f38        0x4 examples/light_switch/client/CMakeFiles/light_switch_client_nrf52832_xxAA_s132_3.1.0.dir/__/__/__/mesh/access/src/access_publish.c.obj
 .bss.m_element_pool
                0x20001f3c       0x18 examples/light_switch/client/CMakeFiles/light_switch_client_nrf52832_xxAA_s132_3.1.0.dir/__/__/__/mesh/access/src/access.c.obj
 .bss.m_evt_handler
                0x20001f54        0x8 examples/light_switch/client/CMakeFiles/light_switch_client_nrf52832_xxAA_s132_3.1.0.dir/__/__/__/mesh/access/src/access.c.obj
 .bss.m_flash_manager
                0x20001f5c       0x24 examples/light_switch/client/CMakeFiles/light_switch_client_nrf52832_xxAA_s132_3.1.0.dir/__/__/__/mesh/access/src/access.c.obj
 .bss.m_flash_not_ready
                0x20001f80        0x1 examples/light_switch/client/CMakeFiles/light_switch_client_nrf52832_xxAA_s132_3.1.0.dir/__/__/__/mesh/access/src/access.c.obj
 .bss.m_metadata_stored
                0x20001f81        0x1 examples/light_switch/client/CMakeFiles/light_switch_client_nrf52832_xxAA_s132_3.1.0.dir/__/__/__/mesh/access/src/access.c.obj
 *fill*         0x20001f82        0x2 
 .bss.m_model_pool
                0x20001f84      0x138 examples/light_switch/client/CMakeFiles/light_switch_client_nrf52832_xxAA_s132_3.1.0.dir/__/__/__/mesh/access/src/access.c.obj
 .bss.m_subscription_list_pool
                0x200020bc       0x30 examples/light_switch/client/CMakeFiles/light_switch_client_nrf52832_xxAA_s132_3.1.0.dir/__/__/__/mesh/access/src/access.c.obj
 .bss.m_reliable
                0x200020ec      0x124 examples/light_switch/client/CMakeFiles/light_switch_client_nrf52832_xxAA_s132_3.1.0.dir/__/__/__/mesh/access/src/access_reliable.c.obj
 .bss.m_addr_nonvirtual_allocated
                0x20002210        0x4 examples/light_switch/client/CMakeFiles/light_switch_client_nrf52832_xxAA_s132_3.1.0.dir/__/__/__/mesh/access/src/device_state_manager.c.obj
 .bss.m_addr_nonvirtual_needs_flashing
                0x20002214        0x4 examples/light_switch/client/CMakeFiles/light_switch_client_nrf52832_xxAA_s132_3.1.0.dir/__/__/__/mesh/access/src/device_state_manager.c.obj
 .bss.m_addr_unicast_allocated
                0x20002218        0x4 examples/light_switch/client/CMakeFiles/light_switch_client_nrf52832_xxAA_s132_3.1.0.dir/__/__/__/mesh/access/src/device_state_manager.c.obj
 .bss.m_addr_unicast_needs_flashing
                0x2000221c        0x4 examples/light_switch/client/CMakeFiles/light_switch_client_nrf52832_xxAA_s132_3.1.0.dir/__/__/__/mesh/access/src/device_state_manager.c.obj
 .bss.m_addr_virtual_allocated
                0x20002220        0x4 examples/light_switch/client/CMakeFiles/light_switch_client_nrf52832_xxAA_s132_3.1.0.dir/__/__/__/mesh/access/src/device_state_manager.c.obj
 .bss.m_addr_virtual_needs_flashing
                0x20002224        0x4 examples/light_switch/client/CMakeFiles/light_switch_client_nrf52832_xxAA_s132_3.1.0.dir/__/__/__/mesh/access/src/device_state_manager.c.obj
 .bss.m_addresses
                0x20002228       0x10 examples/light_switch/client/CMakeFiles/light_switch_client_nrf52832_xxAA_s132_3.1.0.dir/__/__/__/mesh/access/src/device_state_manager.c.obj
 .bss.m_appkey_allocated
                0x20002238        0x4 examples/light_switch/client/CMakeFiles/light_switch_client_nrf52832_xxAA_s132_3.1.0.dir/__/__/__/mesh/access/src/device_state_manager.c.obj
 .bss.m_appkey_needs_flashing
                0x2000223c        0x4 examples/light_switch/client/CMakeFiles/light_switch_client_nrf52832_xxAA_s132_3.1.0.dir/__/__/__/mesh/access/src/device_state_manager.c.obj
 .bss.m_appkeys
                0x20002240       0x2a examples/light_switch/client/CMakeFiles/light_switch_client_nrf52832_xxAA_s132_3.1.0.dir/__/__/__/mesh/access/src/device_state_manager.c.obj
 *fill*         0x2000226a        0x2 
 .bss.m_devkey_allocated
                0x2000226c        0x4 examples/light_switch/client/CMakeFiles/light_switch_client_nrf52832_xxAA_s132_3.1.0.dir/__/__/__/mesh/access/src/device_state_manager.c.obj
 .bss.m_devkey_needs_flashing
                0x20002270        0x4 examples/light_switch/client/CMakeFiles/light_switch_client_nrf52832_xxAA_s132_3.1.0.dir/__/__/__/mesh/access/src/device_state_manager.c.obj
 .bss.m_devkeys
                0x20002274       0x42 examples/light_switch/client/CMakeFiles/light_switch_client_nrf52832_xxAA_s132_3.1.0.dir/__/__/__/mesh/access/src/device_state_manager.c.obj
 .bss.m_flash_is_available
                0x200022b6        0x1 examples/light_switch/client/CMakeFiles/light_switch_client_nrf52832_xxAA_s132_3.1.0.dir/__/__/__/mesh/access/src/device_state_manager.c.obj
 *fill*         0x200022b7        0x1 
 .bss.m_flash_manager
                0x200022b8       0x24 examples/light_switch/client/CMakeFiles/light_switch_client_nrf52832_xxAA_s132_3.1.0.dir/__/__/__/mesh/access/src/device_state_manager.c.obj
 .bss.m_flash_mem_listener_update_all
                0x200022dc       0x10 examples/light_switch/client/CMakeFiles/light_switch_client_nrf52832_xxAA_s132_3.1.0.dir/__/__/__/mesh/access/src/device_state_manager.c.obj
 .bss.m_has_primary_subnet
                0x200022ec        0x1 examples/light_switch/client/CMakeFiles/light_switch_client_nrf52832_xxAA_s132_3.1.0.dir/__/__/__/mesh/access/src/device_state_manager.c.obj
 *fill*         0x200022ed        0x1 
 .bss.m_local_unicast_addr
                0x200022ee        0x4 examples/light_switch/client/CMakeFiles/light_switch_client_nrf52832_xxAA_s132_3.1.0.dir/__/__/__/mesh/access/src/device_state_manager.c.obj
 *fill*         0x200022f2        0x2 
 .bss.m_subnet_allocated
                0x200022f4        0x4 examples/light_switch/client/CMakeFiles/light_switch_client_nrf52832_xxAA_s132_3.1.0.dir/__/__/__/mesh/access/src/device_state_manager.c.obj
 .bss.m_subnet_needs_flashing
                0x200022f8        0x4 examples/light_switch/client/CMakeFiles/light_switch_client_nrf52832_xxAA_s132_3.1.0.dir/__/__/__/mesh/access/src/device_state_manager.c.obj
 .bss.m_subnets
                0x200022fc       0xac examples/light_switch/client/CMakeFiles/light_switch_client_nrf52832_xxAA_s132_3.1.0.dir/__/__/__/mesh/access/src/device_state_manager.c.obj
 .bss.m_virtual_addresses
                0x200023a8       0x14 examples/light_switch/client/CMakeFiles/light_switch_client_nrf52832_xxAA_s132_3.1.0.dir/__/__/__/mesh/access/src/device_state_manager.c.obj
 .bss.m_event_handler
                0x200023bc        0x4 examples/light_switch/client/CMakeFiles/light_switch_client_nrf52832_xxAA_s132_3.1.0.dir/__/__/__/mesh/prov/src/prov_beacon.c.obj
 .bss.m_offload_ecdh
                0x200023c0        0x1 examples/light_switch/client/CMakeFiles/light_switch_client_nrf52832_xxAA_s132_3.1.0.dir/__/__/__/mesh/prov/src/prov_utils.c.obj
 *fill*         0x200023c1        0x3 
 .bss.mp_bearer_head
                0x200023c4        0x4 examples/light_switch/client/CMakeFiles/light_switch_client_nrf52832_xxAA_s132_3.1.0.dir/__/__/__/mesh/prov/src/prov_bearer_adv.c.obj
 .bss.m_uuid    0x200023c8       0x10 mesh/core/libmesh_core_nrf52832_xxAA.a(nrf_mesh_configure.c.obj)
 .bss.mp_evt_handlers_head
                0x200023d8        0x4 mesh/core/libmesh_core_nrf52832_xxAA.a(event.c.obj)
 .bss.m_pool    0x200023dc     0x1000 mesh/core/libmesh_core_nrf52832_xxAA.a(packet_mgr.c.obj)
 .bss.mp_free_head
                0x200033dc        0x4 mesh/core/libmesh_core_nrf52832_xxAA.a(packet_mgr.c.obj)
 .bss.lock_count.9620
                0x200033e0        0x4 mesh/core/libmesh_core_nrf52832_xxAA.a(net_state.c.obj)
 .bss.m_flash_manager
                0x200033e4       0x24 mesh/core/libmesh_core_nrf52832_xxAA.a(net_state.c.obj)
 .bss.m_iv_update_timer
                0x20003408       0x18 mesh/core/libmesh_core_nrf52832_xxAA.a(net_state.c.obj)
 .bss.m_net_state
                0x20003420       0x14 mesh/core/libmesh_core_nrf52832_xxAA.a(net_state.c.obj)
 .bss.m_seqnum_allocation_in_progress
                0x20003434        0x1 mesh/core/libmesh_core_nrf52832_xxAA.a(net_state.c.obj)
 .bss.m_test_mode
                0x20003435        0x1 mesh/core/libmesh_core_nrf52832_xxAA.a(net_state.c.obj)
 .bss.m_is_enabled
                0x20003436        0x1 mesh/core/libmesh_core_nrf52832_xxAA.a(nrf_mesh.c.obj)
 .bss.m_is_initialized
                0x20003437        0x1 mesh/core/libmesh_core_nrf52832_xxAA.a(nrf_mesh.c.obj)
 .bss.m_rx_cb   0x20003438        0x4 mesh/core/libmesh_core_nrf52832_xxAA.a(nrf_mesh.c.obj)
 .bss.m_event_flag
                0x2000343c        0x4 mesh/core/libmesh_core_nrf52832_xxAA.a(timer_scheduler.c.obj)
 .bss.m_scheduler
                0x20003440       0x10 mesh/core/libmesh_core_nrf52832_xxAA.a(timer_scheduler.c.obj)
 .bss.m_attributes
                0x20003450        0x3 mesh/core/libmesh_core_nrf52832_xxAA.a(timer.c.obj)
 *fill*         0x20003453        0x1 
 .bss.m_callbacks
                0x20003454        0xc mesh/core/libmesh_core_nrf52832_xxAA.a(timer.c.obj)
 .bss.m_is_in_ts
                0x20003460        0x1 mesh/core/libmesh_core_nrf52832_xxAA.a(timer.c.obj)
 *fill*         0x20003461        0x3 
 .bss.m_reference_time
                0x20003464        0x4 mesh/core/libmesh_core_nrf52832_xxAA.a(timer.c.obj)
 .bss.m_timeouts
                0x20003468        0xc mesh/core/libmesh_core_nrf52832_xxAA.a(timer.c.obj)
 .bss.m_timer_mut
                0x20003474        0x4 mesh/core/libmesh_core_nrf52832_xxAA.a(timer.c.obj)
 .bss.m_ts_end_time
                0x20003478        0x4 mesh/core/libmesh_core_nrf52832_xxAA.a(timer.c.obj)
 .bss.mp_ppi_tasks
                0x2000347c        0xc mesh/core/libmesh_core_nrf52832_xxAA.a(timer.c.obj)
 .bss.m_current_time
                0x20003488        0x4 mesh/core/libmesh_core_nrf52832_xxAA.a(ticker.c.obj)
 .bss.m_timer   0x2000348c       0x18 mesh/core/libmesh_core_nrf52832_xxAA.a(ticker.c.obj)
 .bss.m_current_timeslot
                0x200034a4       0x1c mesh/core/libmesh_core_nrf52832_xxAA.a(timeslot.c.obj)
 .bss.m_lfclk_ppm
                0x200034c0        0x4 mesh/core/libmesh_core_nrf52832_xxAA.a(timeslot.c.obj)
 .bss.m_radio_request_earliest
                0x200034c4       0x10 mesh/core/libmesh_core_nrf52832_xxAA.a(timeslot.c.obj)
 .bss.m_state_lock
                0x200034d4        0x1 mesh/core/libmesh_core_nrf52832_xxAA.a(timeslot.c.obj)
 .bss.m_timeslot_forced_command
                0x200034d5        0x1 mesh/core/libmesh_core_nrf52832_xxAA.a(timeslot.c.obj)
 *fill*         0x200034d6        0x2 
 .bss.s_last_rtc_value.9081
                0x200034d8        0x8 mesh/core/libmesh_core_nrf52832_xxAA.a(timeslot.c.obj)
 .bss.m_bearer_event_fifo
                0x200034e0       0x14 mesh/core/libmesh_core_nrf52832_xxAA.a(bearer_event.c.obj)
 .bss.m_bearer_event_fifo_buffer
                0x200034f4      0x100 mesh/core/libmesh_core_nrf52832_xxAA.a(bearer_event.c.obj)
 .bss.m_critical
                0x200035f4        0x4 mesh/core/libmesh_core_nrf52832_xxAA.a(bearer_event.c.obj)
 .bss.m_flag_count
                0x200035f8        0x4 mesh/core/libmesh_core_nrf52832_xxAA.a(bearer_event.c.obj)
 .bss.m_flag_event_callbacks
                0x200035fc       0x20 mesh/core/libmesh_core_nrf52832_xxAA.a(bearer_event.c.obj)
 .bss.m_flags   0x2000361c        0x4 mesh/core/libmesh_core_nrf52832_xxAA.a(bearer_event.c.obj)
 .bss.m_irq_priority
                0x20003620        0x1 mesh/core/libmesh_core_nrf52832_xxAA.a(bearer_event.c.obj)
 *fill*         0x20003621        0x3 
 .bss.m_sequential_event_queue
                0x20003624        0x8 mesh/core/libmesh_core_nrf52832_xxAA.a(bearer_event.c.obj)
 .bss.s_recursion_guard.9203
                0x2000362c        0x1 mesh/core/libmesh_core_nrf52832_xxAA.a(bearer_event.c.obj)
 *fill*         0x2000362d        0x3 
 .bss.m_relay_check_cb
                0x20003630        0x4 mesh/core/libmesh_core_nrf52832_xxAA.a(network.c.obj)
 .bss.m_relay_enable
                0x20003634        0x1 mesh/core/libmesh_core_nrf52832_xxAA.a(network.c.obj)
 *fill*         0x20003635        0x3 
 .bss.m_action_queue
                0x20003638        0xc mesh/core/libmesh_core_nrf52832_xxAA.a(flash_manager.c.obj)
 .bss.m_action_queue_buffer
                0x20003644      0x104 mesh/core/libmesh_core_nrf52832_xxAA.a(flash_manager.c.obj)
 .bss.m_action_state
                0x20003748        0x1 mesh/core/libmesh_core_nrf52832_xxAA.a(flash_manager.c.obj)
 *fill*         0x20003749        0x3 
 .bss.m_memory_listener_queue
                0x2000374c        0x8 mesh/core/libmesh_core_nrf52832_xxAA.a(flash_manager.c.obj)
 .bss.m_processing_flag
                0x20003754        0x4 mesh/core/libmesh_core_nrf52832_xxAA.a(flash_manager.c.obj)
 .bss.m_queue_empty_cb
                0x20003758        0x4 mesh/core/libmesh_core_nrf52832_xxAA.a(flash_manager.c.obj)
 .bss.m_state   0x2000375c        0x1 mesh/core/libmesh_core_nrf52832_xxAA.a(flash_manager.c.obj)
 *fill*         0x2000375d        0x1 
 .bss.m_token   0x2000375e        0x2 mesh/core/libmesh_core_nrf52832_xxAA.a(flash_manager.c.obj)
 .bss.p_current.10931
                0x20003760        0x4 mesh/core/libmesh_core_nrf52832_xxAA.a(flash_manager.c.obj)
 .bss.result.10932
                0x20003764        0x1 mesh/core/libmesh_core_nrf52832_xxAA.a(flash_manager.c.obj)
 *fill*         0x20003765        0x3 
 .bss.m_adv_buffer
                0x20003768       0x68 mesh/core/libmesh_core_nrf52832_xxAA.a(beacon.c.obj)
 .bss.m_advertiser
                0x200037d0       0x94 mesh/core/libmesh_core_nrf52832_xxAA.a(beacon.c.obj)
 .bss.m_bearers
                0x20003864        0x4 mesh/core/libmesh_core_nrf52832_xxAA.a(core_tx.c.obj)
 .bss.m_tx_complete_callback
                0x20003868        0x4 mesh/core/libmesh_core_nrf52832_xxAA.a(core_tx.c.obj)
 .bss.m_hb_core_evt_handler
                0x2000386c        0x8 mesh/core/libmesh_core_nrf52832_xxAA.a(heartbeat.c.obj)
 .bss.m_hb_pending_feat_msg
                0x20003874        0x1 mesh/core/libmesh_core_nrf52832_xxAA.a(heartbeat.c.obj)
 .bss.m_hb_pending_pub_msg
                0x20003875        0x1 mesh/core/libmesh_core_nrf52832_xxAA.a(heartbeat.c.obj)
 .bss.m_heartbeat_init_done
                0x20003876        0x1 mesh/core/libmesh_core_nrf52832_xxAA.a(heartbeat.c.obj)
 *fill*         0x20003877        0x1 
 .bss.m_heartbeat_subscription
                0x20003878       0x10 mesh/core/libmesh_core_nrf52832_xxAA.a(heartbeat.c.obj)
 .bss.m_publication_count_decrement_cb
                0x20003888        0x4 mesh/core/libmesh_core_nrf52832_xxAA.a(heartbeat.c.obj)
 .bss.m_publication_get_cb
                0x2000388c        0x4 mesh/core/libmesh_core_nrf52832_xxAA.a(heartbeat.c.obj)
 .bss.m_publication_timer
                0x20003890       0x1c mesh/core/libmesh_core_nrf52832_xxAA.a(heartbeat.c.obj)
 .bss.m_subscription_timer
                0x200038ac       0x18 mesh/core/libmesh_core_nrf52832_xxAA.a(heartbeat.c.obj)
 .bss.m_beacon_salt
                0x200038c4       0x10 mesh/core/libmesh_core_nrf52832_xxAA.a(net_beacon.c.obj)
 .bss.m_enabled
                0x200038d4        0x1 mesh/core/libmesh_core_nrf52832_xxAA.a(net_beacon.c.obj)
 *fill*         0x200038d5        0x3 
 .bss.m_tx_event
                0x200038d8       0x18 mesh/core/libmesh_core_nrf52832_xxAA.a(net_beacon.c.obj)
 .bss.m_adv_tx_count
                0x200038f0        0x8 mesh/core/libmesh_core_nrf52832_xxAA.a(core_tx_adv.c.obj)
 .bss.m_advertisers
                0x200038f8      0x128 mesh/core/libmesh_core_nrf52832_xxAA.a(core_tx_adv.c.obj)
 .bss.m_originator_adv_packet_buffer
                0x20003a20      0x100 mesh/core/libmesh_core_nrf52832_xxAA.a(core_tx_adv.c.obj)
 .bss.m_relay_adv_packet_buffer
                0x20003b20       0x80 mesh/core/libmesh_core_nrf52832_xxAA.a(core_tx_adv.c.obj)
 .bss.m_subscribers
                0x20003ba0        0x4 mesh/core/libmesh_core_nrf52832_xxAA.a(ad_listener.c.obj)
 .bss.m_adtype_filter
                0x20003ba4       0x38 mesh/core/libmesh_core_nrf52832_xxAA.a(ad_type_filter.c.obj)
 .bss.m_adv_prng
                0x20003bdc       0x10 mesh/core/libmesh_core_nrf52832_xxAA.a(advertiser.c.obj)
 .bss.m_action_queue
                0x20003bec        0x8 mesh/core/libmesh_core_nrf52832_xxAA.a(bearer_handler.c.obj)
 .bss.m_end_time
                0x20003bf4        0x4 mesh/core/libmesh_core_nrf52832_xxAA.a(bearer_handler.c.obj)
 .bss.m_scanner_is_active
                0x20003bf8        0x1 mesh/core/libmesh_core_nrf52832_xxAA.a(bearer_handler.c.obj)
 .bss.m_stopped
                0x20003bf9        0x1 mesh/core/libmesh_core_nrf52832_xxAA.a(bearer_handler.c.obj)
 *fill*         0x20003bfa        0x2 
 .bss.mp_action
                0x20003bfc        0x4 mesh/core/libmesh_core_nrf52832_xxAA.a(bearer_handler.c.obj)
 .bss.m_next_channel_index
                0x20003c00        0x1 mesh/core/libmesh_core_nrf52832_xxAA.a(broadcast.c.obj)
 *fill*         0x20003c01        0x3 
 .bss.m_accepted_amount
                0x20003c04        0x4 mesh/core/libmesh_core_nrf52832_xxAA.a(filter_engine.c.obj)
 .bss.m_filter_list_head
                0x20003c08        0x4 mesh/core/libmesh_core_nrf52832_xxAA.a(filter_engine.c.obj)
 .bss.m_scanner
                0x20003c0c      0x28c mesh/core/libmesh_core_nrf52832_xxAA.a(scanner.c.obj)
 .bss.m_internal_event_fifo
                0x20003e98       0x14 mesh/core/libmesh_core_nrf52832_xxAA.a(internal_event.c.obj)
 .bss.m_internal_event_initialized
                0x20003eac        0x1 mesh/core/libmesh_core_nrf52832_xxAA.a(internal_event.c.obj)
 *fill*         0x20003ead        0x3 
 .bss.m_report_cb
                0x20003eb0        0x4 mesh/core/libmesh_core_nrf52832_xxAA.a(internal_event.c.obj)
 .bss.m_msg_cache
                0x20003eb4      0x100 mesh/core/libmesh_core_nrf52832_xxAA.a(msg_cache.c.obj)
 .bss.m_msg_cache_head
                0x20003fb4        0x4 mesh/core/libmesh_core_nrf52832_xxAA.a(msg_cache.c.obj)
 .bss.m_control_packet_consumer_count
                0x20003fb8        0x4 mesh/core/libmesh_core_nrf52832_xxAA.a(transport.c.obj)
 .bss.m_control_packet_consumers
                0x20003fbc        0x8 mesh/core/libmesh_core_nrf52832_xxAA.a(transport.c.obj)
 .bss.m_sar_alloc
                0x20003fc4        0x4 mesh/core/libmesh_core_nrf52832_xxAA.a(transport.c.obj)
 .bss.m_sar_process_flag
                0x20003fc8        0x4 mesh/core/libmesh_core_nrf52832_xxAA.a(transport.c.obj)
 .bss.m_sar_release
                0x20003fcc        0x4 mesh/core/libmesh_core_nrf52832_xxAA.a(transport.c.obj)
 .bss.m_sar_session_cache
                0x20003fd0       0x40 mesh/core/libmesh_core_nrf52832_xxAA.a(transport.c.obj)
 .bss.m_sar_session_cache_head
                0x20004010        0x4 mesh/core/libmesh_core_nrf52832_xxAA.a(transport.c.obj)
 .bss.m_trs_config
                0x20004014       0x18 mesh/core/libmesh_core_nrf52832_xxAA.a(transport.c.obj)
 .bss.m_trs_sar_sessions
                0x2000402c      0x1b0 mesh/core/libmesh_core_nrf52832_xxAA.a(transport.c.obj)
 .bss.m_defrag  0x200041dc       0x1c mesh/core/libmesh_core_nrf52832_xxAA.a(flash_manager_defrag.c.obj)
 .bss.m_token   0x200041f8        0x2 mesh/core/libmesh_core_nrf52832_xxAA.a(flash_manager_defrag.c.obj)
 *fill*         0x200041fa        0x2 
 .bss.mp_recovery_area
                0x200041fc        0x4 mesh/core/libmesh_core_nrf52832_xxAA.a(flash_manager_defrag.c.obj)
 .bss.p_null_ptr.10022
                0x20004200        0x4 mesh/core/libmesh_core_nrf52832_xxAA.a(flash_manager_defrag.c.obj)
 .bss.m_event_flag
                0x20004204        0x4 mesh/core/libmesh_core_nrf52832_xxAA.a(mesh_flash.c.obj)
 .bss.m_suspended
                0x20004208        0x1 mesh/core/libmesh_core_nrf52832_xxAA.a(mesh_flash.c.obj)
 *fill*         0x20004209        0x3 
 .bss.m_users   0x2000420c      0x228 mesh/core/libmesh_core_nrf52832_xxAA.a(mesh_flash.c.obj)
 .bss.m_128buf  0x20004434       0x10 mesh/core/libmesh_core_nrf52832_xxAA.a(aes_cmac.c.obj)
 .bss.m_subkey1
                0x20004444       0x10 mesh/core/libmesh_core_nrf52832_xxAA.a(aes_cmac.c.obj)
 .bss.m_subkey2
                0x20004454       0x10 mesh/core/libmesh_core_nrf52832_xxAA.a(aes_cmac.c.obj)
 .bss.m_cache_full
                0x20004464        0x1 mesh/core/libmesh_core_nrf52832_xxAA.a(replay_cache.c.obj)
 .bss.m_cache_index
                0x20004465        0x1 mesh/core/libmesh_core_nrf52832_xxAA.a(replay_cache.c.obj)
 *fill*         0x20004466        0x2 
 .bss.m_replay_cache
                0x20004468      0x200 mesh/core/libmesh_core_nrf52832_xxAA.a(replay_cache.c.obj)
 .bss._acDownBuffer
                0x20004668       0x80 external/rtt/librtt_nrf52832_xxAA.a(SEGGER_RTT.c.obj)
 .bss._acUpBuffer
                0x200046e8      0x400 external/rtt/librtt_nrf52832_xxAA.a(SEGGER_RTT.c.obj)
 .bss.__malloc_free_list
                0x20004ae8        0x4 c:/a/gcc_arm/6/bin/../lib/gcc/arm-none-eabi/6.3.1/../../../../arm-none-eabi/lib/thumb/v7e-m/fpv4-sp/hard\libg_nano.a(lib_a-nano-mallocr.o)
                0x20004ae8                __malloc_free_list
 .bss.__malloc_sbrk_start
                0x20004aec        0x4 c:/a/gcc_arm/6/bin/../lib/gcc/arm-none-eabi/6.3.1/../../../../arm-none-eabi/lib/thumb/v7e-m/fpv4-sp/hard\libg_nano.a(lib_a-nano-mallocr.o)
                0x20004aec                __malloc_sbrk_start
 .bss.heap_end.5239
                0x20004af0        0x4 c:/a/gcc_arm/6/bin/../lib/gcc/arm-none-eabi/6.3.1/../../../../arm-none-eabi/lib/thumb/v7e-m/fpv4-sp/hard\libnosys.a(sbrk.o)
 *(COMMON)
 COMMON         0x20004af4        0xc examples/light_switch/client/CMakeFiles/light_switch_client_nrf52832_xxAA_s132_3.1.0.dir/__/__/nrf_mesh_sdk.c.obj
                0x20004af4                nrf_nvic_state
 COMMON         0x20004b00        0x4 mesh/core/libmesh_core_nrf52832_xxAA.a(nrf_mesh.c.obj)
                0x20004b00                m_assertion_handler
 COMMON         0x20004b04       0x78 external/rtt/librtt_nrf52832_xxAA.a(SEGGER_RTT.c.obj)
                0x20004b04                _SEGGER_RTT
 COMMON         0x20004b7c        0x4 c:/a/gcc_arm/6/bin/../lib/gcc/arm-none-eabi/6.3.1/../../../../arm-none-eabi/lib/thumb/v7e-m/fpv4-sp/hard\libg_nano.a(lib_a-reent.o)
                0x20004b7c                errno
                0x20004b80                . = ALIGN (0x4)
                0x20004b80                __bss_end__ = .

.heap           0x20004b80     0x2000
                0x20004b80                __HeapBase = .
                0x20004b80                __end__ = .
                0x20004b80                PROVIDE (end, .)
 *(.heap*)
 .heap          0x20004b80     0x2000 examples/light_switch/client/CMakeFiles/light_switch_client_nrf52832_xxAA_s132_3.1.0.dir/__/__/__/external/nRF5_SDK_14.2.0_17b948a/components/toolchain/gcc/gcc_startup_nrf52.S.obj
                0x20006b80                __HeapLimit = .

.stack_dummy    0x20004b80     0x2000
 *(.stack*)
 .stack         0x20004b80     0x2000 examples/light_switch/client/CMakeFiles/light_switch_client_nrf52832_xxAA_s132_3.1.0.dir/__/__/__/external/nRF5_SDK_14.2.0_17b948a/components/toolchain/gcc/gcc_startup_nrf52.S.obj
                0x2000fd00                __StackTop = (ORIGIN (RAM) + LENGTH (RAM))
                0x2000dd00                __StackLimit = (__StackTop - SIZEOF (.stack_dummy))
                0x2000fd00                PROVIDE (__stack, __StackTop)
                0x00000001                ASSERT ((__StackLimit >= __HeapLimit), region RAM overflowed with stack)
                0x00000120                DataInitFlashUsed = (__bss_start__ - __data_start__)
                0x00012544                CodeFlashUsed = (__etext - ORIGIN (FLASH))
                0x00012664                TotalFlashUsed = (CodeFlashUsed + DataInitFlashUsed)
                0x00000001                ASSERT ((TotalFlashUsed <= LENGTH (FLASH)), region FLASH overflowed with .data and user data)
OUTPUT(examples\light_switch\client\light_switch_client_nrf52832_xxAA_s132_3.1.0.elf elf32-littlearm)

.ARM.attributes
                0x00000000       0x30
 .ARM.attributes
                0x00000000       0x22 c:/a/gcc_arm/6/bin/../lib/gcc/arm-none-eabi/6.3.1/thumb/v7e-m/fpv4-sp/hard/crti.o
 .ARM.attributes
                0x00000022       0x34 c:/a/gcc_arm/6/bin/../lib/gcc/arm-none-eabi/6.3.1/thumb/v7e-m/fpv4-sp/hard/crtbegin.o
 .ARM.attributes
                0x00000056       0x20 c:/a/gcc_arm/6/bin/../lib/gcc/arm-none-eabi/6.3.1/../../../../arm-none-eabi/lib/thumb/v7e-m/fpv4-sp/hard/crt0.o
 .ARM.attributes
                0x00000076       0x39 examples/light_switch/client/CMakeFiles/light_switch_client_nrf52832_xxAA_s132_3.1.0.dir/src/main.c.obj
 .ARM.attributes
                0x000000af       0x39 examples/light_switch/client/CMakeFiles/light_switch_client_nrf52832_xxAA_s132_3.1.0.dir/src/provisioner.c.obj
 .ARM.attributes
                0x000000e8       0x39 examples/light_switch/client/CMakeFiles/light_switch_client_nrf52832_xxAA_s132_3.1.0.dir/__/__/nrf_mesh_sdk.c.obj
 .ARM.attributes
                0x00000121       0x39 examples/light_switch/client/CMakeFiles/light_switch_client_nrf52832_xxAA_s132_3.1.0.dir/__/__/common/src/rtt_input.c.obj
 .ARM.attributes
                0x0000015a       0x39 examples/light_switch/client/CMakeFiles/light_switch_client_nrf52832_xxAA_s132_3.1.0.dir/__/__/common/src/simple_hal.c.obj
 .ARM.attributes
                0x00000193       0x39 examples/light_switch/client/CMakeFiles/light_switch_client_nrf52832_xxAA_s132_3.1.0.dir/__/__/nrf_mesh_weak.c.obj
 .ARM.attributes
                0x000001cc       0x39 examples/light_switch/client/CMakeFiles/light_switch_client_nrf52832_xxAA_s132_3.1.0.dir/__/__/__/models/simple_on_off/src/simple_on_off_client.c.obj
 .ARM.attributes
                0x00000205       0x39 examples/light_switch/client/CMakeFiles/light_switch_client_nrf52832_xxAA_s132_3.1.0.dir/__/__/__/models/config/src/config_client.c.obj
 .ARM.attributes
                0x0000023e       0x39 examples/light_switch/client/CMakeFiles/light_switch_client_nrf52832_xxAA_s132_3.1.0.dir/__/__/__/models/health/src/health_client.c.obj
 .ARM.attributes
                0x00000277       0x39 examples/light_switch/client/CMakeFiles/light_switch_client_nrf52832_xxAA_s132_3.1.0.dir/__/__/__/mesh/access/src/access_publish.c.obj
 .ARM.attributes
                0x000002b0       0x39 examples/light_switch/client/CMakeFiles/light_switch_client_nrf52832_xxAA_s132_3.1.0.dir/__/__/__/mesh/access/src/access.c.obj
 .ARM.attributes
                0x000002e9       0x39 examples/light_switch/client/CMakeFiles/light_switch_client_nrf52832_xxAA_s132_3.1.0.dir/__/__/__/mesh/access/src/access_reliable.c.obj
 .ARM.attributes
                0x00000322       0x39 examples/light_switch/client/CMakeFiles/light_switch_client_nrf52832_xxAA_s132_3.1.0.dir/__/__/__/mesh/access/src/device_state_manager.c.obj
 .ARM.attributes
                0x0000035b       0x39 examples/light_switch/client/CMakeFiles/light_switch_client_nrf52832_xxAA_s132_3.1.0.dir/__/__/__/mesh/prov/src/prov_provisioner.c.obj
 .ARM.attributes
                0x00000394       0x39 examples/light_switch/client/CMakeFiles/light_switch_client_nrf52832_xxAA_s132_3.1.0.dir/__/__/__/mesh/prov/src/nrf_mesh_prov.c.obj
 .ARM.attributes
                0x000003cd       0x39 examples/light_switch/client/CMakeFiles/light_switch_client_nrf52832_xxAA_s132_3.1.0.dir/__/__/__/mesh/prov/src/provisioning.c.obj
 .ARM.attributes
                0x00000406       0x39 examples/light_switch/client/CMakeFiles/light_switch_client_nrf52832_xxAA_s132_3.1.0.dir/__/__/__/mesh/prov/src/prov_beacon.c.obj
 .ARM.attributes
                0x0000043f       0x39 examples/light_switch/client/CMakeFiles/light_switch_client_nrf52832_xxAA_s132_3.1.0.dir/__/__/__/mesh/prov/src/prov_utils.c.obj
 .ARM.attributes
                0x00000478       0x39 examples/light_switch/client/CMakeFiles/light_switch_client_nrf52832_xxAA_s132_3.1.0.dir/__/__/__/mesh/prov/src/prov_bearer_adv.c.obj
 .ARM.attributes
                0x000004b1       0x39 examples/light_switch/client/CMakeFiles/light_switch_client_nrf52832_xxAA_s132_3.1.0.dir/__/__/__/external/nRF5_SDK_14.2.0_17b948a/components/toolchain/system_nrf52.c.obj
 .ARM.attributes
                0x000004ea       0x20 examples/light_switch/client/CMakeFiles/light_switch_client_nrf52832_xxAA_s132_3.1.0.dir/__/__/__/external/nRF5_SDK_14.2.0_17b948a/components/toolchain/gcc/gcc_startup_nrf52.S.obj
 .ARM.attributes
                0x0000050a       0x39 mesh/core/libmesh_core_nrf52832_xxAA.a(nrf_mesh_configure.c.obj)
 .ARM.attributes
                0x00000543       0x39 mesh/core/libmesh_core_nrf52832_xxAA.a(event.c.obj)
 .ARM.attributes
                0x0000057c       0x39 mesh/core/libmesh_core_nrf52832_xxAA.a(packet_mgr.c.obj)
 .ARM.attributes
                0x000005b5       0x39 mesh/core/libmesh_core_nrf52832_xxAA.a(net_state.c.obj)
 .ARM.attributes
                0x000005ee       0x39 mesh/core/libmesh_core_nrf52832_xxAA.a(nrf_mesh_utils.c.obj)
 .ARM.attributes
                0x00000627       0x39 mesh/core/libmesh_core_nrf52832_xxAA.a(nrf_mesh.c.obj)
 .ARM.attributes
                0x00000660       0x39 mesh/core/libmesh_core_nrf52832_xxAA.a(hal.c.obj)
 .ARM.attributes
                0x00000699       0x39 mesh/core/libmesh_core_nrf52832_xxAA.a(timer_scheduler.c.obj)
 .ARM.attributes
                0x000006d2       0x39 mesh/core/libmesh_core_nrf52832_xxAA.a(timer.c.obj)
 .ARM.attributes
                0x0000070b       0x39 mesh/core/libmesh_core_nrf52832_xxAA.a(ticker.c.obj)
 .ARM.attributes
                0x00000744       0x39 mesh/core/libmesh_core_nrf52832_xxAA.a(rand.c.obj)
 .ARM.attributes
                0x0000077d       0x39 mesh/core/libmesh_core_nrf52832_xxAA.a(timeslot.c.obj)
 .ARM.attributes
                0x000007b6       0x39 mesh/core/libmesh_core_nrf52832_xxAA.a(bearer_event.c.obj)
 .ARM.attributes
                0x000007ef       0x39 mesh/core/libmesh_core_nrf52832_xxAA.a(enc.c.obj)
 .ARM.attributes
                0x00000828       0x39 mesh/core/libmesh_core_nrf52832_xxAA.a(network.c.obj)
 .ARM.attributes
                0x00000861       0x39 mesh/core/libmesh_core_nrf52832_xxAA.a(nrf_mesh_keygen.c.obj)
 .ARM.attributes
                0x0000089a       0x39 mesh/core/libmesh_core_nrf52832_xxAA.a(list.c.obj)
 .ARM.attributes
                0x000008d3       0x39 mesh/core/libmesh_core_nrf52832_xxAA.a(log.c.obj)
 .ARM.attributes
                0x0000090c       0x39 mesh/core/libmesh_core_nrf52832_xxAA.a(flash_manager.c.obj)
 .ARM.attributes
                0x00000945       0x39 mesh/core/libmesh_core_nrf52832_xxAA.a(ccm_soft.c.obj)
 .ARM.attributes
                0x0000097e       0x39 mesh/core/libmesh_core_nrf52832_xxAA.a(beacon.c.obj)
 .ARM.attributes
                0x000009b7       0x39 mesh/core/libmesh_core_nrf52832_xxAA.a(flash_manager_internal.c.obj)
 .ARM.attributes
                0x000009f0       0x39 mesh/core/libmesh_core_nrf52832_xxAA.a(core_tx.c.obj)
 .ARM.attributes
                0x00000a29       0x39 mesh/core/libmesh_core_nrf52832_xxAA.a(heartbeat.c.obj)
 .ARM.attributes
                0x00000a62       0x39 mesh/core/libmesh_core_nrf52832_xxAA.a(net_beacon.c.obj)
 .ARM.attributes
                0x00000a9b       0x39 mesh/core/libmesh_core_nrf52832_xxAA.a(core_tx_adv.c.obj)
 .ARM.attributes
                0x00000ad4       0x39 mesh/core/libmesh_core_nrf52832_xxAA.a(ad_listener.c.obj)
 .ARM.attributes
                0x00000b0d       0x39 mesh/core/libmesh_core_nrf52832_xxAA.a(ad_type_filter.c.obj)
 .ARM.attributes
                0x00000b46       0x39 mesh/core/libmesh_core_nrf52832_xxAA.a(advertiser.c.obj)
 .ARM.attributes
                0x00000b7f       0x39 mesh/core/libmesh_core_nrf52832_xxAA.a(bearer_handler.c.obj)
 .ARM.attributes
                0x00000bb8       0x39 mesh/core/libmesh_core_nrf52832_xxAA.a(broadcast.c.obj)
 .ARM.attributes
                0x00000bf1       0x39 mesh/core/libmesh_core_nrf52832_xxAA.a(filter_engine.c.obj)
 .ARM.attributes
                0x00000c2a       0x39 mesh/core/libmesh_core_nrf52832_xxAA.a(radio_config.c.obj)
 .ARM.attributes
                0x00000c63       0x39 mesh/core/libmesh_core_nrf52832_xxAA.a(scanner.c.obj)
 .ARM.attributes
                0x00000c9c       0x39 mesh/core/libmesh_core_nrf52832_xxAA.a(internal_event.c.obj)
 .ARM.attributes
                0x00000cd5       0x39 mesh/core/libmesh_core_nrf52832_xxAA.a(aes.c.obj)
 .ARM.attributes
                0x00000d0e       0x39 mesh/core/libmesh_core_nrf52832_xxAA.a(msg_cache.c.obj)
 .ARM.attributes
                0x00000d47       0x39 mesh/core/libmesh_core_nrf52832_xxAA.a(transport.c.obj)
 .ARM.attributes
                0x00000d80       0x39 mesh/core/libmesh_core_nrf52832_xxAA.a(packet_buffer.c.obj)
 .ARM.attributes
                0x00000db9       0x39 mesh/core/libmesh_core_nrf52832_xxAA.a(flash_manager_defrag.c.obj)
 .ARM.attributes
                0x00000df2       0x39 mesh/core/libmesh_core_nrf52832_xxAA.a(fifo.c.obj)
 .ARM.attributes
                0x00000e2b       0x39 mesh/core/libmesh_core_nrf52832_xxAA.a(mesh_flash.c.obj)
 .ARM.attributes
                0x00000e64       0x39 mesh/core/libmesh_core_nrf52832_xxAA.a(queue.c.obj)
 .ARM.attributes
                0x00000e9d       0x39 mesh/core/libmesh_core_nrf52832_xxAA.a(aes_cmac.c.obj)
 .ARM.attributes
                0x00000ed6       0x39 mesh/core/libmesh_core_nrf52832_xxAA.a(nrf_mesh_opt.c.obj)
 .ARM.attributes
                0x00000f0f       0x39 mesh/core/libmesh_core_nrf52832_xxAA.a(msqueue.c.obj)
 .ARM.attributes
                0x00000f48       0x39 mesh/core/libmesh_core_nrf52832_xxAA.a(replay_cache.c.obj)
 .ARM.attributes
                0x00000f81       0x39 mesh/core/libmesh_core_nrf52832_xxAA.a(nrf_flash.c.obj)
 .ARM.attributes
                0x00000fba       0x39 external/rtt/librtt_nrf52832_xxAA.a(SEGGER_RTT.c.obj)
 .ARM.attributes
                0x00000ff3       0x39 external/rtt/librtt_nrf52832_xxAA.a(SEGGER_RTT_printf.c.obj)
 .ARM.attributes
                0x0000102c       0x39 external/micro-ecc/libuECC_nrf52832_xxAA.a(uECC.c.obj)
 .ARM.attributes
                0x00001065       0x22 c:/a/gcc_arm/6/bin/../lib/gcc/arm-none-eabi/6.3.1/thumb/v7e-m/fpv4-sp/hard\libgcc.a(_aeabi_uldivmod.o)
 .ARM.attributes
                0x00001087       0x34 c:/a/gcc_arm/6/bin/../lib/gcc/arm-none-eabi/6.3.1/thumb/v7e-m/fpv4-sp/hard\libgcc.a(_udivmoddi4.o)
 .ARM.attributes
                0x000010bb       0x22 c:/a/gcc_arm/6/bin/../lib/gcc/arm-none-eabi/6.3.1/thumb/v7e-m/fpv4-sp/hard\libgcc.a(_dvmd_tls.o)
 .ARM.attributes
                0x000010dd       0x34 c:/a/gcc_arm/6/bin/../lib/gcc/arm-none-eabi/6.3.1/../../../../arm-none-eabi/lib/thumb/v7e-m/fpv4-sp/hard\libg_nano.a(lib_a-exit.o)
 .ARM.attributes
                0x00001111       0x34 c:/a/gcc_arm/6/bin/../lib/gcc/arm-none-eabi/6.3.1/../../../../arm-none-eabi/lib/thumb/v7e-m/fpv4-sp/hard\libg_nano.a(lib_a-impure.o)
 .ARM.attributes
                0x00001145       0x34 c:/a/gcc_arm/6/bin/../lib/gcc/arm-none-eabi/6.3.1/../../../../arm-none-eabi/lib/thumb/v7e-m/fpv4-sp/hard\libg_nano.a(lib_a-init.o)
 .ARM.attributes
                0x00001179       0x34 c:/a/gcc_arm/6/bin/../lib/gcc/arm-none-eabi/6.3.1/../../../../arm-none-eabi/lib/thumb/v7e-m/fpv4-sp/hard\libg_nano.a(lib_a-malloc.o)
 .ARM.attributes
                0x000011ad       0x34 c:/a/gcc_arm/6/bin/../lib/gcc/arm-none-eabi/6.3.1/../../../../arm-none-eabi/lib/thumb/v7e-m/fpv4-sp/hard\libg_nano.a(lib_a-memcmp.o)
 .ARM.attributes
                0x000011e1       0x34 c:/a/gcc_arm/6/bin/../lib/gcc/arm-none-eabi/6.3.1/../../../../arm-none-eabi/lib/thumb/v7e-m/fpv4-sp/hard\libg_nano.a(lib_a-memcpy-stub.o)
 .ARM.attributes
                0x00001215       0x34 c:/a/gcc_arm/6/bin/../lib/gcc/arm-none-eabi/6.3.1/../../../../arm-none-eabi/lib/thumb/v7e-m/fpv4-sp/hard\libg_nano.a(lib_a-memset.o)
 .ARM.attributes
                0x00001249       0x34 c:/a/gcc_arm/6/bin/../lib/gcc/arm-none-eabi/6.3.1/../../../../arm-none-eabi/lib/thumb/v7e-m/fpv4-sp/hard\libg_nano.a(lib_a-nano-freer.o)
 .ARM.attributes
                0x0000127d       0x34 c:/a/gcc_arm/6/bin/../lib/gcc/arm-none-eabi/6.3.1/../../../../arm-none-eabi/lib/thumb/v7e-m/fpv4-sp/hard\libg_nano.a(lib_a-nano-mallocr.o)
 .ARM.attributes
                0x000012b1       0x34 c:/a/gcc_arm/6/bin/../lib/gcc/arm-none-eabi/6.3.1/../../../../arm-none-eabi/lib/thumb/v7e-m/fpv4-sp/hard\libg_nano.a(lib_a-sbrkr.o)
 .ARM.attributes
                0x000012e5       0x34 c:/a/gcc_arm/6/bin/../lib/gcc/arm-none-eabi/6.3.1/../../../../arm-none-eabi/lib/thumb/v7e-m/fpv4-sp/hard\libg_nano.a(lib_a-strcpy.o)
 .ARM.attributes
                0x00001319       0x1b c:/a/gcc_arm/6/bin/../lib/gcc/arm-none-eabi/6.3.1/../../../../arm-none-eabi/lib/thumb/v7e-m/fpv4-sp/hard\libg_nano.a(lib_a-strlen.o)
 .ARM.attributes
                0x00001334       0x34 c:/a/gcc_arm/6/bin/../lib/gcc/arm-none-eabi/6.3.1/../../../../arm-none-eabi/lib/thumb/v7e-m/fpv4-sp/hard\libg_nano.a(lib_a-strrchr.o)
 .ARM.attributes
                0x00001368       0x34 c:/a/gcc_arm/6/bin/../lib/gcc/arm-none-eabi/6.3.1/../../../../arm-none-eabi/lib/thumb/v7e-m/fpv4-sp/hard\libg_nano.a(lib_a-mlock.o)
 .ARM.attributes
                0x0000139c       0x34 c:/a/gcc_arm/6/bin/../lib/gcc/arm-none-eabi/6.3.1/../../../../arm-none-eabi/lib/thumb/v7e-m/fpv4-sp/hard\libg_nano.a(lib_a-reent.o)
 .ARM.attributes
                0x000013d0       0x34 c:/a/gcc_arm/6/bin/../lib/gcc/arm-none-eabi/6.3.1/../../../../arm-none-eabi/lib/thumb/v7e-m/fpv4-sp/hard\libg_nano.a(lib_a-strchr.o)
 .ARM.attributes
                0x00001404       0x34 c:/a/gcc_arm/6/bin/../lib/gcc/arm-none-eabi/6.3.1/thumb/v7e-m/fpv4-sp/hard/crtend.o
 .ARM.attributes
                0x00001438       0x22 c:/a/gcc_arm/6/bin/../lib/gcc/arm-none-eabi/6.3.1/thumb/v7e-m/fpv4-sp/hard/crtn.o
 .ARM.attributes
                0x0000145a       0x34 c:/a/gcc_arm/6/bin/../lib/gcc/arm-none-eabi/6.3.1/../../../../arm-none-eabi/lib/thumb/v7e-m/fpv4-sp/hard\libnosys.a(sbrk.o)
 .ARM.attributes
                0x0000148e       0x34 c:/a/gcc_arm/6/bin/../lib/gcc/arm-none-eabi/6.3.1/../../../../arm-none-eabi/lib/thumb/v7e-m/fpv4-sp/hard\libnosys.a(_exit.o)

.comment        0x00000000       0x7f
 .comment       0x00000000       0x7f examples/light_switch/client/CMakeFiles/light_switch_client_nrf52832_xxAA_s132_3.1.0.dir/src/main.c.obj
                                 0x80 (size before relaxing)
 .comment       0x0000007f       0x80 examples/light_switch/client/CMakeFiles/light_switch_client_nrf52832_xxAA_s132_3.1.0.dir/src/provisioner.c.obj
 .comment       0x0000007f       0x80 examples/light_switch/client/CMakeFiles/light_switch_client_nrf52832_xxAA_s132_3.1.0.dir/__/__/nrf_mesh_sdk.c.obj
 .comment       0x0000007f       0x80 examples/light_switch/client/CMakeFiles/light_switch_client_nrf52832_xxAA_s132_3.1.0.dir/__/__/common/src/rtt_input.c.obj
 .comment       0x0000007f       0x80 examples/light_switch/client/CMakeFiles/light_switch_client_nrf52832_xxAA_s132_3.1.0.dir/__/__/common/src/simple_hal.c.obj
 .comment       0x0000007f       0x80 examples/light_switch/client/CMakeFiles/light_switch_client_nrf52832_xxAA_s132_3.1.0.dir/__/__/nrf_mesh_weak.c.obj
 .comment       0x0000007f       0x80 examples/light_switch/client/CMakeFiles/light_switch_client_nrf52832_xxAA_s132_3.1.0.dir/__/__/__/models/simple_on_off/src/simple_on_off_client.c.obj
 .comment       0x0000007f       0x80 examples/light_switch/client/CMakeFiles/light_switch_client_nrf52832_xxAA_s132_3.1.0.dir/__/__/__/models/config/src/config_client.c.obj
 .comment       0x0000007f       0x80 examples/light_switch/client/CMakeFiles/light_switch_client_nrf52832_xxAA_s132_3.1.0.dir/__/__/__/models/health/src/health_client.c.obj
 .comment       0x0000007f       0x80 examples/light_switch/client/CMakeFiles/light_switch_client_nrf52832_xxAA_s132_3.1.0.dir/__/__/__/mesh/access/src/access_publish.c.obj
 .comment       0x0000007f       0x80 examples/light_switch/client/CMakeFiles/light_switch_client_nrf52832_xxAA_s132_3.1.0.dir/__/__/__/mesh/access/src/access.c.obj
 .comment       0x0000007f       0x80 examples/light_switch/client/CMakeFiles/light_switch_client_nrf52832_xxAA_s132_3.1.0.dir/__/__/__/mesh/access/src/access_reliable.c.obj
 .comment       0x0000007f       0x80 examples/light_switch/client/CMakeFiles/light_switch_client_nrf52832_xxAA_s132_3.1.0.dir/__/__/__/mesh/access/src/device_state_manager.c.obj
 .comment       0x0000007f       0x80 examples/light_switch/client/CMakeFiles/light_switch_client_nrf52832_xxAA_s132_3.1.0.dir/__/__/__/mesh/prov/src/prov_provisioner.c.obj
 .comment       0x0000007f       0x80 examples/light_switch/client/CMakeFiles/light_switch_client_nrf52832_xxAA_s132_3.1.0.dir/__/__/__/mesh/prov/src/nrf_mesh_prov.c.obj
 .comment       0x0000007f       0x80 examples/light_switch/client/CMakeFiles/light_switch_client_nrf52832_xxAA_s132_3.1.0.dir/__/__/__/mesh/prov/src/provisioning.c.obj
 .comment       0x0000007f       0x80 examples/light_switch/client/CMakeFiles/light_switch_client_nrf52832_xxAA_s132_3.1.0.dir/__/__/__/mesh/prov/src/prov_beacon.c.obj
 .comment       0x0000007f       0x80 examples/light_switch/client/CMakeFiles/light_switch_client_nrf52832_xxAA_s132_3.1.0.dir/__/__/__/mesh/prov/src/prov_utils.c.obj
 .comment       0x0000007f       0x80 examples/light_switch/client/CMakeFiles/light_switch_client_nrf52832_xxAA_s132_3.1.0.dir/__/__/__/mesh/prov/src/prov_bearer_adv.c.obj
 .comment       0x0000007f       0x80 examples/light_switch/client/CMakeFiles/light_switch_client_nrf52832_xxAA_s132_3.1.0.dir/__/__/__/external/nRF5_SDK_14.2.0_17b948a/components/toolchain/system_nrf52.c.obj
 .comment       0x0000007f       0x80 mesh/core/libmesh_core_nrf52832_xxAA.a(nrf_mesh_configure.c.obj)
 .comment       0x0000007f       0x80 mesh/core/libmesh_core_nrf52832_xxAA.a(event.c.obj)
 .comment       0x0000007f       0x80 mesh/core/libmesh_core_nrf52832_xxAA.a(packet_mgr.c.obj)
 .comment       0x0000007f       0x80 mesh/core/libmesh_core_nrf52832_xxAA.a(net_state.c.obj)
 .comment       0x0000007f       0x80 mesh/core/libmesh_core_nrf52832_xxAA.a(nrf_mesh_utils.c.obj)
 .comment       0x0000007f       0x80 mesh/core/libmesh_core_nrf52832_xxAA.a(nrf_mesh.c.obj)
 .comment       0x0000007f       0x80 mesh/core/libmesh_core_nrf52832_xxAA.a(hal.c.obj)
 .comment       0x0000007f       0x80 mesh/core/libmesh_core_nrf52832_xxAA.a(timer_scheduler.c.obj)
 .comment       0x0000007f       0x80 mesh/core/libmesh_core_nrf52832_xxAA.a(timer.c.obj)
 .comment       0x0000007f       0x80 mesh/core/libmesh_core_nrf52832_xxAA.a(ticker.c.obj)
 .comment       0x0000007f       0x80 mesh/core/libmesh_core_nrf52832_xxAA.a(rand.c.obj)
 .comment       0x0000007f       0x80 mesh/core/libmesh_core_nrf52832_xxAA.a(timeslot.c.obj)
 .comment       0x0000007f       0x80 mesh/core/libmesh_core_nrf52832_xxAA.a(bearer_event.c.obj)
 .comment       0x0000007f       0x80 mesh/core/libmesh_core_nrf52832_xxAA.a(enc.c.obj)
 .comment       0x0000007f       0x80 mesh/core/libmesh_core_nrf52832_xxAA.a(network.c.obj)
 .comment       0x0000007f       0x80 mesh/core/libmesh_core_nrf52832_xxAA.a(nrf_mesh_keygen.c.obj)
 .comment       0x0000007f       0x80 mesh/core/libmesh_core_nrf52832_xxAA.a(list.c.obj)
 .comment       0x0000007f       0x80 mesh/core/libmesh_core_nrf52832_xxAA.a(log.c.obj)
 .comment       0x0000007f       0x80 mesh/core/libmesh_core_nrf52832_xxAA.a(flash_manager.c.obj)
 .comment       0x0000007f       0x80 mesh/core/libmesh_core_nrf52832_xxAA.a(ccm_soft.c.obj)
 .comment       0x0000007f       0x80 mesh/core/libmesh_core_nrf52832_xxAA.a(beacon.c.obj)
 .comment       0x0000007f       0x80 mesh/core/libmesh_core_nrf52832_xxAA.a(flash_manager_internal.c.obj)
 .comment       0x0000007f       0x80 mesh/core/libmesh_core_nrf52832_xxAA.a(core_tx.c.obj)
 .comment       0x0000007f       0x80 mesh/core/libmesh_core_nrf52832_xxAA.a(heartbeat.c.obj)
 .comment       0x0000007f       0x80 mesh/core/libmesh_core_nrf52832_xxAA.a(net_beacon.c.obj)
 .comment       0x0000007f       0x80 mesh/core/libmesh_core_nrf52832_xxAA.a(core_tx_adv.c.obj)
 .comment       0x0000007f       0x80 mesh/core/libmesh_core_nrf52832_xxAA.a(ad_listener.c.obj)
 .comment       0x0000007f       0x80 mesh/core/libmesh_core_nrf52832_xxAA.a(ad_type_filter.c.obj)
 .comment       0x0000007f       0x80 mesh/core/libmesh_core_nrf52832_xxAA.a(advertiser.c.obj)
 .comment       0x0000007f       0x80 mesh/core/libmesh_core_nrf52832_xxAA.a(bearer_handler.c.obj)
 .comment       0x0000007f       0x80 mesh/core/libmesh_core_nrf52832_xxAA.a(broadcast.c.obj)
 .comment       0x0000007f       0x80 mesh/core/libmesh_core_nrf52832_xxAA.a(filter_engine.c.obj)
 .comment       0x0000007f       0x80 mesh/core/libmesh_core_nrf52832_xxAA.a(radio_config.c.obj)
 .comment       0x0000007f       0x80 mesh/core/libmesh_core_nrf52832_xxAA.a(scanner.c.obj)
 .comment       0x0000007f       0x80 mesh/core/libmesh_core_nrf52832_xxAA.a(internal_event.c.obj)
 .comment       0x0000007f       0x80 mesh/core/libmesh_core_nrf52832_xxAA.a(aes.c.obj)
 .comment       0x0000007f       0x80 mesh/core/libmesh_core_nrf52832_xxAA.a(msg_cache.c.obj)
 .comment       0x0000007f       0x80 mesh/core/libmesh_core_nrf52832_xxAA.a(transport.c.obj)
 .comment       0x0000007f       0x80 mesh/core/libmesh_core_nrf52832_xxAA.a(packet_buffer.c.obj)
 .comment       0x0000007f       0x80 mesh/core/libmesh_core_nrf52832_xxAA.a(flash_manager_defrag.c.obj)
 .comment       0x0000007f       0x80 mesh/core/libmesh_core_nrf52832_xxAA.a(fifo.c.obj)
 .comment       0x0000007f       0x80 mesh/core/libmesh_core_nrf52832_xxAA.a(mesh_flash.c.obj)
 .comment       0x0000007f       0x80 mesh/core/libmesh_core_nrf52832_xxAA.a(queue.c.obj)
 .comment       0x0000007f       0x80 mesh/core/libmesh_core_nrf52832_xxAA.a(aes_cmac.c.obj)
 .comment       0x0000007f       0x80 mesh/core/libmesh_core_nrf52832_xxAA.a(nrf_mesh_opt.c.obj)
 .comment       0x0000007f       0x80 mesh/core/libmesh_core_nrf52832_xxAA.a(msqueue.c.obj)
 .comment       0x0000007f       0x80 mesh/core/libmesh_core_nrf52832_xxAA.a(replay_cache.c.obj)
 .comment       0x0000007f       0x80 mesh/core/libmesh_core_nrf52832_xxAA.a(nrf_flash.c.obj)
 .comment       0x0000007f       0x80 external/rtt/librtt_nrf52832_xxAA.a(SEGGER_RTT.c.obj)
 .comment       0x0000007f       0x80 external/rtt/librtt_nrf52832_xxAA.a(SEGGER_RTT_printf.c.obj)
 .comment       0x0000007f       0x80 external/micro-ecc/libuECC_nrf52832_xxAA.a(uECC.c.obj)

.debug_info     0x00000000    0x73478
 .debug_info    0x00000000     0x3475 examples/light_switch/client/CMakeFiles/light_switch_client_nrf52832_xxAA_s132_3.1.0.dir/src/main.c.obj
 .debug_info    0x00003475     0x3b66 examples/light_switch/client/CMakeFiles/light_switch_client_nrf52832_xxAA_s132_3.1.0.dir/src/provisioner.c.obj
 .debug_info    0x00006fdb     0x33aa examples/light_switch/client/CMakeFiles/light_switch_client_nrf52832_xxAA_s132_3.1.0.dir/__/__/nrf_mesh_sdk.c.obj
 .debug_info    0x0000a385     0x116f examples/light_switch/client/CMakeFiles/light_switch_client_nrf52832_xxAA_s132_3.1.0.dir/__/__/common/src/rtt_input.c.obj
 .debug_info    0x0000b4f4     0x1477 examples/light_switch/client/CMakeFiles/light_switch_client_nrf52832_xxAA_s132_3.1.0.dir/__/__/common/src/simple_hal.c.obj
 .debug_info    0x0000c96b      0x94b examples/light_switch/client/CMakeFiles/light_switch_client_nrf52832_xxAA_s132_3.1.0.dir/__/__/nrf_mesh_weak.c.obj
 .debug_info    0x0000d2b6     0x137a examples/light_switch/client/CMakeFiles/light_switch_client_nrf52832_xxAA_s132_3.1.0.dir/__/__/__/models/simple_on_off/src/simple_on_off_client.c.obj
 .debug_info    0x0000e630     0x3e06 examples/light_switch/client/CMakeFiles/light_switch_client_nrf52832_xxAA_s132_3.1.0.dir/__/__/__/models/config/src/config_client.c.obj
 .debug_info    0x00012436     0x1a26 examples/light_switch/client/CMakeFiles/light_switch_client_nrf52832_xxAA_s132_3.1.0.dir/__/__/__/models/health/src/health_client.c.obj
 .debug_info    0x00013e5c     0x112b examples/light_switch/client/CMakeFiles/light_switch_client_nrf52832_xxAA_s132_3.1.0.dir/__/__/__/mesh/access/src/access_publish.c.obj
 .debug_info    0x00014f87     0x441d examples/light_switch/client/CMakeFiles/light_switch_client_nrf52832_xxAA_s132_3.1.0.dir/__/__/__/mesh/access/src/access.c.obj
 .debug_info    0x000193a4     0x1540 examples/light_switch/client/CMakeFiles/light_switch_client_nrf52832_xxAA_s132_3.1.0.dir/__/__/__/mesh/access/src/access_reliable.c.obj
 .debug_info    0x0001a8e4     0x5f01 examples/light_switch/client/CMakeFiles/light_switch_client_nrf52832_xxAA_s132_3.1.0.dir/__/__/__/mesh/access/src/device_state_manager.c.obj
 .debug_info    0x000207e5     0x2350 examples/light_switch/client/CMakeFiles/light_switch_client_nrf52832_xxAA_s132_3.1.0.dir/__/__/__/mesh/prov/src/prov_provisioner.c.obj
 .debug_info    0x00022b35     0x1bf0 examples/light_switch/client/CMakeFiles/light_switch_client_nrf52832_xxAA_s132_3.1.0.dir/__/__/__/mesh/prov/src/nrf_mesh_prov.c.obj
 .debug_info    0x00024725     0x1588 examples/light_switch/client/CMakeFiles/light_switch_client_nrf52832_xxAA_s132_3.1.0.dir/__/__/__/mesh/prov/src/provisioning.c.obj
 .debug_info    0x00025cad     0x199b examples/light_switch/client/CMakeFiles/light_switch_client_nrf52832_xxAA_s132_3.1.0.dir/__/__/__/mesh/prov/src/prov_beacon.c.obj
 .debug_info    0x00027648     0x2021 examples/light_switch/client/CMakeFiles/light_switch_client_nrf52832_xxAA_s132_3.1.0.dir/__/__/__/mesh/prov/src/prov_utils.c.obj
 .debug_info    0x00029669     0x3963 examples/light_switch/client/CMakeFiles/light_switch_client_nrf52832_xxAA_s132_3.1.0.dir/__/__/__/mesh/prov/src/prov_bearer_adv.c.obj
 .debug_info    0x0002cfcc     0x10da examples/light_switch/client/CMakeFiles/light_switch_client_nrf52832_xxAA_s132_3.1.0.dir/__/__/__/external/nRF5_SDK_14.2.0_17b948a/components/toolchain/system_nrf52.c.obj
 .debug_info    0x0002e0a6      0xd04 mesh/core/libmesh_core_nrf52832_xxAA.a(nrf_mesh_configure.c.obj)
 .debug_info    0x0002edaa     0x150e mesh/core/libmesh_core_nrf52832_xxAA.a(event.c.obj)
 .debug_info    0x000302b8     0x115b mesh/core/libmesh_core_nrf52832_xxAA.a(packet_mgr.c.obj)
 .debug_info    0x00031413     0x242c mesh/core/libmesh_core_nrf52832_xxAA.a(net_state.c.obj)
 .debug_info    0x0003383f      0xa87 mesh/core/libmesh_core_nrf52832_xxAA.a(nrf_mesh_utils.c.obj)
 .debug_info    0x000342c6     0x33fd mesh/core/libmesh_core_nrf52832_xxAA.a(nrf_mesh.c.obj)
 .debug_info    0x000376c3      0x570 mesh/core/libmesh_core_nrf52832_xxAA.a(hal.c.obj)
 .debug_info    0x00037c33     0x102a mesh/core/libmesh_core_nrf52832_xxAA.a(timer_scheduler.c.obj)
 .debug_info    0x00038c5d      0xd79 mesh/core/libmesh_core_nrf52832_xxAA.a(timer.c.obj)
 .debug_info    0x000399d6      0x20b mesh/core/libmesh_core_nrf52832_xxAA.a(ticker.c.obj)
 .debug_info    0x00039be1      0x40f mesh/core/libmesh_core_nrf52832_xxAA.a(rand.c.obj)
 .debug_info    0x00039ff0     0x19fd mesh/core/libmesh_core_nrf52832_xxAA.a(timeslot.c.obj)
 .debug_info    0x0003b9ed     0x19d7 mesh/core/libmesh_core_nrf52832_xxAA.a(bearer_event.c.obj)
 .debug_info    0x0003d3c4     0x164f mesh/core/libmesh_core_nrf52832_xxAA.a(enc.c.obj)
 .debug_info    0x0003ea13     0x2aee mesh/core/libmesh_core_nrf52832_xxAA.a(network.c.obj)
 .debug_info    0x00041501      0x4c8 mesh/core/libmesh_core_nrf52832_xxAA.a(nrf_mesh_keygen.c.obj)
 .debug_info    0x000419c9      0x48b mesh/core/libmesh_core_nrf52832_xxAA.a(list.c.obj)
 .debug_info    0x00041e54      0xe28 mesh/core/libmesh_core_nrf52832_xxAA.a(log.c.obj)
 .debug_info    0x00042c7c     0x320c mesh/core/libmesh_core_nrf52832_xxAA.a(flash_manager.c.obj)
 .debug_info    0x00045e88     0x10a3 mesh/core/libmesh_core_nrf52832_xxAA.a(ccm_soft.c.obj)
 .debug_info    0x00046f2b     0x193b mesh/core/libmesh_core_nrf52832_xxAA.a(beacon.c.obj)
 .debug_info    0x00048866      0xb99 mesh/core/libmesh_core_nrf52832_xxAA.a(flash_manager_internal.c.obj)
 .debug_info    0x000493ff      0xfb3 mesh/core/libmesh_core_nrf52832_xxAA.a(core_tx.c.obj)
 .debug_info    0x0004a3b2     0x219f mesh/core/libmesh_core_nrf52832_xxAA.a(heartbeat.c.obj)
 .debug_info    0x0004c551     0x1511 mesh/core/libmesh_core_nrf52832_xxAA.a(net_beacon.c.obj)
 .debug_info    0x0004da62     0x160b mesh/core/libmesh_core_nrf52832_xxAA.a(core_tx_adv.c.obj)
 .debug_info    0x0004f06d     0x1118 mesh/core/libmesh_core_nrf52832_xxAA.a(ad_listener.c.obj)
 .debug_info    0x00050185      0xfcd mesh/core/libmesh_core_nrf52832_xxAA.a(ad_type_filter.c.obj)
 .debug_info    0x00051152     0x2448 mesh/core/libmesh_core_nrf52832_xxAA.a(advertiser.c.obj)
 .debug_info    0x0005359a     0x18f8 mesh/core/libmesh_core_nrf52832_xxAA.a(bearer_handler.c.obj)
 .debug_info    0x00054e92     0x1963 mesh/core/libmesh_core_nrf52832_xxAA.a(broadcast.c.obj)
 .debug_info    0x000567f5      0xcf4 mesh/core/libmesh_core_nrf52832_xxAA.a(filter_engine.c.obj)
 .debug_info    0x000574e9      0x871 mesh/core/libmesh_core_nrf52832_xxAA.a(radio_config.c.obj)
 .debug_info    0x00057d5a     0x25aa mesh/core/libmesh_core_nrf52832_xxAA.a(scanner.c.obj)
 .debug_info    0x0005a304      0xc4e mesh/core/libmesh_core_nrf52832_xxAA.a(internal_event.c.obj)
 .debug_info    0x0005af52      0xbcc mesh/core/libmesh_core_nrf52832_xxAA.a(aes.c.obj)
 .debug_info    0x0005bb1e      0xa81 mesh/core/libmesh_core_nrf52832_xxAA.a(msg_cache.c.obj)
 .debug_info    0x0005c59f     0x54fa mesh/core/libmesh_core_nrf52832_xxAA.a(transport.c.obj)
 .debug_info    0x00061a99     0x1d81 mesh/core/libmesh_core_nrf52832_xxAA.a(packet_buffer.c.obj)
 .debug_info    0x0006381a     0x234f mesh/core/libmesh_core_nrf52832_xxAA.a(flash_manager_defrag.c.obj)
 .debug_info    0x00065b69      0xd0e mesh/core/libmesh_core_nrf52832_xxAA.a(fifo.c.obj)
 .debug_info    0x00066877     0x1887 mesh/core/libmesh_core_nrf52832_xxAA.a(mesh_flash.c.obj)
 .debug_info    0x000680fe      0xaf2 mesh/core/libmesh_core_nrf52832_xxAA.a(queue.c.obj)
 .debug_info    0x00068bf0      0xe48 mesh/core/libmesh_core_nrf52832_xxAA.a(aes_cmac.c.obj)
 .debug_info    0x00069a38      0xb1c mesh/core/libmesh_core_nrf52832_xxAA.a(nrf_mesh_opt.c.obj)
 .debug_info    0x0006a554      0xd08 mesh/core/libmesh_core_nrf52832_xxAA.a(msqueue.c.obj)
 .debug_info    0x0006b25c      0xaeb mesh/core/libmesh_core_nrf52832_xxAA.a(replay_cache.c.obj)
 .debug_info    0x0006bd47      0xb47 mesh/core/libmesh_core_nrf52832_xxAA.a(nrf_flash.c.obj)
 .debug_info    0x0006c88e     0x1818 external/rtt/librtt_nrf52832_xxAA.a(SEGGER_RTT.c.obj)
 .debug_info    0x0006e0a6      0xec1 external/rtt/librtt_nrf52832_xxAA.a(SEGGER_RTT_printf.c.obj)
 .debug_info    0x0006ef67     0x4511 external/micro-ecc/libuECC_nrf52832_xxAA.a(uECC.c.obj)

.debug_abbrev   0x00000000     0xfade
 .debug_abbrev  0x00000000      0x4bd examples/light_switch/client/CMakeFiles/light_switch_client_nrf52832_xxAA_s132_3.1.0.dir/src/main.c.obj
 .debug_abbrev  0x000004bd      0x43d examples/light_switch/client/CMakeFiles/light_switch_client_nrf52832_xxAA_s132_3.1.0.dir/src/provisioner.c.obj
 .debug_abbrev  0x000008fa      0x4aa examples/light_switch/client/CMakeFiles/light_switch_client_nrf52832_xxAA_s132_3.1.0.dir/__/__/nrf_mesh_sdk.c.obj
 .debug_abbrev  0x00000da4      0x2b8 examples/light_switch/client/CMakeFiles/light_switch_client_nrf52832_xxAA_s132_3.1.0.dir/__/__/common/src/rtt_input.c.obj
 .debug_abbrev  0x0000105c      0x364 examples/light_switch/client/CMakeFiles/light_switch_client_nrf52832_xxAA_s132_3.1.0.dir/__/__/common/src/simple_hal.c.obj
 .debug_abbrev  0x000013c0      0x1ae examples/light_switch/client/CMakeFiles/light_switch_client_nrf52832_xxAA_s132_3.1.0.dir/__/__/nrf_mesh_weak.c.obj
 .debug_abbrev  0x0000156e      0x352 examples/light_switch/client/CMakeFiles/light_switch_client_nrf52832_xxAA_s132_3.1.0.dir/__/__/__/models/simple_on_off/src/simple_on_off_client.c.obj
 .debug_abbrev  0x000018c0      0x54c examples/light_switch/client/CMakeFiles/light_switch_client_nrf52832_xxAA_s132_3.1.0.dir/__/__/__/models/config/src/config_client.c.obj
 .debug_abbrev  0x00001e0c      0x3af examples/light_switch/client/CMakeFiles/light_switch_client_nrf52832_xxAA_s132_3.1.0.dir/__/__/__/models/health/src/health_client.c.obj
 .debug_abbrev  0x000021bb      0x460 examples/light_switch/client/CMakeFiles/light_switch_client_nrf52832_xxAA_s132_3.1.0.dir/__/__/__/mesh/access/src/access_publish.c.obj
 .debug_abbrev  0x0000261b      0x67f examples/light_switch/client/CMakeFiles/light_switch_client_nrf52832_xxAA_s132_3.1.0.dir/__/__/__/mesh/access/src/access.c.obj
 .debug_abbrev  0x00002c9a      0x440 examples/light_switch/client/CMakeFiles/light_switch_client_nrf52832_xxAA_s132_3.1.0.dir/__/__/__/mesh/access/src/access_reliable.c.obj
 .debug_abbrev  0x000030da      0x647 examples/light_switch/client/CMakeFiles/light_switch_client_nrf52832_xxAA_s132_3.1.0.dir/__/__/__/mesh/access/src/device_state_manager.c.obj
 .debug_abbrev  0x00003721      0x3dd examples/light_switch/client/CMakeFiles/light_switch_client_nrf52832_xxAA_s132_3.1.0.dir/__/__/__/mesh/prov/src/prov_provisioner.c.obj
 .debug_abbrev  0x00003afe      0x335 examples/light_switch/client/CMakeFiles/light_switch_client_nrf52832_xxAA_s132_3.1.0.dir/__/__/__/mesh/prov/src/nrf_mesh_prov.c.obj
 .debug_abbrev  0x00003e33      0x29c examples/light_switch/client/CMakeFiles/light_switch_client_nrf52832_xxAA_s132_3.1.0.dir/__/__/__/mesh/prov/src/provisioning.c.obj
 .debug_abbrev  0x000040cf      0x2c8 examples/light_switch/client/CMakeFiles/light_switch_client_nrf52832_xxAA_s132_3.1.0.dir/__/__/__/mesh/prov/src/prov_beacon.c.obj
 .debug_abbrev  0x00004397      0x3d4 examples/light_switch/client/CMakeFiles/light_switch_client_nrf52832_xxAA_s132_3.1.0.dir/__/__/__/mesh/prov/src/prov_utils.c.obj
 .debug_abbrev  0x0000476b      0x50e examples/light_switch/client/CMakeFiles/light_switch_client_nrf52832_xxAA_s132_3.1.0.dir/__/__/__/mesh/prov/src/prov_bearer_adv.c.obj
 .debug_abbrev  0x00004c79      0x202 examples/light_switch/client/CMakeFiles/light_switch_client_nrf52832_xxAA_s132_3.1.0.dir/__/__/__/external/nRF5_SDK_14.2.0_17b948a/components/toolchain/system_nrf52.c.obj
 .debug_abbrev  0x00004e7b      0x24b mesh/core/libmesh_core_nrf52832_xxAA.a(nrf_mesh_configure.c.obj)
 .debug_abbrev  0x000050c6      0x2a2 mesh/core/libmesh_core_nrf52832_xxAA.a(event.c.obj)
 .debug_abbrev  0x00005368      0x3d1 mesh/core/libmesh_core_nrf52832_xxAA.a(packet_mgr.c.obj)
 .debug_abbrev  0x00005739      0x53b mesh/core/libmesh_core_nrf52832_xxAA.a(net_state.c.obj)
 .debug_abbrev  0x00005c74      0x25a mesh/core/libmesh_core_nrf52832_xxAA.a(nrf_mesh_utils.c.obj)
 .debug_abbrev  0x00005ece      0x467 mesh/core/libmesh_core_nrf52832_xxAA.a(nrf_mesh.c.obj)
 .debug_abbrev  0x00006335      0x204 mesh/core/libmesh_core_nrf52832_xxAA.a(hal.c.obj)
 .debug_abbrev  0x00006539      0x3bf mesh/core/libmesh_core_nrf52832_xxAA.a(timer_scheduler.c.obj)
 .debug_abbrev  0x000068f8      0x346 mesh/core/libmesh_core_nrf52832_xxAA.a(timer.c.obj)
 .debug_abbrev  0x00006c3e      0x152 mesh/core/libmesh_core_nrf52832_xxAA.a(ticker.c.obj)
 .debug_abbrev  0x00006d90      0x1d2 mesh/core/libmesh_core_nrf52832_xxAA.a(rand.c.obj)
 .debug_abbrev  0x00006f62      0x4db mesh/core/libmesh_core_nrf52832_xxAA.a(timeslot.c.obj)
 .debug_abbrev  0x0000743d      0x4b3 mesh/core/libmesh_core_nrf52832_xxAA.a(bearer_event.c.obj)
 .debug_abbrev  0x000078f0      0x37e mesh/core/libmesh_core_nrf52832_xxAA.a(enc.c.obj)
 .debug_abbrev  0x00007c6e      0x52c mesh/core/libmesh_core_nrf52832_xxAA.a(network.c.obj)
 .debug_abbrev  0x0000819a      0x163 mesh/core/libmesh_core_nrf52832_xxAA.a(nrf_mesh_keygen.c.obj)
 .debug_abbrev  0x000082fd      0x18e mesh/core/libmesh_core_nrf52832_xxAA.a(list.c.obj)
 .debug_abbrev  0x0000848b      0x24e mesh/core/libmesh_core_nrf52832_xxAA.a(log.c.obj)
 .debug_abbrev  0x000086d9      0x5c2 mesh/core/libmesh_core_nrf52832_xxAA.a(flash_manager.c.obj)
 .debug_abbrev  0x00008c9b      0x2b3 mesh/core/libmesh_core_nrf52832_xxAA.a(ccm_soft.c.obj)
 .debug_abbrev  0x00008f4e      0x38c mesh/core/libmesh_core_nrf52832_xxAA.a(beacon.c.obj)
 .debug_abbrev  0x000092da      0x28a mesh/core/libmesh_core_nrf52832_xxAA.a(flash_manager_internal.c.obj)
 .debug_abbrev  0x00009564      0x32c mesh/core/libmesh_core_nrf52832_xxAA.a(core_tx.c.obj)
 .debug_abbrev  0x00009890      0x4c9 mesh/core/libmesh_core_nrf52832_xxAA.a(heartbeat.c.obj)
 .debug_abbrev  0x00009d59      0x3cc mesh/core/libmesh_core_nrf52832_xxAA.a(net_beacon.c.obj)
 .debug_abbrev  0x0000a125      0x32c mesh/core/libmesh_core_nrf52832_xxAA.a(core_tx_adv.c.obj)
 .debug_abbrev  0x0000a451      0x341 mesh/core/libmesh_core_nrf52832_xxAA.a(ad_listener.c.obj)
 .debug_abbrev  0x0000a792      0x377 mesh/core/libmesh_core_nrf52832_xxAA.a(ad_type_filter.c.obj)
 .debug_abbrev  0x0000ab09      0x4fe mesh/core/libmesh_core_nrf52832_xxAA.a(advertiser.c.obj)
 .debug_abbrev  0x0000b007      0x40d mesh/core/libmesh_core_nrf52832_xxAA.a(bearer_handler.c.obj)
 .debug_abbrev  0x0000b414      0x3b4 mesh/core/libmesh_core_nrf52832_xxAA.a(broadcast.c.obj)
 .debug_abbrev  0x0000b7c8      0x299 mesh/core/libmesh_core_nrf52832_xxAA.a(filter_engine.c.obj)
 .debug_abbrev  0x0000ba61      0x1d9 mesh/core/libmesh_core_nrf52832_xxAA.a(radio_config.c.obj)
 .debug_abbrev  0x0000bc3a      0x582 mesh/core/libmesh_core_nrf52832_xxAA.a(scanner.c.obj)
 .debug_abbrev  0x0000c1bc      0x26d mesh/core/libmesh_core_nrf52832_xxAA.a(internal_event.c.obj)
 .debug_abbrev  0x0000c429      0x264 mesh/core/libmesh_core_nrf52832_xxAA.a(aes.c.obj)
 .debug_abbrev  0x0000c68d      0x25d mesh/core/libmesh_core_nrf52832_xxAA.a(msg_cache.c.obj)
 .debug_abbrev  0x0000c8ea      0x629 mesh/core/libmesh_core_nrf52832_xxAA.a(transport.c.obj)
 .debug_abbrev  0x0000cf13      0x49a mesh/core/libmesh_core_nrf52832_xxAA.a(packet_buffer.c.obj)
 .debug_abbrev  0x0000d3ad      0x558 mesh/core/libmesh_core_nrf52832_xxAA.a(flash_manager_defrag.c.obj)
 .debug_abbrev  0x0000d905      0x301 mesh/core/libmesh_core_nrf52832_xxAA.a(fifo.c.obj)
 .debug_abbrev  0x0000dc06      0x478 mesh/core/libmesh_core_nrf52832_xxAA.a(mesh_flash.c.obj)
 .debug_abbrev  0x0000e07e      0x227 mesh/core/libmesh_core_nrf52832_xxAA.a(queue.c.obj)
 .debug_abbrev  0x0000e2a5      0x332 mesh/core/libmesh_core_nrf52832_xxAA.a(aes_cmac.c.obj)
 .debug_abbrev  0x0000e5d7      0x24a mesh/core/libmesh_core_nrf52832_xxAA.a(nrf_mesh_opt.c.obj)
 .debug_abbrev  0x0000e821      0x29c mesh/core/libmesh_core_nrf52832_xxAA.a(msqueue.c.obj)
 .debug_abbrev  0x0000eabd      0x277 mesh/core/libmesh_core_nrf52832_xxAA.a(replay_cache.c.obj)
 .debug_abbrev  0x0000ed34      0x21f mesh/core/libmesh_core_nrf52832_xxAA.a(nrf_flash.c.obj)
 .debug_abbrev  0x0000ef53      0x3a9 external/rtt/librtt_nrf52832_xxAA.a(SEGGER_RTT.c.obj)
 .debug_abbrev  0x0000f2fc      0x32e external/rtt/librtt_nrf52832_xxAA.a(SEGGER_RTT_printf.c.obj)
 .debug_abbrev  0x0000f62a      0x4b4 external/micro-ecc/libuECC_nrf52832_xxAA.a(uECC.c.obj)

.debug_loc      0x00000000    0x21f5c
 .debug_loc     0x00000000      0x652 examples/light_switch/client/CMakeFiles/light_switch_client_nrf52832_xxAA_s132_3.1.0.dir/src/main.c.obj
 .debug_loc     0x00000652      0x4c2 examples/light_switch/client/CMakeFiles/light_switch_client_nrf52832_xxAA_s132_3.1.0.dir/src/provisioner.c.obj
 .debug_loc     0x00000b14      0x351 examples/light_switch/client/CMakeFiles/light_switch_client_nrf52832_xxAA_s132_3.1.0.dir/__/__/nrf_mesh_sdk.c.obj
 .debug_loc     0x00000e65       0xa5 examples/light_switch/client/CMakeFiles/light_switch_client_nrf52832_xxAA_s132_3.1.0.dir/__/__/common/src/rtt_input.c.obj
 .debug_loc     0x00000f0a      0x1ee examples/light_switch/client/CMakeFiles/light_switch_client_nrf52832_xxAA_s132_3.1.0.dir/__/__/common/src/simple_hal.c.obj
 .debug_loc     0x000010f8      0x5fa examples/light_switch/client/CMakeFiles/light_switch_client_nrf52832_xxAA_s132_3.1.0.dir/__/__/__/models/simple_on_off/src/simple_on_off_client.c.obj
 .debug_loc     0x000016f2     0x154b examples/light_switch/client/CMakeFiles/light_switch_client_nrf52832_xxAA_s132_3.1.0.dir/__/__/__/models/config/src/config_client.c.obj
 .debug_loc     0x00002c3d      0xa21 examples/light_switch/client/CMakeFiles/light_switch_client_nrf52832_xxAA_s132_3.1.0.dir/__/__/__/models/health/src/health_client.c.obj
 .debug_loc     0x0000365e      0x577 examples/light_switch/client/CMakeFiles/light_switch_client_nrf52832_xxAA_s132_3.1.0.dir/__/__/__/mesh/access/src/access_publish.c.obj
 .debug_loc     0x00003bd5     0x22bd examples/light_switch/client/CMakeFiles/light_switch_client_nrf52832_xxAA_s132_3.1.0.dir/__/__/__/mesh/access/src/access.c.obj
 .debug_loc     0x00005e92      0x7f6 examples/light_switch/client/CMakeFiles/light_switch_client_nrf52832_xxAA_s132_3.1.0.dir/__/__/__/mesh/access/src/access_reliable.c.obj
 .debug_loc     0x00006688     0x3c34 examples/light_switch/client/CMakeFiles/light_switch_client_nrf52832_xxAA_s132_3.1.0.dir/__/__/__/mesh/access/src/device_state_manager.c.obj
 .debug_loc     0x0000a2bc      0x6b1 examples/light_switch/client/CMakeFiles/light_switch_client_nrf52832_xxAA_s132_3.1.0.dir/__/__/__/mesh/prov/src/prov_provisioner.c.obj
 .debug_loc     0x0000a96d      0x7ec examples/light_switch/client/CMakeFiles/light_switch_client_nrf52832_xxAA_s132_3.1.0.dir/__/__/__/mesh/prov/src/nrf_mesh_prov.c.obj
 .debug_loc     0x0000b159      0x4e0 examples/light_switch/client/CMakeFiles/light_switch_client_nrf52832_xxAA_s132_3.1.0.dir/__/__/__/mesh/prov/src/provisioning.c.obj
 .debug_loc     0x0000b639      0x1cd examples/light_switch/client/CMakeFiles/light_switch_client_nrf52832_xxAA_s132_3.1.0.dir/__/__/__/mesh/prov/src/prov_beacon.c.obj
 .debug_loc     0x0000b806      0x42c examples/light_switch/client/CMakeFiles/light_switch_client_nrf52832_xxAA_s132_3.1.0.dir/__/__/__/mesh/prov/src/prov_utils.c.obj
 .debug_loc     0x0000bc32     0x175a examples/light_switch/client/CMakeFiles/light_switch_client_nrf52832_xxAA_s132_3.1.0.dir/__/__/__/mesh/prov/src/prov_bearer_adv.c.obj
 .debug_loc     0x0000d38c       0x2c mesh/core/libmesh_core_nrf52832_xxAA.a(nrf_mesh_configure.c.obj)
 .debug_loc     0x0000d3b8      0x136 mesh/core/libmesh_core_nrf52832_xxAA.a(event.c.obj)
 .debug_loc     0x0000d4ee      0x6d7 mesh/core/libmesh_core_nrf52832_xxAA.a(packet_mgr.c.obj)
 .debug_loc     0x0000dbc5      0x7be mesh/core/libmesh_core_nrf52832_xxAA.a(net_state.c.obj)
 .debug_loc     0x0000e383      0x11c mesh/core/libmesh_core_nrf52832_xxAA.a(nrf_mesh_utils.c.obj)
 .debug_loc     0x0000e49f      0x4d3 mesh/core/libmesh_core_nrf52832_xxAA.a(nrf_mesh.c.obj)
 .debug_loc     0x0000e972       0x84 mesh/core/libmesh_core_nrf52832_xxAA.a(hal.c.obj)
 .debug_loc     0x0000e9f6      0x3b9 mesh/core/libmesh_core_nrf52832_xxAA.a(timer_scheduler.c.obj)
 .debug_loc     0x0000edaf      0x60f mesh/core/libmesh_core_nrf52832_xxAA.a(timer.c.obj)
 .debug_loc     0x0000f3be      0x190 mesh/core/libmesh_core_nrf52832_xxAA.a(rand.c.obj)
 .debug_loc     0x0000f54e      0x370 mesh/core/libmesh_core_nrf52832_xxAA.a(timeslot.c.obj)
 .debug_loc     0x0000f8be      0x647 mesh/core/libmesh_core_nrf52832_xxAA.a(bearer_event.c.obj)
 .debug_loc     0x0000ff05      0x960 mesh/core/libmesh_core_nrf52832_xxAA.a(enc.c.obj)
 .debug_loc     0x00010865     0x10e7 mesh/core/libmesh_core_nrf52832_xxAA.a(network.c.obj)
 .debug_loc     0x0001194c      0x1ee mesh/core/libmesh_core_nrf52832_xxAA.a(nrf_mesh_keygen.c.obj)
 .debug_loc     0x00011b3a      0x541 mesh/core/libmesh_core_nrf52832_xxAA.a(list.c.obj)
 .debug_loc     0x0001207b      0x348 mesh/core/libmesh_core_nrf52832_xxAA.a(log.c.obj)
 .debug_loc     0x000123c3     0x1791 mesh/core/libmesh_core_nrf52832_xxAA.a(flash_manager.c.obj)
 .debug_loc     0x00013b54      0x371 mesh/core/libmesh_core_nrf52832_xxAA.a(ccm_soft.c.obj)
 .debug_loc     0x00013ec5      0x527 mesh/core/libmesh_core_nrf52832_xxAA.a(beacon.c.obj)
 .debug_loc     0x000143ec      0x130 mesh/core/libmesh_core_nrf52832_xxAA.a(flash_manager_internal.c.obj)
 .debug_loc     0x0001451c      0x639 mesh/core/libmesh_core_nrf52832_xxAA.a(core_tx.c.obj)
 .debug_loc     0x00014b55      0x644 mesh/core/libmesh_core_nrf52832_xxAA.a(heartbeat.c.obj)
 .debug_loc     0x00015199      0x3fe mesh/core/libmesh_core_nrf52832_xxAA.a(net_beacon.c.obj)
 .debug_loc     0x00015597      0x3fa mesh/core/libmesh_core_nrf52832_xxAA.a(core_tx_adv.c.obj)
 .debug_loc     0x00015991      0x42e mesh/core/libmesh_core_nrf52832_xxAA.a(ad_listener.c.obj)
 .debug_loc     0x00015dbf      0x3b9 mesh/core/libmesh_core_nrf52832_xxAA.a(ad_type_filter.c.obj)
 .debug_loc     0x00016178      0xedd mesh/core/libmesh_core_nrf52832_xxAA.a(advertiser.c.obj)
 .debug_loc     0x00017055      0x42d mesh/core/libmesh_core_nrf52832_xxAA.a(bearer_handler.c.obj)
 .debug_loc     0x00017482      0x377 mesh/core/libmesh_core_nrf52832_xxAA.a(broadcast.c.obj)
 .debug_loc     0x000177f9      0x115 mesh/core/libmesh_core_nrf52832_xxAA.a(filter_engine.c.obj)
 .debug_loc     0x0001790e      0x28c mesh/core/libmesh_core_nrf52832_xxAA.a(radio_config.c.obj)
 .debug_loc     0x00017b9a      0x4f6 mesh/core/libmesh_core_nrf52832_xxAA.a(scanner.c.obj)
 .debug_loc     0x00018090       0xc9 mesh/core/libmesh_core_nrf52832_xxAA.a(internal_event.c.obj)
 .debug_loc     0x00018159       0x89 mesh/core/libmesh_core_nrf52832_xxAA.a(aes.c.obj)
 .debug_loc     0x000181e2      0x10d mesh/core/libmesh_core_nrf52832_xxAA.a(msg_cache.c.obj)
 .debug_loc     0x000182ef     0x28ef mesh/core/libmesh_core_nrf52832_xxAA.a(transport.c.obj)
 .debug_loc     0x0001abde      0xf93 mesh/core/libmesh_core_nrf52832_xxAA.a(packet_buffer.c.obj)
 .debug_loc     0x0001bb71      0x8ee mesh/core/libmesh_core_nrf52832_xxAA.a(flash_manager_defrag.c.obj)
 .debug_loc     0x0001c45f      0x517 mesh/core/libmesh_core_nrf52832_xxAA.a(fifo.c.obj)
 .debug_loc     0x0001c976      0xa35 mesh/core/libmesh_core_nrf52832_xxAA.a(mesh_flash.c.obj)
 .debug_loc     0x0001d3ab      0x186 mesh/core/libmesh_core_nrf52832_xxAA.a(queue.c.obj)
 .debug_loc     0x0001d531      0x3f8 mesh/core/libmesh_core_nrf52832_xxAA.a(aes_cmac.c.obj)
 .debug_loc     0x0001d929      0x194 mesh/core/libmesh_core_nrf52832_xxAA.a(nrf_mesh_opt.c.obj)
 .debug_loc     0x0001dabd      0x3e5 mesh/core/libmesh_core_nrf52832_xxAA.a(msqueue.c.obj)
 .debug_loc     0x0001dea2      0x1c6 mesh/core/libmesh_core_nrf52832_xxAA.a(replay_cache.c.obj)
 .debug_loc     0x0001e068      0x17a mesh/core/libmesh_core_nrf52832_xxAA.a(nrf_flash.c.obj)
 .debug_loc     0x0001e1e2     0x1222 external/rtt/librtt_nrf52832_xxAA.a(SEGGER_RTT.c.obj)
 .debug_loc     0x0001f404      0x70f external/rtt/librtt_nrf52832_xxAA.a(SEGGER_RTT_printf.c.obj)
 .debug_loc     0x0001fb13     0x2449 external/micro-ecc/libuECC_nrf52832_xxAA.a(uECC.c.obj)

.debug_aranges  0x00000000     0x2120
 .debug_aranges
                0x00000000       0x60 examples/light_switch/client/CMakeFiles/light_switch_client_nrf52832_xxAA_s132_3.1.0.dir/src/main.c.obj
 .debug_aranges
                0x00000060       0x48 examples/light_switch/client/CMakeFiles/light_switch_client_nrf52832_xxAA_s132_3.1.0.dir/src/provisioner.c.obj
 .debug_aranges
                0x000000a8       0x80 examples/light_switch/client/CMakeFiles/light_switch_client_nrf52832_xxAA_s132_3.1.0.dir/__/__/nrf_mesh_sdk.c.obj
 .debug_aranges
                0x00000128       0x30 examples/light_switch/client/CMakeFiles/light_switch_client_nrf52832_xxAA_s132_3.1.0.dir/__/__/common/src/rtt_input.c.obj
 .debug_aranges
                0x00000158       0x50 examples/light_switch/client/CMakeFiles/light_switch_client_nrf52832_xxAA_s132_3.1.0.dir/__/__/common/src/simple_hal.c.obj
 .debug_aranges
                0x000001a8       0x28 examples/light_switch/client/CMakeFiles/light_switch_client_nrf52832_xxAA_s132_3.1.0.dir/__/__/nrf_mesh_weak.c.obj
 .debug_aranges
                0x000001d0       0x48 examples/light_switch/client/CMakeFiles/light_switch_client_nrf52832_xxAA_s132_3.1.0.dir/__/__/__/models/simple_on_off/src/simple_on_off_client.c.obj
 .debug_aranges
                0x00000218      0x188 examples/light_switch/client/CMakeFiles/light_switch_client_nrf52832_xxAA_s132_3.1.0.dir/__/__/__/models/config/src/config_client.c.obj
 .debug_aranges
                0x000003a0       0x80 examples/light_switch/client/CMakeFiles/light_switch_client_nrf52832_xxAA_s132_3.1.0.dir/__/__/__/models/health/src/health_client.c.obj
 .debug_aranges
                0x00000420       0x50 examples/light_switch/client/CMakeFiles/light_switch_client_nrf52832_xxAA_s132_3.1.0.dir/__/__/__/mesh/access/src/access_publish.c.obj
 .debug_aranges
                0x00000470      0x1b0 examples/light_switch/client/CMakeFiles/light_switch_client_nrf52832_xxAA_s132_3.1.0.dir/__/__/__/mesh/access/src/access.c.obj
 .debug_aranges
                0x00000620       0x50 examples/light_switch/client/CMakeFiles/light_switch_client_nrf52832_xxAA_s132_3.1.0.dir/__/__/__/mesh/access/src/access_reliable.c.obj
 .debug_aranges
                0x00000670      0x300 examples/light_switch/client/CMakeFiles/light_switch_client_nrf52832_xxAA_s132_3.1.0.dir/__/__/__/mesh/access/src/device_state_manager.c.obj
 .debug_aranges
                0x00000970       0x70 examples/light_switch/client/CMakeFiles/light_switch_client_nrf52832_xxAA_s132_3.1.0.dir/__/__/__/mesh/prov/src/prov_provisioner.c.obj
 .debug_aranges
                0x000009e0       0x78 examples/light_switch/client/CMakeFiles/light_switch_client_nrf52832_xxAA_s132_3.1.0.dir/__/__/__/mesh/prov/src/nrf_mesh_prov.c.obj
 .debug_aranges
                0x00000a58       0x80 examples/light_switch/client/CMakeFiles/light_switch_client_nrf52832_xxAA_s132_3.1.0.dir/__/__/__/mesh/prov/src/provisioning.c.obj
 .debug_aranges
                0x00000ad8       0x38 examples/light_switch/client/CMakeFiles/light_switch_client_nrf52832_xxAA_s132_3.1.0.dir/__/__/__/mesh/prov/src/prov_beacon.c.obj
 .debug_aranges
                0x00000b10       0x70 examples/light_switch/client/CMakeFiles/light_switch_client_nrf52832_xxAA_s132_3.1.0.dir/__/__/__/mesh/prov/src/prov_utils.c.obj
 .debug_aranges
                0x00000b80       0xc8 examples/light_switch/client/CMakeFiles/light_switch_client_nrf52832_xxAA_s132_3.1.0.dir/__/__/__/mesh/prov/src/prov_bearer_adv.c.obj
 .debug_aranges
                0x00000c48       0x38 examples/light_switch/client/CMakeFiles/light_switch_client_nrf52832_xxAA_s132_3.1.0.dir/__/__/__/external/nRF5_SDK_14.2.0_17b948a/components/toolchain/system_nrf52.c.obj
 .debug_aranges
                0x00000c80       0x30 mesh/core/libmesh_core_nrf52832_xxAA.a(nrf_mesh_configure.c.obj)
 .debug_aranges
                0x00000cb0       0x30 mesh/core/libmesh_core_nrf52832_xxAA.a(event.c.obj)
 .debug_aranges
                0x00000ce0       0x48 mesh/core/libmesh_core_nrf52832_xxAA.a(packet_mgr.c.obj)
 .debug_aranges
                0x00000d28       0xc8 mesh/core/libmesh_core_nrf52832_xxAA.a(net_state.c.obj)
 .debug_aranges
                0x00000df0       0x30 mesh/core/libmesh_core_nrf52832_xxAA.a(nrf_mesh_utils.c.obj)
 .debug_aranges
                0x00000e20       0x88 mesh/core/libmesh_core_nrf52832_xxAA.a(nrf_mesh.c.obj)
 .debug_aranges
                0x00000ea8       0x38 mesh/core/libmesh_core_nrf52832_xxAA.a(hal.c.obj)
 .debug_aranges
                0x00000ee0       0x68 mesh/core/libmesh_core_nrf52832_xxAA.a(timer_scheduler.c.obj)
 .debug_aranges
                0x00000f48       0x60 mesh/core/libmesh_core_nrf52832_xxAA.a(timer.c.obj)
 .debug_aranges
                0x00000fa8       0x30 mesh/core/libmesh_core_nrf52832_xxAA.a(ticker.c.obj)
 .debug_aranges
                0x00000fd8       0x40 mesh/core/libmesh_core_nrf52832_xxAA.a(rand.c.obj)
 .debug_aranges
                0x00001018       0xb8 mesh/core/libmesh_core_nrf52832_xxAA.a(timeslot.c.obj)
 .debug_aranges
                0x000010d0       0x98 mesh/core/libmesh_core_nrf52832_xxAA.a(bearer_event.c.obj)
 .debug_aranges
                0x00001168       0x70 mesh/core/libmesh_core_nrf52832_xxAA.a(enc.c.obj)
 .debug_aranges
                0x000011d8       0x60 mesh/core/libmesh_core_nrf52832_xxAA.a(network.c.obj)
 .debug_aranges
                0x00001238       0x40 mesh/core/libmesh_core_nrf52832_xxAA.a(nrf_mesh_keygen.c.obj)
 .debug_aranges
                0x00001278       0x48 mesh/core/libmesh_core_nrf52832_xxAA.a(list.c.obj)
 .debug_aranges
                0x000012c0       0x48 mesh/core/libmesh_core_nrf52832_xxAA.a(log.c.obj)
 .debug_aranges
                0x00001308      0x100 mesh/core/libmesh_core_nrf52832_xxAA.a(flash_manager.c.obj)
 .debug_aranges
                0x00001408       0x50 mesh/core/libmesh_core_nrf52832_xxAA.a(ccm_soft.c.obj)
 .debug_aranges
                0x00001458       0x38 mesh/core/libmesh_core_nrf52832_xxAA.a(beacon.c.obj)
 .debug_aranges
                0x00001490       0x20 mesh/core/libmesh_core_nrf52832_xxAA.a(flash_manager_internal.c.obj)
 .debug_aranges
                0x000014b0       0x58 mesh/core/libmesh_core_nrf52832_xxAA.a(core_tx.c.obj)
 .debug_aranges
                0x00001508       0x70 mesh/core/libmesh_core_nrf52832_xxAA.a(heartbeat.c.obj)
 .debug_aranges
                0x00001578       0x48 mesh/core/libmesh_core_nrf52832_xxAA.a(net_beacon.c.obj)
 .debug_aranges
                0x000015c0       0x68 mesh/core/libmesh_core_nrf52832_xxAA.a(core_tx_adv.c.obj)
 .debug_aranges
                0x00001628       0x30 mesh/core/libmesh_core_nrf52832_xxAA.a(ad_listener.c.obj)
 .debug_aranges
                0x00001658       0x58 mesh/core/libmesh_core_nrf52832_xxAA.a(ad_type_filter.c.obj)
 .debug_aranges
                0x000016b0       0xb0 mesh/core/libmesh_core_nrf52832_xxAA.a(advertiser.c.obj)
 .debug_aranges
                0x00001760       0x70 mesh/core/libmesh_core_nrf52832_xxAA.a(bearer_handler.c.obj)
 .debug_aranges
                0x000017d0       0x30 mesh/core/libmesh_core_nrf52832_xxAA.a(broadcast.c.obj)
 .debug_aranges
                0x00001800       0x38 mesh/core/libmesh_core_nrf52832_xxAA.a(filter_engine.c.obj)
 .debug_aranges
                0x00001838       0x40 mesh/core/libmesh_core_nrf52832_xxAA.a(radio_config.c.obj)
 .debug_aranges
                0x00001878       0xe0 mesh/core/libmesh_core_nrf52832_xxAA.a(scanner.c.obj)
 .debug_aranges
                0x00001958       0x30 mesh/core/libmesh_core_nrf52832_xxAA.a(internal_event.c.obj)
 .debug_aranges
                0x00001988       0x28 mesh/core/libmesh_core_nrf52832_xxAA.a(aes.c.obj)
 .debug_aranges
                0x000019b0       0x38 mesh/core/libmesh_core_nrf52832_xxAA.a(msg_cache.c.obj)
 .debug_aranges
                0x000019e8      0x120 mesh/core/libmesh_core_nrf52832_xxAA.a(transport.c.obj)
 .debug_aranges
                0x00001b08       0x80 mesh/core/libmesh_core_nrf52832_xxAA.a(packet_buffer.c.obj)
 .debug_aranges
                0x00001b88       0xc8 mesh/core/libmesh_core_nrf52832_xxAA.a(flash_manager_defrag.c.obj)
 .debug_aranges
                0x00001c50       0x60 mesh/core/libmesh_core_nrf52832_xxAA.a(fifo.c.obj)
 .debug_aranges
                0x00001cb0       0x60 mesh/core/libmesh_core_nrf52832_xxAA.a(mesh_flash.c.obj)
 .debug_aranges
                0x00001d10       0x38 mesh/core/libmesh_core_nrf52832_xxAA.a(queue.c.obj)
 .debug_aranges
                0x00001d48       0x38 mesh/core/libmesh_core_nrf52832_xxAA.a(aes_cmac.c.obj)
 .debug_aranges
                0x00001d80       0x28 mesh/core/libmesh_core_nrf52832_xxAA.a(nrf_mesh_opt.c.obj)
 .debug_aranges
                0x00001da8       0x48 mesh/core/libmesh_core_nrf52832_xxAA.a(msqueue.c.obj)
 .debug_aranges
                0x00001df0       0x48 mesh/core/libmesh_core_nrf52832_xxAA.a(replay_cache.c.obj)
 .debug_aranges
                0x00001e38       0x30 mesh/core/libmesh_core_nrf52832_xxAA.a(nrf_flash.c.obj)
 .debug_aranges
                0x00001e68       0xd8 external/rtt/librtt_nrf52832_xxAA.a(SEGGER_RTT.c.obj)
 .debug_aranges
                0x00001f40       0x38 external/rtt/librtt_nrf52832_xxAA.a(SEGGER_RTT_printf.c.obj)
 .debug_aranges
                0x00001f78      0x1a8 external/micro-ecc/libuECC_nrf52832_xxAA.a(uECC.c.obj)

.debug_ranges   0x00000000     0x8008
 .debug_ranges  0x00000000      0x348 examples/light_switch/client/CMakeFiles/light_switch_client_nrf52832_xxAA_s132_3.1.0.dir/src/main.c.obj
 .debug_ranges  0x00000348      0x318 examples/light_switch/client/CMakeFiles/light_switch_client_nrf52832_xxAA_s132_3.1.0.dir/src/provisioner.c.obj
 .debug_ranges  0x00000660      0x1a8 examples/light_switch/client/CMakeFiles/light_switch_client_nrf52832_xxAA_s132_3.1.0.dir/__/__/nrf_mesh_sdk.c.obj
 .debug_ranges  0x00000808       0x20 examples/light_switch/client/CMakeFiles/light_switch_client_nrf52832_xxAA_s132_3.1.0.dir/__/__/common/src/rtt_input.c.obj
 .debug_ranges  0x00000828       0xc8 examples/light_switch/client/CMakeFiles/light_switch_client_nrf52832_xxAA_s132_3.1.0.dir/__/__/common/src/simple_hal.c.obj
 .debug_ranges  0x000008f0       0x18 examples/light_switch/client/CMakeFiles/light_switch_client_nrf52832_xxAA_s132_3.1.0.dir/__/__/nrf_mesh_weak.c.obj
 .debug_ranges  0x00000908       0xb0 examples/light_switch/client/CMakeFiles/light_switch_client_nrf52832_xxAA_s132_3.1.0.dir/__/__/__/models/simple_on_off/src/simple_on_off_client.c.obj
 .debug_ranges  0x000009b8      0x450 examples/light_switch/client/CMakeFiles/light_switch_client_nrf52832_xxAA_s132_3.1.0.dir/__/__/__/models/config/src/config_client.c.obj
 .debug_ranges  0x00000e08       0xa0 examples/light_switch/client/CMakeFiles/light_switch_client_nrf52832_xxAA_s132_3.1.0.dir/__/__/__/models/health/src/health_client.c.obj
 .debug_ranges  0x00000ea8      0x178 examples/light_switch/client/CMakeFiles/light_switch_client_nrf52832_xxAA_s132_3.1.0.dir/__/__/__/mesh/access/src/access_publish.c.obj
 .debug_ranges  0x00001020      0x858 examples/light_switch/client/CMakeFiles/light_switch_client_nrf52832_xxAA_s132_3.1.0.dir/__/__/__/mesh/access/src/access.c.obj
 .debug_ranges  0x00001878      0x260 examples/light_switch/client/CMakeFiles/light_switch_client_nrf52832_xxAA_s132_3.1.0.dir/__/__/__/mesh/access/src/access_reliable.c.obj
 .debug_ranges  0x00001ad8      0xac8 examples/light_switch/client/CMakeFiles/light_switch_client_nrf52832_xxAA_s132_3.1.0.dir/__/__/__/mesh/access/src/device_state_manager.c.obj
 .debug_ranges  0x000025a0      0x128 examples/light_switch/client/CMakeFiles/light_switch_client_nrf52832_xxAA_s132_3.1.0.dir/__/__/__/mesh/prov/src/prov_provisioner.c.obj
 .debug_ranges  0x000026c8       0xb0 examples/light_switch/client/CMakeFiles/light_switch_client_nrf52832_xxAA_s132_3.1.0.dir/__/__/__/mesh/prov/src/nrf_mesh_prov.c.obj
 .debug_ranges  0x00002778       0xa0 examples/light_switch/client/CMakeFiles/light_switch_client_nrf52832_xxAA_s132_3.1.0.dir/__/__/__/mesh/prov/src/provisioning.c.obj
 .debug_ranges  0x00002818       0x88 examples/light_switch/client/CMakeFiles/light_switch_client_nrf52832_xxAA_s132_3.1.0.dir/__/__/__/mesh/prov/src/prov_beacon.c.obj
 .debug_ranges  0x000028a0       0xb8 examples/light_switch/client/CMakeFiles/light_switch_client_nrf52832_xxAA_s132_3.1.0.dir/__/__/__/mesh/prov/src/prov_utils.c.obj
 .debug_ranges  0x00002958      0x6c8 examples/light_switch/client/CMakeFiles/light_switch_client_nrf52832_xxAA_s132_3.1.0.dir/__/__/__/mesh/prov/src/prov_bearer_adv.c.obj
 .debug_ranges  0x00003020       0x28 examples/light_switch/client/CMakeFiles/light_switch_client_nrf52832_xxAA_s132_3.1.0.dir/__/__/__/external/nRF5_SDK_14.2.0_17b948a/components/toolchain/system_nrf52.c.obj
 .debug_ranges  0x00003048       0x20 mesh/core/libmesh_core_nrf52832_xxAA.a(nrf_mesh_configure.c.obj)
 .debug_ranges  0x00003068       0x68 mesh/core/libmesh_core_nrf52832_xxAA.a(event.c.obj)
 .debug_ranges  0x000030d0      0x160 mesh/core/libmesh_core_nrf52832_xxAA.a(packet_mgr.c.obj)
 .debug_ranges  0x00003230      0x238 mesh/core/libmesh_core_nrf52832_xxAA.a(net_state.c.obj)
 .debug_ranges  0x00003468       0x38 mesh/core/libmesh_core_nrf52832_xxAA.a(nrf_mesh_utils.c.obj)
 .debug_ranges  0x000034a0       0xf0 mesh/core/libmesh_core_nrf52832_xxAA.a(nrf_mesh.c.obj)
 .debug_ranges  0x00003590       0x28 mesh/core/libmesh_core_nrf52832_xxAA.a(hal.c.obj)
 .debug_ranges  0x000035b8      0x260 mesh/core/libmesh_core_nrf52832_xxAA.a(timer_scheduler.c.obj)
 .debug_ranges  0x00003818      0x108 mesh/core/libmesh_core_nrf52832_xxAA.a(timer.c.obj)
 .debug_ranges  0x00003920       0x20 mesh/core/libmesh_core_nrf52832_xxAA.a(ticker.c.obj)
 .debug_ranges  0x00003940       0x48 mesh/core/libmesh_core_nrf52832_xxAA.a(rand.c.obj)
 .debug_ranges  0x00003988      0x188 mesh/core/libmesh_core_nrf52832_xxAA.a(timeslot.c.obj)
 .debug_ranges  0x00003b10      0x250 mesh/core/libmesh_core_nrf52832_xxAA.a(bearer_event.c.obj)
 .debug_ranges  0x00003d60      0x120 mesh/core/libmesh_core_nrf52832_xxAA.a(enc.c.obj)
 .debug_ranges  0x00003e80      0x518 mesh/core/libmesh_core_nrf52832_xxAA.a(network.c.obj)
 .debug_ranges  0x00004398       0x30 mesh/core/libmesh_core_nrf52832_xxAA.a(nrf_mesh_keygen.c.obj)
 .debug_ranges  0x000043c8      0x1b0 mesh/core/libmesh_core_nrf52832_xxAA.a(list.c.obj)
 .debug_ranges  0x00004578       0x38 mesh/core/libmesh_core_nrf52832_xxAA.a(log.c.obj)
 .debug_ranges  0x000045b0      0x748 mesh/core/libmesh_core_nrf52832_xxAA.a(flash_manager.c.obj)
 .debug_ranges  0x00004cf8       0x40 mesh/core/libmesh_core_nrf52832_xxAA.a(ccm_soft.c.obj)
 .debug_ranges  0x00004d38       0xd0 mesh/core/libmesh_core_nrf52832_xxAA.a(beacon.c.obj)
 .debug_ranges  0x00004e08       0x68 mesh/core/libmesh_core_nrf52832_xxAA.a(flash_manager_internal.c.obj)
 .debug_ranges  0x00004e70      0x270 mesh/core/libmesh_core_nrf52832_xxAA.a(core_tx.c.obj)
 .debug_ranges  0x000050e0      0x240 mesh/core/libmesh_core_nrf52832_xxAA.a(heartbeat.c.obj)
 .debug_ranges  0x00005320       0xf0 mesh/core/libmesh_core_nrf52832_xxAA.a(net_beacon.c.obj)
 .debug_ranges  0x00005410       0xe8 mesh/core/libmesh_core_nrf52832_xxAA.a(core_tx_adv.c.obj)
 .debug_ranges  0x000054f8       0xf8 mesh/core/libmesh_core_nrf52832_xxAA.a(ad_listener.c.obj)
 .debug_ranges  0x000055f0       0xe8 mesh/core/libmesh_core_nrf52832_xxAA.a(ad_type_filter.c.obj)
 .debug_ranges  0x000056d8      0x4a8 mesh/core/libmesh_core_nrf52832_xxAA.a(advertiser.c.obj)
 .debug_ranges  0x00005b80      0x290 mesh/core/libmesh_core_nrf52832_xxAA.a(bearer_handler.c.obj)
 .debug_ranges  0x00005e10      0x130 mesh/core/libmesh_core_nrf52832_xxAA.a(broadcast.c.obj)
 .debug_ranges  0x00005f40       0x90 mesh/core/libmesh_core_nrf52832_xxAA.a(filter_engine.c.obj)
 .debug_ranges  0x00005fd0      0x100 mesh/core/libmesh_core_nrf52832_xxAA.a(radio_config.c.obj)
 .debug_ranges  0x000060d0      0x2c0 mesh/core/libmesh_core_nrf52832_xxAA.a(scanner.c.obj)
 .debug_ranges  0x00006390       0x20 mesh/core/libmesh_core_nrf52832_xxAA.a(internal_event.c.obj)
 .debug_ranges  0x000063b0       0x18 mesh/core/libmesh_core_nrf52832_xxAA.a(aes.c.obj)
 .debug_ranges  0x000063c8       0x48 mesh/core/libmesh_core_nrf52832_xxAA.a(msg_cache.c.obj)
 .debug_ranges  0x00006410      0x918 mesh/core/libmesh_core_nrf52832_xxAA.a(transport.c.obj)
 .debug_ranges  0x00006d28      0x3b8 mesh/core/libmesh_core_nrf52832_xxAA.a(packet_buffer.c.obj)
 .debug_ranges  0x000070e0      0x368 mesh/core/libmesh_core_nrf52832_xxAA.a(flash_manager_defrag.c.obj)
 .debug_ranges  0x00007448       0xb0 mesh/core/libmesh_core_nrf52832_xxAA.a(fifo.c.obj)
 .debug_ranges  0x000074f8      0x368 mesh/core/libmesh_core_nrf52832_xxAA.a(mesh_flash.c.obj)
 .debug_ranges  0x00007860       0xa0 mesh/core/libmesh_core_nrf52832_xxAA.a(queue.c.obj)
 .debug_ranges  0x00007900       0x98 mesh/core/libmesh_core_nrf52832_xxAA.a(aes_cmac.c.obj)
 .debug_ranges  0x00007998       0x18 mesh/core/libmesh_core_nrf52832_xxAA.a(nrf_mesh_opt.c.obj)
 .debug_ranges  0x000079b0      0x158 mesh/core/libmesh_core_nrf52832_xxAA.a(msqueue.c.obj)
 .debug_ranges  0x00007b08       0x68 mesh/core/libmesh_core_nrf52832_xxAA.a(replay_cache.c.obj)
 .debug_ranges  0x00007b70       0x38 mesh/core/libmesh_core_nrf52832_xxAA.a(nrf_flash.c.obj)
 .debug_ranges  0x00007ba8      0x130 external/rtt/librtt_nrf52832_xxAA.a(SEGGER_RTT.c.obj)
 .debug_ranges  0x00007cd8       0x48 external/rtt/librtt_nrf52832_xxAA.a(SEGGER_RTT_printf.c.obj)
 .debug_ranges  0x00007d20      0x2e8 external/micro-ecc/libuECC_nrf52832_xxAA.a(uECC.c.obj)

.debug_line     0x00000000    0x176a4
 .debug_line    0x00000000      0xa1e examples/light_switch/client/CMakeFiles/light_switch_client_nrf52832_xxAA_s132_3.1.0.dir/src/main.c.obj
 .debug_line    0x00000a1e      0xbba examples/light_switch/client/CMakeFiles/light_switch_client_nrf52832_xxAA_s132_3.1.0.dir/src/provisioner.c.obj
 .debug_line    0x000015d8      0x780 examples/light_switch/client/CMakeFiles/light_switch_client_nrf52832_xxAA_s132_3.1.0.dir/__/__/nrf_mesh_sdk.c.obj
 .debug_line    0x00001d58      0x2de examples/light_switch/client/CMakeFiles/light_switch_client_nrf52832_xxAA_s132_3.1.0.dir/__/__/common/src/rtt_input.c.obj
 .debug_line    0x00002036      0x41b examples/light_switch/client/CMakeFiles/light_switch_client_nrf52832_xxAA_s132_3.1.0.dir/__/__/common/src/simple_hal.c.obj
 .debug_line    0x00002451      0x225 examples/light_switch/client/CMakeFiles/light_switch_client_nrf52832_xxAA_s132_3.1.0.dir/__/__/nrf_mesh_weak.c.obj
 .debug_line    0x00002676      0x3ec examples/light_switch/client/CMakeFiles/light_switch_client_nrf52832_xxAA_s132_3.1.0.dir/__/__/__/models/simple_on_off/src/simple_on_off_client.c.obj
 .debug_line    0x00002a62      0xa96 examples/light_switch/client/CMakeFiles/light_switch_client_nrf52832_xxAA_s132_3.1.0.dir/__/__/__/models/config/src/config_client.c.obj
 .debug_line    0x000034f8      0x4a3 examples/light_switch/client/CMakeFiles/light_switch_client_nrf52832_xxAA_s132_3.1.0.dir/__/__/__/models/health/src/health_client.c.obj
 .debug_line    0x0000399b      0x449 examples/light_switch/client/CMakeFiles/light_switch_client_nrf52832_xxAA_s132_3.1.0.dir/__/__/__/mesh/access/src/access_publish.c.obj
 .debug_line    0x00003de4      0xeaa examples/light_switch/client/CMakeFiles/light_switch_client_nrf52832_xxAA_s132_3.1.0.dir/__/__/__/mesh/access/src/access.c.obj
 .debug_line    0x00004c8e      0x50d examples/light_switch/client/CMakeFiles/light_switch_client_nrf52832_xxAA_s132_3.1.0.dir/__/__/__/mesh/access/src/access_reliable.c.obj
 .debug_line    0x0000519b     0x142a examples/light_switch/client/CMakeFiles/light_switch_client_nrf52832_xxAA_s132_3.1.0.dir/__/__/__/mesh/access/src/device_state_manager.c.obj
 .debug_line    0x000065c5      0x576 examples/light_switch/client/CMakeFiles/light_switch_client_nrf52832_xxAA_s132_3.1.0.dir/__/__/__/mesh/prov/src/prov_provisioner.c.obj
 .debug_line    0x00006b3b      0x4e6 examples/light_switch/client/CMakeFiles/light_switch_client_nrf52832_xxAA_s132_3.1.0.dir/__/__/__/mesh/prov/src/nrf_mesh_prov.c.obj
 .debug_line    0x00007021      0x3de examples/light_switch/client/CMakeFiles/light_switch_client_nrf52832_xxAA_s132_3.1.0.dir/__/__/__/mesh/prov/src/provisioning.c.obj
 .debug_line    0x000073ff      0x48d examples/light_switch/client/CMakeFiles/light_switch_client_nrf52832_xxAA_s132_3.1.0.dir/__/__/__/mesh/prov/src/prov_beacon.c.obj
 .debug_line    0x0000788c      0x4a2 examples/light_switch/client/CMakeFiles/light_switch_client_nrf52832_xxAA_s132_3.1.0.dir/__/__/__/mesh/prov/src/prov_utils.c.obj
 .debug_line    0x00007d2e      0xc24 examples/light_switch/client/CMakeFiles/light_switch_client_nrf52832_xxAA_s132_3.1.0.dir/__/__/__/mesh/prov/src/prov_bearer_adv.c.obj
 .debug_line    0x00008952      0x27e examples/light_switch/client/CMakeFiles/light_switch_client_nrf52832_xxAA_s132_3.1.0.dir/__/__/__/external/nRF5_SDK_14.2.0_17b948a/components/toolchain/system_nrf52.c.obj
 .debug_line    0x00008bd0      0x263 mesh/core/libmesh_core_nrf52832_xxAA.a(nrf_mesh_configure.c.obj)
 .debug_line    0x00008e33      0x30b mesh/core/libmesh_core_nrf52832_xxAA.a(event.c.obj)
 .debug_line    0x0000913e      0x445 mesh/core/libmesh_core_nrf52832_xxAA.a(packet_mgr.c.obj)
 .debug_line    0x00009583      0x6c0 mesh/core/libmesh_core_nrf52832_xxAA.a(net_state.c.obj)
 .debug_line    0x00009c43      0x262 mesh/core/libmesh_core_nrf52832_xxAA.a(nrf_mesh_utils.c.obj)
 .debug_line    0x00009ea5      0x7b0 mesh/core/libmesh_core_nrf52832_xxAA.a(nrf_mesh.c.obj)
 .debug_line    0x0000a655      0x250 mesh/core/libmesh_core_nrf52832_xxAA.a(hal.c.obj)
 .debug_line    0x0000a8a5      0x4a3 mesh/core/libmesh_core_nrf52832_xxAA.a(timer_scheduler.c.obj)
 .debug_line    0x0000ad48      0x415 mesh/core/libmesh_core_nrf52832_xxAA.a(timer.c.obj)
 .debug_line    0x0000b15d      0x122 mesh/core/libmesh_core_nrf52832_xxAA.a(ticker.c.obj)
 .debug_line    0x0000b27f      0x28d mesh/core/libmesh_core_nrf52832_xxAA.a(rand.c.obj)
 .debug_line    0x0000b50c      0x5b6 mesh/core/libmesh_core_nrf52832_xxAA.a(timeslot.c.obj)
 .debug_line    0x0000bac2      0x608 mesh/core/libmesh_core_nrf52832_xxAA.a(bearer_event.c.obj)
 .debug_line    0x0000c0ca      0x45a mesh/core/libmesh_core_nrf52832_xxAA.a(enc.c.obj)
 .debug_line    0x0000c524      0x836 mesh/core/libmesh_core_nrf52832_xxAA.a(network.c.obj)
 .debug_line    0x0000cd5a      0x236 mesh/core/libmesh_core_nrf52832_xxAA.a(nrf_mesh_keygen.c.obj)
 .debug_line    0x0000cf90      0x373 mesh/core/libmesh_core_nrf52832_xxAA.a(list.c.obj)
 .debug_line    0x0000d303      0x284 mesh/core/libmesh_core_nrf52832_xxAA.a(log.c.obj)
 .debug_line    0x0000d587      0xa9a mesh/core/libmesh_core_nrf52832_xxAA.a(flash_manager.c.obj)
 .debug_line    0x0000e021      0x34b mesh/core/libmesh_core_nrf52832_xxAA.a(ccm_soft.c.obj)
 .debug_line    0x0000e36c      0x52d mesh/core/libmesh_core_nrf52832_xxAA.a(beacon.c.obj)
 .debug_line    0x0000e899      0x299 mesh/core/libmesh_core_nrf52832_xxAA.a(flash_manager_internal.c.obj)
 .debug_line    0x0000eb32      0x471 mesh/core/libmesh_core_nrf52832_xxAA.a(core_tx.c.obj)
 .debug_line    0x0000efa3      0x61c mesh/core/libmesh_core_nrf52832_xxAA.a(heartbeat.c.obj)
 .debug_line    0x0000f5bf      0x42b mesh/core/libmesh_core_nrf52832_xxAA.a(net_beacon.c.obj)
 .debug_line    0x0000f9ea      0x489 mesh/core/libmesh_core_nrf52832_xxAA.a(core_tx_adv.c.obj)
 .debug_line    0x0000fe73      0x352 mesh/core/libmesh_core_nrf52832_xxAA.a(ad_listener.c.obj)
 .debug_line    0x000101c5      0x403 mesh/core/libmesh_core_nrf52832_xxAA.a(ad_type_filter.c.obj)
 .debug_line    0x000105c8      0x81c mesh/core/libmesh_core_nrf52832_xxAA.a(advertiser.c.obj)
 .debug_line    0x00010de4      0x5c1 mesh/core/libmesh_core_nrf52832_xxAA.a(bearer_handler.c.obj)
 .debug_line    0x000113a5      0x3c8 mesh/core/libmesh_core_nrf52832_xxAA.a(broadcast.c.obj)
 .debug_line    0x0001176d      0x356 mesh/core/libmesh_core_nrf52832_xxAA.a(filter_engine.c.obj)
 .debug_line    0x00011ac3      0x320 mesh/core/libmesh_core_nrf52832_xxAA.a(radio_config.c.obj)
 .debug_line    0x00011de3      0x751 mesh/core/libmesh_core_nrf52832_xxAA.a(scanner.c.obj)
 .debug_line    0x00012534      0x2a2 mesh/core/libmesh_core_nrf52832_xxAA.a(internal_event.c.obj)
 .debug_line    0x000127d6      0x254 mesh/core/libmesh_core_nrf52832_xxAA.a(aes.c.obj)
 .debug_line    0x00012a2a      0x298 mesh/core/libmesh_core_nrf52832_xxAA.a(msg_cache.c.obj)
 .debug_line    0x00012cc2     0x1029 mesh/core/libmesh_core_nrf52832_xxAA.a(transport.c.obj)
 .debug_line    0x00013ceb      0x6ed mesh/core/libmesh_core_nrf52832_xxAA.a(packet_buffer.c.obj)
 .debug_line    0x000143d8      0x7e7 mesh/core/libmesh_core_nrf52832_xxAA.a(flash_manager_defrag.c.obj)
 .debug_line    0x00014bbf      0x3a6 mesh/core/libmesh_core_nrf52832_xxAA.a(fifo.c.obj)
 .debug_line    0x00014f65      0x5a9 mesh/core/libmesh_core_nrf52832_xxAA.a(mesh_flash.c.obj)
 .debug_line    0x0001550e      0x2d2 mesh/core/libmesh_core_nrf52832_xxAA.a(queue.c.obj)
 .debug_line    0x000157e0      0x2d4 mesh/core/libmesh_core_nrf52832_xxAA.a(aes_cmac.c.obj)
 .debug_line    0x00015ab4      0x291 mesh/core/libmesh_core_nrf52832_xxAA.a(nrf_mesh_opt.c.obj)
 .debug_line    0x00015d45      0x388 mesh/core/libmesh_core_nrf52832_xxAA.a(msqueue.c.obj)
 .debug_line    0x000160cd      0x1f1 mesh/core/libmesh_core_nrf52832_xxAA.a(replay_cache.c.obj)
 .debug_line    0x000162be      0x2a9 mesh/core/libmesh_core_nrf52832_xxAA.a(nrf_flash.c.obj)
 .debug_line    0x00016567      0x4c0 external/rtt/librtt_nrf52832_xxAA.a(SEGGER_RTT.c.obj)
 .debug_line    0x00016a27      0x282 external/rtt/librtt_nrf52832_xxAA.a(SEGGER_RTT_printf.c.obj)
 .debug_line    0x00016ca9      0x9fb external/micro-ecc/libuECC_nrf52832_xxAA.a(uECC.c.obj)

.debug_str      0x00000000    0x12a9c
 .debug_str     0x00000000     0x24d0 examples/light_switch/client/CMakeFiles/light_switch_client_nrf52832_xxAA_s132_3.1.0.dir/src/main.c.obj
                               0x280d (size before relaxing)
 .debug_str     0x000024d0     0x1e59 examples/light_switch/client/CMakeFiles/light_switch_client_nrf52832_xxAA_s132_3.1.0.dir/src/provisioner.c.obj
                               0x3b93 (size before relaxing)
 .debug_str     0x00004329     0x1545 examples/light_switch/client/CMakeFiles/light_switch_client_nrf52832_xxAA_s132_3.1.0.dir/__/__/nrf_mesh_sdk.c.obj
                               0x220e (size before relaxing)
 .debug_str     0x0000586e      0x183 examples/light_switch/client/CMakeFiles/light_switch_client_nrf52832_xxAA_s132_3.1.0.dir/__/__/common/src/rtt_input.c.obj
                                0xb69 (size before relaxing)
 .debug_str     0x000059f1      0x17e examples/light_switch/client/CMakeFiles/light_switch_client_nrf52832_xxAA_s132_3.1.0.dir/__/__/common/src/simple_hal.c.obj
                                0xc41 (size before relaxing)
 .debug_str     0x00005b6f       0x3c examples/light_switch/client/CMakeFiles/light_switch_client_nrf52832_xxAA_s132_3.1.0.dir/__/__/nrf_mesh_weak.c.obj
                                0x64d (size before relaxing)
 .debug_str     0x00005bab      0x36c examples/light_switch/client/CMakeFiles/light_switch_client_nrf52832_xxAA_s132_3.1.0.dir/__/__/__/models/simple_on_off/src/simple_on_off_client.c.obj
                                0xd1e (size before relaxing)
 .debug_str     0x00005f17      0xbb6 examples/light_switch/client/CMakeFiles/light_switch_client_nrf52832_xxAA_s132_3.1.0.dir/__/__/__/models/config/src/config_client.c.obj
                               0x2856 (size before relaxing)
 .debug_str     0x00006acd      0x411 examples/light_switch/client/CMakeFiles/light_switch_client_nrf52832_xxAA_s132_3.1.0.dir/__/__/__/models/health/src/health_client.c.obj
                               0x10d8 (size before relaxing)
 .debug_str     0x00006ede      0x328 examples/light_switch/client/CMakeFiles/light_switch_client_nrf52832_xxAA_s132_3.1.0.dir/__/__/__/mesh/access/src/access_publish.c.obj
                                0xbe6 (size before relaxing)
 .debug_str     0x00007206     0x1960 examples/light_switch/client/CMakeFiles/light_switch_client_nrf52832_xxAA_s132_3.1.0.dir/__/__/__/mesh/access/src/access.c.obj
                               0x2b46 (size before relaxing)
 .debug_str     0x00008b66      0x13c examples/light_switch/client/CMakeFiles/light_switch_client_nrf52832_xxAA_s132_3.1.0.dir/__/__/__/mesh/access/src/access_reliable.c.obj
                                0xcb4 (size before relaxing)
 .debug_str     0x00008ca2     0x1121 examples/light_switch/client/CMakeFiles/light_switch_client_nrf52832_xxAA_s132_3.1.0.dir/__/__/__/mesh/access/src/device_state_manager.c.obj
                               0x2e6b (size before relaxing)
 .debug_str     0x00009dc3      0x552 examples/light_switch/client/CMakeFiles/light_switch_client_nrf52832_xxAA_s132_3.1.0.dir/__/__/__/mesh/prov/src/prov_provisioner.c.obj
                               0x1e78 (size before relaxing)
 .debug_str     0x0000a315      0x1d0 examples/light_switch/client/CMakeFiles/light_switch_client_nrf52832_xxAA_s132_3.1.0.dir/__/__/__/mesh/prov/src/nrf_mesh_prov.c.obj
                               0x1c4e (size before relaxing)
 .debug_str     0x0000a4e5      0x10f examples/light_switch/client/CMakeFiles/light_switch_client_nrf52832_xxAA_s132_3.1.0.dir/__/__/__/mesh/prov/src/provisioning.c.obj
                                0xf45 (size before relaxing)
 .debug_str     0x0000a5f4      0x113 examples/light_switch/client/CMakeFiles/light_switch_client_nrf52832_xxAA_s132_3.1.0.dir/__/__/__/mesh/prov/src/prov_beacon.c.obj
                               0x188b (size before relaxing)
 .debug_str     0x0000a707      0x429 examples/light_switch/client/CMakeFiles/light_switch_client_nrf52832_xxAA_s132_3.1.0.dir/__/__/__/mesh/prov/src/prov_utils.c.obj
                               0x1e12 (size before relaxing)
 .debug_str     0x0000ab30      0x556 examples/light_switch/client/CMakeFiles/light_switch_client_nrf52832_xxAA_s132_3.1.0.dir/__/__/__/mesh/prov/src/prov_bearer_adv.c.obj
                               0x1b5a (size before relaxing)
 .debug_str     0x0000b086      0x4a3 examples/light_switch/client/CMakeFiles/light_switch_client_nrf52832_xxAA_s132_3.1.0.dir/__/__/__/external/nRF5_SDK_14.2.0_17b948a/components/toolchain/system_nrf52.c.obj
                                0x779 (size before relaxing)
 .debug_str     0x0000b529       0x75 mesh/core/libmesh_core_nrf52832_xxAA.a(nrf_mesh_configure.c.obj)
                                0x77e (size before relaxing)
 .debug_str     0x0000b59e       0x82 mesh/core/libmesh_core_nrf52832_xxAA.a(event.c.obj)
                               0x14d3 (size before relaxing)
 .debug_str     0x0000b620      0x25b mesh/core/libmesh_core_nrf52832_xxAA.a(packet_mgr.c.obj)
                                0x9cf (size before relaxing)
 .debug_str     0x0000b87b      0x38b mesh/core/libmesh_core_nrf52832_xxAA.a(net_state.c.obj)
                               0x1e6a (size before relaxing)
 .debug_str     0x0000bc06       0x8b mesh/core/libmesh_core_nrf52832_xxAA.a(nrf_mesh_utils.c.obj)
                                0x76b (size before relaxing)
 .debug_str     0x0000bc91      0x5a4 mesh/core/libmesh_core_nrf52832_xxAA.a(nrf_mesh.c.obj)
                               0x2a81 (size before relaxing)
 .debug_str     0x0000c235       0xa9 mesh/core/libmesh_core_nrf52832_xxAA.a(hal.c.obj)
                                0x752 (size before relaxing)
 .debug_str     0x0000c2de      0x14a mesh/core/libmesh_core_nrf52832_xxAA.a(timer_scheduler.c.obj)
                                0x94e (size before relaxing)
 .debug_str     0x0000c428      0x1e5 mesh/core/libmesh_core_nrf52832_xxAA.a(timer.c.obj)
                                0x883 (size before relaxing)
 .debug_str     0x0000c60d       0x3c mesh/core/libmesh_core_nrf52832_xxAA.a(ticker.c.obj)
                                0x34c (size before relaxing)
 .debug_str     0x0000c649       0xac mesh/core/libmesh_core_nrf52832_xxAA.a(rand.c.obj)
                                0x6cf (size before relaxing)
 .debug_str     0x0000c6f5      0x8ba mesh/core/libmesh_core_nrf52832_xxAA.a(timeslot.c.obj)
                               0x17e8 (size before relaxing)
 .debug_str     0x0000cfaf      0x2f7 mesh/core/libmesh_core_nrf52832_xxAA.a(bearer_event.c.obj)
                                0xed3 (size before relaxing)
 .debug_str     0x0000d2a6      0x1c1 mesh/core/libmesh_core_nrf52832_xxAA.a(enc.c.obj)
                                0x9d4 (size before relaxing)
 .debug_str     0x0000d467      0x9bc mesh/core/libmesh_core_nrf52832_xxAA.a(network.c.obj)
                               0x19c7 (size before relaxing)
 .debug_str     0x0000de23       0x4e mesh/core/libmesh_core_nrf52832_xxAA.a(nrf_mesh_keygen.c.obj)
                                0x397 (size before relaxing)
 .debug_str     0x0000de71       0x65 mesh/core/libmesh_core_nrf52832_xxAA.a(list.c.obj)
                                0x2d8 (size before relaxing)
 .debug_str     0x0000ded6       0xf0 mesh/core/libmesh_core_nrf52832_xxAA.a(log.c.obj)
                                0x7d0 (size before relaxing)
 .debug_str     0x0000dfc6      0x8c1 mesh/core/libmesh_core_nrf52832_xxAA.a(flash_manager.c.obj)
                               0x19d1 (size before relaxing)
 .debug_str     0x0000e887       0x85 mesh/core/libmesh_core_nrf52832_xxAA.a(ccm_soft.c.obj)
                                0x75d (size before relaxing)
 .debug_str     0x0000e90c       0xb2 mesh/core/libmesh_core_nrf52832_xxAA.a(beacon.c.obj)
                               0x1133 (size before relaxing)
 .debug_str     0x0000e9be       0x38 mesh/core/libmesh_core_nrf52832_xxAA.a(flash_manager_internal.c.obj)
                                0x7be (size before relaxing)
 .debug_str     0x0000e9f6      0x142 mesh/core/libmesh_core_nrf52832_xxAA.a(core_tx.c.obj)
                                0x8bd (size before relaxing)
 .debug_str     0x0000eb38      0x6f5 mesh/core/libmesh_core_nrf52832_xxAA.a(heartbeat.c.obj)
                               0x203b (size before relaxing)
 .debug_str     0x0000f22d      0x1d1 mesh/core/libmesh_core_nrf52832_xxAA.a(net_beacon.c.obj)
                                0xe84 (size before relaxing)
 .debug_str     0x0000f3fe      0x102 mesh/core/libmesh_core_nrf52832_xxAA.a(core_tx_adv.c.obj)
                               0x104b (size before relaxing)
 .debug_str     0x0000f500      0x182 mesh/core/libmesh_core_nrf52832_xxAA.a(ad_listener.c.obj)
                                0xb7f (size before relaxing)
 .debug_str     0x0000f682      0x14f mesh/core/libmesh_core_nrf52832_xxAA.a(ad_type_filter.c.obj)
                                0x9b9 (size before relaxing)
 .debug_str     0x0000f7d1      0x339 mesh/core/libmesh_core_nrf52832_xxAA.a(advertiser.c.obj)
                               0x150c (size before relaxing)
 .debug_str     0x0000fb0a      0x34d mesh/core/libmesh_core_nrf52832_xxAA.a(bearer_handler.c.obj)
                                0xf8f (size before relaxing)
 .debug_str     0x0000fe57      0x1ac mesh/core/libmesh_core_nrf52832_xxAA.a(broadcast.c.obj)
                                0xf32 (size before relaxing)
 .debug_str     0x00010003       0x72 mesh/core/libmesh_core_nrf52832_xxAA.a(filter_engine.c.obj)
                                0x826 (size before relaxing)
 .debug_str     0x00010075       0x79 mesh/core/libmesh_core_nrf52832_xxAA.a(radio_config.c.obj)
                                0x780 (size before relaxing)
 .debug_str     0x000100ee      0x45d mesh/core/libmesh_core_nrf52832_xxAA.a(scanner.c.obj)
                               0x18d8 (size before relaxing)
 .debug_str     0x0001054b       0xc0 mesh/core/libmesh_core_nrf52832_xxAA.a(internal_event.c.obj)
                                0xa93 (size before relaxing)
 .debug_str     0x0001060b       0xc1 mesh/core/libmesh_core_nrf52832_xxAA.a(aes.c.obj)
                                0xa61 (size before relaxing)
 .debug_str     0x000106cc       0x71 mesh/core/libmesh_core_nrf52832_xxAA.a(msg_cache.c.obj)
                                0x6ea (size before relaxing)
 .debug_str     0x0001073d      0xd41 mesh/core/libmesh_core_nrf52832_xxAA.a(transport.c.obj)
                               0x31ea (size before relaxing)
 .debug_str     0x0001147e      0x2cd mesh/core/libmesh_core_nrf52832_xxAA.a(packet_buffer.c.obj)
                                0xc2f (size before relaxing)
 .debug_str     0x0001174b      0x362 mesh/core/libmesh_core_nrf52832_xxAA.a(flash_manager_defrag.c.obj)
                               0x1528 (size before relaxing)
 .debug_str     0x00011aad       0x69 mesh/core/libmesh_core_nrf52832_xxAA.a(fifo.c.obj)
                                0x6f5 (size before relaxing)
 .debug_str     0x00011b16      0x343 mesh/core/libmesh_core_nrf52832_xxAA.a(mesh_flash.c.obj)
                                0xcf6 (size before relaxing)
 .debug_str     0x00011e59       0x19 mesh/core/libmesh_core_nrf52832_xxAA.a(queue.c.obj)
                                0x69d (size before relaxing)
 .debug_str     0x00011e72       0xb2 mesh/core/libmesh_core_nrf52832_xxAA.a(aes_cmac.c.obj)
                                0x715 (size before relaxing)
 .debug_str     0x00011f24       0x31 mesh/core/libmesh_core_nrf52832_xxAA.a(nrf_mesh_opt.c.obj)
                                0x921 (size before relaxing)
 .debug_str     0x00011f55       0x43 mesh/core/libmesh_core_nrf52832_xxAA.a(msqueue.c.obj)
                                0x6d9 (size before relaxing)
 .debug_str     0x00011f98       0x9f mesh/core/libmesh_core_nrf52832_xxAA.a(replay_cache.c.obj)
                                0x6b0 (size before relaxing)
 .debug_str     0x00012037       0x36 mesh/core/libmesh_core_nrf52832_xxAA.a(nrf_flash.c.obj)
                                0x6ec (size before relaxing)
 .debug_str     0x0001206d      0x2bf external/rtt/librtt_nrf52832_xxAA.a(SEGGER_RTT.c.obj)
                                0x922 (size before relaxing)
 .debug_str     0x0001232c       0xdf external/rtt/librtt_nrf52832_xxAA.a(SEGGER_RTT_printf.c.obj)
                                0x792 (size before relaxing)
 .debug_str     0x0001240b      0x691 external/micro-ecc/libuECC_nrf52832_xxAA.a(uECC.c.obj)
                                0x880 (size before relaxing)

.debug_frame    0x00000000     0x6784
 .debug_frame   0x00000000      0x160 examples/light_switch/client/CMakeFiles/light_switch_client_nrf52832_xxAA_s132_3.1.0.dir/src/main.c.obj
 .debug_frame   0x00000160       0xc8 examples/light_switch/client/CMakeFiles/light_switch_client_nrf52832_xxAA_s132_3.1.0.dir/src/provisioner.c.obj
 .debug_frame   0x00000228      0x180 examples/light_switch/client/CMakeFiles/light_switch_client_nrf52832_xxAA_s132_3.1.0.dir/__/__/nrf_mesh_sdk.c.obj
 .debug_frame   0x000003a8       0x54 examples/light_switch/client/CMakeFiles/light_switch_client_nrf52832_xxAA_s132_3.1.0.dir/__/__/common/src/rtt_input.c.obj
 .debug_frame   0x000003fc       0x9c examples/light_switch/client/CMakeFiles/light_switch_client_nrf52832_xxAA_s132_3.1.0.dir/__/__/common/src/simple_hal.c.obj
 .debug_frame   0x00000498       0x30 examples/light_switch/client/CMakeFiles/light_switch_client_nrf52832_xxAA_s132_3.1.0.dir/__/__/nrf_mesh_weak.c.obj
 .debug_frame   0x000004c8       0xe4 examples/light_switch/client/CMakeFiles/light_switch_client_nrf52832_xxAA_s132_3.1.0.dir/__/__/__/models/simple_on_off/src/simple_on_off_client.c.obj
 .debug_frame   0x000005ac      0x5d8 examples/light_switch/client/CMakeFiles/light_switch_client_nrf52832_xxAA_s132_3.1.0.dir/__/__/__/models/config/src/config_client.c.obj
 .debug_frame   0x00000b84      0x1a8 examples/light_switch/client/CMakeFiles/light_switch_client_nrf52832_xxAA_s132_3.1.0.dir/__/__/__/models/health/src/health_client.c.obj
 .debug_frame   0x00000d2c      0x114 examples/light_switch/client/CMakeFiles/light_switch_client_nrf52832_xxAA_s132_3.1.0.dir/__/__/__/mesh/access/src/access_publish.c.obj
 .debug_frame   0x00000e40      0x554 examples/light_switch/client/CMakeFiles/light_switch_client_nrf52832_xxAA_s132_3.1.0.dir/__/__/__/mesh/access/src/access.c.obj
 .debug_frame   0x00001394      0x110 examples/light_switch/client/CMakeFiles/light_switch_client_nrf52832_xxAA_s132_3.1.0.dir/__/__/__/mesh/access/src/access_reliable.c.obj
 .debug_frame   0x000014a4      0xa88 examples/light_switch/client/CMakeFiles/light_switch_client_nrf52832_xxAA_s132_3.1.0.dir/__/__/__/mesh/access/src/device_state_manager.c.obj
 .debug_frame   0x00001f2c      0x170 examples/light_switch/client/CMakeFiles/light_switch_client_nrf52832_xxAA_s132_3.1.0.dir/__/__/__/mesh/prov/src/prov_provisioner.c.obj
 .debug_frame   0x0000209c      0x134 examples/light_switch/client/CMakeFiles/light_switch_client_nrf52832_xxAA_s132_3.1.0.dir/__/__/__/mesh/prov/src/nrf_mesh_prov.c.obj
 .debug_frame   0x000021d0      0x174 examples/light_switch/client/CMakeFiles/light_switch_client_nrf52832_xxAA_s132_3.1.0.dir/__/__/__/mesh/prov/src/provisioning.c.obj
 .debug_frame   0x00002344       0x84 examples/light_switch/client/CMakeFiles/light_switch_client_nrf52832_xxAA_s132_3.1.0.dir/__/__/__/mesh/prov/src/prov_beacon.c.obj
 .debug_frame   0x000023c8      0x150 examples/light_switch/client/CMakeFiles/light_switch_client_nrf52832_xxAA_s132_3.1.0.dir/__/__/__/mesh/prov/src/prov_utils.c.obj
 .debug_frame   0x00002518      0x328 examples/light_switch/client/CMakeFiles/light_switch_client_nrf52832_xxAA_s132_3.1.0.dir/__/__/__/mesh/prov/src/prov_bearer_adv.c.obj
 .debug_frame   0x00002840       0x58 examples/light_switch/client/CMakeFiles/light_switch_client_nrf52832_xxAA_s132_3.1.0.dir/__/__/__/external/nRF5_SDK_14.2.0_17b948a/components/toolchain/system_nrf52.c.obj
 .debug_frame   0x00002898       0x4c mesh/core/libmesh_core_nrf52832_xxAA.a(nrf_mesh_configure.c.obj)
 .debug_frame   0x000028e4       0x6c mesh/core/libmesh_core_nrf52832_xxAA.a(event.c.obj)
 .debug_frame   0x00002950       0xa0 mesh/core/libmesh_core_nrf52832_xxAA.a(packet_mgr.c.obj)
 .debug_frame   0x000029f0      0x278 mesh/core/libmesh_core_nrf52832_xxAA.a(net_state.c.obj)
 .debug_frame   0x00002c68       0x50 mesh/core/libmesh_core_nrf52832_xxAA.a(nrf_mesh_utils.c.obj)
 .debug_frame   0x00002cb8      0x15c mesh/core/libmesh_core_nrf52832_xxAA.a(nrf_mesh.c.obj)
 .debug_frame   0x00002e14       0x58 mesh/core/libmesh_core_nrf52832_xxAA.a(hal.c.obj)
 .debug_frame   0x00002e6c      0x13c mesh/core/libmesh_core_nrf52832_xxAA.a(timer_scheduler.c.obj)
 .debug_frame   0x00002fa8      0x10c mesh/core/libmesh_core_nrf52832_xxAA.a(timer.c.obj)
 .debug_frame   0x000030b4       0x4c mesh/core/libmesh_core_nrf52832_xxAA.a(ticker.c.obj)
 .debug_frame   0x00003100       0x84 mesh/core/libmesh_core_nrf52832_xxAA.a(rand.c.obj)
 .debug_frame   0x00003184      0x1a0 mesh/core/libmesh_core_nrf52832_xxAA.a(timeslot.c.obj)
 .debug_frame   0x00003324      0x1c8 mesh/core/libmesh_core_nrf52832_xxAA.a(bearer_event.c.obj)
 .debug_frame   0x000034ec      0x150 mesh/core/libmesh_core_nrf52832_xxAA.a(enc.c.obj)
 .debug_frame   0x0000363c      0x14c mesh/core/libmesh_core_nrf52832_xxAA.a(network.c.obj)
 .debug_frame   0x00003788       0xb4 mesh/core/libmesh_core_nrf52832_xxAA.a(nrf_mesh_keygen.c.obj)
 .debug_frame   0x0000383c       0xd4 mesh/core/libmesh_core_nrf52832_xxAA.a(list.c.obj)
 .debug_frame   0x00003910       0xb0 mesh/core/libmesh_core_nrf52832_xxAA.a(log.c.obj)
 .debug_frame   0x000039c0      0x33c mesh/core/libmesh_core_nrf52832_xxAA.a(flash_manager.c.obj)
 .debug_frame   0x00003cfc      0x10c mesh/core/libmesh_core_nrf52832_xxAA.a(ccm_soft.c.obj)
 .debug_frame   0x00003e08       0x98 mesh/core/libmesh_core_nrf52832_xxAA.a(beacon.c.obj)
 .debug_frame   0x00003ea0       0x34 mesh/core/libmesh_core_nrf52832_xxAA.a(flash_manager_internal.c.obj)
 .debug_frame   0x00003ed4       0xe8 mesh/core/libmesh_core_nrf52832_xxAA.a(core_tx.c.obj)
 .debug_frame   0x00003fbc      0x164 mesh/core/libmesh_core_nrf52832_xxAA.a(heartbeat.c.obj)
 .debug_frame   0x00004120       0xd0 mesh/core/libmesh_core_nrf52832_xxAA.a(net_beacon.c.obj)
 .debug_frame   0x000041f0      0x128 mesh/core/libmesh_core_nrf52832_xxAA.a(core_tx_adv.c.obj)
 .debug_frame   0x00004318       0x6c mesh/core/libmesh_core_nrf52832_xxAA.a(ad_listener.c.obj)
 .debug_frame   0x00004384       0xa8 mesh/core/libmesh_core_nrf52832_xxAA.a(ad_type_filter.c.obj)
 .debug_frame   0x0000442c      0x284 mesh/core/libmesh_core_nrf52832_xxAA.a(advertiser.c.obj)
 .debug_frame   0x000046b0      0x160 mesh/core/libmesh_core_nrf52832_xxAA.a(bearer_handler.c.obj)
 .debug_frame   0x00004810       0x70 mesh/core/libmesh_core_nrf52832_xxAA.a(broadcast.c.obj)
 .debug_frame   0x00004880       0x7c mesh/core/libmesh_core_nrf52832_xxAA.a(filter_engine.c.obj)
 .debug_frame   0x000048fc       0x90 mesh/core/libmesh_core_nrf52832_xxAA.a(radio_config.c.obj)
 .debug_frame   0x0000498c      0x2a4 mesh/core/libmesh_core_nrf52832_xxAA.a(scanner.c.obj)
 .debug_frame   0x00004c30       0x48 mesh/core/libmesh_core_nrf52832_xxAA.a(internal_event.c.obj)
 .debug_frame   0x00004c78       0x40 mesh/core/libmesh_core_nrf52832_xxAA.a(aes.c.obj)
 .debug_frame   0x00004cb8       0x6c mesh/core/libmesh_core_nrf52832_xxAA.a(msg_cache.c.obj)
 .debug_frame   0x00004d24      0x44c mesh/core/libmesh_core_nrf52832_xxAA.a(transport.c.obj)
 .debug_frame   0x00005170      0x184 mesh/core/libmesh_core_nrf52832_xxAA.a(packet_buffer.c.obj)
 .debug_frame   0x000052f4      0x250 mesh/core/libmesh_core_nrf52832_xxAA.a(flash_manager_defrag.c.obj)
 .debug_frame   0x00005544       0xd0 mesh/core/libmesh_core_nrf52832_xxAA.a(fifo.c.obj)
 .debug_frame   0x00005614      0x150 mesh/core/libmesh_core_nrf52832_xxAA.a(mesh_flash.c.obj)
 .debug_frame   0x00005764       0x74 mesh/core/libmesh_core_nrf52832_xxAA.a(queue.c.obj)
 .debug_frame   0x000057d8       0xa4 mesh/core/libmesh_core_nrf52832_xxAA.a(aes_cmac.c.obj)
 .debug_frame   0x0000587c       0x30 mesh/core/libmesh_core_nrf52832_xxAA.a(nrf_mesh_opt.c.obj)
 .debug_frame   0x000058ac       0xb8 mesh/core/libmesh_core_nrf52832_xxAA.a(msqueue.c.obj)
 .debug_frame   0x00005964       0xa0 mesh/core/libmesh_core_nrf52832_xxAA.a(replay_cache.c.obj)
 .debug_frame   0x00005a04       0x54 mesh/core/libmesh_core_nrf52832_xxAA.a(nrf_flash.c.obj)
 .debug_frame   0x00005a58      0x2d8 external/rtt/librtt_nrf52832_xxAA.a(SEGGER_RTT.c.obj)
 .debug_frame   0x00005d30       0xac external/rtt/librtt_nrf52832_xxAA.a(SEGGER_RTT_printf.c.obj)
 .debug_frame   0x00005ddc      0x684 external/micro-ecc/libuECC_nrf52832_xxAA.a(uECC.c.obj)
 .debug_frame   0x00006460       0x2c c:/a/gcc_arm/6/bin/../lib/gcc/arm-none-eabi/6.3.1/thumb/v7e-m/fpv4-sp/hard\libgcc.a(_aeabi_uldivmod.o)
 .debug_frame   0x0000648c       0x34 c:/a/gcc_arm/6/bin/../lib/gcc/arm-none-eabi/6.3.1/thumb/v7e-m/fpv4-sp/hard\libgcc.a(_udivmoddi4.o)
 .debug_frame   0x000064c0       0x28 c:/a/gcc_arm/6/bin/../lib/gcc/arm-none-eabi/6.3.1/../../../../arm-none-eabi/lib/thumb/v7e-m/fpv4-sp/hard\libg_nano.a(lib_a-exit.o)
 .debug_frame   0x000064e8       0x2c c:/a/gcc_arm/6/bin/../lib/gcc/arm-none-eabi/6.3.1/../../../../arm-none-eabi/lib/thumb/v7e-m/fpv4-sp/hard\libg_nano.a(lib_a-init.o)
 .debug_frame   0x00006514       0x30 c:/a/gcc_arm/6/bin/../lib/gcc/arm-none-eabi/6.3.1/../../../../arm-none-eabi/lib/thumb/v7e-m/fpv4-sp/hard\libg_nano.a(lib_a-malloc.o)
 .debug_frame   0x00006544       0x28 c:/a/gcc_arm/6/bin/../lib/gcc/arm-none-eabi/6.3.1/../../../../arm-none-eabi/lib/thumb/v7e-m/fpv4-sp/hard\libg_nano.a(lib_a-memcmp.o)
 .debug_frame   0x0000656c       0x28 c:/a/gcc_arm/6/bin/../lib/gcc/arm-none-eabi/6.3.1/../../../../arm-none-eabi/lib/thumb/v7e-m/fpv4-sp/hard\libg_nano.a(lib_a-memcpy-stub.o)
 .debug_frame   0x00006594       0x20 c:/a/gcc_arm/6/bin/../lib/gcc/arm-none-eabi/6.3.1/../../../../arm-none-eabi/lib/thumb/v7e-m/fpv4-sp/hard\libg_nano.a(lib_a-memset.o)
 .debug_frame   0x000065b4       0x38 c:/a/gcc_arm/6/bin/../lib/gcc/arm-none-eabi/6.3.1/../../../../arm-none-eabi/lib/thumb/v7e-m/fpv4-sp/hard\libg_nano.a(lib_a-nano-freer.o)
 .debug_frame   0x000065ec       0x2c c:/a/gcc_arm/6/bin/../lib/gcc/arm-none-eabi/6.3.1/../../../../arm-none-eabi/lib/thumb/v7e-m/fpv4-sp/hard\libg_nano.a(lib_a-nano-mallocr.o)
 .debug_frame   0x00006618       0x2c c:/a/gcc_arm/6/bin/../lib/gcc/arm-none-eabi/6.3.1/../../../../arm-none-eabi/lib/thumb/v7e-m/fpv4-sp/hard\libg_nano.a(lib_a-sbrkr.o)
 .debug_frame   0x00006644       0x20 c:/a/gcc_arm/6/bin/../lib/gcc/arm-none-eabi/6.3.1/../../../../arm-none-eabi/lib/thumb/v7e-m/fpv4-sp/hard\libg_nano.a(lib_a-strcpy.o)
 .debug_frame   0x00006664       0x34 c:/a/gcc_arm/6/bin/../lib/gcc/arm-none-eabi/6.3.1/../../../../arm-none-eabi/lib/thumb/v7e-m/fpv4-sp/hard\libg_nano.a(lib_a-strrchr.o)
 .debug_frame   0x00006698       0x30 c:/a/gcc_arm/6/bin/../lib/gcc/arm-none-eabi/6.3.1/../../../../arm-none-eabi/lib/thumb/v7e-m/fpv4-sp/hard\libg_nano.a(lib_a-mlock.o)
 .debug_frame   0x000066c8       0x5c c:/a/gcc_arm/6/bin/../lib/gcc/arm-none-eabi/6.3.1/../../../../arm-none-eabi/lib/thumb/v7e-m/fpv4-sp/hard\libg_nano.a(lib_a-reent.o)
 .debug_frame   0x00006724       0x20 c:/a/gcc_arm/6/bin/../lib/gcc/arm-none-eabi/6.3.1/../../../../arm-none-eabi/lib/thumb/v7e-m/fpv4-sp/hard\libg_nano.a(lib_a-strchr.o)
 .debug_frame   0x00006744       0x20 c:/a/gcc_arm/6/bin/../lib/gcc/arm-none-eabi/6.3.1/../../../../arm-none-eabi/lib/thumb/v7e-m/fpv4-sp/hard\libnosys.a(sbrk.o)
 .debug_frame   0x00006764       0x20 c:/a/gcc_arm/6/bin/../lib/gcc/arm-none-eabi/6.3.1/../../../../arm-none-eabi/lib/thumb/v7e-m/fpv4-sp/hard\libnosys.a(_exit.o)
