Archive member included to satisfy reference by file (symbol)

mesh/core/libmesh_core_nrf52840_xxAA.a(nrf_mesh_configure.c.obj)
                              examples/light_switch/server/CMakeFiles/light_switch_server_nrf52840_xxAA_s140_5.0.0-3.alpha.dir/__/__/__/mesh/prov/src/prov_beacon.c.obj (nrf_mesh_configure_device_uuid_get)
mesh/core/libmesh_core_nrf52840_xxAA.a(event.c.obj)
                              examples/light_switch/server/CMakeFiles/light_switch_server_nrf52840_xxAA_s140_5.0.0-3.alpha.dir/__/__/__/mesh/access/src/access.c.obj (event_handle)
mesh/core/libmesh_core_nrf52840_xxAA.a(net_state.c.obj)
                              examples/light_switch/server/CMakeFiles/light_switch_server_nrf52840_xxAA_s140_5.0.0-3.alpha.dir/__/__/__/models/config/src/config_server.c.obj (net_state_reset)
mesh/core/libmesh_core_nrf52840_xxAA.a(nrf_mesh_utils.c.obj)
                              examples/light_switch/server/CMakeFiles/light_switch_server_nrf52840_xxAA_s140_5.0.0-3.alpha.dir/__/__/__/models/config/src/config_server.c.obj (nrf_mesh_address_type_get)
mesh/core/libmesh_core_nrf52840_xxAA.a(nrf_mesh.c.obj)
                              examples/light_switch/server/CMakeFiles/light_switch_server_nrf52840_xxAA_s140_5.0.0-3.alpha.dir/__/__/nrf_mesh_sdk.c.obj (nrf_mesh_init)
mesh/core/libmesh_core_nrf52840_xxAA.a(hal.c.obj)
                              examples/light_switch/server/CMakeFiles/light_switch_server_nrf52840_xxAA_s140_5.0.0-3.alpha.dir/__/__/__/mesh/access/src/nrf_mesh_node_config.c.obj (hal_device_reset)
mesh/core/libmesh_core_nrf52840_xxAA.a(timer_scheduler.c.obj)
                              mesh/core/libmesh_core_nrf52840_xxAA.a(nrf_mesh.c.obj) (timer_sch_init)
mesh/core/libmesh_core_nrf52840_xxAA.a(timer.c.obj)
                              mesh/core/libmesh_core_nrf52840_xxAA.a(timer_scheduler.c.obj) (timer_order_cb)
mesh/core/libmesh_core_nrf52840_xxAA.a(ticker.c.obj)
                              mesh/core/libmesh_core_nrf52840_xxAA.a(nrf_mesh.c.obj) (ticker_init)
mesh/core/libmesh_core_nrf52840_xxAA.a(rand.c.obj)
                              examples/light_switch/server/CMakeFiles/light_switch_server_nrf52840_xxAA_s140_5.0.0-3.alpha.dir/__/__/__/mesh/prov/src/prov_utils.c.obj (rand_hw_rng_get)
mesh/core/libmesh_core_nrf52840_xxAA.a(nrf_mesh_opt.c.obj)
                              examples/light_switch/server/CMakeFiles/light_switch_server_nrf52840_xxAA_s140_5.0.0-3.alpha.dir/__/__/__/models/config/src/config_server.c.obj (nrf_mesh_opt_set)
mesh/core/libmesh_core_nrf52840_xxAA.a(timeslot.c.obj)
                              mesh/core/libmesh_core_nrf52840_xxAA.a(nrf_mesh.c.obj) (timeslot_sd_event_handler)
mesh/core/libmesh_core_nrf52840_xxAA.a(bearer_event.c.obj)
                              mesh/core/libmesh_core_nrf52840_xxAA.a(nrf_mesh.c.obj) (bearer_event_init)
mesh/core/libmesh_core_nrf52840_xxAA.a(enc.c.obj)
                              examples/light_switch/server/CMakeFiles/light_switch_server_nrf52840_xxAA_s140_5.0.0-3.alpha.dir/__/__/__/mesh/prov/src/prov_utils.c.obj (enc_aes_cmac)
mesh/core/libmesh_core_nrf52840_xxAA.a(network.c.obj)
                              mesh/core/libmesh_core_nrf52840_xxAA.a(nrf_mesh.c.obj) (network_init)
mesh/core/libmesh_core_nrf52840_xxAA.a(nrf_mesh_keygen.c.obj)
                              examples/light_switch/server/CMakeFiles/light_switch_server_nrf52840_xxAA_s140_5.0.0-3.alpha.dir/__/__/__/mesh/access/src/device_state_manager.c.obj (nrf_mesh_keygen_aid)
mesh/core/libmesh_core_nrf52840_xxAA.a(list.c.obj)
                              mesh/core/libmesh_core_nrf52840_xxAA.a(event.c.obj) (list_add)
mesh/core/libmesh_core_nrf52840_xxAA.a(log.c.obj)
                              examples/light_switch/server/CMakeFiles/light_switch_server_nrf52840_xxAA_s140_5.0.0-3.alpha.dir/src/main.c.obj (log_callback_rtt)
mesh/core/libmesh_core_nrf52840_xxAA.a(flash_manager.c.obj)
                              mesh/core/libmesh_core_nrf52840_xxAA.a(nrf_mesh.c.obj) (flash_manager_init)
mesh/core/libmesh_core_nrf52840_xxAA.a(ccm_soft.c.obj)
                              mesh/core/libmesh_core_nrf52840_xxAA.a(enc.c.obj) (ccm_soft_encrypt)
mesh/core/libmesh_core_nrf52840_xxAA.a(beacon.c.obj)
                              mesh/core/libmesh_core_nrf52840_xxAA.a(nrf_mesh.c.obj) (beacon_init)
mesh/core/libmesh_core_nrf52840_xxAA.a(flash_manager_internal.c.obj)
                              mesh/core/libmesh_core_nrf52840_xxAA.a(flash_manager.c.obj) (entry_get)
mesh/core/libmesh_core_nrf52840_xxAA.a(core_tx.c.obj)
                              mesh/core/libmesh_core_nrf52840_xxAA.a(network.c.obj) (core_tx_packet_alloc)
mesh/core/libmesh_core_nrf52840_xxAA.a(heartbeat.c.obj)
                              mesh/core/libmesh_core_nrf52840_xxAA.a(network.c.obj) (heartbeat_on_feature_change_trigger)
mesh/core/libmesh_core_nrf52840_xxAA.a(net_beacon.c.obj)
                              mesh/core/libmesh_core_nrf52840_xxAA.a(network.c.obj) (net_beacon_init)
mesh/core/libmesh_core_nrf52840_xxAA.a(core_tx_adv.c.obj)
                              mesh/core/libmesh_core_nrf52840_xxAA.a(nrf_mesh.c.obj) (core_tx_adv_init)
mesh/core/libmesh_core_nrf52840_xxAA.a(ad_listener.c.obj)
                              mesh/core/libmesh_core_nrf52840_xxAA.a(nrf_mesh.c.obj) (ad_listener_subscribe)
mesh/core/libmesh_core_nrf52840_xxAA.a(ad_type_filter.c.obj)
                              mesh/core/libmesh_core_nrf52840_xxAA.a(ad_listener.c.obj) (bearer_adtype_filtering_set)
mesh/core/libmesh_core_nrf52840_xxAA.a(advertiser.c.obj)
                              mesh/core/libmesh_core_nrf52840_xxAA.a(nrf_mesh.c.obj) (advertiser_init)
mesh/core/libmesh_core_nrf52840_xxAA.a(bearer_handler.c.obj)
                              mesh/core/libmesh_core_nrf52840_xxAA.a(nrf_mesh.c.obj) (bearer_handler_init)
mesh/core/libmesh_core_nrf52840_xxAA.a(broadcast.c.obj)
                              mesh/core/libmesh_core_nrf52840_xxAA.a(advertiser.c.obj) (broadcast_send)
mesh/core/libmesh_core_nrf52840_xxAA.a(filter_engine.c.obj)
                              mesh/core/libmesh_core_nrf52840_xxAA.a(ad_type_filter.c.obj) (fen_filter_start)
mesh/core/libmesh_core_nrf52840_xxAA.a(radio_config.c.obj)
                              mesh/core/libmesh_core_nrf52840_xxAA.a(broadcast.c.obj) (radio_config_reset)
mesh/core/libmesh_core_nrf52840_xxAA.a(scanner.c.obj)
                              mesh/core/libmesh_core_nrf52840_xxAA.a(bearer_handler.c.obj) (scanner_radio_start)
mesh/core/libmesh_core_nrf52840_xxAA.a(internal_event.c.obj)
                              mesh/core/libmesh_core_nrf52840_xxAA.a(network.c.obj) (internal_event_push)
mesh/core/libmesh_core_nrf52840_xxAA.a(aes.c.obj)
                              mesh/core/libmesh_core_nrf52840_xxAA.a(enc.c.obj) (aes_encrypt)
mesh/core/libmesh_core_nrf52840_xxAA.a(msg_cache.c.obj)
                              mesh/core/libmesh_core_nrf52840_xxAA.a(nrf_mesh.c.obj) (msg_cache_init)
mesh/core/libmesh_core_nrf52840_xxAA.a(transport.c.obj)
                              mesh/core/libmesh_core_nrf52840_xxAA.a(nrf_mesh.c.obj) (transport_init)
mesh/core/libmesh_core_nrf52840_xxAA.a(packet_buffer.c.obj)
                              mesh/core/libmesh_core_nrf52840_xxAA.a(flash_manager.c.obj) (packet_buffer_init)
mesh/core/libmesh_core_nrf52840_xxAA.a(flash_manager_defrag.c.obj)
                              mesh/core/libmesh_core_nrf52840_xxAA.a(flash_manager.c.obj) (flash_manager_defrag_init)
mesh/core/libmesh_core_nrf52840_xxAA.a(fifo.c.obj)
                              mesh/core/libmesh_core_nrf52840_xxAA.a(bearer_event.c.obj) (fifo_init)
mesh/core/libmesh_core_nrf52840_xxAA.a(packet_mgr.c.obj)
                              mesh/core/libmesh_core_nrf52840_xxAA.a(nrf_mesh.c.obj) (packet_mgr_init)
mesh/core/libmesh_core_nrf52840_xxAA.a(mesh_flash.c.obj)
                              mesh/core/libmesh_core_nrf52840_xxAA.a(flash_manager.c.obj) (mesh_flash_user_callback_set)
mesh/core/libmesh_core_nrf52840_xxAA.a(queue.c.obj)
                              mesh/core/libmesh_core_nrf52840_xxAA.a(bearer_event.c.obj) (queue_init)
mesh/core/libmesh_core_nrf52840_xxAA.a(aes_cmac.c.obj)
                              mesh/core/libmesh_core_nrf52840_xxAA.a(enc.c.obj) (aes_cmac)
mesh/core/libmesh_core_nrf52840_xxAA.a(msqueue.c.obj)
                              mesh/core/libmesh_core_nrf52840_xxAA.a(mesh_flash.c.obj) (msq_get)
mesh/core/libmesh_core_nrf52840_xxAA.a(replay_cache.c.obj)
                              mesh/core/libmesh_core_nrf52840_xxAA.a(transport.c.obj) (replay_cache_add)
mesh/core/libmesh_core_nrf52840_xxAA.a(nrf_flash.c.obj)
                              mesh/core/libmesh_core_nrf52840_xxAA.a(mesh_flash.c.obj) (nrf_flash_erase)
external/rtt/librtt_nrf52840_xxAA.a(SEGGER_RTT.c.obj)
                              mesh/core/libmesh_core_nrf52840_xxAA.a(log.c.obj) (SEGGER_RTT_Write)
external/rtt/librtt_nrf52840_xxAA.a(SEGGER_RTT_printf.c.obj)
                              mesh/core/libmesh_core_nrf52840_xxAA.a(log.c.obj) (SEGGER_RTT_vprintf)
external/micro-ecc/libuECC_nrf52840_xxAA.a(uECC.c.obj)
                              examples/light_switch/server/CMakeFiles/light_switch_server_nrf52840_xxAA_s140_5.0.0-3.alpha.dir/__/__/__/mesh/prov/src/prov_utils.c.obj (uECC_secp256r1)
c:/a/gcc_arm/6/bin/../lib/gcc/arm-none-eabi/6.3.1/../../../../arm-none-eabi/lib/thumb/v7e-m/fpv4-sp/hard\libg_nano.a(lib_a-exit.o)
                              c:/a/gcc_arm/6/bin/../lib/gcc/arm-none-eabi/6.3.1/../../../../arm-none-eabi/lib/thumb/v7e-m/fpv4-sp/hard/crt0.o (exit)
c:/a/gcc_arm/6/bin/../lib/gcc/arm-none-eabi/6.3.1/../../../../arm-none-eabi/lib/thumb/v7e-m/fpv4-sp/hard\libg_nano.a(lib_a-impure.o)
                              c:/a/gcc_arm/6/bin/../lib/gcc/arm-none-eabi/6.3.1/../../../../arm-none-eabi/lib/thumb/v7e-m/fpv4-sp/hard\libg_nano.a(lib_a-exit.o) (_global_impure_ptr)
c:/a/gcc_arm/6/bin/../lib/gcc/arm-none-eabi/6.3.1/../../../../arm-none-eabi/lib/thumb/v7e-m/fpv4-sp/hard\libg_nano.a(lib_a-init.o)
                              c:/a/gcc_arm/6/bin/../lib/gcc/arm-none-eabi/6.3.1/../../../../arm-none-eabi/lib/thumb/v7e-m/fpv4-sp/hard/crt0.o (__libc_init_array)
c:/a/gcc_arm/6/bin/../lib/gcc/arm-none-eabi/6.3.1/../../../../arm-none-eabi/lib/thumb/v7e-m/fpv4-sp/hard\libg_nano.a(lib_a-malloc.o)
                              mesh/core/libmesh_core_nrf52840_xxAA.a(transport.c.obj) (malloc)
c:/a/gcc_arm/6/bin/../lib/gcc/arm-none-eabi/6.3.1/../../../../arm-none-eabi/lib/thumb/v7e-m/fpv4-sp/hard\libg_nano.a(lib_a-memcmp.o)
                              examples/light_switch/server/CMakeFiles/light_switch_server_nrf52840_xxAA_s140_5.0.0-3.alpha.dir/__/__/__/mesh/access/src/device_state_manager.c.obj (memcmp)
c:/a/gcc_arm/6/bin/../lib/gcc/arm-none-eabi/6.3.1/../../../../arm-none-eabi/lib/thumb/v7e-m/fpv4-sp/hard\libg_nano.a(lib_a-memcpy-stub.o)
                              examples/light_switch/server/CMakeFiles/light_switch_server_nrf52840_xxAA_s140_5.0.0-3.alpha.dir/__/__/__/models/config/src/composition_data.c.obj (memcpy)
c:/a/gcc_arm/6/bin/../lib/gcc/arm-none-eabi/6.3.1/../../../../arm-none-eabi/lib/thumb/v7e-m/fpv4-sp/hard\libg_nano.a(lib_a-memset.o)
                              c:/a/gcc_arm/6/bin/../lib/gcc/arm-none-eabi/6.3.1/../../../../arm-none-eabi/lib/thumb/v7e-m/fpv4-sp/hard/crt0.o (memset)
c:/a/gcc_arm/6/bin/../lib/gcc/arm-none-eabi/6.3.1/../../../../arm-none-eabi/lib/thumb/v7e-m/fpv4-sp/hard\libg_nano.a(lib_a-nano-freer.o)
                              c:/a/gcc_arm/6/bin/../lib/gcc/arm-none-eabi/6.3.1/../../../../arm-none-eabi/lib/thumb/v7e-m/fpv4-sp/hard\libg_nano.a(lib_a-malloc.o) (_free_r)
c:/a/gcc_arm/6/bin/../lib/gcc/arm-none-eabi/6.3.1/../../../../arm-none-eabi/lib/thumb/v7e-m/fpv4-sp/hard\libg_nano.a(lib_a-nano-mallocr.o)
                              c:/a/gcc_arm/6/bin/../lib/gcc/arm-none-eabi/6.3.1/../../../../arm-none-eabi/lib/thumb/v7e-m/fpv4-sp/hard\libg_nano.a(lib_a-malloc.o) (_malloc_r)
c:/a/gcc_arm/6/bin/../lib/gcc/arm-none-eabi/6.3.1/../../../../arm-none-eabi/lib/thumb/v7e-m/fpv4-sp/hard\libg_nano.a(lib_a-sbrkr.o)
                              c:/a/gcc_arm/6/bin/../lib/gcc/arm-none-eabi/6.3.1/../../../../arm-none-eabi/lib/thumb/v7e-m/fpv4-sp/hard\libg_nano.a(lib_a-nano-mallocr.o) (_sbrk_r)
c:/a/gcc_arm/6/bin/../lib/gcc/arm-none-eabi/6.3.1/../../../../arm-none-eabi/lib/thumb/v7e-m/fpv4-sp/hard\libg_nano.a(lib_a-strcpy.o)
                              external/rtt/librtt_nrf52840_xxAA.a(SEGGER_RTT.c.obj) (strcpy)
c:/a/gcc_arm/6/bin/../lib/gcc/arm-none-eabi/6.3.1/../../../../arm-none-eabi/lib/thumb/v7e-m/fpv4-sp/hard\libg_nano.a(lib_a-strlen.o)
                              examples/light_switch/server/CMakeFiles/light_switch_server_nrf52840_xxAA_s140_5.0.0-3.alpha.dir/__/__/__/mesh/prov/src/prov_beacon.c.obj (strlen)
c:/a/gcc_arm/6/bin/../lib/gcc/arm-none-eabi/6.3.1/../../../../arm-none-eabi/lib/thumb/v7e-m/fpv4-sp/hard\libg_nano.a(lib_a-strrchr.o)
                              examples/light_switch/server/CMakeFiles/light_switch_server_nrf52840_xxAA_s140_5.0.0-3.alpha.dir/src/main.c.obj (strrchr)
c:/a/gcc_arm/6/bin/../lib/gcc/arm-none-eabi/6.3.1/../../../../arm-none-eabi/lib/thumb/v7e-m/fpv4-sp/hard\libg_nano.a(lib_a-mlock.o)
                              c:/a/gcc_arm/6/bin/../lib/gcc/arm-none-eabi/6.3.1/../../../../arm-none-eabi/lib/thumb/v7e-m/fpv4-sp/hard\libg_nano.a(lib_a-nano-freer.o) (__malloc_lock)
c:/a/gcc_arm/6/bin/../lib/gcc/arm-none-eabi/6.3.1/../../../../arm-none-eabi/lib/thumb/v7e-m/fpv4-sp/hard\libg_nano.a(lib_a-reent.o)
                              c:/a/gcc_arm/6/bin/../lib/gcc/arm-none-eabi/6.3.1/../../../../arm-none-eabi/lib/thumb/v7e-m/fpv4-sp/hard\libg_nano.a(lib_a-sbrkr.o) (errno)
c:/a/gcc_arm/6/bin/../lib/gcc/arm-none-eabi/6.3.1/../../../../arm-none-eabi/lib/thumb/v7e-m/fpv4-sp/hard\libg_nano.a(lib_a-strchr.o)
                              c:/a/gcc_arm/6/bin/../lib/gcc/arm-none-eabi/6.3.1/../../../../arm-none-eabi/lib/thumb/v7e-m/fpv4-sp/hard\libg_nano.a(lib_a-strrchr.o) (strchr)
c:/a/gcc_arm/6/bin/../lib/gcc/arm-none-eabi/6.3.1/../../../../arm-none-eabi/lib/thumb/v7e-m/fpv4-sp/hard\libnosys.a(sbrk.o)
                              c:/a/gcc_arm/6/bin/../lib/gcc/arm-none-eabi/6.3.1/../../../../arm-none-eabi/lib/thumb/v7e-m/fpv4-sp/hard\libg_nano.a(lib_a-sbrkr.o) (_sbrk)
c:/a/gcc_arm/6/bin/../lib/gcc/arm-none-eabi/6.3.1/../../../../arm-none-eabi/lib/thumb/v7e-m/fpv4-sp/hard\libnosys.a(_exit.o)
                              c:/a/gcc_arm/6/bin/../lib/gcc/arm-none-eabi/6.3.1/../../../../arm-none-eabi/lib/thumb/v7e-m/fpv4-sp/hard\libg_nano.a(lib_a-exit.o) (_exit)

Allocating common symbols
Common symbol       size              file

nrf_nvic_state      0xc               examples/light_switch/server/CMakeFiles/light_switch_server_nrf52840_xxAA_s140_5.0.0-3.alpha.dir/__/__/nrf_mesh_sdk.c.obj
errno               0x4               c:/a/gcc_arm/6/bin/../lib/gcc/arm-none-eabi/6.3.1/../../../../arm-none-eabi/lib/thumb/v7e-m/fpv4-sp/hard\libg_nano.a(lib_a-reent.o)
m_assertion_handler
                    0x4               mesh/core/libmesh_core_nrf52840_xxAA.a(nrf_mesh.c.obj)
_SEGGER_RTT         0x78              external/rtt/librtt_nrf52840_xxAA.a(SEGGER_RTT.c.obj)

Discarded input sections

 .text          0x00000000        0x0 c:/a/gcc_arm/6/bin/../lib/gcc/arm-none-eabi/6.3.1/thumb/v7e-m/fpv4-sp/hard/crti.o
 .data          0x00000000        0x0 c:/a/gcc_arm/6/bin/../lib/gcc/arm-none-eabi/6.3.1/thumb/v7e-m/fpv4-sp/hard/crti.o
 .bss           0x00000000        0x0 c:/a/gcc_arm/6/bin/../lib/gcc/arm-none-eabi/6.3.1/thumb/v7e-m/fpv4-sp/hard/crti.o
 .data          0x00000000        0x4 c:/a/gcc_arm/6/bin/../lib/gcc/arm-none-eabi/6.3.1/thumb/v7e-m/fpv4-sp/hard/crtbegin.o
 .data          0x00000000        0x0 c:/a/gcc_arm/6/bin/../lib/gcc/arm-none-eabi/6.3.1/../../../../arm-none-eabi/lib/thumb/v7e-m/fpv4-sp/hard/crt0.o
 .bss           0x00000000        0x0 c:/a/gcc_arm/6/bin/../lib/gcc/arm-none-eabi/6.3.1/../../../../arm-none-eabi/lib/thumb/v7e-m/fpv4-sp/hard/crt0.o
 .ARM.extab     0x00000000        0x0 c:/a/gcc_arm/6/bin/../lib/gcc/arm-none-eabi/6.3.1/../../../../arm-none-eabi/lib/thumb/v7e-m/fpv4-sp/hard/crt0.o
 .text          0x00000000        0x0 examples/light_switch/server/CMakeFiles/light_switch_server_nrf52840_xxAA_s140_5.0.0-3.alpha.dir/src/main.c.obj
 .data          0x00000000        0x0 examples/light_switch/server/CMakeFiles/light_switch_server_nrf52840_xxAA_s140_5.0.0-3.alpha.dir/src/main.c.obj
 .bss           0x00000000        0x0 examples/light_switch/server/CMakeFiles/light_switch_server_nrf52840_xxAA_s140_5.0.0-3.alpha.dir/src/main.c.obj
 .text          0x00000000        0x0 examples/light_switch/server/CMakeFiles/light_switch_server_nrf52840_xxAA_s140_5.0.0-3.alpha.dir/__/__/nrf_mesh_sdk.c.obj
 .data          0x00000000        0x0 examples/light_switch/server/CMakeFiles/light_switch_server_nrf52840_xxAA_s140_5.0.0-3.alpha.dir/__/__/nrf_mesh_sdk.c.obj
 .bss           0x00000000        0x0 examples/light_switch/server/CMakeFiles/light_switch_server_nrf52840_xxAA_s140_5.0.0-3.alpha.dir/__/__/nrf_mesh_sdk.c.obj
 .text.sd_softdevice_enable
                0x00000000        0x4 examples/light_switch/server/CMakeFiles/light_switch_server_nrf52840_xxAA_s140_5.0.0-3.alpha.dir/__/__/nrf_mesh_sdk.c.obj
 .text.sd_ble_enable
                0x00000000        0x4 examples/light_switch/server/CMakeFiles/light_switch_server_nrf52840_xxAA_s140_5.0.0-3.alpha.dir/__/__/nrf_mesh_sdk.c.obj
 .text.mesh_assert_handler
                0x00000000       0x70 examples/light_switch/server/CMakeFiles/light_switch_server_nrf52840_xxAA_s140_5.0.0-3.alpha.dir/__/__/nrf_mesh_sdk.c.obj
 .text.softdevice_assert_handler
                0x00000000       0x78 examples/light_switch/server/CMakeFiles/light_switch_server_nrf52840_xxAA_s140_5.0.0-3.alpha.dir/__/__/nrf_mesh_sdk.c.obj
 .text.mesh_softdevice_enable
                0x00000000      0x124 examples/light_switch/server/CMakeFiles/light_switch_server_nrf52840_xxAA_s140_5.0.0-3.alpha.dir/__/__/nrf_mesh_sdk.c.obj
 .text.mesh_softdevice_setup
                0x00000000       0x78 examples/light_switch/server/CMakeFiles/light_switch_server_nrf52840_xxAA_s140_5.0.0-3.alpha.dir/__/__/nrf_mesh_sdk.c.obj
 .text.mesh_core_setup
                0x00000000      0x15c examples/light_switch/server/CMakeFiles/light_switch_server_nrf52840_xxAA_s140_5.0.0-3.alpha.dir/__/__/nrf_mesh_sdk.c.obj
 .rodata.mesh_core_setup.str1.1
                0x00000000       0x47 examples/light_switch/server/CMakeFiles/light_switch_server_nrf52840_xxAA_s140_5.0.0-3.alpha.dir/__/__/nrf_mesh_sdk.c.obj
 .rodata.mesh_softdevice_enable.str1.1
                0x00000000       0x65 examples/light_switch/server/CMakeFiles/light_switch_server_nrf52840_xxAA_s140_5.0.0-3.alpha.dir/__/__/nrf_mesh_sdk.c.obj
 .rodata.softdevice_assert_handler.str1.1
                0x00000000       0x1d examples/light_switch/server/CMakeFiles/light_switch_server_nrf52840_xxAA_s140_5.0.0-3.alpha.dir/__/__/nrf_mesh_sdk.c.obj
 .text          0x00000000        0x0 examples/light_switch/server/CMakeFiles/light_switch_server_nrf52840_xxAA_s140_5.0.0-3.alpha.dir/__/__/common/src/simple_hal.c.obj
 .data          0x00000000        0x0 examples/light_switch/server/CMakeFiles/light_switch_server_nrf52840_xxAA_s140_5.0.0-3.alpha.dir/__/__/common/src/simple_hal.c.obj
 .bss           0x00000000        0x0 examples/light_switch/server/CMakeFiles/light_switch_server_nrf52840_xxAA_s140_5.0.0-3.alpha.dir/__/__/common/src/simple_hal.c.obj
 .text.hal_buttons_init
                0x00000000       0x50 examples/light_switch/server/CMakeFiles/light_switch_server_nrf52840_xxAA_s140_5.0.0-3.alpha.dir/__/__/common/src/simple_hal.c.obj
 .text          0x00000000        0x0 examples/light_switch/server/CMakeFiles/light_switch_server_nrf52840_xxAA_s140_5.0.0-3.alpha.dir/__/__/nrf_mesh_weak.c.obj
 .data          0x00000000        0x0 examples/light_switch/server/CMakeFiles/light_switch_server_nrf52840_xxAA_s140_5.0.0-3.alpha.dir/__/__/nrf_mesh_weak.c.obj
 .bss           0x00000000        0x0 examples/light_switch/server/CMakeFiles/light_switch_server_nrf52840_xxAA_s140_5.0.0-3.alpha.dir/__/__/nrf_mesh_weak.c.obj
 .text._weak_handler_ptr
                0x00000000        0x4 examples/light_switch/server/CMakeFiles/light_switch_server_nrf52840_xxAA_s140_5.0.0-3.alpha.dir/__/__/nrf_mesh_weak.c.obj
 .text          0x00000000        0x0 examples/light_switch/server/CMakeFiles/light_switch_server_nrf52840_xxAA_s140_5.0.0-3.alpha.dir/__/__/__/models/simple_on_off/src/simple_on_off_server.c.obj
 .data          0x00000000        0x0 examples/light_switch/server/CMakeFiles/light_switch_server_nrf52840_xxAA_s140_5.0.0-3.alpha.dir/__/__/__/models/simple_on_off/src/simple_on_off_server.c.obj
 .bss           0x00000000        0x0 examples/light_switch/server/CMakeFiles/light_switch_server_nrf52840_xxAA_s140_5.0.0-3.alpha.dir/__/__/__/models/simple_on_off/src/simple_on_off_server.c.obj
 .text          0x00000000        0x0 examples/light_switch/server/CMakeFiles/light_switch_server_nrf52840_xxAA_s140_5.0.0-3.alpha.dir/__/__/__/models/config/src/composition_data.c.obj
 .data          0x00000000        0x0 examples/light_switch/server/CMakeFiles/light_switch_server_nrf52840_xxAA_s140_5.0.0-3.alpha.dir/__/__/__/models/config/src/composition_data.c.obj
 .bss           0x00000000        0x0 examples/light_switch/server/CMakeFiles/light_switch_server_nrf52840_xxAA_s140_5.0.0-3.alpha.dir/__/__/__/models/config/src/composition_data.c.obj
 .text          0x00000000        0x0 examples/light_switch/server/CMakeFiles/light_switch_server_nrf52840_xxAA_s140_5.0.0-3.alpha.dir/__/__/__/models/config/src/config_server.c.obj
 .data          0x00000000        0x0 examples/light_switch/server/CMakeFiles/light_switch_server_nrf52840_xxAA_s140_5.0.0-3.alpha.dir/__/__/__/models/config/src/config_server.c.obj
 .bss           0x00000000        0x0 examples/light_switch/server/CMakeFiles/light_switch_server_nrf52840_xxAA_s140_5.0.0-3.alpha.dir/__/__/__/models/config/src/config_server.c.obj
 .text          0x00000000        0x0 examples/light_switch/server/CMakeFiles/light_switch_server_nrf52840_xxAA_s140_5.0.0-3.alpha.dir/__/__/__/models/config/src/packed_index_list.c.obj
 .data          0x00000000        0x0 examples/light_switch/server/CMakeFiles/light_switch_server_nrf52840_xxAA_s140_5.0.0-3.alpha.dir/__/__/__/models/config/src/packed_index_list.c.obj
 .bss           0x00000000        0x0 examples/light_switch/server/CMakeFiles/light_switch_server_nrf52840_xxAA_s140_5.0.0-3.alpha.dir/__/__/__/models/config/src/packed_index_list.c.obj
 .text          0x00000000        0x0 examples/light_switch/server/CMakeFiles/light_switch_server_nrf52840_xxAA_s140_5.0.0-3.alpha.dir/__/__/__/models/health/src/health_server.c.obj
 .data          0x00000000        0x0 examples/light_switch/server/CMakeFiles/light_switch_server_nrf52840_xxAA_s140_5.0.0-3.alpha.dir/__/__/__/models/health/src/health_server.c.obj
 .bss           0x00000000        0x0 examples/light_switch/server/CMakeFiles/light_switch_server_nrf52840_xxAA_s140_5.0.0-3.alpha.dir/__/__/__/models/health/src/health_server.c.obj
 .text.health_server_fault_is_set
                0x00000000       0x1c examples/light_switch/server/CMakeFiles/light_switch_server_nrf52840_xxAA_s140_5.0.0-3.alpha.dir/__/__/__/models/health/src/health_server.c.obj
 .text.health_server_fault_count_get
                0x00000000        0xc examples/light_switch/server/CMakeFiles/light_switch_server_nrf52840_xxAA_s140_5.0.0-3.alpha.dir/__/__/__/models/health/src/health_server.c.obj
 .text.health_server_fault_register
                0x00000000       0xe8 examples/light_switch/server/CMakeFiles/light_switch_server_nrf52840_xxAA_s140_5.0.0-3.alpha.dir/__/__/__/models/health/src/health_server.c.obj
 .text.health_server_fault_clear
                0x00000000       0x54 examples/light_switch/server/CMakeFiles/light_switch_server_nrf52840_xxAA_s140_5.0.0-3.alpha.dir/__/__/__/models/health/src/health_server.c.obj
 .text.health_server_attention_get
                0x00000000        0x6 examples/light_switch/server/CMakeFiles/light_switch_server_nrf52840_xxAA_s140_5.0.0-3.alpha.dir/__/__/__/models/health/src/health_server.c.obj
 .text.health_server_attention_set
                0x00000000        0x4 examples/light_switch/server/CMakeFiles/light_switch_server_nrf52840_xxAA_s140_5.0.0-3.alpha.dir/__/__/__/models/health/src/health_server.c.obj
 .text          0x00000000        0x0 examples/light_switch/server/CMakeFiles/light_switch_server_nrf52840_xxAA_s140_5.0.0-3.alpha.dir/__/__/__/mesh/access/src/access_publish.c.obj
 .data          0x00000000        0x0 examples/light_switch/server/CMakeFiles/light_switch_server_nrf52840_xxAA_s140_5.0.0-3.alpha.dir/__/__/__/mesh/access/src/access_publish.c.obj
 .bss           0x00000000        0x0 examples/light_switch/server/CMakeFiles/light_switch_server_nrf52840_xxAA_s140_5.0.0-3.alpha.dir/__/__/__/mesh/access/src/access_publish.c.obj
 .text          0x00000000        0x0 examples/light_switch/server/CMakeFiles/light_switch_server_nrf52840_xxAA_s140_5.0.0-3.alpha.dir/__/__/__/mesh/access/src/access.c.obj
 .data          0x00000000        0x0 examples/light_switch/server/CMakeFiles/light_switch_server_nrf52840_xxAA_s140_5.0.0-3.alpha.dir/__/__/__/mesh/access/src/access.c.obj
 .bss           0x00000000        0x0 examples/light_switch/server/CMakeFiles/light_switch_server_nrf52840_xxAA_s140_5.0.0-3.alpha.dir/__/__/__/mesh/access/src/access.c.obj
 .text.access_model_subscription_lists_share
                0x00000000       0x48 examples/light_switch/server/CMakeFiles/light_switch_server_nrf52840_xxAA_s140_5.0.0-3.alpha.dir/__/__/__/mesh/access/src/access.c.obj
 .text.access_element_location_set
                0x00000000       0x20 examples/light_switch/server/CMakeFiles/light_switch_server_nrf52840_xxAA_s140_5.0.0-3.alpha.dir/__/__/__/mesh/access/src/access.c.obj
 .text          0x00000000        0x0 examples/light_switch/server/CMakeFiles/light_switch_server_nrf52840_xxAA_s140_5.0.0-3.alpha.dir/__/__/__/mesh/access/src/access_reliable.c.obj
 .data          0x00000000        0x0 examples/light_switch/server/CMakeFiles/light_switch_server_nrf52840_xxAA_s140_5.0.0-3.alpha.dir/__/__/__/mesh/access/src/access_reliable.c.obj
 .bss           0x00000000        0x0 examples/light_switch/server/CMakeFiles/light_switch_server_nrf52840_xxAA_s140_5.0.0-3.alpha.dir/__/__/__/mesh/access/src/access_reliable.c.obj
 .text.access_model_reliable_cancel
                0x00000000       0x44 examples/light_switch/server/CMakeFiles/light_switch_server_nrf52840_xxAA_s140_5.0.0-3.alpha.dir/__/__/__/mesh/access/src/access_reliable.c.obj
 .text.access_model_reliable_publish
                0x00000000      0x1a8 examples/light_switch/server/CMakeFiles/light_switch_server_nrf52840_xxAA_s140_5.0.0-3.alpha.dir/__/__/__/mesh/access/src/access_reliable.c.obj
 .text          0x00000000        0x0 examples/light_switch/server/CMakeFiles/light_switch_server_nrf52840_xxAA_s140_5.0.0-3.alpha.dir/__/__/__/mesh/access/src/device_state_manager.c.obj
 .data          0x00000000        0x0 examples/light_switch/server/CMakeFiles/light_switch_server_nrf52840_xxAA_s140_5.0.0-3.alpha.dir/__/__/__/mesh/access/src/device_state_manager.c.obj
 .bss           0x00000000        0x0 examples/light_switch/server/CMakeFiles/light_switch_server_nrf52840_xxAA_s140_5.0.0-3.alpha.dir/__/__/__/mesh/access/src/device_state_manager.c.obj
 .text.dsm_has_unflashed_data
                0x00000000       0x24 examples/light_switch/server/CMakeFiles/light_switch_server_nrf52840_xxAA_s140_5.0.0-3.alpha.dir/__/__/__/mesh/access/src/device_state_manager.c.obj
 .text.dsm_address_publish_remove
                0x00000000       0x40 examples/light_switch/server/CMakeFiles/light_switch_server_nrf52840_xxAA_s140_5.0.0-3.alpha.dir/__/__/__/mesh/access/src/device_state_manager.c.obj
 .text.dsm_address_subscription_count_get
                0x00000000       0x58 examples/light_switch/server/CMakeFiles/light_switch_server_nrf52840_xxAA_s140_5.0.0-3.alpha.dir/__/__/__/mesh/access/src/device_state_manager.c.obj
 .text.dsm_address_get_all
                0x00000000       0x64 examples/light_switch/server/CMakeFiles/light_switch_server_nrf52840_xxAA_s140_5.0.0-3.alpha.dir/__/__/__/mesh/access/src/device_state_manager.c.obj
 .text.dsm_subnet_handle_get
                0x00000000        0xc examples/light_switch/server/CMakeFiles/light_switch_server_nrf52840_xxAA_s140_5.0.0-3.alpha.dir/__/__/__/mesh/access/src/device_state_manager.c.obj
 .text.dsm_subnet_handle_to_netkey_index
                0x00000000       0x30 examples/light_switch/server/CMakeFiles/light_switch_server_nrf52840_xxAA_s140_5.0.0-3.alpha.dir/__/__/__/mesh/access/src/device_state_manager.c.obj
 .text.dsm_devkey_handle_get
                0x00000000       0x34 examples/light_switch/server/CMakeFiles/light_switch_server_nrf52840_xxAA_s140_5.0.0-3.alpha.dir/__/__/__/mesh/access/src/device_state_manager.c.obj
 .text.dsm_beacon_secmat_get
                0x00000000       0x2c examples/light_switch/server/CMakeFiles/light_switch_server_nrf52840_xxAA_s140_5.0.0-3.alpha.dir/__/__/__/mesh/access/src/device_state_manager.c.obj
 .text.dsm_proxy_identity_get
                0x00000000        0x4 examples/light_switch/server/CMakeFiles/light_switch_server_nrf52840_xxAA_s140_5.0.0-3.alpha.dir/__/__/__/mesh/access/src/device_state_manager.c.obj
 .text          0x00000000        0x0 examples/light_switch/server/CMakeFiles/light_switch_server_nrf52840_xxAA_s140_5.0.0-3.alpha.dir/__/__/__/mesh/prov/src/prov_provisionee.c.obj
 .data          0x00000000        0x0 examples/light_switch/server/CMakeFiles/light_switch_server_nrf52840_xxAA_s140_5.0.0-3.alpha.dir/__/__/__/mesh/prov/src/prov_provisionee.c.obj
 .bss           0x00000000        0x0 examples/light_switch/server/CMakeFiles/light_switch_server_nrf52840_xxAA_s140_5.0.0-3.alpha.dir/__/__/__/mesh/prov/src/prov_provisionee.c.obj
 .text.prov_provisionee_shared_secret
                0x00000000       0x28 examples/light_switch/server/CMakeFiles/light_switch_server_nrf52840_xxAA_s140_5.0.0-3.alpha.dir/__/__/__/mesh/prov/src/prov_provisionee.c.obj
 .text          0x00000000        0x0 examples/light_switch/server/CMakeFiles/light_switch_server_nrf52840_xxAA_s140_5.0.0-3.alpha.dir/__/__/__/mesh/prov/src/nrf_mesh_prov.c.obj
 .data          0x00000000        0x0 examples/light_switch/server/CMakeFiles/light_switch_server_nrf52840_xxAA_s140_5.0.0-3.alpha.dir/__/__/__/mesh/prov/src/nrf_mesh_prov.c.obj
 .bss           0x00000000        0x0 examples/light_switch/server/CMakeFiles/light_switch_server_nrf52840_xxAA_s140_5.0.0-3.alpha.dir/__/__/__/mesh/prov/src/nrf_mesh_prov.c.obj
 .text.nrf_mesh_prov_provision
                0x00000000       0x4e examples/light_switch/server/CMakeFiles/light_switch_server_nrf52840_xxAA_s140_5.0.0-3.alpha.dir/__/__/__/mesh/prov/src/nrf_mesh_prov.c.obj
 .text.nrf_mesh_prov_oob_use
                0x00000000        0xe examples/light_switch/server/CMakeFiles/light_switch_server_nrf52840_xxAA_s140_5.0.0-3.alpha.dir/__/__/__/mesh/prov/src/nrf_mesh_prov.c.obj
 .text.nrf_mesh_prov_shared_secret_provide
                0x00000000        0xe examples/light_switch/server/CMakeFiles/light_switch_server_nrf52840_xxAA_s140_5.0.0-3.alpha.dir/__/__/__/mesh/prov/src/nrf_mesh_prov.c.obj
 .text.nrf_mesh_prov_pubkey_provide
                0x00000000       0x10 examples/light_switch/server/CMakeFiles/light_switch_server_nrf52840_xxAA_s140_5.0.0-3.alpha.dir/__/__/__/mesh/prov/src/nrf_mesh_prov.c.obj
 .text.nrf_mesh_prov_scan_start
                0x00000000       0x10 examples/light_switch/server/CMakeFiles/light_switch_server_nrf52840_xxAA_s140_5.0.0-3.alpha.dir/__/__/__/mesh/prov/src/nrf_mesh_prov.c.obj
 .text.nrf_mesh_prov_scan_stop
                0x00000000        0x4 examples/light_switch/server/CMakeFiles/light_switch_server_nrf52840_xxAA_s140_5.0.0-3.alpha.dir/__/__/__/mesh/prov/src/nrf_mesh_prov.c.obj
 .text          0x00000000        0x0 examples/light_switch/server/CMakeFiles/light_switch_server_nrf52840_xxAA_s140_5.0.0-3.alpha.dir/__/__/__/mesh/prov/src/provisioning.c.obj
 .data          0x00000000        0x0 examples/light_switch/server/CMakeFiles/light_switch_server_nrf52840_xxAA_s140_5.0.0-3.alpha.dir/__/__/__/mesh/prov/src/provisioning.c.obj
 .bss           0x00000000        0x0 examples/light_switch/server/CMakeFiles/light_switch_server_nrf52840_xxAA_s140_5.0.0-3.alpha.dir/__/__/__/mesh/prov/src/provisioning.c.obj
 .text.prov_tx_invite
                0x00000000       0x28 examples/light_switch/server/CMakeFiles/light_switch_server_nrf52840_xxAA_s140_5.0.0-3.alpha.dir/__/__/__/mesh/prov/src/provisioning.c.obj
 .text.prov_tx_start
                0x00000000       0x20 examples/light_switch/server/CMakeFiles/light_switch_server_nrf52840_xxAA_s140_5.0.0-3.alpha.dir/__/__/__/mesh/prov/src/provisioning.c.obj
 .text.prov_tx_data
                0x00000000        0x6 examples/light_switch/server/CMakeFiles/light_switch_server_nrf52840_xxAA_s140_5.0.0-3.alpha.dir/__/__/__/mesh/prov/src/provisioning.c.obj
 .text.prov_tx  0x00000000        0x4 examples/light_switch/server/CMakeFiles/light_switch_server_nrf52840_xxAA_s140_5.0.0-3.alpha.dir/__/__/__/mesh/prov/src/provisioning.c.obj
 .text          0x00000000        0x0 examples/light_switch/server/CMakeFiles/light_switch_server_nrf52840_xxAA_s140_5.0.0-3.alpha.dir/__/__/__/mesh/prov/src/prov_beacon.c.obj
 .data          0x00000000        0x0 examples/light_switch/server/CMakeFiles/light_switch_server_nrf52840_xxAA_s140_5.0.0-3.alpha.dir/__/__/__/mesh/prov/src/prov_beacon.c.obj
 .bss           0x00000000        0x0 examples/light_switch/server/CMakeFiles/light_switch_server_nrf52840_xxAA_s140_5.0.0-3.alpha.dir/__/__/__/mesh/prov/src/prov_beacon.c.obj
 .text.prov_beacon_scan_start
                0x00000000       0x24 examples/light_switch/server/CMakeFiles/light_switch_server_nrf52840_xxAA_s140_5.0.0-3.alpha.dir/__/__/__/mesh/prov/src/prov_beacon.c.obj
 .text.prov_beacon_scan_stop
                0x00000000        0xc examples/light_switch/server/CMakeFiles/light_switch_server_nrf52840_xxAA_s140_5.0.0-3.alpha.dir/__/__/__/mesh/prov/src/prov_beacon.c.obj
 .text          0x00000000        0x0 examples/light_switch/server/CMakeFiles/light_switch_server_nrf52840_xxAA_s140_5.0.0-3.alpha.dir/__/__/__/mesh/prov/src/prov_utils.c.obj
 .data          0x00000000        0x0 examples/light_switch/server/CMakeFiles/light_switch_server_nrf52840_xxAA_s140_5.0.0-3.alpha.dir/__/__/__/mesh/prov/src/prov_utils.c.obj
 .bss           0x00000000        0x0 examples/light_switch/server/CMakeFiles/light_switch_server_nrf52840_xxAA_s140_5.0.0-3.alpha.dir/__/__/__/mesh/prov/src/prov_utils.c.obj
 .text          0x00000000        0x0 examples/light_switch/server/CMakeFiles/light_switch_server_nrf52840_xxAA_s140_5.0.0-3.alpha.dir/__/__/__/mesh/prov/src/prov_bearer_adv.c.obj
 .data          0x00000000        0x0 examples/light_switch/server/CMakeFiles/light_switch_server_nrf52840_xxAA_s140_5.0.0-3.alpha.dir/__/__/__/mesh/prov/src/prov_bearer_adv.c.obj
 .bss           0x00000000        0x0 examples/light_switch/server/CMakeFiles/light_switch_server_nrf52840_xxAA_s140_5.0.0-3.alpha.dir/__/__/__/mesh/prov/src/prov_bearer_adv.c.obj
 .text          0x00000000        0x0 examples/light_switch/server/CMakeFiles/light_switch_server_nrf52840_xxAA_s140_5.0.0-3.alpha.dir/__/__/__/mesh/access/src/nrf_mesh_node_config.c.obj
 .data          0x00000000        0x0 examples/light_switch/server/CMakeFiles/light_switch_server_nrf52840_xxAA_s140_5.0.0-3.alpha.dir/__/__/__/mesh/access/src/nrf_mesh_node_config.c.obj
 .bss           0x00000000        0x0 examples/light_switch/server/CMakeFiles/light_switch_server_nrf52840_xxAA_s140_5.0.0-3.alpha.dir/__/__/__/mesh/access/src/nrf_mesh_node_config.c.obj
 .text.nrf_mesh_node_config_clear
                0x00000000       0x22 examples/light_switch/server/CMakeFiles/light_switch_server_nrf52840_xxAA_s140_5.0.0-3.alpha.dir/__/__/__/mesh/access/src/nrf_mesh_node_config.c.obj
 .text          0x00000000        0x0 examples/light_switch/server/CMakeFiles/light_switch_server_nrf52840_xxAA_s140_5.0.0-3.alpha.dir/__/__/__/external/nRF5_SDK_14.2.0_17b948a/components/toolchain/system_nrf52840.c.obj
 .data          0x00000000        0x0 examples/light_switch/server/CMakeFiles/light_switch_server_nrf52840_xxAA_s140_5.0.0-3.alpha.dir/__/__/__/external/nRF5_SDK_14.2.0_17b948a/components/toolchain/system_nrf52840.c.obj
 .bss           0x00000000        0x0 examples/light_switch/server/CMakeFiles/light_switch_server_nrf52840_xxAA_s140_5.0.0-3.alpha.dir/__/__/__/external/nRF5_SDK_14.2.0_17b948a/components/toolchain/system_nrf52840.c.obj
 .text.SystemCoreClockUpdate
                0x00000000       0x10 examples/light_switch/server/CMakeFiles/light_switch_server_nrf52840_xxAA_s140_5.0.0-3.alpha.dir/__/__/__/external/nRF5_SDK_14.2.0_17b948a/components/toolchain/system_nrf52840.c.obj
 .data          0x00000000        0x0 examples/light_switch/server/CMakeFiles/light_switch_server_nrf52840_xxAA_s140_5.0.0-3.alpha.dir/__/__/__/external/nRF5_SDK_14.2.0_17b948a/components/toolchain/gcc/gcc_startup_nrf52840.S.obj
 .bss           0x00000000        0x0 examples/light_switch/server/CMakeFiles/light_switch_server_nrf52840_xxAA_s140_5.0.0-3.alpha.dir/__/__/__/external/nRF5_SDK_14.2.0_17b948a/components/toolchain/gcc/gcc_startup_nrf52840.S.obj
 .text          0x00000000        0x0 mesh/core/libmesh_core_nrf52840_xxAA.a(nrf_mesh_configure.c.obj)
 .data          0x00000000        0x0 mesh/core/libmesh_core_nrf52840_xxAA.a(nrf_mesh_configure.c.obj)
 .bss           0x00000000        0x0 mesh/core/libmesh_core_nrf52840_xxAA.a(nrf_mesh_configure.c.obj)
 .text.nrf_mesh_configure_device_uuid_set
                0x00000000       0x10 mesh/core/libmesh_core_nrf52840_xxAA.a(nrf_mesh_configure.c.obj)
 .text          0x00000000        0x0 mesh/core/libmesh_core_nrf52840_xxAA.a(event.c.obj)
 .data          0x00000000        0x0 mesh/core/libmesh_core_nrf52840_xxAA.a(event.c.obj)
 .bss           0x00000000        0x0 mesh/core/libmesh_core_nrf52840_xxAA.a(event.c.obj)
 .text          0x00000000        0x0 mesh/core/libmesh_core_nrf52840_xxAA.a(net_state.c.obj)
 .data          0x00000000        0x0 mesh/core/libmesh_core_nrf52840_xxAA.a(net_state.c.obj)
 .bss           0x00000000        0x0 mesh/core/libmesh_core_nrf52840_xxAA.a(net_state.c.obj)
 .text.net_state_iv_update_test_mode_set
                0x00000000        0xc mesh/core/libmesh_core_nrf52840_xxAA.a(net_state.c.obj)
 .text          0x00000000        0x0 mesh/core/libmesh_core_nrf52840_xxAA.a(nrf_mesh_utils.c.obj)
 .data          0x00000000        0x0 mesh/core/libmesh_core_nrf52840_xxAA.a(nrf_mesh_utils.c.obj)
 .bss           0x00000000        0x0 mesh/core/libmesh_core_nrf52840_xxAA.a(nrf_mesh_utils.c.obj)
 .text.nrf_mesh_rand_get
                0x00000000       0x10 mesh/core/libmesh_core_nrf52840_xxAA.a(nrf_mesh_utils.c.obj)
 .text.nrf_mesh_gap_address_type_get
                0x00000000       0x3c mesh/core/libmesh_core_nrf52840_xxAA.a(nrf_mesh_utils.c.obj)
 .text          0x00000000        0x0 mesh/core/libmesh_core_nrf52840_xxAA.a(nrf_mesh.c.obj)
 .data          0x00000000        0x0 mesh/core/libmesh_core_nrf52840_xxAA.a(nrf_mesh.c.obj)
 .bss           0x00000000        0x0 mesh/core/libmesh_core_nrf52840_xxAA.a(nrf_mesh.c.obj)
 .text.nrf_mesh_disable
                0x00000000       0x28 mesh/core/libmesh_core_nrf52840_xxAA.a(nrf_mesh.c.obj)
 .text.nrf_mesh_process
                0x00000000        0x4 mesh/core/libmesh_core_nrf52840_xxAA.a(nrf_mesh.c.obj)
 .text.nrf_mesh_evt_handler_remove
                0x00000000        0x4 mesh/core/libmesh_core_nrf52840_xxAA.a(nrf_mesh.c.obj)
 .text.nrf_mesh_rx_cb_set
                0x00000000        0xc mesh/core/libmesh_core_nrf52840_xxAA.a(nrf_mesh.c.obj)
 .text.nrf_mesh_rx_cb_clear
                0x00000000        0xc mesh/core/libmesh_core_nrf52840_xxAA.a(nrf_mesh.c.obj)
 .text          0x00000000        0x0 mesh/core/libmesh_core_nrf52840_xxAA.a(hal.c.obj)
 .data          0x00000000        0x0 mesh/core/libmesh_core_nrf52840_xxAA.a(hal.c.obj)
 .bss           0x00000000        0x0 mesh/core/libmesh_core_nrf52840_xxAA.a(hal.c.obj)
 .text          0x00000000        0x0 mesh/core/libmesh_core_nrf52840_xxAA.a(timer_scheduler.c.obj)
 .data          0x00000000        0x0 mesh/core/libmesh_core_nrf52840_xxAA.a(timer_scheduler.c.obj)
 .bss           0x00000000        0x0 mesh/core/libmesh_core_nrf52840_xxAA.a(timer_scheduler.c.obj)
 .text          0x00000000        0x0 mesh/core/libmesh_core_nrf52840_xxAA.a(timer.c.obj)
 .data          0x00000000        0x0 mesh/core/libmesh_core_nrf52840_xxAA.a(timer.c.obj)
 .bss           0x00000000        0x0 mesh/core/libmesh_core_nrf52840_xxAA.a(timer.c.obj)
 .text.timer_order_cb_ppi
                0x00000000       0xc4 mesh/core/libmesh_core_nrf52840_xxAA.a(timer.c.obj)
 .text.timer_order_ppi
                0x00000000       0xc0 mesh/core/libmesh_core_nrf52840_xxAA.a(timer.c.obj)
 .text.timer_abort
                0x00000000       0x78 mesh/core/libmesh_core_nrf52840_xxAA.a(timer.c.obj)
 .text          0x00000000        0x0 mesh/core/libmesh_core_nrf52840_xxAA.a(ticker.c.obj)
 .data          0x00000000        0x0 mesh/core/libmesh_core_nrf52840_xxAA.a(ticker.c.obj)
 .bss           0x00000000        0x0 mesh/core/libmesh_core_nrf52840_xxAA.a(ticker.c.obj)
 .text.ticker_get
                0x00000000        0xc mesh/core/libmesh_core_nrf52840_xxAA.a(ticker.c.obj)
 .text          0x00000000        0x0 mesh/core/libmesh_core_nrf52840_xxAA.a(rand.c.obj)
 .data          0x00000000        0x0 mesh/core/libmesh_core_nrf52840_xxAA.a(rand.c.obj)
 .bss           0x00000000        0x0 mesh/core/libmesh_core_nrf52840_xxAA.a(rand.c.obj)
 .text          0x00000000        0x0 mesh/core/libmesh_core_nrf52840_xxAA.a(nrf_mesh_opt.c.obj)
 .data          0x00000000        0x0 mesh/core/libmesh_core_nrf52840_xxAA.a(nrf_mesh_opt.c.obj)
 .bss           0x00000000        0x0 mesh/core/libmesh_core_nrf52840_xxAA.a(nrf_mesh_opt.c.obj)
 .text          0x00000000        0x0 mesh/core/libmesh_core_nrf52840_xxAA.a(timeslot.c.obj)
 .data          0x00000000        0x0 mesh/core/libmesh_core_nrf52840_xxAA.a(timeslot.c.obj)
 .bss           0x00000000        0x0 mesh/core/libmesh_core_nrf52840_xxAA.a(timeslot.c.obj)
 .text.timeslot_end_time_get
                0x00000000       0x10 mesh/core/libmesh_core_nrf52840_xxAA.a(timeslot.c.obj)
 .text.timeslot_is_in_ts
                0x00000000        0xc mesh/core/libmesh_core_nrf52840_xxAA.a(timeslot.c.obj)
 .text.timeslot_restart
                0x00000000       0x10 mesh/core/libmesh_core_nrf52840_xxAA.a(timeslot.c.obj)
 .text          0x00000000        0x0 mesh/core/libmesh_core_nrf52840_xxAA.a(bearer_event.c.obj)
 .data          0x00000000        0x0 mesh/core/libmesh_core_nrf52840_xxAA.a(bearer_event.c.obj)
 .bss           0x00000000        0x0 mesh/core/libmesh_core_nrf52840_xxAA.a(bearer_event.c.obj)
 .text.bearer_event_generic_post
                0x00000000       0x30 mesh/core/libmesh_core_nrf52840_xxAA.a(bearer_event.c.obj)
 .text.bearer_event_timer_sch_post
                0x00000000       0x34 mesh/core/libmesh_core_nrf52840_xxAA.a(bearer_event.c.obj)
 .text.bearer_event_in_correct_irq_priority
                0x00000000       0x48 mesh/core/libmesh_core_nrf52840_xxAA.a(bearer_event.c.obj)
 .text          0x00000000        0x0 mesh/core/libmesh_core_nrf52840_xxAA.a(enc.c.obj)
 .data          0x00000000        0x0 mesh/core/libmesh_core_nrf52840_xxAA.a(enc.c.obj)
 .bss           0x00000000        0x0 mesh/core/libmesh_core_nrf52840_xxAA.a(enc.c.obj)
 .text.enc_key_generate
                0x00000000        0x6 mesh/core/libmesh_core_nrf52840_xxAA.a(enc.c.obj)
 .text          0x00000000        0x0 mesh/core/libmesh_core_nrf52840_xxAA.a(network.c.obj)
 .data          0x00000000        0x0 mesh/core/libmesh_core_nrf52840_xxAA.a(network.c.obj)
 .bss           0x00000000        0x0 mesh/core/libmesh_core_nrf52840_xxAA.a(network.c.obj)
 .text.network_packet_discard
                0x00000000       0x3c mesh/core/libmesh_core_nrf52840_xxAA.a(network.c.obj)
 .text          0x00000000        0x0 mesh/core/libmesh_core_nrf52840_xxAA.a(nrf_mesh_keygen.c.obj)
 .data          0x00000000        0x0 mesh/core/libmesh_core_nrf52840_xxAA.a(nrf_mesh_keygen.c.obj)
 .bss           0x00000000        0x0 mesh/core/libmesh_core_nrf52840_xxAA.a(nrf_mesh_keygen.c.obj)
 .text.nrf_mesh_keygen_identitykey
                0x00000000       0x4c mesh/core/libmesh_core_nrf52840_xxAA.a(nrf_mesh_keygen.c.obj)
 .text          0x00000000        0x0 mesh/core/libmesh_core_nrf52840_xxAA.a(list.c.obj)
 .data          0x00000000        0x0 mesh/core/libmesh_core_nrf52840_xxAA.a(list.c.obj)
 .bss           0x00000000        0x0 mesh/core/libmesh_core_nrf52840_xxAA.a(list.c.obj)
 .text.list_size_get
                0x00000000       0x12 mesh/core/libmesh_core_nrf52840_xxAA.a(list.c.obj)
 .text.list_sorted_add
                0x00000000       0x90 mesh/core/libmesh_core_nrf52840_xxAA.a(list.c.obj)
 .text          0x00000000        0x0 mesh/core/libmesh_core_nrf52840_xxAA.a(log.c.obj)
 .data          0x00000000        0x0 mesh/core/libmesh_core_nrf52840_xxAA.a(log.c.obj)
 .bss           0x00000000        0x0 mesh/core/libmesh_core_nrf52840_xxAA.a(log.c.obj)
 .text.log_callback_logview
                0x00000000       0x38 mesh/core/libmesh_core_nrf52840_xxAA.a(log.c.obj)
 .text.log_set_callback
                0x00000000        0xc mesh/core/libmesh_core_nrf52840_xxAA.a(log.c.obj)
 .rodata.log_callback_logview.str1.1
                0x00000000        0xf mesh/core/libmesh_core_nrf52840_xxAA.a(log.c.obj)
 .text          0x00000000        0x0 mesh/core/libmesh_core_nrf52840_xxAA.a(flash_manager.c.obj)
 .data          0x00000000        0x0 mesh/core/libmesh_core_nrf52840_xxAA.a(flash_manager.c.obj)
 .bss           0x00000000        0x0 mesh/core/libmesh_core_nrf52840_xxAA.a(flash_manager.c.obj)
 .text.flash_manager_entry_count_get
                0x00000000       0x5c mesh/core/libmesh_core_nrf52840_xxAA.a(flash_manager.c.obj)
 .text.flash_manager_entry_release
                0x00000000       0x12 mesh/core/libmesh_core_nrf52840_xxAA.a(flash_manager.c.obj)
 .text          0x00000000        0x0 mesh/core/libmesh_core_nrf52840_xxAA.a(ccm_soft.c.obj)
 .data          0x00000000        0x0 mesh/core/libmesh_core_nrf52840_xxAA.a(ccm_soft.c.obj)
 .bss           0x00000000        0x0 mesh/core/libmesh_core_nrf52840_xxAA.a(ccm_soft.c.obj)
 .text          0x00000000        0x0 mesh/core/libmesh_core_nrf52840_xxAA.a(beacon.c.obj)
 .data          0x00000000        0x0 mesh/core/libmesh_core_nrf52840_xxAA.a(beacon.c.obj)
 .bss           0x00000000        0x0 mesh/core/libmesh_core_nrf52840_xxAA.a(beacon.c.obj)
 .text          0x00000000        0x0 mesh/core/libmesh_core_nrf52840_xxAA.a(flash_manager_internal.c.obj)
 .data          0x00000000        0x0 mesh/core/libmesh_core_nrf52840_xxAA.a(flash_manager_internal.c.obj)
 .bss           0x00000000        0x0 mesh/core/libmesh_core_nrf52840_xxAA.a(flash_manager_internal.c.obj)
 .text          0x00000000        0x0 mesh/core/libmesh_core_nrf52840_xxAA.a(core_tx.c.obj)
 .data          0x00000000        0x0 mesh/core/libmesh_core_nrf52840_xxAA.a(core_tx.c.obj)
 .bss           0x00000000        0x0 mesh/core/libmesh_core_nrf52840_xxAA.a(core_tx.c.obj)
 .text          0x00000000        0x0 mesh/core/libmesh_core_nrf52840_xxAA.a(heartbeat.c.obj)
 .data          0x00000000        0x0 mesh/core/libmesh_core_nrf52840_xxAA.a(heartbeat.c.obj)
 .bss           0x00000000        0x0 mesh/core/libmesh_core_nrf52840_xxAA.a(heartbeat.c.obj)
 .text          0x00000000        0x0 mesh/core/libmesh_core_nrf52840_xxAA.a(net_beacon.c.obj)
 .data          0x00000000        0x0 mesh/core/libmesh_core_nrf52840_xxAA.a(net_beacon.c.obj)
 .bss           0x00000000        0x0 mesh/core/libmesh_core_nrf52840_xxAA.a(net_beacon.c.obj)
 .text          0x00000000        0x0 mesh/core/libmesh_core_nrf52840_xxAA.a(core_tx_adv.c.obj)
 .data          0x00000000        0x0 mesh/core/libmesh_core_nrf52840_xxAA.a(core_tx_adv.c.obj)
 .bss           0x00000000        0x0 mesh/core/libmesh_core_nrf52840_xxAA.a(core_tx_adv.c.obj)
 .text.core_tx_adv_address_set
                0x00000000       0x34 mesh/core/libmesh_core_nrf52840_xxAA.a(core_tx_adv.c.obj)
 .text          0x00000000        0x0 mesh/core/libmesh_core_nrf52840_xxAA.a(ad_listener.c.obj)
 .data          0x00000000        0x0 mesh/core/libmesh_core_nrf52840_xxAA.a(ad_listener.c.obj)
 .bss           0x00000000        0x0 mesh/core/libmesh_core_nrf52840_xxAA.a(ad_listener.c.obj)
 .text.ad_listener_unsubscribe
                0x00000000       0x6c mesh/core/libmesh_core_nrf52840_xxAA.a(ad_listener.c.obj)
 .text          0x00000000        0x0 mesh/core/libmesh_core_nrf52840_xxAA.a(ad_type_filter.c.obj)
 .data          0x00000000        0x0 mesh/core/libmesh_core_nrf52840_xxAA.a(ad_type_filter.c.obj)
 .bss           0x00000000        0x0 mesh/core/libmesh_core_nrf52840_xxAA.a(ad_type_filter.c.obj)
 .text.bearer_adtype_remove
                0x00000000       0x20 mesh/core/libmesh_core_nrf52840_xxAA.a(ad_type_filter.c.obj)
 .text.bearer_adtype_clear
                0x00000000       0x10 mesh/core/libmesh_core_nrf52840_xxAA.a(ad_type_filter.c.obj)
 .text.bearer_invalid_length_amount_get
                0x00000000        0xc mesh/core/libmesh_core_nrf52840_xxAA.a(ad_type_filter.c.obj)
 .text.bearer_adtype_filtered_amount_get
                0x00000000        0xc mesh/core/libmesh_core_nrf52840_xxAA.a(ad_type_filter.c.obj)
 .text          0x00000000        0x0 mesh/core/libmesh_core_nrf52840_xxAA.a(advertiser.c.obj)
 .data          0x00000000        0x0 mesh/core/libmesh_core_nrf52840_xxAA.a(advertiser.c.obj)
 .bss           0x00000000        0x0 mesh/core/libmesh_core_nrf52840_xxAA.a(advertiser.c.obj)
 .text.advertiser_disable
                0x00000000        0xa mesh/core/libmesh_core_nrf52840_xxAA.a(advertiser.c.obj)
 .text.advertiser_channels_set
                0x00000000       0x84 mesh/core/libmesh_core_nrf52840_xxAA.a(advertiser.c.obj)
 .text.advertiser_address_set
                0x00000000       0x50 mesh/core/libmesh_core_nrf52840_xxAA.a(advertiser.c.obj)
 .text.advertiser_config_set
                0x00000000       0x44 mesh/core/libmesh_core_nrf52840_xxAA.a(advertiser.c.obj)
 .text.advertiser_config_get
                0x00000000       0x2c mesh/core/libmesh_core_nrf52840_xxAA.a(advertiser.c.obj)
 .text          0x00000000        0x0 mesh/core/libmesh_core_nrf52840_xxAA.a(bearer_handler.c.obj)
 .data          0x00000000        0x0 mesh/core/libmesh_core_nrf52840_xxAA.a(bearer_handler.c.obj)
 .bss           0x00000000        0x0 mesh/core/libmesh_core_nrf52840_xxAA.a(bearer_handler.c.obj)
 .text.bearer_handler_stop
                0x00000000       0x20 mesh/core/libmesh_core_nrf52840_xxAA.a(bearer_handler.c.obj)
 .text.bearer_handler_action_fire
                0x00000000       0xbc mesh/core/libmesh_core_nrf52840_xxAA.a(bearer_handler.c.obj)
 .text          0x00000000        0x0 mesh/core/libmesh_core_nrf52840_xxAA.a(broadcast.c.obj)
 .data          0x00000000        0x0 mesh/core/libmesh_core_nrf52840_xxAA.a(broadcast.c.obj)
 .bss           0x00000000        0x0 mesh/core/libmesh_core_nrf52840_xxAA.a(broadcast.c.obj)
 .text          0x00000000        0x0 mesh/core/libmesh_core_nrf52840_xxAA.a(filter_engine.c.obj)
 .data          0x00000000        0x0 mesh/core/libmesh_core_nrf52840_xxAA.a(filter_engine.c.obj)
 .bss           0x00000000        0x0 mesh/core/libmesh_core_nrf52840_xxAA.a(filter_engine.c.obj)
 .text.fen_accepted_amount_get
                0x00000000        0xc mesh/core/libmesh_core_nrf52840_xxAA.a(filter_engine.c.obj)
 .text          0x00000000        0x0 mesh/core/libmesh_core_nrf52840_xxAA.a(radio_config.c.obj)
 .data          0x00000000        0x0 mesh/core/libmesh_core_nrf52840_xxAA.a(radio_config.c.obj)
 .bss           0x00000000        0x0 mesh/core/libmesh_core_nrf52840_xxAA.a(radio_config.c.obj)
 .text.radio_config_access_addr_get
                0x00000000       0x64 mesh/core/libmesh_core_nrf52840_xxAA.a(radio_config.c.obj)
 .text          0x00000000        0x0 mesh/core/libmesh_core_nrf52840_xxAA.a(scanner.c.obj)
 .data          0x00000000        0x0 mesh/core/libmesh_core_nrf52840_xxAA.a(scanner.c.obj)
 .bss           0x00000000        0x0 mesh/core/libmesh_core_nrf52840_xxAA.a(scanner.c.obj)
 .text.scanner_rx_callback_set
                0x00000000       0x2c mesh/core/libmesh_core_nrf52840_xxAA.a(scanner.c.obj)
 .text.scanner_disable
                0x00000000       0x48 mesh/core/libmesh_core_nrf52840_xxAA.a(scanner.c.obj)
 .text.scanner_is_enabled
                0x00000000       0x10 mesh/core/libmesh_core_nrf52840_xxAA.a(scanner.c.obj)
 .text.scanner_stats_get
                0x00000000        0x8 mesh/core/libmesh_core_nrf52840_xxAA.a(scanner.c.obj)
 .text.scanner_config_radio_mode_set
                0x00000000       0x10 mesh/core/libmesh_core_nrf52840_xxAA.a(scanner.c.obj)
 .text          0x00000000        0x0 mesh/core/libmesh_core_nrf52840_xxAA.a(internal_event.c.obj)
 .data          0x00000000        0x0 mesh/core/libmesh_core_nrf52840_xxAA.a(internal_event.c.obj)
 .bss           0x00000000        0x0 mesh/core/libmesh_core_nrf52840_xxAA.a(internal_event.c.obj)
 .text.internal_event_init
                0x00000000       0x40 mesh/core/libmesh_core_nrf52840_xxAA.a(internal_event.c.obj)
 .text.internal_event_pop
                0x00000000       0x1c mesh/core/libmesh_core_nrf52840_xxAA.a(internal_event.c.obj)
 .bss.m_internal_event_fifo_buffer
                0x00000000      0x100 mesh/core/libmesh_core_nrf52840_xxAA.a(internal_event.c.obj)
 .text          0x00000000        0x0 mesh/core/libmesh_core_nrf52840_xxAA.a(aes.c.obj)
 .data          0x00000000        0x0 mesh/core/libmesh_core_nrf52840_xxAA.a(aes.c.obj)
 .bss           0x00000000        0x0 mesh/core/libmesh_core_nrf52840_xxAA.a(aes.c.obj)
 .text          0x00000000        0x0 mesh/core/libmesh_core_nrf52840_xxAA.a(msg_cache.c.obj)
 .data          0x00000000        0x0 mesh/core/libmesh_core_nrf52840_xxAA.a(msg_cache.c.obj)
 .bss           0x00000000        0x0 mesh/core/libmesh_core_nrf52840_xxAA.a(msg_cache.c.obj)
 .text.msg_cache_clear
                0x00000000       0x18 mesh/core/libmesh_core_nrf52840_xxAA.a(msg_cache.c.obj)
 .text          0x00000000        0x0 mesh/core/libmesh_core_nrf52840_xxAA.a(transport.c.obj)
 .data          0x00000000        0x0 mesh/core/libmesh_core_nrf52840_xxAA.a(transport.c.obj)
 .bss           0x00000000        0x0 mesh/core/libmesh_core_nrf52840_xxAA.a(transport.c.obj)
 .text.transport_sar_mem_funcs_set
                0x00000000       0x44 mesh/core/libmesh_core_nrf52840_xxAA.a(transport.c.obj)
 .text          0x00000000        0x0 mesh/core/libmesh_core_nrf52840_xxAA.a(packet_buffer.c.obj)
 .data          0x00000000        0x0 mesh/core/libmesh_core_nrf52840_xxAA.a(packet_buffer.c.obj)
 .bss           0x00000000        0x0 mesh/core/libmesh_core_nrf52840_xxAA.a(packet_buffer.c.obj)
 .text.packet_buffer_max_packet_len_get
                0x00000000       0x34 mesh/core/libmesh_core_nrf52840_xxAA.a(packet_buffer.c.obj)
 .text          0x00000000        0x0 mesh/core/libmesh_core_nrf52840_xxAA.a(flash_manager_defrag.c.obj)
 .data          0x00000000        0x0 mesh/core/libmesh_core_nrf52840_xxAA.a(flash_manager_defrag.c.obj)
 .bss           0x00000000        0x0 mesh/core/libmesh_core_nrf52840_xxAA.a(flash_manager_defrag.c.obj)
 .text.flash_manager_defragging
                0x00000000       0x44 mesh/core/libmesh_core_nrf52840_xxAA.a(flash_manager_defrag.c.obj)
 .text          0x00000000        0x0 mesh/core/libmesh_core_nrf52840_xxAA.a(fifo.c.obj)
 .data          0x00000000        0x0 mesh/core/libmesh_core_nrf52840_xxAA.a(fifo.c.obj)
 .bss           0x00000000        0x0 mesh/core/libmesh_core_nrf52840_xxAA.a(fifo.c.obj)
 .text.fifo_peek_at
                0x00000000       0x50 mesh/core/libmesh_core_nrf52840_xxAA.a(fifo.c.obj)
 .text.fifo_peek
                0x00000000        0x6 mesh/core/libmesh_core_nrf52840_xxAA.a(fifo.c.obj)
 .text.fifo_flush
                0x00000000        0x6 mesh/core/libmesh_core_nrf52840_xxAA.a(fifo.c.obj)
 .text.fifo_get_len
                0x00000000        0x8 mesh/core/libmesh_core_nrf52840_xxAA.a(fifo.c.obj)
 .text.fifo_is_full
                0x00000000       0x10 mesh/core/libmesh_core_nrf52840_xxAA.a(fifo.c.obj)
 .text.fifo_is_empty
                0x00000000        0xc mesh/core/libmesh_core_nrf52840_xxAA.a(fifo.c.obj)
 .text          0x00000000        0x0 mesh/core/libmesh_core_nrf52840_xxAA.a(packet_mgr.c.obj)
 .data          0x00000000        0x0 mesh/core/libmesh_core_nrf52840_xxAA.a(packet_mgr.c.obj)
 .bss           0x00000000        0x0 mesh/core/libmesh_core_nrf52840_xxAA.a(packet_mgr.c.obj)
 .text.packet_mgr_alloc
                0x00000000      0x19c mesh/core/libmesh_core_nrf52840_xxAA.a(packet_mgr.c.obj)
 .text.packet_mgr_free
                0x00000000       0x6c mesh/core/libmesh_core_nrf52840_xxAA.a(packet_mgr.c.obj)
 .text.packet_mgr_get_free_space
                0x00000000       0x1c mesh/core/libmesh_core_nrf52840_xxAA.a(packet_mgr.c.obj)
 .text.packet_mgr_refcount_get
                0x00000000        0x6 mesh/core/libmesh_core_nrf52840_xxAA.a(packet_mgr.c.obj)
 .text.packet_mgr_size_get
                0x00000000        0x6 mesh/core/libmesh_core_nrf52840_xxAA.a(packet_mgr.c.obj)
 .text          0x00000000        0x0 mesh/core/libmesh_core_nrf52840_xxAA.a(mesh_flash.c.obj)
 .data          0x00000000        0x0 mesh/core/libmesh_core_nrf52840_xxAA.a(mesh_flash.c.obj)
 .bss           0x00000000        0x0 mesh/core/libmesh_core_nrf52840_xxAA.a(mesh_flash.c.obj)
 .text.mesh_flash_op_available_slots
                0x00000000       0x2c mesh/core/libmesh_core_nrf52840_xxAA.a(mesh_flash.c.obj)
 .text.mesh_flash_in_progress
                0x00000000       0x34 mesh/core/libmesh_core_nrf52840_xxAA.a(mesh_flash.c.obj)
 .text.mesh_flash_set_suspended
                0x00000000       0x80 mesh/core/libmesh_core_nrf52840_xxAA.a(mesh_flash.c.obj)
 .bss.suspend_count.10223
                0x00000000        0x4 mesh/core/libmesh_core_nrf52840_xxAA.a(mesh_flash.c.obj)
 .text          0x00000000        0x0 mesh/core/libmesh_core_nrf52840_xxAA.a(queue.c.obj)
 .data          0x00000000        0x0 mesh/core/libmesh_core_nrf52840_xxAA.a(queue.c.obj)
 .bss           0x00000000        0x0 mesh/core/libmesh_core_nrf52840_xxAA.a(queue.c.obj)
 .text          0x00000000        0x0 mesh/core/libmesh_core_nrf52840_xxAA.a(aes_cmac.c.obj)
 .data          0x00000000        0x0 mesh/core/libmesh_core_nrf52840_xxAA.a(aes_cmac.c.obj)
 .bss           0x00000000        0x0 mesh/core/libmesh_core_nrf52840_xxAA.a(aes_cmac.c.obj)
 .text          0x00000000        0x0 mesh/core/libmesh_core_nrf52840_xxAA.a(msqueue.c.obj)
 .data          0x00000000        0x0 mesh/core/libmesh_core_nrf52840_xxAA.a(msqueue.c.obj)
 .bss           0x00000000        0x0 mesh/core/libmesh_core_nrf52840_xxAA.a(msqueue.c.obj)
 .text          0x00000000        0x0 mesh/core/libmesh_core_nrf52840_xxAA.a(replay_cache.c.obj)
 .data          0x00000000        0x0 mesh/core/libmesh_core_nrf52840_xxAA.a(replay_cache.c.obj)
 .bss           0x00000000        0x0 mesh/core/libmesh_core_nrf52840_xxAA.a(replay_cache.c.obj)
 .text.replay_cache_on_iv_update
                0x00000000       0x24 mesh/core/libmesh_core_nrf52840_xxAA.a(replay_cache.c.obj)
 .text          0x00000000        0x0 mesh/core/libmesh_core_nrf52840_xxAA.a(nrf_flash.c.obj)
 .data          0x00000000        0x0 mesh/core/libmesh_core_nrf52840_xxAA.a(nrf_flash.c.obj)
 .bss           0x00000000        0x0 mesh/core/libmesh_core_nrf52840_xxAA.a(nrf_flash.c.obj)
 .text          0x00000000        0x0 external/rtt/librtt_nrf52840_xxAA.a(SEGGER_RTT.c.obj)
 .data          0x00000000        0x0 external/rtt/librtt_nrf52840_xxAA.a(SEGGER_RTT.c.obj)
 .bss           0x00000000        0x0 external/rtt/librtt_nrf52840_xxAA.a(SEGGER_RTT.c.obj)
 .text._PostTerminalSwitch.constprop.0
                0x00000000       0x28 external/rtt/librtt_nrf52840_xxAA.a(SEGGER_RTT.c.obj)
 .text.SEGGER_RTT_ReadNoLock
                0x00000000       0x88 external/rtt/librtt_nrf52840_xxAA.a(SEGGER_RTT.c.obj)
 .text.SEGGER_RTT_Read
                0x00000000       0x1c external/rtt/librtt_nrf52840_xxAA.a(SEGGER_RTT.c.obj)
 .text.SEGGER_RTT_WriteSkipNoLock
                0x00000000       0xb4 external/rtt/librtt_nrf52840_xxAA.a(SEGGER_RTT.c.obj)
 .text.SEGGER_RTT_WriteString
                0x00000000       0x1a external/rtt/librtt_nrf52840_xxAA.a(SEGGER_RTT.c.obj)
 .text.SEGGER_RTT_GetKey
                0x00000000       0x20 external/rtt/librtt_nrf52840_xxAA.a(SEGGER_RTT.c.obj)
 .text.SEGGER_RTT_WaitKey
                0x00000000        0xc external/rtt/librtt_nrf52840_xxAA.a(SEGGER_RTT.c.obj)
 .text.SEGGER_RTT_HasKey
                0x00000000       0x1c external/rtt/librtt_nrf52840_xxAA.a(SEGGER_RTT.c.obj)
 .text.SEGGER_RTT_HasData
                0x00000000       0x14 external/rtt/librtt_nrf52840_xxAA.a(SEGGER_RTT.c.obj)
 .text.SEGGER_RTT_AllocDownBuffer
                0x00000000       0x68 external/rtt/librtt_nrf52840_xxAA.a(SEGGER_RTT.c.obj)
 .text.SEGGER_RTT_AllocUpBuffer
                0x00000000       0x70 external/rtt/librtt_nrf52840_xxAA.a(SEGGER_RTT.c.obj)
 .text.SEGGER_RTT_ConfigUpBuffer
                0x00000000       0x68 external/rtt/librtt_nrf52840_xxAA.a(SEGGER_RTT.c.obj)
 .text.SEGGER_RTT_ConfigDownBuffer
                0x00000000       0x60 external/rtt/librtt_nrf52840_xxAA.a(SEGGER_RTT.c.obj)
 .text.SEGGER_RTT_SetNameUpBuffer
                0x00000000       0x3c external/rtt/librtt_nrf52840_xxAA.a(SEGGER_RTT.c.obj)
 .text.SEGGER_RTT_SetNameDownBuffer
                0x00000000       0x3c external/rtt/librtt_nrf52840_xxAA.a(SEGGER_RTT.c.obj)
 .text.SEGGER_RTT_Init
                0x00000000       0x10 external/rtt/librtt_nrf52840_xxAA.a(SEGGER_RTT.c.obj)
 .text.SEGGER_RTT_SetTerminal
                0x00000000       0x84 external/rtt/librtt_nrf52840_xxAA.a(SEGGER_RTT.c.obj)
 .text.SEGGER_RTT_TerminalOut
                0x00000000       0xa0 external/rtt/librtt_nrf52840_xxAA.a(SEGGER_RTT.c.obj)
 .bss._ActiveTerminal
                0x00000000        0x1 external/rtt/librtt_nrf52840_xxAA.a(SEGGER_RTT.c.obj)
 .rodata._aTerminalId
                0x00000000       0x10 external/rtt/librtt_nrf52840_xxAA.a(SEGGER_RTT.c.obj)
 .text          0x00000000        0x0 external/rtt/librtt_nrf52840_xxAA.a(SEGGER_RTT_printf.c.obj)
 .data          0x00000000        0x0 external/rtt/librtt_nrf52840_xxAA.a(SEGGER_RTT_printf.c.obj)
 .bss           0x00000000        0x0 external/rtt/librtt_nrf52840_xxAA.a(SEGGER_RTT_printf.c.obj)
 .text          0x00000000        0x0 external/micro-ecc/libuECC_nrf52840_xxAA.a(uECC.c.obj)
 .data          0x00000000        0x0 external/micro-ecc/libuECC_nrf52840_xxAA.a(uECC.c.obj)
 .bss           0x00000000        0x0 external/micro-ecc/libuECC_nrf52840_xxAA.a(uECC.c.obj)
 .text.uECC_vli_modMult
                0x00000000      0x148 external/micro-ecc/libuECC_nrf52840_xxAA.a(uECC.c.obj)
 .text.HMAC_init
                0x00000000       0x46 external/micro-ecc/libuECC_nrf52840_xxAA.a(uECC.c.obj)
 .text.HMAC_update
                0x00000000        0x4 external/micro-ecc/libuECC_nrf52840_xxAA.a(uECC.c.obj)
 .text.HMAC_finish
                0x00000000       0x62 external/micro-ecc/libuECC_nrf52840_xxAA.a(uECC.c.obj)
 .text.update_V
                0x00000000       0x24 external/micro-ecc/libuECC_nrf52840_xxAA.a(uECC.c.obj)
 .text.bits2int
                0x00000000       0x88 external/micro-ecc/libuECC_nrf52840_xxAA.a(uECC.c.obj)
 .text.uECC_sign_with_k
                0x00000000      0x17c external/micro-ecc/libuECC_nrf52840_xxAA.a(uECC.c.obj)
 .text.uECC_set_rng
                0x00000000        0xc external/micro-ecc/libuECC_nrf52840_xxAA.a(uECC.c.obj)
 .text.uECC_get_rng
                0x00000000        0xc external/micro-ecc/libuECC_nrf52840_xxAA.a(uECC.c.obj)
 .text.uECC_curve_private_key_size
                0x00000000        0xe external/micro-ecc/libuECC_nrf52840_xxAA.a(uECC.c.obj)
 .text.uECC_curve_public_key_size
                0x00000000        0x8 external/micro-ecc/libuECC_nrf52840_xxAA.a(uECC.c.obj)
 .text.uECC_compute_public_key
                0x00000000       0x7e external/micro-ecc/libuECC_nrf52840_xxAA.a(uECC.c.obj)
 .text.uECC_sign
                0x00000000       0x56 external/micro-ecc/libuECC_nrf52840_xxAA.a(uECC.c.obj)
 .text.uECC_sign_deterministic
                0x00000000      0x192 external/micro-ecc/libuECC_nrf52840_xxAA.a(uECC.c.obj)
 .text.uECC_verify
                0x00000000      0x2f0 external/micro-ecc/libuECC_nrf52840_xxAA.a(uECC.c.obj)
 .text          0x00000000        0x0 c:/a/gcc_arm/6/bin/../lib/gcc/arm-none-eabi/6.3.1/../../../../arm-none-eabi/lib/thumb/v7e-m/fpv4-sp/hard\libg_nano.a(lib_a-exit.o)
 .data          0x00000000        0x0 c:/a/gcc_arm/6/bin/../lib/gcc/arm-none-eabi/6.3.1/../../../../arm-none-eabi/lib/thumb/v7e-m/fpv4-sp/hard\libg_nano.a(lib_a-exit.o)
 .bss           0x00000000        0x0 c:/a/gcc_arm/6/bin/../lib/gcc/arm-none-eabi/6.3.1/../../../../arm-none-eabi/lib/thumb/v7e-m/fpv4-sp/hard\libg_nano.a(lib_a-exit.o)
 .text          0x00000000        0x0 c:/a/gcc_arm/6/bin/../lib/gcc/arm-none-eabi/6.3.1/../../../../arm-none-eabi/lib/thumb/v7e-m/fpv4-sp/hard\libg_nano.a(lib_a-impure.o)
 .data          0x00000000        0x0 c:/a/gcc_arm/6/bin/../lib/gcc/arm-none-eabi/6.3.1/../../../../arm-none-eabi/lib/thumb/v7e-m/fpv4-sp/hard\libg_nano.a(lib_a-impure.o)
 .bss           0x00000000        0x0 c:/a/gcc_arm/6/bin/../lib/gcc/arm-none-eabi/6.3.1/../../../../arm-none-eabi/lib/thumb/v7e-m/fpv4-sp/hard\libg_nano.a(lib_a-impure.o)
 .text          0x00000000        0x0 c:/a/gcc_arm/6/bin/../lib/gcc/arm-none-eabi/6.3.1/../../../../arm-none-eabi/lib/thumb/v7e-m/fpv4-sp/hard\libg_nano.a(lib_a-init.o)
 .data          0x00000000        0x0 c:/a/gcc_arm/6/bin/../lib/gcc/arm-none-eabi/6.3.1/../../../../arm-none-eabi/lib/thumb/v7e-m/fpv4-sp/hard\libg_nano.a(lib_a-init.o)
 .bss           0x00000000        0x0 c:/a/gcc_arm/6/bin/../lib/gcc/arm-none-eabi/6.3.1/../../../../arm-none-eabi/lib/thumb/v7e-m/fpv4-sp/hard\libg_nano.a(lib_a-init.o)
 .text          0x00000000        0x0 c:/a/gcc_arm/6/bin/../lib/gcc/arm-none-eabi/6.3.1/../../../../arm-none-eabi/lib/thumb/v7e-m/fpv4-sp/hard\libg_nano.a(lib_a-malloc.o)
 .data          0x00000000        0x0 c:/a/gcc_arm/6/bin/../lib/gcc/arm-none-eabi/6.3.1/../../../../arm-none-eabi/lib/thumb/v7e-m/fpv4-sp/hard\libg_nano.a(lib_a-malloc.o)
 .bss           0x00000000        0x0 c:/a/gcc_arm/6/bin/../lib/gcc/arm-none-eabi/6.3.1/../../../../arm-none-eabi/lib/thumb/v7e-m/fpv4-sp/hard\libg_nano.a(lib_a-malloc.o)
 .text          0x00000000        0x0 c:/a/gcc_arm/6/bin/../lib/gcc/arm-none-eabi/6.3.1/../../../../arm-none-eabi/lib/thumb/v7e-m/fpv4-sp/hard\libg_nano.a(lib_a-memcmp.o)
 .data          0x00000000        0x0 c:/a/gcc_arm/6/bin/../lib/gcc/arm-none-eabi/6.3.1/../../../../arm-none-eabi/lib/thumb/v7e-m/fpv4-sp/hard\libg_nano.a(lib_a-memcmp.o)
 .bss           0x00000000        0x0 c:/a/gcc_arm/6/bin/../lib/gcc/arm-none-eabi/6.3.1/../../../../arm-none-eabi/lib/thumb/v7e-m/fpv4-sp/hard\libg_nano.a(lib_a-memcmp.o)
 .text          0x00000000        0x0 c:/a/gcc_arm/6/bin/../lib/gcc/arm-none-eabi/6.3.1/../../../../arm-none-eabi/lib/thumb/v7e-m/fpv4-sp/hard\libg_nano.a(lib_a-memcpy-stub.o)
 .data          0x00000000        0x0 c:/a/gcc_arm/6/bin/../lib/gcc/arm-none-eabi/6.3.1/../../../../arm-none-eabi/lib/thumb/v7e-m/fpv4-sp/hard\libg_nano.a(lib_a-memcpy-stub.o)
 .bss           0x00000000        0x0 c:/a/gcc_arm/6/bin/../lib/gcc/arm-none-eabi/6.3.1/../../../../arm-none-eabi/lib/thumb/v7e-m/fpv4-sp/hard\libg_nano.a(lib_a-memcpy-stub.o)
 .text          0x00000000        0x0 c:/a/gcc_arm/6/bin/../lib/gcc/arm-none-eabi/6.3.1/../../../../arm-none-eabi/lib/thumb/v7e-m/fpv4-sp/hard\libg_nano.a(lib_a-memset.o)
 .data          0x00000000        0x0 c:/a/gcc_arm/6/bin/../lib/gcc/arm-none-eabi/6.3.1/../../../../arm-none-eabi/lib/thumb/v7e-m/fpv4-sp/hard\libg_nano.a(lib_a-memset.o)
 .bss           0x00000000        0x0 c:/a/gcc_arm/6/bin/../lib/gcc/arm-none-eabi/6.3.1/../../../../arm-none-eabi/lib/thumb/v7e-m/fpv4-sp/hard\libg_nano.a(lib_a-memset.o)
 .text          0x00000000        0x0 c:/a/gcc_arm/6/bin/../lib/gcc/arm-none-eabi/6.3.1/../../../../arm-none-eabi/lib/thumb/v7e-m/fpv4-sp/hard\libg_nano.a(lib_a-nano-freer.o)
 .data          0x00000000        0x0 c:/a/gcc_arm/6/bin/../lib/gcc/arm-none-eabi/6.3.1/../../../../arm-none-eabi/lib/thumb/v7e-m/fpv4-sp/hard\libg_nano.a(lib_a-nano-freer.o)
 .bss           0x00000000        0x0 c:/a/gcc_arm/6/bin/../lib/gcc/arm-none-eabi/6.3.1/../../../../arm-none-eabi/lib/thumb/v7e-m/fpv4-sp/hard\libg_nano.a(lib_a-nano-freer.o)
 .text          0x00000000        0x0 c:/a/gcc_arm/6/bin/../lib/gcc/arm-none-eabi/6.3.1/../../../../arm-none-eabi/lib/thumb/v7e-m/fpv4-sp/hard\libg_nano.a(lib_a-nano-mallocr.o)
 .data          0x00000000        0x0 c:/a/gcc_arm/6/bin/../lib/gcc/arm-none-eabi/6.3.1/../../../../arm-none-eabi/lib/thumb/v7e-m/fpv4-sp/hard\libg_nano.a(lib_a-nano-mallocr.o)
 .bss           0x00000000        0x0 c:/a/gcc_arm/6/bin/../lib/gcc/arm-none-eabi/6.3.1/../../../../arm-none-eabi/lib/thumb/v7e-m/fpv4-sp/hard\libg_nano.a(lib_a-nano-mallocr.o)
 .text          0x00000000        0x0 c:/a/gcc_arm/6/bin/../lib/gcc/arm-none-eabi/6.3.1/../../../../arm-none-eabi/lib/thumb/v7e-m/fpv4-sp/hard\libg_nano.a(lib_a-sbrkr.o)
 .data          0x00000000        0x0 c:/a/gcc_arm/6/bin/../lib/gcc/arm-none-eabi/6.3.1/../../../../arm-none-eabi/lib/thumb/v7e-m/fpv4-sp/hard\libg_nano.a(lib_a-sbrkr.o)
 .bss           0x00000000        0x0 c:/a/gcc_arm/6/bin/../lib/gcc/arm-none-eabi/6.3.1/../../../../arm-none-eabi/lib/thumb/v7e-m/fpv4-sp/hard\libg_nano.a(lib_a-sbrkr.o)
 .text          0x00000000        0x0 c:/a/gcc_arm/6/bin/../lib/gcc/arm-none-eabi/6.3.1/../../../../arm-none-eabi/lib/thumb/v7e-m/fpv4-sp/hard\libg_nano.a(lib_a-strcpy.o)
 .data          0x00000000        0x0 c:/a/gcc_arm/6/bin/../lib/gcc/arm-none-eabi/6.3.1/../../../../arm-none-eabi/lib/thumb/v7e-m/fpv4-sp/hard\libg_nano.a(lib_a-strcpy.o)
 .bss           0x00000000        0x0 c:/a/gcc_arm/6/bin/../lib/gcc/arm-none-eabi/6.3.1/../../../../arm-none-eabi/lib/thumb/v7e-m/fpv4-sp/hard\libg_nano.a(lib_a-strcpy.o)
 .data          0x00000000        0x0 c:/a/gcc_arm/6/bin/../lib/gcc/arm-none-eabi/6.3.1/../../../../arm-none-eabi/lib/thumb/v7e-m/fpv4-sp/hard\libg_nano.a(lib_a-strlen.o)
 .bss           0x00000000        0x0 c:/a/gcc_arm/6/bin/../lib/gcc/arm-none-eabi/6.3.1/../../../../arm-none-eabi/lib/thumb/v7e-m/fpv4-sp/hard\libg_nano.a(lib_a-strlen.o)
 .text          0x00000000        0x0 c:/a/gcc_arm/6/bin/../lib/gcc/arm-none-eabi/6.3.1/../../../../arm-none-eabi/lib/thumb/v7e-m/fpv4-sp/hard\libg_nano.a(lib_a-strrchr.o)
 .data          0x00000000        0x0 c:/a/gcc_arm/6/bin/../lib/gcc/arm-none-eabi/6.3.1/../../../../arm-none-eabi/lib/thumb/v7e-m/fpv4-sp/hard\libg_nano.a(lib_a-strrchr.o)
 .bss           0x00000000        0x0 c:/a/gcc_arm/6/bin/../lib/gcc/arm-none-eabi/6.3.1/../../../../arm-none-eabi/lib/thumb/v7e-m/fpv4-sp/hard\libg_nano.a(lib_a-strrchr.o)
 .text          0x00000000        0x0 c:/a/gcc_arm/6/bin/../lib/gcc/arm-none-eabi/6.3.1/../../../../arm-none-eabi/lib/thumb/v7e-m/fpv4-sp/hard\libg_nano.a(lib_a-mlock.o)
 .data          0x00000000        0x0 c:/a/gcc_arm/6/bin/../lib/gcc/arm-none-eabi/6.3.1/../../../../arm-none-eabi/lib/thumb/v7e-m/fpv4-sp/hard\libg_nano.a(lib_a-mlock.o)
 .bss           0x00000000        0x0 c:/a/gcc_arm/6/bin/../lib/gcc/arm-none-eabi/6.3.1/../../../../arm-none-eabi/lib/thumb/v7e-m/fpv4-sp/hard\libg_nano.a(lib_a-mlock.o)
 .text          0x00000000        0x0 c:/a/gcc_arm/6/bin/../lib/gcc/arm-none-eabi/6.3.1/../../../../arm-none-eabi/lib/thumb/v7e-m/fpv4-sp/hard\libg_nano.a(lib_a-reent.o)
 .data          0x00000000        0x0 c:/a/gcc_arm/6/bin/../lib/gcc/arm-none-eabi/6.3.1/../../../../arm-none-eabi/lib/thumb/v7e-m/fpv4-sp/hard\libg_nano.a(lib_a-reent.o)
 .bss           0x00000000        0x0 c:/a/gcc_arm/6/bin/../lib/gcc/arm-none-eabi/6.3.1/../../../../arm-none-eabi/lib/thumb/v7e-m/fpv4-sp/hard\libg_nano.a(lib_a-reent.o)
 .text.cleanup_glue
                0x00000000       0x1a c:/a/gcc_arm/6/bin/../lib/gcc/arm-none-eabi/6.3.1/../../../../arm-none-eabi/lib/thumb/v7e-m/fpv4-sp/hard\libg_nano.a(lib_a-reent.o)
 .text._reclaim_reent
                0x00000000       0xb8 c:/a/gcc_arm/6/bin/../lib/gcc/arm-none-eabi/6.3.1/../../../../arm-none-eabi/lib/thumb/v7e-m/fpv4-sp/hard\libg_nano.a(lib_a-reent.o)
 .text          0x00000000        0x0 c:/a/gcc_arm/6/bin/../lib/gcc/arm-none-eabi/6.3.1/../../../../arm-none-eabi/lib/thumb/v7e-m/fpv4-sp/hard\libg_nano.a(lib_a-strchr.o)
 .data          0x00000000        0x0 c:/a/gcc_arm/6/bin/../lib/gcc/arm-none-eabi/6.3.1/../../../../arm-none-eabi/lib/thumb/v7e-m/fpv4-sp/hard\libg_nano.a(lib_a-strchr.o)
 .bss           0x00000000        0x0 c:/a/gcc_arm/6/bin/../lib/gcc/arm-none-eabi/6.3.1/../../../../arm-none-eabi/lib/thumb/v7e-m/fpv4-sp/hard\libg_nano.a(lib_a-strchr.o)
 .text          0x00000000        0x0 c:/a/gcc_arm/6/bin/../lib/gcc/arm-none-eabi/6.3.1/thumb/v7e-m/fpv4-sp/hard/crtend.o
 .data          0x00000000        0x0 c:/a/gcc_arm/6/bin/../lib/gcc/arm-none-eabi/6.3.1/thumb/v7e-m/fpv4-sp/hard/crtend.o
 .bss           0x00000000        0x0 c:/a/gcc_arm/6/bin/../lib/gcc/arm-none-eabi/6.3.1/thumb/v7e-m/fpv4-sp/hard/crtend.o
 .text          0x00000000        0x0 c:/a/gcc_arm/6/bin/../lib/gcc/arm-none-eabi/6.3.1/thumb/v7e-m/fpv4-sp/hard/crtn.o
 .data          0x00000000        0x0 c:/a/gcc_arm/6/bin/../lib/gcc/arm-none-eabi/6.3.1/thumb/v7e-m/fpv4-sp/hard/crtn.o
 .bss           0x00000000        0x0 c:/a/gcc_arm/6/bin/../lib/gcc/arm-none-eabi/6.3.1/thumb/v7e-m/fpv4-sp/hard/crtn.o
 .text          0x00000000        0x0 c:/a/gcc_arm/6/bin/../lib/gcc/arm-none-eabi/6.3.1/../../../../arm-none-eabi/lib/thumb/v7e-m/fpv4-sp/hard\libnosys.a(sbrk.o)
 .data          0x00000000        0x0 c:/a/gcc_arm/6/bin/../lib/gcc/arm-none-eabi/6.3.1/../../../../arm-none-eabi/lib/thumb/v7e-m/fpv4-sp/hard\libnosys.a(sbrk.o)
 .bss           0x00000000        0x0 c:/a/gcc_arm/6/bin/../lib/gcc/arm-none-eabi/6.3.1/../../../../arm-none-eabi/lib/thumb/v7e-m/fpv4-sp/hard\libnosys.a(sbrk.o)
 .text          0x00000000        0x0 c:/a/gcc_arm/6/bin/../lib/gcc/arm-none-eabi/6.3.1/../../../../arm-none-eabi/lib/thumb/v7e-m/fpv4-sp/hard\libnosys.a(_exit.o)
 .data          0x00000000        0x0 c:/a/gcc_arm/6/bin/../lib/gcc/arm-none-eabi/6.3.1/../../../../arm-none-eabi/lib/thumb/v7e-m/fpv4-sp/hard\libnosys.a(_exit.o)
 .bss           0x00000000        0x0 c:/a/gcc_arm/6/bin/../lib/gcc/arm-none-eabi/6.3.1/../../../../arm-none-eabi/lib/thumb/v7e-m/fpv4-sp/hard\libnosys.a(_exit.o)

Memory Configuration

Name             Origin             Length             Attributes
FLASH            0x00024000         0x000d4000         xr
RAM              0x200031b8         0x0003cb48         xrw
*default*        0x00000000         0xffffffff

Linker script and memory map


.text           0x00024000    0x13164
 *(.isr_vector)
 .isr_vector    0x00024000      0x200 examples/light_switch/server/CMakeFiles/light_switch_server_nrf52840_xxAA_s140_5.0.0-3.alpha.dir/__/__/__/external/nRF5_SDK_14.2.0_17b948a/components/toolchain/gcc/gcc_startup_nrf52840.S.obj
                0x00024000                __isr_vector
 *(.text*)
 .text          0x00024200       0x6c c:/a/gcc_arm/6/bin/../lib/gcc/arm-none-eabi/6.3.1/thumb/v7e-m/fpv4-sp/hard/crtbegin.o
 .text          0x0002426c       0x74 c:/a/gcc_arm/6/bin/../lib/gcc/arm-none-eabi/6.3.1/../../../../arm-none-eabi/lib/thumb/v7e-m/fpv4-sp/hard/crt0.o
                0x0002426c                _start
                0x0002426c                _mainCRTStartup
 .text.sd_app_evt_wait
                0x000242e0        0x4 examples/light_switch/server/CMakeFiles/light_switch_server_nrf52840_xxAA_s140_5.0.0-3.alpha.dir/src/main.c.obj
 .text.configuration_setup
                0x000242e4       0xa8 examples/light_switch/server/CMakeFiles/light_switch_server_nrf52840_xxAA_s140_5.0.0-3.alpha.dir/src/main.c.obj
 .text.set_cb   0x0002438c       0x70 examples/light_switch/server/CMakeFiles/light_switch_server_nrf52840_xxAA_s140_5.0.0-3.alpha.dir/src/main.c.obj
 .text.get_cb   0x000243fc        0x6 examples/light_switch/server/CMakeFiles/light_switch_server_nrf52840_xxAA_s140_5.0.0-3.alpha.dir/src/main.c.obj
 *fill*         0x00024402        0x2 
 .text.provisioning_complete
                0x00024404       0x7c examples/light_switch/server/CMakeFiles/light_switch_server_nrf52840_xxAA_s140_5.0.0-3.alpha.dir/src/main.c.obj
 .text.startup.main
                0x00024480       0xb0 examples/light_switch/server/CMakeFiles/light_switch_server_nrf52840_xxAA_s140_5.0.0-3.alpha.dir/src/main.c.obj
                0x00024480                main
 .text.sd_evt_get
                0x00024530        0x4 examples/light_switch/server/CMakeFiles/light_switch_server_nrf52840_xxAA_s140_5.0.0-3.alpha.dir/__/__/nrf_mesh_sdk.c.obj
 .text.sd_ble_evt_get
                0x00024534        0x4 examples/light_switch/server/CMakeFiles/light_switch_server_nrf52840_xxAA_s140_5.0.0-3.alpha.dir/__/__/nrf_mesh_sdk.c.obj
 .text.sleep_forever
                0x00024538       0x1c examples/light_switch/server/CMakeFiles/light_switch_server_nrf52840_xxAA_s140_5.0.0-3.alpha.dir/__/__/nrf_mesh_sdk.c.obj
 .text.app_error_handler
                0x00024554       0x78 examples/light_switch/server/CMakeFiles/light_switch_server_nrf52840_xxAA_s140_5.0.0-3.alpha.dir/__/__/nrf_mesh_sdk.c.obj
                0x00024554                app_error_handler
 .text.HardFault_Handler
                0x000245cc       0x6c examples/light_switch/server/CMakeFiles/light_switch_server_nrf52840_xxAA_s140_5.0.0-3.alpha.dir/__/__/nrf_mesh_sdk.c.obj
                0x000245cc                HardFault_Handler
 .text.SWI2_EGU2_IRQHandler
                0x00024638       0x3c examples/light_switch/server/CMakeFiles/light_switch_server_nrf52840_xxAA_s140_5.0.0-3.alpha.dir/__/__/nrf_mesh_sdk.c.obj
                0x00024638                SWI2_EGU2_IRQHandler
 .text.hal_led_pin_get
                0x00024674       0x18 examples/light_switch/server/CMakeFiles/light_switch_server_nrf52840_xxAA_s140_5.0.0-3.alpha.dir/__/__/common/src/simple_hal.c.obj
                0x00024674                hal_led_pin_get
 .text.hal_led_pin_set
                0x0002468c       0x16 examples/light_switch/server/CMakeFiles/light_switch_server_nrf52840_xxAA_s140_5.0.0-3.alpha.dir/__/__/common/src/simple_hal.c.obj
                0x0002468c                hal_led_pin_set
 .text.hal_led_mask_set
                0x000246a2       0x12 examples/light_switch/server/CMakeFiles/light_switch_server_nrf52840_xxAA_s140_5.0.0-3.alpha.dir/__/__/common/src/simple_hal.c.obj
                0x000246a2                hal_led_mask_set
 .text.hal_led_blink_ms
                0x000246b4       0xb4 examples/light_switch/server/CMakeFiles/light_switch_server_nrf52840_xxAA_s140_5.0.0-3.alpha.dir/__/__/common/src/simple_hal.c.obj
                0x000246b4                hal_led_blink_ms
 .text.hal_leds_init
                0x00024768       0x38 examples/light_switch/server/CMakeFiles/light_switch_server_nrf52840_xxAA_s140_5.0.0-3.alpha.dir/__/__/common/src/simple_hal.c.obj
                0x00024768                hal_leds_init
 .text.GPIOTE_IRQHandler
                0x000247a0       0x60 examples/light_switch/server/CMakeFiles/light_switch_server_nrf52840_xxAA_s140_5.0.0-3.alpha.dir/__/__/common/src/simple_hal.c.obj
                0x000247a0                GPIOTE_IRQHandler
 .text._weak_handler
                0x00024800        0x4 examples/light_switch/server/CMakeFiles/light_switch_server_nrf52840_xxAA_s140_5.0.0-3.alpha.dir/__/__/nrf_mesh_weak.c.obj
                0x00024800                nrf_mesh_dfu_init
                0x00024800                nrf_mesh_dfu_jump_to_bootloader
                0x00024800                nrf_mesh_dfu_rx
                0x00024800                prov_provisioner_provision
                0x00024800                nrf_mesh_dfu_bank_info_get
                0x00024800                prov_provisioner_oob_pubkey
                0x00024800                nrf_mesh_dfu_request
                0x00024800                nrf_mesh_dfu_bank_flash
                0x00024800                _weak_handler
                0x00024800                nrf_mesh_dfu_relay
                0x00024800                nrf_mesh_dfu_abort
                0x00024800                mesh_flash_op_execute
                0x00024800                nrf_mesh_dfu_state_get
                0x00024800                prov_provisioner_shared_secret
                0x00024800                prov_provisioner_auth_data
                0x00024800                prov_provisioner_oob_use
 .text.handle_set_cb
                0x00024804       0x7c examples/light_switch/server/CMakeFiles/light_switch_server_nrf52840_xxAA_s140_5.0.0-3.alpha.dir/__/__/__/models/simple_on_off/src/simple_on_off_server.c.obj
 .text.handle_get_cb
                0x00024880       0x50 examples/light_switch/server/CMakeFiles/light_switch_server_nrf52840_xxAA_s140_5.0.0-3.alpha.dir/__/__/__/models/simple_on_off/src/simple_on_off_server.c.obj
 .text.handle_set_unreliable_cb
                0x000248d0       0x58 examples/light_switch/server/CMakeFiles/light_switch_server_nrf52840_xxAA_s140_5.0.0-3.alpha.dir/__/__/__/models/simple_on_off/src/simple_on_off_server.c.obj
 .text.simple_on_off_server_init
                0x00024928       0x40 examples/light_switch/server/CMakeFiles/light_switch_server_nrf52840_xxAA_s140_5.0.0-3.alpha.dir/__/__/__/models/simple_on_off/src/simple_on_off_server.c.obj
                0x00024928                simple_on_off_server_init
 .text.config_composition_data_get
                0x00024968      0x1c8 examples/light_switch/server/CMakeFiles/light_switch_server_nrf52840_xxAA_s140_5.0.0-3.alpha.dir/__/__/__/models/config/src/composition_data.c.obj
                0x00024968                config_composition_data_get
 .text.app_evt_send
                0x00024b30       0x10 examples/light_switch/server/CMakeFiles/light_switch_server_nrf52840_xxAA_s140_5.0.0-3.alpha.dir/__/__/__/models/config/src/config_server.c.obj
 .text.extract_model_id
                0x00024b40       0x12 examples/light_switch/server/CMakeFiles/light_switch_server_nrf52840_xxAA_s140_5.0.0-3.alpha.dir/__/__/__/models/config/src/config_server.c.obj
 *fill*         0x00024b52        0x2 
 .text.config_server_heartbeat_publication_count_decrement
                0x00024b54       0x1c examples/light_switch/server/CMakeFiles/light_switch_server_nrf52840_xxAA_s140_5.0.0-3.alpha.dir/__/__/__/models/config/src/config_server.c.obj
 .text.get_element_index
                0x00024b70       0x26 examples/light_switch/server/CMakeFiles/light_switch_server_nrf52840_xxAA_s140_5.0.0-3.alpha.dir/__/__/__/models/config/src/config_server.c.obj
 *fill*         0x00024b96        0x2 
 .text.config_server_heartbeat_publication_params_get
                0x00024b98       0x34 examples/light_switch/server/CMakeFiles/light_switch_server_nrf52840_xxAA_s140_5.0.0-3.alpha.dir/__/__/__/models/config/src/config_server.c.obj
 .text.send_reply
                0x00024bcc       0x3a examples/light_switch/server/CMakeFiles/light_switch_server_nrf52840_xxAA_s140_5.0.0-3.alpha.dir/__/__/__/models/config/src/config_server.c.obj
 *fill*         0x00024c06        0x2 
 .text.send_network_transmit_status
                0x00024c08       0x84 examples/light_switch/server/CMakeFiles/light_switch_server_nrf52840_xxAA_s140_5.0.0-3.alpha.dir/__/__/__/models/config/src/config_server.c.obj
 .text.handle_config_network_transmit_set
                0x00024c8c       0x98 examples/light_switch/server/CMakeFiles/light_switch_server_nrf52840_xxAA_s140_5.0.0-3.alpha.dir/__/__/__/models/config/src/config_server.c.obj
 .text.handle_config_network_transmit_get
                0x00024d24        0xa examples/light_switch/server/CMakeFiles/light_switch_server_nrf52840_xxAA_s140_5.0.0-3.alpha.dir/__/__/__/models/config/src/config_server.c.obj
 *fill*         0x00024d2e        0x2 
 .text.send_relay_status
                0x00024d30       0xac examples/light_switch/server/CMakeFiles/light_switch_server_nrf52840_xxAA_s140_5.0.0-3.alpha.dir/__/__/__/models/config/src/config_server.c.obj
 .text.handle_config_relay_set
                0x00024ddc       0xcc examples/light_switch/server/CMakeFiles/light_switch_server_nrf52840_xxAA_s140_5.0.0-3.alpha.dir/__/__/__/models/config/src/config_server.c.obj
 .text.handle_config_relay_get
                0x00024ea8        0xa examples/light_switch/server/CMakeFiles/light_switch_server_nrf52840_xxAA_s140_5.0.0-3.alpha.dir/__/__/__/models/config/src/config_server.c.obj
 .text.send_subscription_status
                0x00024eb2       0x3a examples/light_switch/server/CMakeFiles/light_switch_server_nrf52840_xxAA_s140_5.0.0-3.alpha.dir/__/__/__/models/config/src/config_server.c.obj
 .text.send_generic_error_reply
                0x00024eec       0x42 examples/light_switch/server/CMakeFiles/light_switch_server_nrf52840_xxAA_s140_5.0.0-3.alpha.dir/__/__/__/models/config/src/config_server.c.obj
 *fill*         0x00024f2e        0x2 
 .text.handle_model_app_get
                0x00024f30      0x18c examples/light_switch/server/CMakeFiles/light_switch_server_nrf52840_xxAA_s140_5.0.0-3.alpha.dir/__/__/__/models/config/src/config_server.c.obj
 .text.handle_node_reset
                0x000250bc       0x38 examples/light_switch/server/CMakeFiles/light_switch_server_nrf52840_xxAA_s140_5.0.0-3.alpha.dir/__/__/__/models/config/src/config_server.c.obj
 .text.handle_netkey_get
                0x000250f4       0x5e examples/light_switch/server/CMakeFiles/light_switch_server_nrf52840_xxAA_s140_5.0.0-3.alpha.dir/__/__/__/models/config/src/config_server.c.obj
 .text.handle_model_app_bind_unbind
                0x00025152       0xfa examples/light_switch/server/CMakeFiles/light_switch_server_nrf52840_xxAA_s140_5.0.0-3.alpha.dir/__/__/__/models/config/src/config_server.c.obj
 .text.handle_config_model_subscription_virtual_address_add
                0x0002524c      0x120 examples/light_switch/server/CMakeFiles/light_switch_server_nrf52840_xxAA_s140_5.0.0-3.alpha.dir/__/__/__/models/config/src/config_server.c.obj
 .text.delete_all_subscriptions
                0x0002536c       0x80 examples/light_switch/server/CMakeFiles/light_switch_server_nrf52840_xxAA_s140_5.0.0-3.alpha.dir/__/__/__/models/config/src/config_server.c.obj
 .text.handle_config_model_subscription_virtual_address_overwrite
                0x000253ec      0x144 examples/light_switch/server/CMakeFiles/light_switch_server_nrf52840_xxAA_s140_5.0.0-3.alpha.dir/__/__/__/models/config/src/config_server.c.obj
 .text.handle_config_model_subscription_delete_all
                0x00025530       0xb6 examples/light_switch/server/CMakeFiles/light_switch_server_nrf52840_xxAA_s140_5.0.0-3.alpha.dir/__/__/__/models/config/src/config_server.c.obj
 *fill*         0x000255e6        0x2 
 .text.handle_config_model_subscription_virtual_address_delete
                0x000255e8      0x130 examples/light_switch/server/CMakeFiles/light_switch_server_nrf52840_xxAA_s140_5.0.0-3.alpha.dir/__/__/__/models/config/src/config_server.c.obj
 .text.handle_config_model_subscription_delete
                0x00025718      0x124 examples/light_switch/server/CMakeFiles/light_switch_server_nrf52840_xxAA_s140_5.0.0-3.alpha.dir/__/__/__/models/config/src/config_server.c.obj
 .text.handle_config_model_subscription_overwrite
                0x0002583c      0x134 examples/light_switch/server/CMakeFiles/light_switch_server_nrf52840_xxAA_s140_5.0.0-3.alpha.dir/__/__/__/models/config/src/config_server.c.obj
 .text.handle_config_model_subscription_add
                0x00025970      0x120 examples/light_switch/server/CMakeFiles/light_switch_server_nrf52840_xxAA_s140_5.0.0-3.alpha.dir/__/__/__/models/config/src/config_server.c.obj
 .text.send_publication_status
                0x00025a90      0x174 examples/light_switch/server/CMakeFiles/light_switch_server_nrf52840_xxAA_s140_5.0.0-3.alpha.dir/__/__/__/models/config/src/config_server.c.obj
 .text.handle_config_model_publication_get
                0x00025c04       0x60 examples/light_switch/server/CMakeFiles/light_switch_server_nrf52840_xxAA_s140_5.0.0-3.alpha.dir/__/__/__/models/config/src/config_server.c.obj
 .text.handle_config_default_ttl_getset
                0x00025c64       0x62 examples/light_switch/server/CMakeFiles/light_switch_server_nrf52840_xxAA_s140_5.0.0-3.alpha.dir/__/__/__/models/config/src/config_server.c.obj
 .text.send_net_beacon_state
                0x00025cc6       0x2a examples/light_switch/server/CMakeFiles/light_switch_server_nrf52840_xxAA_s140_5.0.0-3.alpha.dir/__/__/__/models/config/src/config_server.c.obj
 .text.handle_config_beacon_get
                0x00025cf0        0xa examples/light_switch/server/CMakeFiles/light_switch_server_nrf52840_xxAA_s140_5.0.0-3.alpha.dir/__/__/__/models/config/src/config_server.c.obj
 .text.handle_composition_data_get
                0x00025cfa       0x42 examples/light_switch/server/CMakeFiles/light_switch_server_nrf52840_xxAA_s140_5.0.0-3.alpha.dir/__/__/__/models/config/src/config_server.c.obj
 .text.handle_appkey_get
                0x00025d3c       0xae examples/light_switch/server/CMakeFiles/light_switch_server_nrf52840_xxAA_s140_5.0.0-3.alpha.dir/__/__/__/models/config/src/config_server.c.obj
 *fill*         0x00025dea        0x2 
 .text.handle_config_model_publication_set
                0x00025dec      0x1ec examples/light_switch/server/CMakeFiles/light_switch_server_nrf52840_xxAA_s140_5.0.0-3.alpha.dir/__/__/__/models/config/src/config_server.c.obj
 .text.handle_heartbeat_publication_set
                0x00025fd8      0x124 examples/light_switch/server/CMakeFiles/light_switch_server_nrf52840_xxAA_s140_5.0.0-3.alpha.dir/__/__/__/models/config/src/config_server.c.obj
 .text.heartbeat_pubsub_period_encode
                0x000260fc       0x34 examples/light_switch/server/CMakeFiles/light_switch_server_nrf52840_xxAA_s140_5.0.0-3.alpha.dir/__/__/__/models/config/src/config_server.c.obj
 .text.handle_node_identity_set
                0x00026130       0x30 examples/light_switch/server/CMakeFiles/light_switch_server_nrf52840_xxAA_s140_5.0.0-3.alpha.dir/__/__/__/models/config/src/config_server.c.obj
 .text.handle_node_identity_get
                0x00026160       0x2c examples/light_switch/server/CMakeFiles/light_switch_server_nrf52840_xxAA_s140_5.0.0-3.alpha.dir/__/__/__/models/config/src/config_server.c.obj
 .text.handle_config_gatt_proxy_set
                0x0002618c       0x1e examples/light_switch/server/CMakeFiles/light_switch_server_nrf52840_xxAA_s140_5.0.0-3.alpha.dir/__/__/__/models/config/src/config_server.c.obj
 .text.handle_config_friend_set
                0x000261aa       0x1e examples/light_switch/server/CMakeFiles/light_switch_server_nrf52840_xxAA_s140_5.0.0-3.alpha.dir/__/__/__/models/config/src/config_server.c.obj
 .text.handle_netkey_delete
                0x000261c8       0x78 examples/light_switch/server/CMakeFiles/light_switch_server_nrf52840_xxAA_s140_5.0.0-3.alpha.dir/__/__/__/models/config/src/config_server.c.obj
 .text.handle_config_key_refresh_phase_get
                0x00026240       0x50 examples/light_switch/server/CMakeFiles/light_switch_server_nrf52840_xxAA_s140_5.0.0-3.alpha.dir/__/__/__/models/config/src/config_server.c.obj
 .text.handle_config_key_refresh_phase_set
                0x00026290       0xc4 examples/light_switch/server/CMakeFiles/light_switch_server_nrf52840_xxAA_s140_5.0.0-3.alpha.dir/__/__/__/models/config/src/config_server.c.obj
 .text.handle_config_beacon_set
                0x00026354       0x42 examples/light_switch/server/CMakeFiles/light_switch_server_nrf52840_xxAA_s140_5.0.0-3.alpha.dir/__/__/__/models/config/src/config_server.c.obj
 .text.handle_appkey_add_update
                0x00026396       0xd8 examples/light_switch/server/CMakeFiles/light_switch_server_nrf52840_xxAA_s140_5.0.0-3.alpha.dir/__/__/__/models/config/src/config_server.c.obj
 *fill*         0x0002646e        0x2 
 .text.handle_config_vendor_model_subscription_get
                0x00026470       0xdc examples/light_switch/server/CMakeFiles/light_switch_server_nrf52840_xxAA_s140_5.0.0-3.alpha.dir/__/__/__/models/config/src/config_server.c.obj
 .text.heartbeat_pubsub_count_encode
                0x0002654c       0x34 examples/light_switch/server/CMakeFiles/light_switch_server_nrf52840_xxAA_s140_5.0.0-3.alpha.dir/__/__/__/models/config/src/config_server.c.obj
 .text.handle_heartbeat_publication_get
                0x00026580       0x58 examples/light_switch/server/CMakeFiles/light_switch_server_nrf52840_xxAA_s140_5.0.0-3.alpha.dir/__/__/__/models/config/src/config_server.c.obj
 .text.handle_heartbeat_subscription_get
                0x000265d8       0x60 examples/light_switch/server/CMakeFiles/light_switch_server_nrf52840_xxAA_s140_5.0.0-3.alpha.dir/__/__/__/models/config/src/config_server.c.obj
 .text.handle_config_sig_model_subscription_get
                0x00026638       0xdc examples/light_switch/server/CMakeFiles/light_switch_server_nrf52840_xxAA_s140_5.0.0-3.alpha.dir/__/__/__/models/config/src/config_server.c.obj
 .text.handle_heartbeat_subscription_set
                0x00026714       0xca examples/light_switch/server/CMakeFiles/light_switch_server_nrf52840_xxAA_s140_5.0.0-3.alpha.dir/__/__/__/models/config/src/config_server.c.obj
 .text.handle_config_friend_get
                0x000267de       0x20 examples/light_switch/server/CMakeFiles/light_switch_server_nrf52840_xxAA_s140_5.0.0-3.alpha.dir/__/__/__/models/config/src/config_server.c.obj
 .text.handle_config_gatt_proxy_get
                0x000267fe       0x20 examples/light_switch/server/CMakeFiles/light_switch_server_nrf52840_xxAA_s140_5.0.0-3.alpha.dir/__/__/__/models/config/src/config_server.c.obj
 .text.handle_appkey_delete
                0x0002681e       0x84 examples/light_switch/server/CMakeFiles/light_switch_server_nrf52840_xxAA_s140_5.0.0-3.alpha.dir/__/__/__/models/config/src/config_server.c.obj
 *fill*         0x000268a2        0x2 
 .text.handle_netkey_add_update
                0x000268a4       0x9c examples/light_switch/server/CMakeFiles/light_switch_server_nrf52840_xxAA_s140_5.0.0-3.alpha.dir/__/__/__/models/config/src/config_server.c.obj
 .text.config_server_init
                0x00026940       0x68 examples/light_switch/server/CMakeFiles/light_switch_server_nrf52840_xxAA_s140_5.0.0-3.alpha.dir/__/__/__/models/config/src/config_server.c.obj
                0x00026940                config_server_init
 .text.config_server_bind
                0x000269a8       0x10 examples/light_switch/server/CMakeFiles/light_switch_server_nrf52840_xxAA_s140_5.0.0-3.alpha.dir/__/__/__/models/config/src/config_server.c.obj
                0x000269a8                config_server_bind
 .text.packed_index_list_size
                0x000269b8       0x10 examples/light_switch/server/CMakeFiles/light_switch_server_nrf52840_xxAA_s140_5.0.0-3.alpha.dir/__/__/__/models/config/src/packed_index_list.c.obj
                0x000269b8                packed_index_list_size
 .text.packed_index_list_create
                0x000269c8       0x32 examples/light_switch/server/CMakeFiles/light_switch_server_nrf52840_xxAA_s140_5.0.0-3.alpha.dir/__/__/__/models/config/src/packed_index_list.c.obj
                0x000269c8                packed_index_list_create
 *fill*         0x000269fa        0x2 
 .text.attention_timer_set
                0x000269fc       0xa4 examples/light_switch/server/CMakeFiles/light_switch_server_nrf52840_xxAA_s140_5.0.0-3.alpha.dir/__/__/__/models/health/src/health_server.c.obj
 .text.attention_timer_handler
                0x00026aa0       0x68 examples/light_switch/server/CMakeFiles/light_switch_server_nrf52840_xxAA_s140_5.0.0-3.alpha.dir/__/__/__/models/health/src/health_server.c.obj
 .text.send_attention_status.isra.1
                0x00026b08       0x3e examples/light_switch/server/CMakeFiles/light_switch_server_nrf52840_xxAA_s140_5.0.0-3.alpha.dir/__/__/__/models/health/src/health_server.c.obj
 .text.handle_attention_set
                0x00026b46       0x32 examples/light_switch/server/CMakeFiles/light_switch_server_nrf52840_xxAA_s140_5.0.0-3.alpha.dir/__/__/__/models/health/src/health_server.c.obj
 .text.send_period_status.isra.4
                0x00026b78       0x3e examples/light_switch/server/CMakeFiles/light_switch_server_nrf52840_xxAA_s140_5.0.0-3.alpha.dir/__/__/__/models/health/src/health_server.c.obj
 .text.handle_period_set
                0x00026bb6       0x28 examples/light_switch/server/CMakeFiles/light_switch_server_nrf52840_xxAA_s140_5.0.0-3.alpha.dir/__/__/__/models/health/src/health_server.c.obj
 *fill*         0x00026bde        0x2 
 .text.bitfield_next_get.part.0.constprop.13
                0x00026be0       0x44 examples/light_switch/server/CMakeFiles/light_switch_server_nrf52840_xxAA_s140_5.0.0-3.alpha.dir/__/__/__/models/health/src/health_server.c.obj
 .text.bitfield_popcount.constprop.11
                0x00026c24       0x28 examples/light_switch/server/CMakeFiles/light_switch_server_nrf52840_xxAA_s140_5.0.0-3.alpha.dir/__/__/__/models/health/src/health_server.c.obj
 .text.send_fault_status
                0x00026c4c       0xa4 examples/light_switch/server/CMakeFiles/light_switch_server_nrf52840_xxAA_s140_5.0.0-3.alpha.dir/__/__/__/models/health/src/health_server.c.obj
 .text.health_publish_timeout_handler
                0x00026cf0        0xa examples/light_switch/server/CMakeFiles/light_switch_server_nrf52840_xxAA_s140_5.0.0-3.alpha.dir/__/__/__/models/health/src/health_server.c.obj
 *fill*         0x00026cfa        0x2 
 .text.handle_fault_test
                0x00026cfc       0x74 examples/light_switch/server/CMakeFiles/light_switch_server_nrf52840_xxAA_s140_5.0.0-3.alpha.dir/__/__/__/models/health/src/health_server.c.obj
 .text.handle_fault_get
                0x00026d70       0x40 examples/light_switch/server/CMakeFiles/light_switch_server_nrf52840_xxAA_s140_5.0.0-3.alpha.dir/__/__/__/models/health/src/health_server.c.obj
 .text.handle_fault_clear
                0x00026db0       0x54 examples/light_switch/server/CMakeFiles/light_switch_server_nrf52840_xxAA_s140_5.0.0-3.alpha.dir/__/__/__/models/health/src/health_server.c.obj
 .text.handle_attention_get
                0x00026e04       0x14 examples/light_switch/server/CMakeFiles/light_switch_server_nrf52840_xxAA_s140_5.0.0-3.alpha.dir/__/__/__/models/health/src/health_server.c.obj
 .text.handle_period_get
                0x00026e18       0x12 examples/light_switch/server/CMakeFiles/light_switch_server_nrf52840_xxAA_s140_5.0.0-3.alpha.dir/__/__/__/models/health/src/health_server.c.obj
 *fill*         0x00026e2a        0x2 
 .text.health_server_init
                0x00026e2c       0x6c examples/light_switch/server/CMakeFiles/light_switch_server_nrf52840_xxAA_s140_5.0.0-3.alpha.dir/__/__/__/models/health/src/health_server.c.obj
                0x00026e2c                health_server_init
 .text.add_to_publication_list
                0x00026e98       0x84 examples/light_switch/server/CMakeFiles/light_switch_server_nrf52840_xxAA_s140_5.0.0-3.alpha.dir/__/__/__/mesh/access/src/access_publish.c.obj
 .text.step_resolution_to_us
                0x00026f1c       0x44 examples/light_switch/server/CMakeFiles/light_switch_server_nrf52840_xxAA_s140_5.0.0-3.alpha.dir/__/__/__/mesh/access/src/access_publish.c.obj
 .text.schedule_publication_timer
                0x00026f60      0x184 examples/light_switch/server/CMakeFiles/light_switch_server_nrf52840_xxAA_s140_5.0.0-3.alpha.dir/__/__/__/mesh/access/src/access_publish.c.obj
 .text.publish_timer_tick
                0x000270e4       0xbc examples/light_switch/server/CMakeFiles/light_switch_server_nrf52840_xxAA_s140_5.0.0-3.alpha.dir/__/__/__/mesh/access/src/access_publish.c.obj
 .text.access_publish_init
                0x000271a0       0x38 examples/light_switch/server/CMakeFiles/light_switch_server_nrf52840_xxAA_s140_5.0.0-3.alpha.dir/__/__/__/mesh/access/src/access_publish.c.obj
                0x000271a0                access_publish_init
 .text.access_publish_period_set
                0x000271d8       0x6c examples/light_switch/server/CMakeFiles/light_switch_server_nrf52840_xxAA_s140_5.0.0-3.alpha.dir/__/__/__/mesh/access/src/access_publish.c.obj
                0x000271d8                access_publish_period_set
 .text.access_publish_period_get
                0x00027244       0x30 examples/light_switch/server/CMakeFiles/light_switch_server_nrf52840_xxAA_s140_5.0.0-3.alpha.dir/__/__/__/mesh/access/src/access_publish.c.obj
                0x00027244                access_publish_period_get
 .text.bitfield_get
                0x00027274       0x1a examples/light_switch/server/CMakeFiles/light_switch_server_nrf52840_xxAA_s140_5.0.0-3.alpha.dir/__/__/__/mesh/access/src/access.c.obj
 .text.is_valid_opcode
                0x0002728e       0x42 examples/light_switch/server/CMakeFiles/light_switch_server_nrf52840_xxAA_s140_5.0.0-3.alpha.dir/__/__/__/mesh/access/src/access.c.obj
 .text.model_handle_valid_and_allocated
                0x000272d0       0x20 examples/light_switch/server/CMakeFiles/light_switch_server_nrf52840_xxAA_s140_5.0.0-3.alpha.dir/__/__/__/mesh/access/src/access.c.obj
 .text.flash_invalidate_complete
                0x000272f0       0x14 examples/light_switch/server/CMakeFiles/light_switch_server_nrf52840_xxAA_s140_5.0.0-3.alpha.dir/__/__/__/mesh/access/src/access.c.obj
 .text.flash_manager_mem_available
                0x00027304        0x2 examples/light_switch/server/CMakeFiles/light_switch_server_nrf52840_xxAA_s140_5.0.0-3.alpha.dir/__/__/__/mesh/access/src/access.c.obj
 *fill*         0x00027306        0x2 
 .text.restore_acquired_subscription
                0x00027308       0x24 examples/light_switch/server/CMakeFiles/light_switch_server_nrf52840_xxAA_s140_5.0.0-3.alpha.dir/__/__/__/mesh/access/src/access.c.obj
 .text.restore_acquired_element
                0x0002732c       0x1c examples/light_switch/server/CMakeFiles/light_switch_server_nrf52840_xxAA_s140_5.0.0-3.alpha.dir/__/__/__/mesh/access/src/access.c.obj
 .text.restore_flash_data
                0x00027348       0x5c examples/light_switch/server/CMakeFiles/light_switch_server_nrf52840_xxAA_s140_5.0.0-3.alpha.dir/__/__/__/mesh/access/src/access.c.obj
 .text.access_flash_config_clear
                0x000273a4       0x28 examples/light_switch/server/CMakeFiles/light_switch_server_nrf52840_xxAA_s140_5.0.0-3.alpha.dir/__/__/__/mesh/access/src/access.c.obj
 .text.access_flash_config_store
                0x000273cc      0x114 examples/light_switch/server/CMakeFiles/light_switch_server_nrf52840_xxAA_s140_5.0.0-3.alpha.dir/__/__/__/mesh/access/src/access.c.obj
                0x000273cc                access_flash_config_store
 .text.access_state_clear
                0x000274e0       0x48 examples/light_switch/server/CMakeFiles/light_switch_server_nrf52840_xxAA_s140_5.0.0-3.alpha.dir/__/__/__/mesh/access/src/access.c.obj
 .text.add_flash_manager
                0x00027528       0x58 examples/light_switch/server/CMakeFiles/light_switch_server_nrf52840_xxAA_s140_5.0.0-3.alpha.dir/__/__/__/mesh/access/src/access.c.obj
 .text.flash_remove_complete
                0x00027580       0x4c examples/light_switch/server/CMakeFiles/light_switch_server_nrf52840_xxAA_s140_5.0.0-3.alpha.dir/__/__/__/mesh/access/src/access.c.obj
 .text.flash_write_complete
                0x000275cc       0x54 examples/light_switch/server/CMakeFiles/light_switch_server_nrf52840_xxAA_s140_5.0.0-3.alpha.dir/__/__/__/mesh/access/src/access.c.obj
 .text.unlikely.bitfield_next_get.part.0.constprop.3
                0x00027620       0x34 examples/light_switch/server/CMakeFiles/light_switch_server_nrf52840_xxAA_s140_5.0.0-3.alpha.dir/__/__/__/mesh/access/src/access.c.obj
 .text.restore_acquired_model
                0x00027654       0x84 examples/light_switch/server/CMakeFiles/light_switch_server_nrf52840_xxAA_s140_5.0.0-3.alpha.dir/__/__/__/mesh/access/src/access.c.obj
 .text.handle_incoming
                0x000276d8      0x154 examples/light_switch/server/CMakeFiles/light_switch_server_nrf52840_xxAA_s140_5.0.0-3.alpha.dir/__/__/__/mesh/access/src/access.c.obj
 .text.mesh_evt_cb
                0x0002782c      0x134 examples/light_switch/server/CMakeFiles/light_switch_server_nrf52840_xxAA_s140_5.0.0-3.alpha.dir/__/__/__/mesh/access/src/access.c.obj
 .text.packet_tx
                0x00027960      0x2c4 examples/light_switch/server/CMakeFiles/light_switch_server_nrf52840_xxAA_s140_5.0.0-3.alpha.dir/__/__/__/mesh/access/src/access.c.obj
 .text.access_flash_config_load
                0x00027c24      0x130 examples/light_switch/server/CMakeFiles/light_switch_server_nrf52840_xxAA_s140_5.0.0-3.alpha.dir/__/__/__/mesh/access/src/access.c.obj
                0x00027c24                access_flash_config_load
 .text.access_clear
                0x00027d54       0x12 examples/light_switch/server/CMakeFiles/light_switch_server_nrf52840_xxAA_s140_5.0.0-3.alpha.dir/__/__/__/mesh/access/src/access.c.obj
                0x00027d54                access_clear
 *fill*         0x00027d66        0x2 
 .text.access_init
                0x00027d68       0x28 examples/light_switch/server/CMakeFiles/light_switch_server_nrf52840_xxAA_s140_5.0.0-3.alpha.dir/__/__/__/mesh/access/src/access.c.obj
                0x00027d68                access_init
 .text.access_model_add
                0x00027d90      0x1b8 examples/light_switch/server/CMakeFiles/light_switch_server_nrf52840_xxAA_s140_5.0.0-3.alpha.dir/__/__/__/mesh/access/src/access.c.obj
                0x00027d90                access_model_add
 .text.access_model_publish
                0x00027f48        0xc examples/light_switch/server/CMakeFiles/light_switch_server_nrf52840_xxAA_s140_5.0.0-3.alpha.dir/__/__/__/mesh/access/src/access.c.obj
                0x00027f48                access_model_publish
 .text.access_model_reply
                0x00027f54       0x12 examples/light_switch/server/CMakeFiles/light_switch_server_nrf52840_xxAA_s140_5.0.0-3.alpha.dir/__/__/__/mesh/access/src/access.c.obj
                0x00027f54                access_model_reply
 *fill*         0x00027f66        0x2 
 .text.access_model_publish_address_set
                0x00027f68       0x3c examples/light_switch/server/CMakeFiles/light_switch_server_nrf52840_xxAA_s140_5.0.0-3.alpha.dir/__/__/__/mesh/access/src/access.c.obj
                0x00027f68                access_model_publish_address_set
 .text.access_model_publish_address_get
                0x00027fa4       0x28 examples/light_switch/server/CMakeFiles/light_switch_server_nrf52840_xxAA_s140_5.0.0-3.alpha.dir/__/__/__/mesh/access/src/access.c.obj
                0x00027fa4                access_model_publish_address_get
 .text.access_model_publish_period_set
                0x00027fcc       0x6c examples/light_switch/server/CMakeFiles/light_switch_server_nrf52840_xxAA_s140_5.0.0-3.alpha.dir/__/__/__/mesh/access/src/access.c.obj
                0x00027fcc                access_model_publish_period_set
 .text.access_model_publish_period_get
                0x00028038       0x3c examples/light_switch/server/CMakeFiles/light_switch_server_nrf52840_xxAA_s140_5.0.0-3.alpha.dir/__/__/__/mesh/access/src/access.c.obj
                0x00028038                access_model_publish_period_get
 .text.access_model_subscription_list_alloc
                0x00028074       0x40 examples/light_switch/server/CMakeFiles/light_switch_server_nrf52840_xxAA_s140_5.0.0-3.alpha.dir/__/__/__/mesh/access/src/access.c.obj
                0x00028074                access_model_subscription_list_alloc
 .text.access_model_subscription_add
                0x000280b4       0x60 examples/light_switch/server/CMakeFiles/light_switch_server_nrf52840_xxAA_s140_5.0.0-3.alpha.dir/__/__/__/mesh/access/src/access.c.obj
                0x000280b4                access_model_subscription_add
 .text.access_model_subscription_remove
                0x00028114       0x60 examples/light_switch/server/CMakeFiles/light_switch_server_nrf52840_xxAA_s140_5.0.0-3.alpha.dir/__/__/__/mesh/access/src/access.c.obj
                0x00028114                access_model_subscription_remove
 .text.access_model_subscriptions_get
                0x00028174       0x7c examples/light_switch/server/CMakeFiles/light_switch_server_nrf52840_xxAA_s140_5.0.0-3.alpha.dir/__/__/__/mesh/access/src/access.c.obj
                0x00028174                access_model_subscriptions_get
 .text.access_model_application_bind
                0x000281f0       0x50 examples/light_switch/server/CMakeFiles/light_switch_server_nrf52840_xxAA_s140_5.0.0-3.alpha.dir/__/__/__/mesh/access/src/access.c.obj
                0x000281f0                access_model_application_bind
 .text.access_model_application_unbind
                0x00028240       0x50 examples/light_switch/server/CMakeFiles/light_switch_server_nrf52840_xxAA_s140_5.0.0-3.alpha.dir/__/__/__/mesh/access/src/access.c.obj
                0x00028240                access_model_application_unbind
 .text.access_model_applications_get
                0x00028290       0x58 examples/light_switch/server/CMakeFiles/light_switch_server_nrf52840_xxAA_s140_5.0.0-3.alpha.dir/__/__/__/mesh/access/src/access.c.obj
                0x00028290                access_model_applications_get
 .text.access_model_publish_application_set
                0x000282e8       0x3c examples/light_switch/server/CMakeFiles/light_switch_server_nrf52840_xxAA_s140_5.0.0-3.alpha.dir/__/__/__/mesh/access/src/access.c.obj
                0x000282e8                access_model_publish_application_set
 .text.access_model_publish_application_get
                0x00028324       0x28 examples/light_switch/server/CMakeFiles/light_switch_server_nrf52840_xxAA_s140_5.0.0-3.alpha.dir/__/__/__/mesh/access/src/access.c.obj
                0x00028324                access_model_publish_application_get
 .text.access_default_ttl_set
                0x0002834c       0x10 examples/light_switch/server/CMakeFiles/light_switch_server_nrf52840_xxAA_s140_5.0.0-3.alpha.dir/__/__/__/mesh/access/src/access.c.obj
                0x0002834c                access_default_ttl_set
 .text.access_default_ttl_get
                0x0002835c        0xc examples/light_switch/server/CMakeFiles/light_switch_server_nrf52840_xxAA_s140_5.0.0-3.alpha.dir/__/__/__/mesh/access/src/access.c.obj
                0x0002835c                access_default_ttl_get
 .text.access_model_publish_ttl_set
                0x00028368       0x40 examples/light_switch/server/CMakeFiles/light_switch_server_nrf52840_xxAA_s140_5.0.0-3.alpha.dir/__/__/__/mesh/access/src/access.c.obj
                0x00028368                access_model_publish_ttl_set
 .text.access_model_publish_ttl_get
                0x000283a8       0x28 examples/light_switch/server/CMakeFiles/light_switch_server_nrf52840_xxAA_s140_5.0.0-3.alpha.dir/__/__/__/mesh/access/src/access.c.obj
                0x000283a8                access_model_publish_ttl_get
 .text.access_element_location_get
                0x000283d0       0x18 examples/light_switch/server/CMakeFiles/light_switch_server_nrf52840_xxAA_s140_5.0.0-3.alpha.dir/__/__/__/mesh/access/src/access.c.obj
                0x000283d0                access_element_location_get
 .text.access_element_sig_model_count_get
                0x000283e8       0x18 examples/light_switch/server/CMakeFiles/light_switch_server_nrf52840_xxAA_s140_5.0.0-3.alpha.dir/__/__/__/mesh/access/src/access.c.obj
                0x000283e8                access_element_sig_model_count_get
 .text.access_element_vendor_model_count_get
                0x00028400       0x18 examples/light_switch/server/CMakeFiles/light_switch_server_nrf52840_xxAA_s140_5.0.0-3.alpha.dir/__/__/__/mesh/access/src/access.c.obj
                0x00028400                access_element_vendor_model_count_get
 .text.access_model_id_get
                0x00028418       0x2c examples/light_switch/server/CMakeFiles/light_switch_server_nrf52840_xxAA_s140_5.0.0-3.alpha.dir/__/__/__/mesh/access/src/access.c.obj
                0x00028418                access_model_id_get
 .text.access_handle_get
                0x00028444       0x4c examples/light_switch/server/CMakeFiles/light_switch_server_nrf52840_xxAA_s140_5.0.0-3.alpha.dir/__/__/__/mesh/access/src/access.c.obj
                0x00028444                access_handle_get
 .text.access_element_models_get
                0x00028490       0x48 examples/light_switch/server/CMakeFiles/light_switch_server_nrf52840_xxAA_s140_5.0.0-3.alpha.dir/__/__/__/mesh/access/src/access.c.obj
                0x00028490                access_element_models_get
 .text.access_model_p_args_get
                0x000284d8       0x28 examples/light_switch/server/CMakeFiles/light_switch_server_nrf52840_xxAA_s140_5.0.0-3.alpha.dir/__/__/__/mesh/access/src/access.c.obj
                0x000284d8                access_model_p_args_get
 .text.remove_and_reschedule
                0x00028500       0xd0 examples/light_switch/server/CMakeFiles/light_switch_server_nrf52840_xxAA_s140_5.0.0-3.alpha.dir/__/__/__/mesh/access/src/access_reliable.c.obj
 .text.reliable_timer_cb
                0x000285d0      0x148 examples/light_switch/server/CMakeFiles/light_switch_server_nrf52840_xxAA_s140_5.0.0-3.alpha.dir/__/__/__/mesh/access/src/access_reliable.c.obj
 .text.access_reliable_message_rx_cb
                0x00028718       0x74 examples/light_switch/server/CMakeFiles/light_switch_server_nrf52840_xxAA_s140_5.0.0-3.alpha.dir/__/__/__/mesh/access/src/access_reliable.c.obj
                0x00028718                access_reliable_message_rx_cb
 .text.access_reliable_init
                0x0002878c       0x1c examples/light_switch/server/CMakeFiles/light_switch_server_nrf52840_xxAA_s140_5.0.0-3.alpha.dir/__/__/__/mesh/access/src/access_reliable.c.obj
                0x0002878c                access_reliable_init
 .text.access_reliable_cancel_all
                0x000287a8       0x34 examples/light_switch/server/CMakeFiles/light_switch_server_nrf52840_xxAA_s140_5.0.0-3.alpha.dir/__/__/__/mesh/access/src/access_reliable.c.obj
                0x000287a8                access_reliable_cancel_all
 .text.bitfield_get
                0x000287dc       0x1a examples/light_switch/server/CMakeFiles/light_switch_server_nrf52840_xxAA_s140_5.0.0-3.alpha.dir/__/__/__/mesh/access/src/device_state_manager.c.obj
 .text.bitfield_set
                0x000287f6       0x18 examples/light_switch/server/CMakeFiles/light_switch_server_nrf52840_xxAA_s140_5.0.0-3.alpha.dir/__/__/__/mesh/access/src/device_state_manager.c.obj
 .text.bitfield_clear
                0x0002880e       0x1a examples/light_switch/server/CMakeFiles/light_switch_server_nrf52840_xxAA_s140_5.0.0-3.alpha.dir/__/__/__/mesh/access/src/device_state_manager.c.obj
 .text.bitfield_is_all_clear
                0x00028828       0x3c examples/light_switch/server/CMakeFiles/light_switch_server_nrf52840_xxAA_s140_5.0.0-3.alpha.dir/__/__/__/mesh/access/src/device_state_manager.c.obj
 .text.address_handle_virtual_valid
                0x00028864       0x14 examples/light_switch/server/CMakeFiles/light_switch_server_nrf52840_xxAA_s140_5.0.0-3.alpha.dir/__/__/__/mesh/access/src/device_state_manager.c.obj
 .text.net_key_handle_get
                0x00028878       0x38 examples/light_switch/server/CMakeFiles/light_switch_server_nrf52840_xxAA_s140_5.0.0-3.alpha.dir/__/__/__/mesh/access/src/device_state_manager.c.obj
 .text.dev_key_handle_get
                0x000288b0       0x30 examples/light_switch/server/CMakeFiles/light_switch_server_nrf52840_xxAA_s140_5.0.0-3.alpha.dir/__/__/__/mesh/access/src/device_state_manager.c.obj
 .text.app_key_handle_get
                0x000288e0       0x38 examples/light_switch/server/CMakeFiles/light_switch_server_nrf52840_xxAA_s140_5.0.0-3.alpha.dir/__/__/__/mesh/access/src/device_state_manager.c.obj
 .text.get_subnet_handle
                0x00028918       0x40 examples/light_switch/server/CMakeFiles/light_switch_server_nrf52840_xxAA_s140_5.0.0-3.alpha.dir/__/__/__/mesh/access/src/device_state_manager.c.obj
 .text.addr_nonvirtual_to_flash_entry
                0x00028958       0x10 examples/light_switch/server/CMakeFiles/light_switch_server_nrf52840_xxAA_s140_5.0.0-3.alpha.dir/__/__/__/mesh/access/src/device_state_manager.c.obj
 .text.flash_mem_listener_callback
                0x00028968       0x20 examples/light_switch/server/CMakeFiles/light_switch_server_nrf52840_xxAA_s140_5.0.0-3.alpha.dir/__/__/__/mesh/access/src/device_state_manager.c.obj
 .text.devkey_set
                0x00028988       0x4c examples/light_switch/server/CMakeFiles/light_switch_server_nrf52840_xxAA_s140_5.0.0-3.alpha.dir/__/__/__/mesh/access/src/device_state_manager.c.obj
 .text.devkey_to_dsm_entry
                0x000289d4       0x16 examples/light_switch/server/CMakeFiles/light_switch_server_nrf52840_xxAA_s140_5.0.0-3.alpha.dir/__/__/__/mesh/access/src/device_state_manager.c.obj
 *fill*         0x000289ea        0x2 
 .text.devkey_to_flash_entry
                0x000289ec       0x28 examples/light_switch/server/CMakeFiles/light_switch_server_nrf52840_xxAA_s140_5.0.0-3.alpha.dir/__/__/__/mesh/access/src/device_state_manager.c.obj
 .text.addr_virtual_to_flash_entry
                0x00028a14       0x18 examples/light_switch/server/CMakeFiles/light_switch_server_nrf52840_xxAA_s140_5.0.0-3.alpha.dir/__/__/__/mesh/access/src/device_state_manager.c.obj
 .text.addr_unicast_to_dsm_entry
                0x00028a2c        0xc examples/light_switch/server/CMakeFiles/light_switch_server_nrf52840_xxAA_s140_5.0.0-3.alpha.dir/__/__/__/mesh/access/src/device_state_manager.c.obj
 .text.addr_unicast_to_flash_entry
                0x00028a38       0x10 examples/light_switch/server/CMakeFiles/light_switch_server_nrf52840_xxAA_s140_5.0.0-3.alpha.dir/__/__/__/mesh/access/src/device_state_manager.c.obj
 .text.appkey_set
                0x00028a48       0x7c examples/light_switch/server/CMakeFiles/light_switch_server_nrf52840_xxAA_s140_5.0.0-3.alpha.dir/__/__/__/mesh/access/src/device_state_manager.c.obj
 .text.appkey_to_flash_entry
                0x00028ac4       0x54 examples/light_switch/server/CMakeFiles/light_switch_server_nrf52840_xxAA_s140_5.0.0-3.alpha.dir/__/__/__/mesh/access/src/device_state_manager.c.obj
 .text.subnet_to_flash_entry
                0x00028b18       0x60 examples/light_switch/server/CMakeFiles/light_switch_server_nrf52840_xxAA_s140_5.0.0-3.alpha.dir/__/__/__/mesh/access/src/device_state_manager.c.obj
 .text.subnet_set
                0x00028b78       0xb4 examples/light_switch/server/CMakeFiles/light_switch_server_nrf52840_xxAA_s140_5.0.0-3.alpha.dir/__/__/__/mesh/access/src/device_state_manager.c.obj
 .text.virtual_address_set
                0x00028c2c       0x54 examples/light_switch/server/CMakeFiles/light_switch_server_nrf52840_xxAA_s140_5.0.0-3.alpha.dir/__/__/__/mesh/access/src/device_state_manager.c.obj
 .text.addr_virtual_to_dsm_entry
                0x00028c80        0xc examples/light_switch/server/CMakeFiles/light_switch_server_nrf52840_xxAA_s140_5.0.0-3.alpha.dir/__/__/__/mesh/access/src/device_state_manager.c.obj
 .text.reset_flash_area
                0x00028c8c       0x28 examples/light_switch/server/CMakeFiles/light_switch_server_nrf52840_xxAA_s140_5.0.0-3.alpha.dir/__/__/__/mesh/access/src/device_state_manager.c.obj
 .text.flash_save
                0x00028cb4       0x88 examples/light_switch/server/CMakeFiles/light_switch_server_nrf52840_xxAA_s140_5.0.0-3.alpha.dir/__/__/__/mesh/access/src/device_state_manager.c.obj
 .text.flash_invalidate
                0x00028d3c       0x70 examples/light_switch/server/CMakeFiles/light_switch_server_nrf52840_xxAA_s140_5.0.0-3.alpha.dir/__/__/__/mesh/access/src/device_state_manager.c.obj
 .text.flash_update_all
                0x00028dac       0x6c examples/light_switch/server/CMakeFiles/light_switch_server_nrf52840_xxAA_s140_5.0.0-3.alpha.dir/__/__/__/mesh/access/src/device_state_manager.c.obj
 .text.virtual_address_uuid_index_get
                0x00028e18       0x3c examples/light_switch/server/CMakeFiles/light_switch_server_nrf52840_xxAA_s140_5.0.0-3.alpha.dir/__/__/__/mesh/access/src/device_state_manager.c.obj
 .text.add_address_virtual
                0x00028e54       0x70 examples/light_switch/server/CMakeFiles/light_switch_server_nrf52840_xxAA_s140_5.0.0-3.alpha.dir/__/__/__/mesh/access/src/device_state_manager.c.obj
 .text.get_subnet_handle_by_beacon_info
                0x00028ec4       0x30 examples/light_switch/server/CMakeFiles/light_switch_server_nrf52840_xxAA_s140_5.0.0-3.alpha.dir/__/__/__/mesh/access/src/device_state_manager.c.obj
 .text.get_app_handle
                0x00028ef4       0x38 examples/light_switch/server/CMakeFiles/light_switch_server_nrf52840_xxAA_s140_5.0.0-3.alpha.dir/__/__/__/mesh/access/src/device_state_manager.c.obj
 .text.appkey_to_dsm_entry
                0x00028f2c       0x80 examples/light_switch/server/CMakeFiles/light_switch_server_nrf52840_xxAA_s140_5.0.0-3.alpha.dir/__/__/__/mesh/access/src/device_state_manager.c.obj
 .text.subnet_to_dsm_entry
                0x00028fac       0x7c examples/light_switch/server/CMakeFiles/light_switch_server_nrf52840_xxAA_s140_5.0.0-3.alpha.dir/__/__/__/mesh/access/src/device_state_manager.c.obj
 .text.flash_operation_complete
                0x00029028       0x58 examples/light_switch/server/CMakeFiles/light_switch_server_nrf52840_xxAA_s140_5.0.0-3.alpha.dir/__/__/__/mesh/access/src/device_state_manager.c.obj
 .text.flash_invalidate_complete
                0x00029080        0x8 examples/light_switch/server/CMakeFiles/light_switch_server_nrf52840_xxAA_s140_5.0.0-3.alpha.dir/__/__/__/mesh/access/src/device_state_manager.c.obj
 .text.flash_write_complete
                0x00029088        0x8 examples/light_switch/server/CMakeFiles/light_switch_server_nrf52840_xxAA_s140_5.0.0-3.alpha.dir/__/__/__/mesh/access/src/device_state_manager.c.obj
 .text.add_address.part.7
                0x00029090      0x144 examples/light_switch/server/CMakeFiles/light_switch_server_nrf52840_xxAA_s140_5.0.0-3.alpha.dir/__/__/__/mesh/access/src/device_state_manager.c.obj
 .text.address_handle_valid
                0x000291d4       0x28 examples/light_switch/server/CMakeFiles/light_switch_server_nrf52840_xxAA_s140_5.0.0-3.alpha.dir/__/__/__/mesh/access/src/device_state_manager.c.obj
 .text.address_handle_nonvirtual_valid
                0x000291fc       0x14 examples/light_switch/server/CMakeFiles/light_switch_server_nrf52840_xxAA_s140_5.0.0-3.alpha.dir/__/__/__/mesh/access/src/device_state_manager.c.obj
 .text.address_delete_if_unused
                0x00029210       0x78 examples/light_switch/server/CMakeFiles/light_switch_server_nrf52840_xxAA_s140_5.0.0-3.alpha.dir/__/__/__/mesh/access/src/device_state_manager.c.obj
 .text.addr_nonvirtual_to_dsm_entry
                0x00029288       0x38 examples/light_switch/server/CMakeFiles/light_switch_server_nrf52840_xxAA_s140_5.0.0-3.alpha.dir/__/__/__/mesh/access/src/device_state_manager.c.obj
 .text.dsm_flash_config_load
                0x000292c0      0x134 examples/light_switch/server/CMakeFiles/light_switch_server_nrf52840_xxAA_s140_5.0.0-3.alpha.dir/__/__/__/mesh/access/src/device_state_manager.c.obj
                0x000292c0                dsm_flash_config_load
 .text.dsm_flash_area_get
                0x000293f4        0xc examples/light_switch/server/CMakeFiles/light_switch_server_nrf52840_xxAA_s140_5.0.0-3.alpha.dir/__/__/__/mesh/access/src/device_state_manager.c.obj
                0x000293f4                dsm_flash_area_get
 .text.build_flash_area
                0x00029400       0x8c examples/light_switch/server/CMakeFiles/light_switch_server_nrf52840_xxAA_s140_5.0.0-3.alpha.dir/__/__/__/mesh/access/src/device_state_manager.c.obj
 .text.flash_remove_complete
                0x0002948c        0x4 examples/light_switch/server/CMakeFiles/light_switch_server_nrf52840_xxAA_s140_5.0.0-3.alpha.dir/__/__/__/mesh/access/src/device_state_manager.c.obj
 .text.dsm_clear
                0x00029490       0x68 examples/light_switch/server/CMakeFiles/light_switch_server_nrf52840_xxAA_s140_5.0.0-3.alpha.dir/__/__/__/mesh/access/src/device_state_manager.c.obj
                0x00029490                dsm_clear
 .text.dsm_init
                0x000294f8       0x24 examples/light_switch/server/CMakeFiles/light_switch_server_nrf52840_xxAA_s140_5.0.0-3.alpha.dir/__/__/__/mesh/access/src/device_state_manager.c.obj
                0x000294f8                dsm_init
 .text.dsm_local_unicast_addresses_set
                0x0002951c       0x84 examples/light_switch/server/CMakeFiles/light_switch_server_nrf52840_xxAA_s140_5.0.0-3.alpha.dir/__/__/__/mesh/access/src/device_state_manager.c.obj
                0x0002951c                dsm_local_unicast_addresses_set
 .text.dsm_local_unicast_addresses_get
                0x000295a0       0x2c examples/light_switch/server/CMakeFiles/light_switch_server_nrf52840_xxAA_s140_5.0.0-3.alpha.dir/__/__/__/mesh/access/src/device_state_manager.c.obj
                0x000295a0                dsm_local_unicast_addresses_get
 .text.dsm_address_publish_add
                0x000295cc        0xc examples/light_switch/server/CMakeFiles/light_switch_server_nrf52840_xxAA_s140_5.0.0-3.alpha.dir/__/__/__/mesh/access/src/device_state_manager.c.obj
                0x000295cc                dsm_address_publish_add
 .text.dsm_address_publish_add_handle
                0x000295d8       0x38 examples/light_switch/server/CMakeFiles/light_switch_server_nrf52840_xxAA_s140_5.0.0-3.alpha.dir/__/__/__/mesh/access/src/device_state_manager.c.obj
                0x000295d8                dsm_address_publish_add_handle
 .text.dsm_address_publish_virtual_add
                0x00029610        0x6 examples/light_switch/server/CMakeFiles/light_switch_server_nrf52840_xxAA_s140_5.0.0-3.alpha.dir/__/__/__/mesh/access/src/device_state_manager.c.obj
                0x00029610                dsm_address_publish_virtual_add
 .text.dsm_address_subscription_add
                0x00029616        0xc examples/light_switch/server/CMakeFiles/light_switch_server_nrf52840_xxAA_s140_5.0.0-3.alpha.dir/__/__/__/mesh/access/src/device_state_manager.c.obj
                0x00029616                dsm_address_subscription_add
 .text.dsm_address_subscription_virtual_add
                0x00029622        0x6 examples/light_switch/server/CMakeFiles/light_switch_server_nrf52840_xxAA_s140_5.0.0-3.alpha.dir/__/__/__/mesh/access/src/device_state_manager.c.obj
                0x00029622                dsm_address_subscription_virtual_add
 .text.dsm_address_subscription_add_handle
                0x00029628       0x38 examples/light_switch/server/CMakeFiles/light_switch_server_nrf52840_xxAA_s140_5.0.0-3.alpha.dir/__/__/__/mesh/access/src/device_state_manager.c.obj
                0x00029628                dsm_address_subscription_add_handle
 .text.dsm_address_subscription_get
                0x00029660       0x34 examples/light_switch/server/CMakeFiles/light_switch_server_nrf52840_xxAA_s140_5.0.0-3.alpha.dir/__/__/__/mesh/access/src/device_state_manager.c.obj
                0x00029660                dsm_address_subscription_get
 .text.dsm_address_get
                0x00029694       0x5c examples/light_switch/server/CMakeFiles/light_switch_server_nrf52840_xxAA_s140_5.0.0-3.alpha.dir/__/__/__/mesh/access/src/device_state_manager.c.obj
                0x00029694                dsm_address_get
 .text.dsm_address_subscription_remove
                0x000296f0       0x58 examples/light_switch/server/CMakeFiles/light_switch_server_nrf52840_xxAA_s140_5.0.0-3.alpha.dir/__/__/__/mesh/access/src/device_state_manager.c.obj
                0x000296f0                dsm_address_subscription_remove
 .text.dsm_address_handle_get
                0x00029748       0x98 examples/light_switch/server/CMakeFiles/light_switch_server_nrf52840_xxAA_s140_5.0.0-3.alpha.dir/__/__/__/mesh/access/src/device_state_manager.c.obj
                0x00029748                dsm_address_handle_get
 .text.dsm_net_key_index_to_subnet_handle
                0x000297e0       0x1c examples/light_switch/server/CMakeFiles/light_switch_server_nrf52840_xxAA_s140_5.0.0-3.alpha.dir/__/__/__/mesh/access/src/device_state_manager.c.obj
                0x000297e0                dsm_net_key_index_to_subnet_handle
 .text.dsm_appkey_index_to_appkey_handle
                0x000297fc       0x1c examples/light_switch/server/CMakeFiles/light_switch_server_nrf52840_xxAA_s140_5.0.0-3.alpha.dir/__/__/__/mesh/access/src/device_state_manager.c.obj
                0x000297fc                dsm_appkey_index_to_appkey_handle
 .text.dsm_appkey_handle_get
                0x00029818        0xc examples/light_switch/server/CMakeFiles/light_switch_server_nrf52840_xxAA_s140_5.0.0-3.alpha.dir/__/__/__/mesh/access/src/device_state_manager.c.obj
                0x00029818                dsm_appkey_handle_get
 .text.dsm_appkey_handle_to_appkey_index
                0x00029824       0x30 examples/light_switch/server/CMakeFiles/light_switch_server_nrf52840_xxAA_s140_5.0.0-3.alpha.dir/__/__/__/mesh/access/src/device_state_manager.c.obj
                0x00029824                dsm_appkey_handle_to_appkey_index
 .text.dsm_subnet_add
                0x00029854       0x58 examples/light_switch/server/CMakeFiles/light_switch_server_nrf52840_xxAA_s140_5.0.0-3.alpha.dir/__/__/__/mesh/access/src/device_state_manager.c.obj
                0x00029854                dsm_subnet_add
 .text.dsm_subnet_kr_phase_get
                0x000298ac       0x2c examples/light_switch/server/CMakeFiles/light_switch_server_nrf52840_xxAA_s140_5.0.0-3.alpha.dir/__/__/__/mesh/access/src/device_state_manager.c.obj
                0x000298ac                dsm_subnet_kr_phase_get
 .text.dsm_subnet_update
                0x000298d8       0xa4 examples/light_switch/server/CMakeFiles/light_switch_server_nrf52840_xxAA_s140_5.0.0-3.alpha.dir/__/__/__/mesh/access/src/device_state_manager.c.obj
                0x000298d8                dsm_subnet_update
 .text.dsm_subnet_update_swap_keys
                0x0002997c       0x50 examples/light_switch/server/CMakeFiles/light_switch_server_nrf52840_xxAA_s140_5.0.0-3.alpha.dir/__/__/__/mesh/access/src/device_state_manager.c.obj
                0x0002997c                dsm_subnet_update_swap_keys
 .text.dsm_subnet_update_commit
                0x000299cc       0xb8 examples/light_switch/server/CMakeFiles/light_switch_server_nrf52840_xxAA_s140_5.0.0-3.alpha.dir/__/__/__/mesh/access/src/device_state_manager.c.obj
                0x000299cc                dsm_subnet_update_commit
 .text.net_beacon_callback
                0x00029a84       0x74 examples/light_switch/server/CMakeFiles/light_switch_server_nrf52840_xxAA_s140_5.0.0-3.alpha.dir/__/__/__/mesh/access/src/device_state_manager.c.obj
 .text.dsm_subnet_get_all
                0x00029af8       0x3c examples/light_switch/server/CMakeFiles/light_switch_server_nrf52840_xxAA_s140_5.0.0-3.alpha.dir/__/__/__/mesh/access/src/device_state_manager.c.obj
                0x00029af8                dsm_subnet_get_all
 .text.dsm_devkey_add
                0x00029b34       0x78 examples/light_switch/server/CMakeFiles/light_switch_server_nrf52840_xxAA_s140_5.0.0-3.alpha.dir/__/__/__/mesh/access/src/device_state_manager.c.obj
                0x00029b34                dsm_devkey_add
 .text.dsm_devkey_delete
                0x00029bac       0x38 examples/light_switch/server/CMakeFiles/light_switch_server_nrf52840_xxAA_s140_5.0.0-3.alpha.dir/__/__/__/mesh/access/src/device_state_manager.c.obj
                0x00029bac                dsm_devkey_delete
 .text.dsm_appkey_add
                0x00029be4       0x70 examples/light_switch/server/CMakeFiles/light_switch_server_nrf52840_xxAA_s140_5.0.0-3.alpha.dir/__/__/__/mesh/access/src/device_state_manager.c.obj
                0x00029be4                dsm_appkey_add
 .text.dsm_appkey_update
                0x00029c54       0x8c examples/light_switch/server/CMakeFiles/light_switch_server_nrf52840_xxAA_s140_5.0.0-3.alpha.dir/__/__/__/mesh/access/src/device_state_manager.c.obj
                0x00029c54                dsm_appkey_update
 .text.dsm_appkey_delete
                0x00029ce0       0x2c examples/light_switch/server/CMakeFiles/light_switch_server_nrf52840_xxAA_s140_5.0.0-3.alpha.dir/__/__/__/mesh/access/src/device_state_manager.c.obj
                0x00029ce0                dsm_appkey_delete
 .text.dsm_subnet_delete
                0x00029d0c       0x84 examples/light_switch/server/CMakeFiles/light_switch_server_nrf52840_xxAA_s140_5.0.0-3.alpha.dir/__/__/__/mesh/access/src/device_state_manager.c.obj
                0x00029d0c                dsm_subnet_delete
 .text.dsm_appkey_get_all
                0x00029d90       0x58 examples/light_switch/server/CMakeFiles/light_switch_server_nrf52840_xxAA_s140_5.0.0-3.alpha.dir/__/__/__/mesh/access/src/device_state_manager.c.obj
                0x00029d90                dsm_appkey_get_all
 .text.dsm_tx_secmat_get
                0x00029de8       0xf0 examples/light_switch/server/CMakeFiles/light_switch_server_nrf52840_xxAA_s140_5.0.0-3.alpha.dir/__/__/__/mesh/access/src/device_state_manager.c.obj
                0x00029de8                dsm_tx_secmat_get
 .text.dsm_net_secmat_from_keyindex_get
                0x00029ed8       0x30 examples/light_switch/server/CMakeFiles/light_switch_server_nrf52840_xxAA_s140_5.0.0-3.alpha.dir/__/__/__/mesh/access/src/device_state_manager.c.obj
                0x00029ed8                dsm_net_secmat_from_keyindex_get
 .text.nrf_mesh_net_secmat_next_get
                0x00029f08       0xa4 examples/light_switch/server/CMakeFiles/light_switch_server_nrf52840_xxAA_s140_5.0.0-3.alpha.dir/__/__/__/mesh/access/src/device_state_manager.c.obj
                0x00029f08                nrf_mesh_net_secmat_next_get
 .text.nrf_mesh_app_secmat_next_get
                0x00029fac       0x84 examples/light_switch/server/CMakeFiles/light_switch_server_nrf52840_xxAA_s140_5.0.0-3.alpha.dir/__/__/__/mesh/access/src/device_state_manager.c.obj
                0x00029fac                nrf_mesh_app_secmat_next_get
 .text.nrf_mesh_devkey_secmat_get
                0x0002a030       0x34 examples/light_switch/server/CMakeFiles/light_switch_server_nrf52840_xxAA_s140_5.0.0-3.alpha.dir/__/__/__/mesh/access/src/device_state_manager.c.obj
                0x0002a030                nrf_mesh_devkey_secmat_get
 .text.nrf_mesh_beacon_info_next_get
                0x0002a064       0xc8 examples/light_switch/server/CMakeFiles/light_switch_server_nrf52840_xxAA_s140_5.0.0-3.alpha.dir/__/__/__/mesh/access/src/device_state_manager.c.obj
                0x0002a064                nrf_mesh_beacon_info_next_get
 .text.nrf_mesh_rx_address_get
                0x0002a12c       0xfc examples/light_switch/server/CMakeFiles/light_switch_server_nrf52840_xxAA_s140_5.0.0-3.alpha.dir/__/__/__/mesh/access/src/device_state_manager.c.obj
                0x0002a12c                nrf_mesh_rx_address_get
 .text.complete_provisioning
                0x0002a228       0x52 examples/light_switch/server/CMakeFiles/light_switch_server_nrf52840_xxAA_s140_5.0.0-3.alpha.dir/__/__/__/mesh/prov/src/prov_provisionee.c.obj
 .text.prov_provisionee_cb_link_established
                0x0002a27a       0x20 examples/light_switch/server/CMakeFiles/light_switch_server_nrf52840_xxAA_s140_5.0.0-3.alpha.dir/__/__/__/mesh/prov/src/prov_provisionee.c.obj
 .text.prov_provisionee_cb_link_closed
                0x0002a29a       0x34 examples/light_switch/server/CMakeFiles/light_switch_server_nrf52840_xxAA_s140_5.0.0-3.alpha.dir/__/__/__/mesh/prov/src/prov_provisionee.c.obj
 .text.request_authentication
                0x0002a2ce       0x8a examples/light_switch/server/CMakeFiles/light_switch_server_nrf52840_xxAA_s140_5.0.0-3.alpha.dir/__/__/__/mesh/prov/src/prov_provisionee.c.obj
 .text.send_failed
                0x0002a358       0x3a examples/light_switch/server/CMakeFiles/light_switch_server_nrf52840_xxAA_s140_5.0.0-3.alpha.dir/__/__/__/mesh/prov/src/prov_provisionee.c.obj
 .text.start_authentication
                0x0002a392       0x52 examples/light_switch/server/CMakeFiles/light_switch_server_nrf52840_xxAA_s140_5.0.0-3.alpha.dir/__/__/__/mesh/prov/src/prov_provisionee.c.obj
 .text.prov_provisionee_cb_ack_received
                0x0002a3e4       0xb8 examples/light_switch/server/CMakeFiles/light_switch_server_nrf52840_xxAA_s140_5.0.0-3.alpha.dir/__/__/__/mesh/prov/src/prov_provisionee.c.obj
 .text.prov_provisionee_pkt_in
                0x0002a49c      0x2a0 examples/light_switch/server/CMakeFiles/light_switch_server_nrf52840_xxAA_s140_5.0.0-3.alpha.dir/__/__/__/mesh/prov/src/prov_provisionee.c.obj
 .text.prov_provisionee_init
                0x0002a73c       0x38 examples/light_switch/server/CMakeFiles/light_switch_server_nrf52840_xxAA_s140_5.0.0-3.alpha.dir/__/__/__/mesh/prov/src/prov_provisionee.c.obj
                0x0002a73c                prov_provisionee_init
 .text.prov_provisionee_auth_data
                0x0002a774       0x7a examples/light_switch/server/CMakeFiles/light_switch_server_nrf52840_xxAA_s140_5.0.0-3.alpha.dir/__/__/__/mesh/prov/src/prov_provisionee.c.obj
                0x0002a774                prov_provisionee_auth_data
 .text.bearer_compare_callback
                0x0002a7ee        0xc examples/light_switch/server/CMakeFiles/light_switch_server_nrf52840_xxAA_s140_5.0.0-3.alpha.dir/__/__/__/mesh/prov/src/nrf_mesh_prov.c.obj
 .text.nrf_mesh_prov_init
                0x0002a7fa       0x32 examples/light_switch/server/CMakeFiles/light_switch_server_nrf52840_xxAA_s140_5.0.0-3.alpha.dir/__/__/__/mesh/prov/src/nrf_mesh_prov.c.obj
                0x0002a7fa                nrf_mesh_prov_init
 .text.nrf_mesh_prov_bearer_add
                0x0002a82c       0x20 examples/light_switch/server/CMakeFiles/light_switch_server_nrf52840_xxAA_s140_5.0.0-3.alpha.dir/__/__/__/mesh/prov/src/nrf_mesh_prov.c.obj
                0x0002a82c                nrf_mesh_prov_bearer_add
 .text.nrf_mesh_prov_generate_keys
                0x0002a84c        0x4 examples/light_switch/server/CMakeFiles/light_switch_server_nrf52840_xxAA_s140_5.0.0-3.alpha.dir/__/__/__/mesh/prov/src/nrf_mesh_prov.c.obj
                0x0002a84c                nrf_mesh_prov_generate_keys
 .text.nrf_mesh_prov_listen
                0x0002a850       0x30 examples/light_switch/server/CMakeFiles/light_switch_server_nrf52840_xxAA_s140_5.0.0-3.alpha.dir/__/__/__/mesh/prov/src/nrf_mesh_prov.c.obj
                0x0002a850                nrf_mesh_prov_listen
 .text.nrf_mesh_prov_auth_data_provide
                0x0002a880        0xe examples/light_switch/server/CMakeFiles/light_switch_server_nrf52840_xxAA_s140_5.0.0-3.alpha.dir/__/__/__/mesh/prov/src/nrf_mesh_prov.c.obj
                0x0002a880                nrf_mesh_prov_auth_data_provide
 *fill*         0x0002a88e        0x2 
 .text.send_data
                0x0002a890       0x3c examples/light_switch/server/CMakeFiles/light_switch_server_nrf52840_xxAA_s140_5.0.0-3.alpha.dir/__/__/__/mesh/prov/src/provisioning.c.obj
 .text.prov_packet_length_valid
                0x0002a8cc       0x1c examples/light_switch/server/CMakeFiles/light_switch_server_nrf52840_xxAA_s140_5.0.0-3.alpha.dir/__/__/__/mesh/prov/src/provisioning.c.obj
                0x0002a8cc                prov_packet_length_valid
 .text.prov_tx_capabilities
                0x0002a8e8       0x1e examples/light_switch/server/CMakeFiles/light_switch_server_nrf52840_xxAA_s140_5.0.0-3.alpha.dir/__/__/__/mesh/prov/src/provisioning.c.obj
                0x0002a8e8                prov_tx_capabilities
 .text.prov_tx_public_key
                0x0002a906       0x26 examples/light_switch/server/CMakeFiles/light_switch_server_nrf52840_xxAA_s140_5.0.0-3.alpha.dir/__/__/__/mesh/prov/src/provisioning.c.obj
                0x0002a906                prov_tx_public_key
 .text.prov_tx_input_complete
                0x0002a92c       0x16 examples/light_switch/server/CMakeFiles/light_switch_server_nrf52840_xxAA_s140_5.0.0-3.alpha.dir/__/__/__/mesh/prov/src/provisioning.c.obj
                0x0002a92c                prov_tx_input_complete
 .text.prov_tx_confirmation
                0x0002a942       0x26 examples/light_switch/server/CMakeFiles/light_switch_server_nrf52840_xxAA_s140_5.0.0-3.alpha.dir/__/__/__/mesh/prov/src/provisioning.c.obj
                0x0002a942                prov_tx_confirmation
 .text.prov_tx_random
                0x0002a968       0x26 examples/light_switch/server/CMakeFiles/light_switch_server_nrf52840_xxAA_s140_5.0.0-3.alpha.dir/__/__/__/mesh/prov/src/provisioning.c.obj
                0x0002a968                prov_tx_random
 .text.prov_tx_complete
                0x0002a98e       0x16 examples/light_switch/server/CMakeFiles/light_switch_server_nrf52840_xxAA_s140_5.0.0-3.alpha.dir/__/__/__/mesh/prov/src/provisioning.c.obj
                0x0002a98e                prov_tx_complete
 .text.prov_tx_failed
                0x0002a9a4       0x1a examples/light_switch/server/CMakeFiles/light_switch_server_nrf52840_xxAA_s140_5.0.0-3.alpha.dir/__/__/__/mesh/prov/src/provisioning.c.obj
                0x0002a9a4                prov_tx_failed
 .text.prov_beacon_unprov_build
                0x0002a9be       0x54 examples/light_switch/server/CMakeFiles/light_switch_server_nrf52840_xxAA_s140_5.0.0-3.alpha.dir/__/__/__/mesh/prov/src/prov_beacon.c.obj
                0x0002a9be                prov_beacon_unprov_build
 *fill*         0x0002aa12        0x2 
 .text.prov_beacon_unprov_packet_in
                0x0002aa14       0x9c examples/light_switch/server/CMakeFiles/light_switch_server_nrf52840_xxAA_s140_5.0.0-3.alpha.dir/__/__/__/mesh/prov/src/prov_beacon.c.obj
                0x0002aa14                prov_beacon_unprov_packet_in
 .text.oob_gen_alphanumeric
                0x0002aab0       0x34 examples/light_switch/server/CMakeFiles/light_switch_server_nrf52840_xxAA_s140_5.0.0-3.alpha.dir/__/__/__/mesh/prov/src/prov_utils.c.obj
 .text.oob_gen_numeric
                0x0002aae4       0x3c examples/light_switch/server/CMakeFiles/light_switch_server_nrf52840_xxAA_s140_5.0.0-3.alpha.dir/__/__/__/mesh/prov/src/prov_utils.c.obj
 .text.prov_utils_opt_set
                0x0002ab20       0x20 examples/light_switch/server/CMakeFiles/light_switch_server_nrf52840_xxAA_s140_5.0.0-3.alpha.dir/__/__/__/mesh/prov/src/prov_utils.c.obj
                0x0002ab20                prov_utils_opt_set
 .text.prov_utils_opt_get
                0x0002ab40       0x1c examples/light_switch/server/CMakeFiles/light_switch_server_nrf52840_xxAA_s140_5.0.0-3.alpha.dir/__/__/__/mesh/prov/src/prov_utils.c.obj
                0x0002ab40                prov_utils_opt_get
 .text.prov_utils_use_ecdh_offloading
                0x0002ab5c        0xc examples/light_switch/server/CMakeFiles/light_switch_server_nrf52840_xxAA_s140_5.0.0-3.alpha.dir/__/__/__/mesh/prov/src/prov_utils.c.obj
                0x0002ab5c                prov_utils_use_ecdh_offloading
 .text.prov_utils_authentication_values_derive
                0x0002ab68       0xa0 examples/light_switch/server/CMakeFiles/light_switch_server_nrf52840_xxAA_s140_5.0.0-3.alpha.dir/__/__/__/mesh/prov/src/prov_utils.c.obj
                0x0002ab68                prov_utils_authentication_values_derive
 .text.prov_utils_keys_generate
                0x0002ac08       0x1e examples/light_switch/server/CMakeFiles/light_switch_server_nrf52840_xxAA_s140_5.0.0-3.alpha.dir/__/__/__/mesh/prov/src/prov_utils.c.obj
                0x0002ac08                prov_utils_keys_generate
 *fill*         0x0002ac26        0x2 
 .text.prov_utils_derive_keys
                0x0002ac28       0xac examples/light_switch/server/CMakeFiles/light_switch_server_nrf52840_xxAA_s140_5.0.0-3.alpha.dir/__/__/__/mesh/prov/src/prov_utils.c.obj
                0x0002ac28                prov_utils_derive_keys
 .text.prov_utils_calculate_shared_secret
                0x0002acd4       0x36 examples/light_switch/server/CMakeFiles/light_switch_server_nrf52840_xxAA_s140_5.0.0-3.alpha.dir/__/__/__/mesh/prov/src/prov_utils.c.obj
                0x0002acd4                prov_utils_calculate_shared_secret
 *fill*         0x0002ad0a        0x2 
 .text.prov_utils_generate_oob_data
                0x0002ad0c       0x9c examples/light_switch/server/CMakeFiles/light_switch_server_nrf52840_xxAA_s140_5.0.0-3.alpha.dir/__/__/__/mesh/prov/src/prov_utils.c.obj
                0x0002ad0c                prov_utils_generate_oob_data
 .text.prov_utils_confirmation_check
                0x0002ada8       0x5c examples/light_switch/server/CMakeFiles/light_switch_server_nrf52840_xxAA_s140_5.0.0-3.alpha.dir/__/__/__/mesh/prov/src/prov_utils.c.obj
                0x0002ada8                prov_utils_confirmation_check
 .text.link_timeout_cb
                0x0002ae04       0x10 examples/light_switch/server/CMakeFiles/light_switch_server_nrf52840_xxAA_s140_5.0.0-3.alpha.dir/__/__/__/mesh/prov/src/prov_bearer_adv.c.obj
 .text.remove_active_bearer
                0x0002ae14       0x60 examples/light_switch/server/CMakeFiles/light_switch_server_nrf52840_xxAA_s140_5.0.0-3.alpha.dir/__/__/__/mesh/prov/src/prov_bearer_adv.c.obj
 .text.close_link
                0x0002ae74       0x6c examples/light_switch/server/CMakeFiles/light_switch_server_nrf52840_xxAA_s140_5.0.0-3.alpha.dir/__/__/__/mesh/prov/src/prov_bearer_adv.c.obj
 .text.prov_bearer_adv_listen_stop
                0x0002aee0       0x3c examples/light_switch/server/CMakeFiles/light_switch_server_nrf52840_xxAA_s140_5.0.0-3.alpha.dir/__/__/__/mesh/prov/src/prov_bearer_adv.c.obj
 .text.send_packet
                0x0002af1c       0x6c examples/light_switch/server/CMakeFiles/light_switch_server_nrf52840_xxAA_s140_5.0.0-3.alpha.dir/__/__/__/mesh/prov/src/prov_bearer_adv.c.obj
 .text.prov_buffer_tx
                0x0002af88      0x158 examples/light_switch/server/CMakeFiles/light_switch_server_nrf52840_xxAA_s140_5.0.0-3.alpha.dir/__/__/__/mesh/prov/src/prov_bearer_adv.c.obj
 .text.send_link_close
                0x0002b0e0       0x38 examples/light_switch/server/CMakeFiles/light_switch_server_nrf52840_xxAA_s140_5.0.0-3.alpha.dir/__/__/__/mesh/prov/src/prov_bearer_adv.c.obj
 .text.prov_bearer_adv_link_close
                0x0002b118       0x74 examples/light_switch/server/CMakeFiles/light_switch_server_nrf52840_xxAA_s140_5.0.0-3.alpha.dir/__/__/__/mesh/prov/src/prov_bearer_adv.c.obj
 .text.send_transaction_ack
                0x0002b18c       0x24 examples/light_switch/server/CMakeFiles/light_switch_server_nrf52840_xxAA_s140_5.0.0-3.alpha.dir/__/__/__/mesh/prov/src/prov_bearer_adv.c.obj
 .text.send_link_ack
                0x0002b1b0       0x32 examples/light_switch/server/CMakeFiles/light_switch_server_nrf52840_xxAA_s140_5.0.0-3.alpha.dir/__/__/__/mesh/prov/src/prov_bearer_adv.c.obj
 .text.reset_timeout_timer
                0x0002b1e2       0x1a examples/light_switch/server/CMakeFiles/light_switch_server_nrf52840_xxAA_s140_5.0.0-3.alpha.dir/__/__/__/mesh/prov/src/prov_bearer_adv.c.obj
 .text.tx_complete_cb
                0x0002b1fc       0x1c examples/light_switch/server/CMakeFiles/light_switch_server_nrf52840_xxAA_s140_5.0.0-3.alpha.dir/__/__/__/mesh/prov/src/prov_bearer_adv.c.obj
 .text.tx_retry_cb
                0x0002b218       0xcc examples/light_switch/server/CMakeFiles/light_switch_server_nrf52840_xxAA_s140_5.0.0-3.alpha.dir/__/__/__/mesh/prov/src/prov_bearer_adv.c.obj
 .text.add_active_bearer
                0x0002b2e4       0x80 examples/light_switch/server/CMakeFiles/light_switch_server_nrf52840_xxAA_s140_5.0.0-3.alpha.dir/__/__/__/mesh/prov/src/prov_bearer_adv.c.obj
 .text.prov_bearer_adv_link_open
                0x0002b364       0xf8 examples/light_switch/server/CMakeFiles/light_switch_server_nrf52840_xxAA_s140_5.0.0-3.alpha.dir/__/__/__/mesh/prov/src/prov_bearer_adv.c.obj
 .text.async_process
                0x0002b45c       0x50 examples/light_switch/server/CMakeFiles/light_switch_server_nrf52840_xxAA_s140_5.0.0-3.alpha.dir/__/__/__/mesh/prov/src/prov_bearer_adv.c.obj
 .text.prov_bearer_adv_listen
                0x0002b4ac       0xec examples/light_switch/server/CMakeFiles/light_switch_server_nrf52840_xxAA_s140_5.0.0-3.alpha.dir/__/__/__/mesh/prov/src/prov_bearer_adv.c.obj
 .text.calculate_3GPP_CRC
                0x0002b598       0x24 examples/light_switch/server/CMakeFiles/light_switch_server_nrf52840_xxAA_s140_5.0.0-3.alpha.dir/__/__/__/mesh/prov/src/prov_bearer_adv.c.obj
                0x0002b598                calculate_3GPP_CRC
 .text.prov_bearer_adv_tx
                0x0002b5bc       0xb4 examples/light_switch/server/CMakeFiles/light_switch_server_nrf52840_xxAA_s140_5.0.0-3.alpha.dir/__/__/__/mesh/prov/src/prov_bearer_adv.c.obj
 .text.prov_buffer_rx
                0x0002b670       0x7c examples/light_switch/server/CMakeFiles/light_switch_server_nrf52840_xxAA_s140_5.0.0-3.alpha.dir/__/__/__/mesh/prov/src/prov_bearer_adv.c.obj
 .text.nrf_mesh_prov_bearer_adv_interface_get
                0x0002b6ec       0x48 examples/light_switch/server/CMakeFiles/light_switch_server_nrf52840_xxAA_s140_5.0.0-3.alpha.dir/__/__/__/mesh/prov/src/prov_bearer_adv.c.obj
                0x0002b6ec                nrf_mesh_prov_bearer_adv_interface_get
 .text.prov_bearer_adv_packet_in
                0x0002b734      0x80c examples/light_switch/server/CMakeFiles/light_switch_server_nrf52840_xxAA_s140_5.0.0-3.alpha.dir/__/__/__/mesh/prov/src/prov_bearer_adv.c.obj
                0x0002b734                prov_bearer_adv_packet_in
 .text.sd_softdevice_enable
                0x0002bf40        0x4 examples/light_switch/server/CMakeFiles/light_switch_server_nrf52840_xxAA_s140_5.0.0-3.alpha.dir/__/__/__/mesh/access/src/nrf_mesh_node_config.c.obj
 .text.sd_softdevice_is_enabled
                0x0002bf44        0x4 examples/light_switch/server/CMakeFiles/light_switch_server_nrf52840_xxAA_s140_5.0.0-3.alpha.dir/__/__/__/mesh/access/src/nrf_mesh_node_config.c.obj
 .text.default_softdevice_assertion_handler
                0x0002bf48       0x7c examples/light_switch/server/CMakeFiles/light_switch_server_nrf52840_xxAA_s140_5.0.0-3.alpha.dir/__/__/__/mesh/access/src/nrf_mesh_node_config.c.obj
 .text.config_server_cb
                0x0002bfc4       0x28 examples/light_switch/server/CMakeFiles/light_switch_server_nrf52840_xxAA_s140_5.0.0-3.alpha.dir/__/__/__/mesh/access/src/nrf_mesh_node_config.c.obj
 .text.flash_stable_cb
                0x0002bfec       0x20 examples/light_switch/server/CMakeFiles/light_switch_server_nrf52840_xxAA_s140_5.0.0-3.alpha.dir/__/__/__/mesh/access/src/nrf_mesh_node_config.c.obj
 .text.start_provisionee
                0x0002c00c       0x18 examples/light_switch/server/CMakeFiles/light_switch_server_nrf52840_xxAA_s140_5.0.0-3.alpha.dir/__/__/__/mesh/access/src/nrf_mesh_node_config.c.obj
 .text.prov_evt_handler
                0x0002c024       0xf0 examples/light_switch/server/CMakeFiles/light_switch_server_nrf52840_xxAA_s140_5.0.0-3.alpha.dir/__/__/__/mesh/access/src/nrf_mesh_node_config.c.obj
 .text.default_mesh_assertion_handler
                0x0002c114       0x74 examples/light_switch/server/CMakeFiles/light_switch_server_nrf52840_xxAA_s140_5.0.0-3.alpha.dir/__/__/__/mesh/access/src/nrf_mesh_node_config.c.obj
                0x0002c114                default_mesh_assertion_handler
 .text.softdevice_setup
                0x0002c188       0x54 examples/light_switch/server/CMakeFiles/light_switch_server_nrf52840_xxAA_s140_5.0.0-3.alpha.dir/__/__/__/mesh/access/src/nrf_mesh_node_config.c.obj
                0x0002c188                softdevice_setup
 .text.nrf_mesh_node_config
                0x0002c1dc      0x13c examples/light_switch/server/CMakeFiles/light_switch_server_nrf52840_xxAA_s140_5.0.0-3.alpha.dir/__/__/__/mesh/access/src/nrf_mesh_node_config.c.obj
                0x0002c1dc                nrf_mesh_node_config
 .text.errata_136
                0x0002c318       0x20 examples/light_switch/server/CMakeFiles/light_switch_server_nrf52840_xxAA_s140_5.0.0-3.alpha.dir/__/__/__/external/nRF5_SDK_14.2.0_17b948a/components/toolchain/system_nrf52840.c.obj
 .text.SystemInit
                0x0002c338      0x1d0 examples/light_switch/server/CMakeFiles/light_switch_server_nrf52840_xxAA_s140_5.0.0-3.alpha.dir/__/__/__/external/nRF5_SDK_14.2.0_17b948a/components/toolchain/system_nrf52840.c.obj
                0x0002c338                SystemInit
 .text          0x0002c508       0x3c examples/light_switch/server/CMakeFiles/light_switch_server_nrf52840_xxAA_s140_5.0.0-3.alpha.dir/__/__/__/external/nRF5_SDK_14.2.0_17b948a/components/toolchain/gcc/gcc_startup_nrf52840.S.obj
                0x0002c508                Reset_Handler
                0x0002c530                NMI_Handler
                0x0002c534                MemoryManagement_Handler
                0x0002c536                BusFault_Handler
                0x0002c538                UsageFault_Handler
                0x0002c53a                SVC_Handler
                0x0002c53c                DebugMon_Handler
                0x0002c53e                PendSV_Handler
                0x0002c540                SysTick_Handler
                0x0002c542                RADIO_IRQHandler
                0x0002c542                PDM_IRQHandler
                0x0002c542                TEMP_IRQHandler
                0x0002c542                POWER_CLOCK_IRQHandler
                0x0002c542                PWM3_IRQHandler
                0x0002c542                FPU_IRQHandler
                0x0002c542                USBD_IRQHandler
                0x0002c542                SPIM0_SPIS0_TWIM0_TWIS0_SPI0_TWI0_IRQHandler
                0x0002c542                TIMER3_IRQHandler
                0x0002c542                UARTE0_UART0_IRQHandler
                0x0002c542                TIMER4_IRQHandler
                0x0002c542                CRYPTOCELL_IRQHandler
                0x0002c542                I2S_IRQHandler
                0x0002c542                SWI4_EGU4_IRQHandler
                0x0002c542                TIMER0_IRQHandler
                0x0002c542                PWM1_IRQHandler
                0x0002c542                UARTE1_IRQHandler
                0x0002c542                TIMER1_IRQHandler
                0x0002c542                SPIM3_IRQHandler
                0x0002c542                PWM2_IRQHandler
                0x0002c542                ECB_IRQHandler
                0x0002c542                SPIM1_SPIS1_TWIM1_TWIS1_SPI1_TWI1_IRQHandler
                0x0002c542                Default_Handler
                0x0002c542                SAADC_IRQHandler
                0x0002c542                CCM_AAR_IRQHandler
                0x0002c542                WDT_IRQHandler
                0x0002c542                RTC0_IRQHandler
                0x0002c542                SWI5_EGU5_IRQHandler
                0x0002c542                RNG_IRQHandler
                0x0002c542                RTC2_IRQHandler
                0x0002c542                PWM0_IRQHandler
                0x0002c542                SWI3_EGU3_IRQHandler
                0x0002c542                RTC1_IRQHandler
                0x0002c542                SWI1_EGU1_IRQHandler
                0x0002c542                SPIM2_SPIS2_SPI2_IRQHandler
                0x0002c542                NFCT_IRQHandler
                0x0002c542                SWI0_EGU0_IRQHandler
                0x0002c542                MWU_IRQHandler
                0x0002c542                TIMER2_IRQHandler
                0x0002c542                QSPI_IRQHandler
                0x0002c542                COMP_LPCOMP_IRQHandler
 .text.nrf_mesh_configure_device_uuid_reset
                0x0002c544       0x28 mesh/core/libmesh_core_nrf52840_xxAA.a(nrf_mesh_configure.c.obj)
                0x0002c544                nrf_mesh_configure_device_uuid_reset
 .text.nrf_mesh_configure_device_uuid_get
                0x0002c56c        0x8 mesh/core/libmesh_core_nrf52840_xxAA.a(nrf_mesh_configure.c.obj)
                0x0002c56c                nrf_mesh_configure_device_uuid_get
 .text.event_handle
                0x0002c574       0x30 mesh/core/libmesh_core_nrf52840_xxAA.a(event.c.obj)
                0x0002c574                event_handle
 .text.event_handler_add
                0x0002c5a4       0x28 mesh/core/libmesh_core_nrf52840_xxAA.a(event.c.obj)
                0x0002c5a4                event_handler_add
 .text.event_handler_remove
                0x0002c5cc       0x28 mesh/core/libmesh_core_nrf52840_xxAA.a(event.c.obj)
                0x0002c5cc                event_handler_remove
 .text.flash_mem_available
                0x0002c5f4       0x20 mesh/core/libmesh_core_nrf52840_xxAA.a(net_state.c.obj)
 .text.flash_store_iv_index
                0x0002c614       0x38 mesh/core/libmesh_core_nrf52840_xxAA.a(net_state.c.obj)
 .text.seqnum_block_allocate
                0x0002c64c       0x48 mesh/core/libmesh_core_nrf52840_xxAA.a(net_state.c.obj)
 .text.net_state_reset
                0x0002c694       0x3c mesh/core/libmesh_core_nrf52840_xxAA.a(net_state.c.obj)
                0x0002c694                net_state_reset
 .text.flash_write_complete
                0x0002c6d0       0x78 mesh/core/libmesh_core_nrf52840_xxAA.a(net_state.c.obj)
 .text.net_state_recover_from_flash
                0x0002c748       0x8c mesh/core/libmesh_core_nrf52840_xxAA.a(net_state.c.obj)
                0x0002c748                net_state_recover_from_flash
 .text.net_state_flash_area_get
                0x0002c7d4        0xc mesh/core/libmesh_core_nrf52840_xxAA.a(net_state.c.obj)
                0x0002c7d4                net_state_flash_area_get
 .text.init_flash_storage
                0x0002c7e0       0x40 mesh/core/libmesh_core_nrf52840_xxAA.a(net_state.c.obj)
 .text.net_state_init
                0x0002c820       0x48 mesh/core/libmesh_core_nrf52840_xxAA.a(net_state.c.obj)
                0x0002c820                net_state_init
 .text.net_state_iv_update_start
                0x0002c868       0x64 mesh/core/libmesh_core_nrf52840_xxAA.a(net_state.c.obj)
                0x0002c868                net_state_iv_update_start
 .text.iv_update_trigger_if_pending
                0x0002c8cc       0x8c mesh/core/libmesh_core_nrf52840_xxAA.a(net_state.c.obj)
 .text.iv_update_timer_handler
                0x0002c958       0x74 mesh/core/libmesh_core_nrf52840_xxAA.a(net_state.c.obj)
 .text.net_state_seqnum_alloc
                0x0002c9cc       0x68 mesh/core/libmesh_core_nrf52840_xxAA.a(net_state.c.obj)
                0x0002c9cc                net_state_seqnum_alloc
 .text.net_state_iv_index_lock
                0x0002ca34       0x48 mesh/core/libmesh_core_nrf52840_xxAA.a(net_state.c.obj)
                0x0002ca34                net_state_iv_index_lock
 .text.net_state_key_refresh_phase_changed
                0x0002ca7c       0x1e mesh/core/libmesh_core_nrf52840_xxAA.a(net_state.c.obj)
                0x0002ca7c                net_state_key_refresh_phase_changed
 *fill*         0x0002ca9a        0x2 
 .text.net_state_beacon_received
                0x0002ca9c       0x94 mesh/core/libmesh_core_nrf52840_xxAA.a(net_state.c.obj)
                0x0002ca9c                net_state_beacon_received
 .text.net_state_beacon_iv_index_get
                0x0002cb30        0xc mesh/core/libmesh_core_nrf52840_xxAA.a(net_state.c.obj)
                0x0002cb30                net_state_beacon_iv_index_get
 .text.net_state_tx_iv_index_get
                0x0002cb3c       0x14 mesh/core/libmesh_core_nrf52840_xxAA.a(net_state.c.obj)
                0x0002cb3c                net_state_tx_iv_index_get
 .text.net_state_rx_iv_index_get
                0x0002cb50       0x18 mesh/core/libmesh_core_nrf52840_xxAA.a(net_state.c.obj)
                0x0002cb50                net_state_rx_iv_index_get
 .text.net_state_iv_update_get
                0x0002cb68        0xc mesh/core/libmesh_core_nrf52840_xxAA.a(net_state.c.obj)
                0x0002cb68                net_state_iv_update_get
 .text.nrf_mesh_address_type_get
                0x0002cb74       0x10 mesh/core/libmesh_core_nrf52840_xxAA.a(nrf_mesh_utils.c.obj)
                0x0002cb74                nrf_mesh_address_type_get
 .text.sd_softdevice_is_enabled
                0x0002cb84        0x4 mesh/core/libmesh_core_nrf52840_xxAA.a(nrf_mesh.c.obj)
 .text.nrf_mesh_listen
                0x0002cb88      0x138 mesh/core/libmesh_core_nrf52840_xxAA.a(nrf_mesh.c.obj)
 .text.scanner_packet_process_cb
                0x0002ccc0       0x8c mesh/core/libmesh_core_nrf52840_xxAA.a(nrf_mesh.c.obj)
 .text.nrf_mesh_init
                0x0002cd4c       0xd8 mesh/core/libmesh_core_nrf52840_xxAA.a(nrf_mesh.c.obj)
                0x0002cd4c                nrf_mesh_init
 .text.nrf_mesh_enable
                0x0002ce24       0x48 mesh/core/libmesh_core_nrf52840_xxAA.a(nrf_mesh.c.obj)
                0x0002ce24                nrf_mesh_enable
 .text.nrf_mesh_packet_send
                0x0002ce6c        0x4 mesh/core/libmesh_core_nrf52840_xxAA.a(nrf_mesh.c.obj)
                0x0002ce6c                nrf_mesh_packet_send
 .text.nrf_mesh_on_ble_evt
                0x0002ce70        0x4 mesh/core/libmesh_core_nrf52840_xxAA.a(nrf_mesh.c.obj)
                0x0002ce70                nrf_mesh_on_ble_evt
 .text.nrf_mesh_on_sd_evt
                0x0002ce74        0xa mesh/core/libmesh_core_nrf52840_xxAA.a(nrf_mesh.c.obj)
                0x0002ce74                nrf_mesh_on_sd_evt
 .text.nrf_mesh_evt_handler_add
                0x0002ce7e        0x4 mesh/core/libmesh_core_nrf52840_xxAA.a(nrf_mesh.c.obj)
                0x0002ce7e                nrf_mesh_evt_handler_add
 .text.sd_power_reset_reason_clr
                0x0002ce82        0x4 mesh/core/libmesh_core_nrf52840_xxAA.a(hal.c.obj)
 *fill*         0x0002ce86        0x2 
 .text.hal_device_reset
                0x0002ce88       0x2c mesh/core/libmesh_core_nrf52840_xxAA.a(hal.c.obj)
                0x0002ce88                hal_device_reset
 .text.hal_lfclk_ppm_get
                0x0002ceb4       0x14 mesh/core/libmesh_core_nrf52840_xxAA.a(hal.c.obj)
                0x0002ceb4                hal_lfclk_ppm_get
 .text.add_to_add_list
                0x0002cec8       0x44 mesh/core/libmesh_core_nrf52840_xxAA.a(timer_scheduler.c.obj)
 .text.process_dirty_events
                0x0002cf0c       0x6c mesh/core/libmesh_core_nrf52840_xxAA.a(timer_scheduler.c.obj)
 .text.timer_cb
                0x0002cf78        0xc mesh/core/libmesh_core_nrf52840_xxAA.a(timer_scheduler.c.obj)
 .text.add_evt.constprop.0
                0x0002cf84       0x68 mesh/core/libmesh_core_nrf52840_xxAA.a(timer_scheduler.c.obj)
 .text.process_add_list
                0x0002cfec       0x48 mesh/core/libmesh_core_nrf52840_xxAA.a(timer_scheduler.c.obj)
 .text.flag_event_cb
                0x0002d034      0x100 mesh/core/libmesh_core_nrf52840_xxAA.a(timer_scheduler.c.obj)
 .text.timer_sch_init
                0x0002d134       0x24 mesh/core/libmesh_core_nrf52840_xxAA.a(timer_scheduler.c.obj)
                0x0002d134                timer_sch_init
 .text.timer_sch_schedule
                0x0002d158       0x50 mesh/core/libmesh_core_nrf52840_xxAA.a(timer_scheduler.c.obj)
                0x0002d158                timer_sch_schedule
 .text.timer_sch_abort
                0x0002d1a8       0x64 mesh/core/libmesh_core_nrf52840_xxAA.a(timer_scheduler.c.obj)
                0x0002d1a8                timer_sch_abort
 .text.timer_sch_reschedule
                0x0002d20c       0x70 mesh/core/libmesh_core_nrf52840_xxAA.a(timer_scheduler.c.obj)
                0x0002d20c                timer_sch_reschedule
 .text.timer_mut_unlock
                0x0002d27c       0x10 mesh/core/libmesh_core_nrf52840_xxAA.a(timer.c.obj)
 .text.timer_order_cb
                0x0002d28c       0x94 mesh/core/libmesh_core_nrf52840_xxAA.a(timer.c.obj)
                0x0002d28c                timer_order_cb
 .text.timer_now
                0x0002d320       0x48 mesh/core/libmesh_core_nrf52840_xxAA.a(timer.c.obj)
                0x0002d320                timer_now
 .text.timer_event_handler
                0x0002d368       0x98 mesh/core/libmesh_core_nrf52840_xxAA.a(timer.c.obj)
                0x0002d368                timer_event_handler
 .text.timer_on_ts_begin
                0x0002d400       0xfc mesh/core/libmesh_core_nrf52840_xxAA.a(timer.c.obj)
                0x0002d400                timer_on_ts_begin
 .text.timer_on_ts_end
                0x0002d4fc       0x60 mesh/core/libmesh_core_nrf52840_xxAA.a(timer.c.obj)
                0x0002d4fc                timer_on_ts_end
 .text.timer_cb
                0x0002d55c       0x10 mesh/core/libmesh_core_nrf52840_xxAA.a(ticker.c.obj)
 .text.ticker_init
                0x0002d56c       0x3c mesh/core/libmesh_core_nrf52840_xxAA.a(ticker.c.obj)
                0x0002d56c                ticker_init
 .text.sd_rand_application_bytes_available_get
                0x0002d5a8        0x4 mesh/core/libmesh_core_nrf52840_xxAA.a(rand.c.obj)
 .text.sd_rand_application_vector_get
                0x0002d5ac        0x4 mesh/core/libmesh_core_nrf52840_xxAA.a(rand.c.obj)
 .text.rand_prng_get
                0x0002d5b0       0x22 mesh/core/libmesh_core_nrf52840_xxAA.a(rand.c.obj)
                0x0002d5b0                rand_prng_get
 *fill*         0x0002d5d2        0x2 
 .text.rand_hw_rng_get
                0x0002d5d4       0x50 mesh/core/libmesh_core_nrf52840_xxAA.a(rand.c.obj)
                0x0002d5d4                rand_hw_rng_get
 .text.rand_prng_seed
                0x0002d624       0x34 mesh/core/libmesh_core_nrf52840_xxAA.a(rand.c.obj)
                0x0002d624                rand_prng_seed
 .text.nrf_mesh_opt_set
                0x0002d658       0x26 mesh/core/libmesh_core_nrf52840_xxAA.a(nrf_mesh_opt.c.obj)
                0x0002d658                nrf_mesh_opt_set
 .text.nrf_mesh_opt_get
                0x0002d67e       0x26 mesh/core/libmesh_core_nrf52840_xxAA.a(nrf_mesh_opt.c.obj)
                0x0002d67e                nrf_mesh_opt_get
 .text.sd_radio_session_open
                0x0002d6a4        0x4 mesh/core/libmesh_core_nrf52840_xxAA.a(timeslot.c.obj)
 .text.sd_radio_session_close
                0x0002d6a8        0x4 mesh/core/libmesh_core_nrf52840_xxAA.a(timeslot.c.obj)
 .text.sd_radio_request
                0x0002d6ac        0x4 mesh/core/libmesh_core_nrf52840_xxAA.a(timeslot.c.obj)
 .text.end_timer_handler
                0x0002d6b0       0x24 mesh/core/libmesh_core_nrf52840_xxAA.a(timeslot.c.obj)
 .text.get_end_time.constprop.10
                0x0002d6d4       0x28 mesh/core/libmesh_core_nrf52840_xxAA.a(timeslot.c.obj)
 .text.handle_extend_end.constprop.3
                0x0002d6fc       0xc0 mesh/core/libmesh_core_nrf52840_xxAA.a(timeslot.c.obj)
 .text.radio_signal_callback
                0x0002d7bc      0x14c mesh/core/libmesh_core_nrf52840_xxAA.a(timeslot.c.obj)
 .text.timeslot_sd_event_handler
                0x0002d908       0x44 mesh/core/libmesh_core_nrf52840_xxAA.a(timeslot.c.obj)
                0x0002d908                timeslot_sd_event_handler
 .text.timeslot_init
                0x0002d94c       0x48 mesh/core/libmesh_core_nrf52840_xxAA.a(timeslot.c.obj)
                0x0002d94c                timeslot_init
 .text.timeslot_start
                0x0002d994       0x20 mesh/core/libmesh_core_nrf52840_xxAA.a(timeslot.c.obj)
                0x0002d994                timeslot_start
 .text.timeslot_end_is_pending
                0x0002d9b4       0x24 mesh/core/libmesh_core_nrf52840_xxAA.a(timeslot.c.obj)
                0x0002d9b4                timeslot_end_is_pending
 .text.timeslot_start_time_get
                0x0002d9d8        0xc mesh/core/libmesh_core_nrf52840_xxAA.a(timeslot.c.obj)
                0x0002d9d8                timeslot_start_time_get
 .text.timeslot_remaining_time_get
                0x0002d9e4       0x20 mesh/core/libmesh_core_nrf52840_xxAA.a(timeslot.c.obj)
                0x0002d9e4                timeslot_remaining_time_get
 .text.timeslot_is_in_cb
                0x0002da04        0xc mesh/core/libmesh_core_nrf52840_xxAA.a(timeslot.c.obj)
                0x0002da04                timeslot_is_in_cb
 .text.timeslot_trigger
                0x0002da10       0x24 mesh/core/libmesh_core_nrf52840_xxAA.a(timeslot.c.obj)
                0x0002da10                timeslot_trigger
 .text.timeslot_stop
                0x0002da34       0x10 mesh/core/libmesh_core_nrf52840_xxAA.a(timeslot.c.obj)
                0x0002da34                timeslot_stop
 .text.timeslot_state_lock
                0x0002da44       0x28 mesh/core/libmesh_core_nrf52840_xxAA.a(timeslot.c.obj)
                0x0002da44                timeslot_state_lock
 .text.trigger_event_handler
                0x0002da6c       0x1c mesh/core/libmesh_core_nrf52840_xxAA.a(bearer_event.c.obj)
 .text.evt_push
                0x0002da88       0x1c mesh/core/libmesh_core_nrf52840_xxAA.a(bearer_event.c.obj)
 .text.bearer_event_init
                0x0002daa4       0x48 mesh/core/libmesh_core_nrf52840_xxAA.a(bearer_event.c.obj)
                0x0002daa4                bearer_event_init
 .text.bearer_event_timer_post
                0x0002daec       0x30 mesh/core/libmesh_core_nrf52840_xxAA.a(bearer_event.c.obj)
                0x0002daec                bearer_event_timer_post
 .text.bearer_event_critical_section_begin
                0x0002db1c       0x50 mesh/core/libmesh_core_nrf52840_xxAA.a(bearer_event.c.obj)
                0x0002db1c                bearer_event_critical_section_begin
 .text.bearer_event_critical_section_end
                0x0002db6c       0x4c mesh/core/libmesh_core_nrf52840_xxAA.a(bearer_event.c.obj)
                0x0002db6c                bearer_event_critical_section_end
 .text.bearer_event_flag_add
                0x0002dbb8       0x50 mesh/core/libmesh_core_nrf52840_xxAA.a(bearer_event.c.obj)
                0x0002dbb8                bearer_event_flag_add
 .text.bearer_event_flag_set
                0x0002dc08       0x50 mesh/core/libmesh_core_nrf52840_xxAA.a(bearer_event.c.obj)
                0x0002dc08                bearer_event_flag_set
 .text.bearer_event_sequential_add
                0x0002dc58       0x44 mesh/core/libmesh_core_nrf52840_xxAA.a(bearer_event.c.obj)
                0x0002dc58                bearer_event_sequential_add
 .text.bearer_event_sequential_post
                0x0002dc9c       0x58 mesh/core/libmesh_core_nrf52840_xxAA.a(bearer_event.c.obj)
                0x0002dc9c                bearer_event_sequential_post
 .text.bearer_event_sequential_pending
                0x0002dcf4       0x1c mesh/core/libmesh_core_nrf52840_xxAA.a(bearer_event.c.obj)
                0x0002dcf4                bearer_event_sequential_pending
 .text.bearer_event_handler
                0x0002dd10      0x104 mesh/core/libmesh_core_nrf52840_xxAA.a(bearer_event.c.obj)
                0x0002dd10                bearer_event_handler
 .text.QDEC_IRQHandler
                0x0002de14        0x4 mesh/core/libmesh_core_nrf52840_xxAA.a(bearer_event.c.obj)
                0x0002de14                QDEC_IRQHandler
 .text.enc_aes_encrypt
                0x0002de18        0x4 mesh/core/libmesh_core_nrf52840_xxAA.a(enc.c.obj)
                0x0002de18                enc_aes_encrypt
 .text.enc_aes_cmac
                0x0002de1c        0x4 mesh/core/libmesh_core_nrf52840_xxAA.a(enc.c.obj)
                0x0002de1c                enc_aes_cmac
 .text.enc_aes_ccm_encrypt
                0x0002de20        0x4 mesh/core/libmesh_core_nrf52840_xxAA.a(enc.c.obj)
                0x0002de20                enc_aes_ccm_encrypt
 .text.enc_aes_ccm_decrypt
                0x0002de24        0x4 mesh/core/libmesh_core_nrf52840_xxAA.a(enc.c.obj)
                0x0002de24                enc_aes_ccm_decrypt
 .text.enc_nonce_generate
                0x0002de28       0xb8 mesh/core/libmesh_core_nrf52840_xxAA.a(enc.c.obj)
                0x0002de28                enc_nonce_generate
 .text.enc_s1   0x0002dee0       0x38 mesh/core/libmesh_core_nrf52840_xxAA.a(enc.c.obj)
                0x0002dee0                enc_s1
 .text.enc_k1   0x0002df18       0x48 mesh/core/libmesh_core_nrf52840_xxAA.a(enc.c.obj)
                0x0002df18                enc_k1
 .text.enc_k2   0x0002df60       0xd8 mesh/core/libmesh_core_nrf52840_xxAA.a(enc.c.obj)
                0x0002df60                enc_k2
 .text.enc_k3   0x0002e038       0x68 mesh/core/libmesh_core_nrf52840_xxAA.a(enc.c.obj)
                0x0002e038                enc_k3
 .text.enc_k4   0x0002e0a0       0x60 mesh/core/libmesh_core_nrf52840_xxAA.a(enc.c.obj)
                0x0002e0a0                enc_k4
 .text.header_transfuscate
                0x0002e100       0x54 mesh/core/libmesh_core_nrf52840_xxAA.a(network.c.obj)
 .text.allocate_packet
                0x0002e154      0x14c mesh/core/libmesh_core_nrf52840_xxAA.a(network.c.obj)
 .text.network_init
                0x0002e2a0       0x2c mesh/core/libmesh_core_nrf52840_xxAA.a(network.c.obj)
                0x0002e2a0                network_init
 .text.network_opt_set
                0x0002e2cc       0x68 mesh/core/libmesh_core_nrf52840_xxAA.a(network.c.obj)
                0x0002e2cc                network_opt_set
 .text.network_opt_get
                0x0002e334       0x4c mesh/core/libmesh_core_nrf52840_xxAA.a(network.c.obj)
                0x0002e334                network_opt_get
 .text.network_packet_alloc
                0x0002e380       0x50 mesh/core/libmesh_core_nrf52840_xxAA.a(network.c.obj)
                0x0002e380                network_packet_alloc
 .text.network_packet_send
                0x0002e3d0      0x140 mesh/core/libmesh_core_nrf52840_xxAA.a(network.c.obj)
                0x0002e3d0                network_packet_send
 .text.network_packet_in
                0x0002e510      0x460 mesh/core/libmesh_core_nrf52840_xxAA.a(network.c.obj)
                0x0002e510                network_packet_in
 .text.nrf_mesh_keygen_aid
                0x0002e970       0x12 mesh/core/libmesh_core_nrf52840_xxAA.a(nrf_mesh_keygen.c.obj)
                0x0002e970                nrf_mesh_keygen_aid
 .text.nrf_mesh_keygen_network_secmat
                0x0002e982       0x20 mesh/core/libmesh_core_nrf52840_xxAA.a(nrf_mesh_keygen.c.obj)
                0x0002e982                nrf_mesh_keygen_network_secmat
 *fill*         0x0002e9a2        0x2 
 .text.nrf_mesh_keygen_beacon_secmat
                0x0002e9a4       0x50 mesh/core/libmesh_core_nrf52840_xxAA.a(nrf_mesh_keygen.c.obj)
                0x0002e9a4                nrf_mesh_keygen_beacon_secmat
 .text.nrf_mesh_keygen_virtual_address
                0x0002e9f4       0x50 mesh/core/libmesh_core_nrf52840_xxAA.a(nrf_mesh_keygen.c.obj)
                0x0002e9f4                nrf_mesh_keygen_virtual_address
 .text.list_insert
                0x0002ea44       0x28 mesh/core/libmesh_core_nrf52840_xxAA.a(list.c.obj)
 .text.list_add
                0x0002ea6c       0x60 mesh/core/libmesh_core_nrf52840_xxAA.a(list.c.obj)
                0x0002ea6c                list_add
 .text.list_remove
                0x0002eacc       0x48 mesh/core/libmesh_core_nrf52840_xxAA.a(list.c.obj)
                0x0002eacc                list_remove
 .text.list_compare_add
                0x0002eb14       0x80 mesh/core/libmesh_core_nrf52840_xxAA.a(list.c.obj)
                0x0002eb14                list_compare_add
 .text.log_callback_rtt
                0x0002eb94       0x2c mesh/core/libmesh_core_nrf52840_xxAA.a(log.c.obj)
                0x0002eb94                log_callback_rtt
 .text.log_init
                0x0002ebc0       0x1c mesh/core/libmesh_core_nrf52840_xxAA.a(log.c.obj)
                0x0002ebc0                log_init
 .text.log_vprintf
                0x0002ebdc       0x18 mesh/core/libmesh_core_nrf52840_xxAA.a(log.c.obj)
                0x0002ebdc                log_vprintf
 .text.log_printf
                0x0002ebf4       0x18 mesh/core/libmesh_core_nrf52840_xxAA.a(log.c.obj)
                0x0002ebf4                log_printf
 .text.get_area_end
                0x0002ec0c        0xc mesh/core/libmesh_core_nrf52840_xxAA.a(flash_manager.c.obj)
 .text.handle_matches_filter
                0x0002ec18       0x26 mesh/core/libmesh_core_nrf52840_xxAA.a(flash_manager.c.obj)
 *fill*         0x0002ec3e        0x2 
 .text.get_packet_buffer
                0x0002ec40       0x2c mesh/core/libmesh_core_nrf52840_xxAA.a(flash_manager.c.obj)
 .text.get_entry_action
                0x0002ec6c       0x30 mesh/core/libmesh_core_nrf52840_xxAA.a(flash_manager.c.obj)
 .text.flash_area_is_blank
                0x0002ec9c       0x48 mesh/core/libmesh_core_nrf52840_xxAA.a(flash_manager.c.obj)
 .text.flash    0x0002ece4       0x1c mesh/core/libmesh_core_nrf52840_xxAA.a(flash_manager.c.obj)
 .text.free_packet_buffer
                0x0002ed00       0x54 mesh/core/libmesh_core_nrf52840_xxAA.a(flash_manager.c.obj)
 .text.reserve_action_buffer
                0x0002ed54       0x24 mesh/core/libmesh_core_nrf52840_xxAA.a(flash_manager.c.obj)
 .text.commit_action_buffer
                0x0002ed78       0x18 mesh/core/libmesh_core_nrf52840_xxAA.a(flash_manager.c.obj)
 .text.schedule_processing
                0x0002ed90        0xc mesh/core/libmesh_core_nrf52840_xxAA.a(flash_manager.c.obj)
 .text.get_next_entry
                0x0002ed9c       0x40 mesh/core/libmesh_core_nrf52840_xxAA.a(flash_manager.c.obj)
 .text.get_last_entry.isra.1
                0x0002eddc       0x30 mesh/core/libmesh_core_nrf52840_xxAA.a(flash_manager.c.obj)
 .text.process_action_queue
                0x0002ee0c      0x4e4 mesh/core/libmesh_core_nrf52840_xxAA.a(flash_manager.c.obj)
 .text.flash_op_ended_callback
                0x0002f2f0       0x24 mesh/core/libmesh_core_nrf52840_xxAA.a(flash_manager.c.obj)
 .text.flash_manager_init
                0x0002f314       0x68 mesh/core/libmesh_core_nrf52840_xxAA.a(flash_manager.c.obj)
                0x0002f314                flash_manager_init
 .text.flash_manager_remove
                0x0002f37c       0x24 mesh/core/libmesh_core_nrf52840_xxAA.a(flash_manager.c.obj)
                0x0002f37c                flash_manager_remove
 .text.flash_manager_entry_get
                0x0002f3a0       0x48 mesh/core/libmesh_core_nrf52840_xxAA.a(flash_manager.c.obj)
                0x0002f3a0                flash_manager_entry_get
 .text.flash_manager_entry_next_get
                0x0002f3e8       0x6c mesh/core/libmesh_core_nrf52840_xxAA.a(flash_manager.c.obj)
                0x0002f3e8                flash_manager_entry_next_get
 .text.flash_manager_entry_alloc
                0x0002f454       0x78 mesh/core/libmesh_core_nrf52840_xxAA.a(flash_manager.c.obj)
                0x0002f454                flash_manager_entry_alloc
 .text.flash_manager_entry_commit
                0x0002f4cc       0x12 mesh/core/libmesh_core_nrf52840_xxAA.a(flash_manager.c.obj)
                0x0002f4cc                flash_manager_entry_commit
 *fill*         0x0002f4de        0x2 
 .text.flash_manager_entry_invalidate
                0x0002f4e0       0x64 mesh/core/libmesh_core_nrf52840_xxAA.a(flash_manager.c.obj)
                0x0002f4e0                flash_manager_entry_invalidate
 .text.flash_manager_add
                0x0002f544      0x248 mesh/core/libmesh_core_nrf52840_xxAA.a(flash_manager.c.obj)
                0x0002f544                flash_manager_add
 .text.flash_manager_mem_listener_register
                0x0002f78c       0x44 mesh/core/libmesh_core_nrf52840_xxAA.a(flash_manager.c.obj)
                0x0002f78c                flash_manager_mem_listener_register
 .text.flash_manager_is_stable
                0x0002f7d0       0x24 mesh/core/libmesh_core_nrf52840_xxAA.a(flash_manager.c.obj)
                0x0002f7d0                flash_manager_is_stable
 .text.flash_manager_on_defrag_end
                0x0002f7f4       0x58 mesh/core/libmesh_core_nrf52840_xxAA.a(flash_manager.c.obj)
                0x0002f7f4                flash_manager_on_defrag_end
 .text.flash_manager_recovery_page_get
                0x0002f84c        0x4 mesh/core/libmesh_core_nrf52840_xxAA.a(flash_manager.c.obj)
                0x0002f84c                flash_manager_recovery_page_get
 .text.flash_manager_action_queue_empty_cb_set
                0x0002f850       0x28 mesh/core/libmesh_core_nrf52840_xxAA.a(flash_manager.c.obj)
                0x0002f850                flash_manager_action_queue_empty_cb_set
 .text.utils_xor
                0x0002f878       0x14 mesh/core/libmesh_core_nrf52840_xxAA.a(ccm_soft.c.obj)
 .text.ccm_soft_authenticate_blocks
                0x0002f88c       0x68 mesh/core/libmesh_core_nrf52840_xxAA.a(ccm_soft.c.obj)
 .text.utils_reverse_memcpy.constprop.0
                0x0002f8f4        0xa mesh/core/libmesh_core_nrf52840_xxAA.a(ccm_soft.c.obj)
 .text.ccm_soft_authenticate
                0x0002f8fe       0xa0 mesh/core/libmesh_core_nrf52840_xxAA.a(ccm_soft.c.obj)
 .text.ccm_soft_crypt
                0x0002f99e       0x6c mesh/core/libmesh_core_nrf52840_xxAA.a(ccm_soft.c.obj)
 .text.ccm_soft_encrypt
                0x0002fa0a       0x70 mesh/core/libmesh_core_nrf52840_xxAA.a(ccm_soft.c.obj)
                0x0002fa0a                ccm_soft_encrypt
 .text.ccm_soft_decrypt
                0x0002fa7a       0xfe mesh/core/libmesh_core_nrf52840_xxAA.a(ccm_soft.c.obj)
                0x0002fa7a                ccm_soft_decrypt
 .text.beacon_init
                0x0002fb78       0x48 mesh/core/libmesh_core_nrf52840_xxAA.a(beacon.c.obj)
                0x0002fb78                beacon_init
 .text.beacon_create
                0x0002fbc0       0x46 mesh/core/libmesh_core_nrf52840_xxAA.a(beacon.c.obj)
                0x0002fbc0                beacon_create
 *fill*         0x0002fc06        0x2 
 .text.beacon_tx
                0x0002fc08       0x3c mesh/core/libmesh_core_nrf52840_xxAA.a(beacon.c.obj)
                0x0002fc08                beacon_tx
 .text.beacon_packet_in
                0x0002fc44      0x160 mesh/core/libmesh_core_nrf52840_xxAA.a(beacon.c.obj)
                0x0002fc44                beacon_packet_in
 .text.entry_get
                0x0002fda4       0x88 mesh/core/libmesh_core_nrf52840_xxAA.a(flash_manager_internal.c.obj)
                0x0002fda4                entry_get
 .text.is_power_of_two
                0x0002fe2c        0xe mesh/core/libmesh_core_nrf52840_xxAA.a(core_tx.c.obj)
 *fill*         0x0002fe3a        0x2 
 .text.bearer_if_get
                0x0002fe3c       0x44 mesh/core/libmesh_core_nrf52840_xxAA.a(core_tx.c.obj)
 .text.core_tx_complete_cb_set
                0x0002fe80        0xc mesh/core/libmesh_core_nrf52840_xxAA.a(core_tx.c.obj)
                0x0002fe80                core_tx_complete_cb_set
 .text.core_tx_packet_alloc
                0x0002fe8c       0x88 mesh/core/libmesh_core_nrf52840_xxAA.a(core_tx.c.obj)
                0x0002fe8c                core_tx_packet_alloc
 .text.core_tx_packet_send
                0x0002ff14       0x80 mesh/core/libmesh_core_nrf52840_xxAA.a(core_tx.c.obj)
                0x0002ff14                core_tx_packet_send
 .text.core_tx_packet_discard
                0x0002ff94       0x80 mesh/core/libmesh_core_nrf52840_xxAA.a(core_tx.c.obj)
                0x0002ff94                core_tx_packet_discard
 .text.core_tx_complete
                0x00030014       0x10 mesh/core/libmesh_core_nrf52840_xxAA.a(core_tx.c.obj)
                0x00030014                core_tx_complete
 .text.core_tx_bearer_register
                0x00030024       0x84 mesh/core/libmesh_core_nrf52840_xxAA.a(core_tx.c.obj)
                0x00030024                core_tx_bearer_register
 .text.heartbeat_subscription_timer_cb
                0x000300a8       0x1c mesh/core/libmesh_core_nrf52840_xxAA.a(heartbeat.c.obj)
 .text.heartbeat_opcode_handle
                0x000300c4       0x78 mesh/core/libmesh_core_nrf52840_xxAA.a(heartbeat.c.obj)
 .text.heartbeat_send
                0x0003013c       0xd0 mesh/core/libmesh_core_nrf52840_xxAA.a(heartbeat.c.obj)
 .text.heartbeat_core_evt_cb
                0x0003020c       0x90 mesh/core/libmesh_core_nrf52840_xxAA.a(heartbeat.c.obj)
 .text.heartbeat_publication_timer_cb
                0x0003029c       0xc8 mesh/core/libmesh_core_nrf52840_xxAA.a(heartbeat.c.obj)
 .text.heartbeat_on_feature_change_trigger
                0x00030364       0x50 mesh/core/libmesh_core_nrf52840_xxAA.a(heartbeat.c.obj)
                0x00030364                heartbeat_on_feature_change_trigger
 .text.heartbeat_init
                0x000303b4       0x8c mesh/core/libmesh_core_nrf52840_xxAA.a(heartbeat.c.obj)
                0x000303b4                heartbeat_init
 .text.heartbeat_subscription_set
                0x00030440       0x90 mesh/core/libmesh_core_nrf52840_xxAA.a(heartbeat.c.obj)
                0x00030440                heartbeat_subscription_set
 .text.heartbeat_subscription_get
                0x000304d0        0x8 mesh/core/libmesh_core_nrf52840_xxAA.a(heartbeat.c.obj)
                0x000304d0                heartbeat_subscription_get
 .text.heartbeat_config_server_cb_set
                0x000304d8       0x3c mesh/core/libmesh_core_nrf52840_xxAA.a(heartbeat.c.obj)
                0x000304d8                heartbeat_config_server_cb_set
 .text.heartbeat_publication_state_updated
                0x00030514       0x80 mesh/core/libmesh_core_nrf52840_xxAA.a(heartbeat.c.obj)
                0x00030514                heartbeat_publication_state_updated
 .text.make_network_beacon_cmac
                0x00030594       0x22 mesh/core/libmesh_core_nrf52840_xxAA.a(net_beacon.c.obj)
 *fill*         0x000305b6        0x2 
 .text.network_beacon_tx_cb
                0x000305b8       0xe8 mesh/core/libmesh_core_nrf52840_xxAA.a(net_beacon.c.obj)
 .text.net_beacon_init
                0x000306a0       0x60 mesh/core/libmesh_core_nrf52840_xxAA.a(net_beacon.c.obj)
                0x000306a0                net_beacon_init
 .text.net_beacon_state_set
                0x00030700       0x34 mesh/core/libmesh_core_nrf52840_xxAA.a(net_beacon.c.obj)
                0x00030700                net_beacon_state_set
 .text.net_beacon_state_get
                0x00030734        0xc mesh/core/libmesh_core_nrf52840_xxAA.a(net_beacon.c.obj)
                0x00030734                net_beacon_state_get
 .text.net_beacon_packet_in
                0x00030740      0x104 mesh/core/libmesh_core_nrf52840_xxAA.a(net_beacon.c.obj)
                0x00030740                net_beacon_packet_in
 .text.packet_discard
                0x00030844       0x14 mesh/core/libmesh_core_nrf52840_xxAA.a(core_tx_adv.c.obj)
 .text.packet_send
                0x00030858       0x14 mesh/core/libmesh_core_nrf52840_xxAA.a(core_tx_adv.c.obj)
 .text.packet_alloc
                0x0003086c       0x3c mesh/core/libmesh_core_nrf52840_xxAA.a(core_tx_adv.c.obj)
 .text.adv_tx_complete_callback
                0x000308a8       0x30 mesh/core/libmesh_core_nrf52840_xxAA.a(core_tx_adv.c.obj)
 .text.core_tx_adv_init
                0x000308d8       0x58 mesh/core/libmesh_core_nrf52840_xxAA.a(core_tx_adv.c.obj)
                0x000308d8                core_tx_adv_init
 .text.core_tx_adv_count_set
                0x00030930       0x38 mesh/core/libmesh_core_nrf52840_xxAA.a(core_tx_adv.c.obj)
                0x00030930                core_tx_adv_count_set
 .text.core_tx_adv_count_get
                0x00030968       0x28 mesh/core/libmesh_core_nrf52840_xxAA.a(core_tx_adv.c.obj)
                0x00030968                core_tx_adv_count_get
 .text.core_tx_adv_interval_set
                0x00030990       0x34 mesh/core/libmesh_core_nrf52840_xxAA.a(core_tx_adv.c.obj)
                0x00030990                core_tx_adv_interval_set
 .text.core_tx_adv_interval_get
                0x000309c4       0x34 mesh/core/libmesh_core_nrf52840_xxAA.a(core_tx_adv.c.obj)
                0x000309c4                core_tx_adv_interval_get
 .text.ad_listener_subscribe
                0x000309f8       0x5c mesh/core/libmesh_core_nrf52840_xxAA.a(ad_listener.c.obj)
                0x000309f8                ad_listener_subscribe
 .text.ad_listener_process
                0x00030a54       0x64 mesh/core/libmesh_core_nrf52840_xxAA.a(ad_listener.c.obj)
                0x00030a54                ad_listener_process
 .text.adtype_filter_handle
                0x00030ab8       0x64 mesh/core/libmesh_core_nrf52840_xxAA.a(ad_type_filter.c.obj)
 .text.bearer_adtype_filtering_set
                0x00030b1c       0x1c mesh/core/libmesh_core_nrf52840_xxAA.a(ad_type_filter.c.obj)
                0x00030b1c                bearer_adtype_filtering_set
 .text.bearer_adtype_add
                0x00030b38       0x20 mesh/core/libmesh_core_nrf52840_xxAA.a(ad_type_filter.c.obj)
                0x00030b38                bearer_adtype_add
 .text.bearer_adtype_mode_set
                0x00030b58       0x24 mesh/core/libmesh_core_nrf52840_xxAA.a(ad_type_filter.c.obj)
                0x00030b58                bearer_adtype_mode_set
 .text.set_gap_addr_type
                0x00030b7c       0x34 mesh/core/libmesh_core_nrf52840_xxAA.a(advertiser.c.obj)
 .text.tx_complete_event_callback
                0x00030bb0       0x3c mesh/core/libmesh_core_nrf52840_xxAA.a(advertiser.c.obj)
 .text.broadcast_complete_cb
                0x00030bec       0x64 mesh/core/libmesh_core_nrf52840_xxAA.a(advertiser.c.obj)
 .text.schedule_first_time
                0x00030c50       0x28 mesh/core/libmesh_core_nrf52840_xxAA.a(advertiser.c.obj)
 .text.timeout_event
                0x00030c78      0x130 mesh/core/libmesh_core_nrf52840_xxAA.a(advertiser.c.obj)
 .text.advertiser_init
                0x00030da8        0xc mesh/core/libmesh_core_nrf52840_xxAA.a(advertiser.c.obj)
                0x00030da8                advertiser_init
 .text.advertiser_enable
                0x00030db4       0x2a mesh/core/libmesh_core_nrf52840_xxAA.a(advertiser.c.obj)
                0x00030db4                advertiser_enable
 *fill*         0x00030dde        0x2 
 .text.advertiser_packet_alloc
                0x00030de0       0x94 mesh/core/libmesh_core_nrf52840_xxAA.a(advertiser.c.obj)
                0x00030de0                advertiser_packet_alloc
 .text.advertiser_packet_send
                0x00030e74       0x78 mesh/core/libmesh_core_nrf52840_xxAA.a(advertiser.c.obj)
                0x00030e74                advertiser_packet_send
 .text.advertiser_packet_discard
                0x00030eec       0x2c mesh/core/libmesh_core_nrf52840_xxAA.a(advertiser.c.obj)
                0x00030eec                advertiser_packet_discard
 .text.advertiser_interval_set
                0x00030f18       0x68 mesh/core/libmesh_core_nrf52840_xxAA.a(advertiser.c.obj)
                0x00030f18                advertiser_interval_set
 .text.advertiser_flush
                0x00030f80       0x1e mesh/core/libmesh_core_nrf52840_xxAA.a(advertiser.c.obj)
                0x00030f80                advertiser_flush
 *fill*         0x00030f9e        0x2 
 .text.advertiser_address_default_get
                0x00030fa0       0x38 mesh/core/libmesh_core_nrf52840_xxAA.a(advertiser.c.obj)
                0x00030fa0                advertiser_address_default_get
 .text.advertiser_instance_init
                0x00030fd8       0xbc mesh/core/libmesh_core_nrf52840_xxAA.a(advertiser.c.obj)
                0x00030fd8                advertiser_instance_init
 .text.action_switch
                0x00031094       0xc0 mesh/core/libmesh_core_nrf52840_xxAA.a(bearer_handler.c.obj)
 .text.bearer_handler_init
                0x00031154       0x2c mesh/core/libmesh_core_nrf52840_xxAA.a(bearer_handler.c.obj)
                0x00031154                bearer_handler_init
 .text.bearer_handler_start
                0x00031180       0x1c mesh/core/libmesh_core_nrf52840_xxAA.a(bearer_handler.c.obj)
                0x00031180                bearer_handler_start
 .text.bearer_handler_action_enqueue
                0x0003119c       0x94 mesh/core/libmesh_core_nrf52840_xxAA.a(bearer_handler.c.obj)
                0x0003119c                bearer_handler_action_enqueue
 .text.bearer_handler_action_end
                0x00031230       0x78 mesh/core/libmesh_core_nrf52840_xxAA.a(bearer_handler.c.obj)
                0x00031230                bearer_handler_action_end
 .text.bearer_handler_radio_irq_handler
                0x000312a8       0x64 mesh/core/libmesh_core_nrf52840_xxAA.a(bearer_handler.c.obj)
                0x000312a8                bearer_handler_radio_irq_handler
 .text.bearer_handler_timer_irq_handler
                0x0003130c       0x30 mesh/core/libmesh_core_nrf52840_xxAA.a(bearer_handler.c.obj)
                0x0003130c                bearer_handler_timer_irq_handler
 .text.bearer_handler_on_ts_begin
                0x0003133c       0x44 mesh/core/libmesh_core_nrf52840_xxAA.a(bearer_handler.c.obj)
                0x0003133c                bearer_handler_on_ts_begin
 .text.bearer_handler_on_ts_end
                0x00031380       0x48 mesh/core/libmesh_core_nrf52840_xxAA.a(bearer_handler.c.obj)
                0x00031380                bearer_handler_on_ts_end
 .text.radio_irq_handler
                0x000313c8       0xb0 mesh/core/libmesh_core_nrf52840_xxAA.a(broadcast.c.obj)
 .text.broadcast_start
                0x00031478       0x8c mesh/core/libmesh_core_nrf52840_xxAA.a(broadcast.c.obj)
 .text.broadcast_send
                0x00031504       0x80 mesh/core/libmesh_core_nrf52840_xxAA.a(broadcast.c.obj)
                0x00031504                broadcast_send
 .text.fen_filter_start
                0x00031584       0x3c mesh/core/libmesh_core_nrf52840_xxAA.a(filter_engine.c.obj)
                0x00031584                fen_filter_start
 .text.fen_filter_stop
                0x000315c0       0x2c mesh/core/libmesh_core_nrf52840_xxAA.a(filter_engine.c.obj)
                0x000315c0                fen_filter_stop
 .text.fen_filters_apply
                0x000315ec       0x34 mesh/core/libmesh_core_nrf52840_xxAA.a(filter_engine.c.obj)
                0x000315ec                fen_filters_apply
 .text.radio_config_reset
                0x00031620       0x34 mesh/core/libmesh_core_nrf52840_xxAA.a(radio_config.c.obj)
                0x00031620                radio_config_reset
 .text.radio_config_channel_set
                0x00031654       0x34 mesh/core/libmesh_core_nrf52840_xxAA.a(radio_config.c.obj)
                0x00031654                radio_config_channel_set
 .text.radio_config_config
                0x00031688       0xa4 mesh/core/libmesh_core_nrf52840_xxAA.a(radio_config.c.obj)
                0x00031688                radio_config_config
 .text.radio_config_access_addr_set
                0x0003172c       0x68 mesh/core/libmesh_core_nrf52840_xxAA.a(radio_config.c.obj)
                0x0003172c                radio_config_access_addr_set
 .text.radio_trigger
                0x00031794       0x24 mesh/core/libmesh_core_nrf52840_xxAA.a(scanner.c.obj)
 .text.scan_window_end
                0x000317b8       0x10 mesh/core/libmesh_core_nrf52840_xxAA.a(scanner.c.obj)
 .text.scan_window_start
                0x000317c8       0x24 mesh/core/libmesh_core_nrf52840_xxAA.a(scanner.c.obj)
 .text.radio_configure
                0x000317ec       0x78 mesh/core/libmesh_core_nrf52840_xxAA.a(scanner.c.obj)
 .text.radio_set_packet
                0x00031864       0x50 mesh/core/libmesh_core_nrf52840_xxAA.a(scanner.c.obj)
 .text.radio_start
                0x000318b4       0x4c mesh/core/libmesh_core_nrf52840_xxAA.a(scanner.c.obj)
 .text.radio_stop
                0x00031900       0x30 mesh/core/libmesh_core_nrf52840_xxAA.a(scanner.c.obj)
 .text.schedule_timers
                0x00031930       0x38 mesh/core/libmesh_core_nrf52840_xxAA.a(scanner.c.obj)
 .text.scanner_radio_start
                0x00031968       0x28 mesh/core/libmesh_core_nrf52840_xxAA.a(scanner.c.obj)
                0x00031968                scanner_radio_start
 .text.scanner_radio_stop
                0x00031990       0x10 mesh/core/libmesh_core_nrf52840_xxAA.a(scanner.c.obj)
                0x00031990                scanner_radio_stop
 .text.scanner_radio_irq_handler
                0x000319a0      0x13c mesh/core/libmesh_core_nrf52840_xxAA.a(scanner.c.obj)
                0x000319a0                scanner_radio_irq_handler
 .text.scanner_enable
                0x00031adc       0x30 mesh/core/libmesh_core_nrf52840_xxAA.a(scanner.c.obj)
                0x00031adc                scanner_enable
 .text.scanner_packet_release
                0x00031b0c       0x38 mesh/core/libmesh_core_nrf52840_xxAA.a(scanner.c.obj)
                0x00031b0c                scanner_packet_release
 .text.scanner_rx
                0x00031b44       0x30 mesh/core/libmesh_core_nrf52840_xxAA.a(scanner.c.obj)
                0x00031b44                scanner_rx
 .text.scanner_rx_pending
                0x00031b74        0xc mesh/core/libmesh_core_nrf52840_xxAA.a(scanner.c.obj)
                0x00031b74                scanner_rx_pending
 .text.scanner_config_scan_time_set
                0x00031b80       0x68 mesh/core/libmesh_core_nrf52840_xxAA.a(scanner.c.obj)
                0x00031b80                scanner_config_scan_time_set
 .text.scanner_config_channels_set
                0x00031be8       0x64 mesh/core/libmesh_core_nrf52840_xxAA.a(scanner.c.obj)
                0x00031be8                scanner_config_channels_set
 .text.scanner_config_access_addresses_set
                0x00031c4c       0x44 mesh/core/libmesh_core_nrf52840_xxAA.a(scanner.c.obj)
                0x00031c4c                scanner_config_access_addresses_set
 .text.scanner_config_reset
                0x00031c90       0x50 mesh/core/libmesh_core_nrf52840_xxAA.a(scanner.c.obj)
                0x00031c90                scanner_config_reset
 .text.scanner_init
                0x00031ce0       0x54 mesh/core/libmesh_core_nrf52840_xxAA.a(scanner.c.obj)
                0x00031ce0                scanner_init
 .text.internal_event_push
                0x00031d34       0x28 mesh/core/libmesh_core_nrf52840_xxAA.a(internal_event.c.obj)
                0x00031d34                internal_event_push
 .text.sd_ecb_block_encrypt
                0x00031d5c        0x4 mesh/core/libmesh_core_nrf52840_xxAA.a(aes.c.obj)
 .text.aes_encrypt
                0x00031d60       0x32 mesh/core/libmesh_core_nrf52840_xxAA.a(aes.c.obj)
                0x00031d60                aes_encrypt
 *fill*         0x00031d92        0x2 
 .text.msg_cache_init
                0x00031d94       0x24 mesh/core/libmesh_core_nrf52840_xxAA.a(msg_cache.c.obj)
                0x00031d94                msg_cache_init
 .text.msg_cache_entry_exists
                0x00031db8       0x3c mesh/core/libmesh_core_nrf52840_xxAA.a(msg_cache.c.obj)
                0x00031db8                msg_cache_entry_exists
 .text.msg_cache_entry_add
                0x00031df4       0x2c mesh/core/libmesh_core_nrf52840_xxAA.a(msg_cache.c.obj)
                0x00031df4                msg_cache_entry_add
 .text.block_ack_full
                0x00031e20       0x28 mesh/core/libmesh_core_nrf52840_xxAA.a(transport.c.obj)
 .text.seqauth_sequence_number_get
                0x00031e48       0x12 mesh/core/libmesh_core_nrf52840_xxAA.a(transport.c.obj)
 *fill*         0x00031e5a        0x2 
 .text.sar_rx_session_mark_as_handled
                0x00031e5c       0x54 mesh/core/libmesh_core_nrf52840_xxAA.a(transport.c.obj)
 .text.sar_ctx_find
                0x00031eb0       0x3c mesh/core/libmesh_core_nrf52840_xxAA.a(transport.c.obj)
 .text.control_packet_callback_get
                0x00031eec       0x44 mesh/core/libmesh_core_nrf52840_xxAA.a(transport.c.obj)
 .text.m_send_sar_cancel_event
                0x00031f30       0x28 mesh/core/libmesh_core_nrf52840_xxAA.a(transport.c.obj)
 .text.tx_complete
                0x00031f58       0x34 mesh/core/libmesh_core_nrf52840_xxAA.a(transport.c.obj)
 .text.upper_trs_packet_encrypt
                0x00031f8c       0xbc mesh/core/libmesh_core_nrf52840_xxAA.a(transport.c.obj)
 .text.sar_ctx_free
                0x00032048       0x3c mesh/core/libmesh_core_nrf52840_xxAA.a(transport.c.obj)
 .text.sar_ctx_tx_complete
                0x00032084       0xb8 mesh/core/libmesh_core_nrf52840_xxAA.a(transport.c.obj)
 .text.sar_ctx_cancel
                0x0003213c      0x108 mesh/core/libmesh_core_nrf52840_xxAA.a(transport.c.obj)
 .text.abort_timeout
                0x00032244        0x8 mesh/core/libmesh_core_nrf52840_xxAA.a(transport.c.obj)
 .text.sar_ctx_alloc
                0x0003224c       0xbc mesh/core/libmesh_core_nrf52840_xxAA.a(transport.c.obj)
 .text.test_transport_decrypt
                0x00032308       0x88 mesh/core/libmesh_core_nrf52840_xxAA.a(transport.c.obj)
 .text.upper_transport_access_packet_in
                0x00032390      0x28c mesh/core/libmesh_core_nrf52840_xxAA.a(transport.c.obj)
 .text.trs_packet_header_build
                0x0003261c       0xa6 mesh/core/libmesh_core_nrf52840_xxAA.a(transport.c.obj)
 *fill*         0x000326c2        0x2 
 .text.tx_retry_timer_reset
                0x000326c4       0x50 mesh/core/libmesh_core_nrf52840_xxAA.a(transport.c.obj)
 .text.trs_sar_packet_out
                0x00032714       0xec mesh/core/libmesh_core_nrf52840_xxAA.a(transport.c.obj)
 .text.retry_timeout
                0x00032800       0x54 mesh/core/libmesh_core_nrf52840_xxAA.a(transport.c.obj)
 .text.upper_transport_packet_in
                0x00032854      0x1b0 mesh/core/libmesh_core_nrf52840_xxAA.a(transport.c.obj)
 .text.upper_transport_tx
                0x00032a04      0x230 mesh/core/libmesh_core_nrf52840_xxAA.a(transport.c.obj)
 .text.transport_sar_mem_funcs_reset
                0x00032c34       0x28 mesh/core/libmesh_core_nrf52840_xxAA.a(transport.c.obj)
                0x00032c34                transport_sar_mem_funcs_reset
 .text.transport_init
                0x00032c5c       0x7c mesh/core/libmesh_core_nrf52840_xxAA.a(transport.c.obj)
                0x00032c5c                transport_init
 .text.transport_tx
                0x00032cd8       0xa4 mesh/core/libmesh_core_nrf52840_xxAA.a(transport.c.obj)
                0x00032cd8                transport_tx
 .text.transport_control_tx
                0x00032d7c       0x8e mesh/core/libmesh_core_nrf52840_xxAA.a(transport.c.obj)
                0x00032d7c                transport_control_tx
 *fill*         0x00032e0a        0x2 
 .text.sar_ack_send
                0x00032e0c      0x124 mesh/core/libmesh_core_nrf52840_xxAA.a(transport.c.obj)
 .text.transport_sar_process
                0x00032f30       0x74 mesh/core/libmesh_core_nrf52840_xxAA.a(transport.c.obj)
 .text.transport_packet_in
                0x00032fa4      0x524 mesh/core/libmesh_core_nrf52840_xxAA.a(transport.c.obj)
                0x00032fa4                transport_packet_in
 .text.ack_timeout
                0x000334c8       0x34 mesh/core/libmesh_core_nrf52840_xxAA.a(transport.c.obj)
 .text.transport_opt_set
                0x000334fc       0xd0 mesh/core/libmesh_core_nrf52840_xxAA.a(transport.c.obj)
                0x000334fc                transport_opt_set
 .text.transport_opt_get
                0x000335cc       0x68 mesh/core/libmesh_core_nrf52840_xxAA.a(transport.c.obj)
                0x000335cc                transport_opt_get
 .text.transport_control_packet_consumer_add
                0x00033634       0x5c mesh/core/libmesh_core_nrf52840_xxAA.a(transport.c.obj)
                0x00033634                transport_control_packet_consumer_add
 .text.m_adjust_desired_packet_length
                0x00033690       0x34 mesh/core/libmesh_core_nrf52840_xxAA.a(packet_buffer.c.obj)
 .text.m_index_increment.part.0
                0x000336c4       0x14 mesh/core/libmesh_core_nrf52840_xxAA.a(packet_buffer.c.obj)
 .text.m_free_popped_packet
                0x000336d8       0x60 mesh/core/libmesh_core_nrf52840_xxAA.a(packet_buffer.c.obj)
 .text.free_skipped_packets
                0x00033738       0x1c mesh/core/libmesh_core_nrf52840_xxAA.a(packet_buffer.c.obj)
 .text.packet_buffer_init
                0x00033754       0xe0 mesh/core/libmesh_core_nrf52840_xxAA.a(packet_buffer.c.obj)
                0x00033754                packet_buffer_init
 .text.packet_buffer_flush
                0x00033834       0x5e mesh/core/libmesh_core_nrf52840_xxAA.a(packet_buffer.c.obj)
                0x00033834                packet_buffer_flush
 *fill*         0x00033892        0x2 
 .text.packet_buffer_reserve
                0x00033894      0x11c mesh/core/libmesh_core_nrf52840_xxAA.a(packet_buffer.c.obj)
                0x00033894                packet_buffer_reserve
 .text.packet_buffer_commit
                0x000339b0      0x104 mesh/core/libmesh_core_nrf52840_xxAA.a(packet_buffer.c.obj)
                0x000339b0                packet_buffer_commit
 .text.packet_buffer_pop
                0x00033ab4       0x58 mesh/core/libmesh_core_nrf52840_xxAA.a(packet_buffer.c.obj)
                0x00033ab4                packet_buffer_pop
 .text.packet_buffer_can_pop
                0x00033b0c       0x28 mesh/core/libmesh_core_nrf52840_xxAA.a(packet_buffer.c.obj)
                0x00033b0c                packet_buffer_can_pop
 .text.packet_buffer_packets_ready_to_pop
                0x00033b34       0x58 mesh/core/libmesh_core_nrf52840_xxAA.a(packet_buffer.c.obj)
                0x00033b34                packet_buffer_packets_ready_to_pop
 .text.packet_buffer_free
                0x00033b8c       0x8c mesh/core/libmesh_core_nrf52840_xxAA.a(packet_buffer.c.obj)
                0x00033b8c                packet_buffer_free
 .text.get_last_page
                0x00033c18       0x14 mesh/core/libmesh_core_nrf52840_xxAA.a(flash_manager_defrag.c.obj)
 .text.defrag_on_end
                0x00033c2c       0x1c mesh/core/libmesh_core_nrf52840_xxAA.a(flash_manager_defrag.c.obj)
 .text.execute_procedure_step
                0x00033c48       0xa0 mesh/core/libmesh_core_nrf52840_xxAA.a(flash_manager_defrag.c.obj)
 .text.get_next_entry
                0x00033ce8       0x40 mesh/core/libmesh_core_nrf52840_xxAA.a(flash_manager_defrag.c.obj)
 .text.get_next_data_entry
                0x00033d28       0x20 mesh/core/libmesh_core_nrf52840_xxAA.a(flash_manager_defrag.c.obj)
 .text.on_flash_op_end
                0x00033d48       0x30 mesh/core/libmesh_core_nrf52840_xxAA.a(flash_manager_defrag.c.obj)
 .text.check_for_invalid_entries
                0x00033d78       0x38 mesh/core/libmesh_core_nrf52840_xxAA.a(flash_manager_defrag.c.obj)
 .text.erase_recovery_area
                0x00033db0       0x34 mesh/core/libmesh_core_nrf52840_xxAA.a(flash_manager_defrag.c.obj)
 .text.flash.constprop.6
                0x00033de4       0x24 mesh/core/libmesh_core_nrf52840_xxAA.a(flash_manager_defrag.c.obj)
 .text.seal_storage_page
                0x00033e08       0x50 mesh/core/libmesh_core_nrf52840_xxAA.a(flash_manager_defrag.c.obj)
 .text.invalidate_duplicate_entries
                0x00033e58       0x9c mesh/core/libmesh_core_nrf52840_xxAA.a(flash_manager_defrag.c.obj)
 .text.copy_metadata
                0x00033ef4       0x3c mesh/core/libmesh_core_nrf52840_xxAA.a(flash_manager_defrag.c.obj)
 .text.write_defrag_start_pointer
                0x00033f30       0x20 mesh/core/libmesh_core_nrf52840_xxAA.a(flash_manager_defrag.c.obj)
 .text.write_back
                0x00033f50       0x28 mesh/core/libmesh_core_nrf52840_xxAA.a(flash_manager_defrag.c.obj)
 .text.post_process
                0x00033f78       0x40 mesh/core/libmesh_core_nrf52840_xxAA.a(flash_manager_defrag.c.obj)
 .text.backup_entries
                0x00033fb8      0x118 mesh/core/libmesh_core_nrf52840_xxAA.a(flash_manager_defrag.c.obj)
 .text.erase_source
                0x000340d0       0x34 mesh/core/libmesh_core_nrf52840_xxAA.a(flash_manager_defrag.c.obj)
 .text.flash_manager_defrag_init
                0x00034104       0x98 mesh/core/libmesh_core_nrf52840_xxAA.a(flash_manager_defrag.c.obj)
                0x00034104                flash_manager_defrag_init
 .text.flash_manager_defrag_is_running
                0x0003419c       0x10 mesh/core/libmesh_core_nrf52840_xxAA.a(flash_manager_defrag.c.obj)
                0x0003419c                flash_manager_defrag_is_running
 .text.flash_manager_defrag
                0x000341ac       0xd8 mesh/core/libmesh_core_nrf52840_xxAA.a(flash_manager_defrag.c.obj)
                0x000341ac                flash_manager_defrag
 .text.flash_manager_defrag_recovery_page_get
                0x00034284        0xc mesh/core/libmesh_core_nrf52840_xxAA.a(flash_manager_defrag.c.obj)
                0x00034284                flash_manager_defrag_recovery_page_get
 .text.fifo_init
                0x00034290       0x50 mesh/core/libmesh_core_nrf52840_xxAA.a(fifo.c.obj)
                0x00034290                fifo_init
 .text.fifo_push
                0x000342e0       0x50 mesh/core/libmesh_core_nrf52840_xxAA.a(fifo.c.obj)
                0x000342e0                fifo_push
 .text.fifo_pop
                0x00034330       0x52 mesh/core/libmesh_core_nrf52840_xxAA.a(fifo.c.obj)
                0x00034330                fifo_pop
 *fill*         0x00034382        0x2 
 .text.packet_mgr_init
                0x00034384       0x4c mesh/core/libmesh_core_nrf52840_xxAA.a(packet_mgr.c.obj)
                0x00034384                packet_mgr_init
 .text.send_end_events
                0x000343d0       0x84 mesh/core/libmesh_core_nrf52840_xxAA.a(mesh_flash.c.obj)
 .text.flash_op_schedule
                0x00034454       0x9c mesh/core/libmesh_core_nrf52840_xxAA.a(mesh_flash.c.obj)
 .text.flash_op_start
                0x000344f0      0x170 mesh/core/libmesh_core_nrf52840_xxAA.a(mesh_flash.c.obj)
 .text.mesh_flash_init
                0x00034660       0x88 mesh/core/libmesh_core_nrf52840_xxAA.a(mesh_flash.c.obj)
                0x00034660                mesh_flash_init
 .text.mesh_flash_user_callback_set
                0x000346e8       0x2c mesh/core/libmesh_core_nrf52840_xxAA.a(mesh_flash.c.obj)
                0x000346e8                mesh_flash_user_callback_set
 .text.mesh_flash_op_push
                0x00034714      0x128 mesh/core/libmesh_core_nrf52840_xxAA.a(mesh_flash.c.obj)
                0x00034714                mesh_flash_op_push
 .text.queue_init
                0x0003483c       0x20 mesh/core/libmesh_core_nrf52840_xxAA.a(queue.c.obj)
                0x0003483c                queue_init
 .text.queue_push
                0x0003485c       0x48 mesh/core/libmesh_core_nrf52840_xxAA.a(queue.c.obj)
                0x0003485c                queue_push
 .text.queue_pop
                0x000348a4       0x34 mesh/core/libmesh_core_nrf52840_xxAA.a(queue.c.obj)
                0x000348a4                queue_pop
 .text.queue_peek
                0x000348d8       0x1c mesh/core/libmesh_core_nrf52840_xxAA.a(queue.c.obj)
                0x000348d8                queue_peek
 .text.my_xor.constprop.1
                0x000348f4       0x20 mesh/core/libmesh_core_nrf52840_xxAA.a(aes_cmac.c.obj)
 .text.utils_lshift.constprop.2
                0x00034914       0x24 mesh/core/libmesh_core_nrf52840_xxAA.a(aes_cmac.c.obj)
 .text.aes_cmac_subkey_generate
                0x00034938       0x6c mesh/core/libmesh_core_nrf52840_xxAA.a(aes_cmac.c.obj)
                0x00034938                aes_cmac_subkey_generate
 .text.aes_cmac
                0x000349a4       0xbc mesh/core/libmesh_core_nrf52840_xxAA.a(aes_cmac.c.obj)
                0x000349a4                aes_cmac
 .text.stage_get_available
                0x00034a60       0x24 mesh/core/libmesh_core_nrf52840_xxAA.a(msqueue.c.obj)
 .text.msq_get  0x00034a84       0x4c mesh/core/libmesh_core_nrf52840_xxAA.a(msqueue.c.obj)
                0x00034a84                msq_get
 .text.msq_move
                0x00034ad0       0x44 mesh/core/libmesh_core_nrf52840_xxAA.a(msqueue.c.obj)
                0x00034ad0                msq_move
 .text.msq_reset
                0x00034b14       0x2c mesh/core/libmesh_core_nrf52840_xxAA.a(msqueue.c.obj)
                0x00034b14                msq_reset
 .text.msq_init
                0x00034b40       0x78 mesh/core/libmesh_core_nrf52840_xxAA.a(msqueue.c.obj)
                0x00034b40                msq_init
 .text.msq_available
                0x00034bb8       0x3c mesh/core/libmesh_core_nrf52840_xxAA.a(msqueue.c.obj)
                0x00034bb8                msq_available
 .text.replay_cache_add
                0x00034bf4       0x60 mesh/core/libmesh_core_nrf52840_xxAA.a(replay_cache.c.obj)
                0x00034bf4                replay_cache_add
 .text.replay_cache_has_room
                0x00034c54       0x38 mesh/core/libmesh_core_nrf52840_xxAA.a(replay_cache.c.obj)
                0x00034c54                replay_cache_has_room
 .text.replay_cache_has_elem
                0x00034c8c       0x38 mesh/core/libmesh_core_nrf52840_xxAA.a(replay_cache.c.obj)
                0x00034c8c                replay_cache_has_elem
 .text.replay_cache_clear
                0x00034cc4       0x28 mesh/core/libmesh_core_nrf52840_xxAA.a(replay_cache.c.obj)
                0x00034cc4                replay_cache_clear
 .text.replay_cache_init
                0x00034cec        0x4 mesh/core/libmesh_core_nrf52840_xxAA.a(replay_cache.c.obj)
                0x00034cec                replay_cache_init
 .text.wait_for_ready
                0x00034cf0       0x10 mesh/core/libmesh_core_nrf52840_xxAA.a(nrf_flash.c.obj)
 .text.nrf_flash_erase
                0x00034d00       0x50 mesh/core/libmesh_core_nrf52840_xxAA.a(nrf_flash.c.obj)
                0x00034d00                nrf_flash_erase
 .text.nrf_flash_write
                0x00034d50       0x50 mesh/core/libmesh_core_nrf52840_xxAA.a(nrf_flash.c.obj)
                0x00034d50                nrf_flash_write
 .text._GetAvailWriteSpace
                0x00034da0       0x1c external/rtt/librtt_nrf52840_xxAA.a(SEGGER_RTT.c.obj)
 .text._WriteNoCheck
                0x00034dbc       0x3c external/rtt/librtt_nrf52840_xxAA.a(SEGGER_RTT.c.obj)
 .text._WriteBlocking
                0x00034df8       0x52 external/rtt/librtt_nrf52840_xxAA.a(SEGGER_RTT.c.obj)
 *fill*         0x00034e4a        0x2 
 .text._DoInit  0x00034e4c       0x60 external/rtt/librtt_nrf52840_xxAA.a(SEGGER_RTT.c.obj)
 .text.SEGGER_RTT_WriteNoLock
                0x00034eac       0x68 external/rtt/librtt_nrf52840_xxAA.a(SEGGER_RTT.c.obj)
                0x00034eac                SEGGER_RTT_WriteNoLock
 .text.SEGGER_RTT_Write
                0x00034f14       0x34 external/rtt/librtt_nrf52840_xxAA.a(SEGGER_RTT.c.obj)
                0x00034f14                SEGGER_RTT_Write
 .text._StoreChar
                0x00034f48       0x3e external/rtt/librtt_nrf52840_xxAA.a(SEGGER_RTT_printf.c.obj)
 *fill*         0x00034f86        0x2 
 .text._PrintUnsigned
                0x00034f88       0xd0 external/rtt/librtt_nrf52840_xxAA.a(SEGGER_RTT_printf.c.obj)
 .text.SEGGER_RTT_vprintf
                0x00035058      0x246 external/rtt/librtt_nrf52840_xxAA.a(SEGGER_RTT_printf.c.obj)
                0x00035058                SEGGER_RTT_vprintf
 .text.SEGGER_RTT_printf
                0x0003529e       0x1e external/rtt/librtt_nrf52840_xxAA.a(SEGGER_RTT_printf.c.obj)
                0x0003529e                SEGGER_RTT_printf
 .text.uECC_vli_mult
                0x000352bc       0x64 external/micro-ecc/libuECC_nrf52840_xxAA.a(uECC.c.obj)
 .text.uECC_vli_clear
                0x00035320       0x16 external/micro-ecc/libuECC_nrf52840_xxAA.a(uECC.c.obj)
 .text.uECC_vli_isZero
                0x00035336       0x1e external/micro-ecc/libuECC_nrf52840_xxAA.a(uECC.c.obj)
 .text.uECC_vli_testBit
                0x00035354       0x14 external/micro-ecc/libuECC_nrf52840_xxAA.a(uECC.c.obj)
 .text.uECC_vli_numBits
                0x00035368       0x3a external/micro-ecc/libuECC_nrf52840_xxAA.a(uECC.c.obj)
 .text.uECC_vli_set
                0x000353a2       0x18 external/micro-ecc/libuECC_nrf52840_xxAA.a(uECC.c.obj)
 .text.uECC_vli_cmp_unsafe
                0x000353ba       0x28 external/micro-ecc/libuECC_nrf52840_xxAA.a(uECC.c.obj)
 .text.uECC_vli_rshift1
                0x000353e2       0x1c external/micro-ecc/libuECC_nrf52840_xxAA.a(uECC.c.obj)
 .text.uECC_vli_modMult_fast
                0x000353fe       0x20 external/micro-ecc/libuECC_nrf52840_xxAA.a(uECC.c.obj)
 .text.uECC_vli_modSquare_fast
                0x0003541e        0x8 external/micro-ecc/libuECC_nrf52840_xxAA.a(uECC.c.obj)
 .text.apply_z  0x00035426       0x3e external/micro-ecc/libuECC_nrf52840_xxAA.a(uECC.c.obj)
 .text.uECC_vli_nativeToBytes
                0x00035464       0x28 external/micro-ecc/libuECC_nrf52840_xxAA.a(uECC.c.obj)
 .text.uECC_vli_bytesToNative
                0x0003548c       0x40 external/micro-ecc/libuECC_nrf52840_xxAA.a(uECC.c.obj)
 .text.default_RNG
                0x000354cc        0xc external/micro-ecc/libuECC_nrf52840_xxAA.a(uECC.c.obj)
 .text.uECC_vli_add.isra.0
                0x000354d8       0x4a external/micro-ecc/libuECC_nrf52840_xxAA.a(uECC.c.obj)
 .text.regularize_k
                0x00035522       0x50 external/micro-ecc/libuECC_nrf52840_xxAA.a(uECC.c.obj)
 .text.uECC_vli_sub.isra.1
                0x00035572       0x4e external/micro-ecc/libuECC_nrf52840_xxAA.a(uECC.c.obj)
 .text.uECC_vli_cmp
                0x000355c0       0x30 external/micro-ecc/libuECC_nrf52840_xxAA.a(uECC.c.obj)
 .text.uECC_generate_random_int
                0x000355f0       0x78 external/micro-ecc/libuECC_nrf52840_xxAA.a(uECC.c.obj)
 .text.uECC_vli_modAdd
                0x00035668       0x2e external/micro-ecc/libuECC_nrf52840_xxAA.a(uECC.c.obj)
 *fill*         0x00035696        0x2 
 .text.vli_mmod_fast_secp256r1
                0x00035698      0x194 external/micro-ecc/libuECC_nrf52840_xxAA.a(uECC.c.obj)
 .text.uECC_vli_modSub.isra.2
                0x0003582c       0x1c external/micro-ecc/libuECC_nrf52840_xxAA.a(uECC.c.obj)
 .text.double_jacobian_default
                0x00035848      0x14a external/micro-ecc/libuECC_nrf52840_xxAA.a(uECC.c.obj)
 .text.x_side_default
                0x00035992       0x5a external/micro-ecc/libuECC_nrf52840_xxAA.a(uECC.c.obj)
 .text.XYcZ_add
                0x000359ec       0xbc external/micro-ecc/libuECC_nrf52840_xxAA.a(uECC.c.obj)
 .text.XYcZ_addC
                0x00035aa8      0x10a external/micro-ecc/libuECC_nrf52840_xxAA.a(uECC.c.obj)
 .text.vli_modInv_update
                0x00035bb2       0x36 external/micro-ecc/libuECC_nrf52840_xxAA.a(uECC.c.obj)
 .text.uECC_vli_modInv
                0x00035be8      0x102 external/micro-ecc/libuECC_nrf52840_xxAA.a(uECC.c.obj)
 .text.EccPoint_mult
                0x00035cea      0x19e external/micro-ecc/libuECC_nrf52840_xxAA.a(uECC.c.obj)
 .text.EccPoint_compute_public_key
                0x00035e88       0x54 external/micro-ecc/libuECC_nrf52840_xxAA.a(uECC.c.obj)
 .text.uECC_secp256r1
                0x00035edc        0x8 external/micro-ecc/libuECC_nrf52840_xxAA.a(uECC.c.obj)
                0x00035edc                uECC_secp256r1
 .text.uECC_make_key
                0x00035ee4       0x7e external/micro-ecc/libuECC_nrf52840_xxAA.a(uECC.c.obj)
                0x00035ee4                uECC_make_key
 *fill*         0x00035f62        0x2 
 .text.uECC_shared_secret
                0x00035f64       0xbc external/micro-ecc/libuECC_nrf52840_xxAA.a(uECC.c.obj)
                0x00035f64                uECC_shared_secret
 .text.uECC_valid_point
                0x00036020       0x86 external/micro-ecc/libuECC_nrf52840_xxAA.a(uECC.c.obj)
                0x00036020                uECC_valid_point
 .text.uECC_valid_public_key
                0x000360a6       0x32 external/micro-ecc/libuECC_nrf52840_xxAA.a(uECC.c.obj)
                0x000360a6                uECC_valid_public_key
 .text.exit     0x000360d8       0x28 c:/a/gcc_arm/6/bin/../lib/gcc/arm-none-eabi/6.3.1/../../../../arm-none-eabi/lib/thumb/v7e-m/fpv4-sp/hard\libg_nano.a(lib_a-exit.o)
                0x000360d8                exit
 .text.__libc_init_array
                0x00036100       0x48 c:/a/gcc_arm/6/bin/../lib/gcc/arm-none-eabi/6.3.1/../../../../arm-none-eabi/lib/thumb/v7e-m/fpv4-sp/hard\libg_nano.a(lib_a-init.o)
                0x00036100                __libc_init_array
 .text.malloc   0x00036148       0x10 c:/a/gcc_arm/6/bin/../lib/gcc/arm-none-eabi/6.3.1/../../../../arm-none-eabi/lib/thumb/v7e-m/fpv4-sp/hard\libg_nano.a(lib_a-malloc.o)
                0x00036148                malloc
 .text.free     0x00036158       0x10 c:/a/gcc_arm/6/bin/../lib/gcc/arm-none-eabi/6.3.1/../../../../arm-none-eabi/lib/thumb/v7e-m/fpv4-sp/hard\libg_nano.a(lib_a-malloc.o)
                0x00036158                free
 .text.memcmp   0x00036168       0x1e c:/a/gcc_arm/6/bin/../lib/gcc/arm-none-eabi/6.3.1/../../../../arm-none-eabi/lib/thumb/v7e-m/fpv4-sp/hard\libg_nano.a(lib_a-memcmp.o)
                0x00036168                memcmp
 .text.memcpy   0x00036186       0x16 c:/a/gcc_arm/6/bin/../lib/gcc/arm-none-eabi/6.3.1/../../../../arm-none-eabi/lib/thumb/v7e-m/fpv4-sp/hard\libg_nano.a(lib_a-memcpy-stub.o)
                0x00036186                memcpy
 .text.memset   0x0003619c       0x10 c:/a/gcc_arm/6/bin/../lib/gcc/arm-none-eabi/6.3.1/../../../../arm-none-eabi/lib/thumb/v7e-m/fpv4-sp/hard\libg_nano.a(lib_a-memset.o)
                0x0003619c                memset
 .text._free_r  0x000361ac       0x9c c:/a/gcc_arm/6/bin/../lib/gcc/arm-none-eabi/6.3.1/../../../../arm-none-eabi/lib/thumb/v7e-m/fpv4-sp/hard\libg_nano.a(lib_a-nano-freer.o)
                0x000361ac                _free_r
 .text._malloc_r
                0x00036248       0xbc c:/a/gcc_arm/6/bin/../lib/gcc/arm-none-eabi/6.3.1/../../../../arm-none-eabi/lib/thumb/v7e-m/fpv4-sp/hard\libg_nano.a(lib_a-nano-mallocr.o)
                0x00036248                _malloc_r
 .text._sbrk_r  0x00036304       0x20 c:/a/gcc_arm/6/bin/../lib/gcc/arm-none-eabi/6.3.1/../../../../arm-none-eabi/lib/thumb/v7e-m/fpv4-sp/hard\libg_nano.a(lib_a-sbrkr.o)
                0x00036304                _sbrk_r
 .text.strcpy   0x00036324       0x10 c:/a/gcc_arm/6/bin/../lib/gcc/arm-none-eabi/6.3.1/../../../../arm-none-eabi/lib/thumb/v7e-m/fpv4-sp/hard\libg_nano.a(lib_a-strcpy.o)
                0x00036324                strcpy
 .text          0x00036334       0x10 c:/a/gcc_arm/6/bin/../lib/gcc/arm-none-eabi/6.3.1/../../../../arm-none-eabi/lib/thumb/v7e-m/fpv4-sp/hard\libg_nano.a(lib_a-strlen.o)
                0x00036334                strlen
 .text.strrchr  0x00036344       0x26 c:/a/gcc_arm/6/bin/../lib/gcc/arm-none-eabi/6.3.1/../../../../arm-none-eabi/lib/thumb/v7e-m/fpv4-sp/hard\libg_nano.a(lib_a-strrchr.o)
                0x00036344                strrchr
 .text.__malloc_lock
                0x0003636a        0x2 c:/a/gcc_arm/6/bin/../lib/gcc/arm-none-eabi/6.3.1/../../../../arm-none-eabi/lib/thumb/v7e-m/fpv4-sp/hard\libg_nano.a(lib_a-mlock.o)
                0x0003636a                __malloc_lock
 .text.__malloc_unlock
                0x0003636c        0x2 c:/a/gcc_arm/6/bin/../lib/gcc/arm-none-eabi/6.3.1/../../../../arm-none-eabi/lib/thumb/v7e-m/fpv4-sp/hard\libg_nano.a(lib_a-mlock.o)
                0x0003636c                __malloc_unlock
 .text.strchr   0x0003636e       0x1c c:/a/gcc_arm/6/bin/../lib/gcc/arm-none-eabi/6.3.1/../../../../arm-none-eabi/lib/thumb/v7e-m/fpv4-sp/hard\libg_nano.a(lib_a-strchr.o)
                0x0003636e                strchr
 *fill*         0x0003638a        0x2 
 .text._sbrk    0x0003638c       0x1c c:/a/gcc_arm/6/bin/../lib/gcc/arm-none-eabi/6.3.1/../../../../arm-none-eabi/lib/thumb/v7e-m/fpv4-sp/hard\libnosys.a(sbrk.o)
                0x0003638c                _sbrk
 .text._exit    0x000363a8        0x4 c:/a/gcc_arm/6/bin/../lib/gcc/arm-none-eabi/6.3.1/../../../../arm-none-eabi/lib/thumb/v7e-m/fpv4-sp/hard\libnosys.a(_exit.o)
                0x000363a8                _exit
 *(.init)
 .init          0x000363ac        0x4 c:/a/gcc_arm/6/bin/../lib/gcc/arm-none-eabi/6.3.1/thumb/v7e-m/fpv4-sp/hard/crti.o
                0x000363ac                _init
 .init          0x000363b0        0x8 c:/a/gcc_arm/6/bin/../lib/gcc/arm-none-eabi/6.3.1/thumb/v7e-m/fpv4-sp/hard/crtn.o
 *(.fini)
 .fini          0x000363b8        0x4 c:/a/gcc_arm/6/bin/../lib/gcc/arm-none-eabi/6.3.1/thumb/v7e-m/fpv4-sp/hard/crti.o
                0x000363b8                _fini
 .fini          0x000363bc        0x8 c:/a/gcc_arm/6/bin/../lib/gcc/arm-none-eabi/6.3.1/thumb/v7e-m/fpv4-sp/hard/crtn.o
 *crtbegin.o(.ctors)
 *crtbegin?.o(.ctors)
 *(EXCLUDE_FILE(*crtend.o *crtend?.o) .ctors)
 *(SORT(.ctors.*))
 *(.ctors)
 *crtbegin.o(.dtors)
 *crtbegin?.o(.dtors)
 *(EXCLUDE_FILE(*crtend.o *crtend?.o) .dtors)
 *(SORT(.dtors.*))
 *(.dtors)
 *(.rodata*)
 .rodata.configuration_setup.str1.1
                0x000363c4       0x4b examples/light_switch/server/CMakeFiles/light_switch_server_nrf52840_xxAA_s140_5.0.0-3.alpha.dir/src/main.c.obj
 .rodata.main.str1.1
                0x0003640f       0x2f examples/light_switch/server/CMakeFiles/light_switch_server_nrf52840_xxAA_s140_5.0.0-3.alpha.dir/src/main.c.obj
 .rodata.provisioning_complete.str1.1
                0x0003643e       0x1a examples/light_switch/server/CMakeFiles/light_switch_server_nrf52840_xxAA_s140_5.0.0-3.alpha.dir/src/main.c.obj
 .rodata.set_cb.str1.1
                0x00036458       0x17 examples/light_switch/server/CMakeFiles/light_switch_server_nrf52840_xxAA_s140_5.0.0-3.alpha.dir/src/main.c.obj
 .rodata.static_auth_data.12454
                0x0003646f       0x10 examples/light_switch/server/CMakeFiles/light_switch_server_nrf52840_xxAA_s140_5.0.0-3.alpha.dir/src/main.c.obj
 .rodata.HardFault_Handler.str1.1
                0x0003647f        0xe examples/light_switch/server/CMakeFiles/light_switch_server_nrf52840_xxAA_s140_5.0.0-3.alpha.dir/__/__/nrf_mesh_sdk.c.obj
 .rodata.app_error_handler.str1.1
                0x0003648d       0x1d examples/light_switch/server/CMakeFiles/light_switch_server_nrf52840_xxAA_s140_5.0.0-3.alpha.dir/__/__/nrf_mesh_sdk.c.obj
 .rodata.mesh_assert_handler.str1.1
                0x000364aa       0x34 examples/light_switch/server/CMakeFiles/light_switch_server_nrf52840_xxAA_s140_5.0.0-3.alpha.dir/__/__/nrf_mesh_sdk.c.obj
 .rodata.m_buttons_list
                0x000364de        0x4 examples/light_switch/server/CMakeFiles/light_switch_server_nrf52840_xxAA_s140_5.0.0-3.alpha.dir/__/__/common/src/simple_hal.c.obj
 *fill*         0x000364e2        0x2 
 .rodata.m_opcode_handlers
                0x000364e4       0x18 examples/light_switch/server/CMakeFiles/light_switch_server_nrf52840_xxAA_s140_5.0.0-3.alpha.dir/__/__/__/models/simple_on_off/src/simple_on_off_server.c.obj
 .rodata        0x000364fc        0x8 examples/light_switch/server/CMakeFiles/light_switch_server_nrf52840_xxAA_s140_5.0.0-3.alpha.dir/__/__/__/models/config/src/config_server.c.obj
 .rodata.CSWTCH.173
                0x00036504        0xc examples/light_switch/server/CMakeFiles/light_switch_server_nrf52840_xxAA_s140_5.0.0-3.alpha.dir/__/__/__/models/config/src/config_server.c.obj
 .rodata.CSWTCH.185
                0x00036510        0x7 examples/light_switch/server/CMakeFiles/light_switch_server_nrf52840_xxAA_s140_5.0.0-3.alpha.dir/__/__/__/models/config/src/config_server.c.obj
 *fill*         0x00036517        0x1 
 .rodata.opcode_handlers
                0x00036518      0x170 examples/light_switch/server/CMakeFiles/light_switch_server_nrf52840_xxAA_s140_5.0.0-3.alpha.dir/__/__/__/models/config/src/config_server.c.obj
 .rodata.m_opcode_handlers
                0x00036688       0x58 examples/light_switch/server/CMakeFiles/light_switch_server_nrf52840_xxAA_s140_5.0.0-3.alpha.dir/__/__/__/models/health/src/health_server.c.obj
 .rodata.multiply_de_bruijn_bit_position.9394
                0x000366e0       0x20 examples/light_switch/server/CMakeFiles/light_switch_server_nrf52840_xxAA_s140_5.0.0-3.alpha.dir/__/__/__/models/health/src/health_server.c.obj
 .rodata.mesh_evt_cb.str1.1
                0x00036700       0x2f examples/light_switch/server/CMakeFiles/light_switch_server_nrf52840_xxAA_s140_5.0.0-3.alpha.dir/__/__/__/mesh/access/src/access.c.obj
 .rodata.multiply_de_bruijn_bit_position.9350
                0x0003672f       0x20 examples/light_switch/server/CMakeFiles/light_switch_server_nrf52840_xxAA_s140_5.0.0-3.alpha.dir/__/__/__/mesh/access/src/access.c.obj
 .rodata.packet_tx.str1.1
                0x0003674f       0x13 examples/light_switch/server/CMakeFiles/light_switch_server_nrf52840_xxAA_s140_5.0.0-3.alpha.dir/__/__/__/mesh/access/src/access.c.obj
 *fill*         0x00036762        0x2 
 .rodata.m_flash_groups
                0x00036764       0xa8 examples/light_switch/server/CMakeFiles/light_switch_server_nrf52840_xxAA_s140_5.0.0-3.alpha.dir/__/__/__/mesh/access/src/device_state_manager.c.obj
 .rodata.m_prov_callbacks
                0x0003680c       0x10 examples/light_switch/server/CMakeFiles/light_switch_server_nrf52840_xxAA_s140_5.0.0-3.alpha.dir/__/__/__/mesh/prov/src/prov_provisionee.c.obj
 .rodata.prov_provisionee_cb_ack_received.str1.1
                0x0003681c       0x53 examples/light_switch/server/CMakeFiles/light_switch_server_nrf52840_xxAA_s140_5.0.0-3.alpha.dir/__/__/__/mesh/prov/src/prov_provisionee.c.obj
 .rodata.pdu_sizes.11136
                0x0003686f        0xa examples/light_switch/server/CMakeFiles/light_switch_server_nrf52840_xxAA_s140_5.0.0-3.alpha.dir/__/__/__/mesh/prov/src/provisioning.c.obj
 .rodata.alphanumeric.11241
                0x00036879       0x25 examples/light_switch/server/CMakeFiles/light_switch_server_nrf52840_xxAA_s140_5.0.0-3.alpha.dir/__/__/__/mesh/prov/src/prov_utils.c.obj
 *fill*         0x0003689e        0x2 
 .rodata.numeric_max.11235
                0x000368a0       0x24 examples/light_switch/server/CMakeFiles/light_switch_server_nrf52840_xxAA_s140_5.0.0-3.alpha.dir/__/__/__/mesh/prov/src/prov_utils.c.obj
 .rodata.prov_utils_authentication_values_derive.str1.1
                0x000368c4        0x5 examples/light_switch/server/CMakeFiles/light_switch_server_nrf52840_xxAA_s140_5.0.0-3.alpha.dir/__/__/__/mesh/prov/src/prov_utils.c.obj
 .rodata.prov_utils_derive_keys.str1.1
                0x000368c9        0xf examples/light_switch/server/CMakeFiles/light_switch_server_nrf52840_xxAA_s140_5.0.0-3.alpha.dir/__/__/__/mesh/prov/src/prov_utils.c.obj
 .rodata.add_active_bearer.str1.1
                0x000368d8       0x2c examples/light_switch/server/CMakeFiles/light_switch_server_nrf52840_xxAA_s140_5.0.0-3.alpha.dir/__/__/__/mesh/prov/src/prov_bearer_adv.c.obj
 .rodata.crctable.10994
                0x00036904      0x100 examples/light_switch/server/CMakeFiles/light_switch_server_nrf52840_xxAA_s140_5.0.0-3.alpha.dir/__/__/__/mesh/prov/src/prov_bearer_adv.c.obj
 .rodata.interface.11224
                0x00036a04       0x14 examples/light_switch/server/CMakeFiles/light_switch_server_nrf52840_xxAA_s140_5.0.0-3.alpha.dir/__/__/__/mesh/prov/src/prov_bearer_adv.c.obj
 .rodata.prov_bearer_adv_packet_in.str1.1
                0x00036a18      0x26e examples/light_switch/server/CMakeFiles/light_switch_server_nrf52840_xxAA_s140_5.0.0-3.alpha.dir/__/__/__/mesh/prov/src/prov_bearer_adv.c.obj
 .rodata.tx_retry_cb.str1.1
                0x00036c86       0x37 examples/light_switch/server/CMakeFiles/light_switch_server_nrf52840_xxAA_s140_5.0.0-3.alpha.dir/__/__/__/mesh/prov/src/prov_bearer_adv.c.obj
 .rodata.default_mesh_assertion_handler.str1.1
                0x00036cbd       0x19 examples/light_switch/server/CMakeFiles/light_switch_server_nrf52840_xxAA_s140_5.0.0-3.alpha.dir/__/__/__/mesh/access/src/nrf_mesh_node_config.c.obj
 .rodata.default_softdevice_assertion_handler.str1.1
                0x00036cbd       0x47 examples/light_switch/server/CMakeFiles/light_switch_server_nrf52840_xxAA_s140_5.0.0-3.alpha.dir/__/__/__/mesh/access/src/nrf_mesh_node_config.c.obj
 .rodata.types_lookup.9155
                0x00036d04        0x4 mesh/core/libmesh_core_nrf52840_xxAA.a(nrf_mesh_utils.c.obj)
 .rodata.nrf_mesh_listen.str1.1
                0x00036d08       0x70 mesh/core/libmesh_core_nrf52840_xxAA.a(nrf_mesh.c.obj)
 .rodata.CSWTCH.8
                0x00036d78       0x10 mesh/core/libmesh_core_nrf52840_xxAA.a(hal.c.obj)
 .rodata        0x00036d88       0x15 mesh/core/libmesh_core_nrf52840_xxAA.a(enc.c.obj)
 .rodata.network_packet_in.str1.1
                0x00036d9d       0x48 mesh/core/libmesh_core_nrf52840_xxAA.a(network.c.obj)
 .rodata.network_packet_send.str1.1
                0x00036de5       0x49 mesh/core/libmesh_core_nrf52840_xxAA.a(network.c.obj)
 .rodata        0x00036e2e        0x7 mesh/core/libmesh_core_nrf52840_xxAA.a(nrf_mesh_keygen.c.obj)
 .rodata.log_callback_rtt.str1.1
                0x00036e35       0x15 mesh/core/libmesh_core_nrf52840_xxAA.a(log.c.obj)
 .rodata.str1.1
                0x00036e4a       0x11 mesh/core/libmesh_core_nrf52840_xxAA.a(log.c.obj)
 *fill*         0x00036e5b        0x1 
 .rodata.INVALID_HEADER
                0x00036e5c        0x4 mesh/core/libmesh_core_nrf52840_xxAA.a(flash_manager.c.obj)
                0x00036e5c                INVALID_HEADER
 .rodata.PADDING_HEADER
                0x00036e60        0x4 mesh/core/libmesh_core_nrf52840_xxAA.a(flash_manager.c.obj)
                0x00036e60                PADDING_HEADER
 .rodata.SEAL_HEADER
                0x00036e64        0x4 mesh/core/libmesh_core_nrf52840_xxAA.a(flash_manager.c.obj)
                0x00036e64                SEAL_HEADER
 .rodata.process_action_queue.str1.1
                0x00036e68       0x21 mesh/core/libmesh_core_nrf52840_xxAA.a(flash_manager.c.obj)
                                 0x4f (size before relaxing)
 .rodata.beacon_packet_in.str1.1
                0x00036e89       0x51 mesh/core/libmesh_core_nrf52840_xxAA.a(beacon.c.obj)
                                 0x59 (size before relaxing)
 *fill*         0x00036eda        0x2 
 .rodata.cp_handler
                0x00036edc        0x8 mesh/core/libmesh_core_nrf52840_xxAA.a(heartbeat.c.obj)
 .rodata.net_beacon_init.str1.1
                0x00036ee4        0x5 mesh/core/libmesh_core_nrf52840_xxAA.a(net_beacon.c.obj)
 *fill*         0x00036ee9        0x3 
 .rodata.m_interface
                0x00036eec        0xc mesh/core/libmesh_core_nrf52840_xxAA.a(core_tx_adv.c.obj)
 .rodata.radio_mode_to_us_per_byte.9552
                0x00036ef8        0x6 mesh/core/libmesh_core_nrf52840_xxAA.a(broadcast.c.obj)
 .rodata.channel_rf_offsets.8793
                0x00036efe       0x28 mesh/core/libmesh_core_nrf52840_xxAA.a(radio_config.c.obj)
 .rodata        0x00036f26        0x3 mesh/core/libmesh_core_nrf52840_xxAA.a(scanner.c.obj)
 .rodata.sar_ctx_cancel.str1.1
                0x00036f29       0x18 mesh/core/libmesh_core_nrf52840_xxAA.a(transport.c.obj)
 .rodata.sar_ctx_tx_complete.str1.1
                0x00036f41       0x1d mesh/core/libmesh_core_nrf52840_xxAA.a(transport.c.obj)
                                 0x4b (size before relaxing)
 .rodata.test_transport_decrypt.str1.1
                0x00036f5e       0x13 mesh/core/libmesh_core_nrf52840_xxAA.a(transport.c.obj)
 .rodata.transport_packet_in.str1.1
                0x00036f71       0x24 mesh/core/libmesh_core_nrf52840_xxAA.a(transport.c.obj)
 .rodata.upper_transport_access_packet_in.str1.1
                0x00036f95       0x29 mesh/core/libmesh_core_nrf52840_xxAA.a(transport.c.obj)
 .rodata.upper_transport_packet_in.str1.1
                0x00036fbe       0x2e mesh/core/libmesh_core_nrf52840_xxAA.a(transport.c.obj)
 .rodata.upper_transport_tx.str1.1
                0x00036fec       0x2c mesh/core/libmesh_core_nrf52840_xxAA.a(transport.c.obj)
                                 0x34 (size before relaxing)
 .rodata.flash_manager_defrag.str1.1
                0x00037018       0x28 mesh/core/libmesh_core_nrf52840_xxAA.a(flash_manager_defrag.c.obj)
                                 0x56 (size before relaxing)
 .rodata.m_procedure_steps
                0x00037040       0x28 mesh/core/libmesh_core_nrf52840_xxAA.a(flash_manager_defrag.c.obj)
 .rodata.m_all_operations
                0x00037068       0x10 mesh/core/libmesh_core_nrf52840_xxAA.a(mesh_flash.c.obj)
 .rodata.Rb.7578
                0x00037078       0x10 mesh/core/libmesh_core_nrf52840_xxAA.a(aes_cmac.c.obj)
 .rodata._DoInit.str1.1
                0x00037088       0x14 external/rtt/librtt_nrf52840_xxAA.a(SEGGER_RTT.c.obj)
 .rodata._aV2C.5497
                0x0003709c       0x10 external/rtt/librtt_nrf52840_xxAA.a(SEGGER_RTT_printf.c.obj)
 .rodata.curve_secp256r1
                0x000370ac       0xb0 external/micro-ecc/libuECC_nrf52840_xxAA.a(uECC.c.obj)
 .rodata._global_impure_ptr
                0x0003715c        0x4 c:/a/gcc_arm/6/bin/../lib/gcc/arm-none-eabi/6.3.1/../../../../arm-none-eabi/lib/thumb/v7e-m/fpv4-sp/hard\libg_nano.a(lib_a-impure.o)
                0x0003715c                _global_impure_ptr
 *(.eh_frame*)
 .eh_frame      0x00037160        0x0 c:/a/gcc_arm/6/bin/../lib/gcc/arm-none-eabi/6.3.1/thumb/v7e-m/fpv4-sp/hard/crtbegin.o
 .eh_frame      0x00037160        0x4 c:/a/gcc_arm/6/bin/../lib/gcc/arm-none-eabi/6.3.1/thumb/v7e-m/fpv4-sp/hard/crtend.o

.glue_7         0x00037164        0x0
 .glue_7        0x00037164        0x0 linker stubs

.glue_7t        0x00037164        0x0
 .glue_7t       0x00037164        0x0 linker stubs

.vfp11_veneer   0x00037164        0x0
 .vfp11_veneer  0x00037164        0x0 linker stubs

.v4_bx          0x00037164        0x0
 .v4_bx         0x00037164        0x0 linker stubs

.iplt           0x00037164        0x0
 .iplt          0x00037164        0x0 c:/a/gcc_arm/6/bin/../lib/gcc/arm-none-eabi/6.3.1/thumb/v7e-m/fpv4-sp/hard/crtbegin.o

.pwr_mgmt_data  0x00037164        0x0
                [!provide]                PROVIDE (__start_pwr_mgmt_data, .)
 *(SORT(.pwr_mgmt_data*))
                [!provide]                PROVIDE (__stop_pwr_mgmt_data, .)

.log_const_data
                0x00037164        0x0
                [!provide]                PROVIDE (__start_log_const_data, .)
 *(.log_const_data)
                [!provide]                PROVIDE (__stop_log_const_data, .)

.cli_command    0x00037164        0x0
                [!provide]                PROVIDE (__start_cli_command, .)
 *(.cli_command)
                [!provide]                PROVIDE (__stop_cli_command, .)

.sdh_stack_observers
                0x00037164        0x0
                [!provide]                PROVIDE (__start_sdh_stack_observers, .)
 *(SORT(.sdh_stack_observers*))
                [!provide]                PROVIDE (__stop_sdh_stack_observers, .)

.sdh_req_observers
                0x00037164        0x0
                [!provide]                PROVIDE (__start_sdh_req_observers, .)
 *(SORT(.sdh_req_observers*))
                [!provide]                PROVIDE (__stop_sdh_req_observers, .)

.sdh_state_observers
                0x00037164        0x0
                [!provide]                PROVIDE (__start_sdh_state_observers, .)
 *(SORT(.sdh_state_observers*))
                [!provide]                PROVIDE (__stop_sdh_state_observers, .)

.sdh_ant_observers
                0x00037164        0x0
                [!provide]                PROVIDE (__start_sdh_ant_observers, .)
 *(SORT(.sdh_ant_observers*))
                [!provide]                PROVIDE (__stop_sdh_ant_observers, .)

.sdh_ble_observers
                0x00037164        0x0
                [!provide]                PROVIDE (__start_sdh_ble_observers, .)
 *(SORT(.sdh_ble_observers*))
                [!provide]                PROVIDE (__stop_sdh_ble_observers, .)

.sdh_soc_observers
                0x00037164        0x0
                [!provide]                PROVIDE (__start_sdh_soc_observers, .)
 *(SORT(.sdh_soc_observers*))
                [!provide]                PROVIDE (__stop_sdh_soc_observers, .)

.ARM.extab
 *(.ARM.extab* .gnu.linkonce.armextab.*)
                0x00037164                __exidx_start = .

.ARM.exidx      0x00037164        0x8
 *(.ARM.exidx* .gnu.linkonce.armexidx.*)
 .ARM.exidx     0x00037164        0x8 c:/a/gcc_arm/6/bin/../lib/gcc/arm-none-eabi/6.3.1/../../../../arm-none-eabi/lib/thumb/v7e-m/fpv4-sp/hard/crt0.o
                0x0003716c                __exidx_end = .
                0x0003716c                __etext = .

.rel.dyn        0x0003716c        0x0
 .rel.iplt      0x0003716c        0x0 c:/a/gcc_arm/6/bin/../lib/gcc/arm-none-eabi/6.3.1/thumb/v7e-m/fpv4-sp/hard/crtbegin.o

.data           0x200031b8      0x170 load address 0x0003716c
                0x200031b8                __data_start__ = .
 *(vtable)
 *(.data*)
 .data.config_params.12455
                0x200031b8       0x40 examples/light_switch/server/CMakeFiles/light_switch_server_nrf52840_xxAA_s140_5.0.0-3.alpha.dir/src/main.c.obj
 .data.m_config_server_handle
                0x200031f8        0x2 examples/light_switch/server/CMakeFiles/light_switch_server_nrf52840_xxAA_s140_5.0.0-3.alpha.dir/__/__/__/models/config/src/config_server.c.obj
 *fill*         0x200031fa        0x2 
 .data.flash_add_mem_available_struct.10422
                0x200031fc       0x10 examples/light_switch/server/CMakeFiles/light_switch_server_nrf52840_xxAA_s140_5.0.0-3.alpha.dir/__/__/__/mesh/access/src/access.c.obj
 .data.flash_clear_mem_available_struct.10511
                0x2000320c       0x10 examples/light_switch/server/CMakeFiles/light_switch_server_nrf52840_xxAA_s140_5.0.0-3.alpha.dir/__/__/__/mesh/access/src/access.c.obj
 .data.flash_store_mem_available_struct.10535
                0x2000321c       0x10 examples/light_switch/server/CMakeFiles/light_switch_server_nrf52840_xxAA_s140_5.0.0-3.alpha.dir/__/__/__/mesh/access/src/access.c.obj
 .data.m_default_ttl
                0x2000322c        0x1 examples/light_switch/server/CMakeFiles/light_switch_server_nrf52840_xxAA_s140_5.0.0-3.alpha.dir/__/__/__/mesh/access/src/access.c.obj
 *fill*         0x2000322d        0x3 
 .data.mem_listener.10730
                0x20003230       0x10 examples/light_switch/server/CMakeFiles/light_switch_server_nrf52840_xxAA_s140_5.0.0-3.alpha.dir/__/__/__/mesh/access/src/device_state_manager.c.obj
 .data.mem_listener.10756
                0x20003240       0x10 examples/light_switch/server/CMakeFiles/light_switch_server_nrf52840_xxAA_s140_5.0.0-3.alpha.dir/__/__/__/mesh/access/src/device_state_manager.c.obj
 .data.m_async_process_flag
                0x20003250        0x4 examples/light_switch/server/CMakeFiles/light_switch_server_nrf52840_xxAA_s140_5.0.0-3.alpha.dir/__/__/__/mesh/prov/src/prov_bearer_adv.c.obj
 .data.SystemCoreClock
                0x20003254        0x4 examples/light_switch/server/CMakeFiles/light_switch_server_nrf52840_xxAA_s140_5.0.0-3.alpha.dir/__/__/__/external/nRF5_SDK_14.2.0_17b948a/components/toolchain/system_nrf52840.c.obj
                0x20003254                SystemCoreClock
 .data.mem_listener.9876
                0x20003258       0x10 mesh/core/libmesh_core_nrf52840_xxAA.a(net_state.c.obj)
 .data.mem_listener.9881
                0x20003268       0x10 mesh/core/libmesh_core_nrf52840_xxAA.a(net_state.c.obj)
 .data.mem_listener.9895
                0x20003278       0x10 mesh/core/libmesh_core_nrf52840_xxAA.a(net_state.c.obj)
 .data.mem_listener.9912
                0x20003288       0x10 mesh/core/libmesh_core_nrf52840_xxAA.a(net_state.c.obj)
 .data.m_nrf_mesh_listener
                0x20003298        0xc mesh/core/libmesh_core_nrf52840_xxAA.a(nrf_mesh.c.obj)
 .data.g_log_dbg_lvl
                0x200032a4        0x4 mesh/core/libmesh_core_nrf52840_xxAA.a(log.c.obj)
                0x200032a4                g_log_dbg_lvl
 .data.g_log_dbg_msk
                0x200032a8        0x4 mesh/core/libmesh_core_nrf52840_xxAA.a(log.c.obj)
                0x200032a8                g_log_dbg_msk
 .data.g_log_hex_digits
                0x200032ac        0x4 mesh/core/libmesh_core_nrf52840_xxAA.a(log.c.obj)
                0x200032ac                g_log_hex_digits
 .data.m_log_callback
                0x200032b0        0x4 mesh/core/libmesh_core_nrf52840_xxAA.a(log.c.obj)
                0x200032b0                m_log_callback
 .data.g_rng_function
                0x200032b4        0x4 external/micro-ecc/libuECC_nrf52840_xxAA.a(uECC.c.obj)
 .data._impure_ptr
                0x200032b8        0x4 c:/a/gcc_arm/6/bin/../lib/gcc/arm-none-eabi/6.3.1/../../../../arm-none-eabi/lib/thumb/v7e-m/fpv4-sp/hard\libg_nano.a(lib_a-impure.o)
                0x200032b8                _impure_ptr
 .data.impure_data
                0x200032bc       0x60 c:/a/gcc_arm/6/bin/../lib/gcc/arm-none-eabi/6.3.1/../../../../arm-none-eabi/lib/thumb/v7e-m/fpv4-sp/hard\libg_nano.a(lib_a-impure.o)
                0x2000331c                . = ALIGN (0x4)
                0x2000331c                PROVIDE (__preinit_array_start, .)
 *(.preinit_array)
                0x2000331c                PROVIDE (__preinit_array_end, .)
                0x2000331c                . = ALIGN (0x4)
                0x2000331c                PROVIDE (__init_array_start, .)
 *(SORT(.init_array.*))
 *(.init_array)
 .init_array    0x2000331c        0x4 c:/a/gcc_arm/6/bin/../lib/gcc/arm-none-eabi/6.3.1/thumb/v7e-m/fpv4-sp/hard/crtbegin.o
                0x20003320                PROVIDE (__init_array_end, .)
                0x20003320                . = ALIGN (0x4)
                [!provide]                PROVIDE (__fini_array_start, .)
 *(SORT(.fini_array.*))
 *(.fini_array)
 .fini_array    0x20003320        0x4 c:/a/gcc_arm/6/bin/../lib/gcc/arm-none-eabi/6.3.1/thumb/v7e-m/fpv4-sp/hard/crtbegin.o
                [!provide]                PROVIDE (__fini_array_end, .)
 *(.jcr*)
 .jcr           0x20003324        0x0 c:/a/gcc_arm/6/bin/../lib/gcc/arm-none-eabi/6.3.1/thumb/v7e-m/fpv4-sp/hard/crtbegin.o
 .jcr           0x20003324        0x4 c:/a/gcc_arm/6/bin/../lib/gcc/arm-none-eabi/6.3.1/thumb/v7e-m/fpv4-sp/hard/crtend.o
                0x20003328                . = ALIGN (0x4)
                0x20003328                __data_end__ = .
LOAD c:/a/gcc_arm/6/bin/../lib/gcc/arm-none-eabi/6.3.1/thumb/v7e-m/fpv4-sp/hard/crti.o
LOAD c:/a/gcc_arm/6/bin/../lib/gcc/arm-none-eabi/6.3.1/thumb/v7e-m/fpv4-sp/hard/crtbegin.o
LOAD c:/a/gcc_arm/6/bin/../lib/gcc/arm-none-eabi/6.3.1/../../../../arm-none-eabi/lib/thumb/v7e-m/fpv4-sp/hard/crt0.o
LOAD examples/light_switch/server/CMakeFiles/light_switch_server_nrf52840_xxAA_s140_5.0.0-3.alpha.dir/src/main.c.obj
LOAD examples/light_switch/server/CMakeFiles/light_switch_server_nrf52840_xxAA_s140_5.0.0-3.alpha.dir/__/__/nrf_mesh_sdk.c.obj
LOAD examples/light_switch/server/CMakeFiles/light_switch_server_nrf52840_xxAA_s140_5.0.0-3.alpha.dir/__/__/common/src/simple_hal.c.obj
LOAD examples/light_switch/server/CMakeFiles/light_switch_server_nrf52840_xxAA_s140_5.0.0-3.alpha.dir/__/__/nrf_mesh_weak.c.obj
LOAD examples/light_switch/server/CMakeFiles/light_switch_server_nrf52840_xxAA_s140_5.0.0-3.alpha.dir/__/__/__/models/simple_on_off/src/simple_on_off_server.c.obj
LOAD examples/light_switch/server/CMakeFiles/light_switch_server_nrf52840_xxAA_s140_5.0.0-3.alpha.dir/__/__/__/models/config/src/composition_data.c.obj
LOAD examples/light_switch/server/CMakeFiles/light_switch_server_nrf52840_xxAA_s140_5.0.0-3.alpha.dir/__/__/__/models/config/src/config_server.c.obj
LOAD examples/light_switch/server/CMakeFiles/light_switch_server_nrf52840_xxAA_s140_5.0.0-3.alpha.dir/__/__/__/models/config/src/packed_index_list.c.obj
LOAD examples/light_switch/server/CMakeFiles/light_switch_server_nrf52840_xxAA_s140_5.0.0-3.alpha.dir/__/__/__/models/health/src/health_server.c.obj
LOAD examples/light_switch/server/CMakeFiles/light_switch_server_nrf52840_xxAA_s140_5.0.0-3.alpha.dir/__/__/__/mesh/access/src/access_publish.c.obj
LOAD examples/light_switch/server/CMakeFiles/light_switch_server_nrf52840_xxAA_s140_5.0.0-3.alpha.dir/__/__/__/mesh/access/src/access.c.obj
LOAD examples/light_switch/server/CMakeFiles/light_switch_server_nrf52840_xxAA_s140_5.0.0-3.alpha.dir/__/__/__/mesh/access/src/access_reliable.c.obj
LOAD examples/light_switch/server/CMakeFiles/light_switch_server_nrf52840_xxAA_s140_5.0.0-3.alpha.dir/__/__/__/mesh/access/src/device_state_manager.c.obj
LOAD examples/light_switch/server/CMakeFiles/light_switch_server_nrf52840_xxAA_s140_5.0.0-3.alpha.dir/__/__/__/mesh/prov/src/prov_provisionee.c.obj
LOAD examples/light_switch/server/CMakeFiles/light_switch_server_nrf52840_xxAA_s140_5.0.0-3.alpha.dir/__/__/__/mesh/prov/src/nrf_mesh_prov.c.obj
LOAD examples/light_switch/server/CMakeFiles/light_switch_server_nrf52840_xxAA_s140_5.0.0-3.alpha.dir/__/__/__/mesh/prov/src/provisioning.c.obj
LOAD examples/light_switch/server/CMakeFiles/light_switch_server_nrf52840_xxAA_s140_5.0.0-3.alpha.dir/__/__/__/mesh/prov/src/prov_beacon.c.obj
LOAD examples/light_switch/server/CMakeFiles/light_switch_server_nrf52840_xxAA_s140_5.0.0-3.alpha.dir/__/__/__/mesh/prov/src/prov_utils.c.obj
LOAD examples/light_switch/server/CMakeFiles/light_switch_server_nrf52840_xxAA_s140_5.0.0-3.alpha.dir/__/__/__/mesh/prov/src/prov_bearer_adv.c.obj
LOAD examples/light_switch/server/CMakeFiles/light_switch_server_nrf52840_xxAA_s140_5.0.0-3.alpha.dir/__/__/__/mesh/access/src/nrf_mesh_node_config.c.obj
LOAD examples/light_switch/server/CMakeFiles/light_switch_server_nrf52840_xxAA_s140_5.0.0-3.alpha.dir/__/__/__/external/nRF5_SDK_14.2.0_17b948a/components/toolchain/system_nrf52840.c.obj
LOAD examples/light_switch/server/CMakeFiles/light_switch_server_nrf52840_xxAA_s140_5.0.0-3.alpha.dir/__/__/__/external/nRF5_SDK_14.2.0_17b948a/components/toolchain/gcc/gcc_startup_nrf52840.S.obj
LOAD mesh/core/libmesh_core_nrf52840_xxAA.a
LOAD external/rtt/librtt_nrf52840_xxAA.a
LOAD external/micro-ecc/libuECC_nrf52840_xxAA.a
START GROUP
LOAD c:/a/gcc_arm/6/bin/../lib/gcc/arm-none-eabi/6.3.1/thumb/v7e-m/fpv4-sp/hard\libgcc.a
LOAD c:/a/gcc_arm/6/bin/../lib/gcc/arm-none-eabi/6.3.1/../../../../arm-none-eabi/lib/thumb/v7e-m/fpv4-sp/hard\libg_nano.a
LOAD c:/a/gcc_arm/6/bin/../lib/gcc/arm-none-eabi/6.3.1/../../../../arm-none-eabi/lib/thumb/v7e-m/fpv4-sp/hard\libc_nano.a
END GROUP
START GROUP
LOAD c:/a/gcc_arm/6/bin/../lib/gcc/arm-none-eabi/6.3.1/thumb/v7e-m/fpv4-sp/hard\libgcc.a
LOAD c:/a/gcc_arm/6/bin/../lib/gcc/arm-none-eabi/6.3.1/../../../../arm-none-eabi/lib/thumb/v7e-m/fpv4-sp/hard\libc_nano.a
END GROUP
LOAD c:/a/gcc_arm/6/bin/../lib/gcc/arm-none-eabi/6.3.1/thumb/v7e-m/fpv4-sp/hard/crtend.o
LOAD c:/a/gcc_arm/6/bin/../lib/gcc/arm-none-eabi/6.3.1/thumb/v7e-m/fpv4-sp/hard/crtn.o
START GROUP
LOAD c:/a/gcc_arm/6/bin/../lib/gcc/arm-none-eabi/6.3.1/thumb/v7e-m/fpv4-sp/hard\libgcc.a
LOAD c:/a/gcc_arm/6/bin/../lib/gcc/arm-none-eabi/6.3.1/../../../../arm-none-eabi/lib/thumb/v7e-m/fpv4-sp/hard\libc.a
LOAD c:/a/gcc_arm/6/bin/../lib/gcc/arm-none-eabi/6.3.1/../../../../arm-none-eabi/lib/thumb/v7e-m/fpv4-sp/hard\libnosys.a
END GROUP

.igot.plt       0x20003328        0x0 load address 0x000372dc
 .igot.plt      0x20003328        0x0 c:/a/gcc_arm/6/bin/../lib/gcc/arm-none-eabi/6.3.1/thumb/v7e-m/fpv4-sp/hard/crtbegin.o
                0x20003328                . = ALIGN (0x4)

.svc_data       0x20003328        0x0
                [!provide]                PROVIDE (__start_svc_data, .)
 *(.svc_data)
                [!provide]                PROVIDE (__stop_svc_data, .)

.fs_data        0x20003328        0x0
                [!provide]                PROVIDE (__start_fs_data, .)
 *(.fs_data)
                [!provide]                PROVIDE (__stop_fs_data, .)

.log_dynamic_data
                0x20003328        0x0
                [!provide]                PROVIDE (__start_log_dynamic_data, .)
 *(.log_dynamic_data)
                [!provide]                PROVIDE (__stop_log_dynamic_data, .)

.cli_sorted_cmd_ptrs
                0x20003328        0x0
                [!provide]                PROVIDE (__start_cli_sorted_cmd_ptrs, .)
 *(.cli_sorted_cmd_ptrs)
                [!provide]                PROVIDE (__stop_cli_sorted_cmd_ptrs, .)

.bss            0x20003328     0x2f54 load address 0x000372e0
                0x20003328                . = ALIGN (0x4)
                0x20003328                __bss_start__ = .
 *(.bss*)
 .bss           0x20003328       0x1c c:/a/gcc_arm/6/bin/../lib/gcc/arm-none-eabi/6.3.1/thumb/v7e-m/fpv4-sp/hard/crtbegin.o
 .bss.m_server  0x20003344        0xc examples/light_switch/server/CMakeFiles/light_switch_server_nrf52840_xxAA_s140_5.0.0-3.alpha.dir/src/main.c.obj
 .bss.m_ble_evt_buffer
                0x20003350       0x57 examples/light_switch/server/CMakeFiles/light_switch_server_nrf52840_xxAA_s140_5.0.0-3.alpha.dir/__/__/nrf_mesh_sdk.c.obj
 *fill*         0x200033a7        0x1 
 .bss.m_button_handler_cb
                0x200033a8        0x4 examples/light_switch/server/CMakeFiles/light_switch_server_nrf52840_xxAA_s140_5.0.0-3.alpha.dir/__/__/common/src/simple_hal.c.obj
 .bss.m_last_button_press
                0x200033ac        0x4 examples/light_switch/server/CMakeFiles/light_switch_server_nrf52840_xxAA_s140_5.0.0-3.alpha.dir/__/__/common/src/simple_hal.c.obj
 .bss.m_evt_cb  0x200033b0        0x4 examples/light_switch/server/CMakeFiles/light_switch_server_nrf52840_xxAA_s140_5.0.0-3.alpha.dir/__/__/__/models/config/src/config_server.c.obj
 .bss.m_heartbeat_publication
                0x200033b4       0x14 examples/light_switch/server/CMakeFiles/light_switch_server_nrf52840_xxAA_s140_5.0.0-3.alpha.dir/__/__/__/models/config/src/config_server.c.obj
 .bss.m_attention_timer
                0x200033c8       0x18 examples/light_switch/server/CMakeFiles/light_switch_server_nrf52840_xxAA_s140_5.0.0-3.alpha.dir/__/__/__/models/health/src/health_server.c.obj
 .bss.mp_attention_list
                0x200033e0        0x4 examples/light_switch/server/CMakeFiles/light_switch_server_nrf52840_xxAA_s140_5.0.0-3.alpha.dir/__/__/__/models/health/src/health_server.c.obj
 .bss.m_publish_timer
                0x200033e4       0x18 examples/light_switch/server/CMakeFiles/light_switch_server_nrf52840_xxAA_s140_5.0.0-3.alpha.dir/__/__/__/mesh/access/src/access_publish.c.obj
 .bss.m_publish_timer_counter
                0x200033fc        0x4 examples/light_switch/server/CMakeFiles/light_switch_server_nrf52840_xxAA_s140_5.0.0-3.alpha.dir/__/__/__/mesh/access/src/access_publish.c.obj
 .bss.m_publish_timer_running
                0x20003400        0x1 examples/light_switch/server/CMakeFiles/light_switch_server_nrf52840_xxAA_s140_5.0.0-3.alpha.dir/__/__/__/mesh/access/src/access_publish.c.obj
 .bss.m_timer_resolution
                0x20003401        0x1 examples/light_switch/server/CMakeFiles/light_switch_server_nrf52840_xxAA_s140_5.0.0-3.alpha.dir/__/__/__/mesh/access/src/access_publish.c.obj
 *fill*         0x20003402        0x2 
 .bss.mp_publication_list
                0x20003404        0x4 examples/light_switch/server/CMakeFiles/light_switch_server_nrf52840_xxAA_s140_5.0.0-3.alpha.dir/__/__/__/mesh/access/src/access_publish.c.obj
 .bss.m_element_pool
                0x20003408        0x6 examples/light_switch/server/CMakeFiles/light_switch_server_nrf52840_xxAA_s140_5.0.0-3.alpha.dir/__/__/__/mesh/access/src/access.c.obj
 *fill*         0x2000340e        0x2 
 .bss.m_evt_handler
                0x20003410        0x8 examples/light_switch/server/CMakeFiles/light_switch_server_nrf52840_xxAA_s140_5.0.0-3.alpha.dir/__/__/__/mesh/access/src/access.c.obj
 .bss.m_flash_manager
                0x20003418       0x24 examples/light_switch/server/CMakeFiles/light_switch_server_nrf52840_xxAA_s140_5.0.0-3.alpha.dir/__/__/__/mesh/access/src/access.c.obj
 .bss.m_flash_not_ready
                0x2000343c        0x1 examples/light_switch/server/CMakeFiles/light_switch_server_nrf52840_xxAA_s140_5.0.0-3.alpha.dir/__/__/__/mesh/access/src/access.c.obj
 .bss.m_metadata_stored
                0x2000343d        0x1 examples/light_switch/server/CMakeFiles/light_switch_server_nrf52840_xxAA_s140_5.0.0-3.alpha.dir/__/__/__/mesh/access/src/access.c.obj
 *fill*         0x2000343e        0x2 
 .bss.m_model_pool
                0x20003440       0x9c examples/light_switch/server/CMakeFiles/light_switch_server_nrf52840_xxAA_s140_5.0.0-3.alpha.dir/__/__/__/mesh/access/src/access.c.obj
 .bss.m_subscription_list_pool
                0x200034dc        0x8 examples/light_switch/server/CMakeFiles/light_switch_server_nrf52840_xxAA_s140_5.0.0-3.alpha.dir/__/__/__/mesh/access/src/access.c.obj
 .bss.m_reliable
                0x200034e4       0xa0 examples/light_switch/server/CMakeFiles/light_switch_server_nrf52840_xxAA_s140_5.0.0-3.alpha.dir/__/__/__/mesh/access/src/access_reliable.c.obj
 .bss.m_addr_nonvirtual_allocated
                0x20003584        0x4 examples/light_switch/server/CMakeFiles/light_switch_server_nrf52840_xxAA_s140_5.0.0-3.alpha.dir/__/__/__/mesh/access/src/device_state_manager.c.obj
 .bss.m_addr_nonvirtual_needs_flashing
                0x20003588        0x4 examples/light_switch/server/CMakeFiles/light_switch_server_nrf52840_xxAA_s140_5.0.0-3.alpha.dir/__/__/__/mesh/access/src/device_state_manager.c.obj
 .bss.m_addr_unicast_allocated
                0x2000358c        0x4 examples/light_switch/server/CMakeFiles/light_switch_server_nrf52840_xxAA_s140_5.0.0-3.alpha.dir/__/__/__/mesh/access/src/device_state_manager.c.obj
 .bss.m_addr_unicast_needs_flashing
                0x20003590        0x4 examples/light_switch/server/CMakeFiles/light_switch_server_nrf52840_xxAA_s140_5.0.0-3.alpha.dir/__/__/__/mesh/access/src/device_state_manager.c.obj
 .bss.m_addr_virtual_allocated
                0x20003594        0x4 examples/light_switch/server/CMakeFiles/light_switch_server_nrf52840_xxAA_s140_5.0.0-3.alpha.dir/__/__/__/mesh/access/src/device_state_manager.c.obj
 .bss.m_addr_virtual_needs_flashing
                0x20003598        0x4 examples/light_switch/server/CMakeFiles/light_switch_server_nrf52840_xxAA_s140_5.0.0-3.alpha.dir/__/__/__/mesh/access/src/device_state_manager.c.obj
 .bss.m_addresses
                0x2000359c        0xc examples/light_switch/server/CMakeFiles/light_switch_server_nrf52840_xxAA_s140_5.0.0-3.alpha.dir/__/__/__/mesh/access/src/device_state_manager.c.obj
 .bss.m_appkey_allocated
                0x200035a8        0x4 examples/light_switch/server/CMakeFiles/light_switch_server_nrf52840_xxAA_s140_5.0.0-3.alpha.dir/__/__/__/mesh/access/src/device_state_manager.c.obj
 .bss.m_appkey_needs_flashing
                0x200035ac        0x4 examples/light_switch/server/CMakeFiles/light_switch_server_nrf52840_xxAA_s140_5.0.0-3.alpha.dir/__/__/__/mesh/access/src/device_state_manager.c.obj
 .bss.m_appkeys
                0x200035b0       0x2a examples/light_switch/server/CMakeFiles/light_switch_server_nrf52840_xxAA_s140_5.0.0-3.alpha.dir/__/__/__/mesh/access/src/device_state_manager.c.obj
 *fill*         0x200035da        0x2 
 .bss.m_devkey_allocated
                0x200035dc        0x4 examples/light_switch/server/CMakeFiles/light_switch_server_nrf52840_xxAA_s140_5.0.0-3.alpha.dir/__/__/__/mesh/access/src/device_state_manager.c.obj
 .bss.m_devkey_needs_flashing
                0x200035e0        0x4 examples/light_switch/server/CMakeFiles/light_switch_server_nrf52840_xxAA_s140_5.0.0-3.alpha.dir/__/__/__/mesh/access/src/device_state_manager.c.obj
 .bss.m_devkeys
                0x200035e4       0x16 examples/light_switch/server/CMakeFiles/light_switch_server_nrf52840_xxAA_s140_5.0.0-3.alpha.dir/__/__/__/mesh/access/src/device_state_manager.c.obj
 .bss.m_flash_is_available
                0x200035fa        0x1 examples/light_switch/server/CMakeFiles/light_switch_server_nrf52840_xxAA_s140_5.0.0-3.alpha.dir/__/__/__/mesh/access/src/device_state_manager.c.obj
 *fill*         0x200035fb        0x1 
 .bss.m_flash_manager
                0x200035fc       0x24 examples/light_switch/server/CMakeFiles/light_switch_server_nrf52840_xxAA_s140_5.0.0-3.alpha.dir/__/__/__/mesh/access/src/device_state_manager.c.obj
 .bss.m_flash_mem_listener_update_all
                0x20003620       0x10 examples/light_switch/server/CMakeFiles/light_switch_server_nrf52840_xxAA_s140_5.0.0-3.alpha.dir/__/__/__/mesh/access/src/device_state_manager.c.obj
 .bss.m_has_primary_subnet
                0x20003630        0x1 examples/light_switch/server/CMakeFiles/light_switch_server_nrf52840_xxAA_s140_5.0.0-3.alpha.dir/__/__/__/mesh/access/src/device_state_manager.c.obj
 *fill*         0x20003631        0x1 
 .bss.m_local_unicast_addr
                0x20003632        0x4 examples/light_switch/server/CMakeFiles/light_switch_server_nrf52840_xxAA_s140_5.0.0-3.alpha.dir/__/__/__/mesh/access/src/device_state_manager.c.obj
 *fill*         0x20003636        0x2 
 .bss.m_subnet_allocated
                0x20003638        0x4 examples/light_switch/server/CMakeFiles/light_switch_server_nrf52840_xxAA_s140_5.0.0-3.alpha.dir/__/__/__/mesh/access/src/device_state_manager.c.obj
 .bss.m_subnet_needs_flashing
                0x2000363c        0x4 examples/light_switch/server/CMakeFiles/light_switch_server_nrf52840_xxAA_s140_5.0.0-3.alpha.dir/__/__/__/mesh/access/src/device_state_manager.c.obj
 .bss.m_subnets
                0x20003640       0xac examples/light_switch/server/CMakeFiles/light_switch_server_nrf52840_xxAA_s140_5.0.0-3.alpha.dir/__/__/__/mesh/access/src/device_state_manager.c.obj
 .bss.m_virtual_addresses
                0x200036ec       0x14 examples/light_switch/server/CMakeFiles/light_switch_server_nrf52840_xxAA_s140_5.0.0-3.alpha.dir/__/__/__/mesh/access/src/device_state_manager.c.obj
 .bss.m_event_handler
                0x20003700        0x4 examples/light_switch/server/CMakeFiles/light_switch_server_nrf52840_xxAA_s140_5.0.0-3.alpha.dir/__/__/__/mesh/prov/src/prov_beacon.c.obj
 .bss.m_offload_ecdh
                0x20003704        0x1 examples/light_switch/server/CMakeFiles/light_switch_server_nrf52840_xxAA_s140_5.0.0-3.alpha.dir/__/__/__/mesh/prov/src/prov_utils.c.obj
 *fill*         0x20003705        0x3 
 .bss.mp_bearer_head
                0x20003708        0x4 examples/light_switch/server/CMakeFiles/light_switch_server_nrf52840_xxAA_s140_5.0.0-3.alpha.dir/__/__/__/mesh/prov/src/prov_bearer_adv.c.obj
 .bss.m_health_server
                0x2000370c       0x5c examples/light_switch/server/CMakeFiles/light_switch_server_nrf52840_xxAA_s140_5.0.0-3.alpha.dir/__/__/__/mesh/access/src/nrf_mesh_node_config.c.obj
 .bss.m_node_provisioned
                0x20003768        0x1 examples/light_switch/server/CMakeFiles/light_switch_server_nrf52840_xxAA_s140_5.0.0-3.alpha.dir/__/__/__/mesh/access/src/nrf_mesh_node_config.c.obj
 .bss.m_private_key
                0x20003769       0x20 examples/light_switch/server/CMakeFiles/light_switch_server_nrf52840_xxAA_s140_5.0.0-3.alpha.dir/__/__/__/mesh/access/src/nrf_mesh_node_config.c.obj
 *fill*         0x20003789        0x3 
 .bss.m_prov_bearer_adv
                0x2000378c      0x1c0 examples/light_switch/server/CMakeFiles/light_switch_server_nrf52840_xxAA_s140_5.0.0-3.alpha.dir/__/__/__/mesh/access/src/nrf_mesh_node_config.c.obj
 .bss.m_prov_ctx
                0x2000394c      0x130 examples/light_switch/server/CMakeFiles/light_switch_server_nrf52840_xxAA_s140_5.0.0-3.alpha.dir/__/__/__/mesh/access/src/nrf_mesh_node_config.c.obj
 .bss.m_public_key
                0x20003a7c       0x40 examples/light_switch/server/CMakeFiles/light_switch_server_nrf52840_xxAA_s140_5.0.0-3.alpha.dir/__/__/__/mesh/access/src/nrf_mesh_node_config.c.obj
 .bss.mp_init_params
                0x20003abc        0x4 examples/light_switch/server/CMakeFiles/light_switch_server_nrf52840_xxAA_s140_5.0.0-3.alpha.dir/__/__/__/mesh/access/src/nrf_mesh_node_config.c.obj
 .bss.m_uuid    0x20003ac0       0x10 mesh/core/libmesh_core_nrf52840_xxAA.a(nrf_mesh_configure.c.obj)
 .bss.mp_evt_handlers_head
                0x20003ad0        0x4 mesh/core/libmesh_core_nrf52840_xxAA.a(event.c.obj)
 .bss.lock_count.9935
                0x20003ad4        0x4 mesh/core/libmesh_core_nrf52840_xxAA.a(net_state.c.obj)
 .bss.m_flash_manager
                0x20003ad8       0x24 mesh/core/libmesh_core_nrf52840_xxAA.a(net_state.c.obj)
 .bss.m_iv_update_timer
                0x20003afc       0x18 mesh/core/libmesh_core_nrf52840_xxAA.a(net_state.c.obj)
 .bss.m_net_state
                0x20003b14       0x14 mesh/core/libmesh_core_nrf52840_xxAA.a(net_state.c.obj)
 .bss.m_seqnum_allocation_in_progress
                0x20003b28        0x1 mesh/core/libmesh_core_nrf52840_xxAA.a(net_state.c.obj)
 .bss.m_test_mode
                0x20003b29        0x1 mesh/core/libmesh_core_nrf52840_xxAA.a(net_state.c.obj)
 .bss.m_is_enabled
                0x20003b2a        0x1 mesh/core/libmesh_core_nrf52840_xxAA.a(nrf_mesh.c.obj)
 .bss.m_is_initialized
                0x20003b2b        0x1 mesh/core/libmesh_core_nrf52840_xxAA.a(nrf_mesh.c.obj)
 .bss.m_rx_cb   0x20003b2c        0x4 mesh/core/libmesh_core_nrf52840_xxAA.a(nrf_mesh.c.obj)
 .bss.m_event_flag
                0x20003b30        0x4 mesh/core/libmesh_core_nrf52840_xxAA.a(timer_scheduler.c.obj)
 .bss.m_scheduler
                0x20003b34       0x10 mesh/core/libmesh_core_nrf52840_xxAA.a(timer_scheduler.c.obj)
 .bss.m_attributes
                0x20003b44        0x3 mesh/core/libmesh_core_nrf52840_xxAA.a(timer.c.obj)
 *fill*         0x20003b47        0x1 
 .bss.m_callbacks
                0x20003b48        0xc mesh/core/libmesh_core_nrf52840_xxAA.a(timer.c.obj)
 .bss.m_is_in_ts
                0x20003b54        0x1 mesh/core/libmesh_core_nrf52840_xxAA.a(timer.c.obj)
 *fill*         0x20003b55        0x3 
 .bss.m_reference_time
                0x20003b58        0x4 mesh/core/libmesh_core_nrf52840_xxAA.a(timer.c.obj)
 .bss.m_timeouts
                0x20003b5c        0xc mesh/core/libmesh_core_nrf52840_xxAA.a(timer.c.obj)
 .bss.m_timer_mut
                0x20003b68        0x4 mesh/core/libmesh_core_nrf52840_xxAA.a(timer.c.obj)
 .bss.m_ts_end_time
                0x20003b6c        0x4 mesh/core/libmesh_core_nrf52840_xxAA.a(timer.c.obj)
 .bss.mp_ppi_tasks
                0x20003b70        0xc mesh/core/libmesh_core_nrf52840_xxAA.a(timer.c.obj)
 .bss.m_current_time
                0x20003b7c        0x4 mesh/core/libmesh_core_nrf52840_xxAA.a(ticker.c.obj)
 .bss.m_timer   0x20003b80       0x18 mesh/core/libmesh_core_nrf52840_xxAA.a(ticker.c.obj)
 .bss.m_current_timeslot
                0x20003b98       0x1c mesh/core/libmesh_core_nrf52840_xxAA.a(timeslot.c.obj)
 .bss.m_lfclk_ppm
                0x20003bb4        0x4 mesh/core/libmesh_core_nrf52840_xxAA.a(timeslot.c.obj)
 .bss.m_radio_request_earliest
                0x20003bb8       0x10 mesh/core/libmesh_core_nrf52840_xxAA.a(timeslot.c.obj)
 .bss.m_state_lock
                0x20003bc8        0x1 mesh/core/libmesh_core_nrf52840_xxAA.a(timeslot.c.obj)
 .bss.m_timeslot_forced_command
                0x20003bc9        0x1 mesh/core/libmesh_core_nrf52840_xxAA.a(timeslot.c.obj)
 *fill*         0x20003bca        0x6 
 .bss.s_last_rtc_value.9399
                0x20003bd0        0x8 mesh/core/libmesh_core_nrf52840_xxAA.a(timeslot.c.obj)
 .bss.m_bearer_event_fifo
                0x20003bd8       0x14 mesh/core/libmesh_core_nrf52840_xxAA.a(bearer_event.c.obj)
 .bss.m_bearer_event_fifo_buffer
                0x20003bec      0x100 mesh/core/libmesh_core_nrf52840_xxAA.a(bearer_event.c.obj)
 .bss.m_critical
                0x20003cec        0x4 mesh/core/libmesh_core_nrf52840_xxAA.a(bearer_event.c.obj)
 .bss.m_flag_count
                0x20003cf0        0x4 mesh/core/libmesh_core_nrf52840_xxAA.a(bearer_event.c.obj)
 .bss.m_flag_event_callbacks
                0x20003cf4       0x20 mesh/core/libmesh_core_nrf52840_xxAA.a(bearer_event.c.obj)
 .bss.m_flags   0x20003d14        0x4 mesh/core/libmesh_core_nrf52840_xxAA.a(bearer_event.c.obj)
 .bss.m_irq_priority
                0x20003d18        0x1 mesh/core/libmesh_core_nrf52840_xxAA.a(bearer_event.c.obj)
 *fill*         0x20003d19        0x3 
 .bss.m_sequential_event_queue
                0x20003d1c        0x8 mesh/core/libmesh_core_nrf52840_xxAA.a(bearer_event.c.obj)
 .bss.s_recursion_guard.9521
                0x20003d24        0x1 mesh/core/libmesh_core_nrf52840_xxAA.a(bearer_event.c.obj)
 *fill*         0x20003d25        0x3 
 .bss.m_relay_check_cb
                0x20003d28        0x4 mesh/core/libmesh_core_nrf52840_xxAA.a(network.c.obj)
 .bss.m_relay_enable
                0x20003d2c        0x1 mesh/core/libmesh_core_nrf52840_xxAA.a(network.c.obj)
 *fill*         0x20003d2d        0x3 
 .bss.m_action_queue
                0x20003d30        0xc mesh/core/libmesh_core_nrf52840_xxAA.a(flash_manager.c.obj)
 .bss.m_action_queue_buffer
                0x20003d3c      0x104 mesh/core/libmesh_core_nrf52840_xxAA.a(flash_manager.c.obj)
 .bss.m_action_state
                0x20003e40        0x1 mesh/core/libmesh_core_nrf52840_xxAA.a(flash_manager.c.obj)
 *fill*         0x20003e41        0x3 
 .bss.m_memory_listener_queue
                0x20003e44        0x8 mesh/core/libmesh_core_nrf52840_xxAA.a(flash_manager.c.obj)
 .bss.m_processing_flag
                0x20003e4c        0x4 mesh/core/libmesh_core_nrf52840_xxAA.a(flash_manager.c.obj)
 .bss.m_queue_empty_cb
                0x20003e50        0x4 mesh/core/libmesh_core_nrf52840_xxAA.a(flash_manager.c.obj)
 .bss.m_state   0x20003e54        0x1 mesh/core/libmesh_core_nrf52840_xxAA.a(flash_manager.c.obj)
 *fill*         0x20003e55        0x1 
 .bss.m_token   0x20003e56        0x2 mesh/core/libmesh_core_nrf52840_xxAA.a(flash_manager.c.obj)
 .bss.p_current.11249
                0x20003e58        0x4 mesh/core/libmesh_core_nrf52840_xxAA.a(flash_manager.c.obj)
 .bss.result.11250
                0x20003e5c        0x1 mesh/core/libmesh_core_nrf52840_xxAA.a(flash_manager.c.obj)
 *fill*         0x20003e5d        0x3 
 .bss.m_adv_buffer
                0x20003e60       0x68 mesh/core/libmesh_core_nrf52840_xxAA.a(beacon.c.obj)
 .bss.m_advertiser
                0x20003ec8       0x94 mesh/core/libmesh_core_nrf52840_xxAA.a(beacon.c.obj)
 .bss.m_bearers
                0x20003f5c        0x4 mesh/core/libmesh_core_nrf52840_xxAA.a(core_tx.c.obj)
 .bss.m_tx_complete_callback
                0x20003f60        0x4 mesh/core/libmesh_core_nrf52840_xxAA.a(core_tx.c.obj)
 .bss.m_hb_core_evt_handler
                0x20003f64        0x8 mesh/core/libmesh_core_nrf52840_xxAA.a(heartbeat.c.obj)
 .bss.m_hb_pending_feat_msg
                0x20003f6c        0x1 mesh/core/libmesh_core_nrf52840_xxAA.a(heartbeat.c.obj)
 .bss.m_hb_pending_pub_msg
                0x20003f6d        0x1 mesh/core/libmesh_core_nrf52840_xxAA.a(heartbeat.c.obj)
 .bss.m_heartbeat_init_done
                0x20003f6e        0x1 mesh/core/libmesh_core_nrf52840_xxAA.a(heartbeat.c.obj)
 *fill*         0x20003f6f        0x1 
 .bss.m_heartbeat_subscription
                0x20003f70       0x10 mesh/core/libmesh_core_nrf52840_xxAA.a(heartbeat.c.obj)
 .bss.m_publication_count_decrement_cb
                0x20003f80        0x4 mesh/core/libmesh_core_nrf52840_xxAA.a(heartbeat.c.obj)
 .bss.m_publication_get_cb
                0x20003f84        0x4 mesh/core/libmesh_core_nrf52840_xxAA.a(heartbeat.c.obj)
 .bss.m_publication_timer
                0x20003f88       0x1c mesh/core/libmesh_core_nrf52840_xxAA.a(heartbeat.c.obj)
 .bss.m_subscription_timer
                0x20003fa4       0x18 mesh/core/libmesh_core_nrf52840_xxAA.a(heartbeat.c.obj)
 .bss.m_beacon_salt
                0x20003fbc       0x10 mesh/core/libmesh_core_nrf52840_xxAA.a(net_beacon.c.obj)
 .bss.m_enabled
                0x20003fcc        0x1 mesh/core/libmesh_core_nrf52840_xxAA.a(net_beacon.c.obj)
 *fill*         0x20003fcd        0x3 
 .bss.m_tx_event
                0x20003fd0       0x18 mesh/core/libmesh_core_nrf52840_xxAA.a(net_beacon.c.obj)
 .bss.m_adv_tx_count
                0x20003fe8        0x8 mesh/core/libmesh_core_nrf52840_xxAA.a(core_tx_adv.c.obj)
 .bss.m_advertisers
                0x20003ff0      0x128 mesh/core/libmesh_core_nrf52840_xxAA.a(core_tx_adv.c.obj)
 .bss.m_originator_adv_packet_buffer
                0x20004118      0x100 mesh/core/libmesh_core_nrf52840_xxAA.a(core_tx_adv.c.obj)
 .bss.m_relay_adv_packet_buffer
                0x20004218       0x80 mesh/core/libmesh_core_nrf52840_xxAA.a(core_tx_adv.c.obj)
 .bss.m_subscribers
                0x20004298        0x4 mesh/core/libmesh_core_nrf52840_xxAA.a(ad_listener.c.obj)
 .bss.m_adtype_filter
                0x2000429c       0x38 mesh/core/libmesh_core_nrf52840_xxAA.a(ad_type_filter.c.obj)
 .bss.m_adv_prng
                0x200042d4       0x10 mesh/core/libmesh_core_nrf52840_xxAA.a(advertiser.c.obj)
 .bss.m_action_queue
                0x200042e4        0x8 mesh/core/libmesh_core_nrf52840_xxAA.a(bearer_handler.c.obj)
 .bss.m_end_time
                0x200042ec        0x4 mesh/core/libmesh_core_nrf52840_xxAA.a(bearer_handler.c.obj)
 .bss.m_scanner_is_active
                0x200042f0        0x1 mesh/core/libmesh_core_nrf52840_xxAA.a(bearer_handler.c.obj)
 .bss.m_stopped
                0x200042f1        0x1 mesh/core/libmesh_core_nrf52840_xxAA.a(bearer_handler.c.obj)
 *fill*         0x200042f2        0x2 
 .bss.mp_action
                0x200042f4        0x4 mesh/core/libmesh_core_nrf52840_xxAA.a(bearer_handler.c.obj)
 .bss.m_next_channel_index
                0x200042f8        0x1 mesh/core/libmesh_core_nrf52840_xxAA.a(broadcast.c.obj)
 *fill*         0x200042f9        0x3 
 .bss.m_accepted_amount
                0x200042fc        0x4 mesh/core/libmesh_core_nrf52840_xxAA.a(filter_engine.c.obj)
 .bss.m_filter_list_head
                0x20004300        0x4 mesh/core/libmesh_core_nrf52840_xxAA.a(filter_engine.c.obj)
 .bss.m_scanner
                0x20004304      0x28c mesh/core/libmesh_core_nrf52840_xxAA.a(scanner.c.obj)
 .bss.m_internal_event_fifo
                0x20004590       0x14 mesh/core/libmesh_core_nrf52840_xxAA.a(internal_event.c.obj)
 .bss.m_internal_event_initialized
                0x200045a4        0x1 mesh/core/libmesh_core_nrf52840_xxAA.a(internal_event.c.obj)
 *fill*         0x200045a5        0x3 
 .bss.m_report_cb
                0x200045a8        0x4 mesh/core/libmesh_core_nrf52840_xxAA.a(internal_event.c.obj)
 .bss.m_msg_cache
                0x200045ac      0x100 mesh/core/libmesh_core_nrf52840_xxAA.a(msg_cache.c.obj)
 .bss.m_msg_cache_head
                0x200046ac        0x4 mesh/core/libmesh_core_nrf52840_xxAA.a(msg_cache.c.obj)
 .bss.m_control_packet_consumer_count
                0x200046b0        0x4 mesh/core/libmesh_core_nrf52840_xxAA.a(transport.c.obj)
 .bss.m_control_packet_consumers
                0x200046b4        0x8 mesh/core/libmesh_core_nrf52840_xxAA.a(transport.c.obj)
 .bss.m_sar_alloc
                0x200046bc        0x4 mesh/core/libmesh_core_nrf52840_xxAA.a(transport.c.obj)
 .bss.m_sar_process_flag
                0x200046c0        0x4 mesh/core/libmesh_core_nrf52840_xxAA.a(transport.c.obj)
 .bss.m_sar_release
                0x200046c4        0x4 mesh/core/libmesh_core_nrf52840_xxAA.a(transport.c.obj)
 .bss.m_sar_session_cache
                0x200046c8       0x40 mesh/core/libmesh_core_nrf52840_xxAA.a(transport.c.obj)
 .bss.m_sar_session_cache_head
                0x20004708        0x4 mesh/core/libmesh_core_nrf52840_xxAA.a(transport.c.obj)
 .bss.m_trs_config
                0x2000470c       0x18 mesh/core/libmesh_core_nrf52840_xxAA.a(transport.c.obj)
 .bss.m_trs_sar_sessions
                0x20004724      0x1b0 mesh/core/libmesh_core_nrf52840_xxAA.a(transport.c.obj)
 .bss.m_defrag  0x200048d4       0x1c mesh/core/libmesh_core_nrf52840_xxAA.a(flash_manager_defrag.c.obj)
 .bss.m_token   0x200048f0        0x2 mesh/core/libmesh_core_nrf52840_xxAA.a(flash_manager_defrag.c.obj)
 *fill*         0x200048f2        0x2 
 .bss.mp_recovery_area
                0x200048f4        0x4 mesh/core/libmesh_core_nrf52840_xxAA.a(flash_manager_defrag.c.obj)
 .bss.p_null_ptr.10340
                0x200048f8        0x4 mesh/core/libmesh_core_nrf52840_xxAA.a(flash_manager_defrag.c.obj)
 .bss.m_pool    0x200048fc     0x1000 mesh/core/libmesh_core_nrf52840_xxAA.a(packet_mgr.c.obj)
 .bss.mp_free_head
                0x200058fc        0x4 mesh/core/libmesh_core_nrf52840_xxAA.a(packet_mgr.c.obj)
 .bss.m_event_flag
                0x20005900        0x4 mesh/core/libmesh_core_nrf52840_xxAA.a(mesh_flash.c.obj)
 .bss.m_suspended
                0x20005904        0x1 mesh/core/libmesh_core_nrf52840_xxAA.a(mesh_flash.c.obj)
 *fill*         0x20005905        0x3 
 .bss.m_users   0x20005908      0x228 mesh/core/libmesh_core_nrf52840_xxAA.a(mesh_flash.c.obj)
 .bss.m_128buf  0x20005b30       0x10 mesh/core/libmesh_core_nrf52840_xxAA.a(aes_cmac.c.obj)
 .bss.m_subkey1
                0x20005b40       0x10 mesh/core/libmesh_core_nrf52840_xxAA.a(aes_cmac.c.obj)
 .bss.m_subkey2
                0x20005b50       0x10 mesh/core/libmesh_core_nrf52840_xxAA.a(aes_cmac.c.obj)
 .bss.m_cache_full
                0x20005b60        0x1 mesh/core/libmesh_core_nrf52840_xxAA.a(replay_cache.c.obj)
 .bss.m_cache_index
                0x20005b61        0x1 mesh/core/libmesh_core_nrf52840_xxAA.a(replay_cache.c.obj)
 *fill*         0x20005b62        0x2 
 .bss.m_replay_cache
                0x20005b64      0x200 mesh/core/libmesh_core_nrf52840_xxAA.a(replay_cache.c.obj)
 .bss._acDownBuffer
                0x20005d64       0x80 external/rtt/librtt_nrf52840_xxAA.a(SEGGER_RTT.c.obj)
 .bss._acUpBuffer
                0x20005de4      0x400 external/rtt/librtt_nrf52840_xxAA.a(SEGGER_RTT.c.obj)
 .bss.__malloc_free_list
                0x200061e4        0x4 c:/a/gcc_arm/6/bin/../lib/gcc/arm-none-eabi/6.3.1/../../../../arm-none-eabi/lib/thumb/v7e-m/fpv4-sp/hard\libg_nano.a(lib_a-nano-mallocr.o)
                0x200061e4                __malloc_free_list
 .bss.__malloc_sbrk_start
                0x200061e8        0x4 c:/a/gcc_arm/6/bin/../lib/gcc/arm-none-eabi/6.3.1/../../../../arm-none-eabi/lib/thumb/v7e-m/fpv4-sp/hard\libg_nano.a(lib_a-nano-mallocr.o)
                0x200061e8                __malloc_sbrk_start
 .bss.heap_end.5239
                0x200061ec        0x4 c:/a/gcc_arm/6/bin/../lib/gcc/arm-none-eabi/6.3.1/../../../../arm-none-eabi/lib/thumb/v7e-m/fpv4-sp/hard\libnosys.a(sbrk.o)
 *(COMMON)
 COMMON         0x200061f0        0xc examples/light_switch/server/CMakeFiles/light_switch_server_nrf52840_xxAA_s140_5.0.0-3.alpha.dir/__/__/nrf_mesh_sdk.c.obj
                0x200061f0                nrf_nvic_state
 COMMON         0x200061fc        0x4 mesh/core/libmesh_core_nrf52840_xxAA.a(nrf_mesh.c.obj)
                0x200061fc                m_assertion_handler
 COMMON         0x20006200       0x78 external/rtt/librtt_nrf52840_xxAA.a(SEGGER_RTT.c.obj)
                0x20006200                _SEGGER_RTT
 COMMON         0x20006278        0x4 c:/a/gcc_arm/6/bin/../lib/gcc/arm-none-eabi/6.3.1/../../../../arm-none-eabi/lib/thumb/v7e-m/fpv4-sp/hard\libg_nano.a(lib_a-reent.o)
                0x20006278                errno
                0x2000627c                . = ALIGN (0x4)
                0x2000627c                __bss_end__ = .

.heap           0x20006280     0x2000
                0x20006280                __HeapBase = .
                0x20006280                __end__ = .
                0x20006280                PROVIDE (end, .)
 *(.heap*)
 .heap          0x20006280     0x2000 examples/light_switch/server/CMakeFiles/light_switch_server_nrf52840_xxAA_s140_5.0.0-3.alpha.dir/__/__/__/external/nRF5_SDK_14.2.0_17b948a/components/toolchain/gcc/gcc_startup_nrf52840.S.obj
                0x20008280                __HeapLimit = .

.stack_dummy    0x20006280     0x2000
 *(.stack*)
 .stack         0x20006280     0x2000 examples/light_switch/server/CMakeFiles/light_switch_server_nrf52840_xxAA_s140_5.0.0-3.alpha.dir/__/__/__/external/nRF5_SDK_14.2.0_17b948a/components/toolchain/gcc/gcc_startup_nrf52840.S.obj
                0x2003fd00                __StackTop = (ORIGIN (RAM) + LENGTH (RAM))
                0x2003dd00                __StackLimit = (__StackTop - SIZEOF (.stack_dummy))
                0x2003fd00                PROVIDE (__stack, __StackTop)
                0x00000001                ASSERT ((__StackLimit >= __HeapLimit), region RAM overflowed with stack)
                0x00000170                DataInitFlashUsed = (__bss_start__ - __data_start__)
                0x0001316c                CodeFlashUsed = (__etext - ORIGIN (FLASH))
                0x000132dc                TotalFlashUsed = (CodeFlashUsed + DataInitFlashUsed)
                0x00000001                ASSERT ((TotalFlashUsed <= LENGTH (FLASH)), region FLASH overflowed with .data and user data)
OUTPUT(examples\light_switch\server\light_switch_server_nrf52840_xxAA_s140_5.0.0-3.alpha.elf elf32-littlearm)

.ARM.attributes
                0x00000000       0x30
 .ARM.attributes
                0x00000000       0x22 c:/a/gcc_arm/6/bin/../lib/gcc/arm-none-eabi/6.3.1/thumb/v7e-m/fpv4-sp/hard/crti.o
 .ARM.attributes
                0x00000022       0x34 c:/a/gcc_arm/6/bin/../lib/gcc/arm-none-eabi/6.3.1/thumb/v7e-m/fpv4-sp/hard/crtbegin.o
 .ARM.attributes
                0x00000056       0x20 c:/a/gcc_arm/6/bin/../lib/gcc/arm-none-eabi/6.3.1/../../../../arm-none-eabi/lib/thumb/v7e-m/fpv4-sp/hard/crt0.o
 .ARM.attributes
                0x00000076       0x39 examples/light_switch/server/CMakeFiles/light_switch_server_nrf52840_xxAA_s140_5.0.0-3.alpha.dir/src/main.c.obj
 .ARM.attributes
                0x000000af       0x39 examples/light_switch/server/CMakeFiles/light_switch_server_nrf52840_xxAA_s140_5.0.0-3.alpha.dir/__/__/nrf_mesh_sdk.c.obj
 .ARM.attributes
                0x000000e8       0x39 examples/light_switch/server/CMakeFiles/light_switch_server_nrf52840_xxAA_s140_5.0.0-3.alpha.dir/__/__/common/src/simple_hal.c.obj
 .ARM.attributes
                0x00000121       0x39 examples/light_switch/server/CMakeFiles/light_switch_server_nrf52840_xxAA_s140_5.0.0-3.alpha.dir/__/__/nrf_mesh_weak.c.obj
 .ARM.attributes
                0x0000015a       0x39 examples/light_switch/server/CMakeFiles/light_switch_server_nrf52840_xxAA_s140_5.0.0-3.alpha.dir/__/__/__/models/simple_on_off/src/simple_on_off_server.c.obj
 .ARM.attributes
                0x00000193       0x39 examples/light_switch/server/CMakeFiles/light_switch_server_nrf52840_xxAA_s140_5.0.0-3.alpha.dir/__/__/__/models/config/src/composition_data.c.obj
 .ARM.attributes
                0x000001cc       0x39 examples/light_switch/server/CMakeFiles/light_switch_server_nrf52840_xxAA_s140_5.0.0-3.alpha.dir/__/__/__/models/config/src/config_server.c.obj
 .ARM.attributes
                0x00000205       0x39 examples/light_switch/server/CMakeFiles/light_switch_server_nrf52840_xxAA_s140_5.0.0-3.alpha.dir/__/__/__/models/config/src/packed_index_list.c.obj
 .ARM.attributes
                0x0000023e       0x39 examples/light_switch/server/CMakeFiles/light_switch_server_nrf52840_xxAA_s140_5.0.0-3.alpha.dir/__/__/__/models/health/src/health_server.c.obj
 .ARM.attributes
                0x00000277       0x39 examples/light_switch/server/CMakeFiles/light_switch_server_nrf52840_xxAA_s140_5.0.0-3.alpha.dir/__/__/__/mesh/access/src/access_publish.c.obj
 .ARM.attributes
                0x000002b0       0x39 examples/light_switch/server/CMakeFiles/light_switch_server_nrf52840_xxAA_s140_5.0.0-3.alpha.dir/__/__/__/mesh/access/src/access.c.obj
 .ARM.attributes
                0x000002e9       0x39 examples/light_switch/server/CMakeFiles/light_switch_server_nrf52840_xxAA_s140_5.0.0-3.alpha.dir/__/__/__/mesh/access/src/access_reliable.c.obj
 .ARM.attributes
                0x00000322       0x39 examples/light_switch/server/CMakeFiles/light_switch_server_nrf52840_xxAA_s140_5.0.0-3.alpha.dir/__/__/__/mesh/access/src/device_state_manager.c.obj
 .ARM.attributes
                0x0000035b       0x39 examples/light_switch/server/CMakeFiles/light_switch_server_nrf52840_xxAA_s140_5.0.0-3.alpha.dir/__/__/__/mesh/prov/src/prov_provisionee.c.obj
 .ARM.attributes
                0x00000394       0x39 examples/light_switch/server/CMakeFiles/light_switch_server_nrf52840_xxAA_s140_5.0.0-3.alpha.dir/__/__/__/mesh/prov/src/nrf_mesh_prov.c.obj
 .ARM.attributes
                0x000003cd       0x39 examples/light_switch/server/CMakeFiles/light_switch_server_nrf52840_xxAA_s140_5.0.0-3.alpha.dir/__/__/__/mesh/prov/src/provisioning.c.obj
 .ARM.attributes
                0x00000406       0x39 examples/light_switch/server/CMakeFiles/light_switch_server_nrf52840_xxAA_s140_5.0.0-3.alpha.dir/__/__/__/mesh/prov/src/prov_beacon.c.obj
 .ARM.attributes
                0x0000043f       0x39 examples/light_switch/server/CMakeFiles/light_switch_server_nrf52840_xxAA_s140_5.0.0-3.alpha.dir/__/__/__/mesh/prov/src/prov_utils.c.obj
 .ARM.attributes
                0x00000478       0x39 examples/light_switch/server/CMakeFiles/light_switch_server_nrf52840_xxAA_s140_5.0.0-3.alpha.dir/__/__/__/mesh/prov/src/prov_bearer_adv.c.obj
 .ARM.attributes
                0x000004b1       0x39 examples/light_switch/server/CMakeFiles/light_switch_server_nrf52840_xxAA_s140_5.0.0-3.alpha.dir/__/__/__/mesh/access/src/nrf_mesh_node_config.c.obj
 .ARM.attributes
                0x000004ea       0x39 examples/light_switch/server/CMakeFiles/light_switch_server_nrf52840_xxAA_s140_5.0.0-3.alpha.dir/__/__/__/external/nRF5_SDK_14.2.0_17b948a/components/toolchain/system_nrf52840.c.obj
 .ARM.attributes
                0x00000523       0x20 examples/light_switch/server/CMakeFiles/light_switch_server_nrf52840_xxAA_s140_5.0.0-3.alpha.dir/__/__/__/external/nRF5_SDK_14.2.0_17b948a/components/toolchain/gcc/gcc_startup_nrf52840.S.obj
 .ARM.attributes
                0x00000543       0x39 mesh/core/libmesh_core_nrf52840_xxAA.a(nrf_mesh_configure.c.obj)
 .ARM.attributes
                0x0000057c       0x39 mesh/core/libmesh_core_nrf52840_xxAA.a(event.c.obj)
 .ARM.attributes
                0x000005b5       0x39 mesh/core/libmesh_core_nrf52840_xxAA.a(net_state.c.obj)
 .ARM.attributes
                0x000005ee       0x39 mesh/core/libmesh_core_nrf52840_xxAA.a(nrf_mesh_utils.c.obj)
 .ARM.attributes
                0x00000627       0x39 mesh/core/libmesh_core_nrf52840_xxAA.a(nrf_mesh.c.obj)
 .ARM.attributes
                0x00000660       0x39 mesh/core/libmesh_core_nrf52840_xxAA.a(hal.c.obj)
 .ARM.attributes
                0x00000699       0x39 mesh/core/libmesh_core_nrf52840_xxAA.a(timer_scheduler.c.obj)
 .ARM.attributes
                0x000006d2       0x39 mesh/core/libmesh_core_nrf52840_xxAA.a(timer.c.obj)
 .ARM.attributes
                0x0000070b       0x39 mesh/core/libmesh_core_nrf52840_xxAA.a(ticker.c.obj)
 .ARM.attributes
                0x00000744       0x39 mesh/core/libmesh_core_nrf52840_xxAA.a(rand.c.obj)
 .ARM.attributes
                0x0000077d       0x39 mesh/core/libmesh_core_nrf52840_xxAA.a(nrf_mesh_opt.c.obj)
 .ARM.attributes
                0x000007b6       0x39 mesh/core/libmesh_core_nrf52840_xxAA.a(timeslot.c.obj)
 .ARM.attributes
                0x000007ef       0x39 mesh/core/libmesh_core_nrf52840_xxAA.a(bearer_event.c.obj)
 .ARM.attributes
                0x00000828       0x39 mesh/core/libmesh_core_nrf52840_xxAA.a(enc.c.obj)
 .ARM.attributes
                0x00000861       0x39 mesh/core/libmesh_core_nrf52840_xxAA.a(network.c.obj)
 .ARM.attributes
                0x0000089a       0x39 mesh/core/libmesh_core_nrf52840_xxAA.a(nrf_mesh_keygen.c.obj)
 .ARM.attributes
                0x000008d3       0x39 mesh/core/libmesh_core_nrf52840_xxAA.a(list.c.obj)
 .ARM.attributes
                0x0000090c       0x39 mesh/core/libmesh_core_nrf52840_xxAA.a(log.c.obj)
 .ARM.attributes
                0x00000945       0x39 mesh/core/libmesh_core_nrf52840_xxAA.a(flash_manager.c.obj)
 .ARM.attributes
                0x0000097e       0x39 mesh/core/libmesh_core_nrf52840_xxAA.a(ccm_soft.c.obj)
 .ARM.attributes
                0x000009b7       0x39 mesh/core/libmesh_core_nrf52840_xxAA.a(beacon.c.obj)
 .ARM.attributes
                0x000009f0       0x39 mesh/core/libmesh_core_nrf52840_xxAA.a(flash_manager_internal.c.obj)
 .ARM.attributes
                0x00000a29       0x39 mesh/core/libmesh_core_nrf52840_xxAA.a(core_tx.c.obj)
 .ARM.attributes
                0x00000a62       0x39 mesh/core/libmesh_core_nrf52840_xxAA.a(heartbeat.c.obj)
 .ARM.attributes
                0x00000a9b       0x39 mesh/core/libmesh_core_nrf52840_xxAA.a(net_beacon.c.obj)
 .ARM.attributes
                0x00000ad4       0x39 mesh/core/libmesh_core_nrf52840_xxAA.a(core_tx_adv.c.obj)
 .ARM.attributes
                0x00000b0d       0x39 mesh/core/libmesh_core_nrf52840_xxAA.a(ad_listener.c.obj)
 .ARM.attributes
                0x00000b46       0x39 mesh/core/libmesh_core_nrf52840_xxAA.a(ad_type_filter.c.obj)
 .ARM.attributes
                0x00000b7f       0x39 mesh/core/libmesh_core_nrf52840_xxAA.a(advertiser.c.obj)
 .ARM.attributes
                0x00000bb8       0x39 mesh/core/libmesh_core_nrf52840_xxAA.a(bearer_handler.c.obj)
 .ARM.attributes
                0x00000bf1       0x39 mesh/core/libmesh_core_nrf52840_xxAA.a(broadcast.c.obj)
 .ARM.attributes
                0x00000c2a       0x39 mesh/core/libmesh_core_nrf52840_xxAA.a(filter_engine.c.obj)
 .ARM.attributes
                0x00000c63       0x39 mesh/core/libmesh_core_nrf52840_xxAA.a(radio_config.c.obj)
 .ARM.attributes
                0x00000c9c       0x39 mesh/core/libmesh_core_nrf52840_xxAA.a(scanner.c.obj)
 .ARM.attributes
                0x00000cd5       0x39 mesh/core/libmesh_core_nrf52840_xxAA.a(internal_event.c.obj)
 .ARM.attributes
                0x00000d0e       0x39 mesh/core/libmesh_core_nrf52840_xxAA.a(aes.c.obj)
 .ARM.attributes
                0x00000d47       0x39 mesh/core/libmesh_core_nrf52840_xxAA.a(msg_cache.c.obj)
 .ARM.attributes
                0x00000d80       0x39 mesh/core/libmesh_core_nrf52840_xxAA.a(transport.c.obj)
 .ARM.attributes
                0x00000db9       0x39 mesh/core/libmesh_core_nrf52840_xxAA.a(packet_buffer.c.obj)
 .ARM.attributes
                0x00000df2       0x39 mesh/core/libmesh_core_nrf52840_xxAA.a(flash_manager_defrag.c.obj)
 .ARM.attributes
                0x00000e2b       0x39 mesh/core/libmesh_core_nrf52840_xxAA.a(fifo.c.obj)
 .ARM.attributes
                0x00000e64       0x39 mesh/core/libmesh_core_nrf52840_xxAA.a(packet_mgr.c.obj)
 .ARM.attributes
                0x00000e9d       0x39 mesh/core/libmesh_core_nrf52840_xxAA.a(mesh_flash.c.obj)
 .ARM.attributes
                0x00000ed6       0x39 mesh/core/libmesh_core_nrf52840_xxAA.a(queue.c.obj)
 .ARM.attributes
                0x00000f0f       0x39 mesh/core/libmesh_core_nrf52840_xxAA.a(aes_cmac.c.obj)
 .ARM.attributes
                0x00000f48       0x39 mesh/core/libmesh_core_nrf52840_xxAA.a(msqueue.c.obj)
 .ARM.attributes
                0x00000f81       0x39 mesh/core/libmesh_core_nrf52840_xxAA.a(replay_cache.c.obj)
 .ARM.attributes
                0x00000fba       0x39 mesh/core/libmesh_core_nrf52840_xxAA.a(nrf_flash.c.obj)
 .ARM.attributes
                0x00000ff3       0x39 external/rtt/librtt_nrf52840_xxAA.a(SEGGER_RTT.c.obj)
 .ARM.attributes
                0x0000102c       0x39 external/rtt/librtt_nrf52840_xxAA.a(SEGGER_RTT_printf.c.obj)
 .ARM.attributes
                0x00001065       0x39 external/micro-ecc/libuECC_nrf52840_xxAA.a(uECC.c.obj)
 .ARM.attributes
                0x0000109e       0x34 c:/a/gcc_arm/6/bin/../lib/gcc/arm-none-eabi/6.3.1/../../../../arm-none-eabi/lib/thumb/v7e-m/fpv4-sp/hard\libg_nano.a(lib_a-exit.o)
 .ARM.attributes
                0x000010d2       0x34 c:/a/gcc_arm/6/bin/../lib/gcc/arm-none-eabi/6.3.1/../../../../arm-none-eabi/lib/thumb/v7e-m/fpv4-sp/hard\libg_nano.a(lib_a-impure.o)
 .ARM.attributes
                0x00001106       0x34 c:/a/gcc_arm/6/bin/../lib/gcc/arm-none-eabi/6.3.1/../../../../arm-none-eabi/lib/thumb/v7e-m/fpv4-sp/hard\libg_nano.a(lib_a-init.o)
 .ARM.attributes
                0x0000113a       0x34 c:/a/gcc_arm/6/bin/../lib/gcc/arm-none-eabi/6.3.1/../../../../arm-none-eabi/lib/thumb/v7e-m/fpv4-sp/hard\libg_nano.a(lib_a-malloc.o)
 .ARM.attributes
                0x0000116e       0x34 c:/a/gcc_arm/6/bin/../lib/gcc/arm-none-eabi/6.3.1/../../../../arm-none-eabi/lib/thumb/v7e-m/fpv4-sp/hard\libg_nano.a(lib_a-memcmp.o)
 .ARM.attributes
                0x000011a2       0x34 c:/a/gcc_arm/6/bin/../lib/gcc/arm-none-eabi/6.3.1/../../../../arm-none-eabi/lib/thumb/v7e-m/fpv4-sp/hard\libg_nano.a(lib_a-memcpy-stub.o)
 .ARM.attributes
                0x000011d6       0x34 c:/a/gcc_arm/6/bin/../lib/gcc/arm-none-eabi/6.3.1/../../../../arm-none-eabi/lib/thumb/v7e-m/fpv4-sp/hard\libg_nano.a(lib_a-memset.o)
 .ARM.attributes
                0x0000120a       0x34 c:/a/gcc_arm/6/bin/../lib/gcc/arm-none-eabi/6.3.1/../../../../arm-none-eabi/lib/thumb/v7e-m/fpv4-sp/hard\libg_nano.a(lib_a-nano-freer.o)
 .ARM.attributes
                0x0000123e       0x34 c:/a/gcc_arm/6/bin/../lib/gcc/arm-none-eabi/6.3.1/../../../../arm-none-eabi/lib/thumb/v7e-m/fpv4-sp/hard\libg_nano.a(lib_a-nano-mallocr.o)
 .ARM.attributes
                0x00001272       0x34 c:/a/gcc_arm/6/bin/../lib/gcc/arm-none-eabi/6.3.1/../../../../arm-none-eabi/lib/thumb/v7e-m/fpv4-sp/hard\libg_nano.a(lib_a-sbrkr.o)
 .ARM.attributes
                0x000012a6       0x34 c:/a/gcc_arm/6/bin/../lib/gcc/arm-none-eabi/6.3.1/../../../../arm-none-eabi/lib/thumb/v7e-m/fpv4-sp/hard\libg_nano.a(lib_a-strcpy.o)
 .ARM.attributes
                0x000012da       0x1b c:/a/gcc_arm/6/bin/../lib/gcc/arm-none-eabi/6.3.1/../../../../arm-none-eabi/lib/thumb/v7e-m/fpv4-sp/hard\libg_nano.a(lib_a-strlen.o)
 .ARM.attributes
                0x000012f5       0x34 c:/a/gcc_arm/6/bin/../lib/gcc/arm-none-eabi/6.3.1/../../../../arm-none-eabi/lib/thumb/v7e-m/fpv4-sp/hard\libg_nano.a(lib_a-strrchr.o)
 .ARM.attributes
                0x00001329       0x34 c:/a/gcc_arm/6/bin/../lib/gcc/arm-none-eabi/6.3.1/../../../../arm-none-eabi/lib/thumb/v7e-m/fpv4-sp/hard\libg_nano.a(lib_a-mlock.o)
 .ARM.attributes
                0x0000135d       0x34 c:/a/gcc_arm/6/bin/../lib/gcc/arm-none-eabi/6.3.1/../../../../arm-none-eabi/lib/thumb/v7e-m/fpv4-sp/hard\libg_nano.a(lib_a-reent.o)
 .ARM.attributes
                0x00001391       0x34 c:/a/gcc_arm/6/bin/../lib/gcc/arm-none-eabi/6.3.1/../../../../arm-none-eabi/lib/thumb/v7e-m/fpv4-sp/hard\libg_nano.a(lib_a-strchr.o)
 .ARM.attributes
                0x000013c5       0x34 c:/a/gcc_arm/6/bin/../lib/gcc/arm-none-eabi/6.3.1/thumb/v7e-m/fpv4-sp/hard/crtend.o
 .ARM.attributes
                0x000013f9       0x22 c:/a/gcc_arm/6/bin/../lib/gcc/arm-none-eabi/6.3.1/thumb/v7e-m/fpv4-sp/hard/crtn.o
 .ARM.attributes
                0x0000141b       0x34 c:/a/gcc_arm/6/bin/../lib/gcc/arm-none-eabi/6.3.1/../../../../arm-none-eabi/lib/thumb/v7e-m/fpv4-sp/hard\libnosys.a(sbrk.o)
 .ARM.attributes
                0x0000144f       0x34 c:/a/gcc_arm/6/bin/../lib/gcc/arm-none-eabi/6.3.1/../../../../arm-none-eabi/lib/thumb/v7e-m/fpv4-sp/hard\libnosys.a(_exit.o)

.comment        0x00000000       0x7f
 .comment       0x00000000       0x7f examples/light_switch/server/CMakeFiles/light_switch_server_nrf52840_xxAA_s140_5.0.0-3.alpha.dir/src/main.c.obj
                                 0x80 (size before relaxing)
 .comment       0x0000007f       0x80 examples/light_switch/server/CMakeFiles/light_switch_server_nrf52840_xxAA_s140_5.0.0-3.alpha.dir/__/__/nrf_mesh_sdk.c.obj
 .comment       0x0000007f       0x80 examples/light_switch/server/CMakeFiles/light_switch_server_nrf52840_xxAA_s140_5.0.0-3.alpha.dir/__/__/common/src/simple_hal.c.obj
 .comment       0x0000007f       0x80 examples/light_switch/server/CMakeFiles/light_switch_server_nrf52840_xxAA_s140_5.0.0-3.alpha.dir/__/__/nrf_mesh_weak.c.obj
 .comment       0x0000007f       0x80 examples/light_switch/server/CMakeFiles/light_switch_server_nrf52840_xxAA_s140_5.0.0-3.alpha.dir/__/__/__/models/simple_on_off/src/simple_on_off_server.c.obj
 .comment       0x0000007f       0x80 examples/light_switch/server/CMakeFiles/light_switch_server_nrf52840_xxAA_s140_5.0.0-3.alpha.dir/__/__/__/models/config/src/composition_data.c.obj
 .comment       0x0000007f       0x80 examples/light_switch/server/CMakeFiles/light_switch_server_nrf52840_xxAA_s140_5.0.0-3.alpha.dir/__/__/__/models/config/src/config_server.c.obj
 .comment       0x0000007f       0x80 examples/light_switch/server/CMakeFiles/light_switch_server_nrf52840_xxAA_s140_5.0.0-3.alpha.dir/__/__/__/models/config/src/packed_index_list.c.obj
 .comment       0x0000007f       0x80 examples/light_switch/server/CMakeFiles/light_switch_server_nrf52840_xxAA_s140_5.0.0-3.alpha.dir/__/__/__/models/health/src/health_server.c.obj
 .comment       0x0000007f       0x80 examples/light_switch/server/CMakeFiles/light_switch_server_nrf52840_xxAA_s140_5.0.0-3.alpha.dir/__/__/__/mesh/access/src/access_publish.c.obj
 .comment       0x0000007f       0x80 examples/light_switch/server/CMakeFiles/light_switch_server_nrf52840_xxAA_s140_5.0.0-3.alpha.dir/__/__/__/mesh/access/src/access.c.obj
 .comment       0x0000007f       0x80 examples/light_switch/server/CMakeFiles/light_switch_server_nrf52840_xxAA_s140_5.0.0-3.alpha.dir/__/__/__/mesh/access/src/access_reliable.c.obj
 .comment       0x0000007f       0x80 examples/light_switch/server/CMakeFiles/light_switch_server_nrf52840_xxAA_s140_5.0.0-3.alpha.dir/__/__/__/mesh/access/src/device_state_manager.c.obj
 .comment       0x0000007f       0x80 examples/light_switch/server/CMakeFiles/light_switch_server_nrf52840_xxAA_s140_5.0.0-3.alpha.dir/__/__/__/mesh/prov/src/prov_provisionee.c.obj
 .comment       0x0000007f       0x80 examples/light_switch/server/CMakeFiles/light_switch_server_nrf52840_xxAA_s140_5.0.0-3.alpha.dir/__/__/__/mesh/prov/src/nrf_mesh_prov.c.obj
 .comment       0x0000007f       0x80 examples/light_switch/server/CMakeFiles/light_switch_server_nrf52840_xxAA_s140_5.0.0-3.alpha.dir/__/__/__/mesh/prov/src/provisioning.c.obj
 .comment       0x0000007f       0x80 examples/light_switch/server/CMakeFiles/light_switch_server_nrf52840_xxAA_s140_5.0.0-3.alpha.dir/__/__/__/mesh/prov/src/prov_beacon.c.obj
 .comment       0x0000007f       0x80 examples/light_switch/server/CMakeFiles/light_switch_server_nrf52840_xxAA_s140_5.0.0-3.alpha.dir/__/__/__/mesh/prov/src/prov_utils.c.obj
 .comment       0x0000007f       0x80 examples/light_switch/server/CMakeFiles/light_switch_server_nrf52840_xxAA_s140_5.0.0-3.alpha.dir/__/__/__/mesh/prov/src/prov_bearer_adv.c.obj
 .comment       0x0000007f       0x80 examples/light_switch/server/CMakeFiles/light_switch_server_nrf52840_xxAA_s140_5.0.0-3.alpha.dir/__/__/__/mesh/access/src/nrf_mesh_node_config.c.obj
 .comment       0x0000007f       0x80 examples/light_switch/server/CMakeFiles/light_switch_server_nrf52840_xxAA_s140_5.0.0-3.alpha.dir/__/__/__/external/nRF5_SDK_14.2.0_17b948a/components/toolchain/system_nrf52840.c.obj
 .comment       0x0000007f       0x80 mesh/core/libmesh_core_nrf52840_xxAA.a(nrf_mesh_configure.c.obj)
 .comment       0x0000007f       0x80 mesh/core/libmesh_core_nrf52840_xxAA.a(event.c.obj)
 .comment       0x0000007f       0x80 mesh/core/libmesh_core_nrf52840_xxAA.a(net_state.c.obj)
 .comment       0x0000007f       0x80 mesh/core/libmesh_core_nrf52840_xxAA.a(nrf_mesh_utils.c.obj)
 .comment       0x0000007f       0x80 mesh/core/libmesh_core_nrf52840_xxAA.a(nrf_mesh.c.obj)
 .comment       0x0000007f       0x80 mesh/core/libmesh_core_nrf52840_xxAA.a(hal.c.obj)
 .comment       0x0000007f       0x80 mesh/core/libmesh_core_nrf52840_xxAA.a(timer_scheduler.c.obj)
 .comment       0x0000007f       0x80 mesh/core/libmesh_core_nrf52840_xxAA.a(timer.c.obj)
 .comment       0x0000007f       0x80 mesh/core/libmesh_core_nrf52840_xxAA.a(ticker.c.obj)
 .comment       0x0000007f       0x80 mesh/core/libmesh_core_nrf52840_xxAA.a(rand.c.obj)
 .comment       0x0000007f       0x80 mesh/core/libmesh_core_nrf52840_xxAA.a(nrf_mesh_opt.c.obj)
 .comment       0x0000007f       0x80 mesh/core/libmesh_core_nrf52840_xxAA.a(timeslot.c.obj)
 .comment       0x0000007f       0x80 mesh/core/libmesh_core_nrf52840_xxAA.a(bearer_event.c.obj)
 .comment       0x0000007f       0x80 mesh/core/libmesh_core_nrf52840_xxAA.a(enc.c.obj)
 .comment       0x0000007f       0x80 mesh/core/libmesh_core_nrf52840_xxAA.a(network.c.obj)
 .comment       0x0000007f       0x80 mesh/core/libmesh_core_nrf52840_xxAA.a(nrf_mesh_keygen.c.obj)
 .comment       0x0000007f       0x80 mesh/core/libmesh_core_nrf52840_xxAA.a(list.c.obj)
 .comment       0x0000007f       0x80 mesh/core/libmesh_core_nrf52840_xxAA.a(log.c.obj)
 .comment       0x0000007f       0x80 mesh/core/libmesh_core_nrf52840_xxAA.a(flash_manager.c.obj)
 .comment       0x0000007f       0x80 mesh/core/libmesh_core_nrf52840_xxAA.a(ccm_soft.c.obj)
 .comment       0x0000007f       0x80 mesh/core/libmesh_core_nrf52840_xxAA.a(beacon.c.obj)
 .comment       0x0000007f       0x80 mesh/core/libmesh_core_nrf52840_xxAA.a(flash_manager_internal.c.obj)
 .comment       0x0000007f       0x80 mesh/core/libmesh_core_nrf52840_xxAA.a(core_tx.c.obj)
 .comment       0x0000007f       0x80 mesh/core/libmesh_core_nrf52840_xxAA.a(heartbeat.c.obj)
 .comment       0x0000007f       0x80 mesh/core/libmesh_core_nrf52840_xxAA.a(net_beacon.c.obj)
 .comment       0x0000007f       0x80 mesh/core/libmesh_core_nrf52840_xxAA.a(core_tx_adv.c.obj)
 .comment       0x0000007f       0x80 mesh/core/libmesh_core_nrf52840_xxAA.a(ad_listener.c.obj)
 .comment       0x0000007f       0x80 mesh/core/libmesh_core_nrf52840_xxAA.a(ad_type_filter.c.obj)
 .comment       0x0000007f       0x80 mesh/core/libmesh_core_nrf52840_xxAA.a(advertiser.c.obj)
 .comment       0x0000007f       0x80 mesh/core/libmesh_core_nrf52840_xxAA.a(bearer_handler.c.obj)
 .comment       0x0000007f       0x80 mesh/core/libmesh_core_nrf52840_xxAA.a(broadcast.c.obj)
 .comment       0x0000007f       0x80 mesh/core/libmesh_core_nrf52840_xxAA.a(filter_engine.c.obj)
 .comment       0x0000007f       0x80 mesh/core/libmesh_core_nrf52840_xxAA.a(radio_config.c.obj)
 .comment       0x0000007f       0x80 mesh/core/libmesh_core_nrf52840_xxAA.a(scanner.c.obj)
 .comment       0x0000007f       0x80 mesh/core/libmesh_core_nrf52840_xxAA.a(internal_event.c.obj)
 .comment       0x0000007f       0x80 mesh/core/libmesh_core_nrf52840_xxAA.a(aes.c.obj)
 .comment       0x0000007f       0x80 mesh/core/libmesh_core_nrf52840_xxAA.a(msg_cache.c.obj)
 .comment       0x0000007f       0x80 mesh/core/libmesh_core_nrf52840_xxAA.a(transport.c.obj)
 .comment       0x0000007f       0x80 mesh/core/libmesh_core_nrf52840_xxAA.a(packet_buffer.c.obj)
 .comment       0x0000007f       0x80 mesh/core/libmesh_core_nrf52840_xxAA.a(flash_manager_defrag.c.obj)
 .comment       0x0000007f       0x80 mesh/core/libmesh_core_nrf52840_xxAA.a(fifo.c.obj)
 .comment       0x0000007f       0x80 mesh/core/libmesh_core_nrf52840_xxAA.a(packet_mgr.c.obj)
 .comment       0x0000007f       0x80 mesh/core/libmesh_core_nrf52840_xxAA.a(mesh_flash.c.obj)
 .comment       0x0000007f       0x80 mesh/core/libmesh_core_nrf52840_xxAA.a(queue.c.obj)
 .comment       0x0000007f       0x80 mesh/core/libmesh_core_nrf52840_xxAA.a(aes_cmac.c.obj)
 .comment       0x0000007f       0x80 mesh/core/libmesh_core_nrf52840_xxAA.a(msqueue.c.obj)
 .comment       0x0000007f       0x80 mesh/core/libmesh_core_nrf52840_xxAA.a(replay_cache.c.obj)
 .comment       0x0000007f       0x80 mesh/core/libmesh_core_nrf52840_xxAA.a(nrf_flash.c.obj)
 .comment       0x0000007f       0x80 external/rtt/librtt_nrf52840_xxAA.a(SEGGER_RTT.c.obj)
 .comment       0x0000007f       0x80 external/rtt/librtt_nrf52840_xxAA.a(SEGGER_RTT_printf.c.obj)
 .comment       0x0000007f       0x80 external/micro-ecc/libuECC_nrf52840_xxAA.a(uECC.c.obj)

.debug_info     0x00000000    0x74ec2
 .debug_info    0x00000000     0x1be2 examples/light_switch/server/CMakeFiles/light_switch_server_nrf52840_xxAA_s140_5.0.0-3.alpha.dir/src/main.c.obj
 .debug_info    0x00001be2     0x327b examples/light_switch/server/CMakeFiles/light_switch_server_nrf52840_xxAA_s140_5.0.0-3.alpha.dir/__/__/nrf_mesh_sdk.c.obj
 .debug_info    0x00004e5d     0x149b examples/light_switch/server/CMakeFiles/light_switch_server_nrf52840_xxAA_s140_5.0.0-3.alpha.dir/__/__/common/src/simple_hal.c.obj
 .debug_info    0x000062f8      0x94b examples/light_switch/server/CMakeFiles/light_switch_server_nrf52840_xxAA_s140_5.0.0-3.alpha.dir/__/__/nrf_mesh_weak.c.obj
 .debug_info    0x00006c43      0x91e examples/light_switch/server/CMakeFiles/light_switch_server_nrf52840_xxAA_s140_5.0.0-3.alpha.dir/__/__/__/models/simple_on_off/src/simple_on_off_server.c.obj
 .debug_info    0x00007561      0xe8a examples/light_switch/server/CMakeFiles/light_switch_server_nrf52840_xxAA_s140_5.0.0-3.alpha.dir/__/__/__/models/config/src/composition_data.c.obj
 .debug_info    0x000083eb     0x69af examples/light_switch/server/CMakeFiles/light_switch_server_nrf52840_xxAA_s140_5.0.0-3.alpha.dir/__/__/__/models/config/src/config_server.c.obj
 .debug_info    0x0000ed9a      0x14b examples/light_switch/server/CMakeFiles/light_switch_server_nrf52840_xxAA_s140_5.0.0-3.alpha.dir/__/__/__/models/config/src/packed_index_list.c.obj
 .debug_info    0x0000eee5     0x241a examples/light_switch/server/CMakeFiles/light_switch_server_nrf52840_xxAA_s140_5.0.0-3.alpha.dir/__/__/__/models/health/src/health_server.c.obj
 .debug_info    0x000112ff     0x112b examples/light_switch/server/CMakeFiles/light_switch_server_nrf52840_xxAA_s140_5.0.0-3.alpha.dir/__/__/__/mesh/access/src/access_publish.c.obj
 .debug_info    0x0001242a     0x4420 examples/light_switch/server/CMakeFiles/light_switch_server_nrf52840_xxAA_s140_5.0.0-3.alpha.dir/__/__/__/mesh/access/src/access.c.obj
 .debug_info    0x0001684a     0x153b examples/light_switch/server/CMakeFiles/light_switch_server_nrf52840_xxAA_s140_5.0.0-3.alpha.dir/__/__/__/mesh/access/src/access_reliable.c.obj
 .debug_info    0x00017d85     0x5f01 examples/light_switch/server/CMakeFiles/light_switch_server_nrf52840_xxAA_s140_5.0.0-3.alpha.dir/__/__/__/mesh/access/src/device_state_manager.c.obj
 .debug_info    0x0001dc86     0x26c7 examples/light_switch/server/CMakeFiles/light_switch_server_nrf52840_xxAA_s140_5.0.0-3.alpha.dir/__/__/__/mesh/prov/src/prov_provisionee.c.obj
 .debug_info    0x0002034d     0x1be9 examples/light_switch/server/CMakeFiles/light_switch_server_nrf52840_xxAA_s140_5.0.0-3.alpha.dir/__/__/__/mesh/prov/src/nrf_mesh_prov.c.obj
 .debug_info    0x00021f36     0x1588 examples/light_switch/server/CMakeFiles/light_switch_server_nrf52840_xxAA_s140_5.0.0-3.alpha.dir/__/__/__/mesh/prov/src/provisioning.c.obj
 .debug_info    0x000234be     0x19a2 examples/light_switch/server/CMakeFiles/light_switch_server_nrf52840_xxAA_s140_5.0.0-3.alpha.dir/__/__/__/mesh/prov/src/prov_beacon.c.obj
 .debug_info    0x00024e60     0x2029 examples/light_switch/server/CMakeFiles/light_switch_server_nrf52840_xxAA_s140_5.0.0-3.alpha.dir/__/__/__/mesh/prov/src/prov_utils.c.obj
 .debug_info    0x00026e89     0x3963 examples/light_switch/server/CMakeFiles/light_switch_server_nrf52840_xxAA_s140_5.0.0-3.alpha.dir/__/__/__/mesh/prov/src/prov_bearer_adv.c.obj
 .debug_info    0x0002a7ec     0x396d examples/light_switch/server/CMakeFiles/light_switch_server_nrf52840_xxAA_s140_5.0.0-3.alpha.dir/__/__/__/mesh/access/src/nrf_mesh_node_config.c.obj
 .debug_info    0x0002e159     0x12ef examples/light_switch/server/CMakeFiles/light_switch_server_nrf52840_xxAA_s140_5.0.0-3.alpha.dir/__/__/__/external/nRF5_SDK_14.2.0_17b948a/components/toolchain/system_nrf52840.c.obj
 .debug_info    0x0002f448      0xd04 mesh/core/libmesh_core_nrf52840_xxAA.a(nrf_mesh_configure.c.obj)
 .debug_info    0x0003014c     0x1509 mesh/core/libmesh_core_nrf52840_xxAA.a(event.c.obj)
 .debug_info    0x00031655     0x23d7 mesh/core/libmesh_core_nrf52840_xxAA.a(net_state.c.obj)
 .debug_info    0x00033a2c      0xa87 mesh/core/libmesh_core_nrf52840_xxAA.a(nrf_mesh_utils.c.obj)
 .debug_info    0x000344b3     0x34e6 mesh/core/libmesh_core_nrf52840_xxAA.a(nrf_mesh.c.obj)
 .debug_info    0x00037999      0x51d mesh/core/libmesh_core_nrf52840_xxAA.a(hal.c.obj)
 .debug_info    0x00037eb6     0x102a mesh/core/libmesh_core_nrf52840_xxAA.a(timer_scheduler.c.obj)
 .debug_info    0x00038ee0      0xd9d mesh/core/libmesh_core_nrf52840_xxAA.a(timer.c.obj)
 .debug_info    0x00039c7d      0x20b mesh/core/libmesh_core_nrf52840_xxAA.a(ticker.c.obj)
 .debug_info    0x00039e88      0x40f mesh/core/libmesh_core_nrf52840_xxAA.a(rand.c.obj)
 .debug_info    0x0003a297      0xb1c mesh/core/libmesh_core_nrf52840_xxAA.a(nrf_mesh_opt.c.obj)
 .debug_info    0x0003adb3     0x1a2c mesh/core/libmesh_core_nrf52840_xxAA.a(timeslot.c.obj)
 .debug_info    0x0003c7df     0x19fb mesh/core/libmesh_core_nrf52840_xxAA.a(bearer_event.c.obj)
 .debug_info    0x0003e1da     0x164f mesh/core/libmesh_core_nrf52840_xxAA.a(enc.c.obj)
 .debug_info    0x0003f829     0x2aee mesh/core/libmesh_core_nrf52840_xxAA.a(network.c.obj)
 .debug_info    0x00042317      0x4c8 mesh/core/libmesh_core_nrf52840_xxAA.a(nrf_mesh_keygen.c.obj)
 .debug_info    0x000427df      0x48b mesh/core/libmesh_core_nrf52840_xxAA.a(list.c.obj)
 .debug_info    0x00042c6a      0xe28 mesh/core/libmesh_core_nrf52840_xxAA.a(log.c.obj)
 .debug_info    0x00043a92     0x320c mesh/core/libmesh_core_nrf52840_xxAA.a(flash_manager.c.obj)
 .debug_info    0x00046c9e     0x10a3 mesh/core/libmesh_core_nrf52840_xxAA.a(ccm_soft.c.obj)
 .debug_info    0x00047d41     0x193b mesh/core/libmesh_core_nrf52840_xxAA.a(beacon.c.obj)
 .debug_info    0x0004967c      0xb99 mesh/core/libmesh_core_nrf52840_xxAA.a(flash_manager_internal.c.obj)
 .debug_info    0x0004a215      0xfb3 mesh/core/libmesh_core_nrf52840_xxAA.a(core_tx.c.obj)
 .debug_info    0x0004b1c8     0x219a mesh/core/libmesh_core_nrf52840_xxAA.a(heartbeat.c.obj)
 .debug_info    0x0004d362     0x1511 mesh/core/libmesh_core_nrf52840_xxAA.a(net_beacon.c.obj)
 .debug_info    0x0004e873     0x160b mesh/core/libmesh_core_nrf52840_xxAA.a(core_tx_adv.c.obj)
 .debug_info    0x0004fe7e     0x1118 mesh/core/libmesh_core_nrf52840_xxAA.a(ad_listener.c.obj)
 .debug_info    0x00050f96      0xfcd mesh/core/libmesh_core_nrf52840_xxAA.a(ad_type_filter.c.obj)
 .debug_info    0x00051f63     0x2448 mesh/core/libmesh_core_nrf52840_xxAA.a(advertiser.c.obj)
 .debug_info    0x000543ab     0x1a6d mesh/core/libmesh_core_nrf52840_xxAA.a(bearer_handler.c.obj)
 .debug_info    0x00055e18     0x1ab4 mesh/core/libmesh_core_nrf52840_xxAA.a(broadcast.c.obj)
 .debug_info    0x000578cc      0xcf4 mesh/core/libmesh_core_nrf52840_xxAA.a(filter_engine.c.obj)
 .debug_info    0x000585c0      0x9c2 mesh/core/libmesh_core_nrf52840_xxAA.a(radio_config.c.obj)
 .debug_info    0x00058f82     0x271f mesh/core/libmesh_core_nrf52840_xxAA.a(scanner.c.obj)
 .debug_info    0x0005b6a1      0xc4e mesh/core/libmesh_core_nrf52840_xxAA.a(internal_event.c.obj)
 .debug_info    0x0005c2ef      0xbcc mesh/core/libmesh_core_nrf52840_xxAA.a(aes.c.obj)
 .debug_info    0x0005cebb      0xa81 mesh/core/libmesh_core_nrf52840_xxAA.a(msg_cache.c.obj)
 .debug_info    0x0005d93c     0x54fa mesh/core/libmesh_core_nrf52840_xxAA.a(transport.c.obj)
 .debug_info    0x00062e36     0x1d81 mesh/core/libmesh_core_nrf52840_xxAA.a(packet_buffer.c.obj)
 .debug_info    0x00064bb7     0x23a1 mesh/core/libmesh_core_nrf52840_xxAA.a(flash_manager_defrag.c.obj)
 .debug_info    0x00066f58      0xd0e mesh/core/libmesh_core_nrf52840_xxAA.a(fifo.c.obj)
 .debug_info    0x00067c66     0x115b mesh/core/libmesh_core_nrf52840_xxAA.a(packet_mgr.c.obj)
 .debug_info    0x00068dc1     0x1887 mesh/core/libmesh_core_nrf52840_xxAA.a(mesh_flash.c.obj)
 .debug_info    0x0006a648      0xaf2 mesh/core/libmesh_core_nrf52840_xxAA.a(queue.c.obj)
 .debug_info    0x0006b13a      0xe48 mesh/core/libmesh_core_nrf52840_xxAA.a(aes_cmac.c.obj)
 .debug_info    0x0006bf82      0xd08 mesh/core/libmesh_core_nrf52840_xxAA.a(msqueue.c.obj)
 .debug_info    0x0006cc8a      0xaeb mesh/core/libmesh_core_nrf52840_xxAA.a(replay_cache.c.obj)
 .debug_info    0x0006d775      0xb63 mesh/core/libmesh_core_nrf52840_xxAA.a(nrf_flash.c.obj)
 .debug_info    0x0006e2d8     0x1818 external/rtt/librtt_nrf52840_xxAA.a(SEGGER_RTT.c.obj)
 .debug_info    0x0006faf0      0xec1 external/rtt/librtt_nrf52840_xxAA.a(SEGGER_RTT_printf.c.obj)
 .debug_info    0x000709b1     0x4511 external/micro-ecc/libuECC_nrf52840_xxAA.a(uECC.c.obj)

.debug_abbrev   0x00000000     0xfbfb
 .debug_abbrev  0x00000000      0x320 examples/light_switch/server/CMakeFiles/light_switch_server_nrf52840_xxAA_s140_5.0.0-3.alpha.dir/src/main.c.obj
 .debug_abbrev  0x00000320      0x486 examples/light_switch/server/CMakeFiles/light_switch_server_nrf52840_xxAA_s140_5.0.0-3.alpha.dir/__/__/nrf_mesh_sdk.c.obj
 .debug_abbrev  0x000007a6      0x364 examples/light_switch/server/CMakeFiles/light_switch_server_nrf52840_xxAA_s140_5.0.0-3.alpha.dir/__/__/common/src/simple_hal.c.obj
 .debug_abbrev  0x00000b0a      0x1ae examples/light_switch/server/CMakeFiles/light_switch_server_nrf52840_xxAA_s140_5.0.0-3.alpha.dir/__/__/nrf_mesh_weak.c.obj
 .debug_abbrev  0x00000cb8      0x254 examples/light_switch/server/CMakeFiles/light_switch_server_nrf52840_xxAA_s140_5.0.0-3.alpha.dir/__/__/__/models/simple_on_off/src/simple_on_off_server.c.obj
 .debug_abbrev  0x00000f0c      0x2b6 examples/light_switch/server/CMakeFiles/light_switch_server_nrf52840_xxAA_s140_5.0.0-3.alpha.dir/__/__/__/models/config/src/composition_data.c.obj
 .debug_abbrev  0x000011c2      0x57f examples/light_switch/server/CMakeFiles/light_switch_server_nrf52840_xxAA_s140_5.0.0-3.alpha.dir/__/__/__/models/config/src/config_server.c.obj
 .debug_abbrev  0x00001741       0xaf examples/light_switch/server/CMakeFiles/light_switch_server_nrf52840_xxAA_s140_5.0.0-3.alpha.dir/__/__/__/models/config/src/packed_index_list.c.obj
 .debug_abbrev  0x000017f0      0x4f1 examples/light_switch/server/CMakeFiles/light_switch_server_nrf52840_xxAA_s140_5.0.0-3.alpha.dir/__/__/__/models/health/src/health_server.c.obj
 .debug_abbrev  0x00001ce1      0x460 examples/light_switch/server/CMakeFiles/light_switch_server_nrf52840_xxAA_s140_5.0.0-3.alpha.dir/__/__/__/mesh/access/src/access_publish.c.obj
 .debug_abbrev  0x00002141      0x67f examples/light_switch/server/CMakeFiles/light_switch_server_nrf52840_xxAA_s140_5.0.0-3.alpha.dir/__/__/__/mesh/access/src/access.c.obj
 .debug_abbrev  0x000027c0      0x433 examples/light_switch/server/CMakeFiles/light_switch_server_nrf52840_xxAA_s140_5.0.0-3.alpha.dir/__/__/__/mesh/access/src/access_reliable.c.obj
 .debug_abbrev  0x00002bf3      0x647 examples/light_switch/server/CMakeFiles/light_switch_server_nrf52840_xxAA_s140_5.0.0-3.alpha.dir/__/__/__/mesh/access/src/device_state_manager.c.obj
 .debug_abbrev  0x0000323a      0x476 examples/light_switch/server/CMakeFiles/light_switch_server_nrf52840_xxAA_s140_5.0.0-3.alpha.dir/__/__/__/mesh/prov/src/prov_provisionee.c.obj
 .debug_abbrev  0x000036b0      0x335 examples/light_switch/server/CMakeFiles/light_switch_server_nrf52840_xxAA_s140_5.0.0-3.alpha.dir/__/__/__/mesh/prov/src/nrf_mesh_prov.c.obj
 .debug_abbrev  0x000039e5      0x29c examples/light_switch/server/CMakeFiles/light_switch_server_nrf52840_xxAA_s140_5.0.0-3.alpha.dir/__/__/__/mesh/prov/src/provisioning.c.obj
 .debug_abbrev  0x00003c81      0x2c8 examples/light_switch/server/CMakeFiles/light_switch_server_nrf52840_xxAA_s140_5.0.0-3.alpha.dir/__/__/__/mesh/prov/src/prov_beacon.c.obj
 .debug_abbrev  0x00003f49      0x3d4 examples/light_switch/server/CMakeFiles/light_switch_server_nrf52840_xxAA_s140_5.0.0-3.alpha.dir/__/__/__/mesh/prov/src/prov_utils.c.obj
 .debug_abbrev  0x0000431d      0x50e examples/light_switch/server/CMakeFiles/light_switch_server_nrf52840_xxAA_s140_5.0.0-3.alpha.dir/__/__/__/mesh/prov/src/prov_bearer_adv.c.obj
 .debug_abbrev  0x0000482b      0x587 examples/light_switch/server/CMakeFiles/light_switch_server_nrf52840_xxAA_s140_5.0.0-3.alpha.dir/__/__/__/mesh/access/src/nrf_mesh_node_config.c.obj
 .debug_abbrev  0x00004db2      0x1e2 examples/light_switch/server/CMakeFiles/light_switch_server_nrf52840_xxAA_s140_5.0.0-3.alpha.dir/__/__/__/external/nRF5_SDK_14.2.0_17b948a/components/toolchain/system_nrf52840.c.obj
 .debug_abbrev  0x00004f94      0x24b mesh/core/libmesh_core_nrf52840_xxAA.a(nrf_mesh_configure.c.obj)
 .debug_abbrev  0x000051df      0x2a2 mesh/core/libmesh_core_nrf52840_xxAA.a(event.c.obj)
 .debug_abbrev  0x00005481      0x55b mesh/core/libmesh_core_nrf52840_xxAA.a(net_state.c.obj)
 .debug_abbrev  0x000059dc      0x25a mesh/core/libmesh_core_nrf52840_xxAA.a(nrf_mesh_utils.c.obj)
 .debug_abbrev  0x00005c36      0x467 mesh/core/libmesh_core_nrf52840_xxAA.a(nrf_mesh.c.obj)
 .debug_abbrev  0x0000609d      0x1e8 mesh/core/libmesh_core_nrf52840_xxAA.a(hal.c.obj)
 .debug_abbrev  0x00006285      0x3bf mesh/core/libmesh_core_nrf52840_xxAA.a(timer_scheduler.c.obj)
 .debug_abbrev  0x00006644      0x346 mesh/core/libmesh_core_nrf52840_xxAA.a(timer.c.obj)
 .debug_abbrev  0x0000698a      0x152 mesh/core/libmesh_core_nrf52840_xxAA.a(ticker.c.obj)
 .debug_abbrev  0x00006adc      0x1d2 mesh/core/libmesh_core_nrf52840_xxAA.a(rand.c.obj)
 .debug_abbrev  0x00006cae      0x24a mesh/core/libmesh_core_nrf52840_xxAA.a(nrf_mesh_opt.c.obj)
 .debug_abbrev  0x00006ef8      0x4db mesh/core/libmesh_core_nrf52840_xxAA.a(timeslot.c.obj)
 .debug_abbrev  0x000073d3      0x4b3 mesh/core/libmesh_core_nrf52840_xxAA.a(bearer_event.c.obj)
 .debug_abbrev  0x00007886      0x37e mesh/core/libmesh_core_nrf52840_xxAA.a(enc.c.obj)
 .debug_abbrev  0x00007c04      0x52c mesh/core/libmesh_core_nrf52840_xxAA.a(network.c.obj)
 .debug_abbrev  0x00008130      0x163 mesh/core/libmesh_core_nrf52840_xxAA.a(nrf_mesh_keygen.c.obj)
 .debug_abbrev  0x00008293      0x18e mesh/core/libmesh_core_nrf52840_xxAA.a(list.c.obj)
 .debug_abbrev  0x00008421      0x24e mesh/core/libmesh_core_nrf52840_xxAA.a(log.c.obj)
 .debug_abbrev  0x0000866f      0x5c2 mesh/core/libmesh_core_nrf52840_xxAA.a(flash_manager.c.obj)
 .debug_abbrev  0x00008c31      0x2b3 mesh/core/libmesh_core_nrf52840_xxAA.a(ccm_soft.c.obj)
 .debug_abbrev  0x00008ee4      0x38c mesh/core/libmesh_core_nrf52840_xxAA.a(beacon.c.obj)
 .debug_abbrev  0x00009270      0x28a mesh/core/libmesh_core_nrf52840_xxAA.a(flash_manager_internal.c.obj)
 .debug_abbrev  0x000094fa      0x32c mesh/core/libmesh_core_nrf52840_xxAA.a(core_tx.c.obj)
 .debug_abbrev  0x00009826      0x4c9 mesh/core/libmesh_core_nrf52840_xxAA.a(heartbeat.c.obj)
 .debug_abbrev  0x00009cef      0x3cc mesh/core/libmesh_core_nrf52840_xxAA.a(net_beacon.c.obj)
 .debug_abbrev  0x0000a0bb      0x32c mesh/core/libmesh_core_nrf52840_xxAA.a(core_tx_adv.c.obj)
 .debug_abbrev  0x0000a3e7      0x341 mesh/core/libmesh_core_nrf52840_xxAA.a(ad_listener.c.obj)
 .debug_abbrev  0x0000a728      0x377 mesh/core/libmesh_core_nrf52840_xxAA.a(ad_type_filter.c.obj)
 .debug_abbrev  0x0000aa9f      0x4fe mesh/core/libmesh_core_nrf52840_xxAA.a(advertiser.c.obj)
 .debug_abbrev  0x0000af9d      0x40d mesh/core/libmesh_core_nrf52840_xxAA.a(bearer_handler.c.obj)
 .debug_abbrev  0x0000b3aa      0x3b4 mesh/core/libmesh_core_nrf52840_xxAA.a(broadcast.c.obj)
 .debug_abbrev  0x0000b75e      0x299 mesh/core/libmesh_core_nrf52840_xxAA.a(filter_engine.c.obj)
 .debug_abbrev  0x0000b9f7      0x1d9 mesh/core/libmesh_core_nrf52840_xxAA.a(radio_config.c.obj)
 .debug_abbrev  0x0000bbd0      0x582 mesh/core/libmesh_core_nrf52840_xxAA.a(scanner.c.obj)
 .debug_abbrev  0x0000c152      0x26d mesh/core/libmesh_core_nrf52840_xxAA.a(internal_event.c.obj)
 .debug_abbrev  0x0000c3bf      0x264 mesh/core/libmesh_core_nrf52840_xxAA.a(aes.c.obj)
 .debug_abbrev  0x0000c623      0x25d mesh/core/libmesh_core_nrf52840_xxAA.a(msg_cache.c.obj)
 .debug_abbrev  0x0000c880      0x629 mesh/core/libmesh_core_nrf52840_xxAA.a(transport.c.obj)
 .debug_abbrev  0x0000cea9      0x49a mesh/core/libmesh_core_nrf52840_xxAA.a(packet_buffer.c.obj)
 .debug_abbrev  0x0000d343      0x558 mesh/core/libmesh_core_nrf52840_xxAA.a(flash_manager_defrag.c.obj)
 .debug_abbrev  0x0000d89b      0x301 mesh/core/libmesh_core_nrf52840_xxAA.a(fifo.c.obj)
 .debug_abbrev  0x0000db9c      0x3d1 mesh/core/libmesh_core_nrf52840_xxAA.a(packet_mgr.c.obj)
 .debug_abbrev  0x0000df6d      0x478 mesh/core/libmesh_core_nrf52840_xxAA.a(mesh_flash.c.obj)
 .debug_abbrev  0x0000e3e5      0x227 mesh/core/libmesh_core_nrf52840_xxAA.a(queue.c.obj)
 .debug_abbrev  0x0000e60c      0x332 mesh/core/libmesh_core_nrf52840_xxAA.a(aes_cmac.c.obj)
 .debug_abbrev  0x0000e93e      0x29c mesh/core/libmesh_core_nrf52840_xxAA.a(msqueue.c.obj)
 .debug_abbrev  0x0000ebda      0x277 mesh/core/libmesh_core_nrf52840_xxAA.a(replay_cache.c.obj)
 .debug_abbrev  0x0000ee51      0x21f mesh/core/libmesh_core_nrf52840_xxAA.a(nrf_flash.c.obj)
 .debug_abbrev  0x0000f070      0x3a9 external/rtt/librtt_nrf52840_xxAA.a(SEGGER_RTT.c.obj)
 .debug_abbrev  0x0000f419      0x32e external/rtt/librtt_nrf52840_xxAA.a(SEGGER_RTT_printf.c.obj)
 .debug_abbrev  0x0000f747      0x4b4 external/micro-ecc/libuECC_nrf52840_xxAA.a(uECC.c.obj)

.debug_loc      0x00000000    0x240c8
 .debug_loc     0x00000000       0xde examples/light_switch/server/CMakeFiles/light_switch_server_nrf52840_xxAA_s140_5.0.0-3.alpha.dir/src/main.c.obj
 .debug_loc     0x000000de      0x30c examples/light_switch/server/CMakeFiles/light_switch_server_nrf52840_xxAA_s140_5.0.0-3.alpha.dir/__/__/nrf_mesh_sdk.c.obj
 .debug_loc     0x000003ea      0x1ee examples/light_switch/server/CMakeFiles/light_switch_server_nrf52840_xxAA_s140_5.0.0-3.alpha.dir/__/__/common/src/simple_hal.c.obj
 .debug_loc     0x000005d8      0x3fe examples/light_switch/server/CMakeFiles/light_switch_server_nrf52840_xxAA_s140_5.0.0-3.alpha.dir/__/__/__/models/simple_on_off/src/simple_on_off_server.c.obj
 .debug_loc     0x000009d6      0x322 examples/light_switch/server/CMakeFiles/light_switch_server_nrf52840_xxAA_s140_5.0.0-3.alpha.dir/__/__/__/models/config/src/composition_data.c.obj
 .debug_loc     0x00000cf8     0x31cc examples/light_switch/server/CMakeFiles/light_switch_server_nrf52840_xxAA_s140_5.0.0-3.alpha.dir/__/__/__/models/config/src/config_server.c.obj
 .debug_loc     0x00003ec4       0xaa examples/light_switch/server/CMakeFiles/light_switch_server_nrf52840_xxAA_s140_5.0.0-3.alpha.dir/__/__/__/models/config/src/packed_index_list.c.obj
 .debug_loc     0x00003f6e     0x161b examples/light_switch/server/CMakeFiles/light_switch_server_nrf52840_xxAA_s140_5.0.0-3.alpha.dir/__/__/__/models/health/src/health_server.c.obj
 .debug_loc     0x00005589      0x577 examples/light_switch/server/CMakeFiles/light_switch_server_nrf52840_xxAA_s140_5.0.0-3.alpha.dir/__/__/__/mesh/access/src/access_publish.c.obj
 .debug_loc     0x00005b00     0x2251 examples/light_switch/server/CMakeFiles/light_switch_server_nrf52840_xxAA_s140_5.0.0-3.alpha.dir/__/__/__/mesh/access/src/access.c.obj
 .debug_loc     0x00007d51      0x7f6 examples/light_switch/server/CMakeFiles/light_switch_server_nrf52840_xxAA_s140_5.0.0-3.alpha.dir/__/__/__/mesh/access/src/access_reliable.c.obj
 .debug_loc     0x00008547     0x3b5e examples/light_switch/server/CMakeFiles/light_switch_server_nrf52840_xxAA_s140_5.0.0-3.alpha.dir/__/__/__/mesh/access/src/device_state_manager.c.obj
 .debug_loc     0x0000c0a5      0x6ad examples/light_switch/server/CMakeFiles/light_switch_server_nrf52840_xxAA_s140_5.0.0-3.alpha.dir/__/__/__/mesh/prov/src/prov_provisionee.c.obj
 .debug_loc     0x0000c752      0x7c0 examples/light_switch/server/CMakeFiles/light_switch_server_nrf52840_xxAA_s140_5.0.0-3.alpha.dir/__/__/__/mesh/prov/src/nrf_mesh_prov.c.obj
 .debug_loc     0x0000cf12      0x4e0 examples/light_switch/server/CMakeFiles/light_switch_server_nrf52840_xxAA_s140_5.0.0-3.alpha.dir/__/__/__/mesh/prov/src/provisioning.c.obj
 .debug_loc     0x0000d3f2      0x1cd examples/light_switch/server/CMakeFiles/light_switch_server_nrf52840_xxAA_s140_5.0.0-3.alpha.dir/__/__/__/mesh/prov/src/prov_beacon.c.obj
 .debug_loc     0x0000d5bf      0x42c examples/light_switch/server/CMakeFiles/light_switch_server_nrf52840_xxAA_s140_5.0.0-3.alpha.dir/__/__/__/mesh/prov/src/prov_utils.c.obj
 .debug_loc     0x0000d9eb     0x175a examples/light_switch/server/CMakeFiles/light_switch_server_nrf52840_xxAA_s140_5.0.0-3.alpha.dir/__/__/__/mesh/prov/src/prov_bearer_adv.c.obj
 .debug_loc     0x0000f145      0x443 examples/light_switch/server/CMakeFiles/light_switch_server_nrf52840_xxAA_s140_5.0.0-3.alpha.dir/__/__/__/mesh/access/src/nrf_mesh_node_config.c.obj
 .debug_loc     0x0000f588       0x2c mesh/core/libmesh_core_nrf52840_xxAA.a(nrf_mesh_configure.c.obj)
 .debug_loc     0x0000f5b4      0x136 mesh/core/libmesh_core_nrf52840_xxAA.a(event.c.obj)
 .debug_loc     0x0000f6ea      0x758 mesh/core/libmesh_core_nrf52840_xxAA.a(net_state.c.obj)
 .debug_loc     0x0000fe42      0x11c mesh/core/libmesh_core_nrf52840_xxAA.a(nrf_mesh_utils.c.obj)
 .debug_loc     0x0000ff5e      0x4d7 mesh/core/libmesh_core_nrf52840_xxAA.a(nrf_mesh.c.obj)
 .debug_loc     0x00010435       0x63 mesh/core/libmesh_core_nrf52840_xxAA.a(hal.c.obj)
 .debug_loc     0x00010498      0x3b9 mesh/core/libmesh_core_nrf52840_xxAA.a(timer_scheduler.c.obj)
 .debug_loc     0x00010851      0x60f mesh/core/libmesh_core_nrf52840_xxAA.a(timer.c.obj)
 .debug_loc     0x00010e60      0x190 mesh/core/libmesh_core_nrf52840_xxAA.a(rand.c.obj)
 .debug_loc     0x00010ff0      0x194 mesh/core/libmesh_core_nrf52840_xxAA.a(nrf_mesh_opt.c.obj)
 .debug_loc     0x00011184      0x370 mesh/core/libmesh_core_nrf52840_xxAA.a(timeslot.c.obj)
 .debug_loc     0x000114f4      0x647 mesh/core/libmesh_core_nrf52840_xxAA.a(bearer_event.c.obj)
 .debug_loc     0x00011b3b      0x960 mesh/core/libmesh_core_nrf52840_xxAA.a(enc.c.obj)
 .debug_loc     0x0001249b     0x10e7 mesh/core/libmesh_core_nrf52840_xxAA.a(network.c.obj)
 .debug_loc     0x00013582      0x1ee mesh/core/libmesh_core_nrf52840_xxAA.a(nrf_mesh_keygen.c.obj)
 .debug_loc     0x00013770      0x541 mesh/core/libmesh_core_nrf52840_xxAA.a(list.c.obj)
 .debug_loc     0x00013cb1      0x348 mesh/core/libmesh_core_nrf52840_xxAA.a(log.c.obj)
 .debug_loc     0x00013ff9     0x1784 mesh/core/libmesh_core_nrf52840_xxAA.a(flash_manager.c.obj)
 .debug_loc     0x0001577d      0x371 mesh/core/libmesh_core_nrf52840_xxAA.a(ccm_soft.c.obj)
 .debug_loc     0x00015aee      0x527 mesh/core/libmesh_core_nrf52840_xxAA.a(beacon.c.obj)
 .debug_loc     0x00016015      0x130 mesh/core/libmesh_core_nrf52840_xxAA.a(flash_manager_internal.c.obj)
 .debug_loc     0x00016145      0x639 mesh/core/libmesh_core_nrf52840_xxAA.a(core_tx.c.obj)
 .debug_loc     0x0001677e      0x644 mesh/core/libmesh_core_nrf52840_xxAA.a(heartbeat.c.obj)
 .debug_loc     0x00016dc2      0x3fe mesh/core/libmesh_core_nrf52840_xxAA.a(net_beacon.c.obj)
 .debug_loc     0x000171c0      0x3fa mesh/core/libmesh_core_nrf52840_xxAA.a(core_tx_adv.c.obj)
 .debug_loc     0x000175ba      0x42e mesh/core/libmesh_core_nrf52840_xxAA.a(ad_listener.c.obj)
 .debug_loc     0x000179e8      0x3b9 mesh/core/libmesh_core_nrf52840_xxAA.a(ad_type_filter.c.obj)
 .debug_loc     0x00017da1      0xedd mesh/core/libmesh_core_nrf52840_xxAA.a(advertiser.c.obj)
 .debug_loc     0x00018c7e      0x42d mesh/core/libmesh_core_nrf52840_xxAA.a(bearer_handler.c.obj)
 .debug_loc     0x000190ab      0x377 mesh/core/libmesh_core_nrf52840_xxAA.a(broadcast.c.obj)
 .debug_loc     0x00019422      0x115 mesh/core/libmesh_core_nrf52840_xxAA.a(filter_engine.c.obj)
 .debug_loc     0x00019537      0x28c mesh/core/libmesh_core_nrf52840_xxAA.a(radio_config.c.obj)
 .debug_loc     0x000197c3      0x4f6 mesh/core/libmesh_core_nrf52840_xxAA.a(scanner.c.obj)
 .debug_loc     0x00019cb9       0xc9 mesh/core/libmesh_core_nrf52840_xxAA.a(internal_event.c.obj)
 .debug_loc     0x00019d82       0x89 mesh/core/libmesh_core_nrf52840_xxAA.a(aes.c.obj)
 .debug_loc     0x00019e0b      0x10d mesh/core/libmesh_core_nrf52840_xxAA.a(msg_cache.c.obj)
 .debug_loc     0x00019f18     0x28ef mesh/core/libmesh_core_nrf52840_xxAA.a(transport.c.obj)
 .debug_loc     0x0001c807      0xf93 mesh/core/libmesh_core_nrf52840_xxAA.a(packet_buffer.c.obj)
 .debug_loc     0x0001d79a      0x8ee mesh/core/libmesh_core_nrf52840_xxAA.a(flash_manager_defrag.c.obj)
 .debug_loc     0x0001e088      0x517 mesh/core/libmesh_core_nrf52840_xxAA.a(fifo.c.obj)
 .debug_loc     0x0001e59f      0x6d7 mesh/core/libmesh_core_nrf52840_xxAA.a(packet_mgr.c.obj)
 .debug_loc     0x0001ec76      0xa35 mesh/core/libmesh_core_nrf52840_xxAA.a(mesh_flash.c.obj)
 .debug_loc     0x0001f6ab      0x186 mesh/core/libmesh_core_nrf52840_xxAA.a(queue.c.obj)
 .debug_loc     0x0001f831      0x3f8 mesh/core/libmesh_core_nrf52840_xxAA.a(aes_cmac.c.obj)
 .debug_loc     0x0001fc29      0x3e5 mesh/core/libmesh_core_nrf52840_xxAA.a(msqueue.c.obj)
 .debug_loc     0x0002000e      0x1c6 mesh/core/libmesh_core_nrf52840_xxAA.a(replay_cache.c.obj)
 .debug_loc     0x000201d4      0x17a mesh/core/libmesh_core_nrf52840_xxAA.a(nrf_flash.c.obj)
 .debug_loc     0x0002034e     0x1222 external/rtt/librtt_nrf52840_xxAA.a(SEGGER_RTT.c.obj)
 .debug_loc     0x00021570      0x70f external/rtt/librtt_nrf52840_xxAA.a(SEGGER_RTT_printf.c.obj)
 .debug_loc     0x00021c7f     0x2449 external/micro-ecc/libuECC_nrf52840_xxAA.a(uECC.c.obj)

.debug_aranges  0x00000000     0x21c0
 .debug_aranges
                0x00000000       0x48 examples/light_switch/server/CMakeFiles/light_switch_server_nrf52840_xxAA_s140_5.0.0-3.alpha.dir/src/main.c.obj
 .debug_aranges
                0x00000048       0x80 examples/light_switch/server/CMakeFiles/light_switch_server_nrf52840_xxAA_s140_5.0.0-3.alpha.dir/__/__/nrf_mesh_sdk.c.obj
 .debug_aranges
                0x000000c8       0x50 examples/light_switch/server/CMakeFiles/light_switch_server_nrf52840_xxAA_s140_5.0.0-3.alpha.dir/__/__/common/src/simple_hal.c.obj
 .debug_aranges
                0x00000118       0x28 examples/light_switch/server/CMakeFiles/light_switch_server_nrf52840_xxAA_s140_5.0.0-3.alpha.dir/__/__/nrf_mesh_weak.c.obj
 .debug_aranges
                0x00000140       0x38 examples/light_switch/server/CMakeFiles/light_switch_server_nrf52840_xxAA_s140_5.0.0-3.alpha.dir/__/__/__/models/simple_on_off/src/simple_on_off_server.c.obj
 .debug_aranges
                0x00000178       0x20 examples/light_switch/server/CMakeFiles/light_switch_server_nrf52840_xxAA_s140_5.0.0-3.alpha.dir/__/__/__/models/config/src/composition_data.c.obj
 .debug_aranges
                0x00000198      0x1e0 examples/light_switch/server/CMakeFiles/light_switch_server_nrf52840_xxAA_s140_5.0.0-3.alpha.dir/__/__/__/models/config/src/config_server.c.obj
 .debug_aranges
                0x00000378       0x28 examples/light_switch/server/CMakeFiles/light_switch_server_nrf52840_xxAA_s140_5.0.0-3.alpha.dir/__/__/__/models/config/src/packed_index_list.c.obj
 .debug_aranges
                0x000003a0       0xc8 examples/light_switch/server/CMakeFiles/light_switch_server_nrf52840_xxAA_s140_5.0.0-3.alpha.dir/__/__/__/models/health/src/health_server.c.obj
 .debug_aranges
                0x00000468       0x50 examples/light_switch/server/CMakeFiles/light_switch_server_nrf52840_xxAA_s140_5.0.0-3.alpha.dir/__/__/__/mesh/access/src/access_publish.c.obj
 .debug_aranges
                0x000004b8      0x1b0 examples/light_switch/server/CMakeFiles/light_switch_server_nrf52840_xxAA_s140_5.0.0-3.alpha.dir/__/__/__/mesh/access/src/access.c.obj
 .debug_aranges
                0x00000668       0x50 examples/light_switch/server/CMakeFiles/light_switch_server_nrf52840_xxAA_s140_5.0.0-3.alpha.dir/__/__/__/mesh/access/src/access_reliable.c.obj
 .debug_aranges
                0x000006b8      0x300 examples/light_switch/server/CMakeFiles/light_switch_server_nrf52840_xxAA_s140_5.0.0-3.alpha.dir/__/__/__/mesh/access/src/device_state_manager.c.obj
 .debug_aranges
                0x000009b8       0x70 examples/light_switch/server/CMakeFiles/light_switch_server_nrf52840_xxAA_s140_5.0.0-3.alpha.dir/__/__/__/mesh/prov/src/prov_provisionee.c.obj
 .debug_aranges
                0x00000a28       0x78 examples/light_switch/server/CMakeFiles/light_switch_server_nrf52840_xxAA_s140_5.0.0-3.alpha.dir/__/__/__/mesh/prov/src/nrf_mesh_prov.c.obj
 .debug_aranges
                0x00000aa0       0x80 examples/light_switch/server/CMakeFiles/light_switch_server_nrf52840_xxAA_s140_5.0.0-3.alpha.dir/__/__/__/mesh/prov/src/provisioning.c.obj
 .debug_aranges
                0x00000b20       0x38 examples/light_switch/server/CMakeFiles/light_switch_server_nrf52840_xxAA_s140_5.0.0-3.alpha.dir/__/__/__/mesh/prov/src/prov_beacon.c.obj
 .debug_aranges
                0x00000b58       0x70 examples/light_switch/server/CMakeFiles/light_switch_server_nrf52840_xxAA_s140_5.0.0-3.alpha.dir/__/__/__/mesh/prov/src/prov_utils.c.obj
 .debug_aranges
                0x00000bc8       0xc8 examples/light_switch/server/CMakeFiles/light_switch_server_nrf52840_xxAA_s140_5.0.0-3.alpha.dir/__/__/__/mesh/prov/src/prov_bearer_adv.c.obj
 .debug_aranges
                0x00000c90       0x70 examples/light_switch/server/CMakeFiles/light_switch_server_nrf52840_xxAA_s140_5.0.0-3.alpha.dir/__/__/__/mesh/access/src/nrf_mesh_node_config.c.obj
 .debug_aranges
                0x00000d00       0x30 examples/light_switch/server/CMakeFiles/light_switch_server_nrf52840_xxAA_s140_5.0.0-3.alpha.dir/__/__/__/external/nRF5_SDK_14.2.0_17b948a/components/toolchain/system_nrf52840.c.obj
 .debug_aranges
                0x00000d30       0x30 mesh/core/libmesh_core_nrf52840_xxAA.a(nrf_mesh_configure.c.obj)
 .debug_aranges
                0x00000d60       0x30 mesh/core/libmesh_core_nrf52840_xxAA.a(event.c.obj)
 .debug_aranges
                0x00000d90       0xc0 mesh/core/libmesh_core_nrf52840_xxAA.a(net_state.c.obj)
 .debug_aranges
                0x00000e50       0x30 mesh/core/libmesh_core_nrf52840_xxAA.a(nrf_mesh_utils.c.obj)
 .debug_aranges
                0x00000e80       0x88 mesh/core/libmesh_core_nrf52840_xxAA.a(nrf_mesh.c.obj)
 .debug_aranges
                0x00000f08       0x30 mesh/core/libmesh_core_nrf52840_xxAA.a(hal.c.obj)
 .debug_aranges
                0x00000f38       0x68 mesh/core/libmesh_core_nrf52840_xxAA.a(timer_scheduler.c.obj)
 .debug_aranges
                0x00000fa0       0x60 mesh/core/libmesh_core_nrf52840_xxAA.a(timer.c.obj)
 .debug_aranges
                0x00001000       0x30 mesh/core/libmesh_core_nrf52840_xxAA.a(ticker.c.obj)
 .debug_aranges
                0x00001030       0x40 mesh/core/libmesh_core_nrf52840_xxAA.a(rand.c.obj)
 .debug_aranges
                0x00001070       0x28 mesh/core/libmesh_core_nrf52840_xxAA.a(nrf_mesh_opt.c.obj)
 .debug_aranges
                0x00001098       0xb8 mesh/core/libmesh_core_nrf52840_xxAA.a(timeslot.c.obj)
 .debug_aranges
                0x00001150       0x98 mesh/core/libmesh_core_nrf52840_xxAA.a(bearer_event.c.obj)
 .debug_aranges
                0x000011e8       0x70 mesh/core/libmesh_core_nrf52840_xxAA.a(enc.c.obj)
 .debug_aranges
                0x00001258       0x60 mesh/core/libmesh_core_nrf52840_xxAA.a(network.c.obj)
 .debug_aranges
                0x000012b8       0x40 mesh/core/libmesh_core_nrf52840_xxAA.a(nrf_mesh_keygen.c.obj)
 .debug_aranges
                0x000012f8       0x48 mesh/core/libmesh_core_nrf52840_xxAA.a(list.c.obj)
 .debug_aranges
                0x00001340       0x48 mesh/core/libmesh_core_nrf52840_xxAA.a(log.c.obj)
 .debug_aranges
                0x00001388      0x100 mesh/core/libmesh_core_nrf52840_xxAA.a(flash_manager.c.obj)
 .debug_aranges
                0x00001488       0x50 mesh/core/libmesh_core_nrf52840_xxAA.a(ccm_soft.c.obj)
 .debug_aranges
                0x000014d8       0x38 mesh/core/libmesh_core_nrf52840_xxAA.a(beacon.c.obj)
 .debug_aranges
                0x00001510       0x20 mesh/core/libmesh_core_nrf52840_xxAA.a(flash_manager_internal.c.obj)
 .debug_aranges
                0x00001530       0x58 mesh/core/libmesh_core_nrf52840_xxAA.a(core_tx.c.obj)
 .debug_aranges
                0x00001588       0x70 mesh/core/libmesh_core_nrf52840_xxAA.a(heartbeat.c.obj)
 .debug_aranges
                0x000015f8       0x48 mesh/core/libmesh_core_nrf52840_xxAA.a(net_beacon.c.obj)
 .debug_aranges
                0x00001640       0x68 mesh/core/libmesh_core_nrf52840_xxAA.a(core_tx_adv.c.obj)
 .debug_aranges
                0x000016a8       0x30 mesh/core/libmesh_core_nrf52840_xxAA.a(ad_listener.c.obj)
 .debug_aranges
                0x000016d8       0x58 mesh/core/libmesh_core_nrf52840_xxAA.a(ad_type_filter.c.obj)
 .debug_aranges
                0x00001730       0xb0 mesh/core/libmesh_core_nrf52840_xxAA.a(advertiser.c.obj)
 .debug_aranges
                0x000017e0       0x70 mesh/core/libmesh_core_nrf52840_xxAA.a(bearer_handler.c.obj)
 .debug_aranges
                0x00001850       0x30 mesh/core/libmesh_core_nrf52840_xxAA.a(broadcast.c.obj)
 .debug_aranges
                0x00001880       0x38 mesh/core/libmesh_core_nrf52840_xxAA.a(filter_engine.c.obj)
 .debug_aranges
                0x000018b8       0x40 mesh/core/libmesh_core_nrf52840_xxAA.a(radio_config.c.obj)
 .debug_aranges
                0x000018f8       0xe0 mesh/core/libmesh_core_nrf52840_xxAA.a(scanner.c.obj)
 .debug_aranges
                0x000019d8       0x30 mesh/core/libmesh_core_nrf52840_xxAA.a(internal_event.c.obj)
 .debug_aranges
                0x00001a08       0x28 mesh/core/libmesh_core_nrf52840_xxAA.a(aes.c.obj)
 .debug_aranges
                0x00001a30       0x38 mesh/core/libmesh_core_nrf52840_xxAA.a(msg_cache.c.obj)
 .debug_aranges
                0x00001a68      0x120 mesh/core/libmesh_core_nrf52840_xxAA.a(transport.c.obj)
 .debug_aranges
                0x00001b88       0x80 mesh/core/libmesh_core_nrf52840_xxAA.a(packet_buffer.c.obj)
 .debug_aranges
                0x00001c08       0xc8 mesh/core/libmesh_core_nrf52840_xxAA.a(flash_manager_defrag.c.obj)
 .debug_aranges
                0x00001cd0       0x60 mesh/core/libmesh_core_nrf52840_xxAA.a(fifo.c.obj)
 .debug_aranges
                0x00001d30       0x48 mesh/core/libmesh_core_nrf52840_xxAA.a(packet_mgr.c.obj)
 .debug_aranges
                0x00001d78       0x60 mesh/core/libmesh_core_nrf52840_xxAA.a(mesh_flash.c.obj)
 .debug_aranges
                0x00001dd8       0x38 mesh/core/libmesh_core_nrf52840_xxAA.a(queue.c.obj)
 .debug_aranges
                0x00001e10       0x38 mesh/core/libmesh_core_nrf52840_xxAA.a(aes_cmac.c.obj)
 .debug_aranges
                0x00001e48       0x48 mesh/core/libmesh_core_nrf52840_xxAA.a(msqueue.c.obj)
 .debug_aranges
                0x00001e90       0x48 mesh/core/libmesh_core_nrf52840_xxAA.a(replay_cache.c.obj)
 .debug_aranges
                0x00001ed8       0x30 mesh/core/libmesh_core_nrf52840_xxAA.a(nrf_flash.c.obj)
 .debug_aranges
                0x00001f08       0xd8 external/rtt/librtt_nrf52840_xxAA.a(SEGGER_RTT.c.obj)
 .debug_aranges
                0x00001fe0       0x38 external/rtt/librtt_nrf52840_xxAA.a(SEGGER_RTT_printf.c.obj)
 .debug_aranges
                0x00002018      0x1a8 external/micro-ecc/libuECC_nrf52840_xxAA.a(uECC.c.obj)

.debug_ranges   0x00000000     0x8278
 .debug_ranges  0x00000000       0xb0 examples/light_switch/server/CMakeFiles/light_switch_server_nrf52840_xxAA_s140_5.0.0-3.alpha.dir/src/main.c.obj
 .debug_ranges  0x000000b0      0x1a8 examples/light_switch/server/CMakeFiles/light_switch_server_nrf52840_xxAA_s140_5.0.0-3.alpha.dir/__/__/nrf_mesh_sdk.c.obj
 .debug_ranges  0x00000258       0xc8 examples/light_switch/server/CMakeFiles/light_switch_server_nrf52840_xxAA_s140_5.0.0-3.alpha.dir/__/__/common/src/simple_hal.c.obj
 .debug_ranges  0x00000320       0x18 examples/light_switch/server/CMakeFiles/light_switch_server_nrf52840_xxAA_s140_5.0.0-3.alpha.dir/__/__/nrf_mesh_weak.c.obj
 .debug_ranges  0x00000338       0x88 examples/light_switch/server/CMakeFiles/light_switch_server_nrf52840_xxAA_s140_5.0.0-3.alpha.dir/__/__/__/models/simple_on_off/src/simple_on_off_server.c.obj
 .debug_ranges  0x000003c0      0x170 examples/light_switch/server/CMakeFiles/light_switch_server_nrf52840_xxAA_s140_5.0.0-3.alpha.dir/__/__/__/models/config/src/composition_data.c.obj
 .debug_ranges  0x00000530      0x710 examples/light_switch/server/CMakeFiles/light_switch_server_nrf52840_xxAA_s140_5.0.0-3.alpha.dir/__/__/__/models/config/src/config_server.c.obj
 .debug_ranges  0x00000c40       0x18 examples/light_switch/server/CMakeFiles/light_switch_server_nrf52840_xxAA_s140_5.0.0-3.alpha.dir/__/__/__/models/config/src/packed_index_list.c.obj
 .debug_ranges  0x00000c58      0x350 examples/light_switch/server/CMakeFiles/light_switch_server_nrf52840_xxAA_s140_5.0.0-3.alpha.dir/__/__/__/models/health/src/health_server.c.obj
 .debug_ranges  0x00000fa8      0x178 examples/light_switch/server/CMakeFiles/light_switch_server_nrf52840_xxAA_s140_5.0.0-3.alpha.dir/__/__/__/mesh/access/src/access_publish.c.obj
 .debug_ranges  0x00001120      0x7f8 examples/light_switch/server/CMakeFiles/light_switch_server_nrf52840_xxAA_s140_5.0.0-3.alpha.dir/__/__/__/mesh/access/src/access.c.obj
 .debug_ranges  0x00001918      0x260 examples/light_switch/server/CMakeFiles/light_switch_server_nrf52840_xxAA_s140_5.0.0-3.alpha.dir/__/__/__/mesh/access/src/access_reliable.c.obj
 .debug_ranges  0x00001b78      0xa88 examples/light_switch/server/CMakeFiles/light_switch_server_nrf52840_xxAA_s140_5.0.0-3.alpha.dir/__/__/__/mesh/access/src/device_state_manager.c.obj
 .debug_ranges  0x00002600      0x158 examples/light_switch/server/CMakeFiles/light_switch_server_nrf52840_xxAA_s140_5.0.0-3.alpha.dir/__/__/__/mesh/prov/src/prov_provisionee.c.obj
 .debug_ranges  0x00002758       0xb0 examples/light_switch/server/CMakeFiles/light_switch_server_nrf52840_xxAA_s140_5.0.0-3.alpha.dir/__/__/__/mesh/prov/src/nrf_mesh_prov.c.obj
 .debug_ranges  0x00002808       0xa0 examples/light_switch/server/CMakeFiles/light_switch_server_nrf52840_xxAA_s140_5.0.0-3.alpha.dir/__/__/__/mesh/prov/src/provisioning.c.obj
 .debug_ranges  0x000028a8       0x88 examples/light_switch/server/CMakeFiles/light_switch_server_nrf52840_xxAA_s140_5.0.0-3.alpha.dir/__/__/__/mesh/prov/src/prov_beacon.c.obj
 .debug_ranges  0x00002930       0xb8 examples/light_switch/server/CMakeFiles/light_switch_server_nrf52840_xxAA_s140_5.0.0-3.alpha.dir/__/__/__/mesh/prov/src/prov_utils.c.obj
 .debug_ranges  0x000029e8      0x6c8 examples/light_switch/server/CMakeFiles/light_switch_server_nrf52840_xxAA_s140_5.0.0-3.alpha.dir/__/__/__/mesh/prov/src/prov_bearer_adv.c.obj
 .debug_ranges  0x000030b0      0x1e0 examples/light_switch/server/CMakeFiles/light_switch_server_nrf52840_xxAA_s140_5.0.0-3.alpha.dir/__/__/__/mesh/access/src/nrf_mesh_node_config.c.obj
 .debug_ranges  0x00003290       0x20 examples/light_switch/server/CMakeFiles/light_switch_server_nrf52840_xxAA_s140_5.0.0-3.alpha.dir/__/__/__/external/nRF5_SDK_14.2.0_17b948a/components/toolchain/system_nrf52840.c.obj
 .debug_ranges  0x000032b0       0x20 mesh/core/libmesh_core_nrf52840_xxAA.a(nrf_mesh_configure.c.obj)
 .debug_ranges  0x000032d0       0x68 mesh/core/libmesh_core_nrf52840_xxAA.a(event.c.obj)
 .debug_ranges  0x00003338      0x248 mesh/core/libmesh_core_nrf52840_xxAA.a(net_state.c.obj)
 .debug_ranges  0x00003580       0x38 mesh/core/libmesh_core_nrf52840_xxAA.a(nrf_mesh_utils.c.obj)
 .debug_ranges  0x000035b8       0xf0 mesh/core/libmesh_core_nrf52840_xxAA.a(nrf_mesh.c.obj)
 .debug_ranges  0x000036a8       0x20 mesh/core/libmesh_core_nrf52840_xxAA.a(hal.c.obj)
 .debug_ranges  0x000036c8      0x260 mesh/core/libmesh_core_nrf52840_xxAA.a(timer_scheduler.c.obj)
 .debug_ranges  0x00003928      0x108 mesh/core/libmesh_core_nrf52840_xxAA.a(timer.c.obj)
 .debug_ranges  0x00003a30       0x20 mesh/core/libmesh_core_nrf52840_xxAA.a(ticker.c.obj)
 .debug_ranges  0x00003a50       0x48 mesh/core/libmesh_core_nrf52840_xxAA.a(rand.c.obj)
 .debug_ranges  0x00003a98       0x18 mesh/core/libmesh_core_nrf52840_xxAA.a(nrf_mesh_opt.c.obj)
 .debug_ranges  0x00003ab0      0x188 mesh/core/libmesh_core_nrf52840_xxAA.a(timeslot.c.obj)
 .debug_ranges  0x00003c38      0x250 mesh/core/libmesh_core_nrf52840_xxAA.a(bearer_event.c.obj)
 .debug_ranges  0x00003e88      0x120 mesh/core/libmesh_core_nrf52840_xxAA.a(enc.c.obj)
 .debug_ranges  0x00003fa8      0x518 mesh/core/libmesh_core_nrf52840_xxAA.a(network.c.obj)
 .debug_ranges  0x000044c0       0x30 mesh/core/libmesh_core_nrf52840_xxAA.a(nrf_mesh_keygen.c.obj)
 .debug_ranges  0x000044f0      0x1b0 mesh/core/libmesh_core_nrf52840_xxAA.a(list.c.obj)
 .debug_ranges  0x000046a0       0x38 mesh/core/libmesh_core_nrf52840_xxAA.a(log.c.obj)
 .debug_ranges  0x000046d8      0x748 mesh/core/libmesh_core_nrf52840_xxAA.a(flash_manager.c.obj)
 .debug_ranges  0x00004e20       0x40 mesh/core/libmesh_core_nrf52840_xxAA.a(ccm_soft.c.obj)
 .debug_ranges  0x00004e60       0xd0 mesh/core/libmesh_core_nrf52840_xxAA.a(beacon.c.obj)
 .debug_ranges  0x00004f30       0x68 mesh/core/libmesh_core_nrf52840_xxAA.a(flash_manager_internal.c.obj)
 .debug_ranges  0x00004f98      0x270 mesh/core/libmesh_core_nrf52840_xxAA.a(core_tx.c.obj)
 .debug_ranges  0x00005208      0x240 mesh/core/libmesh_core_nrf52840_xxAA.a(heartbeat.c.obj)
 .debug_ranges  0x00005448       0xf0 mesh/core/libmesh_core_nrf52840_xxAA.a(net_beacon.c.obj)
 .debug_ranges  0x00005538       0xe8 mesh/core/libmesh_core_nrf52840_xxAA.a(core_tx_adv.c.obj)
 .debug_ranges  0x00005620       0xf8 mesh/core/libmesh_core_nrf52840_xxAA.a(ad_listener.c.obj)
 .debug_ranges  0x00005718       0xe8 mesh/core/libmesh_core_nrf52840_xxAA.a(ad_type_filter.c.obj)
 .debug_ranges  0x00005800      0x4a8 mesh/core/libmesh_core_nrf52840_xxAA.a(advertiser.c.obj)
 .debug_ranges  0x00005ca8      0x290 mesh/core/libmesh_core_nrf52840_xxAA.a(bearer_handler.c.obj)
 .debug_ranges  0x00005f38      0x130 mesh/core/libmesh_core_nrf52840_xxAA.a(broadcast.c.obj)
 .debug_ranges  0x00006068       0x90 mesh/core/libmesh_core_nrf52840_xxAA.a(filter_engine.c.obj)
 .debug_ranges  0x000060f8      0x100 mesh/core/libmesh_core_nrf52840_xxAA.a(radio_config.c.obj)
 .debug_ranges  0x000061f8      0x2c0 mesh/core/libmesh_core_nrf52840_xxAA.a(scanner.c.obj)
 .debug_ranges  0x000064b8       0x20 mesh/core/libmesh_core_nrf52840_xxAA.a(internal_event.c.obj)
 .debug_ranges  0x000064d8       0x18 mesh/core/libmesh_core_nrf52840_xxAA.a(aes.c.obj)
 .debug_ranges  0x000064f0       0x48 mesh/core/libmesh_core_nrf52840_xxAA.a(msg_cache.c.obj)
 .debug_ranges  0x00006538      0x918 mesh/core/libmesh_core_nrf52840_xxAA.a(transport.c.obj)
 .debug_ranges  0x00006e50      0x3b8 mesh/core/libmesh_core_nrf52840_xxAA.a(packet_buffer.c.obj)
 .debug_ranges  0x00007208      0x368 mesh/core/libmesh_core_nrf52840_xxAA.a(flash_manager_defrag.c.obj)
 .debug_ranges  0x00007570       0xb0 mesh/core/libmesh_core_nrf52840_xxAA.a(fifo.c.obj)
 .debug_ranges  0x00007620      0x160 mesh/core/libmesh_core_nrf52840_xxAA.a(packet_mgr.c.obj)
 .debug_ranges  0x00007780      0x368 mesh/core/libmesh_core_nrf52840_xxAA.a(mesh_flash.c.obj)
 .debug_ranges  0x00007ae8       0xa0 mesh/core/libmesh_core_nrf52840_xxAA.a(queue.c.obj)
 .debug_ranges  0x00007b88       0x98 mesh/core/libmesh_core_nrf52840_xxAA.a(aes_cmac.c.obj)
 .debug_ranges  0x00007c20      0x158 mesh/core/libmesh_core_nrf52840_xxAA.a(msqueue.c.obj)
 .debug_ranges  0x00007d78       0x68 mesh/core/libmesh_core_nrf52840_xxAA.a(replay_cache.c.obj)
 .debug_ranges  0x00007de0       0x38 mesh/core/libmesh_core_nrf52840_xxAA.a(nrf_flash.c.obj)
 .debug_ranges  0x00007e18      0x130 external/rtt/librtt_nrf52840_xxAA.a(SEGGER_RTT.c.obj)
 .debug_ranges  0x00007f48       0x48 external/rtt/librtt_nrf52840_xxAA.a(SEGGER_RTT_printf.c.obj)
 .debug_ranges  0x00007f90      0x2e8 external/micro-ecc/libuECC_nrf52840_xxAA.a(uECC.c.obj)

.debug_line     0x00000000    0x17b0e
 .debug_line    0x00000000      0x661 examples/light_switch/server/CMakeFiles/light_switch_server_nrf52840_xxAA_s140_5.0.0-3.alpha.dir/src/main.c.obj
 .debug_line    0x00000661      0x788 examples/light_switch/server/CMakeFiles/light_switch_server_nrf52840_xxAA_s140_5.0.0-3.alpha.dir/__/__/nrf_mesh_sdk.c.obj
 .debug_line    0x00000de9      0x421 examples/light_switch/server/CMakeFiles/light_switch_server_nrf52840_xxAA_s140_5.0.0-3.alpha.dir/__/__/common/src/simple_hal.c.obj
 .debug_line    0x0000120a      0x228 examples/light_switch/server/CMakeFiles/light_switch_server_nrf52840_xxAA_s140_5.0.0-3.alpha.dir/__/__/nrf_mesh_weak.c.obj
 .debug_line    0x00001432      0x30c examples/light_switch/server/CMakeFiles/light_switch_server_nrf52840_xxAA_s140_5.0.0-3.alpha.dir/__/__/__/models/simple_on_off/src/simple_on_off_server.c.obj
 .debug_line    0x0000173e      0x361 examples/light_switch/server/CMakeFiles/light_switch_server_nrf52840_xxAA_s140_5.0.0-3.alpha.dir/__/__/__/models/config/src/composition_data.c.obj
 .debug_line    0x00001a9f     0x10cd examples/light_switch/server/CMakeFiles/light_switch_server_nrf52840_xxAA_s140_5.0.0-3.alpha.dir/__/__/__/models/config/src/config_server.c.obj
 .debug_line    0x00002b6c       0xff examples/light_switch/server/CMakeFiles/light_switch_server_nrf52840_xxAA_s140_5.0.0-3.alpha.dir/__/__/__/models/config/src/packed_index_list.c.obj
 .debug_line    0x00002c6b      0x684 examples/light_switch/server/CMakeFiles/light_switch_server_nrf52840_xxAA_s140_5.0.0-3.alpha.dir/__/__/__/models/health/src/health_server.c.obj
 .debug_line    0x000032ef      0x44c examples/light_switch/server/CMakeFiles/light_switch_server_nrf52840_xxAA_s140_5.0.0-3.alpha.dir/__/__/__/mesh/access/src/access_publish.c.obj
 .debug_line    0x0000373b      0xe5c examples/light_switch/server/CMakeFiles/light_switch_server_nrf52840_xxAA_s140_5.0.0-3.alpha.dir/__/__/__/mesh/access/src/access.c.obj
 .debug_line    0x00004597      0x510 examples/light_switch/server/CMakeFiles/light_switch_server_nrf52840_xxAA_s140_5.0.0-3.alpha.dir/__/__/__/mesh/access/src/access_reliable.c.obj
 .debug_line    0x00004aa7     0x1453 examples/light_switch/server/CMakeFiles/light_switch_server_nrf52840_xxAA_s140_5.0.0-3.alpha.dir/__/__/__/mesh/access/src/device_state_manager.c.obj
 .debug_line    0x00005efa      0x64d examples/light_switch/server/CMakeFiles/light_switch_server_nrf52840_xxAA_s140_5.0.0-3.alpha.dir/__/__/__/mesh/prov/src/prov_provisionee.c.obj
 .debug_line    0x00006547      0x4f9 examples/light_switch/server/CMakeFiles/light_switch_server_nrf52840_xxAA_s140_5.0.0-3.alpha.dir/__/__/__/mesh/prov/src/nrf_mesh_prov.c.obj
 .debug_line    0x00006a40      0x3e1 examples/light_switch/server/CMakeFiles/light_switch_server_nrf52840_xxAA_s140_5.0.0-3.alpha.dir/__/__/__/mesh/prov/src/provisioning.c.obj
 .debug_line    0x00006e21      0x4a3 examples/light_switch/server/CMakeFiles/light_switch_server_nrf52840_xxAA_s140_5.0.0-3.alpha.dir/__/__/__/mesh/prov/src/prov_beacon.c.obj
 .debug_line    0x000072c4      0x4b8 examples/light_switch/server/CMakeFiles/light_switch_server_nrf52840_xxAA_s140_5.0.0-3.alpha.dir/__/__/__/mesh/prov/src/prov_utils.c.obj
 .debug_line    0x0000777c      0xc3d examples/light_switch/server/CMakeFiles/light_switch_server_nrf52840_xxAA_s140_5.0.0-3.alpha.dir/__/__/__/mesh/prov/src/prov_bearer_adv.c.obj
 .debug_line    0x000083b9      0x857 examples/light_switch/server/CMakeFiles/light_switch_server_nrf52840_xxAA_s140_5.0.0-3.alpha.dir/__/__/__/mesh/access/src/nrf_mesh_node_config.c.obj
 .debug_line    0x00008c10      0x247 examples/light_switch/server/CMakeFiles/light_switch_server_nrf52840_xxAA_s140_5.0.0-3.alpha.dir/__/__/__/external/nRF5_SDK_14.2.0_17b948a/components/toolchain/system_nrf52840.c.obj
 .debug_line    0x00008e57      0x269 mesh/core/libmesh_core_nrf52840_xxAA.a(nrf_mesh_configure.c.obj)
 .debug_line    0x000090c0      0x321 mesh/core/libmesh_core_nrf52840_xxAA.a(event.c.obj)
 .debug_line    0x000093e1      0x6be mesh/core/libmesh_core_nrf52840_xxAA.a(net_state.c.obj)
 .debug_line    0x00009a9f      0x265 mesh/core/libmesh_core_nrf52840_xxAA.a(nrf_mesh_utils.c.obj)
 .debug_line    0x00009d04      0x7b1 mesh/core/libmesh_core_nrf52840_xxAA.a(nrf_mesh.c.obj)
 .debug_line    0x0000a4b5      0x253 mesh/core/libmesh_core_nrf52840_xxAA.a(hal.c.obj)
 .debug_line    0x0000a708      0x4a6 mesh/core/libmesh_core_nrf52840_xxAA.a(timer_scheduler.c.obj)
 .debug_line    0x0000abae      0x41b mesh/core/libmesh_core_nrf52840_xxAA.a(timer.c.obj)
 .debug_line    0x0000afc9      0x122 mesh/core/libmesh_core_nrf52840_xxAA.a(ticker.c.obj)
 .debug_line    0x0000b0eb      0x2a3 mesh/core/libmesh_core_nrf52840_xxAA.a(rand.c.obj)
 .debug_line    0x0000b38e      0x294 mesh/core/libmesh_core_nrf52840_xxAA.a(nrf_mesh_opt.c.obj)
 .debug_line    0x0000b622      0x5cf mesh/core/libmesh_core_nrf52840_xxAA.a(timeslot.c.obj)
 .debug_line    0x0000bbf1      0x60e mesh/core/libmesh_core_nrf52840_xxAA.a(bearer_event.c.obj)
 .debug_line    0x0000c1ff      0x45d mesh/core/libmesh_core_nrf52840_xxAA.a(enc.c.obj)
 .debug_line    0x0000c65c      0x84f mesh/core/libmesh_core_nrf52840_xxAA.a(network.c.obj)
 .debug_line    0x0000ceab      0x239 mesh/core/libmesh_core_nrf52840_xxAA.a(nrf_mesh_keygen.c.obj)
 .debug_line    0x0000d0e4      0x376 mesh/core/libmesh_core_nrf52840_xxAA.a(list.c.obj)
 .debug_line    0x0000d45a      0x287 mesh/core/libmesh_core_nrf52840_xxAA.a(log.c.obj)
 .debug_line    0x0000d6e1      0xaa0 mesh/core/libmesh_core_nrf52840_xxAA.a(flash_manager.c.obj)
 .debug_line    0x0000e181      0x34e mesh/core/libmesh_core_nrf52840_xxAA.a(ccm_soft.c.obj)
 .debug_line    0x0000e4cf      0x546 mesh/core/libmesh_core_nrf52840_xxAA.a(beacon.c.obj)
 .debug_line    0x0000ea15      0x29c mesh/core/libmesh_core_nrf52840_xxAA.a(flash_manager_internal.c.obj)
 .debug_line    0x0000ecb1      0x474 mesh/core/libmesh_core_nrf52840_xxAA.a(core_tx.c.obj)
 .debug_line    0x0000f125      0x632 mesh/core/libmesh_core_nrf52840_xxAA.a(heartbeat.c.obj)
 .debug_line    0x0000f757      0x441 mesh/core/libmesh_core_nrf52840_xxAA.a(net_beacon.c.obj)
 .debug_line    0x0000fb98      0x49f mesh/core/libmesh_core_nrf52840_xxAA.a(core_tx_adv.c.obj)
 .debug_line    0x00010037      0x368 mesh/core/libmesh_core_nrf52840_xxAA.a(ad_listener.c.obj)
 .debug_line    0x0001039f      0x419 mesh/core/libmesh_core_nrf52840_xxAA.a(ad_type_filter.c.obj)
 .debug_line    0x000107b8      0x835 mesh/core/libmesh_core_nrf52840_xxAA.a(advertiser.c.obj)
 .debug_line    0x00010fed      0x5c7 mesh/core/libmesh_core_nrf52840_xxAA.a(bearer_handler.c.obj)
 .debug_line    0x000115b4      0x3ce mesh/core/libmesh_core_nrf52840_xxAA.a(broadcast.c.obj)
 .debug_line    0x00011982      0x36c mesh/core/libmesh_core_nrf52840_xxAA.a(filter_engine.c.obj)
 .debug_line    0x00011cee      0x326 mesh/core/libmesh_core_nrf52840_xxAA.a(radio_config.c.obj)
 .debug_line    0x00012014      0x76a mesh/core/libmesh_core_nrf52840_xxAA.a(scanner.c.obj)
 .debug_line    0x0001277e      0x2a5 mesh/core/libmesh_core_nrf52840_xxAA.a(internal_event.c.obj)
 .debug_line    0x00012a23      0x26a mesh/core/libmesh_core_nrf52840_xxAA.a(aes.c.obj)
 .debug_line    0x00012c8d      0x29b mesh/core/libmesh_core_nrf52840_xxAA.a(msg_cache.c.obj)
 .debug_line    0x00012f28     0x1042 mesh/core/libmesh_core_nrf52840_xxAA.a(transport.c.obj)
 .debug_line    0x00013f6a      0x6f3 mesh/core/libmesh_core_nrf52840_xxAA.a(packet_buffer.c.obj)
 .debug_line    0x0001465d      0x7ed mesh/core/libmesh_core_nrf52840_xxAA.a(flash_manager_defrag.c.obj)
 .debug_line    0x00014e4a      0x3a9 mesh/core/libmesh_core_nrf52840_xxAA.a(fifo.c.obj)
 .debug_line    0x000151f3      0x45b mesh/core/libmesh_core_nrf52840_xxAA.a(packet_mgr.c.obj)
 .debug_line    0x0001564e      0x5ac mesh/core/libmesh_core_nrf52840_xxAA.a(mesh_flash.c.obj)
 .debug_line    0x00015bfa      0x2d5 mesh/core/libmesh_core_nrf52840_xxAA.a(queue.c.obj)
 .debug_line    0x00015ecf      0x2d7 mesh/core/libmesh_core_nrf52840_xxAA.a(aes_cmac.c.obj)
 .debug_line    0x000161a6      0x38b mesh/core/libmesh_core_nrf52840_xxAA.a(msqueue.c.obj)
 .debug_line    0x00016531      0x1f1 mesh/core/libmesh_core_nrf52840_xxAA.a(replay_cache.c.obj)
 .debug_line    0x00016722      0x2af mesh/core/libmesh_core_nrf52840_xxAA.a(nrf_flash.c.obj)
 .debug_line    0x000169d1      0x4c0 external/rtt/librtt_nrf52840_xxAA.a(SEGGER_RTT.c.obj)
 .debug_line    0x00016e91      0x282 external/rtt/librtt_nrf52840_xxAA.a(SEGGER_RTT_printf.c.obj)
 .debug_line    0x00017113      0x9fb external/micro-ecc/libuECC_nrf52840_xxAA.a(uECC.c.obj)

.debug_str      0x00000000    0x1366c
 .debug_str     0x00000000     0x1927 examples/light_switch/server/CMakeFiles/light_switch_server_nrf52840_xxAA_s140_5.0.0-3.alpha.dir/src/main.c.obj
                               0x1c68 (size before relaxing)
 .debug_str     0x00001927     0x14c6 examples/light_switch/server/CMakeFiles/light_switch_server_nrf52840_xxAA_s140_5.0.0-3.alpha.dir/__/__/nrf_mesh_sdk.c.obj
                               0x2183 (size before relaxing)
 .debug_str     0x00002ded      0x18a examples/light_switch/server/CMakeFiles/light_switch_server_nrf52840_xxAA_s140_5.0.0-3.alpha.dir/__/__/common/src/simple_hal.c.obj
                                0xc86 (size before relaxing)
 .debug_str     0x00002f77       0x3c examples/light_switch/server/CMakeFiles/light_switch_server_nrf52840_xxAA_s140_5.0.0-3.alpha.dir/__/__/nrf_mesh_weak.c.obj
                                0x64d (size before relaxing)
 .debug_str     0x00002fb3      0x388 examples/light_switch/server/CMakeFiles/light_switch_server_nrf52840_xxAA_s140_5.0.0-3.alpha.dir/__/__/__/models/simple_on_off/src/simple_on_off_server.c.obj
                                0x72d (size before relaxing)
 .debug_str     0x0000333b      0x22b examples/light_switch/server/CMakeFiles/light_switch_server_nrf52840_xxAA_s140_5.0.0-3.alpha.dir/__/__/__/models/config/src/composition_data.c.obj
                                0x8f7 (size before relaxing)
 .debug_str     0x00003566     0x2884 examples/light_switch/server/CMakeFiles/light_switch_server_nrf52840_xxAA_s140_5.0.0-3.alpha.dir/__/__/__/models/config/src/config_server.c.obj
                               0x3ec1 (size before relaxing)
 .debug_str     0x00005dea       0x69 examples/light_switch/server/CMakeFiles/light_switch_server_nrf52840_xxAA_s140_5.0.0-3.alpha.dir/__/__/__/models/config/src/packed_index_list.c.obj
                                0x264 (size before relaxing)
 .debug_str     0x00005e53      0x7df examples/light_switch/server/CMakeFiles/light_switch_server_nrf52840_xxAA_s140_5.0.0-3.alpha.dir/__/__/__/models/health/src/health_server.c.obj
                               0x13b3 (size before relaxing)
 .debug_str     0x00006632      0x279 examples/light_switch/server/CMakeFiles/light_switch_server_nrf52840_xxAA_s140_5.0.0-3.alpha.dir/__/__/__/mesh/access/src/access_publish.c.obj
                                0xbe6 (size before relaxing)
 .debug_str     0x000068ab     0x1806 examples/light_switch/server/CMakeFiles/light_switch_server_nrf52840_xxAA_s140_5.0.0-3.alpha.dir/__/__/__/mesh/access/src/access.c.obj
                               0x2b46 (size before relaxing)
 .debug_str     0x000080b1      0x1fb examples/light_switch/server/CMakeFiles/light_switch_server_nrf52840_xxAA_s140_5.0.0-3.alpha.dir/__/__/__/mesh/access/src/access_reliable.c.obj
                                0xcb4 (size before relaxing)
 .debug_str     0x000082ac      0xfa2 examples/light_switch/server/CMakeFiles/light_switch_server_nrf52840_xxAA_s140_5.0.0-3.alpha.dir/__/__/__/mesh/access/src/device_state_manager.c.obj
                               0x2e6b (size before relaxing)
 .debug_str     0x0000924e     0x1430 examples/light_switch/server/CMakeFiles/light_switch_server_nrf52840_xxAA_s140_5.0.0-3.alpha.dir/__/__/__/mesh/prov/src/prov_provisionee.c.obj
                               0x2061 (size before relaxing)
 .debug_str     0x0000a67e      0x295 examples/light_switch/server/CMakeFiles/light_switch_server_nrf52840_xxAA_s140_5.0.0-3.alpha.dir/__/__/__/mesh/prov/src/nrf_mesh_prov.c.obj
                               0x1c8f (size before relaxing)
 .debug_str     0x0000a913       0xf7 examples/light_switch/server/CMakeFiles/light_switch_server_nrf52840_xxAA_s140_5.0.0-3.alpha.dir/__/__/__/mesh/prov/src/provisioning.c.obj
                                0xf45 (size before relaxing)
 .debug_str     0x0000aa0a      0x4f0 examples/light_switch/server/CMakeFiles/light_switch_server_nrf52840_xxAA_s140_5.0.0-3.alpha.dir/__/__/__/mesh/prov/src/prov_beacon.c.obj
                               0x18cc (size before relaxing)
 .debug_str     0x0000aefa      0x20d examples/light_switch/server/CMakeFiles/light_switch_server_nrf52840_xxAA_s140_5.0.0-3.alpha.dir/__/__/__/mesh/prov/src/prov_utils.c.obj
                               0x1e53 (size before relaxing)
 .debug_str     0x0000b107      0x7d5 examples/light_switch/server/CMakeFiles/light_switch_server_nrf52840_xxAA_s140_5.0.0-3.alpha.dir/__/__/__/mesh/prov/src/prov_bearer_adv.c.obj
                               0x1b5a (size before relaxing)
 .debug_str     0x0000b8dc      0x1d9 examples/light_switch/server/CMakeFiles/light_switch_server_nrf52840_xxAA_s140_5.0.0-3.alpha.dir/__/__/__/mesh/access/src/nrf_mesh_node_config.c.obj
                               0x3a77 (size before relaxing)
 .debug_str     0x0000bab5      0x5d1 examples/light_switch/server/CMakeFiles/light_switch_server_nrf52840_xxAA_s140_5.0.0-3.alpha.dir/__/__/__/external/nRF5_SDK_14.2.0_17b948a/components/toolchain/system_nrf52840.c.obj
                                0x8b6 (size before relaxing)
 .debug_str     0x0000c086       0x75 mesh/core/libmesh_core_nrf52840_xxAA.a(nrf_mesh_configure.c.obj)
                                0x77e (size before relaxing)
 .debug_str     0x0000c0fb       0x82 mesh/core/libmesh_core_nrf52840_xxAA.a(event.c.obj)
                               0x14d3 (size before relaxing)
 .debug_str     0x0000c17d      0x33d mesh/core/libmesh_core_nrf52840_xxAA.a(net_state.c.obj)
                               0x1e46 (size before relaxing)
 .debug_str     0x0000c4ba       0x8b mesh/core/libmesh_core_nrf52840_xxAA.a(nrf_mesh_utils.c.obj)
                                0x76b (size before relaxing)
 .debug_str     0x0000c545      0x57d mesh/core/libmesh_core_nrf52840_xxAA.a(nrf_mesh.c.obj)
                               0x2bc5 (size before relaxing)
 .debug_str     0x0000cac2       0x69 mesh/core/libmesh_core_nrf52840_xxAA.a(hal.c.obj)
                                0x72f (size before relaxing)
 .debug_str     0x0000cb2b      0x14a mesh/core/libmesh_core_nrf52840_xxAA.a(timer_scheduler.c.obj)
                                0x94e (size before relaxing)
 .debug_str     0x0000cc75      0x21b mesh/core/libmesh_core_nrf52840_xxAA.a(timer.c.obj)
                                0x8c8 (size before relaxing)
 .debug_str     0x0000ce90       0x3c mesh/core/libmesh_core_nrf52840_xxAA.a(ticker.c.obj)
                                0x34c (size before relaxing)
 .debug_str     0x0000cecc       0xac mesh/core/libmesh_core_nrf52840_xxAA.a(rand.c.obj)
                                0x6db (size before relaxing)
 .debug_str     0x0000cf78       0x64 mesh/core/libmesh_core_nrf52840_xxAA.a(nrf_mesh_opt.c.obj)
                                0x921 (size before relaxing)
 .debug_str     0x0000cfdc      0x8ba mesh/core/libmesh_core_nrf52840_xxAA.a(timeslot.c.obj)
                               0x1839 (size before relaxing)
 .debug_str     0x0000d896      0x307 mesh/core/libmesh_core_nrf52840_xxAA.a(bearer_event.c.obj)
                                0xf18 (size before relaxing)
 .debug_str     0x0000db9d      0x1c1 mesh/core/libmesh_core_nrf52840_xxAA.a(enc.c.obj)
                                0x9d4 (size before relaxing)
 .debug_str     0x0000dd5e      0x9ce mesh/core/libmesh_core_nrf52840_xxAA.a(network.c.obj)
                               0x19c2 (size before relaxing)
 .debug_str     0x0000e72c       0x57 mesh/core/libmesh_core_nrf52840_xxAA.a(nrf_mesh_keygen.c.obj)
                                0x397 (size before relaxing)
 .debug_str     0x0000e783       0x65 mesh/core/libmesh_core_nrf52840_xxAA.a(list.c.obj)
                                0x2d8 (size before relaxing)
 .debug_str     0x0000e7e8      0x182 mesh/core/libmesh_core_nrf52840_xxAA.a(log.c.obj)
                                0x7d0 (size before relaxing)
 .debug_str     0x0000e96a      0x8a9 mesh/core/libmesh_core_nrf52840_xxAA.a(flash_manager.c.obj)
                               0x19d1 (size before relaxing)
 .debug_str     0x0000f213       0x85 mesh/core/libmesh_core_nrf52840_xxAA.a(ccm_soft.c.obj)
                                0x75d (size before relaxing)
 .debug_str     0x0000f298       0xb2 mesh/core/libmesh_core_nrf52840_xxAA.a(beacon.c.obj)
                               0x1133 (size before relaxing)
 .debug_str     0x0000f34a       0x38 mesh/core/libmesh_core_nrf52840_xxAA.a(flash_manager_internal.c.obj)
                                0x7be (size before relaxing)
 .debug_str     0x0000f382      0x131 mesh/core/libmesh_core_nrf52840_xxAA.a(core_tx.c.obj)
                                0x8bd (size before relaxing)
 .debug_str     0x0000f4b3      0x613 mesh/core/libmesh_core_nrf52840_xxAA.a(heartbeat.c.obj)
                               0x203b (size before relaxing)
 .debug_str     0x0000fac6      0x1a7 mesh/core/libmesh_core_nrf52840_xxAA.a(net_beacon.c.obj)
                                0xe84 (size before relaxing)
 .debug_str     0x0000fc6d      0x102 mesh/core/libmesh_core_nrf52840_xxAA.a(core_tx_adv.c.obj)
                               0x104b (size before relaxing)
 .debug_str     0x0000fd6f      0x189 mesh/core/libmesh_core_nrf52840_xxAA.a(ad_listener.c.obj)
                                0xb7f (size before relaxing)
 .debug_str     0x0000fef8      0x14f mesh/core/libmesh_core_nrf52840_xxAA.a(ad_type_filter.c.obj)
                                0x9b9 (size before relaxing)
 .debug_str     0x00010047      0x339 mesh/core/libmesh_core_nrf52840_xxAA.a(advertiser.c.obj)
                               0x150c (size before relaxing)
 .debug_str     0x00010380      0x475 mesh/core/libmesh_core_nrf52840_xxAA.a(bearer_handler.c.obj)
                               0x110a (size before relaxing)
 .debug_str     0x000107f5      0x1ac mesh/core/libmesh_core_nrf52840_xxAA.a(broadcast.c.obj)
                               0x1068 (size before relaxing)
 .debug_str     0x000109a1       0x72 mesh/core/libmesh_core_nrf52840_xxAA.a(filter_engine.c.obj)
                                0x826 (size before relaxing)
 .debug_str     0x00010a13       0x79 mesh/core/libmesh_core_nrf52840_xxAA.a(radio_config.c.obj)
                                0x8b6 (size before relaxing)
 .debug_str     0x00010a8c      0x45d mesh/core/libmesh_core_nrf52840_xxAA.a(scanner.c.obj)
                               0x1a53 (size before relaxing)
 .debug_str     0x00010ee9       0xc0 mesh/core/libmesh_core_nrf52840_xxAA.a(internal_event.c.obj)
                                0xa93 (size before relaxing)
 .debug_str     0x00010fa9       0xc1 mesh/core/libmesh_core_nrf52840_xxAA.a(aes.c.obj)
                                0xa6d (size before relaxing)
 .debug_str     0x0001106a       0x71 mesh/core/libmesh_core_nrf52840_xxAA.a(msg_cache.c.obj)
                                0x6ea (size before relaxing)
 .debug_str     0x000110db      0xd1d mesh/core/libmesh_core_nrf52840_xxAA.a(transport.c.obj)
                               0x31e5 (size before relaxing)
 .debug_str     0x00011df8      0x2cd mesh/core/libmesh_core_nrf52840_xxAA.a(packet_buffer.c.obj)
                                0xc2f (size before relaxing)
 .debug_str     0x000120c5      0x36b mesh/core/libmesh_core_nrf52840_xxAA.a(flash_manager_defrag.c.obj)
                               0x1545 (size before relaxing)
 .debug_str     0x00012430       0x69 mesh/core/libmesh_core_nrf52840_xxAA.a(fifo.c.obj)
                                0x6f5 (size before relaxing)
 .debug_str     0x00012499      0x266 mesh/core/libmesh_core_nrf52840_xxAA.a(packet_mgr.c.obj)
                                0x9ca (size before relaxing)
 .debug_str     0x000126ff      0x343 mesh/core/libmesh_core_nrf52840_xxAA.a(mesh_flash.c.obj)
                                0xcf6 (size before relaxing)
 .debug_str     0x00012a42       0x19 mesh/core/libmesh_core_nrf52840_xxAA.a(queue.c.obj)
                                0x69d (size before relaxing)
 .debug_str     0x00012a5b       0xb8 mesh/core/libmesh_core_nrf52840_xxAA.a(aes_cmac.c.obj)
                                0x715 (size before relaxing)
 .debug_str     0x00012b13       0x43 mesh/core/libmesh_core_nrf52840_xxAA.a(msqueue.c.obj)
                                0x6d9 (size before relaxing)
 .debug_str     0x00012b56       0x9f mesh/core/libmesh_core_nrf52840_xxAA.a(replay_cache.c.obj)
                                0x6b0 (size before relaxing)
 .debug_str     0x00012bf5       0x36 mesh/core/libmesh_core_nrf52840_xxAA.a(nrf_flash.c.obj)
                                0x700 (size before relaxing)
 .debug_str     0x00012c2b      0x2d1 external/rtt/librtt_nrf52840_xxAA.a(SEGGER_RTT.c.obj)
                                0x922 (size before relaxing)
 .debug_str     0x00012efc       0xdf external/rtt/librtt_nrf52840_xxAA.a(SEGGER_RTT_printf.c.obj)
                                0x792 (size before relaxing)
 .debug_str     0x00012fdb      0x691 external/micro-ecc/libuECC_nrf52840_xxAA.a(uECC.c.obj)
                                0x880 (size before relaxing)

.debug_frame    0x00000000     0x6984
 .debug_frame   0x00000000       0xac examples/light_switch/server/CMakeFiles/light_switch_server_nrf52840_xxAA_s140_5.0.0-3.alpha.dir/src/main.c.obj
 .debug_frame   0x000000ac      0x17c examples/light_switch/server/CMakeFiles/light_switch_server_nrf52840_xxAA_s140_5.0.0-3.alpha.dir/__/__/nrf_mesh_sdk.c.obj
 .debug_frame   0x00000228       0x9c examples/light_switch/server/CMakeFiles/light_switch_server_nrf52840_xxAA_s140_5.0.0-3.alpha.dir/__/__/common/src/simple_hal.c.obj
 .debug_frame   0x000002c4       0x30 examples/light_switch/server/CMakeFiles/light_switch_server_nrf52840_xxAA_s140_5.0.0-3.alpha.dir/__/__/nrf_mesh_weak.c.obj
 .debug_frame   0x000002f4       0xa0 examples/light_switch/server/CMakeFiles/light_switch_server_nrf52840_xxAA_s140_5.0.0-3.alpha.dir/__/__/__/models/simple_on_off/src/simple_on_off_server.c.obj
 .debug_frame   0x00000394       0x40 examples/light_switch/server/CMakeFiles/light_switch_server_nrf52840_xxAA_s140_5.0.0-3.alpha.dir/__/__/__/models/config/src/composition_data.c.obj
 .debug_frame   0x000003d4      0x7ec examples/light_switch/server/CMakeFiles/light_switch_server_nrf52840_xxAA_s140_5.0.0-3.alpha.dir/__/__/__/models/config/src/config_server.c.obj
 .debug_frame   0x00000bc0       0x3c examples/light_switch/server/CMakeFiles/light_switch_server_nrf52840_xxAA_s140_5.0.0-3.alpha.dir/__/__/__/models/config/src/packed_index_list.c.obj
 .debug_frame   0x00000bfc      0x2a4 examples/light_switch/server/CMakeFiles/light_switch_server_nrf52840_xxAA_s140_5.0.0-3.alpha.dir/__/__/__/models/health/src/health_server.c.obj
 .debug_frame   0x00000ea0      0x114 examples/light_switch/server/CMakeFiles/light_switch_server_nrf52840_xxAA_s140_5.0.0-3.alpha.dir/__/__/__/mesh/access/src/access_publish.c.obj
 .debug_frame   0x00000fb4      0x544 examples/light_switch/server/CMakeFiles/light_switch_server_nrf52840_xxAA_s140_5.0.0-3.alpha.dir/__/__/__/mesh/access/src/access.c.obj
 .debug_frame   0x000014f8      0x110 examples/light_switch/server/CMakeFiles/light_switch_server_nrf52840_xxAA_s140_5.0.0-3.alpha.dir/__/__/__/mesh/access/src/access_reliable.c.obj
 .debug_frame   0x00001608      0xa78 examples/light_switch/server/CMakeFiles/light_switch_server_nrf52840_xxAA_s140_5.0.0-3.alpha.dir/__/__/__/mesh/access/src/device_state_manager.c.obj
 .debug_frame   0x00002080      0x180 examples/light_switch/server/CMakeFiles/light_switch_server_nrf52840_xxAA_s140_5.0.0-3.alpha.dir/__/__/__/mesh/prov/src/prov_provisionee.c.obj
 .debug_frame   0x00002200      0x124 examples/light_switch/server/CMakeFiles/light_switch_server_nrf52840_xxAA_s140_5.0.0-3.alpha.dir/__/__/__/mesh/prov/src/nrf_mesh_prov.c.obj
 .debug_frame   0x00002324      0x174 examples/light_switch/server/CMakeFiles/light_switch_server_nrf52840_xxAA_s140_5.0.0-3.alpha.dir/__/__/__/mesh/prov/src/provisioning.c.obj
 .debug_frame   0x00002498       0x84 examples/light_switch/server/CMakeFiles/light_switch_server_nrf52840_xxAA_s140_5.0.0-3.alpha.dir/__/__/__/mesh/prov/src/prov_beacon.c.obj
 .debug_frame   0x0000251c      0x150 examples/light_switch/server/CMakeFiles/light_switch_server_nrf52840_xxAA_s140_5.0.0-3.alpha.dir/__/__/__/mesh/prov/src/prov_utils.c.obj
 .debug_frame   0x0000266c      0x328 examples/light_switch/server/CMakeFiles/light_switch_server_nrf52840_xxAA_s140_5.0.0-3.alpha.dir/__/__/__/mesh/prov/src/prov_bearer_adv.c.obj
 .debug_frame   0x00002994      0x140 examples/light_switch/server/CMakeFiles/light_switch_server_nrf52840_xxAA_s140_5.0.0-3.alpha.dir/__/__/__/mesh/access/src/nrf_mesh_node_config.c.obj
 .debug_frame   0x00002ad4       0x48 examples/light_switch/server/CMakeFiles/light_switch_server_nrf52840_xxAA_s140_5.0.0-3.alpha.dir/__/__/__/external/nRF5_SDK_14.2.0_17b948a/components/toolchain/system_nrf52840.c.obj
 .debug_frame   0x00002b1c       0x4c mesh/core/libmesh_core_nrf52840_xxAA.a(nrf_mesh_configure.c.obj)
 .debug_frame   0x00002b68       0x6c mesh/core/libmesh_core_nrf52840_xxAA.a(event.c.obj)
 .debug_frame   0x00002bd4      0x264 mesh/core/libmesh_core_nrf52840_xxAA.a(net_state.c.obj)
 .debug_frame   0x00002e38       0x50 mesh/core/libmesh_core_nrf52840_xxAA.a(nrf_mesh_utils.c.obj)
 .debug_frame   0x00002e88      0x15c mesh/core/libmesh_core_nrf52840_xxAA.a(nrf_mesh.c.obj)
 .debug_frame   0x00002fe4       0x48 mesh/core/libmesh_core_nrf52840_xxAA.a(hal.c.obj)
 .debug_frame   0x0000302c      0x13c mesh/core/libmesh_core_nrf52840_xxAA.a(timer_scheduler.c.obj)
 .debug_frame   0x00003168      0x10c mesh/core/libmesh_core_nrf52840_xxAA.a(timer.c.obj)
 .debug_frame   0x00003274       0x4c mesh/core/libmesh_core_nrf52840_xxAA.a(ticker.c.obj)
 .debug_frame   0x000032c0       0x84 mesh/core/libmesh_core_nrf52840_xxAA.a(rand.c.obj)
 .debug_frame   0x00003344       0x30 mesh/core/libmesh_core_nrf52840_xxAA.a(nrf_mesh_opt.c.obj)
 .debug_frame   0x00003374      0x1a0 mesh/core/libmesh_core_nrf52840_xxAA.a(timeslot.c.obj)
 .debug_frame   0x00003514      0x1c8 mesh/core/libmesh_core_nrf52840_xxAA.a(bearer_event.c.obj)
 .debug_frame   0x000036dc      0x150 mesh/core/libmesh_core_nrf52840_xxAA.a(enc.c.obj)
 .debug_frame   0x0000382c      0x14c mesh/core/libmesh_core_nrf52840_xxAA.a(network.c.obj)
 .debug_frame   0x00003978       0xb4 mesh/core/libmesh_core_nrf52840_xxAA.a(nrf_mesh_keygen.c.obj)
 .debug_frame   0x00003a2c       0xd4 mesh/core/libmesh_core_nrf52840_xxAA.a(list.c.obj)
 .debug_frame   0x00003b00       0xb0 mesh/core/libmesh_core_nrf52840_xxAA.a(log.c.obj)
 .debug_frame   0x00003bb0      0x33c mesh/core/libmesh_core_nrf52840_xxAA.a(flash_manager.c.obj)
 .debug_frame   0x00003eec      0x10c mesh/core/libmesh_core_nrf52840_xxAA.a(ccm_soft.c.obj)
 .debug_frame   0x00003ff8       0x98 mesh/core/libmesh_core_nrf52840_xxAA.a(beacon.c.obj)
 .debug_frame   0x00004090       0x34 mesh/core/libmesh_core_nrf52840_xxAA.a(flash_manager_internal.c.obj)
 .debug_frame   0x000040c4       0xe8 mesh/core/libmesh_core_nrf52840_xxAA.a(core_tx.c.obj)
 .debug_frame   0x000041ac      0x164 mesh/core/libmesh_core_nrf52840_xxAA.a(heartbeat.c.obj)
 .debug_frame   0x00004310       0xd0 mesh/core/libmesh_core_nrf52840_xxAA.a(net_beacon.c.obj)
 .debug_frame   0x000043e0      0x128 mesh/core/libmesh_core_nrf52840_xxAA.a(core_tx_adv.c.obj)
 .debug_frame   0x00004508       0x6c mesh/core/libmesh_core_nrf52840_xxAA.a(ad_listener.c.obj)
 .debug_frame   0x00004574       0xa8 mesh/core/libmesh_core_nrf52840_xxAA.a(ad_type_filter.c.obj)
 .debug_frame   0x0000461c      0x284 mesh/core/libmesh_core_nrf52840_xxAA.a(advertiser.c.obj)
 .debug_frame   0x000048a0      0x160 mesh/core/libmesh_core_nrf52840_xxAA.a(bearer_handler.c.obj)
 .debug_frame   0x00004a00       0x70 mesh/core/libmesh_core_nrf52840_xxAA.a(broadcast.c.obj)
 .debug_frame   0x00004a70       0x7c mesh/core/libmesh_core_nrf52840_xxAA.a(filter_engine.c.obj)
 .debug_frame   0x00004aec       0x90 mesh/core/libmesh_core_nrf52840_xxAA.a(radio_config.c.obj)
 .debug_frame   0x00004b7c      0x2a4 mesh/core/libmesh_core_nrf52840_xxAA.a(scanner.c.obj)
 .debug_frame   0x00004e20       0x48 mesh/core/libmesh_core_nrf52840_xxAA.a(internal_event.c.obj)
 .debug_frame   0x00004e68       0x40 mesh/core/libmesh_core_nrf52840_xxAA.a(aes.c.obj)
 .debug_frame   0x00004ea8       0x6c mesh/core/libmesh_core_nrf52840_xxAA.a(msg_cache.c.obj)
 .debug_frame   0x00004f14      0x44c mesh/core/libmesh_core_nrf52840_xxAA.a(transport.c.obj)
 .debug_frame   0x00005360      0x184 mesh/core/libmesh_core_nrf52840_xxAA.a(packet_buffer.c.obj)
 .debug_frame   0x000054e4      0x250 mesh/core/libmesh_core_nrf52840_xxAA.a(flash_manager_defrag.c.obj)
 .debug_frame   0x00005734       0xd0 mesh/core/libmesh_core_nrf52840_xxAA.a(fifo.c.obj)
 .debug_frame   0x00005804       0xa0 mesh/core/libmesh_core_nrf52840_xxAA.a(packet_mgr.c.obj)
 .debug_frame   0x000058a4      0x150 mesh/core/libmesh_core_nrf52840_xxAA.a(mesh_flash.c.obj)
 .debug_frame   0x000059f4       0x74 mesh/core/libmesh_core_nrf52840_xxAA.a(queue.c.obj)
 .debug_frame   0x00005a68       0xa4 mesh/core/libmesh_core_nrf52840_xxAA.a(aes_cmac.c.obj)
 .debug_frame   0x00005b0c       0xb8 mesh/core/libmesh_core_nrf52840_xxAA.a(msqueue.c.obj)
 .debug_frame   0x00005bc4       0xa0 mesh/core/libmesh_core_nrf52840_xxAA.a(replay_cache.c.obj)
 .debug_frame   0x00005c64       0x54 mesh/core/libmesh_core_nrf52840_xxAA.a(nrf_flash.c.obj)
 .debug_frame   0x00005cb8      0x2d8 external/rtt/librtt_nrf52840_xxAA.a(SEGGER_RTT.c.obj)
 .debug_frame   0x00005f90       0xac external/rtt/librtt_nrf52840_xxAA.a(SEGGER_RTT_printf.c.obj)
 .debug_frame   0x0000603c      0x684 external/micro-ecc/libuECC_nrf52840_xxAA.a(uECC.c.obj)
 .debug_frame   0x000066c0       0x28 c:/a/gcc_arm/6/bin/../lib/gcc/arm-none-eabi/6.3.1/../../../../arm-none-eabi/lib/thumb/v7e-m/fpv4-sp/hard\libg_nano.a(lib_a-exit.o)
 .debug_frame   0x000066e8       0x2c c:/a/gcc_arm/6/bin/../lib/gcc/arm-none-eabi/6.3.1/../../../../arm-none-eabi/lib/thumb/v7e-m/fpv4-sp/hard\libg_nano.a(lib_a-init.o)
 .debug_frame   0x00006714       0x30 c:/a/gcc_arm/6/bin/../lib/gcc/arm-none-eabi/6.3.1/../../../../arm-none-eabi/lib/thumb/v7e-m/fpv4-sp/hard\libg_nano.a(lib_a-malloc.o)
 .debug_frame   0x00006744       0x28 c:/a/gcc_arm/6/bin/../lib/gcc/arm-none-eabi/6.3.1/../../../../arm-none-eabi/lib/thumb/v7e-m/fpv4-sp/hard\libg_nano.a(lib_a-memcmp.o)
 .debug_frame   0x0000676c       0x28 c:/a/gcc_arm/6/bin/../lib/gcc/arm-none-eabi/6.3.1/../../../../arm-none-eabi/lib/thumb/v7e-m/fpv4-sp/hard\libg_nano.a(lib_a-memcpy-stub.o)
 .debug_frame   0x00006794       0x20 c:/a/gcc_arm/6/bin/../lib/gcc/arm-none-eabi/6.3.1/../../../../arm-none-eabi/lib/thumb/v7e-m/fpv4-sp/hard\libg_nano.a(lib_a-memset.o)
 .debug_frame   0x000067b4       0x38 c:/a/gcc_arm/6/bin/../lib/gcc/arm-none-eabi/6.3.1/../../../../arm-none-eabi/lib/thumb/v7e-m/fpv4-sp/hard\libg_nano.a(lib_a-nano-freer.o)
 .debug_frame   0x000067ec       0x2c c:/a/gcc_arm/6/bin/../lib/gcc/arm-none-eabi/6.3.1/../../../../arm-none-eabi/lib/thumb/v7e-m/fpv4-sp/hard\libg_nano.a(lib_a-nano-mallocr.o)
 .debug_frame   0x00006818       0x2c c:/a/gcc_arm/6/bin/../lib/gcc/arm-none-eabi/6.3.1/../../../../arm-none-eabi/lib/thumb/v7e-m/fpv4-sp/hard\libg_nano.a(lib_a-sbrkr.o)
 .debug_frame   0x00006844       0x20 c:/a/gcc_arm/6/bin/../lib/gcc/arm-none-eabi/6.3.1/../../../../arm-none-eabi/lib/thumb/v7e-m/fpv4-sp/hard\libg_nano.a(lib_a-strcpy.o)
 .debug_frame   0x00006864       0x34 c:/a/gcc_arm/6/bin/../lib/gcc/arm-none-eabi/6.3.1/../../../../arm-none-eabi/lib/thumb/v7e-m/fpv4-sp/hard\libg_nano.a(lib_a-strrchr.o)
 .debug_frame   0x00006898       0x30 c:/a/gcc_arm/6/bin/../lib/gcc/arm-none-eabi/6.3.1/../../../../arm-none-eabi/lib/thumb/v7e-m/fpv4-sp/hard\libg_nano.a(lib_a-mlock.o)
 .debug_frame   0x000068c8       0x5c c:/a/gcc_arm/6/bin/../lib/gcc/arm-none-eabi/6.3.1/../../../../arm-none-eabi/lib/thumb/v7e-m/fpv4-sp/hard\libg_nano.a(lib_a-reent.o)
 .debug_frame   0x00006924       0x20 c:/a/gcc_arm/6/bin/../lib/gcc/arm-none-eabi/6.3.1/../../../../arm-none-eabi/lib/thumb/v7e-m/fpv4-sp/hard\libg_nano.a(lib_a-strchr.o)
 .debug_frame   0x00006944       0x20 c:/a/gcc_arm/6/bin/../lib/gcc/arm-none-eabi/6.3.1/../../../../arm-none-eabi/lib/thumb/v7e-m/fpv4-sp/hard\libnosys.a(sbrk.o)
 .debug_frame   0x00006964       0x20 c:/a/gcc_arm/6/bin/../lib/gcc/arm-none-eabi/6.3.1/../../../../arm-none-eabi/lib/thumb/v7e-m/fpv4-sp/hard\libnosys.a(_exit.o)
