Archive member included to satisfy reference by file (symbol)

mesh/core/libmesh_core_nrf52832_xxAA.a(nrf_mesh_configure.c.obj)
                              examples/light_switch/server/CMakeFiles/light_switch_server_nrf52832_xxAA_s132_3.1.0.dir/__/__/__/mesh/prov/src/prov_beacon.c.obj (nrf_mesh_configure_device_uuid_get)
mesh/core/libmesh_core_nrf52832_xxAA.a(event.c.obj)
                              examples/light_switch/server/CMakeFiles/light_switch_server_nrf52832_xxAA_s132_3.1.0.dir/__/__/__/mesh/access/src/access.c.obj (event_handle)
mesh/core/libmesh_core_nrf52832_xxAA.a(net_state.c.obj)
                              examples/light_switch/server/CMakeFiles/light_switch_server_nrf52832_xxAA_s132_3.1.0.dir/__/__/__/models/config/src/config_server.c.obj (net_state_reset)
mesh/core/libmesh_core_nrf52832_xxAA.a(nrf_mesh_utils.c.obj)
                              examples/light_switch/server/CMakeFiles/light_switch_server_nrf52832_xxAA_s132_3.1.0.dir/__/__/__/models/config/src/config_server.c.obj (nrf_mesh_address_type_get)
mesh/core/libmesh_core_nrf52832_xxAA.a(nrf_mesh.c.obj)
                              examples/light_switch/server/CMakeFiles/light_switch_server_nrf52832_xxAA_s132_3.1.0.dir/__/__/nrf_mesh_sdk.c.obj (nrf_mesh_init)
mesh/core/libmesh_core_nrf52832_xxAA.a(hal.c.obj)
                              examples/light_switch/server/CMakeFiles/light_switch_server_nrf52832_xxAA_s132_3.1.0.dir/__/__/__/mesh/access/src/nrf_mesh_node_config.c.obj (hal_device_reset)
mesh/core/libmesh_core_nrf52832_xxAA.a(timer_scheduler.c.obj)
                              mesh/core/libmesh_core_nrf52832_xxAA.a(nrf_mesh.c.obj) (timer_sch_init)
mesh/core/libmesh_core_nrf52832_xxAA.a(timer.c.obj)
                              mesh/core/libmesh_core_nrf52832_xxAA.a(timer_scheduler.c.obj) (timer_order_cb)
mesh/core/libmesh_core_nrf52832_xxAA.a(ticker.c.obj)
                              mesh/core/libmesh_core_nrf52832_xxAA.a(nrf_mesh.c.obj) (ticker_init)
mesh/core/libmesh_core_nrf52832_xxAA.a(rand.c.obj)
                              examples/light_switch/server/CMakeFiles/light_switch_server_nrf52832_xxAA_s132_3.1.0.dir/__/__/__/mesh/prov/src/prov_utils.c.obj (rand_hw_rng_get)
mesh/core/libmesh_core_nrf52832_xxAA.a(nrf_mesh_opt.c.obj)
                              examples/light_switch/server/CMakeFiles/light_switch_server_nrf52832_xxAA_s132_3.1.0.dir/__/__/__/models/config/src/config_server.c.obj (nrf_mesh_opt_set)
mesh/core/libmesh_core_nrf52832_xxAA.a(timeslot.c.obj)
                              mesh/core/libmesh_core_nrf52832_xxAA.a(nrf_mesh.c.obj) (timeslot_sd_event_handler)
mesh/core/libmesh_core_nrf52832_xxAA.a(bearer_event.c.obj)
                              mesh/core/libmesh_core_nrf52832_xxAA.a(nrf_mesh.c.obj) (bearer_event_init)
mesh/core/libmesh_core_nrf52832_xxAA.a(enc.c.obj)
                              examples/light_switch/server/CMakeFiles/light_switch_server_nrf52832_xxAA_s132_3.1.0.dir/__/__/__/mesh/prov/src/prov_utils.c.obj (enc_aes_cmac)
mesh/core/libmesh_core_nrf52832_xxAA.a(network.c.obj)
                              mesh/core/libmesh_core_nrf52832_xxAA.a(nrf_mesh.c.obj) (network_init)
mesh/core/libmesh_core_nrf52832_xxAA.a(nrf_mesh_keygen.c.obj)
                              examples/light_switch/server/CMakeFiles/light_switch_server_nrf52832_xxAA_s132_3.1.0.dir/__/__/__/mesh/access/src/device_state_manager.c.obj (nrf_mesh_keygen_aid)
mesh/core/libmesh_core_nrf52832_xxAA.a(list.c.obj)
                              mesh/core/libmesh_core_nrf52832_xxAA.a(event.c.obj) (list_add)
mesh/core/libmesh_core_nrf52832_xxAA.a(log.c.obj)
                              examples/light_switch/server/CMakeFiles/light_switch_server_nrf52832_xxAA_s132_3.1.0.dir/src/main.c.obj (log_callback_rtt)
mesh/core/libmesh_core_nrf52832_xxAA.a(flash_manager.c.obj)
                              mesh/core/libmesh_core_nrf52832_xxAA.a(nrf_mesh.c.obj) (flash_manager_init)
mesh/core/libmesh_core_nrf52832_xxAA.a(ccm_soft.c.obj)
                              mesh/core/libmesh_core_nrf52832_xxAA.a(enc.c.obj) (ccm_soft_encrypt)
mesh/core/libmesh_core_nrf52832_xxAA.a(beacon.c.obj)
                              mesh/core/libmesh_core_nrf52832_xxAA.a(nrf_mesh.c.obj) (beacon_init)
mesh/core/libmesh_core_nrf52832_xxAA.a(flash_manager_internal.c.obj)
                              mesh/core/libmesh_core_nrf52832_xxAA.a(flash_manager.c.obj) (entry_get)
mesh/core/libmesh_core_nrf52832_xxAA.a(core_tx.c.obj)
                              mesh/core/libmesh_core_nrf52832_xxAA.a(network.c.obj) (core_tx_packet_alloc)
mesh/core/libmesh_core_nrf52832_xxAA.a(heartbeat.c.obj)
                              mesh/core/libmesh_core_nrf52832_xxAA.a(network.c.obj) (heartbeat_on_feature_change_trigger)
mesh/core/libmesh_core_nrf52832_xxAA.a(net_beacon.c.obj)
                              mesh/core/libmesh_core_nrf52832_xxAA.a(network.c.obj) (net_beacon_init)
mesh/core/libmesh_core_nrf52832_xxAA.a(core_tx_adv.c.obj)
                              mesh/core/libmesh_core_nrf52832_xxAA.a(nrf_mesh.c.obj) (core_tx_adv_init)
mesh/core/libmesh_core_nrf52832_xxAA.a(ad_listener.c.obj)
                              mesh/core/libmesh_core_nrf52832_xxAA.a(nrf_mesh.c.obj) (ad_listener_subscribe)
mesh/core/libmesh_core_nrf52832_xxAA.a(ad_type_filter.c.obj)
                              mesh/core/libmesh_core_nrf52832_xxAA.a(ad_listener.c.obj) (bearer_adtype_filtering_set)
mesh/core/libmesh_core_nrf52832_xxAA.a(advertiser.c.obj)
                              mesh/core/libmesh_core_nrf52832_xxAA.a(nrf_mesh.c.obj) (advertiser_init)
mesh/core/libmesh_core_nrf52832_xxAA.a(bearer_handler.c.obj)
                              mesh/core/libmesh_core_nrf52832_xxAA.a(nrf_mesh.c.obj) (bearer_handler_init)
mesh/core/libmesh_core_nrf52832_xxAA.a(broadcast.c.obj)
                              mesh/core/libmesh_core_nrf52832_xxAA.a(advertiser.c.obj) (broadcast_send)
mesh/core/libmesh_core_nrf52832_xxAA.a(filter_engine.c.obj)
                              mesh/core/libmesh_core_nrf52832_xxAA.a(ad_type_filter.c.obj) (fen_filter_start)
mesh/core/libmesh_core_nrf52832_xxAA.a(radio_config.c.obj)
                              mesh/core/libmesh_core_nrf52832_xxAA.a(broadcast.c.obj) (radio_config_reset)
mesh/core/libmesh_core_nrf52832_xxAA.a(scanner.c.obj)
                              mesh/core/libmesh_core_nrf52832_xxAA.a(bearer_handler.c.obj) (scanner_radio_start)
mesh/core/libmesh_core_nrf52832_xxAA.a(internal_event.c.obj)
                              mesh/core/libmesh_core_nrf52832_xxAA.a(network.c.obj) (internal_event_push)
mesh/core/libmesh_core_nrf52832_xxAA.a(aes.c.obj)
                              mesh/core/libmesh_core_nrf52832_xxAA.a(enc.c.obj) (aes_encrypt)
mesh/core/libmesh_core_nrf52832_xxAA.a(msg_cache.c.obj)
                              mesh/core/libmesh_core_nrf52832_xxAA.a(nrf_mesh.c.obj) (msg_cache_init)
mesh/core/libmesh_core_nrf52832_xxAA.a(transport.c.obj)
                              mesh/core/libmesh_core_nrf52832_xxAA.a(nrf_mesh.c.obj) (transport_init)
mesh/core/libmesh_core_nrf52832_xxAA.a(packet_buffer.c.obj)
                              mesh/core/libmesh_core_nrf52832_xxAA.a(flash_manager.c.obj) (packet_buffer_init)
mesh/core/libmesh_core_nrf52832_xxAA.a(flash_manager_defrag.c.obj)
                              mesh/core/libmesh_core_nrf52832_xxAA.a(flash_manager.c.obj) (flash_manager_defrag_init)
mesh/core/libmesh_core_nrf52832_xxAA.a(fifo.c.obj)
                              mesh/core/libmesh_core_nrf52832_xxAA.a(bearer_event.c.obj) (fifo_init)
mesh/core/libmesh_core_nrf52832_xxAA.a(packet_mgr.c.obj)
                              mesh/core/libmesh_core_nrf52832_xxAA.a(nrf_mesh.c.obj) (packet_mgr_init)
mesh/core/libmesh_core_nrf52832_xxAA.a(mesh_flash.c.obj)
                              mesh/core/libmesh_core_nrf52832_xxAA.a(flash_manager.c.obj) (mesh_flash_user_callback_set)
mesh/core/libmesh_core_nrf52832_xxAA.a(queue.c.obj)
                              mesh/core/libmesh_core_nrf52832_xxAA.a(bearer_event.c.obj) (queue_init)
mesh/core/libmesh_core_nrf52832_xxAA.a(aes_cmac.c.obj)
                              mesh/core/libmesh_core_nrf52832_xxAA.a(enc.c.obj) (aes_cmac)
mesh/core/libmesh_core_nrf52832_xxAA.a(msqueue.c.obj)
                              mesh/core/libmesh_core_nrf52832_xxAA.a(mesh_flash.c.obj) (msq_get)
mesh/core/libmesh_core_nrf52832_xxAA.a(replay_cache.c.obj)
                              mesh/core/libmesh_core_nrf52832_xxAA.a(transport.c.obj) (replay_cache_add)
mesh/core/libmesh_core_nrf52832_xxAA.a(nrf_flash.c.obj)
                              mesh/core/libmesh_core_nrf52832_xxAA.a(mesh_flash.c.obj) (nrf_flash_erase)
external/rtt/librtt_nrf52832_xxAA.a(SEGGER_RTT.c.obj)
                              mesh/core/libmesh_core_nrf52832_xxAA.a(log.c.obj) (SEGGER_RTT_Write)
external/rtt/librtt_nrf52832_xxAA.a(SEGGER_RTT_printf.c.obj)
                              mesh/core/libmesh_core_nrf52832_xxAA.a(log.c.obj) (SEGGER_RTT_vprintf)
external/micro-ecc/libuECC_nrf52832_xxAA.a(uECC.c.obj)
                              examples/light_switch/server/CMakeFiles/light_switch_server_nrf52832_xxAA_s132_3.1.0.dir/__/__/__/mesh/prov/src/prov_utils.c.obj (uECC_secp256r1)
c:/a/gcc_arm/6/bin/../lib/gcc/arm-none-eabi/6.3.1/../../../../arm-none-eabi/lib/thumb/v7e-m/fpv4-sp/hard\libg_nano.a(lib_a-exit.o)
                              c:/a/gcc_arm/6/bin/../lib/gcc/arm-none-eabi/6.3.1/../../../../arm-none-eabi/lib/thumb/v7e-m/fpv4-sp/hard/crt0.o (exit)
c:/a/gcc_arm/6/bin/../lib/gcc/arm-none-eabi/6.3.1/../../../../arm-none-eabi/lib/thumb/v7e-m/fpv4-sp/hard\libg_nano.a(lib_a-impure.o)
                              c:/a/gcc_arm/6/bin/../lib/gcc/arm-none-eabi/6.3.1/../../../../arm-none-eabi/lib/thumb/v7e-m/fpv4-sp/hard\libg_nano.a(lib_a-exit.o) (_global_impure_ptr)
c:/a/gcc_arm/6/bin/../lib/gcc/arm-none-eabi/6.3.1/../../../../arm-none-eabi/lib/thumb/v7e-m/fpv4-sp/hard\libg_nano.a(lib_a-init.o)
                              c:/a/gcc_arm/6/bin/../lib/gcc/arm-none-eabi/6.3.1/../../../../arm-none-eabi/lib/thumb/v7e-m/fpv4-sp/hard/crt0.o (__libc_init_array)
c:/a/gcc_arm/6/bin/../lib/gcc/arm-none-eabi/6.3.1/../../../../arm-none-eabi/lib/thumb/v7e-m/fpv4-sp/hard\libg_nano.a(lib_a-malloc.o)
                              mesh/core/libmesh_core_nrf52832_xxAA.a(transport.c.obj) (malloc)
c:/a/gcc_arm/6/bin/../lib/gcc/arm-none-eabi/6.3.1/../../../../arm-none-eabi/lib/thumb/v7e-m/fpv4-sp/hard\libg_nano.a(lib_a-memcmp.o)
                              examples/light_switch/server/CMakeFiles/light_switch_server_nrf52832_xxAA_s132_3.1.0.dir/__/__/__/mesh/access/src/device_state_manager.c.obj (memcmp)
c:/a/gcc_arm/6/bin/../lib/gcc/arm-none-eabi/6.3.1/../../../../arm-none-eabi/lib/thumb/v7e-m/fpv4-sp/hard\libg_nano.a(lib_a-memcpy-stub.o)
                              examples/light_switch/server/CMakeFiles/light_switch_server_nrf52832_xxAA_s132_3.1.0.dir/__/__/__/models/config/src/composition_data.c.obj (memcpy)
c:/a/gcc_arm/6/bin/../lib/gcc/arm-none-eabi/6.3.1/../../../../arm-none-eabi/lib/thumb/v7e-m/fpv4-sp/hard\libg_nano.a(lib_a-memset.o)
                              c:/a/gcc_arm/6/bin/../lib/gcc/arm-none-eabi/6.3.1/../../../../arm-none-eabi/lib/thumb/v7e-m/fpv4-sp/hard/crt0.o (memset)
c:/a/gcc_arm/6/bin/../lib/gcc/arm-none-eabi/6.3.1/../../../../arm-none-eabi/lib/thumb/v7e-m/fpv4-sp/hard\libg_nano.a(lib_a-nano-freer.o)
                              c:/a/gcc_arm/6/bin/../lib/gcc/arm-none-eabi/6.3.1/../../../../arm-none-eabi/lib/thumb/v7e-m/fpv4-sp/hard\libg_nano.a(lib_a-malloc.o) (_free_r)
c:/a/gcc_arm/6/bin/../lib/gcc/arm-none-eabi/6.3.1/../../../../arm-none-eabi/lib/thumb/v7e-m/fpv4-sp/hard\libg_nano.a(lib_a-nano-mallocr.o)
                              c:/a/gcc_arm/6/bin/../lib/gcc/arm-none-eabi/6.3.1/../../../../arm-none-eabi/lib/thumb/v7e-m/fpv4-sp/hard\libg_nano.a(lib_a-malloc.o) (_malloc_r)
c:/a/gcc_arm/6/bin/../lib/gcc/arm-none-eabi/6.3.1/../../../../arm-none-eabi/lib/thumb/v7e-m/fpv4-sp/hard\libg_nano.a(lib_a-sbrkr.o)
                              c:/a/gcc_arm/6/bin/../lib/gcc/arm-none-eabi/6.3.1/../../../../arm-none-eabi/lib/thumb/v7e-m/fpv4-sp/hard\libg_nano.a(lib_a-nano-mallocr.o) (_sbrk_r)
c:/a/gcc_arm/6/bin/../lib/gcc/arm-none-eabi/6.3.1/../../../../arm-none-eabi/lib/thumb/v7e-m/fpv4-sp/hard\libg_nano.a(lib_a-strcpy.o)
                              external/rtt/librtt_nrf52832_xxAA.a(SEGGER_RTT.c.obj) (strcpy)
c:/a/gcc_arm/6/bin/../lib/gcc/arm-none-eabi/6.3.1/../../../../arm-none-eabi/lib/thumb/v7e-m/fpv4-sp/hard\libg_nano.a(lib_a-strlen.o)
                              examples/light_switch/server/CMakeFiles/light_switch_server_nrf52832_xxAA_s132_3.1.0.dir/__/__/__/mesh/prov/src/prov_beacon.c.obj (strlen)
c:/a/gcc_arm/6/bin/../lib/gcc/arm-none-eabi/6.3.1/../../../../arm-none-eabi/lib/thumb/v7e-m/fpv4-sp/hard\libg_nano.a(lib_a-strrchr.o)
                              examples/light_switch/server/CMakeFiles/light_switch_server_nrf52832_xxAA_s132_3.1.0.dir/src/main.c.obj (strrchr)
c:/a/gcc_arm/6/bin/../lib/gcc/arm-none-eabi/6.3.1/../../../../arm-none-eabi/lib/thumb/v7e-m/fpv4-sp/hard\libg_nano.a(lib_a-mlock.o)
                              c:/a/gcc_arm/6/bin/../lib/gcc/arm-none-eabi/6.3.1/../../../../arm-none-eabi/lib/thumb/v7e-m/fpv4-sp/hard\libg_nano.a(lib_a-nano-freer.o) (__malloc_lock)
c:/a/gcc_arm/6/bin/../lib/gcc/arm-none-eabi/6.3.1/../../../../arm-none-eabi/lib/thumb/v7e-m/fpv4-sp/hard\libg_nano.a(lib_a-reent.o)
                              c:/a/gcc_arm/6/bin/../lib/gcc/arm-none-eabi/6.3.1/../../../../arm-none-eabi/lib/thumb/v7e-m/fpv4-sp/hard\libg_nano.a(lib_a-sbrkr.o) (errno)
c:/a/gcc_arm/6/bin/../lib/gcc/arm-none-eabi/6.3.1/../../../../arm-none-eabi/lib/thumb/v7e-m/fpv4-sp/hard\libg_nano.a(lib_a-strchr.o)
                              c:/a/gcc_arm/6/bin/../lib/gcc/arm-none-eabi/6.3.1/../../../../arm-none-eabi/lib/thumb/v7e-m/fpv4-sp/hard\libg_nano.a(lib_a-strrchr.o) (strchr)
c:/a/gcc_arm/6/bin/../lib/gcc/arm-none-eabi/6.3.1/../../../../arm-none-eabi/lib/thumb/v7e-m/fpv4-sp/hard\libnosys.a(sbrk.o)
                              c:/a/gcc_arm/6/bin/../lib/gcc/arm-none-eabi/6.3.1/../../../../arm-none-eabi/lib/thumb/v7e-m/fpv4-sp/hard\libg_nano.a(lib_a-sbrkr.o) (_sbrk)
c:/a/gcc_arm/6/bin/../lib/gcc/arm-none-eabi/6.3.1/../../../../arm-none-eabi/lib/thumb/v7e-m/fpv4-sp/hard\libnosys.a(_exit.o)
                              c:/a/gcc_arm/6/bin/../lib/gcc/arm-none-eabi/6.3.1/../../../../arm-none-eabi/lib/thumb/v7e-m/fpv4-sp/hard\libg_nano.a(lib_a-exit.o) (_exit)

Allocating common symbols
Common symbol       size              file

nrf_nvic_state      0xc               examples/light_switch/server/CMakeFiles/light_switch_server_nrf52832_xxAA_s132_3.1.0.dir/__/__/nrf_mesh_sdk.c.obj
errno               0x4               c:/a/gcc_arm/6/bin/../lib/gcc/arm-none-eabi/6.3.1/../../../../arm-none-eabi/lib/thumb/v7e-m/fpv4-sp/hard\libg_nano.a(lib_a-reent.o)
m_assertion_handler
                    0x4               mesh/core/libmesh_core_nrf52832_xxAA.a(nrf_mesh.c.obj)
_SEGGER_RTT         0x78              external/rtt/librtt_nrf52832_xxAA.a(SEGGER_RTT.c.obj)

Discarded input sections

 .text          0x00000000        0x0 c:/a/gcc_arm/6/bin/../lib/gcc/arm-none-eabi/6.3.1/thumb/v7e-m/fpv4-sp/hard/crti.o
 .data          0x00000000        0x0 c:/a/gcc_arm/6/bin/../lib/gcc/arm-none-eabi/6.3.1/thumb/v7e-m/fpv4-sp/hard/crti.o
 .bss           0x00000000        0x0 c:/a/gcc_arm/6/bin/../lib/gcc/arm-none-eabi/6.3.1/thumb/v7e-m/fpv4-sp/hard/crti.o
 .data          0x00000000        0x4 c:/a/gcc_arm/6/bin/../lib/gcc/arm-none-eabi/6.3.1/thumb/v7e-m/fpv4-sp/hard/crtbegin.o
 .data          0x00000000        0x0 c:/a/gcc_arm/6/bin/../lib/gcc/arm-none-eabi/6.3.1/../../../../arm-none-eabi/lib/thumb/v7e-m/fpv4-sp/hard/crt0.o
 .bss           0x00000000        0x0 c:/a/gcc_arm/6/bin/../lib/gcc/arm-none-eabi/6.3.1/../../../../arm-none-eabi/lib/thumb/v7e-m/fpv4-sp/hard/crt0.o
 .ARM.extab     0x00000000        0x0 c:/a/gcc_arm/6/bin/../lib/gcc/arm-none-eabi/6.3.1/../../../../arm-none-eabi/lib/thumb/v7e-m/fpv4-sp/hard/crt0.o
 .text          0x00000000        0x0 examples/light_switch/server/CMakeFiles/light_switch_server_nrf52832_xxAA_s132_3.1.0.dir/src/main.c.obj
 .data          0x00000000        0x0 examples/light_switch/server/CMakeFiles/light_switch_server_nrf52832_xxAA_s132_3.1.0.dir/src/main.c.obj
 .bss           0x00000000        0x0 examples/light_switch/server/CMakeFiles/light_switch_server_nrf52832_xxAA_s132_3.1.0.dir/src/main.c.obj
 .text          0x00000000        0x0 examples/light_switch/server/CMakeFiles/light_switch_server_nrf52832_xxAA_s132_3.1.0.dir/__/__/nrf_mesh_sdk.c.obj
 .data          0x00000000        0x0 examples/light_switch/server/CMakeFiles/light_switch_server_nrf52832_xxAA_s132_3.1.0.dir/__/__/nrf_mesh_sdk.c.obj
 .bss           0x00000000        0x0 examples/light_switch/server/CMakeFiles/light_switch_server_nrf52832_xxAA_s132_3.1.0.dir/__/__/nrf_mesh_sdk.c.obj
 .text.sd_softdevice_enable
                0x00000000        0x4 examples/light_switch/server/CMakeFiles/light_switch_server_nrf52832_xxAA_s132_3.1.0.dir/__/__/nrf_mesh_sdk.c.obj
 .text.sd_ble_enable
                0x00000000        0x4 examples/light_switch/server/CMakeFiles/light_switch_server_nrf52832_xxAA_s132_3.1.0.dir/__/__/nrf_mesh_sdk.c.obj
 .text.mesh_assert_handler
                0x00000000       0x70 examples/light_switch/server/CMakeFiles/light_switch_server_nrf52832_xxAA_s132_3.1.0.dir/__/__/nrf_mesh_sdk.c.obj
 .text.softdevice_assert_handler
                0x00000000       0x78 examples/light_switch/server/CMakeFiles/light_switch_server_nrf52832_xxAA_s132_3.1.0.dir/__/__/nrf_mesh_sdk.c.obj
 .text.mesh_softdevice_enable
                0x00000000      0x128 examples/light_switch/server/CMakeFiles/light_switch_server_nrf52832_xxAA_s132_3.1.0.dir/__/__/nrf_mesh_sdk.c.obj
 .text.mesh_softdevice_setup
                0x00000000       0x88 examples/light_switch/server/CMakeFiles/light_switch_server_nrf52832_xxAA_s132_3.1.0.dir/__/__/nrf_mesh_sdk.c.obj
 .text.mesh_core_setup
                0x00000000      0x15c examples/light_switch/server/CMakeFiles/light_switch_server_nrf52832_xxAA_s132_3.1.0.dir/__/__/nrf_mesh_sdk.c.obj
 .rodata.mesh_core_setup.str1.1
                0x00000000       0x47 examples/light_switch/server/CMakeFiles/light_switch_server_nrf52832_xxAA_s132_3.1.0.dir/__/__/nrf_mesh_sdk.c.obj
 .rodata.mesh_softdevice_enable.str1.1
                0x00000000       0x65 examples/light_switch/server/CMakeFiles/light_switch_server_nrf52832_xxAA_s132_3.1.0.dir/__/__/nrf_mesh_sdk.c.obj
 .rodata.softdevice_assert_handler.str1.1
                0x00000000       0x1d examples/light_switch/server/CMakeFiles/light_switch_server_nrf52832_xxAA_s132_3.1.0.dir/__/__/nrf_mesh_sdk.c.obj
 .text          0x00000000        0x0 examples/light_switch/server/CMakeFiles/light_switch_server_nrf52832_xxAA_s132_3.1.0.dir/__/__/common/src/simple_hal.c.obj
 .data          0x00000000        0x0 examples/light_switch/server/CMakeFiles/light_switch_server_nrf52832_xxAA_s132_3.1.0.dir/__/__/common/src/simple_hal.c.obj
 .bss           0x00000000        0x0 examples/light_switch/server/CMakeFiles/light_switch_server_nrf52832_xxAA_s132_3.1.0.dir/__/__/common/src/simple_hal.c.obj
 .text.hal_buttons_init
                0x00000000       0x50 examples/light_switch/server/CMakeFiles/light_switch_server_nrf52832_xxAA_s132_3.1.0.dir/__/__/common/src/simple_hal.c.obj
 .text          0x00000000        0x0 examples/light_switch/server/CMakeFiles/light_switch_server_nrf52832_xxAA_s132_3.1.0.dir/__/__/nrf_mesh_weak.c.obj
 .data          0x00000000        0x0 examples/light_switch/server/CMakeFiles/light_switch_server_nrf52832_xxAA_s132_3.1.0.dir/__/__/nrf_mesh_weak.c.obj
 .bss           0x00000000        0x0 examples/light_switch/server/CMakeFiles/light_switch_server_nrf52832_xxAA_s132_3.1.0.dir/__/__/nrf_mesh_weak.c.obj
 .text._weak_handler_ptr
                0x00000000        0x4 examples/light_switch/server/CMakeFiles/light_switch_server_nrf52832_xxAA_s132_3.1.0.dir/__/__/nrf_mesh_weak.c.obj
 .text          0x00000000        0x0 examples/light_switch/server/CMakeFiles/light_switch_server_nrf52832_xxAA_s132_3.1.0.dir/__/__/__/models/simple_on_off/src/simple_on_off_server.c.obj
 .data          0x00000000        0x0 examples/light_switch/server/CMakeFiles/light_switch_server_nrf52832_xxAA_s132_3.1.0.dir/__/__/__/models/simple_on_off/src/simple_on_off_server.c.obj
 .bss           0x00000000        0x0 examples/light_switch/server/CMakeFiles/light_switch_server_nrf52832_xxAA_s132_3.1.0.dir/__/__/__/models/simple_on_off/src/simple_on_off_server.c.obj
 .text          0x00000000        0x0 examples/light_switch/server/CMakeFiles/light_switch_server_nrf52832_xxAA_s132_3.1.0.dir/__/__/__/models/config/src/composition_data.c.obj
 .data          0x00000000        0x0 examples/light_switch/server/CMakeFiles/light_switch_server_nrf52832_xxAA_s132_3.1.0.dir/__/__/__/models/config/src/composition_data.c.obj
 .bss           0x00000000        0x0 examples/light_switch/server/CMakeFiles/light_switch_server_nrf52832_xxAA_s132_3.1.0.dir/__/__/__/models/config/src/composition_data.c.obj
 .text          0x00000000        0x0 examples/light_switch/server/CMakeFiles/light_switch_server_nrf52832_xxAA_s132_3.1.0.dir/__/__/__/models/config/src/config_server.c.obj
 .data          0x00000000        0x0 examples/light_switch/server/CMakeFiles/light_switch_server_nrf52832_xxAA_s132_3.1.0.dir/__/__/__/models/config/src/config_server.c.obj
 .bss           0x00000000        0x0 examples/light_switch/server/CMakeFiles/light_switch_server_nrf52832_xxAA_s132_3.1.0.dir/__/__/__/models/config/src/config_server.c.obj
 .text          0x00000000        0x0 examples/light_switch/server/CMakeFiles/light_switch_server_nrf52832_xxAA_s132_3.1.0.dir/__/__/__/models/config/src/packed_index_list.c.obj
 .data          0x00000000        0x0 examples/light_switch/server/CMakeFiles/light_switch_server_nrf52832_xxAA_s132_3.1.0.dir/__/__/__/models/config/src/packed_index_list.c.obj
 .bss           0x00000000        0x0 examples/light_switch/server/CMakeFiles/light_switch_server_nrf52832_xxAA_s132_3.1.0.dir/__/__/__/models/config/src/packed_index_list.c.obj
 .text          0x00000000        0x0 examples/light_switch/server/CMakeFiles/light_switch_server_nrf52832_xxAA_s132_3.1.0.dir/__/__/__/models/health/src/health_server.c.obj
 .data          0x00000000        0x0 examples/light_switch/server/CMakeFiles/light_switch_server_nrf52832_xxAA_s132_3.1.0.dir/__/__/__/models/health/src/health_server.c.obj
 .bss           0x00000000        0x0 examples/light_switch/server/CMakeFiles/light_switch_server_nrf52832_xxAA_s132_3.1.0.dir/__/__/__/models/health/src/health_server.c.obj
 .text.health_server_fault_is_set
                0x00000000       0x1c examples/light_switch/server/CMakeFiles/light_switch_server_nrf52832_xxAA_s132_3.1.0.dir/__/__/__/models/health/src/health_server.c.obj
 .text.health_server_fault_count_get
                0x00000000        0xc examples/light_switch/server/CMakeFiles/light_switch_server_nrf52832_xxAA_s132_3.1.0.dir/__/__/__/models/health/src/health_server.c.obj
 .text.health_server_fault_register
                0x00000000       0xe8 examples/light_switch/server/CMakeFiles/light_switch_server_nrf52832_xxAA_s132_3.1.0.dir/__/__/__/models/health/src/health_server.c.obj
 .text.health_server_fault_clear
                0x00000000       0x54 examples/light_switch/server/CMakeFiles/light_switch_server_nrf52832_xxAA_s132_3.1.0.dir/__/__/__/models/health/src/health_server.c.obj
 .text.health_server_attention_get
                0x00000000        0x6 examples/light_switch/server/CMakeFiles/light_switch_server_nrf52832_xxAA_s132_3.1.0.dir/__/__/__/models/health/src/health_server.c.obj
 .text.health_server_attention_set
                0x00000000        0x4 examples/light_switch/server/CMakeFiles/light_switch_server_nrf52832_xxAA_s132_3.1.0.dir/__/__/__/models/health/src/health_server.c.obj
 .text          0x00000000        0x0 examples/light_switch/server/CMakeFiles/light_switch_server_nrf52832_xxAA_s132_3.1.0.dir/__/__/__/mesh/access/src/access_publish.c.obj
 .data          0x00000000        0x0 examples/light_switch/server/CMakeFiles/light_switch_server_nrf52832_xxAA_s132_3.1.0.dir/__/__/__/mesh/access/src/access_publish.c.obj
 .bss           0x00000000        0x0 examples/light_switch/server/CMakeFiles/light_switch_server_nrf52832_xxAA_s132_3.1.0.dir/__/__/__/mesh/access/src/access_publish.c.obj
 .text          0x00000000        0x0 examples/light_switch/server/CMakeFiles/light_switch_server_nrf52832_xxAA_s132_3.1.0.dir/__/__/__/mesh/access/src/access.c.obj
 .data          0x00000000        0x0 examples/light_switch/server/CMakeFiles/light_switch_server_nrf52832_xxAA_s132_3.1.0.dir/__/__/__/mesh/access/src/access.c.obj
 .bss           0x00000000        0x0 examples/light_switch/server/CMakeFiles/light_switch_server_nrf52832_xxAA_s132_3.1.0.dir/__/__/__/mesh/access/src/access.c.obj
 .text.access_model_subscription_lists_share
                0x00000000       0x48 examples/light_switch/server/CMakeFiles/light_switch_server_nrf52832_xxAA_s132_3.1.0.dir/__/__/__/mesh/access/src/access.c.obj
 .text.access_element_location_set
                0x00000000       0x20 examples/light_switch/server/CMakeFiles/light_switch_server_nrf52832_xxAA_s132_3.1.0.dir/__/__/__/mesh/access/src/access.c.obj
 .text          0x00000000        0x0 examples/light_switch/server/CMakeFiles/light_switch_server_nrf52832_xxAA_s132_3.1.0.dir/__/__/__/mesh/access/src/access_reliable.c.obj
 .data          0x00000000        0x0 examples/light_switch/server/CMakeFiles/light_switch_server_nrf52832_xxAA_s132_3.1.0.dir/__/__/__/mesh/access/src/access_reliable.c.obj
 .bss           0x00000000        0x0 examples/light_switch/server/CMakeFiles/light_switch_server_nrf52832_xxAA_s132_3.1.0.dir/__/__/__/mesh/access/src/access_reliable.c.obj
 .text.access_model_reliable_cancel
                0x00000000       0x44 examples/light_switch/server/CMakeFiles/light_switch_server_nrf52832_xxAA_s132_3.1.0.dir/__/__/__/mesh/access/src/access_reliable.c.obj
 .text.access_model_reliable_publish
                0x00000000      0x1a8 examples/light_switch/server/CMakeFiles/light_switch_server_nrf52832_xxAA_s132_3.1.0.dir/__/__/__/mesh/access/src/access_reliable.c.obj
 .text          0x00000000        0x0 examples/light_switch/server/CMakeFiles/light_switch_server_nrf52832_xxAA_s132_3.1.0.dir/__/__/__/mesh/access/src/device_state_manager.c.obj
 .data          0x00000000        0x0 examples/light_switch/server/CMakeFiles/light_switch_server_nrf52832_xxAA_s132_3.1.0.dir/__/__/__/mesh/access/src/device_state_manager.c.obj
 .bss           0x00000000        0x0 examples/light_switch/server/CMakeFiles/light_switch_server_nrf52832_xxAA_s132_3.1.0.dir/__/__/__/mesh/access/src/device_state_manager.c.obj
 .text.dsm_has_unflashed_data
                0x00000000       0x24 examples/light_switch/server/CMakeFiles/light_switch_server_nrf52832_xxAA_s132_3.1.0.dir/__/__/__/mesh/access/src/device_state_manager.c.obj
 .text.dsm_address_publish_remove
                0x00000000       0x40 examples/light_switch/server/CMakeFiles/light_switch_server_nrf52832_xxAA_s132_3.1.0.dir/__/__/__/mesh/access/src/device_state_manager.c.obj
 .text.dsm_address_subscription_count_get
                0x00000000       0x58 examples/light_switch/server/CMakeFiles/light_switch_server_nrf52832_xxAA_s132_3.1.0.dir/__/__/__/mesh/access/src/device_state_manager.c.obj
 .text.dsm_address_get_all
                0x00000000       0x64 examples/light_switch/server/CMakeFiles/light_switch_server_nrf52832_xxAA_s132_3.1.0.dir/__/__/__/mesh/access/src/device_state_manager.c.obj
 .text.dsm_subnet_handle_get
                0x00000000        0xc examples/light_switch/server/CMakeFiles/light_switch_server_nrf52832_xxAA_s132_3.1.0.dir/__/__/__/mesh/access/src/device_state_manager.c.obj
 .text.dsm_subnet_handle_to_netkey_index
                0x00000000       0x30 examples/light_switch/server/CMakeFiles/light_switch_server_nrf52832_xxAA_s132_3.1.0.dir/__/__/__/mesh/access/src/device_state_manager.c.obj
 .text.dsm_devkey_handle_get
                0x00000000       0x34 examples/light_switch/server/CMakeFiles/light_switch_server_nrf52832_xxAA_s132_3.1.0.dir/__/__/__/mesh/access/src/device_state_manager.c.obj
 .text.dsm_beacon_secmat_get
                0x00000000       0x2c examples/light_switch/server/CMakeFiles/light_switch_server_nrf52832_xxAA_s132_3.1.0.dir/__/__/__/mesh/access/src/device_state_manager.c.obj
 .text.dsm_proxy_identity_get
                0x00000000        0x4 examples/light_switch/server/CMakeFiles/light_switch_server_nrf52832_xxAA_s132_3.1.0.dir/__/__/__/mesh/access/src/device_state_manager.c.obj
 .text          0x00000000        0x0 examples/light_switch/server/CMakeFiles/light_switch_server_nrf52832_xxAA_s132_3.1.0.dir/__/__/__/mesh/prov/src/prov_provisionee.c.obj
 .data          0x00000000        0x0 examples/light_switch/server/CMakeFiles/light_switch_server_nrf52832_xxAA_s132_3.1.0.dir/__/__/__/mesh/prov/src/prov_provisionee.c.obj
 .bss           0x00000000        0x0 examples/light_switch/server/CMakeFiles/light_switch_server_nrf52832_xxAA_s132_3.1.0.dir/__/__/__/mesh/prov/src/prov_provisionee.c.obj
 .text.prov_provisionee_shared_secret
                0x00000000       0x28 examples/light_switch/server/CMakeFiles/light_switch_server_nrf52832_xxAA_s132_3.1.0.dir/__/__/__/mesh/prov/src/prov_provisionee.c.obj
 .text          0x00000000        0x0 examples/light_switch/server/CMakeFiles/light_switch_server_nrf52832_xxAA_s132_3.1.0.dir/__/__/__/mesh/prov/src/nrf_mesh_prov.c.obj
 .data          0x00000000        0x0 examples/light_switch/server/CMakeFiles/light_switch_server_nrf52832_xxAA_s132_3.1.0.dir/__/__/__/mesh/prov/src/nrf_mesh_prov.c.obj
 .bss           0x00000000        0x0 examples/light_switch/server/CMakeFiles/light_switch_server_nrf52832_xxAA_s132_3.1.0.dir/__/__/__/mesh/prov/src/nrf_mesh_prov.c.obj
 .text.nrf_mesh_prov_provision
                0x00000000       0x4e examples/light_switch/server/CMakeFiles/light_switch_server_nrf52832_xxAA_s132_3.1.0.dir/__/__/__/mesh/prov/src/nrf_mesh_prov.c.obj
 .text.nrf_mesh_prov_oob_use
                0x00000000        0xe examples/light_switch/server/CMakeFiles/light_switch_server_nrf52832_xxAA_s132_3.1.0.dir/__/__/__/mesh/prov/src/nrf_mesh_prov.c.obj
 .text.nrf_mesh_prov_shared_secret_provide
                0x00000000        0xe examples/light_switch/server/CMakeFiles/light_switch_server_nrf52832_xxAA_s132_3.1.0.dir/__/__/__/mesh/prov/src/nrf_mesh_prov.c.obj
 .text.nrf_mesh_prov_pubkey_provide
                0x00000000       0x10 examples/light_switch/server/CMakeFiles/light_switch_server_nrf52832_xxAA_s132_3.1.0.dir/__/__/__/mesh/prov/src/nrf_mesh_prov.c.obj
 .text.nrf_mesh_prov_scan_start
                0x00000000       0x10 examples/light_switch/server/CMakeFiles/light_switch_server_nrf52832_xxAA_s132_3.1.0.dir/__/__/__/mesh/prov/src/nrf_mesh_prov.c.obj
 .text.nrf_mesh_prov_scan_stop
                0x00000000        0x4 examples/light_switch/server/CMakeFiles/light_switch_server_nrf52832_xxAA_s132_3.1.0.dir/__/__/__/mesh/prov/src/nrf_mesh_prov.c.obj
 .text          0x00000000        0x0 examples/light_switch/server/CMakeFiles/light_switch_server_nrf52832_xxAA_s132_3.1.0.dir/__/__/__/mesh/prov/src/provisioning.c.obj
 .data          0x00000000        0x0 examples/light_switch/server/CMakeFiles/light_switch_server_nrf52832_xxAA_s132_3.1.0.dir/__/__/__/mesh/prov/src/provisioning.c.obj
 .bss           0x00000000        0x0 examples/light_switch/server/CMakeFiles/light_switch_server_nrf52832_xxAA_s132_3.1.0.dir/__/__/__/mesh/prov/src/provisioning.c.obj
 .text.prov_tx_invite
                0x00000000       0x28 examples/light_switch/server/CMakeFiles/light_switch_server_nrf52832_xxAA_s132_3.1.0.dir/__/__/__/mesh/prov/src/provisioning.c.obj
 .text.prov_tx_start
                0x00000000       0x20 examples/light_switch/server/CMakeFiles/light_switch_server_nrf52832_xxAA_s132_3.1.0.dir/__/__/__/mesh/prov/src/provisioning.c.obj
 .text.prov_tx_data
                0x00000000        0x6 examples/light_switch/server/CMakeFiles/light_switch_server_nrf52832_xxAA_s132_3.1.0.dir/__/__/__/mesh/prov/src/provisioning.c.obj
 .text.prov_tx  0x00000000        0x4 examples/light_switch/server/CMakeFiles/light_switch_server_nrf52832_xxAA_s132_3.1.0.dir/__/__/__/mesh/prov/src/provisioning.c.obj
 .text          0x00000000        0x0 examples/light_switch/server/CMakeFiles/light_switch_server_nrf52832_xxAA_s132_3.1.0.dir/__/__/__/mesh/prov/src/prov_beacon.c.obj
 .data          0x00000000        0x0 examples/light_switch/server/CMakeFiles/light_switch_server_nrf52832_xxAA_s132_3.1.0.dir/__/__/__/mesh/prov/src/prov_beacon.c.obj
 .bss           0x00000000        0x0 examples/light_switch/server/CMakeFiles/light_switch_server_nrf52832_xxAA_s132_3.1.0.dir/__/__/__/mesh/prov/src/prov_beacon.c.obj
 .text.prov_beacon_scan_start
                0x00000000       0x24 examples/light_switch/server/CMakeFiles/light_switch_server_nrf52832_xxAA_s132_3.1.0.dir/__/__/__/mesh/prov/src/prov_beacon.c.obj
 .text.prov_beacon_scan_stop
                0x00000000        0xc examples/light_switch/server/CMakeFiles/light_switch_server_nrf52832_xxAA_s132_3.1.0.dir/__/__/__/mesh/prov/src/prov_beacon.c.obj
 .text          0x00000000        0x0 examples/light_switch/server/CMakeFiles/light_switch_server_nrf52832_xxAA_s132_3.1.0.dir/__/__/__/mesh/prov/src/prov_utils.c.obj
 .data          0x00000000        0x0 examples/light_switch/server/CMakeFiles/light_switch_server_nrf52832_xxAA_s132_3.1.0.dir/__/__/__/mesh/prov/src/prov_utils.c.obj
 .bss           0x00000000        0x0 examples/light_switch/server/CMakeFiles/light_switch_server_nrf52832_xxAA_s132_3.1.0.dir/__/__/__/mesh/prov/src/prov_utils.c.obj
 .text          0x00000000        0x0 examples/light_switch/server/CMakeFiles/light_switch_server_nrf52832_xxAA_s132_3.1.0.dir/__/__/__/mesh/prov/src/prov_bearer_adv.c.obj
 .data          0x00000000        0x0 examples/light_switch/server/CMakeFiles/light_switch_server_nrf52832_xxAA_s132_3.1.0.dir/__/__/__/mesh/prov/src/prov_bearer_adv.c.obj
 .bss           0x00000000        0x0 examples/light_switch/server/CMakeFiles/light_switch_server_nrf52832_xxAA_s132_3.1.0.dir/__/__/__/mesh/prov/src/prov_bearer_adv.c.obj
 .text          0x00000000        0x0 examples/light_switch/server/CMakeFiles/light_switch_server_nrf52832_xxAA_s132_3.1.0.dir/__/__/__/mesh/access/src/nrf_mesh_node_config.c.obj
 .data          0x00000000        0x0 examples/light_switch/server/CMakeFiles/light_switch_server_nrf52832_xxAA_s132_3.1.0.dir/__/__/__/mesh/access/src/nrf_mesh_node_config.c.obj
 .bss           0x00000000        0x0 examples/light_switch/server/CMakeFiles/light_switch_server_nrf52832_xxAA_s132_3.1.0.dir/__/__/__/mesh/access/src/nrf_mesh_node_config.c.obj
 .text.nrf_mesh_node_config_clear
                0x00000000       0x22 examples/light_switch/server/CMakeFiles/light_switch_server_nrf52832_xxAA_s132_3.1.0.dir/__/__/__/mesh/access/src/nrf_mesh_node_config.c.obj
 .text          0x00000000        0x0 examples/light_switch/server/CMakeFiles/light_switch_server_nrf52832_xxAA_s132_3.1.0.dir/__/__/__/external/nRF5_SDK_14.2.0_17b948a/components/toolchain/system_nrf52.c.obj
 .data          0x00000000        0x0 examples/light_switch/server/CMakeFiles/light_switch_server_nrf52832_xxAA_s132_3.1.0.dir/__/__/__/external/nRF5_SDK_14.2.0_17b948a/components/toolchain/system_nrf52.c.obj
 .bss           0x00000000        0x0 examples/light_switch/server/CMakeFiles/light_switch_server_nrf52832_xxAA_s132_3.1.0.dir/__/__/__/external/nRF5_SDK_14.2.0_17b948a/components/toolchain/system_nrf52.c.obj
 .text.SystemCoreClockUpdate
                0x00000000       0x10 examples/light_switch/server/CMakeFiles/light_switch_server_nrf52832_xxAA_s132_3.1.0.dir/__/__/__/external/nRF5_SDK_14.2.0_17b948a/components/toolchain/system_nrf52.c.obj
 .data          0x00000000        0x0 examples/light_switch/server/CMakeFiles/light_switch_server_nrf52832_xxAA_s132_3.1.0.dir/__/__/__/external/nRF5_SDK_14.2.0_17b948a/components/toolchain/gcc/gcc_startup_nrf52.S.obj
 .bss           0x00000000        0x0 examples/light_switch/server/CMakeFiles/light_switch_server_nrf52832_xxAA_s132_3.1.0.dir/__/__/__/external/nRF5_SDK_14.2.0_17b948a/components/toolchain/gcc/gcc_startup_nrf52.S.obj
 .text          0x00000000        0x0 mesh/core/libmesh_core_nrf52832_xxAA.a(nrf_mesh_configure.c.obj)
 .data          0x00000000        0x0 mesh/core/libmesh_core_nrf52832_xxAA.a(nrf_mesh_configure.c.obj)
 .bss           0x00000000        0x0 mesh/core/libmesh_core_nrf52832_xxAA.a(nrf_mesh_configure.c.obj)
 .text.nrf_mesh_configure_device_uuid_set
                0x00000000       0x10 mesh/core/libmesh_core_nrf52832_xxAA.a(nrf_mesh_configure.c.obj)
 .text          0x00000000        0x0 mesh/core/libmesh_core_nrf52832_xxAA.a(event.c.obj)
 .data          0x00000000        0x0 mesh/core/libmesh_core_nrf52832_xxAA.a(event.c.obj)
 .bss           0x00000000        0x0 mesh/core/libmesh_core_nrf52832_xxAA.a(event.c.obj)
 .text          0x00000000        0x0 mesh/core/libmesh_core_nrf52832_xxAA.a(net_state.c.obj)
 .data          0x00000000        0x0 mesh/core/libmesh_core_nrf52832_xxAA.a(net_state.c.obj)
 .bss           0x00000000        0x0 mesh/core/libmesh_core_nrf52832_xxAA.a(net_state.c.obj)
 .text.net_state_iv_update_test_mode_set
                0x00000000        0xc mesh/core/libmesh_core_nrf52832_xxAA.a(net_state.c.obj)
 .text          0x00000000        0x0 mesh/core/libmesh_core_nrf52832_xxAA.a(nrf_mesh_utils.c.obj)
 .data          0x00000000        0x0 mesh/core/libmesh_core_nrf52832_xxAA.a(nrf_mesh_utils.c.obj)
 .bss           0x00000000        0x0 mesh/core/libmesh_core_nrf52832_xxAA.a(nrf_mesh_utils.c.obj)
 .text.nrf_mesh_rand_get
                0x00000000       0x10 mesh/core/libmesh_core_nrf52832_xxAA.a(nrf_mesh_utils.c.obj)
 .text.nrf_mesh_gap_address_type_get
                0x00000000       0x3c mesh/core/libmesh_core_nrf52832_xxAA.a(nrf_mesh_utils.c.obj)
 .text          0x00000000        0x0 mesh/core/libmesh_core_nrf52832_xxAA.a(nrf_mesh.c.obj)
 .data          0x00000000        0x0 mesh/core/libmesh_core_nrf52832_xxAA.a(nrf_mesh.c.obj)
 .bss           0x00000000        0x0 mesh/core/libmesh_core_nrf52832_xxAA.a(nrf_mesh.c.obj)
 .text.nrf_mesh_disable
                0x00000000       0x28 mesh/core/libmesh_core_nrf52832_xxAA.a(nrf_mesh.c.obj)
 .text.nrf_mesh_process
                0x00000000        0x4 mesh/core/libmesh_core_nrf52832_xxAA.a(nrf_mesh.c.obj)
 .text.nrf_mesh_evt_handler_remove
                0x00000000        0x4 mesh/core/libmesh_core_nrf52832_xxAA.a(nrf_mesh.c.obj)
 .text.nrf_mesh_rx_cb_set
                0x00000000        0xc mesh/core/libmesh_core_nrf52832_xxAA.a(nrf_mesh.c.obj)
 .text.nrf_mesh_rx_cb_clear
                0x00000000        0xc mesh/core/libmesh_core_nrf52832_xxAA.a(nrf_mesh.c.obj)
 .text          0x00000000        0x0 mesh/core/libmesh_core_nrf52832_xxAA.a(hal.c.obj)
 .data          0x00000000        0x0 mesh/core/libmesh_core_nrf52832_xxAA.a(hal.c.obj)
 .bss           0x00000000        0x0 mesh/core/libmesh_core_nrf52832_xxAA.a(hal.c.obj)
 .text          0x00000000        0x0 mesh/core/libmesh_core_nrf52832_xxAA.a(timer_scheduler.c.obj)
 .data          0x00000000        0x0 mesh/core/libmesh_core_nrf52832_xxAA.a(timer_scheduler.c.obj)
 .bss           0x00000000        0x0 mesh/core/libmesh_core_nrf52832_xxAA.a(timer_scheduler.c.obj)
 .text          0x00000000        0x0 mesh/core/libmesh_core_nrf52832_xxAA.a(timer.c.obj)
 .data          0x00000000        0x0 mesh/core/libmesh_core_nrf52832_xxAA.a(timer.c.obj)
 .bss           0x00000000        0x0 mesh/core/libmesh_core_nrf52832_xxAA.a(timer.c.obj)
 .text.timer_order_cb_ppi
                0x00000000       0xc4 mesh/core/libmesh_core_nrf52832_xxAA.a(timer.c.obj)
 .text.timer_order_ppi
                0x00000000       0xc0 mesh/core/libmesh_core_nrf52832_xxAA.a(timer.c.obj)
 .text.timer_abort
                0x00000000       0x78 mesh/core/libmesh_core_nrf52832_xxAA.a(timer.c.obj)
 .text          0x00000000        0x0 mesh/core/libmesh_core_nrf52832_xxAA.a(ticker.c.obj)
 .data          0x00000000        0x0 mesh/core/libmesh_core_nrf52832_xxAA.a(ticker.c.obj)
 .bss           0x00000000        0x0 mesh/core/libmesh_core_nrf52832_xxAA.a(ticker.c.obj)
 .text.ticker_get
                0x00000000        0xc mesh/core/libmesh_core_nrf52832_xxAA.a(ticker.c.obj)
 .text          0x00000000        0x0 mesh/core/libmesh_core_nrf52832_xxAA.a(rand.c.obj)
 .data          0x00000000        0x0 mesh/core/libmesh_core_nrf52832_xxAA.a(rand.c.obj)
 .bss           0x00000000        0x0 mesh/core/libmesh_core_nrf52832_xxAA.a(rand.c.obj)
 .text          0x00000000        0x0 mesh/core/libmesh_core_nrf52832_xxAA.a(nrf_mesh_opt.c.obj)
 .data          0x00000000        0x0 mesh/core/libmesh_core_nrf52832_xxAA.a(nrf_mesh_opt.c.obj)
 .bss           0x00000000        0x0 mesh/core/libmesh_core_nrf52832_xxAA.a(nrf_mesh_opt.c.obj)
 .text          0x00000000        0x0 mesh/core/libmesh_core_nrf52832_xxAA.a(timeslot.c.obj)
 .data          0x00000000        0x0 mesh/core/libmesh_core_nrf52832_xxAA.a(timeslot.c.obj)
 .bss           0x00000000        0x0 mesh/core/libmesh_core_nrf52832_xxAA.a(timeslot.c.obj)
 .text.timeslot_end_time_get
                0x00000000       0x10 mesh/core/libmesh_core_nrf52832_xxAA.a(timeslot.c.obj)
 .text.timeslot_is_in_ts
                0x00000000        0xc mesh/core/libmesh_core_nrf52832_xxAA.a(timeslot.c.obj)
 .text.timeslot_restart
                0x00000000       0x10 mesh/core/libmesh_core_nrf52832_xxAA.a(timeslot.c.obj)
 .text          0x00000000        0x0 mesh/core/libmesh_core_nrf52832_xxAA.a(bearer_event.c.obj)
 .data          0x00000000        0x0 mesh/core/libmesh_core_nrf52832_xxAA.a(bearer_event.c.obj)
 .bss           0x00000000        0x0 mesh/core/libmesh_core_nrf52832_xxAA.a(bearer_event.c.obj)
 .text.bearer_event_generic_post
                0x00000000       0x30 mesh/core/libmesh_core_nrf52832_xxAA.a(bearer_event.c.obj)
 .text.bearer_event_timer_sch_post
                0x00000000       0x34 mesh/core/libmesh_core_nrf52832_xxAA.a(bearer_event.c.obj)
 .text.bearer_event_in_correct_irq_priority
                0x00000000       0x48 mesh/core/libmesh_core_nrf52832_xxAA.a(bearer_event.c.obj)
 .text          0x00000000        0x0 mesh/core/libmesh_core_nrf52832_xxAA.a(enc.c.obj)
 .data          0x00000000        0x0 mesh/core/libmesh_core_nrf52832_xxAA.a(enc.c.obj)
 .bss           0x00000000        0x0 mesh/core/libmesh_core_nrf52832_xxAA.a(enc.c.obj)
 .text.enc_key_generate
                0x00000000        0x6 mesh/core/libmesh_core_nrf52832_xxAA.a(enc.c.obj)
 .text          0x00000000        0x0 mesh/core/libmesh_core_nrf52832_xxAA.a(network.c.obj)
 .data          0x00000000        0x0 mesh/core/libmesh_core_nrf52832_xxAA.a(network.c.obj)
 .bss           0x00000000        0x0 mesh/core/libmesh_core_nrf52832_xxAA.a(network.c.obj)
 .text.network_packet_discard
                0x00000000       0x3c mesh/core/libmesh_core_nrf52832_xxAA.a(network.c.obj)
 .text          0x00000000        0x0 mesh/core/libmesh_core_nrf52832_xxAA.a(nrf_mesh_keygen.c.obj)
 .data          0x00000000        0x0 mesh/core/libmesh_core_nrf52832_xxAA.a(nrf_mesh_keygen.c.obj)
 .bss           0x00000000        0x0 mesh/core/libmesh_core_nrf52832_xxAA.a(nrf_mesh_keygen.c.obj)
 .text.nrf_mesh_keygen_identitykey
                0x00000000       0x4c mesh/core/libmesh_core_nrf52832_xxAA.a(nrf_mesh_keygen.c.obj)
 .text          0x00000000        0x0 mesh/core/libmesh_core_nrf52832_xxAA.a(list.c.obj)
 .data          0x00000000        0x0 mesh/core/libmesh_core_nrf52832_xxAA.a(list.c.obj)
 .bss           0x00000000        0x0 mesh/core/libmesh_core_nrf52832_xxAA.a(list.c.obj)
 .text.list_size_get
                0x00000000       0x12 mesh/core/libmesh_core_nrf52832_xxAA.a(list.c.obj)
 .text.list_sorted_add
                0x00000000       0x90 mesh/core/libmesh_core_nrf52832_xxAA.a(list.c.obj)
 .text          0x00000000        0x0 mesh/core/libmesh_core_nrf52832_xxAA.a(log.c.obj)
 .data          0x00000000        0x0 mesh/core/libmesh_core_nrf52832_xxAA.a(log.c.obj)
 .bss           0x00000000        0x0 mesh/core/libmesh_core_nrf52832_xxAA.a(log.c.obj)
 .text.log_callback_logview
                0x00000000       0x38 mesh/core/libmesh_core_nrf52832_xxAA.a(log.c.obj)
 .text.log_set_callback
                0x00000000        0xc mesh/core/libmesh_core_nrf52832_xxAA.a(log.c.obj)
 .rodata.log_callback_logview.str1.1
                0x00000000        0xf mesh/core/libmesh_core_nrf52832_xxAA.a(log.c.obj)
 .text          0x00000000        0x0 mesh/core/libmesh_core_nrf52832_xxAA.a(flash_manager.c.obj)
 .data          0x00000000        0x0 mesh/core/libmesh_core_nrf52832_xxAA.a(flash_manager.c.obj)
 .bss           0x00000000        0x0 mesh/core/libmesh_core_nrf52832_xxAA.a(flash_manager.c.obj)
 .text.flash_manager_entry_count_get
                0x00000000       0x5c mesh/core/libmesh_core_nrf52832_xxAA.a(flash_manager.c.obj)
 .text.flash_manager_entry_release
                0x00000000       0x12 mesh/core/libmesh_core_nrf52832_xxAA.a(flash_manager.c.obj)
 .text          0x00000000        0x0 mesh/core/libmesh_core_nrf52832_xxAA.a(ccm_soft.c.obj)
 .data          0x00000000        0x0 mesh/core/libmesh_core_nrf52832_xxAA.a(ccm_soft.c.obj)
 .bss           0x00000000        0x0 mesh/core/libmesh_core_nrf52832_xxAA.a(ccm_soft.c.obj)
 .text          0x00000000        0x0 mesh/core/libmesh_core_nrf52832_xxAA.a(beacon.c.obj)
 .data          0x00000000        0x0 mesh/core/libmesh_core_nrf52832_xxAA.a(beacon.c.obj)
 .bss           0x00000000        0x0 mesh/core/libmesh_core_nrf52832_xxAA.a(beacon.c.obj)
 .text          0x00000000        0x0 mesh/core/libmesh_core_nrf52832_xxAA.a(flash_manager_internal.c.obj)
 .data          0x00000000        0x0 mesh/core/libmesh_core_nrf52832_xxAA.a(flash_manager_internal.c.obj)
 .bss           0x00000000        0x0 mesh/core/libmesh_core_nrf52832_xxAA.a(flash_manager_internal.c.obj)
 .text          0x00000000        0x0 mesh/core/libmesh_core_nrf52832_xxAA.a(core_tx.c.obj)
 .data          0x00000000        0x0 mesh/core/libmesh_core_nrf52832_xxAA.a(core_tx.c.obj)
 .bss           0x00000000        0x0 mesh/core/libmesh_core_nrf52832_xxAA.a(core_tx.c.obj)
 .text          0x00000000        0x0 mesh/core/libmesh_core_nrf52832_xxAA.a(heartbeat.c.obj)
 .data          0x00000000        0x0 mesh/core/libmesh_core_nrf52832_xxAA.a(heartbeat.c.obj)
 .bss           0x00000000        0x0 mesh/core/libmesh_core_nrf52832_xxAA.a(heartbeat.c.obj)
 .text          0x00000000        0x0 mesh/core/libmesh_core_nrf52832_xxAA.a(net_beacon.c.obj)
 .data          0x00000000        0x0 mesh/core/libmesh_core_nrf52832_xxAA.a(net_beacon.c.obj)
 .bss           0x00000000        0x0 mesh/core/libmesh_core_nrf52832_xxAA.a(net_beacon.c.obj)
 .text          0x00000000        0x0 mesh/core/libmesh_core_nrf52832_xxAA.a(core_tx_adv.c.obj)
 .data          0x00000000        0x0 mesh/core/libmesh_core_nrf52832_xxAA.a(core_tx_adv.c.obj)
 .bss           0x00000000        0x0 mesh/core/libmesh_core_nrf52832_xxAA.a(core_tx_adv.c.obj)
 .text.core_tx_adv_address_set
                0x00000000       0x34 mesh/core/libmesh_core_nrf52832_xxAA.a(core_tx_adv.c.obj)
 .text          0x00000000        0x0 mesh/core/libmesh_core_nrf52832_xxAA.a(ad_listener.c.obj)
 .data          0x00000000        0x0 mesh/core/libmesh_core_nrf52832_xxAA.a(ad_listener.c.obj)
 .bss           0x00000000        0x0 mesh/core/libmesh_core_nrf52832_xxAA.a(ad_listener.c.obj)
 .text.ad_listener_unsubscribe
                0x00000000       0x6c mesh/core/libmesh_core_nrf52832_xxAA.a(ad_listener.c.obj)
 .text          0x00000000        0x0 mesh/core/libmesh_core_nrf52832_xxAA.a(ad_type_filter.c.obj)
 .data          0x00000000        0x0 mesh/core/libmesh_core_nrf52832_xxAA.a(ad_type_filter.c.obj)
 .bss           0x00000000        0x0 mesh/core/libmesh_core_nrf52832_xxAA.a(ad_type_filter.c.obj)
 .text.bearer_adtype_remove
                0x00000000       0x20 mesh/core/libmesh_core_nrf52832_xxAA.a(ad_type_filter.c.obj)
 .text.bearer_adtype_clear
                0x00000000       0x10 mesh/core/libmesh_core_nrf52832_xxAA.a(ad_type_filter.c.obj)
 .text.bearer_invalid_length_amount_get
                0x00000000        0xc mesh/core/libmesh_core_nrf52832_xxAA.a(ad_type_filter.c.obj)
 .text.bearer_adtype_filtered_amount_get
                0x00000000        0xc mesh/core/libmesh_core_nrf52832_xxAA.a(ad_type_filter.c.obj)
 .text          0x00000000        0x0 mesh/core/libmesh_core_nrf52832_xxAA.a(advertiser.c.obj)
 .data          0x00000000        0x0 mesh/core/libmesh_core_nrf52832_xxAA.a(advertiser.c.obj)
 .bss           0x00000000        0x0 mesh/core/libmesh_core_nrf52832_xxAA.a(advertiser.c.obj)
 .text.advertiser_disable
                0x00000000        0xa mesh/core/libmesh_core_nrf52832_xxAA.a(advertiser.c.obj)
 .text.advertiser_channels_set
                0x00000000       0x84 mesh/core/libmesh_core_nrf52832_xxAA.a(advertiser.c.obj)
 .text.advertiser_address_set
                0x00000000       0x50 mesh/core/libmesh_core_nrf52832_xxAA.a(advertiser.c.obj)
 .text.advertiser_config_set
                0x00000000       0x44 mesh/core/libmesh_core_nrf52832_xxAA.a(advertiser.c.obj)
 .text.advertiser_config_get
                0x00000000       0x2c mesh/core/libmesh_core_nrf52832_xxAA.a(advertiser.c.obj)
 .text          0x00000000        0x0 mesh/core/libmesh_core_nrf52832_xxAA.a(bearer_handler.c.obj)
 .data          0x00000000        0x0 mesh/core/libmesh_core_nrf52832_xxAA.a(bearer_handler.c.obj)
 .bss           0x00000000        0x0 mesh/core/libmesh_core_nrf52832_xxAA.a(bearer_handler.c.obj)
 .text.bearer_handler_stop
                0x00000000       0x20 mesh/core/libmesh_core_nrf52832_xxAA.a(bearer_handler.c.obj)
 .text.bearer_handler_action_fire
                0x00000000       0xbc mesh/core/libmesh_core_nrf52832_xxAA.a(bearer_handler.c.obj)
 .text          0x00000000        0x0 mesh/core/libmesh_core_nrf52832_xxAA.a(broadcast.c.obj)
 .data          0x00000000        0x0 mesh/core/libmesh_core_nrf52832_xxAA.a(broadcast.c.obj)
 .bss           0x00000000        0x0 mesh/core/libmesh_core_nrf52832_xxAA.a(broadcast.c.obj)
 .text          0x00000000        0x0 mesh/core/libmesh_core_nrf52832_xxAA.a(filter_engine.c.obj)
 .data          0x00000000        0x0 mesh/core/libmesh_core_nrf52832_xxAA.a(filter_engine.c.obj)
 .bss           0x00000000        0x0 mesh/core/libmesh_core_nrf52832_xxAA.a(filter_engine.c.obj)
 .text.fen_accepted_amount_get
                0x00000000        0xc mesh/core/libmesh_core_nrf52832_xxAA.a(filter_engine.c.obj)
 .text          0x00000000        0x0 mesh/core/libmesh_core_nrf52832_xxAA.a(radio_config.c.obj)
 .data          0x00000000        0x0 mesh/core/libmesh_core_nrf52832_xxAA.a(radio_config.c.obj)
 .bss           0x00000000        0x0 mesh/core/libmesh_core_nrf52832_xxAA.a(radio_config.c.obj)
 .text.radio_config_access_addr_get
                0x00000000       0x64 mesh/core/libmesh_core_nrf52832_xxAA.a(radio_config.c.obj)
 .text          0x00000000        0x0 mesh/core/libmesh_core_nrf52832_xxAA.a(scanner.c.obj)
 .data          0x00000000        0x0 mesh/core/libmesh_core_nrf52832_xxAA.a(scanner.c.obj)
 .bss           0x00000000        0x0 mesh/core/libmesh_core_nrf52832_xxAA.a(scanner.c.obj)
 .text.scanner_rx_callback_set
                0x00000000       0x2c mesh/core/libmesh_core_nrf52832_xxAA.a(scanner.c.obj)
 .text.scanner_disable
                0x00000000       0x48 mesh/core/libmesh_core_nrf52832_xxAA.a(scanner.c.obj)
 .text.scanner_is_enabled
                0x00000000       0x10 mesh/core/libmesh_core_nrf52832_xxAA.a(scanner.c.obj)
 .text.scanner_stats_get
                0x00000000        0x8 mesh/core/libmesh_core_nrf52832_xxAA.a(scanner.c.obj)
 .text.scanner_config_radio_mode_set
                0x00000000       0x10 mesh/core/libmesh_core_nrf52832_xxAA.a(scanner.c.obj)
 .text          0x00000000        0x0 mesh/core/libmesh_core_nrf52832_xxAA.a(internal_event.c.obj)
 .data          0x00000000        0x0 mesh/core/libmesh_core_nrf52832_xxAA.a(internal_event.c.obj)
 .bss           0x00000000        0x0 mesh/core/libmesh_core_nrf52832_xxAA.a(internal_event.c.obj)
 .text.internal_event_init
                0x00000000       0x40 mesh/core/libmesh_core_nrf52832_xxAA.a(internal_event.c.obj)
 .text.internal_event_pop
                0x00000000       0x1c mesh/core/libmesh_core_nrf52832_xxAA.a(internal_event.c.obj)
 .bss.m_internal_event_fifo_buffer
                0x00000000      0x100 mesh/core/libmesh_core_nrf52832_xxAA.a(internal_event.c.obj)
 .text          0x00000000        0x0 mesh/core/libmesh_core_nrf52832_xxAA.a(aes.c.obj)
 .data          0x00000000        0x0 mesh/core/libmesh_core_nrf52832_xxAA.a(aes.c.obj)
 .bss           0x00000000        0x0 mesh/core/libmesh_core_nrf52832_xxAA.a(aes.c.obj)
 .text          0x00000000        0x0 mesh/core/libmesh_core_nrf52832_xxAA.a(msg_cache.c.obj)
 .data          0x00000000        0x0 mesh/core/libmesh_core_nrf52832_xxAA.a(msg_cache.c.obj)
 .bss           0x00000000        0x0 mesh/core/libmesh_core_nrf52832_xxAA.a(msg_cache.c.obj)
 .text.msg_cache_clear
                0x00000000       0x18 mesh/core/libmesh_core_nrf52832_xxAA.a(msg_cache.c.obj)
 .text          0x00000000        0x0 mesh/core/libmesh_core_nrf52832_xxAA.a(transport.c.obj)
 .data          0x00000000        0x0 mesh/core/libmesh_core_nrf52832_xxAA.a(transport.c.obj)
 .bss           0x00000000        0x0 mesh/core/libmesh_core_nrf52832_xxAA.a(transport.c.obj)
 .text.transport_sar_mem_funcs_set
                0x00000000       0x44 mesh/core/libmesh_core_nrf52832_xxAA.a(transport.c.obj)
 .text          0x00000000        0x0 mesh/core/libmesh_core_nrf52832_xxAA.a(packet_buffer.c.obj)
 .data          0x00000000        0x0 mesh/core/libmesh_core_nrf52832_xxAA.a(packet_buffer.c.obj)
 .bss           0x00000000        0x0 mesh/core/libmesh_core_nrf52832_xxAA.a(packet_buffer.c.obj)
 .text.packet_buffer_max_packet_len_get
                0x00000000       0x34 mesh/core/libmesh_core_nrf52832_xxAA.a(packet_buffer.c.obj)
 .text          0x00000000        0x0 mesh/core/libmesh_core_nrf52832_xxAA.a(flash_manager_defrag.c.obj)
 .data          0x00000000        0x0 mesh/core/libmesh_core_nrf52832_xxAA.a(flash_manager_defrag.c.obj)
 .bss           0x00000000        0x0 mesh/core/libmesh_core_nrf52832_xxAA.a(flash_manager_defrag.c.obj)
 .text.flash_manager_defragging
                0x00000000       0x44 mesh/core/libmesh_core_nrf52832_xxAA.a(flash_manager_defrag.c.obj)
 .text          0x00000000        0x0 mesh/core/libmesh_core_nrf52832_xxAA.a(fifo.c.obj)
 .data          0x00000000        0x0 mesh/core/libmesh_core_nrf52832_xxAA.a(fifo.c.obj)
 .bss           0x00000000        0x0 mesh/core/libmesh_core_nrf52832_xxAA.a(fifo.c.obj)
 .text.fifo_peek_at
                0x00000000       0x50 mesh/core/libmesh_core_nrf52832_xxAA.a(fifo.c.obj)
 .text.fifo_peek
                0x00000000        0x6 mesh/core/libmesh_core_nrf52832_xxAA.a(fifo.c.obj)
 .text.fifo_flush
                0x00000000        0x6 mesh/core/libmesh_core_nrf52832_xxAA.a(fifo.c.obj)
 .text.fifo_get_len
                0x00000000        0x8 mesh/core/libmesh_core_nrf52832_xxAA.a(fifo.c.obj)
 .text.fifo_is_full
                0x00000000       0x10 mesh/core/libmesh_core_nrf52832_xxAA.a(fifo.c.obj)
 .text.fifo_is_empty
                0x00000000        0xc mesh/core/libmesh_core_nrf52832_xxAA.a(fifo.c.obj)
 .text          0x00000000        0x0 mesh/core/libmesh_core_nrf52832_xxAA.a(packet_mgr.c.obj)
 .data          0x00000000        0x0 mesh/core/libmesh_core_nrf52832_xxAA.a(packet_mgr.c.obj)
 .bss           0x00000000        0x0 mesh/core/libmesh_core_nrf52832_xxAA.a(packet_mgr.c.obj)
 .text.packet_mgr_alloc
                0x00000000      0x19c mesh/core/libmesh_core_nrf52832_xxAA.a(packet_mgr.c.obj)
 .text.packet_mgr_free
                0x00000000       0x6c mesh/core/libmesh_core_nrf52832_xxAA.a(packet_mgr.c.obj)
 .text.packet_mgr_get_free_space
                0x00000000       0x1c mesh/core/libmesh_core_nrf52832_xxAA.a(packet_mgr.c.obj)
 .text.packet_mgr_refcount_get
                0x00000000        0x6 mesh/core/libmesh_core_nrf52832_xxAA.a(packet_mgr.c.obj)
 .text.packet_mgr_size_get
                0x00000000        0x6 mesh/core/libmesh_core_nrf52832_xxAA.a(packet_mgr.c.obj)
 .text          0x00000000        0x0 mesh/core/libmesh_core_nrf52832_xxAA.a(mesh_flash.c.obj)
 .data          0x00000000        0x0 mesh/core/libmesh_core_nrf52832_xxAA.a(mesh_flash.c.obj)
 .bss           0x00000000        0x0 mesh/core/libmesh_core_nrf52832_xxAA.a(mesh_flash.c.obj)
 .text.mesh_flash_op_available_slots
                0x00000000       0x2c mesh/core/libmesh_core_nrf52832_xxAA.a(mesh_flash.c.obj)
 .text.mesh_flash_in_progress
                0x00000000       0x34 mesh/core/libmesh_core_nrf52832_xxAA.a(mesh_flash.c.obj)
 .text.mesh_flash_set_suspended
                0x00000000       0x80 mesh/core/libmesh_core_nrf52832_xxAA.a(mesh_flash.c.obj)
 .bss.suspend_count.9905
                0x00000000        0x4 mesh/core/libmesh_core_nrf52832_xxAA.a(mesh_flash.c.obj)
 .text          0x00000000        0x0 mesh/core/libmesh_core_nrf52832_xxAA.a(queue.c.obj)
 .data          0x00000000        0x0 mesh/core/libmesh_core_nrf52832_xxAA.a(queue.c.obj)
 .bss           0x00000000        0x0 mesh/core/libmesh_core_nrf52832_xxAA.a(queue.c.obj)
 .text          0x00000000        0x0 mesh/core/libmesh_core_nrf52832_xxAA.a(aes_cmac.c.obj)
 .data          0x00000000        0x0 mesh/core/libmesh_core_nrf52832_xxAA.a(aes_cmac.c.obj)
 .bss           0x00000000        0x0 mesh/core/libmesh_core_nrf52832_xxAA.a(aes_cmac.c.obj)
 .text          0x00000000        0x0 mesh/core/libmesh_core_nrf52832_xxAA.a(msqueue.c.obj)
 .data          0x00000000        0x0 mesh/core/libmesh_core_nrf52832_xxAA.a(msqueue.c.obj)
 .bss           0x00000000        0x0 mesh/core/libmesh_core_nrf52832_xxAA.a(msqueue.c.obj)
 .text          0x00000000        0x0 mesh/core/libmesh_core_nrf52832_xxAA.a(replay_cache.c.obj)
 .data          0x00000000        0x0 mesh/core/libmesh_core_nrf52832_xxAA.a(replay_cache.c.obj)
 .bss           0x00000000        0x0 mesh/core/libmesh_core_nrf52832_xxAA.a(replay_cache.c.obj)
 .text.replay_cache_on_iv_update
                0x00000000       0x24 mesh/core/libmesh_core_nrf52832_xxAA.a(replay_cache.c.obj)
 .text          0x00000000        0x0 mesh/core/libmesh_core_nrf52832_xxAA.a(nrf_flash.c.obj)
 .data          0x00000000        0x0 mesh/core/libmesh_core_nrf52832_xxAA.a(nrf_flash.c.obj)
 .bss           0x00000000        0x0 mesh/core/libmesh_core_nrf52832_xxAA.a(nrf_flash.c.obj)
 .text          0x00000000        0x0 external/rtt/librtt_nrf52832_xxAA.a(SEGGER_RTT.c.obj)
 .data          0x00000000        0x0 external/rtt/librtt_nrf52832_xxAA.a(SEGGER_RTT.c.obj)
 .bss           0x00000000        0x0 external/rtt/librtt_nrf52832_xxAA.a(SEGGER_RTT.c.obj)
 .text._PostTerminalSwitch.constprop.0
                0x00000000       0x28 external/rtt/librtt_nrf52832_xxAA.a(SEGGER_RTT.c.obj)
 .text.SEGGER_RTT_ReadNoLock
                0x00000000       0x88 external/rtt/librtt_nrf52832_xxAA.a(SEGGER_RTT.c.obj)
 .text.SEGGER_RTT_Read
                0x00000000       0x1c external/rtt/librtt_nrf52832_xxAA.a(SEGGER_RTT.c.obj)
 .text.SEGGER_RTT_WriteSkipNoLock
                0x00000000       0xb4 external/rtt/librtt_nrf52832_xxAA.a(SEGGER_RTT.c.obj)
 .text.SEGGER_RTT_WriteString
                0x00000000       0x1a external/rtt/librtt_nrf52832_xxAA.a(SEGGER_RTT.c.obj)
 .text.SEGGER_RTT_GetKey
                0x00000000       0x20 external/rtt/librtt_nrf52832_xxAA.a(SEGGER_RTT.c.obj)
 .text.SEGGER_RTT_WaitKey
                0x00000000        0xc external/rtt/librtt_nrf52832_xxAA.a(SEGGER_RTT.c.obj)
 .text.SEGGER_RTT_HasKey
                0x00000000       0x1c external/rtt/librtt_nrf52832_xxAA.a(SEGGER_RTT.c.obj)
 .text.SEGGER_RTT_HasData
                0x00000000       0x14 external/rtt/librtt_nrf52832_xxAA.a(SEGGER_RTT.c.obj)
 .text.SEGGER_RTT_AllocDownBuffer
                0x00000000       0x68 external/rtt/librtt_nrf52832_xxAA.a(SEGGER_RTT.c.obj)
 .text.SEGGER_RTT_AllocUpBuffer
                0x00000000       0x70 external/rtt/librtt_nrf52832_xxAA.a(SEGGER_RTT.c.obj)
 .text.SEGGER_RTT_ConfigUpBuffer
                0x00000000       0x68 external/rtt/librtt_nrf52832_xxAA.a(SEGGER_RTT.c.obj)
 .text.SEGGER_RTT_ConfigDownBuffer
                0x00000000       0x60 external/rtt/librtt_nrf52832_xxAA.a(SEGGER_RTT.c.obj)
 .text.SEGGER_RTT_SetNameUpBuffer
                0x00000000       0x3c external/rtt/librtt_nrf52832_xxAA.a(SEGGER_RTT.c.obj)
 .text.SEGGER_RTT_SetNameDownBuffer
                0x00000000       0x3c external/rtt/librtt_nrf52832_xxAA.a(SEGGER_RTT.c.obj)
 .text.SEGGER_RTT_Init
                0x00000000       0x10 external/rtt/librtt_nrf52832_xxAA.a(SEGGER_RTT.c.obj)
 .text.SEGGER_RTT_SetTerminal
                0x00000000       0x84 external/rtt/librtt_nrf52832_xxAA.a(SEGGER_RTT.c.obj)
 .text.SEGGER_RTT_TerminalOut
                0x00000000       0xa0 external/rtt/librtt_nrf52832_xxAA.a(SEGGER_RTT.c.obj)
 .bss._ActiveTerminal
                0x00000000        0x1 external/rtt/librtt_nrf52832_xxAA.a(SEGGER_RTT.c.obj)
 .rodata._aTerminalId
                0x00000000       0x10 external/rtt/librtt_nrf52832_xxAA.a(SEGGER_RTT.c.obj)
 .text          0x00000000        0x0 external/rtt/librtt_nrf52832_xxAA.a(SEGGER_RTT_printf.c.obj)
 .data          0x00000000        0x0 external/rtt/librtt_nrf52832_xxAA.a(SEGGER_RTT_printf.c.obj)
 .bss           0x00000000        0x0 external/rtt/librtt_nrf52832_xxAA.a(SEGGER_RTT_printf.c.obj)
 .text          0x00000000        0x0 external/micro-ecc/libuECC_nrf52832_xxAA.a(uECC.c.obj)
 .data          0x00000000        0x0 external/micro-ecc/libuECC_nrf52832_xxAA.a(uECC.c.obj)
 .bss           0x00000000        0x0 external/micro-ecc/libuECC_nrf52832_xxAA.a(uECC.c.obj)
 .text.uECC_vli_modMult
                0x00000000      0x148 external/micro-ecc/libuECC_nrf52832_xxAA.a(uECC.c.obj)
 .text.HMAC_init
                0x00000000       0x46 external/micro-ecc/libuECC_nrf52832_xxAA.a(uECC.c.obj)
 .text.HMAC_update
                0x00000000        0x4 external/micro-ecc/libuECC_nrf52832_xxAA.a(uECC.c.obj)
 .text.HMAC_finish
                0x00000000       0x62 external/micro-ecc/libuECC_nrf52832_xxAA.a(uECC.c.obj)
 .text.update_V
                0x00000000       0x24 external/micro-ecc/libuECC_nrf52832_xxAA.a(uECC.c.obj)
 .text.bits2int
                0x00000000       0x88 external/micro-ecc/libuECC_nrf52832_xxAA.a(uECC.c.obj)
 .text.uECC_sign_with_k
                0x00000000      0x17c external/micro-ecc/libuECC_nrf52832_xxAA.a(uECC.c.obj)
 .text.uECC_set_rng
                0x00000000        0xc external/micro-ecc/libuECC_nrf52832_xxAA.a(uECC.c.obj)
 .text.uECC_get_rng
                0x00000000        0xc external/micro-ecc/libuECC_nrf52832_xxAA.a(uECC.c.obj)
 .text.uECC_curve_private_key_size
                0x00000000        0xe external/micro-ecc/libuECC_nrf52832_xxAA.a(uECC.c.obj)
 .text.uECC_curve_public_key_size
                0x00000000        0x8 external/micro-ecc/libuECC_nrf52832_xxAA.a(uECC.c.obj)
 .text.uECC_compute_public_key
                0x00000000       0x7e external/micro-ecc/libuECC_nrf52832_xxAA.a(uECC.c.obj)
 .text.uECC_sign
                0x00000000       0x56 external/micro-ecc/libuECC_nrf52832_xxAA.a(uECC.c.obj)
 .text.uECC_sign_deterministic
                0x00000000      0x192 external/micro-ecc/libuECC_nrf52832_xxAA.a(uECC.c.obj)
 .text.uECC_verify
                0x00000000      0x2f0 external/micro-ecc/libuECC_nrf52832_xxAA.a(uECC.c.obj)
 .text          0x00000000        0x0 c:/a/gcc_arm/6/bin/../lib/gcc/arm-none-eabi/6.3.1/../../../../arm-none-eabi/lib/thumb/v7e-m/fpv4-sp/hard\libg_nano.a(lib_a-exit.o)
 .data          0x00000000        0x0 c:/a/gcc_arm/6/bin/../lib/gcc/arm-none-eabi/6.3.1/../../../../arm-none-eabi/lib/thumb/v7e-m/fpv4-sp/hard\libg_nano.a(lib_a-exit.o)
 .bss           0x00000000        0x0 c:/a/gcc_arm/6/bin/../lib/gcc/arm-none-eabi/6.3.1/../../../../arm-none-eabi/lib/thumb/v7e-m/fpv4-sp/hard\libg_nano.a(lib_a-exit.o)
 .text          0x00000000        0x0 c:/a/gcc_arm/6/bin/../lib/gcc/arm-none-eabi/6.3.1/../../../../arm-none-eabi/lib/thumb/v7e-m/fpv4-sp/hard\libg_nano.a(lib_a-impure.o)
 .data          0x00000000        0x0 c:/a/gcc_arm/6/bin/../lib/gcc/arm-none-eabi/6.3.1/../../../../arm-none-eabi/lib/thumb/v7e-m/fpv4-sp/hard\libg_nano.a(lib_a-impure.o)
 .bss           0x00000000        0x0 c:/a/gcc_arm/6/bin/../lib/gcc/arm-none-eabi/6.3.1/../../../../arm-none-eabi/lib/thumb/v7e-m/fpv4-sp/hard\libg_nano.a(lib_a-impure.o)
 .text          0x00000000        0x0 c:/a/gcc_arm/6/bin/../lib/gcc/arm-none-eabi/6.3.1/../../../../arm-none-eabi/lib/thumb/v7e-m/fpv4-sp/hard\libg_nano.a(lib_a-init.o)
 .data          0x00000000        0x0 c:/a/gcc_arm/6/bin/../lib/gcc/arm-none-eabi/6.3.1/../../../../arm-none-eabi/lib/thumb/v7e-m/fpv4-sp/hard\libg_nano.a(lib_a-init.o)
 .bss           0x00000000        0x0 c:/a/gcc_arm/6/bin/../lib/gcc/arm-none-eabi/6.3.1/../../../../arm-none-eabi/lib/thumb/v7e-m/fpv4-sp/hard\libg_nano.a(lib_a-init.o)
 .text          0x00000000        0x0 c:/a/gcc_arm/6/bin/../lib/gcc/arm-none-eabi/6.3.1/../../../../arm-none-eabi/lib/thumb/v7e-m/fpv4-sp/hard\libg_nano.a(lib_a-malloc.o)
 .data          0x00000000        0x0 c:/a/gcc_arm/6/bin/../lib/gcc/arm-none-eabi/6.3.1/../../../../arm-none-eabi/lib/thumb/v7e-m/fpv4-sp/hard\libg_nano.a(lib_a-malloc.o)
 .bss           0x00000000        0x0 c:/a/gcc_arm/6/bin/../lib/gcc/arm-none-eabi/6.3.1/../../../../arm-none-eabi/lib/thumb/v7e-m/fpv4-sp/hard\libg_nano.a(lib_a-malloc.o)
 .text          0x00000000        0x0 c:/a/gcc_arm/6/bin/../lib/gcc/arm-none-eabi/6.3.1/../../../../arm-none-eabi/lib/thumb/v7e-m/fpv4-sp/hard\libg_nano.a(lib_a-memcmp.o)
 .data          0x00000000        0x0 c:/a/gcc_arm/6/bin/../lib/gcc/arm-none-eabi/6.3.1/../../../../arm-none-eabi/lib/thumb/v7e-m/fpv4-sp/hard\libg_nano.a(lib_a-memcmp.o)
 .bss           0x00000000        0x0 c:/a/gcc_arm/6/bin/../lib/gcc/arm-none-eabi/6.3.1/../../../../arm-none-eabi/lib/thumb/v7e-m/fpv4-sp/hard\libg_nano.a(lib_a-memcmp.o)
 .text          0x00000000        0x0 c:/a/gcc_arm/6/bin/../lib/gcc/arm-none-eabi/6.3.1/../../../../arm-none-eabi/lib/thumb/v7e-m/fpv4-sp/hard\libg_nano.a(lib_a-memcpy-stub.o)
 .data          0x00000000        0x0 c:/a/gcc_arm/6/bin/../lib/gcc/arm-none-eabi/6.3.1/../../../../arm-none-eabi/lib/thumb/v7e-m/fpv4-sp/hard\libg_nano.a(lib_a-memcpy-stub.o)
 .bss           0x00000000        0x0 c:/a/gcc_arm/6/bin/../lib/gcc/arm-none-eabi/6.3.1/../../../../arm-none-eabi/lib/thumb/v7e-m/fpv4-sp/hard\libg_nano.a(lib_a-memcpy-stub.o)
 .text          0x00000000        0x0 c:/a/gcc_arm/6/bin/../lib/gcc/arm-none-eabi/6.3.1/../../../../arm-none-eabi/lib/thumb/v7e-m/fpv4-sp/hard\libg_nano.a(lib_a-memset.o)
 .data          0x00000000        0x0 c:/a/gcc_arm/6/bin/../lib/gcc/arm-none-eabi/6.3.1/../../../../arm-none-eabi/lib/thumb/v7e-m/fpv4-sp/hard\libg_nano.a(lib_a-memset.o)
 .bss           0x00000000        0x0 c:/a/gcc_arm/6/bin/../lib/gcc/arm-none-eabi/6.3.1/../../../../arm-none-eabi/lib/thumb/v7e-m/fpv4-sp/hard\libg_nano.a(lib_a-memset.o)
 .text          0x00000000        0x0 c:/a/gcc_arm/6/bin/../lib/gcc/arm-none-eabi/6.3.1/../../../../arm-none-eabi/lib/thumb/v7e-m/fpv4-sp/hard\libg_nano.a(lib_a-nano-freer.o)
 .data          0x00000000        0x0 c:/a/gcc_arm/6/bin/../lib/gcc/arm-none-eabi/6.3.1/../../../../arm-none-eabi/lib/thumb/v7e-m/fpv4-sp/hard\libg_nano.a(lib_a-nano-freer.o)
 .bss           0x00000000        0x0 c:/a/gcc_arm/6/bin/../lib/gcc/arm-none-eabi/6.3.1/../../../../arm-none-eabi/lib/thumb/v7e-m/fpv4-sp/hard\libg_nano.a(lib_a-nano-freer.o)
 .text          0x00000000        0x0 c:/a/gcc_arm/6/bin/../lib/gcc/arm-none-eabi/6.3.1/../../../../arm-none-eabi/lib/thumb/v7e-m/fpv4-sp/hard\libg_nano.a(lib_a-nano-mallocr.o)
 .data          0x00000000        0x0 c:/a/gcc_arm/6/bin/../lib/gcc/arm-none-eabi/6.3.1/../../../../arm-none-eabi/lib/thumb/v7e-m/fpv4-sp/hard\libg_nano.a(lib_a-nano-mallocr.o)
 .bss           0x00000000        0x0 c:/a/gcc_arm/6/bin/../lib/gcc/arm-none-eabi/6.3.1/../../../../arm-none-eabi/lib/thumb/v7e-m/fpv4-sp/hard\libg_nano.a(lib_a-nano-mallocr.o)
 .text          0x00000000        0x0 c:/a/gcc_arm/6/bin/../lib/gcc/arm-none-eabi/6.3.1/../../../../arm-none-eabi/lib/thumb/v7e-m/fpv4-sp/hard\libg_nano.a(lib_a-sbrkr.o)
 .data          0x00000000        0x0 c:/a/gcc_arm/6/bin/../lib/gcc/arm-none-eabi/6.3.1/../../../../arm-none-eabi/lib/thumb/v7e-m/fpv4-sp/hard\libg_nano.a(lib_a-sbrkr.o)
 .bss           0x00000000        0x0 c:/a/gcc_arm/6/bin/../lib/gcc/arm-none-eabi/6.3.1/../../../../arm-none-eabi/lib/thumb/v7e-m/fpv4-sp/hard\libg_nano.a(lib_a-sbrkr.o)
 .text          0x00000000        0x0 c:/a/gcc_arm/6/bin/../lib/gcc/arm-none-eabi/6.3.1/../../../../arm-none-eabi/lib/thumb/v7e-m/fpv4-sp/hard\libg_nano.a(lib_a-strcpy.o)
 .data          0x00000000        0x0 c:/a/gcc_arm/6/bin/../lib/gcc/arm-none-eabi/6.3.1/../../../../arm-none-eabi/lib/thumb/v7e-m/fpv4-sp/hard\libg_nano.a(lib_a-strcpy.o)
 .bss           0x00000000        0x0 c:/a/gcc_arm/6/bin/../lib/gcc/arm-none-eabi/6.3.1/../../../../arm-none-eabi/lib/thumb/v7e-m/fpv4-sp/hard\libg_nano.a(lib_a-strcpy.o)
 .data          0x00000000        0x0 c:/a/gcc_arm/6/bin/../lib/gcc/arm-none-eabi/6.3.1/../../../../arm-none-eabi/lib/thumb/v7e-m/fpv4-sp/hard\libg_nano.a(lib_a-strlen.o)
 .bss           0x00000000        0x0 c:/a/gcc_arm/6/bin/../lib/gcc/arm-none-eabi/6.3.1/../../../../arm-none-eabi/lib/thumb/v7e-m/fpv4-sp/hard\libg_nano.a(lib_a-strlen.o)
 .text          0x00000000        0x0 c:/a/gcc_arm/6/bin/../lib/gcc/arm-none-eabi/6.3.1/../../../../arm-none-eabi/lib/thumb/v7e-m/fpv4-sp/hard\libg_nano.a(lib_a-strrchr.o)
 .data          0x00000000        0x0 c:/a/gcc_arm/6/bin/../lib/gcc/arm-none-eabi/6.3.1/../../../../arm-none-eabi/lib/thumb/v7e-m/fpv4-sp/hard\libg_nano.a(lib_a-strrchr.o)
 .bss           0x00000000        0x0 c:/a/gcc_arm/6/bin/../lib/gcc/arm-none-eabi/6.3.1/../../../../arm-none-eabi/lib/thumb/v7e-m/fpv4-sp/hard\libg_nano.a(lib_a-strrchr.o)
 .text          0x00000000        0x0 c:/a/gcc_arm/6/bin/../lib/gcc/arm-none-eabi/6.3.1/../../../../arm-none-eabi/lib/thumb/v7e-m/fpv4-sp/hard\libg_nano.a(lib_a-mlock.o)
 .data          0x00000000        0x0 c:/a/gcc_arm/6/bin/../lib/gcc/arm-none-eabi/6.3.1/../../../../arm-none-eabi/lib/thumb/v7e-m/fpv4-sp/hard\libg_nano.a(lib_a-mlock.o)
 .bss           0x00000000        0x0 c:/a/gcc_arm/6/bin/../lib/gcc/arm-none-eabi/6.3.1/../../../../arm-none-eabi/lib/thumb/v7e-m/fpv4-sp/hard\libg_nano.a(lib_a-mlock.o)
 .text          0x00000000        0x0 c:/a/gcc_arm/6/bin/../lib/gcc/arm-none-eabi/6.3.1/../../../../arm-none-eabi/lib/thumb/v7e-m/fpv4-sp/hard\libg_nano.a(lib_a-reent.o)
 .data          0x00000000        0x0 c:/a/gcc_arm/6/bin/../lib/gcc/arm-none-eabi/6.3.1/../../../../arm-none-eabi/lib/thumb/v7e-m/fpv4-sp/hard\libg_nano.a(lib_a-reent.o)
 .bss           0x00000000        0x0 c:/a/gcc_arm/6/bin/../lib/gcc/arm-none-eabi/6.3.1/../../../../arm-none-eabi/lib/thumb/v7e-m/fpv4-sp/hard\libg_nano.a(lib_a-reent.o)
 .text.cleanup_glue
                0x00000000       0x1a c:/a/gcc_arm/6/bin/../lib/gcc/arm-none-eabi/6.3.1/../../../../arm-none-eabi/lib/thumb/v7e-m/fpv4-sp/hard\libg_nano.a(lib_a-reent.o)
 .text._reclaim_reent
                0x00000000       0xb8 c:/a/gcc_arm/6/bin/../lib/gcc/arm-none-eabi/6.3.1/../../../../arm-none-eabi/lib/thumb/v7e-m/fpv4-sp/hard\libg_nano.a(lib_a-reent.o)
 .text          0x00000000        0x0 c:/a/gcc_arm/6/bin/../lib/gcc/arm-none-eabi/6.3.1/../../../../arm-none-eabi/lib/thumb/v7e-m/fpv4-sp/hard\libg_nano.a(lib_a-strchr.o)
 .data          0x00000000        0x0 c:/a/gcc_arm/6/bin/../lib/gcc/arm-none-eabi/6.3.1/../../../../arm-none-eabi/lib/thumb/v7e-m/fpv4-sp/hard\libg_nano.a(lib_a-strchr.o)
 .bss           0x00000000        0x0 c:/a/gcc_arm/6/bin/../lib/gcc/arm-none-eabi/6.3.1/../../../../arm-none-eabi/lib/thumb/v7e-m/fpv4-sp/hard\libg_nano.a(lib_a-strchr.o)
 .text          0x00000000        0x0 c:/a/gcc_arm/6/bin/../lib/gcc/arm-none-eabi/6.3.1/thumb/v7e-m/fpv4-sp/hard/crtend.o
 .data          0x00000000        0x0 c:/a/gcc_arm/6/bin/../lib/gcc/arm-none-eabi/6.3.1/thumb/v7e-m/fpv4-sp/hard/crtend.o
 .bss           0x00000000        0x0 c:/a/gcc_arm/6/bin/../lib/gcc/arm-none-eabi/6.3.1/thumb/v7e-m/fpv4-sp/hard/crtend.o
 .text          0x00000000        0x0 c:/a/gcc_arm/6/bin/../lib/gcc/arm-none-eabi/6.3.1/thumb/v7e-m/fpv4-sp/hard/crtn.o
 .data          0x00000000        0x0 c:/a/gcc_arm/6/bin/../lib/gcc/arm-none-eabi/6.3.1/thumb/v7e-m/fpv4-sp/hard/crtn.o
 .bss           0x00000000        0x0 c:/a/gcc_arm/6/bin/../lib/gcc/arm-none-eabi/6.3.1/thumb/v7e-m/fpv4-sp/hard/crtn.o
 .text          0x00000000        0x0 c:/a/gcc_arm/6/bin/../lib/gcc/arm-none-eabi/6.3.1/../../../../arm-none-eabi/lib/thumb/v7e-m/fpv4-sp/hard\libnosys.a(sbrk.o)
 .data          0x00000000        0x0 c:/a/gcc_arm/6/bin/../lib/gcc/arm-none-eabi/6.3.1/../../../../arm-none-eabi/lib/thumb/v7e-m/fpv4-sp/hard\libnosys.a(sbrk.o)
 .bss           0x00000000        0x0 c:/a/gcc_arm/6/bin/../lib/gcc/arm-none-eabi/6.3.1/../../../../arm-none-eabi/lib/thumb/v7e-m/fpv4-sp/hard\libnosys.a(sbrk.o)
 .text          0x00000000        0x0 c:/a/gcc_arm/6/bin/../lib/gcc/arm-none-eabi/6.3.1/../../../../arm-none-eabi/lib/thumb/v7e-m/fpv4-sp/hard\libnosys.a(_exit.o)
 .data          0x00000000        0x0 c:/a/gcc_arm/6/bin/../lib/gcc/arm-none-eabi/6.3.1/../../../../arm-none-eabi/lib/thumb/v7e-m/fpv4-sp/hard\libnosys.a(_exit.o)
 .bss           0x00000000        0x0 c:/a/gcc_arm/6/bin/../lib/gcc/arm-none-eabi/6.3.1/../../../../arm-none-eabi/lib/thumb/v7e-m/fpv4-sp/hard\libnosys.a(_exit.o)

Memory Configuration

Name             Origin             Length             Attributes
FLASH            0x0001f000         0x00059000         xr
RAM              0x200019c0         0x0000e340         xrw
*default*        0x00000000         0xffffffff

Linker script and memory map


.text           0x0001f000    0x1323c
 *(.isr_vector)
 .isr_vector    0x0001f000      0x200 examples/light_switch/server/CMakeFiles/light_switch_server_nrf52832_xxAA_s132_3.1.0.dir/__/__/__/external/nRF5_SDK_14.2.0_17b948a/components/toolchain/gcc/gcc_startup_nrf52.S.obj
                0x0001f000                __isr_vector
 *(.text*)
 .text          0x0001f200       0x6c c:/a/gcc_arm/6/bin/../lib/gcc/arm-none-eabi/6.3.1/thumb/v7e-m/fpv4-sp/hard/crtbegin.o
 .text          0x0001f26c       0x74 c:/a/gcc_arm/6/bin/../lib/gcc/arm-none-eabi/6.3.1/../../../../arm-none-eabi/lib/thumb/v7e-m/fpv4-sp/hard/crt0.o
                0x0001f26c                _start
                0x0001f26c                _mainCRTStartup
 .text.sd_app_evt_wait
                0x0001f2e0        0x4 examples/light_switch/server/CMakeFiles/light_switch_server_nrf52832_xxAA_s132_3.1.0.dir/src/main.c.obj
 .text.configuration_setup
                0x0001f2e4       0xa8 examples/light_switch/server/CMakeFiles/light_switch_server_nrf52832_xxAA_s132_3.1.0.dir/src/main.c.obj
 .text.set_cb   0x0001f38c       0x70 examples/light_switch/server/CMakeFiles/light_switch_server_nrf52832_xxAA_s132_3.1.0.dir/src/main.c.obj
 .text.get_cb   0x0001f3fc        0x6 examples/light_switch/server/CMakeFiles/light_switch_server_nrf52832_xxAA_s132_3.1.0.dir/src/main.c.obj
 *fill*         0x0001f402        0x2 
 .text.provisioning_complete
                0x0001f404       0x7c examples/light_switch/server/CMakeFiles/light_switch_server_nrf52832_xxAA_s132_3.1.0.dir/src/main.c.obj
 .text.startup.main
                0x0001f480       0xb0 examples/light_switch/server/CMakeFiles/light_switch_server_nrf52832_xxAA_s132_3.1.0.dir/src/main.c.obj
                0x0001f480                main
 .text.sd_evt_get
                0x0001f530        0x4 examples/light_switch/server/CMakeFiles/light_switch_server_nrf52832_xxAA_s132_3.1.0.dir/__/__/nrf_mesh_sdk.c.obj
 .text.sd_ble_evt_get
                0x0001f534        0x4 examples/light_switch/server/CMakeFiles/light_switch_server_nrf52832_xxAA_s132_3.1.0.dir/__/__/nrf_mesh_sdk.c.obj
 .text.sleep_forever
                0x0001f538       0x1c examples/light_switch/server/CMakeFiles/light_switch_server_nrf52832_xxAA_s132_3.1.0.dir/__/__/nrf_mesh_sdk.c.obj
 .text.app_error_handler
                0x0001f554       0x78 examples/light_switch/server/CMakeFiles/light_switch_server_nrf52832_xxAA_s132_3.1.0.dir/__/__/nrf_mesh_sdk.c.obj
                0x0001f554                app_error_handler
 .text.HardFault_Handler
                0x0001f5cc       0x6c examples/light_switch/server/CMakeFiles/light_switch_server_nrf52832_xxAA_s132_3.1.0.dir/__/__/nrf_mesh_sdk.c.obj
                0x0001f5cc                HardFault_Handler
 .text.SWI2_EGU2_IRQHandler
                0x0001f638       0x3c examples/light_switch/server/CMakeFiles/light_switch_server_nrf52832_xxAA_s132_3.1.0.dir/__/__/nrf_mesh_sdk.c.obj
                0x0001f638                SWI2_EGU2_IRQHandler
 .text.hal_led_pin_get
                0x0001f674       0x18 examples/light_switch/server/CMakeFiles/light_switch_server_nrf52832_xxAA_s132_3.1.0.dir/__/__/common/src/simple_hal.c.obj
                0x0001f674                hal_led_pin_get
 .text.hal_led_pin_set
                0x0001f68c       0x16 examples/light_switch/server/CMakeFiles/light_switch_server_nrf52832_xxAA_s132_3.1.0.dir/__/__/common/src/simple_hal.c.obj
                0x0001f68c                hal_led_pin_set
 .text.hal_led_mask_set
                0x0001f6a2       0x12 examples/light_switch/server/CMakeFiles/light_switch_server_nrf52832_xxAA_s132_3.1.0.dir/__/__/common/src/simple_hal.c.obj
                0x0001f6a2                hal_led_mask_set
 .text.hal_led_blink_ms
                0x0001f6b4       0xb4 examples/light_switch/server/CMakeFiles/light_switch_server_nrf52832_xxAA_s132_3.1.0.dir/__/__/common/src/simple_hal.c.obj
                0x0001f6b4                hal_led_blink_ms
 .text.hal_leds_init
                0x0001f768       0x38 examples/light_switch/server/CMakeFiles/light_switch_server_nrf52832_xxAA_s132_3.1.0.dir/__/__/common/src/simple_hal.c.obj
                0x0001f768                hal_leds_init
 .text.GPIOTE_IRQHandler
                0x0001f7a0       0x60 examples/light_switch/server/CMakeFiles/light_switch_server_nrf52832_xxAA_s132_3.1.0.dir/__/__/common/src/simple_hal.c.obj
                0x0001f7a0                GPIOTE_IRQHandler
 .text._weak_handler
                0x0001f800        0x4 examples/light_switch/server/CMakeFiles/light_switch_server_nrf52832_xxAA_s132_3.1.0.dir/__/__/nrf_mesh_weak.c.obj
                0x0001f800                nrf_mesh_dfu_init
                0x0001f800                nrf_mesh_dfu_jump_to_bootloader
                0x0001f800                nrf_mesh_dfu_rx
                0x0001f800                prov_provisioner_provision
                0x0001f800                nrf_mesh_dfu_bank_info_get
                0x0001f800                prov_provisioner_oob_pubkey
                0x0001f800                nrf_mesh_dfu_request
                0x0001f800                nrf_mesh_dfu_bank_flash
                0x0001f800                _weak_handler
                0x0001f800                nrf_mesh_dfu_relay
                0x0001f800                nrf_mesh_dfu_abort
                0x0001f800                mesh_flash_op_execute
                0x0001f800                nrf_mesh_dfu_state_get
                0x0001f800                prov_provisioner_shared_secret
                0x0001f800                prov_provisioner_auth_data
                0x0001f800                prov_provisioner_oob_use
 .text.handle_set_cb
                0x0001f804       0x7c examples/light_switch/server/CMakeFiles/light_switch_server_nrf52832_xxAA_s132_3.1.0.dir/__/__/__/models/simple_on_off/src/simple_on_off_server.c.obj
 .text.handle_get_cb
                0x0001f880       0x50 examples/light_switch/server/CMakeFiles/light_switch_server_nrf52832_xxAA_s132_3.1.0.dir/__/__/__/models/simple_on_off/src/simple_on_off_server.c.obj
 .text.handle_set_unreliable_cb
                0x0001f8d0       0x58 examples/light_switch/server/CMakeFiles/light_switch_server_nrf52832_xxAA_s132_3.1.0.dir/__/__/__/models/simple_on_off/src/simple_on_off_server.c.obj
 .text.simple_on_off_server_init
                0x0001f928       0x40 examples/light_switch/server/CMakeFiles/light_switch_server_nrf52832_xxAA_s132_3.1.0.dir/__/__/__/models/simple_on_off/src/simple_on_off_server.c.obj
                0x0001f928                simple_on_off_server_init
 .text.config_composition_data_get
                0x0001f968      0x1c8 examples/light_switch/server/CMakeFiles/light_switch_server_nrf52832_xxAA_s132_3.1.0.dir/__/__/__/models/config/src/composition_data.c.obj
                0x0001f968                config_composition_data_get
 .text.app_evt_send
                0x0001fb30       0x10 examples/light_switch/server/CMakeFiles/light_switch_server_nrf52832_xxAA_s132_3.1.0.dir/__/__/__/models/config/src/config_server.c.obj
 .text.extract_model_id
                0x0001fb40       0x12 examples/light_switch/server/CMakeFiles/light_switch_server_nrf52832_xxAA_s132_3.1.0.dir/__/__/__/models/config/src/config_server.c.obj
 *fill*         0x0001fb52        0x2 
 .text.config_server_heartbeat_publication_count_decrement
                0x0001fb54       0x1c examples/light_switch/server/CMakeFiles/light_switch_server_nrf52832_xxAA_s132_3.1.0.dir/__/__/__/models/config/src/config_server.c.obj
 .text.get_element_index
                0x0001fb70       0x26 examples/light_switch/server/CMakeFiles/light_switch_server_nrf52832_xxAA_s132_3.1.0.dir/__/__/__/models/config/src/config_server.c.obj
 *fill*         0x0001fb96        0x2 
 .text.config_server_heartbeat_publication_params_get
                0x0001fb98       0x34 examples/light_switch/server/CMakeFiles/light_switch_server_nrf52832_xxAA_s132_3.1.0.dir/__/__/__/models/config/src/config_server.c.obj
 .text.send_reply
                0x0001fbcc       0x3a examples/light_switch/server/CMakeFiles/light_switch_server_nrf52832_xxAA_s132_3.1.0.dir/__/__/__/models/config/src/config_server.c.obj
 *fill*         0x0001fc06        0x2 
 .text.send_network_transmit_status
                0x0001fc08       0x84 examples/light_switch/server/CMakeFiles/light_switch_server_nrf52832_xxAA_s132_3.1.0.dir/__/__/__/models/config/src/config_server.c.obj
 .text.handle_config_network_transmit_set
                0x0001fc8c       0x98 examples/light_switch/server/CMakeFiles/light_switch_server_nrf52832_xxAA_s132_3.1.0.dir/__/__/__/models/config/src/config_server.c.obj
 .text.handle_config_network_transmit_get
                0x0001fd24        0xa examples/light_switch/server/CMakeFiles/light_switch_server_nrf52832_xxAA_s132_3.1.0.dir/__/__/__/models/config/src/config_server.c.obj
 *fill*         0x0001fd2e        0x2 
 .text.send_relay_status
                0x0001fd30       0xac examples/light_switch/server/CMakeFiles/light_switch_server_nrf52832_xxAA_s132_3.1.0.dir/__/__/__/models/config/src/config_server.c.obj
 .text.handle_config_relay_set
                0x0001fddc       0xcc examples/light_switch/server/CMakeFiles/light_switch_server_nrf52832_xxAA_s132_3.1.0.dir/__/__/__/models/config/src/config_server.c.obj
 .text.handle_config_relay_get
                0x0001fea8        0xa examples/light_switch/server/CMakeFiles/light_switch_server_nrf52832_xxAA_s132_3.1.0.dir/__/__/__/models/config/src/config_server.c.obj
 .text.send_subscription_status
                0x0001feb2       0x3a examples/light_switch/server/CMakeFiles/light_switch_server_nrf52832_xxAA_s132_3.1.0.dir/__/__/__/models/config/src/config_server.c.obj
 .text.send_generic_error_reply
                0x0001feec       0x42 examples/light_switch/server/CMakeFiles/light_switch_server_nrf52832_xxAA_s132_3.1.0.dir/__/__/__/models/config/src/config_server.c.obj
 *fill*         0x0001ff2e        0x2 
 .text.handle_model_app_get
                0x0001ff30      0x18c examples/light_switch/server/CMakeFiles/light_switch_server_nrf52832_xxAA_s132_3.1.0.dir/__/__/__/models/config/src/config_server.c.obj
 .text.handle_node_reset
                0x000200bc       0x38 examples/light_switch/server/CMakeFiles/light_switch_server_nrf52832_xxAA_s132_3.1.0.dir/__/__/__/models/config/src/config_server.c.obj
 .text.handle_netkey_get
                0x000200f4       0x5e examples/light_switch/server/CMakeFiles/light_switch_server_nrf52832_xxAA_s132_3.1.0.dir/__/__/__/models/config/src/config_server.c.obj
 .text.handle_model_app_bind_unbind
                0x00020152       0xfa examples/light_switch/server/CMakeFiles/light_switch_server_nrf52832_xxAA_s132_3.1.0.dir/__/__/__/models/config/src/config_server.c.obj
 .text.handle_config_model_subscription_virtual_address_add
                0x0002024c      0x120 examples/light_switch/server/CMakeFiles/light_switch_server_nrf52832_xxAA_s132_3.1.0.dir/__/__/__/models/config/src/config_server.c.obj
 .text.delete_all_subscriptions
                0x0002036c       0x80 examples/light_switch/server/CMakeFiles/light_switch_server_nrf52832_xxAA_s132_3.1.0.dir/__/__/__/models/config/src/config_server.c.obj
 .text.handle_config_model_subscription_virtual_address_overwrite
                0x000203ec      0x144 examples/light_switch/server/CMakeFiles/light_switch_server_nrf52832_xxAA_s132_3.1.0.dir/__/__/__/models/config/src/config_server.c.obj
 .text.handle_config_model_subscription_delete_all
                0x00020530       0xb6 examples/light_switch/server/CMakeFiles/light_switch_server_nrf52832_xxAA_s132_3.1.0.dir/__/__/__/models/config/src/config_server.c.obj
 *fill*         0x000205e6        0x2 
 .text.handle_config_model_subscription_virtual_address_delete
                0x000205e8      0x130 examples/light_switch/server/CMakeFiles/light_switch_server_nrf52832_xxAA_s132_3.1.0.dir/__/__/__/models/config/src/config_server.c.obj
 .text.handle_config_model_subscription_delete
                0x00020718      0x124 examples/light_switch/server/CMakeFiles/light_switch_server_nrf52832_xxAA_s132_3.1.0.dir/__/__/__/models/config/src/config_server.c.obj
 .text.handle_config_model_subscription_overwrite
                0x0002083c      0x134 examples/light_switch/server/CMakeFiles/light_switch_server_nrf52832_xxAA_s132_3.1.0.dir/__/__/__/models/config/src/config_server.c.obj
 .text.handle_config_model_subscription_add
                0x00020970      0x120 examples/light_switch/server/CMakeFiles/light_switch_server_nrf52832_xxAA_s132_3.1.0.dir/__/__/__/models/config/src/config_server.c.obj
 .text.send_publication_status
                0x00020a90      0x174 examples/light_switch/server/CMakeFiles/light_switch_server_nrf52832_xxAA_s132_3.1.0.dir/__/__/__/models/config/src/config_server.c.obj
 .text.handle_config_model_publication_get
                0x00020c04       0x60 examples/light_switch/server/CMakeFiles/light_switch_server_nrf52832_xxAA_s132_3.1.0.dir/__/__/__/models/config/src/config_server.c.obj
 .text.handle_config_default_ttl_getset
                0x00020c64       0x62 examples/light_switch/server/CMakeFiles/light_switch_server_nrf52832_xxAA_s132_3.1.0.dir/__/__/__/models/config/src/config_server.c.obj
 .text.send_net_beacon_state
                0x00020cc6       0x2a examples/light_switch/server/CMakeFiles/light_switch_server_nrf52832_xxAA_s132_3.1.0.dir/__/__/__/models/config/src/config_server.c.obj
 .text.handle_config_beacon_get
                0x00020cf0        0xa examples/light_switch/server/CMakeFiles/light_switch_server_nrf52832_xxAA_s132_3.1.0.dir/__/__/__/models/config/src/config_server.c.obj
 .text.handle_composition_data_get
                0x00020cfa       0x42 examples/light_switch/server/CMakeFiles/light_switch_server_nrf52832_xxAA_s132_3.1.0.dir/__/__/__/models/config/src/config_server.c.obj
 .text.handle_appkey_get
                0x00020d3c       0xae examples/light_switch/server/CMakeFiles/light_switch_server_nrf52832_xxAA_s132_3.1.0.dir/__/__/__/models/config/src/config_server.c.obj
 *fill*         0x00020dea        0x2 
 .text.handle_config_model_publication_set
                0x00020dec      0x1ec examples/light_switch/server/CMakeFiles/light_switch_server_nrf52832_xxAA_s132_3.1.0.dir/__/__/__/models/config/src/config_server.c.obj
 .text.handle_heartbeat_publication_set
                0x00020fd8      0x124 examples/light_switch/server/CMakeFiles/light_switch_server_nrf52832_xxAA_s132_3.1.0.dir/__/__/__/models/config/src/config_server.c.obj
 .text.heartbeat_pubsub_period_encode
                0x000210fc       0x34 examples/light_switch/server/CMakeFiles/light_switch_server_nrf52832_xxAA_s132_3.1.0.dir/__/__/__/models/config/src/config_server.c.obj
 .text.handle_node_identity_set
                0x00021130       0x30 examples/light_switch/server/CMakeFiles/light_switch_server_nrf52832_xxAA_s132_3.1.0.dir/__/__/__/models/config/src/config_server.c.obj
 .text.handle_node_identity_get
                0x00021160       0x2c examples/light_switch/server/CMakeFiles/light_switch_server_nrf52832_xxAA_s132_3.1.0.dir/__/__/__/models/config/src/config_server.c.obj
 .text.handle_config_gatt_proxy_set
                0x0002118c       0x1e examples/light_switch/server/CMakeFiles/light_switch_server_nrf52832_xxAA_s132_3.1.0.dir/__/__/__/models/config/src/config_server.c.obj
 .text.handle_config_friend_set
                0x000211aa       0x1e examples/light_switch/server/CMakeFiles/light_switch_server_nrf52832_xxAA_s132_3.1.0.dir/__/__/__/models/config/src/config_server.c.obj
 .text.handle_netkey_delete
                0x000211c8       0x78 examples/light_switch/server/CMakeFiles/light_switch_server_nrf52832_xxAA_s132_3.1.0.dir/__/__/__/models/config/src/config_server.c.obj
 .text.handle_config_key_refresh_phase_get
                0x00021240       0x50 examples/light_switch/server/CMakeFiles/light_switch_server_nrf52832_xxAA_s132_3.1.0.dir/__/__/__/models/config/src/config_server.c.obj
 .text.handle_config_key_refresh_phase_set
                0x00021290       0xc4 examples/light_switch/server/CMakeFiles/light_switch_server_nrf52832_xxAA_s132_3.1.0.dir/__/__/__/models/config/src/config_server.c.obj
 .text.handle_config_beacon_set
                0x00021354       0x42 examples/light_switch/server/CMakeFiles/light_switch_server_nrf52832_xxAA_s132_3.1.0.dir/__/__/__/models/config/src/config_server.c.obj
 .text.handle_appkey_add_update
                0x00021396       0xd8 examples/light_switch/server/CMakeFiles/light_switch_server_nrf52832_xxAA_s132_3.1.0.dir/__/__/__/models/config/src/config_server.c.obj
 *fill*         0x0002146e        0x2 
 .text.handle_config_vendor_model_subscription_get
                0x00021470       0xdc examples/light_switch/server/CMakeFiles/light_switch_server_nrf52832_xxAA_s132_3.1.0.dir/__/__/__/models/config/src/config_server.c.obj
 .text.heartbeat_pubsub_count_encode
                0x0002154c       0x34 examples/light_switch/server/CMakeFiles/light_switch_server_nrf52832_xxAA_s132_3.1.0.dir/__/__/__/models/config/src/config_server.c.obj
 .text.handle_heartbeat_publication_get
                0x00021580       0x58 examples/light_switch/server/CMakeFiles/light_switch_server_nrf52832_xxAA_s132_3.1.0.dir/__/__/__/models/config/src/config_server.c.obj
 .text.handle_heartbeat_subscription_get
                0x000215d8       0x60 examples/light_switch/server/CMakeFiles/light_switch_server_nrf52832_xxAA_s132_3.1.0.dir/__/__/__/models/config/src/config_server.c.obj
 .text.handle_config_sig_model_subscription_get
                0x00021638       0xdc examples/light_switch/server/CMakeFiles/light_switch_server_nrf52832_xxAA_s132_3.1.0.dir/__/__/__/models/config/src/config_server.c.obj
 .text.handle_heartbeat_subscription_set
                0x00021714       0xca examples/light_switch/server/CMakeFiles/light_switch_server_nrf52832_xxAA_s132_3.1.0.dir/__/__/__/models/config/src/config_server.c.obj
 .text.handle_config_friend_get
                0x000217de       0x20 examples/light_switch/server/CMakeFiles/light_switch_server_nrf52832_xxAA_s132_3.1.0.dir/__/__/__/models/config/src/config_server.c.obj
 .text.handle_config_gatt_proxy_get
                0x000217fe       0x20 examples/light_switch/server/CMakeFiles/light_switch_server_nrf52832_xxAA_s132_3.1.0.dir/__/__/__/models/config/src/config_server.c.obj
 .text.handle_appkey_delete
                0x0002181e       0x84 examples/light_switch/server/CMakeFiles/light_switch_server_nrf52832_xxAA_s132_3.1.0.dir/__/__/__/models/config/src/config_server.c.obj
 *fill*         0x000218a2        0x2 
 .text.handle_netkey_add_update
                0x000218a4       0x9c examples/light_switch/server/CMakeFiles/light_switch_server_nrf52832_xxAA_s132_3.1.0.dir/__/__/__/models/config/src/config_server.c.obj
 .text.config_server_init
                0x00021940       0x68 examples/light_switch/server/CMakeFiles/light_switch_server_nrf52832_xxAA_s132_3.1.0.dir/__/__/__/models/config/src/config_server.c.obj
                0x00021940                config_server_init
 .text.config_server_bind
                0x000219a8       0x10 examples/light_switch/server/CMakeFiles/light_switch_server_nrf52832_xxAA_s132_3.1.0.dir/__/__/__/models/config/src/config_server.c.obj
                0x000219a8                config_server_bind
 .text.packed_index_list_size
                0x000219b8       0x10 examples/light_switch/server/CMakeFiles/light_switch_server_nrf52832_xxAA_s132_3.1.0.dir/__/__/__/models/config/src/packed_index_list.c.obj
                0x000219b8                packed_index_list_size
 .text.packed_index_list_create
                0x000219c8       0x32 examples/light_switch/server/CMakeFiles/light_switch_server_nrf52832_xxAA_s132_3.1.0.dir/__/__/__/models/config/src/packed_index_list.c.obj
                0x000219c8                packed_index_list_create
 *fill*         0x000219fa        0x2 
 .text.attention_timer_set
                0x000219fc       0xa4 examples/light_switch/server/CMakeFiles/light_switch_server_nrf52832_xxAA_s132_3.1.0.dir/__/__/__/models/health/src/health_server.c.obj
 .text.attention_timer_handler
                0x00021aa0       0x68 examples/light_switch/server/CMakeFiles/light_switch_server_nrf52832_xxAA_s132_3.1.0.dir/__/__/__/models/health/src/health_server.c.obj
 .text.send_attention_status.isra.1
                0x00021b08       0x3e examples/light_switch/server/CMakeFiles/light_switch_server_nrf52832_xxAA_s132_3.1.0.dir/__/__/__/models/health/src/health_server.c.obj
 .text.handle_attention_set
                0x00021b46       0x32 examples/light_switch/server/CMakeFiles/light_switch_server_nrf52832_xxAA_s132_3.1.0.dir/__/__/__/models/health/src/health_server.c.obj
 .text.send_period_status.isra.4
                0x00021b78       0x3e examples/light_switch/server/CMakeFiles/light_switch_server_nrf52832_xxAA_s132_3.1.0.dir/__/__/__/models/health/src/health_server.c.obj
 .text.handle_period_set
                0x00021bb6       0x28 examples/light_switch/server/CMakeFiles/light_switch_server_nrf52832_xxAA_s132_3.1.0.dir/__/__/__/models/health/src/health_server.c.obj
 *fill*         0x00021bde        0x2 
 .text.bitfield_next_get.part.0.constprop.13
                0x00021be0       0x44 examples/light_switch/server/CMakeFiles/light_switch_server_nrf52832_xxAA_s132_3.1.0.dir/__/__/__/models/health/src/health_server.c.obj
 .text.bitfield_popcount.constprop.11
                0x00021c24       0x28 examples/light_switch/server/CMakeFiles/light_switch_server_nrf52832_xxAA_s132_3.1.0.dir/__/__/__/models/health/src/health_server.c.obj
 .text.send_fault_status
                0x00021c4c       0xa4 examples/light_switch/server/CMakeFiles/light_switch_server_nrf52832_xxAA_s132_3.1.0.dir/__/__/__/models/health/src/health_server.c.obj
 .text.health_publish_timeout_handler
                0x00021cf0        0xa examples/light_switch/server/CMakeFiles/light_switch_server_nrf52832_xxAA_s132_3.1.0.dir/__/__/__/models/health/src/health_server.c.obj
 *fill*         0x00021cfa        0x2 
 .text.handle_fault_test
                0x00021cfc       0x74 examples/light_switch/server/CMakeFiles/light_switch_server_nrf52832_xxAA_s132_3.1.0.dir/__/__/__/models/health/src/health_server.c.obj
 .text.handle_fault_get
                0x00021d70       0x40 examples/light_switch/server/CMakeFiles/light_switch_server_nrf52832_xxAA_s132_3.1.0.dir/__/__/__/models/health/src/health_server.c.obj
 .text.handle_fault_clear
                0x00021db0       0x54 examples/light_switch/server/CMakeFiles/light_switch_server_nrf52832_xxAA_s132_3.1.0.dir/__/__/__/models/health/src/health_server.c.obj
 .text.handle_attention_get
                0x00021e04       0x14 examples/light_switch/server/CMakeFiles/light_switch_server_nrf52832_xxAA_s132_3.1.0.dir/__/__/__/models/health/src/health_server.c.obj
 .text.handle_period_get
                0x00021e18       0x12 examples/light_switch/server/CMakeFiles/light_switch_server_nrf52832_xxAA_s132_3.1.0.dir/__/__/__/models/health/src/health_server.c.obj
 *fill*         0x00021e2a        0x2 
 .text.health_server_init
                0x00021e2c       0x6c examples/light_switch/server/CMakeFiles/light_switch_server_nrf52832_xxAA_s132_3.1.0.dir/__/__/__/models/health/src/health_server.c.obj
                0x00021e2c                health_server_init
 .text.add_to_publication_list
                0x00021e98       0x84 examples/light_switch/server/CMakeFiles/light_switch_server_nrf52832_xxAA_s132_3.1.0.dir/__/__/__/mesh/access/src/access_publish.c.obj
 .text.step_resolution_to_us
                0x00021f1c       0x44 examples/light_switch/server/CMakeFiles/light_switch_server_nrf52832_xxAA_s132_3.1.0.dir/__/__/__/mesh/access/src/access_publish.c.obj
 .text.schedule_publication_timer
                0x00021f60      0x184 examples/light_switch/server/CMakeFiles/light_switch_server_nrf52832_xxAA_s132_3.1.0.dir/__/__/__/mesh/access/src/access_publish.c.obj
 .text.publish_timer_tick
                0x000220e4       0xbc examples/light_switch/server/CMakeFiles/light_switch_server_nrf52832_xxAA_s132_3.1.0.dir/__/__/__/mesh/access/src/access_publish.c.obj
 .text.access_publish_init
                0x000221a0       0x38 examples/light_switch/server/CMakeFiles/light_switch_server_nrf52832_xxAA_s132_3.1.0.dir/__/__/__/mesh/access/src/access_publish.c.obj
                0x000221a0                access_publish_init
 .text.access_publish_period_set
                0x000221d8       0x6c examples/light_switch/server/CMakeFiles/light_switch_server_nrf52832_xxAA_s132_3.1.0.dir/__/__/__/mesh/access/src/access_publish.c.obj
                0x000221d8                access_publish_period_set
 .text.access_publish_period_get
                0x00022244       0x30 examples/light_switch/server/CMakeFiles/light_switch_server_nrf52832_xxAA_s132_3.1.0.dir/__/__/__/mesh/access/src/access_publish.c.obj
                0x00022244                access_publish_period_get
 .text.bitfield_get
                0x00022274       0x1a examples/light_switch/server/CMakeFiles/light_switch_server_nrf52832_xxAA_s132_3.1.0.dir/__/__/__/mesh/access/src/access.c.obj
 .text.is_valid_opcode
                0x0002228e       0x42 examples/light_switch/server/CMakeFiles/light_switch_server_nrf52832_xxAA_s132_3.1.0.dir/__/__/__/mesh/access/src/access.c.obj
 .text.model_handle_valid_and_allocated
                0x000222d0       0x20 examples/light_switch/server/CMakeFiles/light_switch_server_nrf52832_xxAA_s132_3.1.0.dir/__/__/__/mesh/access/src/access.c.obj
 .text.flash_invalidate_complete
                0x000222f0       0x14 examples/light_switch/server/CMakeFiles/light_switch_server_nrf52832_xxAA_s132_3.1.0.dir/__/__/__/mesh/access/src/access.c.obj
 .text.flash_manager_mem_available
                0x00022304        0x2 examples/light_switch/server/CMakeFiles/light_switch_server_nrf52832_xxAA_s132_3.1.0.dir/__/__/__/mesh/access/src/access.c.obj
 *fill*         0x00022306        0x2 
 .text.restore_acquired_subscription
                0x00022308       0x24 examples/light_switch/server/CMakeFiles/light_switch_server_nrf52832_xxAA_s132_3.1.0.dir/__/__/__/mesh/access/src/access.c.obj
 .text.restore_acquired_element
                0x0002232c       0x1c examples/light_switch/server/CMakeFiles/light_switch_server_nrf52832_xxAA_s132_3.1.0.dir/__/__/__/mesh/access/src/access.c.obj
 .text.restore_flash_data
                0x00022348       0x5c examples/light_switch/server/CMakeFiles/light_switch_server_nrf52832_xxAA_s132_3.1.0.dir/__/__/__/mesh/access/src/access.c.obj
 .text.access_flash_config_clear
                0x000223a4       0x28 examples/light_switch/server/CMakeFiles/light_switch_server_nrf52832_xxAA_s132_3.1.0.dir/__/__/__/mesh/access/src/access.c.obj
 .text.access_flash_config_store
                0x000223cc      0x114 examples/light_switch/server/CMakeFiles/light_switch_server_nrf52832_xxAA_s132_3.1.0.dir/__/__/__/mesh/access/src/access.c.obj
                0x000223cc                access_flash_config_store
 .text.access_state_clear
                0x000224e0       0x48 examples/light_switch/server/CMakeFiles/light_switch_server_nrf52832_xxAA_s132_3.1.0.dir/__/__/__/mesh/access/src/access.c.obj
 .text.add_flash_manager
                0x00022528       0x58 examples/light_switch/server/CMakeFiles/light_switch_server_nrf52832_xxAA_s132_3.1.0.dir/__/__/__/mesh/access/src/access.c.obj
 .text.flash_remove_complete
                0x00022580       0x4c examples/light_switch/server/CMakeFiles/light_switch_server_nrf52832_xxAA_s132_3.1.0.dir/__/__/__/mesh/access/src/access.c.obj
 .text.flash_write_complete
                0x000225cc       0x54 examples/light_switch/server/CMakeFiles/light_switch_server_nrf52832_xxAA_s132_3.1.0.dir/__/__/__/mesh/access/src/access.c.obj
 .text.unlikely.bitfield_next_get.part.0.constprop.3
                0x00022620       0x34 examples/light_switch/server/CMakeFiles/light_switch_server_nrf52832_xxAA_s132_3.1.0.dir/__/__/__/mesh/access/src/access.c.obj
 .text.restore_acquired_model
                0x00022654       0x84 examples/light_switch/server/CMakeFiles/light_switch_server_nrf52832_xxAA_s132_3.1.0.dir/__/__/__/mesh/access/src/access.c.obj
 .text.handle_incoming
                0x000226d8      0x154 examples/light_switch/server/CMakeFiles/light_switch_server_nrf52832_xxAA_s132_3.1.0.dir/__/__/__/mesh/access/src/access.c.obj
 .text.mesh_evt_cb
                0x0002282c      0x134 examples/light_switch/server/CMakeFiles/light_switch_server_nrf52832_xxAA_s132_3.1.0.dir/__/__/__/mesh/access/src/access.c.obj
 .text.packet_tx
                0x00022960      0x2c4 examples/light_switch/server/CMakeFiles/light_switch_server_nrf52832_xxAA_s132_3.1.0.dir/__/__/__/mesh/access/src/access.c.obj
 .text.access_flash_config_load
                0x00022c24      0x130 examples/light_switch/server/CMakeFiles/light_switch_server_nrf52832_xxAA_s132_3.1.0.dir/__/__/__/mesh/access/src/access.c.obj
                0x00022c24                access_flash_config_load
 .text.access_clear
                0x00022d54       0x12 examples/light_switch/server/CMakeFiles/light_switch_server_nrf52832_xxAA_s132_3.1.0.dir/__/__/__/mesh/access/src/access.c.obj
                0x00022d54                access_clear
 *fill*         0x00022d66        0x2 
 .text.access_init
                0x00022d68       0x28 examples/light_switch/server/CMakeFiles/light_switch_server_nrf52832_xxAA_s132_3.1.0.dir/__/__/__/mesh/access/src/access.c.obj
                0x00022d68                access_init
 .text.access_model_add
                0x00022d90      0x1b8 examples/light_switch/server/CMakeFiles/light_switch_server_nrf52832_xxAA_s132_3.1.0.dir/__/__/__/mesh/access/src/access.c.obj
                0x00022d90                access_model_add
 .text.access_model_publish
                0x00022f48        0xc examples/light_switch/server/CMakeFiles/light_switch_server_nrf52832_xxAA_s132_3.1.0.dir/__/__/__/mesh/access/src/access.c.obj
                0x00022f48                access_model_publish
 .text.access_model_reply
                0x00022f54       0x12 examples/light_switch/server/CMakeFiles/light_switch_server_nrf52832_xxAA_s132_3.1.0.dir/__/__/__/mesh/access/src/access.c.obj
                0x00022f54                access_model_reply
 *fill*         0x00022f66        0x2 
 .text.access_model_publish_address_set
                0x00022f68       0x3c examples/light_switch/server/CMakeFiles/light_switch_server_nrf52832_xxAA_s132_3.1.0.dir/__/__/__/mesh/access/src/access.c.obj
                0x00022f68                access_model_publish_address_set
 .text.access_model_publish_address_get
                0x00022fa4       0x28 examples/light_switch/server/CMakeFiles/light_switch_server_nrf52832_xxAA_s132_3.1.0.dir/__/__/__/mesh/access/src/access.c.obj
                0x00022fa4                access_model_publish_address_get
 .text.access_model_publish_period_set
                0x00022fcc       0x6c examples/light_switch/server/CMakeFiles/light_switch_server_nrf52832_xxAA_s132_3.1.0.dir/__/__/__/mesh/access/src/access.c.obj
                0x00022fcc                access_model_publish_period_set
 .text.access_model_publish_period_get
                0x00023038       0x3c examples/light_switch/server/CMakeFiles/light_switch_server_nrf52832_xxAA_s132_3.1.0.dir/__/__/__/mesh/access/src/access.c.obj
                0x00023038                access_model_publish_period_get
 .text.access_model_subscription_list_alloc
                0x00023074       0x40 examples/light_switch/server/CMakeFiles/light_switch_server_nrf52832_xxAA_s132_3.1.0.dir/__/__/__/mesh/access/src/access.c.obj
                0x00023074                access_model_subscription_list_alloc
 .text.access_model_subscription_add
                0x000230b4       0x60 examples/light_switch/server/CMakeFiles/light_switch_server_nrf52832_xxAA_s132_3.1.0.dir/__/__/__/mesh/access/src/access.c.obj
                0x000230b4                access_model_subscription_add
 .text.access_model_subscription_remove
                0x00023114       0x60 examples/light_switch/server/CMakeFiles/light_switch_server_nrf52832_xxAA_s132_3.1.0.dir/__/__/__/mesh/access/src/access.c.obj
                0x00023114                access_model_subscription_remove
 .text.access_model_subscriptions_get
                0x00023174       0x7c examples/light_switch/server/CMakeFiles/light_switch_server_nrf52832_xxAA_s132_3.1.0.dir/__/__/__/mesh/access/src/access.c.obj
                0x00023174                access_model_subscriptions_get
 .text.access_model_application_bind
                0x000231f0       0x50 examples/light_switch/server/CMakeFiles/light_switch_server_nrf52832_xxAA_s132_3.1.0.dir/__/__/__/mesh/access/src/access.c.obj
                0x000231f0                access_model_application_bind
 .text.access_model_application_unbind
                0x00023240       0x50 examples/light_switch/server/CMakeFiles/light_switch_server_nrf52832_xxAA_s132_3.1.0.dir/__/__/__/mesh/access/src/access.c.obj
                0x00023240                access_model_application_unbind
 .text.access_model_applications_get
                0x00023290       0x58 examples/light_switch/server/CMakeFiles/light_switch_server_nrf52832_xxAA_s132_3.1.0.dir/__/__/__/mesh/access/src/access.c.obj
                0x00023290                access_model_applications_get
 .text.access_model_publish_application_set
                0x000232e8       0x3c examples/light_switch/server/CMakeFiles/light_switch_server_nrf52832_xxAA_s132_3.1.0.dir/__/__/__/mesh/access/src/access.c.obj
                0x000232e8                access_model_publish_application_set
 .text.access_model_publish_application_get
                0x00023324       0x28 examples/light_switch/server/CMakeFiles/light_switch_server_nrf52832_xxAA_s132_3.1.0.dir/__/__/__/mesh/access/src/access.c.obj
                0x00023324                access_model_publish_application_get
 .text.access_default_ttl_set
                0x0002334c       0x10 examples/light_switch/server/CMakeFiles/light_switch_server_nrf52832_xxAA_s132_3.1.0.dir/__/__/__/mesh/access/src/access.c.obj
                0x0002334c                access_default_ttl_set
 .text.access_default_ttl_get
                0x0002335c        0xc examples/light_switch/server/CMakeFiles/light_switch_server_nrf52832_xxAA_s132_3.1.0.dir/__/__/__/mesh/access/src/access.c.obj
                0x0002335c                access_default_ttl_get
 .text.access_model_publish_ttl_set
                0x00023368       0x40 examples/light_switch/server/CMakeFiles/light_switch_server_nrf52832_xxAA_s132_3.1.0.dir/__/__/__/mesh/access/src/access.c.obj
                0x00023368                access_model_publish_ttl_set
 .text.access_model_publish_ttl_get
                0x000233a8       0x28 examples/light_switch/server/CMakeFiles/light_switch_server_nrf52832_xxAA_s132_3.1.0.dir/__/__/__/mesh/access/src/access.c.obj
                0x000233a8                access_model_publish_ttl_get
 .text.access_element_location_get
                0x000233d0       0x18 examples/light_switch/server/CMakeFiles/light_switch_server_nrf52832_xxAA_s132_3.1.0.dir/__/__/__/mesh/access/src/access.c.obj
                0x000233d0                access_element_location_get
 .text.access_element_sig_model_count_get
                0x000233e8       0x18 examples/light_switch/server/CMakeFiles/light_switch_server_nrf52832_xxAA_s132_3.1.0.dir/__/__/__/mesh/access/src/access.c.obj
                0x000233e8                access_element_sig_model_count_get
 .text.access_element_vendor_model_count_get
                0x00023400       0x18 examples/light_switch/server/CMakeFiles/light_switch_server_nrf52832_xxAA_s132_3.1.0.dir/__/__/__/mesh/access/src/access.c.obj
                0x00023400                access_element_vendor_model_count_get
 .text.access_model_id_get
                0x00023418       0x2c examples/light_switch/server/CMakeFiles/light_switch_server_nrf52832_xxAA_s132_3.1.0.dir/__/__/__/mesh/access/src/access.c.obj
                0x00023418                access_model_id_get
 .text.access_handle_get
                0x00023444       0x4c examples/light_switch/server/CMakeFiles/light_switch_server_nrf52832_xxAA_s132_3.1.0.dir/__/__/__/mesh/access/src/access.c.obj
                0x00023444                access_handle_get
 .text.access_element_models_get
                0x00023490       0x48 examples/light_switch/server/CMakeFiles/light_switch_server_nrf52832_xxAA_s132_3.1.0.dir/__/__/__/mesh/access/src/access.c.obj
                0x00023490                access_element_models_get
 .text.access_model_p_args_get
                0x000234d8       0x28 examples/light_switch/server/CMakeFiles/light_switch_server_nrf52832_xxAA_s132_3.1.0.dir/__/__/__/mesh/access/src/access.c.obj
                0x000234d8                access_model_p_args_get
 .text.remove_and_reschedule
                0x00023500       0xd0 examples/light_switch/server/CMakeFiles/light_switch_server_nrf52832_xxAA_s132_3.1.0.dir/__/__/__/mesh/access/src/access_reliable.c.obj
 .text.reliable_timer_cb
                0x000235d0      0x148 examples/light_switch/server/CMakeFiles/light_switch_server_nrf52832_xxAA_s132_3.1.0.dir/__/__/__/mesh/access/src/access_reliable.c.obj
 .text.access_reliable_message_rx_cb
                0x00023718       0x74 examples/light_switch/server/CMakeFiles/light_switch_server_nrf52832_xxAA_s132_3.1.0.dir/__/__/__/mesh/access/src/access_reliable.c.obj
                0x00023718                access_reliable_message_rx_cb
 .text.access_reliable_init
                0x0002378c       0x1c examples/light_switch/server/CMakeFiles/light_switch_server_nrf52832_xxAA_s132_3.1.0.dir/__/__/__/mesh/access/src/access_reliable.c.obj
                0x0002378c                access_reliable_init
 .text.access_reliable_cancel_all
                0x000237a8       0x34 examples/light_switch/server/CMakeFiles/light_switch_server_nrf52832_xxAA_s132_3.1.0.dir/__/__/__/mesh/access/src/access_reliable.c.obj
                0x000237a8                access_reliable_cancel_all
 .text.bitfield_get
                0x000237dc       0x1a examples/light_switch/server/CMakeFiles/light_switch_server_nrf52832_xxAA_s132_3.1.0.dir/__/__/__/mesh/access/src/device_state_manager.c.obj
 .text.bitfield_set
                0x000237f6       0x18 examples/light_switch/server/CMakeFiles/light_switch_server_nrf52832_xxAA_s132_3.1.0.dir/__/__/__/mesh/access/src/device_state_manager.c.obj
 .text.bitfield_clear
                0x0002380e       0x1a examples/light_switch/server/CMakeFiles/light_switch_server_nrf52832_xxAA_s132_3.1.0.dir/__/__/__/mesh/access/src/device_state_manager.c.obj
 .text.bitfield_is_all_clear
                0x00023828       0x3c examples/light_switch/server/CMakeFiles/light_switch_server_nrf52832_xxAA_s132_3.1.0.dir/__/__/__/mesh/access/src/device_state_manager.c.obj
 .text.address_handle_virtual_valid
                0x00023864       0x14 examples/light_switch/server/CMakeFiles/light_switch_server_nrf52832_xxAA_s132_3.1.0.dir/__/__/__/mesh/access/src/device_state_manager.c.obj
 .text.net_key_handle_get
                0x00023878       0x38 examples/light_switch/server/CMakeFiles/light_switch_server_nrf52832_xxAA_s132_3.1.0.dir/__/__/__/mesh/access/src/device_state_manager.c.obj
 .text.dev_key_handle_get
                0x000238b0       0x30 examples/light_switch/server/CMakeFiles/light_switch_server_nrf52832_xxAA_s132_3.1.0.dir/__/__/__/mesh/access/src/device_state_manager.c.obj
 .text.app_key_handle_get
                0x000238e0       0x38 examples/light_switch/server/CMakeFiles/light_switch_server_nrf52832_xxAA_s132_3.1.0.dir/__/__/__/mesh/access/src/device_state_manager.c.obj
 .text.get_subnet_handle
                0x00023918       0x40 examples/light_switch/server/CMakeFiles/light_switch_server_nrf52832_xxAA_s132_3.1.0.dir/__/__/__/mesh/access/src/device_state_manager.c.obj
 .text.addr_nonvirtual_to_flash_entry
                0x00023958       0x10 examples/light_switch/server/CMakeFiles/light_switch_server_nrf52832_xxAA_s132_3.1.0.dir/__/__/__/mesh/access/src/device_state_manager.c.obj
 .text.flash_mem_listener_callback
                0x00023968       0x20 examples/light_switch/server/CMakeFiles/light_switch_server_nrf52832_xxAA_s132_3.1.0.dir/__/__/__/mesh/access/src/device_state_manager.c.obj
 .text.devkey_set
                0x00023988       0x4c examples/light_switch/server/CMakeFiles/light_switch_server_nrf52832_xxAA_s132_3.1.0.dir/__/__/__/mesh/access/src/device_state_manager.c.obj
 .text.devkey_to_dsm_entry
                0x000239d4       0x16 examples/light_switch/server/CMakeFiles/light_switch_server_nrf52832_xxAA_s132_3.1.0.dir/__/__/__/mesh/access/src/device_state_manager.c.obj
 *fill*         0x000239ea        0x2 
 .text.devkey_to_flash_entry
                0x000239ec       0x28 examples/light_switch/server/CMakeFiles/light_switch_server_nrf52832_xxAA_s132_3.1.0.dir/__/__/__/mesh/access/src/device_state_manager.c.obj
 .text.addr_virtual_to_flash_entry
                0x00023a14       0x18 examples/light_switch/server/CMakeFiles/light_switch_server_nrf52832_xxAA_s132_3.1.0.dir/__/__/__/mesh/access/src/device_state_manager.c.obj
 .text.addr_unicast_to_dsm_entry
                0x00023a2c        0xc examples/light_switch/server/CMakeFiles/light_switch_server_nrf52832_xxAA_s132_3.1.0.dir/__/__/__/mesh/access/src/device_state_manager.c.obj
 .text.addr_unicast_to_flash_entry
                0x00023a38       0x10 examples/light_switch/server/CMakeFiles/light_switch_server_nrf52832_xxAA_s132_3.1.0.dir/__/__/__/mesh/access/src/device_state_manager.c.obj
 .text.appkey_set
                0x00023a48       0x7c examples/light_switch/server/CMakeFiles/light_switch_server_nrf52832_xxAA_s132_3.1.0.dir/__/__/__/mesh/access/src/device_state_manager.c.obj
 .text.appkey_to_flash_entry
                0x00023ac4       0x54 examples/light_switch/server/CMakeFiles/light_switch_server_nrf52832_xxAA_s132_3.1.0.dir/__/__/__/mesh/access/src/device_state_manager.c.obj
 .text.subnet_to_flash_entry
                0x00023b18       0x60 examples/light_switch/server/CMakeFiles/light_switch_server_nrf52832_xxAA_s132_3.1.0.dir/__/__/__/mesh/access/src/device_state_manager.c.obj
 .text.subnet_set
                0x00023b78       0xb4 examples/light_switch/server/CMakeFiles/light_switch_server_nrf52832_xxAA_s132_3.1.0.dir/__/__/__/mesh/access/src/device_state_manager.c.obj
 .text.virtual_address_set
                0x00023c2c       0x54 examples/light_switch/server/CMakeFiles/light_switch_server_nrf52832_xxAA_s132_3.1.0.dir/__/__/__/mesh/access/src/device_state_manager.c.obj
 .text.addr_virtual_to_dsm_entry
                0x00023c80        0xc examples/light_switch/server/CMakeFiles/light_switch_server_nrf52832_xxAA_s132_3.1.0.dir/__/__/__/mesh/access/src/device_state_manager.c.obj
 .text.reset_flash_area
                0x00023c8c       0x28 examples/light_switch/server/CMakeFiles/light_switch_server_nrf52832_xxAA_s132_3.1.0.dir/__/__/__/mesh/access/src/device_state_manager.c.obj
 .text.flash_save
                0x00023cb4       0x88 examples/light_switch/server/CMakeFiles/light_switch_server_nrf52832_xxAA_s132_3.1.0.dir/__/__/__/mesh/access/src/device_state_manager.c.obj
 .text.flash_invalidate
                0x00023d3c       0x70 examples/light_switch/server/CMakeFiles/light_switch_server_nrf52832_xxAA_s132_3.1.0.dir/__/__/__/mesh/access/src/device_state_manager.c.obj
 .text.flash_update_all
                0x00023dac       0x6c examples/light_switch/server/CMakeFiles/light_switch_server_nrf52832_xxAA_s132_3.1.0.dir/__/__/__/mesh/access/src/device_state_manager.c.obj
 .text.virtual_address_uuid_index_get
                0x00023e18       0x3c examples/light_switch/server/CMakeFiles/light_switch_server_nrf52832_xxAA_s132_3.1.0.dir/__/__/__/mesh/access/src/device_state_manager.c.obj
 .text.add_address_virtual
                0x00023e54       0x70 examples/light_switch/server/CMakeFiles/light_switch_server_nrf52832_xxAA_s132_3.1.0.dir/__/__/__/mesh/access/src/device_state_manager.c.obj
 .text.get_subnet_handle_by_beacon_info
                0x00023ec4       0x30 examples/light_switch/server/CMakeFiles/light_switch_server_nrf52832_xxAA_s132_3.1.0.dir/__/__/__/mesh/access/src/device_state_manager.c.obj
 .text.get_app_handle
                0x00023ef4       0x38 examples/light_switch/server/CMakeFiles/light_switch_server_nrf52832_xxAA_s132_3.1.0.dir/__/__/__/mesh/access/src/device_state_manager.c.obj
 .text.appkey_to_dsm_entry
                0x00023f2c       0x80 examples/light_switch/server/CMakeFiles/light_switch_server_nrf52832_xxAA_s132_3.1.0.dir/__/__/__/mesh/access/src/device_state_manager.c.obj
 .text.subnet_to_dsm_entry
                0x00023fac       0x7c examples/light_switch/server/CMakeFiles/light_switch_server_nrf52832_xxAA_s132_3.1.0.dir/__/__/__/mesh/access/src/device_state_manager.c.obj
 .text.flash_operation_complete
                0x00024028       0x58 examples/light_switch/server/CMakeFiles/light_switch_server_nrf52832_xxAA_s132_3.1.0.dir/__/__/__/mesh/access/src/device_state_manager.c.obj
 .text.flash_invalidate_complete
                0x00024080        0x8 examples/light_switch/server/CMakeFiles/light_switch_server_nrf52832_xxAA_s132_3.1.0.dir/__/__/__/mesh/access/src/device_state_manager.c.obj
 .text.flash_write_complete
                0x00024088        0x8 examples/light_switch/server/CMakeFiles/light_switch_server_nrf52832_xxAA_s132_3.1.0.dir/__/__/__/mesh/access/src/device_state_manager.c.obj
 .text.add_address.part.7
                0x00024090      0x144 examples/light_switch/server/CMakeFiles/light_switch_server_nrf52832_xxAA_s132_3.1.0.dir/__/__/__/mesh/access/src/device_state_manager.c.obj
 .text.address_handle_valid
                0x000241d4       0x28 examples/light_switch/server/CMakeFiles/light_switch_server_nrf52832_xxAA_s132_3.1.0.dir/__/__/__/mesh/access/src/device_state_manager.c.obj
 .text.address_handle_nonvirtual_valid
                0x000241fc       0x14 examples/light_switch/server/CMakeFiles/light_switch_server_nrf52832_xxAA_s132_3.1.0.dir/__/__/__/mesh/access/src/device_state_manager.c.obj
 .text.address_delete_if_unused
                0x00024210       0x78 examples/light_switch/server/CMakeFiles/light_switch_server_nrf52832_xxAA_s132_3.1.0.dir/__/__/__/mesh/access/src/device_state_manager.c.obj
 .text.addr_nonvirtual_to_dsm_entry
                0x00024288       0x38 examples/light_switch/server/CMakeFiles/light_switch_server_nrf52832_xxAA_s132_3.1.0.dir/__/__/__/mesh/access/src/device_state_manager.c.obj
 .text.dsm_flash_config_load
                0x000242c0      0x134 examples/light_switch/server/CMakeFiles/light_switch_server_nrf52832_xxAA_s132_3.1.0.dir/__/__/__/mesh/access/src/device_state_manager.c.obj
                0x000242c0                dsm_flash_config_load
 .text.dsm_flash_area_get
                0x000243f4        0xc examples/light_switch/server/CMakeFiles/light_switch_server_nrf52832_xxAA_s132_3.1.0.dir/__/__/__/mesh/access/src/device_state_manager.c.obj
                0x000243f4                dsm_flash_area_get
 .text.build_flash_area
                0x00024400       0x8c examples/light_switch/server/CMakeFiles/light_switch_server_nrf52832_xxAA_s132_3.1.0.dir/__/__/__/mesh/access/src/device_state_manager.c.obj
 .text.flash_remove_complete
                0x0002448c        0x4 examples/light_switch/server/CMakeFiles/light_switch_server_nrf52832_xxAA_s132_3.1.0.dir/__/__/__/mesh/access/src/device_state_manager.c.obj
 .text.dsm_clear
                0x00024490       0x68 examples/light_switch/server/CMakeFiles/light_switch_server_nrf52832_xxAA_s132_3.1.0.dir/__/__/__/mesh/access/src/device_state_manager.c.obj
                0x00024490                dsm_clear
 .text.dsm_init
                0x000244f8       0x24 examples/light_switch/server/CMakeFiles/light_switch_server_nrf52832_xxAA_s132_3.1.0.dir/__/__/__/mesh/access/src/device_state_manager.c.obj
                0x000244f8                dsm_init
 .text.dsm_local_unicast_addresses_set
                0x0002451c       0x84 examples/light_switch/server/CMakeFiles/light_switch_server_nrf52832_xxAA_s132_3.1.0.dir/__/__/__/mesh/access/src/device_state_manager.c.obj
                0x0002451c                dsm_local_unicast_addresses_set
 .text.dsm_local_unicast_addresses_get
                0x000245a0       0x2c examples/light_switch/server/CMakeFiles/light_switch_server_nrf52832_xxAA_s132_3.1.0.dir/__/__/__/mesh/access/src/device_state_manager.c.obj
                0x000245a0                dsm_local_unicast_addresses_get
 .text.dsm_address_publish_add
                0x000245cc        0xc examples/light_switch/server/CMakeFiles/light_switch_server_nrf52832_xxAA_s132_3.1.0.dir/__/__/__/mesh/access/src/device_state_manager.c.obj
                0x000245cc                dsm_address_publish_add
 .text.dsm_address_publish_add_handle
                0x000245d8       0x38 examples/light_switch/server/CMakeFiles/light_switch_server_nrf52832_xxAA_s132_3.1.0.dir/__/__/__/mesh/access/src/device_state_manager.c.obj
                0x000245d8                dsm_address_publish_add_handle
 .text.dsm_address_publish_virtual_add
                0x00024610        0x6 examples/light_switch/server/CMakeFiles/light_switch_server_nrf52832_xxAA_s132_3.1.0.dir/__/__/__/mesh/access/src/device_state_manager.c.obj
                0x00024610                dsm_address_publish_virtual_add
 .text.dsm_address_subscription_add
                0x00024616        0xc examples/light_switch/server/CMakeFiles/light_switch_server_nrf52832_xxAA_s132_3.1.0.dir/__/__/__/mesh/access/src/device_state_manager.c.obj
                0x00024616                dsm_address_subscription_add
 .text.dsm_address_subscription_virtual_add
                0x00024622        0x6 examples/light_switch/server/CMakeFiles/light_switch_server_nrf52832_xxAA_s132_3.1.0.dir/__/__/__/mesh/access/src/device_state_manager.c.obj
                0x00024622                dsm_address_subscription_virtual_add
 .text.dsm_address_subscription_add_handle
                0x00024628       0x38 examples/light_switch/server/CMakeFiles/light_switch_server_nrf52832_xxAA_s132_3.1.0.dir/__/__/__/mesh/access/src/device_state_manager.c.obj
                0x00024628                dsm_address_subscription_add_handle
 .text.dsm_address_subscription_get
                0x00024660       0x34 examples/light_switch/server/CMakeFiles/light_switch_server_nrf52832_xxAA_s132_3.1.0.dir/__/__/__/mesh/access/src/device_state_manager.c.obj
                0x00024660                dsm_address_subscription_get
 .text.dsm_address_get
                0x00024694       0x5c examples/light_switch/server/CMakeFiles/light_switch_server_nrf52832_xxAA_s132_3.1.0.dir/__/__/__/mesh/access/src/device_state_manager.c.obj
                0x00024694                dsm_address_get
 .text.dsm_address_subscription_remove
                0x000246f0       0x58 examples/light_switch/server/CMakeFiles/light_switch_server_nrf52832_xxAA_s132_3.1.0.dir/__/__/__/mesh/access/src/device_state_manager.c.obj
                0x000246f0                dsm_address_subscription_remove
 .text.dsm_address_handle_get
                0x00024748       0x98 examples/light_switch/server/CMakeFiles/light_switch_server_nrf52832_xxAA_s132_3.1.0.dir/__/__/__/mesh/access/src/device_state_manager.c.obj
                0x00024748                dsm_address_handle_get
 .text.dsm_net_key_index_to_subnet_handle
                0x000247e0       0x1c examples/light_switch/server/CMakeFiles/light_switch_server_nrf52832_xxAA_s132_3.1.0.dir/__/__/__/mesh/access/src/device_state_manager.c.obj
                0x000247e0                dsm_net_key_index_to_subnet_handle
 .text.dsm_appkey_index_to_appkey_handle
                0x000247fc       0x1c examples/light_switch/server/CMakeFiles/light_switch_server_nrf52832_xxAA_s132_3.1.0.dir/__/__/__/mesh/access/src/device_state_manager.c.obj
                0x000247fc                dsm_appkey_index_to_appkey_handle
 .text.dsm_appkey_handle_get
                0x00024818        0xc examples/light_switch/server/CMakeFiles/light_switch_server_nrf52832_xxAA_s132_3.1.0.dir/__/__/__/mesh/access/src/device_state_manager.c.obj
                0x00024818                dsm_appkey_handle_get
 .text.dsm_appkey_handle_to_appkey_index
                0x00024824       0x30 examples/light_switch/server/CMakeFiles/light_switch_server_nrf52832_xxAA_s132_3.1.0.dir/__/__/__/mesh/access/src/device_state_manager.c.obj
                0x00024824                dsm_appkey_handle_to_appkey_index
 .text.dsm_subnet_add
                0x00024854       0x58 examples/light_switch/server/CMakeFiles/light_switch_server_nrf52832_xxAA_s132_3.1.0.dir/__/__/__/mesh/access/src/device_state_manager.c.obj
                0x00024854                dsm_subnet_add
 .text.dsm_subnet_kr_phase_get
                0x000248ac       0x2c examples/light_switch/server/CMakeFiles/light_switch_server_nrf52832_xxAA_s132_3.1.0.dir/__/__/__/mesh/access/src/device_state_manager.c.obj
                0x000248ac                dsm_subnet_kr_phase_get
 .text.dsm_subnet_update
                0x000248d8       0xa4 examples/light_switch/server/CMakeFiles/light_switch_server_nrf52832_xxAA_s132_3.1.0.dir/__/__/__/mesh/access/src/device_state_manager.c.obj
                0x000248d8                dsm_subnet_update
 .text.dsm_subnet_update_swap_keys
                0x0002497c       0x50 examples/light_switch/server/CMakeFiles/light_switch_server_nrf52832_xxAA_s132_3.1.0.dir/__/__/__/mesh/access/src/device_state_manager.c.obj
                0x0002497c                dsm_subnet_update_swap_keys
 .text.dsm_subnet_update_commit
                0x000249cc       0xb8 examples/light_switch/server/CMakeFiles/light_switch_server_nrf52832_xxAA_s132_3.1.0.dir/__/__/__/mesh/access/src/device_state_manager.c.obj
                0x000249cc                dsm_subnet_update_commit
 .text.net_beacon_callback
                0x00024a84       0x74 examples/light_switch/server/CMakeFiles/light_switch_server_nrf52832_xxAA_s132_3.1.0.dir/__/__/__/mesh/access/src/device_state_manager.c.obj
 .text.dsm_subnet_get_all
                0x00024af8       0x3c examples/light_switch/server/CMakeFiles/light_switch_server_nrf52832_xxAA_s132_3.1.0.dir/__/__/__/mesh/access/src/device_state_manager.c.obj
                0x00024af8                dsm_subnet_get_all
 .text.dsm_devkey_add
                0x00024b34       0x78 examples/light_switch/server/CMakeFiles/light_switch_server_nrf52832_xxAA_s132_3.1.0.dir/__/__/__/mesh/access/src/device_state_manager.c.obj
                0x00024b34                dsm_devkey_add
 .text.dsm_devkey_delete
                0x00024bac       0x38 examples/light_switch/server/CMakeFiles/light_switch_server_nrf52832_xxAA_s132_3.1.0.dir/__/__/__/mesh/access/src/device_state_manager.c.obj
                0x00024bac                dsm_devkey_delete
 .text.dsm_appkey_add
                0x00024be4       0x70 examples/light_switch/server/CMakeFiles/light_switch_server_nrf52832_xxAA_s132_3.1.0.dir/__/__/__/mesh/access/src/device_state_manager.c.obj
                0x00024be4                dsm_appkey_add
 .text.dsm_appkey_update
                0x00024c54       0x8c examples/light_switch/server/CMakeFiles/light_switch_server_nrf52832_xxAA_s132_3.1.0.dir/__/__/__/mesh/access/src/device_state_manager.c.obj
                0x00024c54                dsm_appkey_update
 .text.dsm_appkey_delete
                0x00024ce0       0x2c examples/light_switch/server/CMakeFiles/light_switch_server_nrf52832_xxAA_s132_3.1.0.dir/__/__/__/mesh/access/src/device_state_manager.c.obj
                0x00024ce0                dsm_appkey_delete
 .text.dsm_subnet_delete
                0x00024d0c       0x84 examples/light_switch/server/CMakeFiles/light_switch_server_nrf52832_xxAA_s132_3.1.0.dir/__/__/__/mesh/access/src/device_state_manager.c.obj
                0x00024d0c                dsm_subnet_delete
 .text.dsm_appkey_get_all
                0x00024d90       0x58 examples/light_switch/server/CMakeFiles/light_switch_server_nrf52832_xxAA_s132_3.1.0.dir/__/__/__/mesh/access/src/device_state_manager.c.obj
                0x00024d90                dsm_appkey_get_all
 .text.dsm_tx_secmat_get
                0x00024de8       0xf0 examples/light_switch/server/CMakeFiles/light_switch_server_nrf52832_xxAA_s132_3.1.0.dir/__/__/__/mesh/access/src/device_state_manager.c.obj
                0x00024de8                dsm_tx_secmat_get
 .text.dsm_net_secmat_from_keyindex_get
                0x00024ed8       0x30 examples/light_switch/server/CMakeFiles/light_switch_server_nrf52832_xxAA_s132_3.1.0.dir/__/__/__/mesh/access/src/device_state_manager.c.obj
                0x00024ed8                dsm_net_secmat_from_keyindex_get
 .text.nrf_mesh_net_secmat_next_get
                0x00024f08       0xa4 examples/light_switch/server/CMakeFiles/light_switch_server_nrf52832_xxAA_s132_3.1.0.dir/__/__/__/mesh/access/src/device_state_manager.c.obj
                0x00024f08                nrf_mesh_net_secmat_next_get
 .text.nrf_mesh_app_secmat_next_get
                0x00024fac       0x84 examples/light_switch/server/CMakeFiles/light_switch_server_nrf52832_xxAA_s132_3.1.0.dir/__/__/__/mesh/access/src/device_state_manager.c.obj
                0x00024fac                nrf_mesh_app_secmat_next_get
 .text.nrf_mesh_devkey_secmat_get
                0x00025030       0x34 examples/light_switch/server/CMakeFiles/light_switch_server_nrf52832_xxAA_s132_3.1.0.dir/__/__/__/mesh/access/src/device_state_manager.c.obj
                0x00025030                nrf_mesh_devkey_secmat_get
 .text.nrf_mesh_beacon_info_next_get
                0x00025064       0xc8 examples/light_switch/server/CMakeFiles/light_switch_server_nrf52832_xxAA_s132_3.1.0.dir/__/__/__/mesh/access/src/device_state_manager.c.obj
                0x00025064                nrf_mesh_beacon_info_next_get
 .text.nrf_mesh_rx_address_get
                0x0002512c       0xfc examples/light_switch/server/CMakeFiles/light_switch_server_nrf52832_xxAA_s132_3.1.0.dir/__/__/__/mesh/access/src/device_state_manager.c.obj
                0x0002512c                nrf_mesh_rx_address_get
 .text.complete_provisioning
                0x00025228       0x52 examples/light_switch/server/CMakeFiles/light_switch_server_nrf52832_xxAA_s132_3.1.0.dir/__/__/__/mesh/prov/src/prov_provisionee.c.obj
 .text.prov_provisionee_cb_link_established
                0x0002527a       0x20 examples/light_switch/server/CMakeFiles/light_switch_server_nrf52832_xxAA_s132_3.1.0.dir/__/__/__/mesh/prov/src/prov_provisionee.c.obj
 .text.prov_provisionee_cb_link_closed
                0x0002529a       0x34 examples/light_switch/server/CMakeFiles/light_switch_server_nrf52832_xxAA_s132_3.1.0.dir/__/__/__/mesh/prov/src/prov_provisionee.c.obj
 .text.request_authentication
                0x000252ce       0x8a examples/light_switch/server/CMakeFiles/light_switch_server_nrf52832_xxAA_s132_3.1.0.dir/__/__/__/mesh/prov/src/prov_provisionee.c.obj
 .text.send_failed
                0x00025358       0x3a examples/light_switch/server/CMakeFiles/light_switch_server_nrf52832_xxAA_s132_3.1.0.dir/__/__/__/mesh/prov/src/prov_provisionee.c.obj
 .text.start_authentication
                0x00025392       0x52 examples/light_switch/server/CMakeFiles/light_switch_server_nrf52832_xxAA_s132_3.1.0.dir/__/__/__/mesh/prov/src/prov_provisionee.c.obj
 .text.prov_provisionee_cb_ack_received
                0x000253e4       0xb8 examples/light_switch/server/CMakeFiles/light_switch_server_nrf52832_xxAA_s132_3.1.0.dir/__/__/__/mesh/prov/src/prov_provisionee.c.obj
 .text.prov_provisionee_pkt_in
                0x0002549c      0x2a0 examples/light_switch/server/CMakeFiles/light_switch_server_nrf52832_xxAA_s132_3.1.0.dir/__/__/__/mesh/prov/src/prov_provisionee.c.obj
 .text.prov_provisionee_init
                0x0002573c       0x38 examples/light_switch/server/CMakeFiles/light_switch_server_nrf52832_xxAA_s132_3.1.0.dir/__/__/__/mesh/prov/src/prov_provisionee.c.obj
                0x0002573c                prov_provisionee_init
 .text.prov_provisionee_auth_data
                0x00025774       0x7a examples/light_switch/server/CMakeFiles/light_switch_server_nrf52832_xxAA_s132_3.1.0.dir/__/__/__/mesh/prov/src/prov_provisionee.c.obj
                0x00025774                prov_provisionee_auth_data
 .text.bearer_compare_callback
                0x000257ee        0xc examples/light_switch/server/CMakeFiles/light_switch_server_nrf52832_xxAA_s132_3.1.0.dir/__/__/__/mesh/prov/src/nrf_mesh_prov.c.obj
 .text.nrf_mesh_prov_init
                0x000257fa       0x32 examples/light_switch/server/CMakeFiles/light_switch_server_nrf52832_xxAA_s132_3.1.0.dir/__/__/__/mesh/prov/src/nrf_mesh_prov.c.obj
                0x000257fa                nrf_mesh_prov_init
 .text.nrf_mesh_prov_bearer_add
                0x0002582c       0x20 examples/light_switch/server/CMakeFiles/light_switch_server_nrf52832_xxAA_s132_3.1.0.dir/__/__/__/mesh/prov/src/nrf_mesh_prov.c.obj
                0x0002582c                nrf_mesh_prov_bearer_add
 .text.nrf_mesh_prov_generate_keys
                0x0002584c        0x4 examples/light_switch/server/CMakeFiles/light_switch_server_nrf52832_xxAA_s132_3.1.0.dir/__/__/__/mesh/prov/src/nrf_mesh_prov.c.obj
                0x0002584c                nrf_mesh_prov_generate_keys
 .text.nrf_mesh_prov_listen
                0x00025850       0x30 examples/light_switch/server/CMakeFiles/light_switch_server_nrf52832_xxAA_s132_3.1.0.dir/__/__/__/mesh/prov/src/nrf_mesh_prov.c.obj
                0x00025850                nrf_mesh_prov_listen
 .text.nrf_mesh_prov_auth_data_provide
                0x00025880        0xe examples/light_switch/server/CMakeFiles/light_switch_server_nrf52832_xxAA_s132_3.1.0.dir/__/__/__/mesh/prov/src/nrf_mesh_prov.c.obj
                0x00025880                nrf_mesh_prov_auth_data_provide
 *fill*         0x0002588e        0x2 
 .text.send_data
                0x00025890       0x3c examples/light_switch/server/CMakeFiles/light_switch_server_nrf52832_xxAA_s132_3.1.0.dir/__/__/__/mesh/prov/src/provisioning.c.obj
 .text.prov_packet_length_valid
                0x000258cc       0x1c examples/light_switch/server/CMakeFiles/light_switch_server_nrf52832_xxAA_s132_3.1.0.dir/__/__/__/mesh/prov/src/provisioning.c.obj
                0x000258cc                prov_packet_length_valid
 .text.prov_tx_capabilities
                0x000258e8       0x1e examples/light_switch/server/CMakeFiles/light_switch_server_nrf52832_xxAA_s132_3.1.0.dir/__/__/__/mesh/prov/src/provisioning.c.obj
                0x000258e8                prov_tx_capabilities
 .text.prov_tx_public_key
                0x00025906       0x26 examples/light_switch/server/CMakeFiles/light_switch_server_nrf52832_xxAA_s132_3.1.0.dir/__/__/__/mesh/prov/src/provisioning.c.obj
                0x00025906                prov_tx_public_key
 .text.prov_tx_input_complete
                0x0002592c       0x16 examples/light_switch/server/CMakeFiles/light_switch_server_nrf52832_xxAA_s132_3.1.0.dir/__/__/__/mesh/prov/src/provisioning.c.obj
                0x0002592c                prov_tx_input_complete
 .text.prov_tx_confirmation
                0x00025942       0x26 examples/light_switch/server/CMakeFiles/light_switch_server_nrf52832_xxAA_s132_3.1.0.dir/__/__/__/mesh/prov/src/provisioning.c.obj
                0x00025942                prov_tx_confirmation
 .text.prov_tx_random
                0x00025968       0x26 examples/light_switch/server/CMakeFiles/light_switch_server_nrf52832_xxAA_s132_3.1.0.dir/__/__/__/mesh/prov/src/provisioning.c.obj
                0x00025968                prov_tx_random
 .text.prov_tx_complete
                0x0002598e       0x16 examples/light_switch/server/CMakeFiles/light_switch_server_nrf52832_xxAA_s132_3.1.0.dir/__/__/__/mesh/prov/src/provisioning.c.obj
                0x0002598e                prov_tx_complete
 .text.prov_tx_failed
                0x000259a4       0x1a examples/light_switch/server/CMakeFiles/light_switch_server_nrf52832_xxAA_s132_3.1.0.dir/__/__/__/mesh/prov/src/provisioning.c.obj
                0x000259a4                prov_tx_failed
 .text.prov_beacon_unprov_build
                0x000259be       0x54 examples/light_switch/server/CMakeFiles/light_switch_server_nrf52832_xxAA_s132_3.1.0.dir/__/__/__/mesh/prov/src/prov_beacon.c.obj
                0x000259be                prov_beacon_unprov_build
 *fill*         0x00025a12        0x2 
 .text.prov_beacon_unprov_packet_in
                0x00025a14       0x9c examples/light_switch/server/CMakeFiles/light_switch_server_nrf52832_xxAA_s132_3.1.0.dir/__/__/__/mesh/prov/src/prov_beacon.c.obj
                0x00025a14                prov_beacon_unprov_packet_in
 .text.oob_gen_alphanumeric
                0x00025ab0       0x34 examples/light_switch/server/CMakeFiles/light_switch_server_nrf52832_xxAA_s132_3.1.0.dir/__/__/__/mesh/prov/src/prov_utils.c.obj
 .text.oob_gen_numeric
                0x00025ae4       0x3c examples/light_switch/server/CMakeFiles/light_switch_server_nrf52832_xxAA_s132_3.1.0.dir/__/__/__/mesh/prov/src/prov_utils.c.obj
 .text.prov_utils_opt_set
                0x00025b20       0x20 examples/light_switch/server/CMakeFiles/light_switch_server_nrf52832_xxAA_s132_3.1.0.dir/__/__/__/mesh/prov/src/prov_utils.c.obj
                0x00025b20                prov_utils_opt_set
 .text.prov_utils_opt_get
                0x00025b40       0x1c examples/light_switch/server/CMakeFiles/light_switch_server_nrf52832_xxAA_s132_3.1.0.dir/__/__/__/mesh/prov/src/prov_utils.c.obj
                0x00025b40                prov_utils_opt_get
 .text.prov_utils_use_ecdh_offloading
                0x00025b5c        0xc examples/light_switch/server/CMakeFiles/light_switch_server_nrf52832_xxAA_s132_3.1.0.dir/__/__/__/mesh/prov/src/prov_utils.c.obj
                0x00025b5c                prov_utils_use_ecdh_offloading
 .text.prov_utils_authentication_values_derive
                0x00025b68       0xa0 examples/light_switch/server/CMakeFiles/light_switch_server_nrf52832_xxAA_s132_3.1.0.dir/__/__/__/mesh/prov/src/prov_utils.c.obj
                0x00025b68                prov_utils_authentication_values_derive
 .text.prov_utils_keys_generate
                0x00025c08       0x1e examples/light_switch/server/CMakeFiles/light_switch_server_nrf52832_xxAA_s132_3.1.0.dir/__/__/__/mesh/prov/src/prov_utils.c.obj
                0x00025c08                prov_utils_keys_generate
 *fill*         0x00025c26        0x2 
 .text.prov_utils_derive_keys
                0x00025c28       0xac examples/light_switch/server/CMakeFiles/light_switch_server_nrf52832_xxAA_s132_3.1.0.dir/__/__/__/mesh/prov/src/prov_utils.c.obj
                0x00025c28                prov_utils_derive_keys
 .text.prov_utils_calculate_shared_secret
                0x00025cd4       0x36 examples/light_switch/server/CMakeFiles/light_switch_server_nrf52832_xxAA_s132_3.1.0.dir/__/__/__/mesh/prov/src/prov_utils.c.obj
                0x00025cd4                prov_utils_calculate_shared_secret
 *fill*         0x00025d0a        0x2 
 .text.prov_utils_generate_oob_data
                0x00025d0c       0x9c examples/light_switch/server/CMakeFiles/light_switch_server_nrf52832_xxAA_s132_3.1.0.dir/__/__/__/mesh/prov/src/prov_utils.c.obj
                0x00025d0c                prov_utils_generate_oob_data
 .text.prov_utils_confirmation_check
                0x00025da8       0x5c examples/light_switch/server/CMakeFiles/light_switch_server_nrf52832_xxAA_s132_3.1.0.dir/__/__/__/mesh/prov/src/prov_utils.c.obj
                0x00025da8                prov_utils_confirmation_check
 .text.link_timeout_cb
                0x00025e04       0x10 examples/light_switch/server/CMakeFiles/light_switch_server_nrf52832_xxAA_s132_3.1.0.dir/__/__/__/mesh/prov/src/prov_bearer_adv.c.obj
 .text.remove_active_bearer
                0x00025e14       0x60 examples/light_switch/server/CMakeFiles/light_switch_server_nrf52832_xxAA_s132_3.1.0.dir/__/__/__/mesh/prov/src/prov_bearer_adv.c.obj
 .text.close_link
                0x00025e74       0x6c examples/light_switch/server/CMakeFiles/light_switch_server_nrf52832_xxAA_s132_3.1.0.dir/__/__/__/mesh/prov/src/prov_bearer_adv.c.obj
 .text.prov_bearer_adv_listen_stop
                0x00025ee0       0x3c examples/light_switch/server/CMakeFiles/light_switch_server_nrf52832_xxAA_s132_3.1.0.dir/__/__/__/mesh/prov/src/prov_bearer_adv.c.obj
 .text.send_packet
                0x00025f1c       0x6c examples/light_switch/server/CMakeFiles/light_switch_server_nrf52832_xxAA_s132_3.1.0.dir/__/__/__/mesh/prov/src/prov_bearer_adv.c.obj
 .text.prov_buffer_tx
                0x00025f88      0x158 examples/light_switch/server/CMakeFiles/light_switch_server_nrf52832_xxAA_s132_3.1.0.dir/__/__/__/mesh/prov/src/prov_bearer_adv.c.obj
 .text.send_link_close
                0x000260e0       0x38 examples/light_switch/server/CMakeFiles/light_switch_server_nrf52832_xxAA_s132_3.1.0.dir/__/__/__/mesh/prov/src/prov_bearer_adv.c.obj
 .text.prov_bearer_adv_link_close
                0x00026118       0x74 examples/light_switch/server/CMakeFiles/light_switch_server_nrf52832_xxAA_s132_3.1.0.dir/__/__/__/mesh/prov/src/prov_bearer_adv.c.obj
 .text.send_transaction_ack
                0x0002618c       0x24 examples/light_switch/server/CMakeFiles/light_switch_server_nrf52832_xxAA_s132_3.1.0.dir/__/__/__/mesh/prov/src/prov_bearer_adv.c.obj
 .text.send_link_ack
                0x000261b0       0x32 examples/light_switch/server/CMakeFiles/light_switch_server_nrf52832_xxAA_s132_3.1.0.dir/__/__/__/mesh/prov/src/prov_bearer_adv.c.obj
 .text.reset_timeout_timer
                0x000261e2       0x1a examples/light_switch/server/CMakeFiles/light_switch_server_nrf52832_xxAA_s132_3.1.0.dir/__/__/__/mesh/prov/src/prov_bearer_adv.c.obj
 .text.tx_complete_cb
                0x000261fc       0x1c examples/light_switch/server/CMakeFiles/light_switch_server_nrf52832_xxAA_s132_3.1.0.dir/__/__/__/mesh/prov/src/prov_bearer_adv.c.obj
 .text.tx_retry_cb
                0x00026218       0xcc examples/light_switch/server/CMakeFiles/light_switch_server_nrf52832_xxAA_s132_3.1.0.dir/__/__/__/mesh/prov/src/prov_bearer_adv.c.obj
 .text.add_active_bearer
                0x000262e4       0x80 examples/light_switch/server/CMakeFiles/light_switch_server_nrf52832_xxAA_s132_3.1.0.dir/__/__/__/mesh/prov/src/prov_bearer_adv.c.obj
 .text.prov_bearer_adv_link_open
                0x00026364       0xf8 examples/light_switch/server/CMakeFiles/light_switch_server_nrf52832_xxAA_s132_3.1.0.dir/__/__/__/mesh/prov/src/prov_bearer_adv.c.obj
 .text.async_process
                0x0002645c       0x50 examples/light_switch/server/CMakeFiles/light_switch_server_nrf52832_xxAA_s132_3.1.0.dir/__/__/__/mesh/prov/src/prov_bearer_adv.c.obj
 .text.prov_bearer_adv_listen
                0x000264ac       0xec examples/light_switch/server/CMakeFiles/light_switch_server_nrf52832_xxAA_s132_3.1.0.dir/__/__/__/mesh/prov/src/prov_bearer_adv.c.obj
 .text.calculate_3GPP_CRC
                0x00026598       0x24 examples/light_switch/server/CMakeFiles/light_switch_server_nrf52832_xxAA_s132_3.1.0.dir/__/__/__/mesh/prov/src/prov_bearer_adv.c.obj
                0x00026598                calculate_3GPP_CRC
 .text.prov_bearer_adv_tx
                0x000265bc       0xb4 examples/light_switch/server/CMakeFiles/light_switch_server_nrf52832_xxAA_s132_3.1.0.dir/__/__/__/mesh/prov/src/prov_bearer_adv.c.obj
 .text.prov_buffer_rx
                0x00026670       0x7c examples/light_switch/server/CMakeFiles/light_switch_server_nrf52832_xxAA_s132_3.1.0.dir/__/__/__/mesh/prov/src/prov_bearer_adv.c.obj
 .text.nrf_mesh_prov_bearer_adv_interface_get
                0x000266ec       0x48 examples/light_switch/server/CMakeFiles/light_switch_server_nrf52832_xxAA_s132_3.1.0.dir/__/__/__/mesh/prov/src/prov_bearer_adv.c.obj
                0x000266ec                nrf_mesh_prov_bearer_adv_interface_get
 .text.prov_bearer_adv_packet_in
                0x00026734      0x80c examples/light_switch/server/CMakeFiles/light_switch_server_nrf52832_xxAA_s132_3.1.0.dir/__/__/__/mesh/prov/src/prov_bearer_adv.c.obj
                0x00026734                prov_bearer_adv_packet_in
 .text.sd_softdevice_enable
                0x00026f40        0x4 examples/light_switch/server/CMakeFiles/light_switch_server_nrf52832_xxAA_s132_3.1.0.dir/__/__/__/mesh/access/src/nrf_mesh_node_config.c.obj
 .text.sd_softdevice_is_enabled
                0x00026f44        0x4 examples/light_switch/server/CMakeFiles/light_switch_server_nrf52832_xxAA_s132_3.1.0.dir/__/__/__/mesh/access/src/nrf_mesh_node_config.c.obj
 .text.default_softdevice_assertion_handler
                0x00026f48       0x7c examples/light_switch/server/CMakeFiles/light_switch_server_nrf52832_xxAA_s132_3.1.0.dir/__/__/__/mesh/access/src/nrf_mesh_node_config.c.obj
 .text.config_server_cb
                0x00026fc4       0x28 examples/light_switch/server/CMakeFiles/light_switch_server_nrf52832_xxAA_s132_3.1.0.dir/__/__/__/mesh/access/src/nrf_mesh_node_config.c.obj
 .text.flash_stable_cb
                0x00026fec       0x20 examples/light_switch/server/CMakeFiles/light_switch_server_nrf52832_xxAA_s132_3.1.0.dir/__/__/__/mesh/access/src/nrf_mesh_node_config.c.obj
 .text.start_provisionee
                0x0002700c       0x18 examples/light_switch/server/CMakeFiles/light_switch_server_nrf52832_xxAA_s132_3.1.0.dir/__/__/__/mesh/access/src/nrf_mesh_node_config.c.obj
 .text.prov_evt_handler
                0x00027024       0xf0 examples/light_switch/server/CMakeFiles/light_switch_server_nrf52832_xxAA_s132_3.1.0.dir/__/__/__/mesh/access/src/nrf_mesh_node_config.c.obj
 .text.default_mesh_assertion_handler
                0x00027114       0x74 examples/light_switch/server/CMakeFiles/light_switch_server_nrf52832_xxAA_s132_3.1.0.dir/__/__/__/mesh/access/src/nrf_mesh_node_config.c.obj
                0x00027114                default_mesh_assertion_handler
 .text.softdevice_setup
                0x00027188       0x54 examples/light_switch/server/CMakeFiles/light_switch_server_nrf52832_xxAA_s132_3.1.0.dir/__/__/__/mesh/access/src/nrf_mesh_node_config.c.obj
                0x00027188                softdevice_setup
 .text.nrf_mesh_node_config
                0x000271dc      0x13c examples/light_switch/server/CMakeFiles/light_switch_server_nrf52832_xxAA_s132_3.1.0.dir/__/__/__/mesh/access/src/nrf_mesh_node_config.c.obj
                0x000271dc                nrf_mesh_node_config
 .text.errata_57
                0x00027318       0x34 examples/light_switch/server/CMakeFiles/light_switch_server_nrf52832_xxAA_s132_3.1.0.dir/__/__/__/external/nRF5_SDK_14.2.0_17b948a/components/toolchain/system_nrf52.c.obj
 .text.errata_136
                0x0002734c       0x40 examples/light_switch/server/CMakeFiles/light_switch_server_nrf52832_xxAA_s132_3.1.0.dir/__/__/__/external/nRF5_SDK_14.2.0_17b948a/components/toolchain/system_nrf52.c.obj
 .text.SystemInit
                0x0002738c      0x238 examples/light_switch/server/CMakeFiles/light_switch_server_nrf52832_xxAA_s132_3.1.0.dir/__/__/__/external/nRF5_SDK_14.2.0_17b948a/components/toolchain/system_nrf52.c.obj
                0x0002738c                SystemInit
 .text          0x000275c4       0x3c examples/light_switch/server/CMakeFiles/light_switch_server_nrf52832_xxAA_s132_3.1.0.dir/__/__/__/external/nRF5_SDK_14.2.0_17b948a/components/toolchain/gcc/gcc_startup_nrf52.S.obj
                0x000275c4                Reset_Handler
                0x000275ec                NMI_Handler
                0x000275f0                MemoryManagement_Handler
                0x000275f2                BusFault_Handler
                0x000275f4                UsageFault_Handler
                0x000275f6                SVC_Handler
                0x000275f8                DebugMon_Handler
                0x000275fa                PendSV_Handler
                0x000275fc                SysTick_Handler
                0x000275fe                RADIO_IRQHandler
                0x000275fe                PDM_IRQHandler
                0x000275fe                TEMP_IRQHandler
                0x000275fe                TIMER3_IRQHandler
                0x000275fe                FPU_IRQHandler
                0x000275fe                RTC0_IRQHandler
                0x000275fe                PWM1_IRQHandler
                0x000275fe                UARTE0_UART0_IRQHandler
                0x000275fe                POWER_CLOCK_IRQHandler
                0x000275fe                I2S_IRQHandler
                0x000275fe                SWI4_EGU4_IRQHandler
                0x000275fe                TIMER0_IRQHandler
                0x000275fe                SPIM0_SPIS0_TWIM0_TWIS0_SPI0_TWI0_IRQHandler
                0x000275fe                TIMER1_IRQHandler
                0x000275fe                PWM2_IRQHandler
                0x000275fe                ECB_IRQHandler
                0x000275fe                SPIM1_SPIS1_TWIM1_TWIS1_SPI1_TWI1_IRQHandler
                0x000275fe                Default_Handler
                0x000275fe                SAADC_IRQHandler
                0x000275fe                CCM_AAR_IRQHandler
                0x000275fe                WDT_IRQHandler
                0x000275fe                TIMER4_IRQHandler
                0x000275fe                SWI5_EGU5_IRQHandler
                0x000275fe                RNG_IRQHandler
                0x000275fe                RTC2_IRQHandler
                0x000275fe                PWM0_IRQHandler
                0x000275fe                SWI3_EGU3_IRQHandler
                0x000275fe                RTC1_IRQHandler
                0x000275fe                SWI1_EGU1_IRQHandler
                0x000275fe                SPIM2_SPIS2_SPI2_IRQHandler
                0x000275fe                NFCT_IRQHandler
                0x000275fe                SWI0_EGU0_IRQHandler
                0x000275fe                MWU_IRQHandler
                0x000275fe                TIMER2_IRQHandler
                0x000275fe                COMP_LPCOMP_IRQHandler
 .text.nrf_mesh_configure_device_uuid_reset
                0x00027600       0x28 mesh/core/libmesh_core_nrf52832_xxAA.a(nrf_mesh_configure.c.obj)
                0x00027600                nrf_mesh_configure_device_uuid_reset
 .text.nrf_mesh_configure_device_uuid_get
                0x00027628        0x8 mesh/core/libmesh_core_nrf52832_xxAA.a(nrf_mesh_configure.c.obj)
                0x00027628                nrf_mesh_configure_device_uuid_get
 .text.event_handle
                0x00027630       0x30 mesh/core/libmesh_core_nrf52832_xxAA.a(event.c.obj)
                0x00027630                event_handle
 .text.event_handler_add
                0x00027660       0x28 mesh/core/libmesh_core_nrf52832_xxAA.a(event.c.obj)
                0x00027660                event_handler_add
 .text.event_handler_remove
                0x00027688       0x28 mesh/core/libmesh_core_nrf52832_xxAA.a(event.c.obj)
                0x00027688                event_handler_remove
 .text.flash_mem_available
                0x000276b0       0x20 mesh/core/libmesh_core_nrf52832_xxAA.a(net_state.c.obj)
 .text.flash_store_iv_index
                0x000276d0       0x38 mesh/core/libmesh_core_nrf52832_xxAA.a(net_state.c.obj)
 .text.seqnum_block_allocate
                0x00027708       0x48 mesh/core/libmesh_core_nrf52832_xxAA.a(net_state.c.obj)
 .text.net_state_reset
                0x00027750       0x3c mesh/core/libmesh_core_nrf52832_xxAA.a(net_state.c.obj)
                0x00027750                net_state_reset
 .text.flash_write_complete
                0x0002778c       0x78 mesh/core/libmesh_core_nrf52832_xxAA.a(net_state.c.obj)
 .text.net_state_recover_from_flash
                0x00027804       0x8c mesh/core/libmesh_core_nrf52832_xxAA.a(net_state.c.obj)
                0x00027804                net_state_recover_from_flash
 .text.net_state_flash_area_get
                0x00027890        0xc mesh/core/libmesh_core_nrf52832_xxAA.a(net_state.c.obj)
                0x00027890                net_state_flash_area_get
 .text.init_flash_storage
                0x0002789c       0x40 mesh/core/libmesh_core_nrf52832_xxAA.a(net_state.c.obj)
 .text.net_state_init
                0x000278dc       0x48 mesh/core/libmesh_core_nrf52832_xxAA.a(net_state.c.obj)
                0x000278dc                net_state_init
 .text.net_state_iv_update_start
                0x00027924       0x64 mesh/core/libmesh_core_nrf52832_xxAA.a(net_state.c.obj)
                0x00027924                net_state_iv_update_start
 .text.iv_update_trigger_if_pending
                0x00027988       0x8c mesh/core/libmesh_core_nrf52832_xxAA.a(net_state.c.obj)
 .text.iv_update_timer_handler
                0x00027a14       0x74 mesh/core/libmesh_core_nrf52832_xxAA.a(net_state.c.obj)
 .text.net_state_seqnum_alloc
                0x00027a88       0x68 mesh/core/libmesh_core_nrf52832_xxAA.a(net_state.c.obj)
                0x00027a88                net_state_seqnum_alloc
 .text.net_state_iv_index_lock
                0x00027af0       0x48 mesh/core/libmesh_core_nrf52832_xxAA.a(net_state.c.obj)
                0x00027af0                net_state_iv_index_lock
 .text.net_state_key_refresh_phase_changed
                0x00027b38       0x1e mesh/core/libmesh_core_nrf52832_xxAA.a(net_state.c.obj)
                0x00027b38                net_state_key_refresh_phase_changed
 *fill*         0x00027b56        0x2 
 .text.net_state_beacon_received
                0x00027b58       0x94 mesh/core/libmesh_core_nrf52832_xxAA.a(net_state.c.obj)
                0x00027b58                net_state_beacon_received
 .text.net_state_beacon_iv_index_get
                0x00027bec        0xc mesh/core/libmesh_core_nrf52832_xxAA.a(net_state.c.obj)
                0x00027bec                net_state_beacon_iv_index_get
 .text.net_state_tx_iv_index_get
                0x00027bf8       0x14 mesh/core/libmesh_core_nrf52832_xxAA.a(net_state.c.obj)
                0x00027bf8                net_state_tx_iv_index_get
 .text.net_state_rx_iv_index_get
                0x00027c0c       0x18 mesh/core/libmesh_core_nrf52832_xxAA.a(net_state.c.obj)
                0x00027c0c                net_state_rx_iv_index_get
 .text.net_state_iv_update_get
                0x00027c24        0xc mesh/core/libmesh_core_nrf52832_xxAA.a(net_state.c.obj)
                0x00027c24                net_state_iv_update_get
 .text.nrf_mesh_address_type_get
                0x00027c30       0x10 mesh/core/libmesh_core_nrf52832_xxAA.a(nrf_mesh_utils.c.obj)
                0x00027c30                nrf_mesh_address_type_get
 .text.sd_softdevice_is_enabled
                0x00027c40        0x4 mesh/core/libmesh_core_nrf52832_xxAA.a(nrf_mesh.c.obj)
 .text.nrf_mesh_listen
                0x00027c44      0x138 mesh/core/libmesh_core_nrf52832_xxAA.a(nrf_mesh.c.obj)
 .text.scanner_packet_process_cb
                0x00027d7c       0x8c mesh/core/libmesh_core_nrf52832_xxAA.a(nrf_mesh.c.obj)
 .text.nrf_mesh_init
                0x00027e08       0xe4 mesh/core/libmesh_core_nrf52832_xxAA.a(nrf_mesh.c.obj)
                0x00027e08                nrf_mesh_init
 .text.nrf_mesh_enable
                0x00027eec       0x48 mesh/core/libmesh_core_nrf52832_xxAA.a(nrf_mesh.c.obj)
                0x00027eec                nrf_mesh_enable
 .text.nrf_mesh_packet_send
                0x00027f34        0x4 mesh/core/libmesh_core_nrf52832_xxAA.a(nrf_mesh.c.obj)
                0x00027f34                nrf_mesh_packet_send
 .text.nrf_mesh_on_ble_evt
                0x00027f38        0x4 mesh/core/libmesh_core_nrf52832_xxAA.a(nrf_mesh.c.obj)
                0x00027f38                nrf_mesh_on_ble_evt
 .text.nrf_mesh_on_sd_evt
                0x00027f3c        0xa mesh/core/libmesh_core_nrf52832_xxAA.a(nrf_mesh.c.obj)
                0x00027f3c                nrf_mesh_on_sd_evt
 .text.nrf_mesh_evt_handler_add
                0x00027f46        0x4 mesh/core/libmesh_core_nrf52832_xxAA.a(nrf_mesh.c.obj)
                0x00027f46                nrf_mesh_evt_handler_add
 .text.sd_power_reset_reason_clr
                0x00027f4a        0x4 mesh/core/libmesh_core_nrf52832_xxAA.a(hal.c.obj)
 .text.sd_power_gpregret_set
                0x00027f4e        0x4 mesh/core/libmesh_core_nrf52832_xxAA.a(hal.c.obj)
 *fill*         0x00027f52        0x2 
 .text.hal_device_reset
                0x00027f54       0x38 mesh/core/libmesh_core_nrf52832_xxAA.a(hal.c.obj)
                0x00027f54                hal_device_reset
 .text.hal_lfclk_ppm_get
                0x00027f8c       0x14 mesh/core/libmesh_core_nrf52832_xxAA.a(hal.c.obj)
                0x00027f8c                hal_lfclk_ppm_get
 .text.add_to_add_list
                0x00027fa0       0x44 mesh/core/libmesh_core_nrf52832_xxAA.a(timer_scheduler.c.obj)
 .text.process_dirty_events
                0x00027fe4       0x6c mesh/core/libmesh_core_nrf52832_xxAA.a(timer_scheduler.c.obj)
 .text.timer_cb
                0x00028050        0xc mesh/core/libmesh_core_nrf52832_xxAA.a(timer_scheduler.c.obj)
 .text.add_evt.constprop.0
                0x0002805c       0x68 mesh/core/libmesh_core_nrf52832_xxAA.a(timer_scheduler.c.obj)
 .text.process_add_list
                0x000280c4       0x48 mesh/core/libmesh_core_nrf52832_xxAA.a(timer_scheduler.c.obj)
 .text.flag_event_cb
                0x0002810c      0x100 mesh/core/libmesh_core_nrf52832_xxAA.a(timer_scheduler.c.obj)
 .text.timer_sch_init
                0x0002820c       0x24 mesh/core/libmesh_core_nrf52832_xxAA.a(timer_scheduler.c.obj)
                0x0002820c                timer_sch_init
 .text.timer_sch_schedule
                0x00028230       0x50 mesh/core/libmesh_core_nrf52832_xxAA.a(timer_scheduler.c.obj)
                0x00028230                timer_sch_schedule
 .text.timer_sch_abort
                0x00028280       0x64 mesh/core/libmesh_core_nrf52832_xxAA.a(timer_scheduler.c.obj)
                0x00028280                timer_sch_abort
 .text.timer_sch_reschedule
                0x000282e4       0x70 mesh/core/libmesh_core_nrf52832_xxAA.a(timer_scheduler.c.obj)
                0x000282e4                timer_sch_reschedule
 .text.timer_mut_unlock
                0x00028354       0x10 mesh/core/libmesh_core_nrf52832_xxAA.a(timer.c.obj)
 .text.timer_order_cb
                0x00028364       0x94 mesh/core/libmesh_core_nrf52832_xxAA.a(timer.c.obj)
                0x00028364                timer_order_cb
 .text.timer_now
                0x000283f8       0x48 mesh/core/libmesh_core_nrf52832_xxAA.a(timer.c.obj)
                0x000283f8                timer_now
 .text.timer_event_handler
                0x00028440       0x98 mesh/core/libmesh_core_nrf52832_xxAA.a(timer.c.obj)
                0x00028440                timer_event_handler
 .text.timer_on_ts_begin
                0x000284d8       0xfc mesh/core/libmesh_core_nrf52832_xxAA.a(timer.c.obj)
                0x000284d8                timer_on_ts_begin
 .text.timer_on_ts_end
                0x000285d4       0x60 mesh/core/libmesh_core_nrf52832_xxAA.a(timer.c.obj)
                0x000285d4                timer_on_ts_end
 .text.timer_cb
                0x00028634       0x10 mesh/core/libmesh_core_nrf52832_xxAA.a(ticker.c.obj)
 .text.ticker_init
                0x00028644       0x3c mesh/core/libmesh_core_nrf52832_xxAA.a(ticker.c.obj)
                0x00028644                ticker_init
 .text.sd_rand_application_bytes_available_get
                0x00028680        0x4 mesh/core/libmesh_core_nrf52832_xxAA.a(rand.c.obj)
 .text.sd_rand_application_vector_get
                0x00028684        0x4 mesh/core/libmesh_core_nrf52832_xxAA.a(rand.c.obj)
 .text.rand_prng_get
                0x00028688       0x22 mesh/core/libmesh_core_nrf52832_xxAA.a(rand.c.obj)
                0x00028688                rand_prng_get
 *fill*         0x000286aa        0x2 
 .text.rand_hw_rng_get
                0x000286ac       0x50 mesh/core/libmesh_core_nrf52832_xxAA.a(rand.c.obj)
                0x000286ac                rand_hw_rng_get
 .text.rand_prng_seed
                0x000286fc       0x34 mesh/core/libmesh_core_nrf52832_xxAA.a(rand.c.obj)
                0x000286fc                rand_prng_seed
 .text.nrf_mesh_opt_set
                0x00028730       0x26 mesh/core/libmesh_core_nrf52832_xxAA.a(nrf_mesh_opt.c.obj)
                0x00028730                nrf_mesh_opt_set
 .text.nrf_mesh_opt_get
                0x00028756       0x26 mesh/core/libmesh_core_nrf52832_xxAA.a(nrf_mesh_opt.c.obj)
                0x00028756                nrf_mesh_opt_get
 .text.sd_radio_session_open
                0x0002877c        0x4 mesh/core/libmesh_core_nrf52832_xxAA.a(timeslot.c.obj)
 .text.sd_radio_session_close
                0x00028780        0x4 mesh/core/libmesh_core_nrf52832_xxAA.a(timeslot.c.obj)
 .text.sd_radio_request
                0x00028784        0x4 mesh/core/libmesh_core_nrf52832_xxAA.a(timeslot.c.obj)
 .text.end_timer_handler
                0x00028788       0x24 mesh/core/libmesh_core_nrf52832_xxAA.a(timeslot.c.obj)
 .text.get_end_time.constprop.10
                0x000287ac       0x28 mesh/core/libmesh_core_nrf52832_xxAA.a(timeslot.c.obj)
 .text.handle_extend_end.constprop.3
                0x000287d4       0xc0 mesh/core/libmesh_core_nrf52832_xxAA.a(timeslot.c.obj)
 .text.radio_signal_callback
                0x00028894      0x14c mesh/core/libmesh_core_nrf52832_xxAA.a(timeslot.c.obj)
 .text.timeslot_sd_event_handler
                0x000289e0       0x44 mesh/core/libmesh_core_nrf52832_xxAA.a(timeslot.c.obj)
                0x000289e0                timeslot_sd_event_handler
 .text.timeslot_init
                0x00028a24       0x48 mesh/core/libmesh_core_nrf52832_xxAA.a(timeslot.c.obj)
                0x00028a24                timeslot_init
 .text.timeslot_start
                0x00028a6c       0x20 mesh/core/libmesh_core_nrf52832_xxAA.a(timeslot.c.obj)
                0x00028a6c                timeslot_start
 .text.timeslot_end_is_pending
                0x00028a8c       0x24 mesh/core/libmesh_core_nrf52832_xxAA.a(timeslot.c.obj)
                0x00028a8c                timeslot_end_is_pending
 .text.timeslot_start_time_get
                0x00028ab0        0xc mesh/core/libmesh_core_nrf52832_xxAA.a(timeslot.c.obj)
                0x00028ab0                timeslot_start_time_get
 .text.timeslot_remaining_time_get
                0x00028abc       0x20 mesh/core/libmesh_core_nrf52832_xxAA.a(timeslot.c.obj)
                0x00028abc                timeslot_remaining_time_get
 .text.timeslot_is_in_cb
                0x00028adc        0xc mesh/core/libmesh_core_nrf52832_xxAA.a(timeslot.c.obj)
                0x00028adc                timeslot_is_in_cb
 .text.timeslot_trigger
                0x00028ae8       0x24 mesh/core/libmesh_core_nrf52832_xxAA.a(timeslot.c.obj)
                0x00028ae8                timeslot_trigger
 .text.timeslot_stop
                0x00028b0c       0x10 mesh/core/libmesh_core_nrf52832_xxAA.a(timeslot.c.obj)
                0x00028b0c                timeslot_stop
 .text.timeslot_state_lock
                0x00028b1c       0x28 mesh/core/libmesh_core_nrf52832_xxAA.a(timeslot.c.obj)
                0x00028b1c                timeslot_state_lock
 .text.trigger_event_handler
                0x00028b44       0x1c mesh/core/libmesh_core_nrf52832_xxAA.a(bearer_event.c.obj)
 .text.evt_push
                0x00028b60       0x1c mesh/core/libmesh_core_nrf52832_xxAA.a(bearer_event.c.obj)
 .text.bearer_event_init
                0x00028b7c       0x48 mesh/core/libmesh_core_nrf52832_xxAA.a(bearer_event.c.obj)
                0x00028b7c                bearer_event_init
 .text.bearer_event_timer_post
                0x00028bc4       0x30 mesh/core/libmesh_core_nrf52832_xxAA.a(bearer_event.c.obj)
                0x00028bc4                bearer_event_timer_post
 .text.bearer_event_critical_section_begin
                0x00028bf4       0x50 mesh/core/libmesh_core_nrf52832_xxAA.a(bearer_event.c.obj)
                0x00028bf4                bearer_event_critical_section_begin
 .text.bearer_event_critical_section_end
                0x00028c44       0x4c mesh/core/libmesh_core_nrf52832_xxAA.a(bearer_event.c.obj)
                0x00028c44                bearer_event_critical_section_end
 .text.bearer_event_flag_add
                0x00028c90       0x50 mesh/core/libmesh_core_nrf52832_xxAA.a(bearer_event.c.obj)
                0x00028c90                bearer_event_flag_add
 .text.bearer_event_flag_set
                0x00028ce0       0x50 mesh/core/libmesh_core_nrf52832_xxAA.a(bearer_event.c.obj)
                0x00028ce0                bearer_event_flag_set
 .text.bearer_event_sequential_add
                0x00028d30       0x44 mesh/core/libmesh_core_nrf52832_xxAA.a(bearer_event.c.obj)
                0x00028d30                bearer_event_sequential_add
 .text.bearer_event_sequential_post
                0x00028d74       0x58 mesh/core/libmesh_core_nrf52832_xxAA.a(bearer_event.c.obj)
                0x00028d74                bearer_event_sequential_post
 .text.bearer_event_sequential_pending
                0x00028dcc       0x1c mesh/core/libmesh_core_nrf52832_xxAA.a(bearer_event.c.obj)
                0x00028dcc                bearer_event_sequential_pending
 .text.bearer_event_handler
                0x00028de8      0x104 mesh/core/libmesh_core_nrf52832_xxAA.a(bearer_event.c.obj)
                0x00028de8                bearer_event_handler
 .text.QDEC_IRQHandler
                0x00028eec        0x4 mesh/core/libmesh_core_nrf52832_xxAA.a(bearer_event.c.obj)
                0x00028eec                QDEC_IRQHandler
 .text.enc_aes_encrypt
                0x00028ef0        0x4 mesh/core/libmesh_core_nrf52832_xxAA.a(enc.c.obj)
                0x00028ef0                enc_aes_encrypt
 .text.enc_aes_cmac
                0x00028ef4        0x4 mesh/core/libmesh_core_nrf52832_xxAA.a(enc.c.obj)
                0x00028ef4                enc_aes_cmac
 .text.enc_aes_ccm_encrypt
                0x00028ef8        0x4 mesh/core/libmesh_core_nrf52832_xxAA.a(enc.c.obj)
                0x00028ef8                enc_aes_ccm_encrypt
 .text.enc_aes_ccm_decrypt
                0x00028efc        0x4 mesh/core/libmesh_core_nrf52832_xxAA.a(enc.c.obj)
                0x00028efc                enc_aes_ccm_decrypt
 .text.enc_nonce_generate
                0x00028f00       0xb8 mesh/core/libmesh_core_nrf52832_xxAA.a(enc.c.obj)
                0x00028f00                enc_nonce_generate
 .text.enc_s1   0x00028fb8       0x38 mesh/core/libmesh_core_nrf52832_xxAA.a(enc.c.obj)
                0x00028fb8                enc_s1
 .text.enc_k1   0x00028ff0       0x48 mesh/core/libmesh_core_nrf52832_xxAA.a(enc.c.obj)
                0x00028ff0                enc_k1
 .text.enc_k2   0x00029038       0xd8 mesh/core/libmesh_core_nrf52832_xxAA.a(enc.c.obj)
                0x00029038                enc_k2
 .text.enc_k3   0x00029110       0x68 mesh/core/libmesh_core_nrf52832_xxAA.a(enc.c.obj)
                0x00029110                enc_k3
 .text.enc_k4   0x00029178       0x60 mesh/core/libmesh_core_nrf52832_xxAA.a(enc.c.obj)
                0x00029178                enc_k4
 .text.header_transfuscate
                0x000291d8       0x54 mesh/core/libmesh_core_nrf52832_xxAA.a(network.c.obj)
 .text.allocate_packet
                0x0002922c      0x14c mesh/core/libmesh_core_nrf52832_xxAA.a(network.c.obj)
 .text.network_init
                0x00029378       0x2c mesh/core/libmesh_core_nrf52832_xxAA.a(network.c.obj)
                0x00029378                network_init
 .text.network_opt_set
                0x000293a4       0x68 mesh/core/libmesh_core_nrf52832_xxAA.a(network.c.obj)
                0x000293a4                network_opt_set
 .text.network_opt_get
                0x0002940c       0x4c mesh/core/libmesh_core_nrf52832_xxAA.a(network.c.obj)
                0x0002940c                network_opt_get
 .text.network_packet_alloc
                0x00029458       0x50 mesh/core/libmesh_core_nrf52832_xxAA.a(network.c.obj)
                0x00029458                network_packet_alloc
 .text.network_packet_send
                0x000294a8      0x140 mesh/core/libmesh_core_nrf52832_xxAA.a(network.c.obj)
                0x000294a8                network_packet_send
 .text.network_packet_in
                0x000295e8      0x460 mesh/core/libmesh_core_nrf52832_xxAA.a(network.c.obj)
                0x000295e8                network_packet_in
 .text.nrf_mesh_keygen_aid
                0x00029a48       0x12 mesh/core/libmesh_core_nrf52832_xxAA.a(nrf_mesh_keygen.c.obj)
                0x00029a48                nrf_mesh_keygen_aid
 .text.nrf_mesh_keygen_network_secmat
                0x00029a5a       0x20 mesh/core/libmesh_core_nrf52832_xxAA.a(nrf_mesh_keygen.c.obj)
                0x00029a5a                nrf_mesh_keygen_network_secmat
 *fill*         0x00029a7a        0x2 
 .text.nrf_mesh_keygen_beacon_secmat
                0x00029a7c       0x50 mesh/core/libmesh_core_nrf52832_xxAA.a(nrf_mesh_keygen.c.obj)
                0x00029a7c                nrf_mesh_keygen_beacon_secmat
 .text.nrf_mesh_keygen_virtual_address
                0x00029acc       0x50 mesh/core/libmesh_core_nrf52832_xxAA.a(nrf_mesh_keygen.c.obj)
                0x00029acc                nrf_mesh_keygen_virtual_address
 .text.list_insert
                0x00029b1c       0x28 mesh/core/libmesh_core_nrf52832_xxAA.a(list.c.obj)
 .text.list_add
                0x00029b44       0x60 mesh/core/libmesh_core_nrf52832_xxAA.a(list.c.obj)
                0x00029b44                list_add
 .text.list_remove
                0x00029ba4       0x48 mesh/core/libmesh_core_nrf52832_xxAA.a(list.c.obj)
                0x00029ba4                list_remove
 .text.list_compare_add
                0x00029bec       0x80 mesh/core/libmesh_core_nrf52832_xxAA.a(list.c.obj)
                0x00029bec                list_compare_add
 .text.log_callback_rtt
                0x00029c6c       0x2c mesh/core/libmesh_core_nrf52832_xxAA.a(log.c.obj)
                0x00029c6c                log_callback_rtt
 .text.log_init
                0x00029c98       0x1c mesh/core/libmesh_core_nrf52832_xxAA.a(log.c.obj)
                0x00029c98                log_init
 .text.log_vprintf
                0x00029cb4       0x18 mesh/core/libmesh_core_nrf52832_xxAA.a(log.c.obj)
                0x00029cb4                log_vprintf
 .text.log_printf
                0x00029ccc       0x18 mesh/core/libmesh_core_nrf52832_xxAA.a(log.c.obj)
                0x00029ccc                log_printf
 .text.get_area_end
                0x00029ce4        0xc mesh/core/libmesh_core_nrf52832_xxAA.a(flash_manager.c.obj)
 .text.handle_matches_filter
                0x00029cf0       0x26 mesh/core/libmesh_core_nrf52832_xxAA.a(flash_manager.c.obj)
 *fill*         0x00029d16        0x2 
 .text.get_packet_buffer
                0x00029d18       0x2c mesh/core/libmesh_core_nrf52832_xxAA.a(flash_manager.c.obj)
 .text.get_entry_action
                0x00029d44       0x30 mesh/core/libmesh_core_nrf52832_xxAA.a(flash_manager.c.obj)
 .text.flash_area_is_blank
                0x00029d74       0x48 mesh/core/libmesh_core_nrf52832_xxAA.a(flash_manager.c.obj)
 .text.flash    0x00029dbc       0x1c mesh/core/libmesh_core_nrf52832_xxAA.a(flash_manager.c.obj)
 .text.free_packet_buffer
                0x00029dd8       0x54 mesh/core/libmesh_core_nrf52832_xxAA.a(flash_manager.c.obj)
 .text.reserve_action_buffer
                0x00029e2c       0x24 mesh/core/libmesh_core_nrf52832_xxAA.a(flash_manager.c.obj)
 .text.commit_action_buffer
                0x00029e50       0x18 mesh/core/libmesh_core_nrf52832_xxAA.a(flash_manager.c.obj)
 .text.schedule_processing
                0x00029e68        0xc mesh/core/libmesh_core_nrf52832_xxAA.a(flash_manager.c.obj)
 .text.get_next_entry
                0x00029e74       0x40 mesh/core/libmesh_core_nrf52832_xxAA.a(flash_manager.c.obj)
 .text.get_last_entry.isra.1
                0x00029eb4       0x30 mesh/core/libmesh_core_nrf52832_xxAA.a(flash_manager.c.obj)
 .text.process_action_queue
                0x00029ee4      0x4e4 mesh/core/libmesh_core_nrf52832_xxAA.a(flash_manager.c.obj)
 .text.flash_op_ended_callback
                0x0002a3c8       0x24 mesh/core/libmesh_core_nrf52832_xxAA.a(flash_manager.c.obj)
 .text.flash_manager_init
                0x0002a3ec       0x68 mesh/core/libmesh_core_nrf52832_xxAA.a(flash_manager.c.obj)
                0x0002a3ec                flash_manager_init
 .text.flash_manager_remove
                0x0002a454       0x24 mesh/core/libmesh_core_nrf52832_xxAA.a(flash_manager.c.obj)
                0x0002a454                flash_manager_remove
 .text.flash_manager_entry_get
                0x0002a478       0x48 mesh/core/libmesh_core_nrf52832_xxAA.a(flash_manager.c.obj)
                0x0002a478                flash_manager_entry_get
 .text.flash_manager_entry_next_get
                0x0002a4c0       0x6c mesh/core/libmesh_core_nrf52832_xxAA.a(flash_manager.c.obj)
                0x0002a4c0                flash_manager_entry_next_get
 .text.flash_manager_entry_alloc
                0x0002a52c       0x78 mesh/core/libmesh_core_nrf52832_xxAA.a(flash_manager.c.obj)
                0x0002a52c                flash_manager_entry_alloc
 .text.flash_manager_entry_commit
                0x0002a5a4       0x12 mesh/core/libmesh_core_nrf52832_xxAA.a(flash_manager.c.obj)
                0x0002a5a4                flash_manager_entry_commit
 *fill*         0x0002a5b6        0x2 
 .text.flash_manager_entry_invalidate
                0x0002a5b8       0x64 mesh/core/libmesh_core_nrf52832_xxAA.a(flash_manager.c.obj)
                0x0002a5b8                flash_manager_entry_invalidate
 .text.flash_manager_add
                0x0002a61c      0x248 mesh/core/libmesh_core_nrf52832_xxAA.a(flash_manager.c.obj)
                0x0002a61c                flash_manager_add
 .text.flash_manager_mem_listener_register
                0x0002a864       0x44 mesh/core/libmesh_core_nrf52832_xxAA.a(flash_manager.c.obj)
                0x0002a864                flash_manager_mem_listener_register
 .text.flash_manager_is_stable
                0x0002a8a8       0x24 mesh/core/libmesh_core_nrf52832_xxAA.a(flash_manager.c.obj)
                0x0002a8a8                flash_manager_is_stable
 .text.flash_manager_on_defrag_end
                0x0002a8cc       0x58 mesh/core/libmesh_core_nrf52832_xxAA.a(flash_manager.c.obj)
                0x0002a8cc                flash_manager_on_defrag_end
 .text.flash_manager_recovery_page_get
                0x0002a924        0x4 mesh/core/libmesh_core_nrf52832_xxAA.a(flash_manager.c.obj)
                0x0002a924                flash_manager_recovery_page_get
 .text.flash_manager_action_queue_empty_cb_set
                0x0002a928       0x28 mesh/core/libmesh_core_nrf52832_xxAA.a(flash_manager.c.obj)
                0x0002a928                flash_manager_action_queue_empty_cb_set
 .text.utils_xor
                0x0002a950       0x14 mesh/core/libmesh_core_nrf52832_xxAA.a(ccm_soft.c.obj)
 .text.ccm_soft_authenticate_blocks
                0x0002a964       0x68 mesh/core/libmesh_core_nrf52832_xxAA.a(ccm_soft.c.obj)
 .text.utils_reverse_memcpy.constprop.0
                0x0002a9cc        0xa mesh/core/libmesh_core_nrf52832_xxAA.a(ccm_soft.c.obj)
 .text.ccm_soft_authenticate
                0x0002a9d6       0xa0 mesh/core/libmesh_core_nrf52832_xxAA.a(ccm_soft.c.obj)
 .text.ccm_soft_crypt
                0x0002aa76       0x6c mesh/core/libmesh_core_nrf52832_xxAA.a(ccm_soft.c.obj)
 .text.ccm_soft_encrypt
                0x0002aae2       0x70 mesh/core/libmesh_core_nrf52832_xxAA.a(ccm_soft.c.obj)
                0x0002aae2                ccm_soft_encrypt
 .text.ccm_soft_decrypt
                0x0002ab52       0xfe mesh/core/libmesh_core_nrf52832_xxAA.a(ccm_soft.c.obj)
                0x0002ab52                ccm_soft_decrypt
 .text.beacon_init
                0x0002ac50       0x48 mesh/core/libmesh_core_nrf52832_xxAA.a(beacon.c.obj)
                0x0002ac50                beacon_init
 .text.beacon_create
                0x0002ac98       0x46 mesh/core/libmesh_core_nrf52832_xxAA.a(beacon.c.obj)
                0x0002ac98                beacon_create
 *fill*         0x0002acde        0x2 
 .text.beacon_tx
                0x0002ace0       0x3c mesh/core/libmesh_core_nrf52832_xxAA.a(beacon.c.obj)
                0x0002ace0                beacon_tx
 .text.beacon_packet_in
                0x0002ad1c      0x160 mesh/core/libmesh_core_nrf52832_xxAA.a(beacon.c.obj)
                0x0002ad1c                beacon_packet_in
 .text.entry_get
                0x0002ae7c       0x88 mesh/core/libmesh_core_nrf52832_xxAA.a(flash_manager_internal.c.obj)
                0x0002ae7c                entry_get
 .text.is_power_of_two
                0x0002af04        0xe mesh/core/libmesh_core_nrf52832_xxAA.a(core_tx.c.obj)
 *fill*         0x0002af12        0x2 
 .text.bearer_if_get
                0x0002af14       0x44 mesh/core/libmesh_core_nrf52832_xxAA.a(core_tx.c.obj)
 .text.core_tx_complete_cb_set
                0x0002af58        0xc mesh/core/libmesh_core_nrf52832_xxAA.a(core_tx.c.obj)
                0x0002af58                core_tx_complete_cb_set
 .text.core_tx_packet_alloc
                0x0002af64       0x88 mesh/core/libmesh_core_nrf52832_xxAA.a(core_tx.c.obj)
                0x0002af64                core_tx_packet_alloc
 .text.core_tx_packet_send
                0x0002afec       0x80 mesh/core/libmesh_core_nrf52832_xxAA.a(core_tx.c.obj)
                0x0002afec                core_tx_packet_send
 .text.core_tx_packet_discard
                0x0002b06c       0x80 mesh/core/libmesh_core_nrf52832_xxAA.a(core_tx.c.obj)
                0x0002b06c                core_tx_packet_discard
 .text.core_tx_complete
                0x0002b0ec       0x10 mesh/core/libmesh_core_nrf52832_xxAA.a(core_tx.c.obj)
                0x0002b0ec                core_tx_complete
 .text.core_tx_bearer_register
                0x0002b0fc       0x84 mesh/core/libmesh_core_nrf52832_xxAA.a(core_tx.c.obj)
                0x0002b0fc                core_tx_bearer_register
 .text.heartbeat_subscription_timer_cb
                0x0002b180       0x1c mesh/core/libmesh_core_nrf52832_xxAA.a(heartbeat.c.obj)
 .text.heartbeat_opcode_handle
                0x0002b19c       0x78 mesh/core/libmesh_core_nrf52832_xxAA.a(heartbeat.c.obj)
 .text.heartbeat_send
                0x0002b214       0xd0 mesh/core/libmesh_core_nrf52832_xxAA.a(heartbeat.c.obj)
 .text.heartbeat_core_evt_cb
                0x0002b2e4       0x90 mesh/core/libmesh_core_nrf52832_xxAA.a(heartbeat.c.obj)
 .text.heartbeat_publication_timer_cb
                0x0002b374       0xc8 mesh/core/libmesh_core_nrf52832_xxAA.a(heartbeat.c.obj)
 .text.heartbeat_on_feature_change_trigger
                0x0002b43c       0x50 mesh/core/libmesh_core_nrf52832_xxAA.a(heartbeat.c.obj)
                0x0002b43c                heartbeat_on_feature_change_trigger
 .text.heartbeat_init
                0x0002b48c       0x8c mesh/core/libmesh_core_nrf52832_xxAA.a(heartbeat.c.obj)
                0x0002b48c                heartbeat_init
 .text.heartbeat_subscription_set
                0x0002b518       0x90 mesh/core/libmesh_core_nrf52832_xxAA.a(heartbeat.c.obj)
                0x0002b518                heartbeat_subscription_set
 .text.heartbeat_subscription_get
                0x0002b5a8        0x8 mesh/core/libmesh_core_nrf52832_xxAA.a(heartbeat.c.obj)
                0x0002b5a8                heartbeat_subscription_get
 .text.heartbeat_config_server_cb_set
                0x0002b5b0       0x3c mesh/core/libmesh_core_nrf52832_xxAA.a(heartbeat.c.obj)
                0x0002b5b0                heartbeat_config_server_cb_set
 .text.heartbeat_publication_state_updated
                0x0002b5ec       0x80 mesh/core/libmesh_core_nrf52832_xxAA.a(heartbeat.c.obj)
                0x0002b5ec                heartbeat_publication_state_updated
 .text.make_network_beacon_cmac
                0x0002b66c       0x22 mesh/core/libmesh_core_nrf52832_xxAA.a(net_beacon.c.obj)
 *fill*         0x0002b68e        0x2 
 .text.network_beacon_tx_cb
                0x0002b690       0xe8 mesh/core/libmesh_core_nrf52832_xxAA.a(net_beacon.c.obj)
 .text.net_beacon_init
                0x0002b778       0x60 mesh/core/libmesh_core_nrf52832_xxAA.a(net_beacon.c.obj)
                0x0002b778                net_beacon_init
 .text.net_beacon_state_set
                0x0002b7d8       0x34 mesh/core/libmesh_core_nrf52832_xxAA.a(net_beacon.c.obj)
                0x0002b7d8                net_beacon_state_set
 .text.net_beacon_state_get
                0x0002b80c        0xc mesh/core/libmesh_core_nrf52832_xxAA.a(net_beacon.c.obj)
                0x0002b80c                net_beacon_state_get
 .text.net_beacon_packet_in
                0x0002b818      0x104 mesh/core/libmesh_core_nrf52832_xxAA.a(net_beacon.c.obj)
                0x0002b818                net_beacon_packet_in
 .text.packet_discard
                0x0002b91c       0x14 mesh/core/libmesh_core_nrf52832_xxAA.a(core_tx_adv.c.obj)
 .text.packet_send
                0x0002b930       0x14 mesh/core/libmesh_core_nrf52832_xxAA.a(core_tx_adv.c.obj)
 .text.packet_alloc
                0x0002b944       0x3c mesh/core/libmesh_core_nrf52832_xxAA.a(core_tx_adv.c.obj)
 .text.adv_tx_complete_callback
                0x0002b980       0x30 mesh/core/libmesh_core_nrf52832_xxAA.a(core_tx_adv.c.obj)
 .text.core_tx_adv_init
                0x0002b9b0       0x58 mesh/core/libmesh_core_nrf52832_xxAA.a(core_tx_adv.c.obj)
                0x0002b9b0                core_tx_adv_init
 .text.core_tx_adv_count_set
                0x0002ba08       0x38 mesh/core/libmesh_core_nrf52832_xxAA.a(core_tx_adv.c.obj)
                0x0002ba08                core_tx_adv_count_set
 .text.core_tx_adv_count_get
                0x0002ba40       0x28 mesh/core/libmesh_core_nrf52832_xxAA.a(core_tx_adv.c.obj)
                0x0002ba40                core_tx_adv_count_get
 .text.core_tx_adv_interval_set
                0x0002ba68       0x34 mesh/core/libmesh_core_nrf52832_xxAA.a(core_tx_adv.c.obj)
                0x0002ba68                core_tx_adv_interval_set
 .text.core_tx_adv_interval_get
                0x0002ba9c       0x34 mesh/core/libmesh_core_nrf52832_xxAA.a(core_tx_adv.c.obj)
                0x0002ba9c                core_tx_adv_interval_get
 .text.ad_listener_subscribe
                0x0002bad0       0x5c mesh/core/libmesh_core_nrf52832_xxAA.a(ad_listener.c.obj)
                0x0002bad0                ad_listener_subscribe
 .text.ad_listener_process
                0x0002bb2c       0x64 mesh/core/libmesh_core_nrf52832_xxAA.a(ad_listener.c.obj)
                0x0002bb2c                ad_listener_process
 .text.adtype_filter_handle
                0x0002bb90       0x64 mesh/core/libmesh_core_nrf52832_xxAA.a(ad_type_filter.c.obj)
 .text.bearer_adtype_filtering_set
                0x0002bbf4       0x1c mesh/core/libmesh_core_nrf52832_xxAA.a(ad_type_filter.c.obj)
                0x0002bbf4                bearer_adtype_filtering_set
 .text.bearer_adtype_add
                0x0002bc10       0x20 mesh/core/libmesh_core_nrf52832_xxAA.a(ad_type_filter.c.obj)
                0x0002bc10                bearer_adtype_add
 .text.bearer_adtype_mode_set
                0x0002bc30       0x24 mesh/core/libmesh_core_nrf52832_xxAA.a(ad_type_filter.c.obj)
                0x0002bc30                bearer_adtype_mode_set
 .text.set_gap_addr_type
                0x0002bc54       0x34 mesh/core/libmesh_core_nrf52832_xxAA.a(advertiser.c.obj)
 .text.tx_complete_event_callback
                0x0002bc88       0x3c mesh/core/libmesh_core_nrf52832_xxAA.a(advertiser.c.obj)
 .text.broadcast_complete_cb
                0x0002bcc4       0x64 mesh/core/libmesh_core_nrf52832_xxAA.a(advertiser.c.obj)
 .text.schedule_first_time
                0x0002bd28       0x28 mesh/core/libmesh_core_nrf52832_xxAA.a(advertiser.c.obj)
 .text.timeout_event
                0x0002bd50      0x130 mesh/core/libmesh_core_nrf52832_xxAA.a(advertiser.c.obj)
 .text.advertiser_init
                0x0002be80        0xc mesh/core/libmesh_core_nrf52832_xxAA.a(advertiser.c.obj)
                0x0002be80                advertiser_init
 .text.advertiser_enable
                0x0002be8c       0x2a mesh/core/libmesh_core_nrf52832_xxAA.a(advertiser.c.obj)
                0x0002be8c                advertiser_enable
 *fill*         0x0002beb6        0x2 
 .text.advertiser_packet_alloc
                0x0002beb8       0x94 mesh/core/libmesh_core_nrf52832_xxAA.a(advertiser.c.obj)
                0x0002beb8                advertiser_packet_alloc
 .text.advertiser_packet_send
                0x0002bf4c       0x78 mesh/core/libmesh_core_nrf52832_xxAA.a(advertiser.c.obj)
                0x0002bf4c                advertiser_packet_send
 .text.advertiser_packet_discard
                0x0002bfc4       0x2c mesh/core/libmesh_core_nrf52832_xxAA.a(advertiser.c.obj)
                0x0002bfc4                advertiser_packet_discard
 .text.advertiser_interval_set
                0x0002bff0       0x68 mesh/core/libmesh_core_nrf52832_xxAA.a(advertiser.c.obj)
                0x0002bff0                advertiser_interval_set
 .text.advertiser_flush
                0x0002c058       0x1e mesh/core/libmesh_core_nrf52832_xxAA.a(advertiser.c.obj)
                0x0002c058                advertiser_flush
 *fill*         0x0002c076        0x2 
 .text.advertiser_address_default_get
                0x0002c078       0x38 mesh/core/libmesh_core_nrf52832_xxAA.a(advertiser.c.obj)
                0x0002c078                advertiser_address_default_get
 .text.advertiser_instance_init
                0x0002c0b0       0xbc mesh/core/libmesh_core_nrf52832_xxAA.a(advertiser.c.obj)
                0x0002c0b0                advertiser_instance_init
 .text.action_switch
                0x0002c16c       0xc0 mesh/core/libmesh_core_nrf52832_xxAA.a(bearer_handler.c.obj)
 .text.bearer_handler_init
                0x0002c22c       0x2c mesh/core/libmesh_core_nrf52832_xxAA.a(bearer_handler.c.obj)
                0x0002c22c                bearer_handler_init
 .text.bearer_handler_start
                0x0002c258       0x1c mesh/core/libmesh_core_nrf52832_xxAA.a(bearer_handler.c.obj)
                0x0002c258                bearer_handler_start
 .text.bearer_handler_action_enqueue
                0x0002c274       0x94 mesh/core/libmesh_core_nrf52832_xxAA.a(bearer_handler.c.obj)
                0x0002c274                bearer_handler_action_enqueue
 .text.bearer_handler_action_end
                0x0002c308       0x78 mesh/core/libmesh_core_nrf52832_xxAA.a(bearer_handler.c.obj)
                0x0002c308                bearer_handler_action_end
 .text.bearer_handler_radio_irq_handler
                0x0002c380       0x64 mesh/core/libmesh_core_nrf52832_xxAA.a(bearer_handler.c.obj)
                0x0002c380                bearer_handler_radio_irq_handler
 .text.bearer_handler_timer_irq_handler
                0x0002c3e4       0x30 mesh/core/libmesh_core_nrf52832_xxAA.a(bearer_handler.c.obj)
                0x0002c3e4                bearer_handler_timer_irq_handler
 .text.bearer_handler_on_ts_begin
                0x0002c414       0x44 mesh/core/libmesh_core_nrf52832_xxAA.a(bearer_handler.c.obj)
                0x0002c414                bearer_handler_on_ts_begin
 .text.bearer_handler_on_ts_end
                0x0002c458       0x48 mesh/core/libmesh_core_nrf52832_xxAA.a(bearer_handler.c.obj)
                0x0002c458                bearer_handler_on_ts_end
 .text.radio_irq_handler
                0x0002c4a0       0xb0 mesh/core/libmesh_core_nrf52832_xxAA.a(broadcast.c.obj)
 .text.broadcast_start
                0x0002c550       0x8c mesh/core/libmesh_core_nrf52832_xxAA.a(broadcast.c.obj)
 .text.broadcast_send
                0x0002c5dc       0x80 mesh/core/libmesh_core_nrf52832_xxAA.a(broadcast.c.obj)
                0x0002c5dc                broadcast_send
 .text.fen_filter_start
                0x0002c65c       0x3c mesh/core/libmesh_core_nrf52832_xxAA.a(filter_engine.c.obj)
                0x0002c65c                fen_filter_start
 .text.fen_filter_stop
                0x0002c698       0x2c mesh/core/libmesh_core_nrf52832_xxAA.a(filter_engine.c.obj)
                0x0002c698                fen_filter_stop
 .text.fen_filters_apply
                0x0002c6c4       0x34 mesh/core/libmesh_core_nrf52832_xxAA.a(filter_engine.c.obj)
                0x0002c6c4                fen_filters_apply
 .text.radio_config_reset
                0x0002c6f8       0x34 mesh/core/libmesh_core_nrf52832_xxAA.a(radio_config.c.obj)
                0x0002c6f8                radio_config_reset
 .text.radio_config_channel_set
                0x0002c72c       0x34 mesh/core/libmesh_core_nrf52832_xxAA.a(radio_config.c.obj)
                0x0002c72c                radio_config_channel_set
 .text.radio_config_config
                0x0002c760       0xa4 mesh/core/libmesh_core_nrf52832_xxAA.a(radio_config.c.obj)
                0x0002c760                radio_config_config
 .text.radio_config_access_addr_set
                0x0002c804       0x68 mesh/core/libmesh_core_nrf52832_xxAA.a(radio_config.c.obj)
                0x0002c804                radio_config_access_addr_set
 .text.radio_trigger
                0x0002c86c       0x24 mesh/core/libmesh_core_nrf52832_xxAA.a(scanner.c.obj)
 .text.scan_window_end
                0x0002c890       0x10 mesh/core/libmesh_core_nrf52832_xxAA.a(scanner.c.obj)
 .text.scan_window_start
                0x0002c8a0       0x24 mesh/core/libmesh_core_nrf52832_xxAA.a(scanner.c.obj)
 .text.radio_configure
                0x0002c8c4       0x78 mesh/core/libmesh_core_nrf52832_xxAA.a(scanner.c.obj)
 .text.radio_set_packet
                0x0002c93c       0x50 mesh/core/libmesh_core_nrf52832_xxAA.a(scanner.c.obj)
 .text.radio_start
                0x0002c98c       0x4c mesh/core/libmesh_core_nrf52832_xxAA.a(scanner.c.obj)
 .text.radio_stop
                0x0002c9d8       0x30 mesh/core/libmesh_core_nrf52832_xxAA.a(scanner.c.obj)
 .text.schedule_timers
                0x0002ca08       0x38 mesh/core/libmesh_core_nrf52832_xxAA.a(scanner.c.obj)
 .text.scanner_radio_start
                0x0002ca40       0x28 mesh/core/libmesh_core_nrf52832_xxAA.a(scanner.c.obj)
                0x0002ca40                scanner_radio_start
 .text.scanner_radio_stop
                0x0002ca68       0x10 mesh/core/libmesh_core_nrf52832_xxAA.a(scanner.c.obj)
                0x0002ca68                scanner_radio_stop
 .text.scanner_radio_irq_handler
                0x0002ca78      0x13c mesh/core/libmesh_core_nrf52832_xxAA.a(scanner.c.obj)
                0x0002ca78                scanner_radio_irq_handler
 .text.scanner_enable
                0x0002cbb4       0x30 mesh/core/libmesh_core_nrf52832_xxAA.a(scanner.c.obj)
                0x0002cbb4                scanner_enable
 .text.scanner_packet_release
                0x0002cbe4       0x38 mesh/core/libmesh_core_nrf52832_xxAA.a(scanner.c.obj)
                0x0002cbe4                scanner_packet_release
 .text.scanner_rx
                0x0002cc1c       0x30 mesh/core/libmesh_core_nrf52832_xxAA.a(scanner.c.obj)
                0x0002cc1c                scanner_rx
 .text.scanner_rx_pending
                0x0002cc4c        0xc mesh/core/libmesh_core_nrf52832_xxAA.a(scanner.c.obj)
                0x0002cc4c                scanner_rx_pending
 .text.scanner_config_scan_time_set
                0x0002cc58       0x68 mesh/core/libmesh_core_nrf52832_xxAA.a(scanner.c.obj)
                0x0002cc58                scanner_config_scan_time_set
 .text.scanner_config_channels_set
                0x0002ccc0       0x64 mesh/core/libmesh_core_nrf52832_xxAA.a(scanner.c.obj)
                0x0002ccc0                scanner_config_channels_set
 .text.scanner_config_access_addresses_set
                0x0002cd24       0x44 mesh/core/libmesh_core_nrf52832_xxAA.a(scanner.c.obj)
                0x0002cd24                scanner_config_access_addresses_set
 .text.scanner_config_reset
                0x0002cd68       0x50 mesh/core/libmesh_core_nrf52832_xxAA.a(scanner.c.obj)
                0x0002cd68                scanner_config_reset
 .text.scanner_init
                0x0002cdb8       0x54 mesh/core/libmesh_core_nrf52832_xxAA.a(scanner.c.obj)
                0x0002cdb8                scanner_init
 .text.internal_event_push
                0x0002ce0c       0x28 mesh/core/libmesh_core_nrf52832_xxAA.a(internal_event.c.obj)
                0x0002ce0c                internal_event_push
 .text.sd_ecb_block_encrypt
                0x0002ce34        0x4 mesh/core/libmesh_core_nrf52832_xxAA.a(aes.c.obj)
 .text.aes_encrypt
                0x0002ce38       0x32 mesh/core/libmesh_core_nrf52832_xxAA.a(aes.c.obj)
                0x0002ce38                aes_encrypt
 *fill*         0x0002ce6a        0x2 
 .text.msg_cache_init
                0x0002ce6c       0x24 mesh/core/libmesh_core_nrf52832_xxAA.a(msg_cache.c.obj)
                0x0002ce6c                msg_cache_init
 .text.msg_cache_entry_exists
                0x0002ce90       0x3c mesh/core/libmesh_core_nrf52832_xxAA.a(msg_cache.c.obj)
                0x0002ce90                msg_cache_entry_exists
 .text.msg_cache_entry_add
                0x0002cecc       0x2c mesh/core/libmesh_core_nrf52832_xxAA.a(msg_cache.c.obj)
                0x0002cecc                msg_cache_entry_add
 .text.block_ack_full
                0x0002cef8       0x28 mesh/core/libmesh_core_nrf52832_xxAA.a(transport.c.obj)
 .text.seqauth_sequence_number_get
                0x0002cf20       0x12 mesh/core/libmesh_core_nrf52832_xxAA.a(transport.c.obj)
 *fill*         0x0002cf32        0x2 
 .text.sar_rx_session_mark_as_handled
                0x0002cf34       0x54 mesh/core/libmesh_core_nrf52832_xxAA.a(transport.c.obj)
 .text.sar_ctx_find
                0x0002cf88       0x3c mesh/core/libmesh_core_nrf52832_xxAA.a(transport.c.obj)
 .text.control_packet_callback_get
                0x0002cfc4       0x44 mesh/core/libmesh_core_nrf52832_xxAA.a(transport.c.obj)
 .text.m_send_sar_cancel_event
                0x0002d008       0x28 mesh/core/libmesh_core_nrf52832_xxAA.a(transport.c.obj)
 .text.tx_complete
                0x0002d030       0x34 mesh/core/libmesh_core_nrf52832_xxAA.a(transport.c.obj)
 .text.upper_trs_packet_encrypt
                0x0002d064       0xbc mesh/core/libmesh_core_nrf52832_xxAA.a(transport.c.obj)
 .text.sar_ctx_free
                0x0002d120       0x3c mesh/core/libmesh_core_nrf52832_xxAA.a(transport.c.obj)
 .text.sar_ctx_tx_complete
                0x0002d15c       0xb8 mesh/core/libmesh_core_nrf52832_xxAA.a(transport.c.obj)
 .text.sar_ctx_cancel
                0x0002d214      0x108 mesh/core/libmesh_core_nrf52832_xxAA.a(transport.c.obj)
 .text.abort_timeout
                0x0002d31c        0x8 mesh/core/libmesh_core_nrf52832_xxAA.a(transport.c.obj)
 .text.sar_ctx_alloc
                0x0002d324       0xbc mesh/core/libmesh_core_nrf52832_xxAA.a(transport.c.obj)
 .text.test_transport_decrypt
                0x0002d3e0       0x88 mesh/core/libmesh_core_nrf52832_xxAA.a(transport.c.obj)
 .text.upper_transport_access_packet_in
                0x0002d468      0x28c mesh/core/libmesh_core_nrf52832_xxAA.a(transport.c.obj)
 .text.trs_packet_header_build
                0x0002d6f4       0xa6 mesh/core/libmesh_core_nrf52832_xxAA.a(transport.c.obj)
 *fill*         0x0002d79a        0x2 
 .text.tx_retry_timer_reset
                0x0002d79c       0x50 mesh/core/libmesh_core_nrf52832_xxAA.a(transport.c.obj)
 .text.trs_sar_packet_out
                0x0002d7ec       0xec mesh/core/libmesh_core_nrf52832_xxAA.a(transport.c.obj)
 .text.retry_timeout
                0x0002d8d8       0x54 mesh/core/libmesh_core_nrf52832_xxAA.a(transport.c.obj)
 .text.upper_transport_packet_in
                0x0002d92c      0x1b0 mesh/core/libmesh_core_nrf52832_xxAA.a(transport.c.obj)
 .text.upper_transport_tx
                0x0002dadc      0x230 mesh/core/libmesh_core_nrf52832_xxAA.a(transport.c.obj)
 .text.transport_sar_mem_funcs_reset
                0x0002dd0c       0x28 mesh/core/libmesh_core_nrf52832_xxAA.a(transport.c.obj)
                0x0002dd0c                transport_sar_mem_funcs_reset
 .text.transport_init
                0x0002dd34       0x7c mesh/core/libmesh_core_nrf52832_xxAA.a(transport.c.obj)
                0x0002dd34                transport_init
 .text.transport_tx
                0x0002ddb0       0xa4 mesh/core/libmesh_core_nrf52832_xxAA.a(transport.c.obj)
                0x0002ddb0                transport_tx
 .text.transport_control_tx
                0x0002de54       0x8e mesh/core/libmesh_core_nrf52832_xxAA.a(transport.c.obj)
                0x0002de54                transport_control_tx
 *fill*         0x0002dee2        0x2 
 .text.sar_ack_send
                0x0002dee4      0x124 mesh/core/libmesh_core_nrf52832_xxAA.a(transport.c.obj)
 .text.transport_sar_process
                0x0002e008       0x74 mesh/core/libmesh_core_nrf52832_xxAA.a(transport.c.obj)
 .text.transport_packet_in
                0x0002e07c      0x524 mesh/core/libmesh_core_nrf52832_xxAA.a(transport.c.obj)
                0x0002e07c                transport_packet_in
 .text.ack_timeout
                0x0002e5a0       0x34 mesh/core/libmesh_core_nrf52832_xxAA.a(transport.c.obj)
 .text.transport_opt_set
                0x0002e5d4       0xd0 mesh/core/libmesh_core_nrf52832_xxAA.a(transport.c.obj)
                0x0002e5d4                transport_opt_set
 .text.transport_opt_get
                0x0002e6a4       0x68 mesh/core/libmesh_core_nrf52832_xxAA.a(transport.c.obj)
                0x0002e6a4                transport_opt_get
 .text.transport_control_packet_consumer_add
                0x0002e70c       0x5c mesh/core/libmesh_core_nrf52832_xxAA.a(transport.c.obj)
                0x0002e70c                transport_control_packet_consumer_add
 .text.m_adjust_desired_packet_length
                0x0002e768       0x34 mesh/core/libmesh_core_nrf52832_xxAA.a(packet_buffer.c.obj)
 .text.m_index_increment.part.0
                0x0002e79c       0x14 mesh/core/libmesh_core_nrf52832_xxAA.a(packet_buffer.c.obj)
 .text.m_free_popped_packet
                0x0002e7b0       0x60 mesh/core/libmesh_core_nrf52832_xxAA.a(packet_buffer.c.obj)
 .text.free_skipped_packets
                0x0002e810       0x1c mesh/core/libmesh_core_nrf52832_xxAA.a(packet_buffer.c.obj)
 .text.packet_buffer_init
                0x0002e82c       0xe0 mesh/core/libmesh_core_nrf52832_xxAA.a(packet_buffer.c.obj)
                0x0002e82c                packet_buffer_init
 .text.packet_buffer_flush
                0x0002e90c       0x5e mesh/core/libmesh_core_nrf52832_xxAA.a(packet_buffer.c.obj)
                0x0002e90c                packet_buffer_flush
 *fill*         0x0002e96a        0x2 
 .text.packet_buffer_reserve
                0x0002e96c      0x11c mesh/core/libmesh_core_nrf52832_xxAA.a(packet_buffer.c.obj)
                0x0002e96c                packet_buffer_reserve
 .text.packet_buffer_commit
                0x0002ea88      0x104 mesh/core/libmesh_core_nrf52832_xxAA.a(packet_buffer.c.obj)
                0x0002ea88                packet_buffer_commit
 .text.packet_buffer_pop
                0x0002eb8c       0x58 mesh/core/libmesh_core_nrf52832_xxAA.a(packet_buffer.c.obj)
                0x0002eb8c                packet_buffer_pop
 .text.packet_buffer_can_pop
                0x0002ebe4       0x28 mesh/core/libmesh_core_nrf52832_xxAA.a(packet_buffer.c.obj)
                0x0002ebe4                packet_buffer_can_pop
 .text.packet_buffer_packets_ready_to_pop
                0x0002ec0c       0x58 mesh/core/libmesh_core_nrf52832_xxAA.a(packet_buffer.c.obj)
                0x0002ec0c                packet_buffer_packets_ready_to_pop
 .text.packet_buffer_free
                0x0002ec64       0x8c mesh/core/libmesh_core_nrf52832_xxAA.a(packet_buffer.c.obj)
                0x0002ec64                packet_buffer_free
 .text.get_last_page
                0x0002ecf0       0x14 mesh/core/libmesh_core_nrf52832_xxAA.a(flash_manager_defrag.c.obj)
 .text.defrag_on_end
                0x0002ed04       0x1c mesh/core/libmesh_core_nrf52832_xxAA.a(flash_manager_defrag.c.obj)
 .text.execute_procedure_step
                0x0002ed20       0xa0 mesh/core/libmesh_core_nrf52832_xxAA.a(flash_manager_defrag.c.obj)
 .text.get_next_entry
                0x0002edc0       0x40 mesh/core/libmesh_core_nrf52832_xxAA.a(flash_manager_defrag.c.obj)
 .text.get_next_data_entry
                0x0002ee00       0x20 mesh/core/libmesh_core_nrf52832_xxAA.a(flash_manager_defrag.c.obj)
 .text.on_flash_op_end
                0x0002ee20       0x30 mesh/core/libmesh_core_nrf52832_xxAA.a(flash_manager_defrag.c.obj)
 .text.check_for_invalid_entries
                0x0002ee50       0x38 mesh/core/libmesh_core_nrf52832_xxAA.a(flash_manager_defrag.c.obj)
 .text.erase_recovery_area
                0x0002ee88       0x34 mesh/core/libmesh_core_nrf52832_xxAA.a(flash_manager_defrag.c.obj)
 .text.flash.constprop.6
                0x0002eebc       0x24 mesh/core/libmesh_core_nrf52832_xxAA.a(flash_manager_defrag.c.obj)
 .text.seal_storage_page
                0x0002eee0       0x50 mesh/core/libmesh_core_nrf52832_xxAA.a(flash_manager_defrag.c.obj)
 .text.invalidate_duplicate_entries
                0x0002ef30       0x9c mesh/core/libmesh_core_nrf52832_xxAA.a(flash_manager_defrag.c.obj)
 .text.copy_metadata
                0x0002efcc       0x3c mesh/core/libmesh_core_nrf52832_xxAA.a(flash_manager_defrag.c.obj)
 .text.write_defrag_start_pointer
                0x0002f008       0x20 mesh/core/libmesh_core_nrf52832_xxAA.a(flash_manager_defrag.c.obj)
 .text.write_back
                0x0002f028       0x28 mesh/core/libmesh_core_nrf52832_xxAA.a(flash_manager_defrag.c.obj)
 .text.post_process
                0x0002f050       0x40 mesh/core/libmesh_core_nrf52832_xxAA.a(flash_manager_defrag.c.obj)
 .text.backup_entries
                0x0002f090      0x118 mesh/core/libmesh_core_nrf52832_xxAA.a(flash_manager_defrag.c.obj)
 .text.erase_source
                0x0002f1a8       0x34 mesh/core/libmesh_core_nrf52832_xxAA.a(flash_manager_defrag.c.obj)
 .text.flash_manager_defrag_init
                0x0002f1dc       0x98 mesh/core/libmesh_core_nrf52832_xxAA.a(flash_manager_defrag.c.obj)
                0x0002f1dc                flash_manager_defrag_init
 .text.flash_manager_defrag_is_running
                0x0002f274       0x10 mesh/core/libmesh_core_nrf52832_xxAA.a(flash_manager_defrag.c.obj)
                0x0002f274                flash_manager_defrag_is_running
 .text.flash_manager_defrag
                0x0002f284       0xd8 mesh/core/libmesh_core_nrf52832_xxAA.a(flash_manager_defrag.c.obj)
                0x0002f284                flash_manager_defrag
 .text.flash_manager_defrag_recovery_page_get
                0x0002f35c        0xc mesh/core/libmesh_core_nrf52832_xxAA.a(flash_manager_defrag.c.obj)
                0x0002f35c                flash_manager_defrag_recovery_page_get
 .text.fifo_init
                0x0002f368       0x50 mesh/core/libmesh_core_nrf52832_xxAA.a(fifo.c.obj)
                0x0002f368                fifo_init
 .text.fifo_push
                0x0002f3b8       0x50 mesh/core/libmesh_core_nrf52832_xxAA.a(fifo.c.obj)
                0x0002f3b8                fifo_push
 .text.fifo_pop
                0x0002f408       0x52 mesh/core/libmesh_core_nrf52832_xxAA.a(fifo.c.obj)
                0x0002f408                fifo_pop
 *fill*         0x0002f45a        0x2 
 .text.packet_mgr_init
                0x0002f45c       0x4c mesh/core/libmesh_core_nrf52832_xxAA.a(packet_mgr.c.obj)
                0x0002f45c                packet_mgr_init
 .text.send_end_events
                0x0002f4a8       0x84 mesh/core/libmesh_core_nrf52832_xxAA.a(mesh_flash.c.obj)
 .text.flash_op_schedule
                0x0002f52c       0x9c mesh/core/libmesh_core_nrf52832_xxAA.a(mesh_flash.c.obj)
 .text.flash_op_start
                0x0002f5c8      0x170 mesh/core/libmesh_core_nrf52832_xxAA.a(mesh_flash.c.obj)
 .text.mesh_flash_init
                0x0002f738       0x88 mesh/core/libmesh_core_nrf52832_xxAA.a(mesh_flash.c.obj)
                0x0002f738                mesh_flash_init
 .text.mesh_flash_user_callback_set
                0x0002f7c0       0x2c mesh/core/libmesh_core_nrf52832_xxAA.a(mesh_flash.c.obj)
                0x0002f7c0                mesh_flash_user_callback_set
 .text.mesh_flash_op_push
                0x0002f7ec      0x128 mesh/core/libmesh_core_nrf52832_xxAA.a(mesh_flash.c.obj)
                0x0002f7ec                mesh_flash_op_push
 .text.queue_init
                0x0002f914       0x20 mesh/core/libmesh_core_nrf52832_xxAA.a(queue.c.obj)
                0x0002f914                queue_init
 .text.queue_push
                0x0002f934       0x48 mesh/core/libmesh_core_nrf52832_xxAA.a(queue.c.obj)
                0x0002f934                queue_push
 .text.queue_pop
                0x0002f97c       0x34 mesh/core/libmesh_core_nrf52832_xxAA.a(queue.c.obj)
                0x0002f97c                queue_pop
 .text.queue_peek
                0x0002f9b0       0x1c mesh/core/libmesh_core_nrf52832_xxAA.a(queue.c.obj)
                0x0002f9b0                queue_peek
 .text.my_xor.constprop.1
                0x0002f9cc       0x20 mesh/core/libmesh_core_nrf52832_xxAA.a(aes_cmac.c.obj)
 .text.utils_lshift.constprop.2
                0x0002f9ec       0x24 mesh/core/libmesh_core_nrf52832_xxAA.a(aes_cmac.c.obj)
 .text.aes_cmac_subkey_generate
                0x0002fa10       0x6c mesh/core/libmesh_core_nrf52832_xxAA.a(aes_cmac.c.obj)
                0x0002fa10                aes_cmac_subkey_generate
 .text.aes_cmac
                0x0002fa7c       0xbc mesh/core/libmesh_core_nrf52832_xxAA.a(aes_cmac.c.obj)
                0x0002fa7c                aes_cmac
 .text.stage_get_available
                0x0002fb38       0x24 mesh/core/libmesh_core_nrf52832_xxAA.a(msqueue.c.obj)
 .text.msq_get  0x0002fb5c       0x4c mesh/core/libmesh_core_nrf52832_xxAA.a(msqueue.c.obj)
                0x0002fb5c                msq_get
 .text.msq_move
                0x0002fba8       0x44 mesh/core/libmesh_core_nrf52832_xxAA.a(msqueue.c.obj)
                0x0002fba8                msq_move
 .text.msq_reset
                0x0002fbec       0x2c mesh/core/libmesh_core_nrf52832_xxAA.a(msqueue.c.obj)
                0x0002fbec                msq_reset
 .text.msq_init
                0x0002fc18       0x78 mesh/core/libmesh_core_nrf52832_xxAA.a(msqueue.c.obj)
                0x0002fc18                msq_init
 .text.msq_available
                0x0002fc90       0x3c mesh/core/libmesh_core_nrf52832_xxAA.a(msqueue.c.obj)
                0x0002fc90                msq_available
 .text.replay_cache_add
                0x0002fccc       0x60 mesh/core/libmesh_core_nrf52832_xxAA.a(replay_cache.c.obj)
                0x0002fccc                replay_cache_add
 .text.replay_cache_has_room
                0x0002fd2c       0x38 mesh/core/libmesh_core_nrf52832_xxAA.a(replay_cache.c.obj)
                0x0002fd2c                replay_cache_has_room
 .text.replay_cache_has_elem
                0x0002fd64       0x38 mesh/core/libmesh_core_nrf52832_xxAA.a(replay_cache.c.obj)
                0x0002fd64                replay_cache_has_elem
 .text.replay_cache_clear
                0x0002fd9c       0x28 mesh/core/libmesh_core_nrf52832_xxAA.a(replay_cache.c.obj)
                0x0002fd9c                replay_cache_clear
 .text.replay_cache_init
                0x0002fdc4        0x4 mesh/core/libmesh_core_nrf52832_xxAA.a(replay_cache.c.obj)
                0x0002fdc4                replay_cache_init
 .text.wait_for_ready
                0x0002fdc8       0x10 mesh/core/libmesh_core_nrf52832_xxAA.a(nrf_flash.c.obj)
 .text.nrf_flash_erase
                0x0002fdd8       0x50 mesh/core/libmesh_core_nrf52832_xxAA.a(nrf_flash.c.obj)
                0x0002fdd8                nrf_flash_erase
 .text.nrf_flash_write
                0x0002fe28       0x50 mesh/core/libmesh_core_nrf52832_xxAA.a(nrf_flash.c.obj)
                0x0002fe28                nrf_flash_write
 .text._GetAvailWriteSpace
                0x0002fe78       0x1c external/rtt/librtt_nrf52832_xxAA.a(SEGGER_RTT.c.obj)
 .text._WriteNoCheck
                0x0002fe94       0x3c external/rtt/librtt_nrf52832_xxAA.a(SEGGER_RTT.c.obj)
 .text._WriteBlocking
                0x0002fed0       0x52 external/rtt/librtt_nrf52832_xxAA.a(SEGGER_RTT.c.obj)
 *fill*         0x0002ff22        0x2 
 .text._DoInit  0x0002ff24       0x60 external/rtt/librtt_nrf52832_xxAA.a(SEGGER_RTT.c.obj)
 .text.SEGGER_RTT_WriteNoLock
                0x0002ff84       0x68 external/rtt/librtt_nrf52832_xxAA.a(SEGGER_RTT.c.obj)
                0x0002ff84                SEGGER_RTT_WriteNoLock
 .text.SEGGER_RTT_Write
                0x0002ffec       0x34 external/rtt/librtt_nrf52832_xxAA.a(SEGGER_RTT.c.obj)
                0x0002ffec                SEGGER_RTT_Write
 .text._StoreChar
                0x00030020       0x3e external/rtt/librtt_nrf52832_xxAA.a(SEGGER_RTT_printf.c.obj)
 *fill*         0x0003005e        0x2 
 .text._PrintUnsigned
                0x00030060       0xd0 external/rtt/librtt_nrf52832_xxAA.a(SEGGER_RTT_printf.c.obj)
 .text.SEGGER_RTT_vprintf
                0x00030130      0x246 external/rtt/librtt_nrf52832_xxAA.a(SEGGER_RTT_printf.c.obj)
                0x00030130                SEGGER_RTT_vprintf
 .text.SEGGER_RTT_printf
                0x00030376       0x1e external/rtt/librtt_nrf52832_xxAA.a(SEGGER_RTT_printf.c.obj)
                0x00030376                SEGGER_RTT_printf
 .text.uECC_vli_mult
                0x00030394       0x64 external/micro-ecc/libuECC_nrf52832_xxAA.a(uECC.c.obj)
 .text.uECC_vli_clear
                0x000303f8       0x16 external/micro-ecc/libuECC_nrf52832_xxAA.a(uECC.c.obj)
 .text.uECC_vli_isZero
                0x0003040e       0x1e external/micro-ecc/libuECC_nrf52832_xxAA.a(uECC.c.obj)
 .text.uECC_vli_testBit
                0x0003042c       0x14 external/micro-ecc/libuECC_nrf52832_xxAA.a(uECC.c.obj)
 .text.uECC_vli_numBits
                0x00030440       0x3a external/micro-ecc/libuECC_nrf52832_xxAA.a(uECC.c.obj)
 .text.uECC_vli_set
                0x0003047a       0x18 external/micro-ecc/libuECC_nrf52832_xxAA.a(uECC.c.obj)
 .text.uECC_vli_cmp_unsafe
                0x00030492       0x28 external/micro-ecc/libuECC_nrf52832_xxAA.a(uECC.c.obj)
 .text.uECC_vli_rshift1
                0x000304ba       0x1c external/micro-ecc/libuECC_nrf52832_xxAA.a(uECC.c.obj)
 .text.uECC_vli_modMult_fast
                0x000304d6       0x20 external/micro-ecc/libuECC_nrf52832_xxAA.a(uECC.c.obj)
 .text.uECC_vli_modSquare_fast
                0x000304f6        0x8 external/micro-ecc/libuECC_nrf52832_xxAA.a(uECC.c.obj)
 .text.apply_z  0x000304fe       0x3e external/micro-ecc/libuECC_nrf52832_xxAA.a(uECC.c.obj)
 .text.uECC_vli_nativeToBytes
                0x0003053c       0x28 external/micro-ecc/libuECC_nrf52832_xxAA.a(uECC.c.obj)
 .text.uECC_vli_bytesToNative
                0x00030564       0x40 external/micro-ecc/libuECC_nrf52832_xxAA.a(uECC.c.obj)
 .text.default_RNG
                0x000305a4        0xc external/micro-ecc/libuECC_nrf52832_xxAA.a(uECC.c.obj)
 .text.uECC_vli_add.isra.0
                0x000305b0       0x4a external/micro-ecc/libuECC_nrf52832_xxAA.a(uECC.c.obj)
 .text.regularize_k
                0x000305fa       0x50 external/micro-ecc/libuECC_nrf52832_xxAA.a(uECC.c.obj)
 .text.uECC_vli_sub.isra.1
                0x0003064a       0x4e external/micro-ecc/libuECC_nrf52832_xxAA.a(uECC.c.obj)
 .text.uECC_vli_cmp
                0x00030698       0x30 external/micro-ecc/libuECC_nrf52832_xxAA.a(uECC.c.obj)
 .text.uECC_generate_random_int
                0x000306c8       0x78 external/micro-ecc/libuECC_nrf52832_xxAA.a(uECC.c.obj)
 .text.uECC_vli_modAdd
                0x00030740       0x2e external/micro-ecc/libuECC_nrf52832_xxAA.a(uECC.c.obj)
 *fill*         0x0003076e        0x2 
 .text.vli_mmod_fast_secp256r1
                0x00030770      0x194 external/micro-ecc/libuECC_nrf52832_xxAA.a(uECC.c.obj)
 .text.uECC_vli_modSub.isra.2
                0x00030904       0x1c external/micro-ecc/libuECC_nrf52832_xxAA.a(uECC.c.obj)
 .text.double_jacobian_default
                0x00030920      0x14a external/micro-ecc/libuECC_nrf52832_xxAA.a(uECC.c.obj)
 .text.x_side_default
                0x00030a6a       0x5a external/micro-ecc/libuECC_nrf52832_xxAA.a(uECC.c.obj)
 .text.XYcZ_add
                0x00030ac4       0xbc external/micro-ecc/libuECC_nrf52832_xxAA.a(uECC.c.obj)
 .text.XYcZ_addC
                0x00030b80      0x10a external/micro-ecc/libuECC_nrf52832_xxAA.a(uECC.c.obj)
 .text.vli_modInv_update
                0x00030c8a       0x36 external/micro-ecc/libuECC_nrf52832_xxAA.a(uECC.c.obj)
 .text.uECC_vli_modInv
                0x00030cc0      0x102 external/micro-ecc/libuECC_nrf52832_xxAA.a(uECC.c.obj)
 .text.EccPoint_mult
                0x00030dc2      0x19e external/micro-ecc/libuECC_nrf52832_xxAA.a(uECC.c.obj)
 .text.EccPoint_compute_public_key
                0x00030f60       0x54 external/micro-ecc/libuECC_nrf52832_xxAA.a(uECC.c.obj)
 .text.uECC_secp256r1
                0x00030fb4        0x8 external/micro-ecc/libuECC_nrf52832_xxAA.a(uECC.c.obj)
                0x00030fb4                uECC_secp256r1
 .text.uECC_make_key
                0x00030fbc       0x7e external/micro-ecc/libuECC_nrf52832_xxAA.a(uECC.c.obj)
                0x00030fbc                uECC_make_key
 *fill*         0x0003103a        0x2 
 .text.uECC_shared_secret
                0x0003103c       0xbc external/micro-ecc/libuECC_nrf52832_xxAA.a(uECC.c.obj)
                0x0003103c                uECC_shared_secret
 .text.uECC_valid_point
                0x000310f8       0x86 external/micro-ecc/libuECC_nrf52832_xxAA.a(uECC.c.obj)
                0x000310f8                uECC_valid_point
 .text.uECC_valid_public_key
                0x0003117e       0x32 external/micro-ecc/libuECC_nrf52832_xxAA.a(uECC.c.obj)
                0x0003117e                uECC_valid_public_key
 .text.exit     0x000311b0       0x28 c:/a/gcc_arm/6/bin/../lib/gcc/arm-none-eabi/6.3.1/../../../../arm-none-eabi/lib/thumb/v7e-m/fpv4-sp/hard\libg_nano.a(lib_a-exit.o)
                0x000311b0                exit
 .text.__libc_init_array
                0x000311d8       0x48 c:/a/gcc_arm/6/bin/../lib/gcc/arm-none-eabi/6.3.1/../../../../arm-none-eabi/lib/thumb/v7e-m/fpv4-sp/hard\libg_nano.a(lib_a-init.o)
                0x000311d8                __libc_init_array
 .text.malloc   0x00031220       0x10 c:/a/gcc_arm/6/bin/../lib/gcc/arm-none-eabi/6.3.1/../../../../arm-none-eabi/lib/thumb/v7e-m/fpv4-sp/hard\libg_nano.a(lib_a-malloc.o)
                0x00031220                malloc
 .text.free     0x00031230       0x10 c:/a/gcc_arm/6/bin/../lib/gcc/arm-none-eabi/6.3.1/../../../../arm-none-eabi/lib/thumb/v7e-m/fpv4-sp/hard\libg_nano.a(lib_a-malloc.o)
                0x00031230                free
 .text.memcmp   0x00031240       0x1e c:/a/gcc_arm/6/bin/../lib/gcc/arm-none-eabi/6.3.1/../../../../arm-none-eabi/lib/thumb/v7e-m/fpv4-sp/hard\libg_nano.a(lib_a-memcmp.o)
                0x00031240                memcmp
 .text.memcpy   0x0003125e       0x16 c:/a/gcc_arm/6/bin/../lib/gcc/arm-none-eabi/6.3.1/../../../../arm-none-eabi/lib/thumb/v7e-m/fpv4-sp/hard\libg_nano.a(lib_a-memcpy-stub.o)
                0x0003125e                memcpy
 .text.memset   0x00031274       0x10 c:/a/gcc_arm/6/bin/../lib/gcc/arm-none-eabi/6.3.1/../../../../arm-none-eabi/lib/thumb/v7e-m/fpv4-sp/hard\libg_nano.a(lib_a-memset.o)
                0x00031274                memset
 .text._free_r  0x00031284       0x9c c:/a/gcc_arm/6/bin/../lib/gcc/arm-none-eabi/6.3.1/../../../../arm-none-eabi/lib/thumb/v7e-m/fpv4-sp/hard\libg_nano.a(lib_a-nano-freer.o)
                0x00031284                _free_r
 .text._malloc_r
                0x00031320       0xbc c:/a/gcc_arm/6/bin/../lib/gcc/arm-none-eabi/6.3.1/../../../../arm-none-eabi/lib/thumb/v7e-m/fpv4-sp/hard\libg_nano.a(lib_a-nano-mallocr.o)
                0x00031320                _malloc_r
 .text._sbrk_r  0x000313dc       0x20 c:/a/gcc_arm/6/bin/../lib/gcc/arm-none-eabi/6.3.1/../../../../arm-none-eabi/lib/thumb/v7e-m/fpv4-sp/hard\libg_nano.a(lib_a-sbrkr.o)
                0x000313dc                _sbrk_r
 .text.strcpy   0x000313fc       0x10 c:/a/gcc_arm/6/bin/../lib/gcc/arm-none-eabi/6.3.1/../../../../arm-none-eabi/lib/thumb/v7e-m/fpv4-sp/hard\libg_nano.a(lib_a-strcpy.o)
                0x000313fc                strcpy
 .text          0x0003140c       0x10 c:/a/gcc_arm/6/bin/../lib/gcc/arm-none-eabi/6.3.1/../../../../arm-none-eabi/lib/thumb/v7e-m/fpv4-sp/hard\libg_nano.a(lib_a-strlen.o)
                0x0003140c                strlen
 .text.strrchr  0x0003141c       0x26 c:/a/gcc_arm/6/bin/../lib/gcc/arm-none-eabi/6.3.1/../../../../arm-none-eabi/lib/thumb/v7e-m/fpv4-sp/hard\libg_nano.a(lib_a-strrchr.o)
                0x0003141c                strrchr
 .text.__malloc_lock
                0x00031442        0x2 c:/a/gcc_arm/6/bin/../lib/gcc/arm-none-eabi/6.3.1/../../../../arm-none-eabi/lib/thumb/v7e-m/fpv4-sp/hard\libg_nano.a(lib_a-mlock.o)
                0x00031442                __malloc_lock
 .text.__malloc_unlock
                0x00031444        0x2 c:/a/gcc_arm/6/bin/../lib/gcc/arm-none-eabi/6.3.1/../../../../arm-none-eabi/lib/thumb/v7e-m/fpv4-sp/hard\libg_nano.a(lib_a-mlock.o)
                0x00031444                __malloc_unlock
 .text.strchr   0x00031446       0x1c c:/a/gcc_arm/6/bin/../lib/gcc/arm-none-eabi/6.3.1/../../../../arm-none-eabi/lib/thumb/v7e-m/fpv4-sp/hard\libg_nano.a(lib_a-strchr.o)
                0x00031446                strchr
 *fill*         0x00031462        0x2 
 .text._sbrk    0x00031464       0x1c c:/a/gcc_arm/6/bin/../lib/gcc/arm-none-eabi/6.3.1/../../../../arm-none-eabi/lib/thumb/v7e-m/fpv4-sp/hard\libnosys.a(sbrk.o)
                0x00031464                _sbrk
 .text._exit    0x00031480        0x4 c:/a/gcc_arm/6/bin/../lib/gcc/arm-none-eabi/6.3.1/../../../../arm-none-eabi/lib/thumb/v7e-m/fpv4-sp/hard\libnosys.a(_exit.o)
                0x00031480                _exit
 *(.init)
 .init          0x00031484        0x4 c:/a/gcc_arm/6/bin/../lib/gcc/arm-none-eabi/6.3.1/thumb/v7e-m/fpv4-sp/hard/crti.o
                0x00031484                _init
 .init          0x00031488        0x8 c:/a/gcc_arm/6/bin/../lib/gcc/arm-none-eabi/6.3.1/thumb/v7e-m/fpv4-sp/hard/crtn.o
 *(.fini)
 .fini          0x00031490        0x4 c:/a/gcc_arm/6/bin/../lib/gcc/arm-none-eabi/6.3.1/thumb/v7e-m/fpv4-sp/hard/crti.o
                0x00031490                _fini
 .fini          0x00031494        0x8 c:/a/gcc_arm/6/bin/../lib/gcc/arm-none-eabi/6.3.1/thumb/v7e-m/fpv4-sp/hard/crtn.o
 *crtbegin.o(.ctors)
 *crtbegin?.o(.ctors)
 *(EXCLUDE_FILE(*crtend.o *crtend?.o) .ctors)
 *(SORT(.ctors.*))
 *(.ctors)
 *crtbegin.o(.dtors)
 *crtbegin?.o(.dtors)
 *(EXCLUDE_FILE(*crtend.o *crtend?.o) .dtors)
 *(SORT(.dtors.*))
 *(.dtors)
 *(.rodata*)
 .rodata.configuration_setup.str1.1
                0x0003149c       0x4b examples/light_switch/server/CMakeFiles/light_switch_server_nrf52832_xxAA_s132_3.1.0.dir/src/main.c.obj
 .rodata.main.str1.1
                0x000314e7       0x2f examples/light_switch/server/CMakeFiles/light_switch_server_nrf52832_xxAA_s132_3.1.0.dir/src/main.c.obj
 .rodata.provisioning_complete.str1.1
                0x00031516       0x1a examples/light_switch/server/CMakeFiles/light_switch_server_nrf52832_xxAA_s132_3.1.0.dir/src/main.c.obj
 .rodata.set_cb.str1.1
                0x00031530       0x17 examples/light_switch/server/CMakeFiles/light_switch_server_nrf52832_xxAA_s132_3.1.0.dir/src/main.c.obj
 .rodata.static_auth_data.12105
                0x00031547       0x10 examples/light_switch/server/CMakeFiles/light_switch_server_nrf52832_xxAA_s132_3.1.0.dir/src/main.c.obj
 .rodata.HardFault_Handler.str1.1
                0x00031557        0xe examples/light_switch/server/CMakeFiles/light_switch_server_nrf52832_xxAA_s132_3.1.0.dir/__/__/nrf_mesh_sdk.c.obj
 .rodata.app_error_handler.str1.1
                0x00031565       0x1d examples/light_switch/server/CMakeFiles/light_switch_server_nrf52832_xxAA_s132_3.1.0.dir/__/__/nrf_mesh_sdk.c.obj
 .rodata.mesh_assert_handler.str1.1
                0x00031582       0x34 examples/light_switch/server/CMakeFiles/light_switch_server_nrf52832_xxAA_s132_3.1.0.dir/__/__/nrf_mesh_sdk.c.obj
 .rodata.m_buttons_list
                0x000315b6        0x4 examples/light_switch/server/CMakeFiles/light_switch_server_nrf52832_xxAA_s132_3.1.0.dir/__/__/common/src/simple_hal.c.obj
 *fill*         0x000315ba        0x2 
 .rodata.m_opcode_handlers
                0x000315bc       0x18 examples/light_switch/server/CMakeFiles/light_switch_server_nrf52832_xxAA_s132_3.1.0.dir/__/__/__/models/simple_on_off/src/simple_on_off_server.c.obj
 .rodata        0x000315d4        0x8 examples/light_switch/server/CMakeFiles/light_switch_server_nrf52832_xxAA_s132_3.1.0.dir/__/__/__/models/config/src/config_server.c.obj
 .rodata.CSWTCH.173
                0x000315dc        0xc examples/light_switch/server/CMakeFiles/light_switch_server_nrf52832_xxAA_s132_3.1.0.dir/__/__/__/models/config/src/config_server.c.obj
 .rodata.CSWTCH.185
                0x000315e8        0x7 examples/light_switch/server/CMakeFiles/light_switch_server_nrf52832_xxAA_s132_3.1.0.dir/__/__/__/models/config/src/config_server.c.obj
 *fill*         0x000315ef        0x1 
 .rodata.opcode_handlers
                0x000315f0      0x170 examples/light_switch/server/CMakeFiles/light_switch_server_nrf52832_xxAA_s132_3.1.0.dir/__/__/__/models/config/src/config_server.c.obj
 .rodata.m_opcode_handlers
                0x00031760       0x58 examples/light_switch/server/CMakeFiles/light_switch_server_nrf52832_xxAA_s132_3.1.0.dir/__/__/__/models/health/src/health_server.c.obj
 .rodata.multiply_de_bruijn_bit_position.9076
                0x000317b8       0x20 examples/light_switch/server/CMakeFiles/light_switch_server_nrf52832_xxAA_s132_3.1.0.dir/__/__/__/models/health/src/health_server.c.obj
 .rodata.mesh_evt_cb.str1.1
                0x000317d8       0x2f examples/light_switch/server/CMakeFiles/light_switch_server_nrf52832_xxAA_s132_3.1.0.dir/__/__/__/mesh/access/src/access.c.obj
 .rodata.multiply_de_bruijn_bit_position.9032
                0x00031807       0x20 examples/light_switch/server/CMakeFiles/light_switch_server_nrf52832_xxAA_s132_3.1.0.dir/__/__/__/mesh/access/src/access.c.obj
 .rodata.packet_tx.str1.1
                0x00031827       0x13 examples/light_switch/server/CMakeFiles/light_switch_server_nrf52832_xxAA_s132_3.1.0.dir/__/__/__/mesh/access/src/access.c.obj
 *fill*         0x0003183a        0x2 
 .rodata.m_flash_groups
                0x0003183c       0xa8 examples/light_switch/server/CMakeFiles/light_switch_server_nrf52832_xxAA_s132_3.1.0.dir/__/__/__/mesh/access/src/device_state_manager.c.obj
 .rodata.m_prov_callbacks
                0x000318e4       0x10 examples/light_switch/server/CMakeFiles/light_switch_server_nrf52832_xxAA_s132_3.1.0.dir/__/__/__/mesh/prov/src/prov_provisionee.c.obj
 .rodata.prov_provisionee_cb_ack_received.str1.1
                0x000318f4       0x53 examples/light_switch/server/CMakeFiles/light_switch_server_nrf52832_xxAA_s132_3.1.0.dir/__/__/__/mesh/prov/src/prov_provisionee.c.obj
 .rodata.pdu_sizes.10818
                0x00031947        0xa examples/light_switch/server/CMakeFiles/light_switch_server_nrf52832_xxAA_s132_3.1.0.dir/__/__/__/mesh/prov/src/provisioning.c.obj
 .rodata.alphanumeric.10923
                0x00031951       0x25 examples/light_switch/server/CMakeFiles/light_switch_server_nrf52832_xxAA_s132_3.1.0.dir/__/__/__/mesh/prov/src/prov_utils.c.obj
 *fill*         0x00031976        0x2 
 .rodata.numeric_max.10917
                0x00031978       0x24 examples/light_switch/server/CMakeFiles/light_switch_server_nrf52832_xxAA_s132_3.1.0.dir/__/__/__/mesh/prov/src/prov_utils.c.obj
 .rodata.prov_utils_authentication_values_derive.str1.1
                0x0003199c        0x5 examples/light_switch/server/CMakeFiles/light_switch_server_nrf52832_xxAA_s132_3.1.0.dir/__/__/__/mesh/prov/src/prov_utils.c.obj
 .rodata.prov_utils_derive_keys.str1.1
                0x000319a1        0xf examples/light_switch/server/CMakeFiles/light_switch_server_nrf52832_xxAA_s132_3.1.0.dir/__/__/__/mesh/prov/src/prov_utils.c.obj
 .rodata.add_active_bearer.str1.1
                0x000319b0       0x2c examples/light_switch/server/CMakeFiles/light_switch_server_nrf52832_xxAA_s132_3.1.0.dir/__/__/__/mesh/prov/src/prov_bearer_adv.c.obj
 .rodata.crctable.10676
                0x000319dc      0x100 examples/light_switch/server/CMakeFiles/light_switch_server_nrf52832_xxAA_s132_3.1.0.dir/__/__/__/mesh/prov/src/prov_bearer_adv.c.obj
 .rodata.interface.10906
                0x00031adc       0x14 examples/light_switch/server/CMakeFiles/light_switch_server_nrf52832_xxAA_s132_3.1.0.dir/__/__/__/mesh/prov/src/prov_bearer_adv.c.obj
 .rodata.prov_bearer_adv_packet_in.str1.1
                0x00031af0      0x26e examples/light_switch/server/CMakeFiles/light_switch_server_nrf52832_xxAA_s132_3.1.0.dir/__/__/__/mesh/prov/src/prov_bearer_adv.c.obj
 .rodata.tx_retry_cb.str1.1
                0x00031d5e       0x37 examples/light_switch/server/CMakeFiles/light_switch_server_nrf52832_xxAA_s132_3.1.0.dir/__/__/__/mesh/prov/src/prov_bearer_adv.c.obj
 .rodata.default_mesh_assertion_handler.str1.1
                0x00031d95       0x19 examples/light_switch/server/CMakeFiles/light_switch_server_nrf52832_xxAA_s132_3.1.0.dir/__/__/__/mesh/access/src/nrf_mesh_node_config.c.obj
 .rodata.default_softdevice_assertion_handler.str1.1
                0x00031d95       0x47 examples/light_switch/server/CMakeFiles/light_switch_server_nrf52832_xxAA_s132_3.1.0.dir/__/__/__/mesh/access/src/nrf_mesh_node_config.c.obj
 .rodata.types_lookup.8837
                0x00031ddc        0x4 mesh/core/libmesh_core_nrf52832_xxAA.a(nrf_mesh_utils.c.obj)
 .rodata.nrf_mesh_listen.str1.1
                0x00031de0       0x70 mesh/core/libmesh_core_nrf52832_xxAA.a(nrf_mesh.c.obj)
 .rodata.CSWTCH.9
                0x00031e50       0x10 mesh/core/libmesh_core_nrf52832_xxAA.a(hal.c.obj)
 .rodata        0x00031e60       0x15 mesh/core/libmesh_core_nrf52832_xxAA.a(enc.c.obj)
 .rodata.network_packet_in.str1.1
                0x00031e75       0x48 mesh/core/libmesh_core_nrf52832_xxAA.a(network.c.obj)
 .rodata.network_packet_send.str1.1
                0x00031ebd       0x49 mesh/core/libmesh_core_nrf52832_xxAA.a(network.c.obj)
 .rodata        0x00031f06        0x7 mesh/core/libmesh_core_nrf52832_xxAA.a(nrf_mesh_keygen.c.obj)
 .rodata.log_callback_rtt.str1.1
                0x00031f0d       0x15 mesh/core/libmesh_core_nrf52832_xxAA.a(log.c.obj)
 .rodata.str1.1
                0x00031f22       0x11 mesh/core/libmesh_core_nrf52832_xxAA.a(log.c.obj)
 *fill*         0x00031f33        0x1 
 .rodata.INVALID_HEADER
                0x00031f34        0x4 mesh/core/libmesh_core_nrf52832_xxAA.a(flash_manager.c.obj)
                0x00031f34                INVALID_HEADER
 .rodata.PADDING_HEADER
                0x00031f38        0x4 mesh/core/libmesh_core_nrf52832_xxAA.a(flash_manager.c.obj)
                0x00031f38                PADDING_HEADER
 .rodata.SEAL_HEADER
                0x00031f3c        0x4 mesh/core/libmesh_core_nrf52832_xxAA.a(flash_manager.c.obj)
                0x00031f3c                SEAL_HEADER
 .rodata.process_action_queue.str1.1
                0x00031f40       0x21 mesh/core/libmesh_core_nrf52832_xxAA.a(flash_manager.c.obj)
                                 0x4f (size before relaxing)
 .rodata.beacon_packet_in.str1.1
                0x00031f61       0x51 mesh/core/libmesh_core_nrf52832_xxAA.a(beacon.c.obj)
                                 0x59 (size before relaxing)
 *fill*         0x00031fb2        0x2 
 .rodata.cp_handler
                0x00031fb4        0x8 mesh/core/libmesh_core_nrf52832_xxAA.a(heartbeat.c.obj)
 .rodata.net_beacon_init.str1.1
                0x00031fbc        0x5 mesh/core/libmesh_core_nrf52832_xxAA.a(net_beacon.c.obj)
 *fill*         0x00031fc1        0x3 
 .rodata.m_interface
                0x00031fc4        0xc mesh/core/libmesh_core_nrf52832_xxAA.a(core_tx_adv.c.obj)
 .rodata.radio_mode_to_us_per_byte.9234
                0x00031fd0        0x6 mesh/core/libmesh_core_nrf52832_xxAA.a(broadcast.c.obj)
 .rodata.channel_rf_offsets.8475
                0x00031fd6       0x28 mesh/core/libmesh_core_nrf52832_xxAA.a(radio_config.c.obj)
 .rodata        0x00031ffe        0x3 mesh/core/libmesh_core_nrf52832_xxAA.a(scanner.c.obj)
 .rodata.sar_ctx_cancel.str1.1
                0x00032001       0x18 mesh/core/libmesh_core_nrf52832_xxAA.a(transport.c.obj)
 .rodata.sar_ctx_tx_complete.str1.1
                0x00032019       0x1d mesh/core/libmesh_core_nrf52832_xxAA.a(transport.c.obj)
                                 0x4b (size before relaxing)
 .rodata.test_transport_decrypt.str1.1
                0x00032036       0x13 mesh/core/libmesh_core_nrf52832_xxAA.a(transport.c.obj)
 .rodata.transport_packet_in.str1.1
                0x00032049       0x24 mesh/core/libmesh_core_nrf52832_xxAA.a(transport.c.obj)
 .rodata.upper_transport_access_packet_in.str1.1
                0x0003206d       0x29 mesh/core/libmesh_core_nrf52832_xxAA.a(transport.c.obj)
 .rodata.upper_transport_packet_in.str1.1
                0x00032096       0x2e mesh/core/libmesh_core_nrf52832_xxAA.a(transport.c.obj)
 .rodata.upper_transport_tx.str1.1
                0x000320c4       0x2c mesh/core/libmesh_core_nrf52832_xxAA.a(transport.c.obj)
                                 0x34 (size before relaxing)
 .rodata.flash_manager_defrag.str1.1
                0x000320f0       0x28 mesh/core/libmesh_core_nrf52832_xxAA.a(flash_manager_defrag.c.obj)
                                 0x56 (size before relaxing)
 .rodata.m_procedure_steps
                0x00032118       0x28 mesh/core/libmesh_core_nrf52832_xxAA.a(flash_manager_defrag.c.obj)
 .rodata.m_all_operations
                0x00032140       0x10 mesh/core/libmesh_core_nrf52832_xxAA.a(mesh_flash.c.obj)
 .rodata.Rb.7348
                0x00032150       0x10 mesh/core/libmesh_core_nrf52832_xxAA.a(aes_cmac.c.obj)
 .rodata._DoInit.str1.1
                0x00032160       0x14 external/rtt/librtt_nrf52832_xxAA.a(SEGGER_RTT.c.obj)
 .rodata._aV2C.5497
                0x00032174       0x10 external/rtt/librtt_nrf52832_xxAA.a(SEGGER_RTT_printf.c.obj)
 .rodata.curve_secp256r1
                0x00032184       0xb0 external/micro-ecc/libuECC_nrf52832_xxAA.a(uECC.c.obj)
 .rodata._global_impure_ptr
                0x00032234        0x4 c:/a/gcc_arm/6/bin/../lib/gcc/arm-none-eabi/6.3.1/../../../../arm-none-eabi/lib/thumb/v7e-m/fpv4-sp/hard\libg_nano.a(lib_a-impure.o)
                0x00032234                _global_impure_ptr
 *(.eh_frame*)
 .eh_frame      0x00032238        0x0 c:/a/gcc_arm/6/bin/../lib/gcc/arm-none-eabi/6.3.1/thumb/v7e-m/fpv4-sp/hard/crtbegin.o
 .eh_frame      0x00032238        0x4 c:/a/gcc_arm/6/bin/../lib/gcc/arm-none-eabi/6.3.1/thumb/v7e-m/fpv4-sp/hard/crtend.o

.glue_7         0x0003223c        0x0
 .glue_7        0x0003223c        0x0 linker stubs

.glue_7t        0x0003223c        0x0
 .glue_7t       0x0003223c        0x0 linker stubs

.vfp11_veneer   0x0003223c        0x0
 .vfp11_veneer  0x0003223c        0x0 linker stubs

.v4_bx          0x0003223c        0x0
 .v4_bx         0x0003223c        0x0 linker stubs

.iplt           0x0003223c        0x0
 .iplt          0x0003223c        0x0 c:/a/gcc_arm/6/bin/../lib/gcc/arm-none-eabi/6.3.1/thumb/v7e-m/fpv4-sp/hard/crtbegin.o

.pwr_mgmt_data  0x0003223c        0x0
                [!provide]                PROVIDE (__start_pwr_mgmt_data, .)
 *(SORT(.pwr_mgmt_data*))
                [!provide]                PROVIDE (__stop_pwr_mgmt_data, .)

.log_const_data
                0x0003223c        0x0
                [!provide]                PROVIDE (__start_log_const_data, .)
 *(.log_const_data)
                [!provide]                PROVIDE (__stop_log_const_data, .)

.cli_command    0x0003223c        0x0
                [!provide]                PROVIDE (__start_cli_command, .)
 *(.cli_command)
                [!provide]                PROVIDE (__stop_cli_command, .)

.sdh_stack_observers
                0x0003223c        0x0
                [!provide]                PROVIDE (__start_sdh_stack_observers, .)
 *(SORT(.sdh_stack_observers*))
                [!provide]                PROVIDE (__stop_sdh_stack_observers, .)

.sdh_req_observers
                0x0003223c        0x0
                [!provide]                PROVIDE (__start_sdh_req_observers, .)
 *(SORT(.sdh_req_observers*))
                [!provide]                PROVIDE (__stop_sdh_req_observers, .)

.sdh_state_observers
                0x0003223c        0x0
                [!provide]                PROVIDE (__start_sdh_state_observers, .)
 *(SORT(.sdh_state_observers*))
                [!provide]                PROVIDE (__stop_sdh_state_observers, .)

.sdh_ant_observers
                0x0003223c        0x0
                [!provide]                PROVIDE (__start_sdh_ant_observers, .)
 *(SORT(.sdh_ant_observers*))
                [!provide]                PROVIDE (__stop_sdh_ant_observers, .)

.sdh_ble_observers
                0x0003223c        0x0
                [!provide]                PROVIDE (__start_sdh_ble_observers, .)
 *(SORT(.sdh_ble_observers*))
                [!provide]                PROVIDE (__stop_sdh_ble_observers, .)

.sdh_soc_observers
                0x0003223c        0x0
                [!provide]                PROVIDE (__start_sdh_soc_observers, .)
 *(SORT(.sdh_soc_observers*))
                [!provide]                PROVIDE (__stop_sdh_soc_observers, .)

.ARM.extab
 *(.ARM.extab* .gnu.linkonce.armextab.*)
                0x0003223c                __exidx_start = .

.ARM.exidx      0x0003223c        0x8
 *(.ARM.exidx* .gnu.linkonce.armexidx.*)
 .ARM.exidx     0x0003223c        0x8 c:/a/gcc_arm/6/bin/../lib/gcc/arm-none-eabi/6.3.1/../../../../arm-none-eabi/lib/thumb/v7e-m/fpv4-sp/hard/crt0.o
                0x00032244                __exidx_end = .
                0x00032244                __etext = .

.rel.dyn        0x00032244        0x0
 .rel.iplt      0x00032244        0x0 c:/a/gcc_arm/6/bin/../lib/gcc/arm-none-eabi/6.3.1/thumb/v7e-m/fpv4-sp/hard/crtbegin.o

.data           0x200019c0      0x170 load address 0x00032244
                0x200019c0                __data_start__ = .
 *(vtable)
 *(.data*)
 .data.config_params.12106
                0x200019c0       0x40 examples/light_switch/server/CMakeFiles/light_switch_server_nrf52832_xxAA_s132_3.1.0.dir/src/main.c.obj
 .data.m_config_server_handle
                0x20001a00        0x2 examples/light_switch/server/CMakeFiles/light_switch_server_nrf52832_xxAA_s132_3.1.0.dir/__/__/__/models/config/src/config_server.c.obj
 *fill*         0x20001a02        0x2 
 .data.flash_add_mem_available_struct.10104
                0x20001a04       0x10 examples/light_switch/server/CMakeFiles/light_switch_server_nrf52832_xxAA_s132_3.1.0.dir/__/__/__/mesh/access/src/access.c.obj
 .data.flash_clear_mem_available_struct.10193
                0x20001a14       0x10 examples/light_switch/server/CMakeFiles/light_switch_server_nrf52832_xxAA_s132_3.1.0.dir/__/__/__/mesh/access/src/access.c.obj
 .data.flash_store_mem_available_struct.10217
                0x20001a24       0x10 examples/light_switch/server/CMakeFiles/light_switch_server_nrf52832_xxAA_s132_3.1.0.dir/__/__/__/mesh/access/src/access.c.obj
 .data.m_default_ttl
                0x20001a34        0x1 examples/light_switch/server/CMakeFiles/light_switch_server_nrf52832_xxAA_s132_3.1.0.dir/__/__/__/mesh/access/src/access.c.obj
 *fill*         0x20001a35        0x3 
 .data.mem_listener.10412
                0x20001a38       0x10 examples/light_switch/server/CMakeFiles/light_switch_server_nrf52832_xxAA_s132_3.1.0.dir/__/__/__/mesh/access/src/device_state_manager.c.obj
 .data.mem_listener.10438
                0x20001a48       0x10 examples/light_switch/server/CMakeFiles/light_switch_server_nrf52832_xxAA_s132_3.1.0.dir/__/__/__/mesh/access/src/device_state_manager.c.obj
 .data.m_async_process_flag
                0x20001a58        0x4 examples/light_switch/server/CMakeFiles/light_switch_server_nrf52832_xxAA_s132_3.1.0.dir/__/__/__/mesh/prov/src/prov_bearer_adv.c.obj
 .data.SystemCoreClock
                0x20001a5c        0x4 examples/light_switch/server/CMakeFiles/light_switch_server_nrf52832_xxAA_s132_3.1.0.dir/__/__/__/external/nRF5_SDK_14.2.0_17b948a/components/toolchain/system_nrf52.c.obj
                0x20001a5c                SystemCoreClock
 .data.mem_listener.9558
                0x20001a60       0x10 mesh/core/libmesh_core_nrf52832_xxAA.a(net_state.c.obj)
 .data.mem_listener.9563
                0x20001a70       0x10 mesh/core/libmesh_core_nrf52832_xxAA.a(net_state.c.obj)
 .data.mem_listener.9577
                0x20001a80       0x10 mesh/core/libmesh_core_nrf52832_xxAA.a(net_state.c.obj)
 .data.mem_listener.9594
                0x20001a90       0x10 mesh/core/libmesh_core_nrf52832_xxAA.a(net_state.c.obj)
 .data.m_nrf_mesh_listener
                0x20001aa0        0xc mesh/core/libmesh_core_nrf52832_xxAA.a(nrf_mesh.c.obj)
 .data.g_log_dbg_lvl
                0x20001aac        0x4 mesh/core/libmesh_core_nrf52832_xxAA.a(log.c.obj)
                0x20001aac                g_log_dbg_lvl
 .data.g_log_dbg_msk
                0x20001ab0        0x4 mesh/core/libmesh_core_nrf52832_xxAA.a(log.c.obj)
                0x20001ab0                g_log_dbg_msk
 .data.g_log_hex_digits
                0x20001ab4        0x4 mesh/core/libmesh_core_nrf52832_xxAA.a(log.c.obj)
                0x20001ab4                g_log_hex_digits
 .data.m_log_callback
                0x20001ab8        0x4 mesh/core/libmesh_core_nrf52832_xxAA.a(log.c.obj)
                0x20001ab8                m_log_callback
 .data.g_rng_function
                0x20001abc        0x4 external/micro-ecc/libuECC_nrf52832_xxAA.a(uECC.c.obj)
 .data._impure_ptr
                0x20001ac0        0x4 c:/a/gcc_arm/6/bin/../lib/gcc/arm-none-eabi/6.3.1/../../../../arm-none-eabi/lib/thumb/v7e-m/fpv4-sp/hard\libg_nano.a(lib_a-impure.o)
                0x20001ac0                _impure_ptr
 .data.impure_data
                0x20001ac4       0x60 c:/a/gcc_arm/6/bin/../lib/gcc/arm-none-eabi/6.3.1/../../../../arm-none-eabi/lib/thumb/v7e-m/fpv4-sp/hard\libg_nano.a(lib_a-impure.o)
                0x20001b24                . = ALIGN (0x4)
                0x20001b24                PROVIDE (__preinit_array_start, .)
 *(.preinit_array)
                0x20001b24                PROVIDE (__preinit_array_end, .)
                0x20001b24                . = ALIGN (0x4)
                0x20001b24                PROVIDE (__init_array_start, .)
 *(SORT(.init_array.*))
 *(.init_array)
 .init_array    0x20001b24        0x4 c:/a/gcc_arm/6/bin/../lib/gcc/arm-none-eabi/6.3.1/thumb/v7e-m/fpv4-sp/hard/crtbegin.o
                0x20001b28                PROVIDE (__init_array_end, .)
                0x20001b28                . = ALIGN (0x4)
                [!provide]                PROVIDE (__fini_array_start, .)
 *(SORT(.fini_array.*))
 *(.fini_array)
 .fini_array    0x20001b28        0x4 c:/a/gcc_arm/6/bin/../lib/gcc/arm-none-eabi/6.3.1/thumb/v7e-m/fpv4-sp/hard/crtbegin.o
                [!provide]                PROVIDE (__fini_array_end, .)
 *(.jcr*)
 .jcr           0x20001b2c        0x0 c:/a/gcc_arm/6/bin/../lib/gcc/arm-none-eabi/6.3.1/thumb/v7e-m/fpv4-sp/hard/crtbegin.o
 .jcr           0x20001b2c        0x4 c:/a/gcc_arm/6/bin/../lib/gcc/arm-none-eabi/6.3.1/thumb/v7e-m/fpv4-sp/hard/crtend.o
                0x20001b30                . = ALIGN (0x4)
                0x20001b30                __data_end__ = .
LOAD c:/a/gcc_arm/6/bin/../lib/gcc/arm-none-eabi/6.3.1/thumb/v7e-m/fpv4-sp/hard/crti.o
LOAD c:/a/gcc_arm/6/bin/../lib/gcc/arm-none-eabi/6.3.1/thumb/v7e-m/fpv4-sp/hard/crtbegin.o
LOAD c:/a/gcc_arm/6/bin/../lib/gcc/arm-none-eabi/6.3.1/../../../../arm-none-eabi/lib/thumb/v7e-m/fpv4-sp/hard/crt0.o
LOAD examples/light_switch/server/CMakeFiles/light_switch_server_nrf52832_xxAA_s132_3.1.0.dir/src/main.c.obj
LOAD examples/light_switch/server/CMakeFiles/light_switch_server_nrf52832_xxAA_s132_3.1.0.dir/__/__/nrf_mesh_sdk.c.obj
LOAD examples/light_switch/server/CMakeFiles/light_switch_server_nrf52832_xxAA_s132_3.1.0.dir/__/__/common/src/simple_hal.c.obj
LOAD examples/light_switch/server/CMakeFiles/light_switch_server_nrf52832_xxAA_s132_3.1.0.dir/__/__/nrf_mesh_weak.c.obj
LOAD examples/light_switch/server/CMakeFiles/light_switch_server_nrf52832_xxAA_s132_3.1.0.dir/__/__/__/models/simple_on_off/src/simple_on_off_server.c.obj
LOAD examples/light_switch/server/CMakeFiles/light_switch_server_nrf52832_xxAA_s132_3.1.0.dir/__/__/__/models/config/src/composition_data.c.obj
LOAD examples/light_switch/server/CMakeFiles/light_switch_server_nrf52832_xxAA_s132_3.1.0.dir/__/__/__/models/config/src/config_server.c.obj
LOAD examples/light_switch/server/CMakeFiles/light_switch_server_nrf52832_xxAA_s132_3.1.0.dir/__/__/__/models/config/src/packed_index_list.c.obj
LOAD examples/light_switch/server/CMakeFiles/light_switch_server_nrf52832_xxAA_s132_3.1.0.dir/__/__/__/models/health/src/health_server.c.obj
LOAD examples/light_switch/server/CMakeFiles/light_switch_server_nrf52832_xxAA_s132_3.1.0.dir/__/__/__/mesh/access/src/access_publish.c.obj
LOAD examples/light_switch/server/CMakeFiles/light_switch_server_nrf52832_xxAA_s132_3.1.0.dir/__/__/__/mesh/access/src/access.c.obj
LOAD examples/light_switch/server/CMakeFiles/light_switch_server_nrf52832_xxAA_s132_3.1.0.dir/__/__/__/mesh/access/src/access_reliable.c.obj
LOAD examples/light_switch/server/CMakeFiles/light_switch_server_nrf52832_xxAA_s132_3.1.0.dir/__/__/__/mesh/access/src/device_state_manager.c.obj
LOAD examples/light_switch/server/CMakeFiles/light_switch_server_nrf52832_xxAA_s132_3.1.0.dir/__/__/__/mesh/prov/src/prov_provisionee.c.obj
LOAD examples/light_switch/server/CMakeFiles/light_switch_server_nrf52832_xxAA_s132_3.1.0.dir/__/__/__/mesh/prov/src/nrf_mesh_prov.c.obj
LOAD examples/light_switch/server/CMakeFiles/light_switch_server_nrf52832_xxAA_s132_3.1.0.dir/__/__/__/mesh/prov/src/provisioning.c.obj
LOAD examples/light_switch/server/CMakeFiles/light_switch_server_nrf52832_xxAA_s132_3.1.0.dir/__/__/__/mesh/prov/src/prov_beacon.c.obj
LOAD examples/light_switch/server/CMakeFiles/light_switch_server_nrf52832_xxAA_s132_3.1.0.dir/__/__/__/mesh/prov/src/prov_utils.c.obj
LOAD examples/light_switch/server/CMakeFiles/light_switch_server_nrf52832_xxAA_s132_3.1.0.dir/__/__/__/mesh/prov/src/prov_bearer_adv.c.obj
LOAD examples/light_switch/server/CMakeFiles/light_switch_server_nrf52832_xxAA_s132_3.1.0.dir/__/__/__/mesh/access/src/nrf_mesh_node_config.c.obj
LOAD examples/light_switch/server/CMakeFiles/light_switch_server_nrf52832_xxAA_s132_3.1.0.dir/__/__/__/external/nRF5_SDK_14.2.0_17b948a/components/toolchain/system_nrf52.c.obj
LOAD examples/light_switch/server/CMakeFiles/light_switch_server_nrf52832_xxAA_s132_3.1.0.dir/__/__/__/external/nRF5_SDK_14.2.0_17b948a/components/toolchain/gcc/gcc_startup_nrf52.S.obj
LOAD mesh/core/libmesh_core_nrf52832_xxAA.a
LOAD external/rtt/librtt_nrf52832_xxAA.a
LOAD external/micro-ecc/libuECC_nrf52832_xxAA.a
START GROUP
LOAD c:/a/gcc_arm/6/bin/../lib/gcc/arm-none-eabi/6.3.1/thumb/v7e-m/fpv4-sp/hard\libgcc.a
LOAD c:/a/gcc_arm/6/bin/../lib/gcc/arm-none-eabi/6.3.1/../../../../arm-none-eabi/lib/thumb/v7e-m/fpv4-sp/hard\libg_nano.a
LOAD c:/a/gcc_arm/6/bin/../lib/gcc/arm-none-eabi/6.3.1/../../../../arm-none-eabi/lib/thumb/v7e-m/fpv4-sp/hard\libc_nano.a
END GROUP
START GROUP
LOAD c:/a/gcc_arm/6/bin/../lib/gcc/arm-none-eabi/6.3.1/thumb/v7e-m/fpv4-sp/hard\libgcc.a
LOAD c:/a/gcc_arm/6/bin/../lib/gcc/arm-none-eabi/6.3.1/../../../../arm-none-eabi/lib/thumb/v7e-m/fpv4-sp/hard\libc_nano.a
END GROUP
LOAD c:/a/gcc_arm/6/bin/../lib/gcc/arm-none-eabi/6.3.1/thumb/v7e-m/fpv4-sp/hard/crtend.o
LOAD c:/a/gcc_arm/6/bin/../lib/gcc/arm-none-eabi/6.3.1/thumb/v7e-m/fpv4-sp/hard/crtn.o
START GROUP
LOAD c:/a/gcc_arm/6/bin/../lib/gcc/arm-none-eabi/6.3.1/thumb/v7e-m/fpv4-sp/hard\libgcc.a
LOAD c:/a/gcc_arm/6/bin/../lib/gcc/arm-none-eabi/6.3.1/../../../../arm-none-eabi/lib/thumb/v7e-m/fpv4-sp/hard\libc.a
LOAD c:/a/gcc_arm/6/bin/../lib/gcc/arm-none-eabi/6.3.1/../../../../arm-none-eabi/lib/thumb/v7e-m/fpv4-sp/hard\libnosys.a
END GROUP

.igot.plt       0x20001b30        0x0 load address 0x000323b4
 .igot.plt      0x20001b30        0x0 c:/a/gcc_arm/6/bin/../lib/gcc/arm-none-eabi/6.3.1/thumb/v7e-m/fpv4-sp/hard/crtbegin.o
                0x20001b30                . = ALIGN (0x4)

.svc_data       0x20001b30        0x0
                [!provide]                PROVIDE (__start_svc_data, .)
 *(.svc_data)
                [!provide]                PROVIDE (__stop_svc_data, .)

.fs_data        0x20001b30        0x0
                [!provide]                PROVIDE (__start_fs_data, .)
 *(.fs_data)
                [!provide]                PROVIDE (__stop_fs_data, .)

.log_dynamic_data
                0x20001b30        0x0
                [!provide]                PROVIDE (__start_log_dynamic_data, .)
 *(.log_dynamic_data)
                [!provide]                PROVIDE (__stop_log_dynamic_data, .)

.cli_sorted_cmd_ptrs
                0x20001b30        0x0
                [!provide]                PROVIDE (__start_cli_sorted_cmd_ptrs, .)
 *(.cli_sorted_cmd_ptrs)
                [!provide]                PROVIDE (__stop_cli_sorted_cmd_ptrs, .)

.bss            0x20001b30     0x2f4c load address 0x000323b8
                0x20001b30                . = ALIGN (0x4)
                0x20001b30                __bss_start__ = .
 *(.bss*)
 .bss           0x20001b30       0x1c c:/a/gcc_arm/6/bin/../lib/gcc/arm-none-eabi/6.3.1/thumb/v7e-m/fpv4-sp/hard/crtbegin.o
 .bss.m_server  0x20001b4c        0xc examples/light_switch/server/CMakeFiles/light_switch_server_nrf52832_xxAA_s132_3.1.0.dir/src/main.c.obj
 .bss.m_ble_evt_buffer
                0x20001b58       0x4f examples/light_switch/server/CMakeFiles/light_switch_server_nrf52832_xxAA_s132_3.1.0.dir/__/__/nrf_mesh_sdk.c.obj
 *fill*         0x20001ba7        0x1 
 .bss.m_button_handler_cb
                0x20001ba8        0x4 examples/light_switch/server/CMakeFiles/light_switch_server_nrf52832_xxAA_s132_3.1.0.dir/__/__/common/src/simple_hal.c.obj
 .bss.m_last_button_press
                0x20001bac        0x4 examples/light_switch/server/CMakeFiles/light_switch_server_nrf52832_xxAA_s132_3.1.0.dir/__/__/common/src/simple_hal.c.obj
 .bss.m_evt_cb  0x20001bb0        0x4 examples/light_switch/server/CMakeFiles/light_switch_server_nrf52832_xxAA_s132_3.1.0.dir/__/__/__/models/config/src/config_server.c.obj
 .bss.m_heartbeat_publication
                0x20001bb4       0x14 examples/light_switch/server/CMakeFiles/light_switch_server_nrf52832_xxAA_s132_3.1.0.dir/__/__/__/models/config/src/config_server.c.obj
 .bss.m_attention_timer
                0x20001bc8       0x18 examples/light_switch/server/CMakeFiles/light_switch_server_nrf52832_xxAA_s132_3.1.0.dir/__/__/__/models/health/src/health_server.c.obj
 .bss.mp_attention_list
                0x20001be0        0x4 examples/light_switch/server/CMakeFiles/light_switch_server_nrf52832_xxAA_s132_3.1.0.dir/__/__/__/models/health/src/health_server.c.obj
 .bss.m_publish_timer
                0x20001be4       0x18 examples/light_switch/server/CMakeFiles/light_switch_server_nrf52832_xxAA_s132_3.1.0.dir/__/__/__/mesh/access/src/access_publish.c.obj
 .bss.m_publish_timer_counter
                0x20001bfc        0x4 examples/light_switch/server/CMakeFiles/light_switch_server_nrf52832_xxAA_s132_3.1.0.dir/__/__/__/mesh/access/src/access_publish.c.obj
 .bss.m_publish_timer_running
                0x20001c00        0x1 examples/light_switch/server/CMakeFiles/light_switch_server_nrf52832_xxAA_s132_3.1.0.dir/__/__/__/mesh/access/src/access_publish.c.obj
 .bss.m_timer_resolution
                0x20001c01        0x1 examples/light_switch/server/CMakeFiles/light_switch_server_nrf52832_xxAA_s132_3.1.0.dir/__/__/__/mesh/access/src/access_publish.c.obj
 *fill*         0x20001c02        0x2 
 .bss.mp_publication_list
                0x20001c04        0x4 examples/light_switch/server/CMakeFiles/light_switch_server_nrf52832_xxAA_s132_3.1.0.dir/__/__/__/mesh/access/src/access_publish.c.obj
 .bss.m_element_pool
                0x20001c08        0x6 examples/light_switch/server/CMakeFiles/light_switch_server_nrf52832_xxAA_s132_3.1.0.dir/__/__/__/mesh/access/src/access.c.obj
 *fill*         0x20001c0e        0x2 
 .bss.m_evt_handler
                0x20001c10        0x8 examples/light_switch/server/CMakeFiles/light_switch_server_nrf52832_xxAA_s132_3.1.0.dir/__/__/__/mesh/access/src/access.c.obj
 .bss.m_flash_manager
                0x20001c18       0x24 examples/light_switch/server/CMakeFiles/light_switch_server_nrf52832_xxAA_s132_3.1.0.dir/__/__/__/mesh/access/src/access.c.obj
 .bss.m_flash_not_ready
                0x20001c3c        0x1 examples/light_switch/server/CMakeFiles/light_switch_server_nrf52832_xxAA_s132_3.1.0.dir/__/__/__/mesh/access/src/access.c.obj
 .bss.m_metadata_stored
                0x20001c3d        0x1 examples/light_switch/server/CMakeFiles/light_switch_server_nrf52832_xxAA_s132_3.1.0.dir/__/__/__/mesh/access/src/access.c.obj
 *fill*         0x20001c3e        0x2 
 .bss.m_model_pool
                0x20001c40       0x9c examples/light_switch/server/CMakeFiles/light_switch_server_nrf52832_xxAA_s132_3.1.0.dir/__/__/__/mesh/access/src/access.c.obj
 .bss.m_subscription_list_pool
                0x20001cdc        0x8 examples/light_switch/server/CMakeFiles/light_switch_server_nrf52832_xxAA_s132_3.1.0.dir/__/__/__/mesh/access/src/access.c.obj
 .bss.m_reliable
                0x20001ce4       0xa0 examples/light_switch/server/CMakeFiles/light_switch_server_nrf52832_xxAA_s132_3.1.0.dir/__/__/__/mesh/access/src/access_reliable.c.obj
 .bss.m_addr_nonvirtual_allocated
                0x20001d84        0x4 examples/light_switch/server/CMakeFiles/light_switch_server_nrf52832_xxAA_s132_3.1.0.dir/__/__/__/mesh/access/src/device_state_manager.c.obj
 .bss.m_addr_nonvirtual_needs_flashing
                0x20001d88        0x4 examples/light_switch/server/CMakeFiles/light_switch_server_nrf52832_xxAA_s132_3.1.0.dir/__/__/__/mesh/access/src/device_state_manager.c.obj
 .bss.m_addr_unicast_allocated
                0x20001d8c        0x4 examples/light_switch/server/CMakeFiles/light_switch_server_nrf52832_xxAA_s132_3.1.0.dir/__/__/__/mesh/access/src/device_state_manager.c.obj
 .bss.m_addr_unicast_needs_flashing
                0x20001d90        0x4 examples/light_switch/server/CMakeFiles/light_switch_server_nrf52832_xxAA_s132_3.1.0.dir/__/__/__/mesh/access/src/device_state_manager.c.obj
 .bss.m_addr_virtual_allocated
                0x20001d94        0x4 examples/light_switch/server/CMakeFiles/light_switch_server_nrf52832_xxAA_s132_3.1.0.dir/__/__/__/mesh/access/src/device_state_manager.c.obj
 .bss.m_addr_virtual_needs_flashing
                0x20001d98        0x4 examples/light_switch/server/CMakeFiles/light_switch_server_nrf52832_xxAA_s132_3.1.0.dir/__/__/__/mesh/access/src/device_state_manager.c.obj
 .bss.m_addresses
                0x20001d9c        0xc examples/light_switch/server/CMakeFiles/light_switch_server_nrf52832_xxAA_s132_3.1.0.dir/__/__/__/mesh/access/src/device_state_manager.c.obj
 .bss.m_appkey_allocated
                0x20001da8        0x4 examples/light_switch/server/CMakeFiles/light_switch_server_nrf52832_xxAA_s132_3.1.0.dir/__/__/__/mesh/access/src/device_state_manager.c.obj
 .bss.m_appkey_needs_flashing
                0x20001dac        0x4 examples/light_switch/server/CMakeFiles/light_switch_server_nrf52832_xxAA_s132_3.1.0.dir/__/__/__/mesh/access/src/device_state_manager.c.obj
 .bss.m_appkeys
                0x20001db0       0x2a examples/light_switch/server/CMakeFiles/light_switch_server_nrf52832_xxAA_s132_3.1.0.dir/__/__/__/mesh/access/src/device_state_manager.c.obj
 *fill*         0x20001dda        0x2 
 .bss.m_devkey_allocated
                0x20001ddc        0x4 examples/light_switch/server/CMakeFiles/light_switch_server_nrf52832_xxAA_s132_3.1.0.dir/__/__/__/mesh/access/src/device_state_manager.c.obj
 .bss.m_devkey_needs_flashing
                0x20001de0        0x4 examples/light_switch/server/CMakeFiles/light_switch_server_nrf52832_xxAA_s132_3.1.0.dir/__/__/__/mesh/access/src/device_state_manager.c.obj
 .bss.m_devkeys
                0x20001de4       0x16 examples/light_switch/server/CMakeFiles/light_switch_server_nrf52832_xxAA_s132_3.1.0.dir/__/__/__/mesh/access/src/device_state_manager.c.obj
 .bss.m_flash_is_available
                0x20001dfa        0x1 examples/light_switch/server/CMakeFiles/light_switch_server_nrf52832_xxAA_s132_3.1.0.dir/__/__/__/mesh/access/src/device_state_manager.c.obj
 *fill*         0x20001dfb        0x1 
 .bss.m_flash_manager
                0x20001dfc       0x24 examples/light_switch/server/CMakeFiles/light_switch_server_nrf52832_xxAA_s132_3.1.0.dir/__/__/__/mesh/access/src/device_state_manager.c.obj
 .bss.m_flash_mem_listener_update_all
                0x20001e20       0x10 examples/light_switch/server/CMakeFiles/light_switch_server_nrf52832_xxAA_s132_3.1.0.dir/__/__/__/mesh/access/src/device_state_manager.c.obj
 .bss.m_has_primary_subnet
                0x20001e30        0x1 examples/light_switch/server/CMakeFiles/light_switch_server_nrf52832_xxAA_s132_3.1.0.dir/__/__/__/mesh/access/src/device_state_manager.c.obj
 *fill*         0x20001e31        0x1 
 .bss.m_local_unicast_addr
                0x20001e32        0x4 examples/light_switch/server/CMakeFiles/light_switch_server_nrf52832_xxAA_s132_3.1.0.dir/__/__/__/mesh/access/src/device_state_manager.c.obj
 *fill*         0x20001e36        0x2 
 .bss.m_subnet_allocated
                0x20001e38        0x4 examples/light_switch/server/CMakeFiles/light_switch_server_nrf52832_xxAA_s132_3.1.0.dir/__/__/__/mesh/access/src/device_state_manager.c.obj
 .bss.m_subnet_needs_flashing
                0x20001e3c        0x4 examples/light_switch/server/CMakeFiles/light_switch_server_nrf52832_xxAA_s132_3.1.0.dir/__/__/__/mesh/access/src/device_state_manager.c.obj
 .bss.m_subnets
                0x20001e40       0xac examples/light_switch/server/CMakeFiles/light_switch_server_nrf52832_xxAA_s132_3.1.0.dir/__/__/__/mesh/access/src/device_state_manager.c.obj
 .bss.m_virtual_addresses
                0x20001eec       0x14 examples/light_switch/server/CMakeFiles/light_switch_server_nrf52832_xxAA_s132_3.1.0.dir/__/__/__/mesh/access/src/device_state_manager.c.obj
 .bss.m_event_handler
                0x20001f00        0x4 examples/light_switch/server/CMakeFiles/light_switch_server_nrf52832_xxAA_s132_3.1.0.dir/__/__/__/mesh/prov/src/prov_beacon.c.obj
 .bss.m_offload_ecdh
                0x20001f04        0x1 examples/light_switch/server/CMakeFiles/light_switch_server_nrf52832_xxAA_s132_3.1.0.dir/__/__/__/mesh/prov/src/prov_utils.c.obj
 *fill*         0x20001f05        0x3 
 .bss.mp_bearer_head
                0x20001f08        0x4 examples/light_switch/server/CMakeFiles/light_switch_server_nrf52832_xxAA_s132_3.1.0.dir/__/__/__/mesh/prov/src/prov_bearer_adv.c.obj
 .bss.m_health_server
                0x20001f0c       0x5c examples/light_switch/server/CMakeFiles/light_switch_server_nrf52832_xxAA_s132_3.1.0.dir/__/__/__/mesh/access/src/nrf_mesh_node_config.c.obj
 .bss.m_node_provisioned
                0x20001f68        0x1 examples/light_switch/server/CMakeFiles/light_switch_server_nrf52832_xxAA_s132_3.1.0.dir/__/__/__/mesh/access/src/nrf_mesh_node_config.c.obj
 .bss.m_private_key
                0x20001f69       0x20 examples/light_switch/server/CMakeFiles/light_switch_server_nrf52832_xxAA_s132_3.1.0.dir/__/__/__/mesh/access/src/nrf_mesh_node_config.c.obj
 *fill*         0x20001f89        0x3 
 .bss.m_prov_bearer_adv
                0x20001f8c      0x1c0 examples/light_switch/server/CMakeFiles/light_switch_server_nrf52832_xxAA_s132_3.1.0.dir/__/__/__/mesh/access/src/nrf_mesh_node_config.c.obj
 .bss.m_prov_ctx
                0x2000214c      0x130 examples/light_switch/server/CMakeFiles/light_switch_server_nrf52832_xxAA_s132_3.1.0.dir/__/__/__/mesh/access/src/nrf_mesh_node_config.c.obj
 .bss.m_public_key
                0x2000227c       0x40 examples/light_switch/server/CMakeFiles/light_switch_server_nrf52832_xxAA_s132_3.1.0.dir/__/__/__/mesh/access/src/nrf_mesh_node_config.c.obj
 .bss.mp_init_params
                0x200022bc        0x4 examples/light_switch/server/CMakeFiles/light_switch_server_nrf52832_xxAA_s132_3.1.0.dir/__/__/__/mesh/access/src/nrf_mesh_node_config.c.obj
 .bss.m_uuid    0x200022c0       0x10 mesh/core/libmesh_core_nrf52832_xxAA.a(nrf_mesh_configure.c.obj)
 .bss.mp_evt_handlers_head
                0x200022d0        0x4 mesh/core/libmesh_core_nrf52832_xxAA.a(event.c.obj)
 .bss.lock_count.9617
                0x200022d4        0x4 mesh/core/libmesh_core_nrf52832_xxAA.a(net_state.c.obj)
 .bss.m_flash_manager
                0x200022d8       0x24 mesh/core/libmesh_core_nrf52832_xxAA.a(net_state.c.obj)
 .bss.m_iv_update_timer
                0x200022fc       0x18 mesh/core/libmesh_core_nrf52832_xxAA.a(net_state.c.obj)
 .bss.m_net_state
                0x20002314       0x14 mesh/core/libmesh_core_nrf52832_xxAA.a(net_state.c.obj)
 .bss.m_seqnum_allocation_in_progress
                0x20002328        0x1 mesh/core/libmesh_core_nrf52832_xxAA.a(net_state.c.obj)
 .bss.m_test_mode
                0x20002329        0x1 mesh/core/libmesh_core_nrf52832_xxAA.a(net_state.c.obj)
 .bss.m_is_enabled
                0x2000232a        0x1 mesh/core/libmesh_core_nrf52832_xxAA.a(nrf_mesh.c.obj)
 .bss.m_is_initialized
                0x2000232b        0x1 mesh/core/libmesh_core_nrf52832_xxAA.a(nrf_mesh.c.obj)
 .bss.m_rx_cb   0x2000232c        0x4 mesh/core/libmesh_core_nrf52832_xxAA.a(nrf_mesh.c.obj)
 .bss.m_event_flag
                0x20002330        0x4 mesh/core/libmesh_core_nrf52832_xxAA.a(timer_scheduler.c.obj)
 .bss.m_scheduler
                0x20002334       0x10 mesh/core/libmesh_core_nrf52832_xxAA.a(timer_scheduler.c.obj)
 .bss.m_attributes
                0x20002344        0x3 mesh/core/libmesh_core_nrf52832_xxAA.a(timer.c.obj)
 *fill*         0x20002347        0x1 
 .bss.m_callbacks
                0x20002348        0xc mesh/core/libmesh_core_nrf52832_xxAA.a(timer.c.obj)
 .bss.m_is_in_ts
                0x20002354        0x1 mesh/core/libmesh_core_nrf52832_xxAA.a(timer.c.obj)
 *fill*         0x20002355        0x3 
 .bss.m_reference_time
                0x20002358        0x4 mesh/core/libmesh_core_nrf52832_xxAA.a(timer.c.obj)
 .bss.m_timeouts
                0x2000235c        0xc mesh/core/libmesh_core_nrf52832_xxAA.a(timer.c.obj)
 .bss.m_timer_mut
                0x20002368        0x4 mesh/core/libmesh_core_nrf52832_xxAA.a(timer.c.obj)
 .bss.m_ts_end_time
                0x2000236c        0x4 mesh/core/libmesh_core_nrf52832_xxAA.a(timer.c.obj)
 .bss.mp_ppi_tasks
                0x20002370        0xc mesh/core/libmesh_core_nrf52832_xxAA.a(timer.c.obj)
 .bss.m_current_time
                0x2000237c        0x4 mesh/core/libmesh_core_nrf52832_xxAA.a(ticker.c.obj)
 .bss.m_timer   0x20002380       0x18 mesh/core/libmesh_core_nrf52832_xxAA.a(ticker.c.obj)
 .bss.m_current_timeslot
                0x20002398       0x1c mesh/core/libmesh_core_nrf52832_xxAA.a(timeslot.c.obj)
 .bss.m_lfclk_ppm
                0x200023b4        0x4 mesh/core/libmesh_core_nrf52832_xxAA.a(timeslot.c.obj)
 .bss.m_radio_request_earliest
                0x200023b8       0x10 mesh/core/libmesh_core_nrf52832_xxAA.a(timeslot.c.obj)
 .bss.m_state_lock
                0x200023c8        0x1 mesh/core/libmesh_core_nrf52832_xxAA.a(timeslot.c.obj)
 .bss.m_timeslot_forced_command
                0x200023c9        0x1 mesh/core/libmesh_core_nrf52832_xxAA.a(timeslot.c.obj)
 *fill*         0x200023ca        0x6 
 .bss.s_last_rtc_value.9081
                0x200023d0        0x8 mesh/core/libmesh_core_nrf52832_xxAA.a(timeslot.c.obj)
 .bss.m_bearer_event_fifo
                0x200023d8       0x14 mesh/core/libmesh_core_nrf52832_xxAA.a(bearer_event.c.obj)
 .bss.m_bearer_event_fifo_buffer
                0x200023ec      0x100 mesh/core/libmesh_core_nrf52832_xxAA.a(bearer_event.c.obj)
 .bss.m_critical
                0x200024ec        0x4 mesh/core/libmesh_core_nrf52832_xxAA.a(bearer_event.c.obj)
 .bss.m_flag_count
                0x200024f0        0x4 mesh/core/libmesh_core_nrf52832_xxAA.a(bearer_event.c.obj)
 .bss.m_flag_event_callbacks
                0x200024f4       0x20 mesh/core/libmesh_core_nrf52832_xxAA.a(bearer_event.c.obj)
 .bss.m_flags   0x20002514        0x4 mesh/core/libmesh_core_nrf52832_xxAA.a(bearer_event.c.obj)
 .bss.m_irq_priority
                0x20002518        0x1 mesh/core/libmesh_core_nrf52832_xxAA.a(bearer_event.c.obj)
 *fill*         0x20002519        0x3 
 .bss.m_sequential_event_queue
                0x2000251c        0x8 mesh/core/libmesh_core_nrf52832_xxAA.a(bearer_event.c.obj)
 .bss.s_recursion_guard.9203
                0x20002524        0x1 mesh/core/libmesh_core_nrf52832_xxAA.a(bearer_event.c.obj)
 *fill*         0x20002525        0x3 
 .bss.m_relay_check_cb
                0x20002528        0x4 mesh/core/libmesh_core_nrf52832_xxAA.a(network.c.obj)
 .bss.m_relay_enable
                0x2000252c        0x1 mesh/core/libmesh_core_nrf52832_xxAA.a(network.c.obj)
 *fill*         0x2000252d        0x3 
 .bss.m_action_queue
                0x20002530        0xc mesh/core/libmesh_core_nrf52832_xxAA.a(flash_manager.c.obj)
 .bss.m_action_queue_buffer
                0x2000253c      0x104 mesh/core/libmesh_core_nrf52832_xxAA.a(flash_manager.c.obj)
 .bss.m_action_state
                0x20002640        0x1 mesh/core/libmesh_core_nrf52832_xxAA.a(flash_manager.c.obj)
 *fill*         0x20002641        0x3 
 .bss.m_memory_listener_queue
                0x20002644        0x8 mesh/core/libmesh_core_nrf52832_xxAA.a(flash_manager.c.obj)
 .bss.m_processing_flag
                0x2000264c        0x4 mesh/core/libmesh_core_nrf52832_xxAA.a(flash_manager.c.obj)
 .bss.m_queue_empty_cb
                0x20002650        0x4 mesh/core/libmesh_core_nrf52832_xxAA.a(flash_manager.c.obj)
 .bss.m_state   0x20002654        0x1 mesh/core/libmesh_core_nrf52832_xxAA.a(flash_manager.c.obj)
 *fill*         0x20002655        0x1 
 .bss.m_token   0x20002656        0x2 mesh/core/libmesh_core_nrf52832_xxAA.a(flash_manager.c.obj)
 .bss.p_current.10931
                0x20002658        0x4 mesh/core/libmesh_core_nrf52832_xxAA.a(flash_manager.c.obj)
 .bss.result.10932
                0x2000265c        0x1 mesh/core/libmesh_core_nrf52832_xxAA.a(flash_manager.c.obj)
 *fill*         0x2000265d        0x3 
 .bss.m_adv_buffer
                0x20002660       0x68 mesh/core/libmesh_core_nrf52832_xxAA.a(beacon.c.obj)
 .bss.m_advertiser
                0x200026c8       0x94 mesh/core/libmesh_core_nrf52832_xxAA.a(beacon.c.obj)
 .bss.m_bearers
                0x2000275c        0x4 mesh/core/libmesh_core_nrf52832_xxAA.a(core_tx.c.obj)
 .bss.m_tx_complete_callback
                0x20002760        0x4 mesh/core/libmesh_core_nrf52832_xxAA.a(core_tx.c.obj)
 .bss.m_hb_core_evt_handler
                0x20002764        0x8 mesh/core/libmesh_core_nrf52832_xxAA.a(heartbeat.c.obj)
 .bss.m_hb_pending_feat_msg
                0x2000276c        0x1 mesh/core/libmesh_core_nrf52832_xxAA.a(heartbeat.c.obj)
 .bss.m_hb_pending_pub_msg
                0x2000276d        0x1 mesh/core/libmesh_core_nrf52832_xxAA.a(heartbeat.c.obj)
 .bss.m_heartbeat_init_done
                0x2000276e        0x1 mesh/core/libmesh_core_nrf52832_xxAA.a(heartbeat.c.obj)
 *fill*         0x2000276f        0x1 
 .bss.m_heartbeat_subscription
                0x20002770       0x10 mesh/core/libmesh_core_nrf52832_xxAA.a(heartbeat.c.obj)
 .bss.m_publication_count_decrement_cb
                0x20002780        0x4 mesh/core/libmesh_core_nrf52832_xxAA.a(heartbeat.c.obj)
 .bss.m_publication_get_cb
                0x20002784        0x4 mesh/core/libmesh_core_nrf52832_xxAA.a(heartbeat.c.obj)
 .bss.m_publication_timer
                0x20002788       0x1c mesh/core/libmesh_core_nrf52832_xxAA.a(heartbeat.c.obj)
 .bss.m_subscription_timer
                0x200027a4       0x18 mesh/core/libmesh_core_nrf52832_xxAA.a(heartbeat.c.obj)
 .bss.m_beacon_salt
                0x200027bc       0x10 mesh/core/libmesh_core_nrf52832_xxAA.a(net_beacon.c.obj)
 .bss.m_enabled
                0x200027cc        0x1 mesh/core/libmesh_core_nrf52832_xxAA.a(net_beacon.c.obj)
 *fill*         0x200027cd        0x3 
 .bss.m_tx_event
                0x200027d0       0x18 mesh/core/libmesh_core_nrf52832_xxAA.a(net_beacon.c.obj)
 .bss.m_adv_tx_count
                0x200027e8        0x8 mesh/core/libmesh_core_nrf52832_xxAA.a(core_tx_adv.c.obj)
 .bss.m_advertisers
                0x200027f0      0x128 mesh/core/libmesh_core_nrf52832_xxAA.a(core_tx_adv.c.obj)
 .bss.m_originator_adv_packet_buffer
                0x20002918      0x100 mesh/core/libmesh_core_nrf52832_xxAA.a(core_tx_adv.c.obj)
 .bss.m_relay_adv_packet_buffer
                0x20002a18       0x80 mesh/core/libmesh_core_nrf52832_xxAA.a(core_tx_adv.c.obj)
 .bss.m_subscribers
                0x20002a98        0x4 mesh/core/libmesh_core_nrf52832_xxAA.a(ad_listener.c.obj)
 .bss.m_adtype_filter
                0x20002a9c       0x38 mesh/core/libmesh_core_nrf52832_xxAA.a(ad_type_filter.c.obj)
 .bss.m_adv_prng
                0x20002ad4       0x10 mesh/core/libmesh_core_nrf52832_xxAA.a(advertiser.c.obj)
 .bss.m_action_queue
                0x20002ae4        0x8 mesh/core/libmesh_core_nrf52832_xxAA.a(bearer_handler.c.obj)
 .bss.m_end_time
                0x20002aec        0x4 mesh/core/libmesh_core_nrf52832_xxAA.a(bearer_handler.c.obj)
 .bss.m_scanner_is_active
                0x20002af0        0x1 mesh/core/libmesh_core_nrf52832_xxAA.a(bearer_handler.c.obj)
 .bss.m_stopped
                0x20002af1        0x1 mesh/core/libmesh_core_nrf52832_xxAA.a(bearer_handler.c.obj)
 *fill*         0x20002af2        0x2 
 .bss.mp_action
                0x20002af4        0x4 mesh/core/libmesh_core_nrf52832_xxAA.a(bearer_handler.c.obj)
 .bss.m_next_channel_index
                0x20002af8        0x1 mesh/core/libmesh_core_nrf52832_xxAA.a(broadcast.c.obj)
 *fill*         0x20002af9        0x3 
 .bss.m_accepted_amount
                0x20002afc        0x4 mesh/core/libmesh_core_nrf52832_xxAA.a(filter_engine.c.obj)
 .bss.m_filter_list_head
                0x20002b00        0x4 mesh/core/libmesh_core_nrf52832_xxAA.a(filter_engine.c.obj)
 .bss.m_scanner
                0x20002b04      0x28c mesh/core/libmesh_core_nrf52832_xxAA.a(scanner.c.obj)
 .bss.m_internal_event_fifo
                0x20002d90       0x14 mesh/core/libmesh_core_nrf52832_xxAA.a(internal_event.c.obj)
 .bss.m_internal_event_initialized
                0x20002da4        0x1 mesh/core/libmesh_core_nrf52832_xxAA.a(internal_event.c.obj)
 *fill*         0x20002da5        0x3 
 .bss.m_report_cb
                0x20002da8        0x4 mesh/core/libmesh_core_nrf52832_xxAA.a(internal_event.c.obj)
 .bss.m_msg_cache
                0x20002dac      0x100 mesh/core/libmesh_core_nrf52832_xxAA.a(msg_cache.c.obj)
 .bss.m_msg_cache_head
                0x20002eac        0x4 mesh/core/libmesh_core_nrf52832_xxAA.a(msg_cache.c.obj)
 .bss.m_control_packet_consumer_count
                0x20002eb0        0x4 mesh/core/libmesh_core_nrf52832_xxAA.a(transport.c.obj)
 .bss.m_control_packet_consumers
                0x20002eb4        0x8 mesh/core/libmesh_core_nrf52832_xxAA.a(transport.c.obj)
 .bss.m_sar_alloc
                0x20002ebc        0x4 mesh/core/libmesh_core_nrf52832_xxAA.a(transport.c.obj)
 .bss.m_sar_process_flag
                0x20002ec0        0x4 mesh/core/libmesh_core_nrf52832_xxAA.a(transport.c.obj)
 .bss.m_sar_release
                0x20002ec4        0x4 mesh/core/libmesh_core_nrf52832_xxAA.a(transport.c.obj)
 .bss.m_sar_session_cache
                0x20002ec8       0x40 mesh/core/libmesh_core_nrf52832_xxAA.a(transport.c.obj)
 .bss.m_sar_session_cache_head
                0x20002f08        0x4 mesh/core/libmesh_core_nrf52832_xxAA.a(transport.c.obj)
 .bss.m_trs_config
                0x20002f0c       0x18 mesh/core/libmesh_core_nrf52832_xxAA.a(transport.c.obj)
 .bss.m_trs_sar_sessions
                0x20002f24      0x1b0 mesh/core/libmesh_core_nrf52832_xxAA.a(transport.c.obj)
 .bss.m_defrag  0x200030d4       0x1c mesh/core/libmesh_core_nrf52832_xxAA.a(flash_manager_defrag.c.obj)
 .bss.m_token   0x200030f0        0x2 mesh/core/libmesh_core_nrf52832_xxAA.a(flash_manager_defrag.c.obj)
 *fill*         0x200030f2        0x2 
 .bss.mp_recovery_area
                0x200030f4        0x4 mesh/core/libmesh_core_nrf52832_xxAA.a(flash_manager_defrag.c.obj)
 .bss.p_null_ptr.10022
                0x200030f8        0x4 mesh/core/libmesh_core_nrf52832_xxAA.a(flash_manager_defrag.c.obj)
 .bss.m_pool    0x200030fc     0x1000 mesh/core/libmesh_core_nrf52832_xxAA.a(packet_mgr.c.obj)
 .bss.mp_free_head
                0x200040fc        0x4 mesh/core/libmesh_core_nrf52832_xxAA.a(packet_mgr.c.obj)
 .bss.m_event_flag
                0x20004100        0x4 mesh/core/libmesh_core_nrf52832_xxAA.a(mesh_flash.c.obj)
 .bss.m_suspended
                0x20004104        0x1 mesh/core/libmesh_core_nrf52832_xxAA.a(mesh_flash.c.obj)
 *fill*         0x20004105        0x3 
 .bss.m_users   0x20004108      0x228 mesh/core/libmesh_core_nrf52832_xxAA.a(mesh_flash.c.obj)
 .bss.m_128buf  0x20004330       0x10 mesh/core/libmesh_core_nrf52832_xxAA.a(aes_cmac.c.obj)
 .bss.m_subkey1
                0x20004340       0x10 mesh/core/libmesh_core_nrf52832_xxAA.a(aes_cmac.c.obj)
 .bss.m_subkey2
                0x20004350       0x10 mesh/core/libmesh_core_nrf52832_xxAA.a(aes_cmac.c.obj)
 .bss.m_cache_full
                0x20004360        0x1 mesh/core/libmesh_core_nrf52832_xxAA.a(replay_cache.c.obj)
 .bss.m_cache_index
                0x20004361        0x1 mesh/core/libmesh_core_nrf52832_xxAA.a(replay_cache.c.obj)
 *fill*         0x20004362        0x2 
 .bss.m_replay_cache
                0x20004364      0x200 mesh/core/libmesh_core_nrf52832_xxAA.a(replay_cache.c.obj)
 .bss._acDownBuffer
                0x20004564       0x80 external/rtt/librtt_nrf52832_xxAA.a(SEGGER_RTT.c.obj)
 .bss._acUpBuffer
                0x200045e4      0x400 external/rtt/librtt_nrf52832_xxAA.a(SEGGER_RTT.c.obj)
 .bss.__malloc_free_list
                0x200049e4        0x4 c:/a/gcc_arm/6/bin/../lib/gcc/arm-none-eabi/6.3.1/../../../../arm-none-eabi/lib/thumb/v7e-m/fpv4-sp/hard\libg_nano.a(lib_a-nano-mallocr.o)
                0x200049e4                __malloc_free_list
 .bss.__malloc_sbrk_start
                0x200049e8        0x4 c:/a/gcc_arm/6/bin/../lib/gcc/arm-none-eabi/6.3.1/../../../../arm-none-eabi/lib/thumb/v7e-m/fpv4-sp/hard\libg_nano.a(lib_a-nano-mallocr.o)
                0x200049e8                __malloc_sbrk_start
 .bss.heap_end.5239
                0x200049ec        0x4 c:/a/gcc_arm/6/bin/../lib/gcc/arm-none-eabi/6.3.1/../../../../arm-none-eabi/lib/thumb/v7e-m/fpv4-sp/hard\libnosys.a(sbrk.o)
 *(COMMON)
 COMMON         0x200049f0        0xc examples/light_switch/server/CMakeFiles/light_switch_server_nrf52832_xxAA_s132_3.1.0.dir/__/__/nrf_mesh_sdk.c.obj
                0x200049f0                nrf_nvic_state
 COMMON         0x200049fc        0x4 mesh/core/libmesh_core_nrf52832_xxAA.a(nrf_mesh.c.obj)
                0x200049fc                m_assertion_handler
 COMMON         0x20004a00       0x78 external/rtt/librtt_nrf52832_xxAA.a(SEGGER_RTT.c.obj)
                0x20004a00                _SEGGER_RTT
 COMMON         0x20004a78        0x4 c:/a/gcc_arm/6/bin/../lib/gcc/arm-none-eabi/6.3.1/../../../../arm-none-eabi/lib/thumb/v7e-m/fpv4-sp/hard\libg_nano.a(lib_a-reent.o)
                0x20004a78                errno
                0x20004a7c                . = ALIGN (0x4)
                0x20004a7c                __bss_end__ = .

.heap           0x20004a80     0x2000
                0x20004a80                __HeapBase = .
                0x20004a80                __end__ = .
                0x20004a80                PROVIDE (end, .)
 *(.heap*)
 .heap          0x20004a80     0x2000 examples/light_switch/server/CMakeFiles/light_switch_server_nrf52832_xxAA_s132_3.1.0.dir/__/__/__/external/nRF5_SDK_14.2.0_17b948a/components/toolchain/gcc/gcc_startup_nrf52.S.obj
                0x20006a80                __HeapLimit = .

.stack_dummy    0x20004a80     0x2000
 *(.stack*)
 .stack         0x20004a80     0x2000 examples/light_switch/server/CMakeFiles/light_switch_server_nrf52832_xxAA_s132_3.1.0.dir/__/__/__/external/nRF5_SDK_14.2.0_17b948a/components/toolchain/gcc/gcc_startup_nrf52.S.obj
                0x2000fd00                __StackTop = (ORIGIN (RAM) + LENGTH (RAM))
                0x2000dd00                __StackLimit = (__StackTop - SIZEOF (.stack_dummy))
                0x2000fd00                PROVIDE (__stack, __StackTop)
                0x00000001                ASSERT ((__StackLimit >= __HeapLimit), region RAM overflowed with stack)
                0x00000170                DataInitFlashUsed = (__bss_start__ - __data_start__)
                0x00013244                CodeFlashUsed = (__etext - ORIGIN (FLASH))
                0x000133b4                TotalFlashUsed = (CodeFlashUsed + DataInitFlashUsed)
                0x00000001                ASSERT ((TotalFlashUsed <= LENGTH (FLASH)), region FLASH overflowed with .data and user data)
OUTPUT(examples\light_switch\server\light_switch_server_nrf52832_xxAA_s132_3.1.0.elf elf32-littlearm)

.ARM.attributes
                0x00000000       0x30
 .ARM.attributes
                0x00000000       0x22 c:/a/gcc_arm/6/bin/../lib/gcc/arm-none-eabi/6.3.1/thumb/v7e-m/fpv4-sp/hard/crti.o
 .ARM.attributes
                0x00000022       0x34 c:/a/gcc_arm/6/bin/../lib/gcc/arm-none-eabi/6.3.1/thumb/v7e-m/fpv4-sp/hard/crtbegin.o
 .ARM.attributes
                0x00000056       0x20 c:/a/gcc_arm/6/bin/../lib/gcc/arm-none-eabi/6.3.1/../../../../arm-none-eabi/lib/thumb/v7e-m/fpv4-sp/hard/crt0.o
 .ARM.attributes
                0x00000076       0x39 examples/light_switch/server/CMakeFiles/light_switch_server_nrf52832_xxAA_s132_3.1.0.dir/src/main.c.obj
 .ARM.attributes
                0x000000af       0x39 examples/light_switch/server/CMakeFiles/light_switch_server_nrf52832_xxAA_s132_3.1.0.dir/__/__/nrf_mesh_sdk.c.obj
 .ARM.attributes
                0x000000e8       0x39 examples/light_switch/server/CMakeFiles/light_switch_server_nrf52832_xxAA_s132_3.1.0.dir/__/__/common/src/simple_hal.c.obj
 .ARM.attributes
                0x00000121       0x39 examples/light_switch/server/CMakeFiles/light_switch_server_nrf52832_xxAA_s132_3.1.0.dir/__/__/nrf_mesh_weak.c.obj
 .ARM.attributes
                0x0000015a       0x39 examples/light_switch/server/CMakeFiles/light_switch_server_nrf52832_xxAA_s132_3.1.0.dir/__/__/__/models/simple_on_off/src/simple_on_off_server.c.obj
 .ARM.attributes
                0x00000193       0x39 examples/light_switch/server/CMakeFiles/light_switch_server_nrf52832_xxAA_s132_3.1.0.dir/__/__/__/models/config/src/composition_data.c.obj
 .ARM.attributes
                0x000001cc       0x39 examples/light_switch/server/CMakeFiles/light_switch_server_nrf52832_xxAA_s132_3.1.0.dir/__/__/__/models/config/src/config_server.c.obj
 .ARM.attributes
                0x00000205       0x39 examples/light_switch/server/CMakeFiles/light_switch_server_nrf52832_xxAA_s132_3.1.0.dir/__/__/__/models/config/src/packed_index_list.c.obj
 .ARM.attributes
                0x0000023e       0x39 examples/light_switch/server/CMakeFiles/light_switch_server_nrf52832_xxAA_s132_3.1.0.dir/__/__/__/models/health/src/health_server.c.obj
 .ARM.attributes
                0x00000277       0x39 examples/light_switch/server/CMakeFiles/light_switch_server_nrf52832_xxAA_s132_3.1.0.dir/__/__/__/mesh/access/src/access_publish.c.obj
 .ARM.attributes
                0x000002b0       0x39 examples/light_switch/server/CMakeFiles/light_switch_server_nrf52832_xxAA_s132_3.1.0.dir/__/__/__/mesh/access/src/access.c.obj
 .ARM.attributes
                0x000002e9       0x39 examples/light_switch/server/CMakeFiles/light_switch_server_nrf52832_xxAA_s132_3.1.0.dir/__/__/__/mesh/access/src/access_reliable.c.obj
 .ARM.attributes
                0x00000322       0x39 examples/light_switch/server/CMakeFiles/light_switch_server_nrf52832_xxAA_s132_3.1.0.dir/__/__/__/mesh/access/src/device_state_manager.c.obj
 .ARM.attributes
                0x0000035b       0x39 examples/light_switch/server/CMakeFiles/light_switch_server_nrf52832_xxAA_s132_3.1.0.dir/__/__/__/mesh/prov/src/prov_provisionee.c.obj
 .ARM.attributes
                0x00000394       0x39 examples/light_switch/server/CMakeFiles/light_switch_server_nrf52832_xxAA_s132_3.1.0.dir/__/__/__/mesh/prov/src/nrf_mesh_prov.c.obj
 .ARM.attributes
                0x000003cd       0x39 examples/light_switch/server/CMakeFiles/light_switch_server_nrf52832_xxAA_s132_3.1.0.dir/__/__/__/mesh/prov/src/provisioning.c.obj
 .ARM.attributes
                0x00000406       0x39 examples/light_switch/server/CMakeFiles/light_switch_server_nrf52832_xxAA_s132_3.1.0.dir/__/__/__/mesh/prov/src/prov_beacon.c.obj
 .ARM.attributes
                0x0000043f       0x39 examples/light_switch/server/CMakeFiles/light_switch_server_nrf52832_xxAA_s132_3.1.0.dir/__/__/__/mesh/prov/src/prov_utils.c.obj
 .ARM.attributes
                0x00000478       0x39 examples/light_switch/server/CMakeFiles/light_switch_server_nrf52832_xxAA_s132_3.1.0.dir/__/__/__/mesh/prov/src/prov_bearer_adv.c.obj
 .ARM.attributes
                0x000004b1       0x39 examples/light_switch/server/CMakeFiles/light_switch_server_nrf52832_xxAA_s132_3.1.0.dir/__/__/__/mesh/access/src/nrf_mesh_node_config.c.obj
 .ARM.attributes
                0x000004ea       0x39 examples/light_switch/server/CMakeFiles/light_switch_server_nrf52832_xxAA_s132_3.1.0.dir/__/__/__/external/nRF5_SDK_14.2.0_17b948a/components/toolchain/system_nrf52.c.obj
 .ARM.attributes
                0x00000523       0x20 examples/light_switch/server/CMakeFiles/light_switch_server_nrf52832_xxAA_s132_3.1.0.dir/__/__/__/external/nRF5_SDK_14.2.0_17b948a/components/toolchain/gcc/gcc_startup_nrf52.S.obj
 .ARM.attributes
                0x00000543       0x39 mesh/core/libmesh_core_nrf52832_xxAA.a(nrf_mesh_configure.c.obj)
 .ARM.attributes
                0x0000057c       0x39 mesh/core/libmesh_core_nrf52832_xxAA.a(event.c.obj)
 .ARM.attributes
                0x000005b5       0x39 mesh/core/libmesh_core_nrf52832_xxAA.a(net_state.c.obj)
 .ARM.attributes
                0x000005ee       0x39 mesh/core/libmesh_core_nrf52832_xxAA.a(nrf_mesh_utils.c.obj)
 .ARM.attributes
                0x00000627       0x39 mesh/core/libmesh_core_nrf52832_xxAA.a(nrf_mesh.c.obj)
 .ARM.attributes
                0x00000660       0x39 mesh/core/libmesh_core_nrf52832_xxAA.a(hal.c.obj)
 .ARM.attributes
                0x00000699       0x39 mesh/core/libmesh_core_nrf52832_xxAA.a(timer_scheduler.c.obj)
 .ARM.attributes
                0x000006d2       0x39 mesh/core/libmesh_core_nrf52832_xxAA.a(timer.c.obj)
 .ARM.attributes
                0x0000070b       0x39 mesh/core/libmesh_core_nrf52832_xxAA.a(ticker.c.obj)
 .ARM.attributes
                0x00000744       0x39 mesh/core/libmesh_core_nrf52832_xxAA.a(rand.c.obj)
 .ARM.attributes
                0x0000077d       0x39 mesh/core/libmesh_core_nrf52832_xxAA.a(nrf_mesh_opt.c.obj)
 .ARM.attributes
                0x000007b6       0x39 mesh/core/libmesh_core_nrf52832_xxAA.a(timeslot.c.obj)
 .ARM.attributes
                0x000007ef       0x39 mesh/core/libmesh_core_nrf52832_xxAA.a(bearer_event.c.obj)
 .ARM.attributes
                0x00000828       0x39 mesh/core/libmesh_core_nrf52832_xxAA.a(enc.c.obj)
 .ARM.attributes
                0x00000861       0x39 mesh/core/libmesh_core_nrf52832_xxAA.a(network.c.obj)
 .ARM.attributes
                0x0000089a       0x39 mesh/core/libmesh_core_nrf52832_xxAA.a(nrf_mesh_keygen.c.obj)
 .ARM.attributes
                0x000008d3       0x39 mesh/core/libmesh_core_nrf52832_xxAA.a(list.c.obj)
 .ARM.attributes
                0x0000090c       0x39 mesh/core/libmesh_core_nrf52832_xxAA.a(log.c.obj)
 .ARM.attributes
                0x00000945       0x39 mesh/core/libmesh_core_nrf52832_xxAA.a(flash_manager.c.obj)
 .ARM.attributes
                0x0000097e       0x39 mesh/core/libmesh_core_nrf52832_xxAA.a(ccm_soft.c.obj)
 .ARM.attributes
                0x000009b7       0x39 mesh/core/libmesh_core_nrf52832_xxAA.a(beacon.c.obj)
 .ARM.attributes
                0x000009f0       0x39 mesh/core/libmesh_core_nrf52832_xxAA.a(flash_manager_internal.c.obj)
 .ARM.attributes
                0x00000a29       0x39 mesh/core/libmesh_core_nrf52832_xxAA.a(core_tx.c.obj)
 .ARM.attributes
                0x00000a62       0x39 mesh/core/libmesh_core_nrf52832_xxAA.a(heartbeat.c.obj)
 .ARM.attributes
                0x00000a9b       0x39 mesh/core/libmesh_core_nrf52832_xxAA.a(net_beacon.c.obj)
 .ARM.attributes
                0x00000ad4       0x39 mesh/core/libmesh_core_nrf52832_xxAA.a(core_tx_adv.c.obj)
 .ARM.attributes
                0x00000b0d       0x39 mesh/core/libmesh_core_nrf52832_xxAA.a(ad_listener.c.obj)
 .ARM.attributes
                0x00000b46       0x39 mesh/core/libmesh_core_nrf52832_xxAA.a(ad_type_filter.c.obj)
 .ARM.attributes
                0x00000b7f       0x39 mesh/core/libmesh_core_nrf52832_xxAA.a(advertiser.c.obj)
 .ARM.attributes
                0x00000bb8       0x39 mesh/core/libmesh_core_nrf52832_xxAA.a(bearer_handler.c.obj)
 .ARM.attributes
                0x00000bf1       0x39 mesh/core/libmesh_core_nrf52832_xxAA.a(broadcast.c.obj)
 .ARM.attributes
                0x00000c2a       0x39 mesh/core/libmesh_core_nrf52832_xxAA.a(filter_engine.c.obj)
 .ARM.attributes
                0x00000c63       0x39 mesh/core/libmesh_core_nrf52832_xxAA.a(radio_config.c.obj)
 .ARM.attributes
                0x00000c9c       0x39 mesh/core/libmesh_core_nrf52832_xxAA.a(scanner.c.obj)
 .ARM.attributes
                0x00000cd5       0x39 mesh/core/libmesh_core_nrf52832_xxAA.a(internal_event.c.obj)
 .ARM.attributes
                0x00000d0e       0x39 mesh/core/libmesh_core_nrf52832_xxAA.a(aes.c.obj)
 .ARM.attributes
                0x00000d47       0x39 mesh/core/libmesh_core_nrf52832_xxAA.a(msg_cache.c.obj)
 .ARM.attributes
                0x00000d80       0x39 mesh/core/libmesh_core_nrf52832_xxAA.a(transport.c.obj)
 .ARM.attributes
                0x00000db9       0x39 mesh/core/libmesh_core_nrf52832_xxAA.a(packet_buffer.c.obj)
 .ARM.attributes
                0x00000df2       0x39 mesh/core/libmesh_core_nrf52832_xxAA.a(flash_manager_defrag.c.obj)
 .ARM.attributes
                0x00000e2b       0x39 mesh/core/libmesh_core_nrf52832_xxAA.a(fifo.c.obj)
 .ARM.attributes
                0x00000e64       0x39 mesh/core/libmesh_core_nrf52832_xxAA.a(packet_mgr.c.obj)
 .ARM.attributes
                0x00000e9d       0x39 mesh/core/libmesh_core_nrf52832_xxAA.a(mesh_flash.c.obj)
 .ARM.attributes
                0x00000ed6       0x39 mesh/core/libmesh_core_nrf52832_xxAA.a(queue.c.obj)
 .ARM.attributes
                0x00000f0f       0x39 mesh/core/libmesh_core_nrf52832_xxAA.a(aes_cmac.c.obj)
 .ARM.attributes
                0x00000f48       0x39 mesh/core/libmesh_core_nrf52832_xxAA.a(msqueue.c.obj)
 .ARM.attributes
                0x00000f81       0x39 mesh/core/libmesh_core_nrf52832_xxAA.a(replay_cache.c.obj)
 .ARM.attributes
                0x00000fba       0x39 mesh/core/libmesh_core_nrf52832_xxAA.a(nrf_flash.c.obj)
 .ARM.attributes
                0x00000ff3       0x39 external/rtt/librtt_nrf52832_xxAA.a(SEGGER_RTT.c.obj)
 .ARM.attributes
                0x0000102c       0x39 external/rtt/librtt_nrf52832_xxAA.a(SEGGER_RTT_printf.c.obj)
 .ARM.attributes
                0x00001065       0x39 external/micro-ecc/libuECC_nrf52832_xxAA.a(uECC.c.obj)
 .ARM.attributes
                0x0000109e       0x34 c:/a/gcc_arm/6/bin/../lib/gcc/arm-none-eabi/6.3.1/../../../../arm-none-eabi/lib/thumb/v7e-m/fpv4-sp/hard\libg_nano.a(lib_a-exit.o)
 .ARM.attributes
                0x000010d2       0x34 c:/a/gcc_arm/6/bin/../lib/gcc/arm-none-eabi/6.3.1/../../../../arm-none-eabi/lib/thumb/v7e-m/fpv4-sp/hard\libg_nano.a(lib_a-impure.o)
 .ARM.attributes
                0x00001106       0x34 c:/a/gcc_arm/6/bin/../lib/gcc/arm-none-eabi/6.3.1/../../../../arm-none-eabi/lib/thumb/v7e-m/fpv4-sp/hard\libg_nano.a(lib_a-init.o)
 .ARM.attributes
                0x0000113a       0x34 c:/a/gcc_arm/6/bin/../lib/gcc/arm-none-eabi/6.3.1/../../../../arm-none-eabi/lib/thumb/v7e-m/fpv4-sp/hard\libg_nano.a(lib_a-malloc.o)
 .ARM.attributes
                0x0000116e       0x34 c:/a/gcc_arm/6/bin/../lib/gcc/arm-none-eabi/6.3.1/../../../../arm-none-eabi/lib/thumb/v7e-m/fpv4-sp/hard\libg_nano.a(lib_a-memcmp.o)
 .ARM.attributes
                0x000011a2       0x34 c:/a/gcc_arm/6/bin/../lib/gcc/arm-none-eabi/6.3.1/../../../../arm-none-eabi/lib/thumb/v7e-m/fpv4-sp/hard\libg_nano.a(lib_a-memcpy-stub.o)
 .ARM.attributes
                0x000011d6       0x34 c:/a/gcc_arm/6/bin/../lib/gcc/arm-none-eabi/6.3.1/../../../../arm-none-eabi/lib/thumb/v7e-m/fpv4-sp/hard\libg_nano.a(lib_a-memset.o)
 .ARM.attributes
                0x0000120a       0x34 c:/a/gcc_arm/6/bin/../lib/gcc/arm-none-eabi/6.3.1/../../../../arm-none-eabi/lib/thumb/v7e-m/fpv4-sp/hard\libg_nano.a(lib_a-nano-freer.o)
 .ARM.attributes
                0x0000123e       0x34 c:/a/gcc_arm/6/bin/../lib/gcc/arm-none-eabi/6.3.1/../../../../arm-none-eabi/lib/thumb/v7e-m/fpv4-sp/hard\libg_nano.a(lib_a-nano-mallocr.o)
 .ARM.attributes
                0x00001272       0x34 c:/a/gcc_arm/6/bin/../lib/gcc/arm-none-eabi/6.3.1/../../../../arm-none-eabi/lib/thumb/v7e-m/fpv4-sp/hard\libg_nano.a(lib_a-sbrkr.o)
 .ARM.attributes
                0x000012a6       0x34 c:/a/gcc_arm/6/bin/../lib/gcc/arm-none-eabi/6.3.1/../../../../arm-none-eabi/lib/thumb/v7e-m/fpv4-sp/hard\libg_nano.a(lib_a-strcpy.o)
 .ARM.attributes
                0x000012da       0x1b c:/a/gcc_arm/6/bin/../lib/gcc/arm-none-eabi/6.3.1/../../../../arm-none-eabi/lib/thumb/v7e-m/fpv4-sp/hard\libg_nano.a(lib_a-strlen.o)
 .ARM.attributes
                0x000012f5       0x34 c:/a/gcc_arm/6/bin/../lib/gcc/arm-none-eabi/6.3.1/../../../../arm-none-eabi/lib/thumb/v7e-m/fpv4-sp/hard\libg_nano.a(lib_a-strrchr.o)
 .ARM.attributes
                0x00001329       0x34 c:/a/gcc_arm/6/bin/../lib/gcc/arm-none-eabi/6.3.1/../../../../arm-none-eabi/lib/thumb/v7e-m/fpv4-sp/hard\libg_nano.a(lib_a-mlock.o)
 .ARM.attributes
                0x0000135d       0x34 c:/a/gcc_arm/6/bin/../lib/gcc/arm-none-eabi/6.3.1/../../../../arm-none-eabi/lib/thumb/v7e-m/fpv4-sp/hard\libg_nano.a(lib_a-reent.o)
 .ARM.attributes
                0x00001391       0x34 c:/a/gcc_arm/6/bin/../lib/gcc/arm-none-eabi/6.3.1/../../../../arm-none-eabi/lib/thumb/v7e-m/fpv4-sp/hard\libg_nano.a(lib_a-strchr.o)
 .ARM.attributes
                0x000013c5       0x34 c:/a/gcc_arm/6/bin/../lib/gcc/arm-none-eabi/6.3.1/thumb/v7e-m/fpv4-sp/hard/crtend.o
 .ARM.attributes
                0x000013f9       0x22 c:/a/gcc_arm/6/bin/../lib/gcc/arm-none-eabi/6.3.1/thumb/v7e-m/fpv4-sp/hard/crtn.o
 .ARM.attributes
                0x0000141b       0x34 c:/a/gcc_arm/6/bin/../lib/gcc/arm-none-eabi/6.3.1/../../../../arm-none-eabi/lib/thumb/v7e-m/fpv4-sp/hard\libnosys.a(sbrk.o)
 .ARM.attributes
                0x0000144f       0x34 c:/a/gcc_arm/6/bin/../lib/gcc/arm-none-eabi/6.3.1/../../../../arm-none-eabi/lib/thumb/v7e-m/fpv4-sp/hard\libnosys.a(_exit.o)

.comment        0x00000000       0x7f
 .comment       0x00000000       0x7f examples/light_switch/server/CMakeFiles/light_switch_server_nrf52832_xxAA_s132_3.1.0.dir/src/main.c.obj
                                 0x80 (size before relaxing)
 .comment       0x0000007f       0x80 examples/light_switch/server/CMakeFiles/light_switch_server_nrf52832_xxAA_s132_3.1.0.dir/__/__/nrf_mesh_sdk.c.obj
 .comment       0x0000007f       0x80 examples/light_switch/server/CMakeFiles/light_switch_server_nrf52832_xxAA_s132_3.1.0.dir/__/__/common/src/simple_hal.c.obj
 .comment       0x0000007f       0x80 examples/light_switch/server/CMakeFiles/light_switch_server_nrf52832_xxAA_s132_3.1.0.dir/__/__/nrf_mesh_weak.c.obj
 .comment       0x0000007f       0x80 examples/light_switch/server/CMakeFiles/light_switch_server_nrf52832_xxAA_s132_3.1.0.dir/__/__/__/models/simple_on_off/src/simple_on_off_server.c.obj
 .comment       0x0000007f       0x80 examples/light_switch/server/CMakeFiles/light_switch_server_nrf52832_xxAA_s132_3.1.0.dir/__/__/__/models/config/src/composition_data.c.obj
 .comment       0x0000007f       0x80 examples/light_switch/server/CMakeFiles/light_switch_server_nrf52832_xxAA_s132_3.1.0.dir/__/__/__/models/config/src/config_server.c.obj
 .comment       0x0000007f       0x80 examples/light_switch/server/CMakeFiles/light_switch_server_nrf52832_xxAA_s132_3.1.0.dir/__/__/__/models/config/src/packed_index_list.c.obj
 .comment       0x0000007f       0x80 examples/light_switch/server/CMakeFiles/light_switch_server_nrf52832_xxAA_s132_3.1.0.dir/__/__/__/models/health/src/health_server.c.obj
 .comment       0x0000007f       0x80 examples/light_switch/server/CMakeFiles/light_switch_server_nrf52832_xxAA_s132_3.1.0.dir/__/__/__/mesh/access/src/access_publish.c.obj
 .comment       0x0000007f       0x80 examples/light_switch/server/CMakeFiles/light_switch_server_nrf52832_xxAA_s132_3.1.0.dir/__/__/__/mesh/access/src/access.c.obj
 .comment       0x0000007f       0x80 examples/light_switch/server/CMakeFiles/light_switch_server_nrf52832_xxAA_s132_3.1.0.dir/__/__/__/mesh/access/src/access_reliable.c.obj
 .comment       0x0000007f       0x80 examples/light_switch/server/CMakeFiles/light_switch_server_nrf52832_xxAA_s132_3.1.0.dir/__/__/__/mesh/access/src/device_state_manager.c.obj
 .comment       0x0000007f       0x80 examples/light_switch/server/CMakeFiles/light_switch_server_nrf52832_xxAA_s132_3.1.0.dir/__/__/__/mesh/prov/src/prov_provisionee.c.obj
 .comment       0x0000007f       0x80 examples/light_switch/server/CMakeFiles/light_switch_server_nrf52832_xxAA_s132_3.1.0.dir/__/__/__/mesh/prov/src/nrf_mesh_prov.c.obj
 .comment       0x0000007f       0x80 examples/light_switch/server/CMakeFiles/light_switch_server_nrf52832_xxAA_s132_3.1.0.dir/__/__/__/mesh/prov/src/provisioning.c.obj
 .comment       0x0000007f       0x80 examples/light_switch/server/CMakeFiles/light_switch_server_nrf52832_xxAA_s132_3.1.0.dir/__/__/__/mesh/prov/src/prov_beacon.c.obj
 .comment       0x0000007f       0x80 examples/light_switch/server/CMakeFiles/light_switch_server_nrf52832_xxAA_s132_3.1.0.dir/__/__/__/mesh/prov/src/prov_utils.c.obj
 .comment       0x0000007f       0x80 examples/light_switch/server/CMakeFiles/light_switch_server_nrf52832_xxAA_s132_3.1.0.dir/__/__/__/mesh/prov/src/prov_bearer_adv.c.obj
 .comment       0x0000007f       0x80 examples/light_switch/server/CMakeFiles/light_switch_server_nrf52832_xxAA_s132_3.1.0.dir/__/__/__/mesh/access/src/nrf_mesh_node_config.c.obj
 .comment       0x0000007f       0x80 examples/light_switch/server/CMakeFiles/light_switch_server_nrf52832_xxAA_s132_3.1.0.dir/__/__/__/external/nRF5_SDK_14.2.0_17b948a/components/toolchain/system_nrf52.c.obj
 .comment       0x0000007f       0x80 mesh/core/libmesh_core_nrf52832_xxAA.a(nrf_mesh_configure.c.obj)
 .comment       0x0000007f       0x80 mesh/core/libmesh_core_nrf52832_xxAA.a(event.c.obj)
 .comment       0x0000007f       0x80 mesh/core/libmesh_core_nrf52832_xxAA.a(net_state.c.obj)
 .comment       0x0000007f       0x80 mesh/core/libmesh_core_nrf52832_xxAA.a(nrf_mesh_utils.c.obj)
 .comment       0x0000007f       0x80 mesh/core/libmesh_core_nrf52832_xxAA.a(nrf_mesh.c.obj)
 .comment       0x0000007f       0x80 mesh/core/libmesh_core_nrf52832_xxAA.a(hal.c.obj)
 .comment       0x0000007f       0x80 mesh/core/libmesh_core_nrf52832_xxAA.a(timer_scheduler.c.obj)
 .comment       0x0000007f       0x80 mesh/core/libmesh_core_nrf52832_xxAA.a(timer.c.obj)
 .comment       0x0000007f       0x80 mesh/core/libmesh_core_nrf52832_xxAA.a(ticker.c.obj)
 .comment       0x0000007f       0x80 mesh/core/libmesh_core_nrf52832_xxAA.a(rand.c.obj)
 .comment       0x0000007f       0x80 mesh/core/libmesh_core_nrf52832_xxAA.a(nrf_mesh_opt.c.obj)
 .comment       0x0000007f       0x80 mesh/core/libmesh_core_nrf52832_xxAA.a(timeslot.c.obj)
 .comment       0x0000007f       0x80 mesh/core/libmesh_core_nrf52832_xxAA.a(bearer_event.c.obj)
 .comment       0x0000007f       0x80 mesh/core/libmesh_core_nrf52832_xxAA.a(enc.c.obj)
 .comment       0x0000007f       0x80 mesh/core/libmesh_core_nrf52832_xxAA.a(network.c.obj)
 .comment       0x0000007f       0x80 mesh/core/libmesh_core_nrf52832_xxAA.a(nrf_mesh_keygen.c.obj)
 .comment       0x0000007f       0x80 mesh/core/libmesh_core_nrf52832_xxAA.a(list.c.obj)
 .comment       0x0000007f       0x80 mesh/core/libmesh_core_nrf52832_xxAA.a(log.c.obj)
 .comment       0x0000007f       0x80 mesh/core/libmesh_core_nrf52832_xxAA.a(flash_manager.c.obj)
 .comment       0x0000007f       0x80 mesh/core/libmesh_core_nrf52832_xxAA.a(ccm_soft.c.obj)
 .comment       0x0000007f       0x80 mesh/core/libmesh_core_nrf52832_xxAA.a(beacon.c.obj)
 .comment       0x0000007f       0x80 mesh/core/libmesh_core_nrf52832_xxAA.a(flash_manager_internal.c.obj)
 .comment       0x0000007f       0x80 mesh/core/libmesh_core_nrf52832_xxAA.a(core_tx.c.obj)
 .comment       0x0000007f       0x80 mesh/core/libmesh_core_nrf52832_xxAA.a(heartbeat.c.obj)
 .comment       0x0000007f       0x80 mesh/core/libmesh_core_nrf52832_xxAA.a(net_beacon.c.obj)
 .comment       0x0000007f       0x80 mesh/core/libmesh_core_nrf52832_xxAA.a(core_tx_adv.c.obj)
 .comment       0x0000007f       0x80 mesh/core/libmesh_core_nrf52832_xxAA.a(ad_listener.c.obj)
 .comment       0x0000007f       0x80 mesh/core/libmesh_core_nrf52832_xxAA.a(ad_type_filter.c.obj)
 .comment       0x0000007f       0x80 mesh/core/libmesh_core_nrf52832_xxAA.a(advertiser.c.obj)
 .comment       0x0000007f       0x80 mesh/core/libmesh_core_nrf52832_xxAA.a(bearer_handler.c.obj)
 .comment       0x0000007f       0x80 mesh/core/libmesh_core_nrf52832_xxAA.a(broadcast.c.obj)
 .comment       0x0000007f       0x80 mesh/core/libmesh_core_nrf52832_xxAA.a(filter_engine.c.obj)
 .comment       0x0000007f       0x80 mesh/core/libmesh_core_nrf52832_xxAA.a(radio_config.c.obj)
 .comment       0x0000007f       0x80 mesh/core/libmesh_core_nrf52832_xxAA.a(scanner.c.obj)
 .comment       0x0000007f       0x80 mesh/core/libmesh_core_nrf52832_xxAA.a(internal_event.c.obj)
 .comment       0x0000007f       0x80 mesh/core/libmesh_core_nrf52832_xxAA.a(aes.c.obj)
 .comment       0x0000007f       0x80 mesh/core/libmesh_core_nrf52832_xxAA.a(msg_cache.c.obj)
 .comment       0x0000007f       0x80 mesh/core/libmesh_core_nrf52832_xxAA.a(transport.c.obj)
 .comment       0x0000007f       0x80 mesh/core/libmesh_core_nrf52832_xxAA.a(packet_buffer.c.obj)
 .comment       0x0000007f       0x80 mesh/core/libmesh_core_nrf52832_xxAA.a(flash_manager_defrag.c.obj)
 .comment       0x0000007f       0x80 mesh/core/libmesh_core_nrf52832_xxAA.a(fifo.c.obj)
 .comment       0x0000007f       0x80 mesh/core/libmesh_core_nrf52832_xxAA.a(packet_mgr.c.obj)
 .comment       0x0000007f       0x80 mesh/core/libmesh_core_nrf52832_xxAA.a(mesh_flash.c.obj)
 .comment       0x0000007f       0x80 mesh/core/libmesh_core_nrf52832_xxAA.a(queue.c.obj)
 .comment       0x0000007f       0x80 mesh/core/libmesh_core_nrf52832_xxAA.a(aes_cmac.c.obj)
 .comment       0x0000007f       0x80 mesh/core/libmesh_core_nrf52832_xxAA.a(msqueue.c.obj)
 .comment       0x0000007f       0x80 mesh/core/libmesh_core_nrf52832_xxAA.a(replay_cache.c.obj)
 .comment       0x0000007f       0x80 mesh/core/libmesh_core_nrf52832_xxAA.a(nrf_flash.c.obj)
 .comment       0x0000007f       0x80 external/rtt/librtt_nrf52832_xxAA.a(SEGGER_RTT.c.obj)
 .comment       0x0000007f       0x80 external/rtt/librtt_nrf52832_xxAA.a(SEGGER_RTT_printf.c.obj)
 .comment       0x0000007f       0x80 external/micro-ecc/libuECC_nrf52832_xxAA.a(uECC.c.obj)

.debug_info     0x00000000    0x7467d
 .debug_info    0x00000000     0x1be1 examples/light_switch/server/CMakeFiles/light_switch_server_nrf52832_xxAA_s132_3.1.0.dir/src/main.c.obj
 .debug_info    0x00001be1     0x33aa examples/light_switch/server/CMakeFiles/light_switch_server_nrf52832_xxAA_s132_3.1.0.dir/__/__/nrf_mesh_sdk.c.obj
 .debug_info    0x00004f8b     0x1477 examples/light_switch/server/CMakeFiles/light_switch_server_nrf52832_xxAA_s132_3.1.0.dir/__/__/common/src/simple_hal.c.obj
 .debug_info    0x00006402      0x94b examples/light_switch/server/CMakeFiles/light_switch_server_nrf52832_xxAA_s132_3.1.0.dir/__/__/nrf_mesh_weak.c.obj
 .debug_info    0x00006d4d      0x91e examples/light_switch/server/CMakeFiles/light_switch_server_nrf52832_xxAA_s132_3.1.0.dir/__/__/__/models/simple_on_off/src/simple_on_off_server.c.obj
 .debug_info    0x0000766b      0xe8a examples/light_switch/server/CMakeFiles/light_switch_server_nrf52832_xxAA_s132_3.1.0.dir/__/__/__/models/config/src/composition_data.c.obj
 .debug_info    0x000084f5     0x69af examples/light_switch/server/CMakeFiles/light_switch_server_nrf52832_xxAA_s132_3.1.0.dir/__/__/__/models/config/src/config_server.c.obj
 .debug_info    0x0000eea4      0x14b examples/light_switch/server/CMakeFiles/light_switch_server_nrf52832_xxAA_s132_3.1.0.dir/__/__/__/models/config/src/packed_index_list.c.obj
 .debug_info    0x0000efef     0x241a examples/light_switch/server/CMakeFiles/light_switch_server_nrf52832_xxAA_s132_3.1.0.dir/__/__/__/models/health/src/health_server.c.obj
 .debug_info    0x00011409     0x112b examples/light_switch/server/CMakeFiles/light_switch_server_nrf52832_xxAA_s132_3.1.0.dir/__/__/__/mesh/access/src/access_publish.c.obj
 .debug_info    0x00012534     0x4420 examples/light_switch/server/CMakeFiles/light_switch_server_nrf52832_xxAA_s132_3.1.0.dir/__/__/__/mesh/access/src/access.c.obj
 .debug_info    0x00016954     0x153b examples/light_switch/server/CMakeFiles/light_switch_server_nrf52832_xxAA_s132_3.1.0.dir/__/__/__/mesh/access/src/access_reliable.c.obj
 .debug_info    0x00017e8f     0x5f01 examples/light_switch/server/CMakeFiles/light_switch_server_nrf52832_xxAA_s132_3.1.0.dir/__/__/__/mesh/access/src/device_state_manager.c.obj
 .debug_info    0x0001dd90     0x26c7 examples/light_switch/server/CMakeFiles/light_switch_server_nrf52832_xxAA_s132_3.1.0.dir/__/__/__/mesh/prov/src/prov_provisionee.c.obj
 .debug_info    0x00020457     0x1be9 examples/light_switch/server/CMakeFiles/light_switch_server_nrf52832_xxAA_s132_3.1.0.dir/__/__/__/mesh/prov/src/nrf_mesh_prov.c.obj
 .debug_info    0x00022040     0x1588 examples/light_switch/server/CMakeFiles/light_switch_server_nrf52832_xxAA_s132_3.1.0.dir/__/__/__/mesh/prov/src/provisioning.c.obj
 .debug_info    0x000235c8     0x19a2 examples/light_switch/server/CMakeFiles/light_switch_server_nrf52832_xxAA_s132_3.1.0.dir/__/__/__/mesh/prov/src/prov_beacon.c.obj
 .debug_info    0x00024f6a     0x2029 examples/light_switch/server/CMakeFiles/light_switch_server_nrf52832_xxAA_s132_3.1.0.dir/__/__/__/mesh/prov/src/prov_utils.c.obj
 .debug_info    0x00026f93     0x3963 examples/light_switch/server/CMakeFiles/light_switch_server_nrf52832_xxAA_s132_3.1.0.dir/__/__/__/mesh/prov/src/prov_bearer_adv.c.obj
 .debug_info    0x0002a8f6     0x393f examples/light_switch/server/CMakeFiles/light_switch_server_nrf52832_xxAA_s132_3.1.0.dir/__/__/__/mesh/access/src/nrf_mesh_node_config.c.obj
 .debug_info    0x0002e235     0x10da examples/light_switch/server/CMakeFiles/light_switch_server_nrf52832_xxAA_s132_3.1.0.dir/__/__/__/external/nRF5_SDK_14.2.0_17b948a/components/toolchain/system_nrf52.c.obj
 .debug_info    0x0002f30f      0xd04 mesh/core/libmesh_core_nrf52832_xxAA.a(nrf_mesh_configure.c.obj)
 .debug_info    0x00030013     0x1509 mesh/core/libmesh_core_nrf52832_xxAA.a(event.c.obj)
 .debug_info    0x0003151c     0x23d7 mesh/core/libmesh_core_nrf52832_xxAA.a(net_state.c.obj)
 .debug_info    0x000338f3      0xa87 mesh/core/libmesh_core_nrf52832_xxAA.a(nrf_mesh_utils.c.obj)
 .debug_info    0x0003437a     0x33f8 mesh/core/libmesh_core_nrf52832_xxAA.a(nrf_mesh.c.obj)
 .debug_info    0x00037772      0x570 mesh/core/libmesh_core_nrf52832_xxAA.a(hal.c.obj)
 .debug_info    0x00037ce2     0x102a mesh/core/libmesh_core_nrf52832_xxAA.a(timer_scheduler.c.obj)
 .debug_info    0x00038d0c      0xd79 mesh/core/libmesh_core_nrf52832_xxAA.a(timer.c.obj)
 .debug_info    0x00039a85      0x20b mesh/core/libmesh_core_nrf52832_xxAA.a(ticker.c.obj)
 .debug_info    0x00039c90      0x40f mesh/core/libmesh_core_nrf52832_xxAA.a(rand.c.obj)
 .debug_info    0x0003a09f      0xb1c mesh/core/libmesh_core_nrf52832_xxAA.a(nrf_mesh_opt.c.obj)
 .debug_info    0x0003abbb     0x19fd mesh/core/libmesh_core_nrf52832_xxAA.a(timeslot.c.obj)
 .debug_info    0x0003c5b8     0x19d7 mesh/core/libmesh_core_nrf52832_xxAA.a(bearer_event.c.obj)
 .debug_info    0x0003df8f     0x164f mesh/core/libmesh_core_nrf52832_xxAA.a(enc.c.obj)
 .debug_info    0x0003f5de     0x2aee mesh/core/libmesh_core_nrf52832_xxAA.a(network.c.obj)
 .debug_info    0x000420cc      0x4c8 mesh/core/libmesh_core_nrf52832_xxAA.a(nrf_mesh_keygen.c.obj)
 .debug_info    0x00042594      0x48b mesh/core/libmesh_core_nrf52832_xxAA.a(list.c.obj)
 .debug_info    0x00042a1f      0xe28 mesh/core/libmesh_core_nrf52832_xxAA.a(log.c.obj)
 .debug_info    0x00043847     0x320c mesh/core/libmesh_core_nrf52832_xxAA.a(flash_manager.c.obj)
 .debug_info    0x00046a53     0x10a3 mesh/core/libmesh_core_nrf52832_xxAA.a(ccm_soft.c.obj)
 .debug_info    0x00047af6     0x193b mesh/core/libmesh_core_nrf52832_xxAA.a(beacon.c.obj)
 .debug_info    0x00049431      0xb99 mesh/core/libmesh_core_nrf52832_xxAA.a(flash_manager_internal.c.obj)
 .debug_info    0x00049fca      0xfb3 mesh/core/libmesh_core_nrf52832_xxAA.a(core_tx.c.obj)
 .debug_info    0x0004af7d     0x219a mesh/core/libmesh_core_nrf52832_xxAA.a(heartbeat.c.obj)
 .debug_info    0x0004d117     0x1511 mesh/core/libmesh_core_nrf52832_xxAA.a(net_beacon.c.obj)
 .debug_info    0x0004e628     0x160b mesh/core/libmesh_core_nrf52832_xxAA.a(core_tx_adv.c.obj)
 .debug_info    0x0004fc33     0x1118 mesh/core/libmesh_core_nrf52832_xxAA.a(ad_listener.c.obj)
 .debug_info    0x00050d4b      0xfcd mesh/core/libmesh_core_nrf52832_xxAA.a(ad_type_filter.c.obj)
 .debug_info    0x00051d18     0x2448 mesh/core/libmesh_core_nrf52832_xxAA.a(advertiser.c.obj)
 .debug_info    0x00054160     0x18f8 mesh/core/libmesh_core_nrf52832_xxAA.a(bearer_handler.c.obj)
 .debug_info    0x00055a58     0x1963 mesh/core/libmesh_core_nrf52832_xxAA.a(broadcast.c.obj)
 .debug_info    0x000573bb      0xcf4 mesh/core/libmesh_core_nrf52832_xxAA.a(filter_engine.c.obj)
 .debug_info    0x000580af      0x871 mesh/core/libmesh_core_nrf52832_xxAA.a(radio_config.c.obj)
 .debug_info    0x00058920     0x25aa mesh/core/libmesh_core_nrf52832_xxAA.a(scanner.c.obj)
 .debug_info    0x0005aeca      0xc4e mesh/core/libmesh_core_nrf52832_xxAA.a(internal_event.c.obj)
 .debug_info    0x0005bb18      0xbcc mesh/core/libmesh_core_nrf52832_xxAA.a(aes.c.obj)
 .debug_info    0x0005c6e4      0xa81 mesh/core/libmesh_core_nrf52832_xxAA.a(msg_cache.c.obj)
 .debug_info    0x0005d165     0x54fa mesh/core/libmesh_core_nrf52832_xxAA.a(transport.c.obj)
 .debug_info    0x0006265f     0x1d81 mesh/core/libmesh_core_nrf52832_xxAA.a(packet_buffer.c.obj)
 .debug_info    0x000643e0     0x234f mesh/core/libmesh_core_nrf52832_xxAA.a(flash_manager_defrag.c.obj)
 .debug_info    0x0006672f      0xd0e mesh/core/libmesh_core_nrf52832_xxAA.a(fifo.c.obj)
 .debug_info    0x0006743d     0x115b mesh/core/libmesh_core_nrf52832_xxAA.a(packet_mgr.c.obj)
 .debug_info    0x00068598     0x1887 mesh/core/libmesh_core_nrf52832_xxAA.a(mesh_flash.c.obj)
 .debug_info    0x00069e1f      0xaf2 mesh/core/libmesh_core_nrf52832_xxAA.a(queue.c.obj)
 .debug_info    0x0006a911      0xe48 mesh/core/libmesh_core_nrf52832_xxAA.a(aes_cmac.c.obj)
 .debug_info    0x0006b759      0xd08 mesh/core/libmesh_core_nrf52832_xxAA.a(msqueue.c.obj)
 .debug_info    0x0006c461      0xaeb mesh/core/libmesh_core_nrf52832_xxAA.a(replay_cache.c.obj)
 .debug_info    0x0006cf4c      0xb47 mesh/core/libmesh_core_nrf52832_xxAA.a(nrf_flash.c.obj)
 .debug_info    0x0006da93     0x1818 external/rtt/librtt_nrf52832_xxAA.a(SEGGER_RTT.c.obj)
 .debug_info    0x0006f2ab      0xec1 external/rtt/librtt_nrf52832_xxAA.a(SEGGER_RTT_printf.c.obj)
 .debug_info    0x0007016c     0x4511 external/micro-ecc/libuECC_nrf52832_xxAA.a(uECC.c.obj)

.debug_abbrev   0x00000000     0xfc6a
 .debug_abbrev  0x00000000      0x320 examples/light_switch/server/CMakeFiles/light_switch_server_nrf52832_xxAA_s132_3.1.0.dir/src/main.c.obj
 .debug_abbrev  0x00000320      0x4aa examples/light_switch/server/CMakeFiles/light_switch_server_nrf52832_xxAA_s132_3.1.0.dir/__/__/nrf_mesh_sdk.c.obj
 .debug_abbrev  0x000007ca      0x364 examples/light_switch/server/CMakeFiles/light_switch_server_nrf52832_xxAA_s132_3.1.0.dir/__/__/common/src/simple_hal.c.obj
 .debug_abbrev  0x00000b2e      0x1ae examples/light_switch/server/CMakeFiles/light_switch_server_nrf52832_xxAA_s132_3.1.0.dir/__/__/nrf_mesh_weak.c.obj
 .debug_abbrev  0x00000cdc      0x254 examples/light_switch/server/CMakeFiles/light_switch_server_nrf52832_xxAA_s132_3.1.0.dir/__/__/__/models/simple_on_off/src/simple_on_off_server.c.obj
 .debug_abbrev  0x00000f30      0x2b6 examples/light_switch/server/CMakeFiles/light_switch_server_nrf52832_xxAA_s132_3.1.0.dir/__/__/__/models/config/src/composition_data.c.obj
 .debug_abbrev  0x000011e6      0x57f examples/light_switch/server/CMakeFiles/light_switch_server_nrf52832_xxAA_s132_3.1.0.dir/__/__/__/models/config/src/config_server.c.obj
 .debug_abbrev  0x00001765       0xaf examples/light_switch/server/CMakeFiles/light_switch_server_nrf52832_xxAA_s132_3.1.0.dir/__/__/__/models/config/src/packed_index_list.c.obj
 .debug_abbrev  0x00001814      0x4f1 examples/light_switch/server/CMakeFiles/light_switch_server_nrf52832_xxAA_s132_3.1.0.dir/__/__/__/models/health/src/health_server.c.obj
 .debug_abbrev  0x00001d05      0x460 examples/light_switch/server/CMakeFiles/light_switch_server_nrf52832_xxAA_s132_3.1.0.dir/__/__/__/mesh/access/src/access_publish.c.obj
 .debug_abbrev  0x00002165      0x67f examples/light_switch/server/CMakeFiles/light_switch_server_nrf52832_xxAA_s132_3.1.0.dir/__/__/__/mesh/access/src/access.c.obj
 .debug_abbrev  0x000027e4      0x433 examples/light_switch/server/CMakeFiles/light_switch_server_nrf52832_xxAA_s132_3.1.0.dir/__/__/__/mesh/access/src/access_reliable.c.obj
 .debug_abbrev  0x00002c17      0x647 examples/light_switch/server/CMakeFiles/light_switch_server_nrf52832_xxAA_s132_3.1.0.dir/__/__/__/mesh/access/src/device_state_manager.c.obj
 .debug_abbrev  0x0000325e      0x476 examples/light_switch/server/CMakeFiles/light_switch_server_nrf52832_xxAA_s132_3.1.0.dir/__/__/__/mesh/prov/src/prov_provisionee.c.obj
 .debug_abbrev  0x000036d4      0x335 examples/light_switch/server/CMakeFiles/light_switch_server_nrf52832_xxAA_s132_3.1.0.dir/__/__/__/mesh/prov/src/nrf_mesh_prov.c.obj
 .debug_abbrev  0x00003a09      0x29c examples/light_switch/server/CMakeFiles/light_switch_server_nrf52832_xxAA_s132_3.1.0.dir/__/__/__/mesh/prov/src/provisioning.c.obj
 .debug_abbrev  0x00003ca5      0x2c8 examples/light_switch/server/CMakeFiles/light_switch_server_nrf52832_xxAA_s132_3.1.0.dir/__/__/__/mesh/prov/src/prov_beacon.c.obj
 .debug_abbrev  0x00003f6d      0x3d4 examples/light_switch/server/CMakeFiles/light_switch_server_nrf52832_xxAA_s132_3.1.0.dir/__/__/__/mesh/prov/src/prov_utils.c.obj
 .debug_abbrev  0x00004341      0x50e examples/light_switch/server/CMakeFiles/light_switch_server_nrf52832_xxAA_s132_3.1.0.dir/__/__/__/mesh/prov/src/prov_bearer_adv.c.obj
 .debug_abbrev  0x0000484f      0x596 examples/light_switch/server/CMakeFiles/light_switch_server_nrf52832_xxAA_s132_3.1.0.dir/__/__/__/mesh/access/src/nrf_mesh_node_config.c.obj
 .debug_abbrev  0x00004de5      0x202 examples/light_switch/server/CMakeFiles/light_switch_server_nrf52832_xxAA_s132_3.1.0.dir/__/__/__/external/nRF5_SDK_14.2.0_17b948a/components/toolchain/system_nrf52.c.obj
 .debug_abbrev  0x00004fe7      0x24b mesh/core/libmesh_core_nrf52832_xxAA.a(nrf_mesh_configure.c.obj)
 .debug_abbrev  0x00005232      0x2a2 mesh/core/libmesh_core_nrf52832_xxAA.a(event.c.obj)
 .debug_abbrev  0x000054d4      0x55b mesh/core/libmesh_core_nrf52832_xxAA.a(net_state.c.obj)
 .debug_abbrev  0x00005a2f      0x25a mesh/core/libmesh_core_nrf52832_xxAA.a(nrf_mesh_utils.c.obj)
 .debug_abbrev  0x00005c89      0x467 mesh/core/libmesh_core_nrf52832_xxAA.a(nrf_mesh.c.obj)
 .debug_abbrev  0x000060f0      0x204 mesh/core/libmesh_core_nrf52832_xxAA.a(hal.c.obj)
 .debug_abbrev  0x000062f4      0x3bf mesh/core/libmesh_core_nrf52832_xxAA.a(timer_scheduler.c.obj)
 .debug_abbrev  0x000066b3      0x346 mesh/core/libmesh_core_nrf52832_xxAA.a(timer.c.obj)
 .debug_abbrev  0x000069f9      0x152 mesh/core/libmesh_core_nrf52832_xxAA.a(ticker.c.obj)
 .debug_abbrev  0x00006b4b      0x1d2 mesh/core/libmesh_core_nrf52832_xxAA.a(rand.c.obj)
 .debug_abbrev  0x00006d1d      0x24a mesh/core/libmesh_core_nrf52832_xxAA.a(nrf_mesh_opt.c.obj)
 .debug_abbrev  0x00006f67      0x4db mesh/core/libmesh_core_nrf52832_xxAA.a(timeslot.c.obj)
 .debug_abbrev  0x00007442      0x4b3 mesh/core/libmesh_core_nrf52832_xxAA.a(bearer_event.c.obj)
 .debug_abbrev  0x000078f5      0x37e mesh/core/libmesh_core_nrf52832_xxAA.a(enc.c.obj)
 .debug_abbrev  0x00007c73      0x52c mesh/core/libmesh_core_nrf52832_xxAA.a(network.c.obj)
 .debug_abbrev  0x0000819f      0x163 mesh/core/libmesh_core_nrf52832_xxAA.a(nrf_mesh_keygen.c.obj)
 .debug_abbrev  0x00008302      0x18e mesh/core/libmesh_core_nrf52832_xxAA.a(list.c.obj)
 .debug_abbrev  0x00008490      0x24e mesh/core/libmesh_core_nrf52832_xxAA.a(log.c.obj)
 .debug_abbrev  0x000086de      0x5c2 mesh/core/libmesh_core_nrf52832_xxAA.a(flash_manager.c.obj)
 .debug_abbrev  0x00008ca0      0x2b3 mesh/core/libmesh_core_nrf52832_xxAA.a(ccm_soft.c.obj)
 .debug_abbrev  0x00008f53      0x38c mesh/core/libmesh_core_nrf52832_xxAA.a(beacon.c.obj)
 .debug_abbrev  0x000092df      0x28a mesh/core/libmesh_core_nrf52832_xxAA.a(flash_manager_internal.c.obj)
 .debug_abbrev  0x00009569      0x32c mesh/core/libmesh_core_nrf52832_xxAA.a(core_tx.c.obj)
 .debug_abbrev  0x00009895      0x4c9 mesh/core/libmesh_core_nrf52832_xxAA.a(heartbeat.c.obj)
 .debug_abbrev  0x00009d5e      0x3cc mesh/core/libmesh_core_nrf52832_xxAA.a(net_beacon.c.obj)
 .debug_abbrev  0x0000a12a      0x32c mesh/core/libmesh_core_nrf52832_xxAA.a(core_tx_adv.c.obj)
 .debug_abbrev  0x0000a456      0x341 mesh/core/libmesh_core_nrf52832_xxAA.a(ad_listener.c.obj)
 .debug_abbrev  0x0000a797      0x377 mesh/core/libmesh_core_nrf52832_xxAA.a(ad_type_filter.c.obj)
 .debug_abbrev  0x0000ab0e      0x4fe mesh/core/libmesh_core_nrf52832_xxAA.a(advertiser.c.obj)
 .debug_abbrev  0x0000b00c      0x40d mesh/core/libmesh_core_nrf52832_xxAA.a(bearer_handler.c.obj)
 .debug_abbrev  0x0000b419      0x3b4 mesh/core/libmesh_core_nrf52832_xxAA.a(broadcast.c.obj)
 .debug_abbrev  0x0000b7cd      0x299 mesh/core/libmesh_core_nrf52832_xxAA.a(filter_engine.c.obj)
 .debug_abbrev  0x0000ba66      0x1d9 mesh/core/libmesh_core_nrf52832_xxAA.a(radio_config.c.obj)
 .debug_abbrev  0x0000bc3f      0x582 mesh/core/libmesh_core_nrf52832_xxAA.a(scanner.c.obj)
 .debug_abbrev  0x0000c1c1      0x26d mesh/core/libmesh_core_nrf52832_xxAA.a(internal_event.c.obj)
 .debug_abbrev  0x0000c42e      0x264 mesh/core/libmesh_core_nrf52832_xxAA.a(aes.c.obj)
 .debug_abbrev  0x0000c692      0x25d mesh/core/libmesh_core_nrf52832_xxAA.a(msg_cache.c.obj)
 .debug_abbrev  0x0000c8ef      0x629 mesh/core/libmesh_core_nrf52832_xxAA.a(transport.c.obj)
 .debug_abbrev  0x0000cf18      0x49a mesh/core/libmesh_core_nrf52832_xxAA.a(packet_buffer.c.obj)
 .debug_abbrev  0x0000d3b2      0x558 mesh/core/libmesh_core_nrf52832_xxAA.a(flash_manager_defrag.c.obj)
 .debug_abbrev  0x0000d90a      0x301 mesh/core/libmesh_core_nrf52832_xxAA.a(fifo.c.obj)
 .debug_abbrev  0x0000dc0b      0x3d1 mesh/core/libmesh_core_nrf52832_xxAA.a(packet_mgr.c.obj)
 .debug_abbrev  0x0000dfdc      0x478 mesh/core/libmesh_core_nrf52832_xxAA.a(mesh_flash.c.obj)
 .debug_abbrev  0x0000e454      0x227 mesh/core/libmesh_core_nrf52832_xxAA.a(queue.c.obj)
 .debug_abbrev  0x0000e67b      0x332 mesh/core/libmesh_core_nrf52832_xxAA.a(aes_cmac.c.obj)
 .debug_abbrev  0x0000e9ad      0x29c mesh/core/libmesh_core_nrf52832_xxAA.a(msqueue.c.obj)
 .debug_abbrev  0x0000ec49      0x277 mesh/core/libmesh_core_nrf52832_xxAA.a(replay_cache.c.obj)
 .debug_abbrev  0x0000eec0      0x21f mesh/core/libmesh_core_nrf52832_xxAA.a(nrf_flash.c.obj)
 .debug_abbrev  0x0000f0df      0x3a9 external/rtt/librtt_nrf52832_xxAA.a(SEGGER_RTT.c.obj)
 .debug_abbrev  0x0000f488      0x32e external/rtt/librtt_nrf52832_xxAA.a(SEGGER_RTT_printf.c.obj)
 .debug_abbrev  0x0000f7b6      0x4b4 external/micro-ecc/libuECC_nrf52832_xxAA.a(uECC.c.obj)

.debug_loc      0x00000000    0x24128
 .debug_loc     0x00000000       0xde examples/light_switch/server/CMakeFiles/light_switch_server_nrf52832_xxAA_s132_3.1.0.dir/src/main.c.obj
 .debug_loc     0x000000de      0x351 examples/light_switch/server/CMakeFiles/light_switch_server_nrf52832_xxAA_s132_3.1.0.dir/__/__/nrf_mesh_sdk.c.obj
 .debug_loc     0x0000042f      0x1ee examples/light_switch/server/CMakeFiles/light_switch_server_nrf52832_xxAA_s132_3.1.0.dir/__/__/common/src/simple_hal.c.obj
 .debug_loc     0x0000061d      0x3fe examples/light_switch/server/CMakeFiles/light_switch_server_nrf52832_xxAA_s132_3.1.0.dir/__/__/__/models/simple_on_off/src/simple_on_off_server.c.obj
 .debug_loc     0x00000a1b      0x322 examples/light_switch/server/CMakeFiles/light_switch_server_nrf52832_xxAA_s132_3.1.0.dir/__/__/__/models/config/src/composition_data.c.obj
 .debug_loc     0x00000d3d     0x31cc examples/light_switch/server/CMakeFiles/light_switch_server_nrf52832_xxAA_s132_3.1.0.dir/__/__/__/models/config/src/config_server.c.obj
 .debug_loc     0x00003f09       0xaa examples/light_switch/server/CMakeFiles/light_switch_server_nrf52832_xxAA_s132_3.1.0.dir/__/__/__/models/config/src/packed_index_list.c.obj
 .debug_loc     0x00003fb3     0x161b examples/light_switch/server/CMakeFiles/light_switch_server_nrf52832_xxAA_s132_3.1.0.dir/__/__/__/models/health/src/health_server.c.obj
 .debug_loc     0x000055ce      0x577 examples/light_switch/server/CMakeFiles/light_switch_server_nrf52832_xxAA_s132_3.1.0.dir/__/__/__/mesh/access/src/access_publish.c.obj
 .debug_loc     0x00005b45     0x2242 examples/light_switch/server/CMakeFiles/light_switch_server_nrf52832_xxAA_s132_3.1.0.dir/__/__/__/mesh/access/src/access.c.obj
 .debug_loc     0x00007d87      0x7f6 examples/light_switch/server/CMakeFiles/light_switch_server_nrf52832_xxAA_s132_3.1.0.dir/__/__/__/mesh/access/src/access_reliable.c.obj
 .debug_loc     0x0000857d     0x3b5e examples/light_switch/server/CMakeFiles/light_switch_server_nrf52832_xxAA_s132_3.1.0.dir/__/__/__/mesh/access/src/device_state_manager.c.obj
 .debug_loc     0x0000c0db      0x6ad examples/light_switch/server/CMakeFiles/light_switch_server_nrf52832_xxAA_s132_3.1.0.dir/__/__/__/mesh/prov/src/prov_provisionee.c.obj
 .debug_loc     0x0000c788      0x7c0 examples/light_switch/server/CMakeFiles/light_switch_server_nrf52832_xxAA_s132_3.1.0.dir/__/__/__/mesh/prov/src/nrf_mesh_prov.c.obj
 .debug_loc     0x0000cf48      0x4e0 examples/light_switch/server/CMakeFiles/light_switch_server_nrf52832_xxAA_s132_3.1.0.dir/__/__/__/mesh/prov/src/provisioning.c.obj
 .debug_loc     0x0000d428      0x1cd examples/light_switch/server/CMakeFiles/light_switch_server_nrf52832_xxAA_s132_3.1.0.dir/__/__/__/mesh/prov/src/prov_beacon.c.obj
 .debug_loc     0x0000d5f5      0x42c examples/light_switch/server/CMakeFiles/light_switch_server_nrf52832_xxAA_s132_3.1.0.dir/__/__/__/mesh/prov/src/prov_utils.c.obj
 .debug_loc     0x0000da21     0x175a examples/light_switch/server/CMakeFiles/light_switch_server_nrf52832_xxAA_s132_3.1.0.dir/__/__/__/mesh/prov/src/prov_bearer_adv.c.obj
 .debug_loc     0x0000f17b      0x443 examples/light_switch/server/CMakeFiles/light_switch_server_nrf52832_xxAA_s132_3.1.0.dir/__/__/__/mesh/access/src/nrf_mesh_node_config.c.obj
 .debug_loc     0x0000f5be       0x2c mesh/core/libmesh_core_nrf52832_xxAA.a(nrf_mesh_configure.c.obj)
 .debug_loc     0x0000f5ea      0x136 mesh/core/libmesh_core_nrf52832_xxAA.a(event.c.obj)
 .debug_loc     0x0000f720      0x758 mesh/core/libmesh_core_nrf52832_xxAA.a(net_state.c.obj)
 .debug_loc     0x0000fe78      0x11c mesh/core/libmesh_core_nrf52832_xxAA.a(nrf_mesh_utils.c.obj)
 .debug_loc     0x0000ff94      0x4d3 mesh/core/libmesh_core_nrf52832_xxAA.a(nrf_mesh.c.obj)
 .debug_loc     0x00010467       0x84 mesh/core/libmesh_core_nrf52832_xxAA.a(hal.c.obj)
 .debug_loc     0x000104eb      0x3b9 mesh/core/libmesh_core_nrf52832_xxAA.a(timer_scheduler.c.obj)
 .debug_loc     0x000108a4      0x60f mesh/core/libmesh_core_nrf52832_xxAA.a(timer.c.obj)
 .debug_loc     0x00010eb3      0x190 mesh/core/libmesh_core_nrf52832_xxAA.a(rand.c.obj)
 .debug_loc     0x00011043      0x194 mesh/core/libmesh_core_nrf52832_xxAA.a(nrf_mesh_opt.c.obj)
 .debug_loc     0x000111d7      0x370 mesh/core/libmesh_core_nrf52832_xxAA.a(timeslot.c.obj)
 .debug_loc     0x00011547      0x647 mesh/core/libmesh_core_nrf52832_xxAA.a(bearer_event.c.obj)
 .debug_loc     0x00011b8e      0x960 mesh/core/libmesh_core_nrf52832_xxAA.a(enc.c.obj)
 .debug_loc     0x000124ee     0x10e7 mesh/core/libmesh_core_nrf52832_xxAA.a(network.c.obj)
 .debug_loc     0x000135d5      0x1ee mesh/core/libmesh_core_nrf52832_xxAA.a(nrf_mesh_keygen.c.obj)
 .debug_loc     0x000137c3      0x541 mesh/core/libmesh_core_nrf52832_xxAA.a(list.c.obj)
 .debug_loc     0x00013d04      0x348 mesh/core/libmesh_core_nrf52832_xxAA.a(log.c.obj)
 .debug_loc     0x0001404c     0x1791 mesh/core/libmesh_core_nrf52832_xxAA.a(flash_manager.c.obj)
 .debug_loc     0x000157dd      0x371 mesh/core/libmesh_core_nrf52832_xxAA.a(ccm_soft.c.obj)
 .debug_loc     0x00015b4e      0x527 mesh/core/libmesh_core_nrf52832_xxAA.a(beacon.c.obj)
 .debug_loc     0x00016075      0x130 mesh/core/libmesh_core_nrf52832_xxAA.a(flash_manager_internal.c.obj)
 .debug_loc     0x000161a5      0x639 mesh/core/libmesh_core_nrf52832_xxAA.a(core_tx.c.obj)
 .debug_loc     0x000167de      0x644 mesh/core/libmesh_core_nrf52832_xxAA.a(heartbeat.c.obj)
 .debug_loc     0x00016e22      0x3fe mesh/core/libmesh_core_nrf52832_xxAA.a(net_beacon.c.obj)
 .debug_loc     0x00017220      0x3fa mesh/core/libmesh_core_nrf52832_xxAA.a(core_tx_adv.c.obj)
 .debug_loc     0x0001761a      0x42e mesh/core/libmesh_core_nrf52832_xxAA.a(ad_listener.c.obj)
 .debug_loc     0x00017a48      0x3b9 mesh/core/libmesh_core_nrf52832_xxAA.a(ad_type_filter.c.obj)
 .debug_loc     0x00017e01      0xedd mesh/core/libmesh_core_nrf52832_xxAA.a(advertiser.c.obj)
 .debug_loc     0x00018cde      0x42d mesh/core/libmesh_core_nrf52832_xxAA.a(bearer_handler.c.obj)
 .debug_loc     0x0001910b      0x377 mesh/core/libmesh_core_nrf52832_xxAA.a(broadcast.c.obj)
 .debug_loc     0x00019482      0x115 mesh/core/libmesh_core_nrf52832_xxAA.a(filter_engine.c.obj)
 .debug_loc     0x00019597      0x28c mesh/core/libmesh_core_nrf52832_xxAA.a(radio_config.c.obj)
 .debug_loc     0x00019823      0x4f6 mesh/core/libmesh_core_nrf52832_xxAA.a(scanner.c.obj)
 .debug_loc     0x00019d19       0xc9 mesh/core/libmesh_core_nrf52832_xxAA.a(internal_event.c.obj)
 .debug_loc     0x00019de2       0x89 mesh/core/libmesh_core_nrf52832_xxAA.a(aes.c.obj)
 .debug_loc     0x00019e6b      0x10d mesh/core/libmesh_core_nrf52832_xxAA.a(msg_cache.c.obj)
 .debug_loc     0x00019f78     0x28ef mesh/core/libmesh_core_nrf52832_xxAA.a(transport.c.obj)
 .debug_loc     0x0001c867      0xf93 mesh/core/libmesh_core_nrf52832_xxAA.a(packet_buffer.c.obj)
 .debug_loc     0x0001d7fa      0x8ee mesh/core/libmesh_core_nrf52832_xxAA.a(flash_manager_defrag.c.obj)
 .debug_loc     0x0001e0e8      0x517 mesh/core/libmesh_core_nrf52832_xxAA.a(fifo.c.obj)
 .debug_loc     0x0001e5ff      0x6d7 mesh/core/libmesh_core_nrf52832_xxAA.a(packet_mgr.c.obj)
 .debug_loc     0x0001ecd6      0xa35 mesh/core/libmesh_core_nrf52832_xxAA.a(mesh_flash.c.obj)
 .debug_loc     0x0001f70b      0x186 mesh/core/libmesh_core_nrf52832_xxAA.a(queue.c.obj)
 .debug_loc     0x0001f891      0x3f8 mesh/core/libmesh_core_nrf52832_xxAA.a(aes_cmac.c.obj)
 .debug_loc     0x0001fc89      0x3e5 mesh/core/libmesh_core_nrf52832_xxAA.a(msqueue.c.obj)
 .debug_loc     0x0002006e      0x1c6 mesh/core/libmesh_core_nrf52832_xxAA.a(replay_cache.c.obj)
 .debug_loc     0x00020234      0x17a mesh/core/libmesh_core_nrf52832_xxAA.a(nrf_flash.c.obj)
 .debug_loc     0x000203ae     0x1222 external/rtt/librtt_nrf52832_xxAA.a(SEGGER_RTT.c.obj)
 .debug_loc     0x000215d0      0x70f external/rtt/librtt_nrf52832_xxAA.a(SEGGER_RTT_printf.c.obj)
 .debug_loc     0x00021cdf     0x2449 external/micro-ecc/libuECC_nrf52832_xxAA.a(uECC.c.obj)

.debug_aranges  0x00000000     0x21d0
 .debug_aranges
                0x00000000       0x48 examples/light_switch/server/CMakeFiles/light_switch_server_nrf52832_xxAA_s132_3.1.0.dir/src/main.c.obj
 .debug_aranges
                0x00000048       0x80 examples/light_switch/server/CMakeFiles/light_switch_server_nrf52832_xxAA_s132_3.1.0.dir/__/__/nrf_mesh_sdk.c.obj
 .debug_aranges
                0x000000c8       0x50 examples/light_switch/server/CMakeFiles/light_switch_server_nrf52832_xxAA_s132_3.1.0.dir/__/__/common/src/simple_hal.c.obj
 .debug_aranges
                0x00000118       0x28 examples/light_switch/server/CMakeFiles/light_switch_server_nrf52832_xxAA_s132_3.1.0.dir/__/__/nrf_mesh_weak.c.obj
 .debug_aranges
                0x00000140       0x38 examples/light_switch/server/CMakeFiles/light_switch_server_nrf52832_xxAA_s132_3.1.0.dir/__/__/__/models/simple_on_off/src/simple_on_off_server.c.obj
 .debug_aranges
                0x00000178       0x20 examples/light_switch/server/CMakeFiles/light_switch_server_nrf52832_xxAA_s132_3.1.0.dir/__/__/__/models/config/src/composition_data.c.obj
 .debug_aranges
                0x00000198      0x1e0 examples/light_switch/server/CMakeFiles/light_switch_server_nrf52832_xxAA_s132_3.1.0.dir/__/__/__/models/config/src/config_server.c.obj
 .debug_aranges
                0x00000378       0x28 examples/light_switch/server/CMakeFiles/light_switch_server_nrf52832_xxAA_s132_3.1.0.dir/__/__/__/models/config/src/packed_index_list.c.obj
 .debug_aranges
                0x000003a0       0xc8 examples/light_switch/server/CMakeFiles/light_switch_server_nrf52832_xxAA_s132_3.1.0.dir/__/__/__/models/health/src/health_server.c.obj
 .debug_aranges
                0x00000468       0x50 examples/light_switch/server/CMakeFiles/light_switch_server_nrf52832_xxAA_s132_3.1.0.dir/__/__/__/mesh/access/src/access_publish.c.obj
 .debug_aranges
                0x000004b8      0x1b0 examples/light_switch/server/CMakeFiles/light_switch_server_nrf52832_xxAA_s132_3.1.0.dir/__/__/__/mesh/access/src/access.c.obj
 .debug_aranges
                0x00000668       0x50 examples/light_switch/server/CMakeFiles/light_switch_server_nrf52832_xxAA_s132_3.1.0.dir/__/__/__/mesh/access/src/access_reliable.c.obj
 .debug_aranges
                0x000006b8      0x300 examples/light_switch/server/CMakeFiles/light_switch_server_nrf52832_xxAA_s132_3.1.0.dir/__/__/__/mesh/access/src/device_state_manager.c.obj
 .debug_aranges
                0x000009b8       0x70 examples/light_switch/server/CMakeFiles/light_switch_server_nrf52832_xxAA_s132_3.1.0.dir/__/__/__/mesh/prov/src/prov_provisionee.c.obj
 .debug_aranges
                0x00000a28       0x78 examples/light_switch/server/CMakeFiles/light_switch_server_nrf52832_xxAA_s132_3.1.0.dir/__/__/__/mesh/prov/src/nrf_mesh_prov.c.obj
 .debug_aranges
                0x00000aa0       0x80 examples/light_switch/server/CMakeFiles/light_switch_server_nrf52832_xxAA_s132_3.1.0.dir/__/__/__/mesh/prov/src/provisioning.c.obj
 .debug_aranges
                0x00000b20       0x38 examples/light_switch/server/CMakeFiles/light_switch_server_nrf52832_xxAA_s132_3.1.0.dir/__/__/__/mesh/prov/src/prov_beacon.c.obj
 .debug_aranges
                0x00000b58       0x70 examples/light_switch/server/CMakeFiles/light_switch_server_nrf52832_xxAA_s132_3.1.0.dir/__/__/__/mesh/prov/src/prov_utils.c.obj
 .debug_aranges
                0x00000bc8       0xc8 examples/light_switch/server/CMakeFiles/light_switch_server_nrf52832_xxAA_s132_3.1.0.dir/__/__/__/mesh/prov/src/prov_bearer_adv.c.obj
 .debug_aranges
                0x00000c90       0x70 examples/light_switch/server/CMakeFiles/light_switch_server_nrf52832_xxAA_s132_3.1.0.dir/__/__/__/mesh/access/src/nrf_mesh_node_config.c.obj
 .debug_aranges
                0x00000d00       0x38 examples/light_switch/server/CMakeFiles/light_switch_server_nrf52832_xxAA_s132_3.1.0.dir/__/__/__/external/nRF5_SDK_14.2.0_17b948a/components/toolchain/system_nrf52.c.obj
 .debug_aranges
                0x00000d38       0x30 mesh/core/libmesh_core_nrf52832_xxAA.a(nrf_mesh_configure.c.obj)
 .debug_aranges
                0x00000d68       0x30 mesh/core/libmesh_core_nrf52832_xxAA.a(event.c.obj)
 .debug_aranges
                0x00000d98       0xc0 mesh/core/libmesh_core_nrf52832_xxAA.a(net_state.c.obj)
 .debug_aranges
                0x00000e58       0x30 mesh/core/libmesh_core_nrf52832_xxAA.a(nrf_mesh_utils.c.obj)
 .debug_aranges
                0x00000e88       0x88 mesh/core/libmesh_core_nrf52832_xxAA.a(nrf_mesh.c.obj)
 .debug_aranges
                0x00000f10       0x38 mesh/core/libmesh_core_nrf52832_xxAA.a(hal.c.obj)
 .debug_aranges
                0x00000f48       0x68 mesh/core/libmesh_core_nrf52832_xxAA.a(timer_scheduler.c.obj)
 .debug_aranges
                0x00000fb0       0x60 mesh/core/libmesh_core_nrf52832_xxAA.a(timer.c.obj)
 .debug_aranges
                0x00001010       0x30 mesh/core/libmesh_core_nrf52832_xxAA.a(ticker.c.obj)
 .debug_aranges
                0x00001040       0x40 mesh/core/libmesh_core_nrf52832_xxAA.a(rand.c.obj)
 .debug_aranges
                0x00001080       0x28 mesh/core/libmesh_core_nrf52832_xxAA.a(nrf_mesh_opt.c.obj)
 .debug_aranges
                0x000010a8       0xb8 mesh/core/libmesh_core_nrf52832_xxAA.a(timeslot.c.obj)
 .debug_aranges
                0x00001160       0x98 mesh/core/libmesh_core_nrf52832_xxAA.a(bearer_event.c.obj)
 .debug_aranges
                0x000011f8       0x70 mesh/core/libmesh_core_nrf52832_xxAA.a(enc.c.obj)
 .debug_aranges
                0x00001268       0x60 mesh/core/libmesh_core_nrf52832_xxAA.a(network.c.obj)
 .debug_aranges
                0x000012c8       0x40 mesh/core/libmesh_core_nrf52832_xxAA.a(nrf_mesh_keygen.c.obj)
 .debug_aranges
                0x00001308       0x48 mesh/core/libmesh_core_nrf52832_xxAA.a(list.c.obj)
 .debug_aranges
                0x00001350       0x48 mesh/core/libmesh_core_nrf52832_xxAA.a(log.c.obj)
 .debug_aranges
                0x00001398      0x100 mesh/core/libmesh_core_nrf52832_xxAA.a(flash_manager.c.obj)
 .debug_aranges
                0x00001498       0x50 mesh/core/libmesh_core_nrf52832_xxAA.a(ccm_soft.c.obj)
 .debug_aranges
                0x000014e8       0x38 mesh/core/libmesh_core_nrf52832_xxAA.a(beacon.c.obj)
 .debug_aranges
                0x00001520       0x20 mesh/core/libmesh_core_nrf52832_xxAA.a(flash_manager_internal.c.obj)
 .debug_aranges
                0x00001540       0x58 mesh/core/libmesh_core_nrf52832_xxAA.a(core_tx.c.obj)
 .debug_aranges
                0x00001598       0x70 mesh/core/libmesh_core_nrf52832_xxAA.a(heartbeat.c.obj)
 .debug_aranges
                0x00001608       0x48 mesh/core/libmesh_core_nrf52832_xxAA.a(net_beacon.c.obj)
 .debug_aranges
                0x00001650       0x68 mesh/core/libmesh_core_nrf52832_xxAA.a(core_tx_adv.c.obj)
 .debug_aranges
                0x000016b8       0x30 mesh/core/libmesh_core_nrf52832_xxAA.a(ad_listener.c.obj)
 .debug_aranges
                0x000016e8       0x58 mesh/core/libmesh_core_nrf52832_xxAA.a(ad_type_filter.c.obj)
 .debug_aranges
                0x00001740       0xb0 mesh/core/libmesh_core_nrf52832_xxAA.a(advertiser.c.obj)
 .debug_aranges
                0x000017f0       0x70 mesh/core/libmesh_core_nrf52832_xxAA.a(bearer_handler.c.obj)
 .debug_aranges
                0x00001860       0x30 mesh/core/libmesh_core_nrf52832_xxAA.a(broadcast.c.obj)
 .debug_aranges
                0x00001890       0x38 mesh/core/libmesh_core_nrf52832_xxAA.a(filter_engine.c.obj)
 .debug_aranges
                0x000018c8       0x40 mesh/core/libmesh_core_nrf52832_xxAA.a(radio_config.c.obj)
 .debug_aranges
                0x00001908       0xe0 mesh/core/libmesh_core_nrf52832_xxAA.a(scanner.c.obj)
 .debug_aranges
                0x000019e8       0x30 mesh/core/libmesh_core_nrf52832_xxAA.a(internal_event.c.obj)
 .debug_aranges
                0x00001a18       0x28 mesh/core/libmesh_core_nrf52832_xxAA.a(aes.c.obj)
 .debug_aranges
                0x00001a40       0x38 mesh/core/libmesh_core_nrf52832_xxAA.a(msg_cache.c.obj)
 .debug_aranges
                0x00001a78      0x120 mesh/core/libmesh_core_nrf52832_xxAA.a(transport.c.obj)
 .debug_aranges
                0x00001b98       0x80 mesh/core/libmesh_core_nrf52832_xxAA.a(packet_buffer.c.obj)
 .debug_aranges
                0x00001c18       0xc8 mesh/core/libmesh_core_nrf52832_xxAA.a(flash_manager_defrag.c.obj)
 .debug_aranges
                0x00001ce0       0x60 mesh/core/libmesh_core_nrf52832_xxAA.a(fifo.c.obj)
 .debug_aranges
                0x00001d40       0x48 mesh/core/libmesh_core_nrf52832_xxAA.a(packet_mgr.c.obj)
 .debug_aranges
                0x00001d88       0x60 mesh/core/libmesh_core_nrf52832_xxAA.a(mesh_flash.c.obj)
 .debug_aranges
                0x00001de8       0x38 mesh/core/libmesh_core_nrf52832_xxAA.a(queue.c.obj)
 .debug_aranges
                0x00001e20       0x38 mesh/core/libmesh_core_nrf52832_xxAA.a(aes_cmac.c.obj)
 .debug_aranges
                0x00001e58       0x48 mesh/core/libmesh_core_nrf52832_xxAA.a(msqueue.c.obj)
 .debug_aranges
                0x00001ea0       0x48 mesh/core/libmesh_core_nrf52832_xxAA.a(replay_cache.c.obj)
 .debug_aranges
                0x00001ee8       0x30 mesh/core/libmesh_core_nrf52832_xxAA.a(nrf_flash.c.obj)
 .debug_aranges
                0x00001f18       0xd8 external/rtt/librtt_nrf52832_xxAA.a(SEGGER_RTT.c.obj)
 .debug_aranges
                0x00001ff0       0x38 external/rtt/librtt_nrf52832_xxAA.a(SEGGER_RTT_printf.c.obj)
 .debug_aranges
                0x00002028      0x1a8 external/micro-ecc/libuECC_nrf52832_xxAA.a(uECC.c.obj)

.debug_ranges   0x00000000     0x8288
 .debug_ranges  0x00000000       0xb0 examples/light_switch/server/CMakeFiles/light_switch_server_nrf52832_xxAA_s132_3.1.0.dir/src/main.c.obj
 .debug_ranges  0x000000b0      0x1a8 examples/light_switch/server/CMakeFiles/light_switch_server_nrf52832_xxAA_s132_3.1.0.dir/__/__/nrf_mesh_sdk.c.obj
 .debug_ranges  0x00000258       0xc8 examples/light_switch/server/CMakeFiles/light_switch_server_nrf52832_xxAA_s132_3.1.0.dir/__/__/common/src/simple_hal.c.obj
 .debug_ranges  0x00000320       0x18 examples/light_switch/server/CMakeFiles/light_switch_server_nrf52832_xxAA_s132_3.1.0.dir/__/__/nrf_mesh_weak.c.obj
 .debug_ranges  0x00000338       0x88 examples/light_switch/server/CMakeFiles/light_switch_server_nrf52832_xxAA_s132_3.1.0.dir/__/__/__/models/simple_on_off/src/simple_on_off_server.c.obj
 .debug_ranges  0x000003c0      0x170 examples/light_switch/server/CMakeFiles/light_switch_server_nrf52832_xxAA_s132_3.1.0.dir/__/__/__/models/config/src/composition_data.c.obj
 .debug_ranges  0x00000530      0x710 examples/light_switch/server/CMakeFiles/light_switch_server_nrf52832_xxAA_s132_3.1.0.dir/__/__/__/models/config/src/config_server.c.obj
 .debug_ranges  0x00000c40       0x18 examples/light_switch/server/CMakeFiles/light_switch_server_nrf52832_xxAA_s132_3.1.0.dir/__/__/__/models/config/src/packed_index_list.c.obj
 .debug_ranges  0x00000c58      0x350 examples/light_switch/server/CMakeFiles/light_switch_server_nrf52832_xxAA_s132_3.1.0.dir/__/__/__/models/health/src/health_server.c.obj
 .debug_ranges  0x00000fa8      0x178 examples/light_switch/server/CMakeFiles/light_switch_server_nrf52832_xxAA_s132_3.1.0.dir/__/__/__/mesh/access/src/access_publish.c.obj
 .debug_ranges  0x00001120      0x7f8 examples/light_switch/server/CMakeFiles/light_switch_server_nrf52832_xxAA_s132_3.1.0.dir/__/__/__/mesh/access/src/access.c.obj
 .debug_ranges  0x00001918      0x260 examples/light_switch/server/CMakeFiles/light_switch_server_nrf52832_xxAA_s132_3.1.0.dir/__/__/__/mesh/access/src/access_reliable.c.obj
 .debug_ranges  0x00001b78      0xa88 examples/light_switch/server/CMakeFiles/light_switch_server_nrf52832_xxAA_s132_3.1.0.dir/__/__/__/mesh/access/src/device_state_manager.c.obj
 .debug_ranges  0x00002600      0x158 examples/light_switch/server/CMakeFiles/light_switch_server_nrf52832_xxAA_s132_3.1.0.dir/__/__/__/mesh/prov/src/prov_provisionee.c.obj
 .debug_ranges  0x00002758       0xb0 examples/light_switch/server/CMakeFiles/light_switch_server_nrf52832_xxAA_s132_3.1.0.dir/__/__/__/mesh/prov/src/nrf_mesh_prov.c.obj
 .debug_ranges  0x00002808       0xa0 examples/light_switch/server/CMakeFiles/light_switch_server_nrf52832_xxAA_s132_3.1.0.dir/__/__/__/mesh/prov/src/provisioning.c.obj
 .debug_ranges  0x000028a8       0x88 examples/light_switch/server/CMakeFiles/light_switch_server_nrf52832_xxAA_s132_3.1.0.dir/__/__/__/mesh/prov/src/prov_beacon.c.obj
 .debug_ranges  0x00002930       0xb8 examples/light_switch/server/CMakeFiles/light_switch_server_nrf52832_xxAA_s132_3.1.0.dir/__/__/__/mesh/prov/src/prov_utils.c.obj
 .debug_ranges  0x000029e8      0x6c8 examples/light_switch/server/CMakeFiles/light_switch_server_nrf52832_xxAA_s132_3.1.0.dir/__/__/__/mesh/prov/src/prov_bearer_adv.c.obj
 .debug_ranges  0x000030b0      0x1e0 examples/light_switch/server/CMakeFiles/light_switch_server_nrf52832_xxAA_s132_3.1.0.dir/__/__/__/mesh/access/src/nrf_mesh_node_config.c.obj
 .debug_ranges  0x00003290       0x28 examples/light_switch/server/CMakeFiles/light_switch_server_nrf52832_xxAA_s132_3.1.0.dir/__/__/__/external/nRF5_SDK_14.2.0_17b948a/components/toolchain/system_nrf52.c.obj
 .debug_ranges  0x000032b8       0x20 mesh/core/libmesh_core_nrf52832_xxAA.a(nrf_mesh_configure.c.obj)
 .debug_ranges  0x000032d8       0x68 mesh/core/libmesh_core_nrf52832_xxAA.a(event.c.obj)
 .debug_ranges  0x00003340      0x248 mesh/core/libmesh_core_nrf52832_xxAA.a(net_state.c.obj)
 .debug_ranges  0x00003588       0x38 mesh/core/libmesh_core_nrf52832_xxAA.a(nrf_mesh_utils.c.obj)
 .debug_ranges  0x000035c0       0xf0 mesh/core/libmesh_core_nrf52832_xxAA.a(nrf_mesh.c.obj)
 .debug_ranges  0x000036b0       0x28 mesh/core/libmesh_core_nrf52832_xxAA.a(hal.c.obj)
 .debug_ranges  0x000036d8      0x260 mesh/core/libmesh_core_nrf52832_xxAA.a(timer_scheduler.c.obj)
 .debug_ranges  0x00003938      0x108 mesh/core/libmesh_core_nrf52832_xxAA.a(timer.c.obj)
 .debug_ranges  0x00003a40       0x20 mesh/core/libmesh_core_nrf52832_xxAA.a(ticker.c.obj)
 .debug_ranges  0x00003a60       0x48 mesh/core/libmesh_core_nrf52832_xxAA.a(rand.c.obj)
 .debug_ranges  0x00003aa8       0x18 mesh/core/libmesh_core_nrf52832_xxAA.a(nrf_mesh_opt.c.obj)
 .debug_ranges  0x00003ac0      0x188 mesh/core/libmesh_core_nrf52832_xxAA.a(timeslot.c.obj)
 .debug_ranges  0x00003c48      0x250 mesh/core/libmesh_core_nrf52832_xxAA.a(bearer_event.c.obj)
 .debug_ranges  0x00003e98      0x120 mesh/core/libmesh_core_nrf52832_xxAA.a(enc.c.obj)
 .debug_ranges  0x00003fb8      0x518 mesh/core/libmesh_core_nrf52832_xxAA.a(network.c.obj)
 .debug_ranges  0x000044d0       0x30 mesh/core/libmesh_core_nrf52832_xxAA.a(nrf_mesh_keygen.c.obj)
 .debug_ranges  0x00004500      0x1b0 mesh/core/libmesh_core_nrf52832_xxAA.a(list.c.obj)
 .debug_ranges  0x000046b0       0x38 mesh/core/libmesh_core_nrf52832_xxAA.a(log.c.obj)
 .debug_ranges  0x000046e8      0x748 mesh/core/libmesh_core_nrf52832_xxAA.a(flash_manager.c.obj)
 .debug_ranges  0x00004e30       0x40 mesh/core/libmesh_core_nrf52832_xxAA.a(ccm_soft.c.obj)
 .debug_ranges  0x00004e70       0xd0 mesh/core/libmesh_core_nrf52832_xxAA.a(beacon.c.obj)
 .debug_ranges  0x00004f40       0x68 mesh/core/libmesh_core_nrf52832_xxAA.a(flash_manager_internal.c.obj)
 .debug_ranges  0x00004fa8      0x270 mesh/core/libmesh_core_nrf52832_xxAA.a(core_tx.c.obj)
 .debug_ranges  0x00005218      0x240 mesh/core/libmesh_core_nrf52832_xxAA.a(heartbeat.c.obj)
 .debug_ranges  0x00005458       0xf0 mesh/core/libmesh_core_nrf52832_xxAA.a(net_beacon.c.obj)
 .debug_ranges  0x00005548       0xe8 mesh/core/libmesh_core_nrf52832_xxAA.a(core_tx_adv.c.obj)
 .debug_ranges  0x00005630       0xf8 mesh/core/libmesh_core_nrf52832_xxAA.a(ad_listener.c.obj)
 .debug_ranges  0x00005728       0xe8 mesh/core/libmesh_core_nrf52832_xxAA.a(ad_type_filter.c.obj)
 .debug_ranges  0x00005810      0x4a8 mesh/core/libmesh_core_nrf52832_xxAA.a(advertiser.c.obj)
 .debug_ranges  0x00005cb8      0x290 mesh/core/libmesh_core_nrf52832_xxAA.a(bearer_handler.c.obj)
 .debug_ranges  0x00005f48      0x130 mesh/core/libmesh_core_nrf52832_xxAA.a(broadcast.c.obj)
 .debug_ranges  0x00006078       0x90 mesh/core/libmesh_core_nrf52832_xxAA.a(filter_engine.c.obj)
 .debug_ranges  0x00006108      0x100 mesh/core/libmesh_core_nrf52832_xxAA.a(radio_config.c.obj)
 .debug_ranges  0x00006208      0x2c0 mesh/core/libmesh_core_nrf52832_xxAA.a(scanner.c.obj)
 .debug_ranges  0x000064c8       0x20 mesh/core/libmesh_core_nrf52832_xxAA.a(internal_event.c.obj)
 .debug_ranges  0x000064e8       0x18 mesh/core/libmesh_core_nrf52832_xxAA.a(aes.c.obj)
 .debug_ranges  0x00006500       0x48 mesh/core/libmesh_core_nrf52832_xxAA.a(msg_cache.c.obj)
 .debug_ranges  0x00006548      0x918 mesh/core/libmesh_core_nrf52832_xxAA.a(transport.c.obj)
 .debug_ranges  0x00006e60      0x3b8 mesh/core/libmesh_core_nrf52832_xxAA.a(packet_buffer.c.obj)
 .debug_ranges  0x00007218      0x368 mesh/core/libmesh_core_nrf52832_xxAA.a(flash_manager_defrag.c.obj)
 .debug_ranges  0x00007580       0xb0 mesh/core/libmesh_core_nrf52832_xxAA.a(fifo.c.obj)
 .debug_ranges  0x00007630      0x160 mesh/core/libmesh_core_nrf52832_xxAA.a(packet_mgr.c.obj)
 .debug_ranges  0x00007790      0x368 mesh/core/libmesh_core_nrf52832_xxAA.a(mesh_flash.c.obj)
 .debug_ranges  0x00007af8       0xa0 mesh/core/libmesh_core_nrf52832_xxAA.a(queue.c.obj)
 .debug_ranges  0x00007b98       0x98 mesh/core/libmesh_core_nrf52832_xxAA.a(aes_cmac.c.obj)
 .debug_ranges  0x00007c30      0x158 mesh/core/libmesh_core_nrf52832_xxAA.a(msqueue.c.obj)
 .debug_ranges  0x00007d88       0x68 mesh/core/libmesh_core_nrf52832_xxAA.a(replay_cache.c.obj)
 .debug_ranges  0x00007df0       0x38 mesh/core/libmesh_core_nrf52832_xxAA.a(nrf_flash.c.obj)
 .debug_ranges  0x00007e28      0x130 external/rtt/librtt_nrf52832_xxAA.a(SEGGER_RTT.c.obj)
 .debug_ranges  0x00007f58       0x48 external/rtt/librtt_nrf52832_xxAA.a(SEGGER_RTT_printf.c.obj)
 .debug_ranges  0x00007fa0      0x2e8 external/micro-ecc/libuECC_nrf52832_xxAA.a(uECC.c.obj)

.debug_line     0x00000000    0x17852
 .debug_line    0x00000000      0x64c examples/light_switch/server/CMakeFiles/light_switch_server_nrf52832_xxAA_s132_3.1.0.dir/src/main.c.obj
 .debug_line    0x0000064c      0x780 examples/light_switch/server/CMakeFiles/light_switch_server_nrf52832_xxAA_s132_3.1.0.dir/__/__/nrf_mesh_sdk.c.obj
 .debug_line    0x00000dcc      0x41b examples/light_switch/server/CMakeFiles/light_switch_server_nrf52832_xxAA_s132_3.1.0.dir/__/__/common/src/simple_hal.c.obj
 .debug_line    0x000011e7      0x225 examples/light_switch/server/CMakeFiles/light_switch_server_nrf52832_xxAA_s132_3.1.0.dir/__/__/nrf_mesh_weak.c.obj
 .debug_line    0x0000140c      0x309 examples/light_switch/server/CMakeFiles/light_switch_server_nrf52832_xxAA_s132_3.1.0.dir/__/__/__/models/simple_on_off/src/simple_on_off_server.c.obj
 .debug_line    0x00001715      0x35e examples/light_switch/server/CMakeFiles/light_switch_server_nrf52832_xxAA_s132_3.1.0.dir/__/__/__/models/config/src/composition_data.c.obj
 .debug_line    0x00001a73     0x10ca examples/light_switch/server/CMakeFiles/light_switch_server_nrf52832_xxAA_s132_3.1.0.dir/__/__/__/models/config/src/config_server.c.obj
 .debug_line    0x00002b3d       0xff examples/light_switch/server/CMakeFiles/light_switch_server_nrf52832_xxAA_s132_3.1.0.dir/__/__/__/models/config/src/packed_index_list.c.obj
 .debug_line    0x00002c3c      0x681 examples/light_switch/server/CMakeFiles/light_switch_server_nrf52832_xxAA_s132_3.1.0.dir/__/__/__/models/health/src/health_server.c.obj
 .debug_line    0x000032bd      0x449 examples/light_switch/server/CMakeFiles/light_switch_server_nrf52832_xxAA_s132_3.1.0.dir/__/__/__/mesh/access/src/access_publish.c.obj
 .debug_line    0x00003706      0xe43 examples/light_switch/server/CMakeFiles/light_switch_server_nrf52832_xxAA_s132_3.1.0.dir/__/__/__/mesh/access/src/access.c.obj
 .debug_line    0x00004549      0x50d examples/light_switch/server/CMakeFiles/light_switch_server_nrf52832_xxAA_s132_3.1.0.dir/__/__/__/mesh/access/src/access_reliable.c.obj
 .debug_line    0x00004a56     0x143d examples/light_switch/server/CMakeFiles/light_switch_server_nrf52832_xxAA_s132_3.1.0.dir/__/__/__/mesh/access/src/device_state_manager.c.obj
 .debug_line    0x00005e93      0x634 examples/light_switch/server/CMakeFiles/light_switch_server_nrf52832_xxAA_s132_3.1.0.dir/__/__/__/mesh/prov/src/prov_provisionee.c.obj
 .debug_line    0x000064c7      0x4e3 examples/light_switch/server/CMakeFiles/light_switch_server_nrf52832_xxAA_s132_3.1.0.dir/__/__/__/mesh/prov/src/nrf_mesh_prov.c.obj
 .debug_line    0x000069aa      0x3de examples/light_switch/server/CMakeFiles/light_switch_server_nrf52832_xxAA_s132_3.1.0.dir/__/__/__/mesh/prov/src/provisioning.c.obj
 .debug_line    0x00006d88      0x48d examples/light_switch/server/CMakeFiles/light_switch_server_nrf52832_xxAA_s132_3.1.0.dir/__/__/__/mesh/prov/src/prov_beacon.c.obj
 .debug_line    0x00007215      0x4a2 examples/light_switch/server/CMakeFiles/light_switch_server_nrf52832_xxAA_s132_3.1.0.dir/__/__/__/mesh/prov/src/prov_utils.c.obj
 .debug_line    0x000076b7      0xc24 examples/light_switch/server/CMakeFiles/light_switch_server_nrf52832_xxAA_s132_3.1.0.dir/__/__/__/mesh/prov/src/prov_bearer_adv.c.obj
 .debug_line    0x000082db      0x83d examples/light_switch/server/CMakeFiles/light_switch_server_nrf52832_xxAA_s132_3.1.0.dir/__/__/__/mesh/access/src/nrf_mesh_node_config.c.obj
 .debug_line    0x00008b18      0x27e examples/light_switch/server/CMakeFiles/light_switch_server_nrf52832_xxAA_s132_3.1.0.dir/__/__/__/external/nRF5_SDK_14.2.0_17b948a/components/toolchain/system_nrf52.c.obj
 .debug_line    0x00008d96      0x263 mesh/core/libmesh_core_nrf52832_xxAA.a(nrf_mesh_configure.c.obj)
 .debug_line    0x00008ff9      0x30b mesh/core/libmesh_core_nrf52832_xxAA.a(event.c.obj)
 .debug_line    0x00009304      0x6a8 mesh/core/libmesh_core_nrf52832_xxAA.a(net_state.c.obj)
 .debug_line    0x000099ac      0x262 mesh/core/libmesh_core_nrf52832_xxAA.a(nrf_mesh_utils.c.obj)
 .debug_line    0x00009c0e      0x7b0 mesh/core/libmesh_core_nrf52832_xxAA.a(nrf_mesh.c.obj)
 .debug_line    0x0000a3be      0x250 mesh/core/libmesh_core_nrf52832_xxAA.a(hal.c.obj)
 .debug_line    0x0000a60e      0x4a3 mesh/core/libmesh_core_nrf52832_xxAA.a(timer_scheduler.c.obj)
 .debug_line    0x0000aab1      0x415 mesh/core/libmesh_core_nrf52832_xxAA.a(timer.c.obj)
 .debug_line    0x0000aec6      0x122 mesh/core/libmesh_core_nrf52832_xxAA.a(ticker.c.obj)
 .debug_line    0x0000afe8      0x28d mesh/core/libmesh_core_nrf52832_xxAA.a(rand.c.obj)
 .debug_line    0x0000b275      0x291 mesh/core/libmesh_core_nrf52832_xxAA.a(nrf_mesh_opt.c.obj)
 .debug_line    0x0000b506      0x5b6 mesh/core/libmesh_core_nrf52832_xxAA.a(timeslot.c.obj)
 .debug_line    0x0000babc      0x608 mesh/core/libmesh_core_nrf52832_xxAA.a(bearer_event.c.obj)
 .debug_line    0x0000c0c4      0x45a mesh/core/libmesh_core_nrf52832_xxAA.a(enc.c.obj)
 .debug_line    0x0000c51e      0x836 mesh/core/libmesh_core_nrf52832_xxAA.a(network.c.obj)
 .debug_line    0x0000cd54      0x236 mesh/core/libmesh_core_nrf52832_xxAA.a(nrf_mesh_keygen.c.obj)
 .debug_line    0x0000cf8a      0x373 mesh/core/libmesh_core_nrf52832_xxAA.a(list.c.obj)
 .debug_line    0x0000d2fd      0x284 mesh/core/libmesh_core_nrf52832_xxAA.a(log.c.obj)
 .debug_line    0x0000d581      0xa9a mesh/core/libmesh_core_nrf52832_xxAA.a(flash_manager.c.obj)
 .debug_line    0x0000e01b      0x34b mesh/core/libmesh_core_nrf52832_xxAA.a(ccm_soft.c.obj)
 .debug_line    0x0000e366      0x52d mesh/core/libmesh_core_nrf52832_xxAA.a(beacon.c.obj)
 .debug_line    0x0000e893      0x299 mesh/core/libmesh_core_nrf52832_xxAA.a(flash_manager_internal.c.obj)
 .debug_line    0x0000eb2c      0x471 mesh/core/libmesh_core_nrf52832_xxAA.a(core_tx.c.obj)
 .debug_line    0x0000ef9d      0x61c mesh/core/libmesh_core_nrf52832_xxAA.a(heartbeat.c.obj)
 .debug_line    0x0000f5b9      0x42b mesh/core/libmesh_core_nrf52832_xxAA.a(net_beacon.c.obj)
 .debug_line    0x0000f9e4      0x489 mesh/core/libmesh_core_nrf52832_xxAA.a(core_tx_adv.c.obj)
 .debug_line    0x0000fe6d      0x352 mesh/core/libmesh_core_nrf52832_xxAA.a(ad_listener.c.obj)
 .debug_line    0x000101bf      0x403 mesh/core/libmesh_core_nrf52832_xxAA.a(ad_type_filter.c.obj)
 .debug_line    0x000105c2      0x81c mesh/core/libmesh_core_nrf52832_xxAA.a(advertiser.c.obj)
 .debug_line    0x00010dde      0x5c1 mesh/core/libmesh_core_nrf52832_xxAA.a(bearer_handler.c.obj)
 .debug_line    0x0001139f      0x3c8 mesh/core/libmesh_core_nrf52832_xxAA.a(broadcast.c.obj)
 .debug_line    0x00011767      0x356 mesh/core/libmesh_core_nrf52832_xxAA.a(filter_engine.c.obj)
 .debug_line    0x00011abd      0x320 mesh/core/libmesh_core_nrf52832_xxAA.a(radio_config.c.obj)
 .debug_line    0x00011ddd      0x751 mesh/core/libmesh_core_nrf52832_xxAA.a(scanner.c.obj)
 .debug_line    0x0001252e      0x2a2 mesh/core/libmesh_core_nrf52832_xxAA.a(internal_event.c.obj)
 .debug_line    0x000127d0      0x254 mesh/core/libmesh_core_nrf52832_xxAA.a(aes.c.obj)
 .debug_line    0x00012a24      0x298 mesh/core/libmesh_core_nrf52832_xxAA.a(msg_cache.c.obj)
 .debug_line    0x00012cbc     0x1029 mesh/core/libmesh_core_nrf52832_xxAA.a(transport.c.obj)
 .debug_line    0x00013ce5      0x6ed mesh/core/libmesh_core_nrf52832_xxAA.a(packet_buffer.c.obj)
 .debug_line    0x000143d2      0x7e7 mesh/core/libmesh_core_nrf52832_xxAA.a(flash_manager_defrag.c.obj)
 .debug_line    0x00014bb9      0x3a6 mesh/core/libmesh_core_nrf52832_xxAA.a(fifo.c.obj)
 .debug_line    0x00014f5f      0x445 mesh/core/libmesh_core_nrf52832_xxAA.a(packet_mgr.c.obj)
 .debug_line    0x000153a4      0x5a9 mesh/core/libmesh_core_nrf52832_xxAA.a(mesh_flash.c.obj)
 .debug_line    0x0001594d      0x2d2 mesh/core/libmesh_core_nrf52832_xxAA.a(queue.c.obj)
 .debug_line    0x00015c1f      0x2d4 mesh/core/libmesh_core_nrf52832_xxAA.a(aes_cmac.c.obj)
 .debug_line    0x00015ef3      0x388 mesh/core/libmesh_core_nrf52832_xxAA.a(msqueue.c.obj)
 .debug_line    0x0001627b      0x1f1 mesh/core/libmesh_core_nrf52832_xxAA.a(replay_cache.c.obj)
 .debug_line    0x0001646c      0x2a9 mesh/core/libmesh_core_nrf52832_xxAA.a(nrf_flash.c.obj)
 .debug_line    0x00016715      0x4c0 external/rtt/librtt_nrf52832_xxAA.a(SEGGER_RTT.c.obj)
 .debug_line    0x00016bd5      0x282 external/rtt/librtt_nrf52832_xxAA.a(SEGGER_RTT_printf.c.obj)
 .debug_line    0x00016e57      0x9fb external/micro-ecc/libuECC_nrf52832_xxAA.a(uECC.c.obj)

.debug_str      0x00000000    0x134e3
 .debug_str     0x00000000     0x1929 examples/light_switch/server/CMakeFiles/light_switch_server_nrf52832_xxAA_s132_3.1.0.dir/src/main.c.obj
                               0x1c61 (size before relaxing)
 .debug_str     0x00001929     0x1541 examples/light_switch/server/CMakeFiles/light_switch_server_nrf52832_xxAA_s132_3.1.0.dir/__/__/nrf_mesh_sdk.c.obj
                               0x220e (size before relaxing)
 .debug_str     0x00002e6a      0x18a examples/light_switch/server/CMakeFiles/light_switch_server_nrf52832_xxAA_s132_3.1.0.dir/__/__/common/src/simple_hal.c.obj
                                0xc41 (size before relaxing)
 .debug_str     0x00002ff4       0x3c examples/light_switch/server/CMakeFiles/light_switch_server_nrf52832_xxAA_s132_3.1.0.dir/__/__/nrf_mesh_weak.c.obj
                                0x64d (size before relaxing)
 .debug_str     0x00003030      0x388 examples/light_switch/server/CMakeFiles/light_switch_server_nrf52832_xxAA_s132_3.1.0.dir/__/__/__/models/simple_on_off/src/simple_on_off_server.c.obj
                                0x72d (size before relaxing)
 .debug_str     0x000033b8      0x22b examples/light_switch/server/CMakeFiles/light_switch_server_nrf52832_xxAA_s132_3.1.0.dir/__/__/__/models/config/src/composition_data.c.obj
                                0x8f7 (size before relaxing)
 .debug_str     0x000035e3     0x2884 examples/light_switch/server/CMakeFiles/light_switch_server_nrf52832_xxAA_s132_3.1.0.dir/__/__/__/models/config/src/config_server.c.obj
                               0x3ec1 (size before relaxing)
 .debug_str     0x00005e67       0x69 examples/light_switch/server/CMakeFiles/light_switch_server_nrf52832_xxAA_s132_3.1.0.dir/__/__/__/models/config/src/packed_index_list.c.obj
                                0x264 (size before relaxing)
 .debug_str     0x00005ed0      0x7df examples/light_switch/server/CMakeFiles/light_switch_server_nrf52832_xxAA_s132_3.1.0.dir/__/__/__/models/health/src/health_server.c.obj
                               0x13b3 (size before relaxing)
 .debug_str     0x000066af      0x279 examples/light_switch/server/CMakeFiles/light_switch_server_nrf52832_xxAA_s132_3.1.0.dir/__/__/__/mesh/access/src/access_publish.c.obj
                                0xbe6 (size before relaxing)
 .debug_str     0x00006928     0x180d examples/light_switch/server/CMakeFiles/light_switch_server_nrf52832_xxAA_s132_3.1.0.dir/__/__/__/mesh/access/src/access.c.obj
                               0x2b46 (size before relaxing)
 .debug_str     0x00008135      0x1fb examples/light_switch/server/CMakeFiles/light_switch_server_nrf52832_xxAA_s132_3.1.0.dir/__/__/__/mesh/access/src/access_reliable.c.obj
                                0xcb4 (size before relaxing)
 .debug_str     0x00008330      0xfa2 examples/light_switch/server/CMakeFiles/light_switch_server_nrf52832_xxAA_s132_3.1.0.dir/__/__/__/mesh/access/src/device_state_manager.c.obj
                               0x2e6b (size before relaxing)
 .debug_str     0x000092d2     0x1430 examples/light_switch/server/CMakeFiles/light_switch_server_nrf52832_xxAA_s132_3.1.0.dir/__/__/__/mesh/prov/src/prov_provisionee.c.obj
                               0x2061 (size before relaxing)
 .debug_str     0x0000a702      0x295 examples/light_switch/server/CMakeFiles/light_switch_server_nrf52832_xxAA_s132_3.1.0.dir/__/__/__/mesh/prov/src/nrf_mesh_prov.c.obj
                               0x1c8f (size before relaxing)
 .debug_str     0x0000a997       0xf7 examples/light_switch/server/CMakeFiles/light_switch_server_nrf52832_xxAA_s132_3.1.0.dir/__/__/__/mesh/prov/src/provisioning.c.obj
                                0xf45 (size before relaxing)
 .debug_str     0x0000aa8e      0x4f9 examples/light_switch/server/CMakeFiles/light_switch_server_nrf52832_xxAA_s132_3.1.0.dir/__/__/__/mesh/prov/src/prov_beacon.c.obj
                               0x18cc (size before relaxing)
 .debug_str     0x0000af87      0x20d examples/light_switch/server/CMakeFiles/light_switch_server_nrf52832_xxAA_s132_3.1.0.dir/__/__/__/mesh/prov/src/prov_utils.c.obj
                               0x1e53 (size before relaxing)
 .debug_str     0x0000b194      0x7d5 examples/light_switch/server/CMakeFiles/light_switch_server_nrf52832_xxAA_s132_3.1.0.dir/__/__/__/mesh/prov/src/prov_bearer_adv.c.obj
                               0x1b5a (size before relaxing)
 .debug_str     0x0000b969      0x1d9 examples/light_switch/server/CMakeFiles/light_switch_server_nrf52832_xxAA_s132_3.1.0.dir/__/__/__/mesh/access/src/nrf_mesh_node_config.c.obj
                               0x3a37 (size before relaxing)
 .debug_str     0x0000bb42      0x4ad examples/light_switch/server/CMakeFiles/light_switch_server_nrf52832_xxAA_s132_3.1.0.dir/__/__/__/external/nRF5_SDK_14.2.0_17b948a/components/toolchain/system_nrf52.c.obj
                                0x779 (size before relaxing)
 .debug_str     0x0000bfef       0x75 mesh/core/libmesh_core_nrf52832_xxAA.a(nrf_mesh_configure.c.obj)
                                0x77e (size before relaxing)
 .debug_str     0x0000c064       0x82 mesh/core/libmesh_core_nrf52832_xxAA.a(event.c.obj)
                               0x14d3 (size before relaxing)
 .debug_str     0x0000c0e6      0x33d mesh/core/libmesh_core_nrf52832_xxAA.a(net_state.c.obj)
                               0x1e46 (size before relaxing)
 .debug_str     0x0000c423       0x8b mesh/core/libmesh_core_nrf52832_xxAA.a(nrf_mesh_utils.c.obj)
                                0x76b (size before relaxing)
 .debug_str     0x0000c4ae      0x57d mesh/core/libmesh_core_nrf52832_xxAA.a(nrf_mesh.c.obj)
                               0x2a81 (size before relaxing)
 .debug_str     0x0000ca2b       0x98 mesh/core/libmesh_core_nrf52832_xxAA.a(hal.c.obj)
                                0x752 (size before relaxing)
 .debug_str     0x0000cac3      0x14a mesh/core/libmesh_core_nrf52832_xxAA.a(timer_scheduler.c.obj)
                                0x94e (size before relaxing)
 .debug_str     0x0000cc0d      0x222 mesh/core/libmesh_core_nrf52832_xxAA.a(timer.c.obj)
                                0x883 (size before relaxing)
 .debug_str     0x0000ce2f       0x3c mesh/core/libmesh_core_nrf52832_xxAA.a(ticker.c.obj)
                                0x34c (size before relaxing)
 .debug_str     0x0000ce6b       0xac mesh/core/libmesh_core_nrf52832_xxAA.a(rand.c.obj)
                                0x6cf (size before relaxing)
 .debug_str     0x0000cf17       0x64 mesh/core/libmesh_core_nrf52832_xxAA.a(nrf_mesh_opt.c.obj)
                                0x921 (size before relaxing)
 .debug_str     0x0000cf7b      0x8ba mesh/core/libmesh_core_nrf52832_xxAA.a(timeslot.c.obj)
                               0x17e8 (size before relaxing)
 .debug_str     0x0000d835      0x307 mesh/core/libmesh_core_nrf52832_xxAA.a(bearer_event.c.obj)
                                0xed3 (size before relaxing)
 .debug_str     0x0000db3c      0x1c1 mesh/core/libmesh_core_nrf52832_xxAA.a(enc.c.obj)
                                0x9d4 (size before relaxing)
 .debug_str     0x0000dcfd      0x9ce mesh/core/libmesh_core_nrf52832_xxAA.a(network.c.obj)
                               0x19c7 (size before relaxing)
 .debug_str     0x0000e6cb       0x57 mesh/core/libmesh_core_nrf52832_xxAA.a(nrf_mesh_keygen.c.obj)
                                0x397 (size before relaxing)
 .debug_str     0x0000e722       0x65 mesh/core/libmesh_core_nrf52832_xxAA.a(list.c.obj)
                                0x2d8 (size before relaxing)
 .debug_str     0x0000e787      0x182 mesh/core/libmesh_core_nrf52832_xxAA.a(log.c.obj)
                                0x7d0 (size before relaxing)
 .debug_str     0x0000e909      0x8a9 mesh/core/libmesh_core_nrf52832_xxAA.a(flash_manager.c.obj)
                               0x19d1 (size before relaxing)
 .debug_str     0x0000f1b2       0x85 mesh/core/libmesh_core_nrf52832_xxAA.a(ccm_soft.c.obj)
                                0x75d (size before relaxing)
 .debug_str     0x0000f237       0xb2 mesh/core/libmesh_core_nrf52832_xxAA.a(beacon.c.obj)
                               0x1133 (size before relaxing)
 .debug_str     0x0000f2e9       0x38 mesh/core/libmesh_core_nrf52832_xxAA.a(flash_manager_internal.c.obj)
                                0x7be (size before relaxing)
 .debug_str     0x0000f321      0x131 mesh/core/libmesh_core_nrf52832_xxAA.a(core_tx.c.obj)
                                0x8bd (size before relaxing)
 .debug_str     0x0000f452      0x613 mesh/core/libmesh_core_nrf52832_xxAA.a(heartbeat.c.obj)
                               0x203b (size before relaxing)
 .debug_str     0x0000fa65      0x1a7 mesh/core/libmesh_core_nrf52832_xxAA.a(net_beacon.c.obj)
                                0xe84 (size before relaxing)
 .debug_str     0x0000fc0c      0x102 mesh/core/libmesh_core_nrf52832_xxAA.a(core_tx_adv.c.obj)
                               0x104b (size before relaxing)
 .debug_str     0x0000fd0e      0x189 mesh/core/libmesh_core_nrf52832_xxAA.a(ad_listener.c.obj)
                                0xb7f (size before relaxing)
 .debug_str     0x0000fe97      0x14f mesh/core/libmesh_core_nrf52832_xxAA.a(ad_type_filter.c.obj)
                                0x9b9 (size before relaxing)
 .debug_str     0x0000ffe6      0x339 mesh/core/libmesh_core_nrf52832_xxAA.a(advertiser.c.obj)
                               0x150c (size before relaxing)
 .debug_str     0x0001031f      0x34d mesh/core/libmesh_core_nrf52832_xxAA.a(bearer_handler.c.obj)
                                0xf8f (size before relaxing)
 .debug_str     0x0001066c      0x1ac mesh/core/libmesh_core_nrf52832_xxAA.a(broadcast.c.obj)
                                0xf32 (size before relaxing)
 .debug_str     0x00010818       0x72 mesh/core/libmesh_core_nrf52832_xxAA.a(filter_engine.c.obj)
                                0x826 (size before relaxing)
 .debug_str     0x0001088a       0x79 mesh/core/libmesh_core_nrf52832_xxAA.a(radio_config.c.obj)
                                0x780 (size before relaxing)
 .debug_str     0x00010903      0x45d mesh/core/libmesh_core_nrf52832_xxAA.a(scanner.c.obj)
                               0x18d8 (size before relaxing)
 .debug_str     0x00010d60       0xc0 mesh/core/libmesh_core_nrf52832_xxAA.a(internal_event.c.obj)
                                0xa93 (size before relaxing)
 .debug_str     0x00010e20       0xc1 mesh/core/libmesh_core_nrf52832_xxAA.a(aes.c.obj)
                                0xa61 (size before relaxing)
 .debug_str     0x00010ee1       0x71 mesh/core/libmesh_core_nrf52832_xxAA.a(msg_cache.c.obj)
                                0x6ea (size before relaxing)
 .debug_str     0x00010f52      0xd1d mesh/core/libmesh_core_nrf52832_xxAA.a(transport.c.obj)
                               0x31ea (size before relaxing)
 .debug_str     0x00011c6f      0x2cd mesh/core/libmesh_core_nrf52832_xxAA.a(packet_buffer.c.obj)
                                0xc2f (size before relaxing)
 .debug_str     0x00011f3c      0x36b mesh/core/libmesh_core_nrf52832_xxAA.a(flash_manager_defrag.c.obj)
                               0x1528 (size before relaxing)
 .debug_str     0x000122a7       0x69 mesh/core/libmesh_core_nrf52832_xxAA.a(fifo.c.obj)
                                0x6f5 (size before relaxing)
 .debug_str     0x00012310      0x266 mesh/core/libmesh_core_nrf52832_xxAA.a(packet_mgr.c.obj)
                                0x9cf (size before relaxing)
 .debug_str     0x00012576      0x343 mesh/core/libmesh_core_nrf52832_xxAA.a(mesh_flash.c.obj)
                                0xcf6 (size before relaxing)
 .debug_str     0x000128b9       0x19 mesh/core/libmesh_core_nrf52832_xxAA.a(queue.c.obj)
                                0x69d (size before relaxing)
 .debug_str     0x000128d2       0xb8 mesh/core/libmesh_core_nrf52832_xxAA.a(aes_cmac.c.obj)
                                0x715 (size before relaxing)
 .debug_str     0x0001298a       0x43 mesh/core/libmesh_core_nrf52832_xxAA.a(msqueue.c.obj)
                                0x6d9 (size before relaxing)
 .debug_str     0x000129cd       0x9f mesh/core/libmesh_core_nrf52832_xxAA.a(replay_cache.c.obj)
                                0x6b0 (size before relaxing)
 .debug_str     0x00012a6c       0x36 mesh/core/libmesh_core_nrf52832_xxAA.a(nrf_flash.c.obj)
                                0x6ec (size before relaxing)
 .debug_str     0x00012aa2      0x2d1 external/rtt/librtt_nrf52832_xxAA.a(SEGGER_RTT.c.obj)
                                0x922 (size before relaxing)
 .debug_str     0x00012d73       0xdf external/rtt/librtt_nrf52832_xxAA.a(SEGGER_RTT_printf.c.obj)
                                0x792 (size before relaxing)
 .debug_str     0x00012e52      0x691 external/micro-ecc/libuECC_nrf52832_xxAA.a(uECC.c.obj)
                                0x880 (size before relaxing)

.debug_frame    0x00000000     0x69a8
 .debug_frame   0x00000000       0xac examples/light_switch/server/CMakeFiles/light_switch_server_nrf52832_xxAA_s132_3.1.0.dir/src/main.c.obj
 .debug_frame   0x000000ac      0x180 examples/light_switch/server/CMakeFiles/light_switch_server_nrf52832_xxAA_s132_3.1.0.dir/__/__/nrf_mesh_sdk.c.obj
 .debug_frame   0x0000022c       0x9c examples/light_switch/server/CMakeFiles/light_switch_server_nrf52832_xxAA_s132_3.1.0.dir/__/__/common/src/simple_hal.c.obj
 .debug_frame   0x000002c8       0x30 examples/light_switch/server/CMakeFiles/light_switch_server_nrf52832_xxAA_s132_3.1.0.dir/__/__/nrf_mesh_weak.c.obj
 .debug_frame   0x000002f8       0xa0 examples/light_switch/server/CMakeFiles/light_switch_server_nrf52832_xxAA_s132_3.1.0.dir/__/__/__/models/simple_on_off/src/simple_on_off_server.c.obj
 .debug_frame   0x00000398       0x40 examples/light_switch/server/CMakeFiles/light_switch_server_nrf52832_xxAA_s132_3.1.0.dir/__/__/__/models/config/src/composition_data.c.obj
 .debug_frame   0x000003d8      0x7ec examples/light_switch/server/CMakeFiles/light_switch_server_nrf52832_xxAA_s132_3.1.0.dir/__/__/__/models/config/src/config_server.c.obj
 .debug_frame   0x00000bc4       0x3c examples/light_switch/server/CMakeFiles/light_switch_server_nrf52832_xxAA_s132_3.1.0.dir/__/__/__/models/config/src/packed_index_list.c.obj
 .debug_frame   0x00000c00      0x2a4 examples/light_switch/server/CMakeFiles/light_switch_server_nrf52832_xxAA_s132_3.1.0.dir/__/__/__/models/health/src/health_server.c.obj
 .debug_frame   0x00000ea4      0x114 examples/light_switch/server/CMakeFiles/light_switch_server_nrf52832_xxAA_s132_3.1.0.dir/__/__/__/mesh/access/src/access_publish.c.obj
 .debug_frame   0x00000fb8      0x544 examples/light_switch/server/CMakeFiles/light_switch_server_nrf52832_xxAA_s132_3.1.0.dir/__/__/__/mesh/access/src/access.c.obj
 .debug_frame   0x000014fc      0x110 examples/light_switch/server/CMakeFiles/light_switch_server_nrf52832_xxAA_s132_3.1.0.dir/__/__/__/mesh/access/src/access_reliable.c.obj
 .debug_frame   0x0000160c      0xa78 examples/light_switch/server/CMakeFiles/light_switch_server_nrf52832_xxAA_s132_3.1.0.dir/__/__/__/mesh/access/src/device_state_manager.c.obj
 .debug_frame   0x00002084      0x180 examples/light_switch/server/CMakeFiles/light_switch_server_nrf52832_xxAA_s132_3.1.0.dir/__/__/__/mesh/prov/src/prov_provisionee.c.obj
 .debug_frame   0x00002204      0x124 examples/light_switch/server/CMakeFiles/light_switch_server_nrf52832_xxAA_s132_3.1.0.dir/__/__/__/mesh/prov/src/nrf_mesh_prov.c.obj
 .debug_frame   0x00002328      0x174 examples/light_switch/server/CMakeFiles/light_switch_server_nrf52832_xxAA_s132_3.1.0.dir/__/__/__/mesh/prov/src/provisioning.c.obj
 .debug_frame   0x0000249c       0x84 examples/light_switch/server/CMakeFiles/light_switch_server_nrf52832_xxAA_s132_3.1.0.dir/__/__/__/mesh/prov/src/prov_beacon.c.obj
 .debug_frame   0x00002520      0x150 examples/light_switch/server/CMakeFiles/light_switch_server_nrf52832_xxAA_s132_3.1.0.dir/__/__/__/mesh/prov/src/prov_utils.c.obj
 .debug_frame   0x00002670      0x328 examples/light_switch/server/CMakeFiles/light_switch_server_nrf52832_xxAA_s132_3.1.0.dir/__/__/__/mesh/prov/src/prov_bearer_adv.c.obj
 .debug_frame   0x00002998      0x140 examples/light_switch/server/CMakeFiles/light_switch_server_nrf52832_xxAA_s132_3.1.0.dir/__/__/__/mesh/access/src/nrf_mesh_node_config.c.obj
 .debug_frame   0x00002ad8       0x58 examples/light_switch/server/CMakeFiles/light_switch_server_nrf52832_xxAA_s132_3.1.0.dir/__/__/__/external/nRF5_SDK_14.2.0_17b948a/components/toolchain/system_nrf52.c.obj
 .debug_frame   0x00002b30       0x4c mesh/core/libmesh_core_nrf52832_xxAA.a(nrf_mesh_configure.c.obj)
 .debug_frame   0x00002b7c       0x6c mesh/core/libmesh_core_nrf52832_xxAA.a(event.c.obj)
 .debug_frame   0x00002be8      0x264 mesh/core/libmesh_core_nrf52832_xxAA.a(net_state.c.obj)
 .debug_frame   0x00002e4c       0x50 mesh/core/libmesh_core_nrf52832_xxAA.a(nrf_mesh_utils.c.obj)
 .debug_frame   0x00002e9c      0x15c mesh/core/libmesh_core_nrf52832_xxAA.a(nrf_mesh.c.obj)
 .debug_frame   0x00002ff8       0x58 mesh/core/libmesh_core_nrf52832_xxAA.a(hal.c.obj)
 .debug_frame   0x00003050      0x13c mesh/core/libmesh_core_nrf52832_xxAA.a(timer_scheduler.c.obj)
 .debug_frame   0x0000318c      0x10c mesh/core/libmesh_core_nrf52832_xxAA.a(timer.c.obj)
 .debug_frame   0x00003298       0x4c mesh/core/libmesh_core_nrf52832_xxAA.a(ticker.c.obj)
 .debug_frame   0x000032e4       0x84 mesh/core/libmesh_core_nrf52832_xxAA.a(rand.c.obj)
 .debug_frame   0x00003368       0x30 mesh/core/libmesh_core_nrf52832_xxAA.a(nrf_mesh_opt.c.obj)
 .debug_frame   0x00003398      0x1a0 mesh/core/libmesh_core_nrf52832_xxAA.a(timeslot.c.obj)
 .debug_frame   0x00003538      0x1c8 mesh/core/libmesh_core_nrf52832_xxAA.a(bearer_event.c.obj)
 .debug_frame   0x00003700      0x150 mesh/core/libmesh_core_nrf52832_xxAA.a(enc.c.obj)
 .debug_frame   0x00003850      0x14c mesh/core/libmesh_core_nrf52832_xxAA.a(network.c.obj)
 .debug_frame   0x0000399c       0xb4 mesh/core/libmesh_core_nrf52832_xxAA.a(nrf_mesh_keygen.c.obj)
 .debug_frame   0x00003a50       0xd4 mesh/core/libmesh_core_nrf52832_xxAA.a(list.c.obj)
 .debug_frame   0x00003b24       0xb0 mesh/core/libmesh_core_nrf52832_xxAA.a(log.c.obj)
 .debug_frame   0x00003bd4      0x33c mesh/core/libmesh_core_nrf52832_xxAA.a(flash_manager.c.obj)
 .debug_frame   0x00003f10      0x10c mesh/core/libmesh_core_nrf52832_xxAA.a(ccm_soft.c.obj)
 .debug_frame   0x0000401c       0x98 mesh/core/libmesh_core_nrf52832_xxAA.a(beacon.c.obj)
 .debug_frame   0x000040b4       0x34 mesh/core/libmesh_core_nrf52832_xxAA.a(flash_manager_internal.c.obj)
 .debug_frame   0x000040e8       0xe8 mesh/core/libmesh_core_nrf52832_xxAA.a(core_tx.c.obj)
 .debug_frame   0x000041d0      0x164 mesh/core/libmesh_core_nrf52832_xxAA.a(heartbeat.c.obj)
 .debug_frame   0x00004334       0xd0 mesh/core/libmesh_core_nrf52832_xxAA.a(net_beacon.c.obj)
 .debug_frame   0x00004404      0x128 mesh/core/libmesh_core_nrf52832_xxAA.a(core_tx_adv.c.obj)
 .debug_frame   0x0000452c       0x6c mesh/core/libmesh_core_nrf52832_xxAA.a(ad_listener.c.obj)
 .debug_frame   0x00004598       0xa8 mesh/core/libmesh_core_nrf52832_xxAA.a(ad_type_filter.c.obj)
 .debug_frame   0x00004640      0x284 mesh/core/libmesh_core_nrf52832_xxAA.a(advertiser.c.obj)
 .debug_frame   0x000048c4      0x160 mesh/core/libmesh_core_nrf52832_xxAA.a(bearer_handler.c.obj)
 .debug_frame   0x00004a24       0x70 mesh/core/libmesh_core_nrf52832_xxAA.a(broadcast.c.obj)
 .debug_frame   0x00004a94       0x7c mesh/core/libmesh_core_nrf52832_xxAA.a(filter_engine.c.obj)
 .debug_frame   0x00004b10       0x90 mesh/core/libmesh_core_nrf52832_xxAA.a(radio_config.c.obj)
 .debug_frame   0x00004ba0      0x2a4 mesh/core/libmesh_core_nrf52832_xxAA.a(scanner.c.obj)
 .debug_frame   0x00004e44       0x48 mesh/core/libmesh_core_nrf52832_xxAA.a(internal_event.c.obj)
 .debug_frame   0x00004e8c       0x40 mesh/core/libmesh_core_nrf52832_xxAA.a(aes.c.obj)
 .debug_frame   0x00004ecc       0x6c mesh/core/libmesh_core_nrf52832_xxAA.a(msg_cache.c.obj)
 .debug_frame   0x00004f38      0x44c mesh/core/libmesh_core_nrf52832_xxAA.a(transport.c.obj)
 .debug_frame   0x00005384      0x184 mesh/core/libmesh_core_nrf52832_xxAA.a(packet_buffer.c.obj)
 .debug_frame   0x00005508      0x250 mesh/core/libmesh_core_nrf52832_xxAA.a(flash_manager_defrag.c.obj)
 .debug_frame   0x00005758       0xd0 mesh/core/libmesh_core_nrf52832_xxAA.a(fifo.c.obj)
 .debug_frame   0x00005828       0xa0 mesh/core/libmesh_core_nrf52832_xxAA.a(packet_mgr.c.obj)
 .debug_frame   0x000058c8      0x150 mesh/core/libmesh_core_nrf52832_xxAA.a(mesh_flash.c.obj)
 .debug_frame   0x00005a18       0x74 mesh/core/libmesh_core_nrf52832_xxAA.a(queue.c.obj)
 .debug_frame   0x00005a8c       0xa4 mesh/core/libmesh_core_nrf52832_xxAA.a(aes_cmac.c.obj)
 .debug_frame   0x00005b30       0xb8 mesh/core/libmesh_core_nrf52832_xxAA.a(msqueue.c.obj)
 .debug_frame   0x00005be8       0xa0 mesh/core/libmesh_core_nrf52832_xxAA.a(replay_cache.c.obj)
 .debug_frame   0x00005c88       0x54 mesh/core/libmesh_core_nrf52832_xxAA.a(nrf_flash.c.obj)
 .debug_frame   0x00005cdc      0x2d8 external/rtt/librtt_nrf52832_xxAA.a(SEGGER_RTT.c.obj)
 .debug_frame   0x00005fb4       0xac external/rtt/librtt_nrf52832_xxAA.a(SEGGER_RTT_printf.c.obj)
 .debug_frame   0x00006060      0x684 external/micro-ecc/libuECC_nrf52832_xxAA.a(uECC.c.obj)
 .debug_frame   0x000066e4       0x28 c:/a/gcc_arm/6/bin/../lib/gcc/arm-none-eabi/6.3.1/../../../../arm-none-eabi/lib/thumb/v7e-m/fpv4-sp/hard\libg_nano.a(lib_a-exit.o)
 .debug_frame   0x0000670c       0x2c c:/a/gcc_arm/6/bin/../lib/gcc/arm-none-eabi/6.3.1/../../../../arm-none-eabi/lib/thumb/v7e-m/fpv4-sp/hard\libg_nano.a(lib_a-init.o)
 .debug_frame   0x00006738       0x30 c:/a/gcc_arm/6/bin/../lib/gcc/arm-none-eabi/6.3.1/../../../../arm-none-eabi/lib/thumb/v7e-m/fpv4-sp/hard\libg_nano.a(lib_a-malloc.o)
 .debug_frame   0x00006768       0x28 c:/a/gcc_arm/6/bin/../lib/gcc/arm-none-eabi/6.3.1/../../../../arm-none-eabi/lib/thumb/v7e-m/fpv4-sp/hard\libg_nano.a(lib_a-memcmp.o)
 .debug_frame   0x00006790       0x28 c:/a/gcc_arm/6/bin/../lib/gcc/arm-none-eabi/6.3.1/../../../../arm-none-eabi/lib/thumb/v7e-m/fpv4-sp/hard\libg_nano.a(lib_a-memcpy-stub.o)
 .debug_frame   0x000067b8       0x20 c:/a/gcc_arm/6/bin/../lib/gcc/arm-none-eabi/6.3.1/../../../../arm-none-eabi/lib/thumb/v7e-m/fpv4-sp/hard\libg_nano.a(lib_a-memset.o)
 .debug_frame   0x000067d8       0x38 c:/a/gcc_arm/6/bin/../lib/gcc/arm-none-eabi/6.3.1/../../../../arm-none-eabi/lib/thumb/v7e-m/fpv4-sp/hard\libg_nano.a(lib_a-nano-freer.o)
 .debug_frame   0x00006810       0x2c c:/a/gcc_arm/6/bin/../lib/gcc/arm-none-eabi/6.3.1/../../../../arm-none-eabi/lib/thumb/v7e-m/fpv4-sp/hard\libg_nano.a(lib_a-nano-mallocr.o)
 .debug_frame   0x0000683c       0x2c c:/a/gcc_arm/6/bin/../lib/gcc/arm-none-eabi/6.3.1/../../../../arm-none-eabi/lib/thumb/v7e-m/fpv4-sp/hard\libg_nano.a(lib_a-sbrkr.o)
 .debug_frame   0x00006868       0x20 c:/a/gcc_arm/6/bin/../lib/gcc/arm-none-eabi/6.3.1/../../../../arm-none-eabi/lib/thumb/v7e-m/fpv4-sp/hard\libg_nano.a(lib_a-strcpy.o)
 .debug_frame   0x00006888       0x34 c:/a/gcc_arm/6/bin/../lib/gcc/arm-none-eabi/6.3.1/../../../../arm-none-eabi/lib/thumb/v7e-m/fpv4-sp/hard\libg_nano.a(lib_a-strrchr.o)
 .debug_frame   0x000068bc       0x30 c:/a/gcc_arm/6/bin/../lib/gcc/arm-none-eabi/6.3.1/../../../../arm-none-eabi/lib/thumb/v7e-m/fpv4-sp/hard\libg_nano.a(lib_a-mlock.o)
 .debug_frame   0x000068ec       0x5c c:/a/gcc_arm/6/bin/../lib/gcc/arm-none-eabi/6.3.1/../../../../arm-none-eabi/lib/thumb/v7e-m/fpv4-sp/hard\libg_nano.a(lib_a-reent.o)
 .debug_frame   0x00006948       0x20 c:/a/gcc_arm/6/bin/../lib/gcc/arm-none-eabi/6.3.1/../../../../arm-none-eabi/lib/thumb/v7e-m/fpv4-sp/hard\libg_nano.a(lib_a-strchr.o)
 .debug_frame   0x00006968       0x20 c:/a/gcc_arm/6/bin/../lib/gcc/arm-none-eabi/6.3.1/../../../../arm-none-eabi/lib/thumb/v7e-m/fpv4-sp/hard\libnosys.a(sbrk.o)
 .debug_frame   0x00006988       0x20 c:/a/gcc_arm/6/bin/../lib/gcc/arm-none-eabi/6.3.1/../../../../arm-none-eabi/lib/thumb/v7e-m/fpv4-sp/hard\libnosys.a(_exit.o)
