Archive member included to satisfy reference by file (symbol)

mesh/core/libmesh_core_nrf52832_xxAA.a(nrf_mesh_configure.c.obj)
                              examples/light_switch/client/CMakeFiles/light_switch_client_nrf52832_xxAA_s132_5.0.0.dir/__/__/__/mesh/prov/src/prov_beacon.c.obj (nrf_mesh_configure_device_uuid_get)
mesh/core/libmesh_core_nrf52832_xxAA.a(event.c.obj)
                              examples/light_switch/client/CMakeFiles/light_switch_client_nrf52832_xxAA_s132_5.0.0.dir/__/__/__/mesh/access/src/access.c.obj (event_handle)
mesh/core/libmesh_core_nrf52832_xxAA.a(packet_mgr.c.obj)
                              examples/light_switch/client/CMakeFiles/light_switch_client_nrf52832_xxAA_s132_5.0.0.dir/__/__/__/models/config/src/config_client.c.obj (packet_mgr_alloc)
mesh/core/libmesh_core_nrf52832_xxAA.a(net_state.c.obj)
                              examples/light_switch/client/CMakeFiles/light_switch_client_nrf52832_xxAA_s132_5.0.0.dir/__/__/__/mesh/access/src/device_state_manager.c.obj (net_state_flash_area_get)
mesh/core/libmesh_core_nrf52832_xxAA.a(nrf_mesh_utils.c.obj)
                              examples/light_switch/client/CMakeFiles/light_switch_client_nrf52832_xxAA_s132_5.0.0.dir/__/__/__/mesh/access/src/device_state_manager.c.obj (nrf_mesh_address_type_get)
mesh/core/libmesh_core_nrf52832_xxAA.a(nrf_mesh.c.obj)
                              examples/light_switch/client/CMakeFiles/light_switch_client_nrf52832_xxAA_s132_5.0.0.dir/__/__/nrf_mesh_sdk.c.obj (nrf_mesh_init)
mesh/core/libmesh_core_nrf52832_xxAA.a(hal.c.obj)
                              mesh/core/libmesh_core_nrf52832_xxAA.a(nrf_mesh.c.obj) (hal_lfclk_ppm_get)
mesh/core/libmesh_core_nrf52832_xxAA.a(timer_scheduler.c.obj)
                              mesh/core/libmesh_core_nrf52832_xxAA.a(nrf_mesh.c.obj) (timer_sch_init)
mesh/core/libmesh_core_nrf52832_xxAA.a(timer.c.obj)
                              mesh/core/libmesh_core_nrf52832_xxAA.a(timer_scheduler.c.obj) (timer_order_cb)
mesh/core/libmesh_core_nrf52832_xxAA.a(ticker.c.obj)
                              mesh/core/libmesh_core_nrf52832_xxAA.a(nrf_mesh.c.obj) (ticker_init)
mesh/core/libmesh_core_nrf52832_xxAA.a(rand.c.obj)
                              examples/light_switch/client/CMakeFiles/light_switch_client_nrf52832_xxAA_s132_5.0.0.dir/__/__/__/mesh/prov/src/prov_utils.c.obj (rand_hw_rng_get)
mesh/core/libmesh_core_nrf52832_xxAA.a(timeslot.c.obj)
                              mesh/core/libmesh_core_nrf52832_xxAA.a(nrf_mesh.c.obj) (timeslot_sd_event_handler)
mesh/core/libmesh_core_nrf52832_xxAA.a(bearer_event.c.obj)
                              mesh/core/libmesh_core_nrf52832_xxAA.a(nrf_mesh.c.obj) (bearer_event_init)
mesh/core/libmesh_core_nrf52832_xxAA.a(enc.c.obj)
                              examples/light_switch/client/CMakeFiles/light_switch_client_nrf52832_xxAA_s132_5.0.0.dir/__/__/__/mesh/prov/src/prov_utils.c.obj (enc_aes_cmac)
mesh/core/libmesh_core_nrf52832_xxAA.a(network.c.obj)
                              mesh/core/libmesh_core_nrf52832_xxAA.a(nrf_mesh.c.obj) (network_init)
mesh/core/libmesh_core_nrf52832_xxAA.a(nrf_mesh_keygen.c.obj)
                              examples/light_switch/client/CMakeFiles/light_switch_client_nrf52832_xxAA_s132_5.0.0.dir/__/__/__/mesh/access/src/device_state_manager.c.obj (nrf_mesh_keygen_aid)
mesh/core/libmesh_core_nrf52832_xxAA.a(list.c.obj)
                              mesh/core/libmesh_core_nrf52832_xxAA.a(event.c.obj) (list_add)
mesh/core/libmesh_core_nrf52832_xxAA.a(log.c.obj)
                              examples/light_switch/client/CMakeFiles/light_switch_client_nrf52832_xxAA_s132_5.0.0.dir/src/main.c.obj (log_callback_rtt)
mesh/core/libmesh_core_nrf52832_xxAA.a(flash_manager.c.obj)
                              mesh/core/libmesh_core_nrf52832_xxAA.a(nrf_mesh.c.obj) (flash_manager_init)
mesh/core/libmesh_core_nrf52832_xxAA.a(ccm_soft.c.obj)
                              mesh/core/libmesh_core_nrf52832_xxAA.a(enc.c.obj) (ccm_soft_encrypt)
mesh/core/libmesh_core_nrf52832_xxAA.a(beacon.c.obj)
                              mesh/core/libmesh_core_nrf52832_xxAA.a(nrf_mesh.c.obj) (beacon_init)
mesh/core/libmesh_core_nrf52832_xxAA.a(flash_manager_internal.c.obj)
                              mesh/core/libmesh_core_nrf52832_xxAA.a(flash_manager.c.obj) (entry_get)
mesh/core/libmesh_core_nrf52832_xxAA.a(core_tx.c.obj)
                              mesh/core/libmesh_core_nrf52832_xxAA.a(network.c.obj) (core_tx_packet_alloc)
mesh/core/libmesh_core_nrf52832_xxAA.a(heartbeat.c.obj)
                              mesh/core/libmesh_core_nrf52832_xxAA.a(network.c.obj) (heartbeat_on_feature_change_trigger)
mesh/core/libmesh_core_nrf52832_xxAA.a(net_beacon.c.obj)
                              mesh/core/libmesh_core_nrf52832_xxAA.a(network.c.obj) (net_beacon_init)
mesh/core/libmesh_core_nrf52832_xxAA.a(core_tx_adv.c.obj)
                              mesh/core/libmesh_core_nrf52832_xxAA.a(nrf_mesh.c.obj) (core_tx_adv_init)
mesh/core/libmesh_core_nrf52832_xxAA.a(ad_listener.c.obj)
                              mesh/core/libmesh_core_nrf52832_xxAA.a(nrf_mesh.c.obj) (ad_listener_subscribe)
mesh/core/libmesh_core_nrf52832_xxAA.a(ad_type_filter.c.obj)
                              mesh/core/libmesh_core_nrf52832_xxAA.a(ad_listener.c.obj) (bearer_adtype_filtering_set)
mesh/core/libmesh_core_nrf52832_xxAA.a(advertiser.c.obj)
                              mesh/core/libmesh_core_nrf52832_xxAA.a(nrf_mesh.c.obj) (advertiser_init)
mesh/core/libmesh_core_nrf52832_xxAA.a(bearer_handler.c.obj)
                              mesh/core/libmesh_core_nrf52832_xxAA.a(nrf_mesh.c.obj) (bearer_handler_init)
mesh/core/libmesh_core_nrf52832_xxAA.a(broadcast.c.obj)
                              mesh/core/libmesh_core_nrf52832_xxAA.a(advertiser.c.obj) (broadcast_send)
mesh/core/libmesh_core_nrf52832_xxAA.a(filter_engine.c.obj)
                              mesh/core/libmesh_core_nrf52832_xxAA.a(ad_type_filter.c.obj) (fen_filter_start)
mesh/core/libmesh_core_nrf52832_xxAA.a(radio_config.c.obj)
                              mesh/core/libmesh_core_nrf52832_xxAA.a(broadcast.c.obj) (radio_config_reset)
mesh/core/libmesh_core_nrf52832_xxAA.a(scanner.c.obj)
                              mesh/core/libmesh_core_nrf52832_xxAA.a(bearer_handler.c.obj) (scanner_radio_start)
mesh/core/libmesh_core_nrf52832_xxAA.a(internal_event.c.obj)
                              mesh/core/libmesh_core_nrf52832_xxAA.a(network.c.obj) (internal_event_push)
mesh/core/libmesh_core_nrf52832_xxAA.a(aes.c.obj)
                              mesh/core/libmesh_core_nrf52832_xxAA.a(enc.c.obj) (aes_encrypt)
mesh/core/libmesh_core_nrf52832_xxAA.a(msg_cache.c.obj)
                              mesh/core/libmesh_core_nrf52832_xxAA.a(nrf_mesh.c.obj) (msg_cache_init)
mesh/core/libmesh_core_nrf52832_xxAA.a(transport.c.obj)
                              mesh/core/libmesh_core_nrf52832_xxAA.a(nrf_mesh.c.obj) (transport_init)
mesh/core/libmesh_core_nrf52832_xxAA.a(packet_buffer.c.obj)
                              mesh/core/libmesh_core_nrf52832_xxAA.a(flash_manager.c.obj) (packet_buffer_init)
mesh/core/libmesh_core_nrf52832_xxAA.a(flash_manager_defrag.c.obj)
                              mesh/core/libmesh_core_nrf52832_xxAA.a(flash_manager.c.obj) (flash_manager_defrag_init)
mesh/core/libmesh_core_nrf52832_xxAA.a(fifo.c.obj)
                              mesh/core/libmesh_core_nrf52832_xxAA.a(bearer_event.c.obj) (fifo_init)
mesh/core/libmesh_core_nrf52832_xxAA.a(mesh_flash.c.obj)
                              mesh/core/libmesh_core_nrf52832_xxAA.a(flash_manager.c.obj) (mesh_flash_user_callback_set)
mesh/core/libmesh_core_nrf52832_xxAA.a(queue.c.obj)
                              mesh/core/libmesh_core_nrf52832_xxAA.a(bearer_event.c.obj) (queue_init)
mesh/core/libmesh_core_nrf52832_xxAA.a(aes_cmac.c.obj)
                              mesh/core/libmesh_core_nrf52832_xxAA.a(enc.c.obj) (aes_cmac)
mesh/core/libmesh_core_nrf52832_xxAA.a(nrf_mesh_opt.c.obj)
                              mesh/core/libmesh_core_nrf52832_xxAA.a(heartbeat.c.obj) (nrf_mesh_opt_get)
mesh/core/libmesh_core_nrf52832_xxAA.a(msqueue.c.obj)
                              mesh/core/libmesh_core_nrf52832_xxAA.a(mesh_flash.c.obj) (msq_get)
mesh/core/libmesh_core_nrf52832_xxAA.a(replay_cache.c.obj)
                              mesh/core/libmesh_core_nrf52832_xxAA.a(transport.c.obj) (replay_cache_add)
mesh/core/libmesh_core_nrf52832_xxAA.a(nrf_flash.c.obj)
                              mesh/core/libmesh_core_nrf52832_xxAA.a(mesh_flash.c.obj) (nrf_flash_erase)
external/rtt/librtt_nrf52832_xxAA.a(SEGGER_RTT.c.obj)
                              mesh/core/libmesh_core_nrf52832_xxAA.a(log.c.obj) (SEGGER_RTT_Write)
external/rtt/librtt_nrf52832_xxAA.a(SEGGER_RTT_printf.c.obj)
                              mesh/core/libmesh_core_nrf52832_xxAA.a(log.c.obj) (SEGGER_RTT_vprintf)
external/micro-ecc/libuECC_nrf52832_xxAA.a(uECC.c.obj)
                              examples/light_switch/client/CMakeFiles/light_switch_client_nrf52832_xxAA_s132_5.0.0.dir/__/__/__/mesh/prov/src/prov_utils.c.obj (uECC_secp256r1)
c:/a/gcc_arm/6/bin/../lib/gcc/arm-none-eabi/6.3.1/thumb/v7e-m/fpv4-sp/hard\libgcc.a(_aeabi_uldivmod.o)
                              examples/light_switch/client/CMakeFiles/light_switch_client_nrf52832_xxAA_s132_5.0.0.dir/__/__/common/src/rtt_input.c.obj (__aeabi_uldivmod)
c:/a/gcc_arm/6/bin/../lib/gcc/arm-none-eabi/6.3.1/thumb/v7e-m/fpv4-sp/hard\libgcc.a(_udivmoddi4.o)
                              c:/a/gcc_arm/6/bin/../lib/gcc/arm-none-eabi/6.3.1/thumb/v7e-m/fpv4-sp/hard\libgcc.a(_aeabi_uldivmod.o) (__udivmoddi4)
c:/a/gcc_arm/6/bin/../lib/gcc/arm-none-eabi/6.3.1/thumb/v7e-m/fpv4-sp/hard\libgcc.a(_dvmd_tls.o)
                              c:/a/gcc_arm/6/bin/../lib/gcc/arm-none-eabi/6.3.1/thumb/v7e-m/fpv4-sp/hard\libgcc.a(_aeabi_uldivmod.o) (__aeabi_ldiv0)
c:/a/gcc_arm/6/bin/../lib/gcc/arm-none-eabi/6.3.1/../../../../arm-none-eabi/lib/thumb/v7e-m/fpv4-sp/hard\libg_nano.a(lib_a-exit.o)
                              c:/a/gcc_arm/6/bin/../lib/gcc/arm-none-eabi/6.3.1/../../../../arm-none-eabi/lib/thumb/v7e-m/fpv4-sp/hard/crt0.o (exit)
c:/a/gcc_arm/6/bin/../lib/gcc/arm-none-eabi/6.3.1/../../../../arm-none-eabi/lib/thumb/v7e-m/fpv4-sp/hard\libg_nano.a(lib_a-impure.o)
                              c:/a/gcc_arm/6/bin/../lib/gcc/arm-none-eabi/6.3.1/../../../../arm-none-eabi/lib/thumb/v7e-m/fpv4-sp/hard\libg_nano.a(lib_a-exit.o) (_global_impure_ptr)
c:/a/gcc_arm/6/bin/../lib/gcc/arm-none-eabi/6.3.1/../../../../arm-none-eabi/lib/thumb/v7e-m/fpv4-sp/hard\libg_nano.a(lib_a-init.o)
                              c:/a/gcc_arm/6/bin/../lib/gcc/arm-none-eabi/6.3.1/../../../../arm-none-eabi/lib/thumb/v7e-m/fpv4-sp/hard/crt0.o (__libc_init_array)
c:/a/gcc_arm/6/bin/../lib/gcc/arm-none-eabi/6.3.1/../../../../arm-none-eabi/lib/thumb/v7e-m/fpv4-sp/hard\libg_nano.a(lib_a-malloc.o)
                              mesh/core/libmesh_core_nrf52832_xxAA.a(transport.c.obj) (malloc)
c:/a/gcc_arm/6/bin/../lib/gcc/arm-none-eabi/6.3.1/../../../../arm-none-eabi/lib/thumb/v7e-m/fpv4-sp/hard\libg_nano.a(lib_a-memcmp.o)
                              examples/light_switch/client/CMakeFiles/light_switch_client_nrf52832_xxAA_s132_5.0.0.dir/__/__/__/mesh/access/src/device_state_manager.c.obj (memcmp)
c:/a/gcc_arm/6/bin/../lib/gcc/arm-none-eabi/6.3.1/../../../../arm-none-eabi/lib/thumb/v7e-m/fpv4-sp/hard\libg_nano.a(lib_a-memcpy-stub.o)
                              examples/light_switch/client/CMakeFiles/light_switch_client_nrf52832_xxAA_s132_5.0.0.dir/__/__/__/models/config/src/config_client.c.obj (memcpy)
c:/a/gcc_arm/6/bin/../lib/gcc/arm-none-eabi/6.3.1/../../../../arm-none-eabi/lib/thumb/v7e-m/fpv4-sp/hard\libg_nano.a(lib_a-memset.o)
                              c:/a/gcc_arm/6/bin/../lib/gcc/arm-none-eabi/6.3.1/../../../../arm-none-eabi/lib/thumb/v7e-m/fpv4-sp/hard/crt0.o (memset)
c:/a/gcc_arm/6/bin/../lib/gcc/arm-none-eabi/6.3.1/../../../../arm-none-eabi/lib/thumb/v7e-m/fpv4-sp/hard\libg_nano.a(lib_a-nano-freer.o)
                              c:/a/gcc_arm/6/bin/../lib/gcc/arm-none-eabi/6.3.1/../../../../arm-none-eabi/lib/thumb/v7e-m/fpv4-sp/hard\libg_nano.a(lib_a-malloc.o) (_free_r)
c:/a/gcc_arm/6/bin/../lib/gcc/arm-none-eabi/6.3.1/../../../../arm-none-eabi/lib/thumb/v7e-m/fpv4-sp/hard\libg_nano.a(lib_a-nano-mallocr.o)
                              c:/a/gcc_arm/6/bin/../lib/gcc/arm-none-eabi/6.3.1/../../../../arm-none-eabi/lib/thumb/v7e-m/fpv4-sp/hard\libg_nano.a(lib_a-malloc.o) (_malloc_r)
c:/a/gcc_arm/6/bin/../lib/gcc/arm-none-eabi/6.3.1/../../../../arm-none-eabi/lib/thumb/v7e-m/fpv4-sp/hard\libg_nano.a(lib_a-sbrkr.o)
                              c:/a/gcc_arm/6/bin/../lib/gcc/arm-none-eabi/6.3.1/../../../../arm-none-eabi/lib/thumb/v7e-m/fpv4-sp/hard\libg_nano.a(lib_a-nano-mallocr.o) (_sbrk_r)
c:/a/gcc_arm/6/bin/../lib/gcc/arm-none-eabi/6.3.1/../../../../arm-none-eabi/lib/thumb/v7e-m/fpv4-sp/hard\libg_nano.a(lib_a-strcpy.o)
                              external/rtt/librtt_nrf52832_xxAA.a(SEGGER_RTT.c.obj) (strcpy)
c:/a/gcc_arm/6/bin/../lib/gcc/arm-none-eabi/6.3.1/../../../../arm-none-eabi/lib/thumb/v7e-m/fpv4-sp/hard\libg_nano.a(lib_a-strlen.o)
                              examples/light_switch/client/CMakeFiles/light_switch_client_nrf52832_xxAA_s132_5.0.0.dir/__/__/__/mesh/prov/src/prov_beacon.c.obj (strlen)
c:/a/gcc_arm/6/bin/../lib/gcc/arm-none-eabi/6.3.1/../../../../arm-none-eabi/lib/thumb/v7e-m/fpv4-sp/hard\libg_nano.a(lib_a-strrchr.o)
                              examples/light_switch/client/CMakeFiles/light_switch_client_nrf52832_xxAA_s132_5.0.0.dir/src/main.c.obj (strrchr)
c:/a/gcc_arm/6/bin/../lib/gcc/arm-none-eabi/6.3.1/../../../../arm-none-eabi/lib/thumb/v7e-m/fpv4-sp/hard\libg_nano.a(lib_a-mlock.o)
                              c:/a/gcc_arm/6/bin/../lib/gcc/arm-none-eabi/6.3.1/../../../../arm-none-eabi/lib/thumb/v7e-m/fpv4-sp/hard\libg_nano.a(lib_a-nano-freer.o) (__malloc_lock)
c:/a/gcc_arm/6/bin/../lib/gcc/arm-none-eabi/6.3.1/../../../../arm-none-eabi/lib/thumb/v7e-m/fpv4-sp/hard\libg_nano.a(lib_a-reent.o)
                              c:/a/gcc_arm/6/bin/../lib/gcc/arm-none-eabi/6.3.1/../../../../arm-none-eabi/lib/thumb/v7e-m/fpv4-sp/hard\libg_nano.a(lib_a-sbrkr.o) (errno)
c:/a/gcc_arm/6/bin/../lib/gcc/arm-none-eabi/6.3.1/../../../../arm-none-eabi/lib/thumb/v7e-m/fpv4-sp/hard\libg_nano.a(lib_a-strchr.o)
                              c:/a/gcc_arm/6/bin/../lib/gcc/arm-none-eabi/6.3.1/../../../../arm-none-eabi/lib/thumb/v7e-m/fpv4-sp/hard\libg_nano.a(lib_a-strrchr.o) (strchr)
c:/a/gcc_arm/6/bin/../lib/gcc/arm-none-eabi/6.3.1/../../../../arm-none-eabi/lib/thumb/v7e-m/fpv4-sp/hard\libnosys.a(sbrk.o)
                              c:/a/gcc_arm/6/bin/../lib/gcc/arm-none-eabi/6.3.1/../../../../arm-none-eabi/lib/thumb/v7e-m/fpv4-sp/hard\libg_nano.a(lib_a-sbrkr.o) (_sbrk)
c:/a/gcc_arm/6/bin/../lib/gcc/arm-none-eabi/6.3.1/../../../../arm-none-eabi/lib/thumb/v7e-m/fpv4-sp/hard\libnosys.a(_exit.o)
                              c:/a/gcc_arm/6/bin/../lib/gcc/arm-none-eabi/6.3.1/../../../../arm-none-eabi/lib/thumb/v7e-m/fpv4-sp/hard\libg_nano.a(lib_a-exit.o) (_exit)

Allocating common symbols
Common symbol       size              file

nrf_nvic_state      0xc               examples/light_switch/client/CMakeFiles/light_switch_client_nrf52832_xxAA_s132_5.0.0.dir/__/__/nrf_mesh_sdk.c.obj
errno               0x4               c:/a/gcc_arm/6/bin/../lib/gcc/arm-none-eabi/6.3.1/../../../../arm-none-eabi/lib/thumb/v7e-m/fpv4-sp/hard\libg_nano.a(lib_a-reent.o)
m_assertion_handler
                    0x4               mesh/core/libmesh_core_nrf52832_xxAA.a(nrf_mesh.c.obj)
_SEGGER_RTT         0x78              external/rtt/librtt_nrf52832_xxAA.a(SEGGER_RTT.c.obj)

Discarded input sections

 .text          0x00000000        0x0 c:/a/gcc_arm/6/bin/../lib/gcc/arm-none-eabi/6.3.1/thumb/v7e-m/fpv4-sp/hard/crti.o
 .data          0x00000000        0x0 c:/a/gcc_arm/6/bin/../lib/gcc/arm-none-eabi/6.3.1/thumb/v7e-m/fpv4-sp/hard/crti.o
 .bss           0x00000000        0x0 c:/a/gcc_arm/6/bin/../lib/gcc/arm-none-eabi/6.3.1/thumb/v7e-m/fpv4-sp/hard/crti.o
 .data          0x00000000        0x4 c:/a/gcc_arm/6/bin/../lib/gcc/arm-none-eabi/6.3.1/thumb/v7e-m/fpv4-sp/hard/crtbegin.o
 .data          0x00000000        0x0 c:/a/gcc_arm/6/bin/../lib/gcc/arm-none-eabi/6.3.1/../../../../arm-none-eabi/lib/thumb/v7e-m/fpv4-sp/hard/crt0.o
 .bss           0x00000000        0x0 c:/a/gcc_arm/6/bin/../lib/gcc/arm-none-eabi/6.3.1/../../../../arm-none-eabi/lib/thumb/v7e-m/fpv4-sp/hard/crt0.o
 .ARM.extab     0x00000000        0x0 c:/a/gcc_arm/6/bin/../lib/gcc/arm-none-eabi/6.3.1/../../../../arm-none-eabi/lib/thumb/v7e-m/fpv4-sp/hard/crt0.o
 .text          0x00000000        0x0 examples/light_switch/client/CMakeFiles/light_switch_client_nrf52832_xxAA_s132_5.0.0.dir/src/main.c.obj
 .data          0x00000000        0x0 examples/light_switch/client/CMakeFiles/light_switch_client_nrf52832_xxAA_s132_5.0.0.dir/src/main.c.obj
 .bss           0x00000000        0x0 examples/light_switch/client/CMakeFiles/light_switch_client_nrf52832_xxAA_s132_5.0.0.dir/src/main.c.obj
 .text          0x00000000        0x0 examples/light_switch/client/CMakeFiles/light_switch_client_nrf52832_xxAA_s132_5.0.0.dir/src/provisioner.c.obj
 .data          0x00000000        0x0 examples/light_switch/client/CMakeFiles/light_switch_client_nrf52832_xxAA_s132_5.0.0.dir/src/provisioner.c.obj
 .bss           0x00000000        0x0 examples/light_switch/client/CMakeFiles/light_switch_client_nrf52832_xxAA_s132_5.0.0.dir/src/provisioner.c.obj
 .text          0x00000000        0x0 examples/light_switch/client/CMakeFiles/light_switch_client_nrf52832_xxAA_s132_5.0.0.dir/__/__/nrf_mesh_sdk.c.obj
 .data          0x00000000        0x0 examples/light_switch/client/CMakeFiles/light_switch_client_nrf52832_xxAA_s132_5.0.0.dir/__/__/nrf_mesh_sdk.c.obj
 .bss           0x00000000        0x0 examples/light_switch/client/CMakeFiles/light_switch_client_nrf52832_xxAA_s132_5.0.0.dir/__/__/nrf_mesh_sdk.c.obj
 .text          0x00000000        0x0 examples/light_switch/client/CMakeFiles/light_switch_client_nrf52832_xxAA_s132_5.0.0.dir/__/__/common/src/rtt_input.c.obj
 .data          0x00000000        0x0 examples/light_switch/client/CMakeFiles/light_switch_client_nrf52832_xxAA_s132_5.0.0.dir/__/__/common/src/rtt_input.c.obj
 .bss           0x00000000        0x0 examples/light_switch/client/CMakeFiles/light_switch_client_nrf52832_xxAA_s132_5.0.0.dir/__/__/common/src/rtt_input.c.obj
 .text.rtt_input_disable
                0x00000000       0x24 examples/light_switch/client/CMakeFiles/light_switch_client_nrf52832_xxAA_s132_5.0.0.dir/__/__/common/src/rtt_input.c.obj
 .text          0x00000000        0x0 examples/light_switch/client/CMakeFiles/light_switch_client_nrf52832_xxAA_s132_5.0.0.dir/__/__/common/src/simple_hal.c.obj
 .data          0x00000000        0x0 examples/light_switch/client/CMakeFiles/light_switch_client_nrf52832_xxAA_s132_5.0.0.dir/__/__/common/src/simple_hal.c.obj
 .bss           0x00000000        0x0 examples/light_switch/client/CMakeFiles/light_switch_client_nrf52832_xxAA_s132_5.0.0.dir/__/__/common/src/simple_hal.c.obj
 .text.hal_led_mask_set
                0x00000000       0x12 examples/light_switch/client/CMakeFiles/light_switch_client_nrf52832_xxAA_s132_5.0.0.dir/__/__/common/src/simple_hal.c.obj
 .text          0x00000000        0x0 examples/light_switch/client/CMakeFiles/light_switch_client_nrf52832_xxAA_s132_5.0.0.dir/__/__/nrf_mesh_weak.c.obj
 .data          0x00000000        0x0 examples/light_switch/client/CMakeFiles/light_switch_client_nrf52832_xxAA_s132_5.0.0.dir/__/__/nrf_mesh_weak.c.obj
 .bss           0x00000000        0x0 examples/light_switch/client/CMakeFiles/light_switch_client_nrf52832_xxAA_s132_5.0.0.dir/__/__/nrf_mesh_weak.c.obj
 .text._weak_handler_ptr
                0x00000000        0x4 examples/light_switch/client/CMakeFiles/light_switch_client_nrf52832_xxAA_s132_5.0.0.dir/__/__/nrf_mesh_weak.c.obj
 .text          0x00000000        0x0 examples/light_switch/client/CMakeFiles/light_switch_client_nrf52832_xxAA_s132_5.0.0.dir/__/__/__/models/simple_on_off/src/simple_on_off_client.c.obj
 .data          0x00000000        0x0 examples/light_switch/client/CMakeFiles/light_switch_client_nrf52832_xxAA_s132_5.0.0.dir/__/__/__/models/simple_on_off/src/simple_on_off_client.c.obj
 .bss           0x00000000        0x0 examples/light_switch/client/CMakeFiles/light_switch_client_nrf52832_xxAA_s132_5.0.0.dir/__/__/__/models/simple_on_off/src/simple_on_off_client.c.obj
 .text.simple_on_off_client_get
                0x00000000       0x5c examples/light_switch/client/CMakeFiles/light_switch_client_nrf52832_xxAA_s132_5.0.0.dir/__/__/__/models/simple_on_off/src/simple_on_off_client.c.obj
 .text          0x00000000        0x0 examples/light_switch/client/CMakeFiles/light_switch_client_nrf52832_xxAA_s132_5.0.0.dir/__/__/__/models/config/src/config_client.c.obj
 .data          0x00000000        0x0 examples/light_switch/client/CMakeFiles/light_switch_client_nrf52832_xxAA_s132_5.0.0.dir/__/__/__/models/config/src/config_client.c.obj
 .bss           0x00000000        0x0 examples/light_switch/client/CMakeFiles/light_switch_client_nrf52832_xxAA_s132_5.0.0.dir/__/__/__/models/config/src/config_client.c.obj
 .text.config_client_appkey_delete
                0x00000000       0x6c examples/light_switch/client/CMakeFiles/light_switch_client_nrf52832_xxAA_s132_5.0.0.dir/__/__/__/models/config/src/config_client.c.obj
 .text.config_client_appkey_get
                0x00000000       0x5c examples/light_switch/client/CMakeFiles/light_switch_client_nrf52832_xxAA_s132_5.0.0.dir/__/__/__/models/config/src/config_client.c.obj
 .text.config_client_appkey_update
                0x00000000       0x74 examples/light_switch/client/CMakeFiles/light_switch_client_nrf52832_xxAA_s132_5.0.0.dir/__/__/__/models/config/src/config_client.c.obj
 .text.config_client_model_publication_get
                0x00000000       0x70 examples/light_switch/client/CMakeFiles/light_switch_client_nrf52832_xxAA_s132_5.0.0.dir/__/__/__/models/config/src/config_client.c.obj
 .text.config_client_net_beacon_get
                0x00000000       0x28 examples/light_switch/client/CMakeFiles/light_switch_client_nrf52832_xxAA_s132_5.0.0.dir/__/__/__/models/config/src/config_client.c.obj
 .text.config_client_net_beacon_set
                0x00000000       0x58 examples/light_switch/client/CMakeFiles/light_switch_client_nrf52832_xxAA_s132_5.0.0.dir/__/__/__/models/config/src/config_client.c.obj
 .text.config_client_default_ttl_get
                0x00000000        0xe examples/light_switch/client/CMakeFiles/light_switch_client_nrf52832_xxAA_s132_5.0.0.dir/__/__/__/models/config/src/config_client.c.obj
 .text.config_client_default_ttl_set
                0x00000000       0x60 examples/light_switch/client/CMakeFiles/light_switch_client_nrf52832_xxAA_s132_5.0.0.dir/__/__/__/models/config/src/config_client.c.obj
 .text.config_client_model_subscription_delete
                0x00000000       0x4c examples/light_switch/client/CMakeFiles/light_switch_client_nrf52832_xxAA_s132_5.0.0.dir/__/__/__/models/config/src/config_client.c.obj
 .text.config_client_model_subscription_delete_all
                0x00000000       0x70 examples/light_switch/client/CMakeFiles/light_switch_client_nrf52832_xxAA_s132_5.0.0.dir/__/__/__/models/config/src/config_client.c.obj
 .text.config_client_model_subscription_get
                0x00000000       0x7c examples/light_switch/client/CMakeFiles/light_switch_client_nrf52832_xxAA_s132_5.0.0.dir/__/__/__/models/config/src/config_client.c.obj
 .text.config_client_model_subscription_overwrite
                0x00000000       0x4c examples/light_switch/client/CMakeFiles/light_switch_client_nrf52832_xxAA_s132_5.0.0.dir/__/__/__/models/config/src/config_client.c.obj
 .text.config_client_relay_get
                0x00000000        0xe examples/light_switch/client/CMakeFiles/light_switch_client_nrf52832_xxAA_s132_5.0.0.dir/__/__/__/models/config/src/config_client.c.obj
 .text.config_client_relay_set
                0x00000000       0x74 examples/light_switch/client/CMakeFiles/light_switch_client_nrf52832_xxAA_s132_5.0.0.dir/__/__/__/models/config/src/config_client.c.obj
 .text.config_client_model_app_get
                0x00000000       0x7c examples/light_switch/client/CMakeFiles/light_switch_client_nrf52832_xxAA_s132_5.0.0.dir/__/__/__/models/config/src/config_client.c.obj
 .text.config_client_model_app_unbind
                0x00000000        0xe examples/light_switch/client/CMakeFiles/light_switch_client_nrf52832_xxAA_s132_5.0.0.dir/__/__/__/models/config/src/config_client.c.obj
 .text.config_client_netkey_add
                0x00000000       0x68 examples/light_switch/client/CMakeFiles/light_switch_client_nrf52832_xxAA_s132_5.0.0.dir/__/__/__/models/config/src/config_client.c.obj
 .text.config_client_netkey_delete
                0x00000000       0x5c examples/light_switch/client/CMakeFiles/light_switch_client_nrf52832_xxAA_s132_5.0.0.dir/__/__/__/models/config/src/config_client.c.obj
 .text.config_client_netkey_get
                0x00000000       0x28 examples/light_switch/client/CMakeFiles/light_switch_client_nrf52832_xxAA_s132_5.0.0.dir/__/__/__/models/config/src/config_client.c.obj
 .text.config_client_netkey_update
                0x00000000       0x68 examples/light_switch/client/CMakeFiles/light_switch_client_nrf52832_xxAA_s132_5.0.0.dir/__/__/__/models/config/src/config_client.c.obj
 .text.config_client_node_reset
                0x00000000       0x28 examples/light_switch/client/CMakeFiles/light_switch_client_nrf52832_xxAA_s132_5.0.0.dir/__/__/__/models/config/src/config_client.c.obj
 .text.config_client_key_refresh_phase_get
                0x00000000       0x5c examples/light_switch/client/CMakeFiles/light_switch_client_nrf52832_xxAA_s132_5.0.0.dir/__/__/__/models/config/src/config_client.c.obj
 .text.config_client_key_refresh_phase_set
                0x00000000       0x60 examples/light_switch/client/CMakeFiles/light_switch_client_nrf52832_xxAA_s132_5.0.0.dir/__/__/__/models/config/src/config_client.c.obj
 .text.config_client_friend_get
                0x00000000        0x4 examples/light_switch/client/CMakeFiles/light_switch_client_nrf52832_xxAA_s132_5.0.0.dir/__/__/__/models/config/src/config_client.c.obj
 .text.config_client_friend_set
                0x00000000        0x4 examples/light_switch/client/CMakeFiles/light_switch_client_nrf52832_xxAA_s132_5.0.0.dir/__/__/__/models/config/src/config_client.c.obj
 .text.config_client_gatt_proxy_get
                0x00000000        0x4 examples/light_switch/client/CMakeFiles/light_switch_client_nrf52832_xxAA_s132_5.0.0.dir/__/__/__/models/config/src/config_client.c.obj
 .text.config_client_gatt_proxy_set
                0x00000000        0x4 examples/light_switch/client/CMakeFiles/light_switch_client_nrf52832_xxAA_s132_5.0.0.dir/__/__/__/models/config/src/config_client.c.obj
 .text.config_client_node_identity_get
                0x00000000        0x4 examples/light_switch/client/CMakeFiles/light_switch_client_nrf52832_xxAA_s132_5.0.0.dir/__/__/__/models/config/src/config_client.c.obj
 .text.config_client_node_identity_set
                0x00000000        0x4 examples/light_switch/client/CMakeFiles/light_switch_client_nrf52832_xxAA_s132_5.0.0.dir/__/__/__/models/config/src/config_client.c.obj
 .text.config_client_heartbeat_publication_get
                0x00000000       0x26 examples/light_switch/client/CMakeFiles/light_switch_client_nrf52832_xxAA_s132_5.0.0.dir/__/__/__/models/config/src/config_client.c.obj
 .text.config_client_heartbeat_publication_set
                0x00000000       0x60 examples/light_switch/client/CMakeFiles/light_switch_client_nrf52832_xxAA_s132_5.0.0.dir/__/__/__/models/config/src/config_client.c.obj
 .text.config_client_heartbeat_subscription_get
                0x00000000       0x28 examples/light_switch/client/CMakeFiles/light_switch_client_nrf52832_xxAA_s132_5.0.0.dir/__/__/__/models/config/src/config_client.c.obj
 .text.config_client_heartbeat_subscription_set
                0x00000000       0x5c examples/light_switch/client/CMakeFiles/light_switch_client_nrf52832_xxAA_s132_5.0.0.dir/__/__/__/models/config/src/config_client.c.obj
 .text          0x00000000        0x0 examples/light_switch/client/CMakeFiles/light_switch_client_nrf52832_xxAA_s132_5.0.0.dir/__/__/__/models/health/src/health_client.c.obj
 .data          0x00000000        0x0 examples/light_switch/client/CMakeFiles/light_switch_client_nrf52832_xxAA_s132_5.0.0.dir/__/__/__/models/health/src/health_client.c.obj
 .bss           0x00000000        0x0 examples/light_switch/client/CMakeFiles/light_switch_client_nrf52832_xxAA_s132_5.0.0.dir/__/__/__/models/health/src/health_client.c.obj
 .text.reliable_status_cb
                0x00000000       0x2e examples/light_switch/client/CMakeFiles/light_switch_client_nrf52832_xxAA_s132_5.0.0.dir/__/__/__/models/health/src/health_client.c.obj
 .text.reliable_send
                0x00000000       0xc4 examples/light_switch/client/CMakeFiles/light_switch_client_nrf52832_xxAA_s132_5.0.0.dir/__/__/__/models/health/src/health_client.c.obj
 .text.health_client_fault_get
                0x00000000       0x1c examples/light_switch/client/CMakeFiles/light_switch_client_nrf52832_xxAA_s132_5.0.0.dir/__/__/__/models/health/src/health_client.c.obj
 .text.health_client_fault_clear
                0x00000000       0x50 examples/light_switch/client/CMakeFiles/light_switch_client_nrf52832_xxAA_s132_5.0.0.dir/__/__/__/models/health/src/health_client.c.obj
 .text.health_client_fault_test
                0x00000000       0x54 examples/light_switch/client/CMakeFiles/light_switch_client_nrf52832_xxAA_s132_5.0.0.dir/__/__/__/models/health/src/health_client.c.obj
 .text.health_client_period_get
                0x00000000       0x18 examples/light_switch/client/CMakeFiles/light_switch_client_nrf52832_xxAA_s132_5.0.0.dir/__/__/__/models/health/src/health_client.c.obj
 .text.health_client_period_set
                0x00000000       0x52 examples/light_switch/client/CMakeFiles/light_switch_client_nrf52832_xxAA_s132_5.0.0.dir/__/__/__/models/health/src/health_client.c.obj
 .text.health_client_attention_get
                0x00000000       0x18 examples/light_switch/client/CMakeFiles/light_switch_client_nrf52832_xxAA_s132_5.0.0.dir/__/__/__/models/health/src/health_client.c.obj
 .text.health_client_attention_set
                0x00000000       0x52 examples/light_switch/client/CMakeFiles/light_switch_client_nrf52832_xxAA_s132_5.0.0.dir/__/__/__/models/health/src/health_client.c.obj
 .text          0x00000000        0x0 examples/light_switch/client/CMakeFiles/light_switch_client_nrf52832_xxAA_s132_5.0.0.dir/__/__/__/mesh/access/src/access_publish.c.obj
 .data          0x00000000        0x0 examples/light_switch/client/CMakeFiles/light_switch_client_nrf52832_xxAA_s132_5.0.0.dir/__/__/__/mesh/access/src/access_publish.c.obj
 .bss           0x00000000        0x0 examples/light_switch/client/CMakeFiles/light_switch_client_nrf52832_xxAA_s132_5.0.0.dir/__/__/__/mesh/access/src/access_publish.c.obj
 .text.access_publish_period_set
                0x00000000       0x6c examples/light_switch/client/CMakeFiles/light_switch_client_nrf52832_xxAA_s132_5.0.0.dir/__/__/__/mesh/access/src/access_publish.c.obj
 .text.access_publish_period_get
                0x00000000       0x30 examples/light_switch/client/CMakeFiles/light_switch_client_nrf52832_xxAA_s132_5.0.0.dir/__/__/__/mesh/access/src/access_publish.c.obj
 .text          0x00000000        0x0 examples/light_switch/client/CMakeFiles/light_switch_client_nrf52832_xxAA_s132_5.0.0.dir/__/__/__/mesh/access/src/access.c.obj
 .data          0x00000000        0x0 examples/light_switch/client/CMakeFiles/light_switch_client_nrf52832_xxAA_s132_5.0.0.dir/__/__/__/mesh/access/src/access.c.obj
 .bss           0x00000000        0x0 examples/light_switch/client/CMakeFiles/light_switch_client_nrf52832_xxAA_s132_5.0.0.dir/__/__/__/mesh/access/src/access.c.obj
 .text.access_clear
                0x00000000       0x12 examples/light_switch/client/CMakeFiles/light_switch_client_nrf52832_xxAA_s132_5.0.0.dir/__/__/__/mesh/access/src/access.c.obj
 .text.access_model_reply
                0x00000000       0x12 examples/light_switch/client/CMakeFiles/light_switch_client_nrf52832_xxAA_s132_5.0.0.dir/__/__/__/mesh/access/src/access.c.obj
 .text.access_model_publish_period_set
                0x00000000       0x6c examples/light_switch/client/CMakeFiles/light_switch_client_nrf52832_xxAA_s132_5.0.0.dir/__/__/__/mesh/access/src/access.c.obj
 .text.access_model_publish_period_get
                0x00000000       0x3c examples/light_switch/client/CMakeFiles/light_switch_client_nrf52832_xxAA_s132_5.0.0.dir/__/__/__/mesh/access/src/access.c.obj
 .text.access_model_subscription_lists_share
                0x00000000       0x4c examples/light_switch/client/CMakeFiles/light_switch_client_nrf52832_xxAA_s132_5.0.0.dir/__/__/__/mesh/access/src/access.c.obj
 .text.access_model_subscription_add
                0x00000000       0x60 examples/light_switch/client/CMakeFiles/light_switch_client_nrf52832_xxAA_s132_5.0.0.dir/__/__/__/mesh/access/src/access.c.obj
 .text.access_model_subscription_remove
                0x00000000       0x60 examples/light_switch/client/CMakeFiles/light_switch_client_nrf52832_xxAA_s132_5.0.0.dir/__/__/__/mesh/access/src/access.c.obj
 .text.access_model_subscriptions_get
                0x00000000       0x7c examples/light_switch/client/CMakeFiles/light_switch_client_nrf52832_xxAA_s132_5.0.0.dir/__/__/__/mesh/access/src/access.c.obj
 .text.access_model_application_unbind
                0x00000000       0x50 examples/light_switch/client/CMakeFiles/light_switch_client_nrf52832_xxAA_s132_5.0.0.dir/__/__/__/mesh/access/src/access.c.obj
 .text.access_model_applications_get
                0x00000000       0x58 examples/light_switch/client/CMakeFiles/light_switch_client_nrf52832_xxAA_s132_5.0.0.dir/__/__/__/mesh/access/src/access.c.obj
 .text.access_model_publish_application_get
                0x00000000       0x28 examples/light_switch/client/CMakeFiles/light_switch_client_nrf52832_xxAA_s132_5.0.0.dir/__/__/__/mesh/access/src/access.c.obj
 .text.access_default_ttl_set
                0x00000000       0x10 examples/light_switch/client/CMakeFiles/light_switch_client_nrf52832_xxAA_s132_5.0.0.dir/__/__/__/mesh/access/src/access.c.obj
 .text.access_default_ttl_get
                0x00000000        0xc examples/light_switch/client/CMakeFiles/light_switch_client_nrf52832_xxAA_s132_5.0.0.dir/__/__/__/mesh/access/src/access.c.obj
 .text.access_model_publish_ttl_set
                0x00000000       0x40 examples/light_switch/client/CMakeFiles/light_switch_client_nrf52832_xxAA_s132_5.0.0.dir/__/__/__/mesh/access/src/access.c.obj
 .text.access_element_location_set
                0x00000000       0x2c examples/light_switch/client/CMakeFiles/light_switch_client_nrf52832_xxAA_s132_5.0.0.dir/__/__/__/mesh/access/src/access.c.obj
 .text.access_element_location_get
                0x00000000       0x20 examples/light_switch/client/CMakeFiles/light_switch_client_nrf52832_xxAA_s132_5.0.0.dir/__/__/__/mesh/access/src/access.c.obj
 .text.access_element_sig_model_count_get
                0x00000000       0x24 examples/light_switch/client/CMakeFiles/light_switch_client_nrf52832_xxAA_s132_5.0.0.dir/__/__/__/mesh/access/src/access.c.obj
 .text.access_element_vendor_model_count_get
                0x00000000       0x24 examples/light_switch/client/CMakeFiles/light_switch_client_nrf52832_xxAA_s132_5.0.0.dir/__/__/__/mesh/access/src/access.c.obj
 .text.access_model_id_get
                0x00000000       0x2c examples/light_switch/client/CMakeFiles/light_switch_client_nrf52832_xxAA_s132_5.0.0.dir/__/__/__/mesh/access/src/access.c.obj
 .text.access_handle_get
                0x00000000       0x50 examples/light_switch/client/CMakeFiles/light_switch_client_nrf52832_xxAA_s132_5.0.0.dir/__/__/__/mesh/access/src/access.c.obj
 .text.access_element_models_get
                0x00000000       0x50 examples/light_switch/client/CMakeFiles/light_switch_client_nrf52832_xxAA_s132_5.0.0.dir/__/__/__/mesh/access/src/access.c.obj
 .text          0x00000000        0x0 examples/light_switch/client/CMakeFiles/light_switch_client_nrf52832_xxAA_s132_5.0.0.dir/__/__/__/mesh/access/src/access_reliable.c.obj
 .data          0x00000000        0x0 examples/light_switch/client/CMakeFiles/light_switch_client_nrf52832_xxAA_s132_5.0.0.dir/__/__/__/mesh/access/src/access_reliable.c.obj
 .bss           0x00000000        0x0 examples/light_switch/client/CMakeFiles/light_switch_client_nrf52832_xxAA_s132_5.0.0.dir/__/__/__/mesh/access/src/access_reliable.c.obj
 .text.access_reliable_cancel_all
                0x00000000       0x34 examples/light_switch/client/CMakeFiles/light_switch_client_nrf52832_xxAA_s132_5.0.0.dir/__/__/__/mesh/access/src/access_reliable.c.obj
 .text.access_model_reliable_cancel
                0x00000000       0x44 examples/light_switch/client/CMakeFiles/light_switch_client_nrf52832_xxAA_s132_5.0.0.dir/__/__/__/mesh/access/src/access_reliable.c.obj
 .text          0x00000000        0x0 examples/light_switch/client/CMakeFiles/light_switch_client_nrf52832_xxAA_s132_5.0.0.dir/__/__/__/mesh/access/src/device_state_manager.c.obj
 .data          0x00000000        0x0 examples/light_switch/client/CMakeFiles/light_switch_client_nrf52832_xxAA_s132_5.0.0.dir/__/__/__/mesh/access/src/device_state_manager.c.obj
 .bss           0x00000000        0x0 examples/light_switch/client/CMakeFiles/light_switch_client_nrf52832_xxAA_s132_5.0.0.dir/__/__/__/mesh/access/src/device_state_manager.c.obj
 .text.add_address_virtual
                0x00000000       0x70 examples/light_switch/client/CMakeFiles/light_switch_client_nrf52832_xxAA_s132_5.0.0.dir/__/__/__/mesh/access/src/device_state_manager.c.obj
 .text.dsm_has_unflashed_data
                0x00000000       0x24 examples/light_switch/client/CMakeFiles/light_switch_client_nrf52832_xxAA_s132_5.0.0.dir/__/__/__/mesh/access/src/device_state_manager.c.obj
 .text.dsm_clear
                0x00000000       0x6c examples/light_switch/client/CMakeFiles/light_switch_client_nrf52832_xxAA_s132_5.0.0.dir/__/__/__/mesh/access/src/device_state_manager.c.obj
 .text.dsm_address_publish_virtual_add
                0x00000000        0x6 examples/light_switch/client/CMakeFiles/light_switch_client_nrf52832_xxAA_s132_5.0.0.dir/__/__/__/mesh/access/src/device_state_manager.c.obj
 .text.dsm_address_subscription_add
                0x00000000        0xc examples/light_switch/client/CMakeFiles/light_switch_client_nrf52832_xxAA_s132_5.0.0.dir/__/__/__/mesh/access/src/device_state_manager.c.obj
 .text.dsm_address_subscription_virtual_add
                0x00000000        0x6 examples/light_switch/client/CMakeFiles/light_switch_client_nrf52832_xxAA_s132_5.0.0.dir/__/__/__/mesh/access/src/device_state_manager.c.obj
 .text.dsm_address_subscription_count_get
                0x00000000       0x58 examples/light_switch/client/CMakeFiles/light_switch_client_nrf52832_xxAA_s132_5.0.0.dir/__/__/__/mesh/access/src/device_state_manager.c.obj
 .text.dsm_address_subscription_remove
                0x00000000       0x58 examples/light_switch/client/CMakeFiles/light_switch_client_nrf52832_xxAA_s132_5.0.0.dir/__/__/__/mesh/access/src/device_state_manager.c.obj
 .text.dsm_net_key_index_to_subnet_handle
                0x00000000       0x1c examples/light_switch/client/CMakeFiles/light_switch_client_nrf52832_xxAA_s132_5.0.0.dir/__/__/__/mesh/access/src/device_state_manager.c.obj
 .text.dsm_subnet_handle_get
                0x00000000        0xc examples/light_switch/client/CMakeFiles/light_switch_client_nrf52832_xxAA_s132_5.0.0.dir/__/__/__/mesh/access/src/device_state_manager.c.obj
 .text.dsm_subnet_handle_to_netkey_index
                0x00000000       0x30 examples/light_switch/client/CMakeFiles/light_switch_client_nrf52832_xxAA_s132_5.0.0.dir/__/__/__/mesh/access/src/device_state_manager.c.obj
 .text.dsm_appkey_index_to_appkey_handle
                0x00000000       0x1c examples/light_switch/client/CMakeFiles/light_switch_client_nrf52832_xxAA_s132_5.0.0.dir/__/__/__/mesh/access/src/device_state_manager.c.obj
 .text.dsm_appkey_handle_to_appkey_index
                0x00000000       0x30 examples/light_switch/client/CMakeFiles/light_switch_client_nrf52832_xxAA_s132_5.0.0.dir/__/__/__/mesh/access/src/device_state_manager.c.obj
 .text.dsm_subnet_kr_phase_get
                0x00000000       0x2c examples/light_switch/client/CMakeFiles/light_switch_client_nrf52832_xxAA_s132_5.0.0.dir/__/__/__/mesh/access/src/device_state_manager.c.obj
 .text.dsm_subnet_update
                0x00000000       0xa4 examples/light_switch/client/CMakeFiles/light_switch_client_nrf52832_xxAA_s132_5.0.0.dir/__/__/__/mesh/access/src/device_state_manager.c.obj
 .text.dsm_appkey_update
                0x00000000       0x8c examples/light_switch/client/CMakeFiles/light_switch_client_nrf52832_xxAA_s132_5.0.0.dir/__/__/__/mesh/access/src/device_state_manager.c.obj
 .text.dsm_appkey_delete
                0x00000000       0x2c examples/light_switch/client/CMakeFiles/light_switch_client_nrf52832_xxAA_s132_5.0.0.dir/__/__/__/mesh/access/src/device_state_manager.c.obj
 .text.dsm_subnet_delete
                0x00000000       0x94 examples/light_switch/client/CMakeFiles/light_switch_client_nrf52832_xxAA_s132_5.0.0.dir/__/__/__/mesh/access/src/device_state_manager.c.obj
 .text.dsm_beacon_secmat_get
                0x00000000       0x2c examples/light_switch/client/CMakeFiles/light_switch_client_nrf52832_xxAA_s132_5.0.0.dir/__/__/__/mesh/access/src/device_state_manager.c.obj
 .text.dsm_net_secmat_from_keyindex_get
                0x00000000       0x30 examples/light_switch/client/CMakeFiles/light_switch_client_nrf52832_xxAA_s132_5.0.0.dir/__/__/__/mesh/access/src/device_state_manager.c.obj
 .text.dsm_proxy_identity_get
                0x00000000        0x4 examples/light_switch/client/CMakeFiles/light_switch_client_nrf52832_xxAA_s132_5.0.0.dir/__/__/__/mesh/access/src/device_state_manager.c.obj
 .text          0x00000000        0x0 examples/light_switch/client/CMakeFiles/light_switch_client_nrf52832_xxAA_s132_5.0.0.dir/__/__/__/mesh/prov/src/prov_provisioner.c.obj
 .data          0x00000000        0x0 examples/light_switch/client/CMakeFiles/light_switch_client_nrf52832_xxAA_s132_5.0.0.dir/__/__/__/mesh/prov/src/prov_provisioner.c.obj
 .bss           0x00000000        0x0 examples/light_switch/client/CMakeFiles/light_switch_client_nrf52832_xxAA_s132_5.0.0.dir/__/__/__/mesh/prov/src/prov_provisioner.c.obj
 .text.prov_provisioner_shared_secret
                0x00000000       0x28 examples/light_switch/client/CMakeFiles/light_switch_client_nrf52832_xxAA_s132_5.0.0.dir/__/__/__/mesh/prov/src/prov_provisioner.c.obj
 .text.prov_provisioner_oob_pubkey
                0x00000000       0x30 examples/light_switch/client/CMakeFiles/light_switch_client_nrf52832_xxAA_s132_5.0.0.dir/__/__/__/mesh/prov/src/prov_provisioner.c.obj
 .text          0x00000000        0x0 examples/light_switch/client/CMakeFiles/light_switch_client_nrf52832_xxAA_s132_5.0.0.dir/__/__/__/mesh/prov/src/nrf_mesh_prov.c.obj
 .data          0x00000000        0x0 examples/light_switch/client/CMakeFiles/light_switch_client_nrf52832_xxAA_s132_5.0.0.dir/__/__/__/mesh/prov/src/nrf_mesh_prov.c.obj
 .bss           0x00000000        0x0 examples/light_switch/client/CMakeFiles/light_switch_client_nrf52832_xxAA_s132_5.0.0.dir/__/__/__/mesh/prov/src/nrf_mesh_prov.c.obj
 .text.nrf_mesh_prov_listen
                0x00000000       0x30 examples/light_switch/client/CMakeFiles/light_switch_client_nrf52832_xxAA_s132_5.0.0.dir/__/__/__/mesh/prov/src/nrf_mesh_prov.c.obj
 .text.nrf_mesh_prov_shared_secret_provide
                0x00000000        0xe examples/light_switch/client/CMakeFiles/light_switch_client_nrf52832_xxAA_s132_5.0.0.dir/__/__/__/mesh/prov/src/nrf_mesh_prov.c.obj
 .text.nrf_mesh_prov_pubkey_provide
                0x00000000       0x10 examples/light_switch/client/CMakeFiles/light_switch_client_nrf52832_xxAA_s132_5.0.0.dir/__/__/__/mesh/prov/src/nrf_mesh_prov.c.obj
 .text.nrf_mesh_prov_scan_stop
                0x00000000        0x4 examples/light_switch/client/CMakeFiles/light_switch_client_nrf52832_xxAA_s132_5.0.0.dir/__/__/__/mesh/prov/src/nrf_mesh_prov.c.obj
 .text          0x00000000        0x0 examples/light_switch/client/CMakeFiles/light_switch_client_nrf52832_xxAA_s132_5.0.0.dir/__/__/__/mesh/prov/src/provisioning.c.obj
 .data          0x00000000        0x0 examples/light_switch/client/CMakeFiles/light_switch_client_nrf52832_xxAA_s132_5.0.0.dir/__/__/__/mesh/prov/src/provisioning.c.obj
 .bss           0x00000000        0x0 examples/light_switch/client/CMakeFiles/light_switch_client_nrf52832_xxAA_s132_5.0.0.dir/__/__/__/mesh/prov/src/provisioning.c.obj
 .text.prov_tx_capabilities
                0x00000000       0x1e examples/light_switch/client/CMakeFiles/light_switch_client_nrf52832_xxAA_s132_5.0.0.dir/__/__/__/mesh/prov/src/provisioning.c.obj
 .text.prov_tx_input_complete
                0x00000000       0x16 examples/light_switch/client/CMakeFiles/light_switch_client_nrf52832_xxAA_s132_5.0.0.dir/__/__/__/mesh/prov/src/provisioning.c.obj
 .text.prov_tx_complete
                0x00000000       0x16 examples/light_switch/client/CMakeFiles/light_switch_client_nrf52832_xxAA_s132_5.0.0.dir/__/__/__/mesh/prov/src/provisioning.c.obj
 .text.prov_tx_failed
                0x00000000       0x1a examples/light_switch/client/CMakeFiles/light_switch_client_nrf52832_xxAA_s132_5.0.0.dir/__/__/__/mesh/prov/src/provisioning.c.obj
 .text.prov_tx  0x00000000        0x4 examples/light_switch/client/CMakeFiles/light_switch_client_nrf52832_xxAA_s132_5.0.0.dir/__/__/__/mesh/prov/src/provisioning.c.obj
 .text          0x00000000        0x0 examples/light_switch/client/CMakeFiles/light_switch_client_nrf52832_xxAA_s132_5.0.0.dir/__/__/__/mesh/prov/src/prov_beacon.c.obj
 .data          0x00000000        0x0 examples/light_switch/client/CMakeFiles/light_switch_client_nrf52832_xxAA_s132_5.0.0.dir/__/__/__/mesh/prov/src/prov_beacon.c.obj
 .bss           0x00000000        0x0 examples/light_switch/client/CMakeFiles/light_switch_client_nrf52832_xxAA_s132_5.0.0.dir/__/__/__/mesh/prov/src/prov_beacon.c.obj
 .text.prov_beacon_scan_stop
                0x00000000        0xc examples/light_switch/client/CMakeFiles/light_switch_client_nrf52832_xxAA_s132_5.0.0.dir/__/__/__/mesh/prov/src/prov_beacon.c.obj
 .text          0x00000000        0x0 examples/light_switch/client/CMakeFiles/light_switch_client_nrf52832_xxAA_s132_5.0.0.dir/__/__/__/mesh/prov/src/prov_utils.c.obj
 .data          0x00000000        0x0 examples/light_switch/client/CMakeFiles/light_switch_client_nrf52832_xxAA_s132_5.0.0.dir/__/__/__/mesh/prov/src/prov_utils.c.obj
 .bss           0x00000000        0x0 examples/light_switch/client/CMakeFiles/light_switch_client_nrf52832_xxAA_s132_5.0.0.dir/__/__/__/mesh/prov/src/prov_utils.c.obj
 .text.prov_utils_opt_set
                0x00000000       0x20 examples/light_switch/client/CMakeFiles/light_switch_client_nrf52832_xxAA_s132_5.0.0.dir/__/__/__/mesh/prov/src/prov_utils.c.obj
 .text          0x00000000        0x0 examples/light_switch/client/CMakeFiles/light_switch_client_nrf52832_xxAA_s132_5.0.0.dir/__/__/__/mesh/prov/src/prov_bearer_adv.c.obj
 .data          0x00000000        0x0 examples/light_switch/client/CMakeFiles/light_switch_client_nrf52832_xxAA_s132_5.0.0.dir/__/__/__/mesh/prov/src/prov_bearer_adv.c.obj
 .bss           0x00000000        0x0 examples/light_switch/client/CMakeFiles/light_switch_client_nrf52832_xxAA_s132_5.0.0.dir/__/__/__/mesh/prov/src/prov_bearer_adv.c.obj
 .text          0x00000000        0x0 examples/light_switch/client/CMakeFiles/light_switch_client_nrf52832_xxAA_s132_5.0.0.dir/__/__/__/external/nRF5_SDK_14.2.0_17b948a/components/toolchain/system_nrf52.c.obj
 .data          0x00000000        0x0 examples/light_switch/client/CMakeFiles/light_switch_client_nrf52832_xxAA_s132_5.0.0.dir/__/__/__/external/nRF5_SDK_14.2.0_17b948a/components/toolchain/system_nrf52.c.obj
 .bss           0x00000000        0x0 examples/light_switch/client/CMakeFiles/light_switch_client_nrf52832_xxAA_s132_5.0.0.dir/__/__/__/external/nRF5_SDK_14.2.0_17b948a/components/toolchain/system_nrf52.c.obj
 .text.SystemCoreClockUpdate
                0x00000000       0x10 examples/light_switch/client/CMakeFiles/light_switch_client_nrf52832_xxAA_s132_5.0.0.dir/__/__/__/external/nRF5_SDK_14.2.0_17b948a/components/toolchain/system_nrf52.c.obj
 .data          0x00000000        0x0 examples/light_switch/client/CMakeFiles/light_switch_client_nrf52832_xxAA_s132_5.0.0.dir/__/__/__/external/nRF5_SDK_14.2.0_17b948a/components/toolchain/gcc/gcc_startup_nrf52.S.obj
 .bss           0x00000000        0x0 examples/light_switch/client/CMakeFiles/light_switch_client_nrf52832_xxAA_s132_5.0.0.dir/__/__/__/external/nRF5_SDK_14.2.0_17b948a/components/toolchain/gcc/gcc_startup_nrf52.S.obj
 .text          0x00000000        0x0 mesh/core/libmesh_core_nrf52832_xxAA.a(nrf_mesh_configure.c.obj)
 .data          0x00000000        0x0 mesh/core/libmesh_core_nrf52832_xxAA.a(nrf_mesh_configure.c.obj)
 .bss           0x00000000        0x0 mesh/core/libmesh_core_nrf52832_xxAA.a(nrf_mesh_configure.c.obj)
 .text.nrf_mesh_configure_device_uuid_set
                0x00000000       0x10 mesh/core/libmesh_core_nrf52832_xxAA.a(nrf_mesh_configure.c.obj)
 .text          0x00000000        0x0 mesh/core/libmesh_core_nrf52832_xxAA.a(event.c.obj)
 .data          0x00000000        0x0 mesh/core/libmesh_core_nrf52832_xxAA.a(event.c.obj)
 .bss           0x00000000        0x0 mesh/core/libmesh_core_nrf52832_xxAA.a(event.c.obj)
 .text          0x00000000        0x0 mesh/core/libmesh_core_nrf52832_xxAA.a(packet_mgr.c.obj)
 .data          0x00000000        0x0 mesh/core/libmesh_core_nrf52832_xxAA.a(packet_mgr.c.obj)
 .bss           0x00000000        0x0 mesh/core/libmesh_core_nrf52832_xxAA.a(packet_mgr.c.obj)
 .text.packet_mgr_get_free_space
                0x00000000       0x1c mesh/core/libmesh_core_nrf52832_xxAA.a(packet_mgr.c.obj)
 .text.packet_mgr_refcount_get
                0x00000000        0x6 mesh/core/libmesh_core_nrf52832_xxAA.a(packet_mgr.c.obj)
 .text.packet_mgr_size_get
                0x00000000        0x6 mesh/core/libmesh_core_nrf52832_xxAA.a(packet_mgr.c.obj)
 .text          0x00000000        0x0 mesh/core/libmesh_core_nrf52832_xxAA.a(net_state.c.obj)
 .data          0x00000000        0x0 mesh/core/libmesh_core_nrf52832_xxAA.a(net_state.c.obj)
 .bss           0x00000000        0x0 mesh/core/libmesh_core_nrf52832_xxAA.a(net_state.c.obj)
 .text.net_state_reset
                0x00000000       0x3c mesh/core/libmesh_core_nrf52832_xxAA.a(net_state.c.obj)
 .text.net_state_iv_update_test_mode_set
                0x00000000        0xc mesh/core/libmesh_core_nrf52832_xxAA.a(net_state.c.obj)
 .data.mem_listener.9736
                0x00000000       0x10 mesh/core/libmesh_core_nrf52832_xxAA.a(net_state.c.obj)
 .text          0x00000000        0x0 mesh/core/libmesh_core_nrf52832_xxAA.a(nrf_mesh_utils.c.obj)
 .data          0x00000000        0x0 mesh/core/libmesh_core_nrf52832_xxAA.a(nrf_mesh_utils.c.obj)
 .bss           0x00000000        0x0 mesh/core/libmesh_core_nrf52832_xxAA.a(nrf_mesh_utils.c.obj)
 .text.nrf_mesh_rand_get
                0x00000000       0x10 mesh/core/libmesh_core_nrf52832_xxAA.a(nrf_mesh_utils.c.obj)
 .text.nrf_mesh_gap_address_type_get
                0x00000000       0x3c mesh/core/libmesh_core_nrf52832_xxAA.a(nrf_mesh_utils.c.obj)
 .text          0x00000000        0x0 mesh/core/libmesh_core_nrf52832_xxAA.a(nrf_mesh.c.obj)
 .data          0x00000000        0x0 mesh/core/libmesh_core_nrf52832_xxAA.a(nrf_mesh.c.obj)
 .bss           0x00000000        0x0 mesh/core/libmesh_core_nrf52832_xxAA.a(nrf_mesh.c.obj)
 .text.nrf_mesh_disable
                0x00000000       0x28 mesh/core/libmesh_core_nrf52832_xxAA.a(nrf_mesh.c.obj)
 .text.nrf_mesh_process
                0x00000000        0x4 mesh/core/libmesh_core_nrf52832_xxAA.a(nrf_mesh.c.obj)
 .text.nrf_mesh_evt_handler_remove
                0x00000000        0x4 mesh/core/libmesh_core_nrf52832_xxAA.a(nrf_mesh.c.obj)
 .text.nrf_mesh_rx_cb_set
                0x00000000        0xc mesh/core/libmesh_core_nrf52832_xxAA.a(nrf_mesh.c.obj)
 .text.nrf_mesh_rx_cb_clear
                0x00000000        0xc mesh/core/libmesh_core_nrf52832_xxAA.a(nrf_mesh.c.obj)
 .text          0x00000000        0x0 mesh/core/libmesh_core_nrf52832_xxAA.a(hal.c.obj)
 .data          0x00000000        0x0 mesh/core/libmesh_core_nrf52832_xxAA.a(hal.c.obj)
 .bss           0x00000000        0x0 mesh/core/libmesh_core_nrf52832_xxAA.a(hal.c.obj)
 .text.sd_power_reset_reason_clr
                0x00000000        0x4 mesh/core/libmesh_core_nrf52832_xxAA.a(hal.c.obj)
 .text.sd_power_gpregret_set
                0x00000000        0x4 mesh/core/libmesh_core_nrf52832_xxAA.a(hal.c.obj)
 .text.hal_device_reset
                0x00000000       0x38 mesh/core/libmesh_core_nrf52832_xxAA.a(hal.c.obj)
 .text          0x00000000        0x0 mesh/core/libmesh_core_nrf52832_xxAA.a(timer_scheduler.c.obj)
 .data          0x00000000        0x0 mesh/core/libmesh_core_nrf52832_xxAA.a(timer_scheduler.c.obj)
 .bss           0x00000000        0x0 mesh/core/libmesh_core_nrf52832_xxAA.a(timer_scheduler.c.obj)
 .text          0x00000000        0x0 mesh/core/libmesh_core_nrf52832_xxAA.a(timer.c.obj)
 .data          0x00000000        0x0 mesh/core/libmesh_core_nrf52832_xxAA.a(timer.c.obj)
 .bss           0x00000000        0x0 mesh/core/libmesh_core_nrf52832_xxAA.a(timer.c.obj)
 .text.timer_order_cb_ppi
                0x00000000       0xc4 mesh/core/libmesh_core_nrf52832_xxAA.a(timer.c.obj)
 .text.timer_order_ppi
                0x00000000       0xc0 mesh/core/libmesh_core_nrf52832_xxAA.a(timer.c.obj)
 .text.timer_abort
                0x00000000       0x78 mesh/core/libmesh_core_nrf52832_xxAA.a(timer.c.obj)
 .text          0x00000000        0x0 mesh/core/libmesh_core_nrf52832_xxAA.a(ticker.c.obj)
 .data          0x00000000        0x0 mesh/core/libmesh_core_nrf52832_xxAA.a(ticker.c.obj)
 .bss           0x00000000        0x0 mesh/core/libmesh_core_nrf52832_xxAA.a(ticker.c.obj)
 .text.ticker_get
                0x00000000        0xc mesh/core/libmesh_core_nrf52832_xxAA.a(ticker.c.obj)
 .text          0x00000000        0x0 mesh/core/libmesh_core_nrf52832_xxAA.a(rand.c.obj)
 .data          0x00000000        0x0 mesh/core/libmesh_core_nrf52832_xxAA.a(rand.c.obj)
 .bss           0x00000000        0x0 mesh/core/libmesh_core_nrf52832_xxAA.a(rand.c.obj)
 .text          0x00000000        0x0 mesh/core/libmesh_core_nrf52832_xxAA.a(timeslot.c.obj)
 .data          0x00000000        0x0 mesh/core/libmesh_core_nrf52832_xxAA.a(timeslot.c.obj)
 .bss           0x00000000        0x0 mesh/core/libmesh_core_nrf52832_xxAA.a(timeslot.c.obj)
 .text.timeslot_end_time_get
                0x00000000       0x10 mesh/core/libmesh_core_nrf52832_xxAA.a(timeslot.c.obj)
 .text.timeslot_is_in_ts
                0x00000000        0xc mesh/core/libmesh_core_nrf52832_xxAA.a(timeslot.c.obj)
 .text.timeslot_restart
                0x00000000       0x10 mesh/core/libmesh_core_nrf52832_xxAA.a(timeslot.c.obj)
 .text          0x00000000        0x0 mesh/core/libmesh_core_nrf52832_xxAA.a(bearer_event.c.obj)
 .data          0x00000000        0x0 mesh/core/libmesh_core_nrf52832_xxAA.a(bearer_event.c.obj)
 .bss           0x00000000        0x0 mesh/core/libmesh_core_nrf52832_xxAA.a(bearer_event.c.obj)
 .text.bearer_event_generic_post
                0x00000000       0x30 mesh/core/libmesh_core_nrf52832_xxAA.a(bearer_event.c.obj)
 .text.bearer_event_timer_sch_post
                0x00000000       0x34 mesh/core/libmesh_core_nrf52832_xxAA.a(bearer_event.c.obj)
 .text.bearer_event_in_correct_irq_priority
                0x00000000       0x48 mesh/core/libmesh_core_nrf52832_xxAA.a(bearer_event.c.obj)
 .text          0x00000000        0x0 mesh/core/libmesh_core_nrf52832_xxAA.a(enc.c.obj)
 .data          0x00000000        0x0 mesh/core/libmesh_core_nrf52832_xxAA.a(enc.c.obj)
 .bss           0x00000000        0x0 mesh/core/libmesh_core_nrf52832_xxAA.a(enc.c.obj)
 .text.enc_key_generate
                0x00000000        0x6 mesh/core/libmesh_core_nrf52832_xxAA.a(enc.c.obj)
 .text          0x00000000        0x0 mesh/core/libmesh_core_nrf52832_xxAA.a(network.c.obj)
 .data          0x00000000        0x0 mesh/core/libmesh_core_nrf52832_xxAA.a(network.c.obj)
 .bss           0x00000000        0x0 mesh/core/libmesh_core_nrf52832_xxAA.a(network.c.obj)
 .text.network_opt_set
                0x00000000       0x68 mesh/core/libmesh_core_nrf52832_xxAA.a(network.c.obj)
 .text.network_packet_discard
                0x00000000       0x3c mesh/core/libmesh_core_nrf52832_xxAA.a(network.c.obj)
 .text          0x00000000        0x0 mesh/core/libmesh_core_nrf52832_xxAA.a(nrf_mesh_keygen.c.obj)
 .data          0x00000000        0x0 mesh/core/libmesh_core_nrf52832_xxAA.a(nrf_mesh_keygen.c.obj)
 .bss           0x00000000        0x0 mesh/core/libmesh_core_nrf52832_xxAA.a(nrf_mesh_keygen.c.obj)
 .text.nrf_mesh_keygen_identitykey
                0x00000000       0x4c mesh/core/libmesh_core_nrf52832_xxAA.a(nrf_mesh_keygen.c.obj)
 .text          0x00000000        0x0 mesh/core/libmesh_core_nrf52832_xxAA.a(list.c.obj)
 .data          0x00000000        0x0 mesh/core/libmesh_core_nrf52832_xxAA.a(list.c.obj)
 .bss           0x00000000        0x0 mesh/core/libmesh_core_nrf52832_xxAA.a(list.c.obj)
 .text.list_size_get
                0x00000000       0x12 mesh/core/libmesh_core_nrf52832_xxAA.a(list.c.obj)
 .text.list_sorted_add
                0x00000000       0x90 mesh/core/libmesh_core_nrf52832_xxAA.a(list.c.obj)
 .text          0x00000000        0x0 mesh/core/libmesh_core_nrf52832_xxAA.a(log.c.obj)
 .data          0x00000000        0x0 mesh/core/libmesh_core_nrf52832_xxAA.a(log.c.obj)
 .bss           0x00000000        0x0 mesh/core/libmesh_core_nrf52832_xxAA.a(log.c.obj)
 .text.log_callback_logview
                0x00000000       0x38 mesh/core/libmesh_core_nrf52832_xxAA.a(log.c.obj)
 .text.log_set_callback
                0x00000000        0xc mesh/core/libmesh_core_nrf52832_xxAA.a(log.c.obj)
 .rodata.log_callback_logview.str1.1
                0x00000000        0xf mesh/core/libmesh_core_nrf52832_xxAA.a(log.c.obj)
 .text          0x00000000        0x0 mesh/core/libmesh_core_nrf52832_xxAA.a(flash_manager.c.obj)
 .data          0x00000000        0x0 mesh/core/libmesh_core_nrf52832_xxAA.a(flash_manager.c.obj)
 .bss           0x00000000        0x0 mesh/core/libmesh_core_nrf52832_xxAA.a(flash_manager.c.obj)
 .text.flash_manager_entry_count_get
                0x00000000       0x5c mesh/core/libmesh_core_nrf52832_xxAA.a(flash_manager.c.obj)
 .text.flash_manager_entry_release
                0x00000000       0x12 mesh/core/libmesh_core_nrf52832_xxAA.a(flash_manager.c.obj)
 .text.flash_manager_action_queue_empty_cb_set
                0x00000000       0x28 mesh/core/libmesh_core_nrf52832_xxAA.a(flash_manager.c.obj)
 .text          0x00000000        0x0 mesh/core/libmesh_core_nrf52832_xxAA.a(ccm_soft.c.obj)
 .data          0x00000000        0x0 mesh/core/libmesh_core_nrf52832_xxAA.a(ccm_soft.c.obj)
 .bss           0x00000000        0x0 mesh/core/libmesh_core_nrf52832_xxAA.a(ccm_soft.c.obj)
 .text          0x00000000        0x0 mesh/core/libmesh_core_nrf52832_xxAA.a(beacon.c.obj)
 .data          0x00000000        0x0 mesh/core/libmesh_core_nrf52832_xxAA.a(beacon.c.obj)
 .bss           0x00000000        0x0 mesh/core/libmesh_core_nrf52832_xxAA.a(beacon.c.obj)
 .text          0x00000000        0x0 mesh/core/libmesh_core_nrf52832_xxAA.a(flash_manager_internal.c.obj)
 .data          0x00000000        0x0 mesh/core/libmesh_core_nrf52832_xxAA.a(flash_manager_internal.c.obj)
 .bss           0x00000000        0x0 mesh/core/libmesh_core_nrf52832_xxAA.a(flash_manager_internal.c.obj)
 .text          0x00000000        0x0 mesh/core/libmesh_core_nrf52832_xxAA.a(core_tx.c.obj)
 .data          0x00000000        0x0 mesh/core/libmesh_core_nrf52832_xxAA.a(core_tx.c.obj)
 .bss           0x00000000        0x0 mesh/core/libmesh_core_nrf52832_xxAA.a(core_tx.c.obj)
 .text          0x00000000        0x0 mesh/core/libmesh_core_nrf52832_xxAA.a(heartbeat.c.obj)
 .data          0x00000000        0x0 mesh/core/libmesh_core_nrf52832_xxAA.a(heartbeat.c.obj)
 .bss           0x00000000        0x0 mesh/core/libmesh_core_nrf52832_xxAA.a(heartbeat.c.obj)
 .text.heartbeat_on_feature_change_trigger
                0x00000000       0x50 mesh/core/libmesh_core_nrf52832_xxAA.a(heartbeat.c.obj)
 .text.heartbeat_subscription_set
                0x00000000       0x90 mesh/core/libmesh_core_nrf52832_xxAA.a(heartbeat.c.obj)
 .text.heartbeat_subscription_get
                0x00000000        0x8 mesh/core/libmesh_core_nrf52832_xxAA.a(heartbeat.c.obj)
 .text.heartbeat_config_server_cb_set
                0x00000000       0x3c mesh/core/libmesh_core_nrf52832_xxAA.a(heartbeat.c.obj)
 .text.heartbeat_publication_state_updated
                0x00000000       0x80 mesh/core/libmesh_core_nrf52832_xxAA.a(heartbeat.c.obj)
 .text          0x00000000        0x0 mesh/core/libmesh_core_nrf52832_xxAA.a(net_beacon.c.obj)
 .data          0x00000000        0x0 mesh/core/libmesh_core_nrf52832_xxAA.a(net_beacon.c.obj)
 .bss           0x00000000        0x0 mesh/core/libmesh_core_nrf52832_xxAA.a(net_beacon.c.obj)
 .text.net_beacon_state_set
                0x00000000       0x34 mesh/core/libmesh_core_nrf52832_xxAA.a(net_beacon.c.obj)
 .text.net_beacon_state_get
                0x00000000        0xc mesh/core/libmesh_core_nrf52832_xxAA.a(net_beacon.c.obj)
 .text          0x00000000        0x0 mesh/core/libmesh_core_nrf52832_xxAA.a(core_tx_adv.c.obj)
 .data          0x00000000        0x0 mesh/core/libmesh_core_nrf52832_xxAA.a(core_tx_adv.c.obj)
 .bss           0x00000000        0x0 mesh/core/libmesh_core_nrf52832_xxAA.a(core_tx_adv.c.obj)
 .text.core_tx_adv_count_set
                0x00000000       0x38 mesh/core/libmesh_core_nrf52832_xxAA.a(core_tx_adv.c.obj)
 .text.core_tx_adv_interval_set
                0x00000000       0x34 mesh/core/libmesh_core_nrf52832_xxAA.a(core_tx_adv.c.obj)
 .text.core_tx_adv_address_set
                0x00000000       0x34 mesh/core/libmesh_core_nrf52832_xxAA.a(core_tx_adv.c.obj)
 .text          0x00000000        0x0 mesh/core/libmesh_core_nrf52832_xxAA.a(ad_listener.c.obj)
 .data          0x00000000        0x0 mesh/core/libmesh_core_nrf52832_xxAA.a(ad_listener.c.obj)
 .bss           0x00000000        0x0 mesh/core/libmesh_core_nrf52832_xxAA.a(ad_listener.c.obj)
 .text.ad_listener_unsubscribe
                0x00000000       0x6c mesh/core/libmesh_core_nrf52832_xxAA.a(ad_listener.c.obj)
 .text          0x00000000        0x0 mesh/core/libmesh_core_nrf52832_xxAA.a(ad_type_filter.c.obj)
 .data          0x00000000        0x0 mesh/core/libmesh_core_nrf52832_xxAA.a(ad_type_filter.c.obj)
 .bss           0x00000000        0x0 mesh/core/libmesh_core_nrf52832_xxAA.a(ad_type_filter.c.obj)
 .text.bearer_adtype_remove
                0x00000000       0x20 mesh/core/libmesh_core_nrf52832_xxAA.a(ad_type_filter.c.obj)
 .text.bearer_adtype_clear
                0x00000000       0x10 mesh/core/libmesh_core_nrf52832_xxAA.a(ad_type_filter.c.obj)
 .text.bearer_invalid_length_amount_get
                0x00000000        0xc mesh/core/libmesh_core_nrf52832_xxAA.a(ad_type_filter.c.obj)
 .text.bearer_adtype_filtered_amount_get
                0x00000000        0xc mesh/core/libmesh_core_nrf52832_xxAA.a(ad_type_filter.c.obj)
 .text          0x00000000        0x0 mesh/core/libmesh_core_nrf52832_xxAA.a(advertiser.c.obj)
 .data          0x00000000        0x0 mesh/core/libmesh_core_nrf52832_xxAA.a(advertiser.c.obj)
 .bss           0x00000000        0x0 mesh/core/libmesh_core_nrf52832_xxAA.a(advertiser.c.obj)
 .text.advertiser_disable
                0x00000000        0xa mesh/core/libmesh_core_nrf52832_xxAA.a(advertiser.c.obj)
 .text.advertiser_channels_set
                0x00000000       0x84 mesh/core/libmesh_core_nrf52832_xxAA.a(advertiser.c.obj)
 .text.advertiser_address_set
                0x00000000       0x50 mesh/core/libmesh_core_nrf52832_xxAA.a(advertiser.c.obj)
 .text.advertiser_config_set
                0x00000000       0x44 mesh/core/libmesh_core_nrf52832_xxAA.a(advertiser.c.obj)
 .text.advertiser_config_get
                0x00000000       0x2c mesh/core/libmesh_core_nrf52832_xxAA.a(advertiser.c.obj)
 .text          0x00000000        0x0 mesh/core/libmesh_core_nrf52832_xxAA.a(bearer_handler.c.obj)
 .data          0x00000000        0x0 mesh/core/libmesh_core_nrf52832_xxAA.a(bearer_handler.c.obj)
 .bss           0x00000000        0x0 mesh/core/libmesh_core_nrf52832_xxAA.a(bearer_handler.c.obj)
 .text.bearer_handler_stop
                0x00000000       0x20 mesh/core/libmesh_core_nrf52832_xxAA.a(bearer_handler.c.obj)
 .text.bearer_handler_action_fire
                0x00000000       0xbc mesh/core/libmesh_core_nrf52832_xxAA.a(bearer_handler.c.obj)
 .text          0x00000000        0x0 mesh/core/libmesh_core_nrf52832_xxAA.a(broadcast.c.obj)
 .data          0x00000000        0x0 mesh/core/libmesh_core_nrf52832_xxAA.a(broadcast.c.obj)
 .bss           0x00000000        0x0 mesh/core/libmesh_core_nrf52832_xxAA.a(broadcast.c.obj)
 .text          0x00000000        0x0 mesh/core/libmesh_core_nrf52832_xxAA.a(filter_engine.c.obj)
 .data          0x00000000        0x0 mesh/core/libmesh_core_nrf52832_xxAA.a(filter_engine.c.obj)
 .bss           0x00000000        0x0 mesh/core/libmesh_core_nrf52832_xxAA.a(filter_engine.c.obj)
 .text.fen_accepted_amount_get
                0x00000000        0xc mesh/core/libmesh_core_nrf52832_xxAA.a(filter_engine.c.obj)
 .text          0x00000000        0x0 mesh/core/libmesh_core_nrf52832_xxAA.a(radio_config.c.obj)
 .data          0x00000000        0x0 mesh/core/libmesh_core_nrf52832_xxAA.a(radio_config.c.obj)
 .bss           0x00000000        0x0 mesh/core/libmesh_core_nrf52832_xxAA.a(radio_config.c.obj)
 .text.radio_config_access_addr_get
                0x00000000       0x64 mesh/core/libmesh_core_nrf52832_xxAA.a(radio_config.c.obj)
 .text          0x00000000        0x0 mesh/core/libmesh_core_nrf52832_xxAA.a(scanner.c.obj)
 .data          0x00000000        0x0 mesh/core/libmesh_core_nrf52832_xxAA.a(scanner.c.obj)
 .bss           0x00000000        0x0 mesh/core/libmesh_core_nrf52832_xxAA.a(scanner.c.obj)
 .text.scanner_rx_callback_set
                0x00000000       0x2c mesh/core/libmesh_core_nrf52832_xxAA.a(scanner.c.obj)
 .text.scanner_disable
                0x00000000       0x48 mesh/core/libmesh_core_nrf52832_xxAA.a(scanner.c.obj)
 .text.scanner_is_enabled
                0x00000000       0x10 mesh/core/libmesh_core_nrf52832_xxAA.a(scanner.c.obj)
 .text.scanner_stats_get
                0x00000000        0x8 mesh/core/libmesh_core_nrf52832_xxAA.a(scanner.c.obj)
 .text.scanner_config_radio_mode_set
                0x00000000       0x10 mesh/core/libmesh_core_nrf52832_xxAA.a(scanner.c.obj)
 .text          0x00000000        0x0 mesh/core/libmesh_core_nrf52832_xxAA.a(internal_event.c.obj)
 .data          0x00000000        0x0 mesh/core/libmesh_core_nrf52832_xxAA.a(internal_event.c.obj)
 .bss           0x00000000        0x0 mesh/core/libmesh_core_nrf52832_xxAA.a(internal_event.c.obj)
 .text.internal_event_init
                0x00000000       0x40 mesh/core/libmesh_core_nrf52832_xxAA.a(internal_event.c.obj)
 .text.internal_event_pop
                0x00000000       0x1c mesh/core/libmesh_core_nrf52832_xxAA.a(internal_event.c.obj)
 .bss.m_internal_event_fifo_buffer
                0x00000000      0x100 mesh/core/libmesh_core_nrf52832_xxAA.a(internal_event.c.obj)
 .text          0x00000000        0x0 mesh/core/libmesh_core_nrf52832_xxAA.a(aes.c.obj)
 .data          0x00000000        0x0 mesh/core/libmesh_core_nrf52832_xxAA.a(aes.c.obj)
 .bss           0x00000000        0x0 mesh/core/libmesh_core_nrf52832_xxAA.a(aes.c.obj)
 .text          0x00000000        0x0 mesh/core/libmesh_core_nrf52832_xxAA.a(msg_cache.c.obj)
 .data          0x00000000        0x0 mesh/core/libmesh_core_nrf52832_xxAA.a(msg_cache.c.obj)
 .bss           0x00000000        0x0 mesh/core/libmesh_core_nrf52832_xxAA.a(msg_cache.c.obj)
 .text.msg_cache_clear
                0x00000000       0x18 mesh/core/libmesh_core_nrf52832_xxAA.a(msg_cache.c.obj)
 .text          0x00000000        0x0 mesh/core/libmesh_core_nrf52832_xxAA.a(transport.c.obj)
 .data          0x00000000        0x0 mesh/core/libmesh_core_nrf52832_xxAA.a(transport.c.obj)
 .bss           0x00000000        0x0 mesh/core/libmesh_core_nrf52832_xxAA.a(transport.c.obj)
 .text.transport_sar_mem_funcs_set
                0x00000000       0x44 mesh/core/libmesh_core_nrf52832_xxAA.a(transport.c.obj)
 .text.transport_opt_set
                0x00000000       0xd0 mesh/core/libmesh_core_nrf52832_xxAA.a(transport.c.obj)
 .text          0x00000000        0x0 mesh/core/libmesh_core_nrf52832_xxAA.a(packet_buffer.c.obj)
 .data          0x00000000        0x0 mesh/core/libmesh_core_nrf52832_xxAA.a(packet_buffer.c.obj)
 .bss           0x00000000        0x0 mesh/core/libmesh_core_nrf52832_xxAA.a(packet_buffer.c.obj)
 .text.packet_buffer_max_packet_len_get
                0x00000000       0x34 mesh/core/libmesh_core_nrf52832_xxAA.a(packet_buffer.c.obj)
 .text          0x00000000        0x0 mesh/core/libmesh_core_nrf52832_xxAA.a(flash_manager_defrag.c.obj)
 .data          0x00000000        0x0 mesh/core/libmesh_core_nrf52832_xxAA.a(flash_manager_defrag.c.obj)
 .bss           0x00000000        0x0 mesh/core/libmesh_core_nrf52832_xxAA.a(flash_manager_defrag.c.obj)
 .text.flash_manager_defragging
                0x00000000       0x44 mesh/core/libmesh_core_nrf52832_xxAA.a(flash_manager_defrag.c.obj)
 .text          0x00000000        0x0 mesh/core/libmesh_core_nrf52832_xxAA.a(fifo.c.obj)
 .data          0x00000000        0x0 mesh/core/libmesh_core_nrf52832_xxAA.a(fifo.c.obj)
 .bss           0x00000000        0x0 mesh/core/libmesh_core_nrf52832_xxAA.a(fifo.c.obj)
 .text.fifo_peek_at
                0x00000000       0x50 mesh/core/libmesh_core_nrf52832_xxAA.a(fifo.c.obj)
 .text.fifo_peek
                0x00000000        0x6 mesh/core/libmesh_core_nrf52832_xxAA.a(fifo.c.obj)
 .text.fifo_flush
                0x00000000        0x6 mesh/core/libmesh_core_nrf52832_xxAA.a(fifo.c.obj)
 .text.fifo_get_len
                0x00000000        0x8 mesh/core/libmesh_core_nrf52832_xxAA.a(fifo.c.obj)
 .text.fifo_is_full
                0x00000000       0x10 mesh/core/libmesh_core_nrf52832_xxAA.a(fifo.c.obj)
 .text.fifo_is_empty
                0x00000000        0xc mesh/core/libmesh_core_nrf52832_xxAA.a(fifo.c.obj)
 .text          0x00000000        0x0 mesh/core/libmesh_core_nrf52832_xxAA.a(mesh_flash.c.obj)
 .data          0x00000000        0x0 mesh/core/libmesh_core_nrf52832_xxAA.a(mesh_flash.c.obj)
 .bss           0x00000000        0x0 mesh/core/libmesh_core_nrf52832_xxAA.a(mesh_flash.c.obj)
 .text.mesh_flash_op_available_slots
                0x00000000       0x2c mesh/core/libmesh_core_nrf52832_xxAA.a(mesh_flash.c.obj)
 .text.mesh_flash_in_progress
                0x00000000       0x34 mesh/core/libmesh_core_nrf52832_xxAA.a(mesh_flash.c.obj)
 .text.mesh_flash_set_suspended
                0x00000000       0x80 mesh/core/libmesh_core_nrf52832_xxAA.a(mesh_flash.c.obj)
 .bss.suspend_count.10047
                0x00000000        0x4 mesh/core/libmesh_core_nrf52832_xxAA.a(mesh_flash.c.obj)
 .text          0x00000000        0x0 mesh/core/libmesh_core_nrf52832_xxAA.a(queue.c.obj)
 .data          0x00000000        0x0 mesh/core/libmesh_core_nrf52832_xxAA.a(queue.c.obj)
 .bss           0x00000000        0x0 mesh/core/libmesh_core_nrf52832_xxAA.a(queue.c.obj)
 .text          0x00000000        0x0 mesh/core/libmesh_core_nrf52832_xxAA.a(aes_cmac.c.obj)
 .data          0x00000000        0x0 mesh/core/libmesh_core_nrf52832_xxAA.a(aes_cmac.c.obj)
 .bss           0x00000000        0x0 mesh/core/libmesh_core_nrf52832_xxAA.a(aes_cmac.c.obj)
 .text          0x00000000        0x0 mesh/core/libmesh_core_nrf52832_xxAA.a(nrf_mesh_opt.c.obj)
 .data          0x00000000        0x0 mesh/core/libmesh_core_nrf52832_xxAA.a(nrf_mesh_opt.c.obj)
 .bss           0x00000000        0x0 mesh/core/libmesh_core_nrf52832_xxAA.a(nrf_mesh_opt.c.obj)
 .text.nrf_mesh_opt_set
                0x00000000       0x26 mesh/core/libmesh_core_nrf52832_xxAA.a(nrf_mesh_opt.c.obj)
 .text          0x00000000        0x0 mesh/core/libmesh_core_nrf52832_xxAA.a(msqueue.c.obj)
 .data          0x00000000        0x0 mesh/core/libmesh_core_nrf52832_xxAA.a(msqueue.c.obj)
 .bss           0x00000000        0x0 mesh/core/libmesh_core_nrf52832_xxAA.a(msqueue.c.obj)
 .text          0x00000000        0x0 mesh/core/libmesh_core_nrf52832_xxAA.a(replay_cache.c.obj)
 .data          0x00000000        0x0 mesh/core/libmesh_core_nrf52832_xxAA.a(replay_cache.c.obj)
 .bss           0x00000000        0x0 mesh/core/libmesh_core_nrf52832_xxAA.a(replay_cache.c.obj)
 .text.replay_cache_on_iv_update
                0x00000000       0x24 mesh/core/libmesh_core_nrf52832_xxAA.a(replay_cache.c.obj)
 .text          0x00000000        0x0 mesh/core/libmesh_core_nrf52832_xxAA.a(nrf_flash.c.obj)
 .data          0x00000000        0x0 mesh/core/libmesh_core_nrf52832_xxAA.a(nrf_flash.c.obj)
 .bss           0x00000000        0x0 mesh/core/libmesh_core_nrf52832_xxAA.a(nrf_flash.c.obj)
 .text          0x00000000        0x0 external/rtt/librtt_nrf52832_xxAA.a(SEGGER_RTT.c.obj)
 .data          0x00000000        0x0 external/rtt/librtt_nrf52832_xxAA.a(SEGGER_RTT.c.obj)
 .bss           0x00000000        0x0 external/rtt/librtt_nrf52832_xxAA.a(SEGGER_RTT.c.obj)
 .text._PostTerminalSwitch.constprop.0
                0x00000000       0x28 external/rtt/librtt_nrf52832_xxAA.a(SEGGER_RTT.c.obj)
 .text.SEGGER_RTT_WriteSkipNoLock
                0x00000000       0xb4 external/rtt/librtt_nrf52832_xxAA.a(SEGGER_RTT.c.obj)
 .text.SEGGER_RTT_WriteString
                0x00000000       0x1a external/rtt/librtt_nrf52832_xxAA.a(SEGGER_RTT.c.obj)
 .text.SEGGER_RTT_WaitKey
                0x00000000        0xc external/rtt/librtt_nrf52832_xxAA.a(SEGGER_RTT.c.obj)
 .text.SEGGER_RTT_HasKey
                0x00000000       0x1c external/rtt/librtt_nrf52832_xxAA.a(SEGGER_RTT.c.obj)
 .text.SEGGER_RTT_HasData
                0x00000000       0x14 external/rtt/librtt_nrf52832_xxAA.a(SEGGER_RTT.c.obj)
 .text.SEGGER_RTT_AllocDownBuffer
                0x00000000       0x68 external/rtt/librtt_nrf52832_xxAA.a(SEGGER_RTT.c.obj)
 .text.SEGGER_RTT_AllocUpBuffer
                0x00000000       0x70 external/rtt/librtt_nrf52832_xxAA.a(SEGGER_RTT.c.obj)
 .text.SEGGER_RTT_ConfigUpBuffer
                0x00000000       0x68 external/rtt/librtt_nrf52832_xxAA.a(SEGGER_RTT.c.obj)
 .text.SEGGER_RTT_ConfigDownBuffer
                0x00000000       0x60 external/rtt/librtt_nrf52832_xxAA.a(SEGGER_RTT.c.obj)
 .text.SEGGER_RTT_SetNameUpBuffer
                0x00000000       0x3c external/rtt/librtt_nrf52832_xxAA.a(SEGGER_RTT.c.obj)
 .text.SEGGER_RTT_SetNameDownBuffer
                0x00000000       0x3c external/rtt/librtt_nrf52832_xxAA.a(SEGGER_RTT.c.obj)
 .text.SEGGER_RTT_Init
                0x00000000       0x10 external/rtt/librtt_nrf52832_xxAA.a(SEGGER_RTT.c.obj)
 .text.SEGGER_RTT_SetTerminal
                0x00000000       0x84 external/rtt/librtt_nrf52832_xxAA.a(SEGGER_RTT.c.obj)
 .text.SEGGER_RTT_TerminalOut
                0x00000000       0xa0 external/rtt/librtt_nrf52832_xxAA.a(SEGGER_RTT.c.obj)
 .bss._ActiveTerminal
                0x00000000        0x1 external/rtt/librtt_nrf52832_xxAA.a(SEGGER_RTT.c.obj)
 .rodata._aTerminalId
                0x00000000       0x10 external/rtt/librtt_nrf52832_xxAA.a(SEGGER_RTT.c.obj)
 .text          0x00000000        0x0 external/rtt/librtt_nrf52832_xxAA.a(SEGGER_RTT_printf.c.obj)
 .data          0x00000000        0x0 external/rtt/librtt_nrf52832_xxAA.a(SEGGER_RTT_printf.c.obj)
 .bss           0x00000000        0x0 external/rtt/librtt_nrf52832_xxAA.a(SEGGER_RTT_printf.c.obj)
 .text          0x00000000        0x0 external/micro-ecc/libuECC_nrf52832_xxAA.a(uECC.c.obj)
 .data          0x00000000        0x0 external/micro-ecc/libuECC_nrf52832_xxAA.a(uECC.c.obj)
 .bss           0x00000000        0x0 external/micro-ecc/libuECC_nrf52832_xxAA.a(uECC.c.obj)
 .text.uECC_vli_modMult
                0x00000000      0x148 external/micro-ecc/libuECC_nrf52832_xxAA.a(uECC.c.obj)
 .text.HMAC_init
                0x00000000       0x46 external/micro-ecc/libuECC_nrf52832_xxAA.a(uECC.c.obj)
 .text.HMAC_update
                0x00000000        0x4 external/micro-ecc/libuECC_nrf52832_xxAA.a(uECC.c.obj)
 .text.HMAC_finish
                0x00000000       0x62 external/micro-ecc/libuECC_nrf52832_xxAA.a(uECC.c.obj)
 .text.update_V
                0x00000000       0x24 external/micro-ecc/libuECC_nrf52832_xxAA.a(uECC.c.obj)
 .text.bits2int
                0x00000000       0x88 external/micro-ecc/libuECC_nrf52832_xxAA.a(uECC.c.obj)
 .text.uECC_sign_with_k
                0x00000000      0x17c external/micro-ecc/libuECC_nrf52832_xxAA.a(uECC.c.obj)
 .text.uECC_set_rng
                0x00000000        0xc external/micro-ecc/libuECC_nrf52832_xxAA.a(uECC.c.obj)
 .text.uECC_get_rng
                0x00000000        0xc external/micro-ecc/libuECC_nrf52832_xxAA.a(uECC.c.obj)
 .text.uECC_curve_private_key_size
                0x00000000        0xe external/micro-ecc/libuECC_nrf52832_xxAA.a(uECC.c.obj)
 .text.uECC_curve_public_key_size
                0x00000000        0x8 external/micro-ecc/libuECC_nrf52832_xxAA.a(uECC.c.obj)
 .text.uECC_compute_public_key
                0x00000000       0x7e external/micro-ecc/libuECC_nrf52832_xxAA.a(uECC.c.obj)
 .text.uECC_sign
                0x00000000       0x56 external/micro-ecc/libuECC_nrf52832_xxAA.a(uECC.c.obj)
 .text.uECC_sign_deterministic
                0x00000000      0x192 external/micro-ecc/libuECC_nrf52832_xxAA.a(uECC.c.obj)
 .text.uECC_verify
                0x00000000      0x2f0 external/micro-ecc/libuECC_nrf52832_xxAA.a(uECC.c.obj)
 .data          0x00000000        0x0 c:/a/gcc_arm/6/bin/../lib/gcc/arm-none-eabi/6.3.1/thumb/v7e-m/fpv4-sp/hard\libgcc.a(_aeabi_uldivmod.o)
 .bss           0x00000000        0x0 c:/a/gcc_arm/6/bin/../lib/gcc/arm-none-eabi/6.3.1/thumb/v7e-m/fpv4-sp/hard\libgcc.a(_aeabi_uldivmod.o)
 .data          0x00000000        0x0 c:/a/gcc_arm/6/bin/../lib/gcc/arm-none-eabi/6.3.1/thumb/v7e-m/fpv4-sp/hard\libgcc.a(_udivmoddi4.o)
 .bss           0x00000000        0x0 c:/a/gcc_arm/6/bin/../lib/gcc/arm-none-eabi/6.3.1/thumb/v7e-m/fpv4-sp/hard\libgcc.a(_udivmoddi4.o)
 .ARM.extab     0x00000000        0x0 c:/a/gcc_arm/6/bin/../lib/gcc/arm-none-eabi/6.3.1/thumb/v7e-m/fpv4-sp/hard\libgcc.a(_udivmoddi4.o)
 .data          0x00000000        0x0 c:/a/gcc_arm/6/bin/../lib/gcc/arm-none-eabi/6.3.1/thumb/v7e-m/fpv4-sp/hard\libgcc.a(_dvmd_tls.o)
 .bss           0x00000000        0x0 c:/a/gcc_arm/6/bin/../lib/gcc/arm-none-eabi/6.3.1/thumb/v7e-m/fpv4-sp/hard\libgcc.a(_dvmd_tls.o)
 .text          0x00000000        0x0 c:/a/gcc_arm/6/bin/../lib/gcc/arm-none-eabi/6.3.1/../../../../arm-none-eabi/lib/thumb/v7e-m/fpv4-sp/hard\libg_nano.a(lib_a-exit.o)
 .data          0x00000000        0x0 c:/a/gcc_arm/6/bin/../lib/gcc/arm-none-eabi/6.3.1/../../../../arm-none-eabi/lib/thumb/v7e-m/fpv4-sp/hard\libg_nano.a(lib_a-exit.o)
 .bss           0x00000000        0x0 c:/a/gcc_arm/6/bin/../lib/gcc/arm-none-eabi/6.3.1/../../../../arm-none-eabi/lib/thumb/v7e-m/fpv4-sp/hard\libg_nano.a(lib_a-exit.o)
 .text          0x00000000        0x0 c:/a/gcc_arm/6/bin/../lib/gcc/arm-none-eabi/6.3.1/../../../../arm-none-eabi/lib/thumb/v7e-m/fpv4-sp/hard\libg_nano.a(lib_a-impure.o)
 .data          0x00000000        0x0 c:/a/gcc_arm/6/bin/../lib/gcc/arm-none-eabi/6.3.1/../../../../arm-none-eabi/lib/thumb/v7e-m/fpv4-sp/hard\libg_nano.a(lib_a-impure.o)
 .bss           0x00000000        0x0 c:/a/gcc_arm/6/bin/../lib/gcc/arm-none-eabi/6.3.1/../../../../arm-none-eabi/lib/thumb/v7e-m/fpv4-sp/hard\libg_nano.a(lib_a-impure.o)
 .text          0x00000000        0x0 c:/a/gcc_arm/6/bin/../lib/gcc/arm-none-eabi/6.3.1/../../../../arm-none-eabi/lib/thumb/v7e-m/fpv4-sp/hard\libg_nano.a(lib_a-init.o)
 .data          0x00000000        0x0 c:/a/gcc_arm/6/bin/../lib/gcc/arm-none-eabi/6.3.1/../../../../arm-none-eabi/lib/thumb/v7e-m/fpv4-sp/hard\libg_nano.a(lib_a-init.o)
 .bss           0x00000000        0x0 c:/a/gcc_arm/6/bin/../lib/gcc/arm-none-eabi/6.3.1/../../../../arm-none-eabi/lib/thumb/v7e-m/fpv4-sp/hard\libg_nano.a(lib_a-init.o)
 .text          0x00000000        0x0 c:/a/gcc_arm/6/bin/../lib/gcc/arm-none-eabi/6.3.1/../../../../arm-none-eabi/lib/thumb/v7e-m/fpv4-sp/hard\libg_nano.a(lib_a-malloc.o)
 .data          0x00000000        0x0 c:/a/gcc_arm/6/bin/../lib/gcc/arm-none-eabi/6.3.1/../../../../arm-none-eabi/lib/thumb/v7e-m/fpv4-sp/hard\libg_nano.a(lib_a-malloc.o)
 .bss           0x00000000        0x0 c:/a/gcc_arm/6/bin/../lib/gcc/arm-none-eabi/6.3.1/../../../../arm-none-eabi/lib/thumb/v7e-m/fpv4-sp/hard\libg_nano.a(lib_a-malloc.o)
 .text          0x00000000        0x0 c:/a/gcc_arm/6/bin/../lib/gcc/arm-none-eabi/6.3.1/../../../../arm-none-eabi/lib/thumb/v7e-m/fpv4-sp/hard\libg_nano.a(lib_a-memcmp.o)
 .data          0x00000000        0x0 c:/a/gcc_arm/6/bin/../lib/gcc/arm-none-eabi/6.3.1/../../../../arm-none-eabi/lib/thumb/v7e-m/fpv4-sp/hard\libg_nano.a(lib_a-memcmp.o)
 .bss           0x00000000        0x0 c:/a/gcc_arm/6/bin/../lib/gcc/arm-none-eabi/6.3.1/../../../../arm-none-eabi/lib/thumb/v7e-m/fpv4-sp/hard\libg_nano.a(lib_a-memcmp.o)
 .text          0x00000000        0x0 c:/a/gcc_arm/6/bin/../lib/gcc/arm-none-eabi/6.3.1/../../../../arm-none-eabi/lib/thumb/v7e-m/fpv4-sp/hard\libg_nano.a(lib_a-memcpy-stub.o)
 .data          0x00000000        0x0 c:/a/gcc_arm/6/bin/../lib/gcc/arm-none-eabi/6.3.1/../../../../arm-none-eabi/lib/thumb/v7e-m/fpv4-sp/hard\libg_nano.a(lib_a-memcpy-stub.o)
 .bss           0x00000000        0x0 c:/a/gcc_arm/6/bin/../lib/gcc/arm-none-eabi/6.3.1/../../../../arm-none-eabi/lib/thumb/v7e-m/fpv4-sp/hard\libg_nano.a(lib_a-memcpy-stub.o)
 .text          0x00000000        0x0 c:/a/gcc_arm/6/bin/../lib/gcc/arm-none-eabi/6.3.1/../../../../arm-none-eabi/lib/thumb/v7e-m/fpv4-sp/hard\libg_nano.a(lib_a-memset.o)
 .data          0x00000000        0x0 c:/a/gcc_arm/6/bin/../lib/gcc/arm-none-eabi/6.3.1/../../../../arm-none-eabi/lib/thumb/v7e-m/fpv4-sp/hard\libg_nano.a(lib_a-memset.o)
 .bss           0x00000000        0x0 c:/a/gcc_arm/6/bin/../lib/gcc/arm-none-eabi/6.3.1/../../../../arm-none-eabi/lib/thumb/v7e-m/fpv4-sp/hard\libg_nano.a(lib_a-memset.o)
 .text          0x00000000        0x0 c:/a/gcc_arm/6/bin/../lib/gcc/arm-none-eabi/6.3.1/../../../../arm-none-eabi/lib/thumb/v7e-m/fpv4-sp/hard\libg_nano.a(lib_a-nano-freer.o)
 .data          0x00000000        0x0 c:/a/gcc_arm/6/bin/../lib/gcc/arm-none-eabi/6.3.1/../../../../arm-none-eabi/lib/thumb/v7e-m/fpv4-sp/hard\libg_nano.a(lib_a-nano-freer.o)
 .bss           0x00000000        0x0 c:/a/gcc_arm/6/bin/../lib/gcc/arm-none-eabi/6.3.1/../../../../arm-none-eabi/lib/thumb/v7e-m/fpv4-sp/hard\libg_nano.a(lib_a-nano-freer.o)
 .text          0x00000000        0x0 c:/a/gcc_arm/6/bin/../lib/gcc/arm-none-eabi/6.3.1/../../../../arm-none-eabi/lib/thumb/v7e-m/fpv4-sp/hard\libg_nano.a(lib_a-nano-mallocr.o)
 .data          0x00000000        0x0 c:/a/gcc_arm/6/bin/../lib/gcc/arm-none-eabi/6.3.1/../../../../arm-none-eabi/lib/thumb/v7e-m/fpv4-sp/hard\libg_nano.a(lib_a-nano-mallocr.o)
 .bss           0x00000000        0x0 c:/a/gcc_arm/6/bin/../lib/gcc/arm-none-eabi/6.3.1/../../../../arm-none-eabi/lib/thumb/v7e-m/fpv4-sp/hard\libg_nano.a(lib_a-nano-mallocr.o)
 .text          0x00000000        0x0 c:/a/gcc_arm/6/bin/../lib/gcc/arm-none-eabi/6.3.1/../../../../arm-none-eabi/lib/thumb/v7e-m/fpv4-sp/hard\libg_nano.a(lib_a-sbrkr.o)
 .data          0x00000000        0x0 c:/a/gcc_arm/6/bin/../lib/gcc/arm-none-eabi/6.3.1/../../../../arm-none-eabi/lib/thumb/v7e-m/fpv4-sp/hard\libg_nano.a(lib_a-sbrkr.o)
 .bss           0x00000000        0x0 c:/a/gcc_arm/6/bin/../lib/gcc/arm-none-eabi/6.3.1/../../../../arm-none-eabi/lib/thumb/v7e-m/fpv4-sp/hard\libg_nano.a(lib_a-sbrkr.o)
 .text          0x00000000        0x0 c:/a/gcc_arm/6/bin/../lib/gcc/arm-none-eabi/6.3.1/../../../../arm-none-eabi/lib/thumb/v7e-m/fpv4-sp/hard\libg_nano.a(lib_a-strcpy.o)
 .data          0x00000000        0x0 c:/a/gcc_arm/6/bin/../lib/gcc/arm-none-eabi/6.3.1/../../../../arm-none-eabi/lib/thumb/v7e-m/fpv4-sp/hard\libg_nano.a(lib_a-strcpy.o)
 .bss           0x00000000        0x0 c:/a/gcc_arm/6/bin/../lib/gcc/arm-none-eabi/6.3.1/../../../../arm-none-eabi/lib/thumb/v7e-m/fpv4-sp/hard\libg_nano.a(lib_a-strcpy.o)
 .data          0x00000000        0x0 c:/a/gcc_arm/6/bin/../lib/gcc/arm-none-eabi/6.3.1/../../../../arm-none-eabi/lib/thumb/v7e-m/fpv4-sp/hard\libg_nano.a(lib_a-strlen.o)
 .bss           0x00000000        0x0 c:/a/gcc_arm/6/bin/../lib/gcc/arm-none-eabi/6.3.1/../../../../arm-none-eabi/lib/thumb/v7e-m/fpv4-sp/hard\libg_nano.a(lib_a-strlen.o)
 .text          0x00000000        0x0 c:/a/gcc_arm/6/bin/../lib/gcc/arm-none-eabi/6.3.1/../../../../arm-none-eabi/lib/thumb/v7e-m/fpv4-sp/hard\libg_nano.a(lib_a-strrchr.o)
 .data          0x00000000        0x0 c:/a/gcc_arm/6/bin/../lib/gcc/arm-none-eabi/6.3.1/../../../../arm-none-eabi/lib/thumb/v7e-m/fpv4-sp/hard\libg_nano.a(lib_a-strrchr.o)
 .bss           0x00000000        0x0 c:/a/gcc_arm/6/bin/../lib/gcc/arm-none-eabi/6.3.1/../../../../arm-none-eabi/lib/thumb/v7e-m/fpv4-sp/hard\libg_nano.a(lib_a-strrchr.o)
 .text          0x00000000        0x0 c:/a/gcc_arm/6/bin/../lib/gcc/arm-none-eabi/6.3.1/../../../../arm-none-eabi/lib/thumb/v7e-m/fpv4-sp/hard\libg_nano.a(lib_a-mlock.o)
 .data          0x00000000        0x0 c:/a/gcc_arm/6/bin/../lib/gcc/arm-none-eabi/6.3.1/../../../../arm-none-eabi/lib/thumb/v7e-m/fpv4-sp/hard\libg_nano.a(lib_a-mlock.o)
 .bss           0x00000000        0x0 c:/a/gcc_arm/6/bin/../lib/gcc/arm-none-eabi/6.3.1/../../../../arm-none-eabi/lib/thumb/v7e-m/fpv4-sp/hard\libg_nano.a(lib_a-mlock.o)
 .text          0x00000000        0x0 c:/a/gcc_arm/6/bin/../lib/gcc/arm-none-eabi/6.3.1/../../../../arm-none-eabi/lib/thumb/v7e-m/fpv4-sp/hard\libg_nano.a(lib_a-reent.o)
 .data          0x00000000        0x0 c:/a/gcc_arm/6/bin/../lib/gcc/arm-none-eabi/6.3.1/../../../../arm-none-eabi/lib/thumb/v7e-m/fpv4-sp/hard\libg_nano.a(lib_a-reent.o)
 .bss           0x00000000        0x0 c:/a/gcc_arm/6/bin/../lib/gcc/arm-none-eabi/6.3.1/../../../../arm-none-eabi/lib/thumb/v7e-m/fpv4-sp/hard\libg_nano.a(lib_a-reent.o)
 .text.cleanup_glue
                0x00000000       0x1a c:/a/gcc_arm/6/bin/../lib/gcc/arm-none-eabi/6.3.1/../../../../arm-none-eabi/lib/thumb/v7e-m/fpv4-sp/hard\libg_nano.a(lib_a-reent.o)
 .text._reclaim_reent
                0x00000000       0xb8 c:/a/gcc_arm/6/bin/../lib/gcc/arm-none-eabi/6.3.1/../../../../arm-none-eabi/lib/thumb/v7e-m/fpv4-sp/hard\libg_nano.a(lib_a-reent.o)
 .text          0x00000000        0x0 c:/a/gcc_arm/6/bin/../lib/gcc/arm-none-eabi/6.3.1/../../../../arm-none-eabi/lib/thumb/v7e-m/fpv4-sp/hard\libg_nano.a(lib_a-strchr.o)
 .data          0x00000000        0x0 c:/a/gcc_arm/6/bin/../lib/gcc/arm-none-eabi/6.3.1/../../../../arm-none-eabi/lib/thumb/v7e-m/fpv4-sp/hard\libg_nano.a(lib_a-strchr.o)
 .bss           0x00000000        0x0 c:/a/gcc_arm/6/bin/../lib/gcc/arm-none-eabi/6.3.1/../../../../arm-none-eabi/lib/thumb/v7e-m/fpv4-sp/hard\libg_nano.a(lib_a-strchr.o)
 .text          0x00000000        0x0 c:/a/gcc_arm/6/bin/../lib/gcc/arm-none-eabi/6.3.1/thumb/v7e-m/fpv4-sp/hard/crtend.o
 .data          0x00000000        0x0 c:/a/gcc_arm/6/bin/../lib/gcc/arm-none-eabi/6.3.1/thumb/v7e-m/fpv4-sp/hard/crtend.o
 .bss           0x00000000        0x0 c:/a/gcc_arm/6/bin/../lib/gcc/arm-none-eabi/6.3.1/thumb/v7e-m/fpv4-sp/hard/crtend.o
 .text          0x00000000        0x0 c:/a/gcc_arm/6/bin/../lib/gcc/arm-none-eabi/6.3.1/thumb/v7e-m/fpv4-sp/hard/crtn.o
 .data          0x00000000        0x0 c:/a/gcc_arm/6/bin/../lib/gcc/arm-none-eabi/6.3.1/thumb/v7e-m/fpv4-sp/hard/crtn.o
 .bss           0x00000000        0x0 c:/a/gcc_arm/6/bin/../lib/gcc/arm-none-eabi/6.3.1/thumb/v7e-m/fpv4-sp/hard/crtn.o
 .text          0x00000000        0x0 c:/a/gcc_arm/6/bin/../lib/gcc/arm-none-eabi/6.3.1/../../../../arm-none-eabi/lib/thumb/v7e-m/fpv4-sp/hard\libnosys.a(sbrk.o)
 .data          0x00000000        0x0 c:/a/gcc_arm/6/bin/../lib/gcc/arm-none-eabi/6.3.1/../../../../arm-none-eabi/lib/thumb/v7e-m/fpv4-sp/hard\libnosys.a(sbrk.o)
 .bss           0x00000000        0x0 c:/a/gcc_arm/6/bin/../lib/gcc/arm-none-eabi/6.3.1/../../../../arm-none-eabi/lib/thumb/v7e-m/fpv4-sp/hard\libnosys.a(sbrk.o)
 .text          0x00000000        0x0 c:/a/gcc_arm/6/bin/../lib/gcc/arm-none-eabi/6.3.1/../../../../arm-none-eabi/lib/thumb/v7e-m/fpv4-sp/hard\libnosys.a(_exit.o)
 .data          0x00000000        0x0 c:/a/gcc_arm/6/bin/../lib/gcc/arm-none-eabi/6.3.1/../../../../arm-none-eabi/lib/thumb/v7e-m/fpv4-sp/hard\libnosys.a(_exit.o)
 .bss           0x00000000        0x0 c:/a/gcc_arm/6/bin/../lib/gcc/arm-none-eabi/6.3.1/../../../../arm-none-eabi/lib/thumb/v7e-m/fpv4-sp/hard\libnosys.a(_exit.o)

Memory Configuration

Name             Origin             Length             Attributes
FLASH            0x00023000         0x00055000         xr
RAM              0x200031b0         0x0000cb50         xrw
*default*        0x00000000         0xffffffff

Linker script and memory map


.text           0x00023000    0x12518
 *(.isr_vector)
 .isr_vector    0x00023000      0x200 examples/light_switch/client/CMakeFiles/light_switch_client_nrf52832_xxAA_s132_5.0.0.dir/__/__/__/external/nRF5_SDK_14.2.0_17b948a/components/toolchain/gcc/gcc_startup_nrf52.S.obj
                0x00023000                __isr_vector
 *(.text*)
 .text          0x00023200       0x6c c:/a/gcc_arm/6/bin/../lib/gcc/arm-none-eabi/6.3.1/thumb/v7e-m/fpv4-sp/hard/crtbegin.o
 .text          0x0002326c       0x74 c:/a/gcc_arm/6/bin/../lib/gcc/arm-none-eabi/6.3.1/../../../../arm-none-eabi/lib/thumb/v7e-m/fpv4-sp/hard/crt0.o
                0x0002326c                _start
                0x0002326c                _mainCRTStartup
 .text.sd_app_evt_wait
                0x000232e0        0x4 examples/light_switch/client/CMakeFiles/light_switch_client_nrf52832_xxAA_s132_5.0.0.dir/src/main.c.obj
 .text.client_status_cb
                0x000232e4       0x8c examples/light_switch/client/CMakeFiles/light_switch_client_nrf52832_xxAA_s132_5.0.0.dir/src/main.c.obj
 .text.button_event_handler
                0x00023370      0x1dc examples/light_switch/client/CMakeFiles/light_switch_client_nrf52832_xxAA_s132_5.0.0.dir/src/main.c.obj
 .text.rtt_input_handler
                0x0002354c        0xc examples/light_switch/client/CMakeFiles/light_switch_client_nrf52832_xxAA_s132_5.0.0.dir/src/main.c.obj
 .text.health_event_cb
                0x00023558       0x7c examples/light_switch/client/CMakeFiles/light_switch_client_nrf52832_xxAA_s132_5.0.0.dir/src/main.c.obj
 .text.provisioner_config_successful_cb
                0x000235d4      0x130 examples/light_switch/client/CMakeFiles/light_switch_client_nrf52832_xxAA_s132_5.0.0.dir/src/main.c.obj
                0x000235d4                provisioner_config_successful_cb
 .text.provisioner_config_failed_cb
                0x00023704       0xc0 examples/light_switch/client/CMakeFiles/light_switch_client_nrf52832_xxAA_s132_5.0.0.dir/src/main.c.obj
                0x00023704                provisioner_config_failed_cb
 .text.provisioner_prov_complete_cb
                0x000237c4      0x128 examples/light_switch/client/CMakeFiles/light_switch_client_nrf52832_xxAA_s132_5.0.0.dir/src/main.c.obj
                0x000237c4                provisioner_prov_complete_cb
 .text.startup.main
                0x000238ec      0x41c examples/light_switch/client/CMakeFiles/light_switch_client_nrf52832_xxAA_s132_5.0.0.dir/src/main.c.obj
                0x000238ec                main
 .text.do_config_step
                0x00023d08      0x3e8 examples/light_switch/client/CMakeFiles/light_switch_client_nrf52832_xxAA_s132_5.0.0.dir/src/provisioner.c.obj
 .text.prov_evt_handler
                0x000240f0      0x320 examples/light_switch/client/CMakeFiles/light_switch_client_nrf52832_xxAA_s132_5.0.0.dir/src/provisioner.c.obj
 .text.provisioner_configure
                0x00024410       0x20 examples/light_switch/client/CMakeFiles/light_switch_client_nrf52832_xxAA_s132_5.0.0.dir/src/provisioner.c.obj
                0x00024410                provisioner_configure
 .text.provisioner_wait_for_unprov
                0x00024430       0x14 examples/light_switch/client/CMakeFiles/light_switch_client_nrf52832_xxAA_s132_5.0.0.dir/src/provisioner.c.obj
                0x00024430                provisioner_wait_for_unprov
 .text.config_client_event_cb
                0x00024444      0x1f0 examples/light_switch/client/CMakeFiles/light_switch_client_nrf52832_xxAA_s132_5.0.0.dir/src/provisioner.c.obj
                0x00024444                config_client_event_cb
 .text.provisioner_init
                0x00024634       0x9c examples/light_switch/client/CMakeFiles/light_switch_client_nrf52832_xxAA_s132_5.0.0.dir/src/provisioner.c.obj
                0x00024634                provisioner_init
 .text.sd_evt_get
                0x000246d0        0x4 examples/light_switch/client/CMakeFiles/light_switch_client_nrf52832_xxAA_s132_5.0.0.dir/__/__/nrf_mesh_sdk.c.obj
 .text.sd_softdevice_enable
                0x000246d4        0x4 examples/light_switch/client/CMakeFiles/light_switch_client_nrf52832_xxAA_s132_5.0.0.dir/__/__/nrf_mesh_sdk.c.obj
 .text.sd_ble_enable
                0x000246d8        0x4 examples/light_switch/client/CMakeFiles/light_switch_client_nrf52832_xxAA_s132_5.0.0.dir/__/__/nrf_mesh_sdk.c.obj
 .text.sd_ble_evt_get
                0x000246dc        0x4 examples/light_switch/client/CMakeFiles/light_switch_client_nrf52832_xxAA_s132_5.0.0.dir/__/__/nrf_mesh_sdk.c.obj
 .text.sleep_forever
                0x000246e0       0x1c examples/light_switch/client/CMakeFiles/light_switch_client_nrf52832_xxAA_s132_5.0.0.dir/__/__/nrf_mesh_sdk.c.obj
 .text.mesh_assert_handler
                0x000246fc       0x70 examples/light_switch/client/CMakeFiles/light_switch_client_nrf52832_xxAA_s132_5.0.0.dir/__/__/nrf_mesh_sdk.c.obj
                0x000246fc                mesh_assert_handler
 .text.softdevice_assert_handler
                0x0002476c       0x78 examples/light_switch/client/CMakeFiles/light_switch_client_nrf52832_xxAA_s132_5.0.0.dir/__/__/nrf_mesh_sdk.c.obj
                0x0002476c                softdevice_assert_handler
 .text.app_error_handler
                0x000247e4       0x78 examples/light_switch/client/CMakeFiles/light_switch_client_nrf52832_xxAA_s132_5.0.0.dir/__/__/nrf_mesh_sdk.c.obj
                0x000247e4                app_error_handler
 .text.HardFault_Handler
                0x0002485c       0x6c examples/light_switch/client/CMakeFiles/light_switch_client_nrf52832_xxAA_s132_5.0.0.dir/__/__/nrf_mesh_sdk.c.obj
                0x0002485c                HardFault_Handler
 .text.SWI2_EGU2_IRQHandler
                0x000248c8       0x3c examples/light_switch/client/CMakeFiles/light_switch_client_nrf52832_xxAA_s132_5.0.0.dir/__/__/nrf_mesh_sdk.c.obj
                0x000248c8                SWI2_EGU2_IRQHandler
 .text.mesh_softdevice_enable
                0x00024904      0x124 examples/light_switch/client/CMakeFiles/light_switch_client_nrf52832_xxAA_s132_5.0.0.dir/__/__/nrf_mesh_sdk.c.obj
                0x00024904                mesh_softdevice_enable
 .text.mesh_softdevice_setup
                0x00024a28       0x7c examples/light_switch/client/CMakeFiles/light_switch_client_nrf52832_xxAA_s132_5.0.0.dir/__/__/nrf_mesh_sdk.c.obj
                0x00024a28                mesh_softdevice_setup
 .text.mesh_core_setup
                0x00024aa4      0x15c examples/light_switch/client/CMakeFiles/light_switch_client_nrf52832_xxAA_s132_5.0.0.dir/__/__/nrf_mesh_sdk.c.obj
                0x00024aa4                mesh_core_setup
 .text.TIMER2_IRQHandler
                0x00024c00       0x30 examples/light_switch/client/CMakeFiles/light_switch_client_nrf52832_xxAA_s132_5.0.0.dir/__/__/common/src/rtt_input.c.obj
                0x00024c00                TIMER2_IRQHandler
 .text.rtt_input_enable
                0x00024c30       0x5c examples/light_switch/client/CMakeFiles/light_switch_client_nrf52832_xxAA_s132_5.0.0.dir/__/__/common/src/rtt_input.c.obj
                0x00024c30                rtt_input_enable
 .text.hal_led_pin_get
                0x00024c8c       0x18 examples/light_switch/client/CMakeFiles/light_switch_client_nrf52832_xxAA_s132_5.0.0.dir/__/__/common/src/simple_hal.c.obj
                0x00024c8c                hal_led_pin_get
 .text.hal_led_pin_set
                0x00024ca4       0x16 examples/light_switch/client/CMakeFiles/light_switch_client_nrf52832_xxAA_s132_5.0.0.dir/__/__/common/src/simple_hal.c.obj
                0x00024ca4                hal_led_pin_set
 *fill*         0x00024cba        0x2 
 .text.hal_led_blink_ms
                0x00024cbc       0xb4 examples/light_switch/client/CMakeFiles/light_switch_client_nrf52832_xxAA_s132_5.0.0.dir/__/__/common/src/simple_hal.c.obj
                0x00024cbc                hal_led_blink_ms
 .text.hal_leds_init
                0x00024d70       0x38 examples/light_switch/client/CMakeFiles/light_switch_client_nrf52832_xxAA_s132_5.0.0.dir/__/__/common/src/simple_hal.c.obj
                0x00024d70                hal_leds_init
 .text.hal_buttons_init
                0x00024da8       0x50 examples/light_switch/client/CMakeFiles/light_switch_client_nrf52832_xxAA_s132_5.0.0.dir/__/__/common/src/simple_hal.c.obj
                0x00024da8                hal_buttons_init
 .text.GPIOTE_IRQHandler
                0x00024df8       0x60 examples/light_switch/client/CMakeFiles/light_switch_client_nrf52832_xxAA_s132_5.0.0.dir/__/__/common/src/simple_hal.c.obj
                0x00024df8                GPIOTE_IRQHandler
 .text._weak_handler
                0x00024e58        0x4 examples/light_switch/client/CMakeFiles/light_switch_client_nrf52832_xxAA_s132_5.0.0.dir/__/__/nrf_mesh_weak.c.obj
                0x00024e58                nrf_mesh_dfu_init
                0x00024e58                nrf_mesh_dfu_jump_to_bootloader
                0x00024e58                nrf_mesh_dfu_rx
                0x00024e58                nrf_mesh_dfu_bank_info_get
                0x00024e58                nrf_mesh_dfu_request
                0x00024e58                nrf_mesh_dfu_bank_flash
                0x00024e58                _weak_handler
                0x00024e58                prov_provisionee_auth_data
                0x00024e58                nrf_mesh_dfu_relay
                0x00024e58                prov_provisionee_shared_secret
                0x00024e58                nrf_mesh_dfu_abort
                0x00024e58                mesh_flash_op_execute
                0x00024e58                prov_provisionee_init
                0x00024e58                nrf_mesh_dfu_state_get
 .text.reliable_status_cb
                0x00024e5c       0x48 examples/light_switch/client/CMakeFiles/light_switch_client_nrf52832_xxAA_s132_5.0.0.dir/__/__/__/models/simple_on_off/src/simple_on_off_client.c.obj
 .text.handle_status_cb
                0x00024ea4       0x5c examples/light_switch/client/CMakeFiles/light_switch_client_nrf52832_xxAA_s132_5.0.0.dir/__/__/__/models/simple_on_off/src/simple_on_off_client.c.obj
 .text.simple_on_off_client_init
                0x00024f00       0x3c examples/light_switch/client/CMakeFiles/light_switch_client_nrf52832_xxAA_s132_5.0.0.dir/__/__/__/models/simple_on_off/src/simple_on_off_client.c.obj
                0x00024f00                simple_on_off_client_init
 .text.simple_on_off_client_set
                0x00024f3c       0x70 examples/light_switch/client/CMakeFiles/light_switch_client_nrf52832_xxAA_s132_5.0.0.dir/__/__/__/models/simple_on_off/src/simple_on_off_client.c.obj
                0x00024f3c                simple_on_off_client_set
 .text.simple_on_off_client_set_unreliable
                0x00024fac       0x50 examples/light_switch/client/CMakeFiles/light_switch_client_nrf52832_xxAA_s132_5.0.0.dir/__/__/__/models/simple_on_off/src/simple_on_off_client.c.obj
                0x00024fac                simple_on_off_client_set_unreliable
 .text.reliable_status_cb
                0x00024ffc       0x30 examples/light_switch/client/CMakeFiles/light_switch_client_nrf52832_xxAA_s132_5.0.0.dir/__/__/__/models/config/src/config_client.c.obj
 .text.send_reliable
                0x0002502c       0x64 examples/light_switch/client/CMakeFiles/light_switch_client_nrf52832_xxAA_s132_5.0.0.dir/__/__/__/models/config/src/config_client.c.obj
 .text.subscription_add_del_owr_send.isra.1
                0x00025090       0x6c examples/light_switch/client/CMakeFiles/light_switch_client_nrf52832_xxAA_s132_5.0.0.dir/__/__/__/models/config/src/config_client.c.obj
 .text.subscription_virtual_add_del_owr_send.isra.2
                0x000250fc       0x70 examples/light_switch/client/CMakeFiles/light_switch_client_nrf52832_xxAA_s132_5.0.0.dir/__/__/__/models/config/src/config_client.c.obj
 .text.client_in_wrong_state.constprop.3
                0x0002516c       0x20 examples/light_switch/client/CMakeFiles/light_switch_client_nrf52832_xxAA_s132_5.0.0.dir/__/__/__/models/config/src/config_client.c.obj
 .text.app_bind_unbind_send
                0x0002518c       0x80 examples/light_switch/client/CMakeFiles/light_switch_client_nrf52832_xxAA_s132_5.0.0.dir/__/__/__/models/config/src/config_client.c.obj
 .text.config_opcode_handler
                0x0002520c       0x68 examples/light_switch/client/CMakeFiles/light_switch_client_nrf52832_xxAA_s132_5.0.0.dir/__/__/__/models/config/src/config_client.c.obj
 .text.config_client_init
                0x00025274       0x60 examples/light_switch/client/CMakeFiles/light_switch_client_nrf52832_xxAA_s132_5.0.0.dir/__/__/__/models/config/src/config_client.c.obj
                0x00025274                config_client_init
 .text.config_client_server_set
                0x000252d4       0x94 examples/light_switch/client/CMakeFiles/light_switch_client_nrf52832_xxAA_s132_5.0.0.dir/__/__/__/models/config/src/config_client.c.obj
                0x000252d4                config_client_server_set
 .text.config_client_server_bind
                0x00025368       0x30 examples/light_switch/client/CMakeFiles/light_switch_client_nrf52832_xxAA_s132_5.0.0.dir/__/__/__/models/config/src/config_client.c.obj
                0x00025368                config_client_server_bind
 .text.config_client_composition_data_get
                0x00025398       0x54 examples/light_switch/client/CMakeFiles/light_switch_client_nrf52832_xxAA_s132_5.0.0.dir/__/__/__/models/config/src/config_client.c.obj
                0x00025398                config_client_composition_data_get
 .text.config_client_appkey_add
                0x000253ec       0x94 examples/light_switch/client/CMakeFiles/light_switch_client_nrf52832_xxAA_s132_5.0.0.dir/__/__/__/models/config/src/config_client.c.obj
                0x000253ec                config_client_appkey_add
 .text.config_client_model_publication_set
                0x00025480      0x180 examples/light_switch/client/CMakeFiles/light_switch_client_nrf52832_xxAA_s132_5.0.0.dir/__/__/__/models/config/src/config_client.c.obj
                0x00025480                config_client_model_publication_set
 .text.config_client_model_subscription_add
                0x00025600       0x4c examples/light_switch/client/CMakeFiles/light_switch_client_nrf52832_xxAA_s132_5.0.0.dir/__/__/__/models/config/src/config_client.c.obj
                0x00025600                config_client_model_subscription_add
 .text.config_client_model_app_bind
                0x0002564c        0xe examples/light_switch/client/CMakeFiles/light_switch_client_nrf52832_xxAA_s132_5.0.0.dir/__/__/__/models/config/src/config_client.c.obj
                0x0002564c                config_client_model_app_bind
 .text.handle_fault_status
                0x0002565a       0x48 examples/light_switch/client/CMakeFiles/light_switch_client_nrf52832_xxAA_s132_5.0.0.dir/__/__/__/models/health/src/health_client.c.obj
 .text.handle_period_status
                0x000256a2       0x28 examples/light_switch/client/CMakeFiles/light_switch_client_nrf52832_xxAA_s132_5.0.0.dir/__/__/__/models/health/src/health_client.c.obj
 .text.handle_attention_status
                0x000256ca       0x28 examples/light_switch/client/CMakeFiles/light_switch_client_nrf52832_xxAA_s132_5.0.0.dir/__/__/__/models/health/src/health_client.c.obj
 *fill*         0x000256f2        0x2 
 .text.health_client_init
                0x000256f4       0x54 examples/light_switch/client/CMakeFiles/light_switch_client_nrf52832_xxAA_s132_5.0.0.dir/__/__/__/models/health/src/health_client.c.obj
                0x000256f4                health_client_init
 .text.add_to_publication_list
                0x00025748       0x84 examples/light_switch/client/CMakeFiles/light_switch_client_nrf52832_xxAA_s132_5.0.0.dir/__/__/__/mesh/access/src/access_publish.c.obj
 .text.step_resolution_to_us
                0x000257cc       0x44 examples/light_switch/client/CMakeFiles/light_switch_client_nrf52832_xxAA_s132_5.0.0.dir/__/__/__/mesh/access/src/access_publish.c.obj
 .text.schedule_publication_timer
                0x00025810      0x184 examples/light_switch/client/CMakeFiles/light_switch_client_nrf52832_xxAA_s132_5.0.0.dir/__/__/__/mesh/access/src/access_publish.c.obj
 .text.publish_timer_tick
                0x00025994       0xbc examples/light_switch/client/CMakeFiles/light_switch_client_nrf52832_xxAA_s132_5.0.0.dir/__/__/__/mesh/access/src/access_publish.c.obj
 .text.access_publish_init
                0x00025a50       0x38 examples/light_switch/client/CMakeFiles/light_switch_client_nrf52832_xxAA_s132_5.0.0.dir/__/__/__/mesh/access/src/access_publish.c.obj
                0x00025a50                access_publish_init
 .text.bitfield_get
                0x00025a88       0x1a examples/light_switch/client/CMakeFiles/light_switch_client_nrf52832_xxAA_s132_5.0.0.dir/__/__/__/mesh/access/src/access.c.obj
 .text.is_valid_opcode
                0x00025aa2       0x42 examples/light_switch/client/CMakeFiles/light_switch_client_nrf52832_xxAA_s132_5.0.0.dir/__/__/__/mesh/access/src/access.c.obj
 .text.model_handle_valid_and_allocated
                0x00025ae4       0x20 examples/light_switch/client/CMakeFiles/light_switch_client_nrf52832_xxAA_s132_5.0.0.dir/__/__/__/mesh/access/src/access.c.obj
 .text.flash_invalidate_complete
                0x00025b04       0x14 examples/light_switch/client/CMakeFiles/light_switch_client_nrf52832_xxAA_s132_5.0.0.dir/__/__/__/mesh/access/src/access.c.obj
 .text.flash_manager_mem_available
                0x00025b18        0x2 examples/light_switch/client/CMakeFiles/light_switch_client_nrf52832_xxAA_s132_5.0.0.dir/__/__/__/mesh/access/src/access.c.obj
 *fill*         0x00025b1a        0x2 
 .text.restore_acquired_subscription
                0x00025b1c       0x30 examples/light_switch/client/CMakeFiles/light_switch_client_nrf52832_xxAA_s132_5.0.0.dir/__/__/__/mesh/access/src/access.c.obj
 .text.restore_acquired_element
                0x00025b4c       0x20 examples/light_switch/client/CMakeFiles/light_switch_client_nrf52832_xxAA_s132_5.0.0.dir/__/__/__/mesh/access/src/access.c.obj
 .text.restore_flash_data
                0x00025b6c       0x5c examples/light_switch/client/CMakeFiles/light_switch_client_nrf52832_xxAA_s132_5.0.0.dir/__/__/__/mesh/access/src/access.c.obj
 .text.access_flash_config_clear
                0x00025bc8       0x28 examples/light_switch/client/CMakeFiles/light_switch_client_nrf52832_xxAA_s132_5.0.0.dir/__/__/__/mesh/access/src/access.c.obj
 .text.access_flash_config_store
                0x00025bf0      0x150 examples/light_switch/client/CMakeFiles/light_switch_client_nrf52832_xxAA_s132_5.0.0.dir/__/__/__/mesh/access/src/access.c.obj
                0x00025bf0                access_flash_config_store
 .text.access_state_clear
                0x00025d40       0x4c examples/light_switch/client/CMakeFiles/light_switch_client_nrf52832_xxAA_s132_5.0.0.dir/__/__/__/mesh/access/src/access.c.obj
 .text.add_flash_manager
                0x00025d8c       0x58 examples/light_switch/client/CMakeFiles/light_switch_client_nrf52832_xxAA_s132_5.0.0.dir/__/__/__/mesh/access/src/access.c.obj
 .text.flash_remove_complete
                0x00025de4       0x64 examples/light_switch/client/CMakeFiles/light_switch_client_nrf52832_xxAA_s132_5.0.0.dir/__/__/__/mesh/access/src/access.c.obj
 .text.flash_write_complete
                0x00025e48       0x54 examples/light_switch/client/CMakeFiles/light_switch_client_nrf52832_xxAA_s132_5.0.0.dir/__/__/__/mesh/access/src/access.c.obj
 .text.unlikely.bitfield_next_get.part.0.constprop.3
                0x00025e9c       0x34 examples/light_switch/client/CMakeFiles/light_switch_client_nrf52832_xxAA_s132_5.0.0.dir/__/__/__/mesh/access/src/access.c.obj
 .text.restore_acquired_model
                0x00025ed0       0x94 examples/light_switch/client/CMakeFiles/light_switch_client_nrf52832_xxAA_s132_5.0.0.dir/__/__/__/mesh/access/src/access.c.obj
 .text.handle_incoming
                0x00025f64      0x158 examples/light_switch/client/CMakeFiles/light_switch_client_nrf52832_xxAA_s132_5.0.0.dir/__/__/__/mesh/access/src/access.c.obj
 .text.mesh_evt_cb
                0x000260bc      0x134 examples/light_switch/client/CMakeFiles/light_switch_client_nrf52832_xxAA_s132_5.0.0.dir/__/__/__/mesh/access/src/access.c.obj
 .text.packet_tx
                0x000261f0      0x2c4 examples/light_switch/client/CMakeFiles/light_switch_client_nrf52832_xxAA_s132_5.0.0.dir/__/__/__/mesh/access/src/access.c.obj
 .text.access_flash_config_load
                0x000264b4      0x134 examples/light_switch/client/CMakeFiles/light_switch_client_nrf52832_xxAA_s132_5.0.0.dir/__/__/__/mesh/access/src/access.c.obj
                0x000264b4                access_flash_config_load
 .text.access_init
                0x000265e8       0x28 examples/light_switch/client/CMakeFiles/light_switch_client_nrf52832_xxAA_s132_5.0.0.dir/__/__/__/mesh/access/src/access.c.obj
                0x000265e8                access_init
 .text.access_model_add
                0x00026610      0x1bc examples/light_switch/client/CMakeFiles/light_switch_client_nrf52832_xxAA_s132_5.0.0.dir/__/__/__/mesh/access/src/access.c.obj
                0x00026610                access_model_add
 .text.access_model_publish
                0x000267cc        0xc examples/light_switch/client/CMakeFiles/light_switch_client_nrf52832_xxAA_s132_5.0.0.dir/__/__/__/mesh/access/src/access.c.obj
                0x000267cc                access_model_publish
 .text.access_model_publish_address_set
                0x000267d8       0x3c examples/light_switch/client/CMakeFiles/light_switch_client_nrf52832_xxAA_s132_5.0.0.dir/__/__/__/mesh/access/src/access.c.obj
                0x000267d8                access_model_publish_address_set
 .text.access_model_publish_address_get
                0x00026814       0x28 examples/light_switch/client/CMakeFiles/light_switch_client_nrf52832_xxAA_s132_5.0.0.dir/__/__/__/mesh/access/src/access.c.obj
                0x00026814                access_model_publish_address_get
 .text.access_model_subscription_list_alloc
                0x0002683c       0x54 examples/light_switch/client/CMakeFiles/light_switch_client_nrf52832_xxAA_s132_5.0.0.dir/__/__/__/mesh/access/src/access.c.obj
                0x0002683c                access_model_subscription_list_alloc
 .text.access_model_application_bind
                0x00026890       0x50 examples/light_switch/client/CMakeFiles/light_switch_client_nrf52832_xxAA_s132_5.0.0.dir/__/__/__/mesh/access/src/access.c.obj
                0x00026890                access_model_application_bind
 .text.access_model_publish_application_set
                0x000268e0       0x3c examples/light_switch/client/CMakeFiles/light_switch_client_nrf52832_xxAA_s132_5.0.0.dir/__/__/__/mesh/access/src/access.c.obj
                0x000268e0                access_model_publish_application_set
 .text.access_model_publish_ttl_get
                0x0002691c       0x28 examples/light_switch/client/CMakeFiles/light_switch_client_nrf52832_xxAA_s132_5.0.0.dir/__/__/__/mesh/access/src/access.c.obj
                0x0002691c                access_model_publish_ttl_get
 .text.access_model_p_args_get
                0x00026944       0x28 examples/light_switch/client/CMakeFiles/light_switch_client_nrf52832_xxAA_s132_5.0.0.dir/__/__/__/mesh/access/src/access.c.obj
                0x00026944                access_model_p_args_get
 .text.remove_and_reschedule
                0x0002696c       0xd0 examples/light_switch/client/CMakeFiles/light_switch_client_nrf52832_xxAA_s132_5.0.0.dir/__/__/__/mesh/access/src/access_reliable.c.obj
 .text.reliable_timer_cb
                0x00026a3c      0x148 examples/light_switch/client/CMakeFiles/light_switch_client_nrf52832_xxAA_s132_5.0.0.dir/__/__/__/mesh/access/src/access_reliable.c.obj
 .text.access_reliable_message_rx_cb
                0x00026b84       0x74 examples/light_switch/client/CMakeFiles/light_switch_client_nrf52832_xxAA_s132_5.0.0.dir/__/__/__/mesh/access/src/access_reliable.c.obj
                0x00026b84                access_reliable_message_rx_cb
 .text.access_reliable_init
                0x00026bf8       0x20 examples/light_switch/client/CMakeFiles/light_switch_client_nrf52832_xxAA_s132_5.0.0.dir/__/__/__/mesh/access/src/access_reliable.c.obj
                0x00026bf8                access_reliable_init
 .text.access_model_reliable_publish
                0x00026c18      0x1a8 examples/light_switch/client/CMakeFiles/light_switch_client_nrf52832_xxAA_s132_5.0.0.dir/__/__/__/mesh/access/src/access_reliable.c.obj
                0x00026c18                access_model_reliable_publish
 .text.bitfield_get
                0x00026dc0       0x1a examples/light_switch/client/CMakeFiles/light_switch_client_nrf52832_xxAA_s132_5.0.0.dir/__/__/__/mesh/access/src/device_state_manager.c.obj
 .text.bitfield_set
                0x00026dda       0x18 examples/light_switch/client/CMakeFiles/light_switch_client_nrf52832_xxAA_s132_5.0.0.dir/__/__/__/mesh/access/src/device_state_manager.c.obj
 .text.bitfield_clear
                0x00026df2       0x1a examples/light_switch/client/CMakeFiles/light_switch_client_nrf52832_xxAA_s132_5.0.0.dir/__/__/__/mesh/access/src/device_state_manager.c.obj
 .text.bitfield_is_all_clear
                0x00026e0c       0x3c examples/light_switch/client/CMakeFiles/light_switch_client_nrf52832_xxAA_s132_5.0.0.dir/__/__/__/mesh/access/src/device_state_manager.c.obj
 .text.address_handle_virtual_valid
                0x00026e48       0x14 examples/light_switch/client/CMakeFiles/light_switch_client_nrf52832_xxAA_s132_5.0.0.dir/__/__/__/mesh/access/src/device_state_manager.c.obj
 .text.net_key_handle_get
                0x00026e5c       0x38 examples/light_switch/client/CMakeFiles/light_switch_client_nrf52832_xxAA_s132_5.0.0.dir/__/__/__/mesh/access/src/device_state_manager.c.obj
 .text.dev_key_handle_get
                0x00026e94       0x58 examples/light_switch/client/CMakeFiles/light_switch_client_nrf52832_xxAA_s132_5.0.0.dir/__/__/__/mesh/access/src/device_state_manager.c.obj
 .text.app_key_handle_get
                0x00026eec       0x38 examples/light_switch/client/CMakeFiles/light_switch_client_nrf52832_xxAA_s132_5.0.0.dir/__/__/__/mesh/access/src/device_state_manager.c.obj
 .text.get_subnet_handle
                0x00026f24       0x40 examples/light_switch/client/CMakeFiles/light_switch_client_nrf52832_xxAA_s132_5.0.0.dir/__/__/__/mesh/access/src/device_state_manager.c.obj
 .text.addr_nonvirtual_to_flash_entry
                0x00026f64       0x10 examples/light_switch/client/CMakeFiles/light_switch_client_nrf52832_xxAA_s132_5.0.0.dir/__/__/__/mesh/access/src/device_state_manager.c.obj
 .text.flash_mem_listener_callback
                0x00026f74       0x20 examples/light_switch/client/CMakeFiles/light_switch_client_nrf52832_xxAA_s132_5.0.0.dir/__/__/__/mesh/access/src/device_state_manager.c.obj
 .text.devkey_set
                0x00026f94       0x4c examples/light_switch/client/CMakeFiles/light_switch_client_nrf52832_xxAA_s132_5.0.0.dir/__/__/__/mesh/access/src/device_state_manager.c.obj
 .text.devkey_to_dsm_entry
                0x00026fe0       0x16 examples/light_switch/client/CMakeFiles/light_switch_client_nrf52832_xxAA_s132_5.0.0.dir/__/__/__/mesh/access/src/device_state_manager.c.obj
 *fill*         0x00026ff6        0x2 
 .text.devkey_to_flash_entry
                0x00026ff8       0x28 examples/light_switch/client/CMakeFiles/light_switch_client_nrf52832_xxAA_s132_5.0.0.dir/__/__/__/mesh/access/src/device_state_manager.c.obj
 .text.addr_virtual_to_flash_entry
                0x00027020       0x18 examples/light_switch/client/CMakeFiles/light_switch_client_nrf52832_xxAA_s132_5.0.0.dir/__/__/__/mesh/access/src/device_state_manager.c.obj
 .text.addr_unicast_to_dsm_entry
                0x00027038        0xc examples/light_switch/client/CMakeFiles/light_switch_client_nrf52832_xxAA_s132_5.0.0.dir/__/__/__/mesh/access/src/device_state_manager.c.obj
 .text.addr_unicast_to_flash_entry
                0x00027044       0x10 examples/light_switch/client/CMakeFiles/light_switch_client_nrf52832_xxAA_s132_5.0.0.dir/__/__/__/mesh/access/src/device_state_manager.c.obj
 .text.appkey_set
                0x00027054       0x7c examples/light_switch/client/CMakeFiles/light_switch_client_nrf52832_xxAA_s132_5.0.0.dir/__/__/__/mesh/access/src/device_state_manager.c.obj
 .text.appkey_to_flash_entry
                0x000270d0       0x54 examples/light_switch/client/CMakeFiles/light_switch_client_nrf52832_xxAA_s132_5.0.0.dir/__/__/__/mesh/access/src/device_state_manager.c.obj
 .text.subnet_to_flash_entry
                0x00027124       0x60 examples/light_switch/client/CMakeFiles/light_switch_client_nrf52832_xxAA_s132_5.0.0.dir/__/__/__/mesh/access/src/device_state_manager.c.obj
 .text.subnet_set
                0x00027184       0xb4 examples/light_switch/client/CMakeFiles/light_switch_client_nrf52832_xxAA_s132_5.0.0.dir/__/__/__/mesh/access/src/device_state_manager.c.obj
 .text.virtual_address_set
                0x00027238       0x54 examples/light_switch/client/CMakeFiles/light_switch_client_nrf52832_xxAA_s132_5.0.0.dir/__/__/__/mesh/access/src/device_state_manager.c.obj
 .text.addr_virtual_to_dsm_entry
                0x0002728c        0xc examples/light_switch/client/CMakeFiles/light_switch_client_nrf52832_xxAA_s132_5.0.0.dir/__/__/__/mesh/access/src/device_state_manager.c.obj
 .text.reset_flash_area
                0x00027298       0x28 examples/light_switch/client/CMakeFiles/light_switch_client_nrf52832_xxAA_s132_5.0.0.dir/__/__/__/mesh/access/src/device_state_manager.c.obj
 .text.flash_save
                0x000272c0       0x88 examples/light_switch/client/CMakeFiles/light_switch_client_nrf52832_xxAA_s132_5.0.0.dir/__/__/__/mesh/access/src/device_state_manager.c.obj
 .text.flash_invalidate
                0x00027348       0x70 examples/light_switch/client/CMakeFiles/light_switch_client_nrf52832_xxAA_s132_5.0.0.dir/__/__/__/mesh/access/src/device_state_manager.c.obj
 .text.flash_update_all
                0x000273b8       0x6c examples/light_switch/client/CMakeFiles/light_switch_client_nrf52832_xxAA_s132_5.0.0.dir/__/__/__/mesh/access/src/device_state_manager.c.obj
 .text.virtual_address_uuid_index_get
                0x00027424       0x3c examples/light_switch/client/CMakeFiles/light_switch_client_nrf52832_xxAA_s132_5.0.0.dir/__/__/__/mesh/access/src/device_state_manager.c.obj
 .text.get_subnet_handle_by_beacon_info
                0x00027460       0x30 examples/light_switch/client/CMakeFiles/light_switch_client_nrf52832_xxAA_s132_5.0.0.dir/__/__/__/mesh/access/src/device_state_manager.c.obj
 .text.get_app_handle
                0x00027490       0x4c examples/light_switch/client/CMakeFiles/light_switch_client_nrf52832_xxAA_s132_5.0.0.dir/__/__/__/mesh/access/src/device_state_manager.c.obj
 .text.appkey_to_dsm_entry
                0x000274dc       0x80 examples/light_switch/client/CMakeFiles/light_switch_client_nrf52832_xxAA_s132_5.0.0.dir/__/__/__/mesh/access/src/device_state_manager.c.obj
 .text.subnet_to_dsm_entry
                0x0002755c       0x7c examples/light_switch/client/CMakeFiles/light_switch_client_nrf52832_xxAA_s132_5.0.0.dir/__/__/__/mesh/access/src/device_state_manager.c.obj
 .text.flash_operation_complete
                0x000275d8       0x58 examples/light_switch/client/CMakeFiles/light_switch_client_nrf52832_xxAA_s132_5.0.0.dir/__/__/__/mesh/access/src/device_state_manager.c.obj
 .text.flash_invalidate_complete
                0x00027630        0x8 examples/light_switch/client/CMakeFiles/light_switch_client_nrf52832_xxAA_s132_5.0.0.dir/__/__/__/mesh/access/src/device_state_manager.c.obj
 .text.flash_write_complete
                0x00027638        0x8 examples/light_switch/client/CMakeFiles/light_switch_client_nrf52832_xxAA_s132_5.0.0.dir/__/__/__/mesh/access/src/device_state_manager.c.obj
 .text.add_address.part.7
                0x00027640      0x144 examples/light_switch/client/CMakeFiles/light_switch_client_nrf52832_xxAA_s132_5.0.0.dir/__/__/__/mesh/access/src/device_state_manager.c.obj
 .text.address_handle_valid
                0x00027784       0x28 examples/light_switch/client/CMakeFiles/light_switch_client_nrf52832_xxAA_s132_5.0.0.dir/__/__/__/mesh/access/src/device_state_manager.c.obj
 .text.address_handle_nonvirtual_valid
                0x000277ac       0x14 examples/light_switch/client/CMakeFiles/light_switch_client_nrf52832_xxAA_s132_5.0.0.dir/__/__/__/mesh/access/src/device_state_manager.c.obj
 .text.address_delete_if_unused
                0x000277c0       0x78 examples/light_switch/client/CMakeFiles/light_switch_client_nrf52832_xxAA_s132_5.0.0.dir/__/__/__/mesh/access/src/device_state_manager.c.obj
 .text.addr_nonvirtual_to_dsm_entry
                0x00027838       0x38 examples/light_switch/client/CMakeFiles/light_switch_client_nrf52832_xxAA_s132_5.0.0.dir/__/__/__/mesh/access/src/device_state_manager.c.obj
 .text.dsm_flash_config_load
                0x00027870      0x134 examples/light_switch/client/CMakeFiles/light_switch_client_nrf52832_xxAA_s132_5.0.0.dir/__/__/__/mesh/access/src/device_state_manager.c.obj
                0x00027870                dsm_flash_config_load
 .text.dsm_flash_area_get
                0x000279a4        0xc examples/light_switch/client/CMakeFiles/light_switch_client_nrf52832_xxAA_s132_5.0.0.dir/__/__/__/mesh/access/src/device_state_manager.c.obj
                0x000279a4                dsm_flash_area_get
 .text.build_flash_area
                0x000279b0       0x8c examples/light_switch/client/CMakeFiles/light_switch_client_nrf52832_xxAA_s132_5.0.0.dir/__/__/__/mesh/access/src/device_state_manager.c.obj
 .text.flash_remove_complete
                0x00027a3c        0x4 examples/light_switch/client/CMakeFiles/light_switch_client_nrf52832_xxAA_s132_5.0.0.dir/__/__/__/mesh/access/src/device_state_manager.c.obj
 .text.dsm_init
                0x00027a40       0x24 examples/light_switch/client/CMakeFiles/light_switch_client_nrf52832_xxAA_s132_5.0.0.dir/__/__/__/mesh/access/src/device_state_manager.c.obj
                0x00027a40                dsm_init
 .text.dsm_local_unicast_addresses_set
                0x00027a64       0x84 examples/light_switch/client/CMakeFiles/light_switch_client_nrf52832_xxAA_s132_5.0.0.dir/__/__/__/mesh/access/src/device_state_manager.c.obj
                0x00027a64                dsm_local_unicast_addresses_set
 .text.dsm_local_unicast_addresses_get
                0x00027ae8       0x2c examples/light_switch/client/CMakeFiles/light_switch_client_nrf52832_xxAA_s132_5.0.0.dir/__/__/__/mesh/access/src/device_state_manager.c.obj
                0x00027ae8                dsm_local_unicast_addresses_get
 .text.dsm_address_publish_add
                0x00027b14        0xc examples/light_switch/client/CMakeFiles/light_switch_client_nrf52832_xxAA_s132_5.0.0.dir/__/__/__/mesh/access/src/device_state_manager.c.obj
                0x00027b14                dsm_address_publish_add
 .text.dsm_address_publish_add_handle
                0x00027b20       0x38 examples/light_switch/client/CMakeFiles/light_switch_client_nrf52832_xxAA_s132_5.0.0.dir/__/__/__/mesh/access/src/device_state_manager.c.obj
                0x00027b20                dsm_address_publish_add_handle
 .text.dsm_address_publish_remove
                0x00027b58       0x40 examples/light_switch/client/CMakeFiles/light_switch_client_nrf52832_xxAA_s132_5.0.0.dir/__/__/__/mesh/access/src/device_state_manager.c.obj
                0x00027b58                dsm_address_publish_remove
 .text.dsm_address_subscription_add_handle
                0x00027b98       0x38 examples/light_switch/client/CMakeFiles/light_switch_client_nrf52832_xxAA_s132_5.0.0.dir/__/__/__/mesh/access/src/device_state_manager.c.obj
                0x00027b98                dsm_address_subscription_add_handle
 .text.dsm_address_subscription_get
                0x00027bd0       0x34 examples/light_switch/client/CMakeFiles/light_switch_client_nrf52832_xxAA_s132_5.0.0.dir/__/__/__/mesh/access/src/device_state_manager.c.obj
                0x00027bd0                dsm_address_subscription_get
 .text.dsm_address_get
                0x00027c04       0x5c examples/light_switch/client/CMakeFiles/light_switch_client_nrf52832_xxAA_s132_5.0.0.dir/__/__/__/mesh/access/src/device_state_manager.c.obj
                0x00027c04                dsm_address_get
 .text.dsm_address_get_all
                0x00027c60       0x64 examples/light_switch/client/CMakeFiles/light_switch_client_nrf52832_xxAA_s132_5.0.0.dir/__/__/__/mesh/access/src/device_state_manager.c.obj
                0x00027c60                dsm_address_get_all
 .text.dsm_address_handle_get
                0x00027cc4       0x98 examples/light_switch/client/CMakeFiles/light_switch_client_nrf52832_xxAA_s132_5.0.0.dir/__/__/__/mesh/access/src/device_state_manager.c.obj
                0x00027cc4                dsm_address_handle_get
 .text.dsm_appkey_handle_get
                0x00027d5c        0xc examples/light_switch/client/CMakeFiles/light_switch_client_nrf52832_xxAA_s132_5.0.0.dir/__/__/__/mesh/access/src/device_state_manager.c.obj
                0x00027d5c                dsm_appkey_handle_get
 .text.dsm_subnet_add
                0x00027d68       0x58 examples/light_switch/client/CMakeFiles/light_switch_client_nrf52832_xxAA_s132_5.0.0.dir/__/__/__/mesh/access/src/device_state_manager.c.obj
                0x00027d68                dsm_subnet_add
 .text.dsm_subnet_update_swap_keys
                0x00027dc0       0x50 examples/light_switch/client/CMakeFiles/light_switch_client_nrf52832_xxAA_s132_5.0.0.dir/__/__/__/mesh/access/src/device_state_manager.c.obj
                0x00027dc0                dsm_subnet_update_swap_keys
 .text.dsm_subnet_update_commit
                0x00027e10       0xb8 examples/light_switch/client/CMakeFiles/light_switch_client_nrf52832_xxAA_s132_5.0.0.dir/__/__/__/mesh/access/src/device_state_manager.c.obj
                0x00027e10                dsm_subnet_update_commit
 .text.net_beacon_callback
                0x00027ec8       0x74 examples/light_switch/client/CMakeFiles/light_switch_client_nrf52832_xxAA_s132_5.0.0.dir/__/__/__/mesh/access/src/device_state_manager.c.obj
 .text.dsm_subnet_get_all
                0x00027f3c       0x3c examples/light_switch/client/CMakeFiles/light_switch_client_nrf52832_xxAA_s132_5.0.0.dir/__/__/__/mesh/access/src/device_state_manager.c.obj
                0x00027f3c                dsm_subnet_get_all
 .text.dsm_devkey_add
                0x00027f78       0x78 examples/light_switch/client/CMakeFiles/light_switch_client_nrf52832_xxAA_s132_5.0.0.dir/__/__/__/mesh/access/src/device_state_manager.c.obj
                0x00027f78                dsm_devkey_add
 .text.dsm_devkey_delete
                0x00027ff0       0x40 examples/light_switch/client/CMakeFiles/light_switch_client_nrf52832_xxAA_s132_5.0.0.dir/__/__/__/mesh/access/src/device_state_manager.c.obj
                0x00027ff0                dsm_devkey_delete
 .text.dsm_devkey_handle_get
                0x00028030       0x34 examples/light_switch/client/CMakeFiles/light_switch_client_nrf52832_xxAA_s132_5.0.0.dir/__/__/__/mesh/access/src/device_state_manager.c.obj
                0x00028030                dsm_devkey_handle_get
 .text.dsm_appkey_add
                0x00028064       0x70 examples/light_switch/client/CMakeFiles/light_switch_client_nrf52832_xxAA_s132_5.0.0.dir/__/__/__/mesh/access/src/device_state_manager.c.obj
                0x00028064                dsm_appkey_add
 .text.dsm_appkey_get_all
                0x000280d4       0x58 examples/light_switch/client/CMakeFiles/light_switch_client_nrf52832_xxAA_s132_5.0.0.dir/__/__/__/mesh/access/src/device_state_manager.c.obj
                0x000280d4                dsm_appkey_get_all
 .text.dsm_tx_secmat_get
                0x0002812c      0x104 examples/light_switch/client/CMakeFiles/light_switch_client_nrf52832_xxAA_s132_5.0.0.dir/__/__/__/mesh/access/src/device_state_manager.c.obj
                0x0002812c                dsm_tx_secmat_get
 .text.nrf_mesh_net_secmat_next_get
                0x00028230       0xa4 examples/light_switch/client/CMakeFiles/light_switch_client_nrf52832_xxAA_s132_5.0.0.dir/__/__/__/mesh/access/src/device_state_manager.c.obj
                0x00028230                nrf_mesh_net_secmat_next_get
 .text.nrf_mesh_app_secmat_next_get
                0x000282d4       0x84 examples/light_switch/client/CMakeFiles/light_switch_client_nrf52832_xxAA_s132_5.0.0.dir/__/__/__/mesh/access/src/device_state_manager.c.obj
                0x000282d4                nrf_mesh_app_secmat_next_get
 .text.nrf_mesh_devkey_secmat_get
                0x00028358       0x50 examples/light_switch/client/CMakeFiles/light_switch_client_nrf52832_xxAA_s132_5.0.0.dir/__/__/__/mesh/access/src/device_state_manager.c.obj
                0x00028358                nrf_mesh_devkey_secmat_get
 .text.nrf_mesh_beacon_info_next_get
                0x000283a8       0xc8 examples/light_switch/client/CMakeFiles/light_switch_client_nrf52832_xxAA_s132_5.0.0.dir/__/__/__/mesh/access/src/device_state_manager.c.obj
                0x000283a8                nrf_mesh_beacon_info_next_get
 .text.nrf_mesh_rx_address_get
                0x00028470       0xfc examples/light_switch/client/CMakeFiles/light_switch_client_nrf52832_xxAA_s132_5.0.0.dir/__/__/__/mesh/access/src/device_state_manager.c.obj
                0x00028470                nrf_mesh_rx_address_get
 .text.prov_provisioner_cb_link_closed
                0x0002856c       0x2a examples/light_switch/client/CMakeFiles/light_switch_client_nrf52832_xxAA_s132_5.0.0.dir/__/__/__/mesh/prov/src/prov_provisioner.c.obj
 .text.prov_provisioner_cb_link_established
                0x00028596       0x3e examples/light_switch/client/CMakeFiles/light_switch_client_nrf52832_xxAA_s132_5.0.0.dir/__/__/__/mesh/prov/src/prov_provisioner.c.obj
 .text.prov_provisioner_cb_ack_received
                0x000285d4       0x48 examples/light_switch/client/CMakeFiles/light_switch_client_nrf52832_xxAA_s132_5.0.0.dir/__/__/__/mesh/prov/src/prov_provisioner.c.obj
 .text.send_confirmation
                0x0002861c       0x26 examples/light_switch/client/CMakeFiles/light_switch_client_nrf52832_xxAA_s132_5.0.0.dir/__/__/__/mesh/prov/src/prov_provisioner.c.obj
 .text.request_authentication
                0x00028642       0x8a examples/light_switch/client/CMakeFiles/light_switch_client_nrf52832_xxAA_s132_5.0.0.dir/__/__/__/mesh/prov/src/prov_provisioner.c.obj
 .text.prov_provisioner_pkt_in
                0x000286cc      0x2a4 examples/light_switch/client/CMakeFiles/light_switch_client_nrf52832_xxAA_s132_5.0.0.dir/__/__/__/mesh/prov/src/prov_provisioner.c.obj
 .text.prov_provisioner_provision
                0x00028970       0x44 examples/light_switch/client/CMakeFiles/light_switch_client_nrf52832_xxAA_s132_5.0.0.dir/__/__/__/mesh/prov/src/prov_provisioner.c.obj
                0x00028970                prov_provisioner_provision
 .text.prov_provisioner_oob_use
                0x000289b4       0x7a examples/light_switch/client/CMakeFiles/light_switch_client_nrf52832_xxAA_s132_5.0.0.dir/__/__/__/mesh/prov/src/prov_provisioner.c.obj
                0x000289b4                prov_provisioner_oob_use
 .text.prov_provisioner_auth_data
                0x00028a2e       0x44 examples/light_switch/client/CMakeFiles/light_switch_client_nrf52832_xxAA_s132_5.0.0.dir/__/__/__/mesh/prov/src/prov_provisioner.c.obj
                0x00028a2e                prov_provisioner_auth_data
 .text.bearer_compare_callback
                0x00028a72        0xc examples/light_switch/client/CMakeFiles/light_switch_client_nrf52832_xxAA_s132_5.0.0.dir/__/__/__/mesh/prov/src/nrf_mesh_prov.c.obj
 .text.nrf_mesh_prov_init
                0x00028a7e       0x32 examples/light_switch/client/CMakeFiles/light_switch_client_nrf52832_xxAA_s132_5.0.0.dir/__/__/__/mesh/prov/src/nrf_mesh_prov.c.obj
                0x00028a7e                nrf_mesh_prov_init
 .text.nrf_mesh_prov_bearer_add
                0x00028ab0       0x20 examples/light_switch/client/CMakeFiles/light_switch_client_nrf52832_xxAA_s132_5.0.0.dir/__/__/__/mesh/prov/src/nrf_mesh_prov.c.obj
                0x00028ab0                nrf_mesh_prov_bearer_add
 .text.nrf_mesh_prov_generate_keys
                0x00028ad0        0x4 examples/light_switch/client/CMakeFiles/light_switch_client_nrf52832_xxAA_s132_5.0.0.dir/__/__/__/mesh/prov/src/nrf_mesh_prov.c.obj
                0x00028ad0                nrf_mesh_prov_generate_keys
 .text.nrf_mesh_prov_provision
                0x00028ad4       0x4e examples/light_switch/client/CMakeFiles/light_switch_client_nrf52832_xxAA_s132_5.0.0.dir/__/__/__/mesh/prov/src/nrf_mesh_prov.c.obj
                0x00028ad4                nrf_mesh_prov_provision
 .text.nrf_mesh_prov_oob_use
                0x00028b22        0xe examples/light_switch/client/CMakeFiles/light_switch_client_nrf52832_xxAA_s132_5.0.0.dir/__/__/__/mesh/prov/src/nrf_mesh_prov.c.obj
                0x00028b22                nrf_mesh_prov_oob_use
 .text.nrf_mesh_prov_auth_data_provide
                0x00028b30        0xe examples/light_switch/client/CMakeFiles/light_switch_client_nrf52832_xxAA_s132_5.0.0.dir/__/__/__/mesh/prov/src/nrf_mesh_prov.c.obj
                0x00028b30                nrf_mesh_prov_auth_data_provide
 .text.nrf_mesh_prov_scan_start
                0x00028b3e       0x10 examples/light_switch/client/CMakeFiles/light_switch_client_nrf52832_xxAA_s132_5.0.0.dir/__/__/__/mesh/prov/src/nrf_mesh_prov.c.obj
                0x00028b3e                nrf_mesh_prov_scan_start
 *fill*         0x00028b4e        0x2 
 .text.send_data
                0x00028b50       0x3c examples/light_switch/client/CMakeFiles/light_switch_client_nrf52832_xxAA_s132_5.0.0.dir/__/__/__/mesh/prov/src/provisioning.c.obj
 .text.prov_packet_length_valid
                0x00028b8c       0x1c examples/light_switch/client/CMakeFiles/light_switch_client_nrf52832_xxAA_s132_5.0.0.dir/__/__/__/mesh/prov/src/provisioning.c.obj
                0x00028b8c                prov_packet_length_valid
 .text.prov_tx_invite
                0x00028ba8       0x28 examples/light_switch/client/CMakeFiles/light_switch_client_nrf52832_xxAA_s132_5.0.0.dir/__/__/__/mesh/prov/src/provisioning.c.obj
                0x00028ba8                prov_tx_invite
 .text.prov_tx_start
                0x00028bd0       0x20 examples/light_switch/client/CMakeFiles/light_switch_client_nrf52832_xxAA_s132_5.0.0.dir/__/__/__/mesh/prov/src/provisioning.c.obj
                0x00028bd0                prov_tx_start
 .text.prov_tx_public_key
                0x00028bf0       0x26 examples/light_switch/client/CMakeFiles/light_switch_client_nrf52832_xxAA_s132_5.0.0.dir/__/__/__/mesh/prov/src/provisioning.c.obj
                0x00028bf0                prov_tx_public_key
 .text.prov_tx_confirmation
                0x00028c16       0x26 examples/light_switch/client/CMakeFiles/light_switch_client_nrf52832_xxAA_s132_5.0.0.dir/__/__/__/mesh/prov/src/provisioning.c.obj
                0x00028c16                prov_tx_confirmation
 .text.prov_tx_random
                0x00028c3c       0x26 examples/light_switch/client/CMakeFiles/light_switch_client_nrf52832_xxAA_s132_5.0.0.dir/__/__/__/mesh/prov/src/provisioning.c.obj
                0x00028c3c                prov_tx_random
 .text.prov_tx_data
                0x00028c62        0x6 examples/light_switch/client/CMakeFiles/light_switch_client_nrf52832_xxAA_s132_5.0.0.dir/__/__/__/mesh/prov/src/provisioning.c.obj
                0x00028c62                prov_tx_data
 .text.prov_beacon_unprov_build
                0x00028c68       0x54 examples/light_switch/client/CMakeFiles/light_switch_client_nrf52832_xxAA_s132_5.0.0.dir/__/__/__/mesh/prov/src/prov_beacon.c.obj
                0x00028c68                prov_beacon_unprov_build
 .text.prov_beacon_unprov_packet_in
                0x00028cbc       0x9c examples/light_switch/client/CMakeFiles/light_switch_client_nrf52832_xxAA_s132_5.0.0.dir/__/__/__/mesh/prov/src/prov_beacon.c.obj
                0x00028cbc                prov_beacon_unprov_packet_in
 .text.prov_beacon_scan_start
                0x00028d58       0x24 examples/light_switch/client/CMakeFiles/light_switch_client_nrf52832_xxAA_s132_5.0.0.dir/__/__/__/mesh/prov/src/prov_beacon.c.obj
                0x00028d58                prov_beacon_scan_start
 .text.oob_gen_alphanumeric
                0x00028d7c       0x34 examples/light_switch/client/CMakeFiles/light_switch_client_nrf52832_xxAA_s132_5.0.0.dir/__/__/__/mesh/prov/src/prov_utils.c.obj
 .text.oob_gen_numeric
                0x00028db0       0x3c examples/light_switch/client/CMakeFiles/light_switch_client_nrf52832_xxAA_s132_5.0.0.dir/__/__/__/mesh/prov/src/prov_utils.c.obj
 .text.prov_utils_opt_get
                0x00028dec       0x1c examples/light_switch/client/CMakeFiles/light_switch_client_nrf52832_xxAA_s132_5.0.0.dir/__/__/__/mesh/prov/src/prov_utils.c.obj
                0x00028dec                prov_utils_opt_get
 .text.prov_utils_use_ecdh_offloading
                0x00028e08        0xc examples/light_switch/client/CMakeFiles/light_switch_client_nrf52832_xxAA_s132_5.0.0.dir/__/__/__/mesh/prov/src/prov_utils.c.obj
                0x00028e08                prov_utils_use_ecdh_offloading
 .text.prov_utils_authentication_values_derive
                0x00028e14       0xa0 examples/light_switch/client/CMakeFiles/light_switch_client_nrf52832_xxAA_s132_5.0.0.dir/__/__/__/mesh/prov/src/prov_utils.c.obj
                0x00028e14                prov_utils_authentication_values_derive
 .text.prov_utils_keys_generate
                0x00028eb4       0x1e examples/light_switch/client/CMakeFiles/light_switch_client_nrf52832_xxAA_s132_5.0.0.dir/__/__/__/mesh/prov/src/prov_utils.c.obj
                0x00028eb4                prov_utils_keys_generate
 *fill*         0x00028ed2        0x2 
 .text.prov_utils_derive_keys
                0x00028ed4       0xac examples/light_switch/client/CMakeFiles/light_switch_client_nrf52832_xxAA_s132_5.0.0.dir/__/__/__/mesh/prov/src/prov_utils.c.obj
                0x00028ed4                prov_utils_derive_keys
 .text.prov_utils_calculate_shared_secret
                0x00028f80       0x36 examples/light_switch/client/CMakeFiles/light_switch_client_nrf52832_xxAA_s132_5.0.0.dir/__/__/__/mesh/prov/src/prov_utils.c.obj
                0x00028f80                prov_utils_calculate_shared_secret
 *fill*         0x00028fb6        0x2 
 .text.prov_utils_generate_oob_data
                0x00028fb8       0x9c examples/light_switch/client/CMakeFiles/light_switch_client_nrf52832_xxAA_s132_5.0.0.dir/__/__/__/mesh/prov/src/prov_utils.c.obj
                0x00028fb8                prov_utils_generate_oob_data
 .text.prov_utils_confirmation_check
                0x00029054       0x5c examples/light_switch/client/CMakeFiles/light_switch_client_nrf52832_xxAA_s132_5.0.0.dir/__/__/__/mesh/prov/src/prov_utils.c.obj
                0x00029054                prov_utils_confirmation_check
 .text.link_timeout_cb
                0x000290b0       0x10 examples/light_switch/client/CMakeFiles/light_switch_client_nrf52832_xxAA_s132_5.0.0.dir/__/__/__/mesh/prov/src/prov_bearer_adv.c.obj
 .text.remove_active_bearer
                0x000290c0       0x60 examples/light_switch/client/CMakeFiles/light_switch_client_nrf52832_xxAA_s132_5.0.0.dir/__/__/__/mesh/prov/src/prov_bearer_adv.c.obj
 .text.close_link
                0x00029120       0x6c examples/light_switch/client/CMakeFiles/light_switch_client_nrf52832_xxAA_s132_5.0.0.dir/__/__/__/mesh/prov/src/prov_bearer_adv.c.obj
 .text.prov_bearer_adv_listen_stop
                0x0002918c       0x3c examples/light_switch/client/CMakeFiles/light_switch_client_nrf52832_xxAA_s132_5.0.0.dir/__/__/__/mesh/prov/src/prov_bearer_adv.c.obj
 .text.send_packet
                0x000291c8       0x6c examples/light_switch/client/CMakeFiles/light_switch_client_nrf52832_xxAA_s132_5.0.0.dir/__/__/__/mesh/prov/src/prov_bearer_adv.c.obj
 .text.prov_buffer_tx
                0x00029234      0x158 examples/light_switch/client/CMakeFiles/light_switch_client_nrf52832_xxAA_s132_5.0.0.dir/__/__/__/mesh/prov/src/prov_bearer_adv.c.obj
 .text.send_link_close
                0x0002938c       0x38 examples/light_switch/client/CMakeFiles/light_switch_client_nrf52832_xxAA_s132_5.0.0.dir/__/__/__/mesh/prov/src/prov_bearer_adv.c.obj
 .text.prov_bearer_adv_link_close
                0x000293c4       0x74 examples/light_switch/client/CMakeFiles/light_switch_client_nrf52832_xxAA_s132_5.0.0.dir/__/__/__/mesh/prov/src/prov_bearer_adv.c.obj
 .text.send_transaction_ack
                0x00029438       0x24 examples/light_switch/client/CMakeFiles/light_switch_client_nrf52832_xxAA_s132_5.0.0.dir/__/__/__/mesh/prov/src/prov_bearer_adv.c.obj
 .text.send_link_ack
                0x0002945c       0x32 examples/light_switch/client/CMakeFiles/light_switch_client_nrf52832_xxAA_s132_5.0.0.dir/__/__/__/mesh/prov/src/prov_bearer_adv.c.obj
 .text.reset_timeout_timer
                0x0002948e       0x1a examples/light_switch/client/CMakeFiles/light_switch_client_nrf52832_xxAA_s132_5.0.0.dir/__/__/__/mesh/prov/src/prov_bearer_adv.c.obj
 .text.tx_complete_cb
                0x000294a8       0x1c examples/light_switch/client/CMakeFiles/light_switch_client_nrf52832_xxAA_s132_5.0.0.dir/__/__/__/mesh/prov/src/prov_bearer_adv.c.obj
 .text.tx_retry_cb
                0x000294c4       0xcc examples/light_switch/client/CMakeFiles/light_switch_client_nrf52832_xxAA_s132_5.0.0.dir/__/__/__/mesh/prov/src/prov_bearer_adv.c.obj
 .text.add_active_bearer
                0x00029590       0x80 examples/light_switch/client/CMakeFiles/light_switch_client_nrf52832_xxAA_s132_5.0.0.dir/__/__/__/mesh/prov/src/prov_bearer_adv.c.obj
 .text.prov_bearer_adv_link_open
                0x00029610       0xf8 examples/light_switch/client/CMakeFiles/light_switch_client_nrf52832_xxAA_s132_5.0.0.dir/__/__/__/mesh/prov/src/prov_bearer_adv.c.obj
 .text.async_process
                0x00029708       0x50 examples/light_switch/client/CMakeFiles/light_switch_client_nrf52832_xxAA_s132_5.0.0.dir/__/__/__/mesh/prov/src/prov_bearer_adv.c.obj
 .text.prov_bearer_adv_listen
                0x00029758       0xec examples/light_switch/client/CMakeFiles/light_switch_client_nrf52832_xxAA_s132_5.0.0.dir/__/__/__/mesh/prov/src/prov_bearer_adv.c.obj
 .text.calculate_3GPP_CRC
                0x00029844       0x24 examples/light_switch/client/CMakeFiles/light_switch_client_nrf52832_xxAA_s132_5.0.0.dir/__/__/__/mesh/prov/src/prov_bearer_adv.c.obj
                0x00029844                calculate_3GPP_CRC
 .text.prov_bearer_adv_tx
                0x00029868       0xb4 examples/light_switch/client/CMakeFiles/light_switch_client_nrf52832_xxAA_s132_5.0.0.dir/__/__/__/mesh/prov/src/prov_bearer_adv.c.obj
 .text.prov_buffer_rx
                0x0002991c       0x7c examples/light_switch/client/CMakeFiles/light_switch_client_nrf52832_xxAA_s132_5.0.0.dir/__/__/__/mesh/prov/src/prov_bearer_adv.c.obj
 .text.nrf_mesh_prov_bearer_adv_interface_get
                0x00029998       0x48 examples/light_switch/client/CMakeFiles/light_switch_client_nrf52832_xxAA_s132_5.0.0.dir/__/__/__/mesh/prov/src/prov_bearer_adv.c.obj
                0x00029998                nrf_mesh_prov_bearer_adv_interface_get
 .text.prov_bearer_adv_packet_in
                0x000299e0      0x80c examples/light_switch/client/CMakeFiles/light_switch_client_nrf52832_xxAA_s132_5.0.0.dir/__/__/__/mesh/prov/src/prov_bearer_adv.c.obj
                0x000299e0                prov_bearer_adv_packet_in
 .text.errata_57
                0x0002a1ec       0x34 examples/light_switch/client/CMakeFiles/light_switch_client_nrf52832_xxAA_s132_5.0.0.dir/__/__/__/external/nRF5_SDK_14.2.0_17b948a/components/toolchain/system_nrf52.c.obj
 .text.errata_136
                0x0002a220       0x40 examples/light_switch/client/CMakeFiles/light_switch_client_nrf52832_xxAA_s132_5.0.0.dir/__/__/__/external/nRF5_SDK_14.2.0_17b948a/components/toolchain/system_nrf52.c.obj
 .text.SystemInit
                0x0002a260      0x238 examples/light_switch/client/CMakeFiles/light_switch_client_nrf52832_xxAA_s132_5.0.0.dir/__/__/__/external/nRF5_SDK_14.2.0_17b948a/components/toolchain/system_nrf52.c.obj
                0x0002a260                SystemInit
 .text          0x0002a498       0x3c examples/light_switch/client/CMakeFiles/light_switch_client_nrf52832_xxAA_s132_5.0.0.dir/__/__/__/external/nRF5_SDK_14.2.0_17b948a/components/toolchain/gcc/gcc_startup_nrf52.S.obj
                0x0002a498                Reset_Handler
                0x0002a4c0                NMI_Handler
                0x0002a4c4                MemoryManagement_Handler
                0x0002a4c6                BusFault_Handler
                0x0002a4c8                UsageFault_Handler
                0x0002a4ca                SVC_Handler
                0x0002a4cc                DebugMon_Handler
                0x0002a4ce                PendSV_Handler
                0x0002a4d0                SysTick_Handler
                0x0002a4d2                PDM_IRQHandler
                0x0002a4d2                TEMP_IRQHandler
                0x0002a4d2                TIMER3_IRQHandler
                0x0002a4d2                FPU_IRQHandler
                0x0002a4d2                SPIM0_SPIS0_TWIM0_TWIS0_SPI0_TWI0_IRQHandler
                0x0002a4d2                RADIO_IRQHandler
                0x0002a4d2                UARTE0_UART0_IRQHandler
                0x0002a4d2                TIMER4_IRQHandler
                0x0002a4d2                I2S_IRQHandler
                0x0002a4d2                SWI4_EGU4_IRQHandler
                0x0002a4d2                TIMER0_IRQHandler
                0x0002a4d2                PWM1_IRQHandler
                0x0002a4d2                POWER_CLOCK_IRQHandler
                0x0002a4d2                PWM2_IRQHandler
                0x0002a4d2                ECB_IRQHandler
                0x0002a4d2                SPIM1_SPIS1_TWIM1_TWIS1_SPI1_TWI1_IRQHandler
                0x0002a4d2                Default_Handler
                0x0002a4d2                SAADC_IRQHandler
                0x0002a4d2                CCM_AAR_IRQHandler
                0x0002a4d2                WDT_IRQHandler
                0x0002a4d2                SWI0_EGU0_IRQHandler
                0x0002a4d2                SWI5_EGU5_IRQHandler
                0x0002a4d2                RNG_IRQHandler
                0x0002a4d2                RTC2_IRQHandler
                0x0002a4d2                PWM0_IRQHandler
                0x0002a4d2                SWI3_EGU3_IRQHandler
                0x0002a4d2                RTC1_IRQHandler
                0x0002a4d2                SWI1_EGU1_IRQHandler
                0x0002a4d2                SPIM2_SPIS2_SPI2_IRQHandler
                0x0002a4d2                NFCT_IRQHandler
                0x0002a4d2                RTC0_IRQHandler
                0x0002a4d2                MWU_IRQHandler
                0x0002a4d2                TIMER1_IRQHandler
                0x0002a4d2                COMP_LPCOMP_IRQHandler
 .text.nrf_mesh_configure_device_uuid_reset
                0x0002a4d4       0x28 mesh/core/libmesh_core_nrf52832_xxAA.a(nrf_mesh_configure.c.obj)
                0x0002a4d4                nrf_mesh_configure_device_uuid_reset
 .text.nrf_mesh_configure_device_uuid_get
                0x0002a4fc        0x8 mesh/core/libmesh_core_nrf52832_xxAA.a(nrf_mesh_configure.c.obj)
                0x0002a4fc                nrf_mesh_configure_device_uuid_get
 .text.event_handle
                0x0002a504       0x30 mesh/core/libmesh_core_nrf52832_xxAA.a(event.c.obj)
                0x0002a504                event_handle
 .text.event_handler_add
                0x0002a534       0x28 mesh/core/libmesh_core_nrf52832_xxAA.a(event.c.obj)
                0x0002a534                event_handler_add
 .text.event_handler_remove
                0x0002a55c       0x28 mesh/core/libmesh_core_nrf52832_xxAA.a(event.c.obj)
                0x0002a55c                event_handler_remove
 .text.packet_mgr_init
                0x0002a584       0x4c mesh/core/libmesh_core_nrf52832_xxAA.a(packet_mgr.c.obj)
                0x0002a584                packet_mgr_init
 .text.packet_mgr_alloc
                0x0002a5d0      0x19c mesh/core/libmesh_core_nrf52832_xxAA.a(packet_mgr.c.obj)
                0x0002a5d0                packet_mgr_alloc
 .text.packet_mgr_free
                0x0002a76c       0x6c mesh/core/libmesh_core_nrf52832_xxAA.a(packet_mgr.c.obj)
                0x0002a76c                packet_mgr_free
 .text.flash_mem_available
                0x0002a7d8       0x20 mesh/core/libmesh_core_nrf52832_xxAA.a(net_state.c.obj)
 .text.flash_store_iv_index
                0x0002a7f8       0x38 mesh/core/libmesh_core_nrf52832_xxAA.a(net_state.c.obj)
 .text.seqnum_block_allocate
                0x0002a830       0x48 mesh/core/libmesh_core_nrf52832_xxAA.a(net_state.c.obj)
 .text.flash_write_complete
                0x0002a878       0x78 mesh/core/libmesh_core_nrf52832_xxAA.a(net_state.c.obj)
 .text.net_state_recover_from_flash
                0x0002a8f0       0x8c mesh/core/libmesh_core_nrf52832_xxAA.a(net_state.c.obj)
                0x0002a8f0                net_state_recover_from_flash
 .text.net_state_flash_area_get
                0x0002a97c        0xc mesh/core/libmesh_core_nrf52832_xxAA.a(net_state.c.obj)
                0x0002a97c                net_state_flash_area_get
 .text.init_flash_storage
                0x0002a988       0x40 mesh/core/libmesh_core_nrf52832_xxAA.a(net_state.c.obj)
 .text.net_state_init
                0x0002a9c8       0x48 mesh/core/libmesh_core_nrf52832_xxAA.a(net_state.c.obj)
                0x0002a9c8                net_state_init
 .text.net_state_iv_update_start
                0x0002aa10       0x64 mesh/core/libmesh_core_nrf52832_xxAA.a(net_state.c.obj)
                0x0002aa10                net_state_iv_update_start
 .text.iv_update_trigger_if_pending
                0x0002aa74       0x8c mesh/core/libmesh_core_nrf52832_xxAA.a(net_state.c.obj)
 .text.iv_update_timer_handler
                0x0002ab00       0x74 mesh/core/libmesh_core_nrf52832_xxAA.a(net_state.c.obj)
 .text.net_state_seqnum_alloc
                0x0002ab74       0x68 mesh/core/libmesh_core_nrf52832_xxAA.a(net_state.c.obj)
                0x0002ab74                net_state_seqnum_alloc
 .text.net_state_iv_index_lock
                0x0002abdc       0x48 mesh/core/libmesh_core_nrf52832_xxAA.a(net_state.c.obj)
                0x0002abdc                net_state_iv_index_lock
 .text.net_state_key_refresh_phase_changed
                0x0002ac24       0x1e mesh/core/libmesh_core_nrf52832_xxAA.a(net_state.c.obj)
                0x0002ac24                net_state_key_refresh_phase_changed
 *fill*         0x0002ac42        0x2 
 .text.net_state_beacon_received
                0x0002ac44       0x94 mesh/core/libmesh_core_nrf52832_xxAA.a(net_state.c.obj)
                0x0002ac44                net_state_beacon_received
 .text.net_state_beacon_iv_index_get
                0x0002acd8        0xc mesh/core/libmesh_core_nrf52832_xxAA.a(net_state.c.obj)
                0x0002acd8                net_state_beacon_iv_index_get
 .text.net_state_tx_iv_index_get
                0x0002ace4       0x14 mesh/core/libmesh_core_nrf52832_xxAA.a(net_state.c.obj)
                0x0002ace4                net_state_tx_iv_index_get
 .text.net_state_rx_iv_index_get
                0x0002acf8       0x18 mesh/core/libmesh_core_nrf52832_xxAA.a(net_state.c.obj)
                0x0002acf8                net_state_rx_iv_index_get
 .text.net_state_iv_update_get
                0x0002ad10        0xc mesh/core/libmesh_core_nrf52832_xxAA.a(net_state.c.obj)
                0x0002ad10                net_state_iv_update_get
 .text.nrf_mesh_address_type_get
                0x0002ad1c       0x10 mesh/core/libmesh_core_nrf52832_xxAA.a(nrf_mesh_utils.c.obj)
                0x0002ad1c                nrf_mesh_address_type_get
 .text.sd_softdevice_is_enabled
                0x0002ad2c        0x4 mesh/core/libmesh_core_nrf52832_xxAA.a(nrf_mesh.c.obj)
 .text.nrf_mesh_listen
                0x0002ad30      0x138 mesh/core/libmesh_core_nrf52832_xxAA.a(nrf_mesh.c.obj)
 .text.scanner_packet_process_cb
                0x0002ae68       0x8c mesh/core/libmesh_core_nrf52832_xxAA.a(nrf_mesh.c.obj)
 .text.nrf_mesh_init
                0x0002aef4       0xd8 mesh/core/libmesh_core_nrf52832_xxAA.a(nrf_mesh.c.obj)
                0x0002aef4                nrf_mesh_init
 .text.nrf_mesh_enable
                0x0002afcc       0x48 mesh/core/libmesh_core_nrf52832_xxAA.a(nrf_mesh.c.obj)
                0x0002afcc                nrf_mesh_enable
 .text.nrf_mesh_packet_send
                0x0002b014        0x4 mesh/core/libmesh_core_nrf52832_xxAA.a(nrf_mesh.c.obj)
                0x0002b014                nrf_mesh_packet_send
 .text.nrf_mesh_on_ble_evt
                0x0002b018        0x4 mesh/core/libmesh_core_nrf52832_xxAA.a(nrf_mesh.c.obj)
                0x0002b018                nrf_mesh_on_ble_evt
 .text.nrf_mesh_on_sd_evt
                0x0002b01c        0xa mesh/core/libmesh_core_nrf52832_xxAA.a(nrf_mesh.c.obj)
                0x0002b01c                nrf_mesh_on_sd_evt
 .text.nrf_mesh_evt_handler_add
                0x0002b026        0x4 mesh/core/libmesh_core_nrf52832_xxAA.a(nrf_mesh.c.obj)
                0x0002b026                nrf_mesh_evt_handler_add
 *fill*         0x0002b02a        0x2 
 .text.hal_lfclk_ppm_get
                0x0002b02c       0x14 mesh/core/libmesh_core_nrf52832_xxAA.a(hal.c.obj)
                0x0002b02c                hal_lfclk_ppm_get
 .text.add_to_add_list
                0x0002b040       0x44 mesh/core/libmesh_core_nrf52832_xxAA.a(timer_scheduler.c.obj)
 .text.process_dirty_events
                0x0002b084       0x6c mesh/core/libmesh_core_nrf52832_xxAA.a(timer_scheduler.c.obj)
 .text.timer_cb
                0x0002b0f0        0xc mesh/core/libmesh_core_nrf52832_xxAA.a(timer_scheduler.c.obj)
 .text.add_evt.constprop.0
                0x0002b0fc       0x68 mesh/core/libmesh_core_nrf52832_xxAA.a(timer_scheduler.c.obj)
 .text.process_add_list
                0x0002b164       0x48 mesh/core/libmesh_core_nrf52832_xxAA.a(timer_scheduler.c.obj)
 .text.flag_event_cb
                0x0002b1ac      0x100 mesh/core/libmesh_core_nrf52832_xxAA.a(timer_scheduler.c.obj)
 .text.timer_sch_init
                0x0002b2ac       0x24 mesh/core/libmesh_core_nrf52832_xxAA.a(timer_scheduler.c.obj)
                0x0002b2ac                timer_sch_init
 .text.timer_sch_schedule
                0x0002b2d0       0x50 mesh/core/libmesh_core_nrf52832_xxAA.a(timer_scheduler.c.obj)
                0x0002b2d0                timer_sch_schedule
 .text.timer_sch_abort
                0x0002b320       0x64 mesh/core/libmesh_core_nrf52832_xxAA.a(timer_scheduler.c.obj)
                0x0002b320                timer_sch_abort
 .text.timer_sch_reschedule
                0x0002b384       0x70 mesh/core/libmesh_core_nrf52832_xxAA.a(timer_scheduler.c.obj)
                0x0002b384                timer_sch_reschedule
 .text.timer_mut_unlock
                0x0002b3f4       0x10 mesh/core/libmesh_core_nrf52832_xxAA.a(timer.c.obj)
 .text.timer_order_cb
                0x0002b404       0x94 mesh/core/libmesh_core_nrf52832_xxAA.a(timer.c.obj)
                0x0002b404                timer_order_cb
 .text.timer_now
                0x0002b498       0x48 mesh/core/libmesh_core_nrf52832_xxAA.a(timer.c.obj)
                0x0002b498                timer_now
 .text.timer_event_handler
                0x0002b4e0       0x98 mesh/core/libmesh_core_nrf52832_xxAA.a(timer.c.obj)
                0x0002b4e0                timer_event_handler
 .text.timer_on_ts_begin
                0x0002b578       0xfc mesh/core/libmesh_core_nrf52832_xxAA.a(timer.c.obj)
                0x0002b578                timer_on_ts_begin
 .text.timer_on_ts_end
                0x0002b674       0x60 mesh/core/libmesh_core_nrf52832_xxAA.a(timer.c.obj)
                0x0002b674                timer_on_ts_end
 .text.timer_cb
                0x0002b6d4       0x10 mesh/core/libmesh_core_nrf52832_xxAA.a(ticker.c.obj)
 .text.ticker_init
                0x0002b6e4       0x3c mesh/core/libmesh_core_nrf52832_xxAA.a(ticker.c.obj)
                0x0002b6e4                ticker_init
 .text.sd_rand_application_bytes_available_get
                0x0002b720        0x4 mesh/core/libmesh_core_nrf52832_xxAA.a(rand.c.obj)
 .text.sd_rand_application_vector_get
                0x0002b724        0x4 mesh/core/libmesh_core_nrf52832_xxAA.a(rand.c.obj)
 .text.rand_prng_get
                0x0002b728       0x22 mesh/core/libmesh_core_nrf52832_xxAA.a(rand.c.obj)
                0x0002b728                rand_prng_get
 *fill*         0x0002b74a        0x2 
 .text.rand_hw_rng_get
                0x0002b74c       0x50 mesh/core/libmesh_core_nrf52832_xxAA.a(rand.c.obj)
                0x0002b74c                rand_hw_rng_get
 .text.rand_prng_seed
                0x0002b79c       0x34 mesh/core/libmesh_core_nrf52832_xxAA.a(rand.c.obj)
                0x0002b79c                rand_prng_seed
 .text.sd_radio_session_open
                0x0002b7d0        0x4 mesh/core/libmesh_core_nrf52832_xxAA.a(timeslot.c.obj)
 .text.sd_radio_session_close
                0x0002b7d4        0x4 mesh/core/libmesh_core_nrf52832_xxAA.a(timeslot.c.obj)
 .text.sd_radio_request
                0x0002b7d8        0x4 mesh/core/libmesh_core_nrf52832_xxAA.a(timeslot.c.obj)
 .text.end_timer_handler
                0x0002b7dc       0x24 mesh/core/libmesh_core_nrf52832_xxAA.a(timeslot.c.obj)
 .text.get_end_time.constprop.10
                0x0002b800       0x28 mesh/core/libmesh_core_nrf52832_xxAA.a(timeslot.c.obj)
 .text.handle_extend_end.constprop.3
                0x0002b828       0xc0 mesh/core/libmesh_core_nrf52832_xxAA.a(timeslot.c.obj)
 .text.radio_signal_callback
                0x0002b8e8      0x14c mesh/core/libmesh_core_nrf52832_xxAA.a(timeslot.c.obj)
 .text.timeslot_sd_event_handler
                0x0002ba34       0x44 mesh/core/libmesh_core_nrf52832_xxAA.a(timeslot.c.obj)
                0x0002ba34                timeslot_sd_event_handler
 .text.timeslot_init
                0x0002ba78       0x48 mesh/core/libmesh_core_nrf52832_xxAA.a(timeslot.c.obj)
                0x0002ba78                timeslot_init
 .text.timeslot_start
                0x0002bac0       0x20 mesh/core/libmesh_core_nrf52832_xxAA.a(timeslot.c.obj)
                0x0002bac0                timeslot_start
 .text.timeslot_end_is_pending
                0x0002bae0       0x24 mesh/core/libmesh_core_nrf52832_xxAA.a(timeslot.c.obj)
                0x0002bae0                timeslot_end_is_pending
 .text.timeslot_start_time_get
                0x0002bb04        0xc mesh/core/libmesh_core_nrf52832_xxAA.a(timeslot.c.obj)
                0x0002bb04                timeslot_start_time_get
 .text.timeslot_remaining_time_get
                0x0002bb10       0x20 mesh/core/libmesh_core_nrf52832_xxAA.a(timeslot.c.obj)
                0x0002bb10                timeslot_remaining_time_get
 .text.timeslot_is_in_cb
                0x0002bb30        0xc mesh/core/libmesh_core_nrf52832_xxAA.a(timeslot.c.obj)
                0x0002bb30                timeslot_is_in_cb
 .text.timeslot_trigger
                0x0002bb3c       0x24 mesh/core/libmesh_core_nrf52832_xxAA.a(timeslot.c.obj)
                0x0002bb3c                timeslot_trigger
 .text.timeslot_stop
                0x0002bb60       0x10 mesh/core/libmesh_core_nrf52832_xxAA.a(timeslot.c.obj)
                0x0002bb60                timeslot_stop
 .text.timeslot_state_lock
                0x0002bb70       0x28 mesh/core/libmesh_core_nrf52832_xxAA.a(timeslot.c.obj)
                0x0002bb70                timeslot_state_lock
 .text.trigger_event_handler
                0x0002bb98       0x1c mesh/core/libmesh_core_nrf52832_xxAA.a(bearer_event.c.obj)
 .text.evt_push
                0x0002bbb4       0x1c mesh/core/libmesh_core_nrf52832_xxAA.a(bearer_event.c.obj)
 .text.bearer_event_init
                0x0002bbd0       0x48 mesh/core/libmesh_core_nrf52832_xxAA.a(bearer_event.c.obj)
                0x0002bbd0                bearer_event_init
 .text.bearer_event_timer_post
                0x0002bc18       0x30 mesh/core/libmesh_core_nrf52832_xxAA.a(bearer_event.c.obj)
                0x0002bc18                bearer_event_timer_post
 .text.bearer_event_critical_section_begin
                0x0002bc48       0x50 mesh/core/libmesh_core_nrf52832_xxAA.a(bearer_event.c.obj)
                0x0002bc48                bearer_event_critical_section_begin
 .text.bearer_event_critical_section_end
                0x0002bc98       0x4c mesh/core/libmesh_core_nrf52832_xxAA.a(bearer_event.c.obj)
                0x0002bc98                bearer_event_critical_section_end
 .text.bearer_event_flag_add
                0x0002bce4       0x50 mesh/core/libmesh_core_nrf52832_xxAA.a(bearer_event.c.obj)
                0x0002bce4                bearer_event_flag_add
 .text.bearer_event_flag_set
                0x0002bd34       0x50 mesh/core/libmesh_core_nrf52832_xxAA.a(bearer_event.c.obj)
                0x0002bd34                bearer_event_flag_set
 .text.bearer_event_sequential_add
                0x0002bd84       0x44 mesh/core/libmesh_core_nrf52832_xxAA.a(bearer_event.c.obj)
                0x0002bd84                bearer_event_sequential_add
 .text.bearer_event_sequential_post
                0x0002bdc8       0x58 mesh/core/libmesh_core_nrf52832_xxAA.a(bearer_event.c.obj)
                0x0002bdc8                bearer_event_sequential_post
 .text.bearer_event_sequential_pending
                0x0002be20       0x1c mesh/core/libmesh_core_nrf52832_xxAA.a(bearer_event.c.obj)
                0x0002be20                bearer_event_sequential_pending
 .text.bearer_event_handler
                0x0002be3c      0x104 mesh/core/libmesh_core_nrf52832_xxAA.a(bearer_event.c.obj)
                0x0002be3c                bearer_event_handler
 .text.QDEC_IRQHandler
                0x0002bf40        0x4 mesh/core/libmesh_core_nrf52832_xxAA.a(bearer_event.c.obj)
                0x0002bf40                QDEC_IRQHandler
 .text.enc_aes_encrypt
                0x0002bf44        0x4 mesh/core/libmesh_core_nrf52832_xxAA.a(enc.c.obj)
                0x0002bf44                enc_aes_encrypt
 .text.enc_aes_cmac
                0x0002bf48        0x4 mesh/core/libmesh_core_nrf52832_xxAA.a(enc.c.obj)
                0x0002bf48                enc_aes_cmac
 .text.enc_aes_ccm_encrypt
                0x0002bf4c        0x4 mesh/core/libmesh_core_nrf52832_xxAA.a(enc.c.obj)
                0x0002bf4c                enc_aes_ccm_encrypt
 .text.enc_aes_ccm_decrypt
                0x0002bf50        0x4 mesh/core/libmesh_core_nrf52832_xxAA.a(enc.c.obj)
                0x0002bf50                enc_aes_ccm_decrypt
 .text.enc_nonce_generate
                0x0002bf54       0xb8 mesh/core/libmesh_core_nrf52832_xxAA.a(enc.c.obj)
                0x0002bf54                enc_nonce_generate
 .text.enc_s1   0x0002c00c       0x38 mesh/core/libmesh_core_nrf52832_xxAA.a(enc.c.obj)
                0x0002c00c                enc_s1
 .text.enc_k1   0x0002c044       0x48 mesh/core/libmesh_core_nrf52832_xxAA.a(enc.c.obj)
                0x0002c044                enc_k1
 .text.enc_k2   0x0002c08c       0xd8 mesh/core/libmesh_core_nrf52832_xxAA.a(enc.c.obj)
                0x0002c08c                enc_k2
 .text.enc_k3   0x0002c164       0x68 mesh/core/libmesh_core_nrf52832_xxAA.a(enc.c.obj)
                0x0002c164                enc_k3
 .text.enc_k4   0x0002c1cc       0x60 mesh/core/libmesh_core_nrf52832_xxAA.a(enc.c.obj)
                0x0002c1cc                enc_k4
 .text.header_transfuscate
                0x0002c22c       0x54 mesh/core/libmesh_core_nrf52832_xxAA.a(network.c.obj)
 .text.allocate_packet
                0x0002c280      0x14c mesh/core/libmesh_core_nrf52832_xxAA.a(network.c.obj)
 .text.network_init
                0x0002c3cc       0x2c mesh/core/libmesh_core_nrf52832_xxAA.a(network.c.obj)
                0x0002c3cc                network_init
 .text.network_opt_get
                0x0002c3f8       0x4c mesh/core/libmesh_core_nrf52832_xxAA.a(network.c.obj)
                0x0002c3f8                network_opt_get
 .text.network_packet_alloc
                0x0002c444       0x50 mesh/core/libmesh_core_nrf52832_xxAA.a(network.c.obj)
                0x0002c444                network_packet_alloc
 .text.network_packet_send
                0x0002c494      0x140 mesh/core/libmesh_core_nrf52832_xxAA.a(network.c.obj)
                0x0002c494                network_packet_send
 .text.network_packet_in
                0x0002c5d4      0x460 mesh/core/libmesh_core_nrf52832_xxAA.a(network.c.obj)
                0x0002c5d4                network_packet_in
 .text.nrf_mesh_keygen_aid
                0x0002ca34       0x12 mesh/core/libmesh_core_nrf52832_xxAA.a(nrf_mesh_keygen.c.obj)
                0x0002ca34                nrf_mesh_keygen_aid
 .text.nrf_mesh_keygen_network_secmat
                0x0002ca46       0x20 mesh/core/libmesh_core_nrf52832_xxAA.a(nrf_mesh_keygen.c.obj)
                0x0002ca46                nrf_mesh_keygen_network_secmat
 *fill*         0x0002ca66        0x2 
 .text.nrf_mesh_keygen_beacon_secmat
                0x0002ca68       0x50 mesh/core/libmesh_core_nrf52832_xxAA.a(nrf_mesh_keygen.c.obj)
                0x0002ca68                nrf_mesh_keygen_beacon_secmat
 .text.nrf_mesh_keygen_virtual_address
                0x0002cab8       0x50 mesh/core/libmesh_core_nrf52832_xxAA.a(nrf_mesh_keygen.c.obj)
                0x0002cab8                nrf_mesh_keygen_virtual_address
 .text.list_insert
                0x0002cb08       0x28 mesh/core/libmesh_core_nrf52832_xxAA.a(list.c.obj)
 .text.list_add
                0x0002cb30       0x60 mesh/core/libmesh_core_nrf52832_xxAA.a(list.c.obj)
                0x0002cb30                list_add
 .text.list_remove
                0x0002cb90       0x48 mesh/core/libmesh_core_nrf52832_xxAA.a(list.c.obj)
                0x0002cb90                list_remove
 .text.list_compare_add
                0x0002cbd8       0x80 mesh/core/libmesh_core_nrf52832_xxAA.a(list.c.obj)
                0x0002cbd8                list_compare_add
 .text.log_callback_rtt
                0x0002cc58       0x2c mesh/core/libmesh_core_nrf52832_xxAA.a(log.c.obj)
                0x0002cc58                log_callback_rtt
 .text.log_init
                0x0002cc84       0x1c mesh/core/libmesh_core_nrf52832_xxAA.a(log.c.obj)
                0x0002cc84                log_init
 .text.log_vprintf
                0x0002cca0       0x18 mesh/core/libmesh_core_nrf52832_xxAA.a(log.c.obj)
                0x0002cca0                log_vprintf
 .text.log_printf
                0x0002ccb8       0x18 mesh/core/libmesh_core_nrf52832_xxAA.a(log.c.obj)
                0x0002ccb8                log_printf
 .text.get_area_end
                0x0002ccd0        0xc mesh/core/libmesh_core_nrf52832_xxAA.a(flash_manager.c.obj)
 .text.handle_matches_filter
                0x0002ccdc       0x26 mesh/core/libmesh_core_nrf52832_xxAA.a(flash_manager.c.obj)
 *fill*         0x0002cd02        0x2 
 .text.get_packet_buffer
                0x0002cd04       0x2c mesh/core/libmesh_core_nrf52832_xxAA.a(flash_manager.c.obj)
 .text.get_entry_action
                0x0002cd30       0x30 mesh/core/libmesh_core_nrf52832_xxAA.a(flash_manager.c.obj)
 .text.flash_area_is_blank
                0x0002cd60       0x48 mesh/core/libmesh_core_nrf52832_xxAA.a(flash_manager.c.obj)
 .text.flash    0x0002cda8       0x1c mesh/core/libmesh_core_nrf52832_xxAA.a(flash_manager.c.obj)
 .text.free_packet_buffer
                0x0002cdc4       0x54 mesh/core/libmesh_core_nrf52832_xxAA.a(flash_manager.c.obj)
 .text.reserve_action_buffer
                0x0002ce18       0x24 mesh/core/libmesh_core_nrf52832_xxAA.a(flash_manager.c.obj)
 .text.commit_action_buffer
                0x0002ce3c       0x18 mesh/core/libmesh_core_nrf52832_xxAA.a(flash_manager.c.obj)
 .text.schedule_processing
                0x0002ce54        0xc mesh/core/libmesh_core_nrf52832_xxAA.a(flash_manager.c.obj)
 .text.get_next_entry
                0x0002ce60       0x40 mesh/core/libmesh_core_nrf52832_xxAA.a(flash_manager.c.obj)
 .text.get_last_entry.isra.1
                0x0002cea0       0x30 mesh/core/libmesh_core_nrf52832_xxAA.a(flash_manager.c.obj)
 .text.process_action_queue
                0x0002ced0      0x4e4 mesh/core/libmesh_core_nrf52832_xxAA.a(flash_manager.c.obj)
 .text.flash_op_ended_callback
                0x0002d3b4       0x24 mesh/core/libmesh_core_nrf52832_xxAA.a(flash_manager.c.obj)
 .text.flash_manager_init
                0x0002d3d8       0x68 mesh/core/libmesh_core_nrf52832_xxAA.a(flash_manager.c.obj)
                0x0002d3d8                flash_manager_init
 .text.flash_manager_remove
                0x0002d440       0x24 mesh/core/libmesh_core_nrf52832_xxAA.a(flash_manager.c.obj)
                0x0002d440                flash_manager_remove
 .text.flash_manager_entry_get
                0x0002d464       0x48 mesh/core/libmesh_core_nrf52832_xxAA.a(flash_manager.c.obj)
                0x0002d464                flash_manager_entry_get
 .text.flash_manager_entry_next_get
                0x0002d4ac       0x6c mesh/core/libmesh_core_nrf52832_xxAA.a(flash_manager.c.obj)
                0x0002d4ac                flash_manager_entry_next_get
 .text.flash_manager_entry_alloc
                0x0002d518       0x78 mesh/core/libmesh_core_nrf52832_xxAA.a(flash_manager.c.obj)
                0x0002d518                flash_manager_entry_alloc
 .text.flash_manager_entry_commit
                0x0002d590       0x12 mesh/core/libmesh_core_nrf52832_xxAA.a(flash_manager.c.obj)
                0x0002d590                flash_manager_entry_commit
 *fill*         0x0002d5a2        0x2 
 .text.flash_manager_entry_invalidate
                0x0002d5a4       0x64 mesh/core/libmesh_core_nrf52832_xxAA.a(flash_manager.c.obj)
                0x0002d5a4                flash_manager_entry_invalidate
 .text.flash_manager_add
                0x0002d608      0x248 mesh/core/libmesh_core_nrf52832_xxAA.a(flash_manager.c.obj)
                0x0002d608                flash_manager_add
 .text.flash_manager_mem_listener_register
                0x0002d850       0x44 mesh/core/libmesh_core_nrf52832_xxAA.a(flash_manager.c.obj)
                0x0002d850                flash_manager_mem_listener_register
 .text.flash_manager_is_stable
                0x0002d894       0x24 mesh/core/libmesh_core_nrf52832_xxAA.a(flash_manager.c.obj)
                0x0002d894                flash_manager_is_stable
 .text.flash_manager_on_defrag_end
                0x0002d8b8       0x58 mesh/core/libmesh_core_nrf52832_xxAA.a(flash_manager.c.obj)
                0x0002d8b8                flash_manager_on_defrag_end
 .text.flash_manager_recovery_page_get
                0x0002d910        0x4 mesh/core/libmesh_core_nrf52832_xxAA.a(flash_manager.c.obj)
                0x0002d910                flash_manager_recovery_page_get
 .text.utils_xor
                0x0002d914       0x14 mesh/core/libmesh_core_nrf52832_xxAA.a(ccm_soft.c.obj)
 .text.ccm_soft_authenticate_blocks
                0x0002d928       0x68 mesh/core/libmesh_core_nrf52832_xxAA.a(ccm_soft.c.obj)
 .text.utils_reverse_memcpy.constprop.0
                0x0002d990        0xa mesh/core/libmesh_core_nrf52832_xxAA.a(ccm_soft.c.obj)
 .text.ccm_soft_authenticate
                0x0002d99a       0xa0 mesh/core/libmesh_core_nrf52832_xxAA.a(ccm_soft.c.obj)
 .text.ccm_soft_crypt
                0x0002da3a       0x6c mesh/core/libmesh_core_nrf52832_xxAA.a(ccm_soft.c.obj)
 .text.ccm_soft_encrypt
                0x0002daa6       0x70 mesh/core/libmesh_core_nrf52832_xxAA.a(ccm_soft.c.obj)
                0x0002daa6                ccm_soft_encrypt
 .text.ccm_soft_decrypt
                0x0002db16       0xfe mesh/core/libmesh_core_nrf52832_xxAA.a(ccm_soft.c.obj)
                0x0002db16                ccm_soft_decrypt
 .text.beacon_init
                0x0002dc14       0x48 mesh/core/libmesh_core_nrf52832_xxAA.a(beacon.c.obj)
                0x0002dc14                beacon_init
 .text.beacon_create
                0x0002dc5c       0x46 mesh/core/libmesh_core_nrf52832_xxAA.a(beacon.c.obj)
                0x0002dc5c                beacon_create
 *fill*         0x0002dca2        0x2 
 .text.beacon_tx
                0x0002dca4       0x3c mesh/core/libmesh_core_nrf52832_xxAA.a(beacon.c.obj)
                0x0002dca4                beacon_tx
 .text.beacon_packet_in
                0x0002dce0      0x160 mesh/core/libmesh_core_nrf52832_xxAA.a(beacon.c.obj)
                0x0002dce0                beacon_packet_in
 .text.entry_get
                0x0002de40       0x88 mesh/core/libmesh_core_nrf52832_xxAA.a(flash_manager_internal.c.obj)
                0x0002de40                entry_get
 .text.is_power_of_two
                0x0002dec8        0xe mesh/core/libmesh_core_nrf52832_xxAA.a(core_tx.c.obj)
 *fill*         0x0002ded6        0x2 
 .text.bearer_if_get
                0x0002ded8       0x44 mesh/core/libmesh_core_nrf52832_xxAA.a(core_tx.c.obj)
 .text.core_tx_complete_cb_set
                0x0002df1c        0xc mesh/core/libmesh_core_nrf52832_xxAA.a(core_tx.c.obj)
                0x0002df1c                core_tx_complete_cb_set
 .text.core_tx_packet_alloc
                0x0002df28       0x88 mesh/core/libmesh_core_nrf52832_xxAA.a(core_tx.c.obj)
                0x0002df28                core_tx_packet_alloc
 .text.core_tx_packet_send
                0x0002dfb0       0x80 mesh/core/libmesh_core_nrf52832_xxAA.a(core_tx.c.obj)
                0x0002dfb0                core_tx_packet_send
 .text.core_tx_packet_discard
                0x0002e030       0x80 mesh/core/libmesh_core_nrf52832_xxAA.a(core_tx.c.obj)
                0x0002e030                core_tx_packet_discard
 .text.core_tx_complete
                0x0002e0b0       0x10 mesh/core/libmesh_core_nrf52832_xxAA.a(core_tx.c.obj)
                0x0002e0b0                core_tx_complete
 .text.core_tx_bearer_register
                0x0002e0c0       0x84 mesh/core/libmesh_core_nrf52832_xxAA.a(core_tx.c.obj)
                0x0002e0c0                core_tx_bearer_register
 .text.heartbeat_subscription_timer_cb
                0x0002e144       0x1c mesh/core/libmesh_core_nrf52832_xxAA.a(heartbeat.c.obj)
 .text.heartbeat_opcode_handle
                0x0002e160       0x78 mesh/core/libmesh_core_nrf52832_xxAA.a(heartbeat.c.obj)
 .text.heartbeat_send
                0x0002e1d8       0xd0 mesh/core/libmesh_core_nrf52832_xxAA.a(heartbeat.c.obj)
 .text.heartbeat_core_evt_cb
                0x0002e2a8       0x90 mesh/core/libmesh_core_nrf52832_xxAA.a(heartbeat.c.obj)
 .text.heartbeat_publication_timer_cb
                0x0002e338       0xc8 mesh/core/libmesh_core_nrf52832_xxAA.a(heartbeat.c.obj)
 .text.heartbeat_init
                0x0002e400       0x8c mesh/core/libmesh_core_nrf52832_xxAA.a(heartbeat.c.obj)
                0x0002e400                heartbeat_init
 .text.make_network_beacon_cmac
                0x0002e48c       0x22 mesh/core/libmesh_core_nrf52832_xxAA.a(net_beacon.c.obj)
 *fill*         0x0002e4ae        0x2 
 .text.network_beacon_tx_cb
                0x0002e4b0       0xe8 mesh/core/libmesh_core_nrf52832_xxAA.a(net_beacon.c.obj)
 .text.net_beacon_init
                0x0002e598       0x60 mesh/core/libmesh_core_nrf52832_xxAA.a(net_beacon.c.obj)
                0x0002e598                net_beacon_init
 .text.net_beacon_packet_in
                0x0002e5f8      0x104 mesh/core/libmesh_core_nrf52832_xxAA.a(net_beacon.c.obj)
                0x0002e5f8                net_beacon_packet_in
 .text.packet_discard
                0x0002e6fc       0x14 mesh/core/libmesh_core_nrf52832_xxAA.a(core_tx_adv.c.obj)
 .text.packet_send
                0x0002e710       0x14 mesh/core/libmesh_core_nrf52832_xxAA.a(core_tx_adv.c.obj)
 .text.packet_alloc
                0x0002e724       0x3c mesh/core/libmesh_core_nrf52832_xxAA.a(core_tx_adv.c.obj)
 .text.adv_tx_complete_callback
                0x0002e760       0x30 mesh/core/libmesh_core_nrf52832_xxAA.a(core_tx_adv.c.obj)
 .text.core_tx_adv_init
                0x0002e790       0x58 mesh/core/libmesh_core_nrf52832_xxAA.a(core_tx_adv.c.obj)
                0x0002e790                core_tx_adv_init
 .text.core_tx_adv_count_get
                0x0002e7e8       0x28 mesh/core/libmesh_core_nrf52832_xxAA.a(core_tx_adv.c.obj)
                0x0002e7e8                core_tx_adv_count_get
 .text.core_tx_adv_interval_get
                0x0002e810       0x34 mesh/core/libmesh_core_nrf52832_xxAA.a(core_tx_adv.c.obj)
                0x0002e810                core_tx_adv_interval_get
 .text.ad_listener_subscribe
                0x0002e844       0x5c mesh/core/libmesh_core_nrf52832_xxAA.a(ad_listener.c.obj)
                0x0002e844                ad_listener_subscribe
 .text.ad_listener_process
                0x0002e8a0       0x64 mesh/core/libmesh_core_nrf52832_xxAA.a(ad_listener.c.obj)
                0x0002e8a0                ad_listener_process
 .text.adtype_filter_handle
                0x0002e904       0x64 mesh/core/libmesh_core_nrf52832_xxAA.a(ad_type_filter.c.obj)
 .text.bearer_adtype_filtering_set
                0x0002e968       0x1c mesh/core/libmesh_core_nrf52832_xxAA.a(ad_type_filter.c.obj)
                0x0002e968                bearer_adtype_filtering_set
 .text.bearer_adtype_add
                0x0002e984       0x20 mesh/core/libmesh_core_nrf52832_xxAA.a(ad_type_filter.c.obj)
                0x0002e984                bearer_adtype_add
 .text.bearer_adtype_mode_set
                0x0002e9a4       0x24 mesh/core/libmesh_core_nrf52832_xxAA.a(ad_type_filter.c.obj)
                0x0002e9a4                bearer_adtype_mode_set
 .text.set_gap_addr_type
                0x0002e9c8       0x34 mesh/core/libmesh_core_nrf52832_xxAA.a(advertiser.c.obj)
 .text.tx_complete_event_callback
                0x0002e9fc       0x3c mesh/core/libmesh_core_nrf52832_xxAA.a(advertiser.c.obj)
 .text.broadcast_complete_cb
                0x0002ea38       0x64 mesh/core/libmesh_core_nrf52832_xxAA.a(advertiser.c.obj)
 .text.schedule_first_time
                0x0002ea9c       0x28 mesh/core/libmesh_core_nrf52832_xxAA.a(advertiser.c.obj)
 .text.timeout_event
                0x0002eac4      0x130 mesh/core/libmesh_core_nrf52832_xxAA.a(advertiser.c.obj)
 .text.advertiser_init
                0x0002ebf4        0xc mesh/core/libmesh_core_nrf52832_xxAA.a(advertiser.c.obj)
                0x0002ebf4                advertiser_init
 .text.advertiser_enable
                0x0002ec00       0x2a mesh/core/libmesh_core_nrf52832_xxAA.a(advertiser.c.obj)
                0x0002ec00                advertiser_enable
 *fill*         0x0002ec2a        0x2 
 .text.advertiser_packet_alloc
                0x0002ec2c       0x94 mesh/core/libmesh_core_nrf52832_xxAA.a(advertiser.c.obj)
                0x0002ec2c                advertiser_packet_alloc
 .text.advertiser_packet_send
                0x0002ecc0       0x78 mesh/core/libmesh_core_nrf52832_xxAA.a(advertiser.c.obj)
                0x0002ecc0                advertiser_packet_send
 .text.advertiser_packet_discard
                0x0002ed38       0x2c mesh/core/libmesh_core_nrf52832_xxAA.a(advertiser.c.obj)
                0x0002ed38                advertiser_packet_discard
 .text.advertiser_interval_set
                0x0002ed64       0x68 mesh/core/libmesh_core_nrf52832_xxAA.a(advertiser.c.obj)
                0x0002ed64                advertiser_interval_set
 .text.advertiser_flush
                0x0002edcc       0x1e mesh/core/libmesh_core_nrf52832_xxAA.a(advertiser.c.obj)
                0x0002edcc                advertiser_flush
 *fill*         0x0002edea        0x2 
 .text.advertiser_address_default_get
                0x0002edec       0x38 mesh/core/libmesh_core_nrf52832_xxAA.a(advertiser.c.obj)
                0x0002edec                advertiser_address_default_get
 .text.advertiser_instance_init
                0x0002ee24       0xbc mesh/core/libmesh_core_nrf52832_xxAA.a(advertiser.c.obj)
                0x0002ee24                advertiser_instance_init
 .text.action_switch
                0x0002eee0       0xc0 mesh/core/libmesh_core_nrf52832_xxAA.a(bearer_handler.c.obj)
 .text.bearer_handler_init
                0x0002efa0       0x2c mesh/core/libmesh_core_nrf52832_xxAA.a(bearer_handler.c.obj)
                0x0002efa0                bearer_handler_init
 .text.bearer_handler_start
                0x0002efcc       0x1c mesh/core/libmesh_core_nrf52832_xxAA.a(bearer_handler.c.obj)
                0x0002efcc                bearer_handler_start
 .text.bearer_handler_action_enqueue
                0x0002efe8       0x94 mesh/core/libmesh_core_nrf52832_xxAA.a(bearer_handler.c.obj)
                0x0002efe8                bearer_handler_action_enqueue
 .text.bearer_handler_action_end
                0x0002f07c       0x78 mesh/core/libmesh_core_nrf52832_xxAA.a(bearer_handler.c.obj)
                0x0002f07c                bearer_handler_action_end
 .text.bearer_handler_radio_irq_handler
                0x0002f0f4       0x64 mesh/core/libmesh_core_nrf52832_xxAA.a(bearer_handler.c.obj)
                0x0002f0f4                bearer_handler_radio_irq_handler
 .text.bearer_handler_timer_irq_handler
                0x0002f158       0x30 mesh/core/libmesh_core_nrf52832_xxAA.a(bearer_handler.c.obj)
                0x0002f158                bearer_handler_timer_irq_handler
 .text.bearer_handler_on_ts_begin
                0x0002f188       0x44 mesh/core/libmesh_core_nrf52832_xxAA.a(bearer_handler.c.obj)
                0x0002f188                bearer_handler_on_ts_begin
 .text.bearer_handler_on_ts_end
                0x0002f1cc       0x48 mesh/core/libmesh_core_nrf52832_xxAA.a(bearer_handler.c.obj)
                0x0002f1cc                bearer_handler_on_ts_end
 .text.radio_irq_handler
                0x0002f214       0xb0 mesh/core/libmesh_core_nrf52832_xxAA.a(broadcast.c.obj)
 .text.broadcast_start
                0x0002f2c4       0x8c mesh/core/libmesh_core_nrf52832_xxAA.a(broadcast.c.obj)
 .text.broadcast_send
                0x0002f350       0x80 mesh/core/libmesh_core_nrf52832_xxAA.a(broadcast.c.obj)
                0x0002f350                broadcast_send
 .text.fen_filter_start
                0x0002f3d0       0x3c mesh/core/libmesh_core_nrf52832_xxAA.a(filter_engine.c.obj)
                0x0002f3d0                fen_filter_start
 .text.fen_filter_stop
                0x0002f40c       0x2c mesh/core/libmesh_core_nrf52832_xxAA.a(filter_engine.c.obj)
                0x0002f40c                fen_filter_stop
 .text.fen_filters_apply
                0x0002f438       0x34 mesh/core/libmesh_core_nrf52832_xxAA.a(filter_engine.c.obj)
                0x0002f438                fen_filters_apply
 .text.radio_config_reset
                0x0002f46c       0x34 mesh/core/libmesh_core_nrf52832_xxAA.a(radio_config.c.obj)
                0x0002f46c                radio_config_reset
 .text.radio_config_channel_set
                0x0002f4a0       0x34 mesh/core/libmesh_core_nrf52832_xxAA.a(radio_config.c.obj)
                0x0002f4a0                radio_config_channel_set
 .text.radio_config_config
                0x0002f4d4       0xa4 mesh/core/libmesh_core_nrf52832_xxAA.a(radio_config.c.obj)
                0x0002f4d4                radio_config_config
 .text.radio_config_access_addr_set
                0x0002f578       0x68 mesh/core/libmesh_core_nrf52832_xxAA.a(radio_config.c.obj)
                0x0002f578                radio_config_access_addr_set
 .text.radio_trigger
                0x0002f5e0       0x24 mesh/core/libmesh_core_nrf52832_xxAA.a(scanner.c.obj)
 .text.scan_window_end
                0x0002f604       0x10 mesh/core/libmesh_core_nrf52832_xxAA.a(scanner.c.obj)
 .text.scan_window_start
                0x0002f614       0x24 mesh/core/libmesh_core_nrf52832_xxAA.a(scanner.c.obj)
 .text.radio_configure
                0x0002f638       0x78 mesh/core/libmesh_core_nrf52832_xxAA.a(scanner.c.obj)
 .text.radio_set_packet
                0x0002f6b0       0x50 mesh/core/libmesh_core_nrf52832_xxAA.a(scanner.c.obj)
 .text.radio_start
                0x0002f700       0x4c mesh/core/libmesh_core_nrf52832_xxAA.a(scanner.c.obj)
 .text.radio_stop
                0x0002f74c       0x30 mesh/core/libmesh_core_nrf52832_xxAA.a(scanner.c.obj)
 .text.schedule_timers
                0x0002f77c       0x38 mesh/core/libmesh_core_nrf52832_xxAA.a(scanner.c.obj)
 .text.scanner_radio_start
                0x0002f7b4       0x28 mesh/core/libmesh_core_nrf52832_xxAA.a(scanner.c.obj)
                0x0002f7b4                scanner_radio_start
 .text.scanner_radio_stop
                0x0002f7dc       0x10 mesh/core/libmesh_core_nrf52832_xxAA.a(scanner.c.obj)
                0x0002f7dc                scanner_radio_stop
 .text.scanner_radio_irq_handler
                0x0002f7ec      0x13c mesh/core/libmesh_core_nrf52832_xxAA.a(scanner.c.obj)
                0x0002f7ec                scanner_radio_irq_handler
 .text.scanner_enable
                0x0002f928       0x30 mesh/core/libmesh_core_nrf52832_xxAA.a(scanner.c.obj)
                0x0002f928                scanner_enable
 .text.scanner_packet_release
                0x0002f958       0x38 mesh/core/libmesh_core_nrf52832_xxAA.a(scanner.c.obj)
                0x0002f958                scanner_packet_release
 .text.scanner_rx
                0x0002f990       0x30 mesh/core/libmesh_core_nrf52832_xxAA.a(scanner.c.obj)
                0x0002f990                scanner_rx
 .text.scanner_rx_pending
                0x0002f9c0        0xc mesh/core/libmesh_core_nrf52832_xxAA.a(scanner.c.obj)
                0x0002f9c0                scanner_rx_pending
 .text.scanner_config_scan_time_set
                0x0002f9cc       0x68 mesh/core/libmesh_core_nrf52832_xxAA.a(scanner.c.obj)
                0x0002f9cc                scanner_config_scan_time_set
 .text.scanner_config_channels_set
                0x0002fa34       0x64 mesh/core/libmesh_core_nrf52832_xxAA.a(scanner.c.obj)
                0x0002fa34                scanner_config_channels_set
 .text.scanner_config_access_addresses_set
                0x0002fa98       0x44 mesh/core/libmesh_core_nrf52832_xxAA.a(scanner.c.obj)
                0x0002fa98                scanner_config_access_addresses_set
 .text.scanner_config_reset
                0x0002fadc       0x50 mesh/core/libmesh_core_nrf52832_xxAA.a(scanner.c.obj)
                0x0002fadc                scanner_config_reset
 .text.scanner_init
                0x0002fb2c       0x54 mesh/core/libmesh_core_nrf52832_xxAA.a(scanner.c.obj)
                0x0002fb2c                scanner_init
 .text.internal_event_push
                0x0002fb80       0x28 mesh/core/libmesh_core_nrf52832_xxAA.a(internal_event.c.obj)
                0x0002fb80                internal_event_push
 .text.sd_ecb_block_encrypt
                0x0002fba8        0x4 mesh/core/libmesh_core_nrf52832_xxAA.a(aes.c.obj)
 .text.aes_encrypt
                0x0002fbac       0x32 mesh/core/libmesh_core_nrf52832_xxAA.a(aes.c.obj)
                0x0002fbac                aes_encrypt
 *fill*         0x0002fbde        0x2 
 .text.msg_cache_init
                0x0002fbe0       0x24 mesh/core/libmesh_core_nrf52832_xxAA.a(msg_cache.c.obj)
                0x0002fbe0                msg_cache_init
 .text.msg_cache_entry_exists
                0x0002fc04       0x3c mesh/core/libmesh_core_nrf52832_xxAA.a(msg_cache.c.obj)
                0x0002fc04                msg_cache_entry_exists
 .text.msg_cache_entry_add
                0x0002fc40       0x2c mesh/core/libmesh_core_nrf52832_xxAA.a(msg_cache.c.obj)
                0x0002fc40                msg_cache_entry_add
 .text.block_ack_full
                0x0002fc6c       0x28 mesh/core/libmesh_core_nrf52832_xxAA.a(transport.c.obj)
 .text.seqauth_sequence_number_get
                0x0002fc94       0x12 mesh/core/libmesh_core_nrf52832_xxAA.a(transport.c.obj)
 *fill*         0x0002fca6        0x2 
 .text.sar_rx_session_mark_as_handled
                0x0002fca8       0x54 mesh/core/libmesh_core_nrf52832_xxAA.a(transport.c.obj)
 .text.sar_ctx_find
                0x0002fcfc       0x3c mesh/core/libmesh_core_nrf52832_xxAA.a(transport.c.obj)
 .text.control_packet_callback_get
                0x0002fd38       0x44 mesh/core/libmesh_core_nrf52832_xxAA.a(transport.c.obj)
 .text.m_send_sar_cancel_event
                0x0002fd7c       0x28 mesh/core/libmesh_core_nrf52832_xxAA.a(transport.c.obj)
 .text.tx_complete
                0x0002fda4       0x34 mesh/core/libmesh_core_nrf52832_xxAA.a(transport.c.obj)
 .text.upper_trs_packet_encrypt
                0x0002fdd8       0xbc mesh/core/libmesh_core_nrf52832_xxAA.a(transport.c.obj)
 .text.sar_ctx_free
                0x0002fe94       0x3c mesh/core/libmesh_core_nrf52832_xxAA.a(transport.c.obj)
 .text.sar_ctx_tx_complete
                0x0002fed0       0xb8 mesh/core/libmesh_core_nrf52832_xxAA.a(transport.c.obj)
 .text.sar_ctx_cancel
                0x0002ff88      0x108 mesh/core/libmesh_core_nrf52832_xxAA.a(transport.c.obj)
 .text.abort_timeout
                0x00030090        0x8 mesh/core/libmesh_core_nrf52832_xxAA.a(transport.c.obj)
 .text.sar_ctx_alloc
                0x00030098       0xbc mesh/core/libmesh_core_nrf52832_xxAA.a(transport.c.obj)
 .text.test_transport_decrypt
                0x00030154       0x88 mesh/core/libmesh_core_nrf52832_xxAA.a(transport.c.obj)
 .text.upper_transport_access_packet_in
                0x000301dc      0x28c mesh/core/libmesh_core_nrf52832_xxAA.a(transport.c.obj)
 .text.trs_packet_header_build
                0x00030468       0xa6 mesh/core/libmesh_core_nrf52832_xxAA.a(transport.c.obj)
 *fill*         0x0003050e        0x2 
 .text.tx_retry_timer_reset
                0x00030510       0x50 mesh/core/libmesh_core_nrf52832_xxAA.a(transport.c.obj)
 .text.trs_sar_packet_out
                0x00030560       0xec mesh/core/libmesh_core_nrf52832_xxAA.a(transport.c.obj)
 .text.retry_timeout
                0x0003064c       0x54 mesh/core/libmesh_core_nrf52832_xxAA.a(transport.c.obj)
 .text.upper_transport_packet_in
                0x000306a0      0x1b0 mesh/core/libmesh_core_nrf52832_xxAA.a(transport.c.obj)
 .text.upper_transport_tx
                0x00030850      0x230 mesh/core/libmesh_core_nrf52832_xxAA.a(transport.c.obj)
 .text.transport_sar_mem_funcs_reset
                0x00030a80       0x28 mesh/core/libmesh_core_nrf52832_xxAA.a(transport.c.obj)
                0x00030a80                transport_sar_mem_funcs_reset
 .text.transport_init
                0x00030aa8       0x7c mesh/core/libmesh_core_nrf52832_xxAA.a(transport.c.obj)
                0x00030aa8                transport_init
 .text.transport_tx
                0x00030b24       0xa4 mesh/core/libmesh_core_nrf52832_xxAA.a(transport.c.obj)
                0x00030b24                transport_tx
 .text.transport_control_tx
                0x00030bc8       0x8e mesh/core/libmesh_core_nrf52832_xxAA.a(transport.c.obj)
                0x00030bc8                transport_control_tx
 *fill*         0x00030c56        0x2 
 .text.sar_ack_send
                0x00030c58      0x124 mesh/core/libmesh_core_nrf52832_xxAA.a(transport.c.obj)
 .text.transport_sar_process
                0x00030d7c       0x74 mesh/core/libmesh_core_nrf52832_xxAA.a(transport.c.obj)
 .text.transport_packet_in
                0x00030df0      0x524 mesh/core/libmesh_core_nrf52832_xxAA.a(transport.c.obj)
                0x00030df0                transport_packet_in
 .text.ack_timeout
                0x00031314       0x34 mesh/core/libmesh_core_nrf52832_xxAA.a(transport.c.obj)
 .text.transport_opt_get
                0x00031348       0x68 mesh/core/libmesh_core_nrf52832_xxAA.a(transport.c.obj)
                0x00031348                transport_opt_get
 .text.transport_control_packet_consumer_add
                0x000313b0       0x5c mesh/core/libmesh_core_nrf52832_xxAA.a(transport.c.obj)
                0x000313b0                transport_control_packet_consumer_add
 .text.m_adjust_desired_packet_length
                0x0003140c       0x34 mesh/core/libmesh_core_nrf52832_xxAA.a(packet_buffer.c.obj)
 .text.m_index_increment.part.0
                0x00031440       0x14 mesh/core/libmesh_core_nrf52832_xxAA.a(packet_buffer.c.obj)
 .text.m_free_popped_packet
                0x00031454       0x60 mesh/core/libmesh_core_nrf52832_xxAA.a(packet_buffer.c.obj)
 .text.free_skipped_packets
                0x000314b4       0x1c mesh/core/libmesh_core_nrf52832_xxAA.a(packet_buffer.c.obj)
 .text.packet_buffer_init
                0x000314d0       0xe0 mesh/core/libmesh_core_nrf52832_xxAA.a(packet_buffer.c.obj)
                0x000314d0                packet_buffer_init
 .text.packet_buffer_flush
                0x000315b0       0x5e mesh/core/libmesh_core_nrf52832_xxAA.a(packet_buffer.c.obj)
                0x000315b0                packet_buffer_flush
 *fill*         0x0003160e        0x2 
 .text.packet_buffer_reserve
                0x00031610      0x11c mesh/core/libmesh_core_nrf52832_xxAA.a(packet_buffer.c.obj)
                0x00031610                packet_buffer_reserve
 .text.packet_buffer_commit
                0x0003172c      0x104 mesh/core/libmesh_core_nrf52832_xxAA.a(packet_buffer.c.obj)
                0x0003172c                packet_buffer_commit
 .text.packet_buffer_pop
                0x00031830       0x58 mesh/core/libmesh_core_nrf52832_xxAA.a(packet_buffer.c.obj)
                0x00031830                packet_buffer_pop
 .text.packet_buffer_can_pop
                0x00031888       0x28 mesh/core/libmesh_core_nrf52832_xxAA.a(packet_buffer.c.obj)
                0x00031888                packet_buffer_can_pop
 .text.packet_buffer_packets_ready_to_pop
                0x000318b0       0x58 mesh/core/libmesh_core_nrf52832_xxAA.a(packet_buffer.c.obj)
                0x000318b0                packet_buffer_packets_ready_to_pop
 .text.packet_buffer_free
                0x00031908       0x8c mesh/core/libmesh_core_nrf52832_xxAA.a(packet_buffer.c.obj)
                0x00031908                packet_buffer_free
 .text.get_last_page
                0x00031994       0x14 mesh/core/libmesh_core_nrf52832_xxAA.a(flash_manager_defrag.c.obj)
 .text.defrag_on_end
                0x000319a8       0x1c mesh/core/libmesh_core_nrf52832_xxAA.a(flash_manager_defrag.c.obj)
 .text.execute_procedure_step
                0x000319c4       0xa0 mesh/core/libmesh_core_nrf52832_xxAA.a(flash_manager_defrag.c.obj)
 .text.get_next_entry
                0x00031a64       0x40 mesh/core/libmesh_core_nrf52832_xxAA.a(flash_manager_defrag.c.obj)
 .text.get_next_data_entry
                0x00031aa4       0x20 mesh/core/libmesh_core_nrf52832_xxAA.a(flash_manager_defrag.c.obj)
 .text.on_flash_op_end
                0x00031ac4       0x30 mesh/core/libmesh_core_nrf52832_xxAA.a(flash_manager_defrag.c.obj)
 .text.check_for_invalid_entries
                0x00031af4       0x38 mesh/core/libmesh_core_nrf52832_xxAA.a(flash_manager_defrag.c.obj)
 .text.erase_recovery_area
                0x00031b2c       0x34 mesh/core/libmesh_core_nrf52832_xxAA.a(flash_manager_defrag.c.obj)
 .text.flash.constprop.6
                0x00031b60       0x24 mesh/core/libmesh_core_nrf52832_xxAA.a(flash_manager_defrag.c.obj)
 .text.seal_storage_page
                0x00031b84       0x50 mesh/core/libmesh_core_nrf52832_xxAA.a(flash_manager_defrag.c.obj)
 .text.invalidate_duplicate_entries
                0x00031bd4       0x9c mesh/core/libmesh_core_nrf52832_xxAA.a(flash_manager_defrag.c.obj)
 .text.copy_metadata
                0x00031c70       0x3c mesh/core/libmesh_core_nrf52832_xxAA.a(flash_manager_defrag.c.obj)
 .text.write_defrag_start_pointer
                0x00031cac       0x20 mesh/core/libmesh_core_nrf52832_xxAA.a(flash_manager_defrag.c.obj)
 .text.write_back
                0x00031ccc       0x28 mesh/core/libmesh_core_nrf52832_xxAA.a(flash_manager_defrag.c.obj)
 .text.post_process
                0x00031cf4       0x40 mesh/core/libmesh_core_nrf52832_xxAA.a(flash_manager_defrag.c.obj)
 .text.backup_entries
                0x00031d34      0x118 mesh/core/libmesh_core_nrf52832_xxAA.a(flash_manager_defrag.c.obj)
 .text.erase_source
                0x00031e4c       0x34 mesh/core/libmesh_core_nrf52832_xxAA.a(flash_manager_defrag.c.obj)
 .text.flash_manager_defrag_init
                0x00031e80       0x98 mesh/core/libmesh_core_nrf52832_xxAA.a(flash_manager_defrag.c.obj)
                0x00031e80                flash_manager_defrag_init
 .text.flash_manager_defrag_is_running
                0x00031f18       0x10 mesh/core/libmesh_core_nrf52832_xxAA.a(flash_manager_defrag.c.obj)
                0x00031f18                flash_manager_defrag_is_running
 .text.flash_manager_defrag
                0x00031f28       0xd8 mesh/core/libmesh_core_nrf52832_xxAA.a(flash_manager_defrag.c.obj)
                0x00031f28                flash_manager_defrag
 .text.flash_manager_defrag_recovery_page_get
                0x00032000        0xc mesh/core/libmesh_core_nrf52832_xxAA.a(flash_manager_defrag.c.obj)
                0x00032000                flash_manager_defrag_recovery_page_get
 .text.fifo_init
                0x0003200c       0x50 mesh/core/libmesh_core_nrf52832_xxAA.a(fifo.c.obj)
                0x0003200c                fifo_init
 .text.fifo_push
                0x0003205c       0x50 mesh/core/libmesh_core_nrf52832_xxAA.a(fifo.c.obj)
                0x0003205c                fifo_push
 .text.fifo_pop
                0x000320ac       0x52 mesh/core/libmesh_core_nrf52832_xxAA.a(fifo.c.obj)
                0x000320ac                fifo_pop
 *fill*         0x000320fe        0x2 
 .text.send_end_events
                0x00032100       0x84 mesh/core/libmesh_core_nrf52832_xxAA.a(mesh_flash.c.obj)
 .text.flash_op_schedule
                0x00032184       0x9c mesh/core/libmesh_core_nrf52832_xxAA.a(mesh_flash.c.obj)
 .text.flash_op_start
                0x00032220      0x170 mesh/core/libmesh_core_nrf52832_xxAA.a(mesh_flash.c.obj)
 .text.mesh_flash_init
                0x00032390       0x88 mesh/core/libmesh_core_nrf52832_xxAA.a(mesh_flash.c.obj)
                0x00032390                mesh_flash_init
 .text.mesh_flash_user_callback_set
                0x00032418       0x2c mesh/core/libmesh_core_nrf52832_xxAA.a(mesh_flash.c.obj)
                0x00032418                mesh_flash_user_callback_set
 .text.mesh_flash_op_push
                0x00032444      0x128 mesh/core/libmesh_core_nrf52832_xxAA.a(mesh_flash.c.obj)
                0x00032444                mesh_flash_op_push
 .text.queue_init
                0x0003256c       0x20 mesh/core/libmesh_core_nrf52832_xxAA.a(queue.c.obj)
                0x0003256c                queue_init
 .text.queue_push
                0x0003258c       0x48 mesh/core/libmesh_core_nrf52832_xxAA.a(queue.c.obj)
                0x0003258c                queue_push
 .text.queue_pop
                0x000325d4       0x34 mesh/core/libmesh_core_nrf52832_xxAA.a(queue.c.obj)
                0x000325d4                queue_pop
 .text.queue_peek
                0x00032608       0x1c mesh/core/libmesh_core_nrf52832_xxAA.a(queue.c.obj)
                0x00032608                queue_peek
 .text.my_xor.constprop.1
                0x00032624       0x20 mesh/core/libmesh_core_nrf52832_xxAA.a(aes_cmac.c.obj)
 .text.utils_lshift.constprop.2
                0x00032644       0x24 mesh/core/libmesh_core_nrf52832_xxAA.a(aes_cmac.c.obj)
 .text.aes_cmac_subkey_generate
                0x00032668       0x6c mesh/core/libmesh_core_nrf52832_xxAA.a(aes_cmac.c.obj)
                0x00032668                aes_cmac_subkey_generate
 .text.aes_cmac
                0x000326d4       0xbc mesh/core/libmesh_core_nrf52832_xxAA.a(aes_cmac.c.obj)
                0x000326d4                aes_cmac
 .text.nrf_mesh_opt_get
                0x00032790       0x26 mesh/core/libmesh_core_nrf52832_xxAA.a(nrf_mesh_opt.c.obj)
                0x00032790                nrf_mesh_opt_get
 .text.stage_get_available
                0x000327b6       0x24 mesh/core/libmesh_core_nrf52832_xxAA.a(msqueue.c.obj)
 *fill*         0x000327da        0x2 
 .text.msq_get  0x000327dc       0x4c mesh/core/libmesh_core_nrf52832_xxAA.a(msqueue.c.obj)
                0x000327dc                msq_get
 .text.msq_move
                0x00032828       0x44 mesh/core/libmesh_core_nrf52832_xxAA.a(msqueue.c.obj)
                0x00032828                msq_move
 .text.msq_reset
                0x0003286c       0x2c mesh/core/libmesh_core_nrf52832_xxAA.a(msqueue.c.obj)
                0x0003286c                msq_reset
 .text.msq_init
                0x00032898       0x78 mesh/core/libmesh_core_nrf52832_xxAA.a(msqueue.c.obj)
                0x00032898                msq_init
 .text.msq_available
                0x00032910       0x3c mesh/core/libmesh_core_nrf52832_xxAA.a(msqueue.c.obj)
                0x00032910                msq_available
 .text.replay_cache_add
                0x0003294c       0x60 mesh/core/libmesh_core_nrf52832_xxAA.a(replay_cache.c.obj)
                0x0003294c                replay_cache_add
 .text.replay_cache_has_room
                0x000329ac       0x38 mesh/core/libmesh_core_nrf52832_xxAA.a(replay_cache.c.obj)
                0x000329ac                replay_cache_has_room
 .text.replay_cache_has_elem
                0x000329e4       0x38 mesh/core/libmesh_core_nrf52832_xxAA.a(replay_cache.c.obj)
                0x000329e4                replay_cache_has_elem
 .text.replay_cache_clear
                0x00032a1c       0x28 mesh/core/libmesh_core_nrf52832_xxAA.a(replay_cache.c.obj)
                0x00032a1c                replay_cache_clear
 .text.replay_cache_init
                0x00032a44        0x4 mesh/core/libmesh_core_nrf52832_xxAA.a(replay_cache.c.obj)
                0x00032a44                replay_cache_init
 .text.wait_for_ready
                0x00032a48       0x10 mesh/core/libmesh_core_nrf52832_xxAA.a(nrf_flash.c.obj)
 .text.nrf_flash_erase
                0x00032a58       0x50 mesh/core/libmesh_core_nrf52832_xxAA.a(nrf_flash.c.obj)
                0x00032a58                nrf_flash_erase
 .text.nrf_flash_write
                0x00032aa8       0x50 mesh/core/libmesh_core_nrf52832_xxAA.a(nrf_flash.c.obj)
                0x00032aa8                nrf_flash_write
 .text._GetAvailWriteSpace
                0x00032af8       0x1c external/rtt/librtt_nrf52832_xxAA.a(SEGGER_RTT.c.obj)
 .text._WriteNoCheck
                0x00032b14       0x3c external/rtt/librtt_nrf52832_xxAA.a(SEGGER_RTT.c.obj)
 .text._WriteBlocking
                0x00032b50       0x52 external/rtt/librtt_nrf52832_xxAA.a(SEGGER_RTT.c.obj)
 *fill*         0x00032ba2        0x2 
 .text._DoInit  0x00032ba4       0x60 external/rtt/librtt_nrf52832_xxAA.a(SEGGER_RTT.c.obj)
 .text.SEGGER_RTT_ReadNoLock
                0x00032c04       0x88 external/rtt/librtt_nrf52832_xxAA.a(SEGGER_RTT.c.obj)
                0x00032c04                SEGGER_RTT_ReadNoLock
 .text.SEGGER_RTT_Read
                0x00032c8c       0x1c external/rtt/librtt_nrf52832_xxAA.a(SEGGER_RTT.c.obj)
                0x00032c8c                SEGGER_RTT_Read
 .text.SEGGER_RTT_WriteNoLock
                0x00032ca8       0x68 external/rtt/librtt_nrf52832_xxAA.a(SEGGER_RTT.c.obj)
                0x00032ca8                SEGGER_RTT_WriteNoLock
 .text.SEGGER_RTT_Write
                0x00032d10       0x34 external/rtt/librtt_nrf52832_xxAA.a(SEGGER_RTT.c.obj)
                0x00032d10                SEGGER_RTT_Write
 .text.SEGGER_RTT_GetKey
                0x00032d44       0x20 external/rtt/librtt_nrf52832_xxAA.a(SEGGER_RTT.c.obj)
                0x00032d44                SEGGER_RTT_GetKey
 .text._StoreChar
                0x00032d64       0x3e external/rtt/librtt_nrf52832_xxAA.a(SEGGER_RTT_printf.c.obj)
 *fill*         0x00032da2        0x2 
 .text._PrintUnsigned
                0x00032da4       0xd0 external/rtt/librtt_nrf52832_xxAA.a(SEGGER_RTT_printf.c.obj)
 .text.SEGGER_RTT_vprintf
                0x00032e74      0x246 external/rtt/librtt_nrf52832_xxAA.a(SEGGER_RTT_printf.c.obj)
                0x00032e74                SEGGER_RTT_vprintf
 .text.SEGGER_RTT_printf
                0x000330ba       0x1e external/rtt/librtt_nrf52832_xxAA.a(SEGGER_RTT_printf.c.obj)
                0x000330ba                SEGGER_RTT_printf
 .text.uECC_vli_mult
                0x000330d8       0x64 external/micro-ecc/libuECC_nrf52832_xxAA.a(uECC.c.obj)
 .text.uECC_vli_clear
                0x0003313c       0x16 external/micro-ecc/libuECC_nrf52832_xxAA.a(uECC.c.obj)
 .text.uECC_vli_isZero
                0x00033152       0x1e external/micro-ecc/libuECC_nrf52832_xxAA.a(uECC.c.obj)
 .text.uECC_vli_testBit
                0x00033170       0x14 external/micro-ecc/libuECC_nrf52832_xxAA.a(uECC.c.obj)
 .text.uECC_vli_numBits
                0x00033184       0x3a external/micro-ecc/libuECC_nrf52832_xxAA.a(uECC.c.obj)
 .text.uECC_vli_set
                0x000331be       0x18 external/micro-ecc/libuECC_nrf52832_xxAA.a(uECC.c.obj)
 .text.uECC_vli_cmp_unsafe
                0x000331d6       0x28 external/micro-ecc/libuECC_nrf52832_xxAA.a(uECC.c.obj)
 .text.uECC_vli_rshift1
                0x000331fe       0x1c external/micro-ecc/libuECC_nrf52832_xxAA.a(uECC.c.obj)
 .text.uECC_vli_modMult_fast
                0x0003321a       0x20 external/micro-ecc/libuECC_nrf52832_xxAA.a(uECC.c.obj)
 .text.uECC_vli_modSquare_fast
                0x0003323a        0x8 external/micro-ecc/libuECC_nrf52832_xxAA.a(uECC.c.obj)
 .text.apply_z  0x00033242       0x3e external/micro-ecc/libuECC_nrf52832_xxAA.a(uECC.c.obj)
 .text.uECC_vli_nativeToBytes
                0x00033280       0x28 external/micro-ecc/libuECC_nrf52832_xxAA.a(uECC.c.obj)
 .text.uECC_vli_bytesToNative
                0x000332a8       0x40 external/micro-ecc/libuECC_nrf52832_xxAA.a(uECC.c.obj)
 .text.default_RNG
                0x000332e8        0xc external/micro-ecc/libuECC_nrf52832_xxAA.a(uECC.c.obj)
 .text.uECC_vli_add.isra.0
                0x000332f4       0x4a external/micro-ecc/libuECC_nrf52832_xxAA.a(uECC.c.obj)
 .text.regularize_k
                0x0003333e       0x50 external/micro-ecc/libuECC_nrf52832_xxAA.a(uECC.c.obj)
 .text.uECC_vli_sub.isra.1
                0x0003338e       0x4e external/micro-ecc/libuECC_nrf52832_xxAA.a(uECC.c.obj)
 .text.uECC_vli_cmp
                0x000333dc       0x30 external/micro-ecc/libuECC_nrf52832_xxAA.a(uECC.c.obj)
 .text.uECC_generate_random_int
                0x0003340c       0x78 external/micro-ecc/libuECC_nrf52832_xxAA.a(uECC.c.obj)
 .text.uECC_vli_modAdd
                0x00033484       0x2e external/micro-ecc/libuECC_nrf52832_xxAA.a(uECC.c.obj)
 *fill*         0x000334b2        0x2 
 .text.vli_mmod_fast_secp256r1
                0x000334b4      0x194 external/micro-ecc/libuECC_nrf52832_xxAA.a(uECC.c.obj)
 .text.uECC_vli_modSub.isra.2
                0x00033648       0x1c external/micro-ecc/libuECC_nrf52832_xxAA.a(uECC.c.obj)
 .text.double_jacobian_default
                0x00033664      0x14a external/micro-ecc/libuECC_nrf52832_xxAA.a(uECC.c.obj)
 .text.x_side_default
                0x000337ae       0x5a external/micro-ecc/libuECC_nrf52832_xxAA.a(uECC.c.obj)
 .text.XYcZ_add
                0x00033808       0xbc external/micro-ecc/libuECC_nrf52832_xxAA.a(uECC.c.obj)
 .text.XYcZ_addC
                0x000338c4      0x10a external/micro-ecc/libuECC_nrf52832_xxAA.a(uECC.c.obj)
 .text.vli_modInv_update
                0x000339ce       0x36 external/micro-ecc/libuECC_nrf52832_xxAA.a(uECC.c.obj)
 .text.uECC_vli_modInv
                0x00033a04      0x102 external/micro-ecc/libuECC_nrf52832_xxAA.a(uECC.c.obj)
 .text.EccPoint_mult
                0x00033b06      0x19e external/micro-ecc/libuECC_nrf52832_xxAA.a(uECC.c.obj)
 .text.EccPoint_compute_public_key
                0x00033ca4       0x54 external/micro-ecc/libuECC_nrf52832_xxAA.a(uECC.c.obj)
 .text.uECC_secp256r1
                0x00033cf8        0x8 external/micro-ecc/libuECC_nrf52832_xxAA.a(uECC.c.obj)
                0x00033cf8                uECC_secp256r1
 .text.uECC_make_key
                0x00033d00       0x7e external/micro-ecc/libuECC_nrf52832_xxAA.a(uECC.c.obj)
                0x00033d00                uECC_make_key
 *fill*         0x00033d7e        0x2 
 .text.uECC_shared_secret
                0x00033d80       0xbc external/micro-ecc/libuECC_nrf52832_xxAA.a(uECC.c.obj)
                0x00033d80                uECC_shared_secret
 .text.uECC_valid_point
                0x00033e3c       0x86 external/micro-ecc/libuECC_nrf52832_xxAA.a(uECC.c.obj)
                0x00033e3c                uECC_valid_point
 .text.uECC_valid_public_key
                0x00033ec2       0x32 external/micro-ecc/libuECC_nrf52832_xxAA.a(uECC.c.obj)
                0x00033ec2                uECC_valid_public_key
 .text          0x00033ef4       0x30 c:/a/gcc_arm/6/bin/../lib/gcc/arm-none-eabi/6.3.1/thumb/v7e-m/fpv4-sp/hard\libgcc.a(_aeabi_uldivmod.o)
                0x00033ef4                __aeabi_uldivmod
 .text          0x00033f24      0x2dc c:/a/gcc_arm/6/bin/../lib/gcc/arm-none-eabi/6.3.1/thumb/v7e-m/fpv4-sp/hard\libgcc.a(_udivmoddi4.o)
                0x00033f24                __udivmoddi4
 .text          0x00034200        0x4 c:/a/gcc_arm/6/bin/../lib/gcc/arm-none-eabi/6.3.1/thumb/v7e-m/fpv4-sp/hard\libgcc.a(_dvmd_tls.o)
                0x00034200                __aeabi_idiv0
                0x00034200                __aeabi_ldiv0
 .text.exit     0x00034204       0x28 c:/a/gcc_arm/6/bin/../lib/gcc/arm-none-eabi/6.3.1/../../../../arm-none-eabi/lib/thumb/v7e-m/fpv4-sp/hard\libg_nano.a(lib_a-exit.o)
                0x00034204                exit
 .text.__libc_init_array
                0x0003422c       0x48 c:/a/gcc_arm/6/bin/../lib/gcc/arm-none-eabi/6.3.1/../../../../arm-none-eabi/lib/thumb/v7e-m/fpv4-sp/hard\libg_nano.a(lib_a-init.o)
                0x0003422c                __libc_init_array
 .text.malloc   0x00034274       0x10 c:/a/gcc_arm/6/bin/../lib/gcc/arm-none-eabi/6.3.1/../../../../arm-none-eabi/lib/thumb/v7e-m/fpv4-sp/hard\libg_nano.a(lib_a-malloc.o)
                0x00034274                malloc
 .text.free     0x00034284       0x10 c:/a/gcc_arm/6/bin/../lib/gcc/arm-none-eabi/6.3.1/../../../../arm-none-eabi/lib/thumb/v7e-m/fpv4-sp/hard\libg_nano.a(lib_a-malloc.o)
                0x00034284                free
 .text.memcmp   0x00034294       0x1e c:/a/gcc_arm/6/bin/../lib/gcc/arm-none-eabi/6.3.1/../../../../arm-none-eabi/lib/thumb/v7e-m/fpv4-sp/hard\libg_nano.a(lib_a-memcmp.o)
                0x00034294                memcmp
 .text.memcpy   0x000342b2       0x16 c:/a/gcc_arm/6/bin/../lib/gcc/arm-none-eabi/6.3.1/../../../../arm-none-eabi/lib/thumb/v7e-m/fpv4-sp/hard\libg_nano.a(lib_a-memcpy-stub.o)
                0x000342b2                memcpy
 .text.memset   0x000342c8       0x10 c:/a/gcc_arm/6/bin/../lib/gcc/arm-none-eabi/6.3.1/../../../../arm-none-eabi/lib/thumb/v7e-m/fpv4-sp/hard\libg_nano.a(lib_a-memset.o)
                0x000342c8                memset
 .text._free_r  0x000342d8       0x9c c:/a/gcc_arm/6/bin/../lib/gcc/arm-none-eabi/6.3.1/../../../../arm-none-eabi/lib/thumb/v7e-m/fpv4-sp/hard\libg_nano.a(lib_a-nano-freer.o)
                0x000342d8                _free_r
 .text._malloc_r
                0x00034374       0xbc c:/a/gcc_arm/6/bin/../lib/gcc/arm-none-eabi/6.3.1/../../../../arm-none-eabi/lib/thumb/v7e-m/fpv4-sp/hard\libg_nano.a(lib_a-nano-mallocr.o)
                0x00034374                _malloc_r
 .text._sbrk_r  0x00034430       0x20 c:/a/gcc_arm/6/bin/../lib/gcc/arm-none-eabi/6.3.1/../../../../arm-none-eabi/lib/thumb/v7e-m/fpv4-sp/hard\libg_nano.a(lib_a-sbrkr.o)
                0x00034430                _sbrk_r
 .text.strcpy   0x00034450       0x10 c:/a/gcc_arm/6/bin/../lib/gcc/arm-none-eabi/6.3.1/../../../../arm-none-eabi/lib/thumb/v7e-m/fpv4-sp/hard\libg_nano.a(lib_a-strcpy.o)
                0x00034450                strcpy
 .text          0x00034460       0x10 c:/a/gcc_arm/6/bin/../lib/gcc/arm-none-eabi/6.3.1/../../../../arm-none-eabi/lib/thumb/v7e-m/fpv4-sp/hard\libg_nano.a(lib_a-strlen.o)
                0x00034460                strlen
 .text.strrchr  0x00034470       0x26 c:/a/gcc_arm/6/bin/../lib/gcc/arm-none-eabi/6.3.1/../../../../arm-none-eabi/lib/thumb/v7e-m/fpv4-sp/hard\libg_nano.a(lib_a-strrchr.o)
                0x00034470                strrchr
 .text.__malloc_lock
                0x00034496        0x2 c:/a/gcc_arm/6/bin/../lib/gcc/arm-none-eabi/6.3.1/../../../../arm-none-eabi/lib/thumb/v7e-m/fpv4-sp/hard\libg_nano.a(lib_a-mlock.o)
                0x00034496                __malloc_lock
 .text.__malloc_unlock
                0x00034498        0x2 c:/a/gcc_arm/6/bin/../lib/gcc/arm-none-eabi/6.3.1/../../../../arm-none-eabi/lib/thumb/v7e-m/fpv4-sp/hard\libg_nano.a(lib_a-mlock.o)
                0x00034498                __malloc_unlock
 .text.strchr   0x0003449a       0x1c c:/a/gcc_arm/6/bin/../lib/gcc/arm-none-eabi/6.3.1/../../../../arm-none-eabi/lib/thumb/v7e-m/fpv4-sp/hard\libg_nano.a(lib_a-strchr.o)
                0x0003449a                strchr
 *fill*         0x000344b6        0x2 
 .text._sbrk    0x000344b8       0x1c c:/a/gcc_arm/6/bin/../lib/gcc/arm-none-eabi/6.3.1/../../../../arm-none-eabi/lib/thumb/v7e-m/fpv4-sp/hard\libnosys.a(sbrk.o)
                0x000344b8                _sbrk
 .text._exit    0x000344d4        0x4 c:/a/gcc_arm/6/bin/../lib/gcc/arm-none-eabi/6.3.1/../../../../arm-none-eabi/lib/thumb/v7e-m/fpv4-sp/hard\libnosys.a(_exit.o)
                0x000344d4                _exit
 *(.init)
 .init          0x000344d8        0x4 c:/a/gcc_arm/6/bin/../lib/gcc/arm-none-eabi/6.3.1/thumb/v7e-m/fpv4-sp/hard/crti.o
                0x000344d8                _init
 .init          0x000344dc        0x8 c:/a/gcc_arm/6/bin/../lib/gcc/arm-none-eabi/6.3.1/thumb/v7e-m/fpv4-sp/hard/crtn.o
 *(.fini)
 .fini          0x000344e4        0x4 c:/a/gcc_arm/6/bin/../lib/gcc/arm-none-eabi/6.3.1/thumb/v7e-m/fpv4-sp/hard/crti.o
                0x000344e4                _fini
 .fini          0x000344e8        0x8 c:/a/gcc_arm/6/bin/../lib/gcc/arm-none-eabi/6.3.1/thumb/v7e-m/fpv4-sp/hard/crtn.o
 *crtbegin.o(.ctors)
 *crtbegin?.o(.ctors)
 *(EXCLUDE_FILE(*crtend.o *crtend?.o) .ctors)
 *(SORT(.ctors.*))
 *(.ctors)
 *crtbegin.o(.dtors)
 *crtbegin?.o(.dtors)
 *(EXCLUDE_FILE(*crtend.o *crtend?.o) .dtors)
 *(SORT(.dtors.*))
 *(.dtors)
 *(.rodata*)
 .rodata        0x000344f0        0x4 examples/light_switch/client/CMakeFiles/light_switch_client_nrf52832_xxAA_s132_5.0.0.dir/src/main.c.obj
 .rodata.button_event_handler.str1.1
                0x000344f4       0x94 examples/light_switch/client/CMakeFiles/light_switch_client_nrf52832_xxAA_s132_5.0.0.dir/src/main.c.obj
 .rodata.health_event_cb.str1.1
                0x00034588       0x35 examples/light_switch/client/CMakeFiles/light_switch_client_nrf52832_xxAA_s132_5.0.0.dir/src/main.c.obj
 .rodata.m_appkey
                0x000345bd       0x10 examples/light_switch/client/CMakeFiles/light_switch_client_nrf52832_xxAA_s132_5.0.0.dir/src/main.c.obj
 .rodata.m_netkey
                0x000345cd       0x10 examples/light_switch/client/CMakeFiles/light_switch_client_nrf52832_xxAA_s132_5.0.0.dir/src/main.c.obj
 .rodata.main.str1.1
                0x000345dd       0x53 examples/light_switch/client/CMakeFiles/light_switch_client_nrf52832_xxAA_s132_5.0.0.dir/src/main.c.obj
 .rodata.provisioner_config_failed_cb.str1.1
                0x00034630       0x23 examples/light_switch/client/CMakeFiles/light_switch_client_nrf52832_xxAA_s132_5.0.0.dir/src/main.c.obj
 .rodata.provisioner_config_successful_cb.str1.1
                0x00034653       0x40 examples/light_switch/client/CMakeFiles/light_switch_client_nrf52832_xxAA_s132_5.0.0.dir/src/main.c.obj
 .rodata.provisioner_prov_complete_cb.str1.1
                0x00034693       0x2f examples/light_switch/client/CMakeFiles/light_switch_client_nrf52832_xxAA_s132_5.0.0.dir/src/main.c.obj
 .rodata        0x000346c2       0x2b examples/light_switch/client/CMakeFiles/light_switch_client_nrf52832_xxAA_s132_5.0.0.dir/src/provisioner.c.obj
 .rodata.config_client_event_cb.str1.1
                0x000346ed       0x19 examples/light_switch/client/CMakeFiles/light_switch_client_nrf52832_xxAA_s132_5.0.0.dir/src/provisioner.c.obj
 .rodata.do_config_step.str1.1
                0x00034706      0x139 examples/light_switch/client/CMakeFiles/light_switch_client_nrf52832_xxAA_s132_5.0.0.dir/src/provisioner.c.obj
 .rodata.prov_evt_handler.str1.1
                0x0003483f       0xea examples/light_switch/client/CMakeFiles/light_switch_client_nrf52832_xxAA_s132_5.0.0.dir/src/provisioner.c.obj
 .rodata.HardFault_Handler.str1.1
                0x00034929        0xe examples/light_switch/client/CMakeFiles/light_switch_client_nrf52832_xxAA_s132_5.0.0.dir/__/__/nrf_mesh_sdk.c.obj
 .rodata.app_error_handler.str1.1
                0x00034937       0x1d examples/light_switch/client/CMakeFiles/light_switch_client_nrf52832_xxAA_s132_5.0.0.dir/__/__/nrf_mesh_sdk.c.obj
 .rodata.mesh_assert_handler.str1.1
                0x00034954       0x34 examples/light_switch/client/CMakeFiles/light_switch_client_nrf52832_xxAA_s132_5.0.0.dir/__/__/nrf_mesh_sdk.c.obj
 .rodata.mesh_core_setup.str1.1
                0x00034988       0x47 examples/light_switch/client/CMakeFiles/light_switch_client_nrf52832_xxAA_s132_5.0.0.dir/__/__/nrf_mesh_sdk.c.obj
 .rodata.mesh_softdevice_enable.str1.1
                0x000349cf       0x65 examples/light_switch/client/CMakeFiles/light_switch_client_nrf52832_xxAA_s132_5.0.0.dir/__/__/nrf_mesh_sdk.c.obj
 .rodata.softdevice_assert_handler.str1.1
                0x00034a34       0x1d examples/light_switch/client/CMakeFiles/light_switch_client_nrf52832_xxAA_s132_5.0.0.dir/__/__/nrf_mesh_sdk.c.obj
 .rodata.m_buttons_list
                0x00034a51        0x4 examples/light_switch/client/CMakeFiles/light_switch_client_nrf52832_xxAA_s132_5.0.0.dir/__/__/common/src/simple_hal.c.obj
 *fill*         0x00034a55        0x3 
 .rodata.m_opcode_handlers
                0x00034a58        0x8 examples/light_switch/client/CMakeFiles/light_switch_client_nrf52832_xxAA_s132_5.0.0.dir/__/__/__/models/simple_on_off/src/simple_on_off_client.c.obj
 .rodata.m_config_message_lut
                0x00034a60       0x5a examples/light_switch/client/CMakeFiles/light_switch_client_nrf52832_xxAA_s132_5.0.0.dir/__/__/__/models/config/src/config_client.c.obj
 *fill*         0x00034aba        0x2 
 .rodata.m_opcode_handlers
                0x00034abc       0x78 examples/light_switch/client/CMakeFiles/light_switch_client_nrf52832_xxAA_s132_5.0.0.dir/__/__/__/models/config/src/config_client.c.obj
 .rodata.m_opcode_handlers
                0x00034b34       0x20 examples/light_switch/client/CMakeFiles/light_switch_client_nrf52832_xxAA_s132_5.0.0.dir/__/__/__/models/health/src/health_client.c.obj
 .rodata.mesh_evt_cb.str1.1
                0x00034b54       0x2f examples/light_switch/client/CMakeFiles/light_switch_client_nrf52832_xxAA_s132_5.0.0.dir/__/__/__/mesh/access/src/access.c.obj
 .rodata.multiply_de_bruijn_bit_position.9174
                0x00034b83       0x20 examples/light_switch/client/CMakeFiles/light_switch_client_nrf52832_xxAA_s132_5.0.0.dir/__/__/__/mesh/access/src/access.c.obj
 .rodata.packet_tx.str1.1
                0x00034ba3       0x13 examples/light_switch/client/CMakeFiles/light_switch_client_nrf52832_xxAA_s132_5.0.0.dir/__/__/__/mesh/access/src/access.c.obj
 *fill*         0x00034bb6        0x2 
 .rodata.m_flash_groups
                0x00034bb8       0xa8 examples/light_switch/client/CMakeFiles/light_switch_client_nrf52832_xxAA_s132_5.0.0.dir/__/__/__/mesh/access/src/device_state_manager.c.obj
 .rodata.m_prov_callbacks
                0x00034c60       0x10 examples/light_switch/client/CMakeFiles/light_switch_client_nrf52832_xxAA_s132_5.0.0.dir/__/__/__/mesh/prov/src/prov_provisioner.c.obj
 .rodata.pdu_sizes.10960
                0x00034c70        0xa examples/light_switch/client/CMakeFiles/light_switch_client_nrf52832_xxAA_s132_5.0.0.dir/__/__/__/mesh/prov/src/provisioning.c.obj
 .rodata.alphanumeric.11065
                0x00034c7a       0x25 examples/light_switch/client/CMakeFiles/light_switch_client_nrf52832_xxAA_s132_5.0.0.dir/__/__/__/mesh/prov/src/prov_utils.c.obj
 *fill*         0x00034c9f        0x1 
 .rodata.numeric_max.11059
                0x00034ca0       0x24 examples/light_switch/client/CMakeFiles/light_switch_client_nrf52832_xxAA_s132_5.0.0.dir/__/__/__/mesh/prov/src/prov_utils.c.obj
 .rodata.prov_utils_authentication_values_derive.str1.1
                0x00034cc4        0x5 examples/light_switch/client/CMakeFiles/light_switch_client_nrf52832_xxAA_s132_5.0.0.dir/__/__/__/mesh/prov/src/prov_utils.c.obj
 .rodata.prov_utils_derive_keys.str1.1
                0x00034cc9        0xf examples/light_switch/client/CMakeFiles/light_switch_client_nrf52832_xxAA_s132_5.0.0.dir/__/__/__/mesh/prov/src/prov_utils.c.obj
 .rodata.add_active_bearer.str1.1
                0x00034cd8       0x2c examples/light_switch/client/CMakeFiles/light_switch_client_nrf52832_xxAA_s132_5.0.0.dir/__/__/__/mesh/prov/src/prov_bearer_adv.c.obj
 .rodata.crctable.10818
                0x00034d04      0x100 examples/light_switch/client/CMakeFiles/light_switch_client_nrf52832_xxAA_s132_5.0.0.dir/__/__/__/mesh/prov/src/prov_bearer_adv.c.obj
 .rodata.interface.11048
                0x00034e04       0x14 examples/light_switch/client/CMakeFiles/light_switch_client_nrf52832_xxAA_s132_5.0.0.dir/__/__/__/mesh/prov/src/prov_bearer_adv.c.obj
 .rodata.prov_bearer_adv_packet_in.str1.1
                0x00034e18      0x26e examples/light_switch/client/CMakeFiles/light_switch_client_nrf52832_xxAA_s132_5.0.0.dir/__/__/__/mesh/prov/src/prov_bearer_adv.c.obj
 .rodata.tx_retry_cb.str1.1
                0x00035086       0x37 examples/light_switch/client/CMakeFiles/light_switch_client_nrf52832_xxAA_s132_5.0.0.dir/__/__/__/mesh/prov/src/prov_bearer_adv.c.obj
 .rodata.types_lookup.8979
                0x000350bd        0x4 mesh/core/libmesh_core_nrf52832_xxAA.a(nrf_mesh_utils.c.obj)
 .rodata.nrf_mesh_listen.str1.1
                0x000350c1       0x70 mesh/core/libmesh_core_nrf52832_xxAA.a(nrf_mesh.c.obj)
 *fill*         0x00035131        0x1 
 .rodata.CSWTCH.9
                0x00035132       0x10 mesh/core/libmesh_core_nrf52832_xxAA.a(hal.c.obj)
 .rodata        0x00035142       0x15 mesh/core/libmesh_core_nrf52832_xxAA.a(enc.c.obj)
 .rodata.network_packet_in.str1.1
                0x00035157       0x40 mesh/core/libmesh_core_nrf52832_xxAA.a(network.c.obj)
                                 0x48 (size before relaxing)
 .rodata.network_packet_send.str1.1
                0x00035197       0x49 mesh/core/libmesh_core_nrf52832_xxAA.a(network.c.obj)
 .rodata        0x000351e0        0x7 mesh/core/libmesh_core_nrf52832_xxAA.a(nrf_mesh_keygen.c.obj)
 .rodata.log_callback_rtt.str1.1
                0x000351e7       0x15 mesh/core/libmesh_core_nrf52832_xxAA.a(log.c.obj)
 .rodata.str1.1
                0x000351fc       0x11 mesh/core/libmesh_core_nrf52832_xxAA.a(log.c.obj)
 *fill*         0x0003520d        0x3 
 .rodata.INVALID_HEADER
                0x00035210        0x4 mesh/core/libmesh_core_nrf52832_xxAA.a(flash_manager.c.obj)
                0x00035210                INVALID_HEADER
 .rodata.PADDING_HEADER
                0x00035214        0x4 mesh/core/libmesh_core_nrf52832_xxAA.a(flash_manager.c.obj)
                0x00035214                PADDING_HEADER
 .rodata.SEAL_HEADER
                0x00035218        0x4 mesh/core/libmesh_core_nrf52832_xxAA.a(flash_manager.c.obj)
                0x00035218                SEAL_HEADER
 .rodata.process_action_queue.str1.1
                0x0003521c       0x21 mesh/core/libmesh_core_nrf52832_xxAA.a(flash_manager.c.obj)
                                 0x4f (size before relaxing)
 .rodata.beacon_packet_in.str1.1
                0x0003523d       0x51 mesh/core/libmesh_core_nrf52832_xxAA.a(beacon.c.obj)
                                 0x59 (size before relaxing)
 *fill*         0x0003528e        0x2 
 .rodata.cp_handler
                0x00035290        0x8 mesh/core/libmesh_core_nrf52832_xxAA.a(heartbeat.c.obj)
 .rodata.net_beacon_init.str1.1
                0x00035298        0x5 mesh/core/libmesh_core_nrf52832_xxAA.a(net_beacon.c.obj)
 *fill*         0x0003529d        0x3 
 .rodata.m_interface
                0x000352a0        0xc mesh/core/libmesh_core_nrf52832_xxAA.a(core_tx_adv.c.obj)
 .rodata.radio_mode_to_us_per_byte.9376
                0x000352ac        0x6 mesh/core/libmesh_core_nrf52832_xxAA.a(broadcast.c.obj)
 .rodata.channel_rf_offsets.8617
                0x000352b2       0x28 mesh/core/libmesh_core_nrf52832_xxAA.a(radio_config.c.obj)
 .rodata        0x000352da        0x3 mesh/core/libmesh_core_nrf52832_xxAA.a(scanner.c.obj)
 .rodata.sar_ctx_cancel.str1.1
                0x000352dd       0x18 mesh/core/libmesh_core_nrf52832_xxAA.a(transport.c.obj)
 .rodata.sar_ctx_tx_complete.str1.1
                0x000352f5       0x1d mesh/core/libmesh_core_nrf52832_xxAA.a(transport.c.obj)
                                 0x4b (size before relaxing)
 .rodata.test_transport_decrypt.str1.1
                0x00035312       0x13 mesh/core/libmesh_core_nrf52832_xxAA.a(transport.c.obj)
 .rodata.transport_packet_in.str1.1
                0x00035325       0x24 mesh/core/libmesh_core_nrf52832_xxAA.a(transport.c.obj)
 .rodata.upper_transport_access_packet_in.str1.1
                0x00035349       0x29 mesh/core/libmesh_core_nrf52832_xxAA.a(transport.c.obj)
 .rodata.upper_transport_packet_in.str1.1
                0x00035372       0x2e mesh/core/libmesh_core_nrf52832_xxAA.a(transport.c.obj)
 .rodata.upper_transport_tx.str1.1
                0x000353a0       0x2c mesh/core/libmesh_core_nrf52832_xxAA.a(transport.c.obj)
                                 0x34 (size before relaxing)
 .rodata.flash_manager_defrag.str1.1
                0x000353cc       0x28 mesh/core/libmesh_core_nrf52832_xxAA.a(flash_manager_defrag.c.obj)
                                 0x56 (size before relaxing)
 .rodata.m_procedure_steps
                0x000353f4       0x28 mesh/core/libmesh_core_nrf52832_xxAA.a(flash_manager_defrag.c.obj)
 .rodata.m_all_operations
                0x0003541c       0x10 mesh/core/libmesh_core_nrf52832_xxAA.a(mesh_flash.c.obj)
 .rodata.Rb.7348
                0x0003542c       0x10 mesh/core/libmesh_core_nrf52832_xxAA.a(aes_cmac.c.obj)
 .rodata._DoInit.str1.1
                0x0003543c       0x14 external/rtt/librtt_nrf52832_xxAA.a(SEGGER_RTT.c.obj)
 .rodata._aV2C.5497
                0x00035450       0x10 external/rtt/librtt_nrf52832_xxAA.a(SEGGER_RTT_printf.c.obj)
 .rodata.curve_secp256r1
                0x00035460       0xb0 external/micro-ecc/libuECC_nrf52832_xxAA.a(uECC.c.obj)
 .rodata._global_impure_ptr
                0x00035510        0x4 c:/a/gcc_arm/6/bin/../lib/gcc/arm-none-eabi/6.3.1/../../../../arm-none-eabi/lib/thumb/v7e-m/fpv4-sp/hard\libg_nano.a(lib_a-impure.o)
                0x00035510                _global_impure_ptr
 *(.eh_frame*)
 .eh_frame      0x00035514        0x0 c:/a/gcc_arm/6/bin/../lib/gcc/arm-none-eabi/6.3.1/thumb/v7e-m/fpv4-sp/hard/crtbegin.o
 .eh_frame      0x00035514        0x4 c:/a/gcc_arm/6/bin/../lib/gcc/arm-none-eabi/6.3.1/thumb/v7e-m/fpv4-sp/hard/crtend.o

.glue_7         0x00035518        0x0
 .glue_7        0x00035518        0x0 linker stubs

.glue_7t        0x00035518        0x0
 .glue_7t       0x00035518        0x0 linker stubs

.vfp11_veneer   0x00035518        0x0
 .vfp11_veneer  0x00035518        0x0 linker stubs

.v4_bx          0x00035518        0x0
 .v4_bx         0x00035518        0x0 linker stubs

.iplt           0x00035518        0x0
 .iplt          0x00035518        0x0 c:/a/gcc_arm/6/bin/../lib/gcc/arm-none-eabi/6.3.1/thumb/v7e-m/fpv4-sp/hard/crtbegin.o

.pwr_mgmt_data  0x00035518        0x0
                [!provide]                PROVIDE (__start_pwr_mgmt_data, .)
 *(SORT(.pwr_mgmt_data*))
                [!provide]                PROVIDE (__stop_pwr_mgmt_data, .)

.log_const_data
                0x00035518        0x0
                [!provide]                PROVIDE (__start_log_const_data, .)
 *(.log_const_data)
                [!provide]                PROVIDE (__stop_log_const_data, .)

.cli_command    0x00035518        0x0
                [!provide]                PROVIDE (__start_cli_command, .)
 *(.cli_command)
                [!provide]                PROVIDE (__stop_cli_command, .)

.sdh_stack_observers
                0x00035518        0x0
                [!provide]                PROVIDE (__start_sdh_stack_observers, .)
 *(SORT(.sdh_stack_observers*))
                [!provide]                PROVIDE (__stop_sdh_stack_observers, .)

.sdh_req_observers
                0x00035518        0x0
                [!provide]                PROVIDE (__start_sdh_req_observers, .)
 *(SORT(.sdh_req_observers*))
                [!provide]                PROVIDE (__stop_sdh_req_observers, .)

.sdh_state_observers
                0x00035518        0x0
                [!provide]                PROVIDE (__start_sdh_state_observers, .)
 *(SORT(.sdh_state_observers*))
                [!provide]                PROVIDE (__stop_sdh_state_observers, .)

.sdh_ant_observers
                0x00035518        0x0
                [!provide]                PROVIDE (__start_sdh_ant_observers, .)
 *(SORT(.sdh_ant_observers*))
                [!provide]                PROVIDE (__stop_sdh_ant_observers, .)

.sdh_ble_observers
                0x00035518        0x0
                [!provide]                PROVIDE (__start_sdh_ble_observers, .)
 *(SORT(.sdh_ble_observers*))
                [!provide]                PROVIDE (__stop_sdh_ble_observers, .)

.sdh_soc_observers
                0x00035518        0x0
                [!provide]                PROVIDE (__start_sdh_soc_observers, .)
 *(SORT(.sdh_soc_observers*))
                [!provide]                PROVIDE (__stop_sdh_soc_observers, .)

.ARM.extab
 *(.ARM.extab* .gnu.linkonce.armextab.*)
                0x00035518                __exidx_start = .

.ARM.exidx      0x00035518        0x8
 *(.ARM.exidx* .gnu.linkonce.armexidx.*)
 .ARM.exidx     0x00035518        0x8 c:/a/gcc_arm/6/bin/../lib/gcc/arm-none-eabi/6.3.1/../../../../arm-none-eabi/lib/thumb/v7e-m/fpv4-sp/hard/crt0.o
 .ARM.exidx     0x00035520        0x0 c:/a/gcc_arm/6/bin/../lib/gcc/arm-none-eabi/6.3.1/thumb/v7e-m/fpv4-sp/hard\libgcc.a(_udivmoddi4.o)
                                  0x8 (size before relaxing)
                0x00035520                __exidx_end = .
                0x00035520                __etext = .

.rel.dyn        0x00035520        0x0
 .rel.iplt      0x00035520        0x0 c:/a/gcc_arm/6/bin/../lib/gcc/arm-none-eabi/6.3.1/thumb/v7e-m/fpv4-sp/hard/crtbegin.o

.data           0x200031b0      0x11c load address 0x00035520
                0x200031b0                __data_start__ = .
 *(vtable)
 *(.data*)
 .data.flash_add_mem_available_struct.10246
                0x200031b0       0x10 examples/light_switch/client/CMakeFiles/light_switch_client_nrf52832_xxAA_s132_5.0.0.dir/__/__/__/mesh/access/src/access.c.obj
 .data.flash_clear_mem_available_struct.10335
                0x200031c0       0x10 examples/light_switch/client/CMakeFiles/light_switch_client_nrf52832_xxAA_s132_5.0.0.dir/__/__/__/mesh/access/src/access.c.obj
 .data.flash_store_mem_available_struct.10359
                0x200031d0       0x10 examples/light_switch/client/CMakeFiles/light_switch_client_nrf52832_xxAA_s132_5.0.0.dir/__/__/__/mesh/access/src/access.c.obj
 .data.m_default_ttl
                0x200031e0        0x1 examples/light_switch/client/CMakeFiles/light_switch_client_nrf52832_xxAA_s132_5.0.0.dir/__/__/__/mesh/access/src/access.c.obj
 *fill*         0x200031e1        0x3 
 .data.mem_listener.10554
                0x200031e4       0x10 examples/light_switch/client/CMakeFiles/light_switch_client_nrf52832_xxAA_s132_5.0.0.dir/__/__/__/mesh/access/src/device_state_manager.c.obj
 .data.mem_listener.10580
                0x200031f4       0x10 examples/light_switch/client/CMakeFiles/light_switch_client_nrf52832_xxAA_s132_5.0.0.dir/__/__/__/mesh/access/src/device_state_manager.c.obj
 .data.m_async_process_flag
                0x20003204        0x4 examples/light_switch/client/CMakeFiles/light_switch_client_nrf52832_xxAA_s132_5.0.0.dir/__/__/__/mesh/prov/src/prov_bearer_adv.c.obj
 .data.SystemCoreClock
                0x20003208        0x4 examples/light_switch/client/CMakeFiles/light_switch_client_nrf52832_xxAA_s132_5.0.0.dir/__/__/__/external/nRF5_SDK_14.2.0_17b948a/components/toolchain/system_nrf52.c.obj
                0x20003208                SystemCoreClock
 .data.mem_listener.9700
                0x2000320c       0x10 mesh/core/libmesh_core_nrf52832_xxAA.a(net_state.c.obj)
 .data.mem_listener.9705
                0x2000321c       0x10 mesh/core/libmesh_core_nrf52832_xxAA.a(net_state.c.obj)
 .data.mem_listener.9719
                0x2000322c       0x10 mesh/core/libmesh_core_nrf52832_xxAA.a(net_state.c.obj)
 .data.m_nrf_mesh_listener
                0x2000323c        0xc mesh/core/libmesh_core_nrf52832_xxAA.a(nrf_mesh.c.obj)
 .data.g_log_dbg_lvl
                0x20003248        0x4 mesh/core/libmesh_core_nrf52832_xxAA.a(log.c.obj)
                0x20003248                g_log_dbg_lvl
 .data.g_log_dbg_msk
                0x2000324c        0x4 mesh/core/libmesh_core_nrf52832_xxAA.a(log.c.obj)
                0x2000324c                g_log_dbg_msk
 .data.g_log_hex_digits
                0x20003250        0x4 mesh/core/libmesh_core_nrf52832_xxAA.a(log.c.obj)
                0x20003250                g_log_hex_digits
 .data.m_log_callback
                0x20003254        0x4 mesh/core/libmesh_core_nrf52832_xxAA.a(log.c.obj)
                0x20003254                m_log_callback
 .data.g_rng_function
                0x20003258        0x4 external/micro-ecc/libuECC_nrf52832_xxAA.a(uECC.c.obj)
 .data._impure_ptr
                0x2000325c        0x4 c:/a/gcc_arm/6/bin/../lib/gcc/arm-none-eabi/6.3.1/../../../../arm-none-eabi/lib/thumb/v7e-m/fpv4-sp/hard\libg_nano.a(lib_a-impure.o)
                0x2000325c                _impure_ptr
 .data.impure_data
                0x20003260       0x60 c:/a/gcc_arm/6/bin/../lib/gcc/arm-none-eabi/6.3.1/../../../../arm-none-eabi/lib/thumb/v7e-m/fpv4-sp/hard\libg_nano.a(lib_a-impure.o)
                0x200032c0                . = ALIGN (0x4)
                0x200032c0                PROVIDE (__preinit_array_start, .)
 *(.preinit_array)
                0x200032c0                PROVIDE (__preinit_array_end, .)
                0x200032c0                . = ALIGN (0x4)
                0x200032c0                PROVIDE (__init_array_start, .)
 *(SORT(.init_array.*))
 *(.init_array)
 .init_array    0x200032c0        0x4 c:/a/gcc_arm/6/bin/../lib/gcc/arm-none-eabi/6.3.1/thumb/v7e-m/fpv4-sp/hard/crtbegin.o
                0x200032c4                PROVIDE (__init_array_end, .)
                0x200032c4                . = ALIGN (0x4)
                [!provide]                PROVIDE (__fini_array_start, .)
 *(SORT(.fini_array.*))
 *(.fini_array)
 .fini_array    0x200032c4        0x4 c:/a/gcc_arm/6/bin/../lib/gcc/arm-none-eabi/6.3.1/thumb/v7e-m/fpv4-sp/hard/crtbegin.o
                [!provide]                PROVIDE (__fini_array_end, .)
 *(.jcr*)
 .jcr           0x200032c8        0x0 c:/a/gcc_arm/6/bin/../lib/gcc/arm-none-eabi/6.3.1/thumb/v7e-m/fpv4-sp/hard/crtbegin.o
 .jcr           0x200032c8        0x4 c:/a/gcc_arm/6/bin/../lib/gcc/arm-none-eabi/6.3.1/thumb/v7e-m/fpv4-sp/hard/crtend.o
                0x200032cc                . = ALIGN (0x4)
                0x200032cc                __data_end__ = .
LOAD c:/a/gcc_arm/6/bin/../lib/gcc/arm-none-eabi/6.3.1/thumb/v7e-m/fpv4-sp/hard/crti.o
LOAD c:/a/gcc_arm/6/bin/../lib/gcc/arm-none-eabi/6.3.1/thumb/v7e-m/fpv4-sp/hard/crtbegin.o
LOAD c:/a/gcc_arm/6/bin/../lib/gcc/arm-none-eabi/6.3.1/../../../../arm-none-eabi/lib/thumb/v7e-m/fpv4-sp/hard/crt0.o
LOAD examples/light_switch/client/CMakeFiles/light_switch_client_nrf52832_xxAA_s132_5.0.0.dir/src/main.c.obj
LOAD examples/light_switch/client/CMakeFiles/light_switch_client_nrf52832_xxAA_s132_5.0.0.dir/src/provisioner.c.obj
LOAD examples/light_switch/client/CMakeFiles/light_switch_client_nrf52832_xxAA_s132_5.0.0.dir/__/__/nrf_mesh_sdk.c.obj
LOAD examples/light_switch/client/CMakeFiles/light_switch_client_nrf52832_xxAA_s132_5.0.0.dir/__/__/common/src/rtt_input.c.obj
LOAD examples/light_switch/client/CMakeFiles/light_switch_client_nrf52832_xxAA_s132_5.0.0.dir/__/__/common/src/simple_hal.c.obj
LOAD examples/light_switch/client/CMakeFiles/light_switch_client_nrf52832_xxAA_s132_5.0.0.dir/__/__/nrf_mesh_weak.c.obj
LOAD examples/light_switch/client/CMakeFiles/light_switch_client_nrf52832_xxAA_s132_5.0.0.dir/__/__/__/models/simple_on_off/src/simple_on_off_client.c.obj
LOAD examples/light_switch/client/CMakeFiles/light_switch_client_nrf52832_xxAA_s132_5.0.0.dir/__/__/__/models/config/src/config_client.c.obj
LOAD examples/light_switch/client/CMakeFiles/light_switch_client_nrf52832_xxAA_s132_5.0.0.dir/__/__/__/models/health/src/health_client.c.obj
LOAD examples/light_switch/client/CMakeFiles/light_switch_client_nrf52832_xxAA_s132_5.0.0.dir/__/__/__/mesh/access/src/access_publish.c.obj
LOAD examples/light_switch/client/CMakeFiles/light_switch_client_nrf52832_xxAA_s132_5.0.0.dir/__/__/__/mesh/access/src/access.c.obj
LOAD examples/light_switch/client/CMakeFiles/light_switch_client_nrf52832_xxAA_s132_5.0.0.dir/__/__/__/mesh/access/src/access_reliable.c.obj
LOAD examples/light_switch/client/CMakeFiles/light_switch_client_nrf52832_xxAA_s132_5.0.0.dir/__/__/__/mesh/access/src/device_state_manager.c.obj
LOAD examples/light_switch/client/CMakeFiles/light_switch_client_nrf52832_xxAA_s132_5.0.0.dir/__/__/__/mesh/prov/src/prov_provisioner.c.obj
LOAD examples/light_switch/client/CMakeFiles/light_switch_client_nrf52832_xxAA_s132_5.0.0.dir/__/__/__/mesh/prov/src/nrf_mesh_prov.c.obj
LOAD examples/light_switch/client/CMakeFiles/light_switch_client_nrf52832_xxAA_s132_5.0.0.dir/__/__/__/mesh/prov/src/provisioning.c.obj
LOAD examples/light_switch/client/CMakeFiles/light_switch_client_nrf52832_xxAA_s132_5.0.0.dir/__/__/__/mesh/prov/src/prov_beacon.c.obj
LOAD examples/light_switch/client/CMakeFiles/light_switch_client_nrf52832_xxAA_s132_5.0.0.dir/__/__/__/mesh/prov/src/prov_utils.c.obj
LOAD examples/light_switch/client/CMakeFiles/light_switch_client_nrf52832_xxAA_s132_5.0.0.dir/__/__/__/mesh/prov/src/prov_bearer_adv.c.obj
LOAD examples/light_switch/client/CMakeFiles/light_switch_client_nrf52832_xxAA_s132_5.0.0.dir/__/__/__/external/nRF5_SDK_14.2.0_17b948a/components/toolchain/system_nrf52.c.obj
LOAD examples/light_switch/client/CMakeFiles/light_switch_client_nrf52832_xxAA_s132_5.0.0.dir/__/__/__/external/nRF5_SDK_14.2.0_17b948a/components/toolchain/gcc/gcc_startup_nrf52.S.obj
LOAD mesh/core/libmesh_core_nrf52832_xxAA.a
LOAD external/rtt/librtt_nrf52832_xxAA.a
LOAD external/micro-ecc/libuECC_nrf52832_xxAA.a
START GROUP
LOAD c:/a/gcc_arm/6/bin/../lib/gcc/arm-none-eabi/6.3.1/thumb/v7e-m/fpv4-sp/hard\libgcc.a
LOAD c:/a/gcc_arm/6/bin/../lib/gcc/arm-none-eabi/6.3.1/../../../../arm-none-eabi/lib/thumb/v7e-m/fpv4-sp/hard\libg_nano.a
LOAD c:/a/gcc_arm/6/bin/../lib/gcc/arm-none-eabi/6.3.1/../../../../arm-none-eabi/lib/thumb/v7e-m/fpv4-sp/hard\libc_nano.a
END GROUP
START GROUP
LOAD c:/a/gcc_arm/6/bin/../lib/gcc/arm-none-eabi/6.3.1/thumb/v7e-m/fpv4-sp/hard\libgcc.a
LOAD c:/a/gcc_arm/6/bin/../lib/gcc/arm-none-eabi/6.3.1/../../../../arm-none-eabi/lib/thumb/v7e-m/fpv4-sp/hard\libc_nano.a
END GROUP
LOAD c:/a/gcc_arm/6/bin/../lib/gcc/arm-none-eabi/6.3.1/thumb/v7e-m/fpv4-sp/hard/crtend.o
LOAD c:/a/gcc_arm/6/bin/../lib/gcc/arm-none-eabi/6.3.1/thumb/v7e-m/fpv4-sp/hard/crtn.o
START GROUP
LOAD c:/a/gcc_arm/6/bin/../lib/gcc/arm-none-eabi/6.3.1/thumb/v7e-m/fpv4-sp/hard\libgcc.a
LOAD c:/a/gcc_arm/6/bin/../lib/gcc/arm-none-eabi/6.3.1/../../../../arm-none-eabi/lib/thumb/v7e-m/fpv4-sp/hard\libc.a
LOAD c:/a/gcc_arm/6/bin/../lib/gcc/arm-none-eabi/6.3.1/../../../../arm-none-eabi/lib/thumb/v7e-m/fpv4-sp/hard\libnosys.a
END GROUP

.igot.plt       0x200032cc        0x0 load address 0x0003563c
 .igot.plt      0x200032cc        0x0 c:/a/gcc_arm/6/bin/../lib/gcc/arm-none-eabi/6.3.1/thumb/v7e-m/fpv4-sp/hard/crtbegin.o
                0x200032cc                . = ALIGN (0x4)

.svc_data       0x200032cc        0x0
                [!provide]                PROVIDE (__start_svc_data, .)
 *(.svc_data)
                [!provide]                PROVIDE (__stop_svc_data, .)

.fs_data        0x200032cc        0x0
                [!provide]                PROVIDE (__start_fs_data, .)
 *(.fs_data)
                [!provide]                PROVIDE (__stop_fs_data, .)

.log_dynamic_data
                0x200032cc        0x0
                [!provide]                PROVIDE (__start_log_dynamic_data, .)
 *(.log_dynamic_data)
                [!provide]                PROVIDE (__stop_log_dynamic_data, .)

.cli_sorted_cmd_ptrs
                0x200032cc        0x0
                [!provide]                PROVIDE (__start_cli_sorted_cmd_ptrs, .)
 *(.cli_sorted_cmd_ptrs)
                [!provide]                PROVIDE (__stop_cli_sorted_cmd_ptrs, .)

.bss            0x200032d0     0x30a0 load address 0x00035640
                0x200032d0                . = ALIGN (0x4)
                0x200032d0                __bss_start__ = .
 *(.bss*)
 .bss           0x200032d0       0x1c c:/a/gcc_arm/6/bin/../lib/gcc/arm-none-eabi/6.3.1/thumb/v7e-m/fpv4-sp/hard/crtbegin.o
 .bss.m_appkey_handle
                0x200032ec        0x2 examples/light_switch/client/CMakeFiles/light_switch_client_nrf52832_xxAA_s132_5.0.0.dir/src/main.c.obj
 *fill*         0x200032ee        0x2 
 .bss.m_clients
                0x200032f0       0x30 examples/light_switch/client/CMakeFiles/light_switch_client_nrf52832_xxAA_s132_5.0.0.dir/src/main.c.obj
 .bss.m_configured_devices
                0x20003320        0x2 examples/light_switch/client/CMakeFiles/light_switch_client_nrf52832_xxAA_s132_5.0.0.dir/src/main.c.obj
 .bss.m_devkey_handles
                0x20003322        0x6 examples/light_switch/client/CMakeFiles/light_switch_client_nrf52832_xxAA_s132_5.0.0.dir/src/main.c.obj
 .bss.m_group_handle
                0x20003328        0x2 examples/light_switch/client/CMakeFiles/light_switch_client_nrf52832_xxAA_s132_5.0.0.dir/src/main.c.obj
 *fill*         0x2000332a        0x2 
 .bss.m_health_client
                0x2000332c       0x10 examples/light_switch/client/CMakeFiles/light_switch_client_nrf52832_xxAA_s132_5.0.0.dir/src/main.c.obj
 .bss.m_netkey_handle
                0x2000333c        0x2 examples/light_switch/client/CMakeFiles/light_switch_client_nrf52832_xxAA_s132_5.0.0.dir/src/main.c.obj
 .bss.m_provisioned_devices
                0x2000333e        0x2 examples/light_switch/client/CMakeFiles/light_switch_client_nrf52832_xxAA_s132_5.0.0.dir/src/main.c.obj
 .bss.m_server_handles
                0x20003340        0x6 examples/light_switch/client/CMakeFiles/light_switch_client_nrf52832_xxAA_s132_5.0.0.dir/src/main.c.obj
 .bss.m_private_key
                0x20003346       0x20 examples/light_switch/client/CMakeFiles/light_switch_client_nrf52832_xxAA_s132_5.0.0.dir/src/provisioner.c.obj
 *fill*         0x20003366        0x2 
 .bss.m_prov_bearer_adv
                0x20003368      0x1c0 examples/light_switch/client/CMakeFiles/light_switch_client_nrf52832_xxAA_s132_5.0.0.dir/src/provisioner.c.obj
 .bss.m_prov_ctx
                0x20003528      0x130 examples/light_switch/client/CMakeFiles/light_switch_client_nrf52832_xxAA_s132_5.0.0.dir/src/provisioner.c.obj
 .bss.m_prov_state
                0x20003658        0x1 examples/light_switch/client/CMakeFiles/light_switch_client_nrf52832_xxAA_s132_5.0.0.dir/src/provisioner.c.obj
 .bss.m_public_key
                0x20003659       0x40 examples/light_switch/client/CMakeFiles/light_switch_client_nrf52832_xxAA_s132_5.0.0.dir/src/provisioner.c.obj
 *fill*         0x20003699        0x1 
 .bss.m_target_address
                0x2000369a        0x2 examples/light_switch/client/CMakeFiles/light_switch_client_nrf52832_xxAA_s132_5.0.0.dir/src/provisioner.c.obj
 .bss.m_ble_evt_buffer
                0x2000369c       0x4f examples/light_switch/client/CMakeFiles/light_switch_client_nrf52832_xxAA_s132_5.0.0.dir/__/__/nrf_mesh_sdk.c.obj
 *fill*         0x200036eb        0x1 
 .bss.m_rtt_input_handler
                0x200036ec        0x4 examples/light_switch/client/CMakeFiles/light_switch_client_nrf52832_xxAA_s132_5.0.0.dir/__/__/common/src/rtt_input.c.obj
 .bss.m_button_handler_cb
                0x200036f0        0x4 examples/light_switch/client/CMakeFiles/light_switch_client_nrf52832_xxAA_s132_5.0.0.dir/__/__/common/src/simple_hal.c.obj
 .bss.m_last_button_press
                0x200036f4        0x4 examples/light_switch/client/CMakeFiles/light_switch_client_nrf52832_xxAA_s132_5.0.0.dir/__/__/common/src/simple_hal.c.obj
 .bss.m_tid     0x200036f8        0x1 examples/light_switch/client/CMakeFiles/light_switch_client_nrf52832_xxAA_s132_5.0.0.dir/__/__/__/models/simple_on_off/src/simple_on_off_client.c.obj
 *fill*         0x200036f9        0x3 
 .bss.m_client  0x200036fc        0x8 examples/light_switch/client/CMakeFiles/light_switch_client_nrf52832_xxAA_s132_5.0.0.dir/__/__/__/models/config/src/config_client.c.obj
 .bss.mp_packet_buffer
                0x20003704        0x4 examples/light_switch/client/CMakeFiles/light_switch_client_nrf52832_xxAA_s132_5.0.0.dir/__/__/__/models/config/src/config_client.c.obj
 .bss.m_publish_timer
                0x20003708       0x18 examples/light_switch/client/CMakeFiles/light_switch_client_nrf52832_xxAA_s132_5.0.0.dir/__/__/__/mesh/access/src/access_publish.c.obj
 .bss.m_publish_timer_counter
                0x20003720        0x4 examples/light_switch/client/CMakeFiles/light_switch_client_nrf52832_xxAA_s132_5.0.0.dir/__/__/__/mesh/access/src/access_publish.c.obj
 .bss.m_publish_timer_running
                0x20003724        0x1 examples/light_switch/client/CMakeFiles/light_switch_client_nrf52832_xxAA_s132_5.0.0.dir/__/__/__/mesh/access/src/access_publish.c.obj
 .bss.m_timer_resolution
                0x20003725        0x1 examples/light_switch/client/CMakeFiles/light_switch_client_nrf52832_xxAA_s132_5.0.0.dir/__/__/__/mesh/access/src/access_publish.c.obj
 *fill*         0x20003726        0x2 
 .bss.mp_publication_list
                0x20003728        0x4 examples/light_switch/client/CMakeFiles/light_switch_client_nrf52832_xxAA_s132_5.0.0.dir/__/__/__/mesh/access/src/access_publish.c.obj
 .bss.m_element_pool
                0x2000372c       0x18 examples/light_switch/client/CMakeFiles/light_switch_client_nrf52832_xxAA_s132_5.0.0.dir/__/__/__/mesh/access/src/access.c.obj
 .bss.m_evt_handler
                0x20003744        0x8 examples/light_switch/client/CMakeFiles/light_switch_client_nrf52832_xxAA_s132_5.0.0.dir/__/__/__/mesh/access/src/access.c.obj
 .bss.m_flash_manager
                0x2000374c       0x24 examples/light_switch/client/CMakeFiles/light_switch_client_nrf52832_xxAA_s132_5.0.0.dir/__/__/__/mesh/access/src/access.c.obj
 .bss.m_flash_not_ready
                0x20003770        0x1 examples/light_switch/client/CMakeFiles/light_switch_client_nrf52832_xxAA_s132_5.0.0.dir/__/__/__/mesh/access/src/access.c.obj
 .bss.m_metadata_stored
                0x20003771        0x1 examples/light_switch/client/CMakeFiles/light_switch_client_nrf52832_xxAA_s132_5.0.0.dir/__/__/__/mesh/access/src/access.c.obj
 *fill*         0x20003772        0x2 
 .bss.m_model_pool
                0x20003774      0x138 examples/light_switch/client/CMakeFiles/light_switch_client_nrf52832_xxAA_s132_5.0.0.dir/__/__/__/mesh/access/src/access.c.obj
 .bss.m_subscription_list_pool
                0x200038ac       0x30 examples/light_switch/client/CMakeFiles/light_switch_client_nrf52832_xxAA_s132_5.0.0.dir/__/__/__/mesh/access/src/access.c.obj
 .bss.m_reliable
                0x200038dc      0x124 examples/light_switch/client/CMakeFiles/light_switch_client_nrf52832_xxAA_s132_5.0.0.dir/__/__/__/mesh/access/src/access_reliable.c.obj
 .bss.m_addr_nonvirtual_allocated
                0x20003a00        0x4 examples/light_switch/client/CMakeFiles/light_switch_client_nrf52832_xxAA_s132_5.0.0.dir/__/__/__/mesh/access/src/device_state_manager.c.obj
 .bss.m_addr_nonvirtual_needs_flashing
                0x20003a04        0x4 examples/light_switch/client/CMakeFiles/light_switch_client_nrf52832_xxAA_s132_5.0.0.dir/__/__/__/mesh/access/src/device_state_manager.c.obj
 .bss.m_addr_unicast_allocated
                0x20003a08        0x4 examples/light_switch/client/CMakeFiles/light_switch_client_nrf52832_xxAA_s132_5.0.0.dir/__/__/__/mesh/access/src/device_state_manager.c.obj
 .bss.m_addr_unicast_needs_flashing
                0x20003a0c        0x4 examples/light_switch/client/CMakeFiles/light_switch_client_nrf52832_xxAA_s132_5.0.0.dir/__/__/__/mesh/access/src/device_state_manager.c.obj
 .bss.m_addr_virtual_allocated
                0x20003a10        0x4 examples/light_switch/client/CMakeFiles/light_switch_client_nrf52832_xxAA_s132_5.0.0.dir/__/__/__/mesh/access/src/device_state_manager.c.obj
 .bss.m_addr_virtual_needs_flashing
                0x20003a14        0x4 examples/light_switch/client/CMakeFiles/light_switch_client_nrf52832_xxAA_s132_5.0.0.dir/__/__/__/mesh/access/src/device_state_manager.c.obj
 .bss.m_addresses
                0x20003a18       0x10 examples/light_switch/client/CMakeFiles/light_switch_client_nrf52832_xxAA_s132_5.0.0.dir/__/__/__/mesh/access/src/device_state_manager.c.obj
 .bss.m_appkey_allocated
                0x20003a28        0x4 examples/light_switch/client/CMakeFiles/light_switch_client_nrf52832_xxAA_s132_5.0.0.dir/__/__/__/mesh/access/src/device_state_manager.c.obj
 .bss.m_appkey_needs_flashing
                0x20003a2c        0x4 examples/light_switch/client/CMakeFiles/light_switch_client_nrf52832_xxAA_s132_5.0.0.dir/__/__/__/mesh/access/src/device_state_manager.c.obj
 .bss.m_appkeys
                0x20003a30       0x2a examples/light_switch/client/CMakeFiles/light_switch_client_nrf52832_xxAA_s132_5.0.0.dir/__/__/__/mesh/access/src/device_state_manager.c.obj
 *fill*         0x20003a5a        0x2 
 .bss.m_devkey_allocated
                0x20003a5c        0x4 examples/light_switch/client/CMakeFiles/light_switch_client_nrf52832_xxAA_s132_5.0.0.dir/__/__/__/mesh/access/src/device_state_manager.c.obj
 .bss.m_devkey_needs_flashing
                0x20003a60        0x4 examples/light_switch/client/CMakeFiles/light_switch_client_nrf52832_xxAA_s132_5.0.0.dir/__/__/__/mesh/access/src/device_state_manager.c.obj
 .bss.m_devkeys
                0x20003a64       0x42 examples/light_switch/client/CMakeFiles/light_switch_client_nrf52832_xxAA_s132_5.0.0.dir/__/__/__/mesh/access/src/device_state_manager.c.obj
 .bss.m_flash_is_available
                0x20003aa6        0x1 examples/light_switch/client/CMakeFiles/light_switch_client_nrf52832_xxAA_s132_5.0.0.dir/__/__/__/mesh/access/src/device_state_manager.c.obj
 *fill*         0x20003aa7        0x1 
 .bss.m_flash_manager
                0x20003aa8       0x24 examples/light_switch/client/CMakeFiles/light_switch_client_nrf52832_xxAA_s132_5.0.0.dir/__/__/__/mesh/access/src/device_state_manager.c.obj
 .bss.m_flash_mem_listener_update_all
                0x20003acc       0x10 examples/light_switch/client/CMakeFiles/light_switch_client_nrf52832_xxAA_s132_5.0.0.dir/__/__/__/mesh/access/src/device_state_manager.c.obj
 .bss.m_has_primary_subnet
                0x20003adc        0x1 examples/light_switch/client/CMakeFiles/light_switch_client_nrf52832_xxAA_s132_5.0.0.dir/__/__/__/mesh/access/src/device_state_manager.c.obj
 *fill*         0x20003add        0x1 
 .bss.m_local_unicast_addr
                0x20003ade        0x4 examples/light_switch/client/CMakeFiles/light_switch_client_nrf52832_xxAA_s132_5.0.0.dir/__/__/__/mesh/access/src/device_state_manager.c.obj
 *fill*         0x20003ae2        0x2 
 .bss.m_subnet_allocated
                0x20003ae4        0x4 examples/light_switch/client/CMakeFiles/light_switch_client_nrf52832_xxAA_s132_5.0.0.dir/__/__/__/mesh/access/src/device_state_manager.c.obj
 .bss.m_subnet_needs_flashing
                0x20003ae8        0x4 examples/light_switch/client/CMakeFiles/light_switch_client_nrf52832_xxAA_s132_5.0.0.dir/__/__/__/mesh/access/src/device_state_manager.c.obj
 .bss.m_subnets
                0x20003aec       0xac examples/light_switch/client/CMakeFiles/light_switch_client_nrf52832_xxAA_s132_5.0.0.dir/__/__/__/mesh/access/src/device_state_manager.c.obj
 .bss.m_virtual_addresses
                0x20003b98       0x14 examples/light_switch/client/CMakeFiles/light_switch_client_nrf52832_xxAA_s132_5.0.0.dir/__/__/__/mesh/access/src/device_state_manager.c.obj
 .bss.m_event_handler
                0x20003bac        0x4 examples/light_switch/client/CMakeFiles/light_switch_client_nrf52832_xxAA_s132_5.0.0.dir/__/__/__/mesh/prov/src/prov_beacon.c.obj
 .bss.m_offload_ecdh
                0x20003bb0        0x1 examples/light_switch/client/CMakeFiles/light_switch_client_nrf52832_xxAA_s132_5.0.0.dir/__/__/__/mesh/prov/src/prov_utils.c.obj
 *fill*         0x20003bb1        0x3 
 .bss.mp_bearer_head
                0x20003bb4        0x4 examples/light_switch/client/CMakeFiles/light_switch_client_nrf52832_xxAA_s132_5.0.0.dir/__/__/__/mesh/prov/src/prov_bearer_adv.c.obj
 .bss.m_uuid    0x20003bb8       0x10 mesh/core/libmesh_core_nrf52832_xxAA.a(nrf_mesh_configure.c.obj)
 .bss.mp_evt_handlers_head
                0x20003bc8        0x4 mesh/core/libmesh_core_nrf52832_xxAA.a(event.c.obj)
 .bss.m_pool    0x20003bcc     0x1000 mesh/core/libmesh_core_nrf52832_xxAA.a(packet_mgr.c.obj)
 .bss.mp_free_head
                0x20004bcc        0x4 mesh/core/libmesh_core_nrf52832_xxAA.a(packet_mgr.c.obj)
 .bss.lock_count.9759
                0x20004bd0        0x4 mesh/core/libmesh_core_nrf52832_xxAA.a(net_state.c.obj)
 .bss.m_flash_manager
                0x20004bd4       0x24 mesh/core/libmesh_core_nrf52832_xxAA.a(net_state.c.obj)
 .bss.m_iv_update_timer
                0x20004bf8       0x18 mesh/core/libmesh_core_nrf52832_xxAA.a(net_state.c.obj)
 .bss.m_net_state
                0x20004c10       0x14 mesh/core/libmesh_core_nrf52832_xxAA.a(net_state.c.obj)
 .bss.m_seqnum_allocation_in_progress
                0x20004c24        0x1 mesh/core/libmesh_core_nrf52832_xxAA.a(net_state.c.obj)
 .bss.m_test_mode
                0x20004c25        0x1 mesh/core/libmesh_core_nrf52832_xxAA.a(net_state.c.obj)
 .bss.m_is_enabled
                0x20004c26        0x1 mesh/core/libmesh_core_nrf52832_xxAA.a(nrf_mesh.c.obj)
 .bss.m_is_initialized
                0x20004c27        0x1 mesh/core/libmesh_core_nrf52832_xxAA.a(nrf_mesh.c.obj)
 .bss.m_rx_cb   0x20004c28        0x4 mesh/core/libmesh_core_nrf52832_xxAA.a(nrf_mesh.c.obj)
 .bss.m_event_flag
                0x20004c2c        0x4 mesh/core/libmesh_core_nrf52832_xxAA.a(timer_scheduler.c.obj)
 .bss.m_scheduler
                0x20004c30       0x10 mesh/core/libmesh_core_nrf52832_xxAA.a(timer_scheduler.c.obj)
 .bss.m_attributes
                0x20004c40        0x3 mesh/core/libmesh_core_nrf52832_xxAA.a(timer.c.obj)
 *fill*         0x20004c43        0x1 
 .bss.m_callbacks
                0x20004c44        0xc mesh/core/libmesh_core_nrf52832_xxAA.a(timer.c.obj)
 .bss.m_is_in_ts
                0x20004c50        0x1 mesh/core/libmesh_core_nrf52832_xxAA.a(timer.c.obj)
 *fill*         0x20004c51        0x3 
 .bss.m_reference_time
                0x20004c54        0x4 mesh/core/libmesh_core_nrf52832_xxAA.a(timer.c.obj)
 .bss.m_timeouts
                0x20004c58        0xc mesh/core/libmesh_core_nrf52832_xxAA.a(timer.c.obj)
 .bss.m_timer_mut
                0x20004c64        0x4 mesh/core/libmesh_core_nrf52832_xxAA.a(timer.c.obj)
 .bss.m_ts_end_time
                0x20004c68        0x4 mesh/core/libmesh_core_nrf52832_xxAA.a(timer.c.obj)
 .bss.mp_ppi_tasks
                0x20004c6c        0xc mesh/core/libmesh_core_nrf52832_xxAA.a(timer.c.obj)
 .bss.m_current_time
                0x20004c78        0x4 mesh/core/libmesh_core_nrf52832_xxAA.a(ticker.c.obj)
 .bss.m_timer   0x20004c7c       0x18 mesh/core/libmesh_core_nrf52832_xxAA.a(ticker.c.obj)
 .bss.m_current_timeslot
                0x20004c94       0x1c mesh/core/libmesh_core_nrf52832_xxAA.a(timeslot.c.obj)
 .bss.m_lfclk_ppm
                0x20004cb0        0x4 mesh/core/libmesh_core_nrf52832_xxAA.a(timeslot.c.obj)
 .bss.m_radio_request_earliest
                0x20004cb4       0x10 mesh/core/libmesh_core_nrf52832_xxAA.a(timeslot.c.obj)
 .bss.m_state_lock
                0x20004cc4        0x1 mesh/core/libmesh_core_nrf52832_xxAA.a(timeslot.c.obj)
 .bss.m_timeslot_forced_command
                0x20004cc5        0x1 mesh/core/libmesh_core_nrf52832_xxAA.a(timeslot.c.obj)
 *fill*         0x20004cc6        0x2 
 .bss.s_last_rtc_value.9223
                0x20004cc8        0x8 mesh/core/libmesh_core_nrf52832_xxAA.a(timeslot.c.obj)
 .bss.m_bearer_event_fifo
                0x20004cd0       0x14 mesh/core/libmesh_core_nrf52832_xxAA.a(bearer_event.c.obj)
 .bss.m_bearer_event_fifo_buffer
                0x20004ce4      0x100 mesh/core/libmesh_core_nrf52832_xxAA.a(bearer_event.c.obj)
 .bss.m_critical
                0x20004de4        0x4 mesh/core/libmesh_core_nrf52832_xxAA.a(bearer_event.c.obj)
 .bss.m_flag_count
                0x20004de8        0x4 mesh/core/libmesh_core_nrf52832_xxAA.a(bearer_event.c.obj)
 .bss.m_flag_event_callbacks
                0x20004dec       0x20 mesh/core/libmesh_core_nrf52832_xxAA.a(bearer_event.c.obj)
 .bss.m_flags   0x20004e0c        0x4 mesh/core/libmesh_core_nrf52832_xxAA.a(bearer_event.c.obj)
 .bss.m_irq_priority
                0x20004e10        0x1 mesh/core/libmesh_core_nrf52832_xxAA.a(bearer_event.c.obj)
 *fill*         0x20004e11        0x3 
 .bss.m_sequential_event_queue
                0x20004e14        0x8 mesh/core/libmesh_core_nrf52832_xxAA.a(bearer_event.c.obj)
 .bss.s_recursion_guard.9345
                0x20004e1c        0x1 mesh/core/libmesh_core_nrf52832_xxAA.a(bearer_event.c.obj)
 *fill*         0x20004e1d        0x3 
 .bss.m_relay_check_cb
                0x20004e20        0x4 mesh/core/libmesh_core_nrf52832_xxAA.a(network.c.obj)
 .bss.m_relay_enable
                0x20004e24        0x1 mesh/core/libmesh_core_nrf52832_xxAA.a(network.c.obj)
 *fill*         0x20004e25        0x3 
 .bss.m_action_queue
                0x20004e28        0xc mesh/core/libmesh_core_nrf52832_xxAA.a(flash_manager.c.obj)
 .bss.m_action_queue_buffer
                0x20004e34      0x104 mesh/core/libmesh_core_nrf52832_xxAA.a(flash_manager.c.obj)
 .bss.m_action_state
                0x20004f38        0x1 mesh/core/libmesh_core_nrf52832_xxAA.a(flash_manager.c.obj)
 *fill*         0x20004f39        0x3 
 .bss.m_memory_listener_queue
                0x20004f3c        0x8 mesh/core/libmesh_core_nrf52832_xxAA.a(flash_manager.c.obj)
 .bss.m_processing_flag
                0x20004f44        0x4 mesh/core/libmesh_core_nrf52832_xxAA.a(flash_manager.c.obj)
 .bss.m_queue_empty_cb
                0x20004f48        0x4 mesh/core/libmesh_core_nrf52832_xxAA.a(flash_manager.c.obj)
 .bss.m_state   0x20004f4c        0x1 mesh/core/libmesh_core_nrf52832_xxAA.a(flash_manager.c.obj)
 *fill*         0x20004f4d        0x1 
 .bss.m_token   0x20004f4e        0x2 mesh/core/libmesh_core_nrf52832_xxAA.a(flash_manager.c.obj)
 .bss.p_current.11073
                0x20004f50        0x4 mesh/core/libmesh_core_nrf52832_xxAA.a(flash_manager.c.obj)
 .bss.result.11074
                0x20004f54        0x1 mesh/core/libmesh_core_nrf52832_xxAA.a(flash_manager.c.obj)
 *fill*         0x20004f55        0x3 
 .bss.m_adv_buffer
                0x20004f58       0x68 mesh/core/libmesh_core_nrf52832_xxAA.a(beacon.c.obj)
 .bss.m_advertiser
                0x20004fc0       0x94 mesh/core/libmesh_core_nrf52832_xxAA.a(beacon.c.obj)
 .bss.m_bearers
                0x20005054        0x4 mesh/core/libmesh_core_nrf52832_xxAA.a(core_tx.c.obj)
 .bss.m_tx_complete_callback
                0x20005058        0x4 mesh/core/libmesh_core_nrf52832_xxAA.a(core_tx.c.obj)
 .bss.m_hb_core_evt_handler
                0x2000505c        0x8 mesh/core/libmesh_core_nrf52832_xxAA.a(heartbeat.c.obj)
 .bss.m_hb_pending_feat_msg
                0x20005064        0x1 mesh/core/libmesh_core_nrf52832_xxAA.a(heartbeat.c.obj)
 .bss.m_hb_pending_pub_msg
                0x20005065        0x1 mesh/core/libmesh_core_nrf52832_xxAA.a(heartbeat.c.obj)
 .bss.m_heartbeat_init_done
                0x20005066        0x1 mesh/core/libmesh_core_nrf52832_xxAA.a(heartbeat.c.obj)
 *fill*         0x20005067        0x1 
 .bss.m_heartbeat_subscription
                0x20005068       0x10 mesh/core/libmesh_core_nrf52832_xxAA.a(heartbeat.c.obj)
 .bss.m_publication_count_decrement_cb
                0x20005078        0x4 mesh/core/libmesh_core_nrf52832_xxAA.a(heartbeat.c.obj)
 .bss.m_publication_get_cb
                0x2000507c        0x4 mesh/core/libmesh_core_nrf52832_xxAA.a(heartbeat.c.obj)
 .bss.m_publication_timer
                0x20005080       0x1c mesh/core/libmesh_core_nrf52832_xxAA.a(heartbeat.c.obj)
 .bss.m_subscription_timer
                0x2000509c       0x18 mesh/core/libmesh_core_nrf52832_xxAA.a(heartbeat.c.obj)
 .bss.m_beacon_salt
                0x200050b4       0x10 mesh/core/libmesh_core_nrf52832_xxAA.a(net_beacon.c.obj)
 .bss.m_enabled
                0x200050c4        0x1 mesh/core/libmesh_core_nrf52832_xxAA.a(net_beacon.c.obj)
 *fill*         0x200050c5        0x3 
 .bss.m_tx_event
                0x200050c8       0x18 mesh/core/libmesh_core_nrf52832_xxAA.a(net_beacon.c.obj)
 .bss.m_adv_tx_count
                0x200050e0        0x8 mesh/core/libmesh_core_nrf52832_xxAA.a(core_tx_adv.c.obj)
 .bss.m_advertisers
                0x200050e8      0x128 mesh/core/libmesh_core_nrf52832_xxAA.a(core_tx_adv.c.obj)
 .bss.m_originator_adv_packet_buffer
                0x20005210      0x100 mesh/core/libmesh_core_nrf52832_xxAA.a(core_tx_adv.c.obj)
 .bss.m_relay_adv_packet_buffer
                0x20005310       0x80 mesh/core/libmesh_core_nrf52832_xxAA.a(core_tx_adv.c.obj)
 .bss.m_subscribers
                0x20005390        0x4 mesh/core/libmesh_core_nrf52832_xxAA.a(ad_listener.c.obj)
 .bss.m_adtype_filter
                0x20005394       0x38 mesh/core/libmesh_core_nrf52832_xxAA.a(ad_type_filter.c.obj)
 .bss.m_adv_prng
                0x200053cc       0x10 mesh/core/libmesh_core_nrf52832_xxAA.a(advertiser.c.obj)
 .bss.m_action_queue
                0x200053dc        0x8 mesh/core/libmesh_core_nrf52832_xxAA.a(bearer_handler.c.obj)
 .bss.m_end_time
                0x200053e4        0x4 mesh/core/libmesh_core_nrf52832_xxAA.a(bearer_handler.c.obj)
 .bss.m_scanner_is_active
                0x200053e8        0x1 mesh/core/libmesh_core_nrf52832_xxAA.a(bearer_handler.c.obj)
 .bss.m_stopped
                0x200053e9        0x1 mesh/core/libmesh_core_nrf52832_xxAA.a(bearer_handler.c.obj)
 *fill*         0x200053ea        0x2 
 .bss.mp_action
                0x200053ec        0x4 mesh/core/libmesh_core_nrf52832_xxAA.a(bearer_handler.c.obj)
 .bss.m_next_channel_index
                0x200053f0        0x1 mesh/core/libmesh_core_nrf52832_xxAA.a(broadcast.c.obj)
 *fill*         0x200053f1        0x3 
 .bss.m_accepted_amount
                0x200053f4        0x4 mesh/core/libmesh_core_nrf52832_xxAA.a(filter_engine.c.obj)
 .bss.m_filter_list_head
                0x200053f8        0x4 mesh/core/libmesh_core_nrf52832_xxAA.a(filter_engine.c.obj)
 .bss.m_scanner
                0x200053fc      0x28c mesh/core/libmesh_core_nrf52832_xxAA.a(scanner.c.obj)
 .bss.m_internal_event_fifo
                0x20005688       0x14 mesh/core/libmesh_core_nrf52832_xxAA.a(internal_event.c.obj)
 .bss.m_internal_event_initialized
                0x2000569c        0x1 mesh/core/libmesh_core_nrf52832_xxAA.a(internal_event.c.obj)
 *fill*         0x2000569d        0x3 
 .bss.m_report_cb
                0x200056a0        0x4 mesh/core/libmesh_core_nrf52832_xxAA.a(internal_event.c.obj)
 .bss.m_msg_cache
                0x200056a4      0x100 mesh/core/libmesh_core_nrf52832_xxAA.a(msg_cache.c.obj)
 .bss.m_msg_cache_head
                0x200057a4        0x4 mesh/core/libmesh_core_nrf52832_xxAA.a(msg_cache.c.obj)
 .bss.m_control_packet_consumer_count
                0x200057a8        0x4 mesh/core/libmesh_core_nrf52832_xxAA.a(transport.c.obj)
 .bss.m_control_packet_consumers
                0x200057ac        0x8 mesh/core/libmesh_core_nrf52832_xxAA.a(transport.c.obj)
 .bss.m_sar_alloc
                0x200057b4        0x4 mesh/core/libmesh_core_nrf52832_xxAA.a(transport.c.obj)
 .bss.m_sar_process_flag
                0x200057b8        0x4 mesh/core/libmesh_core_nrf52832_xxAA.a(transport.c.obj)
 .bss.m_sar_release
                0x200057bc        0x4 mesh/core/libmesh_core_nrf52832_xxAA.a(transport.c.obj)
 .bss.m_sar_session_cache
                0x200057c0       0x40 mesh/core/libmesh_core_nrf52832_xxAA.a(transport.c.obj)
 .bss.m_sar_session_cache_head
                0x20005800        0x4 mesh/core/libmesh_core_nrf52832_xxAA.a(transport.c.obj)
 .bss.m_trs_config
                0x20005804       0x18 mesh/core/libmesh_core_nrf52832_xxAA.a(transport.c.obj)
 .bss.m_trs_sar_sessions
                0x2000581c      0x1b0 mesh/core/libmesh_core_nrf52832_xxAA.a(transport.c.obj)
 .bss.m_defrag  0x200059cc       0x1c mesh/core/libmesh_core_nrf52832_xxAA.a(flash_manager_defrag.c.obj)
 .bss.m_token   0x200059e8        0x2 mesh/core/libmesh_core_nrf52832_xxAA.a(flash_manager_defrag.c.obj)
 *fill*         0x200059ea        0x2 
 .bss.mp_recovery_area
                0x200059ec        0x4 mesh/core/libmesh_core_nrf52832_xxAA.a(flash_manager_defrag.c.obj)
 .bss.p_null_ptr.10164
                0x200059f0        0x4 mesh/core/libmesh_core_nrf52832_xxAA.a(flash_manager_defrag.c.obj)
 .bss.m_event_flag
                0x200059f4        0x4 mesh/core/libmesh_core_nrf52832_xxAA.a(mesh_flash.c.obj)
 .bss.m_suspended
                0x200059f8        0x1 mesh/core/libmesh_core_nrf52832_xxAA.a(mesh_flash.c.obj)
 *fill*         0x200059f9        0x3 
 .bss.m_users   0x200059fc      0x228 mesh/core/libmesh_core_nrf52832_xxAA.a(mesh_flash.c.obj)
 .bss.m_128buf  0x20005c24       0x10 mesh/core/libmesh_core_nrf52832_xxAA.a(aes_cmac.c.obj)
 .bss.m_subkey1
                0x20005c34       0x10 mesh/core/libmesh_core_nrf52832_xxAA.a(aes_cmac.c.obj)
 .bss.m_subkey2
                0x20005c44       0x10 mesh/core/libmesh_core_nrf52832_xxAA.a(aes_cmac.c.obj)
 .bss.m_cache_full
                0x20005c54        0x1 mesh/core/libmesh_core_nrf52832_xxAA.a(replay_cache.c.obj)
 .bss.m_cache_index
                0x20005c55        0x1 mesh/core/libmesh_core_nrf52832_xxAA.a(replay_cache.c.obj)
 *fill*         0x20005c56        0x2 
 .bss.m_replay_cache
                0x20005c58      0x200 mesh/core/libmesh_core_nrf52832_xxAA.a(replay_cache.c.obj)
 .bss._acDownBuffer
                0x20005e58       0x80 external/rtt/librtt_nrf52832_xxAA.a(SEGGER_RTT.c.obj)
 .bss._acUpBuffer
                0x20005ed8      0x400 external/rtt/librtt_nrf52832_xxAA.a(SEGGER_RTT.c.obj)
 .bss.__malloc_free_list
                0x200062d8        0x4 c:/a/gcc_arm/6/bin/../lib/gcc/arm-none-eabi/6.3.1/../../../../arm-none-eabi/lib/thumb/v7e-m/fpv4-sp/hard\libg_nano.a(lib_a-nano-mallocr.o)
                0x200062d8                __malloc_free_list
 .bss.__malloc_sbrk_start
                0x200062dc        0x4 c:/a/gcc_arm/6/bin/../lib/gcc/arm-none-eabi/6.3.1/../../../../arm-none-eabi/lib/thumb/v7e-m/fpv4-sp/hard\libg_nano.a(lib_a-nano-mallocr.o)
                0x200062dc                __malloc_sbrk_start
 .bss.heap_end.5239
                0x200062e0        0x4 c:/a/gcc_arm/6/bin/../lib/gcc/arm-none-eabi/6.3.1/../../../../arm-none-eabi/lib/thumb/v7e-m/fpv4-sp/hard\libnosys.a(sbrk.o)
 *(COMMON)
 COMMON         0x200062e4        0xc examples/light_switch/client/CMakeFiles/light_switch_client_nrf52832_xxAA_s132_5.0.0.dir/__/__/nrf_mesh_sdk.c.obj
                0x200062e4                nrf_nvic_state
 COMMON         0x200062f0        0x4 mesh/core/libmesh_core_nrf52832_xxAA.a(nrf_mesh.c.obj)
                0x200062f0                m_assertion_handler
 COMMON         0x200062f4       0x78 external/rtt/librtt_nrf52832_xxAA.a(SEGGER_RTT.c.obj)
                0x200062f4                _SEGGER_RTT
 COMMON         0x2000636c        0x4 c:/a/gcc_arm/6/bin/../lib/gcc/arm-none-eabi/6.3.1/../../../../arm-none-eabi/lib/thumb/v7e-m/fpv4-sp/hard\libg_nano.a(lib_a-reent.o)
                0x2000636c                errno
                0x20006370                . = ALIGN (0x4)
                0x20006370                __bss_end__ = .

.heap           0x20006370     0x2000
                0x20006370                __HeapBase = .
                0x20006370                __end__ = .
                0x20006370                PROVIDE (end, .)
 *(.heap*)
 .heap          0x20006370     0x2000 examples/light_switch/client/CMakeFiles/light_switch_client_nrf52832_xxAA_s132_5.0.0.dir/__/__/__/external/nRF5_SDK_14.2.0_17b948a/components/toolchain/gcc/gcc_startup_nrf52.S.obj
                0x20008370                __HeapLimit = .

.stack_dummy    0x20006370     0x2000
 *(.stack*)
 .stack         0x20006370     0x2000 examples/light_switch/client/CMakeFiles/light_switch_client_nrf52832_xxAA_s132_5.0.0.dir/__/__/__/external/nRF5_SDK_14.2.0_17b948a/components/toolchain/gcc/gcc_startup_nrf52.S.obj
                0x2000fd00                __StackTop = (ORIGIN (RAM) + LENGTH (RAM))
                0x2000dd00                __StackLimit = (__StackTop - SIZEOF (.stack_dummy))
                0x2000fd00                PROVIDE (__stack, __StackTop)
                0x00000001                ASSERT ((__StackLimit >= __HeapLimit), region RAM overflowed with stack)
                0x00000120                DataInitFlashUsed = (__bss_start__ - __data_start__)
                0x00012520                CodeFlashUsed = (__etext - ORIGIN (FLASH))
                0x00012640                TotalFlashUsed = (CodeFlashUsed + DataInitFlashUsed)
                0x00000001                ASSERT ((TotalFlashUsed <= LENGTH (FLASH)), region FLASH overflowed with .data and user data)
OUTPUT(examples\light_switch\client\light_switch_client_nrf52832_xxAA_s132_5.0.0.elf elf32-littlearm)

.ARM.attributes
                0x00000000       0x30
 .ARM.attributes
                0x00000000       0x22 c:/a/gcc_arm/6/bin/../lib/gcc/arm-none-eabi/6.3.1/thumb/v7e-m/fpv4-sp/hard/crti.o
 .ARM.attributes
                0x00000022       0x34 c:/a/gcc_arm/6/bin/../lib/gcc/arm-none-eabi/6.3.1/thumb/v7e-m/fpv4-sp/hard/crtbegin.o
 .ARM.attributes
                0x00000056       0x20 c:/a/gcc_arm/6/bin/../lib/gcc/arm-none-eabi/6.3.1/../../../../arm-none-eabi/lib/thumb/v7e-m/fpv4-sp/hard/crt0.o
 .ARM.attributes
                0x00000076       0x39 examples/light_switch/client/CMakeFiles/light_switch_client_nrf52832_xxAA_s132_5.0.0.dir/src/main.c.obj
 .ARM.attributes
                0x000000af       0x39 examples/light_switch/client/CMakeFiles/light_switch_client_nrf52832_xxAA_s132_5.0.0.dir/src/provisioner.c.obj
 .ARM.attributes
                0x000000e8       0x39 examples/light_switch/client/CMakeFiles/light_switch_client_nrf52832_xxAA_s132_5.0.0.dir/__/__/nrf_mesh_sdk.c.obj
 .ARM.attributes
                0x00000121       0x39 examples/light_switch/client/CMakeFiles/light_switch_client_nrf52832_xxAA_s132_5.0.0.dir/__/__/common/src/rtt_input.c.obj
 .ARM.attributes
                0x0000015a       0x39 examples/light_switch/client/CMakeFiles/light_switch_client_nrf52832_xxAA_s132_5.0.0.dir/__/__/common/src/simple_hal.c.obj
 .ARM.attributes
                0x00000193       0x39 examples/light_switch/client/CMakeFiles/light_switch_client_nrf52832_xxAA_s132_5.0.0.dir/__/__/nrf_mesh_weak.c.obj
 .ARM.attributes
                0x000001cc       0x39 examples/light_switch/client/CMakeFiles/light_switch_client_nrf52832_xxAA_s132_5.0.0.dir/__/__/__/models/simple_on_off/src/simple_on_off_client.c.obj
 .ARM.attributes
                0x00000205       0x39 examples/light_switch/client/CMakeFiles/light_switch_client_nrf52832_xxAA_s132_5.0.0.dir/__/__/__/models/config/src/config_client.c.obj
 .ARM.attributes
                0x0000023e       0x39 examples/light_switch/client/CMakeFiles/light_switch_client_nrf52832_xxAA_s132_5.0.0.dir/__/__/__/models/health/src/health_client.c.obj
 .ARM.attributes
                0x00000277       0x39 examples/light_switch/client/CMakeFiles/light_switch_client_nrf52832_xxAA_s132_5.0.0.dir/__/__/__/mesh/access/src/access_publish.c.obj
 .ARM.attributes
                0x000002b0       0x39 examples/light_switch/client/CMakeFiles/light_switch_client_nrf52832_xxAA_s132_5.0.0.dir/__/__/__/mesh/access/src/access.c.obj
 .ARM.attributes
                0x000002e9       0x39 examples/light_switch/client/CMakeFiles/light_switch_client_nrf52832_xxAA_s132_5.0.0.dir/__/__/__/mesh/access/src/access_reliable.c.obj
 .ARM.attributes
                0x00000322       0x39 examples/light_switch/client/CMakeFiles/light_switch_client_nrf52832_xxAA_s132_5.0.0.dir/__/__/__/mesh/access/src/device_state_manager.c.obj
 .ARM.attributes
                0x0000035b       0x39 examples/light_switch/client/CMakeFiles/light_switch_client_nrf52832_xxAA_s132_5.0.0.dir/__/__/__/mesh/prov/src/prov_provisioner.c.obj
 .ARM.attributes
                0x00000394       0x39 examples/light_switch/client/CMakeFiles/light_switch_client_nrf52832_xxAA_s132_5.0.0.dir/__/__/__/mesh/prov/src/nrf_mesh_prov.c.obj
 .ARM.attributes
                0x000003cd       0x39 examples/light_switch/client/CMakeFiles/light_switch_client_nrf52832_xxAA_s132_5.0.0.dir/__/__/__/mesh/prov/src/provisioning.c.obj
 .ARM.attributes
                0x00000406       0x39 examples/light_switch/client/CMakeFiles/light_switch_client_nrf52832_xxAA_s132_5.0.0.dir/__/__/__/mesh/prov/src/prov_beacon.c.obj
 .ARM.attributes
                0x0000043f       0x39 examples/light_switch/client/CMakeFiles/light_switch_client_nrf52832_xxAA_s132_5.0.0.dir/__/__/__/mesh/prov/src/prov_utils.c.obj
 .ARM.attributes
                0x00000478       0x39 examples/light_switch/client/CMakeFiles/light_switch_client_nrf52832_xxAA_s132_5.0.0.dir/__/__/__/mesh/prov/src/prov_bearer_adv.c.obj
 .ARM.attributes
                0x000004b1       0x39 examples/light_switch/client/CMakeFiles/light_switch_client_nrf52832_xxAA_s132_5.0.0.dir/__/__/__/external/nRF5_SDK_14.2.0_17b948a/components/toolchain/system_nrf52.c.obj
 .ARM.attributes
                0x000004ea       0x20 examples/light_switch/client/CMakeFiles/light_switch_client_nrf52832_xxAA_s132_5.0.0.dir/__/__/__/external/nRF5_SDK_14.2.0_17b948a/components/toolchain/gcc/gcc_startup_nrf52.S.obj
 .ARM.attributes
                0x0000050a       0x39 mesh/core/libmesh_core_nrf52832_xxAA.a(nrf_mesh_configure.c.obj)
 .ARM.attributes
                0x00000543       0x39 mesh/core/libmesh_core_nrf52832_xxAA.a(event.c.obj)
 .ARM.attributes
                0x0000057c       0x39 mesh/core/libmesh_core_nrf52832_xxAA.a(packet_mgr.c.obj)
 .ARM.attributes
                0x000005b5       0x39 mesh/core/libmesh_core_nrf52832_xxAA.a(net_state.c.obj)
 .ARM.attributes
                0x000005ee       0x39 mesh/core/libmesh_core_nrf52832_xxAA.a(nrf_mesh_utils.c.obj)
 .ARM.attributes
                0x00000627       0x39 mesh/core/libmesh_core_nrf52832_xxAA.a(nrf_mesh.c.obj)
 .ARM.attributes
                0x00000660       0x39 mesh/core/libmesh_core_nrf52832_xxAA.a(hal.c.obj)
 .ARM.attributes
                0x00000699       0x39 mesh/core/libmesh_core_nrf52832_xxAA.a(timer_scheduler.c.obj)
 .ARM.attributes
                0x000006d2       0x39 mesh/core/libmesh_core_nrf52832_xxAA.a(timer.c.obj)
 .ARM.attributes
                0x0000070b       0x39 mesh/core/libmesh_core_nrf52832_xxAA.a(ticker.c.obj)
 .ARM.attributes
                0x00000744       0x39 mesh/core/libmesh_core_nrf52832_xxAA.a(rand.c.obj)
 .ARM.attributes
                0x0000077d       0x39 mesh/core/libmesh_core_nrf52832_xxAA.a(timeslot.c.obj)
 .ARM.attributes
                0x000007b6       0x39 mesh/core/libmesh_core_nrf52832_xxAA.a(bearer_event.c.obj)
 .ARM.attributes
                0x000007ef       0x39 mesh/core/libmesh_core_nrf52832_xxAA.a(enc.c.obj)
 .ARM.attributes
                0x00000828       0x39 mesh/core/libmesh_core_nrf52832_xxAA.a(network.c.obj)
 .ARM.attributes
                0x00000861       0x39 mesh/core/libmesh_core_nrf52832_xxAA.a(nrf_mesh_keygen.c.obj)
 .ARM.attributes
                0x0000089a       0x39 mesh/core/libmesh_core_nrf52832_xxAA.a(list.c.obj)
 .ARM.attributes
                0x000008d3       0x39 mesh/core/libmesh_core_nrf52832_xxAA.a(log.c.obj)
 .ARM.attributes
                0x0000090c       0x39 mesh/core/libmesh_core_nrf52832_xxAA.a(flash_manager.c.obj)
 .ARM.attributes
                0x00000945       0x39 mesh/core/libmesh_core_nrf52832_xxAA.a(ccm_soft.c.obj)
 .ARM.attributes
                0x0000097e       0x39 mesh/core/libmesh_core_nrf52832_xxAA.a(beacon.c.obj)
 .ARM.attributes
                0x000009b7       0x39 mesh/core/libmesh_core_nrf52832_xxAA.a(flash_manager_internal.c.obj)
 .ARM.attributes
                0x000009f0       0x39 mesh/core/libmesh_core_nrf52832_xxAA.a(core_tx.c.obj)
 .ARM.attributes
                0x00000a29       0x39 mesh/core/libmesh_core_nrf52832_xxAA.a(heartbeat.c.obj)
 .ARM.attributes
                0x00000a62       0x39 mesh/core/libmesh_core_nrf52832_xxAA.a(net_beacon.c.obj)
 .ARM.attributes
                0x00000a9b       0x39 mesh/core/libmesh_core_nrf52832_xxAA.a(core_tx_adv.c.obj)
 .ARM.attributes
                0x00000ad4       0x39 mesh/core/libmesh_core_nrf52832_xxAA.a(ad_listener.c.obj)
 .ARM.attributes
                0x00000b0d       0x39 mesh/core/libmesh_core_nrf52832_xxAA.a(ad_type_filter.c.obj)
 .ARM.attributes
                0x00000b46       0x39 mesh/core/libmesh_core_nrf52832_xxAA.a(advertiser.c.obj)
 .ARM.attributes
                0x00000b7f       0x39 mesh/core/libmesh_core_nrf52832_xxAA.a(bearer_handler.c.obj)
 .ARM.attributes
                0x00000bb8       0x39 mesh/core/libmesh_core_nrf52832_xxAA.a(broadcast.c.obj)
 .ARM.attributes
                0x00000bf1       0x39 mesh/core/libmesh_core_nrf52832_xxAA.a(filter_engine.c.obj)
 .ARM.attributes
                0x00000c2a       0x39 mesh/core/libmesh_core_nrf52832_xxAA.a(radio_config.c.obj)
 .ARM.attributes
                0x00000c63       0x39 mesh/core/libmesh_core_nrf52832_xxAA.a(scanner.c.obj)
 .ARM.attributes
                0x00000c9c       0x39 mesh/core/libmesh_core_nrf52832_xxAA.a(internal_event.c.obj)
 .ARM.attributes
                0x00000cd5       0x39 mesh/core/libmesh_core_nrf52832_xxAA.a(aes.c.obj)
 .ARM.attributes
                0x00000d0e       0x39 mesh/core/libmesh_core_nrf52832_xxAA.a(msg_cache.c.obj)
 .ARM.attributes
                0x00000d47       0x39 mesh/core/libmesh_core_nrf52832_xxAA.a(transport.c.obj)
 .ARM.attributes
                0x00000d80       0x39 mesh/core/libmesh_core_nrf52832_xxAA.a(packet_buffer.c.obj)
 .ARM.attributes
                0x00000db9       0x39 mesh/core/libmesh_core_nrf52832_xxAA.a(flash_manager_defrag.c.obj)
 .ARM.attributes
                0x00000df2       0x39 mesh/core/libmesh_core_nrf52832_xxAA.a(fifo.c.obj)
 .ARM.attributes
                0x00000e2b       0x39 mesh/core/libmesh_core_nrf52832_xxAA.a(mesh_flash.c.obj)
 .ARM.attributes
                0x00000e64       0x39 mesh/core/libmesh_core_nrf52832_xxAA.a(queue.c.obj)
 .ARM.attributes
                0x00000e9d       0x39 mesh/core/libmesh_core_nrf52832_xxAA.a(aes_cmac.c.obj)
 .ARM.attributes
                0x00000ed6       0x39 mesh/core/libmesh_core_nrf52832_xxAA.a(nrf_mesh_opt.c.obj)
 .ARM.attributes
                0x00000f0f       0x39 mesh/core/libmesh_core_nrf52832_xxAA.a(msqueue.c.obj)
 .ARM.attributes
                0x00000f48       0x39 mesh/core/libmesh_core_nrf52832_xxAA.a(replay_cache.c.obj)
 .ARM.attributes
                0x00000f81       0x39 mesh/core/libmesh_core_nrf52832_xxAA.a(nrf_flash.c.obj)
 .ARM.attributes
                0x00000fba       0x39 external/rtt/librtt_nrf52832_xxAA.a(SEGGER_RTT.c.obj)
 .ARM.attributes
                0x00000ff3       0x39 external/rtt/librtt_nrf52832_xxAA.a(SEGGER_RTT_printf.c.obj)
 .ARM.attributes
                0x0000102c       0x39 external/micro-ecc/libuECC_nrf52832_xxAA.a(uECC.c.obj)
 .ARM.attributes
                0x00001065       0x22 c:/a/gcc_arm/6/bin/../lib/gcc/arm-none-eabi/6.3.1/thumb/v7e-m/fpv4-sp/hard\libgcc.a(_aeabi_uldivmod.o)
 .ARM.attributes
                0x00001087       0x34 c:/a/gcc_arm/6/bin/../lib/gcc/arm-none-eabi/6.3.1/thumb/v7e-m/fpv4-sp/hard\libgcc.a(_udivmoddi4.o)
 .ARM.attributes
                0x000010bb       0x22 c:/a/gcc_arm/6/bin/../lib/gcc/arm-none-eabi/6.3.1/thumb/v7e-m/fpv4-sp/hard\libgcc.a(_dvmd_tls.o)
 .ARM.attributes
                0x000010dd       0x34 c:/a/gcc_arm/6/bin/../lib/gcc/arm-none-eabi/6.3.1/../../../../arm-none-eabi/lib/thumb/v7e-m/fpv4-sp/hard\libg_nano.a(lib_a-exit.o)
 .ARM.attributes
                0x00001111       0x34 c:/a/gcc_arm/6/bin/../lib/gcc/arm-none-eabi/6.3.1/../../../../arm-none-eabi/lib/thumb/v7e-m/fpv4-sp/hard\libg_nano.a(lib_a-impure.o)
 .ARM.attributes
                0x00001145       0x34 c:/a/gcc_arm/6/bin/../lib/gcc/arm-none-eabi/6.3.1/../../../../arm-none-eabi/lib/thumb/v7e-m/fpv4-sp/hard\libg_nano.a(lib_a-init.o)
 .ARM.attributes
                0x00001179       0x34 c:/a/gcc_arm/6/bin/../lib/gcc/arm-none-eabi/6.3.1/../../../../arm-none-eabi/lib/thumb/v7e-m/fpv4-sp/hard\libg_nano.a(lib_a-malloc.o)
 .ARM.attributes
                0x000011ad       0x34 c:/a/gcc_arm/6/bin/../lib/gcc/arm-none-eabi/6.3.1/../../../../arm-none-eabi/lib/thumb/v7e-m/fpv4-sp/hard\libg_nano.a(lib_a-memcmp.o)
 .ARM.attributes
                0x000011e1       0x34 c:/a/gcc_arm/6/bin/../lib/gcc/arm-none-eabi/6.3.1/../../../../arm-none-eabi/lib/thumb/v7e-m/fpv4-sp/hard\libg_nano.a(lib_a-memcpy-stub.o)
 .ARM.attributes
                0x00001215       0x34 c:/a/gcc_arm/6/bin/../lib/gcc/arm-none-eabi/6.3.1/../../../../arm-none-eabi/lib/thumb/v7e-m/fpv4-sp/hard\libg_nano.a(lib_a-memset.o)
 .ARM.attributes
                0x00001249       0x34 c:/a/gcc_arm/6/bin/../lib/gcc/arm-none-eabi/6.3.1/../../../../arm-none-eabi/lib/thumb/v7e-m/fpv4-sp/hard\libg_nano.a(lib_a-nano-freer.o)
 .ARM.attributes
                0x0000127d       0x34 c:/a/gcc_arm/6/bin/../lib/gcc/arm-none-eabi/6.3.1/../../../../arm-none-eabi/lib/thumb/v7e-m/fpv4-sp/hard\libg_nano.a(lib_a-nano-mallocr.o)
 .ARM.attributes
                0x000012b1       0x34 c:/a/gcc_arm/6/bin/../lib/gcc/arm-none-eabi/6.3.1/../../../../arm-none-eabi/lib/thumb/v7e-m/fpv4-sp/hard\libg_nano.a(lib_a-sbrkr.o)
 .ARM.attributes
                0x000012e5       0x34 c:/a/gcc_arm/6/bin/../lib/gcc/arm-none-eabi/6.3.1/../../../../arm-none-eabi/lib/thumb/v7e-m/fpv4-sp/hard\libg_nano.a(lib_a-strcpy.o)
 .ARM.attributes
                0x00001319       0x1b c:/a/gcc_arm/6/bin/../lib/gcc/arm-none-eabi/6.3.1/../../../../arm-none-eabi/lib/thumb/v7e-m/fpv4-sp/hard\libg_nano.a(lib_a-strlen.o)
 .ARM.attributes
                0x00001334       0x34 c:/a/gcc_arm/6/bin/../lib/gcc/arm-none-eabi/6.3.1/../../../../arm-none-eabi/lib/thumb/v7e-m/fpv4-sp/hard\libg_nano.a(lib_a-strrchr.o)
 .ARM.attributes
                0x00001368       0x34 c:/a/gcc_arm/6/bin/../lib/gcc/arm-none-eabi/6.3.1/../../../../arm-none-eabi/lib/thumb/v7e-m/fpv4-sp/hard\libg_nano.a(lib_a-mlock.o)
 .ARM.attributes
                0x0000139c       0x34 c:/a/gcc_arm/6/bin/../lib/gcc/arm-none-eabi/6.3.1/../../../../arm-none-eabi/lib/thumb/v7e-m/fpv4-sp/hard\libg_nano.a(lib_a-reent.o)
 .ARM.attributes
                0x000013d0       0x34 c:/a/gcc_arm/6/bin/../lib/gcc/arm-none-eabi/6.3.1/../../../../arm-none-eabi/lib/thumb/v7e-m/fpv4-sp/hard\libg_nano.a(lib_a-strchr.o)
 .ARM.attributes
                0x00001404       0x34 c:/a/gcc_arm/6/bin/../lib/gcc/arm-none-eabi/6.3.1/thumb/v7e-m/fpv4-sp/hard/crtend.o
 .ARM.attributes
                0x00001438       0x22 c:/a/gcc_arm/6/bin/../lib/gcc/arm-none-eabi/6.3.1/thumb/v7e-m/fpv4-sp/hard/crtn.o
 .ARM.attributes
                0x0000145a       0x34 c:/a/gcc_arm/6/bin/../lib/gcc/arm-none-eabi/6.3.1/../../../../arm-none-eabi/lib/thumb/v7e-m/fpv4-sp/hard\libnosys.a(sbrk.o)
 .ARM.attributes
                0x0000148e       0x34 c:/a/gcc_arm/6/bin/../lib/gcc/arm-none-eabi/6.3.1/../../../../arm-none-eabi/lib/thumb/v7e-m/fpv4-sp/hard\libnosys.a(_exit.o)

.comment        0x00000000       0x7f
 .comment       0x00000000       0x7f examples/light_switch/client/CMakeFiles/light_switch_client_nrf52832_xxAA_s132_5.0.0.dir/src/main.c.obj
                                 0x80 (size before relaxing)
 .comment       0x0000007f       0x80 examples/light_switch/client/CMakeFiles/light_switch_client_nrf52832_xxAA_s132_5.0.0.dir/src/provisioner.c.obj
 .comment       0x0000007f       0x80 examples/light_switch/client/CMakeFiles/light_switch_client_nrf52832_xxAA_s132_5.0.0.dir/__/__/nrf_mesh_sdk.c.obj
 .comment       0x0000007f       0x80 examples/light_switch/client/CMakeFiles/light_switch_client_nrf52832_xxAA_s132_5.0.0.dir/__/__/common/src/rtt_input.c.obj
 .comment       0x0000007f       0x80 examples/light_switch/client/CMakeFiles/light_switch_client_nrf52832_xxAA_s132_5.0.0.dir/__/__/common/src/simple_hal.c.obj
 .comment       0x0000007f       0x80 examples/light_switch/client/CMakeFiles/light_switch_client_nrf52832_xxAA_s132_5.0.0.dir/__/__/nrf_mesh_weak.c.obj
 .comment       0x0000007f       0x80 examples/light_switch/client/CMakeFiles/light_switch_client_nrf52832_xxAA_s132_5.0.0.dir/__/__/__/models/simple_on_off/src/simple_on_off_client.c.obj
 .comment       0x0000007f       0x80 examples/light_switch/client/CMakeFiles/light_switch_client_nrf52832_xxAA_s132_5.0.0.dir/__/__/__/models/config/src/config_client.c.obj
 .comment       0x0000007f       0x80 examples/light_switch/client/CMakeFiles/light_switch_client_nrf52832_xxAA_s132_5.0.0.dir/__/__/__/models/health/src/health_client.c.obj
 .comment       0x0000007f       0x80 examples/light_switch/client/CMakeFiles/light_switch_client_nrf52832_xxAA_s132_5.0.0.dir/__/__/__/mesh/access/src/access_publish.c.obj
 .comment       0x0000007f       0x80 examples/light_switch/client/CMakeFiles/light_switch_client_nrf52832_xxAA_s132_5.0.0.dir/__/__/__/mesh/access/src/access.c.obj
 .comment       0x0000007f       0x80 examples/light_switch/client/CMakeFiles/light_switch_client_nrf52832_xxAA_s132_5.0.0.dir/__/__/__/mesh/access/src/access_reliable.c.obj
 .comment       0x0000007f       0x80 examples/light_switch/client/CMakeFiles/light_switch_client_nrf52832_xxAA_s132_5.0.0.dir/__/__/__/mesh/access/src/device_state_manager.c.obj
 .comment       0x0000007f       0x80 examples/light_switch/client/CMakeFiles/light_switch_client_nrf52832_xxAA_s132_5.0.0.dir/__/__/__/mesh/prov/src/prov_provisioner.c.obj
 .comment       0x0000007f       0x80 examples/light_switch/client/CMakeFiles/light_switch_client_nrf52832_xxAA_s132_5.0.0.dir/__/__/__/mesh/prov/src/nrf_mesh_prov.c.obj
 .comment       0x0000007f       0x80 examples/light_switch/client/CMakeFiles/light_switch_client_nrf52832_xxAA_s132_5.0.0.dir/__/__/__/mesh/prov/src/provisioning.c.obj
 .comment       0x0000007f       0x80 examples/light_switch/client/CMakeFiles/light_switch_client_nrf52832_xxAA_s132_5.0.0.dir/__/__/__/mesh/prov/src/prov_beacon.c.obj
 .comment       0x0000007f       0x80 examples/light_switch/client/CMakeFiles/light_switch_client_nrf52832_xxAA_s132_5.0.0.dir/__/__/__/mesh/prov/src/prov_utils.c.obj
 .comment       0x0000007f       0x80 examples/light_switch/client/CMakeFiles/light_switch_client_nrf52832_xxAA_s132_5.0.0.dir/__/__/__/mesh/prov/src/prov_bearer_adv.c.obj
 .comment       0x0000007f       0x80 examples/light_switch/client/CMakeFiles/light_switch_client_nrf52832_xxAA_s132_5.0.0.dir/__/__/__/external/nRF5_SDK_14.2.0_17b948a/components/toolchain/system_nrf52.c.obj
 .comment       0x0000007f       0x80 mesh/core/libmesh_core_nrf52832_xxAA.a(nrf_mesh_configure.c.obj)
 .comment       0x0000007f       0x80 mesh/core/libmesh_core_nrf52832_xxAA.a(event.c.obj)
 .comment       0x0000007f       0x80 mesh/core/libmesh_core_nrf52832_xxAA.a(packet_mgr.c.obj)
 .comment       0x0000007f       0x80 mesh/core/libmesh_core_nrf52832_xxAA.a(net_state.c.obj)
 .comment       0x0000007f       0x80 mesh/core/libmesh_core_nrf52832_xxAA.a(nrf_mesh_utils.c.obj)
 .comment       0x0000007f       0x80 mesh/core/libmesh_core_nrf52832_xxAA.a(nrf_mesh.c.obj)
 .comment       0x0000007f       0x80 mesh/core/libmesh_core_nrf52832_xxAA.a(hal.c.obj)
 .comment       0x0000007f       0x80 mesh/core/libmesh_core_nrf52832_xxAA.a(timer_scheduler.c.obj)
 .comment       0x0000007f       0x80 mesh/core/libmesh_core_nrf52832_xxAA.a(timer.c.obj)
 .comment       0x0000007f       0x80 mesh/core/libmesh_core_nrf52832_xxAA.a(ticker.c.obj)
 .comment       0x0000007f       0x80 mesh/core/libmesh_core_nrf52832_xxAA.a(rand.c.obj)
 .comment       0x0000007f       0x80 mesh/core/libmesh_core_nrf52832_xxAA.a(timeslot.c.obj)
 .comment       0x0000007f       0x80 mesh/core/libmesh_core_nrf52832_xxAA.a(bearer_event.c.obj)
 .comment       0x0000007f       0x80 mesh/core/libmesh_core_nrf52832_xxAA.a(enc.c.obj)
 .comment       0x0000007f       0x80 mesh/core/libmesh_core_nrf52832_xxAA.a(network.c.obj)
 .comment       0x0000007f       0x80 mesh/core/libmesh_core_nrf52832_xxAA.a(nrf_mesh_keygen.c.obj)
 .comment       0x0000007f       0x80 mesh/core/libmesh_core_nrf52832_xxAA.a(list.c.obj)
 .comment       0x0000007f       0x80 mesh/core/libmesh_core_nrf52832_xxAA.a(log.c.obj)
 .comment       0x0000007f       0x80 mesh/core/libmesh_core_nrf52832_xxAA.a(flash_manager.c.obj)
 .comment       0x0000007f       0x80 mesh/core/libmesh_core_nrf52832_xxAA.a(ccm_soft.c.obj)
 .comment       0x0000007f       0x80 mesh/core/libmesh_core_nrf52832_xxAA.a(beacon.c.obj)
 .comment       0x0000007f       0x80 mesh/core/libmesh_core_nrf52832_xxAA.a(flash_manager_internal.c.obj)
 .comment       0x0000007f       0x80 mesh/core/libmesh_core_nrf52832_xxAA.a(core_tx.c.obj)
 .comment       0x0000007f       0x80 mesh/core/libmesh_core_nrf52832_xxAA.a(heartbeat.c.obj)
 .comment       0x0000007f       0x80 mesh/core/libmesh_core_nrf52832_xxAA.a(net_beacon.c.obj)
 .comment       0x0000007f       0x80 mesh/core/libmesh_core_nrf52832_xxAA.a(core_tx_adv.c.obj)
 .comment       0x0000007f       0x80 mesh/core/libmesh_core_nrf52832_xxAA.a(ad_listener.c.obj)
 .comment       0x0000007f       0x80 mesh/core/libmesh_core_nrf52832_xxAA.a(ad_type_filter.c.obj)
 .comment       0x0000007f       0x80 mesh/core/libmesh_core_nrf52832_xxAA.a(advertiser.c.obj)
 .comment       0x0000007f       0x80 mesh/core/libmesh_core_nrf52832_xxAA.a(bearer_handler.c.obj)
 .comment       0x0000007f       0x80 mesh/core/libmesh_core_nrf52832_xxAA.a(broadcast.c.obj)
 .comment       0x0000007f       0x80 mesh/core/libmesh_core_nrf52832_xxAA.a(filter_engine.c.obj)
 .comment       0x0000007f       0x80 mesh/core/libmesh_core_nrf52832_xxAA.a(radio_config.c.obj)
 .comment       0x0000007f       0x80 mesh/core/libmesh_core_nrf52832_xxAA.a(scanner.c.obj)
 .comment       0x0000007f       0x80 mesh/core/libmesh_core_nrf52832_xxAA.a(internal_event.c.obj)
 .comment       0x0000007f       0x80 mesh/core/libmesh_core_nrf52832_xxAA.a(aes.c.obj)
 .comment       0x0000007f       0x80 mesh/core/libmesh_core_nrf52832_xxAA.a(msg_cache.c.obj)
 .comment       0x0000007f       0x80 mesh/core/libmesh_core_nrf52832_xxAA.a(transport.c.obj)
 .comment       0x0000007f       0x80 mesh/core/libmesh_core_nrf52832_xxAA.a(packet_buffer.c.obj)
 .comment       0x0000007f       0x80 mesh/core/libmesh_core_nrf52832_xxAA.a(flash_manager_defrag.c.obj)
 .comment       0x0000007f       0x80 mesh/core/libmesh_core_nrf52832_xxAA.a(fifo.c.obj)
 .comment       0x0000007f       0x80 mesh/core/libmesh_core_nrf52832_xxAA.a(mesh_flash.c.obj)
 .comment       0x0000007f       0x80 mesh/core/libmesh_core_nrf52832_xxAA.a(queue.c.obj)
 .comment       0x0000007f       0x80 mesh/core/libmesh_core_nrf52832_xxAA.a(aes_cmac.c.obj)
 .comment       0x0000007f       0x80 mesh/core/libmesh_core_nrf52832_xxAA.a(nrf_mesh_opt.c.obj)
 .comment       0x0000007f       0x80 mesh/core/libmesh_core_nrf52832_xxAA.a(msqueue.c.obj)
 .comment       0x0000007f       0x80 mesh/core/libmesh_core_nrf52832_xxAA.a(replay_cache.c.obj)
 .comment       0x0000007f       0x80 mesh/core/libmesh_core_nrf52832_xxAA.a(nrf_flash.c.obj)
 .comment       0x0000007f       0x80 external/rtt/librtt_nrf52832_xxAA.a(SEGGER_RTT.c.obj)
 .comment       0x0000007f       0x80 external/rtt/librtt_nrf52832_xxAA.a(SEGGER_RTT_printf.c.obj)
 .comment       0x0000007f       0x80 external/micro-ecc/libuECC_nrf52832_xxAA.a(uECC.c.obj)

.debug_info     0x00000000    0x7379c
 .debug_info    0x00000000     0x347d examples/light_switch/client/CMakeFiles/light_switch_client_nrf52832_xxAA_s132_5.0.0.dir/src/main.c.obj
 .debug_info    0x0000347d     0x3b69 examples/light_switch/client/CMakeFiles/light_switch_client_nrf52832_xxAA_s132_5.0.0.dir/src/provisioner.c.obj
 .debug_info    0x00006fe6     0x344f examples/light_switch/client/CMakeFiles/light_switch_client_nrf52832_xxAA_s132_5.0.0.dir/__/__/nrf_mesh_sdk.c.obj
 .debug_info    0x0000a435     0x116f examples/light_switch/client/CMakeFiles/light_switch_client_nrf52832_xxAA_s132_5.0.0.dir/__/__/common/src/rtt_input.c.obj
 .debug_info    0x0000b5a4     0x1477 examples/light_switch/client/CMakeFiles/light_switch_client_nrf52832_xxAA_s132_5.0.0.dir/__/__/common/src/simple_hal.c.obj
 .debug_info    0x0000ca1b      0x94b examples/light_switch/client/CMakeFiles/light_switch_client_nrf52832_xxAA_s132_5.0.0.dir/__/__/nrf_mesh_weak.c.obj
 .debug_info    0x0000d366     0x137a examples/light_switch/client/CMakeFiles/light_switch_client_nrf52832_xxAA_s132_5.0.0.dir/__/__/__/models/simple_on_off/src/simple_on_off_client.c.obj
 .debug_info    0x0000e6e0     0x3e06 examples/light_switch/client/CMakeFiles/light_switch_client_nrf52832_xxAA_s132_5.0.0.dir/__/__/__/models/config/src/config_client.c.obj
 .debug_info    0x000124e6     0x1a26 examples/light_switch/client/CMakeFiles/light_switch_client_nrf52832_xxAA_s132_5.0.0.dir/__/__/__/models/health/src/health_client.c.obj
 .debug_info    0x00013f0c     0x112b examples/light_switch/client/CMakeFiles/light_switch_client_nrf52832_xxAA_s132_5.0.0.dir/__/__/__/mesh/access/src/access_publish.c.obj
 .debug_info    0x00015037     0x4413 examples/light_switch/client/CMakeFiles/light_switch_client_nrf52832_xxAA_s132_5.0.0.dir/__/__/__/mesh/access/src/access.c.obj
 .debug_info    0x0001944a     0x1540 examples/light_switch/client/CMakeFiles/light_switch_client_nrf52832_xxAA_s132_5.0.0.dir/__/__/__/mesh/access/src/access_reliable.c.obj
 .debug_info    0x0001a98a     0x5f01 examples/light_switch/client/CMakeFiles/light_switch_client_nrf52832_xxAA_s132_5.0.0.dir/__/__/__/mesh/access/src/device_state_manager.c.obj
 .debug_info    0x0002088b     0x2348 examples/light_switch/client/CMakeFiles/light_switch_client_nrf52832_xxAA_s132_5.0.0.dir/__/__/__/mesh/prov/src/prov_provisioner.c.obj
 .debug_info    0x00022bd3     0x1be9 examples/light_switch/client/CMakeFiles/light_switch_client_nrf52832_xxAA_s132_5.0.0.dir/__/__/__/mesh/prov/src/nrf_mesh_prov.c.obj
 .debug_info    0x000247bc     0x1588 examples/light_switch/client/CMakeFiles/light_switch_client_nrf52832_xxAA_s132_5.0.0.dir/__/__/__/mesh/prov/src/provisioning.c.obj
 .debug_info    0x00025d44     0x19a2 examples/light_switch/client/CMakeFiles/light_switch_client_nrf52832_xxAA_s132_5.0.0.dir/__/__/__/mesh/prov/src/prov_beacon.c.obj
 .debug_info    0x000276e6     0x2029 examples/light_switch/client/CMakeFiles/light_switch_client_nrf52832_xxAA_s132_5.0.0.dir/__/__/__/mesh/prov/src/prov_utils.c.obj
 .debug_info    0x0002970f     0x3963 examples/light_switch/client/CMakeFiles/light_switch_client_nrf52832_xxAA_s132_5.0.0.dir/__/__/__/mesh/prov/src/prov_bearer_adv.c.obj
 .debug_info    0x0002d072     0x10da examples/light_switch/client/CMakeFiles/light_switch_client_nrf52832_xxAA_s132_5.0.0.dir/__/__/__/external/nRF5_SDK_14.2.0_17b948a/components/toolchain/system_nrf52.c.obj
 .debug_info    0x0002e14c      0xd04 mesh/core/libmesh_core_nrf52832_xxAA.a(nrf_mesh_configure.c.obj)
 .debug_info    0x0002ee50     0x1509 mesh/core/libmesh_core_nrf52832_xxAA.a(event.c.obj)
 .debug_info    0x00030359     0x115c mesh/core/libmesh_core_nrf52832_xxAA.a(packet_mgr.c.obj)
 .debug_info    0x000314b5     0x23d7 mesh/core/libmesh_core_nrf52832_xxAA.a(net_state.c.obj)
 .debug_info    0x0003388c      0xa87 mesh/core/libmesh_core_nrf52832_xxAA.a(nrf_mesh_utils.c.obj)
 .debug_info    0x00034313     0x36ca mesh/core/libmesh_core_nrf52832_xxAA.a(nrf_mesh.c.obj)
 .debug_info    0x000379dd      0x570 mesh/core/libmesh_core_nrf52832_xxAA.a(hal.c.obj)
 .debug_info    0x00037f4d     0x102a mesh/core/libmesh_core_nrf52832_xxAA.a(timer_scheduler.c.obj)
 .debug_info    0x00038f77      0xd79 mesh/core/libmesh_core_nrf52832_xxAA.a(timer.c.obj)
 .debug_info    0x00039cf0      0x20b mesh/core/libmesh_core_nrf52832_xxAA.a(ticker.c.obj)
 .debug_info    0x00039efb      0x40f mesh/core/libmesh_core_nrf52832_xxAA.a(rand.c.obj)
 .debug_info    0x0003a30a     0x1a0a mesh/core/libmesh_core_nrf52832_xxAA.a(timeslot.c.obj)
 .debug_info    0x0003bd14     0x19d7 mesh/core/libmesh_core_nrf52832_xxAA.a(bearer_event.c.obj)
 .debug_info    0x0003d6eb     0x164f mesh/core/libmesh_core_nrf52832_xxAA.a(enc.c.obj)
 .debug_info    0x0003ed3a     0x2aef mesh/core/libmesh_core_nrf52832_xxAA.a(network.c.obj)
 .debug_info    0x00041829      0x4c8 mesh/core/libmesh_core_nrf52832_xxAA.a(nrf_mesh_keygen.c.obj)
 .debug_info    0x00041cf1      0x48b mesh/core/libmesh_core_nrf52832_xxAA.a(list.c.obj)
 .debug_info    0x0004217c      0xe28 mesh/core/libmesh_core_nrf52832_xxAA.a(log.c.obj)
 .debug_info    0x00042fa4     0x320c mesh/core/libmesh_core_nrf52832_xxAA.a(flash_manager.c.obj)
 .debug_info    0x000461b0     0x10a3 mesh/core/libmesh_core_nrf52832_xxAA.a(ccm_soft.c.obj)
 .debug_info    0x00047253     0x193b mesh/core/libmesh_core_nrf52832_xxAA.a(beacon.c.obj)
 .debug_info    0x00048b8e      0xb99 mesh/core/libmesh_core_nrf52832_xxAA.a(flash_manager_internal.c.obj)
 .debug_info    0x00049727      0xfb3 mesh/core/libmesh_core_nrf52832_xxAA.a(core_tx.c.obj)
 .debug_info    0x0004a6da     0x219a mesh/core/libmesh_core_nrf52832_xxAA.a(heartbeat.c.obj)
 .debug_info    0x0004c874     0x1511 mesh/core/libmesh_core_nrf52832_xxAA.a(net_beacon.c.obj)
 .debug_info    0x0004dd85     0x160b mesh/core/libmesh_core_nrf52832_xxAA.a(core_tx_adv.c.obj)
 .debug_info    0x0004f390     0x1118 mesh/core/libmesh_core_nrf52832_xxAA.a(ad_listener.c.obj)
 .debug_info    0x000504a8      0xfcd mesh/core/libmesh_core_nrf52832_xxAA.a(ad_type_filter.c.obj)
 .debug_info    0x00051475     0x2448 mesh/core/libmesh_core_nrf52832_xxAA.a(advertiser.c.obj)
 .debug_info    0x000538bd     0x18f8 mesh/core/libmesh_core_nrf52832_xxAA.a(bearer_handler.c.obj)
 .debug_info    0x000551b5     0x1963 mesh/core/libmesh_core_nrf52832_xxAA.a(broadcast.c.obj)
 .debug_info    0x00056b18      0xcf4 mesh/core/libmesh_core_nrf52832_xxAA.a(filter_engine.c.obj)
 .debug_info    0x0005780c      0x871 mesh/core/libmesh_core_nrf52832_xxAA.a(radio_config.c.obj)
 .debug_info    0x0005807d     0x25aa mesh/core/libmesh_core_nrf52832_xxAA.a(scanner.c.obj)
 .debug_info    0x0005a627      0xc4e mesh/core/libmesh_core_nrf52832_xxAA.a(internal_event.c.obj)
 .debug_info    0x0005b275      0xbcc mesh/core/libmesh_core_nrf52832_xxAA.a(aes.c.obj)
 .debug_info    0x0005be41      0xa81 mesh/core/libmesh_core_nrf52832_xxAA.a(msg_cache.c.obj)
 .debug_info    0x0005c8c2     0x54fb mesh/core/libmesh_core_nrf52832_xxAA.a(transport.c.obj)
 .debug_info    0x00061dbd     0x1d81 mesh/core/libmesh_core_nrf52832_xxAA.a(packet_buffer.c.obj)
 .debug_info    0x00063b3e     0x234f mesh/core/libmesh_core_nrf52832_xxAA.a(flash_manager_defrag.c.obj)
 .debug_info    0x00065e8d      0xd0e mesh/core/libmesh_core_nrf52832_xxAA.a(fifo.c.obj)
 .debug_info    0x00066b9b     0x1887 mesh/core/libmesh_core_nrf52832_xxAA.a(mesh_flash.c.obj)
 .debug_info    0x00068422      0xaf2 mesh/core/libmesh_core_nrf52832_xxAA.a(queue.c.obj)
 .debug_info    0x00068f14      0xe48 mesh/core/libmesh_core_nrf52832_xxAA.a(aes_cmac.c.obj)
 .debug_info    0x00069d5c      0xb1c mesh/core/libmesh_core_nrf52832_xxAA.a(nrf_mesh_opt.c.obj)
 .debug_info    0x0006a878      0xd08 mesh/core/libmesh_core_nrf52832_xxAA.a(msqueue.c.obj)
 .debug_info    0x0006b580      0xaeb mesh/core/libmesh_core_nrf52832_xxAA.a(replay_cache.c.obj)
 .debug_info    0x0006c06b      0xb47 mesh/core/libmesh_core_nrf52832_xxAA.a(nrf_flash.c.obj)
 .debug_info    0x0006cbb2     0x1818 external/rtt/librtt_nrf52832_xxAA.a(SEGGER_RTT.c.obj)
 .debug_info    0x0006e3ca      0xec1 external/rtt/librtt_nrf52832_xxAA.a(SEGGER_RTT_printf.c.obj)
 .debug_info    0x0006f28b     0x4511 external/micro-ecc/libuECC_nrf52832_xxAA.a(uECC.c.obj)

.debug_abbrev   0x00000000     0xfada
 .debug_abbrev  0x00000000      0x4bd examples/light_switch/client/CMakeFiles/light_switch_client_nrf52832_xxAA_s132_5.0.0.dir/src/main.c.obj
 .debug_abbrev  0x000004bd      0x43d examples/light_switch/client/CMakeFiles/light_switch_client_nrf52832_xxAA_s132_5.0.0.dir/src/provisioner.c.obj
 .debug_abbrev  0x000008fa      0x486 examples/light_switch/client/CMakeFiles/light_switch_client_nrf52832_xxAA_s132_5.0.0.dir/__/__/nrf_mesh_sdk.c.obj
 .debug_abbrev  0x00000d80      0x2b8 examples/light_switch/client/CMakeFiles/light_switch_client_nrf52832_xxAA_s132_5.0.0.dir/__/__/common/src/rtt_input.c.obj
 .debug_abbrev  0x00001038      0x364 examples/light_switch/client/CMakeFiles/light_switch_client_nrf52832_xxAA_s132_5.0.0.dir/__/__/common/src/simple_hal.c.obj
 .debug_abbrev  0x0000139c      0x1ae examples/light_switch/client/CMakeFiles/light_switch_client_nrf52832_xxAA_s132_5.0.0.dir/__/__/nrf_mesh_weak.c.obj
 .debug_abbrev  0x0000154a      0x352 examples/light_switch/client/CMakeFiles/light_switch_client_nrf52832_xxAA_s132_5.0.0.dir/__/__/__/models/simple_on_off/src/simple_on_off_client.c.obj
 .debug_abbrev  0x0000189c      0x54c examples/light_switch/client/CMakeFiles/light_switch_client_nrf52832_xxAA_s132_5.0.0.dir/__/__/__/models/config/src/config_client.c.obj
 .debug_abbrev  0x00001de8      0x3af examples/light_switch/client/CMakeFiles/light_switch_client_nrf52832_xxAA_s132_5.0.0.dir/__/__/__/models/health/src/health_client.c.obj
 .debug_abbrev  0x00002197      0x460 examples/light_switch/client/CMakeFiles/light_switch_client_nrf52832_xxAA_s132_5.0.0.dir/__/__/__/mesh/access/src/access_publish.c.obj
 .debug_abbrev  0x000025f7      0x67f examples/light_switch/client/CMakeFiles/light_switch_client_nrf52832_xxAA_s132_5.0.0.dir/__/__/__/mesh/access/src/access.c.obj
 .debug_abbrev  0x00002c76      0x440 examples/light_switch/client/CMakeFiles/light_switch_client_nrf52832_xxAA_s132_5.0.0.dir/__/__/__/mesh/access/src/access_reliable.c.obj
 .debug_abbrev  0x000030b6      0x647 examples/light_switch/client/CMakeFiles/light_switch_client_nrf52832_xxAA_s132_5.0.0.dir/__/__/__/mesh/access/src/device_state_manager.c.obj
 .debug_abbrev  0x000036fd      0x3dd examples/light_switch/client/CMakeFiles/light_switch_client_nrf52832_xxAA_s132_5.0.0.dir/__/__/__/mesh/prov/src/prov_provisioner.c.obj
 .debug_abbrev  0x00003ada      0x335 examples/light_switch/client/CMakeFiles/light_switch_client_nrf52832_xxAA_s132_5.0.0.dir/__/__/__/mesh/prov/src/nrf_mesh_prov.c.obj
 .debug_abbrev  0x00003e0f      0x29c examples/light_switch/client/CMakeFiles/light_switch_client_nrf52832_xxAA_s132_5.0.0.dir/__/__/__/mesh/prov/src/provisioning.c.obj
 .debug_abbrev  0x000040ab      0x2c8 examples/light_switch/client/CMakeFiles/light_switch_client_nrf52832_xxAA_s132_5.0.0.dir/__/__/__/mesh/prov/src/prov_beacon.c.obj
 .debug_abbrev  0x00004373      0x3d4 examples/light_switch/client/CMakeFiles/light_switch_client_nrf52832_xxAA_s132_5.0.0.dir/__/__/__/mesh/prov/src/prov_utils.c.obj
 .debug_abbrev  0x00004747      0x50e examples/light_switch/client/CMakeFiles/light_switch_client_nrf52832_xxAA_s132_5.0.0.dir/__/__/__/mesh/prov/src/prov_bearer_adv.c.obj
 .debug_abbrev  0x00004c55      0x202 examples/light_switch/client/CMakeFiles/light_switch_client_nrf52832_xxAA_s132_5.0.0.dir/__/__/__/external/nRF5_SDK_14.2.0_17b948a/components/toolchain/system_nrf52.c.obj
 .debug_abbrev  0x00004e57      0x24b mesh/core/libmesh_core_nrf52832_xxAA.a(nrf_mesh_configure.c.obj)
 .debug_abbrev  0x000050a2      0x2a2 mesh/core/libmesh_core_nrf52832_xxAA.a(event.c.obj)
 .debug_abbrev  0x00005344      0x3d1 mesh/core/libmesh_core_nrf52832_xxAA.a(packet_mgr.c.obj)
 .debug_abbrev  0x00005715      0x55b mesh/core/libmesh_core_nrf52832_xxAA.a(net_state.c.obj)
 .debug_abbrev  0x00005c70      0x25a mesh/core/libmesh_core_nrf52832_xxAA.a(nrf_mesh_utils.c.obj)
 .debug_abbrev  0x00005eca      0x467 mesh/core/libmesh_core_nrf52832_xxAA.a(nrf_mesh.c.obj)
 .debug_abbrev  0x00006331      0x204 mesh/core/libmesh_core_nrf52832_xxAA.a(hal.c.obj)
 .debug_abbrev  0x00006535      0x3bf mesh/core/libmesh_core_nrf52832_xxAA.a(timer_scheduler.c.obj)
 .debug_abbrev  0x000068f4      0x346 mesh/core/libmesh_core_nrf52832_xxAA.a(timer.c.obj)
 .debug_abbrev  0x00006c3a      0x152 mesh/core/libmesh_core_nrf52832_xxAA.a(ticker.c.obj)
 .debug_abbrev  0x00006d8c      0x1d2 mesh/core/libmesh_core_nrf52832_xxAA.a(rand.c.obj)
 .debug_abbrev  0x00006f5e      0x4db mesh/core/libmesh_core_nrf52832_xxAA.a(timeslot.c.obj)
 .debug_abbrev  0x00007439      0x4b3 mesh/core/libmesh_core_nrf52832_xxAA.a(bearer_event.c.obj)
 .debug_abbrev  0x000078ec      0x37e mesh/core/libmesh_core_nrf52832_xxAA.a(enc.c.obj)
 .debug_abbrev  0x00007c6a      0x52c mesh/core/libmesh_core_nrf52832_xxAA.a(network.c.obj)
 .debug_abbrev  0x00008196      0x163 mesh/core/libmesh_core_nrf52832_xxAA.a(nrf_mesh_keygen.c.obj)
 .debug_abbrev  0x000082f9      0x18e mesh/core/libmesh_core_nrf52832_xxAA.a(list.c.obj)
 .debug_abbrev  0x00008487      0x24e mesh/core/libmesh_core_nrf52832_xxAA.a(log.c.obj)
 .debug_abbrev  0x000086d5      0x5c2 mesh/core/libmesh_core_nrf52832_xxAA.a(flash_manager.c.obj)
 .debug_abbrev  0x00008c97      0x2b3 mesh/core/libmesh_core_nrf52832_xxAA.a(ccm_soft.c.obj)
 .debug_abbrev  0x00008f4a      0x38c mesh/core/libmesh_core_nrf52832_xxAA.a(beacon.c.obj)
 .debug_abbrev  0x000092d6      0x28a mesh/core/libmesh_core_nrf52832_xxAA.a(flash_manager_internal.c.obj)
 .debug_abbrev  0x00009560      0x32c mesh/core/libmesh_core_nrf52832_xxAA.a(core_tx.c.obj)
 .debug_abbrev  0x0000988c      0x4c9 mesh/core/libmesh_core_nrf52832_xxAA.a(heartbeat.c.obj)
 .debug_abbrev  0x00009d55      0x3cc mesh/core/libmesh_core_nrf52832_xxAA.a(net_beacon.c.obj)
 .debug_abbrev  0x0000a121      0x32c mesh/core/libmesh_core_nrf52832_xxAA.a(core_tx_adv.c.obj)
 .debug_abbrev  0x0000a44d      0x341 mesh/core/libmesh_core_nrf52832_xxAA.a(ad_listener.c.obj)
 .debug_abbrev  0x0000a78e      0x377 mesh/core/libmesh_core_nrf52832_xxAA.a(ad_type_filter.c.obj)
 .debug_abbrev  0x0000ab05      0x4fe mesh/core/libmesh_core_nrf52832_xxAA.a(advertiser.c.obj)
 .debug_abbrev  0x0000b003      0x40d mesh/core/libmesh_core_nrf52832_xxAA.a(bearer_handler.c.obj)
 .debug_abbrev  0x0000b410      0x3b4 mesh/core/libmesh_core_nrf52832_xxAA.a(broadcast.c.obj)
 .debug_abbrev  0x0000b7c4      0x299 mesh/core/libmesh_core_nrf52832_xxAA.a(filter_engine.c.obj)
 .debug_abbrev  0x0000ba5d      0x1d9 mesh/core/libmesh_core_nrf52832_xxAA.a(radio_config.c.obj)
 .debug_abbrev  0x0000bc36      0x582 mesh/core/libmesh_core_nrf52832_xxAA.a(scanner.c.obj)
 .debug_abbrev  0x0000c1b8      0x26d mesh/core/libmesh_core_nrf52832_xxAA.a(internal_event.c.obj)
 .debug_abbrev  0x0000c425      0x264 mesh/core/libmesh_core_nrf52832_xxAA.a(aes.c.obj)
 .debug_abbrev  0x0000c689      0x25d mesh/core/libmesh_core_nrf52832_xxAA.a(msg_cache.c.obj)
 .debug_abbrev  0x0000c8e6      0x629 mesh/core/libmesh_core_nrf52832_xxAA.a(transport.c.obj)
 .debug_abbrev  0x0000cf0f      0x49a mesh/core/libmesh_core_nrf52832_xxAA.a(packet_buffer.c.obj)
 .debug_abbrev  0x0000d3a9      0x558 mesh/core/libmesh_core_nrf52832_xxAA.a(flash_manager_defrag.c.obj)
 .debug_abbrev  0x0000d901      0x301 mesh/core/libmesh_core_nrf52832_xxAA.a(fifo.c.obj)
 .debug_abbrev  0x0000dc02      0x478 mesh/core/libmesh_core_nrf52832_xxAA.a(mesh_flash.c.obj)
 .debug_abbrev  0x0000e07a      0x227 mesh/core/libmesh_core_nrf52832_xxAA.a(queue.c.obj)
 .debug_abbrev  0x0000e2a1      0x332 mesh/core/libmesh_core_nrf52832_xxAA.a(aes_cmac.c.obj)
 .debug_abbrev  0x0000e5d3      0x24a mesh/core/libmesh_core_nrf52832_xxAA.a(nrf_mesh_opt.c.obj)
 .debug_abbrev  0x0000e81d      0x29c mesh/core/libmesh_core_nrf52832_xxAA.a(msqueue.c.obj)
 .debug_abbrev  0x0000eab9      0x277 mesh/core/libmesh_core_nrf52832_xxAA.a(replay_cache.c.obj)
 .debug_abbrev  0x0000ed30      0x21f mesh/core/libmesh_core_nrf52832_xxAA.a(nrf_flash.c.obj)
 .debug_abbrev  0x0000ef4f      0x3a9 external/rtt/librtt_nrf52832_xxAA.a(SEGGER_RTT.c.obj)
 .debug_abbrev  0x0000f2f8      0x32e external/rtt/librtt_nrf52832_xxAA.a(SEGGER_RTT_printf.c.obj)
 .debug_abbrev  0x0000f626      0x4b4 external/micro-ecc/libuECC_nrf52832_xxAA.a(uECC.c.obj)

.debug_loc      0x00000000    0x21eb0
 .debug_loc     0x00000000      0x652 examples/light_switch/client/CMakeFiles/light_switch_client_nrf52832_xxAA_s132_5.0.0.dir/src/main.c.obj
 .debug_loc     0x00000652      0x4c2 examples/light_switch/client/CMakeFiles/light_switch_client_nrf52832_xxAA_s132_5.0.0.dir/src/provisioner.c.obj
 .debug_loc     0x00000b14      0x340 examples/light_switch/client/CMakeFiles/light_switch_client_nrf52832_xxAA_s132_5.0.0.dir/__/__/nrf_mesh_sdk.c.obj
 .debug_loc     0x00000e54       0xa5 examples/light_switch/client/CMakeFiles/light_switch_client_nrf52832_xxAA_s132_5.0.0.dir/__/__/common/src/rtt_input.c.obj
 .debug_loc     0x00000ef9      0x1ee examples/light_switch/client/CMakeFiles/light_switch_client_nrf52832_xxAA_s132_5.0.0.dir/__/__/common/src/simple_hal.c.obj
 .debug_loc     0x000010e7      0x5fa examples/light_switch/client/CMakeFiles/light_switch_client_nrf52832_xxAA_s132_5.0.0.dir/__/__/__/models/simple_on_off/src/simple_on_off_client.c.obj
 .debug_loc     0x000016e1     0x154b examples/light_switch/client/CMakeFiles/light_switch_client_nrf52832_xxAA_s132_5.0.0.dir/__/__/__/models/config/src/config_client.c.obj
 .debug_loc     0x00002c2c      0xa21 examples/light_switch/client/CMakeFiles/light_switch_client_nrf52832_xxAA_s132_5.0.0.dir/__/__/__/models/health/src/health_client.c.obj
 .debug_loc     0x0000364d      0x577 examples/light_switch/client/CMakeFiles/light_switch_client_nrf52832_xxAA_s132_5.0.0.dir/__/__/__/mesh/access/src/access_publish.c.obj
 .debug_loc     0x00003bc4     0x22bd examples/light_switch/client/CMakeFiles/light_switch_client_nrf52832_xxAA_s132_5.0.0.dir/__/__/__/mesh/access/src/access.c.obj
 .debug_loc     0x00005e81      0x7f6 examples/light_switch/client/CMakeFiles/light_switch_client_nrf52832_xxAA_s132_5.0.0.dir/__/__/__/mesh/access/src/access_reliable.c.obj
 .debug_loc     0x00006677     0x3c34 examples/light_switch/client/CMakeFiles/light_switch_client_nrf52832_xxAA_s132_5.0.0.dir/__/__/__/mesh/access/src/device_state_manager.c.obj
 .debug_loc     0x0000a2ab      0x6a4 examples/light_switch/client/CMakeFiles/light_switch_client_nrf52832_xxAA_s132_5.0.0.dir/__/__/__/mesh/prov/src/prov_provisioner.c.obj
 .debug_loc     0x0000a94f      0x7c0 examples/light_switch/client/CMakeFiles/light_switch_client_nrf52832_xxAA_s132_5.0.0.dir/__/__/__/mesh/prov/src/nrf_mesh_prov.c.obj
 .debug_loc     0x0000b10f      0x4e0 examples/light_switch/client/CMakeFiles/light_switch_client_nrf52832_xxAA_s132_5.0.0.dir/__/__/__/mesh/prov/src/provisioning.c.obj
 .debug_loc     0x0000b5ef      0x1cd examples/light_switch/client/CMakeFiles/light_switch_client_nrf52832_xxAA_s132_5.0.0.dir/__/__/__/mesh/prov/src/prov_beacon.c.obj
 .debug_loc     0x0000b7bc      0x42c examples/light_switch/client/CMakeFiles/light_switch_client_nrf52832_xxAA_s132_5.0.0.dir/__/__/__/mesh/prov/src/prov_utils.c.obj
 .debug_loc     0x0000bbe8     0x175a examples/light_switch/client/CMakeFiles/light_switch_client_nrf52832_xxAA_s132_5.0.0.dir/__/__/__/mesh/prov/src/prov_bearer_adv.c.obj
 .debug_loc     0x0000d342       0x2c mesh/core/libmesh_core_nrf52832_xxAA.a(nrf_mesh_configure.c.obj)
 .debug_loc     0x0000d36e      0x136 mesh/core/libmesh_core_nrf52832_xxAA.a(event.c.obj)
 .debug_loc     0x0000d4a4      0x6d7 mesh/core/libmesh_core_nrf52832_xxAA.a(packet_mgr.c.obj)
 .debug_loc     0x0000db7b      0x758 mesh/core/libmesh_core_nrf52832_xxAA.a(net_state.c.obj)
 .debug_loc     0x0000e2d3      0x11c mesh/core/libmesh_core_nrf52832_xxAA.a(nrf_mesh_utils.c.obj)
 .debug_loc     0x0000e3ef      0x4d7 mesh/core/libmesh_core_nrf52832_xxAA.a(nrf_mesh.c.obj)
 .debug_loc     0x0000e8c6       0x84 mesh/core/libmesh_core_nrf52832_xxAA.a(hal.c.obj)
 .debug_loc     0x0000e94a      0x3b9 mesh/core/libmesh_core_nrf52832_xxAA.a(timer_scheduler.c.obj)
 .debug_loc     0x0000ed03      0x60f mesh/core/libmesh_core_nrf52832_xxAA.a(timer.c.obj)
 .debug_loc     0x0000f312      0x190 mesh/core/libmesh_core_nrf52832_xxAA.a(rand.c.obj)
 .debug_loc     0x0000f4a2      0x370 mesh/core/libmesh_core_nrf52832_xxAA.a(timeslot.c.obj)
 .debug_loc     0x0000f812      0x647 mesh/core/libmesh_core_nrf52832_xxAA.a(bearer_event.c.obj)
 .debug_loc     0x0000fe59      0x960 mesh/core/libmesh_core_nrf52832_xxAA.a(enc.c.obj)
 .debug_loc     0x000107b9     0x10e7 mesh/core/libmesh_core_nrf52832_xxAA.a(network.c.obj)
 .debug_loc     0x000118a0      0x1ee mesh/core/libmesh_core_nrf52832_xxAA.a(nrf_mesh_keygen.c.obj)
 .debug_loc     0x00011a8e      0x541 mesh/core/libmesh_core_nrf52832_xxAA.a(list.c.obj)
 .debug_loc     0x00011fcf      0x348 mesh/core/libmesh_core_nrf52832_xxAA.a(log.c.obj)
 .debug_loc     0x00012317     0x1791 mesh/core/libmesh_core_nrf52832_xxAA.a(flash_manager.c.obj)
 .debug_loc     0x00013aa8      0x371 mesh/core/libmesh_core_nrf52832_xxAA.a(ccm_soft.c.obj)
 .debug_loc     0x00013e19      0x527 mesh/core/libmesh_core_nrf52832_xxAA.a(beacon.c.obj)
 .debug_loc     0x00014340      0x130 mesh/core/libmesh_core_nrf52832_xxAA.a(flash_manager_internal.c.obj)
 .debug_loc     0x00014470      0x639 mesh/core/libmesh_core_nrf52832_xxAA.a(core_tx.c.obj)
 .debug_loc     0x00014aa9      0x644 mesh/core/libmesh_core_nrf52832_xxAA.a(heartbeat.c.obj)
 .debug_loc     0x000150ed      0x3fe mesh/core/libmesh_core_nrf52832_xxAA.a(net_beacon.c.obj)
 .debug_loc     0x000154eb      0x3fa mesh/core/libmesh_core_nrf52832_xxAA.a(core_tx_adv.c.obj)
 .debug_loc     0x000158e5      0x42e mesh/core/libmesh_core_nrf52832_xxAA.a(ad_listener.c.obj)
 .debug_loc     0x00015d13      0x3b9 mesh/core/libmesh_core_nrf52832_xxAA.a(ad_type_filter.c.obj)
 .debug_loc     0x000160cc      0xedd mesh/core/libmesh_core_nrf52832_xxAA.a(advertiser.c.obj)
 .debug_loc     0x00016fa9      0x42d mesh/core/libmesh_core_nrf52832_xxAA.a(bearer_handler.c.obj)
 .debug_loc     0x000173d6      0x377 mesh/core/libmesh_core_nrf52832_xxAA.a(broadcast.c.obj)
 .debug_loc     0x0001774d      0x115 mesh/core/libmesh_core_nrf52832_xxAA.a(filter_engine.c.obj)
 .debug_loc     0x00017862      0x28c mesh/core/libmesh_core_nrf52832_xxAA.a(radio_config.c.obj)
 .debug_loc     0x00017aee      0x4f6 mesh/core/libmesh_core_nrf52832_xxAA.a(scanner.c.obj)
 .debug_loc     0x00017fe4       0xc9 mesh/core/libmesh_core_nrf52832_xxAA.a(internal_event.c.obj)
 .debug_loc     0x000180ad       0x89 mesh/core/libmesh_core_nrf52832_xxAA.a(aes.c.obj)
 .debug_loc     0x00018136      0x10d mesh/core/libmesh_core_nrf52832_xxAA.a(msg_cache.c.obj)
 .debug_loc     0x00018243     0x28ef mesh/core/libmesh_core_nrf52832_xxAA.a(transport.c.obj)
 .debug_loc     0x0001ab32      0xf93 mesh/core/libmesh_core_nrf52832_xxAA.a(packet_buffer.c.obj)
 .debug_loc     0x0001bac5      0x8ee mesh/core/libmesh_core_nrf52832_xxAA.a(flash_manager_defrag.c.obj)
 .debug_loc     0x0001c3b3      0x517 mesh/core/libmesh_core_nrf52832_xxAA.a(fifo.c.obj)
 .debug_loc     0x0001c8ca      0xa35 mesh/core/libmesh_core_nrf52832_xxAA.a(mesh_flash.c.obj)
 .debug_loc     0x0001d2ff      0x186 mesh/core/libmesh_core_nrf52832_xxAA.a(queue.c.obj)
 .debug_loc     0x0001d485      0x3f8 mesh/core/libmesh_core_nrf52832_xxAA.a(aes_cmac.c.obj)
 .debug_loc     0x0001d87d      0x194 mesh/core/libmesh_core_nrf52832_xxAA.a(nrf_mesh_opt.c.obj)
 .debug_loc     0x0001da11      0x3e5 mesh/core/libmesh_core_nrf52832_xxAA.a(msqueue.c.obj)
 .debug_loc     0x0001ddf6      0x1c6 mesh/core/libmesh_core_nrf52832_xxAA.a(replay_cache.c.obj)
 .debug_loc     0x0001dfbc      0x17a mesh/core/libmesh_core_nrf52832_xxAA.a(nrf_flash.c.obj)
 .debug_loc     0x0001e136     0x1222 external/rtt/librtt_nrf52832_xxAA.a(SEGGER_RTT.c.obj)
 .debug_loc     0x0001f358      0x70f external/rtt/librtt_nrf52832_xxAA.a(SEGGER_RTT_printf.c.obj)
 .debug_loc     0x0001fa67     0x2449 external/micro-ecc/libuECC_nrf52832_xxAA.a(uECC.c.obj)

.debug_aranges  0x00000000     0x2118
 .debug_aranges
                0x00000000       0x60 examples/light_switch/client/CMakeFiles/light_switch_client_nrf52832_xxAA_s132_5.0.0.dir/src/main.c.obj
 .debug_aranges
                0x00000060       0x48 examples/light_switch/client/CMakeFiles/light_switch_client_nrf52832_xxAA_s132_5.0.0.dir/src/provisioner.c.obj
 .debug_aranges
                0x000000a8       0x80 examples/light_switch/client/CMakeFiles/light_switch_client_nrf52832_xxAA_s132_5.0.0.dir/__/__/nrf_mesh_sdk.c.obj
 .debug_aranges
                0x00000128       0x30 examples/light_switch/client/CMakeFiles/light_switch_client_nrf52832_xxAA_s132_5.0.0.dir/__/__/common/src/rtt_input.c.obj
 .debug_aranges
                0x00000158       0x50 examples/light_switch/client/CMakeFiles/light_switch_client_nrf52832_xxAA_s132_5.0.0.dir/__/__/common/src/simple_hal.c.obj
 .debug_aranges
                0x000001a8       0x28 examples/light_switch/client/CMakeFiles/light_switch_client_nrf52832_xxAA_s132_5.0.0.dir/__/__/nrf_mesh_weak.c.obj
 .debug_aranges
                0x000001d0       0x48 examples/light_switch/client/CMakeFiles/light_switch_client_nrf52832_xxAA_s132_5.0.0.dir/__/__/__/models/simple_on_off/src/simple_on_off_client.c.obj
 .debug_aranges
                0x00000218      0x188 examples/light_switch/client/CMakeFiles/light_switch_client_nrf52832_xxAA_s132_5.0.0.dir/__/__/__/models/config/src/config_client.c.obj
 .debug_aranges
                0x000003a0       0x80 examples/light_switch/client/CMakeFiles/light_switch_client_nrf52832_xxAA_s132_5.0.0.dir/__/__/__/models/health/src/health_client.c.obj
 .debug_aranges
                0x00000420       0x50 examples/light_switch/client/CMakeFiles/light_switch_client_nrf52832_xxAA_s132_5.0.0.dir/__/__/__/mesh/access/src/access_publish.c.obj
 .debug_aranges
                0x00000470      0x1b0 examples/light_switch/client/CMakeFiles/light_switch_client_nrf52832_xxAA_s132_5.0.0.dir/__/__/__/mesh/access/src/access.c.obj
 .debug_aranges
                0x00000620       0x50 examples/light_switch/client/CMakeFiles/light_switch_client_nrf52832_xxAA_s132_5.0.0.dir/__/__/__/mesh/access/src/access_reliable.c.obj
 .debug_aranges
                0x00000670      0x300 examples/light_switch/client/CMakeFiles/light_switch_client_nrf52832_xxAA_s132_5.0.0.dir/__/__/__/mesh/access/src/device_state_manager.c.obj
 .debug_aranges
                0x00000970       0x70 examples/light_switch/client/CMakeFiles/light_switch_client_nrf52832_xxAA_s132_5.0.0.dir/__/__/__/mesh/prov/src/prov_provisioner.c.obj
 .debug_aranges
                0x000009e0       0x78 examples/light_switch/client/CMakeFiles/light_switch_client_nrf52832_xxAA_s132_5.0.0.dir/__/__/__/mesh/prov/src/nrf_mesh_prov.c.obj
 .debug_aranges
                0x00000a58       0x80 examples/light_switch/client/CMakeFiles/light_switch_client_nrf52832_xxAA_s132_5.0.0.dir/__/__/__/mesh/prov/src/provisioning.c.obj
 .debug_aranges
                0x00000ad8       0x38 examples/light_switch/client/CMakeFiles/light_switch_client_nrf52832_xxAA_s132_5.0.0.dir/__/__/__/mesh/prov/src/prov_beacon.c.obj
 .debug_aranges
                0x00000b10       0x70 examples/light_switch/client/CMakeFiles/light_switch_client_nrf52832_xxAA_s132_5.0.0.dir/__/__/__/mesh/prov/src/prov_utils.c.obj
 .debug_aranges
                0x00000b80       0xc8 examples/light_switch/client/CMakeFiles/light_switch_client_nrf52832_xxAA_s132_5.0.0.dir/__/__/__/mesh/prov/src/prov_bearer_adv.c.obj
 .debug_aranges
                0x00000c48       0x38 examples/light_switch/client/CMakeFiles/light_switch_client_nrf52832_xxAA_s132_5.0.0.dir/__/__/__/external/nRF5_SDK_14.2.0_17b948a/components/toolchain/system_nrf52.c.obj
 .debug_aranges
                0x00000c80       0x30 mesh/core/libmesh_core_nrf52832_xxAA.a(nrf_mesh_configure.c.obj)
 .debug_aranges
                0x00000cb0       0x30 mesh/core/libmesh_core_nrf52832_xxAA.a(event.c.obj)
 .debug_aranges
                0x00000ce0       0x48 mesh/core/libmesh_core_nrf52832_xxAA.a(packet_mgr.c.obj)
 .debug_aranges
                0x00000d28       0xc0 mesh/core/libmesh_core_nrf52832_xxAA.a(net_state.c.obj)
 .debug_aranges
                0x00000de8       0x30 mesh/core/libmesh_core_nrf52832_xxAA.a(nrf_mesh_utils.c.obj)
 .debug_aranges
                0x00000e18       0x88 mesh/core/libmesh_core_nrf52832_xxAA.a(nrf_mesh.c.obj)
 .debug_aranges
                0x00000ea0       0x38 mesh/core/libmesh_core_nrf52832_xxAA.a(hal.c.obj)
 .debug_aranges
                0x00000ed8       0x68 mesh/core/libmesh_core_nrf52832_xxAA.a(timer_scheduler.c.obj)
 .debug_aranges
                0x00000f40       0x60 mesh/core/libmesh_core_nrf52832_xxAA.a(timer.c.obj)
 .debug_aranges
                0x00000fa0       0x30 mesh/core/libmesh_core_nrf52832_xxAA.a(ticker.c.obj)
 .debug_aranges
                0x00000fd0       0x40 mesh/core/libmesh_core_nrf52832_xxAA.a(rand.c.obj)
 .debug_aranges
                0x00001010       0xb8 mesh/core/libmesh_core_nrf52832_xxAA.a(timeslot.c.obj)
 .debug_aranges
                0x000010c8       0x98 mesh/core/libmesh_core_nrf52832_xxAA.a(bearer_event.c.obj)
 .debug_aranges
                0x00001160       0x70 mesh/core/libmesh_core_nrf52832_xxAA.a(enc.c.obj)
 .debug_aranges
                0x000011d0       0x60 mesh/core/libmesh_core_nrf52832_xxAA.a(network.c.obj)
 .debug_aranges
                0x00001230       0x40 mesh/core/libmesh_core_nrf52832_xxAA.a(nrf_mesh_keygen.c.obj)
 .debug_aranges
                0x00001270       0x48 mesh/core/libmesh_core_nrf52832_xxAA.a(list.c.obj)
 .debug_aranges
                0x000012b8       0x48 mesh/core/libmesh_core_nrf52832_xxAA.a(log.c.obj)
 .debug_aranges
                0x00001300      0x100 mesh/core/libmesh_core_nrf52832_xxAA.a(flash_manager.c.obj)
 .debug_aranges
                0x00001400       0x50 mesh/core/libmesh_core_nrf52832_xxAA.a(ccm_soft.c.obj)
 .debug_aranges
                0x00001450       0x38 mesh/core/libmesh_core_nrf52832_xxAA.a(beacon.c.obj)
 .debug_aranges
                0x00001488       0x20 mesh/core/libmesh_core_nrf52832_xxAA.a(flash_manager_internal.c.obj)
 .debug_aranges
                0x000014a8       0x58 mesh/core/libmesh_core_nrf52832_xxAA.a(core_tx.c.obj)
 .debug_aranges
                0x00001500       0x70 mesh/core/libmesh_core_nrf52832_xxAA.a(heartbeat.c.obj)
 .debug_aranges
                0x00001570       0x48 mesh/core/libmesh_core_nrf52832_xxAA.a(net_beacon.c.obj)
 .debug_aranges
                0x000015b8       0x68 mesh/core/libmesh_core_nrf52832_xxAA.a(core_tx_adv.c.obj)
 .debug_aranges
                0x00001620       0x30 mesh/core/libmesh_core_nrf52832_xxAA.a(ad_listener.c.obj)
 .debug_aranges
                0x00001650       0x58 mesh/core/libmesh_core_nrf52832_xxAA.a(ad_type_filter.c.obj)
 .debug_aranges
                0x000016a8       0xb0 mesh/core/libmesh_core_nrf52832_xxAA.a(advertiser.c.obj)
 .debug_aranges
                0x00001758       0x70 mesh/core/libmesh_core_nrf52832_xxAA.a(bearer_handler.c.obj)
 .debug_aranges
                0x000017c8       0x30 mesh/core/libmesh_core_nrf52832_xxAA.a(broadcast.c.obj)
 .debug_aranges
                0x000017f8       0x38 mesh/core/libmesh_core_nrf52832_xxAA.a(filter_engine.c.obj)
 .debug_aranges
                0x00001830       0x40 mesh/core/libmesh_core_nrf52832_xxAA.a(radio_config.c.obj)
 .debug_aranges
                0x00001870       0xe0 mesh/core/libmesh_core_nrf52832_xxAA.a(scanner.c.obj)
 .debug_aranges
                0x00001950       0x30 mesh/core/libmesh_core_nrf52832_xxAA.a(internal_event.c.obj)
 .debug_aranges
                0x00001980       0x28 mesh/core/libmesh_core_nrf52832_xxAA.a(aes.c.obj)
 .debug_aranges
                0x000019a8       0x38 mesh/core/libmesh_core_nrf52832_xxAA.a(msg_cache.c.obj)
 .debug_aranges
                0x000019e0      0x120 mesh/core/libmesh_core_nrf52832_xxAA.a(transport.c.obj)
 .debug_aranges
                0x00001b00       0x80 mesh/core/libmesh_core_nrf52832_xxAA.a(packet_buffer.c.obj)
 .debug_aranges
                0x00001b80       0xc8 mesh/core/libmesh_core_nrf52832_xxAA.a(flash_manager_defrag.c.obj)
 .debug_aranges
                0x00001c48       0x60 mesh/core/libmesh_core_nrf52832_xxAA.a(fifo.c.obj)
 .debug_aranges
                0x00001ca8       0x60 mesh/core/libmesh_core_nrf52832_xxAA.a(mesh_flash.c.obj)
 .debug_aranges
                0x00001d08       0x38 mesh/core/libmesh_core_nrf52832_xxAA.a(queue.c.obj)
 .debug_aranges
                0x00001d40       0x38 mesh/core/libmesh_core_nrf52832_xxAA.a(aes_cmac.c.obj)
 .debug_aranges
                0x00001d78       0x28 mesh/core/libmesh_core_nrf52832_xxAA.a(nrf_mesh_opt.c.obj)
 .debug_aranges
                0x00001da0       0x48 mesh/core/libmesh_core_nrf52832_xxAA.a(msqueue.c.obj)
 .debug_aranges
                0x00001de8       0x48 mesh/core/libmesh_core_nrf52832_xxAA.a(replay_cache.c.obj)
 .debug_aranges
                0x00001e30       0x30 mesh/core/libmesh_core_nrf52832_xxAA.a(nrf_flash.c.obj)
 .debug_aranges
                0x00001e60       0xd8 external/rtt/librtt_nrf52832_xxAA.a(SEGGER_RTT.c.obj)
 .debug_aranges
                0x00001f38       0x38 external/rtt/librtt_nrf52832_xxAA.a(SEGGER_RTT_printf.c.obj)
 .debug_aranges
                0x00001f70      0x1a8 external/micro-ecc/libuECC_nrf52832_xxAA.a(uECC.c.obj)

.debug_ranges   0x00000000     0x8020
 .debug_ranges  0x00000000      0x348 examples/light_switch/client/CMakeFiles/light_switch_client_nrf52832_xxAA_s132_5.0.0.dir/src/main.c.obj
 .debug_ranges  0x00000348      0x318 examples/light_switch/client/CMakeFiles/light_switch_client_nrf52832_xxAA_s132_5.0.0.dir/src/provisioner.c.obj
 .debug_ranges  0x00000660      0x1b0 examples/light_switch/client/CMakeFiles/light_switch_client_nrf52832_xxAA_s132_5.0.0.dir/__/__/nrf_mesh_sdk.c.obj
 .debug_ranges  0x00000810       0x20 examples/light_switch/client/CMakeFiles/light_switch_client_nrf52832_xxAA_s132_5.0.0.dir/__/__/common/src/rtt_input.c.obj
 .debug_ranges  0x00000830       0xc8 examples/light_switch/client/CMakeFiles/light_switch_client_nrf52832_xxAA_s132_5.0.0.dir/__/__/common/src/simple_hal.c.obj
 .debug_ranges  0x000008f8       0x18 examples/light_switch/client/CMakeFiles/light_switch_client_nrf52832_xxAA_s132_5.0.0.dir/__/__/nrf_mesh_weak.c.obj
 .debug_ranges  0x00000910       0xb0 examples/light_switch/client/CMakeFiles/light_switch_client_nrf52832_xxAA_s132_5.0.0.dir/__/__/__/models/simple_on_off/src/simple_on_off_client.c.obj
 .debug_ranges  0x000009c0      0x450 examples/light_switch/client/CMakeFiles/light_switch_client_nrf52832_xxAA_s132_5.0.0.dir/__/__/__/models/config/src/config_client.c.obj
 .debug_ranges  0x00000e10       0xa0 examples/light_switch/client/CMakeFiles/light_switch_client_nrf52832_xxAA_s132_5.0.0.dir/__/__/__/models/health/src/health_client.c.obj
 .debug_ranges  0x00000eb0      0x178 examples/light_switch/client/CMakeFiles/light_switch_client_nrf52832_xxAA_s132_5.0.0.dir/__/__/__/mesh/access/src/access_publish.c.obj
 .debug_ranges  0x00001028      0x858 examples/light_switch/client/CMakeFiles/light_switch_client_nrf52832_xxAA_s132_5.0.0.dir/__/__/__/mesh/access/src/access.c.obj
 .debug_ranges  0x00001880      0x260 examples/light_switch/client/CMakeFiles/light_switch_client_nrf52832_xxAA_s132_5.0.0.dir/__/__/__/mesh/access/src/access_reliable.c.obj
 .debug_ranges  0x00001ae0      0xac8 examples/light_switch/client/CMakeFiles/light_switch_client_nrf52832_xxAA_s132_5.0.0.dir/__/__/__/mesh/access/src/device_state_manager.c.obj
 .debug_ranges  0x000025a8      0x128 examples/light_switch/client/CMakeFiles/light_switch_client_nrf52832_xxAA_s132_5.0.0.dir/__/__/__/mesh/prov/src/prov_provisioner.c.obj
 .debug_ranges  0x000026d0       0xb0 examples/light_switch/client/CMakeFiles/light_switch_client_nrf52832_xxAA_s132_5.0.0.dir/__/__/__/mesh/prov/src/nrf_mesh_prov.c.obj
 .debug_ranges  0x00002780       0xa0 examples/light_switch/client/CMakeFiles/light_switch_client_nrf52832_xxAA_s132_5.0.0.dir/__/__/__/mesh/prov/src/provisioning.c.obj
 .debug_ranges  0x00002820       0x88 examples/light_switch/client/CMakeFiles/light_switch_client_nrf52832_xxAA_s132_5.0.0.dir/__/__/__/mesh/prov/src/prov_beacon.c.obj
 .debug_ranges  0x000028a8       0xb8 examples/light_switch/client/CMakeFiles/light_switch_client_nrf52832_xxAA_s132_5.0.0.dir/__/__/__/mesh/prov/src/prov_utils.c.obj
 .debug_ranges  0x00002960      0x6c8 examples/light_switch/client/CMakeFiles/light_switch_client_nrf52832_xxAA_s132_5.0.0.dir/__/__/__/mesh/prov/src/prov_bearer_adv.c.obj
 .debug_ranges  0x00003028       0x28 examples/light_switch/client/CMakeFiles/light_switch_client_nrf52832_xxAA_s132_5.0.0.dir/__/__/__/external/nRF5_SDK_14.2.0_17b948a/components/toolchain/system_nrf52.c.obj
 .debug_ranges  0x00003050       0x20 mesh/core/libmesh_core_nrf52832_xxAA.a(nrf_mesh_configure.c.obj)
 .debug_ranges  0x00003070       0x68 mesh/core/libmesh_core_nrf52832_xxAA.a(event.c.obj)
 .debug_ranges  0x000030d8      0x160 mesh/core/libmesh_core_nrf52832_xxAA.a(packet_mgr.c.obj)
 .debug_ranges  0x00003238      0x248 mesh/core/libmesh_core_nrf52832_xxAA.a(net_state.c.obj)
 .debug_ranges  0x00003480       0x38 mesh/core/libmesh_core_nrf52832_xxAA.a(nrf_mesh_utils.c.obj)
 .debug_ranges  0x000034b8       0xf0 mesh/core/libmesh_core_nrf52832_xxAA.a(nrf_mesh.c.obj)
 .debug_ranges  0x000035a8       0x28 mesh/core/libmesh_core_nrf52832_xxAA.a(hal.c.obj)
 .debug_ranges  0x000035d0      0x260 mesh/core/libmesh_core_nrf52832_xxAA.a(timer_scheduler.c.obj)
 .debug_ranges  0x00003830      0x108 mesh/core/libmesh_core_nrf52832_xxAA.a(timer.c.obj)
 .debug_ranges  0x00003938       0x20 mesh/core/libmesh_core_nrf52832_xxAA.a(ticker.c.obj)
 .debug_ranges  0x00003958       0x48 mesh/core/libmesh_core_nrf52832_xxAA.a(rand.c.obj)
 .debug_ranges  0x000039a0      0x188 mesh/core/libmesh_core_nrf52832_xxAA.a(timeslot.c.obj)
 .debug_ranges  0x00003b28      0x250 mesh/core/libmesh_core_nrf52832_xxAA.a(bearer_event.c.obj)
 .debug_ranges  0x00003d78      0x120 mesh/core/libmesh_core_nrf52832_xxAA.a(enc.c.obj)
 .debug_ranges  0x00003e98      0x518 mesh/core/libmesh_core_nrf52832_xxAA.a(network.c.obj)
 .debug_ranges  0x000043b0       0x30 mesh/core/libmesh_core_nrf52832_xxAA.a(nrf_mesh_keygen.c.obj)
 .debug_ranges  0x000043e0      0x1b0 mesh/core/libmesh_core_nrf52832_xxAA.a(list.c.obj)
 .debug_ranges  0x00004590       0x38 mesh/core/libmesh_core_nrf52832_xxAA.a(log.c.obj)
 .debug_ranges  0x000045c8      0x748 mesh/core/libmesh_core_nrf52832_xxAA.a(flash_manager.c.obj)
 .debug_ranges  0x00004d10       0x40 mesh/core/libmesh_core_nrf52832_xxAA.a(ccm_soft.c.obj)
 .debug_ranges  0x00004d50       0xd0 mesh/core/libmesh_core_nrf52832_xxAA.a(beacon.c.obj)
 .debug_ranges  0x00004e20       0x68 mesh/core/libmesh_core_nrf52832_xxAA.a(flash_manager_internal.c.obj)
 .debug_ranges  0x00004e88      0x270 mesh/core/libmesh_core_nrf52832_xxAA.a(core_tx.c.obj)
 .debug_ranges  0x000050f8      0x240 mesh/core/libmesh_core_nrf52832_xxAA.a(heartbeat.c.obj)
 .debug_ranges  0x00005338       0xf0 mesh/core/libmesh_core_nrf52832_xxAA.a(net_beacon.c.obj)
 .debug_ranges  0x00005428       0xe8 mesh/core/libmesh_core_nrf52832_xxAA.a(core_tx_adv.c.obj)
 .debug_ranges  0x00005510       0xf8 mesh/core/libmesh_core_nrf52832_xxAA.a(ad_listener.c.obj)
 .debug_ranges  0x00005608       0xe8 mesh/core/libmesh_core_nrf52832_xxAA.a(ad_type_filter.c.obj)
 .debug_ranges  0x000056f0      0x4a8 mesh/core/libmesh_core_nrf52832_xxAA.a(advertiser.c.obj)
 .debug_ranges  0x00005b98      0x290 mesh/core/libmesh_core_nrf52832_xxAA.a(bearer_handler.c.obj)
 .debug_ranges  0x00005e28      0x130 mesh/core/libmesh_core_nrf52832_xxAA.a(broadcast.c.obj)
 .debug_ranges  0x00005f58       0x90 mesh/core/libmesh_core_nrf52832_xxAA.a(filter_engine.c.obj)
 .debug_ranges  0x00005fe8      0x100 mesh/core/libmesh_core_nrf52832_xxAA.a(radio_config.c.obj)
 .debug_ranges  0x000060e8      0x2c0 mesh/core/libmesh_core_nrf52832_xxAA.a(scanner.c.obj)
 .debug_ranges  0x000063a8       0x20 mesh/core/libmesh_core_nrf52832_xxAA.a(internal_event.c.obj)
 .debug_ranges  0x000063c8       0x18 mesh/core/libmesh_core_nrf52832_xxAA.a(aes.c.obj)
 .debug_ranges  0x000063e0       0x48 mesh/core/libmesh_core_nrf52832_xxAA.a(msg_cache.c.obj)
 .debug_ranges  0x00006428      0x918 mesh/core/libmesh_core_nrf52832_xxAA.a(transport.c.obj)
 .debug_ranges  0x00006d40      0x3b8 mesh/core/libmesh_core_nrf52832_xxAA.a(packet_buffer.c.obj)
 .debug_ranges  0x000070f8      0x368 mesh/core/libmesh_core_nrf52832_xxAA.a(flash_manager_defrag.c.obj)
 .debug_ranges  0x00007460       0xb0 mesh/core/libmesh_core_nrf52832_xxAA.a(fifo.c.obj)
 .debug_ranges  0x00007510      0x368 mesh/core/libmesh_core_nrf52832_xxAA.a(mesh_flash.c.obj)
 .debug_ranges  0x00007878       0xa0 mesh/core/libmesh_core_nrf52832_xxAA.a(queue.c.obj)
 .debug_ranges  0x00007918       0x98 mesh/core/libmesh_core_nrf52832_xxAA.a(aes_cmac.c.obj)
 .debug_ranges  0x000079b0       0x18 mesh/core/libmesh_core_nrf52832_xxAA.a(nrf_mesh_opt.c.obj)
 .debug_ranges  0x000079c8      0x158 mesh/core/libmesh_core_nrf52832_xxAA.a(msqueue.c.obj)
 .debug_ranges  0x00007b20       0x68 mesh/core/libmesh_core_nrf52832_xxAA.a(replay_cache.c.obj)
 .debug_ranges  0x00007b88       0x38 mesh/core/libmesh_core_nrf52832_xxAA.a(nrf_flash.c.obj)
 .debug_ranges  0x00007bc0      0x130 external/rtt/librtt_nrf52832_xxAA.a(SEGGER_RTT.c.obj)
 .debug_ranges  0x00007cf0       0x48 external/rtt/librtt_nrf52832_xxAA.a(SEGGER_RTT_printf.c.obj)
 .debug_ranges  0x00007d38      0x2e8 external/micro-ecc/libuECC_nrf52832_xxAA.a(uECC.c.obj)

.debug_line     0x00000000    0x17684
 .debug_line    0x00000000      0xa1e examples/light_switch/client/CMakeFiles/light_switch_client_nrf52832_xxAA_s132_5.0.0.dir/src/main.c.obj
 .debug_line    0x00000a1e      0xbba examples/light_switch/client/CMakeFiles/light_switch_client_nrf52832_xxAA_s132_5.0.0.dir/src/provisioner.c.obj
 .debug_line    0x000015d8      0x787 examples/light_switch/client/CMakeFiles/light_switch_client_nrf52832_xxAA_s132_5.0.0.dir/__/__/nrf_mesh_sdk.c.obj
 .debug_line    0x00001d5f      0x2de examples/light_switch/client/CMakeFiles/light_switch_client_nrf52832_xxAA_s132_5.0.0.dir/__/__/common/src/rtt_input.c.obj
 .debug_line    0x0000203d      0x41b examples/light_switch/client/CMakeFiles/light_switch_client_nrf52832_xxAA_s132_5.0.0.dir/__/__/common/src/simple_hal.c.obj
 .debug_line    0x00002458      0x225 examples/light_switch/client/CMakeFiles/light_switch_client_nrf52832_xxAA_s132_5.0.0.dir/__/__/nrf_mesh_weak.c.obj
 .debug_line    0x0000267d      0x3ec examples/light_switch/client/CMakeFiles/light_switch_client_nrf52832_xxAA_s132_5.0.0.dir/__/__/__/models/simple_on_off/src/simple_on_off_client.c.obj
 .debug_line    0x00002a69      0xa96 examples/light_switch/client/CMakeFiles/light_switch_client_nrf52832_xxAA_s132_5.0.0.dir/__/__/__/models/config/src/config_client.c.obj
 .debug_line    0x000034ff      0x4a3 examples/light_switch/client/CMakeFiles/light_switch_client_nrf52832_xxAA_s132_5.0.0.dir/__/__/__/models/health/src/health_client.c.obj
 .debug_line    0x000039a2      0x449 examples/light_switch/client/CMakeFiles/light_switch_client_nrf52832_xxAA_s132_5.0.0.dir/__/__/__/mesh/access/src/access_publish.c.obj
 .debug_line    0x00003deb      0xeaa examples/light_switch/client/CMakeFiles/light_switch_client_nrf52832_xxAA_s132_5.0.0.dir/__/__/__/mesh/access/src/access.c.obj
 .debug_line    0x00004c95      0x50d examples/light_switch/client/CMakeFiles/light_switch_client_nrf52832_xxAA_s132_5.0.0.dir/__/__/__/mesh/access/src/access_reliable.c.obj
 .debug_line    0x000051a2     0x142a examples/light_switch/client/CMakeFiles/light_switch_client_nrf52832_xxAA_s132_5.0.0.dir/__/__/__/mesh/access/src/device_state_manager.c.obj
 .debug_line    0x000065cc      0x573 examples/light_switch/client/CMakeFiles/light_switch_client_nrf52832_xxAA_s132_5.0.0.dir/__/__/__/mesh/prov/src/prov_provisioner.c.obj
 .debug_line    0x00006b3f      0x4e3 examples/light_switch/client/CMakeFiles/light_switch_client_nrf52832_xxAA_s132_5.0.0.dir/__/__/__/mesh/prov/src/nrf_mesh_prov.c.obj
 .debug_line    0x00007022      0x3de examples/light_switch/client/CMakeFiles/light_switch_client_nrf52832_xxAA_s132_5.0.0.dir/__/__/__/mesh/prov/src/provisioning.c.obj
 .debug_line    0x00007400      0x48d examples/light_switch/client/CMakeFiles/light_switch_client_nrf52832_xxAA_s132_5.0.0.dir/__/__/__/mesh/prov/src/prov_beacon.c.obj
 .debug_line    0x0000788d      0x4a2 examples/light_switch/client/CMakeFiles/light_switch_client_nrf52832_xxAA_s132_5.0.0.dir/__/__/__/mesh/prov/src/prov_utils.c.obj
 .debug_line    0x00007d2f      0xc24 examples/light_switch/client/CMakeFiles/light_switch_client_nrf52832_xxAA_s132_5.0.0.dir/__/__/__/mesh/prov/src/prov_bearer_adv.c.obj
 .debug_line    0x00008953      0x27e examples/light_switch/client/CMakeFiles/light_switch_client_nrf52832_xxAA_s132_5.0.0.dir/__/__/__/external/nRF5_SDK_14.2.0_17b948a/components/toolchain/system_nrf52.c.obj
 .debug_line    0x00008bd1      0x263 mesh/core/libmesh_core_nrf52832_xxAA.a(nrf_mesh_configure.c.obj)
 .debug_line    0x00008e34      0x30b mesh/core/libmesh_core_nrf52832_xxAA.a(event.c.obj)
 .debug_line    0x0000913f      0x445 mesh/core/libmesh_core_nrf52832_xxAA.a(packet_mgr.c.obj)
 .debug_line    0x00009584      0x6a8 mesh/core/libmesh_core_nrf52832_xxAA.a(net_state.c.obj)
 .debug_line    0x00009c2c      0x262 mesh/core/libmesh_core_nrf52832_xxAA.a(nrf_mesh_utils.c.obj)
 .debug_line    0x00009e8e      0x7a7 mesh/core/libmesh_core_nrf52832_xxAA.a(nrf_mesh.c.obj)
 .debug_line    0x0000a635      0x250 mesh/core/libmesh_core_nrf52832_xxAA.a(hal.c.obj)
 .debug_line    0x0000a885      0x4a3 mesh/core/libmesh_core_nrf52832_xxAA.a(timer_scheduler.c.obj)
 .debug_line    0x0000ad28      0x415 mesh/core/libmesh_core_nrf52832_xxAA.a(timer.c.obj)
 .debug_line    0x0000b13d      0x122 mesh/core/libmesh_core_nrf52832_xxAA.a(ticker.c.obj)
 .debug_line    0x0000b25f      0x28d mesh/core/libmesh_core_nrf52832_xxAA.a(rand.c.obj)
 .debug_line    0x0000b4ec      0x5b6 mesh/core/libmesh_core_nrf52832_xxAA.a(timeslot.c.obj)
 .debug_line    0x0000baa2      0x608 mesh/core/libmesh_core_nrf52832_xxAA.a(bearer_event.c.obj)
 .debug_line    0x0000c0aa      0x45a mesh/core/libmesh_core_nrf52832_xxAA.a(enc.c.obj)
 .debug_line    0x0000c504      0x836 mesh/core/libmesh_core_nrf52832_xxAA.a(network.c.obj)
 .debug_line    0x0000cd3a      0x236 mesh/core/libmesh_core_nrf52832_xxAA.a(nrf_mesh_keygen.c.obj)
 .debug_line    0x0000cf70      0x373 mesh/core/libmesh_core_nrf52832_xxAA.a(list.c.obj)
 .debug_line    0x0000d2e3      0x284 mesh/core/libmesh_core_nrf52832_xxAA.a(log.c.obj)
 .debug_line    0x0000d567      0xa9a mesh/core/libmesh_core_nrf52832_xxAA.a(flash_manager.c.obj)
 .debug_line    0x0000e001      0x34b mesh/core/libmesh_core_nrf52832_xxAA.a(ccm_soft.c.obj)
 .debug_line    0x0000e34c      0x52d mesh/core/libmesh_core_nrf52832_xxAA.a(beacon.c.obj)
 .debug_line    0x0000e879      0x299 mesh/core/libmesh_core_nrf52832_xxAA.a(flash_manager_internal.c.obj)
 .debug_line    0x0000eb12      0x471 mesh/core/libmesh_core_nrf52832_xxAA.a(core_tx.c.obj)
 .debug_line    0x0000ef83      0x61c mesh/core/libmesh_core_nrf52832_xxAA.a(heartbeat.c.obj)
 .debug_line    0x0000f59f      0x42b mesh/core/libmesh_core_nrf52832_xxAA.a(net_beacon.c.obj)
 .debug_line    0x0000f9ca      0x489 mesh/core/libmesh_core_nrf52832_xxAA.a(core_tx_adv.c.obj)
 .debug_line    0x0000fe53      0x352 mesh/core/libmesh_core_nrf52832_xxAA.a(ad_listener.c.obj)
 .debug_line    0x000101a5      0x403 mesh/core/libmesh_core_nrf52832_xxAA.a(ad_type_filter.c.obj)
 .debug_line    0x000105a8      0x81c mesh/core/libmesh_core_nrf52832_xxAA.a(advertiser.c.obj)
 .debug_line    0x00010dc4      0x5c1 mesh/core/libmesh_core_nrf52832_xxAA.a(bearer_handler.c.obj)
 .debug_line    0x00011385      0x3c8 mesh/core/libmesh_core_nrf52832_xxAA.a(broadcast.c.obj)
 .debug_line    0x0001174d      0x356 mesh/core/libmesh_core_nrf52832_xxAA.a(filter_engine.c.obj)
 .debug_line    0x00011aa3      0x320 mesh/core/libmesh_core_nrf52832_xxAA.a(radio_config.c.obj)
 .debug_line    0x00011dc3      0x751 mesh/core/libmesh_core_nrf52832_xxAA.a(scanner.c.obj)
 .debug_line    0x00012514      0x2a2 mesh/core/libmesh_core_nrf52832_xxAA.a(internal_event.c.obj)
 .debug_line    0x000127b6      0x254 mesh/core/libmesh_core_nrf52832_xxAA.a(aes.c.obj)
 .debug_line    0x00012a0a      0x298 mesh/core/libmesh_core_nrf52832_xxAA.a(msg_cache.c.obj)
 .debug_line    0x00012ca2     0x1029 mesh/core/libmesh_core_nrf52832_xxAA.a(transport.c.obj)
 .debug_line    0x00013ccb      0x6ed mesh/core/libmesh_core_nrf52832_xxAA.a(packet_buffer.c.obj)
 .debug_line    0x000143b8      0x7e7 mesh/core/libmesh_core_nrf52832_xxAA.a(flash_manager_defrag.c.obj)
 .debug_line    0x00014b9f      0x3a6 mesh/core/libmesh_core_nrf52832_xxAA.a(fifo.c.obj)
 .debug_line    0x00014f45      0x5a9 mesh/core/libmesh_core_nrf52832_xxAA.a(mesh_flash.c.obj)
 .debug_line    0x000154ee      0x2d2 mesh/core/libmesh_core_nrf52832_xxAA.a(queue.c.obj)
 .debug_line    0x000157c0      0x2d4 mesh/core/libmesh_core_nrf52832_xxAA.a(aes_cmac.c.obj)
 .debug_line    0x00015a94      0x291 mesh/core/libmesh_core_nrf52832_xxAA.a(nrf_mesh_opt.c.obj)
 .debug_line    0x00015d25      0x388 mesh/core/libmesh_core_nrf52832_xxAA.a(msqueue.c.obj)
 .debug_line    0x000160ad      0x1f1 mesh/core/libmesh_core_nrf52832_xxAA.a(replay_cache.c.obj)
 .debug_line    0x0001629e      0x2a9 mesh/core/libmesh_core_nrf52832_xxAA.a(nrf_flash.c.obj)
 .debug_line    0x00016547      0x4c0 external/rtt/librtt_nrf52832_xxAA.a(SEGGER_RTT.c.obj)
 .debug_line    0x00016a07      0x282 external/rtt/librtt_nrf52832_xxAA.a(SEGGER_RTT_printf.c.obj)
 .debug_line    0x00016c89      0x9fb external/micro-ecc/libuECC_nrf52832_xxAA.a(uECC.c.obj)

.debug_str      0x00000000    0x12b4f
 .debug_str     0x00000000     0x251d examples/light_switch/client/CMakeFiles/light_switch_client_nrf52832_xxAA_s132_5.0.0.dir/src/main.c.obj
                               0x285a (size before relaxing)
 .debug_str     0x0000251d     0x1e59 examples/light_switch/client/CMakeFiles/light_switch_client_nrf52832_xxAA_s132_5.0.0.dir/src/provisioner.c.obj
                               0x3bd4 (size before relaxing)
 .debug_str     0x00004376     0x15d9 examples/light_switch/client/CMakeFiles/light_switch_client_nrf52832_xxAA_s132_5.0.0.dir/__/__/nrf_mesh_sdk.c.obj
                               0x22b1 (size before relaxing)
 .debug_str     0x0000594f      0x183 examples/light_switch/client/CMakeFiles/light_switch_client_nrf52832_xxAA_s132_5.0.0.dir/__/__/common/src/rtt_input.c.obj
                                0xb69 (size before relaxing)
 .debug_str     0x00005ad2      0x17e examples/light_switch/client/CMakeFiles/light_switch_client_nrf52832_xxAA_s132_5.0.0.dir/__/__/common/src/simple_hal.c.obj
                                0xc41 (size before relaxing)
 .debug_str     0x00005c50       0x3c examples/light_switch/client/CMakeFiles/light_switch_client_nrf52832_xxAA_s132_5.0.0.dir/__/__/nrf_mesh_weak.c.obj
                                0x64d (size before relaxing)
 .debug_str     0x00005c8c      0x36c examples/light_switch/client/CMakeFiles/light_switch_client_nrf52832_xxAA_s132_5.0.0.dir/__/__/__/models/simple_on_off/src/simple_on_off_client.c.obj
                                0xd1e (size before relaxing)
 .debug_str     0x00005ff8      0xbb6 examples/light_switch/client/CMakeFiles/light_switch_client_nrf52832_xxAA_s132_5.0.0.dir/__/__/__/models/config/src/config_client.c.obj
                               0x2856 (size before relaxing)
 .debug_str     0x00006bae      0x411 examples/light_switch/client/CMakeFiles/light_switch_client_nrf52832_xxAA_s132_5.0.0.dir/__/__/__/models/health/src/health_client.c.obj
                               0x10d8 (size before relaxing)
 .debug_str     0x00006fbf      0x328 examples/light_switch/client/CMakeFiles/light_switch_client_nrf52832_xxAA_s132_5.0.0.dir/__/__/__/mesh/access/src/access_publish.c.obj
                                0xbe6 (size before relaxing)
 .debug_str     0x000072e7     0x1960 examples/light_switch/client/CMakeFiles/light_switch_client_nrf52832_xxAA_s132_5.0.0.dir/__/__/__/mesh/access/src/access.c.obj
                               0x2b46 (size before relaxing)
 .debug_str     0x00008c47      0x13c examples/light_switch/client/CMakeFiles/light_switch_client_nrf52832_xxAA_s132_5.0.0.dir/__/__/__/mesh/access/src/access_reliable.c.obj
                                0xcb4 (size before relaxing)
 .debug_str     0x00008d83     0x1121 examples/light_switch/client/CMakeFiles/light_switch_client_nrf52832_xxAA_s132_5.0.0.dir/__/__/__/mesh/access/src/device_state_manager.c.obj
                               0x2e6b (size before relaxing)
 .debug_str     0x00009ea4      0x552 examples/light_switch/client/CMakeFiles/light_switch_client_nrf52832_xxAA_s132_5.0.0.dir/__/__/__/mesh/prov/src/prov_provisioner.c.obj
                               0x1eb9 (size before relaxing)
 .debug_str     0x0000a3f6      0x1d0 examples/light_switch/client/CMakeFiles/light_switch_client_nrf52832_xxAA_s132_5.0.0.dir/__/__/__/mesh/prov/src/nrf_mesh_prov.c.obj
                               0x1c8f (size before relaxing)
 .debug_str     0x0000a5c6      0x10f examples/light_switch/client/CMakeFiles/light_switch_client_nrf52832_xxAA_s132_5.0.0.dir/__/__/__/mesh/prov/src/provisioning.c.obj
                                0xf45 (size before relaxing)
 .debug_str     0x0000a6d5      0x113 examples/light_switch/client/CMakeFiles/light_switch_client_nrf52832_xxAA_s132_5.0.0.dir/__/__/__/mesh/prov/src/prov_beacon.c.obj
                               0x18cc (size before relaxing)
 .debug_str     0x0000a7e8      0x429 examples/light_switch/client/CMakeFiles/light_switch_client_nrf52832_xxAA_s132_5.0.0.dir/__/__/__/mesh/prov/src/prov_utils.c.obj
                               0x1e53 (size before relaxing)
 .debug_str     0x0000ac11      0x556 examples/light_switch/client/CMakeFiles/light_switch_client_nrf52832_xxAA_s132_5.0.0.dir/__/__/__/mesh/prov/src/prov_bearer_adv.c.obj
                               0x1b5a (size before relaxing)
 .debug_str     0x0000b167      0x4a3 examples/light_switch/client/CMakeFiles/light_switch_client_nrf52832_xxAA_s132_5.0.0.dir/__/__/__/external/nRF5_SDK_14.2.0_17b948a/components/toolchain/system_nrf52.c.obj
                                0x779 (size before relaxing)
 .debug_str     0x0000b60a       0x75 mesh/core/libmesh_core_nrf52832_xxAA.a(nrf_mesh_configure.c.obj)
                                0x77e (size before relaxing)
 .debug_str     0x0000b67f       0x82 mesh/core/libmesh_core_nrf52832_xxAA.a(event.c.obj)
                               0x14d3 (size before relaxing)
 .debug_str     0x0000b701      0x25b mesh/core/libmesh_core_nrf52832_xxAA.a(packet_mgr.c.obj)
                                0x9ca (size before relaxing)
 .debug_str     0x0000b95c      0x367 mesh/core/libmesh_core_nrf52832_xxAA.a(net_state.c.obj)
                               0x1e46 (size before relaxing)
 .debug_str     0x0000bcc3       0x8b mesh/core/libmesh_core_nrf52832_xxAA.a(nrf_mesh_utils.c.obj)
                                0x76b (size before relaxing)
 .debug_str     0x0000bd4e      0x5a4 mesh/core/libmesh_core_nrf52832_xxAA.a(nrf_mesh.c.obj)
                               0x2d38 (size before relaxing)
 .debug_str     0x0000c2f2       0xa9 mesh/core/libmesh_core_nrf52832_xxAA.a(hal.c.obj)
                                0x75e (size before relaxing)
 .debug_str     0x0000c39b      0x14a mesh/core/libmesh_core_nrf52832_xxAA.a(timer_scheduler.c.obj)
                                0x94e (size before relaxing)
 .debug_str     0x0000c4e5      0x1e5 mesh/core/libmesh_core_nrf52832_xxAA.a(timer.c.obj)
                                0x883 (size before relaxing)
 .debug_str     0x0000c6ca       0x3c mesh/core/libmesh_core_nrf52832_xxAA.a(ticker.c.obj)
                                0x34c (size before relaxing)
 .debug_str     0x0000c706       0xac mesh/core/libmesh_core_nrf52832_xxAA.a(rand.c.obj)
                                0x6db (size before relaxing)
 .debug_str     0x0000c7b2      0x8b0 mesh/core/libmesh_core_nrf52832_xxAA.a(timeslot.c.obj)
                               0x17f4 (size before relaxing)
 .debug_str     0x0000d062      0x2f7 mesh/core/libmesh_core_nrf52832_xxAA.a(bearer_event.c.obj)
                                0xed3 (size before relaxing)
 .debug_str     0x0000d359      0x1c1 mesh/core/libmesh_core_nrf52832_xxAA.a(enc.c.obj)
                                0x9d4 (size before relaxing)
 .debug_str     0x0000d51a      0x9bc mesh/core/libmesh_core_nrf52832_xxAA.a(network.c.obj)
                               0x19c2 (size before relaxing)
 .debug_str     0x0000ded6       0x4e mesh/core/libmesh_core_nrf52832_xxAA.a(nrf_mesh_keygen.c.obj)
                                0x397 (size before relaxing)
 .debug_str     0x0000df24       0x65 mesh/core/libmesh_core_nrf52832_xxAA.a(list.c.obj)
                                0x2d8 (size before relaxing)
 .debug_str     0x0000df89       0xf0 mesh/core/libmesh_core_nrf52832_xxAA.a(log.c.obj)
                                0x7d0 (size before relaxing)
 .debug_str     0x0000e079      0x8c1 mesh/core/libmesh_core_nrf52832_xxAA.a(flash_manager.c.obj)
                               0x19d1 (size before relaxing)
 .debug_str     0x0000e93a       0x85 mesh/core/libmesh_core_nrf52832_xxAA.a(ccm_soft.c.obj)
                                0x75d (size before relaxing)
 .debug_str     0x0000e9bf       0xb2 mesh/core/libmesh_core_nrf52832_xxAA.a(beacon.c.obj)
                               0x1133 (size before relaxing)
 .debug_str     0x0000ea71       0x38 mesh/core/libmesh_core_nrf52832_xxAA.a(flash_manager_internal.c.obj)
                                0x7be (size before relaxing)
 .debug_str     0x0000eaa9      0x142 mesh/core/libmesh_core_nrf52832_xxAA.a(core_tx.c.obj)
                                0x8bd (size before relaxing)
 .debug_str     0x0000ebeb      0x6f5 mesh/core/libmesh_core_nrf52832_xxAA.a(heartbeat.c.obj)
                               0x203b (size before relaxing)
 .debug_str     0x0000f2e0      0x1d1 mesh/core/libmesh_core_nrf52832_xxAA.a(net_beacon.c.obj)
                                0xe84 (size before relaxing)
 .debug_str     0x0000f4b1      0x102 mesh/core/libmesh_core_nrf52832_xxAA.a(core_tx_adv.c.obj)
                               0x104b (size before relaxing)
 .debug_str     0x0000f5b3      0x182 mesh/core/libmesh_core_nrf52832_xxAA.a(ad_listener.c.obj)
                                0xb7f (size before relaxing)
 .debug_str     0x0000f735      0x14f mesh/core/libmesh_core_nrf52832_xxAA.a(ad_type_filter.c.obj)
                                0x9b9 (size before relaxing)
 .debug_str     0x0000f884      0x339 mesh/core/libmesh_core_nrf52832_xxAA.a(advertiser.c.obj)
                               0x150c (size before relaxing)
 .debug_str     0x0000fbbd      0x34d mesh/core/libmesh_core_nrf52832_xxAA.a(bearer_handler.c.obj)
                                0xf8f (size before relaxing)
 .debug_str     0x0000ff0a      0x1ac mesh/core/libmesh_core_nrf52832_xxAA.a(broadcast.c.obj)
                                0xf32 (size before relaxing)
 .debug_str     0x000100b6       0x72 mesh/core/libmesh_core_nrf52832_xxAA.a(filter_engine.c.obj)
                                0x826 (size before relaxing)
 .debug_str     0x00010128       0x79 mesh/core/libmesh_core_nrf52832_xxAA.a(radio_config.c.obj)
                                0x780 (size before relaxing)
 .debug_str     0x000101a1      0x45d mesh/core/libmesh_core_nrf52832_xxAA.a(scanner.c.obj)
                               0x18d8 (size before relaxing)
 .debug_str     0x000105fe       0xc0 mesh/core/libmesh_core_nrf52832_xxAA.a(internal_event.c.obj)
                                0xa93 (size before relaxing)
 .debug_str     0x000106be       0xc1 mesh/core/libmesh_core_nrf52832_xxAA.a(aes.c.obj)
                                0xa6d (size before relaxing)
 .debug_str     0x0001077f       0x71 mesh/core/libmesh_core_nrf52832_xxAA.a(msg_cache.c.obj)
                                0x6ea (size before relaxing)
 .debug_str     0x000107f0      0xd41 mesh/core/libmesh_core_nrf52832_xxAA.a(transport.c.obj)
                               0x31e5 (size before relaxing)
 .debug_str     0x00011531      0x2cd mesh/core/libmesh_core_nrf52832_xxAA.a(packet_buffer.c.obj)
                                0xc2f (size before relaxing)
 .debug_str     0x000117fe      0x362 mesh/core/libmesh_core_nrf52832_xxAA.a(flash_manager_defrag.c.obj)
                               0x1528 (size before relaxing)
 .debug_str     0x00011b60       0x69 mesh/core/libmesh_core_nrf52832_xxAA.a(fifo.c.obj)
                                0x6f5 (size before relaxing)
 .debug_str     0x00011bc9      0x343 mesh/core/libmesh_core_nrf52832_xxAA.a(mesh_flash.c.obj)
                                0xcf6 (size before relaxing)
 .debug_str     0x00011f0c       0x19 mesh/core/libmesh_core_nrf52832_xxAA.a(queue.c.obj)
                                0x69d (size before relaxing)
 .debug_str     0x00011f25       0xb2 mesh/core/libmesh_core_nrf52832_xxAA.a(aes_cmac.c.obj)
                                0x715 (size before relaxing)
 .debug_str     0x00011fd7       0x31 mesh/core/libmesh_core_nrf52832_xxAA.a(nrf_mesh_opt.c.obj)
                                0x921 (size before relaxing)
 .debug_str     0x00012008       0x43 mesh/core/libmesh_core_nrf52832_xxAA.a(msqueue.c.obj)
                                0x6d9 (size before relaxing)
 .debug_str     0x0001204b       0x9f mesh/core/libmesh_core_nrf52832_xxAA.a(replay_cache.c.obj)
                                0x6b0 (size before relaxing)
 .debug_str     0x000120ea       0x36 mesh/core/libmesh_core_nrf52832_xxAA.a(nrf_flash.c.obj)
                                0x6ec (size before relaxing)
 .debug_str     0x00012120      0x2bf external/rtt/librtt_nrf52832_xxAA.a(SEGGER_RTT.c.obj)
                                0x922 (size before relaxing)
 .debug_str     0x000123df       0xdf external/rtt/librtt_nrf52832_xxAA.a(SEGGER_RTT_printf.c.obj)
                                0x792 (size before relaxing)
 .debug_str     0x000124be      0x691 external/micro-ecc/libuECC_nrf52832_xxAA.a(uECC.c.obj)
                                0x880 (size before relaxing)

.debug_frame    0x00000000     0x675c
 .debug_frame   0x00000000      0x160 examples/light_switch/client/CMakeFiles/light_switch_client_nrf52832_xxAA_s132_5.0.0.dir/src/main.c.obj
 .debug_frame   0x00000160       0xc8 examples/light_switch/client/CMakeFiles/light_switch_client_nrf52832_xxAA_s132_5.0.0.dir/src/provisioner.c.obj
 .debug_frame   0x00000228      0x17c examples/light_switch/client/CMakeFiles/light_switch_client_nrf52832_xxAA_s132_5.0.0.dir/__/__/nrf_mesh_sdk.c.obj
 .debug_frame   0x000003a4       0x54 examples/light_switch/client/CMakeFiles/light_switch_client_nrf52832_xxAA_s132_5.0.0.dir/__/__/common/src/rtt_input.c.obj
 .debug_frame   0x000003f8       0x9c examples/light_switch/client/CMakeFiles/light_switch_client_nrf52832_xxAA_s132_5.0.0.dir/__/__/common/src/simple_hal.c.obj
 .debug_frame   0x00000494       0x30 examples/light_switch/client/CMakeFiles/light_switch_client_nrf52832_xxAA_s132_5.0.0.dir/__/__/nrf_mesh_weak.c.obj
 .debug_frame   0x000004c4       0xe4 examples/light_switch/client/CMakeFiles/light_switch_client_nrf52832_xxAA_s132_5.0.0.dir/__/__/__/models/simple_on_off/src/simple_on_off_client.c.obj
 .debug_frame   0x000005a8      0x5d8 examples/light_switch/client/CMakeFiles/light_switch_client_nrf52832_xxAA_s132_5.0.0.dir/__/__/__/models/config/src/config_client.c.obj
 .debug_frame   0x00000b80      0x1a8 examples/light_switch/client/CMakeFiles/light_switch_client_nrf52832_xxAA_s132_5.0.0.dir/__/__/__/models/health/src/health_client.c.obj
 .debug_frame   0x00000d28      0x114 examples/light_switch/client/CMakeFiles/light_switch_client_nrf52832_xxAA_s132_5.0.0.dir/__/__/__/mesh/access/src/access_publish.c.obj
 .debug_frame   0x00000e3c      0x554 examples/light_switch/client/CMakeFiles/light_switch_client_nrf52832_xxAA_s132_5.0.0.dir/__/__/__/mesh/access/src/access.c.obj
 .debug_frame   0x00001390      0x110 examples/light_switch/client/CMakeFiles/light_switch_client_nrf52832_xxAA_s132_5.0.0.dir/__/__/__/mesh/access/src/access_reliable.c.obj
 .debug_frame   0x000014a0      0xa88 examples/light_switch/client/CMakeFiles/light_switch_client_nrf52832_xxAA_s132_5.0.0.dir/__/__/__/mesh/access/src/device_state_manager.c.obj
 .debug_frame   0x00001f28      0x170 examples/light_switch/client/CMakeFiles/light_switch_client_nrf52832_xxAA_s132_5.0.0.dir/__/__/__/mesh/prov/src/prov_provisioner.c.obj
 .debug_frame   0x00002098      0x124 examples/light_switch/client/CMakeFiles/light_switch_client_nrf52832_xxAA_s132_5.0.0.dir/__/__/__/mesh/prov/src/nrf_mesh_prov.c.obj
 .debug_frame   0x000021bc      0x174 examples/light_switch/client/CMakeFiles/light_switch_client_nrf52832_xxAA_s132_5.0.0.dir/__/__/__/mesh/prov/src/provisioning.c.obj
 .debug_frame   0x00002330       0x84 examples/light_switch/client/CMakeFiles/light_switch_client_nrf52832_xxAA_s132_5.0.0.dir/__/__/__/mesh/prov/src/prov_beacon.c.obj
 .debug_frame   0x000023b4      0x150 examples/light_switch/client/CMakeFiles/light_switch_client_nrf52832_xxAA_s132_5.0.0.dir/__/__/__/mesh/prov/src/prov_utils.c.obj
 .debug_frame   0x00002504      0x328 examples/light_switch/client/CMakeFiles/light_switch_client_nrf52832_xxAA_s132_5.0.0.dir/__/__/__/mesh/prov/src/prov_bearer_adv.c.obj
 .debug_frame   0x0000282c       0x58 examples/light_switch/client/CMakeFiles/light_switch_client_nrf52832_xxAA_s132_5.0.0.dir/__/__/__/external/nRF5_SDK_14.2.0_17b948a/components/toolchain/system_nrf52.c.obj
 .debug_frame   0x00002884       0x4c mesh/core/libmesh_core_nrf52832_xxAA.a(nrf_mesh_configure.c.obj)
 .debug_frame   0x000028d0       0x6c mesh/core/libmesh_core_nrf52832_xxAA.a(event.c.obj)
 .debug_frame   0x0000293c       0xa0 mesh/core/libmesh_core_nrf52832_xxAA.a(packet_mgr.c.obj)
 .debug_frame   0x000029dc      0x264 mesh/core/libmesh_core_nrf52832_xxAA.a(net_state.c.obj)
 .debug_frame   0x00002c40       0x50 mesh/core/libmesh_core_nrf52832_xxAA.a(nrf_mesh_utils.c.obj)
 .debug_frame   0x00002c90      0x15c mesh/core/libmesh_core_nrf52832_xxAA.a(nrf_mesh.c.obj)
 .debug_frame   0x00002dec       0x58 mesh/core/libmesh_core_nrf52832_xxAA.a(hal.c.obj)
 .debug_frame   0x00002e44      0x13c mesh/core/libmesh_core_nrf52832_xxAA.a(timer_scheduler.c.obj)
 .debug_frame   0x00002f80      0x10c mesh/core/libmesh_core_nrf52832_xxAA.a(timer.c.obj)
 .debug_frame   0x0000308c       0x4c mesh/core/libmesh_core_nrf52832_xxAA.a(ticker.c.obj)
 .debug_frame   0x000030d8       0x84 mesh/core/libmesh_core_nrf52832_xxAA.a(rand.c.obj)
 .debug_frame   0x0000315c      0x1a0 mesh/core/libmesh_core_nrf52832_xxAA.a(timeslot.c.obj)
 .debug_frame   0x000032fc      0x1c8 mesh/core/libmesh_core_nrf52832_xxAA.a(bearer_event.c.obj)
 .debug_frame   0x000034c4      0x150 mesh/core/libmesh_core_nrf52832_xxAA.a(enc.c.obj)
 .debug_frame   0x00003614      0x14c mesh/core/libmesh_core_nrf52832_xxAA.a(network.c.obj)
 .debug_frame   0x00003760       0xb4 mesh/core/libmesh_core_nrf52832_xxAA.a(nrf_mesh_keygen.c.obj)
 .debug_frame   0x00003814       0xd4 mesh/core/libmesh_core_nrf52832_xxAA.a(list.c.obj)
 .debug_frame   0x000038e8       0xb0 mesh/core/libmesh_core_nrf52832_xxAA.a(log.c.obj)
 .debug_frame   0x00003998      0x33c mesh/core/libmesh_core_nrf52832_xxAA.a(flash_manager.c.obj)
 .debug_frame   0x00003cd4      0x10c mesh/core/libmesh_core_nrf52832_xxAA.a(ccm_soft.c.obj)
 .debug_frame   0x00003de0       0x98 mesh/core/libmesh_core_nrf52832_xxAA.a(beacon.c.obj)
 .debug_frame   0x00003e78       0x34 mesh/core/libmesh_core_nrf52832_xxAA.a(flash_manager_internal.c.obj)
 .debug_frame   0x00003eac       0xe8 mesh/core/libmesh_core_nrf52832_xxAA.a(core_tx.c.obj)
 .debug_frame   0x00003f94      0x164 mesh/core/libmesh_core_nrf52832_xxAA.a(heartbeat.c.obj)
 .debug_frame   0x000040f8       0xd0 mesh/core/libmesh_core_nrf52832_xxAA.a(net_beacon.c.obj)
 .debug_frame   0x000041c8      0x128 mesh/core/libmesh_core_nrf52832_xxAA.a(core_tx_adv.c.obj)
 .debug_frame   0x000042f0       0x6c mesh/core/libmesh_core_nrf52832_xxAA.a(ad_listener.c.obj)
 .debug_frame   0x0000435c       0xa8 mesh/core/libmesh_core_nrf52832_xxAA.a(ad_type_filter.c.obj)
 .debug_frame   0x00004404      0x284 mesh/core/libmesh_core_nrf52832_xxAA.a(advertiser.c.obj)
 .debug_frame   0x00004688      0x160 mesh/core/libmesh_core_nrf52832_xxAA.a(bearer_handler.c.obj)
 .debug_frame   0x000047e8       0x70 mesh/core/libmesh_core_nrf52832_xxAA.a(broadcast.c.obj)
 .debug_frame   0x00004858       0x7c mesh/core/libmesh_core_nrf52832_xxAA.a(filter_engine.c.obj)
 .debug_frame   0x000048d4       0x90 mesh/core/libmesh_core_nrf52832_xxAA.a(radio_config.c.obj)
 .debug_frame   0x00004964      0x2a4 mesh/core/libmesh_core_nrf52832_xxAA.a(scanner.c.obj)
 .debug_frame   0x00004c08       0x48 mesh/core/libmesh_core_nrf52832_xxAA.a(internal_event.c.obj)
 .debug_frame   0x00004c50       0x40 mesh/core/libmesh_core_nrf52832_xxAA.a(aes.c.obj)
 .debug_frame   0x00004c90       0x6c mesh/core/libmesh_core_nrf52832_xxAA.a(msg_cache.c.obj)
 .debug_frame   0x00004cfc      0x44c mesh/core/libmesh_core_nrf52832_xxAA.a(transport.c.obj)
 .debug_frame   0x00005148      0x184 mesh/core/libmesh_core_nrf52832_xxAA.a(packet_buffer.c.obj)
 .debug_frame   0x000052cc      0x250 mesh/core/libmesh_core_nrf52832_xxAA.a(flash_manager_defrag.c.obj)
 .debug_frame   0x0000551c       0xd0 mesh/core/libmesh_core_nrf52832_xxAA.a(fifo.c.obj)
 .debug_frame   0x000055ec      0x150 mesh/core/libmesh_core_nrf52832_xxAA.a(mesh_flash.c.obj)
 .debug_frame   0x0000573c       0x74 mesh/core/libmesh_core_nrf52832_xxAA.a(queue.c.obj)
 .debug_frame   0x000057b0       0xa4 mesh/core/libmesh_core_nrf52832_xxAA.a(aes_cmac.c.obj)
 .debug_frame   0x00005854       0x30 mesh/core/libmesh_core_nrf52832_xxAA.a(nrf_mesh_opt.c.obj)
 .debug_frame   0x00005884       0xb8 mesh/core/libmesh_core_nrf52832_xxAA.a(msqueue.c.obj)
 .debug_frame   0x0000593c       0xa0 mesh/core/libmesh_core_nrf52832_xxAA.a(replay_cache.c.obj)
 .debug_frame   0x000059dc       0x54 mesh/core/libmesh_core_nrf52832_xxAA.a(nrf_flash.c.obj)
 .debug_frame   0x00005a30      0x2d8 external/rtt/librtt_nrf52832_xxAA.a(SEGGER_RTT.c.obj)
 .debug_frame   0x00005d08       0xac external/rtt/librtt_nrf52832_xxAA.a(SEGGER_RTT_printf.c.obj)
 .debug_frame   0x00005db4      0x684 external/micro-ecc/libuECC_nrf52832_xxAA.a(uECC.c.obj)
 .debug_frame   0x00006438       0x2c c:/a/gcc_arm/6/bin/../lib/gcc/arm-none-eabi/6.3.1/thumb/v7e-m/fpv4-sp/hard\libgcc.a(_aeabi_uldivmod.o)
 .debug_frame   0x00006464       0x34 c:/a/gcc_arm/6/bin/../lib/gcc/arm-none-eabi/6.3.1/thumb/v7e-m/fpv4-sp/hard\libgcc.a(_udivmoddi4.o)
 .debug_frame   0x00006498       0x28 c:/a/gcc_arm/6/bin/../lib/gcc/arm-none-eabi/6.3.1/../../../../arm-none-eabi/lib/thumb/v7e-m/fpv4-sp/hard\libg_nano.a(lib_a-exit.o)
 .debug_frame   0x000064c0       0x2c c:/a/gcc_arm/6/bin/../lib/gcc/arm-none-eabi/6.3.1/../../../../arm-none-eabi/lib/thumb/v7e-m/fpv4-sp/hard\libg_nano.a(lib_a-init.o)
 .debug_frame   0x000064ec       0x30 c:/a/gcc_arm/6/bin/../lib/gcc/arm-none-eabi/6.3.1/../../../../arm-none-eabi/lib/thumb/v7e-m/fpv4-sp/hard\libg_nano.a(lib_a-malloc.o)
 .debug_frame   0x0000651c       0x28 c:/a/gcc_arm/6/bin/../lib/gcc/arm-none-eabi/6.3.1/../../../../arm-none-eabi/lib/thumb/v7e-m/fpv4-sp/hard\libg_nano.a(lib_a-memcmp.o)
 .debug_frame   0x00006544       0x28 c:/a/gcc_arm/6/bin/../lib/gcc/arm-none-eabi/6.3.1/../../../../arm-none-eabi/lib/thumb/v7e-m/fpv4-sp/hard\libg_nano.a(lib_a-memcpy-stub.o)
 .debug_frame   0x0000656c       0x20 c:/a/gcc_arm/6/bin/../lib/gcc/arm-none-eabi/6.3.1/../../../../arm-none-eabi/lib/thumb/v7e-m/fpv4-sp/hard\libg_nano.a(lib_a-memset.o)
 .debug_frame   0x0000658c       0x38 c:/a/gcc_arm/6/bin/../lib/gcc/arm-none-eabi/6.3.1/../../../../arm-none-eabi/lib/thumb/v7e-m/fpv4-sp/hard\libg_nano.a(lib_a-nano-freer.o)
 .debug_frame   0x000065c4       0x2c c:/a/gcc_arm/6/bin/../lib/gcc/arm-none-eabi/6.3.1/../../../../arm-none-eabi/lib/thumb/v7e-m/fpv4-sp/hard\libg_nano.a(lib_a-nano-mallocr.o)
 .debug_frame   0x000065f0       0x2c c:/a/gcc_arm/6/bin/../lib/gcc/arm-none-eabi/6.3.1/../../../../arm-none-eabi/lib/thumb/v7e-m/fpv4-sp/hard\libg_nano.a(lib_a-sbrkr.o)
 .debug_frame   0x0000661c       0x20 c:/a/gcc_arm/6/bin/../lib/gcc/arm-none-eabi/6.3.1/../../../../arm-none-eabi/lib/thumb/v7e-m/fpv4-sp/hard\libg_nano.a(lib_a-strcpy.o)
 .debug_frame   0x0000663c       0x34 c:/a/gcc_arm/6/bin/../lib/gcc/arm-none-eabi/6.3.1/../../../../arm-none-eabi/lib/thumb/v7e-m/fpv4-sp/hard\libg_nano.a(lib_a-strrchr.o)
 .debug_frame   0x00006670       0x30 c:/a/gcc_arm/6/bin/../lib/gcc/arm-none-eabi/6.3.1/../../../../arm-none-eabi/lib/thumb/v7e-m/fpv4-sp/hard\libg_nano.a(lib_a-mlock.o)
 .debug_frame   0x000066a0       0x5c c:/a/gcc_arm/6/bin/../lib/gcc/arm-none-eabi/6.3.1/../../../../arm-none-eabi/lib/thumb/v7e-m/fpv4-sp/hard\libg_nano.a(lib_a-reent.o)
 .debug_frame   0x000066fc       0x20 c:/a/gcc_arm/6/bin/../lib/gcc/arm-none-eabi/6.3.1/../../../../arm-none-eabi/lib/thumb/v7e-m/fpv4-sp/hard\libg_nano.a(lib_a-strchr.o)
 .debug_frame   0x0000671c       0x20 c:/a/gcc_arm/6/bin/../lib/gcc/arm-none-eabi/6.3.1/../../../../arm-none-eabi/lib/thumb/v7e-m/fpv4-sp/hard\libnosys.a(sbrk.o)
 .debug_frame   0x0000673c       0x20 c:/a/gcc_arm/6/bin/../lib/gcc/arm-none-eabi/6.3.1/../../../../arm-none-eabi/lib/thumb/v7e-m/fpv4-sp/hard\libnosys.a(_exit.o)
