Archive member included to satisfy reference by file (symbol)

external/rtt/librtt_nrf52840_xxAA.a(SEGGER_RTT.c.obj)
                              examples/light_switch/server/CMakeFiles/light_switch_server_nrf52840_xxAA_s140_6.0.0.dir/__/__/__/mesh/core/src/log.c.obj (SEGGER_RTT_Write)
external/rtt/librtt_nrf52840_xxAA.a(SEGGER_RTT_printf.c.obj)
                              examples/light_switch/server/CMakeFiles/light_switch_server_nrf52840_xxAA_s140_6.0.0.dir/__/__/__/mesh/core/src/log.c.obj (SEGGER_RTT_vprintf)
external/micro-ecc/libuECC_nrf52840_xxAA.a(uECC.c.obj)
                              examples/light_switch/server/CMakeFiles/light_switch_server_nrf52840_xxAA_s140_6.0.0.dir/__/__/__/mesh/prov/src/prov_utils.c.obj (uECC_secp256r1)
c:/mesh/arm_gcc/bin/../lib/gcc/arm-none-eabi/6.3.1/thumb/v7e-m/fpv4-sp/hard\libgcc.a(_aeabi_uldivmod.o)
                              examples/light_switch/server/CMakeFiles/light_switch_server_nrf52840_xxAA_s140_6.0.0.dir/__/__/common/src/rtt_input.c.obj (__aeabi_uldivmod)
c:/mesh/arm_gcc/bin/../lib/gcc/arm-none-eabi/6.3.1/thumb/v7e-m/fpv4-sp/hard\libgcc.a(_udivmoddi4.o)
                              c:/mesh/arm_gcc/bin/../lib/gcc/arm-none-eabi/6.3.1/thumb/v7e-m/fpv4-sp/hard\libgcc.a(_aeabi_uldivmod.o) (__udivmoddi4)
c:/mesh/arm_gcc/bin/../lib/gcc/arm-none-eabi/6.3.1/thumb/v7e-m/fpv4-sp/hard\libgcc.a(_dvmd_tls.o)
                              c:/mesh/arm_gcc/bin/../lib/gcc/arm-none-eabi/6.3.1/thumb/v7e-m/fpv4-sp/hard\libgcc.a(_aeabi_uldivmod.o) (__aeabi_ldiv0)
c:/mesh/arm_gcc/bin/../lib/gcc/arm-none-eabi/6.3.1/../../../../arm-none-eabi/lib/thumb/v7e-m/fpv4-sp/hard\libc_nano.a(lib_a-exit.o)
                              c:/mesh/arm_gcc/bin/../lib/gcc/arm-none-eabi/6.3.1/../../../../arm-none-eabi/lib/thumb/v7e-m/fpv4-sp/hard/crt0.o (exit)
c:/mesh/arm_gcc/bin/../lib/gcc/arm-none-eabi/6.3.1/../../../../arm-none-eabi/lib/thumb/v7e-m/fpv4-sp/hard\libc_nano.a(lib_a-impure.o)
                              c:/mesh/arm_gcc/bin/../lib/gcc/arm-none-eabi/6.3.1/../../../../arm-none-eabi/lib/thumb/v7e-m/fpv4-sp/hard\libc_nano.a(lib_a-exit.o) (_global_impure_ptr)
c:/mesh/arm_gcc/bin/../lib/gcc/arm-none-eabi/6.3.1/../../../../arm-none-eabi/lib/thumb/v7e-m/fpv4-sp/hard\libc_nano.a(lib_a-init.o)
                              c:/mesh/arm_gcc/bin/../lib/gcc/arm-none-eabi/6.3.1/../../../../arm-none-eabi/lib/thumb/v7e-m/fpv4-sp/hard/crt0.o (__libc_init_array)
c:/mesh/arm_gcc/bin/../lib/gcc/arm-none-eabi/6.3.1/../../../../arm-none-eabi/lib/thumb/v7e-m/fpv4-sp/hard\libc_nano.a(lib_a-malloc.o)
                              examples/light_switch/server/CMakeFiles/light_switch_server_nrf52840_xxAA_s140_6.0.0.dir/__/__/__/mesh/core/src/transport.c.obj (malloc)
c:/mesh/arm_gcc/bin/../lib/gcc/arm-none-eabi/6.3.1/../../../../arm-none-eabi/lib/thumb/v7e-m/fpv4-sp/hard\libc_nano.a(lib_a-memcmp.o)
                              examples/light_switch/server/CMakeFiles/light_switch_server_nrf52840_xxAA_s140_6.0.0.dir/__/__/__/mesh/core/src/cache.c.obj (memcmp)
c:/mesh/arm_gcc/bin/../lib/gcc/arm-none-eabi/6.3.1/../../../../arm-none-eabi/lib/thumb/v7e-m/fpv4-sp/hard\libc_nano.a(lib_a-memcpy-stub.o)
                              examples/light_switch/server/CMakeFiles/light_switch_server_nrf52840_xxAA_s140_6.0.0.dir/__/__/common/src/mesh_app_utils.c.obj (memcpy)
c:/mesh/arm_gcc/bin/../lib/gcc/arm-none-eabi/6.3.1/../../../../arm-none-eabi/lib/thumb/v7e-m/fpv4-sp/hard\libc_nano.a(lib_a-memset.o)
                              c:/mesh/arm_gcc/bin/../lib/gcc/arm-none-eabi/6.3.1/../../../../arm-none-eabi/lib/thumb/v7e-m/fpv4-sp/hard/crt0.o (memset)
c:/mesh/arm_gcc/bin/../lib/gcc/arm-none-eabi/6.3.1/../../../../arm-none-eabi/lib/thumb/v7e-m/fpv4-sp/hard\libc_nano.a(lib_a-nano-freer.o)
                              c:/mesh/arm_gcc/bin/../lib/gcc/arm-none-eabi/6.3.1/../../../../arm-none-eabi/lib/thumb/v7e-m/fpv4-sp/hard\libc_nano.a(lib_a-malloc.o) (_free_r)
c:/mesh/arm_gcc/bin/../lib/gcc/arm-none-eabi/6.3.1/../../../../arm-none-eabi/lib/thumb/v7e-m/fpv4-sp/hard\libc_nano.a(lib_a-nano-mallocr.o)
                              c:/mesh/arm_gcc/bin/../lib/gcc/arm-none-eabi/6.3.1/../../../../arm-none-eabi/lib/thumb/v7e-m/fpv4-sp/hard\libc_nano.a(lib_a-malloc.o) (_malloc_r)
c:/mesh/arm_gcc/bin/../lib/gcc/arm-none-eabi/6.3.1/../../../../arm-none-eabi/lib/thumb/v7e-m/fpv4-sp/hard\libc_nano.a(lib_a-sbrkr.o)
                              c:/mesh/arm_gcc/bin/../lib/gcc/arm-none-eabi/6.3.1/../../../../arm-none-eabi/lib/thumb/v7e-m/fpv4-sp/hard\libc_nano.a(lib_a-nano-mallocr.o) (_sbrk_r)
c:/mesh/arm_gcc/bin/../lib/gcc/arm-none-eabi/6.3.1/../../../../arm-none-eabi/lib/thumb/v7e-m/fpv4-sp/hard\libc_nano.a(lib_a-strcpy.o)
                              external/rtt/librtt_nrf52840_xxAA.a(SEGGER_RTT.c.obj) (strcpy)
c:/mesh/arm_gcc/bin/../lib/gcc/arm-none-eabi/6.3.1/../../../../arm-none-eabi/lib/thumb/v7e-m/fpv4-sp/hard\libc_nano.a(lib_a-strlen.o)
                              examples/light_switch/server/CMakeFiles/light_switch_server_nrf52840_xxAA_s140_6.0.0.dir/__/__/__/mesh/core/src/uri.c.obj (strlen)
c:/mesh/arm_gcc/bin/../lib/gcc/arm-none-eabi/6.3.1/../../../../arm-none-eabi/lib/thumb/v7e-m/fpv4-sp/hard\libc_nano.a(lib_a-strrchr.o)
                              examples/light_switch/server/CMakeFiles/light_switch_server_nrf52840_xxAA_s140_6.0.0.dir/src/main.c.obj (strrchr)
c:/mesh/arm_gcc/bin/../lib/gcc/arm-none-eabi/6.3.1/../../../../arm-none-eabi/lib/thumb/v7e-m/fpv4-sp/hard\libc_nano.a(lib_a-mlock.o)
                              c:/mesh/arm_gcc/bin/../lib/gcc/arm-none-eabi/6.3.1/../../../../arm-none-eabi/lib/thumb/v7e-m/fpv4-sp/hard\libc_nano.a(lib_a-nano-freer.o) (__malloc_lock)
c:/mesh/arm_gcc/bin/../lib/gcc/arm-none-eabi/6.3.1/../../../../arm-none-eabi/lib/thumb/v7e-m/fpv4-sp/hard\libc_nano.a(lib_a-reent.o)
                              c:/mesh/arm_gcc/bin/../lib/gcc/arm-none-eabi/6.3.1/../../../../arm-none-eabi/lib/thumb/v7e-m/fpv4-sp/hard\libc_nano.a(lib_a-sbrkr.o) (errno)
c:/mesh/arm_gcc/bin/../lib/gcc/arm-none-eabi/6.3.1/../../../../arm-none-eabi/lib/thumb/v7e-m/fpv4-sp/hard\libc_nano.a(lib_a-strchr.o)
                              c:/mesh/arm_gcc/bin/../lib/gcc/arm-none-eabi/6.3.1/../../../../arm-none-eabi/lib/thumb/v7e-m/fpv4-sp/hard\libc_nano.a(lib_a-strrchr.o) (strchr)
c:/mesh/arm_gcc/bin/../lib/gcc/arm-none-eabi/6.3.1/../../../../arm-none-eabi/lib/thumb/v7e-m/fpv4-sp/hard\libnosys.a(sbrk.o)
                              c:/mesh/arm_gcc/bin/../lib/gcc/arm-none-eabi/6.3.1/../../../../arm-none-eabi/lib/thumb/v7e-m/fpv4-sp/hard\libc_nano.a(lib_a-sbrkr.o) (_sbrk)
c:/mesh/arm_gcc/bin/../lib/gcc/arm-none-eabi/6.3.1/../../../../arm-none-eabi/lib/thumb/v7e-m/fpv4-sp/hard\libnosys.a(_exit.o)
                              c:/mesh/arm_gcc/bin/../lib/gcc/arm-none-eabi/6.3.1/../../../../arm-none-eabi/lib/thumb/v7e-m/fpv4-sp/hard\libc_nano.a(lib_a-exit.o) (_exit)

Allocating common symbols
Common symbol       size              file

nrf_nvic_state      0xc               examples/light_switch/server/CMakeFiles/light_switch_server_nrf52840_xxAA_s140_6.0.0.dir/__/__/common/src/mesh_softdevice_init.c.obj
m_packet            0x24              examples/light_switch/server/CMakeFiles/light_switch_server_nrf52840_xxAA_s140_6.0.0.dir/__/__/__/mesh/core/src/core_tx.c.obj
errno               0x4               c:/mesh/arm_gcc/bin/../lib/gcc/arm-none-eabi/6.3.1/../../../../arm-none-eabi/lib/thumb/v7e-m/fpv4-sp/hard\libc_nano.a(lib_a-reent.o)
_SEGGER_RTT         0x78              external/rtt/librtt_nrf52840_xxAA.a(SEGGER_RTT.c.obj)

Discarded input sections

 .text          0x00000000        0x0 c:/mesh/arm_gcc/bin/../lib/gcc/arm-none-eabi/6.3.1/thumb/v7e-m/fpv4-sp/hard/crti.o
 .data          0x00000000        0x0 c:/mesh/arm_gcc/bin/../lib/gcc/arm-none-eabi/6.3.1/thumb/v7e-m/fpv4-sp/hard/crti.o
 .bss           0x00000000        0x0 c:/mesh/arm_gcc/bin/../lib/gcc/arm-none-eabi/6.3.1/thumb/v7e-m/fpv4-sp/hard/crti.o
 .data          0x00000000        0x4 c:/mesh/arm_gcc/bin/../lib/gcc/arm-none-eabi/6.3.1/thumb/v7e-m/fpv4-sp/hard/crtbegin.o
 .data          0x00000000        0x0 c:/mesh/arm_gcc/bin/../lib/gcc/arm-none-eabi/6.3.1/../../../../arm-none-eabi/lib/thumb/v7e-m/fpv4-sp/hard/crt0.o
 .bss           0x00000000        0x0 c:/mesh/arm_gcc/bin/../lib/gcc/arm-none-eabi/6.3.1/../../../../arm-none-eabi/lib/thumb/v7e-m/fpv4-sp/hard/crt0.o
 .ARM.extab     0x00000000        0x0 c:/mesh/arm_gcc/bin/../lib/gcc/arm-none-eabi/6.3.1/../../../../arm-none-eabi/lib/thumb/v7e-m/fpv4-sp/hard/crt0.o
 .text          0x00000000        0x0 examples/light_switch/server/CMakeFiles/light_switch_server_nrf52840_xxAA_s140_6.0.0.dir/src/main.c.obj
 .data          0x00000000        0x0 examples/light_switch/server/CMakeFiles/light_switch_server_nrf52840_xxAA_s140_6.0.0.dir/src/main.c.obj
 .bss           0x00000000        0x0 examples/light_switch/server/CMakeFiles/light_switch_server_nrf52840_xxAA_s140_6.0.0.dir/src/main.c.obj
 .text          0x00000000        0x0 examples/light_switch/server/CMakeFiles/light_switch_server_nrf52840_xxAA_s140_6.0.0.dir/__/__/__/mesh/stack/src/mesh_stack.c.obj
 .data          0x00000000        0x0 examples/light_switch/server/CMakeFiles/light_switch_server_nrf52840_xxAA_s140_6.0.0.dir/__/__/__/mesh/stack/src/mesh_stack.c.obj
 .bss           0x00000000        0x0 examples/light_switch/server/CMakeFiles/light_switch_server_nrf52840_xxAA_s140_6.0.0.dir/__/__/__/mesh/stack/src/mesh_stack.c.obj
 .text.mesh_stack_is_device_provisioned
                0x00000000       0x1c examples/light_switch/server/CMakeFiles/light_switch_server_nrf52840_xxAA_s140_6.0.0.dir/__/__/__/mesh/stack/src/mesh_stack.c.obj
 .text          0x00000000        0x0 examples/light_switch/server/CMakeFiles/light_switch_server_nrf52840_xxAA_s140_6.0.0.dir/__/__/common/src/mesh_softdevice_init.c.obj
 .data          0x00000000        0x0 examples/light_switch/server/CMakeFiles/light_switch_server_nrf52840_xxAA_s140_6.0.0.dir/__/__/common/src/mesh_softdevice_init.c.obj
 .bss           0x00000000        0x0 examples/light_switch/server/CMakeFiles/light_switch_server_nrf52840_xxAA_s140_6.0.0.dir/__/__/common/src/mesh_softdevice_init.c.obj
 .text          0x00000000        0x0 examples/light_switch/server/CMakeFiles/light_switch_server_nrf52840_xxAA_s140_6.0.0.dir/__/__/common/src/mesh_provisionee.c.obj
 .data          0x00000000        0x0 examples/light_switch/server/CMakeFiles/light_switch_server_nrf52840_xxAA_s140_6.0.0.dir/__/__/common/src/mesh_provisionee.c.obj
 .bss           0x00000000        0x0 examples/light_switch/server/CMakeFiles/light_switch_server_nrf52840_xxAA_s140_6.0.0.dir/__/__/common/src/mesh_provisionee.c.obj
 .text          0x00000000        0x0 examples/light_switch/server/CMakeFiles/light_switch_server_nrf52840_xxAA_s140_6.0.0.dir/__/__/common/src/rtt_input.c.obj
 .data          0x00000000        0x0 examples/light_switch/server/CMakeFiles/light_switch_server_nrf52840_xxAA_s140_6.0.0.dir/__/__/common/src/rtt_input.c.obj
 .bss           0x00000000        0x0 examples/light_switch/server/CMakeFiles/light_switch_server_nrf52840_xxAA_s140_6.0.0.dir/__/__/common/src/rtt_input.c.obj
 .text.rtt_input_disable
                0x00000000       0x28 examples/light_switch/server/CMakeFiles/light_switch_server_nrf52840_xxAA_s140_6.0.0.dir/__/__/common/src/rtt_input.c.obj
 .text          0x00000000        0x0 examples/light_switch/server/CMakeFiles/light_switch_server_nrf52840_xxAA_s140_6.0.0.dir/__/__/common/src/simple_hal.c.obj
 .data          0x00000000        0x0 examples/light_switch/server/CMakeFiles/light_switch_server_nrf52840_xxAA_s140_6.0.0.dir/__/__/common/src/simple_hal.c.obj
 .bss           0x00000000        0x0 examples/light_switch/server/CMakeFiles/light_switch_server_nrf52840_xxAA_s140_6.0.0.dir/__/__/common/src/simple_hal.c.obj
 .text          0x00000000        0x0 examples/light_switch/server/CMakeFiles/light_switch_server_nrf52840_xxAA_s140_6.0.0.dir/__/__/common/src/mesh_app_utils.c.obj
 .data          0x00000000        0x0 examples/light_switch/server/CMakeFiles/light_switch_server_nrf52840_xxAA_s140_6.0.0.dir/__/__/common/src/mesh_app_utils.c.obj
 .bss           0x00000000        0x0 examples/light_switch/server/CMakeFiles/light_switch_server_nrf52840_xxAA_s140_6.0.0.dir/__/__/common/src/mesh_app_utils.c.obj
 .text          0x00000000        0x0 examples/light_switch/server/CMakeFiles/light_switch_server_nrf52840_xxAA_s140_6.0.0.dir/__/__/nrf_mesh_weak.c.obj
 .data          0x00000000        0x0 examples/light_switch/server/CMakeFiles/light_switch_server_nrf52840_xxAA_s140_6.0.0.dir/__/__/nrf_mesh_weak.c.obj
 .bss           0x00000000        0x0 examples/light_switch/server/CMakeFiles/light_switch_server_nrf52840_xxAA_s140_6.0.0.dir/__/__/nrf_mesh_weak.c.obj
 .text._weak_handler_ptr
                0x00000000        0x4 examples/light_switch/server/CMakeFiles/light_switch_server_nrf52840_xxAA_s140_6.0.0.dir/__/__/nrf_mesh_weak.c.obj
 .text          0x00000000        0x0 examples/light_switch/server/CMakeFiles/light_switch_server_nrf52840_xxAA_s140_6.0.0.dir/__/__/common/src/app_error_weak.c.obj
 .data          0x00000000        0x0 examples/light_switch/server/CMakeFiles/light_switch_server_nrf52840_xxAA_s140_6.0.0.dir/__/__/common/src/app_error_weak.c.obj
 .bss           0x00000000        0x0 examples/light_switch/server/CMakeFiles/light_switch_server_nrf52840_xxAA_s140_6.0.0.dir/__/__/common/src/app_error_weak.c.obj
 .text          0x00000000        0x0 examples/light_switch/server/CMakeFiles/light_switch_server_nrf52840_xxAA_s140_6.0.0.dir/__/__/common/src/assertion_handler_weak.c.obj
 .data          0x00000000        0x0 examples/light_switch/server/CMakeFiles/light_switch_server_nrf52840_xxAA_s140_6.0.0.dir/__/__/common/src/assertion_handler_weak.c.obj
 .bss           0x00000000        0x0 examples/light_switch/server/CMakeFiles/light_switch_server_nrf52840_xxAA_s140_6.0.0.dir/__/__/common/src/assertion_handler_weak.c.obj
 .text          0x00000000        0x0 examples/light_switch/server/CMakeFiles/light_switch_server_nrf52840_xxAA_s140_6.0.0.dir/__/__/__/mesh/core/src/internal_event.c.obj
 .data          0x00000000        0x0 examples/light_switch/server/CMakeFiles/light_switch_server_nrf52840_xxAA_s140_6.0.0.dir/__/__/__/mesh/core/src/internal_event.c.obj
 .bss           0x00000000        0x0 examples/light_switch/server/CMakeFiles/light_switch_server_nrf52840_xxAA_s140_6.0.0.dir/__/__/__/mesh/core/src/internal_event.c.obj
 .comment       0x00000000       0x80 examples/light_switch/server/CMakeFiles/light_switch_server_nrf52840_xxAA_s140_6.0.0.dir/__/__/__/mesh/core/src/internal_event.c.obj
 .ARM.attributes
                0x00000000       0x39 examples/light_switch/server/CMakeFiles/light_switch_server_nrf52840_xxAA_s140_6.0.0.dir/__/__/__/mesh/core/src/internal_event.c.obj
 .text          0x00000000        0x0 examples/light_switch/server/CMakeFiles/light_switch_server_nrf52840_xxAA_s140_6.0.0.dir/__/__/__/mesh/core/src/nrf_mesh_configure.c.obj
 .data          0x00000000        0x0 examples/light_switch/server/CMakeFiles/light_switch_server_nrf52840_xxAA_s140_6.0.0.dir/__/__/__/mesh/core/src/nrf_mesh_configure.c.obj
 .bss           0x00000000        0x0 examples/light_switch/server/CMakeFiles/light_switch_server_nrf52840_xxAA_s140_6.0.0.dir/__/__/__/mesh/core/src/nrf_mesh_configure.c.obj
 .text          0x00000000        0x0 examples/light_switch/server/CMakeFiles/light_switch_server_nrf52840_xxAA_s140_6.0.0.dir/__/__/__/mesh/core/src/aes.c.obj
 .data          0x00000000        0x0 examples/light_switch/server/CMakeFiles/light_switch_server_nrf52840_xxAA_s140_6.0.0.dir/__/__/__/mesh/core/src/aes.c.obj
 .bss           0x00000000        0x0 examples/light_switch/server/CMakeFiles/light_switch_server_nrf52840_xxAA_s140_6.0.0.dir/__/__/__/mesh/core/src/aes.c.obj
 .text          0x00000000        0x0 examples/light_switch/server/CMakeFiles/light_switch_server_nrf52840_xxAA_s140_6.0.0.dir/__/__/__/mesh/core/src/msg_cache.c.obj
 .data          0x00000000        0x0 examples/light_switch/server/CMakeFiles/light_switch_server_nrf52840_xxAA_s140_6.0.0.dir/__/__/__/mesh/core/src/msg_cache.c.obj
 .bss           0x00000000        0x0 examples/light_switch/server/CMakeFiles/light_switch_server_nrf52840_xxAA_s140_6.0.0.dir/__/__/__/mesh/core/src/msg_cache.c.obj
 .text.msg_cache_clear
                0x00000000       0x18 examples/light_switch/server/CMakeFiles/light_switch_server_nrf52840_xxAA_s140_6.0.0.dir/__/__/__/mesh/core/src/msg_cache.c.obj
 .text          0x00000000        0x0 examples/light_switch/server/CMakeFiles/light_switch_server_nrf52840_xxAA_s140_6.0.0.dir/__/__/__/mesh/core/src/transport.c.obj
 .data          0x00000000        0x0 examples/light_switch/server/CMakeFiles/light_switch_server_nrf52840_xxAA_s140_6.0.0.dir/__/__/__/mesh/core/src/transport.c.obj
 .bss           0x00000000        0x0 examples/light_switch/server/CMakeFiles/light_switch_server_nrf52840_xxAA_s140_6.0.0.dir/__/__/__/mesh/core/src/transport.c.obj
 .text.transport_sar_mem_funcs_reset
                0x00000000       0x30 examples/light_switch/server/CMakeFiles/light_switch_server_nrf52840_xxAA_s140_6.0.0.dir/__/__/__/mesh/core/src/transport.c.obj
 .text.transport_sar_mem_funcs_set
                0x00000000       0x48 examples/light_switch/server/CMakeFiles/light_switch_server_nrf52840_xxAA_s140_6.0.0.dir/__/__/__/mesh/core/src/transport.c.obj
 .text          0x00000000        0x0 examples/light_switch/server/CMakeFiles/light_switch_server_nrf52840_xxAA_s140_6.0.0.dir/__/__/__/mesh/core/src/event.c.obj
 .data          0x00000000        0x0 examples/light_switch/server/CMakeFiles/light_switch_server_nrf52840_xxAA_s140_6.0.0.dir/__/__/__/mesh/core/src/event.c.obj
 .bss           0x00000000        0x0 examples/light_switch/server/CMakeFiles/light_switch_server_nrf52840_xxAA_s140_6.0.0.dir/__/__/__/mesh/core/src/event.c.obj
 .text          0x00000000        0x0 examples/light_switch/server/CMakeFiles/light_switch_server_nrf52840_xxAA_s140_6.0.0.dir/__/__/__/mesh/core/src/packet_buffer.c.obj
 .data          0x00000000        0x0 examples/light_switch/server/CMakeFiles/light_switch_server_nrf52840_xxAA_s140_6.0.0.dir/__/__/__/mesh/core/src/packet_buffer.c.obj
 .bss           0x00000000        0x0 examples/light_switch/server/CMakeFiles/light_switch_server_nrf52840_xxAA_s140_6.0.0.dir/__/__/__/mesh/core/src/packet_buffer.c.obj
 .text.packet_buffer_max_packet_len_get
                0x00000000       0x24 examples/light_switch/server/CMakeFiles/light_switch_server_nrf52840_xxAA_s140_6.0.0.dir/__/__/__/mesh/core/src/packet_buffer.c.obj
 .text          0x00000000        0x0 examples/light_switch/server/CMakeFiles/light_switch_server_nrf52840_xxAA_s140_6.0.0.dir/__/__/__/mesh/core/src/flash_manager_defrag.c.obj
 .data          0x00000000        0x0 examples/light_switch/server/CMakeFiles/light_switch_server_nrf52840_xxAA_s140_6.0.0.dir/__/__/__/mesh/core/src/flash_manager_defrag.c.obj
 .bss           0x00000000        0x0 examples/light_switch/server/CMakeFiles/light_switch_server_nrf52840_xxAA_s140_6.0.0.dir/__/__/__/mesh/core/src/flash_manager_defrag.c.obj
 .text.flash_manager_defragging
                0x00000000       0x44 examples/light_switch/server/CMakeFiles/light_switch_server_nrf52840_xxAA_s140_6.0.0.dir/__/__/__/mesh/core/src/flash_manager_defrag.c.obj
 .text          0x00000000        0x0 examples/light_switch/server/CMakeFiles/light_switch_server_nrf52840_xxAA_s140_6.0.0.dir/__/__/__/mesh/core/src/fifo.c.obj
 .data          0x00000000        0x0 examples/light_switch/server/CMakeFiles/light_switch_server_nrf52840_xxAA_s140_6.0.0.dir/__/__/__/mesh/core/src/fifo.c.obj
 .bss           0x00000000        0x0 examples/light_switch/server/CMakeFiles/light_switch_server_nrf52840_xxAA_s140_6.0.0.dir/__/__/__/mesh/core/src/fifo.c.obj
 .text.fifo_peek_at
                0x00000000       0x54 examples/light_switch/server/CMakeFiles/light_switch_server_nrf52840_xxAA_s140_6.0.0.dir/__/__/__/mesh/core/src/fifo.c.obj
 .text.fifo_peek
                0x00000000       0x50 examples/light_switch/server/CMakeFiles/light_switch_server_nrf52840_xxAA_s140_6.0.0.dir/__/__/__/mesh/core/src/fifo.c.obj
 .text.fifo_flush
                0x00000000        0x8 examples/light_switch/server/CMakeFiles/light_switch_server_nrf52840_xxAA_s140_6.0.0.dir/__/__/__/mesh/core/src/fifo.c.obj
 .text.fifo_get_len
                0x00000000        0x8 examples/light_switch/server/CMakeFiles/light_switch_server_nrf52840_xxAA_s140_6.0.0.dir/__/__/__/mesh/core/src/fifo.c.obj
 .text.fifo_is_full
                0x00000000       0x14 examples/light_switch/server/CMakeFiles/light_switch_server_nrf52840_xxAA_s140_6.0.0.dir/__/__/__/mesh/core/src/fifo.c.obj
 .text.fifo_is_empty
                0x00000000       0x10 examples/light_switch/server/CMakeFiles/light_switch_server_nrf52840_xxAA_s140_6.0.0.dir/__/__/__/mesh/core/src/fifo.c.obj
 .text          0x00000000        0x0 examples/light_switch/server/CMakeFiles/light_switch_server_nrf52840_xxAA_s140_6.0.0.dir/__/__/__/mesh/core/src/nrf_flash.c.obj
 .data          0x00000000        0x0 examples/light_switch/server/CMakeFiles/light_switch_server_nrf52840_xxAA_s140_6.0.0.dir/__/__/__/mesh/core/src/nrf_flash.c.obj
 .bss           0x00000000        0x0 examples/light_switch/server/CMakeFiles/light_switch_server_nrf52840_xxAA_s140_6.0.0.dir/__/__/__/mesh/core/src/nrf_flash.c.obj
 .text          0x00000000        0x0 examples/light_switch/server/CMakeFiles/light_switch_server_nrf52840_xxAA_s140_6.0.0.dir/__/__/__/mesh/core/src/packet_mgr.c.obj
 .data          0x00000000        0x0 examples/light_switch/server/CMakeFiles/light_switch_server_nrf52840_xxAA_s140_6.0.0.dir/__/__/__/mesh/core/src/packet_mgr.c.obj
 .bss           0x00000000        0x0 examples/light_switch/server/CMakeFiles/light_switch_server_nrf52840_xxAA_s140_6.0.0.dir/__/__/__/mesh/core/src/packet_mgr.c.obj
 .text.packet_mgr_alloc
                0x00000000      0x1a0 examples/light_switch/server/CMakeFiles/light_switch_server_nrf52840_xxAA_s140_6.0.0.dir/__/__/__/mesh/core/src/packet_mgr.c.obj
 .text.packet_mgr_free
                0x00000000       0x5c examples/light_switch/server/CMakeFiles/light_switch_server_nrf52840_xxAA_s140_6.0.0.dir/__/__/__/mesh/core/src/packet_mgr.c.obj
 .text.packet_mgr_get_free_space
                0x00000000       0x1c examples/light_switch/server/CMakeFiles/light_switch_server_nrf52840_xxAA_s140_6.0.0.dir/__/__/__/mesh/core/src/packet_mgr.c.obj
 .text.packet_mgr_refcount_get
                0x00000000        0x8 examples/light_switch/server/CMakeFiles/light_switch_server_nrf52840_xxAA_s140_6.0.0.dir/__/__/__/mesh/core/src/packet_mgr.c.obj
 .text.packet_mgr_size_get
                0x00000000        0x8 examples/light_switch/server/CMakeFiles/light_switch_server_nrf52840_xxAA_s140_6.0.0.dir/__/__/__/mesh/core/src/packet_mgr.c.obj
 .text          0x00000000        0x0 examples/light_switch/server/CMakeFiles/light_switch_server_nrf52840_xxAA_s140_6.0.0.dir/__/__/__/mesh/core/src/net_state.c.obj
 .data          0x00000000        0x0 examples/light_switch/server/CMakeFiles/light_switch_server_nrf52840_xxAA_s140_6.0.0.dir/__/__/__/mesh/core/src/net_state.c.obj
 .bss           0x00000000        0x0 examples/light_switch/server/CMakeFiles/light_switch_server_nrf52840_xxAA_s140_6.0.0.dir/__/__/__/mesh/core/src/net_state.c.obj
 .text.net_state_iv_update_start
                0x00000000       0x90 examples/light_switch/server/CMakeFiles/light_switch_server_nrf52840_xxAA_s140_6.0.0.dir/__/__/__/mesh/core/src/net_state.c.obj
 .text.net_state_iv_update_test_mode_set
                0x00000000        0xc examples/light_switch/server/CMakeFiles/light_switch_server_nrf52840_xxAA_s140_6.0.0.dir/__/__/__/mesh/core/src/net_state.c.obj
 .text.net_state_test_mode_transition_run
                0x00000000      0x170 examples/light_switch/server/CMakeFiles/light_switch_server_nrf52840_xxAA_s140_6.0.0.dir/__/__/__/mesh/core/src/net_state.c.obj
 .text          0x00000000        0x0 examples/light_switch/server/CMakeFiles/light_switch_server_nrf52840_xxAA_s140_6.0.0.dir/__/__/__/mesh/core/src/mesh_flash.c.obj
 .data          0x00000000        0x0 examples/light_switch/server/CMakeFiles/light_switch_server_nrf52840_xxAA_s140_6.0.0.dir/__/__/__/mesh/core/src/mesh_flash.c.obj
 .bss           0x00000000        0x0 examples/light_switch/server/CMakeFiles/light_switch_server_nrf52840_xxAA_s140_6.0.0.dir/__/__/__/mesh/core/src/mesh_flash.c.obj
 .text.mesh_flash_op_available_slots
                0x00000000       0x2c examples/light_switch/server/CMakeFiles/light_switch_server_nrf52840_xxAA_s140_6.0.0.dir/__/__/__/mesh/core/src/mesh_flash.c.obj
 .text.mesh_flash_in_progress
                0x00000000       0x34 examples/light_switch/server/CMakeFiles/light_switch_server_nrf52840_xxAA_s140_6.0.0.dir/__/__/__/mesh/core/src/mesh_flash.c.obj
 .text.mesh_flash_set_suspended
                0x00000000      0x228 examples/light_switch/server/CMakeFiles/light_switch_server_nrf52840_xxAA_s140_6.0.0.dir/__/__/__/mesh/core/src/mesh_flash.c.obj
 .bss.suspend_count.10416
                0x00000000        0x4 examples/light_switch/server/CMakeFiles/light_switch_server_nrf52840_xxAA_s140_6.0.0.dir/__/__/__/mesh/core/src/mesh_flash.c.obj
 .text          0x00000000        0x0 examples/light_switch/server/CMakeFiles/light_switch_server_nrf52840_xxAA_s140_6.0.0.dir/__/__/__/mesh/core/src/nrf_mesh_utils.c.obj
 .data          0x00000000        0x0 examples/light_switch/server/CMakeFiles/light_switch_server_nrf52840_xxAA_s140_6.0.0.dir/__/__/__/mesh/core/src/nrf_mesh_utils.c.obj
 .bss           0x00000000        0x0 examples/light_switch/server/CMakeFiles/light_switch_server_nrf52840_xxAA_s140_6.0.0.dir/__/__/__/mesh/core/src/nrf_mesh_utils.c.obj
 .text.nrf_mesh_rand_get
                0x00000000       0x10 examples/light_switch/server/CMakeFiles/light_switch_server_nrf52840_xxAA_s140_6.0.0.dir/__/__/__/mesh/core/src/nrf_mesh_utils.c.obj
 .text.nrf_mesh_gap_address_type_get
                0x00000000       0x34 examples/light_switch/server/CMakeFiles/light_switch_server_nrf52840_xxAA_s140_6.0.0.dir/__/__/__/mesh/core/src/nrf_mesh_utils.c.obj
 .text          0x00000000        0x0 examples/light_switch/server/CMakeFiles/light_switch_server_nrf52840_xxAA_s140_6.0.0.dir/__/__/__/mesh/core/src/nrf_mesh.c.obj
 .data          0x00000000        0x0 examples/light_switch/server/CMakeFiles/light_switch_server_nrf52840_xxAA_s140_6.0.0.dir/__/__/__/mesh/core/src/nrf_mesh.c.obj
 .bss           0x00000000        0x0 examples/light_switch/server/CMakeFiles/light_switch_server_nrf52840_xxAA_s140_6.0.0.dir/__/__/__/mesh/core/src/nrf_mesh.c.obj
 .text.nrf_mesh_disable
                0x00000000       0x2c examples/light_switch/server/CMakeFiles/light_switch_server_nrf52840_xxAA_s140_6.0.0.dir/__/__/__/mesh/core/src/nrf_mesh.c.obj
 .text.nrf_mesh_process
                0x00000000        0x4 examples/light_switch/server/CMakeFiles/light_switch_server_nrf52840_xxAA_s140_6.0.0.dir/__/__/__/mesh/core/src/nrf_mesh.c.obj
 .text.nrf_mesh_evt_handler_remove
                0x00000000        0x4 examples/light_switch/server/CMakeFiles/light_switch_server_nrf52840_xxAA_s140_6.0.0.dir/__/__/__/mesh/core/src/nrf_mesh.c.obj
 .text.nrf_mesh_rx_cb_set
                0x00000000        0xc examples/light_switch/server/CMakeFiles/light_switch_server_nrf52840_xxAA_s140_6.0.0.dir/__/__/__/mesh/core/src/nrf_mesh.c.obj
 .text.nrf_mesh_rx_cb_clear
                0x00000000        0xc examples/light_switch/server/CMakeFiles/light_switch_server_nrf52840_xxAA_s140_6.0.0.dir/__/__/__/mesh/core/src/nrf_mesh.c.obj
 .text          0x00000000        0x0 examples/light_switch/server/CMakeFiles/light_switch_server_nrf52840_xxAA_s140_6.0.0.dir/__/__/__/mesh/core/src/queue.c.obj
 .data          0x00000000        0x0 examples/light_switch/server/CMakeFiles/light_switch_server_nrf52840_xxAA_s140_6.0.0.dir/__/__/__/mesh/core/src/queue.c.obj
 .bss           0x00000000        0x0 examples/light_switch/server/CMakeFiles/light_switch_server_nrf52840_xxAA_s140_6.0.0.dir/__/__/__/mesh/core/src/queue.c.obj
 .text          0x00000000        0x0 examples/light_switch/server/CMakeFiles/light_switch_server_nrf52840_xxAA_s140_6.0.0.dir/__/__/__/mesh/core/src/hal.c.obj
 .data          0x00000000        0x0 examples/light_switch/server/CMakeFiles/light_switch_server_nrf52840_xxAA_s140_6.0.0.dir/__/__/__/mesh/core/src/hal.c.obj
 .bss           0x00000000        0x0 examples/light_switch/server/CMakeFiles/light_switch_server_nrf52840_xxAA_s140_6.0.0.dir/__/__/__/mesh/core/src/hal.c.obj
 .text          0x00000000        0x0 examples/light_switch/server/CMakeFiles/light_switch_server_nrf52840_xxAA_s140_6.0.0.dir/__/__/__/mesh/core/src/aes_cmac.c.obj
 .data          0x00000000        0x0 examples/light_switch/server/CMakeFiles/light_switch_server_nrf52840_xxAA_s140_6.0.0.dir/__/__/__/mesh/core/src/aes_cmac.c.obj
 .bss           0x00000000        0x0 examples/light_switch/server/CMakeFiles/light_switch_server_nrf52840_xxAA_s140_6.0.0.dir/__/__/__/mesh/core/src/aes_cmac.c.obj
 .text          0x00000000        0x0 examples/light_switch/server/CMakeFiles/light_switch_server_nrf52840_xxAA_s140_6.0.0.dir/__/__/__/mesh/core/src/timer_scheduler.c.obj
 .data          0x00000000        0x0 examples/light_switch/server/CMakeFiles/light_switch_server_nrf52840_xxAA_s140_6.0.0.dir/__/__/__/mesh/core/src/timer_scheduler.c.obj
 .bss           0x00000000        0x0 examples/light_switch/server/CMakeFiles/light_switch_server_nrf52840_xxAA_s140_6.0.0.dir/__/__/__/mesh/core/src/timer_scheduler.c.obj
 .text          0x00000000        0x0 examples/light_switch/server/CMakeFiles/light_switch_server_nrf52840_xxAA_s140_6.0.0.dir/__/__/__/mesh/core/src/timer.c.obj
 .data          0x00000000        0x0 examples/light_switch/server/CMakeFiles/light_switch_server_nrf52840_xxAA_s140_6.0.0.dir/__/__/__/mesh/core/src/timer.c.obj
 .bss           0x00000000        0x0 examples/light_switch/server/CMakeFiles/light_switch_server_nrf52840_xxAA_s140_6.0.0.dir/__/__/__/mesh/core/src/timer.c.obj
 .text.timer_order_cb_ppi
                0x00000000       0xd8 examples/light_switch/server/CMakeFiles/light_switch_server_nrf52840_xxAA_s140_6.0.0.dir/__/__/__/mesh/core/src/timer.c.obj
 .text.timer_order_ppi
                0x00000000       0xc8 examples/light_switch/server/CMakeFiles/light_switch_server_nrf52840_xxAA_s140_6.0.0.dir/__/__/__/mesh/core/src/timer.c.obj
 .text.timer_abort
                0x00000000       0x84 examples/light_switch/server/CMakeFiles/light_switch_server_nrf52840_xxAA_s140_6.0.0.dir/__/__/__/mesh/core/src/timer.c.obj
 .text          0x00000000        0x0 examples/light_switch/server/CMakeFiles/light_switch_server_nrf52840_xxAA_s140_6.0.0.dir/__/__/__/mesh/core/src/ticker.c.obj
 .data          0x00000000        0x0 examples/light_switch/server/CMakeFiles/light_switch_server_nrf52840_xxAA_s140_6.0.0.dir/__/__/__/mesh/core/src/ticker.c.obj
 .bss           0x00000000        0x0 examples/light_switch/server/CMakeFiles/light_switch_server_nrf52840_xxAA_s140_6.0.0.dir/__/__/__/mesh/core/src/ticker.c.obj
 .text.ticker_get
                0x00000000        0xc examples/light_switch/server/CMakeFiles/light_switch_server_nrf52840_xxAA_s140_6.0.0.dir/__/__/__/mesh/core/src/ticker.c.obj
 .text          0x00000000        0x0 examples/light_switch/server/CMakeFiles/light_switch_server_nrf52840_xxAA_s140_6.0.0.dir/__/__/__/mesh/core/src/rand.c.obj
 .data          0x00000000        0x0 examples/light_switch/server/CMakeFiles/light_switch_server_nrf52840_xxAA_s140_6.0.0.dir/__/__/__/mesh/core/src/rand.c.obj
 .bss           0x00000000        0x0 examples/light_switch/server/CMakeFiles/light_switch_server_nrf52840_xxAA_s140_6.0.0.dir/__/__/__/mesh/core/src/rand.c.obj
 .text          0x00000000        0x0 examples/light_switch/server/CMakeFiles/light_switch_server_nrf52840_xxAA_s140_6.0.0.dir/__/__/__/mesh/core/src/nrf_mesh_opt.c.obj
 .data          0x00000000        0x0 examples/light_switch/server/CMakeFiles/light_switch_server_nrf52840_xxAA_s140_6.0.0.dir/__/__/__/mesh/core/src/nrf_mesh_opt.c.obj
 .bss           0x00000000        0x0 examples/light_switch/server/CMakeFiles/light_switch_server_nrf52840_xxAA_s140_6.0.0.dir/__/__/__/mesh/core/src/nrf_mesh_opt.c.obj
 .text          0x00000000        0x0 examples/light_switch/server/CMakeFiles/light_switch_server_nrf52840_xxAA_s140_6.0.0.dir/__/__/__/mesh/core/src/timeslot.c.obj
 .data          0x00000000        0x0 examples/light_switch/server/CMakeFiles/light_switch_server_nrf52840_xxAA_s140_6.0.0.dir/__/__/__/mesh/core/src/timeslot.c.obj
 .bss           0x00000000        0x0 examples/light_switch/server/CMakeFiles/light_switch_server_nrf52840_xxAA_s140_6.0.0.dir/__/__/__/mesh/core/src/timeslot.c.obj
 .text.timeslot_restart
                0x00000000       0x30 examples/light_switch/server/CMakeFiles/light_switch_server_nrf52840_xxAA_s140_6.0.0.dir/__/__/__/mesh/core/src/timeslot.c.obj
 .text.timeslot_end_time_get
                0x00000000       0x30 examples/light_switch/server/CMakeFiles/light_switch_server_nrf52840_xxAA_s140_6.0.0.dir/__/__/__/mesh/core/src/timeslot.c.obj
 .text.timeslot_is_in_ts
                0x00000000        0xc examples/light_switch/server/CMakeFiles/light_switch_server_nrf52840_xxAA_s140_6.0.0.dir/__/__/__/mesh/core/src/timeslot.c.obj
 .text          0x00000000        0x0 examples/light_switch/server/CMakeFiles/light_switch_server_nrf52840_xxAA_s140_6.0.0.dir/__/__/__/mesh/core/src/bearer_event.c.obj
 .data          0x00000000        0x0 examples/light_switch/server/CMakeFiles/light_switch_server_nrf52840_xxAA_s140_6.0.0.dir/__/__/__/mesh/core/src/bearer_event.c.obj
 .bss           0x00000000        0x0 examples/light_switch/server/CMakeFiles/light_switch_server_nrf52840_xxAA_s140_6.0.0.dir/__/__/__/mesh/core/src/bearer_event.c.obj
 .text.bearer_event_generic_post
                0x00000000       0x50 examples/light_switch/server/CMakeFiles/light_switch_server_nrf52840_xxAA_s140_6.0.0.dir/__/__/__/mesh/core/src/bearer_event.c.obj
 .text.bearer_event_timer_sch_post
                0x00000000       0x54 examples/light_switch/server/CMakeFiles/light_switch_server_nrf52840_xxAA_s140_6.0.0.dir/__/__/__/mesh/core/src/bearer_event.c.obj
 .text.bearer_event_in_correct_irq_priority
                0x00000000       0x54 examples/light_switch/server/CMakeFiles/light_switch_server_nrf52840_xxAA_s140_6.0.0.dir/__/__/__/mesh/core/src/bearer_event.c.obj
 .text          0x00000000        0x0 examples/light_switch/server/CMakeFiles/light_switch_server_nrf52840_xxAA_s140_6.0.0.dir/__/__/__/mesh/core/src/enc.c.obj
 .data          0x00000000        0x0 examples/light_switch/server/CMakeFiles/light_switch_server_nrf52840_xxAA_s140_6.0.0.dir/__/__/__/mesh/core/src/enc.c.obj
 .bss           0x00000000        0x0 examples/light_switch/server/CMakeFiles/light_switch_server_nrf52840_xxAA_s140_6.0.0.dir/__/__/__/mesh/core/src/enc.c.obj
 .text.enc_key_generate
                0x00000000        0x8 examples/light_switch/server/CMakeFiles/light_switch_server_nrf52840_xxAA_s140_6.0.0.dir/__/__/__/mesh/core/src/enc.c.obj
 .text          0x00000000        0x0 examples/light_switch/server/CMakeFiles/light_switch_server_nrf52840_xxAA_s140_6.0.0.dir/__/__/__/mesh/core/src/network.c.obj
 .data          0x00000000        0x0 examples/light_switch/server/CMakeFiles/light_switch_server_nrf52840_xxAA_s140_6.0.0.dir/__/__/__/mesh/core/src/network.c.obj
 .bss           0x00000000        0x0 examples/light_switch/server/CMakeFiles/light_switch_server_nrf52840_xxAA_s140_6.0.0.dir/__/__/__/mesh/core/src/network.c.obj
 .text.network_packet_discard
                0x00000000       0x28 examples/light_switch/server/CMakeFiles/light_switch_server_nrf52840_xxAA_s140_6.0.0.dir/__/__/__/mesh/core/src/network.c.obj
 .text          0x00000000        0x0 examples/light_switch/server/CMakeFiles/light_switch_server_nrf52840_xxAA_s140_6.0.0.dir/__/__/__/mesh/core/src/net_packet.c.obj
 .data          0x00000000        0x0 examples/light_switch/server/CMakeFiles/light_switch_server_nrf52840_xxAA_s140_6.0.0.dir/__/__/__/mesh/core/src/net_packet.c.obj
 .bss           0x00000000        0x0 examples/light_switch/server/CMakeFiles/light_switch_server_nrf52840_xxAA_s140_6.0.0.dir/__/__/__/mesh/core/src/net_packet.c.obj
 .text.net_packet_enc_start_get
                0x00000000        0x4 examples/light_switch/server/CMakeFiles/light_switch_server_nrf52840_xxAA_s140_6.0.0.dir/__/__/__/mesh/core/src/net_packet.c.obj
 .text.net_packet_payload_get
                0x00000000        0x4 examples/light_switch/server/CMakeFiles/light_switch_server_nrf52840_xxAA_s140_6.0.0.dir/__/__/__/mesh/core/src/net_packet.c.obj
 .text          0x00000000        0x0 examples/light_switch/server/CMakeFiles/light_switch_server_nrf52840_xxAA_s140_6.0.0.dir/__/__/__/mesh/core/src/msqueue.c.obj
 .data          0x00000000        0x0 examples/light_switch/server/CMakeFiles/light_switch_server_nrf52840_xxAA_s140_6.0.0.dir/__/__/__/mesh/core/src/msqueue.c.obj
 .bss           0x00000000        0x0 examples/light_switch/server/CMakeFiles/light_switch_server_nrf52840_xxAA_s140_6.0.0.dir/__/__/__/mesh/core/src/msqueue.c.obj
 .text.msq_reset
                0x00000000       0x24 examples/light_switch/server/CMakeFiles/light_switch_server_nrf52840_xxAA_s140_6.0.0.dir/__/__/__/mesh/core/src/msqueue.c.obj
 .text          0x00000000        0x0 examples/light_switch/server/CMakeFiles/light_switch_server_nrf52840_xxAA_s140_6.0.0.dir/__/__/__/mesh/core/src/nrf_mesh_keygen.c.obj
 .data          0x00000000        0x0 examples/light_switch/server/CMakeFiles/light_switch_server_nrf52840_xxAA_s140_6.0.0.dir/__/__/__/mesh/core/src/nrf_mesh_keygen.c.obj
 .bss           0x00000000        0x0 examples/light_switch/server/CMakeFiles/light_switch_server_nrf52840_xxAA_s140_6.0.0.dir/__/__/__/mesh/core/src/nrf_mesh_keygen.c.obj
 .text.nrf_mesh_keygen_identitykey
                0x00000000       0x4c examples/light_switch/server/CMakeFiles/light_switch_server_nrf52840_xxAA_s140_6.0.0.dir/__/__/__/mesh/core/src/nrf_mesh_keygen.c.obj
 .text          0x00000000        0x0 examples/light_switch/server/CMakeFiles/light_switch_server_nrf52840_xxAA_s140_6.0.0.dir/__/__/__/mesh/core/src/cache.c.obj
 .data          0x00000000        0x0 examples/light_switch/server/CMakeFiles/light_switch_server_nrf52840_xxAA_s140_6.0.0.dir/__/__/__/mesh/core/src/cache.c.obj
 .bss           0x00000000        0x0 examples/light_switch/server/CMakeFiles/light_switch_server_nrf52840_xxAA_s140_6.0.0.dir/__/__/__/mesh/core/src/cache.c.obj
 .text.cache_init
                0x00000000       0x44 examples/light_switch/server/CMakeFiles/light_switch_server_nrf52840_xxAA_s140_6.0.0.dir/__/__/__/mesh/core/src/cache.c.obj
 .text.cache_has_elem
                0x00000000       0x5c examples/light_switch/server/CMakeFiles/light_switch_server_nrf52840_xxAA_s140_6.0.0.dir/__/__/__/mesh/core/src/cache.c.obj
 .text.cache_put
                0x00000000       0x2c examples/light_switch/server/CMakeFiles/light_switch_server_nrf52840_xxAA_s140_6.0.0.dir/__/__/__/mesh/core/src/cache.c.obj
 .text.cache_erase_elem
                0x00000000       0x80 examples/light_switch/server/CMakeFiles/light_switch_server_nrf52840_xxAA_s140_6.0.0.dir/__/__/__/mesh/core/src/cache.c.obj
 .comment       0x00000000       0x80 examples/light_switch/server/CMakeFiles/light_switch_server_nrf52840_xxAA_s140_6.0.0.dir/__/__/__/mesh/core/src/cache.c.obj
 .ARM.attributes
                0x00000000       0x39 examples/light_switch/server/CMakeFiles/light_switch_server_nrf52840_xxAA_s140_6.0.0.dir/__/__/__/mesh/core/src/cache.c.obj
 .text          0x00000000        0x0 examples/light_switch/server/CMakeFiles/light_switch_server_nrf52840_xxAA_s140_6.0.0.dir/__/__/__/mesh/core/src/uri.c.obj
 .data          0x00000000        0x0 examples/light_switch/server/CMakeFiles/light_switch_server_nrf52840_xxAA_s140_6.0.0.dir/__/__/__/mesh/core/src/uri.c.obj
 .bss           0x00000000        0x0 examples/light_switch/server/CMakeFiles/light_switch_server_nrf52840_xxAA_s140_6.0.0.dir/__/__/__/mesh/core/src/uri.c.obj
 .text.uri_data_generate
                0x00000000       0x88 examples/light_switch/server/CMakeFiles/light_switch_server_nrf52840_xxAA_s140_6.0.0.dir/__/__/__/mesh/core/src/uri.c.obj
 .text.uri_data_parse
                0x00000000       0x80 examples/light_switch/server/CMakeFiles/light_switch_server_nrf52840_xxAA_s140_6.0.0.dir/__/__/__/mesh/core/src/uri.c.obj
 .text.uri_scheme_name_code_point
                0x00000000       0x5c examples/light_switch/server/CMakeFiles/light_switch_server_nrf52840_xxAA_s140_6.0.0.dir/__/__/__/mesh/core/src/uri.c.obj
 .text.uri_scheme_name_string
                0x00000000       0x14 examples/light_switch/server/CMakeFiles/light_switch_server_nrf52840_xxAA_s140_6.0.0.dir/__/__/__/mesh/core/src/uri.c.obj
 .rodata.m_code_point_strings
                0x00000000      0x2ec examples/light_switch/server/CMakeFiles/light_switch_server_nrf52840_xxAA_s140_6.0.0.dir/__/__/__/mesh/core/src/uri.c.obj
 .rodata.str1.4
                0x00000000      0x6ba examples/light_switch/server/CMakeFiles/light_switch_server_nrf52840_xxAA_s140_6.0.0.dir/__/__/__/mesh/core/src/uri.c.obj
 .comment       0x00000000       0x80 examples/light_switch/server/CMakeFiles/light_switch_server_nrf52840_xxAA_s140_6.0.0.dir/__/__/__/mesh/core/src/uri.c.obj
 .ARM.attributes
                0x00000000       0x39 examples/light_switch/server/CMakeFiles/light_switch_server_nrf52840_xxAA_s140_6.0.0.dir/__/__/__/mesh/core/src/uri.c.obj
 .text          0x00000000        0x0 examples/light_switch/server/CMakeFiles/light_switch_server_nrf52840_xxAA_s140_6.0.0.dir/__/__/__/mesh/core/src/list.c.obj
 .data          0x00000000        0x0 examples/light_switch/server/CMakeFiles/light_switch_server_nrf52840_xxAA_s140_6.0.0.dir/__/__/__/mesh/core/src/list.c.obj
 .bss           0x00000000        0x0 examples/light_switch/server/CMakeFiles/light_switch_server_nrf52840_xxAA_s140_6.0.0.dir/__/__/__/mesh/core/src/list.c.obj
 .text.list_size_get
                0x00000000       0x14 examples/light_switch/server/CMakeFiles/light_switch_server_nrf52840_xxAA_s140_6.0.0.dir/__/__/__/mesh/core/src/list.c.obj
 .text.list_sorted_add
                0x00000000       0x8c examples/light_switch/server/CMakeFiles/light_switch_server_nrf52840_xxAA_s140_6.0.0.dir/__/__/__/mesh/core/src/list.c.obj
 .text          0x00000000        0x0 examples/light_switch/server/CMakeFiles/light_switch_server_nrf52840_xxAA_s140_6.0.0.dir/__/__/__/mesh/core/src/log.c.obj
 .data          0x00000000        0x0 examples/light_switch/server/CMakeFiles/light_switch_server_nrf52840_xxAA_s140_6.0.0.dir/__/__/__/mesh/core/src/log.c.obj
 .bss           0x00000000        0x0 examples/light_switch/server/CMakeFiles/light_switch_server_nrf52840_xxAA_s140_6.0.0.dir/__/__/__/mesh/core/src/log.c.obj
 .text.log_callback_logview
                0x00000000       0x38 examples/light_switch/server/CMakeFiles/light_switch_server_nrf52840_xxAA_s140_6.0.0.dir/__/__/__/mesh/core/src/log.c.obj
 .text.log_set_callback
                0x00000000        0xc examples/light_switch/server/CMakeFiles/light_switch_server_nrf52840_xxAA_s140_6.0.0.dir/__/__/__/mesh/core/src/log.c.obj
 .text.log_vprintf
                0x00000000       0x18 examples/light_switch/server/CMakeFiles/light_switch_server_nrf52840_xxAA_s140_6.0.0.dir/__/__/__/mesh/core/src/log.c.obj
 .rodata.log_callback_logview.str1.4
                0x00000000       0x12 examples/light_switch/server/CMakeFiles/light_switch_server_nrf52840_xxAA_s140_6.0.0.dir/__/__/__/mesh/core/src/log.c.obj
 .text          0x00000000        0x0 examples/light_switch/server/CMakeFiles/light_switch_server_nrf52840_xxAA_s140_6.0.0.dir/__/__/__/mesh/core/src/flash_manager.c.obj
 .data          0x00000000        0x0 examples/light_switch/server/CMakeFiles/light_switch_server_nrf52840_xxAA_s140_6.0.0.dir/__/__/__/mesh/core/src/flash_manager.c.obj
 .bss           0x00000000        0x0 examples/light_switch/server/CMakeFiles/light_switch_server_nrf52840_xxAA_s140_6.0.0.dir/__/__/__/mesh/core/src/flash_manager.c.obj
 .text.flash_manager_entry_count_get
                0x00000000       0xf4 examples/light_switch/server/CMakeFiles/light_switch_server_nrf52840_xxAA_s140_6.0.0.dir/__/__/__/mesh/core/src/flash_manager.c.obj
 .text.flash_manager_entry_release
                0x00000000       0x74 examples/light_switch/server/CMakeFiles/light_switch_server_nrf52840_xxAA_s140_6.0.0.dir/__/__/__/mesh/core/src/flash_manager.c.obj
 .text          0x00000000        0x0 examples/light_switch/server/CMakeFiles/light_switch_server_nrf52840_xxAA_s140_6.0.0.dir/__/__/__/mesh/core/src/ccm_soft.c.obj
 .data          0x00000000        0x0 examples/light_switch/server/CMakeFiles/light_switch_server_nrf52840_xxAA_s140_6.0.0.dir/__/__/__/mesh/core/src/ccm_soft.c.obj
 .bss           0x00000000        0x0 examples/light_switch/server/CMakeFiles/light_switch_server_nrf52840_xxAA_s140_6.0.0.dir/__/__/__/mesh/core/src/ccm_soft.c.obj
 .text          0x00000000        0x0 examples/light_switch/server/CMakeFiles/light_switch_server_nrf52840_xxAA_s140_6.0.0.dir/__/__/__/mesh/core/src/toolchain.c.obj
 .data          0x00000000        0x0 examples/light_switch/server/CMakeFiles/light_switch_server_nrf52840_xxAA_s140_6.0.0.dir/__/__/__/mesh/core/src/toolchain.c.obj
 .bss           0x00000000        0x0 examples/light_switch/server/CMakeFiles/light_switch_server_nrf52840_xxAA_s140_6.0.0.dir/__/__/__/mesh/core/src/toolchain.c.obj
 .comment       0x00000000       0x80 examples/light_switch/server/CMakeFiles/light_switch_server_nrf52840_xxAA_s140_6.0.0.dir/__/__/__/mesh/core/src/toolchain.c.obj
 .ARM.attributes
                0x00000000       0x39 examples/light_switch/server/CMakeFiles/light_switch_server_nrf52840_xxAA_s140_6.0.0.dir/__/__/__/mesh/core/src/toolchain.c.obj
 .text          0x00000000        0x0 examples/light_switch/server/CMakeFiles/light_switch_server_nrf52840_xxAA_s140_6.0.0.dir/__/__/__/mesh/core/src/replay_cache.c.obj
 .data          0x00000000        0x0 examples/light_switch/server/CMakeFiles/light_switch_server_nrf52840_xxAA_s140_6.0.0.dir/__/__/__/mesh/core/src/replay_cache.c.obj
 .bss           0x00000000        0x0 examples/light_switch/server/CMakeFiles/light_switch_server_nrf52840_xxAA_s140_6.0.0.dir/__/__/__/mesh/core/src/replay_cache.c.obj
 .text.replay_cache_on_iv_update
                0x00000000       0x2c examples/light_switch/server/CMakeFiles/light_switch_server_nrf52840_xxAA_s140_6.0.0.dir/__/__/__/mesh/core/src/replay_cache.c.obj
 .text.replay_cache_clear
                0x00000000       0x20 examples/light_switch/server/CMakeFiles/light_switch_server_nrf52840_xxAA_s140_6.0.0.dir/__/__/__/mesh/core/src/replay_cache.c.obj
 .text          0x00000000        0x0 examples/light_switch/server/CMakeFiles/light_switch_server_nrf52840_xxAA_s140_6.0.0.dir/__/__/__/mesh/core/src/beacon.c.obj
 .data          0x00000000        0x0 examples/light_switch/server/CMakeFiles/light_switch_server_nrf52840_xxAA_s140_6.0.0.dir/__/__/__/mesh/core/src/beacon.c.obj
 .bss           0x00000000        0x0 examples/light_switch/server/CMakeFiles/light_switch_server_nrf52840_xxAA_s140_6.0.0.dir/__/__/__/mesh/core/src/beacon.c.obj
 .text          0x00000000        0x0 examples/light_switch/server/CMakeFiles/light_switch_server_nrf52840_xxAA_s140_6.0.0.dir/__/__/__/mesh/core/src/flash_manager_internal.c.obj
 .data          0x00000000        0x0 examples/light_switch/server/CMakeFiles/light_switch_server_nrf52840_xxAA_s140_6.0.0.dir/__/__/__/mesh/core/src/flash_manager_internal.c.obj
 .bss           0x00000000        0x0 examples/light_switch/server/CMakeFiles/light_switch_server_nrf52840_xxAA_s140_6.0.0.dir/__/__/__/mesh/core/src/flash_manager_internal.c.obj
 .text          0x00000000        0x0 examples/light_switch/server/CMakeFiles/light_switch_server_nrf52840_xxAA_s140_6.0.0.dir/__/__/__/mesh/core/src/core_tx.c.obj
 .data          0x00000000        0x0 examples/light_switch/server/CMakeFiles/light_switch_server_nrf52840_xxAA_s140_6.0.0.dir/__/__/__/mesh/core/src/core_tx.c.obj
 .bss           0x00000000        0x0 examples/light_switch/server/CMakeFiles/light_switch_server_nrf52840_xxAA_s140_6.0.0.dir/__/__/__/mesh/core/src/core_tx.c.obj
 .text.core_tx_bearer_type_get
                0x00000000       0x2c examples/light_switch/server/CMakeFiles/light_switch_server_nrf52840_xxAA_s140_6.0.0.dir/__/__/__/mesh/core/src/core_tx.c.obj
 .text.core_tx_bearer_count_get
                0x00000000        0xc examples/light_switch/server/CMakeFiles/light_switch_server_nrf52840_xxAA_s140_6.0.0.dir/__/__/__/mesh/core/src/core_tx.c.obj
 .text          0x00000000        0x0 examples/light_switch/server/CMakeFiles/light_switch_server_nrf52840_xxAA_s140_6.0.0.dir/__/__/__/mesh/core/src/heartbeat.c.obj
 .data          0x00000000        0x0 examples/light_switch/server/CMakeFiles/light_switch_server_nrf52840_xxAA_s140_6.0.0.dir/__/__/__/mesh/core/src/heartbeat.c.obj
 .bss           0x00000000        0x0 examples/light_switch/server/CMakeFiles/light_switch_server_nrf52840_xxAA_s140_6.0.0.dir/__/__/__/mesh/core/src/heartbeat.c.obj
 .text          0x00000000        0x0 examples/light_switch/server/CMakeFiles/light_switch_server_nrf52840_xxAA_s140_6.0.0.dir/__/__/__/mesh/core/src/net_beacon.c.obj
 .data          0x00000000        0x0 examples/light_switch/server/CMakeFiles/light_switch_server_nrf52840_xxAA_s140_6.0.0.dir/__/__/__/mesh/core/src/net_beacon.c.obj
 .bss           0x00000000        0x0 examples/light_switch/server/CMakeFiles/light_switch_server_nrf52840_xxAA_s140_6.0.0.dir/__/__/__/mesh/core/src/net_beacon.c.obj
 .text.net_beacon_build
                0x00000000       0x68 examples/light_switch/server/CMakeFiles/light_switch_server_nrf52840_xxAA_s140_6.0.0.dir/__/__/__/mesh/core/src/net_beacon.c.obj
 .text          0x00000000        0x0 examples/light_switch/server/CMakeFiles/light_switch_server_nrf52840_xxAA_s140_6.0.0.dir/__/__/__/mesh/core/src/fsm.c.obj
 .data          0x00000000        0x0 examples/light_switch/server/CMakeFiles/light_switch_server_nrf52840_xxAA_s140_6.0.0.dir/__/__/__/mesh/core/src/fsm.c.obj
 .bss           0x00000000        0x0 examples/light_switch/server/CMakeFiles/light_switch_server_nrf52840_xxAA_s140_6.0.0.dir/__/__/__/mesh/core/src/fsm.c.obj
 .text.fsm_event_post_try
                0x00000000      0x238 examples/light_switch/server/CMakeFiles/light_switch_server_nrf52840_xxAA_s140_6.0.0.dir/__/__/__/mesh/core/src/fsm.c.obj
 .text.fsm_init
                0x00000000      0x100 examples/light_switch/server/CMakeFiles/light_switch_server_nrf52840_xxAA_s140_6.0.0.dir/__/__/__/mesh/core/src/fsm.c.obj
 .text.fsm_event_post
                0x00000000       0xbc examples/light_switch/server/CMakeFiles/light_switch_server_nrf52840_xxAA_s140_6.0.0.dir/__/__/__/mesh/core/src/fsm.c.obj
 .text.fsm_is_processing
                0x00000000        0xc examples/light_switch/server/CMakeFiles/light_switch_server_nrf52840_xxAA_s140_6.0.0.dir/__/__/__/mesh/core/src/fsm.c.obj
 .rodata.fsm_event_post.str1.4
                0x00000000        0xb examples/light_switch/server/CMakeFiles/light_switch_server_nrf52840_xxAA_s140_6.0.0.dir/__/__/__/mesh/core/src/fsm.c.obj
 .rodata.fsm_event_post_try.str1.4
                0x00000000       0x44 examples/light_switch/server/CMakeFiles/light_switch_server_nrf52840_xxAA_s140_6.0.0.dir/__/__/__/mesh/core/src/fsm.c.obj
 .rodata.fsm_init.str1.4
                0x00000000        0xa examples/light_switch/server/CMakeFiles/light_switch_server_nrf52840_xxAA_s140_6.0.0.dir/__/__/__/mesh/core/src/fsm.c.obj
 .comment       0x00000000       0x80 examples/light_switch/server/CMakeFiles/light_switch_server_nrf52840_xxAA_s140_6.0.0.dir/__/__/__/mesh/core/src/fsm.c.obj
 .ARM.attributes
                0x00000000       0x39 examples/light_switch/server/CMakeFiles/light_switch_server_nrf52840_xxAA_s140_6.0.0.dir/__/__/__/mesh/core/src/fsm.c.obj
 .text          0x00000000        0x0 examples/light_switch/server/CMakeFiles/light_switch_server_nrf52840_xxAA_s140_6.0.0.dir/__/__/__/mesh/core/src/core_tx_adv.c.obj
 .data          0x00000000        0x0 examples/light_switch/server/CMakeFiles/light_switch_server_nrf52840_xxAA_s140_6.0.0.dir/__/__/__/mesh/core/src/core_tx_adv.c.obj
 .bss           0x00000000        0x0 examples/light_switch/server/CMakeFiles/light_switch_server_nrf52840_xxAA_s140_6.0.0.dir/__/__/__/mesh/core/src/core_tx_adv.c.obj
 .text.core_tx_adv_address_set
                0x00000000       0x28 examples/light_switch/server/CMakeFiles/light_switch_server_nrf52840_xxAA_s140_6.0.0.dir/__/__/__/mesh/core/src/core_tx_adv.c.obj
 .text          0x00000000        0x0 examples/light_switch/server/CMakeFiles/light_switch_server_nrf52840_xxAA_s140_6.0.0.dir/__/__/__/mesh/bearer/src/ad_listener.c.obj
 .data          0x00000000        0x0 examples/light_switch/server/CMakeFiles/light_switch_server_nrf52840_xxAA_s140_6.0.0.dir/__/__/__/mesh/bearer/src/ad_listener.c.obj
 .bss           0x00000000        0x0 examples/light_switch/server/CMakeFiles/light_switch_server_nrf52840_xxAA_s140_6.0.0.dir/__/__/__/mesh/bearer/src/ad_listener.c.obj
 .text.ad_listener_unsubscribe
                0x00000000       0x7c examples/light_switch/server/CMakeFiles/light_switch_server_nrf52840_xxAA_s140_6.0.0.dir/__/__/__/mesh/bearer/src/ad_listener.c.obj
 .text          0x00000000        0x0 examples/light_switch/server/CMakeFiles/light_switch_server_nrf52840_xxAA_s140_6.0.0.dir/__/__/__/mesh/bearer/src/ad_type_filter.c.obj
 .data          0x00000000        0x0 examples/light_switch/server/CMakeFiles/light_switch_server_nrf52840_xxAA_s140_6.0.0.dir/__/__/__/mesh/bearer/src/ad_type_filter.c.obj
 .bss           0x00000000        0x0 examples/light_switch/server/CMakeFiles/light_switch_server_nrf52840_xxAA_s140_6.0.0.dir/__/__/__/mesh/bearer/src/ad_type_filter.c.obj
 .text.bearer_adtype_remove
                0x00000000       0x28 examples/light_switch/server/CMakeFiles/light_switch_server_nrf52840_xxAA_s140_6.0.0.dir/__/__/__/mesh/bearer/src/ad_type_filter.c.obj
 .text.bearer_adtype_clear
                0x00000000       0x10 examples/light_switch/server/CMakeFiles/light_switch_server_nrf52840_xxAA_s140_6.0.0.dir/__/__/__/mesh/bearer/src/ad_type_filter.c.obj
 .text.bearer_invalid_length_amount_get
                0x00000000        0xc examples/light_switch/server/CMakeFiles/light_switch_server_nrf52840_xxAA_s140_6.0.0.dir/__/__/__/mesh/bearer/src/ad_type_filter.c.obj
 .text.bearer_adtype_filtered_amount_get
                0x00000000        0xc examples/light_switch/server/CMakeFiles/light_switch_server_nrf52840_xxAA_s140_6.0.0.dir/__/__/__/mesh/bearer/src/ad_type_filter.c.obj
 .text          0x00000000        0x0 examples/light_switch/server/CMakeFiles/light_switch_server_nrf52840_xxAA_s140_6.0.0.dir/__/__/__/mesh/bearer/src/adv_packet_filter.c.obj
 .data          0x00000000        0x0 examples/light_switch/server/CMakeFiles/light_switch_server_nrf52840_xxAA_s140_6.0.0.dir/__/__/__/mesh/bearer/src/adv_packet_filter.c.obj
 .bss           0x00000000        0x0 examples/light_switch/server/CMakeFiles/light_switch_server_nrf52840_xxAA_s140_6.0.0.dir/__/__/__/mesh/bearer/src/adv_packet_filter.c.obj
 .text.adv_filter_handle
                0x00000000       0x40 examples/light_switch/server/CMakeFiles/light_switch_server_nrf52840_xxAA_s140_6.0.0.dir/__/__/__/mesh/bearer/src/adv_packet_filter.c.obj
 .text.bearer_adv_packet_filtering_set
                0x00000000       0x1c examples/light_switch/server/CMakeFiles/light_switch_server_nrf52840_xxAA_s140_6.0.0.dir/__/__/__/mesh/bearer/src/adv_packet_filter.c.obj
 .text.bearer_adv_packet_remove
                0x00000000       0x18 examples/light_switch/server/CMakeFiles/light_switch_server_nrf52840_xxAA_s140_6.0.0.dir/__/__/__/mesh/bearer/src/adv_packet_filter.c.obj
 .text.bearer_adv_packet_add
                0x00000000       0x14 examples/light_switch/server/CMakeFiles/light_switch_server_nrf52840_xxAA_s140_6.0.0.dir/__/__/__/mesh/bearer/src/adv_packet_filter.c.obj
 .text.bearer_adv_packet_clear
                0x00000000        0xc examples/light_switch/server/CMakeFiles/light_switch_server_nrf52840_xxAA_s140_6.0.0.dir/__/__/__/mesh/bearer/src/adv_packet_filter.c.obj
 .text.bearer_adv_packet_filter_mode_set
                0x00000000       0x18 examples/light_switch/server/CMakeFiles/light_switch_server_nrf52840_xxAA_s140_6.0.0.dir/__/__/__/mesh/bearer/src/adv_packet_filter.c.obj
 .text.bearer_adv_packet_filtered_amount_get
                0x00000000        0xc examples/light_switch/server/CMakeFiles/light_switch_server_nrf52840_xxAA_s140_6.0.0.dir/__/__/__/mesh/bearer/src/adv_packet_filter.c.obj
 .bss.m_adv_packet_filter
                0x00000000       0x14 examples/light_switch/server/CMakeFiles/light_switch_server_nrf52840_xxAA_s140_6.0.0.dir/__/__/__/mesh/bearer/src/adv_packet_filter.c.obj
 .comment       0x00000000       0x80 examples/light_switch/server/CMakeFiles/light_switch_server_nrf52840_xxAA_s140_6.0.0.dir/__/__/__/mesh/bearer/src/adv_packet_filter.c.obj
 .ARM.attributes
                0x00000000       0x39 examples/light_switch/server/CMakeFiles/light_switch_server_nrf52840_xxAA_s140_6.0.0.dir/__/__/__/mesh/bearer/src/adv_packet_filter.c.obj
 .text          0x00000000        0x0 examples/light_switch/server/CMakeFiles/light_switch_server_nrf52840_xxAA_s140_6.0.0.dir/__/__/__/mesh/bearer/src/advertiser.c.obj
 .data          0x00000000        0x0 examples/light_switch/server/CMakeFiles/light_switch_server_nrf52840_xxAA_s140_6.0.0.dir/__/__/__/mesh/bearer/src/advertiser.c.obj
 .bss           0x00000000        0x0 examples/light_switch/server/CMakeFiles/light_switch_server_nrf52840_xxAA_s140_6.0.0.dir/__/__/__/mesh/bearer/src/advertiser.c.obj
 .text.advertiser_disable
                0x00000000        0xc examples/light_switch/server/CMakeFiles/light_switch_server_nrf52840_xxAA_s140_6.0.0.dir/__/__/__/mesh/bearer/src/advertiser.c.obj
 .text.advertiser_config_set
                0x00000000      0x180 examples/light_switch/server/CMakeFiles/light_switch_server_nrf52840_xxAA_s140_6.0.0.dir/__/__/__/mesh/bearer/src/advertiser.c.obj
 .text.advertiser_channels_set
                0x00000000       0x94 examples/light_switch/server/CMakeFiles/light_switch_server_nrf52840_xxAA_s140_6.0.0.dir/__/__/__/mesh/bearer/src/advertiser.c.obj
 .text.advertiser_address_set
                0x00000000       0x64 examples/light_switch/server/CMakeFiles/light_switch_server_nrf52840_xxAA_s140_6.0.0.dir/__/__/__/mesh/bearer/src/advertiser.c.obj
 .text.advertiser_config_get
                0x00000000       0x24 examples/light_switch/server/CMakeFiles/light_switch_server_nrf52840_xxAA_s140_6.0.0.dir/__/__/__/mesh/bearer/src/advertiser.c.obj
 .text.advertiser_address_default_get
                0x00000000       0x5c examples/light_switch/server/CMakeFiles/light_switch_server_nrf52840_xxAA_s140_6.0.0.dir/__/__/__/mesh/bearer/src/advertiser.c.obj
 .text          0x00000000        0x0 examples/light_switch/server/CMakeFiles/light_switch_server_nrf52840_xxAA_s140_6.0.0.dir/__/__/__/mesh/bearer/src/bearer_handler.c.obj
 .data          0x00000000        0x0 examples/light_switch/server/CMakeFiles/light_switch_server_nrf52840_xxAA_s140_6.0.0.dir/__/__/__/mesh/bearer/src/bearer_handler.c.obj
 .bss           0x00000000        0x0 examples/light_switch/server/CMakeFiles/light_switch_server_nrf52840_xxAA_s140_6.0.0.dir/__/__/__/mesh/bearer/src/bearer_handler.c.obj
 .text.bearer_handler_stop
                0x00000000       0x20 examples/light_switch/server/CMakeFiles/light_switch_server_nrf52840_xxAA_s140_6.0.0.dir/__/__/__/mesh/bearer/src/bearer_handler.c.obj
 .text.bearer_handler_action_fire
                0x00000000       0x9c examples/light_switch/server/CMakeFiles/light_switch_server_nrf52840_xxAA_s140_6.0.0.dir/__/__/__/mesh/bearer/src/bearer_handler.c.obj
 .text          0x00000000        0x0 examples/light_switch/server/CMakeFiles/light_switch_server_nrf52840_xxAA_s140_6.0.0.dir/__/__/__/mesh/bearer/src/broadcast.c.obj
 .data          0x00000000        0x0 examples/light_switch/server/CMakeFiles/light_switch_server_nrf52840_xxAA_s140_6.0.0.dir/__/__/__/mesh/bearer/src/broadcast.c.obj
 .bss           0x00000000        0x0 examples/light_switch/server/CMakeFiles/light_switch_server_nrf52840_xxAA_s140_6.0.0.dir/__/__/__/mesh/bearer/src/broadcast.c.obj
 .text          0x00000000        0x0 examples/light_switch/server/CMakeFiles/light_switch_server_nrf52840_xxAA_s140_6.0.0.dir/__/__/__/mesh/bearer/src/filter_engine.c.obj
 .data          0x00000000        0x0 examples/light_switch/server/CMakeFiles/light_switch_server_nrf52840_xxAA_s140_6.0.0.dir/__/__/__/mesh/bearer/src/filter_engine.c.obj
 .bss           0x00000000        0x0 examples/light_switch/server/CMakeFiles/light_switch_server_nrf52840_xxAA_s140_6.0.0.dir/__/__/__/mesh/bearer/src/filter_engine.c.obj
 .text.fen_accepted_amount_get
                0x00000000        0xc examples/light_switch/server/CMakeFiles/light_switch_server_nrf52840_xxAA_s140_6.0.0.dir/__/__/__/mesh/bearer/src/filter_engine.c.obj
 .text          0x00000000        0x0 examples/light_switch/server/CMakeFiles/light_switch_server_nrf52840_xxAA_s140_6.0.0.dir/__/__/__/mesh/bearer/src/gap_address_filter.c.obj
 .data          0x00000000        0x0 examples/light_switch/server/CMakeFiles/light_switch_server_nrf52840_xxAA_s140_6.0.0.dir/__/__/__/mesh/bearer/src/gap_address_filter.c.obj
 .bss           0x00000000        0x0 examples/light_switch/server/CMakeFiles/light_switch_server_nrf52840_xxAA_s140_6.0.0.dir/__/__/__/mesh/bearer/src/gap_address_filter.c.obj
 .text.gap_address_filter_handle
                0x00000000       0xb4 examples/light_switch/server/CMakeFiles/light_switch_server_nrf52840_xxAA_s140_6.0.0.dir/__/__/__/mesh/bearer/src/gap_address_filter.c.obj
 .text.bearer_filter_gap_addr_whitelist_set
                0x00000000       0x48 examples/light_switch/server/CMakeFiles/light_switch_server_nrf52840_xxAA_s140_6.0.0.dir/__/__/__/mesh/bearer/src/gap_address_filter.c.obj
 .text.bearer_filter_gap_addr_blacklist_set
                0x00000000       0x4c examples/light_switch/server/CMakeFiles/light_switch_server_nrf52840_xxAA_s140_6.0.0.dir/__/__/__/mesh/bearer/src/gap_address_filter.c.obj
 .text.bearer_filter_gap_addr_range_set
                0x00000000       0x64 examples/light_switch/server/CMakeFiles/light_switch_server_nrf52840_xxAA_s140_6.0.0.dir/__/__/__/mesh/bearer/src/gap_address_filter.c.obj
 .text.bearer_filter_gap_addr_clear
                0x00000000       0x24 examples/light_switch/server/CMakeFiles/light_switch_server_nrf52840_xxAA_s140_6.0.0.dir/__/__/__/mesh/bearer/src/gap_address_filter.c.obj
 .text.bearer_gap_addr_filtered_amount_get
                0x00000000        0xc examples/light_switch/server/CMakeFiles/light_switch_server_nrf52840_xxAA_s140_6.0.0.dir/__/__/__/mesh/bearer/src/gap_address_filter.c.obj
 .bss.m_addr_filter
                0x00000000       0x18 examples/light_switch/server/CMakeFiles/light_switch_server_nrf52840_xxAA_s140_6.0.0.dir/__/__/__/mesh/bearer/src/gap_address_filter.c.obj
 .comment       0x00000000       0x80 examples/light_switch/server/CMakeFiles/light_switch_server_nrf52840_xxAA_s140_6.0.0.dir/__/__/__/mesh/bearer/src/gap_address_filter.c.obj
 .ARM.attributes
                0x00000000       0x39 examples/light_switch/server/CMakeFiles/light_switch_server_nrf52840_xxAA_s140_6.0.0.dir/__/__/__/mesh/bearer/src/gap_address_filter.c.obj
 .text          0x00000000        0x0 examples/light_switch/server/CMakeFiles/light_switch_server_nrf52840_xxAA_s140_6.0.0.dir/__/__/__/mesh/bearer/src/radio_config.c.obj
 .data          0x00000000        0x0 examples/light_switch/server/CMakeFiles/light_switch_server_nrf52840_xxAA_s140_6.0.0.dir/__/__/__/mesh/bearer/src/radio_config.c.obj
 .bss           0x00000000        0x0 examples/light_switch/server/CMakeFiles/light_switch_server_nrf52840_xxAA_s140_6.0.0.dir/__/__/__/mesh/bearer/src/radio_config.c.obj
 .text.radio_config_access_addr_get
                0x00000000       0x54 examples/light_switch/server/CMakeFiles/light_switch_server_nrf52840_xxAA_s140_6.0.0.dir/__/__/__/mesh/bearer/src/radio_config.c.obj
 .text          0x00000000        0x0 examples/light_switch/server/CMakeFiles/light_switch_server_nrf52840_xxAA_s140_6.0.0.dir/__/__/__/mesh/bearer/src/rssi_filter.c.obj
 .data          0x00000000        0x0 examples/light_switch/server/CMakeFiles/light_switch_server_nrf52840_xxAA_s140_6.0.0.dir/__/__/__/mesh/bearer/src/rssi_filter.c.obj
 .bss           0x00000000        0x0 examples/light_switch/server/CMakeFiles/light_switch_server_nrf52840_xxAA_s140_6.0.0.dir/__/__/__/mesh/bearer/src/rssi_filter.c.obj
 .text.rssi_filter_handle
                0x00000000       0x20 examples/light_switch/server/CMakeFiles/light_switch_server_nrf52840_xxAA_s140_6.0.0.dir/__/__/__/mesh/bearer/src/rssi_filter.c.obj
 .text.bearer_rssi_filtering_set
                0x00000000       0x34 examples/light_switch/server/CMakeFiles/light_switch_server_nrf52840_xxAA_s140_6.0.0.dir/__/__/__/mesh/bearer/src/rssi_filter.c.obj
 .text.bearer_rssi_filtered_amount_get
                0x00000000        0xc examples/light_switch/server/CMakeFiles/light_switch_server_nrf52840_xxAA_s140_6.0.0.dir/__/__/__/mesh/bearer/src/rssi_filter.c.obj
 .bss.m_rssi_filter
                0x00000000       0x18 examples/light_switch/server/CMakeFiles/light_switch_server_nrf52840_xxAA_s140_6.0.0.dir/__/__/__/mesh/bearer/src/rssi_filter.c.obj
 .comment       0x00000000       0x80 examples/light_switch/server/CMakeFiles/light_switch_server_nrf52840_xxAA_s140_6.0.0.dir/__/__/__/mesh/bearer/src/rssi_filter.c.obj
 .ARM.attributes
                0x00000000       0x39 examples/light_switch/server/CMakeFiles/light_switch_server_nrf52840_xxAA_s140_6.0.0.dir/__/__/__/mesh/bearer/src/rssi_filter.c.obj
 .text          0x00000000        0x0 examples/light_switch/server/CMakeFiles/light_switch_server_nrf52840_xxAA_s140_6.0.0.dir/__/__/__/mesh/bearer/src/scanner.c.obj
 .data          0x00000000        0x0 examples/light_switch/server/CMakeFiles/light_switch_server_nrf52840_xxAA_s140_6.0.0.dir/__/__/__/mesh/bearer/src/scanner.c.obj
 .bss           0x00000000        0x0 examples/light_switch/server/CMakeFiles/light_switch_server_nrf52840_xxAA_s140_6.0.0.dir/__/__/__/mesh/bearer/src/scanner.c.obj
 .text.scanner_rx_callback_set
                0x00000000       0x20 examples/light_switch/server/CMakeFiles/light_switch_server_nrf52840_xxAA_s140_6.0.0.dir/__/__/__/mesh/bearer/src/scanner.c.obj
 .text.scanner_disable
                0x00000000       0x54 examples/light_switch/server/CMakeFiles/light_switch_server_nrf52840_xxAA_s140_6.0.0.dir/__/__/__/mesh/bearer/src/scanner.c.obj
 .text.scanner_is_enabled
                0x00000000       0x14 examples/light_switch/server/CMakeFiles/light_switch_server_nrf52840_xxAA_s140_6.0.0.dir/__/__/__/mesh/bearer/src/scanner.c.obj
 .text.scanner_stats_get
                0x00000000        0x8 examples/light_switch/server/CMakeFiles/light_switch_server_nrf52840_xxAA_s140_6.0.0.dir/__/__/__/mesh/bearer/src/scanner.c.obj
 .text.scanner_config_radio_mode_set
                0x00000000       0x10 examples/light_switch/server/CMakeFiles/light_switch_server_nrf52840_xxAA_s140_6.0.0.dir/__/__/__/mesh/bearer/src/scanner.c.obj
 .text.scanner_config_scan_time_set
                0x00000000       0x88 examples/light_switch/server/CMakeFiles/light_switch_server_nrf52840_xxAA_s140_6.0.0.dir/__/__/__/mesh/bearer/src/scanner.c.obj
 .text.scanner_config_channels_set
                0x00000000       0x50 examples/light_switch/server/CMakeFiles/light_switch_server_nrf52840_xxAA_s140_6.0.0.dir/__/__/__/mesh/bearer/src/scanner.c.obj
 .text.scanner_config_access_addresses_set
                0x00000000       0x38 examples/light_switch/server/CMakeFiles/light_switch_server_nrf52840_xxAA_s140_6.0.0.dir/__/__/__/mesh/bearer/src/scanner.c.obj
 .text          0x00000000        0x0 examples/light_switch/server/CMakeFiles/light_switch_server_nrf52840_xxAA_s140_6.0.0.dir/__/__/__/models/simple_on_off/src/simple_on_off_server.c.obj
 .data          0x00000000        0x0 examples/light_switch/server/CMakeFiles/light_switch_server_nrf52840_xxAA_s140_6.0.0.dir/__/__/__/models/simple_on_off/src/simple_on_off_server.c.obj
 .bss           0x00000000        0x0 examples/light_switch/server/CMakeFiles/light_switch_server_nrf52840_xxAA_s140_6.0.0.dir/__/__/__/models/simple_on_off/src/simple_on_off_server.c.obj
 .text          0x00000000        0x0 examples/light_switch/server/CMakeFiles/light_switch_server_nrf52840_xxAA_s140_6.0.0.dir/__/__/__/models/config/src/composition_data.c.obj
 .data          0x00000000        0x0 examples/light_switch/server/CMakeFiles/light_switch_server_nrf52840_xxAA_s140_6.0.0.dir/__/__/__/models/config/src/composition_data.c.obj
 .bss           0x00000000        0x0 examples/light_switch/server/CMakeFiles/light_switch_server_nrf52840_xxAA_s140_6.0.0.dir/__/__/__/models/config/src/composition_data.c.obj
 .text          0x00000000        0x0 examples/light_switch/server/CMakeFiles/light_switch_server_nrf52840_xxAA_s140_6.0.0.dir/__/__/__/models/config/src/config_server.c.obj
 .data          0x00000000        0x0 examples/light_switch/server/CMakeFiles/light_switch_server_nrf52840_xxAA_s140_6.0.0.dir/__/__/__/models/config/src/config_server.c.obj
 .bss           0x00000000        0x0 examples/light_switch/server/CMakeFiles/light_switch_server_nrf52840_xxAA_s140_6.0.0.dir/__/__/__/models/config/src/config_server.c.obj
 .text          0x00000000        0x0 examples/light_switch/server/CMakeFiles/light_switch_server_nrf52840_xxAA_s140_6.0.0.dir/__/__/__/models/config/src/packed_index_list.c.obj
 .data          0x00000000        0x0 examples/light_switch/server/CMakeFiles/light_switch_server_nrf52840_xxAA_s140_6.0.0.dir/__/__/__/models/config/src/packed_index_list.c.obj
 .bss           0x00000000        0x0 examples/light_switch/server/CMakeFiles/light_switch_server_nrf52840_xxAA_s140_6.0.0.dir/__/__/__/models/config/src/packed_index_list.c.obj
 .text          0x00000000        0x0 examples/light_switch/server/CMakeFiles/light_switch_server_nrf52840_xxAA_s140_6.0.0.dir/__/__/__/models/health/src/health_server.c.obj
 .data          0x00000000        0x0 examples/light_switch/server/CMakeFiles/light_switch_server_nrf52840_xxAA_s140_6.0.0.dir/__/__/__/models/health/src/health_server.c.obj
 .bss           0x00000000        0x0 examples/light_switch/server/CMakeFiles/light_switch_server_nrf52840_xxAA_s140_6.0.0.dir/__/__/__/models/health/src/health_server.c.obj
 .text.health_server_fault_register
                0x00000000      0x238 examples/light_switch/server/CMakeFiles/light_switch_server_nrf52840_xxAA_s140_6.0.0.dir/__/__/__/models/health/src/health_server.c.obj
 .text.health_server_fault_clear
                0x00000000      0x2f4 examples/light_switch/server/CMakeFiles/light_switch_server_nrf52840_xxAA_s140_6.0.0.dir/__/__/__/models/health/src/health_server.c.obj
 .text.health_server_fault_is_set
                0x00000000       0x1c examples/light_switch/server/CMakeFiles/light_switch_server_nrf52840_xxAA_s140_6.0.0.dir/__/__/__/models/health/src/health_server.c.obj
 .text.health_server_fault_count_get
                0x00000000      0x154 examples/light_switch/server/CMakeFiles/light_switch_server_nrf52840_xxAA_s140_6.0.0.dir/__/__/__/models/health/src/health_server.c.obj
 .text.health_server_attention_get
                0x00000000        0x8 examples/light_switch/server/CMakeFiles/light_switch_server_nrf52840_xxAA_s140_6.0.0.dir/__/__/__/models/health/src/health_server.c.obj
 .text.health_server_attention_set
                0x00000000       0x98 examples/light_switch/server/CMakeFiles/light_switch_server_nrf52840_xxAA_s140_6.0.0.dir/__/__/__/models/health/src/health_server.c.obj
 .text          0x00000000        0x0 examples/light_switch/server/CMakeFiles/light_switch_server_nrf52840_xxAA_s140_6.0.0.dir/__/__/__/mesh/access/src/access_publish.c.obj
 .data          0x00000000        0x0 examples/light_switch/server/CMakeFiles/light_switch_server_nrf52840_xxAA_s140_6.0.0.dir/__/__/__/mesh/access/src/access_publish.c.obj
 .bss           0x00000000        0x0 examples/light_switch/server/CMakeFiles/light_switch_server_nrf52840_xxAA_s140_6.0.0.dir/__/__/__/mesh/access/src/access_publish.c.obj
 .text          0x00000000        0x0 examples/light_switch/server/CMakeFiles/light_switch_server_nrf52840_xxAA_s140_6.0.0.dir/__/__/__/mesh/access/src/access.c.obj
 .data          0x00000000        0x0 examples/light_switch/server/CMakeFiles/light_switch_server_nrf52840_xxAA_s140_6.0.0.dir/__/__/__/mesh/access/src/access.c.obj
 .bss           0x00000000        0x0 examples/light_switch/server/CMakeFiles/light_switch_server_nrf52840_xxAA_s140_6.0.0.dir/__/__/__/mesh/access/src/access.c.obj
 .text.access_model_subscription_lists_share
                0x00000000       0x58 examples/light_switch/server/CMakeFiles/light_switch_server_nrf52840_xxAA_s140_6.0.0.dir/__/__/__/mesh/access/src/access.c.obj
 .text.access_element_location_set
                0x00000000       0x20 examples/light_switch/server/CMakeFiles/light_switch_server_nrf52840_xxAA_s140_6.0.0.dir/__/__/__/mesh/access/src/access.c.obj
 .text          0x00000000        0x0 examples/light_switch/server/CMakeFiles/light_switch_server_nrf52840_xxAA_s140_6.0.0.dir/__/__/__/mesh/access/src/access_reliable.c.obj
 .data          0x00000000        0x0 examples/light_switch/server/CMakeFiles/light_switch_server_nrf52840_xxAA_s140_6.0.0.dir/__/__/__/mesh/access/src/access_reliable.c.obj
 .bss           0x00000000        0x0 examples/light_switch/server/CMakeFiles/light_switch_server_nrf52840_xxAA_s140_6.0.0.dir/__/__/__/mesh/access/src/access_reliable.c.obj
 .text.access_model_reliable_publish
                0x00000000      0x200 examples/light_switch/server/CMakeFiles/light_switch_server_nrf52840_xxAA_s140_6.0.0.dir/__/__/__/mesh/access/src/access_reliable.c.obj
 .text          0x00000000        0x0 examples/light_switch/server/CMakeFiles/light_switch_server_nrf52840_xxAA_s140_6.0.0.dir/__/__/__/mesh/access/src/device_state_manager.c.obj
 .data          0x00000000        0x0 examples/light_switch/server/CMakeFiles/light_switch_server_nrf52840_xxAA_s140_6.0.0.dir/__/__/__/mesh/access/src/device_state_manager.c.obj
 .bss           0x00000000        0x0 examples/light_switch/server/CMakeFiles/light_switch_server_nrf52840_xxAA_s140_6.0.0.dir/__/__/__/mesh/access/src/device_state_manager.c.obj
 .text.dsm_has_unflashed_data
                0x00000000       0x58 examples/light_switch/server/CMakeFiles/light_switch_server_nrf52840_xxAA_s140_6.0.0.dir/__/__/__/mesh/access/src/device_state_manager.c.obj
 .text.dsm_address_subscription_count_get
                0x00000000       0x78 examples/light_switch/server/CMakeFiles/light_switch_server_nrf52840_xxAA_s140_6.0.0.dir/__/__/__/mesh/access/src/device_state_manager.c.obj
 .text.dsm_address_get_all
                0x00000000       0x80 examples/light_switch/server/CMakeFiles/light_switch_server_nrf52840_xxAA_s140_6.0.0.dir/__/__/__/mesh/access/src/device_state_manager.c.obj
 .text.dsm_subnet_handle_to_netkey_index
                0x00000000       0x24 examples/light_switch/server/CMakeFiles/light_switch_server_nrf52840_xxAA_s140_6.0.0.dir/__/__/__/mesh/access/src/device_state_manager.c.obj
 .text.dsm_devkey_delete
                0x00000000       0x6c examples/light_switch/server/CMakeFiles/light_switch_server_nrf52840_xxAA_s140_6.0.0.dir/__/__/__/mesh/access/src/device_state_manager.c.obj
 .text.dsm_devkey_handle_get
                0x00000000       0x3c examples/light_switch/server/CMakeFiles/light_switch_server_nrf52840_xxAA_s140_6.0.0.dir/__/__/__/mesh/access/src/device_state_manager.c.obj
 .text.dsm_beacon_info_get
                0x00000000       0x24 examples/light_switch/server/CMakeFiles/light_switch_server_nrf52840_xxAA_s140_6.0.0.dir/__/__/__/mesh/access/src/device_state_manager.c.obj
 .text          0x00000000        0x0 examples/light_switch/server/CMakeFiles/light_switch_server_nrf52840_xxAA_s140_6.0.0.dir/__/__/__/mesh/prov/src/prov_provisionee.c.obj
 .data          0x00000000        0x0 examples/light_switch/server/CMakeFiles/light_switch_server_nrf52840_xxAA_s140_6.0.0.dir/__/__/__/mesh/prov/src/prov_provisionee.c.obj
 .bss           0x00000000        0x0 examples/light_switch/server/CMakeFiles/light_switch_server_nrf52840_xxAA_s140_6.0.0.dir/__/__/__/mesh/prov/src/prov_provisionee.c.obj
 .text.prov_provisionee_shared_secret
                0x00000000       0xa0 examples/light_switch/server/CMakeFiles/light_switch_server_nrf52840_xxAA_s140_6.0.0.dir/__/__/__/mesh/prov/src/prov_provisionee.c.obj
 .text          0x00000000        0x0 examples/light_switch/server/CMakeFiles/light_switch_server_nrf52840_xxAA_s140_6.0.0.dir/__/__/__/mesh/prov/src/nrf_mesh_prov.c.obj
 .data          0x00000000        0x0 examples/light_switch/server/CMakeFiles/light_switch_server_nrf52840_xxAA_s140_6.0.0.dir/__/__/__/mesh/prov/src/nrf_mesh_prov.c.obj
 .bss           0x00000000        0x0 examples/light_switch/server/CMakeFiles/light_switch_server_nrf52840_xxAA_s140_6.0.0.dir/__/__/__/mesh/prov/src/nrf_mesh_prov.c.obj
 .text.nrf_mesh_prov_listen_stop
                0x00000000       0x30 examples/light_switch/server/CMakeFiles/light_switch_server_nrf52840_xxAA_s140_6.0.0.dir/__/__/__/mesh/prov/src/nrf_mesh_prov.c.obj
 .text.nrf_mesh_prov_provision
                0x00000000       0x58 examples/light_switch/server/CMakeFiles/light_switch_server_nrf52840_xxAA_s140_6.0.0.dir/__/__/__/mesh/prov/src/nrf_mesh_prov.c.obj
 .text.nrf_mesh_prov_oob_use
                0x00000000       0x18 examples/light_switch/server/CMakeFiles/light_switch_server_nrf52840_xxAA_s140_6.0.0.dir/__/__/__/mesh/prov/src/nrf_mesh_prov.c.obj
 .text.nrf_mesh_prov_shared_secret_provide
                0x00000000       0x10 examples/light_switch/server/CMakeFiles/light_switch_server_nrf52840_xxAA_s140_6.0.0.dir/__/__/__/mesh/prov/src/nrf_mesh_prov.c.obj
 .text.nrf_mesh_prov_pubkey_provide
                0x00000000       0x10 examples/light_switch/server/CMakeFiles/light_switch_server_nrf52840_xxAA_s140_6.0.0.dir/__/__/__/mesh/prov/src/nrf_mesh_prov.c.obj
 .text.nrf_mesh_prov_scan_start
                0x00000000       0x10 examples/light_switch/server/CMakeFiles/light_switch_server_nrf52840_xxAA_s140_6.0.0.dir/__/__/__/mesh/prov/src/nrf_mesh_prov.c.obj
 .text.nrf_mesh_prov_scan_stop
                0x00000000        0x4 examples/light_switch/server/CMakeFiles/light_switch_server_nrf52840_xxAA_s140_6.0.0.dir/__/__/__/mesh/prov/src/nrf_mesh_prov.c.obj
 .text          0x00000000        0x0 examples/light_switch/server/CMakeFiles/light_switch_server_nrf52840_xxAA_s140_6.0.0.dir/__/__/__/mesh/prov/src/provisioning.c.obj
 .data          0x00000000        0x0 examples/light_switch/server/CMakeFiles/light_switch_server_nrf52840_xxAA_s140_6.0.0.dir/__/__/__/mesh/prov/src/provisioning.c.obj
 .bss           0x00000000        0x0 examples/light_switch/server/CMakeFiles/light_switch_server_nrf52840_xxAA_s140_6.0.0.dir/__/__/__/mesh/prov/src/provisioning.c.obj
 .text.prov_tx_invite
                0x00000000       0x38 examples/light_switch/server/CMakeFiles/light_switch_server_nrf52840_xxAA_s140_6.0.0.dir/__/__/__/mesh/prov/src/provisioning.c.obj
 .text.prov_tx_start
                0x00000000       0x38 examples/light_switch/server/CMakeFiles/light_switch_server_nrf52840_xxAA_s140_6.0.0.dir/__/__/__/mesh/prov/src/provisioning.c.obj
 .text.prov_tx_data
                0x00000000       0x34 examples/light_switch/server/CMakeFiles/light_switch_server_nrf52840_xxAA_s140_6.0.0.dir/__/__/__/mesh/prov/src/provisioning.c.obj
 .text.prov_tx  0x00000000       0x3c examples/light_switch/server/CMakeFiles/light_switch_server_nrf52840_xxAA_s140_6.0.0.dir/__/__/__/mesh/prov/src/provisioning.c.obj
 .text          0x00000000        0x0 examples/light_switch/server/CMakeFiles/light_switch_server_nrf52840_xxAA_s140_6.0.0.dir/__/__/__/mesh/prov/src/prov_beacon.c.obj
 .data          0x00000000        0x0 examples/light_switch/server/CMakeFiles/light_switch_server_nrf52840_xxAA_s140_6.0.0.dir/__/__/__/mesh/prov/src/prov_beacon.c.obj
 .bss           0x00000000        0x0 examples/light_switch/server/CMakeFiles/light_switch_server_nrf52840_xxAA_s140_6.0.0.dir/__/__/__/mesh/prov/src/prov_beacon.c.obj
 .text.prov_beacon_scan_start
                0x00000000       0x1c examples/light_switch/server/CMakeFiles/light_switch_server_nrf52840_xxAA_s140_6.0.0.dir/__/__/__/mesh/prov/src/prov_beacon.c.obj
 .text.prov_beacon_scan_stop
                0x00000000        0xc examples/light_switch/server/CMakeFiles/light_switch_server_nrf52840_xxAA_s140_6.0.0.dir/__/__/__/mesh/prov/src/prov_beacon.c.obj
 .text          0x00000000        0x0 examples/light_switch/server/CMakeFiles/light_switch_server_nrf52840_xxAA_s140_6.0.0.dir/__/__/__/mesh/prov/src/prov_utils.c.obj
 .data          0x00000000        0x0 examples/light_switch/server/CMakeFiles/light_switch_server_nrf52840_xxAA_s140_6.0.0.dir/__/__/__/mesh/prov/src/prov_utils.c.obj
 .bss           0x00000000        0x0 examples/light_switch/server/CMakeFiles/light_switch_server_nrf52840_xxAA_s140_6.0.0.dir/__/__/__/mesh/prov/src/prov_utils.c.obj
 .text          0x00000000        0x0 examples/light_switch/server/CMakeFiles/light_switch_server_nrf52840_xxAA_s140_6.0.0.dir/__/__/__/mesh/prov/src/prov_bearer_adv.c.obj
 .data          0x00000000        0x0 examples/light_switch/server/CMakeFiles/light_switch_server_nrf52840_xxAA_s140_6.0.0.dir/__/__/__/mesh/prov/src/prov_bearer_adv.c.obj
 .bss           0x00000000        0x0 examples/light_switch/server/CMakeFiles/light_switch_server_nrf52840_xxAA_s140_6.0.0.dir/__/__/__/mesh/prov/src/prov_bearer_adv.c.obj
 .text.calculate_3GPP_CRC
                0x00000000       0x28 examples/light_switch/server/CMakeFiles/light_switch_server_nrf52840_xxAA_s140_6.0.0.dir/__/__/__/mesh/prov/src/prov_bearer_adv.c.obj
 .text          0x00000000        0x0 examples/light_switch/server/CMakeFiles/light_switch_server_nrf52840_xxAA_s140_6.0.0.dir/C_/ver/mod/nRF5_SDK_15.0.0_a53641a/modules/nrfx/mdk/system_nrf52840.c.obj
 .data          0x00000000        0x0 examples/light_switch/server/CMakeFiles/light_switch_server_nrf52840_xxAA_s140_6.0.0.dir/C_/ver/mod/nRF5_SDK_15.0.0_a53641a/modules/nrfx/mdk/system_nrf52840.c.obj
 .bss           0x00000000        0x0 examples/light_switch/server/CMakeFiles/light_switch_server_nrf52840_xxAA_s140_6.0.0.dir/C_/ver/mod/nRF5_SDK_15.0.0_a53641a/modules/nrfx/mdk/system_nrf52840.c.obj
 .text.SystemCoreClockUpdate
                0x00000000       0x10 examples/light_switch/server/CMakeFiles/light_switch_server_nrf52840_xxAA_s140_6.0.0.dir/C_/ver/mod/nRF5_SDK_15.0.0_a53641a/modules/nrfx/mdk/system_nrf52840.c.obj
 .data          0x00000000        0x0 examples/light_switch/server/CMakeFiles/light_switch_server_nrf52840_xxAA_s140_6.0.0.dir/C_/ver/mod/nRF5_SDK_15.0.0_a53641a/modules/nrfx/mdk/gcc_startup_nrf52840.S.obj
 .bss           0x00000000        0x0 examples/light_switch/server/CMakeFiles/light_switch_server_nrf52840_xxAA_s140_6.0.0.dir/C_/ver/mod/nRF5_SDK_15.0.0_a53641a/modules/nrfx/mdk/gcc_startup_nrf52840.S.obj
 .text          0x00000000        0x0 examples/light_switch/server/CMakeFiles/light_switch_server_nrf52840_xxAA_s140_6.0.0.dir/C_/ver/mod/nRF5_SDK_15.0.0_a53641a/components/libraries/util/app_error.c.obj
 .data          0x00000000        0x0 examples/light_switch/server/CMakeFiles/light_switch_server_nrf52840_xxAA_s140_6.0.0.dir/C_/ver/mod/nRF5_SDK_15.0.0_a53641a/components/libraries/util/app_error.c.obj
 .bss           0x00000000        0x0 examples/light_switch/server/CMakeFiles/light_switch_server_nrf52840_xxAA_s140_6.0.0.dir/C_/ver/mod/nRF5_SDK_15.0.0_a53641a/components/libraries/util/app_error.c.obj
 .text.app_error_save_and_stop
                0x00000000       0x64 examples/light_switch/server/CMakeFiles/light_switch_server_nrf52840_xxAA_s140_6.0.0.dir/C_/ver/mod/nRF5_SDK_15.0.0_a53641a/components/libraries/util/app_error.c.obj
 .bss.m_error_data.8119
                0x00000000       0x20 examples/light_switch/server/CMakeFiles/light_switch_server_nrf52840_xxAA_s140_6.0.0.dir/C_/ver/mod/nRF5_SDK_15.0.0_a53641a/components/libraries/util/app_error.c.obj
 .text          0x00000000        0x0 examples/light_switch/server/CMakeFiles/light_switch_server_nrf52840_xxAA_s140_6.0.0.dir/C_/ver/mod/nRF5_SDK_15.0.0_a53641a/components/libraries/util/app_error_handler_gcc.c.obj
 .data          0x00000000        0x0 examples/light_switch/server/CMakeFiles/light_switch_server_nrf52840_xxAA_s140_6.0.0.dir/C_/ver/mod/nRF5_SDK_15.0.0_a53641a/components/libraries/util/app_error_handler_gcc.c.obj
 .bss           0x00000000        0x0 examples/light_switch/server/CMakeFiles/light_switch_server_nrf52840_xxAA_s140_6.0.0.dir/C_/ver/mod/nRF5_SDK_15.0.0_a53641a/components/libraries/util/app_error_handler_gcc.c.obj
 .text          0x00000000        0x0 external/rtt/librtt_nrf52840_xxAA.a(SEGGER_RTT.c.obj)
 .data          0x00000000        0x0 external/rtt/librtt_nrf52840_xxAA.a(SEGGER_RTT.c.obj)
 .bss           0x00000000        0x0 external/rtt/librtt_nrf52840_xxAA.a(SEGGER_RTT.c.obj)
 .text.SEGGER_RTT_ReadNoLock
                0x00000000      0x100 external/rtt/librtt_nrf52840_xxAA.a(SEGGER_RTT.c.obj)
 .text.SEGGER_RTT_Read
                0x00000000      0x114 external/rtt/librtt_nrf52840_xxAA.a(SEGGER_RTT.c.obj)
 .text.SEGGER_RTT_WriteSkipNoLock
                0x00000000      0x184 external/rtt/librtt_nrf52840_xxAA.a(SEGGER_RTT.c.obj)
 .text.SEGGER_RTT_WriteNoLock
                0x00000000      0x188 external/rtt/librtt_nrf52840_xxAA.a(SEGGER_RTT.c.obj)
 .text.SEGGER_RTT_WriteString
                0x00000000      0x20c external/rtt/librtt_nrf52840_xxAA.a(SEGGER_RTT.c.obj)
 .text.SEGGER_RTT_WaitKey
                0x00000000      0x114 external/rtt/librtt_nrf52840_xxAA.a(SEGGER_RTT.c.obj)
 .text.SEGGER_RTT_HasKey
                0x00000000       0x6c external/rtt/librtt_nrf52840_xxAA.a(SEGGER_RTT.c.obj)
 .text.SEGGER_RTT_HasData
                0x00000000       0x18 external/rtt/librtt_nrf52840_xxAA.a(SEGGER_RTT.c.obj)
 .text.SEGGER_RTT_AllocDownBuffer
                0x00000000       0xbc external/rtt/librtt_nrf52840_xxAA.a(SEGGER_RTT.c.obj)
 .text.SEGGER_RTT_AllocUpBuffer
                0x00000000       0xd8 external/rtt/librtt_nrf52840_xxAA.a(SEGGER_RTT.c.obj)
 .text.SEGGER_RTT_ConfigUpBuffer
                0x00000000       0xd0 external/rtt/librtt_nrf52840_xxAA.a(SEGGER_RTT.c.obj)
 .text.SEGGER_RTT_ConfigDownBuffer
                0x00000000       0xb8 external/rtt/librtt_nrf52840_xxAA.a(SEGGER_RTT.c.obj)
 .text.SEGGER_RTT_SetNameUpBuffer
                0x00000000       0x90 external/rtt/librtt_nrf52840_xxAA.a(SEGGER_RTT.c.obj)
 .text.SEGGER_RTT_SetNameDownBuffer
                0x00000000       0x90 external/rtt/librtt_nrf52840_xxAA.a(SEGGER_RTT.c.obj)
 .text.SEGGER_RTT_Init
                0x00000000       0x60 external/rtt/librtt_nrf52840_xxAA.a(SEGGER_RTT.c.obj)
 .text.SEGGER_RTT_SetTerminal
                0x00000000      0x15c external/rtt/librtt_nrf52840_xxAA.a(SEGGER_RTT.c.obj)
 .text.SEGGER_RTT_TerminalOut
                0x00000000      0x40c external/rtt/librtt_nrf52840_xxAA.a(SEGGER_RTT.c.obj)
 .bss._ActiveTerminal
                0x00000000        0x1 external/rtt/librtt_nrf52840_xxAA.a(SEGGER_RTT.c.obj)
 .rodata._aTerminalId
                0x00000000       0x10 external/rtt/librtt_nrf52840_xxAA.a(SEGGER_RTT.c.obj)
 .text          0x00000000        0x0 external/rtt/librtt_nrf52840_xxAA.a(SEGGER_RTT_printf.c.obj)
 .data          0x00000000        0x0 external/rtt/librtt_nrf52840_xxAA.a(SEGGER_RTT_printf.c.obj)
 .bss           0x00000000        0x0 external/rtt/librtt_nrf52840_xxAA.a(SEGGER_RTT_printf.c.obj)
 .text          0x00000000        0x0 external/micro-ecc/libuECC_nrf52840_xxAA.a(uECC.c.obj)
 .data          0x00000000        0x0 external/micro-ecc/libuECC_nrf52840_xxAA.a(uECC.c.obj)
 .bss           0x00000000        0x0 external/micro-ecc/libuECC_nrf52840_xxAA.a(uECC.c.obj)
 .text.HMAC_finish
                0x00000000       0x70 external/micro-ecc/libuECC_nrf52840_xxAA.a(uECC.c.obj)
 .text.uECC_vli_mmod
                0x00000000      0x3c8 external/micro-ecc/libuECC_nrf52840_xxAA.a(uECC.c.obj)
 .text.uECC_vli_modSub.isra.2
                0x00000000       0x98 external/micro-ecc/libuECC_nrf52840_xxAA.a(uECC.c.obj)
 .text.bits2int
                0x00000000      0x14c external/micro-ecc/libuECC_nrf52840_xxAA.a(uECC.c.obj)
 .text.uECC_sign_with_k
                0x00000000      0x60c external/micro-ecc/libuECC_nrf52840_xxAA.a(uECC.c.obj)
 .text.uECC_set_rng
                0x00000000        0xc external/micro-ecc/libuECC_nrf52840_xxAA.a(uECC.c.obj)
 .text.uECC_get_rng
                0x00000000        0xc external/micro-ecc/libuECC_nrf52840_xxAA.a(uECC.c.obj)
 .text.uECC_curve_private_key_size
                0x00000000       0x10 external/micro-ecc/libuECC_nrf52840_xxAA.a(uECC.c.obj)
 .text.uECC_curve_public_key_size
                0x00000000        0x8 external/micro-ecc/libuECC_nrf52840_xxAA.a(uECC.c.obj)
 .text.uECC_compute_public_key
                0x00000000      0x2e4 external/micro-ecc/libuECC_nrf52840_xxAA.a(uECC.c.obj)
 .text.uECC_sign
                0x00000000       0x60 external/micro-ecc/libuECC_nrf52840_xxAA.a(uECC.c.obj)
 .text.uECC_sign_deterministic
                0x00000000      0x400 external/micro-ecc/libuECC_nrf52840_xxAA.a(uECC.c.obj)
 .text.uECC_verify
                0x00000000      0x95c external/micro-ecc/libuECC_nrf52840_xxAA.a(uECC.c.obj)
 .data          0x00000000        0x0 c:/mesh/arm_gcc/bin/../lib/gcc/arm-none-eabi/6.3.1/thumb/v7e-m/fpv4-sp/hard\libgcc.a(_aeabi_uldivmod.o)
 .bss           0x00000000        0x0 c:/mesh/arm_gcc/bin/../lib/gcc/arm-none-eabi/6.3.1/thumb/v7e-m/fpv4-sp/hard\libgcc.a(_aeabi_uldivmod.o)
 .data          0x00000000        0x0 c:/mesh/arm_gcc/bin/../lib/gcc/arm-none-eabi/6.3.1/thumb/v7e-m/fpv4-sp/hard\libgcc.a(_udivmoddi4.o)
 .bss           0x00000000        0x0 c:/mesh/arm_gcc/bin/../lib/gcc/arm-none-eabi/6.3.1/thumb/v7e-m/fpv4-sp/hard\libgcc.a(_udivmoddi4.o)
 .ARM.extab     0x00000000        0x0 c:/mesh/arm_gcc/bin/../lib/gcc/arm-none-eabi/6.3.1/thumb/v7e-m/fpv4-sp/hard\libgcc.a(_udivmoddi4.o)
 .data          0x00000000        0x0 c:/mesh/arm_gcc/bin/../lib/gcc/arm-none-eabi/6.3.1/thumb/v7e-m/fpv4-sp/hard\libgcc.a(_dvmd_tls.o)
 .bss           0x00000000        0x0 c:/mesh/arm_gcc/bin/../lib/gcc/arm-none-eabi/6.3.1/thumb/v7e-m/fpv4-sp/hard\libgcc.a(_dvmd_tls.o)
 .text          0x00000000        0x0 c:/mesh/arm_gcc/bin/../lib/gcc/arm-none-eabi/6.3.1/../../../../arm-none-eabi/lib/thumb/v7e-m/fpv4-sp/hard\libc_nano.a(lib_a-exit.o)
 .data          0x00000000        0x0 c:/mesh/arm_gcc/bin/../lib/gcc/arm-none-eabi/6.3.1/../../../../arm-none-eabi/lib/thumb/v7e-m/fpv4-sp/hard\libc_nano.a(lib_a-exit.o)
 .bss           0x00000000        0x0 c:/mesh/arm_gcc/bin/../lib/gcc/arm-none-eabi/6.3.1/../../../../arm-none-eabi/lib/thumb/v7e-m/fpv4-sp/hard\libc_nano.a(lib_a-exit.o)
 .text          0x00000000        0x0 c:/mesh/arm_gcc/bin/../lib/gcc/arm-none-eabi/6.3.1/../../../../arm-none-eabi/lib/thumb/v7e-m/fpv4-sp/hard\libc_nano.a(lib_a-impure.o)
 .data          0x00000000        0x0 c:/mesh/arm_gcc/bin/../lib/gcc/arm-none-eabi/6.3.1/../../../../arm-none-eabi/lib/thumb/v7e-m/fpv4-sp/hard\libc_nano.a(lib_a-impure.o)
 .bss           0x00000000        0x0 c:/mesh/arm_gcc/bin/../lib/gcc/arm-none-eabi/6.3.1/../../../../arm-none-eabi/lib/thumb/v7e-m/fpv4-sp/hard\libc_nano.a(lib_a-impure.o)
 .text          0x00000000        0x0 c:/mesh/arm_gcc/bin/../lib/gcc/arm-none-eabi/6.3.1/../../../../arm-none-eabi/lib/thumb/v7e-m/fpv4-sp/hard\libc_nano.a(lib_a-init.o)
 .data          0x00000000        0x0 c:/mesh/arm_gcc/bin/../lib/gcc/arm-none-eabi/6.3.1/../../../../arm-none-eabi/lib/thumb/v7e-m/fpv4-sp/hard\libc_nano.a(lib_a-init.o)
 .bss           0x00000000        0x0 c:/mesh/arm_gcc/bin/../lib/gcc/arm-none-eabi/6.3.1/../../../../arm-none-eabi/lib/thumb/v7e-m/fpv4-sp/hard\libc_nano.a(lib_a-init.o)
 .text          0x00000000        0x0 c:/mesh/arm_gcc/bin/../lib/gcc/arm-none-eabi/6.3.1/../../../../arm-none-eabi/lib/thumb/v7e-m/fpv4-sp/hard\libc_nano.a(lib_a-malloc.o)
 .data          0x00000000        0x0 c:/mesh/arm_gcc/bin/../lib/gcc/arm-none-eabi/6.3.1/../../../../arm-none-eabi/lib/thumb/v7e-m/fpv4-sp/hard\libc_nano.a(lib_a-malloc.o)
 .bss           0x00000000        0x0 c:/mesh/arm_gcc/bin/../lib/gcc/arm-none-eabi/6.3.1/../../../../arm-none-eabi/lib/thumb/v7e-m/fpv4-sp/hard\libc_nano.a(lib_a-malloc.o)
 .text          0x00000000        0x0 c:/mesh/arm_gcc/bin/../lib/gcc/arm-none-eabi/6.3.1/../../../../arm-none-eabi/lib/thumb/v7e-m/fpv4-sp/hard\libc_nano.a(lib_a-memcmp.o)
 .data          0x00000000        0x0 c:/mesh/arm_gcc/bin/../lib/gcc/arm-none-eabi/6.3.1/../../../../arm-none-eabi/lib/thumb/v7e-m/fpv4-sp/hard\libc_nano.a(lib_a-memcmp.o)
 .bss           0x00000000        0x0 c:/mesh/arm_gcc/bin/../lib/gcc/arm-none-eabi/6.3.1/../../../../arm-none-eabi/lib/thumb/v7e-m/fpv4-sp/hard\libc_nano.a(lib_a-memcmp.o)
 .text          0x00000000        0x0 c:/mesh/arm_gcc/bin/../lib/gcc/arm-none-eabi/6.3.1/../../../../arm-none-eabi/lib/thumb/v7e-m/fpv4-sp/hard\libc_nano.a(lib_a-memcpy-stub.o)
 .data          0x00000000        0x0 c:/mesh/arm_gcc/bin/../lib/gcc/arm-none-eabi/6.3.1/../../../../arm-none-eabi/lib/thumb/v7e-m/fpv4-sp/hard\libc_nano.a(lib_a-memcpy-stub.o)
 .bss           0x00000000        0x0 c:/mesh/arm_gcc/bin/../lib/gcc/arm-none-eabi/6.3.1/../../../../arm-none-eabi/lib/thumb/v7e-m/fpv4-sp/hard\libc_nano.a(lib_a-memcpy-stub.o)
 .text          0x00000000        0x0 c:/mesh/arm_gcc/bin/../lib/gcc/arm-none-eabi/6.3.1/../../../../arm-none-eabi/lib/thumb/v7e-m/fpv4-sp/hard\libc_nano.a(lib_a-memset.o)
 .data          0x00000000        0x0 c:/mesh/arm_gcc/bin/../lib/gcc/arm-none-eabi/6.3.1/../../../../arm-none-eabi/lib/thumb/v7e-m/fpv4-sp/hard\libc_nano.a(lib_a-memset.o)
 .bss           0x00000000        0x0 c:/mesh/arm_gcc/bin/../lib/gcc/arm-none-eabi/6.3.1/../../../../arm-none-eabi/lib/thumb/v7e-m/fpv4-sp/hard\libc_nano.a(lib_a-memset.o)
 .text          0x00000000        0x0 c:/mesh/arm_gcc/bin/../lib/gcc/arm-none-eabi/6.3.1/../../../../arm-none-eabi/lib/thumb/v7e-m/fpv4-sp/hard\libc_nano.a(lib_a-nano-freer.o)
 .data          0x00000000        0x0 c:/mesh/arm_gcc/bin/../lib/gcc/arm-none-eabi/6.3.1/../../../../arm-none-eabi/lib/thumb/v7e-m/fpv4-sp/hard\libc_nano.a(lib_a-nano-freer.o)
 .bss           0x00000000        0x0 c:/mesh/arm_gcc/bin/../lib/gcc/arm-none-eabi/6.3.1/../../../../arm-none-eabi/lib/thumb/v7e-m/fpv4-sp/hard\libc_nano.a(lib_a-nano-freer.o)
 .text          0x00000000        0x0 c:/mesh/arm_gcc/bin/../lib/gcc/arm-none-eabi/6.3.1/../../../../arm-none-eabi/lib/thumb/v7e-m/fpv4-sp/hard\libc_nano.a(lib_a-nano-mallocr.o)
 .data          0x00000000        0x0 c:/mesh/arm_gcc/bin/../lib/gcc/arm-none-eabi/6.3.1/../../../../arm-none-eabi/lib/thumb/v7e-m/fpv4-sp/hard\libc_nano.a(lib_a-nano-mallocr.o)
 .bss           0x00000000        0x0 c:/mesh/arm_gcc/bin/../lib/gcc/arm-none-eabi/6.3.1/../../../../arm-none-eabi/lib/thumb/v7e-m/fpv4-sp/hard\libc_nano.a(lib_a-nano-mallocr.o)
 .text          0x00000000        0x0 c:/mesh/arm_gcc/bin/../lib/gcc/arm-none-eabi/6.3.1/../../../../arm-none-eabi/lib/thumb/v7e-m/fpv4-sp/hard\libc_nano.a(lib_a-sbrkr.o)
 .data          0x00000000        0x0 c:/mesh/arm_gcc/bin/../lib/gcc/arm-none-eabi/6.3.1/../../../../arm-none-eabi/lib/thumb/v7e-m/fpv4-sp/hard\libc_nano.a(lib_a-sbrkr.o)
 .bss           0x00000000        0x0 c:/mesh/arm_gcc/bin/../lib/gcc/arm-none-eabi/6.3.1/../../../../arm-none-eabi/lib/thumb/v7e-m/fpv4-sp/hard\libc_nano.a(lib_a-sbrkr.o)
 .text          0x00000000        0x0 c:/mesh/arm_gcc/bin/../lib/gcc/arm-none-eabi/6.3.1/../../../../arm-none-eabi/lib/thumb/v7e-m/fpv4-sp/hard\libc_nano.a(lib_a-strcpy.o)
 .data          0x00000000        0x0 c:/mesh/arm_gcc/bin/../lib/gcc/arm-none-eabi/6.3.1/../../../../arm-none-eabi/lib/thumb/v7e-m/fpv4-sp/hard\libc_nano.a(lib_a-strcpy.o)
 .bss           0x00000000        0x0 c:/mesh/arm_gcc/bin/../lib/gcc/arm-none-eabi/6.3.1/../../../../arm-none-eabi/lib/thumb/v7e-m/fpv4-sp/hard\libc_nano.a(lib_a-strcpy.o)
 .data          0x00000000        0x0 c:/mesh/arm_gcc/bin/../lib/gcc/arm-none-eabi/6.3.1/../../../../arm-none-eabi/lib/thumb/v7e-m/fpv4-sp/hard\libc_nano.a(lib_a-strlen.o)
 .bss           0x00000000        0x0 c:/mesh/arm_gcc/bin/../lib/gcc/arm-none-eabi/6.3.1/../../../../arm-none-eabi/lib/thumb/v7e-m/fpv4-sp/hard\libc_nano.a(lib_a-strlen.o)
 .text          0x00000000        0x0 c:/mesh/arm_gcc/bin/../lib/gcc/arm-none-eabi/6.3.1/../../../../arm-none-eabi/lib/thumb/v7e-m/fpv4-sp/hard\libc_nano.a(lib_a-strrchr.o)
 .data          0x00000000        0x0 c:/mesh/arm_gcc/bin/../lib/gcc/arm-none-eabi/6.3.1/../../../../arm-none-eabi/lib/thumb/v7e-m/fpv4-sp/hard\libc_nano.a(lib_a-strrchr.o)
 .bss           0x00000000        0x0 c:/mesh/arm_gcc/bin/../lib/gcc/arm-none-eabi/6.3.1/../../../../arm-none-eabi/lib/thumb/v7e-m/fpv4-sp/hard\libc_nano.a(lib_a-strrchr.o)
 .text          0x00000000        0x0 c:/mesh/arm_gcc/bin/../lib/gcc/arm-none-eabi/6.3.1/../../../../arm-none-eabi/lib/thumb/v7e-m/fpv4-sp/hard\libc_nano.a(lib_a-mlock.o)
 .data          0x00000000        0x0 c:/mesh/arm_gcc/bin/../lib/gcc/arm-none-eabi/6.3.1/../../../../arm-none-eabi/lib/thumb/v7e-m/fpv4-sp/hard\libc_nano.a(lib_a-mlock.o)
 .bss           0x00000000        0x0 c:/mesh/arm_gcc/bin/../lib/gcc/arm-none-eabi/6.3.1/../../../../arm-none-eabi/lib/thumb/v7e-m/fpv4-sp/hard\libc_nano.a(lib_a-mlock.o)
 .text          0x00000000        0x0 c:/mesh/arm_gcc/bin/../lib/gcc/arm-none-eabi/6.3.1/../../../../arm-none-eabi/lib/thumb/v7e-m/fpv4-sp/hard\libc_nano.a(lib_a-reent.o)
 .data          0x00000000        0x0 c:/mesh/arm_gcc/bin/../lib/gcc/arm-none-eabi/6.3.1/../../../../arm-none-eabi/lib/thumb/v7e-m/fpv4-sp/hard\libc_nano.a(lib_a-reent.o)
 .bss           0x00000000        0x0 c:/mesh/arm_gcc/bin/../lib/gcc/arm-none-eabi/6.3.1/../../../../arm-none-eabi/lib/thumb/v7e-m/fpv4-sp/hard\libc_nano.a(lib_a-reent.o)
 .text.cleanup_glue
                0x00000000       0x1a c:/mesh/arm_gcc/bin/../lib/gcc/arm-none-eabi/6.3.1/../../../../arm-none-eabi/lib/thumb/v7e-m/fpv4-sp/hard\libc_nano.a(lib_a-reent.o)
 .text._reclaim_reent
                0x00000000       0xb8 c:/mesh/arm_gcc/bin/../lib/gcc/arm-none-eabi/6.3.1/../../../../arm-none-eabi/lib/thumb/v7e-m/fpv4-sp/hard\libc_nano.a(lib_a-reent.o)
 .text          0x00000000        0x0 c:/mesh/arm_gcc/bin/../lib/gcc/arm-none-eabi/6.3.1/../../../../arm-none-eabi/lib/thumb/v7e-m/fpv4-sp/hard\libc_nano.a(lib_a-strchr.o)
 .data          0x00000000        0x0 c:/mesh/arm_gcc/bin/../lib/gcc/arm-none-eabi/6.3.1/../../../../arm-none-eabi/lib/thumb/v7e-m/fpv4-sp/hard\libc_nano.a(lib_a-strchr.o)
 .bss           0x00000000        0x0 c:/mesh/arm_gcc/bin/../lib/gcc/arm-none-eabi/6.3.1/../../../../arm-none-eabi/lib/thumb/v7e-m/fpv4-sp/hard\libc_nano.a(lib_a-strchr.o)
 .text          0x00000000        0x0 c:/mesh/arm_gcc/bin/../lib/gcc/arm-none-eabi/6.3.1/thumb/v7e-m/fpv4-sp/hard/crtend.o
 .data          0x00000000        0x0 c:/mesh/arm_gcc/bin/../lib/gcc/arm-none-eabi/6.3.1/thumb/v7e-m/fpv4-sp/hard/crtend.o
 .bss           0x00000000        0x0 c:/mesh/arm_gcc/bin/../lib/gcc/arm-none-eabi/6.3.1/thumb/v7e-m/fpv4-sp/hard/crtend.o
 .text          0x00000000        0x0 c:/mesh/arm_gcc/bin/../lib/gcc/arm-none-eabi/6.3.1/thumb/v7e-m/fpv4-sp/hard/crtn.o
 .data          0x00000000        0x0 c:/mesh/arm_gcc/bin/../lib/gcc/arm-none-eabi/6.3.1/thumb/v7e-m/fpv4-sp/hard/crtn.o
 .bss           0x00000000        0x0 c:/mesh/arm_gcc/bin/../lib/gcc/arm-none-eabi/6.3.1/thumb/v7e-m/fpv4-sp/hard/crtn.o
 .text          0x00000000        0x0 c:/mesh/arm_gcc/bin/../lib/gcc/arm-none-eabi/6.3.1/../../../../arm-none-eabi/lib/thumb/v7e-m/fpv4-sp/hard\libnosys.a(sbrk.o)
 .data          0x00000000        0x0 c:/mesh/arm_gcc/bin/../lib/gcc/arm-none-eabi/6.3.1/../../../../arm-none-eabi/lib/thumb/v7e-m/fpv4-sp/hard\libnosys.a(sbrk.o)
 .bss           0x00000000        0x0 c:/mesh/arm_gcc/bin/../lib/gcc/arm-none-eabi/6.3.1/../../../../arm-none-eabi/lib/thumb/v7e-m/fpv4-sp/hard\libnosys.a(sbrk.o)
 .text          0x00000000        0x0 c:/mesh/arm_gcc/bin/../lib/gcc/arm-none-eabi/6.3.1/../../../../arm-none-eabi/lib/thumb/v7e-m/fpv4-sp/hard\libnosys.a(_exit.o)
 .data          0x00000000        0x0 c:/mesh/arm_gcc/bin/../lib/gcc/arm-none-eabi/6.3.1/../../../../arm-none-eabi/lib/thumb/v7e-m/fpv4-sp/hard\libnosys.a(_exit.o)
 .bss           0x00000000        0x0 c:/mesh/arm_gcc/bin/../lib/gcc/arm-none-eabi/6.3.1/../../../../arm-none-eabi/lib/thumb/v7e-m/fpv4-sp/hard\libnosys.a(_exit.o)

Memory Configuration

Name             Origin             Length             Attributes
FLASH            0x00026000         0x000d1000         xr
RAM              0x200032c8         0x0003ca38         xrw
*default*        0x00000000         0xffffffff

Linker script and memory map


.text           0x00026000    0x1bfb8
 *(.isr_vector)
 .isr_vector    0x00026000      0x200 examples/light_switch/server/CMakeFiles/light_switch_server_nrf52840_xxAA_s140_6.0.0.dir/C_/ver/mod/nRF5_SDK_15.0.0_a53641a/modules/nrfx/mdk/gcc_startup_nrf52840.S.obj
                0x00026000                __isr_vector
 *(.text*)
 .text          0x00026200       0x6c c:/mesh/arm_gcc/bin/../lib/gcc/arm-none-eabi/6.3.1/thumb/v7e-m/fpv4-sp/hard/crtbegin.o
 .text          0x0002626c       0x74 c:/mesh/arm_gcc/bin/../lib/gcc/arm-none-eabi/6.3.1/../../../../arm-none-eabi/lib/thumb/v7e-m/fpv4-sp/hard/crt0.o
                0x0002626c                _start
                0x0002626c                _mainCRTStartup
 .text.sd_app_evt_wait
                0x000262e0        0x4 examples/light_switch/server/CMakeFiles/light_switch_server_nrf52840_xxAA_s140_6.0.0.dir/src/main.c.obj
 .text.provisioning_complete_cb
                0x000262e4       0xe4 examples/light_switch/server/CMakeFiles/light_switch_server_nrf52840_xxAA_s140_6.0.0.dir/src/main.c.obj
 .text.on_off_server_get_cb
                0x000263c8        0x8 examples/light_switch/server/CMakeFiles/light_switch_server_nrf52840_xxAA_s140_6.0.0.dir/src/main.c.obj
 .text.on_off_server_set_cb
                0x000263d0       0x7c examples/light_switch/server/CMakeFiles/light_switch_server_nrf52840_xxAA_s140_6.0.0.dir/src/main.c.obj
 .text.node_reset
                0x0002644c       0x80 examples/light_switch/server/CMakeFiles/light_switch_server_nrf52840_xxAA_s140_6.0.0.dir/src/main.c.obj
 .text.button_event_handler
                0x000264cc      0x100 examples/light_switch/server/CMakeFiles/light_switch_server_nrf52840_xxAA_s140_6.0.0.dir/src/main.c.obj
 .text.models_init_cb
                0x000265cc       0xb0 examples/light_switch/server/CMakeFiles/light_switch_server_nrf52840_xxAA_s140_6.0.0.dir/src/main.c.obj
 .text.config_server_evt_cb
                0x0002667c       0x88 examples/light_switch/server/CMakeFiles/light_switch_server_nrf52840_xxAA_s140_6.0.0.dir/src/main.c.obj
 .text.app_rtt_input_handler
                0x00026704      0x108 examples/light_switch/server/CMakeFiles/light_switch_server_nrf52840_xxAA_s140_6.0.0.dir/src/main.c.obj
 .text.startup.main
                0x0002680c      0x3f4 examples/light_switch/server/CMakeFiles/light_switch_server_nrf52840_xxAA_s140_6.0.0.dir/src/main.c.obj
                0x0002680c                main
 .text.mesh_evt_handler
                0x00026c00       0x10 examples/light_switch/server/CMakeFiles/light_switch_server_nrf52840_xxAA_s140_6.0.0.dir/__/__/__/mesh/stack/src/mesh_stack.c.obj
 .text.mesh_stack_init
                0x00026c10       0x90 examples/light_switch/server/CMakeFiles/light_switch_server_nrf52840_xxAA_s140_6.0.0.dir/__/__/__/mesh/stack/src/mesh_stack.c.obj
                0x00026c10                mesh_stack_init
 .text.mesh_stack_start
                0x00026ca0        0x4 examples/light_switch/server/CMakeFiles/light_switch_server_nrf52840_xxAA_s140_6.0.0.dir/__/__/__/mesh/stack/src/mesh_stack.c.obj
                0x00026ca0                mesh_stack_start
 .text.mesh_stack_provisioning_data_store
                0x00026ca4       0x78 examples/light_switch/server/CMakeFiles/light_switch_server_nrf52840_xxAA_s140_6.0.0.dir/__/__/__/mesh/stack/src/mesh_stack.c.obj
                0x00026ca4                mesh_stack_provisioning_data_store
 .text.mesh_stack_config_clear
                0x00026d1c       0x14 examples/light_switch/server/CMakeFiles/light_switch_server_nrf52840_xxAA_s140_6.0.0.dir/__/__/__/mesh/stack/src/mesh_stack.c.obj
                0x00026d1c                mesh_stack_config_clear
 .text.mesh_stack_device_reset
                0x00026d30       0x20 examples/light_switch/server/CMakeFiles/light_switch_server_nrf52840_xxAA_s140_6.0.0.dir/__/__/__/mesh/stack/src/mesh_stack.c.obj
                0x00026d30                mesh_stack_device_reset
 .text.sd_evt_get
                0x00026d50        0x4 examples/light_switch/server/CMakeFiles/light_switch_server_nrf52840_xxAA_s140_6.0.0.dir/__/__/common/src/mesh_softdevice_init.c.obj
 .text.sd_softdevice_enable
                0x00026d54        0x4 examples/light_switch/server/CMakeFiles/light_switch_server_nrf52840_xxAA_s140_6.0.0.dir/__/__/common/src/mesh_softdevice_init.c.obj
 .text.sd_ble_enable
                0x00026d58        0x4 examples/light_switch/server/CMakeFiles/light_switch_server_nrf52840_xxAA_s140_6.0.0.dir/__/__/common/src/mesh_softdevice_init.c.obj
 .text.SWI2_EGU2_IRQHandler
                0x00026d5c       0x1c examples/light_switch/server/CMakeFiles/light_switch_server_nrf52840_xxAA_s140_6.0.0.dir/__/__/common/src/mesh_softdevice_init.c.obj
                0x00026d5c                SWI2_EGU2_IRQHandler
 .text.mesh_softdevice_init
                0x00026d78      0x1f8 examples/light_switch/server/CMakeFiles/light_switch_server_nrf52840_xxAA_s140_6.0.0.dir/__/__/common/src/mesh_softdevice_init.c.obj
                0x00026d78                mesh_softdevice_init
 .text.prov_evt_handler
                0x00026f70       0x70 examples/light_switch/server/CMakeFiles/light_switch_server_nrf52840_xxAA_s140_6.0.0.dir/__/__/common/src/mesh_provisionee.c.obj
 .text.mesh_provisionee_prov_start
                0x00026fe0       0x88 examples/light_switch/server/CMakeFiles/light_switch_server_nrf52840_xxAA_s140_6.0.0.dir/__/__/common/src/mesh_provisionee.c.obj
                0x00026fe0                mesh_provisionee_prov_start
 .text.TIMER2_IRQHandler
                0x00027068       0x34 examples/light_switch/server/CMakeFiles/light_switch_server_nrf52840_xxAA_s140_6.0.0.dir/__/__/common/src/rtt_input.c.obj
                0x00027068                TIMER2_IRQHandler
 .text.rtt_input_enable
                0x0002709c       0x5c examples/light_switch/server/CMakeFiles/light_switch_server_nrf52840_xxAA_s140_6.0.0.dir/__/__/common/src/rtt_input.c.obj
                0x0002709c                rtt_input_enable
 .text.hal_led_pin_get
                0x000270f8       0x18 examples/light_switch/server/CMakeFiles/light_switch_server_nrf52840_xxAA_s140_6.0.0.dir/__/__/common/src/simple_hal.c.obj
                0x000270f8                hal_led_pin_get
 .text.hal_led_pin_set
                0x00027110       0x18 examples/light_switch/server/CMakeFiles/light_switch_server_nrf52840_xxAA_s140_6.0.0.dir/__/__/common/src/simple_hal.c.obj
                0x00027110                hal_led_pin_set
 .text.hal_led_mask_set
                0x00027128       0x14 examples/light_switch/server/CMakeFiles/light_switch_server_nrf52840_xxAA_s140_6.0.0.dir/__/__/common/src/simple_hal.c.obj
                0x00027128                hal_led_mask_set
 .text.hal_led_blink_ms
                0x0002713c       0x4c examples/light_switch/server/CMakeFiles/light_switch_server_nrf52840_xxAA_s140_6.0.0.dir/__/__/common/src/simple_hal.c.obj
                0x0002713c                hal_led_blink_ms
 .text.hal_leds_init
                0x00027188       0x3c examples/light_switch/server/CMakeFiles/light_switch_server_nrf52840_xxAA_s140_6.0.0.dir/__/__/common/src/simple_hal.c.obj
                0x00027188                hal_leds_init
 .text.hal_buttons_init
                0x000271c4       0x54 examples/light_switch/server/CMakeFiles/light_switch_server_nrf52840_xxAA_s140_6.0.0.dir/__/__/common/src/simple_hal.c.obj
                0x000271c4                hal_buttons_init
 .text.GPIOTE_IRQHandler
                0x00027218      0x114 examples/light_switch/server/CMakeFiles/light_switch_server_nrf52840_xxAA_s140_6.0.0.dir/__/__/common/src/simple_hal.c.obj
                0x00027218                GPIOTE_IRQHandler
 .text.mesh_app_uuid_gen
                0x0002732c       0x34 examples/light_switch/server/CMakeFiles/light_switch_server_nrf52840_xxAA_s140_6.0.0.dir/__/__/common/src/mesh_app_utils.c.obj
                0x0002732c                mesh_app_uuid_gen
 .text._weak_handler
                0x00027360        0x4 examples/light_switch/server/CMakeFiles/light_switch_server_nrf52840_xxAA_s140_6.0.0.dir/__/__/nrf_mesh_weak.c.obj
                0x00027360                nrf_mesh_dfu_init
                0x00027360                nrf_mesh_dfu_jump_to_bootloader
                0x00027360                nrf_mesh_dfu_rx
                0x00027360                prov_provisioner_provision
                0x00027360                nrf_mesh_dfu_bank_info_get
                0x00027360                prov_provisioner_oob_pubkey
                0x00027360                nrf_mesh_dfu_request
                0x00027360                nrf_mesh_dfu_bank_flash
                0x00027360                _weak_handler
                0x00027360                nrf_mesh_dfu_relay
                0x00027360                nrf_mesh_dfu_abort
                0x00027360                mesh_flash_op_execute
                0x00027360                prov_provisionee_init
                0x00027360                nrf_mesh_dfu_state_get
                0x00027360                prov_provisioner_shared_secret
                0x00027360                prov_provisioner_auth_data
                0x00027360                prov_provisioner_oob_use
 .text.app_error_fault_handler
                0x00027364      0x240 examples/light_switch/server/CMakeFiles/light_switch_server_nrf52840_xxAA_s140_6.0.0.dir/__/__/common/src/app_error_weak.c.obj
                0x00027364                app_error_fault_handler
 .text.mesh_assertion_handler
                0x000275a4       0x24 examples/light_switch/server/CMakeFiles/light_switch_server_nrf52840_xxAA_s140_6.0.0.dir/__/__/common/src/assertion_handler_weak.c.obj
                0x000275a4                mesh_assertion_handler
 .text.nrf_mesh_configure_device_uuid_set
                0x000275c8       0x10 examples/light_switch/server/CMakeFiles/light_switch_server_nrf52840_xxAA_s140_6.0.0.dir/__/__/__/mesh/core/src/nrf_mesh_configure.c.obj
                0x000275c8                nrf_mesh_configure_device_uuid_set
 .text.nrf_mesh_configure_device_uuid_reset
                0x000275d8       0x2c examples/light_switch/server/CMakeFiles/light_switch_server_nrf52840_xxAA_s140_6.0.0.dir/__/__/__/mesh/core/src/nrf_mesh_configure.c.obj
                0x000275d8                nrf_mesh_configure_device_uuid_reset
 .text.nrf_mesh_configure_device_uuid_get
                0x00027604        0x8 examples/light_switch/server/CMakeFiles/light_switch_server_nrf52840_xxAA_s140_6.0.0.dir/__/__/__/mesh/core/src/nrf_mesh_configure.c.obj
                0x00027604                nrf_mesh_configure_device_uuid_get
 .text.sd_ecb_block_encrypt
                0x0002760c        0x4 examples/light_switch/server/CMakeFiles/light_switch_server_nrf52840_xxAA_s140_6.0.0.dir/__/__/__/mesh/core/src/aes.c.obj
 .text.aes_encrypt
                0x00027610       0x34 examples/light_switch/server/CMakeFiles/light_switch_server_nrf52840_xxAA_s140_6.0.0.dir/__/__/__/mesh/core/src/aes.c.obj
                0x00027610                aes_encrypt
 .text.msg_cache_init
                0x00027644       0x24 examples/light_switch/server/CMakeFiles/light_switch_server_nrf52840_xxAA_s140_6.0.0.dir/__/__/__/mesh/core/src/msg_cache.c.obj
                0x00027644                msg_cache_init
 .text.msg_cache_entry_exists
                0x00027668       0x40 examples/light_switch/server/CMakeFiles/light_switch_server_nrf52840_xxAA_s140_6.0.0.dir/__/__/__/mesh/core/src/msg_cache.c.obj
                0x00027668                msg_cache_entry_exists
 .text.msg_cache_entry_add
                0x000276a8       0x30 examples/light_switch/server/CMakeFiles/light_switch_server_nrf52840_xxAA_s140_6.0.0.dir/__/__/__/mesh/core/src/msg_cache.c.obj
                0x000276a8                msg_cache_entry_add
 .text.tx_complete
                0x000276d8       0x30 examples/light_switch/server/CMakeFiles/light_switch_server_nrf52840_xxAA_s140_6.0.0.dir/__/__/__/mesh/core/src/transport.c.obj
 .text.upper_trs_packet_encrypt
                0x00027708       0xb4 examples/light_switch/server/CMakeFiles/light_switch_server_nrf52840_xxAA_s140_6.0.0.dir/__/__/__/mesh/core/src/transport.c.obj
 .text.trs_sar_packet_out
                0x000277bc      0x1a4 examples/light_switch/server/CMakeFiles/light_switch_server_nrf52840_xxAA_s140_6.0.0.dir/__/__/__/mesh/core/src/transport.c.obj
 .text.upper_transport_tx.part.25
                0x00027960      0x34c examples/light_switch/server/CMakeFiles/light_switch_server_nrf52840_xxAA_s140_6.0.0.dir/__/__/__/mesh/core/src/transport.c.obj
 .text.sar_ack_send.part.29
                0x00027cac       0xd4 examples/light_switch/server/CMakeFiles/light_switch_server_nrf52840_xxAA_s140_6.0.0.dir/__/__/__/mesh/core/src/transport.c.obj
 .text.ack_timeout
                0x00027d80       0x34 examples/light_switch/server/CMakeFiles/light_switch_server_nrf52840_xxAA_s140_6.0.0.dir/__/__/__/mesh/core/src/transport.c.obj
 .text.upper_transport_access_packet_in
                0x00027db4      0x334 examples/light_switch/server/CMakeFiles/light_switch_server_nrf52840_xxAA_s140_6.0.0.dir/__/__/__/mesh/core/src/transport.c.obj
 .text.sar_ctx_cancel
                0x000280e8      0x148 examples/light_switch/server/CMakeFiles/light_switch_server_nrf52840_xxAA_s140_6.0.0.dir/__/__/__/mesh/core/src/transport.c.obj
 .text.retry_timeout
                0x00028230       0x98 examples/light_switch/server/CMakeFiles/light_switch_server_nrf52840_xxAA_s140_6.0.0.dir/__/__/__/mesh/core/src/transport.c.obj
 .text.transport_sar_process
                0x000282c8      0x288 examples/light_switch/server/CMakeFiles/light_switch_server_nrf52840_xxAA_s140_6.0.0.dir/__/__/__/mesh/core/src/transport.c.obj
 .text.upper_transport_packet_in
                0x00028550      0x2e4 examples/light_switch/server/CMakeFiles/light_switch_server_nrf52840_xxAA_s140_6.0.0.dir/__/__/__/mesh/core/src/transport.c.obj
 .text.abort_timeout
                0x00028834      0x13c examples/light_switch/server/CMakeFiles/light_switch_server_nrf52840_xxAA_s140_6.0.0.dir/__/__/__/mesh/core/src/transport.c.obj
 .text.transport_init
                0x00028970       0xac examples/light_switch/server/CMakeFiles/light_switch_server_nrf52840_xxAA_s140_6.0.0.dir/__/__/__/mesh/core/src/transport.c.obj
                0x00028970                transport_init
 .text.transport_packet_in
                0x00028a1c      0x770 examples/light_switch/server/CMakeFiles/light_switch_server_nrf52840_xxAA_s140_6.0.0.dir/__/__/__/mesh/core/src/transport.c.obj
                0x00028a1c                transport_packet_in
 .text.transport_tx
                0x0002918c      0x100 examples/light_switch/server/CMakeFiles/light_switch_server_nrf52840_xxAA_s140_6.0.0.dir/__/__/__/mesh/core/src/transport.c.obj
                0x0002918c                transport_tx
 .text.transport_control_tx
                0x0002928c       0xc0 examples/light_switch/server/CMakeFiles/light_switch_server_nrf52840_xxAA_s140_6.0.0.dir/__/__/__/mesh/core/src/transport.c.obj
                0x0002928c                transport_control_tx
 .text.transport_opt_set
                0x0002934c       0xdc examples/light_switch/server/CMakeFiles/light_switch_server_nrf52840_xxAA_s140_6.0.0.dir/__/__/__/mesh/core/src/transport.c.obj
                0x0002934c                transport_opt_set
 .text.transport_opt_get
                0x00029428       0x84 examples/light_switch/server/CMakeFiles/light_switch_server_nrf52840_xxAA_s140_6.0.0.dir/__/__/__/mesh/core/src/transport.c.obj
                0x00029428                transport_opt_get
 .text.transport_control_packet_consumer_add
                0x000294ac       0x60 examples/light_switch/server/CMakeFiles/light_switch_server_nrf52840_xxAA_s140_6.0.0.dir/__/__/__/mesh/core/src/transport.c.obj
                0x000294ac                transport_control_packet_consumer_add
 .text.event_handle
                0x0002950c       0x28 examples/light_switch/server/CMakeFiles/light_switch_server_nrf52840_xxAA_s140_6.0.0.dir/__/__/__/mesh/core/src/event.c.obj
                0x0002950c                event_handle
 .text.event_handler_add
                0x00029534       0x28 examples/light_switch/server/CMakeFiles/light_switch_server_nrf52840_xxAA_s140_6.0.0.dir/__/__/__/mesh/core/src/event.c.obj
                0x00029534                event_handler_add
 .text.event_handler_remove
                0x0002955c       0x28 examples/light_switch/server/CMakeFiles/light_switch_server_nrf52840_xxAA_s140_6.0.0.dir/__/__/__/mesh/core/src/event.c.obj
                0x0002955c                event_handler_remove
 .text.packet_buffer_init
                0x00029584       0xb4 examples/light_switch/server/CMakeFiles/light_switch_server_nrf52840_xxAA_s140_6.0.0.dir/__/__/__/mesh/core/src/packet_buffer.c.obj
                0x00029584                packet_buffer_init
 .text.packet_buffer_flush
                0x00029638       0x74 examples/light_switch/server/CMakeFiles/light_switch_server_nrf52840_xxAA_s140_6.0.0.dir/__/__/__/mesh/core/src/packet_buffer.c.obj
                0x00029638                packet_buffer_flush
 .text.packet_buffer_reserve
                0x000296ac       0x9c examples/light_switch/server/CMakeFiles/light_switch_server_nrf52840_xxAA_s140_6.0.0.dir/__/__/__/mesh/core/src/packet_buffer.c.obj
                0x000296ac                packet_buffer_reserve
 .text.packet_buffer_commit
                0x00029748       0x7c examples/light_switch/server/CMakeFiles/light_switch_server_nrf52840_xxAA_s140_6.0.0.dir/__/__/__/mesh/core/src/packet_buffer.c.obj
                0x00029748                packet_buffer_commit
 .text.packet_buffer_pop
                0x000297c4       0x50 examples/light_switch/server/CMakeFiles/light_switch_server_nrf52840_xxAA_s140_6.0.0.dir/__/__/__/mesh/core/src/packet_buffer.c.obj
                0x000297c4                packet_buffer_pop
 .text.packet_buffer_can_pop
                0x00029814       0x24 examples/light_switch/server/CMakeFiles/light_switch_server_nrf52840_xxAA_s140_6.0.0.dir/__/__/__/mesh/core/src/packet_buffer.c.obj
                0x00029814                packet_buffer_can_pop
 .text.packet_buffer_packets_ready_to_pop
                0x00029838       0x48 examples/light_switch/server/CMakeFiles/light_switch_server_nrf52840_xxAA_s140_6.0.0.dir/__/__/__/mesh/core/src/packet_buffer.c.obj
                0x00029838                packet_buffer_packets_ready_to_pop
 .text.packet_buffer_free
                0x00029880       0x8c examples/light_switch/server/CMakeFiles/light_switch_server_nrf52840_xxAA_s140_6.0.0.dir/__/__/__/mesh/core/src/packet_buffer.c.obj
                0x00029880                packet_buffer_free
 .text.erase_source
                0x0002990c       0x34 examples/light_switch/server/CMakeFiles/light_switch_server_nrf52840_xxAA_s140_6.0.0.dir/__/__/__/mesh/core/src/flash_manager_defrag.c.obj
 .text.erase_recovery_area
                0x00029940       0x34 examples/light_switch/server/CMakeFiles/light_switch_server_nrf52840_xxAA_s140_6.0.0.dir/__/__/__/mesh/core/src/flash_manager_defrag.c.obj
 .text.write_back
                0x00029974       0x44 examples/light_switch/server/CMakeFiles/light_switch_server_nrf52840_xxAA_s140_6.0.0.dir/__/__/__/mesh/core/src/flash_manager_defrag.c.obj
 .text.write_defrag_start_pointer
                0x000299b8       0x38 examples/light_switch/server/CMakeFiles/light_switch_server_nrf52840_xxAA_s140_6.0.0.dir/__/__/__/mesh/core/src/flash_manager_defrag.c.obj
 .text.copy_metadata
                0x000299f0       0x58 examples/light_switch/server/CMakeFiles/light_switch_server_nrf52840_xxAA_s140_6.0.0.dir/__/__/__/mesh/core/src/flash_manager_defrag.c.obj
 .text.seal_storage_page
                0x00029a48       0x70 examples/light_switch/server/CMakeFiles/light_switch_server_nrf52840_xxAA_s140_6.0.0.dir/__/__/__/mesh/core/src/flash_manager_defrag.c.obj
 .text.post_process
                0x00029ab8       0x64 examples/light_switch/server/CMakeFiles/light_switch_server_nrf52840_xxAA_s140_6.0.0.dir/__/__/__/mesh/core/src/flash_manager_defrag.c.obj
 .text.check_for_invalid_entries
                0x00029b1c       0x40 examples/light_switch/server/CMakeFiles/light_switch_server_nrf52840_xxAA_s140_6.0.0.dir/__/__/__/mesh/core/src/flash_manager_defrag.c.obj
 .text.execute_procedure_step
                0x00029b5c       0xa0 examples/light_switch/server/CMakeFiles/light_switch_server_nrf52840_xxAA_s140_6.0.0.dir/__/__/__/mesh/core/src/flash_manager_defrag.c.obj
 .text.on_flash_op_end
                0x00029bfc       0x4c examples/light_switch/server/CMakeFiles/light_switch_server_nrf52840_xxAA_s140_6.0.0.dir/__/__/__/mesh/core/src/flash_manager_defrag.c.obj
 .text.invalidate_duplicate_entries
                0x00029c48      0x158 examples/light_switch/server/CMakeFiles/light_switch_server_nrf52840_xxAA_s140_6.0.0.dir/__/__/__/mesh/core/src/flash_manager_defrag.c.obj
 .text.backup_entries
                0x00029da0      0x1c4 examples/light_switch/server/CMakeFiles/light_switch_server_nrf52840_xxAA_s140_6.0.0.dir/__/__/__/mesh/core/src/flash_manager_defrag.c.obj
 .text.flash_manager_defrag_init
                0x00029f64       0x6c examples/light_switch/server/CMakeFiles/light_switch_server_nrf52840_xxAA_s140_6.0.0.dir/__/__/__/mesh/core/src/flash_manager_defrag.c.obj
                0x00029f64                flash_manager_defrag_init
 .text.flash_manager_defrag_is_running
                0x00029fd0       0x10 examples/light_switch/server/CMakeFiles/light_switch_server_nrf52840_xxAA_s140_6.0.0.dir/__/__/__/mesh/core/src/flash_manager_defrag.c.obj
                0x00029fd0                flash_manager_defrag_is_running
 .text.flash_manager_defrag
                0x00029fe0       0x48 examples/light_switch/server/CMakeFiles/light_switch_server_nrf52840_xxAA_s140_6.0.0.dir/__/__/__/mesh/core/src/flash_manager_defrag.c.obj
                0x00029fe0                flash_manager_defrag
 .text.flash_manager_defrag_recovery_page_get
                0x0002a028        0xc examples/light_switch/server/CMakeFiles/light_switch_server_nrf52840_xxAA_s140_6.0.0.dir/__/__/__/mesh/core/src/flash_manager_defrag.c.obj
                0x0002a028                flash_manager_defrag_recovery_page_get
 .text.fifo_init
                0x0002a034       0x38 examples/light_switch/server/CMakeFiles/light_switch_server_nrf52840_xxAA_s140_6.0.0.dir/__/__/__/mesh/core/src/fifo.c.obj
                0x0002a034                fifo_init
 .text.fifo_push
                0x0002a06c       0x54 examples/light_switch/server/CMakeFiles/light_switch_server_nrf52840_xxAA_s140_6.0.0.dir/__/__/__/mesh/core/src/fifo.c.obj
                0x0002a06c                fifo_push
 .text.fifo_pop
                0x0002a0c0       0x58 examples/light_switch/server/CMakeFiles/light_switch_server_nrf52840_xxAA_s140_6.0.0.dir/__/__/__/mesh/core/src/fifo.c.obj
                0x0002a0c0                fifo_pop
 .text.nrf_flash_erase
                0x0002a118       0x5c examples/light_switch/server/CMakeFiles/light_switch_server_nrf52840_xxAA_s140_6.0.0.dir/__/__/__/mesh/core/src/nrf_flash.c.obj
                0x0002a118                nrf_flash_erase
 .text.nrf_flash_write
                0x0002a174       0x6c examples/light_switch/server/CMakeFiles/light_switch_server_nrf52840_xxAA_s140_6.0.0.dir/__/__/__/mesh/core/src/nrf_flash.c.obj
                0x0002a174                nrf_flash_write
 .text.packet_mgr_init
                0x0002a1e0       0x4c examples/light_switch/server/CMakeFiles/light_switch_server_nrf52840_xxAA_s140_6.0.0.dir/__/__/__/mesh/core/src/packet_mgr.c.obj
                0x0002a1e0                packet_mgr_init
 .text.flash_store_iv_index
                0x0002a22c       0x38 examples/light_switch/server/CMakeFiles/light_switch_server_nrf52840_xxAA_s140_6.0.0.dir/__/__/__/mesh/core/src/net_state.c.obj
 .text.flash_mem_available
                0x0002a264       0x1c examples/light_switch/server/CMakeFiles/light_switch_server_nrf52840_xxAA_s140_6.0.0.dir/__/__/__/mesh/core/src/net_state.c.obj
 .text.init_flash_storage
                0x0002a280       0x44 examples/light_switch/server/CMakeFiles/light_switch_server_nrf52840_xxAA_s140_6.0.0.dir/__/__/__/mesh/core/src/net_state.c.obj
 .text.flash_write_complete
                0x0002a2c4       0x68 examples/light_switch/server/CMakeFiles/light_switch_server_nrf52840_xxAA_s140_6.0.0.dir/__/__/__/mesh/core/src/net_state.c.obj
 .text.seqnum_block_allocate
                0x0002a32c       0x4c examples/light_switch/server/CMakeFiles/light_switch_server_nrf52840_xxAA_s140_6.0.0.dir/__/__/__/mesh/core/src/net_state.c.obj
 .text.net_state_reset
                0x0002a378       0x78 examples/light_switch/server/CMakeFiles/light_switch_server_nrf52840_xxAA_s140_6.0.0.dir/__/__/__/mesh/core/src/net_state.c.obj
                0x0002a378                net_state_reset
 .text.iv_update_trigger_if_pending
                0x0002a3f0      0x170 examples/light_switch/server/CMakeFiles/light_switch_server_nrf52840_xxAA_s140_6.0.0.dir/__/__/__/mesh/core/src/net_state.c.obj
 .text.mesh_evt_handler
                0x0002a560      0x108 examples/light_switch/server/CMakeFiles/light_switch_server_nrf52840_xxAA_s140_6.0.0.dir/__/__/__/mesh/core/src/net_state.c.obj
 .text.iv_update_timer_handler
                0x0002a668       0x70 examples/light_switch/server/CMakeFiles/light_switch_server_nrf52840_xxAA_s140_6.0.0.dir/__/__/__/mesh/core/src/net_state.c.obj
 .text.net_state_recover_from_flash
                0x0002a6d8      0x118 examples/light_switch/server/CMakeFiles/light_switch_server_nrf52840_xxAA_s140_6.0.0.dir/__/__/__/mesh/core/src/net_state.c.obj
                0x0002a6d8                net_state_recover_from_flash
 .text.net_state_flash_area_get
                0x0002a7f0        0xc examples/light_switch/server/CMakeFiles/light_switch_server_nrf52840_xxAA_s140_6.0.0.dir/__/__/__/mesh/core/src/net_state.c.obj
                0x0002a7f0                net_state_flash_area_get
 .text.net_state_init
                0x0002a7fc       0x94 examples/light_switch/server/CMakeFiles/light_switch_server_nrf52840_xxAA_s140_6.0.0.dir/__/__/__/mesh/core/src/net_state.c.obj
                0x0002a7fc                net_state_init
 .text.net_state_seqnum_alloc
                0x0002a890       0xd4 examples/light_switch/server/CMakeFiles/light_switch_server_nrf52840_xxAA_s140_6.0.0.dir/__/__/__/mesh/core/src/net_state.c.obj
                0x0002a890                net_state_seqnum_alloc
 .text.net_state_iv_index_lock
                0x0002a964      0x190 examples/light_switch/server/CMakeFiles/light_switch_server_nrf52840_xxAA_s140_6.0.0.dir/__/__/__/mesh/core/src/net_state.c.obj
                0x0002a964                net_state_iv_index_lock
 .text.net_state_key_refresh_phase_changed
                0x0002aaf4       0x20 examples/light_switch/server/CMakeFiles/light_switch_server_nrf52840_xxAA_s140_6.0.0.dir/__/__/__/mesh/core/src/net_state.c.obj
                0x0002aaf4                net_state_key_refresh_phase_changed
 .text.net_state_beacon_iv_index_get
                0x0002ab14        0xc examples/light_switch/server/CMakeFiles/light_switch_server_nrf52840_xxAA_s140_6.0.0.dir/__/__/__/mesh/core/src/net_state.c.obj
                0x0002ab14                net_state_beacon_iv_index_get
 .text.net_state_tx_iv_index_get
                0x0002ab20       0x14 examples/light_switch/server/CMakeFiles/light_switch_server_nrf52840_xxAA_s140_6.0.0.dir/__/__/__/mesh/core/src/net_state.c.obj
                0x0002ab20                net_state_tx_iv_index_get
 .text.net_state_rx_iv_index_get
                0x0002ab34       0x18 examples/light_switch/server/CMakeFiles/light_switch_server_nrf52840_xxAA_s140_6.0.0.dir/__/__/__/mesh/core/src/net_state.c.obj
                0x0002ab34                net_state_rx_iv_index_get
 .text.net_state_iv_update_get
                0x0002ab4c        0xc examples/light_switch/server/CMakeFiles/light_switch_server_nrf52840_xxAA_s140_6.0.0.dir/__/__/__/mesh/core/src/net_state.c.obj
                0x0002ab4c                net_state_iv_update_get
 .text.net_state_iv_index_set
                0x0002ab58       0x8c examples/light_switch/server/CMakeFiles/light_switch_server_nrf52840_xxAA_s140_6.0.0.dir/__/__/__/mesh/core/src/net_state.c.obj
                0x0002ab58                net_state_iv_index_set
 .text.send_end_events
                0x0002abe4       0x90 examples/light_switch/server/CMakeFiles/light_switch_server_nrf52840_xxAA_s140_6.0.0.dir/__/__/__/mesh/core/src/mesh_flash.c.obj
 .text.flash_op_start
                0x0002ac74      0x224 examples/light_switch/server/CMakeFiles/light_switch_server_nrf52840_xxAA_s140_6.0.0.dir/__/__/__/mesh/core/src/mesh_flash.c.obj
 .text.mesh_flash_init
                0x0002ae98       0x88 examples/light_switch/server/CMakeFiles/light_switch_server_nrf52840_xxAA_s140_6.0.0.dir/__/__/__/mesh/core/src/mesh_flash.c.obj
                0x0002ae98                mesh_flash_init
 .text.mesh_flash_user_callback_set
                0x0002af20       0x20 examples/light_switch/server/CMakeFiles/light_switch_server_nrf52840_xxAA_s140_6.0.0.dir/__/__/__/mesh/core/src/mesh_flash.c.obj
                0x0002af20                mesh_flash_user_callback_set
 .text.mesh_flash_op_push
                0x0002af40      0x1a0 examples/light_switch/server/CMakeFiles/light_switch_server_nrf52840_xxAA_s140_6.0.0.dir/__/__/__/mesh/core/src/mesh_flash.c.obj
                0x0002af40                mesh_flash_op_push
 .text.nrf_mesh_address_type_get
                0x0002b0e0       0x10 examples/light_switch/server/CMakeFiles/light_switch_server_nrf52840_xxAA_s140_6.0.0.dir/__/__/__/mesh/core/src/nrf_mesh_utils.c.obj
                0x0002b0e0                nrf_mesh_address_type_get
 .text.sd_softdevice_is_enabled
                0x0002b0f0        0x4 examples/light_switch/server/CMakeFiles/light_switch_server_nrf52840_xxAA_s140_6.0.0.dir/__/__/__/mesh/core/src/nrf_mesh.c.obj
 .text.nrf_mesh_listen
                0x0002b0f4      0x1c8 examples/light_switch/server/CMakeFiles/light_switch_server_nrf52840_xxAA_s140_6.0.0.dir/__/__/__/mesh/core/src/nrf_mesh.c.obj
 .text.flash_stable_cb
                0x0002b2bc       0x20 examples/light_switch/server/CMakeFiles/light_switch_server_nrf52840_xxAA_s140_6.0.0.dir/__/__/__/mesh/core/src/nrf_mesh.c.obj
 .text.scanner_packet_process_cb
                0x0002b2dc       0x88 examples/light_switch/server/CMakeFiles/light_switch_server_nrf52840_xxAA_s140_6.0.0.dir/__/__/__/mesh/core/src/nrf_mesh.c.obj
 .text.nrf_mesh_init
                0x0002b364       0xe0 examples/light_switch/server/CMakeFiles/light_switch_server_nrf52840_xxAA_s140_6.0.0.dir/__/__/__/mesh/core/src/nrf_mesh.c.obj
                0x0002b364                nrf_mesh_init
 .text.nrf_mesh_enable
                0x0002b444       0x48 examples/light_switch/server/CMakeFiles/light_switch_server_nrf52840_xxAA_s140_6.0.0.dir/__/__/__/mesh/core/src/nrf_mesh.c.obj
                0x0002b444                nrf_mesh_enable
 .text.nrf_mesh_packet_send
                0x0002b48c       0x94 examples/light_switch/server/CMakeFiles/light_switch_server_nrf52840_xxAA_s140_6.0.0.dir/__/__/__/mesh/core/src/nrf_mesh.c.obj
                0x0002b48c                nrf_mesh_packet_send
 .text.nrf_mesh_evt_handler_add
                0x0002b520        0x4 examples/light_switch/server/CMakeFiles/light_switch_server_nrf52840_xxAA_s140_6.0.0.dir/__/__/__/mesh/core/src/nrf_mesh.c.obj
                0x0002b520                nrf_mesh_evt_handler_add
 .text.nrf_mesh_on_sd_evt
                0x0002b524        0xc examples/light_switch/server/CMakeFiles/light_switch_server_nrf52840_xxAA_s140_6.0.0.dir/__/__/__/mesh/core/src/nrf_mesh.c.obj
                0x0002b524                nrf_mesh_on_sd_evt
 .text.nrf_mesh_subnet_added
                0x0002b530        0x4 examples/light_switch/server/CMakeFiles/light_switch_server_nrf52840_xxAA_s140_6.0.0.dir/__/__/__/mesh/core/src/nrf_mesh.c.obj
                0x0002b530                nrf_mesh_subnet_added
 .text.queue_init
                0x0002b534       0x1c examples/light_switch/server/CMakeFiles/light_switch_server_nrf52840_xxAA_s140_6.0.0.dir/__/__/__/mesh/core/src/queue.c.obj
                0x0002b534                queue_init
 .text.queue_push
                0x0002b550       0x44 examples/light_switch/server/CMakeFiles/light_switch_server_nrf52840_xxAA_s140_6.0.0.dir/__/__/__/mesh/core/src/queue.c.obj
                0x0002b550                queue_push
 .text.queue_pop
                0x0002b594       0x2c examples/light_switch/server/CMakeFiles/light_switch_server_nrf52840_xxAA_s140_6.0.0.dir/__/__/__/mesh/core/src/queue.c.obj
                0x0002b594                queue_pop
 .text.queue_peek
                0x0002b5c0       0x14 examples/light_switch/server/CMakeFiles/light_switch_server_nrf52840_xxAA_s140_6.0.0.dir/__/__/__/mesh/core/src/queue.c.obj
                0x0002b5c0                queue_peek
 .text.sd_power_reset_reason_clr
                0x0002b5d4        0x4 examples/light_switch/server/CMakeFiles/light_switch_server_nrf52840_xxAA_s140_6.0.0.dir/__/__/__/mesh/core/src/hal.c.obj
 .text.hal_device_reset
                0x0002b5d8       0x2c examples/light_switch/server/CMakeFiles/light_switch_server_nrf52840_xxAA_s140_6.0.0.dir/__/__/__/mesh/core/src/hal.c.obj
                0x0002b5d8                hal_device_reset
 .text.hal_lfclk_ppm_get
                0x0002b604       0x14 examples/light_switch/server/CMakeFiles/light_switch_server_nrf52840_xxAA_s140_6.0.0.dir/__/__/__/mesh/core/src/hal.c.obj
                0x0002b604                hal_lfclk_ppm_get
 .text.aes_cmac_subkey_generate
                0x0002b618      0x2b0 examples/light_switch/server/CMakeFiles/light_switch_server_nrf52840_xxAA_s140_6.0.0.dir/__/__/__/mesh/core/src/aes_cmac.c.obj
                0x0002b618                aes_cmac_subkey_generate
 .text.aes_cmac
                0x0002b8c8      0x49c examples/light_switch/server/CMakeFiles/light_switch_server_nrf52840_xxAA_s140_6.0.0.dir/__/__/__/mesh/core/src/aes_cmac.c.obj
                0x0002b8c8                aes_cmac
 .text.timer_cb
                0x0002bd64        0xc examples/light_switch/server/CMakeFiles/light_switch_server_nrf52840_xxAA_s140_6.0.0.dir/__/__/__/mesh/core/src/timer_scheduler.c.obj
 .text.add_evt.constprop.1
                0x0002bd70       0x60 examples/light_switch/server/CMakeFiles/light_switch_server_nrf52840_xxAA_s140_6.0.0.dir/__/__/__/mesh/core/src/timer_scheduler.c.obj
 .text.flag_event_cb
                0x0002bdd0      0x328 examples/light_switch/server/CMakeFiles/light_switch_server_nrf52840_xxAA_s140_6.0.0.dir/__/__/__/mesh/core/src/timer_scheduler.c.obj
 .text.timer_sch_init
                0x0002c0f8       0x24 examples/light_switch/server/CMakeFiles/light_switch_server_nrf52840_xxAA_s140_6.0.0.dir/__/__/__/mesh/core/src/timer_scheduler.c.obj
                0x0002c0f8                timer_sch_init
 .text.timer_sch_schedule
                0x0002c11c       0x64 examples/light_switch/server/CMakeFiles/light_switch_server_nrf52840_xxAA_s140_6.0.0.dir/__/__/__/mesh/core/src/timer_scheduler.c.obj
                0x0002c11c                timer_sch_schedule
 .text.timer_sch_abort
                0x0002c180       0x5c examples/light_switch/server/CMakeFiles/light_switch_server_nrf52840_xxAA_s140_6.0.0.dir/__/__/__/mesh/core/src/timer_scheduler.c.obj
                0x0002c180                timer_sch_abort
 .text.timer_sch_reschedule
                0x0002c1dc       0x88 examples/light_switch/server/CMakeFiles/light_switch_server_nrf52840_xxAA_s140_6.0.0.dir/__/__/__/mesh/core/src/timer_scheduler.c.obj
                0x0002c1dc                timer_sch_reschedule
 .text.timer_event_handler
                0x0002c264       0xd0 examples/light_switch/server/CMakeFiles/light_switch_server_nrf52840_xxAA_s140_6.0.0.dir/__/__/__/mesh/core/src/timer.c.obj
                0x0002c264                timer_event_handler
 .text.timer_order_cb
                0x0002c334       0x98 examples/light_switch/server/CMakeFiles/light_switch_server_nrf52840_xxAA_s140_6.0.0.dir/__/__/__/mesh/core/src/timer.c.obj
                0x0002c334                timer_order_cb
 .text.timer_now
                0x0002c3cc       0x58 examples/light_switch/server/CMakeFiles/light_switch_server_nrf52840_xxAA_s140_6.0.0.dir/__/__/__/mesh/core/src/timer.c.obj
                0x0002c3cc                timer_now
 .text.timer_on_ts_begin
                0x0002c424      0x104 examples/light_switch/server/CMakeFiles/light_switch_server_nrf52840_xxAA_s140_6.0.0.dir/__/__/__/mesh/core/src/timer.c.obj
                0x0002c424                timer_on_ts_begin
 .text.timer_on_ts_end
                0x0002c528       0x78 examples/light_switch/server/CMakeFiles/light_switch_server_nrf52840_xxAA_s140_6.0.0.dir/__/__/__/mesh/core/src/timer.c.obj
                0x0002c528                timer_on_ts_end
 .text.timer_cb
                0x0002c5a0       0x10 examples/light_switch/server/CMakeFiles/light_switch_server_nrf52840_xxAA_s140_6.0.0.dir/__/__/__/mesh/core/src/ticker.c.obj
 .text.ticker_init
                0x0002c5b0       0x3c examples/light_switch/server/CMakeFiles/light_switch_server_nrf52840_xxAA_s140_6.0.0.dir/__/__/__/mesh/core/src/ticker.c.obj
                0x0002c5b0                ticker_init
 .text.sd_rand_application_bytes_available_get
                0x0002c5ec        0x4 examples/light_switch/server/CMakeFiles/light_switch_server_nrf52840_xxAA_s140_6.0.0.dir/__/__/__/mesh/core/src/rand.c.obj
 .text.sd_rand_application_vector_get
                0x0002c5f0        0x4 examples/light_switch/server/CMakeFiles/light_switch_server_nrf52840_xxAA_s140_6.0.0.dir/__/__/__/mesh/core/src/rand.c.obj
 .text.rand_prng_seed
                0x0002c5f4       0x6c examples/light_switch/server/CMakeFiles/light_switch_server_nrf52840_xxAA_s140_6.0.0.dir/__/__/__/mesh/core/src/rand.c.obj
                0x0002c5f4                rand_prng_seed
 .text.rand_prng_get
                0x0002c660       0x28 examples/light_switch/server/CMakeFiles/light_switch_server_nrf52840_xxAA_s140_6.0.0.dir/__/__/__/mesh/core/src/rand.c.obj
                0x0002c660                rand_prng_get
 .text.rand_hw_rng_get
                0x0002c688       0x4c examples/light_switch/server/CMakeFiles/light_switch_server_nrf52840_xxAA_s140_6.0.0.dir/__/__/__/mesh/core/src/rand.c.obj
                0x0002c688                rand_hw_rng_get
 .text.nrf_mesh_opt_set
                0x0002c6d4       0x28 examples/light_switch/server/CMakeFiles/light_switch_server_nrf52840_xxAA_s140_6.0.0.dir/__/__/__/mesh/core/src/nrf_mesh_opt.c.obj
                0x0002c6d4                nrf_mesh_opt_set
 .text.nrf_mesh_opt_get
                0x0002c6fc       0x28 examples/light_switch/server/CMakeFiles/light_switch_server_nrf52840_xxAA_s140_6.0.0.dir/__/__/__/mesh/core/src/nrf_mesh_opt.c.obj
                0x0002c6fc                nrf_mesh_opt_get
 .text.sd_radio_session_open
                0x0002c724        0x4 examples/light_switch/server/CMakeFiles/light_switch_server_nrf52840_xxAA_s140_6.0.0.dir/__/__/__/mesh/core/src/timeslot.c.obj
 .text.sd_radio_session_close
                0x0002c728        0x4 examples/light_switch/server/CMakeFiles/light_switch_server_nrf52840_xxAA_s140_6.0.0.dir/__/__/__/mesh/core/src/timeslot.c.obj
 .text.sd_radio_request
                0x0002c72c        0x4 examples/light_switch/server/CMakeFiles/light_switch_server_nrf52840_xxAA_s140_6.0.0.dir/__/__/__/mesh/core/src/timeslot.c.obj
 .text.end_timer_handler
                0x0002c730       0x2c examples/light_switch/server/CMakeFiles/light_switch_server_nrf52840_xxAA_s140_6.0.0.dir/__/__/__/mesh/core/src/timeslot.c.obj
 .text.radio_signal_callback
                0x0002c75c      0x2e4 examples/light_switch/server/CMakeFiles/light_switch_server_nrf52840_xxAA_s140_6.0.0.dir/__/__/__/mesh/core/src/timeslot.c.obj
 .text.timeslot_sd_event_handler
                0x0002ca40       0x44 examples/light_switch/server/CMakeFiles/light_switch_server_nrf52840_xxAA_s140_6.0.0.dir/__/__/__/mesh/core/src/timeslot.c.obj
                0x0002ca40                timeslot_sd_event_handler
 .text.timeslot_init
                0x0002ca84       0x4c examples/light_switch/server/CMakeFiles/light_switch_server_nrf52840_xxAA_s140_6.0.0.dir/__/__/__/mesh/core/src/timeslot.c.obj
                0x0002ca84                timeslot_init
 .text.timeslot_start
                0x0002cad0       0x20 examples/light_switch/server/CMakeFiles/light_switch_server_nrf52840_xxAA_s140_6.0.0.dir/__/__/__/mesh/core/src/timeslot.c.obj
                0x0002cad0                timeslot_start
 .text.timeslot_stop
                0x0002caf0       0x30 examples/light_switch/server/CMakeFiles/light_switch_server_nrf52840_xxAA_s140_6.0.0.dir/__/__/__/mesh/core/src/timeslot.c.obj
                0x0002caf0                timeslot_stop
 .text.timeslot_state_lock
                0x0002cb20       0x44 examples/light_switch/server/CMakeFiles/light_switch_server_nrf52840_xxAA_s140_6.0.0.dir/__/__/__/mesh/core/src/timeslot.c.obj
                0x0002cb20                timeslot_state_lock
 .text.timeslot_end_is_pending
                0x0002cb64       0x24 examples/light_switch/server/CMakeFiles/light_switch_server_nrf52840_xxAA_s140_6.0.0.dir/__/__/__/mesh/core/src/timeslot.c.obj
                0x0002cb64                timeslot_end_is_pending
 .text.timeslot_start_time_get
                0x0002cb88        0xc examples/light_switch/server/CMakeFiles/light_switch_server_nrf52840_xxAA_s140_6.0.0.dir/__/__/__/mesh/core/src/timeslot.c.obj
                0x0002cb88                timeslot_start_time_get
 .text.timeslot_remaining_time_get
                0x0002cb94       0x40 examples/light_switch/server/CMakeFiles/light_switch_server_nrf52840_xxAA_s140_6.0.0.dir/__/__/__/mesh/core/src/timeslot.c.obj
                0x0002cb94                timeslot_remaining_time_get
 .text.timeslot_is_in_cb
                0x0002cbd4        0xc examples/light_switch/server/CMakeFiles/light_switch_server_nrf52840_xxAA_s140_6.0.0.dir/__/__/__/mesh/core/src/timeslot.c.obj
                0x0002cbd4                timeslot_is_in_cb
 .text.timeslot_trigger
                0x0002cbe0       0x24 examples/light_switch/server/CMakeFiles/light_switch_server_nrf52840_xxAA_s140_6.0.0.dir/__/__/__/mesh/core/src/timeslot.c.obj
                0x0002cbe0                timeslot_trigger
 .text.bearer_event_init
                0x0002cc04       0x4c examples/light_switch/server/CMakeFiles/light_switch_server_nrf52840_xxAA_s140_6.0.0.dir/__/__/__/mesh/core/src/bearer_event.c.obj
                0x0002cc04                bearer_event_init
 .text.bearer_event_timer_post
                0x0002cc50       0x50 examples/light_switch/server/CMakeFiles/light_switch_server_nrf52840_xxAA_s140_6.0.0.dir/__/__/__/mesh/core/src/bearer_event.c.obj
                0x0002cc50                bearer_event_timer_post
 .text.bearer_event_critical_section_begin
                0x0002cca0       0x44 examples/light_switch/server/CMakeFiles/light_switch_server_nrf52840_xxAA_s140_6.0.0.dir/__/__/__/mesh/core/src/bearer_event.c.obj
                0x0002cca0                bearer_event_critical_section_begin
 .text.bearer_event_critical_section_end
                0x0002cce4       0x40 examples/light_switch/server/CMakeFiles/light_switch_server_nrf52840_xxAA_s140_6.0.0.dir/__/__/__/mesh/core/src/bearer_event.c.obj
                0x0002cce4                bearer_event_critical_section_end
 .text.bearer_event_flag_add
                0x0002cd24       0x40 examples/light_switch/server/CMakeFiles/light_switch_server_nrf52840_xxAA_s140_6.0.0.dir/__/__/__/mesh/core/src/bearer_event.c.obj
                0x0002cd24                bearer_event_flag_add
 .text.bearer_event_flag_set
                0x0002cd64       0x5c examples/light_switch/server/CMakeFiles/light_switch_server_nrf52840_xxAA_s140_6.0.0.dir/__/__/__/mesh/core/src/bearer_event.c.obj
                0x0002cd64                bearer_event_flag_set
 .text.bearer_event_sequential_add
                0x0002cdc0       0x44 examples/light_switch/server/CMakeFiles/light_switch_server_nrf52840_xxAA_s140_6.0.0.dir/__/__/__/mesh/core/src/bearer_event.c.obj
                0x0002cdc0                bearer_event_sequential_add
 .text.bearer_event_sequential_post
                0x0002ce04       0x64 examples/light_switch/server/CMakeFiles/light_switch_server_nrf52840_xxAA_s140_6.0.0.dir/__/__/__/mesh/core/src/bearer_event.c.obj
                0x0002ce04                bearer_event_sequential_post
 .text.bearer_event_sequential_pending
                0x0002ce68       0x14 examples/light_switch/server/CMakeFiles/light_switch_server_nrf52840_xxAA_s140_6.0.0.dir/__/__/__/mesh/core/src/bearer_event.c.obj
                0x0002ce68                bearer_event_sequential_pending
 .text.bearer_event_handler
                0x0002ce7c      0x154 examples/light_switch/server/CMakeFiles/light_switch_server_nrf52840_xxAA_s140_6.0.0.dir/__/__/__/mesh/core/src/bearer_event.c.obj
                0x0002ce7c                bearer_event_handler
 .text.QDEC_IRQHandler
                0x0002cfd0        0x4 examples/light_switch/server/CMakeFiles/light_switch_server_nrf52840_xxAA_s140_6.0.0.dir/__/__/__/mesh/core/src/bearer_event.c.obj
                0x0002cfd0                QDEC_IRQHandler
 .text.enc_aes_encrypt
                0x0002cfd4        0x4 examples/light_switch/server/CMakeFiles/light_switch_server_nrf52840_xxAA_s140_6.0.0.dir/__/__/__/mesh/core/src/enc.c.obj
                0x0002cfd4                enc_aes_encrypt
 .text.enc_aes_cmac
                0x0002cfd8        0x4 examples/light_switch/server/CMakeFiles/light_switch_server_nrf52840_xxAA_s140_6.0.0.dir/__/__/__/mesh/core/src/enc.c.obj
                0x0002cfd8                enc_aes_cmac
 .text.enc_aes_ccm_encrypt
                0x0002cfdc        0x4 examples/light_switch/server/CMakeFiles/light_switch_server_nrf52840_xxAA_s140_6.0.0.dir/__/__/__/mesh/core/src/enc.c.obj
                0x0002cfdc                enc_aes_ccm_encrypt
 .text.enc_aes_ccm_decrypt
                0x0002cfe0        0x4 examples/light_switch/server/CMakeFiles/light_switch_server_nrf52840_xxAA_s140_6.0.0.dir/__/__/__/mesh/core/src/enc.c.obj
                0x0002cfe0                enc_aes_ccm_decrypt
 .text.enc_nonce_generate
                0x0002cfe4       0xc8 examples/light_switch/server/CMakeFiles/light_switch_server_nrf52840_xxAA_s140_6.0.0.dir/__/__/__/mesh/core/src/enc.c.obj
                0x0002cfe4                enc_nonce_generate
 .text.enc_s1   0x0002d0ac       0x30 examples/light_switch/server/CMakeFiles/light_switch_server_nrf52840_xxAA_s140_6.0.0.dir/__/__/__/mesh/core/src/enc.c.obj
                0x0002d0ac                enc_s1
 .text.enc_k1   0x0002d0dc       0x44 examples/light_switch/server/CMakeFiles/light_switch_server_nrf52840_xxAA_s140_6.0.0.dir/__/__/__/mesh/core/src/enc.c.obj
                0x0002d0dc                enc_k1
 .text.enc_k2   0x0002d120       0xe0 examples/light_switch/server/CMakeFiles/light_switch_server_nrf52840_xxAA_s140_6.0.0.dir/__/__/__/mesh/core/src/enc.c.obj
                0x0002d120                enc_k2
 .text.enc_k3   0x0002d200       0x68 examples/light_switch/server/CMakeFiles/light_switch_server_nrf52840_xxAA_s140_6.0.0.dir/__/__/__/mesh/core/src/enc.c.obj
                0x0002d200                enc_k3
 .text.enc_k4   0x0002d268       0x60 examples/light_switch/server/CMakeFiles/light_switch_server_nrf52840_xxAA_s140_6.0.0.dir/__/__/__/mesh/core/src/enc.c.obj
                0x0002d268                enc_k4
 .text.network_init
                0x0002d2c8       0x28 examples/light_switch/server/CMakeFiles/light_switch_server_nrf52840_xxAA_s140_6.0.0.dir/__/__/__/mesh/core/src/network.c.obj
                0x0002d2c8                network_init
 .text.network_opt_set
                0x0002d2f0       0x84 examples/light_switch/server/CMakeFiles/light_switch_server_nrf52840_xxAA_s140_6.0.0.dir/__/__/__/mesh/core/src/network.c.obj
                0x0002d2f0                network_opt_set
 .text.network_opt_get
                0x0002d374       0x5c examples/light_switch/server/CMakeFiles/light_switch_server_nrf52840_xxAA_s140_6.0.0.dir/__/__/__/mesh/core/src/network.c.obj
                0x0002d374                network_opt_get
 .text.network_packet_alloc
                0x0002d3d0       0x98 examples/light_switch/server/CMakeFiles/light_switch_server_nrf52840_xxAA_s140_6.0.0.dir/__/__/__/mesh/core/src/network.c.obj
                0x0002d3d0                network_packet_alloc
 .text.network_packet_send
                0x0002d468       0x50 examples/light_switch/server/CMakeFiles/light_switch_server_nrf52840_xxAA_s140_6.0.0.dir/__/__/__/mesh/core/src/network.c.obj
                0x0002d468                network_packet_send
 .text.network_packet_in
                0x0002d4b8      0x1c4 examples/light_switch/server/CMakeFiles/light_switch_server_nrf52840_xxAA_s140_6.0.0.dir/__/__/__/mesh/core/src/network.c.obj
                0x0002d4b8                network_packet_in
 .text.net_packet_decrypt
                0x0002d67c      0x2dc examples/light_switch/server/CMakeFiles/light_switch_server_nrf52840_xxAA_s140_6.0.0.dir/__/__/__/mesh/core/src/net_packet.c.obj
                0x0002d67c                net_packet_decrypt
 .text.net_packet_encrypt
                0x0002d958      0x100 examples/light_switch/server/CMakeFiles/light_switch_server_nrf52840_xxAA_s140_6.0.0.dir/__/__/__/mesh/core/src/net_packet.c.obj
                0x0002d958                net_packet_encrypt
 .text.net_packet_header_set
                0x0002da58       0xc0 examples/light_switch/server/CMakeFiles/light_switch_server_nrf52840_xxAA_s140_6.0.0.dir/__/__/__/mesh/core/src/net_packet.c.obj
                0x0002da58                net_packet_header_set
 .text.net_packet_payload_len_get
                0x0002db18       0x14 examples/light_switch/server/CMakeFiles/light_switch_server_nrf52840_xxAA_s140_6.0.0.dir/__/__/__/mesh/core/src/net_packet.c.obj
                0x0002db18                net_packet_payload_len_get
 .text.net_packet_from_payload
                0x0002db2c        0x4 examples/light_switch/server/CMakeFiles/light_switch_server_nrf52840_xxAA_s140_6.0.0.dir/__/__/__/mesh/core/src/net_packet.c.obj
                0x0002db2c                net_packet_from_payload
 .text.net_packet_obfuscation_start_get
                0x0002db30        0x4 examples/light_switch/server/CMakeFiles/light_switch_server_nrf52840_xxAA_s140_6.0.0.dir/__/__/__/mesh/core/src/net_packet.c.obj
                0x0002db30                net_packet_obfuscation_start_get
 .text.msq_init
                0x0002db34       0x64 examples/light_switch/server/CMakeFiles/light_switch_server_nrf52840_xxAA_s140_6.0.0.dir/__/__/__/mesh/core/src/msqueue.c.obj
                0x0002db34                msq_init
 .text.msq_get  0x0002db98       0x54 examples/light_switch/server/CMakeFiles/light_switch_server_nrf52840_xxAA_s140_6.0.0.dir/__/__/__/mesh/core/src/msqueue.c.obj
                0x0002db98                msq_get
 .text.msq_move
                0x0002dbec       0x4c examples/light_switch/server/CMakeFiles/light_switch_server_nrf52840_xxAA_s140_6.0.0.dir/__/__/__/mesh/core/src/msqueue.c.obj
                0x0002dbec                msq_move
 .text.msq_available
                0x0002dc38       0x44 examples/light_switch/server/CMakeFiles/light_switch_server_nrf52840_xxAA_s140_6.0.0.dir/__/__/__/mesh/core/src/msqueue.c.obj
                0x0002dc38                msq_available
 .text.nrf_mesh_keygen_aid
                0x0002dc7c       0x18 examples/light_switch/server/CMakeFiles/light_switch_server_nrf52840_xxAA_s140_6.0.0.dir/__/__/__/mesh/core/src/nrf_mesh_keygen.c.obj
                0x0002dc7c                nrf_mesh_keygen_aid
 .text.nrf_mesh_keygen_network_secmat
                0x0002dc94       0x24 examples/light_switch/server/CMakeFiles/light_switch_server_nrf52840_xxAA_s140_6.0.0.dir/__/__/__/mesh/core/src/nrf_mesh_keygen.c.obj
                0x0002dc94                nrf_mesh_keygen_network_secmat
 .text.nrf_mesh_keygen_beacon_secmat
                0x0002dcb8       0x50 examples/light_switch/server/CMakeFiles/light_switch_server_nrf52840_xxAA_s140_6.0.0.dir/__/__/__/mesh/core/src/nrf_mesh_keygen.c.obj
                0x0002dcb8                nrf_mesh_keygen_beacon_secmat
 .text.nrf_mesh_keygen_virtual_address
                0x0002dd08       0x50 examples/light_switch/server/CMakeFiles/light_switch_server_nrf52840_xxAA_s140_6.0.0.dir/__/__/__/mesh/core/src/nrf_mesh_keygen.c.obj
                0x0002dd08                nrf_mesh_keygen_virtual_address
 .text.list_add
                0x0002dd58       0x5c examples/light_switch/server/CMakeFiles/light_switch_server_nrf52840_xxAA_s140_6.0.0.dir/__/__/__/mesh/core/src/list.c.obj
                0x0002dd58                list_add
 .text.list_remove
                0x0002ddb4       0x44 examples/light_switch/server/CMakeFiles/light_switch_server_nrf52840_xxAA_s140_6.0.0.dir/__/__/__/mesh/core/src/list.c.obj
                0x0002ddb4                list_remove
 .text.list_compare_add
                0x0002ddf8       0x78 examples/light_switch/server/CMakeFiles/light_switch_server_nrf52840_xxAA_s140_6.0.0.dir/__/__/__/mesh/core/src/list.c.obj
                0x0002ddf8                list_compare_add
 .text.log_callback_rtt
                0x0002de70       0x2c examples/light_switch/server/CMakeFiles/light_switch_server_nrf52840_xxAA_s140_6.0.0.dir/__/__/__/mesh/core/src/log.c.obj
                0x0002de70                log_callback_rtt
 .text.log_init
                0x0002de9c       0x20 examples/light_switch/server/CMakeFiles/light_switch_server_nrf52840_xxAA_s140_6.0.0.dir/__/__/__/mesh/core/src/log.c.obj
                0x0002de9c                log_init
 .text.log_printf
                0x0002debc       0x20 examples/light_switch/server/CMakeFiles/light_switch_server_nrf52840_xxAA_s140_6.0.0.dir/__/__/__/mesh/core/src/log.c.obj
                0x0002debc                log_printf
 .text.process_action_queue
                0x0002dedc      0x644 examples/light_switch/server/CMakeFiles/light_switch_server_nrf52840_xxAA_s140_6.0.0.dir/__/__/__/mesh/core/src/flash_manager.c.obj
 .text.flash_op_ended_callback
                0x0002e520       0x24 examples/light_switch/server/CMakeFiles/light_switch_server_nrf52840_xxAA_s140_6.0.0.dir/__/__/__/mesh/core/src/flash_manager.c.obj
 .text.flash_manager_init
                0x0002e544       0x68 examples/light_switch/server/CMakeFiles/light_switch_server_nrf52840_xxAA_s140_6.0.0.dir/__/__/__/mesh/core/src/flash_manager.c.obj
                0x0002e544                flash_manager_init
 .text.flash_manager_remove
                0x0002e5ac       0x6c examples/light_switch/server/CMakeFiles/light_switch_server_nrf52840_xxAA_s140_6.0.0.dir/__/__/__/mesh/core/src/flash_manager.c.obj
                0x0002e5ac                flash_manager_remove
 .text.flash_manager_entry_get
                0x0002e618       0x48 examples/light_switch/server/CMakeFiles/light_switch_server_nrf52840_xxAA_s140_6.0.0.dir/__/__/__/mesh/core/src/flash_manager.c.obj
                0x0002e618                flash_manager_entry_get
 .text.flash_manager_entry_next_get
                0x0002e660      0x148 examples/light_switch/server/CMakeFiles/light_switch_server_nrf52840_xxAA_s140_6.0.0.dir/__/__/__/mesh/core/src/flash_manager.c.obj
                0x0002e660                flash_manager_entry_next_get
 .text.flash_manager_entry_alloc
                0x0002e7a8       0x88 examples/light_switch/server/CMakeFiles/light_switch_server_nrf52840_xxAA_s140_6.0.0.dir/__/__/__/mesh/core/src/flash_manager.c.obj
                0x0002e7a8                flash_manager_entry_alloc
 .text.flash_manager_entry_commit
                0x0002e830       0x58 examples/light_switch/server/CMakeFiles/light_switch_server_nrf52840_xxAA_s140_6.0.0.dir/__/__/__/mesh/core/src/flash_manager.c.obj
                0x0002e830                flash_manager_entry_commit
 .text.flash_manager_entry_invalidate
                0x0002e888       0x98 examples/light_switch/server/CMakeFiles/light_switch_server_nrf52840_xxAA_s140_6.0.0.dir/__/__/__/mesh/core/src/flash_manager.c.obj
                0x0002e888                flash_manager_entry_invalidate
 .text.flash_manager_add
                0x0002e920      0x410 examples/light_switch/server/CMakeFiles/light_switch_server_nrf52840_xxAA_s140_6.0.0.dir/__/__/__/mesh/core/src/flash_manager.c.obj
                0x0002e920                flash_manager_add
 .text.flash_manager_mem_listener_register
                0x0002ed30       0x34 examples/light_switch/server/CMakeFiles/light_switch_server_nrf52840_xxAA_s140_6.0.0.dir/__/__/__/mesh/core/src/flash_manager.c.obj
                0x0002ed30                flash_manager_mem_listener_register
 .text.flash_manager_is_stable
                0x0002ed64       0x20 examples/light_switch/server/CMakeFiles/light_switch_server_nrf52840_xxAA_s140_6.0.0.dir/__/__/__/mesh/core/src/flash_manager.c.obj
                0x0002ed64                flash_manager_is_stable
 .text.flash_manager_on_defrag_end
                0x0002ed84       0x58 examples/light_switch/server/CMakeFiles/light_switch_server_nrf52840_xxAA_s140_6.0.0.dir/__/__/__/mesh/core/src/flash_manager.c.obj
                0x0002ed84                flash_manager_on_defrag_end
 .text.flash_manager_recovery_page_get
                0x0002eddc        0x4 examples/light_switch/server/CMakeFiles/light_switch_server_nrf52840_xxAA_s140_6.0.0.dir/__/__/__/mesh/core/src/flash_manager.c.obj
                0x0002eddc                flash_manager_recovery_page_get
 .text.flash_manager_action_queue_empty_cb_set
                0x0002ede0       0x20 examples/light_switch/server/CMakeFiles/light_switch_server_nrf52840_xxAA_s140_6.0.0.dir/__/__/__/mesh/core/src/flash_manager.c.obj
                0x0002ede0                flash_manager_action_queue_empty_cb_set
 .text.ccm_soft_crypt.constprop.0
                0x0002ee00      0x298 examples/light_switch/server/CMakeFiles/light_switch_server_nrf52840_xxAA_s140_6.0.0.dir/__/__/__/mesh/core/src/ccm_soft.c.obj
 .text.ccm_soft_authenticate
                0x0002f098      0x324 examples/light_switch/server/CMakeFiles/light_switch_server_nrf52840_xxAA_s140_6.0.0.dir/__/__/__/mesh/core/src/ccm_soft.c.obj
 .text.ccm_soft_encrypt
                0x0002f3bc       0x78 examples/light_switch/server/CMakeFiles/light_switch_server_nrf52840_xxAA_s140_6.0.0.dir/__/__/__/mesh/core/src/ccm_soft.c.obj
                0x0002f3bc                ccm_soft_encrypt
 .text.ccm_soft_decrypt
                0x0002f434      0x10c examples/light_switch/server/CMakeFiles/light_switch_server_nrf52840_xxAA_s140_6.0.0.dir/__/__/__/mesh/core/src/ccm_soft.c.obj
                0x0002f434                ccm_soft_decrypt
 .text.replay_cache_init
                0x0002f540       0x20 examples/light_switch/server/CMakeFiles/light_switch_server_nrf52840_xxAA_s140_6.0.0.dir/__/__/__/mesh/core/src/replay_cache.c.obj
                0x0002f540                replay_cache_init
 .text.replay_cache_add
                0x0002f560       0x5c examples/light_switch/server/CMakeFiles/light_switch_server_nrf52840_xxAA_s140_6.0.0.dir/__/__/__/mesh/core/src/replay_cache.c.obj
                0x0002f560                replay_cache_add
 .text.replay_cache_has_elem
                0x0002f5bc       0x40 examples/light_switch/server/CMakeFiles/light_switch_server_nrf52840_xxAA_s140_6.0.0.dir/__/__/__/mesh/core/src/replay_cache.c.obj
                0x0002f5bc                replay_cache_has_elem
 .text.beacon_create
                0x0002f5fc       0x50 examples/light_switch/server/CMakeFiles/light_switch_server_nrf52840_xxAA_s140_6.0.0.dir/__/__/__/mesh/core/src/beacon.c.obj
                0x0002f5fc                beacon_create
 .text.beacon_packet_in
                0x0002f64c      0x174 examples/light_switch/server/CMakeFiles/light_switch_server_nrf52840_xxAA_s140_6.0.0.dir/__/__/__/mesh/core/src/beacon.c.obj
                0x0002f64c                beacon_packet_in
 .text.entry_get
                0x0002f7c0       0x80 examples/light_switch/server/CMakeFiles/light_switch_server_nrf52840_xxAA_s140_6.0.0.dir/__/__/__/mesh/core/src/flash_manager_internal.c.obj
                0x0002f7c0                entry_get
 .text.core_tx_complete_cb_set
                0x0002f840        0xc examples/light_switch/server/CMakeFiles/light_switch_server_nrf52840_xxAA_s140_6.0.0.dir/__/__/__/mesh/core/src/core_tx.c.obj
                0x0002f840                core_tx_complete_cb_set
 .text.core_tx_packet_alloc
                0x0002f84c       0xb4 examples/light_switch/server/CMakeFiles/light_switch_server_nrf52840_xxAA_s140_6.0.0.dir/__/__/__/mesh/core/src/core_tx.c.obj
                0x0002f84c                core_tx_packet_alloc
 .text.core_tx_packet_send
                0x0002f900       0x58 examples/light_switch/server/CMakeFiles/light_switch_server_nrf52840_xxAA_s140_6.0.0.dir/__/__/__/mesh/core/src/core_tx.c.obj
                0x0002f900                core_tx_packet_send
 .text.core_tx_packet_discard
                0x0002f958       0x4c examples/light_switch/server/CMakeFiles/light_switch_server_nrf52840_xxAA_s140_6.0.0.dir/__/__/__/mesh/core/src/core_tx.c.obj
                0x0002f958                core_tx_packet_discard
 .text.core_tx_complete
                0x0002f9a4       0x38 examples/light_switch/server/CMakeFiles/light_switch_server_nrf52840_xxAA_s140_6.0.0.dir/__/__/__/mesh/core/src/core_tx.c.obj
                0x0002f9a4                core_tx_complete
 .text.core_tx_bearer_add
                0x0002f9dc       0x84 examples/light_switch/server/CMakeFiles/light_switch_server_nrf52840_xxAA_s140_6.0.0.dir/__/__/__/mesh/core/src/core_tx.c.obj
                0x0002f9dc                core_tx_bearer_add
 .text.heartbeat_subscription_timer_cb
                0x0002fa60       0x1c examples/light_switch/server/CMakeFiles/light_switch_server_nrf52840_xxAA_s140_6.0.0.dir/__/__/__/mesh/core/src/heartbeat.c.obj
 .text.heartbeat_opcode_handle
                0x0002fa7c       0x8c examples/light_switch/server/CMakeFiles/light_switch_server_nrf52840_xxAA_s140_6.0.0.dir/__/__/__/mesh/core/src/heartbeat.c.obj
 .text.heartbeat_send
                0x0002fb08       0xbc examples/light_switch/server/CMakeFiles/light_switch_server_nrf52840_xxAA_s140_6.0.0.dir/__/__/__/mesh/core/src/heartbeat.c.obj
 .text.heartbeat_core_evt_cb
                0x0002fbc4       0x94 examples/light_switch/server/CMakeFiles/light_switch_server_nrf52840_xxAA_s140_6.0.0.dir/__/__/__/mesh/core/src/heartbeat.c.obj
 .text.heartbeat_publication_timer_cb
                0x0002fc58       0xb0 examples/light_switch/server/CMakeFiles/light_switch_server_nrf52840_xxAA_s140_6.0.0.dir/__/__/__/mesh/core/src/heartbeat.c.obj
 .text.heartbeat_on_feature_change_trigger
                0x0002fd08       0x48 examples/light_switch/server/CMakeFiles/light_switch_server_nrf52840_xxAA_s140_6.0.0.dir/__/__/__/mesh/core/src/heartbeat.c.obj
                0x0002fd08                heartbeat_on_feature_change_trigger
 .text.heartbeat_init
                0x0002fd50       0x7c examples/light_switch/server/CMakeFiles/light_switch_server_nrf52840_xxAA_s140_6.0.0.dir/__/__/__/mesh/core/src/heartbeat.c.obj
                0x0002fd50                heartbeat_init
 .text.heartbeat_subscription_set
                0x0002fdcc       0xa4 examples/light_switch/server/CMakeFiles/light_switch_server_nrf52840_xxAA_s140_6.0.0.dir/__/__/__/mesh/core/src/heartbeat.c.obj
                0x0002fdcc                heartbeat_subscription_set
 .text.heartbeat_subscription_get
                0x0002fe70        0x8 examples/light_switch/server/CMakeFiles/light_switch_server_nrf52840_xxAA_s140_6.0.0.dir/__/__/__/mesh/core/src/heartbeat.c.obj
                0x0002fe70                heartbeat_subscription_get
 .text.heartbeat_config_server_cb_set
                0x0002fe78       0x38 examples/light_switch/server/CMakeFiles/light_switch_server_nrf52840_xxAA_s140_6.0.0.dir/__/__/__/mesh/core/src/heartbeat.c.obj
                0x0002fe78                heartbeat_config_server_cb_set
 .text.heartbeat_publication_state_updated
                0x0002feb0       0x78 examples/light_switch/server/CMakeFiles/light_switch_server_nrf52840_xxAA_s140_6.0.0.dir/__/__/__/mesh/core/src/heartbeat.c.obj
                0x0002feb0                heartbeat_publication_state_updated
 .text.beacon_tx
                0x0002ff28      0x194 examples/light_switch/server/CMakeFiles/light_switch_server_nrf52840_xxAA_s140_6.0.0.dir/__/__/__/mesh/core/src/net_beacon.c.obj
 .text.tx_complete_cb
                0x000300bc       0x10 examples/light_switch/server/CMakeFiles/light_switch_server_nrf52840_xxAA_s140_6.0.0.dir/__/__/__/mesh/core/src/net_beacon.c.obj
 .text.beacon_tx_timeout
                0x000300cc        0x4 examples/light_switch/server/CMakeFiles/light_switch_server_nrf52840_xxAA_s140_6.0.0.dir/__/__/__/mesh/core/src/net_beacon.c.obj
 .text.net_beacon_init
                0x000300d0       0x94 examples/light_switch/server/CMakeFiles/light_switch_server_nrf52840_xxAA_s140_6.0.0.dir/__/__/__/mesh/core/src/net_beacon.c.obj
                0x000300d0                net_beacon_init
 .text.net_beacon_state_set
                0x00030164       0x3c examples/light_switch/server/CMakeFiles/light_switch_server_nrf52840_xxAA_s140_6.0.0.dir/__/__/__/mesh/core/src/net_beacon.c.obj
                0x00030164                net_beacon_state_set
 .text.net_beacon_state_get
                0x000301a0        0xc examples/light_switch/server/CMakeFiles/light_switch_server_nrf52840_xxAA_s140_6.0.0.dir/__/__/__/mesh/core/src/net_beacon.c.obj
                0x000301a0                net_beacon_state_get
 .text.net_beacon_packet_in
                0x000301ac      0x14c examples/light_switch/server/CMakeFiles/light_switch_server_nrf52840_xxAA_s140_6.0.0.dir/__/__/__/mesh/core/src/net_beacon.c.obj
                0x000301ac                net_beacon_packet_in
 .text.packet_discard
                0x000302f8       0x40 examples/light_switch/server/CMakeFiles/light_switch_server_nrf52840_xxAA_s140_6.0.0.dir/__/__/__/mesh/core/src/core_tx_adv.c.obj
 .text.packet_send
                0x00030338       0x58 examples/light_switch/server/CMakeFiles/light_switch_server_nrf52840_xxAA_s140_6.0.0.dir/__/__/__/mesh/core/src/core_tx_adv.c.obj
 .text.packet_alloc
                0x00030390       0x5c examples/light_switch/server/CMakeFiles/light_switch_server_nrf52840_xxAA_s140_6.0.0.dir/__/__/__/mesh/core/src/core_tx_adv.c.obj
 .text.adv_tx_complete_callback
                0x000303ec       0x28 examples/light_switch/server/CMakeFiles/light_switch_server_nrf52840_xxAA_s140_6.0.0.dir/__/__/__/mesh/core/src/core_tx_adv.c.obj
 .text.core_tx_adv_init
                0x00030414       0x60 examples/light_switch/server/CMakeFiles/light_switch_server_nrf52840_xxAA_s140_6.0.0.dir/__/__/__/mesh/core/src/core_tx_adv.c.obj
                0x00030414                core_tx_adv_init
 .text.core_tx_adv_count_set
                0x00030474       0x28 examples/light_switch/server/CMakeFiles/light_switch_server_nrf52840_xxAA_s140_6.0.0.dir/__/__/__/mesh/core/src/core_tx_adv.c.obj
                0x00030474                core_tx_adv_count_set
 .text.core_tx_adv_count_get
                0x0003049c       0x20 examples/light_switch/server/CMakeFiles/light_switch_server_nrf52840_xxAA_s140_6.0.0.dir/__/__/__/mesh/core/src/core_tx_adv.c.obj
                0x0003049c                core_tx_adv_count_get
 .text.core_tx_adv_interval_set
                0x000304bc       0x28 examples/light_switch/server/CMakeFiles/light_switch_server_nrf52840_xxAA_s140_6.0.0.dir/__/__/__/mesh/core/src/core_tx_adv.c.obj
                0x000304bc                core_tx_adv_interval_set
 .text.core_tx_adv_interval_get
                0x000304e4       0x2c examples/light_switch/server/CMakeFiles/light_switch_server_nrf52840_xxAA_s140_6.0.0.dir/__/__/__/mesh/core/src/core_tx_adv.c.obj
                0x000304e4                core_tx_adv_interval_get
 .text.ad_listener_subscribe
                0x00030510       0x60 examples/light_switch/server/CMakeFiles/light_switch_server_nrf52840_xxAA_s140_6.0.0.dir/__/__/__/mesh/bearer/src/ad_listener.c.obj
                0x00030510                ad_listener_subscribe
 .text.ad_listener_process
                0x00030570       0x7c examples/light_switch/server/CMakeFiles/light_switch_server_nrf52840_xxAA_s140_6.0.0.dir/__/__/__/mesh/bearer/src/ad_listener.c.obj
                0x00030570                ad_listener_process
 .text.adtype_filter_handle
                0x000305ec       0x98 examples/light_switch/server/CMakeFiles/light_switch_server_nrf52840_xxAA_s140_6.0.0.dir/__/__/__/mesh/bearer/src/ad_type_filter.c.obj
 .text.bearer_adtype_filtering_set
                0x00030684       0x1c examples/light_switch/server/CMakeFiles/light_switch_server_nrf52840_xxAA_s140_6.0.0.dir/__/__/__/mesh/bearer/src/ad_type_filter.c.obj
                0x00030684                bearer_adtype_filtering_set
 .text.bearer_adtype_add
                0x000306a0       0x24 examples/light_switch/server/CMakeFiles/light_switch_server_nrf52840_xxAA_s140_6.0.0.dir/__/__/__/mesh/bearer/src/ad_type_filter.c.obj
                0x000306a0                bearer_adtype_add
 .text.bearer_adtype_mode_set
                0x000306c4       0x18 examples/light_switch/server/CMakeFiles/light_switch_server_nrf52840_xxAA_s140_6.0.0.dir/__/__/__/mesh/bearer/src/ad_type_filter.c.obj
                0x000306c4                bearer_adtype_mode_set
 .text.tx_complete_event_callback
                0x000306dc       0x2c examples/light_switch/server/CMakeFiles/light_switch_server_nrf52840_xxAA_s140_6.0.0.dir/__/__/__/mesh/bearer/src/advertiser.c.obj
 .text.broadcast_complete_cb
                0x00030708       0x48 examples/light_switch/server/CMakeFiles/light_switch_server_nrf52840_xxAA_s140_6.0.0.dir/__/__/__/mesh/bearer/src/advertiser.c.obj
 .text.timeout_event
                0x00030750      0x120 examples/light_switch/server/CMakeFiles/light_switch_server_nrf52840_xxAA_s140_6.0.0.dir/__/__/__/mesh/bearer/src/advertiser.c.obj
 .text.advertiser_init
                0x00030870        0xc examples/light_switch/server/CMakeFiles/light_switch_server_nrf52840_xxAA_s140_6.0.0.dir/__/__/__/mesh/bearer/src/advertiser.c.obj
                0x00030870                advertiser_init
 .text.advertiser_instance_init
                0x0003087c       0xfc examples/light_switch/server/CMakeFiles/light_switch_server_nrf52840_xxAA_s140_6.0.0.dir/__/__/__/mesh/bearer/src/advertiser.c.obj
                0x0003087c                advertiser_instance_init
 .text.advertiser_enable
                0x00030978       0x44 examples/light_switch/server/CMakeFiles/light_switch_server_nrf52840_xxAA_s140_6.0.0.dir/__/__/__/mesh/bearer/src/advertiser.c.obj
                0x00030978                advertiser_enable
 .text.advertiser_packet_alloc
                0x000309bc       0x80 examples/light_switch/server/CMakeFiles/light_switch_server_nrf52840_xxAA_s140_6.0.0.dir/__/__/__/mesh/bearer/src/advertiser.c.obj
                0x000309bc                advertiser_packet_alloc
 .text.advertiser_packet_send
                0x00030a3c       0x80 examples/light_switch/server/CMakeFiles/light_switch_server_nrf52840_xxAA_s140_6.0.0.dir/__/__/__/mesh/bearer/src/advertiser.c.obj
                0x00030a3c                advertiser_packet_send
 .text.advertiser_packet_discard
                0x00030abc       0x2c examples/light_switch/server/CMakeFiles/light_switch_server_nrf52840_xxAA_s140_6.0.0.dir/__/__/__/mesh/bearer/src/advertiser.c.obj
                0x00030abc                advertiser_packet_discard
 .text.advertiser_interval_set
                0x00030ae8       0x70 examples/light_switch/server/CMakeFiles/light_switch_server_nrf52840_xxAA_s140_6.0.0.dir/__/__/__/mesh/bearer/src/advertiser.c.obj
                0x00030ae8                advertiser_interval_set
 .text.advertiser_flush
                0x00030b58       0x20 examples/light_switch/server/CMakeFiles/light_switch_server_nrf52840_xxAA_s140_6.0.0.dir/__/__/__/mesh/bearer/src/advertiser.c.obj
                0x00030b58                advertiser_flush
 .text.action_switch.part.2
                0x00030b78       0xb4 examples/light_switch/server/CMakeFiles/light_switch_server_nrf52840_xxAA_s140_6.0.0.dir/__/__/__/mesh/bearer/src/bearer_handler.c.obj
 .text.bearer_handler_init
                0x00030c2c       0x2c examples/light_switch/server/CMakeFiles/light_switch_server_nrf52840_xxAA_s140_6.0.0.dir/__/__/__/mesh/bearer/src/bearer_handler.c.obj
                0x00030c2c                bearer_handler_init
 .text.bearer_handler_start
                0x00030c58       0x1c examples/light_switch/server/CMakeFiles/light_switch_server_nrf52840_xxAA_s140_6.0.0.dir/__/__/__/mesh/bearer/src/bearer_handler.c.obj
                0x00030c58                bearer_handler_start
 .text.bearer_handler_action_enqueue
                0x00030c74       0x7c examples/light_switch/server/CMakeFiles/light_switch_server_nrf52840_xxAA_s140_6.0.0.dir/__/__/__/mesh/bearer/src/bearer_handler.c.obj
                0x00030c74                bearer_handler_action_enqueue
 .text.bearer_handler_action_end
                0x00030cf0       0x68 examples/light_switch/server/CMakeFiles/light_switch_server_nrf52840_xxAA_s140_6.0.0.dir/__/__/__/mesh/bearer/src/bearer_handler.c.obj
                0x00030cf0                bearer_handler_action_end
 .text.bearer_handler_radio_irq_handler
                0x00030d58       0x54 examples/light_switch/server/CMakeFiles/light_switch_server_nrf52840_xxAA_s140_6.0.0.dir/__/__/__/mesh/bearer/src/bearer_handler.c.obj
                0x00030d58                bearer_handler_radio_irq_handler
 .text.bearer_handler_timer_irq_handler
                0x00030dac       0x34 examples/light_switch/server/CMakeFiles/light_switch_server_nrf52840_xxAA_s140_6.0.0.dir/__/__/__/mesh/bearer/src/bearer_handler.c.obj
                0x00030dac                bearer_handler_timer_irq_handler
 .text.bearer_handler_on_ts_begin
                0x00030de0       0x3c examples/light_switch/server/CMakeFiles/light_switch_server_nrf52840_xxAA_s140_6.0.0.dir/__/__/__/mesh/bearer/src/bearer_handler.c.obj
                0x00030de0                bearer_handler_on_ts_begin
 .text.bearer_handler_on_ts_end
                0x00030e1c       0x34 examples/light_switch/server/CMakeFiles/light_switch_server_nrf52840_xxAA_s140_6.0.0.dir/__/__/__/mesh/bearer/src/bearer_handler.c.obj
                0x00030e1c                bearer_handler_on_ts_end
 .text.radio_irq_handler
                0x00030e50       0x98 examples/light_switch/server/CMakeFiles/light_switch_server_nrf52840_xxAA_s140_6.0.0.dir/__/__/__/mesh/bearer/src/broadcast.c.obj
 .text.broadcast_start
                0x00030ee8       0x8c examples/light_switch/server/CMakeFiles/light_switch_server_nrf52840_xxAA_s140_6.0.0.dir/__/__/__/mesh/bearer/src/broadcast.c.obj
 .text.broadcast_send
                0x00030f74       0x74 examples/light_switch/server/CMakeFiles/light_switch_server_nrf52840_xxAA_s140_6.0.0.dir/__/__/__/mesh/bearer/src/broadcast.c.obj
                0x00030f74                broadcast_send
 .text.fen_filter_start
                0x00030fe8       0x38 examples/light_switch/server/CMakeFiles/light_switch_server_nrf52840_xxAA_s140_6.0.0.dir/__/__/__/mesh/bearer/src/filter_engine.c.obj
                0x00030fe8                fen_filter_start
 .text.fen_filter_stop
                0x00031020       0x2c examples/light_switch/server/CMakeFiles/light_switch_server_nrf52840_xxAA_s140_6.0.0.dir/__/__/__/mesh/bearer/src/filter_engine.c.obj
                0x00031020                fen_filter_stop
 .text.fen_filters_apply
                0x0003104c       0x38 examples/light_switch/server/CMakeFiles/light_switch_server_nrf52840_xxAA_s140_6.0.0.dir/__/__/__/mesh/bearer/src/filter_engine.c.obj
                0x0003104c                fen_filters_apply
 .text.radio_config_reset
                0x00031084       0x38 examples/light_switch/server/CMakeFiles/light_switch_server_nrf52840_xxAA_s140_6.0.0.dir/__/__/__/mesh/bearer/src/radio_config.c.obj
                0x00031084                radio_config_reset
 .text.radio_config_channel_set
                0x000310bc       0x28 examples/light_switch/server/CMakeFiles/light_switch_server_nrf52840_xxAA_s140_6.0.0.dir/__/__/__/mesh/bearer/src/radio_config.c.obj
                0x000310bc                radio_config_channel_set
 .text.radio_config_config
                0x000310e4       0x90 examples/light_switch/server/CMakeFiles/light_switch_server_nrf52840_xxAA_s140_6.0.0.dir/__/__/__/mesh/bearer/src/radio_config.c.obj
                0x000310e4                radio_config_config
 .text.radio_config_access_addr_set
                0x00031174       0x54 examples/light_switch/server/CMakeFiles/light_switch_server_nrf52840_xxAA_s140_6.0.0.dir/__/__/__/mesh/bearer/src/radio_config.c.obj
                0x00031174                radio_config_access_addr_set
 .text.scan_window_end
                0x000311c8       0x28 examples/light_switch/server/CMakeFiles/light_switch_server_nrf52840_xxAA_s140_6.0.0.dir/__/__/__/mesh/bearer/src/scanner.c.obj
 .text.scan_window_start
                0x000311f0       0x38 examples/light_switch/server/CMakeFiles/light_switch_server_nrf52840_xxAA_s140_6.0.0.dir/__/__/__/mesh/bearer/src/scanner.c.obj
 .text.radio_start
                0x00031228      0x188 examples/light_switch/server/CMakeFiles/light_switch_server_nrf52840_xxAA_s140_6.0.0.dir/__/__/__/mesh/bearer/src/scanner.c.obj
 .text.scanner_radio_start
                0x000313b0      0x14c examples/light_switch/server/CMakeFiles/light_switch_server_nrf52840_xxAA_s140_6.0.0.dir/__/__/__/mesh/bearer/src/scanner.c.obj
                0x000313b0                scanner_radio_start
 .text.scanner_radio_stop
                0x000314fc       0x34 examples/light_switch/server/CMakeFiles/light_switch_server_nrf52840_xxAA_s140_6.0.0.dir/__/__/__/mesh/bearer/src/scanner.c.obj
                0x000314fc                scanner_radio_stop
 .text.scanner_radio_irq_handler
                0x00031530      0x204 examples/light_switch/server/CMakeFiles/light_switch_server_nrf52840_xxAA_s140_6.0.0.dir/__/__/__/mesh/bearer/src/scanner.c.obj
                0x00031530                scanner_radio_irq_handler
 .text.scanner_enable
                0x00031734       0x54 examples/light_switch/server/CMakeFiles/light_switch_server_nrf52840_xxAA_s140_6.0.0.dir/__/__/__/mesh/bearer/src/scanner.c.obj
                0x00031734                scanner_enable
 .text.scanner_rx
                0x00031788       0x78 examples/light_switch/server/CMakeFiles/light_switch_server_nrf52840_xxAA_s140_6.0.0.dir/__/__/__/mesh/bearer/src/scanner.c.obj
                0x00031788                scanner_rx
 .text.scanner_packet_release
                0x00031800       0x40 examples/light_switch/server/CMakeFiles/light_switch_server_nrf52840_xxAA_s140_6.0.0.dir/__/__/__/mesh/bearer/src/scanner.c.obj
                0x00031800                scanner_packet_release
 .text.scanner_rx_pending
                0x00031840        0xc examples/light_switch/server/CMakeFiles/light_switch_server_nrf52840_xxAA_s140_6.0.0.dir/__/__/__/mesh/bearer/src/scanner.c.obj
                0x00031840                scanner_rx_pending
 .text.scanner_config_reset
                0x0003184c       0xa8 examples/light_switch/server/CMakeFiles/light_switch_server_nrf52840_xxAA_s140_6.0.0.dir/__/__/__/mesh/bearer/src/scanner.c.obj
                0x0003184c                scanner_config_reset
 .text.scanner_init
                0x000318f4       0x54 examples/light_switch/server/CMakeFiles/light_switch_server_nrf52840_xxAA_s140_6.0.0.dir/__/__/__/mesh/bearer/src/scanner.c.obj
                0x000318f4                scanner_init
 .text.handle_get_cb
                0x00031948       0x4c examples/light_switch/server/CMakeFiles/light_switch_server_nrf52840_xxAA_s140_6.0.0.dir/__/__/__/models/simple_on_off/src/simple_on_off_server.c.obj
 .text.handle_set_unreliable_cb
                0x00031994       0x54 examples/light_switch/server/CMakeFiles/light_switch_server_nrf52840_xxAA_s140_6.0.0.dir/__/__/__/models/simple_on_off/src/simple_on_off_server.c.obj
 .text.handle_set_cb
                0x000319e8       0x84 examples/light_switch/server/CMakeFiles/light_switch_server_nrf52840_xxAA_s140_6.0.0.dir/__/__/__/models/simple_on_off/src/simple_on_off_server.c.obj
 .text.simple_on_off_server_init
                0x00031a6c       0x44 examples/light_switch/server/CMakeFiles/light_switch_server_nrf52840_xxAA_s140_6.0.0.dir/__/__/__/models/simple_on_off/src/simple_on_off_server.c.obj
                0x00031a6c                simple_on_off_server_init
 .text.simple_on_off_server_status_publish
                0x00031ab0       0x34 examples/light_switch/server/CMakeFiles/light_switch_server_nrf52840_xxAA_s140_6.0.0.dir/__/__/__/models/simple_on_off/src/simple_on_off_server.c.obj
                0x00031ab0                simple_on_off_server_status_publish
 .text.config_composition_data_get
                0x00031ae4      0x1d4 examples/light_switch/server/CMakeFiles/light_switch_server_nrf52840_xxAA_s140_6.0.0.dir/__/__/__/models/config/src/composition_data.c.obj
                0x00031ae4                config_composition_data_get
 .text.config_server_heartbeat_publication_count_decrement
                0x00031cb8       0x1c examples/light_switch/server/CMakeFiles/light_switch_server_nrf52840_xxAA_s140_6.0.0.dir/__/__/__/models/config/src/config_server.c.obj
 .text.config_server_heartbeat_publication_params_get
                0x00031cd4       0x38 examples/light_switch/server/CMakeFiles/light_switch_server_nrf52840_xxAA_s140_6.0.0.dir/__/__/__/models/config/src/config_server.c.obj
 .text.handle_config_network_transmit_set
                0x00031d0c      0x11c examples/light_switch/server/CMakeFiles/light_switch_server_nrf52840_xxAA_s140_6.0.0.dir/__/__/__/models/config/src/config_server.c.obj
 .text.handle_node_reset
                0x00031e28       0x30 examples/light_switch/server/CMakeFiles/light_switch_server_nrf52840_xxAA_s140_6.0.0.dir/__/__/__/models/config/src/config_server.c.obj
 .text.handle_config_relay_set
                0x00031e58      0x1b0 examples/light_switch/server/CMakeFiles/light_switch_server_nrf52840_xxAA_s140_6.0.0.dir/__/__/__/models/config/src/config_server.c.obj
 .text.handle_config_gatt_proxy_set
                0x00032008       0x38 examples/light_switch/server/CMakeFiles/light_switch_server_nrf52840_xxAA_s140_6.0.0.dir/__/__/__/models/config/src/config_server.c.obj
 .text.handle_netkey_get
                0x00032040       0x68 examples/light_switch/server/CMakeFiles/light_switch_server_nrf52840_xxAA_s140_6.0.0.dir/__/__/__/models/config/src/config_server.c.obj
 .text.handle_model_app_bind_unbind
                0x000320a8      0x22c examples/light_switch/server/CMakeFiles/light_switch_server_nrf52840_xxAA_s140_6.0.0.dir/__/__/__/models/config/src/config_server.c.obj
 .text.status_error_sub_send
                0x000322d4      0x184 examples/light_switch/server/CMakeFiles/light_switch_server_nrf52840_xxAA_s140_6.0.0.dir/__/__/__/models/config/src/config_server.c.obj
 .text.handle_config_model_subscription_overwrite
                0x00032458      0x1e8 examples/light_switch/server/CMakeFiles/light_switch_server_nrf52840_xxAA_s140_6.0.0.dir/__/__/__/models/config/src/config_server.c.obj
 .text.send_publication_status
                0x00032640      0x1a4 examples/light_switch/server/CMakeFiles/light_switch_server_nrf52840_xxAA_s140_6.0.0.dir/__/__/__/models/config/src/config_server.c.obj
 .text.handle_config_key_refresh_phase_set
                0x000327e4       0xf0 examples/light_switch/server/CMakeFiles/light_switch_server_nrf52840_xxAA_s140_6.0.0.dir/__/__/__/models/config/src/config_server.c.obj
 .text.handle_config_default_ttl_set
                0x000328d4       0x70 examples/light_switch/server/CMakeFiles/light_switch_server_nrf52840_xxAA_s140_6.0.0.dir/__/__/__/models/config/src/config_server.c.obj
 .text.handle_heartbeat_publication_set
                0x00032944      0x170 examples/light_switch/server/CMakeFiles/light_switch_server_nrf52840_xxAA_s140_6.0.0.dir/__/__/__/models/config/src/config_server.c.obj
 .text.mesh_event_cb
                0x00032ab4       0x70 examples/light_switch/server/CMakeFiles/light_switch_server_nrf52840_xxAA_s140_6.0.0.dir/__/__/__/models/config/src/config_server.c.obj
 .text.handle_node_identity_set
                0x00032b24       0x48 examples/light_switch/server/CMakeFiles/light_switch_server_nrf52840_xxAA_s140_6.0.0.dir/__/__/__/models/config/src/config_server.c.obj
 .text.handle_node_identity_get
                0x00032b6c       0x44 examples/light_switch/server/CMakeFiles/light_switch_server_nrf52840_xxAA_s140_6.0.0.dir/__/__/__/models/config/src/config_server.c.obj
 .text.handle_config_friend_set
                0x00032bb0       0x38 examples/light_switch/server/CMakeFiles/light_switch_server_nrf52840_xxAA_s140_6.0.0.dir/__/__/__/models/config/src/config_server.c.obj
 .text.status_error_pub_send
                0x00032be8       0xc8 examples/light_switch/server/CMakeFiles/light_switch_server_nrf52840_xxAA_s140_6.0.0.dir/__/__/__/models/config/src/config_server.c.obj
 .text.handle_config_model_publication_get
                0x00032cb0       0xa0 examples/light_switch/server/CMakeFiles/light_switch_server_nrf52840_xxAA_s140_6.0.0.dir/__/__/__/models/config/src/config_server.c.obj
 .text.handle_config_model_publication_set
                0x00032d50      0x324 examples/light_switch/server/CMakeFiles/light_switch_server_nrf52840_xxAA_s140_6.0.0.dir/__/__/__/models/config/src/config_server.c.obj
 .text.handle_config_key_refresh_phase_get
                0x00033074       0x70 examples/light_switch/server/CMakeFiles/light_switch_server_nrf52840_xxAA_s140_6.0.0.dir/__/__/__/models/config/src/config_server.c.obj
 .text.handle_config_default_ttl_get
                0x000330e4       0x48 examples/light_switch/server/CMakeFiles/light_switch_server_nrf52840_xxAA_s140_6.0.0.dir/__/__/__/models/config/src/config_server.c.obj
 .text.handle_config_beacon_set
                0x0003312c       0x80 examples/light_switch/server/CMakeFiles/light_switch_server_nrf52840_xxAA_s140_6.0.0.dir/__/__/__/models/config/src/config_server.c.obj
 .text.handle_composition_data_get
                0x000331ac       0x64 examples/light_switch/server/CMakeFiles/light_switch_server_nrf52840_xxAA_s140_6.0.0.dir/__/__/__/models/config/src/config_server.c.obj
 .text.handle_appkey_delete
                0x00033210      0x124 examples/light_switch/server/CMakeFiles/light_switch_server_nrf52840_xxAA_s140_6.0.0.dir/__/__/__/models/config/src/config_server.c.obj
 .text.handle_model_app_get
                0x00033334      0x214 examples/light_switch/server/CMakeFiles/light_switch_server_nrf52840_xxAA_s140_6.0.0.dir/__/__/__/models/config/src/config_server.c.obj
 .text.handle_config_vendor_model_subscription_get
                0x00033548      0x184 examples/light_switch/server/CMakeFiles/light_switch_server_nrf52840_xxAA_s140_6.0.0.dir/__/__/__/models/config/src/config_server.c.obj
 .text.handle_appkey_get
                0x000336cc      0x104 examples/light_switch/server/CMakeFiles/light_switch_server_nrf52840_xxAA_s140_6.0.0.dir/__/__/__/models/config/src/config_server.c.obj
 .text.handle_heartbeat_subscription_get
                0x000337d0       0xd8 examples/light_switch/server/CMakeFiles/light_switch_server_nrf52840_xxAA_s140_6.0.0.dir/__/__/__/models/config/src/config_server.c.obj
 .text.handle_config_gatt_proxy_get
                0x000338a8       0x38 examples/light_switch/server/CMakeFiles/light_switch_server_nrf52840_xxAA_s140_6.0.0.dir/__/__/__/models/config/src/config_server.c.obj
 .text.handle_heartbeat_subscription_set
                0x000338e0      0x110 examples/light_switch/server/CMakeFiles/light_switch_server_nrf52840_xxAA_s140_6.0.0.dir/__/__/__/models/config/src/config_server.c.obj
 .text.handle_config_friend_get
                0x000339f0       0x38 examples/light_switch/server/CMakeFiles/light_switch_server_nrf52840_xxAA_s140_6.0.0.dir/__/__/__/models/config/src/config_server.c.obj
 .text.handle_heartbeat_publication_get
                0x00033a28       0xcc examples/light_switch/server/CMakeFiles/light_switch_server_nrf52840_xxAA_s140_6.0.0.dir/__/__/__/models/config/src/config_server.c.obj
 .text.handle_config_beacon_get
                0x00033af4       0x40 examples/light_switch/server/CMakeFiles/light_switch_server_nrf52840_xxAA_s140_6.0.0.dir/__/__/__/models/config/src/config_server.c.obj
 .text.handle_config_sig_model_subscription_get
                0x00033b34      0x14c examples/light_switch/server/CMakeFiles/light_switch_server_nrf52840_xxAA_s140_6.0.0.dir/__/__/__/models/config/src/config_server.c.obj
 .text.handle_appkey_update
                0x00033c80      0x11c examples/light_switch/server/CMakeFiles/light_switch_server_nrf52840_xxAA_s140_6.0.0.dir/__/__/__/models/config/src/config_server.c.obj
 .text.handle_appkey_add
                0x00033d9c      0x12c examples/light_switch/server/CMakeFiles/light_switch_server_nrf52840_xxAA_s140_6.0.0.dir/__/__/__/models/config/src/config_server.c.obj
 .text.handle_netkey_add_update
                0x00033ec8       0xe8 examples/light_switch/server/CMakeFiles/light_switch_server_nrf52840_xxAA_s140_6.0.0.dir/__/__/__/models/config/src/config_server.c.obj
 .text.handle_netkey_delete
                0x00033fb0      0x11c examples/light_switch/server/CMakeFiles/light_switch_server_nrf52840_xxAA_s140_6.0.0.dir/__/__/__/models/config/src/config_server.c.obj
 .text.handle_config_network_transmit_get
                0x000340cc       0x9c examples/light_switch/server/CMakeFiles/light_switch_server_nrf52840_xxAA_s140_6.0.0.dir/__/__/__/models/config/src/config_server.c.obj
 .text.handle_config_relay_get
                0x00034168       0xd8 examples/light_switch/server/CMakeFiles/light_switch_server_nrf52840_xxAA_s140_6.0.0.dir/__/__/__/models/config/src/config_server.c.obj
 .text.handle_config_model_subscription_virtual_address_delete
                0x00034240      0x17c examples/light_switch/server/CMakeFiles/light_switch_server_nrf52840_xxAA_s140_6.0.0.dir/__/__/__/models/config/src/config_server.c.obj
 .text.handle_config_model_subscription_delete_all
                0x000343bc      0x1a4 examples/light_switch/server/CMakeFiles/light_switch_server_nrf52840_xxAA_s140_6.0.0.dir/__/__/__/models/config/src/config_server.c.obj
 .text.handle_config_model_subscription_virtual_address_add
                0x00034560      0x178 examples/light_switch/server/CMakeFiles/light_switch_server_nrf52840_xxAA_s140_6.0.0.dir/__/__/__/models/config/src/config_server.c.obj
 .text.handle_config_model_subscription_delete
                0x000346d8      0x170 examples/light_switch/server/CMakeFiles/light_switch_server_nrf52840_xxAA_s140_6.0.0.dir/__/__/__/models/config/src/config_server.c.obj
 .text.handle_config_model_subscription_virtual_address_overwrite
                0x00034848      0x20c examples/light_switch/server/CMakeFiles/light_switch_server_nrf52840_xxAA_s140_6.0.0.dir/__/__/__/models/config/src/config_server.c.obj
 .text.handle_config_model_subscription_add
                0x00034a54      0x168 examples/light_switch/server/CMakeFiles/light_switch_server_nrf52840_xxAA_s140_6.0.0.dir/__/__/__/models/config/src/config_server.c.obj
 .text.config_server_init
                0x00034bbc       0x64 examples/light_switch/server/CMakeFiles/light_switch_server_nrf52840_xxAA_s140_6.0.0.dir/__/__/__/models/config/src/config_server.c.obj
                0x00034bbc                config_server_init
 .text.config_server_bind
                0x00034c20       0x10 examples/light_switch/server/CMakeFiles/light_switch_server_nrf52840_xxAA_s140_6.0.0.dir/__/__/__/models/config/src/config_server.c.obj
                0x00034c20                config_server_bind
 .text.packed_index_list_create
                0x00034c30       0x38 examples/light_switch/server/CMakeFiles/light_switch_server_nrf52840_xxAA_s140_6.0.0.dir/__/__/__/models/config/src/packed_index_list.c.obj
                0x00034c30                packed_index_list_create
 .text.attention_timer_handler
                0x00034c68       0x6c examples/light_switch/server/CMakeFiles/light_switch_server_nrf52840_xxAA_s140_6.0.0.dir/__/__/__/models/health/src/health_server.c.obj
 .text.handle_attention_get
                0x00034cd4       0x3c examples/light_switch/server/CMakeFiles/light_switch_server_nrf52840_xxAA_s140_6.0.0.dir/__/__/__/models/health/src/health_server.c.obj
 .text.handle_period_get
                0x00034d10       0x38 examples/light_switch/server/CMakeFiles/light_switch_server_nrf52840_xxAA_s140_6.0.0.dir/__/__/__/models/health/src/health_server.c.obj
 .text.handle_attention_set
                0x00034d48       0xd8 examples/light_switch/server/CMakeFiles/light_switch_server_nrf52840_xxAA_s140_6.0.0.dir/__/__/__/models/health/src/health_server.c.obj
 .text.handle_period_set
                0x00034e20       0x50 examples/light_switch/server/CMakeFiles/light_switch_server_nrf52840_xxAA_s140_6.0.0.dir/__/__/__/models/health/src/health_server.c.obj
 .text.send_fault_status
                0x00034e70      0x37c examples/light_switch/server/CMakeFiles/light_switch_server_nrf52840_xxAA_s140_6.0.0.dir/__/__/__/models/health/src/health_server.c.obj
 .text.health_publish_timeout_handler
                0x000351ec        0xc examples/light_switch/server/CMakeFiles/light_switch_server_nrf52840_xxAA_s140_6.0.0.dir/__/__/__/models/health/src/health_server.c.obj
 .text.handle_fault_test
                0x000351f8       0x7c examples/light_switch/server/CMakeFiles/light_switch_server_nrf52840_xxAA_s140_6.0.0.dir/__/__/__/models/health/src/health_server.c.obj
 .text.handle_fault_clear
                0x00035274       0x48 examples/light_switch/server/CMakeFiles/light_switch_server_nrf52840_xxAA_s140_6.0.0.dir/__/__/__/models/health/src/health_server.c.obj
 .text.handle_fault_get
                0x000352bc       0x34 examples/light_switch/server/CMakeFiles/light_switch_server_nrf52840_xxAA_s140_6.0.0.dir/__/__/__/models/health/src/health_server.c.obj
 .text.health_server_init
                0x000352f0       0x74 examples/light_switch/server/CMakeFiles/light_switch_server_nrf52840_xxAA_s140_6.0.0.dir/__/__/__/models/health/src/health_server.c.obj
                0x000352f0                health_server_init
 .text.schedule_publication_timer
                0x00035364      0x2c4 examples/light_switch/server/CMakeFiles/light_switch_server_nrf52840_xxAA_s140_6.0.0.dir/__/__/__/mesh/access/src/access_publish.c.obj
 .text.publish_timer_tick
                0x00035628      0x134 examples/light_switch/server/CMakeFiles/light_switch_server_nrf52840_xxAA_s140_6.0.0.dir/__/__/__/mesh/access/src/access_publish.c.obj
 .text.access_publish_init
                0x0003575c       0x38 examples/light_switch/server/CMakeFiles/light_switch_server_nrf52840_xxAA_s140_6.0.0.dir/__/__/__/mesh/access/src/access_publish.c.obj
                0x0003575c                access_publish_init
 .text.access_publish_period_set
                0x00035794      0x12c examples/light_switch/server/CMakeFiles/light_switch_server_nrf52840_xxAA_s140_6.0.0.dir/__/__/__/mesh/access/src/access_publish.c.obj
                0x00035794                access_publish_period_set
 .text.access_publish_period_get
                0x000358c0       0x2c examples/light_switch/server/CMakeFiles/light_switch_server_nrf52840_xxAA_s140_6.0.0.dir/__/__/__/mesh/access/src/access_publish.c.obj
                0x000358c0                access_publish_period_get
 .text.flash_manager_mem_available
                0x000358ec        0x4 examples/light_switch/server/CMakeFiles/light_switch_server_nrf52840_xxAA_s140_6.0.0.dir/__/__/__/mesh/access/src/access.c.obj
 .text.flash_invalidate_complete
                0x000358f0        0x8 examples/light_switch/server/CMakeFiles/light_switch_server_nrf52840_xxAA_s140_6.0.0.dir/__/__/__/mesh/access/src/access.c.obj
 .text.access_flash_config_clear
                0x000358f8       0x28 examples/light_switch/server/CMakeFiles/light_switch_server_nrf52840_xxAA_s140_6.0.0.dir/__/__/__/mesh/access/src/access.c.obj
 .text.access_flash_config_store
                0x00035920      0x11c examples/light_switch/server/CMakeFiles/light_switch_server_nrf52840_xxAA_s140_6.0.0.dir/__/__/__/mesh/access/src/access.c.obj
                0x00035920                access_flash_config_store
 .text.handle_incoming
                0x00035a3c      0x194 examples/light_switch/server/CMakeFiles/light_switch_server_nrf52840_xxAA_s140_6.0.0.dir/__/__/__/mesh/access/src/access.c.obj
 .text.mesh_evt_cb
                0x00035bd0      0x164 examples/light_switch/server/CMakeFiles/light_switch_server_nrf52840_xxAA_s140_6.0.0.dir/__/__/__/mesh/access/src/access.c.obj
 .text.add_flash_manager
                0x00035d34       0x58 examples/light_switch/server/CMakeFiles/light_switch_server_nrf52840_xxAA_s140_6.0.0.dir/__/__/__/mesh/access/src/access.c.obj
 .text.flash_write_complete
                0x00035d8c       0x4c examples/light_switch/server/CMakeFiles/light_switch_server_nrf52840_xxAA_s140_6.0.0.dir/__/__/__/mesh/access/src/access.c.obj
 .text.flash_remove_complete
                0x00035dd8       0xb4 examples/light_switch/server/CMakeFiles/light_switch_server_nrf52840_xxAA_s140_6.0.0.dir/__/__/__/mesh/access/src/access.c.obj
 .text.access_flash_config_load
                0x00035e8c      0x2c8 examples/light_switch/server/CMakeFiles/light_switch_server_nrf52840_xxAA_s140_6.0.0.dir/__/__/__/mesh/access/src/access.c.obj
                0x00035e8c                access_flash_config_load
 .text.access_clear
                0x00036154       0x70 examples/light_switch/server/CMakeFiles/light_switch_server_nrf52840_xxAA_s140_6.0.0.dir/__/__/__/mesh/access/src/access.c.obj
                0x00036154                access_clear
 .text.access_init
                0x000361c4       0xb8 examples/light_switch/server/CMakeFiles/light_switch_server_nrf52840_xxAA_s140_6.0.0.dir/__/__/__/mesh/access/src/access.c.obj
                0x000361c4                access_init
 .text.access_model_add
                0x0003627c      0x228 examples/light_switch/server/CMakeFiles/light_switch_server_nrf52840_xxAA_s140_6.0.0.dir/__/__/__/mesh/access/src/access.c.obj
                0x0003627c                access_model_add
 .text.access_model_publish
                0x000364a4      0x3bc examples/light_switch/server/CMakeFiles/light_switch_server_nrf52840_xxAA_s140_6.0.0.dir/__/__/__/mesh/access/src/access.c.obj
                0x000364a4                access_model_publish
 .text.access_model_reply
                0x00036860      0x3d4 examples/light_switch/server/CMakeFiles/light_switch_server_nrf52840_xxAA_s140_6.0.0.dir/__/__/__/mesh/access/src/access.c.obj
                0x00036860                access_model_reply
 .text.access_model_publish_address_set
                0x00036c34       0x3c examples/light_switch/server/CMakeFiles/light_switch_server_nrf52840_xxAA_s140_6.0.0.dir/__/__/__/mesh/access/src/access.c.obj
                0x00036c34                access_model_publish_address_set
 .text.access_model_publish_address_get
                0x00036c70       0x2c examples/light_switch/server/CMakeFiles/light_switch_server_nrf52840_xxAA_s140_6.0.0.dir/__/__/__/mesh/access/src/access.c.obj
                0x00036c70                access_model_publish_address_get
 .text.access_model_publish_retransmit_set
                0x00036c9c       0x58 examples/light_switch/server/CMakeFiles/light_switch_server_nrf52840_xxAA_s140_6.0.0.dir/__/__/__/mesh/access/src/access.c.obj
                0x00036c9c                access_model_publish_retransmit_set
 .text.access_model_publish_retransmit_get
                0x00036cf4       0x2c examples/light_switch/server/CMakeFiles/light_switch_server_nrf52840_xxAA_s140_6.0.0.dir/__/__/__/mesh/access/src/access.c.obj
                0x00036cf4                access_model_publish_retransmit_get
 .text.access_model_publish_period_set
                0x00036d20       0x78 examples/light_switch/server/CMakeFiles/light_switch_server_nrf52840_xxAA_s140_6.0.0.dir/__/__/__/mesh/access/src/access.c.obj
                0x00036d20                access_model_publish_period_set
 .text.access_model_publish_period_get
                0x00036d98       0x40 examples/light_switch/server/CMakeFiles/light_switch_server_nrf52840_xxAA_s140_6.0.0.dir/__/__/__/mesh/access/src/access.c.obj
                0x00036d98                access_model_publish_period_get
 .text.access_model_subscription_list_alloc
                0x00036dd8       0x44 examples/light_switch/server/CMakeFiles/light_switch_server_nrf52840_xxAA_s140_6.0.0.dir/__/__/__/mesh/access/src/access.c.obj
                0x00036dd8                access_model_subscription_list_alloc
 .text.access_model_subscription_add
                0x00036e1c       0x60 examples/light_switch/server/CMakeFiles/light_switch_server_nrf52840_xxAA_s140_6.0.0.dir/__/__/__/mesh/access/src/access.c.obj
                0x00036e1c                access_model_subscription_add
 .text.access_model_subscription_remove
                0x00036e7c       0x60 examples/light_switch/server/CMakeFiles/light_switch_server_nrf52840_xxAA_s140_6.0.0.dir/__/__/__/mesh/access/src/access.c.obj
                0x00036e7c                access_model_subscription_remove
 .text.access_model_subscriptions_get
                0x00036edc       0xd0 examples/light_switch/server/CMakeFiles/light_switch_server_nrf52840_xxAA_s140_6.0.0.dir/__/__/__/mesh/access/src/access.c.obj
                0x00036edc                access_model_subscriptions_get
 .text.access_model_application_bind
                0x00036fac       0x58 examples/light_switch/server/CMakeFiles/light_switch_server_nrf52840_xxAA_s140_6.0.0.dir/__/__/__/mesh/access/src/access.c.obj
                0x00036fac                access_model_application_bind
 .text.access_model_application_unbind
                0x00037004       0x58 examples/light_switch/server/CMakeFiles/light_switch_server_nrf52840_xxAA_s140_6.0.0.dir/__/__/__/mesh/access/src/access.c.obj
                0x00037004                access_model_application_unbind
 .text.access_model_applications_get
                0x0003705c       0x50 examples/light_switch/server/CMakeFiles/light_switch_server_nrf52840_xxAA_s140_6.0.0.dir/__/__/__/mesh/access/src/access.c.obj
                0x0003705c                access_model_applications_get
 .text.access_model_publish_application_set
                0x000370ac       0x3c examples/light_switch/server/CMakeFiles/light_switch_server_nrf52840_xxAA_s140_6.0.0.dir/__/__/__/mesh/access/src/access.c.obj
                0x000370ac                access_model_publish_application_set
 .text.access_model_publish_application_get
                0x000370e8       0x2c examples/light_switch/server/CMakeFiles/light_switch_server_nrf52840_xxAA_s140_6.0.0.dir/__/__/__/mesh/access/src/access.c.obj
                0x000370e8                access_model_publish_application_get
 .text.access_default_ttl_set
                0x00037114       0x1c examples/light_switch/server/CMakeFiles/light_switch_server_nrf52840_xxAA_s140_6.0.0.dir/__/__/__/mesh/access/src/access.c.obj
                0x00037114                access_default_ttl_set
 .text.access_default_ttl_get
                0x00037130        0xc examples/light_switch/server/CMakeFiles/light_switch_server_nrf52840_xxAA_s140_6.0.0.dir/__/__/__/mesh/access/src/access.c.obj
                0x00037130                access_default_ttl_get
 .text.access_model_publish_ttl_set
                0x0003713c       0x40 examples/light_switch/server/CMakeFiles/light_switch_server_nrf52840_xxAA_s140_6.0.0.dir/__/__/__/mesh/access/src/access.c.obj
                0x0003713c                access_model_publish_ttl_set
 .text.access_model_publish_ttl_get
                0x0003717c       0x2c examples/light_switch/server/CMakeFiles/light_switch_server_nrf52840_xxAA_s140_6.0.0.dir/__/__/__/mesh/access/src/access.c.obj
                0x0003717c                access_model_publish_ttl_get
 .text.access_element_location_get
                0x000371a8       0x18 examples/light_switch/server/CMakeFiles/light_switch_server_nrf52840_xxAA_s140_6.0.0.dir/__/__/__/mesh/access/src/access.c.obj
                0x000371a8                access_element_location_get
 .text.access_element_sig_model_count_get
                0x000371c0       0x18 examples/light_switch/server/CMakeFiles/light_switch_server_nrf52840_xxAA_s140_6.0.0.dir/__/__/__/mesh/access/src/access.c.obj
                0x000371c0                access_element_sig_model_count_get
 .text.access_element_vendor_model_count_get
                0x000371d8       0x18 examples/light_switch/server/CMakeFiles/light_switch_server_nrf52840_xxAA_s140_6.0.0.dir/__/__/__/mesh/access/src/access.c.obj
                0x000371d8                access_element_vendor_model_count_get
 .text.access_model_id_get
                0x000371f0       0x40 examples/light_switch/server/CMakeFiles/light_switch_server_nrf52840_xxAA_s140_6.0.0.dir/__/__/__/mesh/access/src/access.c.obj
                0x000371f0                access_model_id_get
 .text.access_handle_get
                0x00037230       0x78 examples/light_switch/server/CMakeFiles/light_switch_server_nrf52840_xxAA_s140_6.0.0.dir/__/__/__/mesh/access/src/access.c.obj
                0x00037230                access_handle_get
 .text.access_element_models_get
                0x000372a8       0x84 examples/light_switch/server/CMakeFiles/light_switch_server_nrf52840_xxAA_s140_6.0.0.dir/__/__/__/mesh/access/src/access.c.obj
                0x000372a8                access_element_models_get
 .text.access_model_p_args_get
                0x0003732c       0x2c examples/light_switch/server/CMakeFiles/light_switch_server_nrf52840_xxAA_s140_6.0.0.dir/__/__/__/mesh/access/src/access.c.obj
                0x0003732c                access_model_p_args_get
 .text.access_model_publication_stop
                0x00037358       0x74 examples/light_switch/server/CMakeFiles/light_switch_server_nrf52840_xxAA_s140_6.0.0.dir/__/__/__/mesh/access/src/access.c.obj
                0x00037358                access_model_publication_stop
 .text.access_model_publication_by_appkey_stop
                0x000373cc      0x14c examples/light_switch/server/CMakeFiles/light_switch_server_nrf52840_xxAA_s140_6.0.0.dir/__/__/__/mesh/access/src/access.c.obj
                0x000373cc                access_model_publication_by_appkey_stop
 .text.remove_and_reschedule
                0x00037518       0xdc examples/light_switch/server/CMakeFiles/light_switch_server_nrf52840_xxAA_s140_6.0.0.dir/__/__/__/mesh/access/src/access_reliable.c.obj
 .text.reliable_timer_cb
                0x000375f4      0x274 examples/light_switch/server/CMakeFiles/light_switch_server_nrf52840_xxAA_s140_6.0.0.dir/__/__/__/mesh/access/src/access_reliable.c.obj
 .text.access_reliable_message_rx_cb
                0x00037868       0x80 examples/light_switch/server/CMakeFiles/light_switch_server_nrf52840_xxAA_s140_6.0.0.dir/__/__/__/mesh/access/src/access_reliable.c.obj
                0x00037868                access_reliable_message_rx_cb
 .text.access_reliable_init
                0x000378e8       0x1c examples/light_switch/server/CMakeFiles/light_switch_server_nrf52840_xxAA_s140_6.0.0.dir/__/__/__/mesh/access/src/access_reliable.c.obj
                0x000378e8                access_reliable_init
 .text.access_reliable_cancel_all
                0x00037904       0xe8 examples/light_switch/server/CMakeFiles/light_switch_server_nrf52840_xxAA_s140_6.0.0.dir/__/__/__/mesh/access/src/access_reliable.c.obj
                0x00037904                access_reliable_cancel_all
 .text.access_model_reliable_cancel
                0x000379ec       0x84 examples/light_switch/server/CMakeFiles/light_switch_server_nrf52840_xxAA_s140_6.0.0.dir/__/__/__/mesh/access/src/access_reliable.c.obj
                0x000379ec                access_model_reliable_cancel
 .text.addr_nonvirtual_to_dsm_entry
                0x00037a70       0x48 examples/light_switch/server/CMakeFiles/light_switch_server_nrf52840_xxAA_s140_6.0.0.dir/__/__/__/mesh/access/src/device_state_manager.c.obj
 .text.addr_nonvirtual_to_flash_entry
                0x00037ab8       0x10 examples/light_switch/server/CMakeFiles/light_switch_server_nrf52840_xxAA_s140_6.0.0.dir/__/__/__/mesh/access/src/device_state_manager.c.obj
 .text.devkey_to_flash_entry
                0x00037ac8       0x28 examples/light_switch/server/CMakeFiles/light_switch_server_nrf52840_xxAA_s140_6.0.0.dir/__/__/__/mesh/access/src/device_state_manager.c.obj
 .text.addr_virtual_to_flash_entry
                0x00037af0       0x18 examples/light_switch/server/CMakeFiles/light_switch_server_nrf52840_xxAA_s140_6.0.0.dir/__/__/__/mesh/access/src/device_state_manager.c.obj
 .text.addr_unicast_to_dsm_entry
                0x00037b08        0xc examples/light_switch/server/CMakeFiles/light_switch_server_nrf52840_xxAA_s140_6.0.0.dir/__/__/__/mesh/access/src/device_state_manager.c.obj
 .text.addr_unicast_to_flash_entry
                0x00037b14       0x10 examples/light_switch/server/CMakeFiles/light_switch_server_nrf52840_xxAA_s140_6.0.0.dir/__/__/__/mesh/access/src/device_state_manager.c.obj
 .text.flash_mem_listener_callback
                0x00037b24       0x1c examples/light_switch/server/CMakeFiles/light_switch_server_nrf52840_xxAA_s140_6.0.0.dir/__/__/__/mesh/access/src/device_state_manager.c.obj
 .text.appkey_to_flash_entry
                0x00037b40       0x54 examples/light_switch/server/CMakeFiles/light_switch_server_nrf52840_xxAA_s140_6.0.0.dir/__/__/__/mesh/access/src/device_state_manager.c.obj
 .text.subnet_to_flash_entry
                0x00037b94       0x60 examples/light_switch/server/CMakeFiles/light_switch_server_nrf52840_xxAA_s140_6.0.0.dir/__/__/__/mesh/access/src/device_state_manager.c.obj
 .text.reset_flash_area
                0x00037bf4       0x28 examples/light_switch/server/CMakeFiles/light_switch_server_nrf52840_xxAA_s140_6.0.0.dir/__/__/__/mesh/access/src/device_state_manager.c.obj
 .text.flash_save
                0x00037c1c       0xb0 examples/light_switch/server/CMakeFiles/light_switch_server_nrf52840_xxAA_s140_6.0.0.dir/__/__/__/mesh/access/src/device_state_manager.c.obj
 .text.build_flash_area
                0x00037ccc       0x8c examples/light_switch/server/CMakeFiles/light_switch_server_nrf52840_xxAA_s140_6.0.0.dir/__/__/__/mesh/access/src/device_state_manager.c.obj
 .text.flash_invalidate_complete
                0x00037d58       0x54 examples/light_switch/server/CMakeFiles/light_switch_server_nrf52840_xxAA_s140_6.0.0.dir/__/__/__/mesh/access/src/device_state_manager.c.obj
 .text.flash_write_complete
                0x00037dac       0x50 examples/light_switch/server/CMakeFiles/light_switch_server_nrf52840_xxAA_s140_6.0.0.dir/__/__/__/mesh/access/src/device_state_manager.c.obj
 .text.devkey_to_dsm_entry
                0x00037dfc       0x70 examples/light_switch/server/CMakeFiles/light_switch_server_nrf52840_xxAA_s140_6.0.0.dir/__/__/__/mesh/access/src/device_state_manager.c.obj
 .text.addr_virtual_to_dsm_entry
                0x00037e6c       0x60 examples/light_switch/server/CMakeFiles/light_switch_server_nrf52840_xxAA_s140_6.0.0.dir/__/__/__/mesh/access/src/device_state_manager.c.obj
 .text.appkey_to_dsm_entry
                0x00037ecc       0xf4 examples/light_switch/server/CMakeFiles/light_switch_server_nrf52840_xxAA_s140_6.0.0.dir/__/__/__/mesh/access/src/device_state_manager.c.obj
 .text.subnet_to_dsm_entry
                0x00037fc0      0x11c examples/light_switch/server/CMakeFiles/light_switch_server_nrf52840_xxAA_s140_6.0.0.dir/__/__/__/mesh/access/src/device_state_manager.c.obj
 .text.flash_remove_complete
                0x000380dc       0x8c examples/light_switch/server/CMakeFiles/light_switch_server_nrf52840_xxAA_s140_6.0.0.dir/__/__/__/mesh/access/src/device_state_manager.c.obj
 .text.flash_update_all
                0x00038168      0x17c examples/light_switch/server/CMakeFiles/light_switch_server_nrf52840_xxAA_s140_6.0.0.dir/__/__/__/mesh/access/src/device_state_manager.c.obj
 .text.address_delete_if_unused
                0x000382e4       0xe0 examples/light_switch/server/CMakeFiles/light_switch_server_nrf52840_xxAA_s140_6.0.0.dir/__/__/__/mesh/access/src/device_state_manager.c.obj
 .text.mesh_evt_handler
                0x000383c4      0x144 examples/light_switch/server/CMakeFiles/light_switch_server_nrf52840_xxAA_s140_6.0.0.dir/__/__/__/mesh/access/src/device_state_manager.c.obj
 .text.dsm_flash_config_load
                0x00038508      0x1c8 examples/light_switch/server/CMakeFiles/light_switch_server_nrf52840_xxAA_s140_6.0.0.dir/__/__/__/mesh/access/src/device_state_manager.c.obj
                0x00038508                dsm_flash_config_load
 .text.dsm_flash_area_get
                0x000386d0        0xc examples/light_switch/server/CMakeFiles/light_switch_server_nrf52840_xxAA_s140_6.0.0.dir/__/__/__/mesh/access/src/device_state_manager.c.obj
                0x000386d0                dsm_flash_area_get
 .text.dsm_clear
                0x000386dc       0xd8 examples/light_switch/server/CMakeFiles/light_switch_server_nrf52840_xxAA_s140_6.0.0.dir/__/__/__/mesh/access/src/device_state_manager.c.obj
                0x000386dc                dsm_clear
 .text.dsm_init
                0x000387b4       0xb8 examples/light_switch/server/CMakeFiles/light_switch_server_nrf52840_xxAA_s140_6.0.0.dir/__/__/__/mesh/access/src/device_state_manager.c.obj
                0x000387b4                dsm_init
 .text.dsm_local_unicast_addresses_set
                0x0003886c       0x78 examples/light_switch/server/CMakeFiles/light_switch_server_nrf52840_xxAA_s140_6.0.0.dir/__/__/__/mesh/access/src/device_state_manager.c.obj
                0x0003886c                dsm_local_unicast_addresses_set
 .text.dsm_local_unicast_addresses_get
                0x000388e4       0x20 examples/light_switch/server/CMakeFiles/light_switch_server_nrf52840_xxAA_s140_6.0.0.dir/__/__/__/mesh/access/src/device_state_manager.c.obj
                0x000388e4                dsm_local_unicast_addresses_get
 .text.dsm_address_publish_add
                0x00038904      0x140 examples/light_switch/server/CMakeFiles/light_switch_server_nrf52840_xxAA_s140_6.0.0.dir/__/__/__/mesh/access/src/device_state_manager.c.obj
                0x00038904                dsm_address_publish_add
 .text.dsm_address_publish_add_handle
                0x00038a44       0x4c examples/light_switch/server/CMakeFiles/light_switch_server_nrf52840_xxAA_s140_6.0.0.dir/__/__/__/mesh/access/src/device_state_manager.c.obj
                0x00038a44                dsm_address_publish_add_handle
 .text.dsm_address_publish_virtual_add
                0x00038a90       0xc8 examples/light_switch/server/CMakeFiles/light_switch_server_nrf52840_xxAA_s140_6.0.0.dir/__/__/__/mesh/access/src/device_state_manager.c.obj
                0x00038a90                dsm_address_publish_virtual_add
 .text.dsm_address_publish_remove
                0x00038b58       0xac examples/light_switch/server/CMakeFiles/light_switch_server_nrf52840_xxAA_s140_6.0.0.dir/__/__/__/mesh/access/src/device_state_manager.c.obj
                0x00038b58                dsm_address_publish_remove
 .text.dsm_address_subscription_add
                0x00038c04      0x128 examples/light_switch/server/CMakeFiles/light_switch_server_nrf52840_xxAA_s140_6.0.0.dir/__/__/__/mesh/access/src/device_state_manager.c.obj
                0x00038c04                dsm_address_subscription_add
 .text.dsm_address_subscription_virtual_add
                0x00038d2c       0xc8 examples/light_switch/server/CMakeFiles/light_switch_server_nrf52840_xxAA_s140_6.0.0.dir/__/__/__/mesh/access/src/device_state_manager.c.obj
                0x00038d2c                dsm_address_subscription_virtual_add
 .text.dsm_address_subscription_add_handle
                0x00038df4       0x4c examples/light_switch/server/CMakeFiles/light_switch_server_nrf52840_xxAA_s140_6.0.0.dir/__/__/__/mesh/access/src/device_state_manager.c.obj
                0x00038df4                dsm_address_subscription_add_handle
 .text.dsm_address_subscription_get
                0x00038e40       0x50 examples/light_switch/server/CMakeFiles/light_switch_server_nrf52840_xxAA_s140_6.0.0.dir/__/__/__/mesh/access/src/device_state_manager.c.obj
                0x00038e40                dsm_address_subscription_get
 .text.dsm_address_subscription_remove
                0x00038e90       0x84 examples/light_switch/server/CMakeFiles/light_switch_server_nrf52840_xxAA_s140_6.0.0.dir/__/__/__/mesh/access/src/device_state_manager.c.obj
                0x00038e90                dsm_address_subscription_remove
 .text.dsm_address_get
                0x00038f14       0x64 examples/light_switch/server/CMakeFiles/light_switch_server_nrf52840_xxAA_s140_6.0.0.dir/__/__/__/mesh/access/src/device_state_manager.c.obj
                0x00038f14                dsm_address_get
 .text.dsm_address_handle_get
                0x00038f78       0xc4 examples/light_switch/server/CMakeFiles/light_switch_server_nrf52840_xxAA_s140_6.0.0.dir/__/__/__/mesh/access/src/device_state_manager.c.obj
                0x00038f78                dsm_address_handle_get
 .text.dsm_net_key_index_to_subnet_handle
                0x0003903c       0x28 examples/light_switch/server/CMakeFiles/light_switch_server_nrf52840_xxAA_s140_6.0.0.dir/__/__/__/mesh/access/src/device_state_manager.c.obj
                0x0003903c                dsm_net_key_index_to_subnet_handle
 .text.dsm_subnet_handle_get
                0x00039064       0x3c examples/light_switch/server/CMakeFiles/light_switch_server_nrf52840_xxAA_s140_6.0.0.dir/__/__/__/mesh/access/src/device_state_manager.c.obj
                0x00039064                dsm_subnet_handle_get
 .text.dsm_appkey_index_to_appkey_handle
                0x000390a0       0x28 examples/light_switch/server/CMakeFiles/light_switch_server_nrf52840_xxAA_s140_6.0.0.dir/__/__/__/mesh/access/src/device_state_manager.c.obj
                0x000390a0                dsm_appkey_index_to_appkey_handle
 .text.dsm_appkey_handle_get
                0x000390c8       0x2c examples/light_switch/server/CMakeFiles/light_switch_server_nrf52840_xxAA_s140_6.0.0.dir/__/__/__/mesh/access/src/device_state_manager.c.obj
                0x000390c8                dsm_appkey_handle_get
 .text.dsm_appkey_handle_to_appkey_index
                0x000390f4       0x24 examples/light_switch/server/CMakeFiles/light_switch_server_nrf52840_xxAA_s140_6.0.0.dir/__/__/__/mesh/access/src/device_state_manager.c.obj
                0x000390f4                dsm_appkey_handle_to_appkey_index
 .text.dsm_appkey_handle_to_subnet_handle
                0x00039118       0x78 examples/light_switch/server/CMakeFiles/light_switch_server_nrf52840_xxAA_s140_6.0.0.dir/__/__/__/mesh/access/src/device_state_manager.c.obj
                0x00039118                dsm_appkey_handle_to_subnet_handle
 .text.dsm_subnet_add
                0x00039190      0x154 examples/light_switch/server/CMakeFiles/light_switch_server_nrf52840_xxAA_s140_6.0.0.dir/__/__/__/mesh/access/src/device_state_manager.c.obj
                0x00039190                dsm_subnet_add
 .text.dsm_subnet_kr_phase_get
                0x000392e4       0x20 examples/light_switch/server/CMakeFiles/light_switch_server_nrf52840_xxAA_s140_6.0.0.dir/__/__/__/mesh/access/src/device_state_manager.c.obj
                0x000392e4                dsm_subnet_kr_phase_get
 .text.dsm_subnet_update
                0x00039304       0xe8 examples/light_switch/server/CMakeFiles/light_switch_server_nrf52840_xxAA_s140_6.0.0.dir/__/__/__/mesh/access/src/device_state_manager.c.obj
                0x00039304                dsm_subnet_update
 .text.dsm_subnet_update_swap_keys
                0x000393ec       0x98 examples/light_switch/server/CMakeFiles/light_switch_server_nrf52840_xxAA_s140_6.0.0.dir/__/__/__/mesh/access/src/device_state_manager.c.obj
                0x000393ec                dsm_subnet_update_swap_keys
 .text.dsm_subnet_update_commit
                0x00039484      0x104 examples/light_switch/server/CMakeFiles/light_switch_server_nrf52840_xxAA_s140_6.0.0.dir/__/__/__/mesh/access/src/device_state_manager.c.obj
                0x00039484                dsm_subnet_update_commit
 .text.dsm_subnet_delete
                0x00039588       0xe8 examples/light_switch/server/CMakeFiles/light_switch_server_nrf52840_xxAA_s140_6.0.0.dir/__/__/__/mesh/access/src/device_state_manager.c.obj
                0x00039588                dsm_subnet_delete
 .text.dsm_subnet_get_all
                0x00039670       0x44 examples/light_switch/server/CMakeFiles/light_switch_server_nrf52840_xxAA_s140_6.0.0.dir/__/__/__/mesh/access/src/device_state_manager.c.obj
                0x00039670                dsm_subnet_get_all
 .text.dsm_devkey_add
                0x000396b4       0xac examples/light_switch/server/CMakeFiles/light_switch_server_nrf52840_xxAA_s140_6.0.0.dir/__/__/__/mesh/access/src/device_state_manager.c.obj
                0x000396b4                dsm_devkey_add
 .text.dsm_appkey_add
                0x00039760      0x138 examples/light_switch/server/CMakeFiles/light_switch_server_nrf52840_xxAA_s140_6.0.0.dir/__/__/__/mesh/access/src/device_state_manager.c.obj
                0x00039760                dsm_appkey_add
 .text.dsm_appkey_update
                0x00039898       0xd4 examples/light_switch/server/CMakeFiles/light_switch_server_nrf52840_xxAA_s140_6.0.0.dir/__/__/__/mesh/access/src/device_state_manager.c.obj
                0x00039898                dsm_appkey_update
 .text.dsm_appkey_delete
                0x0003996c       0x60 examples/light_switch/server/CMakeFiles/light_switch_server_nrf52840_xxAA_s140_6.0.0.dir/__/__/__/mesh/access/src/device_state_manager.c.obj
                0x0003996c                dsm_appkey_delete
 .text.dsm_appkey_get_all
                0x000399cc       0x54 examples/light_switch/server/CMakeFiles/light_switch_server_nrf52840_xxAA_s140_6.0.0.dir/__/__/__/mesh/access/src/device_state_manager.c.obj
                0x000399cc                dsm_appkey_get_all
 .text.dsm_tx_secmat_get
                0x00039a20       0xac examples/light_switch/server/CMakeFiles/light_switch_server_nrf52840_xxAA_s140_6.0.0.dir/__/__/__/mesh/access/src/device_state_manager.c.obj
                0x00039a20                dsm_tx_secmat_get
 .text.dsm_net_secmat_from_keyindex_get
                0x00039acc       0x44 examples/light_switch/server/CMakeFiles/light_switch_server_nrf52840_xxAA_s140_6.0.0.dir/__/__/__/mesh/access/src/device_state_manager.c.obj
                0x00039acc                dsm_net_secmat_from_keyindex_get
 .text.nrf_mesh_net_secmat_next_get
                0x00039b10       0x9c examples/light_switch/server/CMakeFiles/light_switch_server_nrf52840_xxAA_s140_6.0.0.dir/__/__/__/mesh/access/src/device_state_manager.c.obj
                0x00039b10                nrf_mesh_net_secmat_next_get
 .text.nrf_mesh_app_secmat_next_get
                0x00039bac       0x80 examples/light_switch/server/CMakeFiles/light_switch_server_nrf52840_xxAA_s140_6.0.0.dir/__/__/__/mesh/access/src/device_state_manager.c.obj
                0x00039bac                nrf_mesh_app_secmat_next_get
 .text.nrf_mesh_devkey_secmat_get
                0x00039c2c       0x30 examples/light_switch/server/CMakeFiles/light_switch_server_nrf52840_xxAA_s140_6.0.0.dir/__/__/__/mesh/access/src/device_state_manager.c.obj
                0x00039c2c                nrf_mesh_devkey_secmat_get
 .text.nrf_mesh_beacon_info_next_get
                0x00039c5c       0xb0 examples/light_switch/server/CMakeFiles/light_switch_server_nrf52840_xxAA_s140_6.0.0.dir/__/__/__/mesh/access/src/device_state_manager.c.obj
                0x00039c5c                nrf_mesh_beacon_info_next_get
 .text.nrf_mesh_rx_address_get
                0x00039d0c       0xf4 examples/light_switch/server/CMakeFiles/light_switch_server_nrf52840_xxAA_s140_6.0.0.dir/__/__/__/mesh/access/src/device_state_manager.c.obj
                0x00039d0c                nrf_mesh_rx_address_get
 .text.nrf_mesh_unicast_address_get
                0x00039e00       0x24 examples/light_switch/server/CMakeFiles/light_switch_server_nrf52840_xxAA_s140_6.0.0.dir/__/__/__/mesh/access/src/device_state_manager.c.obj
                0x00039e00                nrf_mesh_unicast_address_get
 .text.prov_provisionee_cb_link_established
                0x00039e24       0x38 examples/light_switch/server/CMakeFiles/light_switch_server_nrf52840_xxAA_s140_6.0.0.dir/__/__/__/mesh/prov/src/prov_provisionee.c.obj
 .text.prov_provisionee_cb_link_closed
                0x00039e5c       0x54 examples/light_switch/server/CMakeFiles/light_switch_server_nrf52840_xxAA_s140_6.0.0.dir/__/__/__/mesh/prov/src/prov_provisionee.c.obj
 .text.request_authentication
                0x00039eb0       0x90 examples/light_switch/server/CMakeFiles/light_switch_server_nrf52840_xxAA_s140_6.0.0.dir/__/__/__/mesh/prov/src/prov_provisionee.c.obj
 .text.prov_provisionee_cb_ack_received
                0x00039f40      0x194 examples/light_switch/server/CMakeFiles/light_switch_server_nrf52840_xxAA_s140_6.0.0.dir/__/__/__/mesh/prov/src/prov_provisionee.c.obj
 .text.prov_provisionee_pkt_in
                0x0003a0d4      0x420 examples/light_switch/server/CMakeFiles/light_switch_server_nrf52840_xxAA_s140_6.0.0.dir/__/__/__/mesh/prov/src/prov_provisionee.c.obj
 .text.prov_provisionee_listen
                0x0003a4f4       0x34 examples/light_switch/server/CMakeFiles/light_switch_server_nrf52840_xxAA_s140_6.0.0.dir/__/__/__/mesh/prov/src/prov_provisionee.c.obj
                0x0003a4f4                prov_provisionee_listen
 .text.prov_provisionee_auth_data
                0x0003a528      0x104 examples/light_switch/server/CMakeFiles/light_switch_server_nrf52840_xxAA_s140_6.0.0.dir/__/__/__/mesh/prov/src/prov_provisionee.c.obj
                0x0003a528                prov_provisionee_auth_data
 .text.bearer_compare_callback
                0x0003a62c       0x10 examples/light_switch/server/CMakeFiles/light_switch_server_nrf52840_xxAA_s140_6.0.0.dir/__/__/__/mesh/prov/src/nrf_mesh_prov.c.obj
 .text.nrf_mesh_prov_init
                0x0003a63c       0x3c examples/light_switch/server/CMakeFiles/light_switch_server_nrf52840_xxAA_s140_6.0.0.dir/__/__/__/mesh/prov/src/nrf_mesh_prov.c.obj
                0x0003a63c                nrf_mesh_prov_init
 .text.nrf_mesh_prov_bearer_add
                0x0003a678       0x2c examples/light_switch/server/CMakeFiles/light_switch_server_nrf52840_xxAA_s140_6.0.0.dir/__/__/__/mesh/prov/src/nrf_mesh_prov.c.obj
                0x0003a678                nrf_mesh_prov_bearer_add
 .text.nrf_mesh_prov_generate_keys
                0x0003a6a4        0x4 examples/light_switch/server/CMakeFiles/light_switch_server_nrf52840_xxAA_s140_6.0.0.dir/__/__/__/mesh/prov/src/nrf_mesh_prov.c.obj
                0x0003a6a4                nrf_mesh_prov_generate_keys
 .text.nrf_mesh_prov_listen
                0x0003a6a8       0xf8 examples/light_switch/server/CMakeFiles/light_switch_server_nrf52840_xxAA_s140_6.0.0.dir/__/__/__/mesh/prov/src/nrf_mesh_prov.c.obj
                0x0003a6a8                nrf_mesh_prov_listen
 .text.nrf_mesh_prov_auth_data_provide
                0x0003a7a0       0x10 examples/light_switch/server/CMakeFiles/light_switch_server_nrf52840_xxAA_s140_6.0.0.dir/__/__/__/mesh/prov/src/nrf_mesh_prov.c.obj
                0x0003a7a0                nrf_mesh_prov_auth_data_provide
 .text.prov_packet_length_valid
                0x0003a7b0       0x20 examples/light_switch/server/CMakeFiles/light_switch_server_nrf52840_xxAA_s140_6.0.0.dir/__/__/__/mesh/prov/src/provisioning.c.obj
                0x0003a7b0                prov_packet_length_valid
 .text.prov_tx_capabilities
                0x0003a7d0       0x38 examples/light_switch/server/CMakeFiles/light_switch_server_nrf52840_xxAA_s140_6.0.0.dir/__/__/__/mesh/prov/src/provisioning.c.obj
                0x0003a7d0                prov_tx_capabilities
 .text.prov_tx_public_key
                0x0003a808       0x30 examples/light_switch/server/CMakeFiles/light_switch_server_nrf52840_xxAA_s140_6.0.0.dir/__/__/__/mesh/prov/src/provisioning.c.obj
                0x0003a808                prov_tx_public_key
 .text.prov_tx_input_complete
                0x0003a838       0x28 examples/light_switch/server/CMakeFiles/light_switch_server_nrf52840_xxAA_s140_6.0.0.dir/__/__/__/mesh/prov/src/provisioning.c.obj
                0x0003a838                prov_tx_input_complete
 .text.prov_tx_confirmation
                0x0003a860       0x30 examples/light_switch/server/CMakeFiles/light_switch_server_nrf52840_xxAA_s140_6.0.0.dir/__/__/__/mesh/prov/src/provisioning.c.obj
                0x0003a860                prov_tx_confirmation
 .text.prov_tx_random
                0x0003a890       0x30 examples/light_switch/server/CMakeFiles/light_switch_server_nrf52840_xxAA_s140_6.0.0.dir/__/__/__/mesh/prov/src/provisioning.c.obj
                0x0003a890                prov_tx_random
 .text.prov_tx_complete
                0x0003a8c0       0x28 examples/light_switch/server/CMakeFiles/light_switch_server_nrf52840_xxAA_s140_6.0.0.dir/__/__/__/mesh/prov/src/provisioning.c.obj
                0x0003a8c0                prov_tx_complete
 .text.prov_tx_failed
                0x0003a8e8       0x2c examples/light_switch/server/CMakeFiles/light_switch_server_nrf52840_xxAA_s140_6.0.0.dir/__/__/__/mesh/prov/src/provisioning.c.obj
                0x0003a8e8                prov_tx_failed
 .text.prov_beacon_unprov_build
                0x0003a914       0x54 examples/light_switch/server/CMakeFiles/light_switch_server_nrf52840_xxAA_s140_6.0.0.dir/__/__/__/mesh/prov/src/prov_beacon.c.obj
                0x0003a914                prov_beacon_unprov_build
 .text.prov_beacon_unprov_packet_in
                0x0003a968       0xd4 examples/light_switch/server/CMakeFiles/light_switch_server_nrf52840_xxAA_s140_6.0.0.dir/__/__/__/mesh/prov/src/prov_beacon.c.obj
                0x0003a968                prov_beacon_unprov_packet_in
 .text.prov_utils_opt_set
                0x0003aa3c       0x24 examples/light_switch/server/CMakeFiles/light_switch_server_nrf52840_xxAA_s140_6.0.0.dir/__/__/__/mesh/prov/src/prov_utils.c.obj
                0x0003aa3c                prov_utils_opt_set
 .text.prov_utils_opt_get
                0x0003aa60       0x1c examples/light_switch/server/CMakeFiles/light_switch_server_nrf52840_xxAA_s140_6.0.0.dir/__/__/__/mesh/prov/src/prov_utils.c.obj
                0x0003aa60                prov_utils_opt_get
 .text.prov_utils_use_ecdh_offloading
                0x0003aa7c        0xc examples/light_switch/server/CMakeFiles/light_switch_server_nrf52840_xxAA_s140_6.0.0.dir/__/__/__/mesh/prov/src/prov_utils.c.obj
                0x0003aa7c                prov_utils_use_ecdh_offloading
 .text.prov_utils_authentication_values_derive
                0x0003aa88       0xa8 examples/light_switch/server/CMakeFiles/light_switch_server_nrf52840_xxAA_s140_6.0.0.dir/__/__/__/mesh/prov/src/prov_utils.c.obj
                0x0003aa88                prov_utils_authentication_values_derive
 .text.prov_utils_keys_generate
                0x0003ab30       0x20 examples/light_switch/server/CMakeFiles/light_switch_server_nrf52840_xxAA_s140_6.0.0.dir/__/__/__/mesh/prov/src/prov_utils.c.obj
                0x0003ab30                prov_utils_keys_generate
 .text.prov_utils_derive_keys
                0x0003ab50       0xb4 examples/light_switch/server/CMakeFiles/light_switch_server_nrf52840_xxAA_s140_6.0.0.dir/__/__/__/mesh/prov/src/prov_utils.c.obj
                0x0003ab50                prov_utils_derive_keys
 .text.prov_utils_calculate_shared_secret
                0x0003ac04       0x38 examples/light_switch/server/CMakeFiles/light_switch_server_nrf52840_xxAA_s140_6.0.0.dir/__/__/__/mesh/prov/src/prov_utils.c.obj
                0x0003ac04                prov_utils_calculate_shared_secret
 .text.prov_utils_generate_oob_data
                0x0003ac3c      0x1b8 examples/light_switch/server/CMakeFiles/light_switch_server_nrf52840_xxAA_s140_6.0.0.dir/__/__/__/mesh/prov/src/prov_utils.c.obj
                0x0003ac3c                prov_utils_generate_oob_data
 .text.prov_utils_confirmation_check
                0x0003adf4       0x5c examples/light_switch/server/CMakeFiles/light_switch_server_nrf52840_xxAA_s140_6.0.0.dir/__/__/__/mesh/prov/src/prov_utils.c.obj
                0x0003adf4                prov_utils_confirmation_check
 .text.link_timeout_cb
                0x0003ae50       0x10 examples/light_switch/server/CMakeFiles/light_switch_server_nrf52840_xxAA_s140_6.0.0.dir/__/__/__/mesh/prov/src/prov_bearer_adv.c.obj
 .text.prov_bearer_adv_listen_stop
                0x0003ae60       0x8c examples/light_switch/server/CMakeFiles/light_switch_server_nrf52840_xxAA_s140_6.0.0.dir/__/__/__/mesh/prov/src/prov_bearer_adv.c.obj
 .text.tx_complete_cb
                0x0003aeec       0x20 examples/light_switch/server/CMakeFiles/light_switch_server_nrf52840_xxAA_s140_6.0.0.dir/__/__/__/mesh/prov/src/prov_bearer_adv.c.obj
 .text.prov_bearer_adv_listen
                0x0003af0c      0x160 examples/light_switch/server/CMakeFiles/light_switch_server_nrf52840_xxAA_s140_6.0.0.dir/__/__/__/mesh/prov/src/prov_bearer_adv.c.obj
 .text.prov_buffer_tx
                0x0003b06c      0x1d8 examples/light_switch/server/CMakeFiles/light_switch_server_nrf52840_xxAA_s140_6.0.0.dir/__/__/__/mesh/prov/src/prov_bearer_adv.c.obj
 .text.close_link
                0x0003b244       0xc0 examples/light_switch/server/CMakeFiles/light_switch_server_nrf52840_xxAA_s140_6.0.0.dir/__/__/__/mesh/prov/src/prov_bearer_adv.c.obj
 .text.async_process
                0x0003b304       0x60 examples/light_switch/server/CMakeFiles/light_switch_server_nrf52840_xxAA_s140_6.0.0.dir/__/__/__/mesh/prov/src/prov_bearer_adv.c.obj
 .text.prov_bearer_adv_tx
                0x0003b364       0xe4 examples/light_switch/server/CMakeFiles/light_switch_server_nrf52840_xxAA_s140_6.0.0.dir/__/__/__/mesh/prov/src/prov_bearer_adv.c.obj
 .text.send_link_ack
                0x0003b448       0x80 examples/light_switch/server/CMakeFiles/light_switch_server_nrf52840_xxAA_s140_6.0.0.dir/__/__/__/mesh/prov/src/prov_bearer_adv.c.obj
 .text.tx_retry_cb
                0x0003b4c8      0x13c examples/light_switch/server/CMakeFiles/light_switch_server_nrf52840_xxAA_s140_6.0.0.dir/__/__/__/mesh/prov/src/prov_bearer_adv.c.obj
 .text.send_transaction_ack
                0x0003b604       0x68 examples/light_switch/server/CMakeFiles/light_switch_server_nrf52840_xxAA_s140_6.0.0.dir/__/__/__/mesh/prov/src/prov_bearer_adv.c.obj
 .text.prov_buffer_rx
                0x0003b66c       0x9c examples/light_switch/server/CMakeFiles/light_switch_server_nrf52840_xxAA_s140_6.0.0.dir/__/__/__/mesh/prov/src/prov_bearer_adv.c.obj
 .text.prov_bearer_adv_link_open
                0x0003b708      0x1c0 examples/light_switch/server/CMakeFiles/light_switch_server_nrf52840_xxAA_s140_6.0.0.dir/__/__/__/mesh/prov/src/prov_bearer_adv.c.obj
 .text.prov_bearer_adv_link_close
                0x0003b8c8       0xd8 examples/light_switch/server/CMakeFiles/light_switch_server_nrf52840_xxAA_s140_6.0.0.dir/__/__/__/mesh/prov/src/prov_bearer_adv.c.obj
 .text.nrf_mesh_prov_bearer_adv_interface_get
                0x0003b9a0       0x40 examples/light_switch/server/CMakeFiles/light_switch_server_nrf52840_xxAA_s140_6.0.0.dir/__/__/__/mesh/prov/src/prov_bearer_adv.c.obj
                0x0003b9a0                nrf_mesh_prov_bearer_adv_interface_get
 .text.prov_bearer_adv_packet_in
                0x0003b9e0      0x950 examples/light_switch/server/CMakeFiles/light_switch_server_nrf52840_xxAA_s140_6.0.0.dir/__/__/__/mesh/prov/src/prov_bearer_adv.c.obj
                0x0003b9e0                prov_bearer_adv_packet_in
 .text.SystemInit
                0x0003c330      0x1c4 examples/light_switch/server/CMakeFiles/light_switch_server_nrf52840_xxAA_s140_6.0.0.dir/C_/ver/mod/nRF5_SDK_15.0.0_a53641a/modules/nrfx/mdk/system_nrf52840.c.obj
                0x0003c330                SystemInit
 .text          0x0003c4f4       0x3c examples/light_switch/server/CMakeFiles/light_switch_server_nrf52840_xxAA_s140_6.0.0.dir/C_/ver/mod/nRF5_SDK_15.0.0_a53641a/modules/nrfx/mdk/gcc_startup_nrf52840.S.obj
                0x0003c4f4                Reset_Handler
                0x0003c51c                NMI_Handler
                0x0003c51e                HardFault_Handler
                0x0003c520                MemoryManagement_Handler
                0x0003c522                BusFault_Handler
                0x0003c524                UsageFault_Handler
                0x0003c526                SVC_Handler
                0x0003c528                DebugMon_Handler
                0x0003c52a                PendSV_Handler
                0x0003c52c                SysTick_Handler
                0x0003c52e                PDM_IRQHandler
                0x0003c52e                TEMP_IRQHandler
                0x0003c52e                TIMER3_IRQHandler
                0x0003c52e                PWM3_IRQHandler
                0x0003c52e                FPU_IRQHandler
                0x0003c52e                USBD_IRQHandler
                0x0003c52e                SPIM0_SPIS0_TWIM0_TWIS0_SPI0_TWI0_IRQHandler
                0x0003c52e                RADIO_IRQHandler
                0x0003c52e                UARTE0_UART0_IRQHandler
                0x0003c52e                TIMER4_IRQHandler
                0x0003c52e                CRYPTOCELL_IRQHandler
                0x0003c52e                I2S_IRQHandler
                0x0003c52e                SWI4_EGU4_IRQHandler
                0x0003c52e                TIMER0_IRQHandler
                0x0003c52e                RTC0_IRQHandler
                0x0003c52e                UARTE1_IRQHandler
                0x0003c52e                POWER_CLOCK_IRQHandler
                0x0003c52e                SPIM3_IRQHandler
                0x0003c52e                PWM2_IRQHandler
                0x0003c52e                ECB_IRQHandler
                0x0003c52e                SPIM1_SPIS1_TWIM1_TWIS1_SPI1_TWI1_IRQHandler
                0x0003c52e                Default_Handler
                0x0003c52e                SAADC_IRQHandler
                0x0003c52e                CCM_AAR_IRQHandler
                0x0003c52e                WDT_IRQHandler
                0x0003c52e                SWI0_EGU0_IRQHandler
                0x0003c52e                SWI5_EGU5_IRQHandler
                0x0003c52e                RNG_IRQHandler
                0x0003c52e                RTC2_IRQHandler
                0x0003c52e                PWM0_IRQHandler
                0x0003c52e                SWI3_EGU3_IRQHandler
                0x0003c52e                RTC1_IRQHandler
                0x0003c52e                SWI1_EGU1_IRQHandler
                0x0003c52e                SPIM2_SPIS2_SPI2_IRQHandler
                0x0003c52e                NFCT_IRQHandler
                0x0003c52e                PWM1_IRQHandler
                0x0003c52e                MWU_IRQHandler
                0x0003c52e                TIMER1_IRQHandler
                0x0003c52e                QSPI_IRQHandler
                0x0003c52e                COMP_LPCOMP_IRQHandler
 .text.app_error_handler_bare
                0x0003c530       0x20 examples/light_switch/server/CMakeFiles/light_switch_server_nrf52840_xxAA_s140_6.0.0.dir/C_/ver/mod/nRF5_SDK_15.0.0_a53641a/components/libraries/util/app_error.c.obj
                0x0003c530                app_error_handler_bare
 .text.app_error_handler
                0x0003c550       0x1c examples/light_switch/server/CMakeFiles/light_switch_server_nrf52840_xxAA_s140_6.0.0.dir/C_/ver/mod/nRF5_SDK_15.0.0_a53641a/components/libraries/util/app_error_handler_gcc.c.obj
                0x0003c550                app_error_handler
 .text.SEGGER_RTT_Write
                0x0003c56c      0x1e4 external/rtt/librtt_nrf52840_xxAA.a(SEGGER_RTT.c.obj)
                0x0003c56c                SEGGER_RTT_Write
 .text.SEGGER_RTT_GetKey
                0x0003c750       0xec external/rtt/librtt_nrf52840_xxAA.a(SEGGER_RTT.c.obj)
                0x0003c750                SEGGER_RTT_GetKey
 .text._PrintUnsigned
                0x0003c83c      0x194 external/rtt/librtt_nrf52840_xxAA.a(SEGGER_RTT_printf.c.obj)
 .text.SEGGER_RTT_vprintf
                0x0003c9d0      0x464 external/rtt/librtt_nrf52840_xxAA.a(SEGGER_RTT_printf.c.obj)
                0x0003c9d0                SEGGER_RTT_vprintf
 .text.SEGGER_RTT_printf
                0x0003ce34       0x20 external/rtt/librtt_nrf52840_xxAA.a(SEGGER_RTT_printf.c.obj)
                0x0003ce34                SEGGER_RTT_printf
 .text.default_RNG
                0x0003ce54        0xc external/micro-ecc/libuECC_nrf52840_xxAA.a(uECC.c.obj)
 .text.uECC_generate_random_int
                0x0003ce60      0x170 external/micro-ecc/libuECC_nrf52840_xxAA.a(uECC.c.obj)
 .text.apply_z  0x0003cfd0      0x1a8 external/micro-ecc/libuECC_nrf52840_xxAA.a(uECC.c.obj)
 .text.uECC_vli_modAdd
                0x0003d178       0xc8 external/micro-ecc/libuECC_nrf52840_xxAA.a(uECC.c.obj)
 .text.x_side_default
                0x0003d240      0x254 external/micro-ecc/libuECC_nrf52840_xxAA.a(uECC.c.obj)
 .text.vli_mmod_fast_secp256r1
                0x0003d494      0x520 external/micro-ecc/libuECC_nrf52840_xxAA.a(uECC.c.obj)
 .text.XYcZ_add
                0x0003d9b4      0x6dc external/micro-ecc/libuECC_nrf52840_xxAA.a(uECC.c.obj)
 .text.XYcZ_addC
                0x0003e090      0xa94 external/micro-ecc/libuECC_nrf52840_xxAA.a(uECC.c.obj)
 .text.uECC_vli_modInv.part.4
                0x0003eb24      0x6e8 external/micro-ecc/libuECC_nrf52840_xxAA.a(uECC.c.obj)
 .text.EccPoint_mult.constprop.5
                0x0003f20c      0x470 external/micro-ecc/libuECC_nrf52840_xxAA.a(uECC.c.obj)
 .text.double_jacobian_default
                0x0003f67c      0x7ec external/micro-ecc/libuECC_nrf52840_xxAA.a(uECC.c.obj)
 .text.uECC_secp256r1
                0x0003fe68        0x8 external/micro-ecc/libuECC_nrf52840_xxAA.a(uECC.c.obj)
                0x0003fe68                uECC_secp256r1
 .text.uECC_make_key
                0x0003fe70      0x23c external/micro-ecc/libuECC_nrf52840_xxAA.a(uECC.c.obj)
                0x0003fe70                uECC_make_key
 .text.uECC_shared_secret
                0x000400ac      0x788 external/micro-ecc/libuECC_nrf52840_xxAA.a(uECC.c.obj)
                0x000400ac                uECC_shared_secret
 .text.uECC_valid_point
                0x00040834      0x134 external/micro-ecc/libuECC_nrf52840_xxAA.a(uECC.c.obj)
                0x00040834                uECC_valid_point
 .text.uECC_valid_public_key
                0x00040968       0xe8 external/micro-ecc/libuECC_nrf52840_xxAA.a(uECC.c.obj)
                0x00040968                uECC_valid_public_key
 .text          0x00040a50       0x30 c:/mesh/arm_gcc/bin/../lib/gcc/arm-none-eabi/6.3.1/thumb/v7e-m/fpv4-sp/hard\libgcc.a(_aeabi_uldivmod.o)
                0x00040a50                __aeabi_uldivmod
 .text          0x00040a80      0x2dc c:/mesh/arm_gcc/bin/../lib/gcc/arm-none-eabi/6.3.1/thumb/v7e-m/fpv4-sp/hard\libgcc.a(_udivmoddi4.o)
                0x00040a80                __udivmoddi4
 .text          0x00040d5c        0x4 c:/mesh/arm_gcc/bin/../lib/gcc/arm-none-eabi/6.3.1/thumb/v7e-m/fpv4-sp/hard\libgcc.a(_dvmd_tls.o)
                0x00040d5c                __aeabi_idiv0
                0x00040d5c                __aeabi_ldiv0
 .text.exit     0x00040d60       0x28 c:/mesh/arm_gcc/bin/../lib/gcc/arm-none-eabi/6.3.1/../../../../arm-none-eabi/lib/thumb/v7e-m/fpv4-sp/hard\libc_nano.a(lib_a-exit.o)
                0x00040d60                exit
 .text.__libc_init_array
                0x00040d88       0x48 c:/mesh/arm_gcc/bin/../lib/gcc/arm-none-eabi/6.3.1/../../../../arm-none-eabi/lib/thumb/v7e-m/fpv4-sp/hard\libc_nano.a(lib_a-init.o)
                0x00040d88                __libc_init_array
 .text.malloc   0x00040dd0       0x10 c:/mesh/arm_gcc/bin/../lib/gcc/arm-none-eabi/6.3.1/../../../../arm-none-eabi/lib/thumb/v7e-m/fpv4-sp/hard\libc_nano.a(lib_a-malloc.o)
                0x00040dd0                malloc
 .text.free     0x00040de0       0x10 c:/mesh/arm_gcc/bin/../lib/gcc/arm-none-eabi/6.3.1/../../../../arm-none-eabi/lib/thumb/v7e-m/fpv4-sp/hard\libc_nano.a(lib_a-malloc.o)
                0x00040de0                free
 .text.memcmp   0x00040df0       0x1e c:/mesh/arm_gcc/bin/../lib/gcc/arm-none-eabi/6.3.1/../../../../arm-none-eabi/lib/thumb/v7e-m/fpv4-sp/hard\libc_nano.a(lib_a-memcmp.o)
                0x00040df0                memcmp
 .text.memcpy   0x00040e0e       0x16 c:/mesh/arm_gcc/bin/../lib/gcc/arm-none-eabi/6.3.1/../../../../arm-none-eabi/lib/thumb/v7e-m/fpv4-sp/hard\libc_nano.a(lib_a-memcpy-stub.o)
                0x00040e0e                memcpy
 .text.memset   0x00040e24       0x10 c:/mesh/arm_gcc/bin/../lib/gcc/arm-none-eabi/6.3.1/../../../../arm-none-eabi/lib/thumb/v7e-m/fpv4-sp/hard\libc_nano.a(lib_a-memset.o)
                0x00040e24                memset
 .text._free_r  0x00040e34       0x9c c:/mesh/arm_gcc/bin/../lib/gcc/arm-none-eabi/6.3.1/../../../../arm-none-eabi/lib/thumb/v7e-m/fpv4-sp/hard\libc_nano.a(lib_a-nano-freer.o)
                0x00040e34                _free_r
 .text._malloc_r
                0x00040ed0       0xbc c:/mesh/arm_gcc/bin/../lib/gcc/arm-none-eabi/6.3.1/../../../../arm-none-eabi/lib/thumb/v7e-m/fpv4-sp/hard\libc_nano.a(lib_a-nano-mallocr.o)
                0x00040ed0                _malloc_r
 .text._sbrk_r  0x00040f8c       0x20 c:/mesh/arm_gcc/bin/../lib/gcc/arm-none-eabi/6.3.1/../../../../arm-none-eabi/lib/thumb/v7e-m/fpv4-sp/hard\libc_nano.a(lib_a-sbrkr.o)
                0x00040f8c                _sbrk_r
 .text.strcpy   0x00040fac       0x10 c:/mesh/arm_gcc/bin/../lib/gcc/arm-none-eabi/6.3.1/../../../../arm-none-eabi/lib/thumb/v7e-m/fpv4-sp/hard\libc_nano.a(lib_a-strcpy.o)
                0x00040fac                strcpy
 .text          0x00040fbc       0x10 c:/mesh/arm_gcc/bin/../lib/gcc/arm-none-eabi/6.3.1/../../../../arm-none-eabi/lib/thumb/v7e-m/fpv4-sp/hard\libc_nano.a(lib_a-strlen.o)
                0x00040fbc                strlen
 .text.strrchr  0x00040fcc       0x26 c:/mesh/arm_gcc/bin/../lib/gcc/arm-none-eabi/6.3.1/../../../../arm-none-eabi/lib/thumb/v7e-m/fpv4-sp/hard\libc_nano.a(lib_a-strrchr.o)
                0x00040fcc                strrchr
 .text.__malloc_lock
                0x00040ff2        0x2 c:/mesh/arm_gcc/bin/../lib/gcc/arm-none-eabi/6.3.1/../../../../arm-none-eabi/lib/thumb/v7e-m/fpv4-sp/hard\libc_nano.a(lib_a-mlock.o)
                0x00040ff2                __malloc_lock
 .text.__malloc_unlock
                0x00040ff4        0x2 c:/mesh/arm_gcc/bin/../lib/gcc/arm-none-eabi/6.3.1/../../../../arm-none-eabi/lib/thumb/v7e-m/fpv4-sp/hard\libc_nano.a(lib_a-mlock.o)
                0x00040ff4                __malloc_unlock
 .text.strchr   0x00040ff6       0x1c c:/mesh/arm_gcc/bin/../lib/gcc/arm-none-eabi/6.3.1/../../../../arm-none-eabi/lib/thumb/v7e-m/fpv4-sp/hard\libc_nano.a(lib_a-strchr.o)
                0x00040ff6                strchr
 *fill*         0x00041012        0x2 
 .text._sbrk    0x00041014       0x1c c:/mesh/arm_gcc/bin/../lib/gcc/arm-none-eabi/6.3.1/../../../../arm-none-eabi/lib/thumb/v7e-m/fpv4-sp/hard\libnosys.a(sbrk.o)
                0x00041014                _sbrk
 .text._exit    0x00041030        0x4 c:/mesh/arm_gcc/bin/../lib/gcc/arm-none-eabi/6.3.1/../../../../arm-none-eabi/lib/thumb/v7e-m/fpv4-sp/hard\libnosys.a(_exit.o)
                0x00041030                _exit
 *(.init)
 .init          0x00041034        0x4 c:/mesh/arm_gcc/bin/../lib/gcc/arm-none-eabi/6.3.1/thumb/v7e-m/fpv4-sp/hard/crti.o
                0x00041034                _init
 .init          0x00041038        0x8 c:/mesh/arm_gcc/bin/../lib/gcc/arm-none-eabi/6.3.1/thumb/v7e-m/fpv4-sp/hard/crtn.o
 *(.fini)
 .fini          0x00041040        0x4 c:/mesh/arm_gcc/bin/../lib/gcc/arm-none-eabi/6.3.1/thumb/v7e-m/fpv4-sp/hard/crti.o
                0x00041040                _fini
 .fini          0x00041044        0x8 c:/mesh/arm_gcc/bin/../lib/gcc/arm-none-eabi/6.3.1/thumb/v7e-m/fpv4-sp/hard/crtn.o
 *crtbegin.o(.ctors)
 *crtbegin?.o(.ctors)
 *(EXCLUDE_FILE(*crtend.o *crtend?.o) .ctors)
 *(SORT(.ctors.*))
 *(.ctors)
 *crtbegin.o(.dtors)
 *crtbegin?.o(.dtors)
 *(EXCLUDE_FILE(*crtend.o *crtend?.o) .dtors)
 *(SORT(.dtors.*))
 *(.dtors)
 *(.rodata*)
 .rodata.button_event_handler.str1.4
                0x0004104c       0x22 examples/light_switch/server/CMakeFiles/light_switch_server_nrf52840_xxAA_s140_6.0.0.dir/src/main.c.obj
 *fill*         0x0004106e        0x2 
 .rodata.main.str1.4
                0x00041070       0x48 examples/light_switch/server/CMakeFiles/light_switch_server_nrf52840_xxAA_s140_6.0.0.dir/src/main.c.obj
 .rodata.models_init_cb.str1.4
                0x000410b8       0x20 examples/light_switch/server/CMakeFiles/light_switch_server_nrf52840_xxAA_s140_6.0.0.dir/src/main.c.obj
 .rodata.node_reset.str1.4
                0x000410d8       0x19 examples/light_switch/server/CMakeFiles/light_switch_server_nrf52840_xxAA_s140_6.0.0.dir/src/main.c.obj
 *fill*         0x000410f1        0x3 
 .rodata.on_off_server_set_cb.str1.4
                0x000410f4       0x17 examples/light_switch/server/CMakeFiles/light_switch_server_nrf52840_xxAA_s140_6.0.0.dir/src/main.c.obj
 *fill*         0x0004110b        0x1 
 .rodata.provisioning_complete_cb.str1.4
                0x0004110c       0x5f examples/light_switch/server/CMakeFiles/light_switch_server_nrf52840_xxAA_s140_6.0.0.dir/src/main.c.obj
 *fill*         0x0004116b        0x1 
 .rodata.static_auth_data.12531
                0x0004116c       0x10 examples/light_switch/server/CMakeFiles/light_switch_server_nrf52840_xxAA_s140_6.0.0.dir/src/main.c.obj
 .rodata.mesh_softdevice_init.str1.4
                0x0004117c       0xa9 examples/light_switch/server/CMakeFiles/light_switch_server_nrf52840_xxAA_s140_6.0.0.dir/__/__/common/src/mesh_softdevice_init.c.obj
 *fill*         0x00041225        0x3 
 .rodata        0x00041228        0xb examples/light_switch/server/CMakeFiles/light_switch_server_nrf52840_xxAA_s140_6.0.0.dir/__/__/common/src/mesh_provisionee.c.obj
 *fill*         0x00041233        0xd 
 .rodata.delay_bytecode.8707
                0x00041240        0x6 examples/light_switch/server/CMakeFiles/light_switch_server_nrf52840_xxAA_s140_6.0.0.dir/__/__/common/src/simple_hal.c.obj
 *fill*         0x00041246        0x2 
 .rodata.app_error_fault_handler.str1.4
                0x00041248       0xc5 examples/light_switch/server/CMakeFiles/light_switch_server_nrf52840_xxAA_s140_6.0.0.dir/__/__/common/src/app_error_weak.c.obj
 .rodata.mesh_assertion_handler.str1.4
                0x0004130d       0xc5 examples/light_switch/server/CMakeFiles/light_switch_server_nrf52840_xxAA_s140_6.0.0.dir/__/__/common/src/assertion_handler_weak.c.obj
                                  0x1 (size before relaxing)
 *fill*         0x0004130d        0x3 
 .rodata.sar_ctx_cancel.str1.4
                0x00041310       0x23 examples/light_switch/server/CMakeFiles/light_switch_server_nrf52840_xxAA_s140_6.0.0.dir/__/__/__/mesh/core/src/transport.c.obj
 *fill*         0x00041333        0x1 
 .rodata.transport_packet_in.str1.4
                0x00041334       0x24 examples/light_switch/server/CMakeFiles/light_switch_server_nrf52840_xxAA_s140_6.0.0.dir/__/__/__/mesh/core/src/transport.c.obj
 .rodata.upper_transport_access_packet_in.str1.4
                0x00041358       0x3d examples/light_switch/server/CMakeFiles/light_switch_server_nrf52840_xxAA_s140_6.0.0.dir/__/__/__/mesh/core/src/transport.c.obj
 *fill*         0x00041395        0x3 
 .rodata.upper_transport_packet_in.str1.4
                0x00041398       0x2e examples/light_switch/server/CMakeFiles/light_switch_server_nrf52840_xxAA_s140_6.0.0.dir/__/__/__/mesh/core/src/transport.c.obj
 *fill*         0x000413c6        0x2 
 .rodata.upper_transport_tx.part.25.str1.4
                0x000413c8       0x2e examples/light_switch/server/CMakeFiles/light_switch_server_nrf52840_xxAA_s140_6.0.0.dir/__/__/__/mesh/core/src/transport.c.obj
                                 0x38 (size before relaxing)
 *fill*         0x000413f6        0x2 
 .rodata.m_procedure_steps
                0x000413f8       0x28 examples/light_switch/server/CMakeFiles/light_switch_server_nrf52840_xxAA_s140_6.0.0.dir/__/__/__/mesh/core/src/flash_manager_defrag.c.obj
 .rodata.m_all_operations
                0x00041420       0x10 examples/light_switch/server/CMakeFiles/light_switch_server_nrf52840_xxAA_s140_6.0.0.dir/__/__/__/mesh/core/src/mesh_flash.c.obj
 .rodata.types_lookup.9352
                0x00041430        0x4 examples/light_switch/server/CMakeFiles/light_switch_server_nrf52840_xxAA_s140_6.0.0.dir/__/__/__/mesh/core/src/nrf_mesh_utils.c.obj
 .rodata.__func__.11824
                0x00041434       0x15 examples/light_switch/server/CMakeFiles/light_switch_server_nrf52840_xxAA_s140_6.0.0.dir/__/__/__/mesh/core/src/nrf_mesh.c.obj
 *fill*         0x00041449        0x3 
 .rodata.nrf_mesh_listen.str1.4
                0x0004144c       0x73 examples/light_switch/server/CMakeFiles/light_switch_server_nrf52840_xxAA_s140_6.0.0.dir/__/__/__/mesh/core/src/nrf_mesh.c.obj
 .rodata.nrf_mesh_packet_send.str1.4
                0x000414bf       0x73 examples/light_switch/server/CMakeFiles/light_switch_server_nrf52840_xxAA_s140_6.0.0.dir/__/__/__/mesh/core/src/nrf_mesh.c.obj
                                  0x4 (size before relaxing)
 *fill*         0x000414bf        0x1 
 .rodata.CSWTCH.7
                0x000414c0       0x20 examples/light_switch/server/CMakeFiles/light_switch_server_nrf52840_xxAA_s140_6.0.0.dir/__/__/__/mesh/core/src/hal.c.obj
 .rodata        0x000414e0       0x18 examples/light_switch/server/CMakeFiles/light_switch_server_nrf52840_xxAA_s140_6.0.0.dir/__/__/__/mesh/core/src/enc.c.obj
 .rodata.network_packet_in.str1.4
                0x000414f8       0x49 examples/light_switch/server/CMakeFiles/light_switch_server_nrf52840_xxAA_s140_6.0.0.dir/__/__/__/mesh/core/src/network.c.obj
 *fill*         0x00041541        0x3 
 .rodata.net_packet_decrypt.str1.4
                0x00041544       0x33 examples/light_switch/server/CMakeFiles/light_switch_server_nrf52840_xxAA_s140_6.0.0.dir/__/__/__/mesh/core/src/net_packet.c.obj
                                 0x3c (size before relaxing)
 *fill*         0x00041577        0x1 
 .rodata        0x00041578        0x7 examples/light_switch/server/CMakeFiles/light_switch_server_nrf52840_xxAA_s140_6.0.0.dir/__/__/__/mesh/core/src/nrf_mesh_keygen.c.obj
 *fill*         0x0004157f        0x1 
 .rodata.log_callback_rtt.str1.4
                0x00041580       0x15 examples/light_switch/server/CMakeFiles/light_switch_server_nrf52840_xxAA_s140_6.0.0.dir/__/__/__/mesh/core/src/log.c.obj
 *fill*         0x00041595        0x3 
 .rodata.str1.4
                0x00041598       0x11 examples/light_switch/server/CMakeFiles/light_switch_server_nrf52840_xxAA_s140_6.0.0.dir/__/__/__/mesh/core/src/log.c.obj
 *fill*         0x000415a9        0x3 
 .rodata.INVALID_HEADER
                0x000415ac        0x4 examples/light_switch/server/CMakeFiles/light_switch_server_nrf52840_xxAA_s140_6.0.0.dir/__/__/__/mesh/core/src/flash_manager.c.obj
                0x000415ac                INVALID_HEADER
 .rodata.PADDING_HEADER
                0x000415b0        0x4 examples/light_switch/server/CMakeFiles/light_switch_server_nrf52840_xxAA_s140_6.0.0.dir/__/__/__/mesh/core/src/flash_manager.c.obj
                0x000415b0                PADDING_HEADER
 .rodata.SEAL_HEADER
                0x000415b4        0x4 examples/light_switch/server/CMakeFiles/light_switch_server_nrf52840_xxAA_s140_6.0.0.dir/__/__/__/mesh/core/src/flash_manager.c.obj
                0x000415b4                SEAL_HEADER
 .rodata.beacon_packet_in.str1.4
                0x000415b8       0x55 examples/light_switch/server/CMakeFiles/light_switch_server_nrf52840_xxAA_s140_6.0.0.dir/__/__/__/mesh/core/src/beacon.c.obj
                                 0x60 (size before relaxing)
 *fill*         0x0004160d        0x3 
 .rodata.cp_handler
                0x00041610        0x8 examples/light_switch/server/CMakeFiles/light_switch_server_nrf52840_xxAA_s140_6.0.0.dir/__/__/__/mesh/core/src/heartbeat.c.obj
 .rodata.beacon_tx.str1.4
                0x00041618       0x37 examples/light_switch/server/CMakeFiles/light_switch_server_nrf52840_xxAA_s140_6.0.0.dir/__/__/__/mesh/core/src/net_beacon.c.obj
 *fill*         0x0004164f        0x1 
 .rodata.net_beacon_init.str1.4
                0x00041650        0x5 examples/light_switch/server/CMakeFiles/light_switch_server_nrf52840_xxAA_s140_6.0.0.dir/__/__/__/mesh/core/src/net_beacon.c.obj
 *fill*         0x00041655        0x3 
 .rodata.m_interface
                0x00041658        0xc examples/light_switch/server/CMakeFiles/light_switch_server_nrf52840_xxAA_s140_6.0.0.dir/__/__/__/mesh/core/src/core_tx_adv.c.obj
 .rodata.radio_mode_to_us_per_byte.9745
                0x00041664        0x6 examples/light_switch/server/CMakeFiles/light_switch_server_nrf52840_xxAA_s140_6.0.0.dir/__/__/__/mesh/bearer/src/broadcast.c.obj
 *fill*         0x0004166a        0x2 
 .rodata.channel_rf_offsets.8986
                0x0004166c       0x28 examples/light_switch/server/CMakeFiles/light_switch_server_nrf52840_xxAA_s140_6.0.0.dir/__/__/__/mesh/bearer/src/radio_config.c.obj
 .rodata.m_opcode_handlers
                0x00041694       0x18 examples/light_switch/server/CMakeFiles/light_switch_server_nrf52840_xxAA_s140_6.0.0.dir/__/__/__/models/simple_on_off/src/simple_on_off_server.c.obj
 .rodata        0x000416ac        0x8 examples/light_switch/server/CMakeFiles/light_switch_server_nrf52840_xxAA_s140_6.0.0.dir/__/__/__/models/config/src/config_server.c.obj
 .rodata.CSWTCH.122
                0x000416b4       0x10 examples/light_switch/server/CMakeFiles/light_switch_server_nrf52840_xxAA_s140_6.0.0.dir/__/__/__/models/config/src/config_server.c.obj
 .rodata.opcode_handlers
                0x000416c4      0x170 examples/light_switch/server/CMakeFiles/light_switch_server_nrf52840_xxAA_s140_6.0.0.dir/__/__/__/models/config/src/config_server.c.obj
 .rodata.m_opcode_handlers
                0x00041834       0x58 examples/light_switch/server/CMakeFiles/light_switch_server_nrf52840_xxAA_s140_6.0.0.dir/__/__/__/models/health/src/health_server.c.obj
 .rodata.multiply_de_bruijn_bit_position.9597
                0x0004188c       0x20 examples/light_switch/server/CMakeFiles/light_switch_server_nrf52840_xxAA_s140_6.0.0.dir/__/__/__/models/health/src/health_server.c.obj
 .rodata.access_model_publish.str1.4
                0x000418ac       0x1c examples/light_switch/server/CMakeFiles/light_switch_server_nrf52840_xxAA_s140_6.0.0.dir/__/__/__/mesh/access/src/access.c.obj
                                 0x24 (size before relaxing)
 .rodata.mesh_evt_cb.str1.4
                0x000418c8       0x2f examples/light_switch/server/CMakeFiles/light_switch_server_nrf52840_xxAA_s140_6.0.0.dir/__/__/__/mesh/access/src/access.c.obj
 *fill*         0x000418f7        0x1 
 .rodata.multiply_de_bruijn_bit_position.9553
                0x000418f8       0x20 examples/light_switch/server/CMakeFiles/light_switch_server_nrf52840_xxAA_s140_6.0.0.dir/__/__/__/mesh/access/src/access.c.obj
 .rodata.m_flash_groups
                0x00041918       0xa8 examples/light_switch/server/CMakeFiles/light_switch_server_nrf52840_xxAA_s140_6.0.0.dir/__/__/__/mesh/access/src/device_state_manager.c.obj
 .rodata.multiply_de_bruijn_bit_position.9659
                0x000419c0       0x20 examples/light_switch/server/CMakeFiles/light_switch_server_nrf52840_xxAA_s140_6.0.0.dir/__/__/__/mesh/access/src/device_state_manager.c.obj
 .rodata.m_prov_callbacks
                0x000419e0       0x10 examples/light_switch/server/CMakeFiles/light_switch_server_nrf52840_xxAA_s140_6.0.0.dir/__/__/__/mesh/prov/src/prov_provisionee.c.obj
 .rodata.prov_provisionee_cb_ack_received.str1.4
                0x000419f0       0x53 examples/light_switch/server/CMakeFiles/light_switch_server_nrf52840_xxAA_s140_6.0.0.dir/__/__/__/mesh/prov/src/prov_provisionee.c.obj
 *fill*         0x00041a43        0x1 
 .rodata.multiply_de_bruijn_bit_position.9606
                0x00041a44       0x20 examples/light_switch/server/CMakeFiles/light_switch_server_nrf52840_xxAA_s140_6.0.0.dir/__/__/__/mesh/prov/src/nrf_mesh_prov.c.obj
 .rodata.pdu_sizes.11531
                0x00041a64        0xa examples/light_switch/server/CMakeFiles/light_switch_server_nrf52840_xxAA_s140_6.0.0.dir/__/__/__/mesh/prov/src/provisioning.c.obj
 *fill*         0x00041a6e        0x2 
 .rodata.alphanumeric.11636
                0x00041a70       0x25 examples/light_switch/server/CMakeFiles/light_switch_server_nrf52840_xxAA_s140_6.0.0.dir/__/__/__/mesh/prov/src/prov_utils.c.obj
 *fill*         0x00041a95        0x3 
 .rodata.numeric_max.11630
                0x00041a98       0x24 examples/light_switch/server/CMakeFiles/light_switch_server_nrf52840_xxAA_s140_6.0.0.dir/__/__/__/mesh/prov/src/prov_utils.c.obj
 .rodata.prov_utils_authentication_values_derive.str1.4
                0x00041abc        0x5 examples/light_switch/server/CMakeFiles/light_switch_server_nrf52840_xxAA_s140_6.0.0.dir/__/__/__/mesh/prov/src/prov_utils.c.obj
 *fill*         0x00041ac1        0x3 
 .rodata.prov_utils_derive_keys.str1.4
                0x00041ac4       0x15 examples/light_switch/server/CMakeFiles/light_switch_server_nrf52840_xxAA_s140_6.0.0.dir/__/__/__/mesh/prov/src/prov_utils.c.obj
 *fill*         0x00041ad9        0x3 
 .rodata.crctable.11265
                0x00041adc      0x100 examples/light_switch/server/CMakeFiles/light_switch_server_nrf52840_xxAA_s140_6.0.0.dir/__/__/__/mesh/prov/src/prov_bearer_adv.c.obj
 .rodata.interface.11495
                0x00041bdc       0x14 examples/light_switch/server/CMakeFiles/light_switch_server_nrf52840_xxAA_s140_6.0.0.dir/__/__/__/mesh/prov/src/prov_bearer_adv.c.obj
 .rodata.prov_bearer_adv_listen.str1.4
                0x00041bf0       0x50 examples/light_switch/server/CMakeFiles/light_switch_server_nrf52840_xxAA_s140_6.0.0.dir/__/__/__/mesh/prov/src/prov_bearer_adv.c.obj
 .rodata.prov_bearer_adv_packet_in.str1.4
                0x00041c40      0x283 examples/light_switch/server/CMakeFiles/light_switch_server_nrf52840_xxAA_s140_6.0.0.dir/__/__/__/mesh/prov/src/prov_bearer_adv.c.obj
 *fill*         0x00041ec3        0x1 
 .rodata.tx_retry_cb.str1.4
                0x00041ec4       0x14 examples/light_switch/server/CMakeFiles/light_switch_server_nrf52840_xxAA_s140_6.0.0.dir/__/__/__/mesh/prov/src/prov_bearer_adv.c.obj
 .rodata.SEGGER_RTT_ReadNoLock.str1.4
                0x00041ed8       0x18 external/rtt/librtt_nrf52840_xxAA.a(SEGGER_RTT.c.obj)
                                 0x17 (size before relaxing)
 .rodata._aV2C.5497
                0x00041ef0       0x10 external/rtt/librtt_nrf52840_xxAA.a(SEGGER_RTT_printf.c.obj)
 .rodata.curve_secp256r1
                0x00041f00       0xb0 external/micro-ecc/libuECC_nrf52840_xxAA.a(uECC.c.obj)
 .rodata._global_impure_ptr
                0x00041fb0        0x4 c:/mesh/arm_gcc/bin/../lib/gcc/arm-none-eabi/6.3.1/../../../../arm-none-eabi/lib/thumb/v7e-m/fpv4-sp/hard\libc_nano.a(lib_a-impure.o)
                0x00041fb0                _global_impure_ptr
 *(.eh_frame*)
 .eh_frame      0x00041fb4        0x0 c:/mesh/arm_gcc/bin/../lib/gcc/arm-none-eabi/6.3.1/thumb/v7e-m/fpv4-sp/hard/crtbegin.o
 .eh_frame      0x00041fb4        0x4 c:/mesh/arm_gcc/bin/../lib/gcc/arm-none-eabi/6.3.1/thumb/v7e-m/fpv4-sp/hard/crtend.o

.glue_7         0x00041fb8        0x0
 .glue_7        0x00041fb8        0x0 linker stubs

.glue_7t        0x00041fb8        0x0
 .glue_7t       0x00041fb8        0x0 linker stubs

.vfp11_veneer   0x00041fb8        0x0
 .vfp11_veneer  0x00041fb8        0x0 linker stubs

.v4_bx          0x00041fb8        0x0
 .v4_bx         0x00041fb8        0x0 linker stubs

.iplt           0x00041fb8        0x0
 .iplt          0x00041fb8        0x0 c:/mesh/arm_gcc/bin/../lib/gcc/arm-none-eabi/6.3.1/thumb/v7e-m/fpv4-sp/hard/crtbegin.o

.pwr_mgmt_data  0x00041fb8        0x0
                [!provide]                PROVIDE (__start_pwr_mgmt_data, .)
 *(SORT(.pwr_mgmt_data*))
                [!provide]                PROVIDE (__stop_pwr_mgmt_data, .)

.log_const_data
                0x00041fb8        0x0
                [!provide]                PROVIDE (__start_log_const_data, .)
 *(.log_const_data)
                [!provide]                PROVIDE (__stop_log_const_data, .)

.cli_command    0x00041fb8        0x0
                [!provide]                PROVIDE (__start_cli_command, .)
 *(.cli_command)
                [!provide]                PROVIDE (__stop_cli_command, .)

.sdh_stack_observers
                0x00041fb8        0x0
                [!provide]                PROVIDE (__start_sdh_stack_observers, .)
 *(SORT(.sdh_stack_observers*))
                [!provide]                PROVIDE (__stop_sdh_stack_observers, .)

.sdh_req_observers
                0x00041fb8        0x0
                [!provide]                PROVIDE (__start_sdh_req_observers, .)
 *(SORT(.sdh_req_observers*))
                [!provide]                PROVIDE (__stop_sdh_req_observers, .)

.sdh_state_observers
                0x00041fb8        0x0
                [!provide]                PROVIDE (__start_sdh_state_observers, .)
 *(SORT(.sdh_state_observers*))
                [!provide]                PROVIDE (__stop_sdh_state_observers, .)

.sdh_ant_observers
                0x00041fb8        0x0
                [!provide]                PROVIDE (__start_sdh_ant_observers, .)
 *(SORT(.sdh_ant_observers*))
                [!provide]                PROVIDE (__stop_sdh_ant_observers, .)

.sdh_ble_observers
                0x00041fb8        0x0
                [!provide]                PROVIDE (__start_sdh_ble_observers, .)
 *(SORT(.sdh_ble_observers*))
                [!provide]                PROVIDE (__stop_sdh_ble_observers, .)

.sdh_soc_observers
                0x00041fb8        0x0
                [!provide]                PROVIDE (__start_sdh_soc_observers, .)
 *(SORT(.sdh_soc_observers*))
                [!provide]                PROVIDE (__stop_sdh_soc_observers, .)

.ARM.extab
 *(.ARM.extab* .gnu.linkonce.armextab.*)
                0x00041fb8                __exidx_start = .

.ARM.exidx      0x00041fb8        0x8
 *(.ARM.exidx* .gnu.linkonce.armexidx.*)
 .ARM.exidx     0x00041fb8        0x8 c:/mesh/arm_gcc/bin/../lib/gcc/arm-none-eabi/6.3.1/../../../../arm-none-eabi/lib/thumb/v7e-m/fpv4-sp/hard/crt0.o
 .ARM.exidx     0x00041fc0        0x0 c:/mesh/arm_gcc/bin/../lib/gcc/arm-none-eabi/6.3.1/thumb/v7e-m/fpv4-sp/hard\libgcc.a(_udivmoddi4.o)
                                  0x8 (size before relaxing)
                0x00041fc0                __exidx_end = .
                0x00041fc0                __etext = .

.rel.dyn        0x00041fc0        0x0
 .rel.iplt      0x00041fc0        0x0 c:/mesh/arm_gcc/bin/../lib/gcc/arm-none-eabi/6.3.1/thumb/v7e-m/fpv4-sp/hard/crtbegin.o

.data           0x200032c8      0x144 load address 0x00041fc0
                0x200032c8                __data_start__ = .
 *(vtable)
 *(.data*)
 .data.s_evt_handler.11348
                0x200032c8        0x8 examples/light_switch/server/CMakeFiles/light_switch_server_nrf52840_xxAA_s140_6.0.0.dir/__/__/__/mesh/stack/src/mesh_stack.c.obj
 .data.wait.9229
                0x200032d0        0x1 examples/light_switch/server/CMakeFiles/light_switch_server_nrf52840_xxAA_s140_6.0.0.dir/__/__/common/src/app_error_weak.c.obj
 *fill*         0x200032d1        0x3 
 .data.mem_listener.10103
                0x200032d4       0x10 examples/light_switch/server/CMakeFiles/light_switch_server_nrf52840_xxAA_s140_6.0.0.dir/__/__/__/mesh/core/src/net_state.c.obj
 .data.mem_listener.10108
                0x200032e4       0x10 examples/light_switch/server/CMakeFiles/light_switch_server_nrf52840_xxAA_s140_6.0.0.dir/__/__/__/mesh/core/src/net_state.c.obj
 .data.mem_listener.10122
                0x200032f4       0x10 examples/light_switch/server/CMakeFiles/light_switch_server_nrf52840_xxAA_s140_6.0.0.dir/__/__/__/mesh/core/src/net_state.c.obj
 .data.mem_listener.10139
                0x20003304       0x10 examples/light_switch/server/CMakeFiles/light_switch_server_nrf52840_xxAA_s140_6.0.0.dir/__/__/__/mesh/core/src/net_state.c.obj
 .data.m_nrf_mesh_listener
                0x20003314        0xc examples/light_switch/server/CMakeFiles/light_switch_server_nrf52840_xxAA_s140_6.0.0.dir/__/__/__/mesh/core/src/nrf_mesh.c.obj
 .data.g_log_dbg_lvl
                0x20003320        0x4 examples/light_switch/server/CMakeFiles/light_switch_server_nrf52840_xxAA_s140_6.0.0.dir/__/__/__/mesh/core/src/log.c.obj
                0x20003320                g_log_dbg_lvl
 .data.g_log_dbg_msk
                0x20003324        0x4 examples/light_switch/server/CMakeFiles/light_switch_server_nrf52840_xxAA_s140_6.0.0.dir/__/__/__/mesh/core/src/log.c.obj
                0x20003324                g_log_dbg_msk
 .data.g_log_hex_digits
                0x20003328        0x4 examples/light_switch/server/CMakeFiles/light_switch_server_nrf52840_xxAA_s140_6.0.0.dir/__/__/__/mesh/core/src/log.c.obj
                0x20003328                g_log_hex_digits
 .data.m_log_callback
                0x2000332c        0x4 examples/light_switch/server/CMakeFiles/light_switch_server_nrf52840_xxAA_s140_6.0.0.dir/__/__/__/mesh/core/src/log.c.obj
                0x2000332c                m_log_callback
 .data.m_config_server_handle
                0x20003330        0x2 examples/light_switch/server/CMakeFiles/light_switch_server_nrf52840_xxAA_s140_6.0.0.dir/__/__/__/models/config/src/config_server.c.obj
 *fill*         0x20003332        0x2 
 .data.m_mesh_evt_handler
                0x20003334        0x8 examples/light_switch/server/CMakeFiles/light_switch_server_nrf52840_xxAA_s140_6.0.0.dir/__/__/__/models/config/src/config_server.c.obj
 .data.flash_add_mem_available_struct.10677
                0x2000333c       0x10 examples/light_switch/server/CMakeFiles/light_switch_server_nrf52840_xxAA_s140_6.0.0.dir/__/__/__/mesh/access/src/access.c.obj
 .data.flash_clear_mem_available_struct.10766
                0x2000334c       0x10 examples/light_switch/server/CMakeFiles/light_switch_server_nrf52840_xxAA_s140_6.0.0.dir/__/__/__/mesh/access/src/access.c.obj
 .data.flash_store_mem_available_struct.10790
                0x2000335c       0x10 examples/light_switch/server/CMakeFiles/light_switch_server_nrf52840_xxAA_s140_6.0.0.dir/__/__/__/mesh/access/src/access.c.obj
 .data.m_default_ttl
                0x2000336c        0x1 examples/light_switch/server/CMakeFiles/light_switch_server_nrf52840_xxAA_s140_6.0.0.dir/__/__/__/mesh/access/src/access.c.obj
 *fill*         0x2000336d        0x3 
 .data.mem_listener.10966
                0x20003370       0x10 examples/light_switch/server/CMakeFiles/light_switch_server_nrf52840_xxAA_s140_6.0.0.dir/__/__/__/mesh/access/src/device_state_manager.c.obj
 .data.mem_listener.10992
                0x20003380       0x10 examples/light_switch/server/CMakeFiles/light_switch_server_nrf52840_xxAA_s140_6.0.0.dir/__/__/__/mesh/access/src/device_state_manager.c.obj
 .data.m_async_process_flag
                0x20003390        0x4 examples/light_switch/server/CMakeFiles/light_switch_server_nrf52840_xxAA_s140_6.0.0.dir/__/__/__/mesh/prov/src/prov_bearer_adv.c.obj
 .data.SystemCoreClock
                0x20003394        0x4 examples/light_switch/server/CMakeFiles/light_switch_server_nrf52840_xxAA_s140_6.0.0.dir/C_/ver/mod/nRF5_SDK_15.0.0_a53641a/modules/nrfx/mdk/system_nrf52840.c.obj
                0x20003394                SystemCoreClock
 .data.g_rng_function
                0x20003398        0x4 external/micro-ecc/libuECC_nrf52840_xxAA.a(uECC.c.obj)
 .data._impure_ptr
                0x2000339c        0x4 c:/mesh/arm_gcc/bin/../lib/gcc/arm-none-eabi/6.3.1/../../../../arm-none-eabi/lib/thumb/v7e-m/fpv4-sp/hard\libc_nano.a(lib_a-impure.o)
                0x2000339c                _impure_ptr
 .data.impure_data
                0x200033a0       0x60 c:/mesh/arm_gcc/bin/../lib/gcc/arm-none-eabi/6.3.1/../../../../arm-none-eabi/lib/thumb/v7e-m/fpv4-sp/hard\libc_nano.a(lib_a-impure.o)
                0x20003400                . = ALIGN (0x4)
                0x20003400                PROVIDE (__preinit_array_start, .)
 *(.preinit_array)
                0x20003400                PROVIDE (__preinit_array_end, .)
                0x20003400                . = ALIGN (0x4)
                0x20003400                PROVIDE (__init_array_start, .)
 *(SORT(.init_array.*))
 *(.init_array)
 .init_array    0x20003400        0x4 c:/mesh/arm_gcc/bin/../lib/gcc/arm-none-eabi/6.3.1/thumb/v7e-m/fpv4-sp/hard/crtbegin.o
                0x20003404                PROVIDE (__init_array_end, .)
                0x20003404                . = ALIGN (0x4)
                [!provide]                PROVIDE (__fini_array_start, .)
 *(SORT(.fini_array.*))
 *(.fini_array)
 .fini_array    0x20003404        0x4 c:/mesh/arm_gcc/bin/../lib/gcc/arm-none-eabi/6.3.1/thumb/v7e-m/fpv4-sp/hard/crtbegin.o
                [!provide]                PROVIDE (__fini_array_end, .)
 *(.jcr*)
 .jcr           0x20003408        0x0 c:/mesh/arm_gcc/bin/../lib/gcc/arm-none-eabi/6.3.1/thumb/v7e-m/fpv4-sp/hard/crtbegin.o
 .jcr           0x20003408        0x4 c:/mesh/arm_gcc/bin/../lib/gcc/arm-none-eabi/6.3.1/thumb/v7e-m/fpv4-sp/hard/crtend.o
                0x2000340c                . = ALIGN (0x4)
                0x2000340c                __data_end__ = .
LOAD c:/mesh/arm_gcc/bin/../lib/gcc/arm-none-eabi/6.3.1/thumb/v7e-m/fpv4-sp/hard/crti.o
LOAD c:/mesh/arm_gcc/bin/../lib/gcc/arm-none-eabi/6.3.1/thumb/v7e-m/fpv4-sp/hard/crtbegin.o
LOAD c:/mesh/arm_gcc/bin/../lib/gcc/arm-none-eabi/6.3.1/../../../../arm-none-eabi/lib/thumb/v7e-m/fpv4-sp/hard/crt0.o
LOAD examples/light_switch/server/CMakeFiles/light_switch_server_nrf52840_xxAA_s140_6.0.0.dir/src/main.c.obj
LOAD examples/light_switch/server/CMakeFiles/light_switch_server_nrf52840_xxAA_s140_6.0.0.dir/__/__/__/mesh/stack/src/mesh_stack.c.obj
LOAD examples/light_switch/server/CMakeFiles/light_switch_server_nrf52840_xxAA_s140_6.0.0.dir/__/__/common/src/mesh_softdevice_init.c.obj
LOAD examples/light_switch/server/CMakeFiles/light_switch_server_nrf52840_xxAA_s140_6.0.0.dir/__/__/common/src/mesh_provisionee.c.obj
LOAD examples/light_switch/server/CMakeFiles/light_switch_server_nrf52840_xxAA_s140_6.0.0.dir/__/__/common/src/rtt_input.c.obj
LOAD examples/light_switch/server/CMakeFiles/light_switch_server_nrf52840_xxAA_s140_6.0.0.dir/__/__/common/src/simple_hal.c.obj
LOAD examples/light_switch/server/CMakeFiles/light_switch_server_nrf52840_xxAA_s140_6.0.0.dir/__/__/common/src/mesh_app_utils.c.obj
LOAD examples/light_switch/server/CMakeFiles/light_switch_server_nrf52840_xxAA_s140_6.0.0.dir/__/__/nrf_mesh_weak.c.obj
LOAD examples/light_switch/server/CMakeFiles/light_switch_server_nrf52840_xxAA_s140_6.0.0.dir/__/__/common/src/app_error_weak.c.obj
LOAD examples/light_switch/server/CMakeFiles/light_switch_server_nrf52840_xxAA_s140_6.0.0.dir/__/__/common/src/assertion_handler_weak.c.obj
LOAD examples/light_switch/server/CMakeFiles/light_switch_server_nrf52840_xxAA_s140_6.0.0.dir/__/__/__/mesh/core/src/internal_event.c.obj
LOAD examples/light_switch/server/CMakeFiles/light_switch_server_nrf52840_xxAA_s140_6.0.0.dir/__/__/__/mesh/core/src/nrf_mesh_configure.c.obj
LOAD examples/light_switch/server/CMakeFiles/light_switch_server_nrf52840_xxAA_s140_6.0.0.dir/__/__/__/mesh/core/src/aes.c.obj
LOAD examples/light_switch/server/CMakeFiles/light_switch_server_nrf52840_xxAA_s140_6.0.0.dir/__/__/__/mesh/core/src/msg_cache.c.obj
LOAD examples/light_switch/server/CMakeFiles/light_switch_server_nrf52840_xxAA_s140_6.0.0.dir/__/__/__/mesh/core/src/transport.c.obj
LOAD examples/light_switch/server/CMakeFiles/light_switch_server_nrf52840_xxAA_s140_6.0.0.dir/__/__/__/mesh/core/src/event.c.obj
LOAD examples/light_switch/server/CMakeFiles/light_switch_server_nrf52840_xxAA_s140_6.0.0.dir/__/__/__/mesh/core/src/packet_buffer.c.obj
LOAD examples/light_switch/server/CMakeFiles/light_switch_server_nrf52840_xxAA_s140_6.0.0.dir/__/__/__/mesh/core/src/flash_manager_defrag.c.obj
LOAD examples/light_switch/server/CMakeFiles/light_switch_server_nrf52840_xxAA_s140_6.0.0.dir/__/__/__/mesh/core/src/fifo.c.obj
LOAD examples/light_switch/server/CMakeFiles/light_switch_server_nrf52840_xxAA_s140_6.0.0.dir/__/__/__/mesh/core/src/nrf_flash.c.obj
LOAD examples/light_switch/server/CMakeFiles/light_switch_server_nrf52840_xxAA_s140_6.0.0.dir/__/__/__/mesh/core/src/packet_mgr.c.obj
LOAD examples/light_switch/server/CMakeFiles/light_switch_server_nrf52840_xxAA_s140_6.0.0.dir/__/__/__/mesh/core/src/net_state.c.obj
LOAD examples/light_switch/server/CMakeFiles/light_switch_server_nrf52840_xxAA_s140_6.0.0.dir/__/__/__/mesh/core/src/mesh_flash.c.obj
LOAD examples/light_switch/server/CMakeFiles/light_switch_server_nrf52840_xxAA_s140_6.0.0.dir/__/__/__/mesh/core/src/nrf_mesh_utils.c.obj
LOAD examples/light_switch/server/CMakeFiles/light_switch_server_nrf52840_xxAA_s140_6.0.0.dir/__/__/__/mesh/core/src/nrf_mesh.c.obj
LOAD examples/light_switch/server/CMakeFiles/light_switch_server_nrf52840_xxAA_s140_6.0.0.dir/__/__/__/mesh/core/src/queue.c.obj
LOAD examples/light_switch/server/CMakeFiles/light_switch_server_nrf52840_xxAA_s140_6.0.0.dir/__/__/__/mesh/core/src/hal.c.obj
LOAD examples/light_switch/server/CMakeFiles/light_switch_server_nrf52840_xxAA_s140_6.0.0.dir/__/__/__/mesh/core/src/aes_cmac.c.obj
LOAD examples/light_switch/server/CMakeFiles/light_switch_server_nrf52840_xxAA_s140_6.0.0.dir/__/__/__/mesh/core/src/timer_scheduler.c.obj
LOAD examples/light_switch/server/CMakeFiles/light_switch_server_nrf52840_xxAA_s140_6.0.0.dir/__/__/__/mesh/core/src/timer.c.obj
LOAD examples/light_switch/server/CMakeFiles/light_switch_server_nrf52840_xxAA_s140_6.0.0.dir/__/__/__/mesh/core/src/ticker.c.obj
LOAD examples/light_switch/server/CMakeFiles/light_switch_server_nrf52840_xxAA_s140_6.0.0.dir/__/__/__/mesh/core/src/rand.c.obj
LOAD examples/light_switch/server/CMakeFiles/light_switch_server_nrf52840_xxAA_s140_6.0.0.dir/__/__/__/mesh/core/src/nrf_mesh_opt.c.obj
LOAD examples/light_switch/server/CMakeFiles/light_switch_server_nrf52840_xxAA_s140_6.0.0.dir/__/__/__/mesh/core/src/timeslot.c.obj
LOAD examples/light_switch/server/CMakeFiles/light_switch_server_nrf52840_xxAA_s140_6.0.0.dir/__/__/__/mesh/core/src/bearer_event.c.obj
LOAD examples/light_switch/server/CMakeFiles/light_switch_server_nrf52840_xxAA_s140_6.0.0.dir/__/__/__/mesh/core/src/enc.c.obj
LOAD examples/light_switch/server/CMakeFiles/light_switch_server_nrf52840_xxAA_s140_6.0.0.dir/__/__/__/mesh/core/src/network.c.obj
LOAD examples/light_switch/server/CMakeFiles/light_switch_server_nrf52840_xxAA_s140_6.0.0.dir/__/__/__/mesh/core/src/net_packet.c.obj
LOAD examples/light_switch/server/CMakeFiles/light_switch_server_nrf52840_xxAA_s140_6.0.0.dir/__/__/__/mesh/core/src/msqueue.c.obj
LOAD examples/light_switch/server/CMakeFiles/light_switch_server_nrf52840_xxAA_s140_6.0.0.dir/__/__/__/mesh/core/src/nrf_mesh_keygen.c.obj
LOAD examples/light_switch/server/CMakeFiles/light_switch_server_nrf52840_xxAA_s140_6.0.0.dir/__/__/__/mesh/core/src/cache.c.obj
LOAD examples/light_switch/server/CMakeFiles/light_switch_server_nrf52840_xxAA_s140_6.0.0.dir/__/__/__/mesh/core/src/uri.c.obj
LOAD examples/light_switch/server/CMakeFiles/light_switch_server_nrf52840_xxAA_s140_6.0.0.dir/__/__/__/mesh/core/src/list.c.obj
LOAD examples/light_switch/server/CMakeFiles/light_switch_server_nrf52840_xxAA_s140_6.0.0.dir/__/__/__/mesh/core/src/log.c.obj
LOAD examples/light_switch/server/CMakeFiles/light_switch_server_nrf52840_xxAA_s140_6.0.0.dir/__/__/__/mesh/core/src/flash_manager.c.obj
LOAD examples/light_switch/server/CMakeFiles/light_switch_server_nrf52840_xxAA_s140_6.0.0.dir/__/__/__/mesh/core/src/ccm_soft.c.obj
LOAD examples/light_switch/server/CMakeFiles/light_switch_server_nrf52840_xxAA_s140_6.0.0.dir/__/__/__/mesh/core/src/toolchain.c.obj
LOAD examples/light_switch/server/CMakeFiles/light_switch_server_nrf52840_xxAA_s140_6.0.0.dir/__/__/__/mesh/core/src/replay_cache.c.obj
LOAD examples/light_switch/server/CMakeFiles/light_switch_server_nrf52840_xxAA_s140_6.0.0.dir/__/__/__/mesh/core/src/beacon.c.obj
LOAD examples/light_switch/server/CMakeFiles/light_switch_server_nrf52840_xxAA_s140_6.0.0.dir/__/__/__/mesh/core/src/flash_manager_internal.c.obj
LOAD examples/light_switch/server/CMakeFiles/light_switch_server_nrf52840_xxAA_s140_6.0.0.dir/__/__/__/mesh/core/src/core_tx.c.obj
LOAD examples/light_switch/server/CMakeFiles/light_switch_server_nrf52840_xxAA_s140_6.0.0.dir/__/__/__/mesh/core/src/heartbeat.c.obj
LOAD examples/light_switch/server/CMakeFiles/light_switch_server_nrf52840_xxAA_s140_6.0.0.dir/__/__/__/mesh/core/src/net_beacon.c.obj
LOAD examples/light_switch/server/CMakeFiles/light_switch_server_nrf52840_xxAA_s140_6.0.0.dir/__/__/__/mesh/core/src/fsm.c.obj
LOAD examples/light_switch/server/CMakeFiles/light_switch_server_nrf52840_xxAA_s140_6.0.0.dir/__/__/__/mesh/core/src/core_tx_adv.c.obj
LOAD examples/light_switch/server/CMakeFiles/light_switch_server_nrf52840_xxAA_s140_6.0.0.dir/__/__/__/mesh/bearer/src/ad_listener.c.obj
LOAD examples/light_switch/server/CMakeFiles/light_switch_server_nrf52840_xxAA_s140_6.0.0.dir/__/__/__/mesh/bearer/src/ad_type_filter.c.obj
LOAD examples/light_switch/server/CMakeFiles/light_switch_server_nrf52840_xxAA_s140_6.0.0.dir/__/__/__/mesh/bearer/src/adv_packet_filter.c.obj
LOAD examples/light_switch/server/CMakeFiles/light_switch_server_nrf52840_xxAA_s140_6.0.0.dir/__/__/__/mesh/bearer/src/advertiser.c.obj
LOAD examples/light_switch/server/CMakeFiles/light_switch_server_nrf52840_xxAA_s140_6.0.0.dir/__/__/__/mesh/bearer/src/bearer_handler.c.obj
LOAD examples/light_switch/server/CMakeFiles/light_switch_server_nrf52840_xxAA_s140_6.0.0.dir/__/__/__/mesh/bearer/src/broadcast.c.obj
LOAD examples/light_switch/server/CMakeFiles/light_switch_server_nrf52840_xxAA_s140_6.0.0.dir/__/__/__/mesh/bearer/src/filter_engine.c.obj
LOAD examples/light_switch/server/CMakeFiles/light_switch_server_nrf52840_xxAA_s140_6.0.0.dir/__/__/__/mesh/bearer/src/gap_address_filter.c.obj
LOAD examples/light_switch/server/CMakeFiles/light_switch_server_nrf52840_xxAA_s140_6.0.0.dir/__/__/__/mesh/bearer/src/radio_config.c.obj
LOAD examples/light_switch/server/CMakeFiles/light_switch_server_nrf52840_xxAA_s140_6.0.0.dir/__/__/__/mesh/bearer/src/rssi_filter.c.obj
LOAD examples/light_switch/server/CMakeFiles/light_switch_server_nrf52840_xxAA_s140_6.0.0.dir/__/__/__/mesh/bearer/src/scanner.c.obj
LOAD examples/light_switch/server/CMakeFiles/light_switch_server_nrf52840_xxAA_s140_6.0.0.dir/__/__/__/models/simple_on_off/src/simple_on_off_server.c.obj
LOAD examples/light_switch/server/CMakeFiles/light_switch_server_nrf52840_xxAA_s140_6.0.0.dir/__/__/__/models/config/src/composition_data.c.obj
LOAD examples/light_switch/server/CMakeFiles/light_switch_server_nrf52840_xxAA_s140_6.0.0.dir/__/__/__/models/config/src/config_server.c.obj
LOAD examples/light_switch/server/CMakeFiles/light_switch_server_nrf52840_xxAA_s140_6.0.0.dir/__/__/__/models/config/src/packed_index_list.c.obj
LOAD examples/light_switch/server/CMakeFiles/light_switch_server_nrf52840_xxAA_s140_6.0.0.dir/__/__/__/models/health/src/health_server.c.obj
LOAD examples/light_switch/server/CMakeFiles/light_switch_server_nrf52840_xxAA_s140_6.0.0.dir/__/__/__/mesh/access/src/access_publish.c.obj
LOAD examples/light_switch/server/CMakeFiles/light_switch_server_nrf52840_xxAA_s140_6.0.0.dir/__/__/__/mesh/access/src/access.c.obj
LOAD examples/light_switch/server/CMakeFiles/light_switch_server_nrf52840_xxAA_s140_6.0.0.dir/__/__/__/mesh/access/src/access_reliable.c.obj
LOAD examples/light_switch/server/CMakeFiles/light_switch_server_nrf52840_xxAA_s140_6.0.0.dir/__/__/__/mesh/access/src/device_state_manager.c.obj
LOAD examples/light_switch/server/CMakeFiles/light_switch_server_nrf52840_xxAA_s140_6.0.0.dir/__/__/__/mesh/prov/src/prov_provisionee.c.obj
LOAD examples/light_switch/server/CMakeFiles/light_switch_server_nrf52840_xxAA_s140_6.0.0.dir/__/__/__/mesh/prov/src/nrf_mesh_prov.c.obj
LOAD examples/light_switch/server/CMakeFiles/light_switch_server_nrf52840_xxAA_s140_6.0.0.dir/__/__/__/mesh/prov/src/provisioning.c.obj
LOAD examples/light_switch/server/CMakeFiles/light_switch_server_nrf52840_xxAA_s140_6.0.0.dir/__/__/__/mesh/prov/src/prov_beacon.c.obj
LOAD examples/light_switch/server/CMakeFiles/light_switch_server_nrf52840_xxAA_s140_6.0.0.dir/__/__/__/mesh/prov/src/prov_utils.c.obj
LOAD examples/light_switch/server/CMakeFiles/light_switch_server_nrf52840_xxAA_s140_6.0.0.dir/__/__/__/mesh/prov/src/prov_bearer_adv.c.obj
LOAD examples/light_switch/server/CMakeFiles/light_switch_server_nrf52840_xxAA_s140_6.0.0.dir/C_/ver/mod/nRF5_SDK_15.0.0_a53641a/modules/nrfx/mdk/system_nrf52840.c.obj
LOAD examples/light_switch/server/CMakeFiles/light_switch_server_nrf52840_xxAA_s140_6.0.0.dir/C_/ver/mod/nRF5_SDK_15.0.0_a53641a/modules/nrfx/mdk/gcc_startup_nrf52840.S.obj
LOAD examples/light_switch/server/CMakeFiles/light_switch_server_nrf52840_xxAA_s140_6.0.0.dir/C_/ver/mod/nRF5_SDK_15.0.0_a53641a/components/libraries/util/app_error.c.obj
LOAD examples/light_switch/server/CMakeFiles/light_switch_server_nrf52840_xxAA_s140_6.0.0.dir/C_/ver/mod/nRF5_SDK_15.0.0_a53641a/components/libraries/util/app_error_handler_gcc.c.obj
LOAD external/rtt/librtt_nrf52840_xxAA.a
LOAD external/micro-ecc/libuECC_nrf52840_xxAA.a
START GROUP
LOAD c:/mesh/arm_gcc/bin/../lib/gcc/arm-none-eabi/6.3.1/thumb/v7e-m/fpv4-sp/hard\libgcc.a
LOAD c:/mesh/arm_gcc/bin/../lib/gcc/arm-none-eabi/6.3.1/../../../../arm-none-eabi/lib/thumb/v7e-m/fpv4-sp/hard\libc_nano.a
END GROUP
START GROUP
LOAD c:/mesh/arm_gcc/bin/../lib/gcc/arm-none-eabi/6.3.1/thumb/v7e-m/fpv4-sp/hard\libgcc.a
LOAD c:/mesh/arm_gcc/bin/../lib/gcc/arm-none-eabi/6.3.1/../../../../arm-none-eabi/lib/thumb/v7e-m/fpv4-sp/hard\libc_nano.a
END GROUP
LOAD c:/mesh/arm_gcc/bin/../lib/gcc/arm-none-eabi/6.3.1/thumb/v7e-m/fpv4-sp/hard/crtend.o
LOAD c:/mesh/arm_gcc/bin/../lib/gcc/arm-none-eabi/6.3.1/thumb/v7e-m/fpv4-sp/hard/crtn.o
START GROUP
LOAD c:/mesh/arm_gcc/bin/../lib/gcc/arm-none-eabi/6.3.1/thumb/v7e-m/fpv4-sp/hard\libgcc.a
LOAD c:/mesh/arm_gcc/bin/../lib/gcc/arm-none-eabi/6.3.1/../../../../arm-none-eabi/lib/thumb/v7e-m/fpv4-sp/hard\libc.a
LOAD c:/mesh/arm_gcc/bin/../lib/gcc/arm-none-eabi/6.3.1/../../../../arm-none-eabi/lib/thumb/v7e-m/fpv4-sp/hard\libnosys.a
END GROUP

.igot.plt       0x2000340c        0x0 load address 0x00042104
 .igot.plt      0x2000340c        0x0 c:/mesh/arm_gcc/bin/../lib/gcc/arm-none-eabi/6.3.1/thumb/v7e-m/fpv4-sp/hard/crtbegin.o
                0x2000340c                . = ALIGN (0x4)

.svc_data       0x2000340c        0x0
                [!provide]                PROVIDE (__start_svc_data, .)
 *(.svc_data)
                [!provide]                PROVIDE (__stop_svc_data, .)

.fs_data        0x2000340c        0x0
                [!provide]                PROVIDE (__start_fs_data, .)
 *(.fs_data)
                [!provide]                PROVIDE (__stop_fs_data, .)

.log_dynamic_data
                0x2000340c        0x0
                [!provide]                PROVIDE (__start_log_dynamic_data, .)
 *(.log_dynamic_data)
                [!provide]                PROVIDE (__stop_log_dynamic_data, .)

.cli_sorted_cmd_ptrs
                0x2000340c        0x0
                [!provide]                PROVIDE (__start_cli_sorted_cmd_ptrs, .)
 *(.cli_sorted_cmd_ptrs)
                [!provide]                PROVIDE (__stop_cli_sorted_cmd_ptrs, .)

.bss            0x20003410     0x2f44 load address 0x00042108
                0x20003410                . = ALIGN (0x4)
                0x20003410                __bss_start__ = .
 *(.bss*)
 .bss           0x20003410       0x1c c:/mesh/arm_gcc/bin/../lib/gcc/arm-none-eabi/6.3.1/thumb/v7e-m/fpv4-sp/hard/crtbegin.o
 .bss.m_device_provisioned
                0x2000342c        0x1 examples/light_switch/server/CMakeFiles/light_switch_server_nrf52840_xxAA_s140_6.0.0.dir/src/main.c.obj
 *fill*         0x2000342d        0x3 
 .bss.m_server  0x20003430        0xc examples/light_switch/server/CMakeFiles/light_switch_server_nrf52840_xxAA_s140_6.0.0.dir/src/main.c.obj
 .bss.m_health_server
                0x2000343c       0x5c examples/light_switch/server/CMakeFiles/light_switch_server_nrf52840_xxAA_s140_6.0.0.dir/__/__/__/mesh/stack/src/mesh_stack.c.obj
 .bss.m_init_params
                0x20003498       0x24 examples/light_switch/server/CMakeFiles/light_switch_server_nrf52840_xxAA_s140_6.0.0.dir/__/__/__/mesh/stack/src/mesh_stack.c.obj
 .bss.m_device_provisioned
                0x200034bc        0x1 examples/light_switch/server/CMakeFiles/light_switch_server_nrf52840_xxAA_s140_6.0.0.dir/__/__/common/src/mesh_provisionee.c.obj
 *fill*         0x200034bd        0x3 
 .bss.m_params  0x200034c0        0xc examples/light_switch/server/CMakeFiles/light_switch_server_nrf52840_xxAA_s140_6.0.0.dir/__/__/common/src/mesh_provisionee.c.obj
 .bss.m_private_key
                0x200034cc       0x20 examples/light_switch/server/CMakeFiles/light_switch_server_nrf52840_xxAA_s140_6.0.0.dir/__/__/common/src/mesh_provisionee.c.obj
 .bss.m_prov_bearer_adv
                0x200034ec      0x1c4 examples/light_switch/server/CMakeFiles/light_switch_server_nrf52840_xxAA_s140_6.0.0.dir/__/__/common/src/mesh_provisionee.c.obj
 .bss.m_prov_ctx
                0x200036b0      0x134 examples/light_switch/server/CMakeFiles/light_switch_server_nrf52840_xxAA_s140_6.0.0.dir/__/__/common/src/mesh_provisionee.c.obj
 .bss.m_public_key
                0x200037e4       0x40 examples/light_switch/server/CMakeFiles/light_switch_server_nrf52840_xxAA_s140_6.0.0.dir/__/__/common/src/mesh_provisionee.c.obj
 .bss.m_rtt_input_handler
                0x20003824        0x4 examples/light_switch/server/CMakeFiles/light_switch_server_nrf52840_xxAA_s140_6.0.0.dir/__/__/common/src/rtt_input.c.obj
 .bss.m_button_handler_cb
                0x20003828        0x4 examples/light_switch/server/CMakeFiles/light_switch_server_nrf52840_xxAA_s140_6.0.0.dir/__/__/common/src/simple_hal.c.obj
 .bss.m_last_button_press
                0x2000382c        0x4 examples/light_switch/server/CMakeFiles/light_switch_server_nrf52840_xxAA_s140_6.0.0.dir/__/__/common/src/simple_hal.c.obj
 .bss.m_uuid    0x20003830       0x10 examples/light_switch/server/CMakeFiles/light_switch_server_nrf52840_xxAA_s140_6.0.0.dir/__/__/__/mesh/core/src/nrf_mesh_configure.c.obj
 .bss.m_msg_cache
                0x20003840      0x100 examples/light_switch/server/CMakeFiles/light_switch_server_nrf52840_xxAA_s140_6.0.0.dir/__/__/__/mesh/core/src/msg_cache.c.obj
 .bss.m_msg_cache_head
                0x20003940        0x4 examples/light_switch/server/CMakeFiles/light_switch_server_nrf52840_xxAA_s140_6.0.0.dir/__/__/__/mesh/core/src/msg_cache.c.obj
 .bss.m_control_packet_consumer_count
                0x20003944        0x4 examples/light_switch/server/CMakeFiles/light_switch_server_nrf52840_xxAA_s140_6.0.0.dir/__/__/__/mesh/core/src/transport.c.obj
 .bss.m_control_packet_consumers
                0x20003948        0x8 examples/light_switch/server/CMakeFiles/light_switch_server_nrf52840_xxAA_s140_6.0.0.dir/__/__/__/mesh/core/src/transport.c.obj
 .bss.m_sar_alloc
                0x20003950        0x4 examples/light_switch/server/CMakeFiles/light_switch_server_nrf52840_xxAA_s140_6.0.0.dir/__/__/__/mesh/core/src/transport.c.obj
 .bss.m_sar_process_flag
                0x20003954        0x4 examples/light_switch/server/CMakeFiles/light_switch_server_nrf52840_xxAA_s140_6.0.0.dir/__/__/__/mesh/core/src/transport.c.obj
 .bss.m_sar_release
                0x20003958        0x4 examples/light_switch/server/CMakeFiles/light_switch_server_nrf52840_xxAA_s140_6.0.0.dir/__/__/__/mesh/core/src/transport.c.obj
 .bss.m_sar_session_cache
                0x2000395c       0x40 examples/light_switch/server/CMakeFiles/light_switch_server_nrf52840_xxAA_s140_6.0.0.dir/__/__/__/mesh/core/src/transport.c.obj
 .bss.m_sar_session_cache_head
                0x2000399c        0x4 examples/light_switch/server/CMakeFiles/light_switch_server_nrf52840_xxAA_s140_6.0.0.dir/__/__/__/mesh/core/src/transport.c.obj
 .bss.m_trs_config
                0x200039a0       0x18 examples/light_switch/server/CMakeFiles/light_switch_server_nrf52840_xxAA_s140_6.0.0.dir/__/__/__/mesh/core/src/transport.c.obj
 .bss.m_trs_sar_sessions
                0x200039b8      0x1b0 examples/light_switch/server/CMakeFiles/light_switch_server_nrf52840_xxAA_s140_6.0.0.dir/__/__/__/mesh/core/src/transport.c.obj
 .bss.mp_evt_handlers_head
                0x20003b68        0x4 examples/light_switch/server/CMakeFiles/light_switch_server_nrf52840_xxAA_s140_6.0.0.dir/__/__/__/mesh/core/src/event.c.obj
 .bss.m_defrag  0x20003b6c       0x1c examples/light_switch/server/CMakeFiles/light_switch_server_nrf52840_xxAA_s140_6.0.0.dir/__/__/__/mesh/core/src/flash_manager_defrag.c.obj
 .bss.m_token   0x20003b88        0x2 examples/light_switch/server/CMakeFiles/light_switch_server_nrf52840_xxAA_s140_6.0.0.dir/__/__/__/mesh/core/src/flash_manager_defrag.c.obj
 *fill*         0x20003b8a        0x2 
 .bss.mp_recovery_area
                0x20003b8c        0x4 examples/light_switch/server/CMakeFiles/light_switch_server_nrf52840_xxAA_s140_6.0.0.dir/__/__/__/mesh/core/src/flash_manager_defrag.c.obj
 .bss.p_null_ptr.10534
                0x20003b90        0x4 examples/light_switch/server/CMakeFiles/light_switch_server_nrf52840_xxAA_s140_6.0.0.dir/__/__/__/mesh/core/src/flash_manager_defrag.c.obj
 .bss.m_pool    0x20003b94     0x1000 examples/light_switch/server/CMakeFiles/light_switch_server_nrf52840_xxAA_s140_6.0.0.dir/__/__/__/mesh/core/src/packet_mgr.c.obj
 .bss.mp_free_head
                0x20004b94        0x4 examples/light_switch/server/CMakeFiles/light_switch_server_nrf52840_xxAA_s140_6.0.0.dir/__/__/__/mesh/core/src/packet_mgr.c.obj
 .bss.iv_state_set.10189
                0x20004b98        0x1 examples/light_switch/server/CMakeFiles/light_switch_server_nrf52840_xxAA_s140_6.0.0.dir/__/__/__/mesh/core/src/net_state.c.obj
 *fill*         0x20004b99        0x3 
 .bss.lock_count.10165
                0x20004b9c        0x4 examples/light_switch/server/CMakeFiles/light_switch_server_nrf52840_xxAA_s140_6.0.0.dir/__/__/__/mesh/core/src/net_state.c.obj
 .bss.m_flash_manager
                0x20004ba0       0x24 examples/light_switch/server/CMakeFiles/light_switch_server_nrf52840_xxAA_s140_6.0.0.dir/__/__/__/mesh/core/src/net_state.c.obj
 .bss.m_iv_update_timer
                0x20004bc4       0x18 examples/light_switch/server/CMakeFiles/light_switch_server_nrf52840_xxAA_s140_6.0.0.dir/__/__/__/mesh/core/src/net_state.c.obj
 .bss.m_mesh_evt_handler
                0x20004bdc        0x8 examples/light_switch/server/CMakeFiles/light_switch_server_nrf52840_xxAA_s140_6.0.0.dir/__/__/__/mesh/core/src/net_state.c.obj
 .bss.m_net_state
                0x20004be4       0x14 examples/light_switch/server/CMakeFiles/light_switch_server_nrf52840_xxAA_s140_6.0.0.dir/__/__/__/mesh/core/src/net_state.c.obj
 .bss.m_seqnum_allocation_in_progress
                0x20004bf8        0x1 examples/light_switch/server/CMakeFiles/light_switch_server_nrf52840_xxAA_s140_6.0.0.dir/__/__/__/mesh/core/src/net_state.c.obj
 .bss.m_test_mode
                0x20004bf9        0x1 examples/light_switch/server/CMakeFiles/light_switch_server_nrf52840_xxAA_s140_6.0.0.dir/__/__/__/mesh/core/src/net_state.c.obj
 *fill*         0x20004bfa        0x2 
 .bss.m_event_flag
                0x20004bfc        0x4 examples/light_switch/server/CMakeFiles/light_switch_server_nrf52840_xxAA_s140_6.0.0.dir/__/__/__/mesh/core/src/mesh_flash.c.obj
 .bss.m_suspended
                0x20004c00        0x1 examples/light_switch/server/CMakeFiles/light_switch_server_nrf52840_xxAA_s140_6.0.0.dir/__/__/__/mesh/core/src/mesh_flash.c.obj
 *fill*         0x20004c01        0x3 
 .bss.m_users   0x20004c04      0x228 examples/light_switch/server/CMakeFiles/light_switch_server_nrf52840_xxAA_s140_6.0.0.dir/__/__/__/mesh/core/src/mesh_flash.c.obj
 .bss.m_is_enabled
                0x20004e2c        0x1 examples/light_switch/server/CMakeFiles/light_switch_server_nrf52840_xxAA_s140_6.0.0.dir/__/__/__/mesh/core/src/nrf_mesh.c.obj
 .bss.m_is_initialized
                0x20004e2d        0x1 examples/light_switch/server/CMakeFiles/light_switch_server_nrf52840_xxAA_s140_6.0.0.dir/__/__/__/mesh/core/src/nrf_mesh.c.obj
 *fill*         0x20004e2e        0x2 
 .bss.m_rx_cb   0x20004e30        0x4 examples/light_switch/server/CMakeFiles/light_switch_server_nrf52840_xxAA_s140_6.0.0.dir/__/__/__/mesh/core/src/nrf_mesh.c.obj
 .bss.m_128buf  0x20004e34       0x10 examples/light_switch/server/CMakeFiles/light_switch_server_nrf52840_xxAA_s140_6.0.0.dir/__/__/__/mesh/core/src/aes_cmac.c.obj
 .bss.m_subkey1
                0x20004e44       0x10 examples/light_switch/server/CMakeFiles/light_switch_server_nrf52840_xxAA_s140_6.0.0.dir/__/__/__/mesh/core/src/aes_cmac.c.obj
 .bss.m_subkey2
                0x20004e54       0x10 examples/light_switch/server/CMakeFiles/light_switch_server_nrf52840_xxAA_s140_6.0.0.dir/__/__/__/mesh/core/src/aes_cmac.c.obj
 .bss.m_event_flag
                0x20004e64        0x4 examples/light_switch/server/CMakeFiles/light_switch_server_nrf52840_xxAA_s140_6.0.0.dir/__/__/__/mesh/core/src/timer_scheduler.c.obj
 .bss.m_scheduler
                0x20004e68       0x10 examples/light_switch/server/CMakeFiles/light_switch_server_nrf52840_xxAA_s140_6.0.0.dir/__/__/__/mesh/core/src/timer_scheduler.c.obj
 .bss.m_attributes
                0x20004e78        0x3 examples/light_switch/server/CMakeFiles/light_switch_server_nrf52840_xxAA_s140_6.0.0.dir/__/__/__/mesh/core/src/timer.c.obj
 *fill*         0x20004e7b        0x1 
 .bss.m_callbacks
                0x20004e7c        0xc examples/light_switch/server/CMakeFiles/light_switch_server_nrf52840_xxAA_s140_6.0.0.dir/__/__/__/mesh/core/src/timer.c.obj
 .bss.m_is_in_ts
                0x20004e88        0x1 examples/light_switch/server/CMakeFiles/light_switch_server_nrf52840_xxAA_s140_6.0.0.dir/__/__/__/mesh/core/src/timer.c.obj
 *fill*         0x20004e89        0x3 
 .bss.m_reference_time
                0x20004e8c        0x4 examples/light_switch/server/CMakeFiles/light_switch_server_nrf52840_xxAA_s140_6.0.0.dir/__/__/__/mesh/core/src/timer.c.obj
 .bss.m_timeouts
                0x20004e90        0xc examples/light_switch/server/CMakeFiles/light_switch_server_nrf52840_xxAA_s140_6.0.0.dir/__/__/__/mesh/core/src/timer.c.obj
 .bss.m_timer_mut
                0x20004e9c        0x4 examples/light_switch/server/CMakeFiles/light_switch_server_nrf52840_xxAA_s140_6.0.0.dir/__/__/__/mesh/core/src/timer.c.obj
 .bss.m_ts_end_time
                0x20004ea0        0x4 examples/light_switch/server/CMakeFiles/light_switch_server_nrf52840_xxAA_s140_6.0.0.dir/__/__/__/mesh/core/src/timer.c.obj
 .bss.mp_ppi_tasks
                0x20004ea4        0xc examples/light_switch/server/CMakeFiles/light_switch_server_nrf52840_xxAA_s140_6.0.0.dir/__/__/__/mesh/core/src/timer.c.obj
 .bss.m_current_time
                0x20004eb0        0x4 examples/light_switch/server/CMakeFiles/light_switch_server_nrf52840_xxAA_s140_6.0.0.dir/__/__/__/mesh/core/src/ticker.c.obj
 .bss.m_timer   0x20004eb4       0x18 examples/light_switch/server/CMakeFiles/light_switch_server_nrf52840_xxAA_s140_6.0.0.dir/__/__/__/mesh/core/src/ticker.c.obj
 .bss.m_current_timeslot
                0x20004ecc       0x1c examples/light_switch/server/CMakeFiles/light_switch_server_nrf52840_xxAA_s140_6.0.0.dir/__/__/__/mesh/core/src/timeslot.c.obj
 .bss.m_lfclk_ppm
                0x20004ee8        0x4 examples/light_switch/server/CMakeFiles/light_switch_server_nrf52840_xxAA_s140_6.0.0.dir/__/__/__/mesh/core/src/timeslot.c.obj
 .bss.m_radio_request_earliest
                0x20004eec       0x10 examples/light_switch/server/CMakeFiles/light_switch_server_nrf52840_xxAA_s140_6.0.0.dir/__/__/__/mesh/core/src/timeslot.c.obj
 .bss.m_state_lock
                0x20004efc        0x1 examples/light_switch/server/CMakeFiles/light_switch_server_nrf52840_xxAA_s140_6.0.0.dir/__/__/__/mesh/core/src/timeslot.c.obj
 .bss.m_timeslot_forced_command
                0x20004efd        0x1 examples/light_switch/server/CMakeFiles/light_switch_server_nrf52840_xxAA_s140_6.0.0.dir/__/__/__/mesh/core/src/timeslot.c.obj
 *fill*         0x20004efe        0x2 
 .bss.s_last_rtc_value.9592
                0x20004f00        0x8 examples/light_switch/server/CMakeFiles/light_switch_server_nrf52840_xxAA_s140_6.0.0.dir/__/__/__/mesh/core/src/timeslot.c.obj
 .bss.m_bearer_event_fifo
                0x20004f08       0x14 examples/light_switch/server/CMakeFiles/light_switch_server_nrf52840_xxAA_s140_6.0.0.dir/__/__/__/mesh/core/src/bearer_event.c.obj
 .bss.m_bearer_event_fifo_buffer
                0x20004f1c      0x100 examples/light_switch/server/CMakeFiles/light_switch_server_nrf52840_xxAA_s140_6.0.0.dir/__/__/__/mesh/core/src/bearer_event.c.obj
 .bss.m_critical
                0x2000501c        0x4 examples/light_switch/server/CMakeFiles/light_switch_server_nrf52840_xxAA_s140_6.0.0.dir/__/__/__/mesh/core/src/bearer_event.c.obj
 .bss.m_flag_count
                0x20005020        0x4 examples/light_switch/server/CMakeFiles/light_switch_server_nrf52840_xxAA_s140_6.0.0.dir/__/__/__/mesh/core/src/bearer_event.c.obj
 .bss.m_flag_event_callbacks
                0x20005024       0x20 examples/light_switch/server/CMakeFiles/light_switch_server_nrf52840_xxAA_s140_6.0.0.dir/__/__/__/mesh/core/src/bearer_event.c.obj
 .bss.m_flags   0x20005044        0x4 examples/light_switch/server/CMakeFiles/light_switch_server_nrf52840_xxAA_s140_6.0.0.dir/__/__/__/mesh/core/src/bearer_event.c.obj
 .bss.m_irq_priority
                0x20005048        0x1 examples/light_switch/server/CMakeFiles/light_switch_server_nrf52840_xxAA_s140_6.0.0.dir/__/__/__/mesh/core/src/bearer_event.c.obj
 *fill*         0x20005049        0x3 
 .bss.m_sequential_event_queue
                0x2000504c        0x8 examples/light_switch/server/CMakeFiles/light_switch_server_nrf52840_xxAA_s140_6.0.0.dir/__/__/__/mesh/core/src/bearer_event.c.obj
 .bss.s_recursion_guard.9723
                0x20005054        0x1 examples/light_switch/server/CMakeFiles/light_switch_server_nrf52840_xxAA_s140_6.0.0.dir/__/__/__/mesh/core/src/bearer_event.c.obj
 *fill*         0x20005055        0x3 
 .bss.m_relay_check_cb
                0x20005058        0x4 examples/light_switch/server/CMakeFiles/light_switch_server_nrf52840_xxAA_s140_6.0.0.dir/__/__/__/mesh/core/src/network.c.obj
 .bss.m_relay_enable
                0x2000505c        0x1 examples/light_switch/server/CMakeFiles/light_switch_server_nrf52840_xxAA_s140_6.0.0.dir/__/__/__/mesh/core/src/network.c.obj
 *fill*         0x2000505d        0x3 
 .bss.m_action_queue
                0x20005060        0xc examples/light_switch/server/CMakeFiles/light_switch_server_nrf52840_xxAA_s140_6.0.0.dir/__/__/__/mesh/core/src/flash_manager.c.obj
 .bss.m_action_queue_buffer
                0x2000506c      0x104 examples/light_switch/server/CMakeFiles/light_switch_server_nrf52840_xxAA_s140_6.0.0.dir/__/__/__/mesh/core/src/flash_manager.c.obj
 .bss.m_action_state
                0x20005170        0x1 examples/light_switch/server/CMakeFiles/light_switch_server_nrf52840_xxAA_s140_6.0.0.dir/__/__/__/mesh/core/src/flash_manager.c.obj
 *fill*         0x20005171        0x3 
 .bss.m_memory_listener_queue
                0x20005174        0x8 examples/light_switch/server/CMakeFiles/light_switch_server_nrf52840_xxAA_s140_6.0.0.dir/__/__/__/mesh/core/src/flash_manager.c.obj
 .bss.m_processing_flag
                0x2000517c        0x4 examples/light_switch/server/CMakeFiles/light_switch_server_nrf52840_xxAA_s140_6.0.0.dir/__/__/__/mesh/core/src/flash_manager.c.obj
 .bss.m_queue_empty_cb
                0x20005180        0x4 examples/light_switch/server/CMakeFiles/light_switch_server_nrf52840_xxAA_s140_6.0.0.dir/__/__/__/mesh/core/src/flash_manager.c.obj
 .bss.m_state   0x20005184        0x1 examples/light_switch/server/CMakeFiles/light_switch_server_nrf52840_xxAA_s140_6.0.0.dir/__/__/__/mesh/core/src/flash_manager.c.obj
 *fill*         0x20005185        0x1 
 .bss.m_token   0x20005186        0x2 examples/light_switch/server/CMakeFiles/light_switch_server_nrf52840_xxAA_s140_6.0.0.dir/__/__/__/mesh/core/src/flash_manager.c.obj
 .bss.p_current.11442
                0x20005188        0x4 examples/light_switch/server/CMakeFiles/light_switch_server_nrf52840_xxAA_s140_6.0.0.dir/__/__/__/mesh/core/src/flash_manager.c.obj
 .bss.result.11443
                0x2000518c        0x1 examples/light_switch/server/CMakeFiles/light_switch_server_nrf52840_xxAA_s140_6.0.0.dir/__/__/__/mesh/core/src/flash_manager.c.obj
 .bss.m_cache_index
                0x2000518d        0x1 examples/light_switch/server/CMakeFiles/light_switch_server_nrf52840_xxAA_s140_6.0.0.dir/__/__/__/mesh/core/src/replay_cache.c.obj
 *fill*         0x2000518e        0x2 
 .bss.m_replay_cache
                0x20005190      0x200 examples/light_switch/server/CMakeFiles/light_switch_server_nrf52840_xxAA_s140_6.0.0.dir/__/__/__/mesh/core/src/replay_cache.c.obj
 .bss.m_bearer_count
                0x20005390        0x1 examples/light_switch/server/CMakeFiles/light_switch_server_nrf52840_xxAA_s140_6.0.0.dir/__/__/__/mesh/core/src/core_tx.c.obj
 *fill*         0x20005391        0x3 
 .bss.m_tx_complete_callback
                0x20005394        0x4 examples/light_switch/server/CMakeFiles/light_switch_server_nrf52840_xxAA_s140_6.0.0.dir/__/__/__/mesh/core/src/core_tx.c.obj
 .bss.mp_bearers
                0x20005398        0x4 examples/light_switch/server/CMakeFiles/light_switch_server_nrf52840_xxAA_s140_6.0.0.dir/__/__/__/mesh/core/src/core_tx.c.obj
 .bss.m_hb_core_evt_handler
                0x2000539c        0x8 examples/light_switch/server/CMakeFiles/light_switch_server_nrf52840_xxAA_s140_6.0.0.dir/__/__/__/mesh/core/src/heartbeat.c.obj
 .bss.m_hb_pending_feat_msg
                0x200053a4        0x1 examples/light_switch/server/CMakeFiles/light_switch_server_nrf52840_xxAA_s140_6.0.0.dir/__/__/__/mesh/core/src/heartbeat.c.obj
 .bss.m_hb_pending_pub_msg
                0x200053a5        0x1 examples/light_switch/server/CMakeFiles/light_switch_server_nrf52840_xxAA_s140_6.0.0.dir/__/__/__/mesh/core/src/heartbeat.c.obj
 .bss.m_heartbeat_init_done
                0x200053a6        0x1 examples/light_switch/server/CMakeFiles/light_switch_server_nrf52840_xxAA_s140_6.0.0.dir/__/__/__/mesh/core/src/heartbeat.c.obj
 *fill*         0x200053a7        0x1 
 .bss.m_heartbeat_subscription
                0x200053a8       0x10 examples/light_switch/server/CMakeFiles/light_switch_server_nrf52840_xxAA_s140_6.0.0.dir/__/__/__/mesh/core/src/heartbeat.c.obj
 .bss.m_publication_count_decrement_cb
                0x200053b8        0x4 examples/light_switch/server/CMakeFiles/light_switch_server_nrf52840_xxAA_s140_6.0.0.dir/__/__/__/mesh/core/src/heartbeat.c.obj
 .bss.m_publication_get_cb
                0x200053bc        0x4 examples/light_switch/server/CMakeFiles/light_switch_server_nrf52840_xxAA_s140_6.0.0.dir/__/__/__/mesh/core/src/heartbeat.c.obj
 .bss.m_publication_timer
                0x200053c0       0x1c examples/light_switch/server/CMakeFiles/light_switch_server_nrf52840_xxAA_s140_6.0.0.dir/__/__/__/mesh/core/src/heartbeat.c.obj
 .bss.m_subscription_timer
                0x200053dc       0x18 examples/light_switch/server/CMakeFiles/light_switch_server_nrf52840_xxAA_s140_6.0.0.dir/__/__/__/mesh/core/src/heartbeat.c.obj
 .bss.m_adv     0x200053f4       0x98 examples/light_switch/server/CMakeFiles/light_switch_server_nrf52840_xxAA_s140_6.0.0.dir/__/__/__/mesh/core/src/net_beacon.c.obj
 .bss.m_adv_buf
                0x2000548c       0x34 examples/light_switch/server/CMakeFiles/light_switch_server_nrf52840_xxAA_s140_6.0.0.dir/__/__/__/mesh/core/src/net_beacon.c.obj
 .bss.m_beacon_salt
                0x200054c0       0x10 examples/light_switch/server/CMakeFiles/light_switch_server_nrf52840_xxAA_s140_6.0.0.dir/__/__/__/mesh/core/src/net_beacon.c.obj
 .bss.m_enabled
                0x200054d0        0x1 examples/light_switch/server/CMakeFiles/light_switch_server_nrf52840_xxAA_s140_6.0.0.dir/__/__/__/mesh/core/src/net_beacon.c.obj
 *fill*         0x200054d1        0x3 
 .bss.m_tx_timer
                0x200054d4       0x18 examples/light_switch/server/CMakeFiles/light_switch_server_nrf52840_xxAA_s140_6.0.0.dir/__/__/__/mesh/core/src/net_beacon.c.obj
 .bss.mp_beacon_info
                0x200054ec        0x4 examples/light_switch/server/CMakeFiles/light_switch_server_nrf52840_xxAA_s140_6.0.0.dir/__/__/__/mesh/core/src/net_beacon.c.obj
 .bss.m_bearer  0x200054f0        0xc examples/light_switch/server/CMakeFiles/light_switch_server_nrf52840_xxAA_s140_6.0.0.dir/__/__/__/mesh/core/src/core_tx_adv.c.obj
 .bss.m_bearer_roles
                0x200054fc      0x138 examples/light_switch/server/CMakeFiles/light_switch_server_nrf52840_xxAA_s140_6.0.0.dir/__/__/__/mesh/core/src/core_tx_adv.c.obj
 .bss.m_current_alloc
                0x20005634        0x8 examples/light_switch/server/CMakeFiles/light_switch_server_nrf52840_xxAA_s140_6.0.0.dir/__/__/__/mesh/core/src/core_tx_adv.c.obj
 .bss.m_originator_adv_packet_buffer
                0x2000563c      0x100 examples/light_switch/server/CMakeFiles/light_switch_server_nrf52840_xxAA_s140_6.0.0.dir/__/__/__/mesh/core/src/core_tx_adv.c.obj
 .bss.m_relay_adv_packet_buffer
                0x2000573c       0x80 examples/light_switch/server/CMakeFiles/light_switch_server_nrf52840_xxAA_s140_6.0.0.dir/__/__/__/mesh/core/src/core_tx_adv.c.obj
 .bss.m_subscribers
                0x200057bc        0x4 examples/light_switch/server/CMakeFiles/light_switch_server_nrf52840_xxAA_s140_6.0.0.dir/__/__/__/mesh/bearer/src/ad_listener.c.obj
 .bss.m_adtype_filter
                0x200057c0       0x38 examples/light_switch/server/CMakeFiles/light_switch_server_nrf52840_xxAA_s140_6.0.0.dir/__/__/__/mesh/bearer/src/ad_type_filter.c.obj
 .bss.m_adv_prng
                0x200057f8       0x10 examples/light_switch/server/CMakeFiles/light_switch_server_nrf52840_xxAA_s140_6.0.0.dir/__/__/__/mesh/bearer/src/advertiser.c.obj
 .bss.m_action_queue
                0x20005808        0x8 examples/light_switch/server/CMakeFiles/light_switch_server_nrf52840_xxAA_s140_6.0.0.dir/__/__/__/mesh/bearer/src/bearer_handler.c.obj
 .bss.m_end_time
                0x20005810        0x4 examples/light_switch/server/CMakeFiles/light_switch_server_nrf52840_xxAA_s140_6.0.0.dir/__/__/__/mesh/bearer/src/bearer_handler.c.obj
 .bss.m_scanner_is_active
                0x20005814        0x1 examples/light_switch/server/CMakeFiles/light_switch_server_nrf52840_xxAA_s140_6.0.0.dir/__/__/__/mesh/bearer/src/bearer_handler.c.obj
 .bss.m_stopped
                0x20005815        0x1 examples/light_switch/server/CMakeFiles/light_switch_server_nrf52840_xxAA_s140_6.0.0.dir/__/__/__/mesh/bearer/src/bearer_handler.c.obj
 *fill*         0x20005816        0x2 
 .bss.mp_action
                0x20005818        0x4 examples/light_switch/server/CMakeFiles/light_switch_server_nrf52840_xxAA_s140_6.0.0.dir/__/__/__/mesh/bearer/src/bearer_handler.c.obj
 .bss.m_next_channel_index
                0x2000581c        0x1 examples/light_switch/server/CMakeFiles/light_switch_server_nrf52840_xxAA_s140_6.0.0.dir/__/__/__/mesh/bearer/src/broadcast.c.obj
 *fill*         0x2000581d        0x3 
 .bss.m_accepted_amount
                0x20005820        0x4 examples/light_switch/server/CMakeFiles/light_switch_server_nrf52840_xxAA_s140_6.0.0.dir/__/__/__/mesh/bearer/src/filter_engine.c.obj
 .bss.m_filter_list_head
                0x20005824        0x4 examples/light_switch/server/CMakeFiles/light_switch_server_nrf52840_xxAA_s140_6.0.0.dir/__/__/__/mesh/bearer/src/filter_engine.c.obj
 .bss.m_scanner
                0x20005828      0x290 examples/light_switch/server/CMakeFiles/light_switch_server_nrf52840_xxAA_s140_6.0.0.dir/__/__/__/mesh/bearer/src/scanner.c.obj
 .bss.m_evt_cb  0x20005ab8        0x4 examples/light_switch/server/CMakeFiles/light_switch_server_nrf52840_xxAA_s140_6.0.0.dir/__/__/__/models/config/src/config_server.c.obj
 .bss.m_heartbeat_publication
                0x20005abc       0x14 examples/light_switch/server/CMakeFiles/light_switch_server_nrf52840_xxAA_s140_6.0.0.dir/__/__/__/models/config/src/config_server.c.obj
 .bss.m_node_reset_pending
                0x20005ad0        0x1 examples/light_switch/server/CMakeFiles/light_switch_server_nrf52840_xxAA_s140_6.0.0.dir/__/__/__/models/config/src/config_server.c.obj
 *fill*         0x20005ad1        0x3 
 .bss.m_attention_timer
                0x20005ad4       0x18 examples/light_switch/server/CMakeFiles/light_switch_server_nrf52840_xxAA_s140_6.0.0.dir/__/__/__/models/health/src/health_server.c.obj
 .bss.mp_attention_list
                0x20005aec        0x4 examples/light_switch/server/CMakeFiles/light_switch_server_nrf52840_xxAA_s140_6.0.0.dir/__/__/__/models/health/src/health_server.c.obj
 .bss.m_publish_timer
                0x20005af0       0x18 examples/light_switch/server/CMakeFiles/light_switch_server_nrf52840_xxAA_s140_6.0.0.dir/__/__/__/mesh/access/src/access_publish.c.obj
 .bss.m_publish_timer_counter
                0x20005b08        0x4 examples/light_switch/server/CMakeFiles/light_switch_server_nrf52840_xxAA_s140_6.0.0.dir/__/__/__/mesh/access/src/access_publish.c.obj
 .bss.m_publish_timer_running
                0x20005b0c        0x1 examples/light_switch/server/CMakeFiles/light_switch_server_nrf52840_xxAA_s140_6.0.0.dir/__/__/__/mesh/access/src/access_publish.c.obj
 .bss.m_timer_resolution
                0x20005b0d        0x1 examples/light_switch/server/CMakeFiles/light_switch_server_nrf52840_xxAA_s140_6.0.0.dir/__/__/__/mesh/access/src/access_publish.c.obj
 *fill*         0x20005b0e        0x2 
 .bss.mp_publication_list
                0x20005b10        0x4 examples/light_switch/server/CMakeFiles/light_switch_server_nrf52840_xxAA_s140_6.0.0.dir/__/__/__/mesh/access/src/access_publish.c.obj
 .bss.m_element_pool
                0x20005b14        0x6 examples/light_switch/server/CMakeFiles/light_switch_server_nrf52840_xxAA_s140_6.0.0.dir/__/__/__/mesh/access/src/access.c.obj
 *fill*         0x20005b1a        0x2 
 .bss.m_evt_handler
                0x20005b1c        0x8 examples/light_switch/server/CMakeFiles/light_switch_server_nrf52840_xxAA_s140_6.0.0.dir/__/__/__/mesh/access/src/access.c.obj
 .bss.m_flash_manager
                0x20005b24       0x24 examples/light_switch/server/CMakeFiles/light_switch_server_nrf52840_xxAA_s140_6.0.0.dir/__/__/__/mesh/access/src/access.c.obj
 .bss.m_flash_not_ready
                0x20005b48        0x1 examples/light_switch/server/CMakeFiles/light_switch_server_nrf52840_xxAA_s140_6.0.0.dir/__/__/__/mesh/access/src/access.c.obj
 .bss.m_metadata_stored
                0x20005b49        0x1 examples/light_switch/server/CMakeFiles/light_switch_server_nrf52840_xxAA_s140_6.0.0.dir/__/__/__/mesh/access/src/access.c.obj
 *fill*         0x20005b4a        0x2 
 .bss.m_model_pool
                0x20005b4c       0x9c examples/light_switch/server/CMakeFiles/light_switch_server_nrf52840_xxAA_s140_6.0.0.dir/__/__/__/mesh/access/src/access.c.obj
 .bss.m_subscription_list_pool
                0x20005be8        0x8 examples/light_switch/server/CMakeFiles/light_switch_server_nrf52840_xxAA_s140_6.0.0.dir/__/__/__/mesh/access/src/access.c.obj
 .bss.m_reliable
                0x20005bf0       0xa0 examples/light_switch/server/CMakeFiles/light_switch_server_nrf52840_xxAA_s140_6.0.0.dir/__/__/__/mesh/access/src/access_reliable.c.obj
 .bss.m_addr_nonvirtual_allocated
                0x20005c90        0x4 examples/light_switch/server/CMakeFiles/light_switch_server_nrf52840_xxAA_s140_6.0.0.dir/__/__/__/mesh/access/src/device_state_manager.c.obj
 .bss.m_addr_nonvirtual_needs_flashing
                0x20005c94        0x4 examples/light_switch/server/CMakeFiles/light_switch_server_nrf52840_xxAA_s140_6.0.0.dir/__/__/__/mesh/access/src/device_state_manager.c.obj
 .bss.m_addr_unicast_allocated
                0x20005c98        0x4 examples/light_switch/server/CMakeFiles/light_switch_server_nrf52840_xxAA_s140_6.0.0.dir/__/__/__/mesh/access/src/device_state_manager.c.obj
 .bss.m_addr_unicast_needs_flashing
                0x20005c9c        0x4 examples/light_switch/server/CMakeFiles/light_switch_server_nrf52840_xxAA_s140_6.0.0.dir/__/__/__/mesh/access/src/device_state_manager.c.obj
 .bss.m_addr_virtual_allocated
                0x20005ca0        0x4 examples/light_switch/server/CMakeFiles/light_switch_server_nrf52840_xxAA_s140_6.0.0.dir/__/__/__/mesh/access/src/device_state_manager.c.obj
 .bss.m_addr_virtual_needs_flashing
                0x20005ca4        0x4 examples/light_switch/server/CMakeFiles/light_switch_server_nrf52840_xxAA_s140_6.0.0.dir/__/__/__/mesh/access/src/device_state_manager.c.obj
 .bss.m_addresses
                0x20005ca8        0xc examples/light_switch/server/CMakeFiles/light_switch_server_nrf52840_xxAA_s140_6.0.0.dir/__/__/__/mesh/access/src/device_state_manager.c.obj
 .bss.m_appkey_allocated
                0x20005cb4        0x4 examples/light_switch/server/CMakeFiles/light_switch_server_nrf52840_xxAA_s140_6.0.0.dir/__/__/__/mesh/access/src/device_state_manager.c.obj
 .bss.m_appkey_needs_flashing
                0x20005cb8        0x4 examples/light_switch/server/CMakeFiles/light_switch_server_nrf52840_xxAA_s140_6.0.0.dir/__/__/__/mesh/access/src/device_state_manager.c.obj
 .bss.m_appkeys
                0x20005cbc       0x2a examples/light_switch/server/CMakeFiles/light_switch_server_nrf52840_xxAA_s140_6.0.0.dir/__/__/__/mesh/access/src/device_state_manager.c.obj
 *fill*         0x20005ce6        0x2 
 .bss.m_devkey_allocated
                0x20005ce8        0x4 examples/light_switch/server/CMakeFiles/light_switch_server_nrf52840_xxAA_s140_6.0.0.dir/__/__/__/mesh/access/src/device_state_manager.c.obj
 .bss.m_devkey_needs_flashing
                0x20005cec        0x4 examples/light_switch/server/CMakeFiles/light_switch_server_nrf52840_xxAA_s140_6.0.0.dir/__/__/__/mesh/access/src/device_state_manager.c.obj
 .bss.m_devkeys
                0x20005cf0       0x16 examples/light_switch/server/CMakeFiles/light_switch_server_nrf52840_xxAA_s140_6.0.0.dir/__/__/__/mesh/access/src/device_state_manager.c.obj
 .bss.m_flash_is_available
                0x20005d06        0x1 examples/light_switch/server/CMakeFiles/light_switch_server_nrf52840_xxAA_s140_6.0.0.dir/__/__/__/mesh/access/src/device_state_manager.c.obj
 *fill*         0x20005d07        0x1 
 .bss.m_flash_manager
                0x20005d08       0x24 examples/light_switch/server/CMakeFiles/light_switch_server_nrf52840_xxAA_s140_6.0.0.dir/__/__/__/mesh/access/src/device_state_manager.c.obj
 .bss.m_flash_mem_listener_update_all
                0x20005d2c       0x10 examples/light_switch/server/CMakeFiles/light_switch_server_nrf52840_xxAA_s140_6.0.0.dir/__/__/__/mesh/access/src/device_state_manager.c.obj
 .bss.m_has_primary_subnet
                0x20005d3c        0x1 examples/light_switch/server/CMakeFiles/light_switch_server_nrf52840_xxAA_s140_6.0.0.dir/__/__/__/mesh/access/src/device_state_manager.c.obj
 *fill*         0x20005d3d        0x3 
 .bss.m_local_unicast_addr
                0x20005d40        0x4 examples/light_switch/server/CMakeFiles/light_switch_server_nrf52840_xxAA_s140_6.0.0.dir/__/__/__/mesh/access/src/device_state_manager.c.obj
 .bss.m_mesh_evt_handler
                0x20005d44        0x8 examples/light_switch/server/CMakeFiles/light_switch_server_nrf52840_xxAA_s140_6.0.0.dir/__/__/__/mesh/access/src/device_state_manager.c.obj
 .bss.m_subnet_allocated
                0x20005d4c        0x4 examples/light_switch/server/CMakeFiles/light_switch_server_nrf52840_xxAA_s140_6.0.0.dir/__/__/__/mesh/access/src/device_state_manager.c.obj
 .bss.m_subnet_needs_flashing
                0x20005d50        0x4 examples/light_switch/server/CMakeFiles/light_switch_server_nrf52840_xxAA_s140_6.0.0.dir/__/__/__/mesh/access/src/device_state_manager.c.obj
 .bss.m_subnets
                0x20005d54       0xa8 examples/light_switch/server/CMakeFiles/light_switch_server_nrf52840_xxAA_s140_6.0.0.dir/__/__/__/mesh/access/src/device_state_manager.c.obj
 .bss.m_virtual_addresses
                0x20005dfc       0x14 examples/light_switch/server/CMakeFiles/light_switch_server_nrf52840_xxAA_s140_6.0.0.dir/__/__/__/mesh/access/src/device_state_manager.c.obj
 .bss.m_event_handler
                0x20005e10        0x4 examples/light_switch/server/CMakeFiles/light_switch_server_nrf52840_xxAA_s140_6.0.0.dir/__/__/__/mesh/prov/src/prov_beacon.c.obj
 .bss.m_offload_ecdh
                0x20005e14        0x1 examples/light_switch/server/CMakeFiles/light_switch_server_nrf52840_xxAA_s140_6.0.0.dir/__/__/__/mesh/prov/src/prov_utils.c.obj
 *fill*         0x20005e15        0x3 
 .bss.mp_bearer_head
                0x20005e18        0x4 examples/light_switch/server/CMakeFiles/light_switch_server_nrf52840_xxAA_s140_6.0.0.dir/__/__/__/mesh/prov/src/prov_bearer_adv.c.obj
 .bss._acDownBuffer
                0x20005e1c       0x80 external/rtt/librtt_nrf52840_xxAA.a(SEGGER_RTT.c.obj)
 .bss._acUpBuffer
                0x20005e9c      0x400 external/rtt/librtt_nrf52840_xxAA.a(SEGGER_RTT.c.obj)
 .bss.__malloc_free_list
                0x2000629c        0x4 c:/mesh/arm_gcc/bin/../lib/gcc/arm-none-eabi/6.3.1/../../../../arm-none-eabi/lib/thumb/v7e-m/fpv4-sp/hard\libc_nano.a(lib_a-nano-mallocr.o)
                0x2000629c                __malloc_free_list
 .bss.__malloc_sbrk_start
                0x200062a0        0x4 c:/mesh/arm_gcc/bin/../lib/gcc/arm-none-eabi/6.3.1/../../../../arm-none-eabi/lib/thumb/v7e-m/fpv4-sp/hard\libc_nano.a(lib_a-nano-mallocr.o)
                0x200062a0                __malloc_sbrk_start
 .bss.heap_end.5239
                0x200062a4        0x4 c:/mesh/arm_gcc/bin/../lib/gcc/arm-none-eabi/6.3.1/../../../../arm-none-eabi/lib/thumb/v7e-m/fpv4-sp/hard\libnosys.a(sbrk.o)
 *(COMMON)
 COMMON         0x200062a8        0xc examples/light_switch/server/CMakeFiles/light_switch_server_nrf52840_xxAA_s140_6.0.0.dir/__/__/common/src/mesh_softdevice_init.c.obj
                0x200062a8                nrf_nvic_state
 COMMON         0x200062b4       0x24 examples/light_switch/server/CMakeFiles/light_switch_server_nrf52840_xxAA_s140_6.0.0.dir/__/__/__/mesh/core/src/core_tx.c.obj
                0x200062b4                m_packet
 COMMON         0x200062d8       0x78 external/rtt/librtt_nrf52840_xxAA.a(SEGGER_RTT.c.obj)
                0x200062d8                _SEGGER_RTT
 COMMON         0x20006350        0x4 c:/mesh/arm_gcc/bin/../lib/gcc/arm-none-eabi/6.3.1/../../../../arm-none-eabi/lib/thumb/v7e-m/fpv4-sp/hard\libc_nano.a(lib_a-reent.o)
                0x20006350                errno
                0x20006354                . = ALIGN (0x4)
                0x20006354                __bss_end__ = .

.heap           0x20006358     0x2000
                0x20006358                __HeapBase = .
                0x20006358                __end__ = .
                0x20006358                PROVIDE (end, .)
 *(.heap*)
 .heap          0x20006358     0x2000 examples/light_switch/server/CMakeFiles/light_switch_server_nrf52840_xxAA_s140_6.0.0.dir/C_/ver/mod/nRF5_SDK_15.0.0_a53641a/modules/nrfx/mdk/gcc_startup_nrf52840.S.obj
                0x20008358                __HeapLimit = .

.stack_dummy    0x20006358     0x2000
 *(.stack*)
 .stack         0x20006358     0x2000 examples/light_switch/server/CMakeFiles/light_switch_server_nrf52840_xxAA_s140_6.0.0.dir/C_/ver/mod/nRF5_SDK_15.0.0_a53641a/modules/nrfx/mdk/gcc_startup_nrf52840.S.obj
                0x2003fd00                __StackTop = (ORIGIN (RAM) + LENGTH (RAM))
                0x2003dd00                __StackLimit = (__StackTop - SIZEOF (.stack_dummy))
                0x2003fd00                PROVIDE (__stack, __StackTop)
                0x00000001                ASSERT ((__StackLimit >= __HeapLimit), region RAM overflowed with stack)
                0x00000148                DataInitFlashUsed = (__bss_start__ - __data_start__)
                0x0001bfc0                CodeFlashUsed = (__etext - ORIGIN (FLASH))
                0x0001c108                TotalFlashUsed = (CodeFlashUsed + DataInitFlashUsed)
                0x00000001                ASSERT ((TotalFlashUsed <= LENGTH (FLASH)), region FLASH overflowed with .data and user data)
OUTPUT(examples\light_switch\server\light_switch_server_nrf52840_xxAA_s140_6.0.0.elf elf32-littlearm)

.ARM.attributes
                0x00000000       0x30
 .ARM.attributes
                0x00000000       0x22 c:/mesh/arm_gcc/bin/../lib/gcc/arm-none-eabi/6.3.1/thumb/v7e-m/fpv4-sp/hard/crti.o
 .ARM.attributes
                0x00000022       0x34 c:/mesh/arm_gcc/bin/../lib/gcc/arm-none-eabi/6.3.1/thumb/v7e-m/fpv4-sp/hard/crtbegin.o
 .ARM.attributes
                0x00000056       0x20 c:/mesh/arm_gcc/bin/../lib/gcc/arm-none-eabi/6.3.1/../../../../arm-none-eabi/lib/thumb/v7e-m/fpv4-sp/hard/crt0.o
 .ARM.attributes
                0x00000076       0x39 examples/light_switch/server/CMakeFiles/light_switch_server_nrf52840_xxAA_s140_6.0.0.dir/src/main.c.obj
 .ARM.attributes
                0x000000af       0x39 examples/light_switch/server/CMakeFiles/light_switch_server_nrf52840_xxAA_s140_6.0.0.dir/__/__/__/mesh/stack/src/mesh_stack.c.obj
 .ARM.attributes
                0x000000e8       0x39 examples/light_switch/server/CMakeFiles/light_switch_server_nrf52840_xxAA_s140_6.0.0.dir/__/__/common/src/mesh_softdevice_init.c.obj
 .ARM.attributes
                0x00000121       0x39 examples/light_switch/server/CMakeFiles/light_switch_server_nrf52840_xxAA_s140_6.0.0.dir/__/__/common/src/mesh_provisionee.c.obj
 .ARM.attributes
                0x0000015a       0x39 examples/light_switch/server/CMakeFiles/light_switch_server_nrf52840_xxAA_s140_6.0.0.dir/__/__/common/src/rtt_input.c.obj
 .ARM.attributes
                0x00000193       0x39 examples/light_switch/server/CMakeFiles/light_switch_server_nrf52840_xxAA_s140_6.0.0.dir/__/__/common/src/simple_hal.c.obj
 .ARM.attributes
                0x000001cc       0x39 examples/light_switch/server/CMakeFiles/light_switch_server_nrf52840_xxAA_s140_6.0.0.dir/__/__/common/src/mesh_app_utils.c.obj
 .ARM.attributes
                0x00000205       0x39 examples/light_switch/server/CMakeFiles/light_switch_server_nrf52840_xxAA_s140_6.0.0.dir/__/__/nrf_mesh_weak.c.obj
 .ARM.attributes
                0x0000023e       0x39 examples/light_switch/server/CMakeFiles/light_switch_server_nrf52840_xxAA_s140_6.0.0.dir/__/__/common/src/app_error_weak.c.obj
 .ARM.attributes
                0x00000277       0x39 examples/light_switch/server/CMakeFiles/light_switch_server_nrf52840_xxAA_s140_6.0.0.dir/__/__/common/src/assertion_handler_weak.c.obj
 .ARM.attributes
                0x000002b0       0x39 examples/light_switch/server/CMakeFiles/light_switch_server_nrf52840_xxAA_s140_6.0.0.dir/__/__/__/mesh/core/src/nrf_mesh_configure.c.obj
 .ARM.attributes
                0x000002e9       0x39 examples/light_switch/server/CMakeFiles/light_switch_server_nrf52840_xxAA_s140_6.0.0.dir/__/__/__/mesh/core/src/aes.c.obj
 .ARM.attributes
                0x00000322       0x39 examples/light_switch/server/CMakeFiles/light_switch_server_nrf52840_xxAA_s140_6.0.0.dir/__/__/__/mesh/core/src/msg_cache.c.obj
 .ARM.attributes
                0x0000035b       0x39 examples/light_switch/server/CMakeFiles/light_switch_server_nrf52840_xxAA_s140_6.0.0.dir/__/__/__/mesh/core/src/transport.c.obj
 .ARM.attributes
                0x00000394       0x39 examples/light_switch/server/CMakeFiles/light_switch_server_nrf52840_xxAA_s140_6.0.0.dir/__/__/__/mesh/core/src/event.c.obj
 .ARM.attributes
                0x000003cd       0x39 examples/light_switch/server/CMakeFiles/light_switch_server_nrf52840_xxAA_s140_6.0.0.dir/__/__/__/mesh/core/src/packet_buffer.c.obj
 .ARM.attributes
                0x00000406       0x39 examples/light_switch/server/CMakeFiles/light_switch_server_nrf52840_xxAA_s140_6.0.0.dir/__/__/__/mesh/core/src/flash_manager_defrag.c.obj
 .ARM.attributes
                0x0000043f       0x39 examples/light_switch/server/CMakeFiles/light_switch_server_nrf52840_xxAA_s140_6.0.0.dir/__/__/__/mesh/core/src/fifo.c.obj
 .ARM.attributes
                0x00000478       0x39 examples/light_switch/server/CMakeFiles/light_switch_server_nrf52840_xxAA_s140_6.0.0.dir/__/__/__/mesh/core/src/nrf_flash.c.obj
 .ARM.attributes
                0x000004b1       0x39 examples/light_switch/server/CMakeFiles/light_switch_server_nrf52840_xxAA_s140_6.0.0.dir/__/__/__/mesh/core/src/packet_mgr.c.obj
 .ARM.attributes
                0x000004ea       0x39 examples/light_switch/server/CMakeFiles/light_switch_server_nrf52840_xxAA_s140_6.0.0.dir/__/__/__/mesh/core/src/net_state.c.obj
 .ARM.attributes
                0x00000523       0x39 examples/light_switch/server/CMakeFiles/light_switch_server_nrf52840_xxAA_s140_6.0.0.dir/__/__/__/mesh/core/src/mesh_flash.c.obj
 .ARM.attributes
                0x0000055c       0x39 examples/light_switch/server/CMakeFiles/light_switch_server_nrf52840_xxAA_s140_6.0.0.dir/__/__/__/mesh/core/src/nrf_mesh_utils.c.obj
 .ARM.attributes
                0x00000595       0x39 examples/light_switch/server/CMakeFiles/light_switch_server_nrf52840_xxAA_s140_6.0.0.dir/__/__/__/mesh/core/src/nrf_mesh.c.obj
 .ARM.attributes
                0x000005ce       0x39 examples/light_switch/server/CMakeFiles/light_switch_server_nrf52840_xxAA_s140_6.0.0.dir/__/__/__/mesh/core/src/queue.c.obj
 .ARM.attributes
                0x00000607       0x39 examples/light_switch/server/CMakeFiles/light_switch_server_nrf52840_xxAA_s140_6.0.0.dir/__/__/__/mesh/core/src/hal.c.obj
 .ARM.attributes
                0x00000640       0x39 examples/light_switch/server/CMakeFiles/light_switch_server_nrf52840_xxAA_s140_6.0.0.dir/__/__/__/mesh/core/src/aes_cmac.c.obj
 .ARM.attributes
                0x00000679       0x39 examples/light_switch/server/CMakeFiles/light_switch_server_nrf52840_xxAA_s140_6.0.0.dir/__/__/__/mesh/core/src/timer_scheduler.c.obj
 .ARM.attributes
                0x000006b2       0x39 examples/light_switch/server/CMakeFiles/light_switch_server_nrf52840_xxAA_s140_6.0.0.dir/__/__/__/mesh/core/src/timer.c.obj
 .ARM.attributes
                0x000006eb       0x39 examples/light_switch/server/CMakeFiles/light_switch_server_nrf52840_xxAA_s140_6.0.0.dir/__/__/__/mesh/core/src/ticker.c.obj
 .ARM.attributes
                0x00000724       0x39 examples/light_switch/server/CMakeFiles/light_switch_server_nrf52840_xxAA_s140_6.0.0.dir/__/__/__/mesh/core/src/rand.c.obj
 .ARM.attributes
                0x0000075d       0x39 examples/light_switch/server/CMakeFiles/light_switch_server_nrf52840_xxAA_s140_6.0.0.dir/__/__/__/mesh/core/src/nrf_mesh_opt.c.obj
 .ARM.attributes
                0x00000796       0x39 examples/light_switch/server/CMakeFiles/light_switch_server_nrf52840_xxAA_s140_6.0.0.dir/__/__/__/mesh/core/src/timeslot.c.obj
 .ARM.attributes
                0x000007cf       0x39 examples/light_switch/server/CMakeFiles/light_switch_server_nrf52840_xxAA_s140_6.0.0.dir/__/__/__/mesh/core/src/bearer_event.c.obj
 .ARM.attributes
                0x00000808       0x39 examples/light_switch/server/CMakeFiles/light_switch_server_nrf52840_xxAA_s140_6.0.0.dir/__/__/__/mesh/core/src/enc.c.obj
 .ARM.attributes
                0x00000841       0x39 examples/light_switch/server/CMakeFiles/light_switch_server_nrf52840_xxAA_s140_6.0.0.dir/__/__/__/mesh/core/src/network.c.obj
 .ARM.attributes
                0x0000087a       0x39 examples/light_switch/server/CMakeFiles/light_switch_server_nrf52840_xxAA_s140_6.0.0.dir/__/__/__/mesh/core/src/net_packet.c.obj
 .ARM.attributes
                0x000008b3       0x39 examples/light_switch/server/CMakeFiles/light_switch_server_nrf52840_xxAA_s140_6.0.0.dir/__/__/__/mesh/core/src/msqueue.c.obj
 .ARM.attributes
                0x000008ec       0x39 examples/light_switch/server/CMakeFiles/light_switch_server_nrf52840_xxAA_s140_6.0.0.dir/__/__/__/mesh/core/src/nrf_mesh_keygen.c.obj
 .ARM.attributes
                0x00000925       0x39 examples/light_switch/server/CMakeFiles/light_switch_server_nrf52840_xxAA_s140_6.0.0.dir/__/__/__/mesh/core/src/list.c.obj
 .ARM.attributes
                0x0000095e       0x39 examples/light_switch/server/CMakeFiles/light_switch_server_nrf52840_xxAA_s140_6.0.0.dir/__/__/__/mesh/core/src/log.c.obj
 .ARM.attributes
                0x00000997       0x39 examples/light_switch/server/CMakeFiles/light_switch_server_nrf52840_xxAA_s140_6.0.0.dir/__/__/__/mesh/core/src/flash_manager.c.obj
 .ARM.attributes
                0x000009d0       0x39 examples/light_switch/server/CMakeFiles/light_switch_server_nrf52840_xxAA_s140_6.0.0.dir/__/__/__/mesh/core/src/ccm_soft.c.obj
 .ARM.attributes
                0x00000a09       0x39 examples/light_switch/server/CMakeFiles/light_switch_server_nrf52840_xxAA_s140_6.0.0.dir/__/__/__/mesh/core/src/replay_cache.c.obj
 .ARM.attributes
                0x00000a42       0x39 examples/light_switch/server/CMakeFiles/light_switch_server_nrf52840_xxAA_s140_6.0.0.dir/__/__/__/mesh/core/src/beacon.c.obj
 .ARM.attributes
                0x00000a7b       0x39 examples/light_switch/server/CMakeFiles/light_switch_server_nrf52840_xxAA_s140_6.0.0.dir/__/__/__/mesh/core/src/flash_manager_internal.c.obj
 .ARM.attributes
                0x00000ab4       0x39 examples/light_switch/server/CMakeFiles/light_switch_server_nrf52840_xxAA_s140_6.0.0.dir/__/__/__/mesh/core/src/core_tx.c.obj
 .ARM.attributes
                0x00000aed       0x39 examples/light_switch/server/CMakeFiles/light_switch_server_nrf52840_xxAA_s140_6.0.0.dir/__/__/__/mesh/core/src/heartbeat.c.obj
 .ARM.attributes
                0x00000b26       0x39 examples/light_switch/server/CMakeFiles/light_switch_server_nrf52840_xxAA_s140_6.0.0.dir/__/__/__/mesh/core/src/net_beacon.c.obj
 .ARM.attributes
                0x00000b5f       0x39 examples/light_switch/server/CMakeFiles/light_switch_server_nrf52840_xxAA_s140_6.0.0.dir/__/__/__/mesh/core/src/core_tx_adv.c.obj
 .ARM.attributes
                0x00000b98       0x39 examples/light_switch/server/CMakeFiles/light_switch_server_nrf52840_xxAA_s140_6.0.0.dir/__/__/__/mesh/bearer/src/ad_listener.c.obj
 .ARM.attributes
                0x00000bd1       0x39 examples/light_switch/server/CMakeFiles/light_switch_server_nrf52840_xxAA_s140_6.0.0.dir/__/__/__/mesh/bearer/src/ad_type_filter.c.obj
 .ARM.attributes
                0x00000c0a       0x39 examples/light_switch/server/CMakeFiles/light_switch_server_nrf52840_xxAA_s140_6.0.0.dir/__/__/__/mesh/bearer/src/advertiser.c.obj
 .ARM.attributes
                0x00000c43       0x39 examples/light_switch/server/CMakeFiles/light_switch_server_nrf52840_xxAA_s140_6.0.0.dir/__/__/__/mesh/bearer/src/bearer_handler.c.obj
 .ARM.attributes
                0x00000c7c       0x39 examples/light_switch/server/CMakeFiles/light_switch_server_nrf52840_xxAA_s140_6.0.0.dir/__/__/__/mesh/bearer/src/broadcast.c.obj
 .ARM.attributes
                0x00000cb5       0x39 examples/light_switch/server/CMakeFiles/light_switch_server_nrf52840_xxAA_s140_6.0.0.dir/__/__/__/mesh/bearer/src/filter_engine.c.obj
 .ARM.attributes
                0x00000cee       0x39 examples/light_switch/server/CMakeFiles/light_switch_server_nrf52840_xxAA_s140_6.0.0.dir/__/__/__/mesh/bearer/src/radio_config.c.obj
 .ARM.attributes
                0x00000d27       0x39 examples/light_switch/server/CMakeFiles/light_switch_server_nrf52840_xxAA_s140_6.0.0.dir/__/__/__/mesh/bearer/src/scanner.c.obj
 .ARM.attributes
                0x00000d60       0x39 examples/light_switch/server/CMakeFiles/light_switch_server_nrf52840_xxAA_s140_6.0.0.dir/__/__/__/models/simple_on_off/src/simple_on_off_server.c.obj
 .ARM.attributes
                0x00000d99       0x39 examples/light_switch/server/CMakeFiles/light_switch_server_nrf52840_xxAA_s140_6.0.0.dir/__/__/__/models/config/src/composition_data.c.obj
 .ARM.attributes
                0x00000dd2       0x39 examples/light_switch/server/CMakeFiles/light_switch_server_nrf52840_xxAA_s140_6.0.0.dir/__/__/__/models/config/src/config_server.c.obj
 .ARM.attributes
                0x00000e0b       0x39 examples/light_switch/server/CMakeFiles/light_switch_server_nrf52840_xxAA_s140_6.0.0.dir/__/__/__/models/config/src/packed_index_list.c.obj
 .ARM.attributes
                0x00000e44       0x39 examples/light_switch/server/CMakeFiles/light_switch_server_nrf52840_xxAA_s140_6.0.0.dir/__/__/__/models/health/src/health_server.c.obj
 .ARM.attributes
                0x00000e7d       0x39 examples/light_switch/server/CMakeFiles/light_switch_server_nrf52840_xxAA_s140_6.0.0.dir/__/__/__/mesh/access/src/access_publish.c.obj
 .ARM.attributes
                0x00000eb6       0x39 examples/light_switch/server/CMakeFiles/light_switch_server_nrf52840_xxAA_s140_6.0.0.dir/__/__/__/mesh/access/src/access.c.obj
 .ARM.attributes
                0x00000eef       0x39 examples/light_switch/server/CMakeFiles/light_switch_server_nrf52840_xxAA_s140_6.0.0.dir/__/__/__/mesh/access/src/access_reliable.c.obj
 .ARM.attributes
                0x00000f28       0x39 examples/light_switch/server/CMakeFiles/light_switch_server_nrf52840_xxAA_s140_6.0.0.dir/__/__/__/mesh/access/src/device_state_manager.c.obj
 .ARM.attributes
                0x00000f61       0x39 examples/light_switch/server/CMakeFiles/light_switch_server_nrf52840_xxAA_s140_6.0.0.dir/__/__/__/mesh/prov/src/prov_provisionee.c.obj
 .ARM.attributes
                0x00000f9a       0x39 examples/light_switch/server/CMakeFiles/light_switch_server_nrf52840_xxAA_s140_6.0.0.dir/__/__/__/mesh/prov/src/nrf_mesh_prov.c.obj
 .ARM.attributes
                0x00000fd3       0x39 examples/light_switch/server/CMakeFiles/light_switch_server_nrf52840_xxAA_s140_6.0.0.dir/__/__/__/mesh/prov/src/provisioning.c.obj
 .ARM.attributes
                0x0000100c       0x39 examples/light_switch/server/CMakeFiles/light_switch_server_nrf52840_xxAA_s140_6.0.0.dir/__/__/__/mesh/prov/src/prov_beacon.c.obj
 .ARM.attributes
                0x00001045       0x39 examples/light_switch/server/CMakeFiles/light_switch_server_nrf52840_xxAA_s140_6.0.0.dir/__/__/__/mesh/prov/src/prov_utils.c.obj
 .ARM.attributes
                0x0000107e       0x39 examples/light_switch/server/CMakeFiles/light_switch_server_nrf52840_xxAA_s140_6.0.0.dir/__/__/__/mesh/prov/src/prov_bearer_adv.c.obj
 .ARM.attributes
                0x000010b7       0x39 examples/light_switch/server/CMakeFiles/light_switch_server_nrf52840_xxAA_s140_6.0.0.dir/C_/ver/mod/nRF5_SDK_15.0.0_a53641a/modules/nrfx/mdk/system_nrf52840.c.obj
 .ARM.attributes
                0x000010f0       0x20 examples/light_switch/server/CMakeFiles/light_switch_server_nrf52840_xxAA_s140_6.0.0.dir/C_/ver/mod/nRF5_SDK_15.0.0_a53641a/modules/nrfx/mdk/gcc_startup_nrf52840.S.obj
 .ARM.attributes
                0x00001110       0x39 examples/light_switch/server/CMakeFiles/light_switch_server_nrf52840_xxAA_s140_6.0.0.dir/C_/ver/mod/nRF5_SDK_15.0.0_a53641a/components/libraries/util/app_error.c.obj
 .ARM.attributes
                0x00001149       0x39 examples/light_switch/server/CMakeFiles/light_switch_server_nrf52840_xxAA_s140_6.0.0.dir/C_/ver/mod/nRF5_SDK_15.0.0_a53641a/components/libraries/util/app_error_handler_gcc.c.obj
 .ARM.attributes
                0x00001182       0x39 external/rtt/librtt_nrf52840_xxAA.a(SEGGER_RTT.c.obj)
 .ARM.attributes
                0x000011bb       0x39 external/rtt/librtt_nrf52840_xxAA.a(SEGGER_RTT_printf.c.obj)
 .ARM.attributes
                0x000011f4       0x39 external/micro-ecc/libuECC_nrf52840_xxAA.a(uECC.c.obj)
 .ARM.attributes
                0x0000122d       0x22 c:/mesh/arm_gcc/bin/../lib/gcc/arm-none-eabi/6.3.1/thumb/v7e-m/fpv4-sp/hard\libgcc.a(_aeabi_uldivmod.o)
 .ARM.attributes
                0x0000124f       0x34 c:/mesh/arm_gcc/bin/../lib/gcc/arm-none-eabi/6.3.1/thumb/v7e-m/fpv4-sp/hard\libgcc.a(_udivmoddi4.o)
 .ARM.attributes
                0x00001283       0x22 c:/mesh/arm_gcc/bin/../lib/gcc/arm-none-eabi/6.3.1/thumb/v7e-m/fpv4-sp/hard\libgcc.a(_dvmd_tls.o)
 .ARM.attributes
                0x000012a5       0x34 c:/mesh/arm_gcc/bin/../lib/gcc/arm-none-eabi/6.3.1/../../../../arm-none-eabi/lib/thumb/v7e-m/fpv4-sp/hard\libc_nano.a(lib_a-exit.o)
 .ARM.attributes
                0x000012d9       0x34 c:/mesh/arm_gcc/bin/../lib/gcc/arm-none-eabi/6.3.1/../../../../arm-none-eabi/lib/thumb/v7e-m/fpv4-sp/hard\libc_nano.a(lib_a-impure.o)
 .ARM.attributes
                0x0000130d       0x34 c:/mesh/arm_gcc/bin/../lib/gcc/arm-none-eabi/6.3.1/../../../../arm-none-eabi/lib/thumb/v7e-m/fpv4-sp/hard\libc_nano.a(lib_a-init.o)
 .ARM.attributes
                0x00001341       0x34 c:/mesh/arm_gcc/bin/../lib/gcc/arm-none-eabi/6.3.1/../../../../arm-none-eabi/lib/thumb/v7e-m/fpv4-sp/hard\libc_nano.a(lib_a-malloc.o)
 .ARM.attributes
                0x00001375       0x34 c:/mesh/arm_gcc/bin/../lib/gcc/arm-none-eabi/6.3.1/../../../../arm-none-eabi/lib/thumb/v7e-m/fpv4-sp/hard\libc_nano.a(lib_a-memcmp.o)
 .ARM.attributes
                0x000013a9       0x34 c:/mesh/arm_gcc/bin/../lib/gcc/arm-none-eabi/6.3.1/../../../../arm-none-eabi/lib/thumb/v7e-m/fpv4-sp/hard\libc_nano.a(lib_a-memcpy-stub.o)
 .ARM.attributes
                0x000013dd       0x34 c:/mesh/arm_gcc/bin/../lib/gcc/arm-none-eabi/6.3.1/../../../../arm-none-eabi/lib/thumb/v7e-m/fpv4-sp/hard\libc_nano.a(lib_a-memset.o)
 .ARM.attributes
                0x00001411       0x34 c:/mesh/arm_gcc/bin/../lib/gcc/arm-none-eabi/6.3.1/../../../../arm-none-eabi/lib/thumb/v7e-m/fpv4-sp/hard\libc_nano.a(lib_a-nano-freer.o)
 .ARM.attributes
                0x00001445       0x34 c:/mesh/arm_gcc/bin/../lib/gcc/arm-none-eabi/6.3.1/../../../../arm-none-eabi/lib/thumb/v7e-m/fpv4-sp/hard\libc_nano.a(lib_a-nano-mallocr.o)
 .ARM.attributes
                0x00001479       0x34 c:/mesh/arm_gcc/bin/../lib/gcc/arm-none-eabi/6.3.1/../../../../arm-none-eabi/lib/thumb/v7e-m/fpv4-sp/hard\libc_nano.a(lib_a-sbrkr.o)
 .ARM.attributes
                0x000014ad       0x34 c:/mesh/arm_gcc/bin/../lib/gcc/arm-none-eabi/6.3.1/../../../../arm-none-eabi/lib/thumb/v7e-m/fpv4-sp/hard\libc_nano.a(lib_a-strcpy.o)
 .ARM.attributes
                0x000014e1       0x1b c:/mesh/arm_gcc/bin/../lib/gcc/arm-none-eabi/6.3.1/../../../../arm-none-eabi/lib/thumb/v7e-m/fpv4-sp/hard\libc_nano.a(lib_a-strlen.o)
 .ARM.attributes
                0x000014fc       0x34 c:/mesh/arm_gcc/bin/../lib/gcc/arm-none-eabi/6.3.1/../../../../arm-none-eabi/lib/thumb/v7e-m/fpv4-sp/hard\libc_nano.a(lib_a-strrchr.o)
 .ARM.attributes
                0x00001530       0x34 c:/mesh/arm_gcc/bin/../lib/gcc/arm-none-eabi/6.3.1/../../../../arm-none-eabi/lib/thumb/v7e-m/fpv4-sp/hard\libc_nano.a(lib_a-mlock.o)
 .ARM.attributes
                0x00001564       0x34 c:/mesh/arm_gcc/bin/../lib/gcc/arm-none-eabi/6.3.1/../../../../arm-none-eabi/lib/thumb/v7e-m/fpv4-sp/hard\libc_nano.a(lib_a-reent.o)
 .ARM.attributes
                0x00001598       0x34 c:/mesh/arm_gcc/bin/../lib/gcc/arm-none-eabi/6.3.1/../../../../arm-none-eabi/lib/thumb/v7e-m/fpv4-sp/hard\libc_nano.a(lib_a-strchr.o)
 .ARM.attributes
                0x000015cc       0x34 c:/mesh/arm_gcc/bin/../lib/gcc/arm-none-eabi/6.3.1/thumb/v7e-m/fpv4-sp/hard/crtend.o
 .ARM.attributes
                0x00001600       0x22 c:/mesh/arm_gcc/bin/../lib/gcc/arm-none-eabi/6.3.1/thumb/v7e-m/fpv4-sp/hard/crtn.o
 .ARM.attributes
                0x00001622       0x34 c:/mesh/arm_gcc/bin/../lib/gcc/arm-none-eabi/6.3.1/../../../../arm-none-eabi/lib/thumb/v7e-m/fpv4-sp/hard\libnosys.a(sbrk.o)
 .ARM.attributes
                0x00001656       0x34 c:/mesh/arm_gcc/bin/../lib/gcc/arm-none-eabi/6.3.1/../../../../arm-none-eabi/lib/thumb/v7e-m/fpv4-sp/hard\libnosys.a(_exit.o)

.comment        0x00000000       0x7f
 .comment       0x00000000       0x7f examples/light_switch/server/CMakeFiles/light_switch_server_nrf52840_xxAA_s140_6.0.0.dir/src/main.c.obj
                                 0x80 (size before relaxing)
 .comment       0x0000007f       0x80 examples/light_switch/server/CMakeFiles/light_switch_server_nrf52840_xxAA_s140_6.0.0.dir/__/__/__/mesh/stack/src/mesh_stack.c.obj
 .comment       0x0000007f       0x80 examples/light_switch/server/CMakeFiles/light_switch_server_nrf52840_xxAA_s140_6.0.0.dir/__/__/common/src/mesh_softdevice_init.c.obj
 .comment       0x0000007f       0x80 examples/light_switch/server/CMakeFiles/light_switch_server_nrf52840_xxAA_s140_6.0.0.dir/__/__/common/src/mesh_provisionee.c.obj
 .comment       0x0000007f       0x80 examples/light_switch/server/CMakeFiles/light_switch_server_nrf52840_xxAA_s140_6.0.0.dir/__/__/common/src/rtt_input.c.obj
 .comment       0x0000007f       0x80 examples/light_switch/server/CMakeFiles/light_switch_server_nrf52840_xxAA_s140_6.0.0.dir/__/__/common/src/simple_hal.c.obj
 .comment       0x0000007f       0x80 examples/light_switch/server/CMakeFiles/light_switch_server_nrf52840_xxAA_s140_6.0.0.dir/__/__/common/src/mesh_app_utils.c.obj
 .comment       0x0000007f       0x80 examples/light_switch/server/CMakeFiles/light_switch_server_nrf52840_xxAA_s140_6.0.0.dir/__/__/nrf_mesh_weak.c.obj
 .comment       0x0000007f       0x80 examples/light_switch/server/CMakeFiles/light_switch_server_nrf52840_xxAA_s140_6.0.0.dir/__/__/common/src/app_error_weak.c.obj
 .comment       0x0000007f       0x80 examples/light_switch/server/CMakeFiles/light_switch_server_nrf52840_xxAA_s140_6.0.0.dir/__/__/common/src/assertion_handler_weak.c.obj
 .comment       0x0000007f       0x80 examples/light_switch/server/CMakeFiles/light_switch_server_nrf52840_xxAA_s140_6.0.0.dir/__/__/__/mesh/core/src/nrf_mesh_configure.c.obj
 .comment       0x0000007f       0x80 examples/light_switch/server/CMakeFiles/light_switch_server_nrf52840_xxAA_s140_6.0.0.dir/__/__/__/mesh/core/src/aes.c.obj
 .comment       0x0000007f       0x80 examples/light_switch/server/CMakeFiles/light_switch_server_nrf52840_xxAA_s140_6.0.0.dir/__/__/__/mesh/core/src/msg_cache.c.obj
 .comment       0x0000007f       0x80 examples/light_switch/server/CMakeFiles/light_switch_server_nrf52840_xxAA_s140_6.0.0.dir/__/__/__/mesh/core/src/transport.c.obj
 .comment       0x0000007f       0x80 examples/light_switch/server/CMakeFiles/light_switch_server_nrf52840_xxAA_s140_6.0.0.dir/__/__/__/mesh/core/src/event.c.obj
 .comment       0x0000007f       0x80 examples/light_switch/server/CMakeFiles/light_switch_server_nrf52840_xxAA_s140_6.0.0.dir/__/__/__/mesh/core/src/packet_buffer.c.obj
 .comment       0x0000007f       0x80 examples/light_switch/server/CMakeFiles/light_switch_server_nrf52840_xxAA_s140_6.0.0.dir/__/__/__/mesh/core/src/flash_manager_defrag.c.obj
 .comment       0x0000007f       0x80 examples/light_switch/server/CMakeFiles/light_switch_server_nrf52840_xxAA_s140_6.0.0.dir/__/__/__/mesh/core/src/fifo.c.obj
 .comment       0x0000007f       0x80 examples/light_switch/server/CMakeFiles/light_switch_server_nrf52840_xxAA_s140_6.0.0.dir/__/__/__/mesh/core/src/nrf_flash.c.obj
 .comment       0x0000007f       0x80 examples/light_switch/server/CMakeFiles/light_switch_server_nrf52840_xxAA_s140_6.0.0.dir/__/__/__/mesh/core/src/packet_mgr.c.obj
 .comment       0x0000007f       0x80 examples/light_switch/server/CMakeFiles/light_switch_server_nrf52840_xxAA_s140_6.0.0.dir/__/__/__/mesh/core/src/net_state.c.obj
 .comment       0x0000007f       0x80 examples/light_switch/server/CMakeFiles/light_switch_server_nrf52840_xxAA_s140_6.0.0.dir/__/__/__/mesh/core/src/mesh_flash.c.obj
 .comment       0x0000007f       0x80 examples/light_switch/server/CMakeFiles/light_switch_server_nrf52840_xxAA_s140_6.0.0.dir/__/__/__/mesh/core/src/nrf_mesh_utils.c.obj
 .comment       0x0000007f       0x80 examples/light_switch/server/CMakeFiles/light_switch_server_nrf52840_xxAA_s140_6.0.0.dir/__/__/__/mesh/core/src/nrf_mesh.c.obj
 .comment       0x0000007f       0x80 examples/light_switch/server/CMakeFiles/light_switch_server_nrf52840_xxAA_s140_6.0.0.dir/__/__/__/mesh/core/src/queue.c.obj
 .comment       0x0000007f       0x80 examples/light_switch/server/CMakeFiles/light_switch_server_nrf52840_xxAA_s140_6.0.0.dir/__/__/__/mesh/core/src/hal.c.obj
 .comment       0x0000007f       0x80 examples/light_switch/server/CMakeFiles/light_switch_server_nrf52840_xxAA_s140_6.0.0.dir/__/__/__/mesh/core/src/aes_cmac.c.obj
 .comment       0x0000007f       0x80 examples/light_switch/server/CMakeFiles/light_switch_server_nrf52840_xxAA_s140_6.0.0.dir/__/__/__/mesh/core/src/timer_scheduler.c.obj
 .comment       0x0000007f       0x80 examples/light_switch/server/CMakeFiles/light_switch_server_nrf52840_xxAA_s140_6.0.0.dir/__/__/__/mesh/core/src/timer.c.obj
 .comment       0x0000007f       0x80 examples/light_switch/server/CMakeFiles/light_switch_server_nrf52840_xxAA_s140_6.0.0.dir/__/__/__/mesh/core/src/ticker.c.obj
 .comment       0x0000007f       0x80 examples/light_switch/server/CMakeFiles/light_switch_server_nrf52840_xxAA_s140_6.0.0.dir/__/__/__/mesh/core/src/rand.c.obj
 .comment       0x0000007f       0x80 examples/light_switch/server/CMakeFiles/light_switch_server_nrf52840_xxAA_s140_6.0.0.dir/__/__/__/mesh/core/src/nrf_mesh_opt.c.obj
 .comment       0x0000007f       0x80 examples/light_switch/server/CMakeFiles/light_switch_server_nrf52840_xxAA_s140_6.0.0.dir/__/__/__/mesh/core/src/timeslot.c.obj
 .comment       0x0000007f       0x80 examples/light_switch/server/CMakeFiles/light_switch_server_nrf52840_xxAA_s140_6.0.0.dir/__/__/__/mesh/core/src/bearer_event.c.obj
 .comment       0x0000007f       0x80 examples/light_switch/server/CMakeFiles/light_switch_server_nrf52840_xxAA_s140_6.0.0.dir/__/__/__/mesh/core/src/enc.c.obj
 .comment       0x0000007f       0x80 examples/light_switch/server/CMakeFiles/light_switch_server_nrf52840_xxAA_s140_6.0.0.dir/__/__/__/mesh/core/src/network.c.obj
 .comment       0x0000007f       0x80 examples/light_switch/server/CMakeFiles/light_switch_server_nrf52840_xxAA_s140_6.0.0.dir/__/__/__/mesh/core/src/net_packet.c.obj
 .comment       0x0000007f       0x80 examples/light_switch/server/CMakeFiles/light_switch_server_nrf52840_xxAA_s140_6.0.0.dir/__/__/__/mesh/core/src/msqueue.c.obj
 .comment       0x0000007f       0x80 examples/light_switch/server/CMakeFiles/light_switch_server_nrf52840_xxAA_s140_6.0.0.dir/__/__/__/mesh/core/src/nrf_mesh_keygen.c.obj
 .comment       0x0000007f       0x80 examples/light_switch/server/CMakeFiles/light_switch_server_nrf52840_xxAA_s140_6.0.0.dir/__/__/__/mesh/core/src/list.c.obj
 .comment       0x0000007f       0x80 examples/light_switch/server/CMakeFiles/light_switch_server_nrf52840_xxAA_s140_6.0.0.dir/__/__/__/mesh/core/src/log.c.obj
 .comment       0x0000007f       0x80 examples/light_switch/server/CMakeFiles/light_switch_server_nrf52840_xxAA_s140_6.0.0.dir/__/__/__/mesh/core/src/flash_manager.c.obj
 .comment       0x0000007f       0x80 examples/light_switch/server/CMakeFiles/light_switch_server_nrf52840_xxAA_s140_6.0.0.dir/__/__/__/mesh/core/src/ccm_soft.c.obj
 .comment       0x0000007f       0x80 examples/light_switch/server/CMakeFiles/light_switch_server_nrf52840_xxAA_s140_6.0.0.dir/__/__/__/mesh/core/src/replay_cache.c.obj
 .comment       0x0000007f       0x80 examples/light_switch/server/CMakeFiles/light_switch_server_nrf52840_xxAA_s140_6.0.0.dir/__/__/__/mesh/core/src/beacon.c.obj
 .comment       0x0000007f       0x80 examples/light_switch/server/CMakeFiles/light_switch_server_nrf52840_xxAA_s140_6.0.0.dir/__/__/__/mesh/core/src/flash_manager_internal.c.obj
 .comment       0x0000007f       0x80 examples/light_switch/server/CMakeFiles/light_switch_server_nrf52840_xxAA_s140_6.0.0.dir/__/__/__/mesh/core/src/core_tx.c.obj
 .comment       0x0000007f       0x80 examples/light_switch/server/CMakeFiles/light_switch_server_nrf52840_xxAA_s140_6.0.0.dir/__/__/__/mesh/core/src/heartbeat.c.obj
 .comment       0x0000007f       0x80 examples/light_switch/server/CMakeFiles/light_switch_server_nrf52840_xxAA_s140_6.0.0.dir/__/__/__/mesh/core/src/net_beacon.c.obj
 .comment       0x0000007f       0x80 examples/light_switch/server/CMakeFiles/light_switch_server_nrf52840_xxAA_s140_6.0.0.dir/__/__/__/mesh/core/src/core_tx_adv.c.obj
 .comment       0x0000007f       0x80 examples/light_switch/server/CMakeFiles/light_switch_server_nrf52840_xxAA_s140_6.0.0.dir/__/__/__/mesh/bearer/src/ad_listener.c.obj
 .comment       0x0000007f       0x80 examples/light_switch/server/CMakeFiles/light_switch_server_nrf52840_xxAA_s140_6.0.0.dir/__/__/__/mesh/bearer/src/ad_type_filter.c.obj
 .comment       0x0000007f       0x80 examples/light_switch/server/CMakeFiles/light_switch_server_nrf52840_xxAA_s140_6.0.0.dir/__/__/__/mesh/bearer/src/advertiser.c.obj
 .comment       0x0000007f       0x80 examples/light_switch/server/CMakeFiles/light_switch_server_nrf52840_xxAA_s140_6.0.0.dir/__/__/__/mesh/bearer/src/bearer_handler.c.obj
 .comment       0x0000007f       0x80 examples/light_switch/server/CMakeFiles/light_switch_server_nrf52840_xxAA_s140_6.0.0.dir/__/__/__/mesh/bearer/src/broadcast.c.obj
 .comment       0x0000007f       0x80 examples/light_switch/server/CMakeFiles/light_switch_server_nrf52840_xxAA_s140_6.0.0.dir/__/__/__/mesh/bearer/src/filter_engine.c.obj
 .comment       0x0000007f       0x80 examples/light_switch/server/CMakeFiles/light_switch_server_nrf52840_xxAA_s140_6.0.0.dir/__/__/__/mesh/bearer/src/radio_config.c.obj
 .comment       0x0000007f       0x80 examples/light_switch/server/CMakeFiles/light_switch_server_nrf52840_xxAA_s140_6.0.0.dir/__/__/__/mesh/bearer/src/scanner.c.obj
 .comment       0x0000007f       0x80 examples/light_switch/server/CMakeFiles/light_switch_server_nrf52840_xxAA_s140_6.0.0.dir/__/__/__/models/simple_on_off/src/simple_on_off_server.c.obj
 .comment       0x0000007f       0x80 examples/light_switch/server/CMakeFiles/light_switch_server_nrf52840_xxAA_s140_6.0.0.dir/__/__/__/models/config/src/composition_data.c.obj
 .comment       0x0000007f       0x80 examples/light_switch/server/CMakeFiles/light_switch_server_nrf52840_xxAA_s140_6.0.0.dir/__/__/__/models/config/src/config_server.c.obj
 .comment       0x0000007f       0x80 examples/light_switch/server/CMakeFiles/light_switch_server_nrf52840_xxAA_s140_6.0.0.dir/__/__/__/models/config/src/packed_index_list.c.obj
 .comment       0x0000007f       0x80 examples/light_switch/server/CMakeFiles/light_switch_server_nrf52840_xxAA_s140_6.0.0.dir/__/__/__/models/health/src/health_server.c.obj
 .comment       0x0000007f       0x80 examples/light_switch/server/CMakeFiles/light_switch_server_nrf52840_xxAA_s140_6.0.0.dir/__/__/__/mesh/access/src/access_publish.c.obj
 .comment       0x0000007f       0x80 examples/light_switch/server/CMakeFiles/light_switch_server_nrf52840_xxAA_s140_6.0.0.dir/__/__/__/mesh/access/src/access.c.obj
 .comment       0x0000007f       0x80 examples/light_switch/server/CMakeFiles/light_switch_server_nrf52840_xxAA_s140_6.0.0.dir/__/__/__/mesh/access/src/access_reliable.c.obj
 .comment       0x0000007f       0x80 examples/light_switch/server/CMakeFiles/light_switch_server_nrf52840_xxAA_s140_6.0.0.dir/__/__/__/mesh/access/src/device_state_manager.c.obj
 .comment       0x0000007f       0x80 examples/light_switch/server/CMakeFiles/light_switch_server_nrf52840_xxAA_s140_6.0.0.dir/__/__/__/mesh/prov/src/prov_provisionee.c.obj
 .comment       0x0000007f       0x80 examples/light_switch/server/CMakeFiles/light_switch_server_nrf52840_xxAA_s140_6.0.0.dir/__/__/__/mesh/prov/src/nrf_mesh_prov.c.obj
 .comment       0x0000007f       0x80 examples/light_switch/server/CMakeFiles/light_switch_server_nrf52840_xxAA_s140_6.0.0.dir/__/__/__/mesh/prov/src/provisioning.c.obj
 .comment       0x0000007f       0x80 examples/light_switch/server/CMakeFiles/light_switch_server_nrf52840_xxAA_s140_6.0.0.dir/__/__/__/mesh/prov/src/prov_beacon.c.obj
 .comment       0x0000007f       0x80 examples/light_switch/server/CMakeFiles/light_switch_server_nrf52840_xxAA_s140_6.0.0.dir/__/__/__/mesh/prov/src/prov_utils.c.obj
 .comment       0x0000007f       0x80 examples/light_switch/server/CMakeFiles/light_switch_server_nrf52840_xxAA_s140_6.0.0.dir/__/__/__/mesh/prov/src/prov_bearer_adv.c.obj
 .comment       0x0000007f       0x80 examples/light_switch/server/CMakeFiles/light_switch_server_nrf52840_xxAA_s140_6.0.0.dir/C_/ver/mod/nRF5_SDK_15.0.0_a53641a/modules/nrfx/mdk/system_nrf52840.c.obj
 .comment       0x0000007f       0x80 examples/light_switch/server/CMakeFiles/light_switch_server_nrf52840_xxAA_s140_6.0.0.dir/C_/ver/mod/nRF5_SDK_15.0.0_a53641a/components/libraries/util/app_error.c.obj
 .comment       0x0000007f       0x80 examples/light_switch/server/CMakeFiles/light_switch_server_nrf52840_xxAA_s140_6.0.0.dir/C_/ver/mod/nRF5_SDK_15.0.0_a53641a/components/libraries/util/app_error_handler_gcc.c.obj
 .comment       0x0000007f       0x80 external/rtt/librtt_nrf52840_xxAA.a(SEGGER_RTT.c.obj)
 .comment       0x0000007f       0x80 external/rtt/librtt_nrf52840_xxAA.a(SEGGER_RTT_printf.c.obj)
 .comment       0x0000007f       0x80 external/micro-ecc/libuECC_nrf52840_xxAA.a(uECC.c.obj)

.debug_frame    0x00000000      0x324
 .debug_frame   0x00000000       0x2c c:/mesh/arm_gcc/bin/../lib/gcc/arm-none-eabi/6.3.1/thumb/v7e-m/fpv4-sp/hard\libgcc.a(_aeabi_uldivmod.o)
 .debug_frame   0x0000002c       0x34 c:/mesh/arm_gcc/bin/../lib/gcc/arm-none-eabi/6.3.1/thumb/v7e-m/fpv4-sp/hard\libgcc.a(_udivmoddi4.o)
 .debug_frame   0x00000060       0x28 c:/mesh/arm_gcc/bin/../lib/gcc/arm-none-eabi/6.3.1/../../../../arm-none-eabi/lib/thumb/v7e-m/fpv4-sp/hard\libc_nano.a(lib_a-exit.o)
 .debug_frame   0x00000088       0x2c c:/mesh/arm_gcc/bin/../lib/gcc/arm-none-eabi/6.3.1/../../../../arm-none-eabi/lib/thumb/v7e-m/fpv4-sp/hard\libc_nano.a(lib_a-init.o)
 .debug_frame   0x000000b4       0x30 c:/mesh/arm_gcc/bin/../lib/gcc/arm-none-eabi/6.3.1/../../../../arm-none-eabi/lib/thumb/v7e-m/fpv4-sp/hard\libc_nano.a(lib_a-malloc.o)
 .debug_frame   0x000000e4       0x28 c:/mesh/arm_gcc/bin/../lib/gcc/arm-none-eabi/6.3.1/../../../../arm-none-eabi/lib/thumb/v7e-m/fpv4-sp/hard\libc_nano.a(lib_a-memcmp.o)
 .debug_frame   0x0000010c       0x28 c:/mesh/arm_gcc/bin/../lib/gcc/arm-none-eabi/6.3.1/../../../../arm-none-eabi/lib/thumb/v7e-m/fpv4-sp/hard\libc_nano.a(lib_a-memcpy-stub.o)
 .debug_frame   0x00000134       0x20 c:/mesh/arm_gcc/bin/../lib/gcc/arm-none-eabi/6.3.1/../../../../arm-none-eabi/lib/thumb/v7e-m/fpv4-sp/hard\libc_nano.a(lib_a-memset.o)
 .debug_frame   0x00000154       0x38 c:/mesh/arm_gcc/bin/../lib/gcc/arm-none-eabi/6.3.1/../../../../arm-none-eabi/lib/thumb/v7e-m/fpv4-sp/hard\libc_nano.a(lib_a-nano-freer.o)
 .debug_frame   0x0000018c       0x2c c:/mesh/arm_gcc/bin/../lib/gcc/arm-none-eabi/6.3.1/../../../../arm-none-eabi/lib/thumb/v7e-m/fpv4-sp/hard\libc_nano.a(lib_a-nano-mallocr.o)
 .debug_frame   0x000001b8       0x2c c:/mesh/arm_gcc/bin/../lib/gcc/arm-none-eabi/6.3.1/../../../../arm-none-eabi/lib/thumb/v7e-m/fpv4-sp/hard\libc_nano.a(lib_a-sbrkr.o)
 .debug_frame   0x000001e4       0x20 c:/mesh/arm_gcc/bin/../lib/gcc/arm-none-eabi/6.3.1/../../../../arm-none-eabi/lib/thumb/v7e-m/fpv4-sp/hard\libc_nano.a(lib_a-strcpy.o)
 .debug_frame   0x00000204       0x34 c:/mesh/arm_gcc/bin/../lib/gcc/arm-none-eabi/6.3.1/../../../../arm-none-eabi/lib/thumb/v7e-m/fpv4-sp/hard\libc_nano.a(lib_a-strrchr.o)
 .debug_frame   0x00000238       0x30 c:/mesh/arm_gcc/bin/../lib/gcc/arm-none-eabi/6.3.1/../../../../arm-none-eabi/lib/thumb/v7e-m/fpv4-sp/hard\libc_nano.a(lib_a-mlock.o)
 .debug_frame   0x00000268       0x5c c:/mesh/arm_gcc/bin/../lib/gcc/arm-none-eabi/6.3.1/../../../../arm-none-eabi/lib/thumb/v7e-m/fpv4-sp/hard\libc_nano.a(lib_a-reent.o)
 .debug_frame   0x000002c4       0x20 c:/mesh/arm_gcc/bin/../lib/gcc/arm-none-eabi/6.3.1/../../../../arm-none-eabi/lib/thumb/v7e-m/fpv4-sp/hard\libc_nano.a(lib_a-strchr.o)
 .debug_frame   0x000002e4       0x20 c:/mesh/arm_gcc/bin/../lib/gcc/arm-none-eabi/6.3.1/../../../../arm-none-eabi/lib/thumb/v7e-m/fpv4-sp/hard\libnosys.a(sbrk.o)
 .debug_frame   0x00000304       0x20 c:/mesh/arm_gcc/bin/../lib/gcc/arm-none-eabi/6.3.1/../../../../arm-none-eabi/lib/thumb/v7e-m/fpv4-sp/hard\libnosys.a(_exit.o)
