Archive member included to satisfy reference by file (symbol)

mesh/core/libmesh_core_nrf51422_xxAC.a(nrf_mesh_configure.c.obj)
                              examples/light_switch/client/CMakeFiles/light_switch_client_nrf51422_xxAC_s130_2.0.1.dir/__/__/__/mesh/prov/src/prov_beacon.c.obj (nrf_mesh_configure_device_uuid_get)
mesh/core/libmesh_core_nrf51422_xxAC.a(event.c.obj)
                              examples/light_switch/client/CMakeFiles/light_switch_client_nrf51422_xxAC_s130_2.0.1.dir/__/__/__/mesh/access/src/access.c.obj (event_handle)
mesh/core/libmesh_core_nrf51422_xxAC.a(packet_mgr.c.obj)
                              examples/light_switch/client/CMakeFiles/light_switch_client_nrf51422_xxAC_s130_2.0.1.dir/__/__/__/models/config/src/config_client.c.obj (packet_mgr_alloc)
mesh/core/libmesh_core_nrf51422_xxAC.a(net_state.c.obj)
                              examples/light_switch/client/CMakeFiles/light_switch_client_nrf51422_xxAC_s130_2.0.1.dir/__/__/__/mesh/access/src/device_state_manager.c.obj (net_state_flash_area_get)
mesh/core/libmesh_core_nrf51422_xxAC.a(nrf_mesh_utils.c.obj)
                              examples/light_switch/client/CMakeFiles/light_switch_client_nrf51422_xxAC_s130_2.0.1.dir/__/__/__/mesh/access/src/device_state_manager.c.obj (nrf_mesh_address_type_get)
mesh/core/libmesh_core_nrf51422_xxAC.a(nrf_mesh.c.obj)
                              examples/light_switch/client/CMakeFiles/light_switch_client_nrf51422_xxAC_s130_2.0.1.dir/__/__/nrf_mesh_sdk.c.obj (nrf_mesh_init)
mesh/core/libmesh_core_nrf51422_xxAC.a(hal.c.obj)
                              mesh/core/libmesh_core_nrf51422_xxAC.a(nrf_mesh.c.obj) (hal_lfclk_ppm_get)
mesh/core/libmesh_core_nrf51422_xxAC.a(timer_scheduler.c.obj)
                              mesh/core/libmesh_core_nrf51422_xxAC.a(nrf_mesh.c.obj) (timer_sch_init)
mesh/core/libmesh_core_nrf51422_xxAC.a(timer.c.obj)
                              mesh/core/libmesh_core_nrf51422_xxAC.a(timer_scheduler.c.obj) (timer_order_cb)
mesh/core/libmesh_core_nrf51422_xxAC.a(ticker.c.obj)
                              mesh/core/libmesh_core_nrf51422_xxAC.a(nrf_mesh.c.obj) (ticker_init)
mesh/core/libmesh_core_nrf51422_xxAC.a(rand.c.obj)
                              examples/light_switch/client/CMakeFiles/light_switch_client_nrf51422_xxAC_s130_2.0.1.dir/__/__/__/mesh/prov/src/prov_utils.c.obj (rand_hw_rng_get)
mesh/core/libmesh_core_nrf51422_xxAC.a(timeslot.c.obj)
                              mesh/core/libmesh_core_nrf51422_xxAC.a(nrf_mesh.c.obj) (timeslot_sd_event_handler)
mesh/core/libmesh_core_nrf51422_xxAC.a(bearer_event.c.obj)
                              mesh/core/libmesh_core_nrf51422_xxAC.a(nrf_mesh.c.obj) (bearer_event_init)
mesh/core/libmesh_core_nrf51422_xxAC.a(enc.c.obj)
                              examples/light_switch/client/CMakeFiles/light_switch_client_nrf51422_xxAC_s130_2.0.1.dir/__/__/__/mesh/prov/src/prov_utils.c.obj (enc_aes_cmac)
mesh/core/libmesh_core_nrf51422_xxAC.a(network.c.obj)
                              mesh/core/libmesh_core_nrf51422_xxAC.a(nrf_mesh.c.obj) (network_init)
mesh/core/libmesh_core_nrf51422_xxAC.a(nrf_mesh_keygen.c.obj)
                              examples/light_switch/client/CMakeFiles/light_switch_client_nrf51422_xxAC_s130_2.0.1.dir/__/__/__/mesh/access/src/device_state_manager.c.obj (nrf_mesh_keygen_aid)
mesh/core/libmesh_core_nrf51422_xxAC.a(list.c.obj)
                              mesh/core/libmesh_core_nrf51422_xxAC.a(event.c.obj) (list_add)
mesh/core/libmesh_core_nrf51422_xxAC.a(log.c.obj)
                              examples/light_switch/client/CMakeFiles/light_switch_client_nrf51422_xxAC_s130_2.0.1.dir/src/main.c.obj (log_callback_rtt)
mesh/core/libmesh_core_nrf51422_xxAC.a(flash_manager.c.obj)
                              mesh/core/libmesh_core_nrf51422_xxAC.a(nrf_mesh.c.obj) (flash_manager_init)
mesh/core/libmesh_core_nrf51422_xxAC.a(ccm_soft.c.obj)
                              mesh/core/libmesh_core_nrf51422_xxAC.a(enc.c.obj) (ccm_soft_encrypt)
mesh/core/libmesh_core_nrf51422_xxAC.a(beacon.c.obj)
                              mesh/core/libmesh_core_nrf51422_xxAC.a(nrf_mesh.c.obj) (beacon_init)
mesh/core/libmesh_core_nrf51422_xxAC.a(flash_manager_internal.c.obj)
                              mesh/core/libmesh_core_nrf51422_xxAC.a(flash_manager.c.obj) (entry_get)
mesh/core/libmesh_core_nrf51422_xxAC.a(core_tx.c.obj)
                              mesh/core/libmesh_core_nrf51422_xxAC.a(network.c.obj) (core_tx_packet_alloc)
mesh/core/libmesh_core_nrf51422_xxAC.a(heartbeat.c.obj)
                              mesh/core/libmesh_core_nrf51422_xxAC.a(network.c.obj) (heartbeat_on_feature_change_trigger)
mesh/core/libmesh_core_nrf51422_xxAC.a(net_beacon.c.obj)
                              mesh/core/libmesh_core_nrf51422_xxAC.a(network.c.obj) (net_beacon_init)
mesh/core/libmesh_core_nrf51422_xxAC.a(core_tx_adv.c.obj)
                              mesh/core/libmesh_core_nrf51422_xxAC.a(nrf_mesh.c.obj) (core_tx_adv_init)
mesh/core/libmesh_core_nrf51422_xxAC.a(ad_listener.c.obj)
                              mesh/core/libmesh_core_nrf51422_xxAC.a(nrf_mesh.c.obj) (ad_listener_subscribe)
mesh/core/libmesh_core_nrf51422_xxAC.a(ad_type_filter.c.obj)
                              mesh/core/libmesh_core_nrf51422_xxAC.a(ad_listener.c.obj) (bearer_adtype_filtering_set)
mesh/core/libmesh_core_nrf51422_xxAC.a(advertiser.c.obj)
                              mesh/core/libmesh_core_nrf51422_xxAC.a(nrf_mesh.c.obj) (advertiser_init)
mesh/core/libmesh_core_nrf51422_xxAC.a(bearer_handler.c.obj)
                              mesh/core/libmesh_core_nrf51422_xxAC.a(nrf_mesh.c.obj) (bearer_handler_init)
mesh/core/libmesh_core_nrf51422_xxAC.a(broadcast.c.obj)
                              mesh/core/libmesh_core_nrf51422_xxAC.a(advertiser.c.obj) (broadcast_send)
mesh/core/libmesh_core_nrf51422_xxAC.a(filter_engine.c.obj)
                              mesh/core/libmesh_core_nrf51422_xxAC.a(ad_type_filter.c.obj) (fen_filter_start)
mesh/core/libmesh_core_nrf51422_xxAC.a(radio_config.c.obj)
                              mesh/core/libmesh_core_nrf51422_xxAC.a(broadcast.c.obj) (radio_config_reset)
mesh/core/libmesh_core_nrf51422_xxAC.a(scanner.c.obj)
                              mesh/core/libmesh_core_nrf51422_xxAC.a(bearer_handler.c.obj) (scanner_radio_start)
mesh/core/libmesh_core_nrf51422_xxAC.a(internal_event.c.obj)
                              mesh/core/libmesh_core_nrf51422_xxAC.a(network.c.obj) (internal_event_push)
mesh/core/libmesh_core_nrf51422_xxAC.a(aes.c.obj)
                              mesh/core/libmesh_core_nrf51422_xxAC.a(enc.c.obj) (aes_encrypt)
mesh/core/libmesh_core_nrf51422_xxAC.a(msg_cache.c.obj)
                              mesh/core/libmesh_core_nrf51422_xxAC.a(nrf_mesh.c.obj) (msg_cache_init)
mesh/core/libmesh_core_nrf51422_xxAC.a(transport.c.obj)
                              mesh/core/libmesh_core_nrf51422_xxAC.a(nrf_mesh.c.obj) (transport_init)
mesh/core/libmesh_core_nrf51422_xxAC.a(packet_buffer.c.obj)
                              mesh/core/libmesh_core_nrf51422_xxAC.a(flash_manager.c.obj) (packet_buffer_init)
mesh/core/libmesh_core_nrf51422_xxAC.a(flash_manager_defrag.c.obj)
                              mesh/core/libmesh_core_nrf51422_xxAC.a(flash_manager.c.obj) (flash_manager_defrag_init)
mesh/core/libmesh_core_nrf51422_xxAC.a(fifo.c.obj)
                              mesh/core/libmesh_core_nrf51422_xxAC.a(bearer_event.c.obj) (fifo_init)
mesh/core/libmesh_core_nrf51422_xxAC.a(mesh_flash.c.obj)
                              mesh/core/libmesh_core_nrf51422_xxAC.a(flash_manager.c.obj) (mesh_flash_user_callback_set)
mesh/core/libmesh_core_nrf51422_xxAC.a(queue.c.obj)
                              mesh/core/libmesh_core_nrf51422_xxAC.a(bearer_event.c.obj) (queue_init)
mesh/core/libmesh_core_nrf51422_xxAC.a(aes_cmac.c.obj)
                              mesh/core/libmesh_core_nrf51422_xxAC.a(enc.c.obj) (aes_cmac)
mesh/core/libmesh_core_nrf51422_xxAC.a(nrf_mesh_opt.c.obj)
                              mesh/core/libmesh_core_nrf51422_xxAC.a(heartbeat.c.obj) (nrf_mesh_opt_get)
mesh/core/libmesh_core_nrf51422_xxAC.a(msqueue.c.obj)
                              mesh/core/libmesh_core_nrf51422_xxAC.a(mesh_flash.c.obj) (msq_get)
mesh/core/libmesh_core_nrf51422_xxAC.a(replay_cache.c.obj)
                              mesh/core/libmesh_core_nrf51422_xxAC.a(transport.c.obj) (replay_cache_add)
mesh/core/libmesh_core_nrf51422_xxAC.a(nrf_flash.c.obj)
                              mesh/core/libmesh_core_nrf51422_xxAC.a(mesh_flash.c.obj) (nrf_flash_erase)
external/rtt/librtt_nrf51422_xxAC.a(SEGGER_RTT.c.obj)
                              mesh/core/libmesh_core_nrf51422_xxAC.a(log.c.obj) (SEGGER_RTT_Write)
external/rtt/librtt_nrf51422_xxAC.a(SEGGER_RTT_printf.c.obj)
                              mesh/core/libmesh_core_nrf51422_xxAC.a(log.c.obj) (SEGGER_RTT_vprintf)
external/micro-ecc/libuECC_nrf51422_xxAC.a(uECC.c.obj)
                              examples/light_switch/client/CMakeFiles/light_switch_client_nrf51422_xxAC_s130_2.0.1.dir/__/__/__/mesh/prov/src/prov_utils.c.obj (uECC_secp256r1)
c:/a/gcc_arm/6/bin/../lib/gcc/arm-none-eabi/6.3.1/thumb/v6-m\libgcc.a(_thumb1_case_uqi.o)
                              examples/light_switch/client/CMakeFiles/light_switch_client_nrf51422_xxAC_s130_2.0.1.dir/__/__/__/mesh/access/src/access_publish.c.obj (__gnu_thumb1_case_uqi)
c:/a/gcc_arm/6/bin/../lib/gcc/arm-none-eabi/6.3.1/thumb/v6-m\libgcc.a(_thumb1_case_shi.o)
                              examples/light_switch/client/CMakeFiles/light_switch_client_nrf51422_xxAC_s130_2.0.1.dir/__/__/__/mesh/prov/src/prov_provisioner.c.obj (__gnu_thumb1_case_shi)
c:/a/gcc_arm/6/bin/../lib/gcc/arm-none-eabi/6.3.1/thumb/v6-m\libgcc.a(_thumb1_case_uhi.o)
                              examples/light_switch/client/CMakeFiles/light_switch_client_nrf51422_xxAC_s130_2.0.1.dir/src/provisioner.c.obj (__gnu_thumb1_case_uhi)
c:/a/gcc_arm/6/bin/../lib/gcc/arm-none-eabi/6.3.1/thumb/v6-m\libgcc.a(_udivsi3.o)
                              examples/light_switch/client/CMakeFiles/light_switch_client_nrf51422_xxAC_s130_2.0.1.dir/src/main.c.obj (__aeabi_uidiv)
c:/a/gcc_arm/6/bin/../lib/gcc/arm-none-eabi/6.3.1/thumb/v6-m\libgcc.a(_divsi3.o)
                              examples/light_switch/client/CMakeFiles/light_switch_client_nrf51422_xxAC_s130_2.0.1.dir/__/__/__/mesh/access/src/access_reliable.c.obj (__aeabi_idiv)
c:/a/gcc_arm/6/bin/../lib/gcc/arm-none-eabi/6.3.1/thumb/v6-m\libgcc.a(_dvmd_tls.o)
                              c:/a/gcc_arm/6/bin/../lib/gcc/arm-none-eabi/6.3.1/thumb/v6-m\libgcc.a(_udivsi3.o) (__aeabi_idiv0)
c:/a/gcc_arm/6/bin/../lib/gcc/arm-none-eabi/6.3.1/thumb/v6-m\libgcc.a(_aeabi_uldivmod.o)
                              examples/light_switch/client/CMakeFiles/light_switch_client_nrf51422_xxAC_s130_2.0.1.dir/__/__/common/src/rtt_input.c.obj (__aeabi_uldivmod)
c:/a/gcc_arm/6/bin/../lib/gcc/arm-none-eabi/6.3.1/thumb/v6-m\libgcc.a(_muldi3.o)
                              examples/light_switch/client/CMakeFiles/light_switch_client_nrf51422_xxAC_s130_2.0.1.dir/__/__/common/src/rtt_input.c.obj (__aeabi_lmul)
c:/a/gcc_arm/6/bin/../lib/gcc/arm-none-eabi/6.3.1/thumb/v6-m\libgcc.a(_udivmoddi4.o)
                              c:/a/gcc_arm/6/bin/../lib/gcc/arm-none-eabi/6.3.1/thumb/v6-m\libgcc.a(_aeabi_uldivmod.o) (__udivmoddi4)
c:/a/gcc_arm/6/bin/../lib/gcc/arm-none-eabi/6.3.1/thumb/v6-m\libgcc.a(_clzdi2.o)
                              c:/a/gcc_arm/6/bin/../lib/gcc/arm-none-eabi/6.3.1/thumb/v6-m\libgcc.a(_udivmoddi4.o) (__clzdi2)
c:/a/gcc_arm/6/bin/../lib/gcc/arm-none-eabi/6.3.1/thumb/v6-m\libgcc.a(_clzsi2.o)
                              c:/a/gcc_arm/6/bin/../lib/gcc/arm-none-eabi/6.3.1/thumb/v6-m\libgcc.a(_clzdi2.o) (__clzsi2)
c:/a/gcc_arm/6/bin/../lib/gcc/arm-none-eabi/6.3.1/../../../../arm-none-eabi/lib/thumb/v6-m\libg_nano.a(lib_a-exit.o)
                              c:/a/gcc_arm/6/bin/../lib/gcc/arm-none-eabi/6.3.1/../../../../arm-none-eabi/lib/thumb/v6-m/crt0.o (exit)
c:/a/gcc_arm/6/bin/../lib/gcc/arm-none-eabi/6.3.1/../../../../arm-none-eabi/lib/thumb/v6-m\libg_nano.a(lib_a-impure.o)
                              c:/a/gcc_arm/6/bin/../lib/gcc/arm-none-eabi/6.3.1/../../../../arm-none-eabi/lib/thumb/v6-m\libg_nano.a(lib_a-exit.o) (_global_impure_ptr)
c:/a/gcc_arm/6/bin/../lib/gcc/arm-none-eabi/6.3.1/../../../../arm-none-eabi/lib/thumb/v6-m\libg_nano.a(lib_a-init.o)
                              c:/a/gcc_arm/6/bin/../lib/gcc/arm-none-eabi/6.3.1/../../../../arm-none-eabi/lib/thumb/v6-m/crt0.o (__libc_init_array)
c:/a/gcc_arm/6/bin/../lib/gcc/arm-none-eabi/6.3.1/../../../../arm-none-eabi/lib/thumb/v6-m\libg_nano.a(lib_a-malloc.o)
                              mesh/core/libmesh_core_nrf51422_xxAC.a(transport.c.obj) (malloc)
c:/a/gcc_arm/6/bin/../lib/gcc/arm-none-eabi/6.3.1/../../../../arm-none-eabi/lib/thumb/v6-m\libg_nano.a(lib_a-memcmp.o)
                              examples/light_switch/client/CMakeFiles/light_switch_client_nrf51422_xxAC_s130_2.0.1.dir/__/__/__/mesh/access/src/device_state_manager.c.obj (memcmp)
c:/a/gcc_arm/6/bin/../lib/gcc/arm-none-eabi/6.3.1/../../../../arm-none-eabi/lib/thumb/v6-m\libg_nano.a(lib_a-memcpy-stub.o)
                              examples/light_switch/client/CMakeFiles/light_switch_client_nrf51422_xxAC_s130_2.0.1.dir/src/main.c.obj (memcpy)
c:/a/gcc_arm/6/bin/../lib/gcc/arm-none-eabi/6.3.1/../../../../arm-none-eabi/lib/thumb/v6-m\libg_nano.a(lib_a-memset.o)
                              c:/a/gcc_arm/6/bin/../lib/gcc/arm-none-eabi/6.3.1/../../../../arm-none-eabi/lib/thumb/v6-m/crt0.o (memset)
c:/a/gcc_arm/6/bin/../lib/gcc/arm-none-eabi/6.3.1/../../../../arm-none-eabi/lib/thumb/v6-m\libg_nano.a(lib_a-nano-freer.o)
                              c:/a/gcc_arm/6/bin/../lib/gcc/arm-none-eabi/6.3.1/../../../../arm-none-eabi/lib/thumb/v6-m\libg_nano.a(lib_a-malloc.o) (_free_r)
c:/a/gcc_arm/6/bin/../lib/gcc/arm-none-eabi/6.3.1/../../../../arm-none-eabi/lib/thumb/v6-m\libg_nano.a(lib_a-nano-mallocr.o)
                              c:/a/gcc_arm/6/bin/../lib/gcc/arm-none-eabi/6.3.1/../../../../arm-none-eabi/lib/thumb/v6-m\libg_nano.a(lib_a-malloc.o) (_malloc_r)
c:/a/gcc_arm/6/bin/../lib/gcc/arm-none-eabi/6.3.1/../../../../arm-none-eabi/lib/thumb/v6-m\libg_nano.a(lib_a-sbrkr.o)
                              c:/a/gcc_arm/6/bin/../lib/gcc/arm-none-eabi/6.3.1/../../../../arm-none-eabi/lib/thumb/v6-m\libg_nano.a(lib_a-nano-mallocr.o) (_sbrk_r)
c:/a/gcc_arm/6/bin/../lib/gcc/arm-none-eabi/6.3.1/../../../../arm-none-eabi/lib/thumb/v6-m\libg_nano.a(lib_a-strcpy.o)
                              external/rtt/librtt_nrf51422_xxAC.a(SEGGER_RTT.c.obj) (strcpy)
c:/a/gcc_arm/6/bin/../lib/gcc/arm-none-eabi/6.3.1/../../../../arm-none-eabi/lib/thumb/v6-m\libg_nano.a(lib_a-strlen.o)
                              examples/light_switch/client/CMakeFiles/light_switch_client_nrf51422_xxAC_s130_2.0.1.dir/__/__/__/mesh/prov/src/prov_beacon.c.obj (strlen)
c:/a/gcc_arm/6/bin/../lib/gcc/arm-none-eabi/6.3.1/../../../../arm-none-eabi/lib/thumb/v6-m\libg_nano.a(lib_a-strrchr.o)
                              examples/light_switch/client/CMakeFiles/light_switch_client_nrf51422_xxAC_s130_2.0.1.dir/src/main.c.obj (strrchr)
c:/a/gcc_arm/6/bin/../lib/gcc/arm-none-eabi/6.3.1/../../../../arm-none-eabi/lib/thumb/v6-m\libg_nano.a(lib_a-mlock.o)
                              c:/a/gcc_arm/6/bin/../lib/gcc/arm-none-eabi/6.3.1/../../../../arm-none-eabi/lib/thumb/v6-m\libg_nano.a(lib_a-nano-freer.o) (__malloc_lock)
c:/a/gcc_arm/6/bin/../lib/gcc/arm-none-eabi/6.3.1/../../../../arm-none-eabi/lib/thumb/v6-m\libg_nano.a(lib_a-reent.o)
                              c:/a/gcc_arm/6/bin/../lib/gcc/arm-none-eabi/6.3.1/../../../../arm-none-eabi/lib/thumb/v6-m\libg_nano.a(lib_a-sbrkr.o) (errno)
c:/a/gcc_arm/6/bin/../lib/gcc/arm-none-eabi/6.3.1/../../../../arm-none-eabi/lib/thumb/v6-m\libg_nano.a(lib_a-strchr.o)
                              c:/a/gcc_arm/6/bin/../lib/gcc/arm-none-eabi/6.3.1/../../../../arm-none-eabi/lib/thumb/v6-m\libg_nano.a(lib_a-strrchr.o) (strchr)
c:/a/gcc_arm/6/bin/../lib/gcc/arm-none-eabi/6.3.1/../../../../arm-none-eabi/lib/thumb/v6-m\libnosys.a(sbrk.o)
                              c:/a/gcc_arm/6/bin/../lib/gcc/arm-none-eabi/6.3.1/../../../../arm-none-eabi/lib/thumb/v6-m\libg_nano.a(lib_a-sbrkr.o) (_sbrk)
c:/a/gcc_arm/6/bin/../lib/gcc/arm-none-eabi/6.3.1/../../../../arm-none-eabi/lib/thumb/v6-m\libnosys.a(_exit.o)
                              c:/a/gcc_arm/6/bin/../lib/gcc/arm-none-eabi/6.3.1/../../../../arm-none-eabi/lib/thumb/v6-m\libg_nano.a(lib_a-exit.o) (_exit)

Allocating common symbols
Common symbol       size              file

nrf_nvic_state      0x8               examples/light_switch/client/CMakeFiles/light_switch_client_nrf51422_xxAC_s130_2.0.1.dir/__/__/nrf_mesh_sdk.c.obj
errno               0x4               c:/a/gcc_arm/6/bin/../lib/gcc/arm-none-eabi/6.3.1/../../../../arm-none-eabi/lib/thumb/v6-m\libg_nano.a(lib_a-reent.o)
m_assertion_handler
                    0x4               mesh/core/libmesh_core_nrf51422_xxAC.a(nrf_mesh.c.obj)
_SEGGER_RTT         0x78              external/rtt/librtt_nrf51422_xxAC.a(SEGGER_RTT.c.obj)

Discarded input sections

 .text          0x00000000        0x0 c:/a/gcc_arm/6/bin/../lib/gcc/arm-none-eabi/6.3.1/thumb/v6-m/crti.o
 .data          0x00000000        0x0 c:/a/gcc_arm/6/bin/../lib/gcc/arm-none-eabi/6.3.1/thumb/v6-m/crti.o
 .bss           0x00000000        0x0 c:/a/gcc_arm/6/bin/../lib/gcc/arm-none-eabi/6.3.1/thumb/v6-m/crti.o
 .data          0x00000000        0x4 c:/a/gcc_arm/6/bin/../lib/gcc/arm-none-eabi/6.3.1/thumb/v6-m/crtbegin.o
 .data          0x00000000        0x0 c:/a/gcc_arm/6/bin/../lib/gcc/arm-none-eabi/6.3.1/../../../../arm-none-eabi/lib/thumb/v6-m/crt0.o
 .bss           0x00000000        0x0 c:/a/gcc_arm/6/bin/../lib/gcc/arm-none-eabi/6.3.1/../../../../arm-none-eabi/lib/thumb/v6-m/crt0.o
 .ARM.extab     0x00000000        0x0 c:/a/gcc_arm/6/bin/../lib/gcc/arm-none-eabi/6.3.1/../../../../arm-none-eabi/lib/thumb/v6-m/crt0.o
 .text          0x00000000        0x0 examples/light_switch/client/CMakeFiles/light_switch_client_nrf51422_xxAC_s130_2.0.1.dir/src/main.c.obj
 .data          0x00000000        0x0 examples/light_switch/client/CMakeFiles/light_switch_client_nrf51422_xxAC_s130_2.0.1.dir/src/main.c.obj
 .bss           0x00000000        0x0 examples/light_switch/client/CMakeFiles/light_switch_client_nrf51422_xxAC_s130_2.0.1.dir/src/main.c.obj
 .text          0x00000000        0x0 examples/light_switch/client/CMakeFiles/light_switch_client_nrf51422_xxAC_s130_2.0.1.dir/src/provisioner.c.obj
 .data          0x00000000        0x0 examples/light_switch/client/CMakeFiles/light_switch_client_nrf51422_xxAC_s130_2.0.1.dir/src/provisioner.c.obj
 .bss           0x00000000        0x0 examples/light_switch/client/CMakeFiles/light_switch_client_nrf51422_xxAC_s130_2.0.1.dir/src/provisioner.c.obj
 .text          0x00000000        0x0 examples/light_switch/client/CMakeFiles/light_switch_client_nrf51422_xxAC_s130_2.0.1.dir/__/__/nrf_mesh_sdk.c.obj
 .data          0x00000000        0x0 examples/light_switch/client/CMakeFiles/light_switch_client_nrf51422_xxAC_s130_2.0.1.dir/__/__/nrf_mesh_sdk.c.obj
 .bss           0x00000000        0x0 examples/light_switch/client/CMakeFiles/light_switch_client_nrf51422_xxAC_s130_2.0.1.dir/__/__/nrf_mesh_sdk.c.obj
 .text          0x00000000        0x0 examples/light_switch/client/CMakeFiles/light_switch_client_nrf51422_xxAC_s130_2.0.1.dir/__/__/common/src/rtt_input.c.obj
 .data          0x00000000        0x0 examples/light_switch/client/CMakeFiles/light_switch_client_nrf51422_xxAC_s130_2.0.1.dir/__/__/common/src/rtt_input.c.obj
 .bss           0x00000000        0x0 examples/light_switch/client/CMakeFiles/light_switch_client_nrf51422_xxAC_s130_2.0.1.dir/__/__/common/src/rtt_input.c.obj
 .text.rtt_input_disable
                0x00000000       0x24 examples/light_switch/client/CMakeFiles/light_switch_client_nrf51422_xxAC_s130_2.0.1.dir/__/__/common/src/rtt_input.c.obj
 .text          0x00000000        0x0 examples/light_switch/client/CMakeFiles/light_switch_client_nrf51422_xxAC_s130_2.0.1.dir/__/__/common/src/simple_hal.c.obj
 .data          0x00000000        0x0 examples/light_switch/client/CMakeFiles/light_switch_client_nrf51422_xxAC_s130_2.0.1.dir/__/__/common/src/simple_hal.c.obj
 .bss           0x00000000        0x0 examples/light_switch/client/CMakeFiles/light_switch_client_nrf51422_xxAC_s130_2.0.1.dir/__/__/common/src/simple_hal.c.obj
 .text.hal_led_mask_set
                0x00000000       0x18 examples/light_switch/client/CMakeFiles/light_switch_client_nrf51422_xxAC_s130_2.0.1.dir/__/__/common/src/simple_hal.c.obj
 .text          0x00000000        0x0 examples/light_switch/client/CMakeFiles/light_switch_client_nrf51422_xxAC_s130_2.0.1.dir/__/__/nrf_mesh_weak.c.obj
 .data          0x00000000        0x0 examples/light_switch/client/CMakeFiles/light_switch_client_nrf51422_xxAC_s130_2.0.1.dir/__/__/nrf_mesh_weak.c.obj
 .bss           0x00000000        0x0 examples/light_switch/client/CMakeFiles/light_switch_client_nrf51422_xxAC_s130_2.0.1.dir/__/__/nrf_mesh_weak.c.obj
 .text._weak_handler_ptr
                0x00000000        0x4 examples/light_switch/client/CMakeFiles/light_switch_client_nrf51422_xxAC_s130_2.0.1.dir/__/__/nrf_mesh_weak.c.obj
 .text          0x00000000        0x0 examples/light_switch/client/CMakeFiles/light_switch_client_nrf51422_xxAC_s130_2.0.1.dir/__/__/__/models/simple_on_off/src/simple_on_off_client.c.obj
 .data          0x00000000        0x0 examples/light_switch/client/CMakeFiles/light_switch_client_nrf51422_xxAC_s130_2.0.1.dir/__/__/__/models/simple_on_off/src/simple_on_off_client.c.obj
 .bss           0x00000000        0x0 examples/light_switch/client/CMakeFiles/light_switch_client_nrf51422_xxAC_s130_2.0.1.dir/__/__/__/models/simple_on_off/src/simple_on_off_client.c.obj
 .text.simple_on_off_client_get
                0x00000000       0x54 examples/light_switch/client/CMakeFiles/light_switch_client_nrf51422_xxAC_s130_2.0.1.dir/__/__/__/models/simple_on_off/src/simple_on_off_client.c.obj
 .text          0x00000000        0x0 examples/light_switch/client/CMakeFiles/light_switch_client_nrf51422_xxAC_s130_2.0.1.dir/__/__/__/models/config/src/config_client.c.obj
 .data          0x00000000        0x0 examples/light_switch/client/CMakeFiles/light_switch_client_nrf51422_xxAC_s130_2.0.1.dir/__/__/__/models/config/src/config_client.c.obj
 .bss           0x00000000        0x0 examples/light_switch/client/CMakeFiles/light_switch_client_nrf51422_xxAC_s130_2.0.1.dir/__/__/__/models/config/src/config_client.c.obj
 .text.config_client_appkey_delete
                0x00000000       0x74 examples/light_switch/client/CMakeFiles/light_switch_client_nrf51422_xxAC_s130_2.0.1.dir/__/__/__/models/config/src/config_client.c.obj
 .text.config_client_appkey_get
                0x00000000       0x64 examples/light_switch/client/CMakeFiles/light_switch_client_nrf51422_xxAC_s130_2.0.1.dir/__/__/__/models/config/src/config_client.c.obj
 .text.config_client_appkey_update
                0x00000000       0x80 examples/light_switch/client/CMakeFiles/light_switch_client_nrf51422_xxAC_s130_2.0.1.dir/__/__/__/models/config/src/config_client.c.obj
 .text.config_client_model_publication_get
                0x00000000       0x88 examples/light_switch/client/CMakeFiles/light_switch_client_nrf51422_xxAC_s130_2.0.1.dir/__/__/__/models/config/src/config_client.c.obj
 .text.config_client_net_beacon_get
                0x00000000       0x24 examples/light_switch/client/CMakeFiles/light_switch_client_nrf51422_xxAC_s130_2.0.1.dir/__/__/__/models/config/src/config_client.c.obj
 .text.config_client_net_beacon_set
                0x00000000       0x5c examples/light_switch/client/CMakeFiles/light_switch_client_nrf51422_xxAC_s130_2.0.1.dir/__/__/__/models/config/src/config_client.c.obj
 .text.config_client_default_ttl_get
                0x00000000       0x18 examples/light_switch/client/CMakeFiles/light_switch_client_nrf51422_xxAC_s130_2.0.1.dir/__/__/__/models/config/src/config_client.c.obj
 .text.config_client_default_ttl_set
                0x00000000       0x64 examples/light_switch/client/CMakeFiles/light_switch_client_nrf51422_xxAC_s130_2.0.1.dir/__/__/__/models/config/src/config_client.c.obj
 .text.config_client_model_subscription_delete
                0x00000000       0x4c examples/light_switch/client/CMakeFiles/light_switch_client_nrf51422_xxAC_s130_2.0.1.dir/__/__/__/models/config/src/config_client.c.obj
 .text.config_client_model_subscription_delete_all
                0x00000000       0x88 examples/light_switch/client/CMakeFiles/light_switch_client_nrf51422_xxAC_s130_2.0.1.dir/__/__/__/models/config/src/config_client.c.obj
 .text.config_client_model_subscription_get
                0x00000000       0x9c examples/light_switch/client/CMakeFiles/light_switch_client_nrf51422_xxAC_s130_2.0.1.dir/__/__/__/models/config/src/config_client.c.obj
 .text.config_client_model_subscription_overwrite
                0x00000000       0x4c examples/light_switch/client/CMakeFiles/light_switch_client_nrf51422_xxAC_s130_2.0.1.dir/__/__/__/models/config/src/config_client.c.obj
 .text.config_client_relay_get
                0x00000000       0x18 examples/light_switch/client/CMakeFiles/light_switch_client_nrf51422_xxAC_s130_2.0.1.dir/__/__/__/models/config/src/config_client.c.obj
 .text.config_client_relay_set
                0x00000000       0x7c examples/light_switch/client/CMakeFiles/light_switch_client_nrf51422_xxAC_s130_2.0.1.dir/__/__/__/models/config/src/config_client.c.obj
 .text.config_client_model_app_get
                0x00000000       0x9c examples/light_switch/client/CMakeFiles/light_switch_client_nrf51422_xxAC_s130_2.0.1.dir/__/__/__/models/config/src/config_client.c.obj
 .text.config_client_model_app_unbind
                0x00000000       0x10 examples/light_switch/client/CMakeFiles/light_switch_client_nrf51422_xxAC_s130_2.0.1.dir/__/__/__/models/config/src/config_client.c.obj
 .text.config_client_netkey_add
                0x00000000       0x70 examples/light_switch/client/CMakeFiles/light_switch_client_nrf51422_xxAC_s130_2.0.1.dir/__/__/__/models/config/src/config_client.c.obj
 .text.config_client_netkey_delete
                0x00000000       0x64 examples/light_switch/client/CMakeFiles/light_switch_client_nrf51422_xxAC_s130_2.0.1.dir/__/__/__/models/config/src/config_client.c.obj
 .text.config_client_netkey_get
                0x00000000       0x24 examples/light_switch/client/CMakeFiles/light_switch_client_nrf51422_xxAC_s130_2.0.1.dir/__/__/__/models/config/src/config_client.c.obj
 .text.config_client_netkey_update
                0x00000000       0x70 examples/light_switch/client/CMakeFiles/light_switch_client_nrf51422_xxAC_s130_2.0.1.dir/__/__/__/models/config/src/config_client.c.obj
 .text.config_client_node_reset
                0x00000000       0x24 examples/light_switch/client/CMakeFiles/light_switch_client_nrf51422_xxAC_s130_2.0.1.dir/__/__/__/models/config/src/config_client.c.obj
 .text.config_client_key_refresh_phase_get
                0x00000000       0x64 examples/light_switch/client/CMakeFiles/light_switch_client_nrf51422_xxAC_s130_2.0.1.dir/__/__/__/models/config/src/config_client.c.obj
 .text.config_client_key_refresh_phase_set
                0x00000000       0x68 examples/light_switch/client/CMakeFiles/light_switch_client_nrf51422_xxAC_s130_2.0.1.dir/__/__/__/models/config/src/config_client.c.obj
 .text.config_client_friend_get
                0x00000000        0x4 examples/light_switch/client/CMakeFiles/light_switch_client_nrf51422_xxAC_s130_2.0.1.dir/__/__/__/models/config/src/config_client.c.obj
 .text.config_client_friend_set
                0x00000000        0x4 examples/light_switch/client/CMakeFiles/light_switch_client_nrf51422_xxAC_s130_2.0.1.dir/__/__/__/models/config/src/config_client.c.obj
 .text.config_client_gatt_proxy_get
                0x00000000        0x4 examples/light_switch/client/CMakeFiles/light_switch_client_nrf51422_xxAC_s130_2.0.1.dir/__/__/__/models/config/src/config_client.c.obj
 .text.config_client_gatt_proxy_set
                0x00000000        0x4 examples/light_switch/client/CMakeFiles/light_switch_client_nrf51422_xxAC_s130_2.0.1.dir/__/__/__/models/config/src/config_client.c.obj
 .text.config_client_node_identity_get
                0x00000000        0x4 examples/light_switch/client/CMakeFiles/light_switch_client_nrf51422_xxAC_s130_2.0.1.dir/__/__/__/models/config/src/config_client.c.obj
 .text.config_client_node_identity_set
                0x00000000        0x4 examples/light_switch/client/CMakeFiles/light_switch_client_nrf51422_xxAC_s130_2.0.1.dir/__/__/__/models/config/src/config_client.c.obj
 .text.config_client_heartbeat_publication_get
                0x00000000       0x20 examples/light_switch/client/CMakeFiles/light_switch_client_nrf51422_xxAC_s130_2.0.1.dir/__/__/__/models/config/src/config_client.c.obj
 .text.config_client_heartbeat_publication_set
                0x00000000       0x60 examples/light_switch/client/CMakeFiles/light_switch_client_nrf51422_xxAC_s130_2.0.1.dir/__/__/__/models/config/src/config_client.c.obj
 .text.config_client_heartbeat_subscription_get
                0x00000000       0x24 examples/light_switch/client/CMakeFiles/light_switch_client_nrf51422_xxAC_s130_2.0.1.dir/__/__/__/models/config/src/config_client.c.obj
 .text.config_client_heartbeat_subscription_set
                0x00000000       0x64 examples/light_switch/client/CMakeFiles/light_switch_client_nrf51422_xxAC_s130_2.0.1.dir/__/__/__/models/config/src/config_client.c.obj
 .text          0x00000000        0x0 examples/light_switch/client/CMakeFiles/light_switch_client_nrf51422_xxAC_s130_2.0.1.dir/__/__/__/models/health/src/health_client.c.obj
 .data          0x00000000        0x0 examples/light_switch/client/CMakeFiles/light_switch_client_nrf51422_xxAC_s130_2.0.1.dir/__/__/__/models/health/src/health_client.c.obj
 .bss           0x00000000        0x0 examples/light_switch/client/CMakeFiles/light_switch_client_nrf51422_xxAC_s130_2.0.1.dir/__/__/__/models/health/src/health_client.c.obj
 .text.reliable_status_cb
                0x00000000       0x30 examples/light_switch/client/CMakeFiles/light_switch_client_nrf51422_xxAC_s130_2.0.1.dir/__/__/__/models/health/src/health_client.c.obj
 .text.reliable_send
                0x00000000       0xc8 examples/light_switch/client/CMakeFiles/light_switch_client_nrf51422_xxAC_s130_2.0.1.dir/__/__/__/models/health/src/health_client.c.obj
 .text.health_client_fault_get
                0x00000000       0x1c examples/light_switch/client/CMakeFiles/light_switch_client_nrf51422_xxAC_s130_2.0.1.dir/__/__/__/models/health/src/health_client.c.obj
 .text.health_client_fault_clear
                0x00000000       0x50 examples/light_switch/client/CMakeFiles/light_switch_client_nrf51422_xxAC_s130_2.0.1.dir/__/__/__/models/health/src/health_client.c.obj
 .text.health_client_fault_test
                0x00000000       0x5c examples/light_switch/client/CMakeFiles/light_switch_client_nrf51422_xxAC_s130_2.0.1.dir/__/__/__/models/health/src/health_client.c.obj
 .text.health_client_period_get
                0x00000000       0x18 examples/light_switch/client/CMakeFiles/light_switch_client_nrf51422_xxAC_s130_2.0.1.dir/__/__/__/models/health/src/health_client.c.obj
 .text.health_client_period_set
                0x00000000       0x54 examples/light_switch/client/CMakeFiles/light_switch_client_nrf51422_xxAC_s130_2.0.1.dir/__/__/__/models/health/src/health_client.c.obj
 .text.health_client_attention_get
                0x00000000       0x18 examples/light_switch/client/CMakeFiles/light_switch_client_nrf51422_xxAC_s130_2.0.1.dir/__/__/__/models/health/src/health_client.c.obj
 .text.health_client_attention_set
                0x00000000       0x54 examples/light_switch/client/CMakeFiles/light_switch_client_nrf51422_xxAC_s130_2.0.1.dir/__/__/__/models/health/src/health_client.c.obj
 .text          0x00000000        0x0 examples/light_switch/client/CMakeFiles/light_switch_client_nrf51422_xxAC_s130_2.0.1.dir/__/__/__/mesh/access/src/access_publish.c.obj
 .data          0x00000000        0x0 examples/light_switch/client/CMakeFiles/light_switch_client_nrf51422_xxAC_s130_2.0.1.dir/__/__/__/mesh/access/src/access_publish.c.obj
 .bss           0x00000000        0x0 examples/light_switch/client/CMakeFiles/light_switch_client_nrf51422_xxAC_s130_2.0.1.dir/__/__/__/mesh/access/src/access_publish.c.obj
 .text.access_publish_period_set
                0x00000000       0x84 examples/light_switch/client/CMakeFiles/light_switch_client_nrf51422_xxAC_s130_2.0.1.dir/__/__/__/mesh/access/src/access_publish.c.obj
 .text.access_publish_period_get
                0x00000000       0x30 examples/light_switch/client/CMakeFiles/light_switch_client_nrf51422_xxAC_s130_2.0.1.dir/__/__/__/mesh/access/src/access_publish.c.obj
 .text          0x00000000        0x0 examples/light_switch/client/CMakeFiles/light_switch_client_nrf51422_xxAC_s130_2.0.1.dir/__/__/__/mesh/access/src/access.c.obj
 .data          0x00000000        0x0 examples/light_switch/client/CMakeFiles/light_switch_client_nrf51422_xxAC_s130_2.0.1.dir/__/__/__/mesh/access/src/access.c.obj
 .bss           0x00000000        0x0 examples/light_switch/client/CMakeFiles/light_switch_client_nrf51422_xxAC_s130_2.0.1.dir/__/__/__/mesh/access/src/access.c.obj
 .text.access_clear
                0x00000000       0x10 examples/light_switch/client/CMakeFiles/light_switch_client_nrf51422_xxAC_s130_2.0.1.dir/__/__/__/mesh/access/src/access.c.obj
 .text.access_model_reply
                0x00000000       0x1c examples/light_switch/client/CMakeFiles/light_switch_client_nrf51422_xxAC_s130_2.0.1.dir/__/__/__/mesh/access/src/access.c.obj
 .text.access_model_publish_period_set
                0x00000000       0x80 examples/light_switch/client/CMakeFiles/light_switch_client_nrf51422_xxAC_s130_2.0.1.dir/__/__/__/mesh/access/src/access.c.obj
 .text.access_model_publish_period_get
                0x00000000       0x44 examples/light_switch/client/CMakeFiles/light_switch_client_nrf51422_xxAC_s130_2.0.1.dir/__/__/__/mesh/access/src/access.c.obj
 .text.access_model_subscription_lists_share
                0x00000000       0x50 examples/light_switch/client/CMakeFiles/light_switch_client_nrf51422_xxAC_s130_2.0.1.dir/__/__/__/mesh/access/src/access.c.obj
 .text.access_model_subscription_add
                0x00000000       0x5c examples/light_switch/client/CMakeFiles/light_switch_client_nrf51422_xxAC_s130_2.0.1.dir/__/__/__/mesh/access/src/access.c.obj
 .text.access_model_subscription_remove
                0x00000000       0x5c examples/light_switch/client/CMakeFiles/light_switch_client_nrf51422_xxAC_s130_2.0.1.dir/__/__/__/mesh/access/src/access.c.obj
 .text.access_model_subscriptions_get
                0x00000000       0x7c examples/light_switch/client/CMakeFiles/light_switch_client_nrf51422_xxAC_s130_2.0.1.dir/__/__/__/mesh/access/src/access.c.obj
 .text.access_model_application_unbind
                0x00000000       0x50 examples/light_switch/client/CMakeFiles/light_switch_client_nrf51422_xxAC_s130_2.0.1.dir/__/__/__/mesh/access/src/access.c.obj
 .text.access_model_applications_get
                0x00000000       0x54 examples/light_switch/client/CMakeFiles/light_switch_client_nrf51422_xxAC_s130_2.0.1.dir/__/__/__/mesh/access/src/access.c.obj
 .text.access_model_publish_application_get
                0x00000000       0x2c examples/light_switch/client/CMakeFiles/light_switch_client_nrf51422_xxAC_s130_2.0.1.dir/__/__/__/mesh/access/src/access.c.obj
 .text.access_default_ttl_set
                0x00000000       0x10 examples/light_switch/client/CMakeFiles/light_switch_client_nrf51422_xxAC_s130_2.0.1.dir/__/__/__/mesh/access/src/access.c.obj
 .text.access_default_ttl_get
                0x00000000        0xc examples/light_switch/client/CMakeFiles/light_switch_client_nrf51422_xxAC_s130_2.0.1.dir/__/__/__/mesh/access/src/access.c.obj
 .text.access_model_publish_ttl_set
                0x00000000       0x44 examples/light_switch/client/CMakeFiles/light_switch_client_nrf51422_xxAC_s130_2.0.1.dir/__/__/__/mesh/access/src/access.c.obj
 .text.access_element_location_set
                0x00000000       0x2c examples/light_switch/client/CMakeFiles/light_switch_client_nrf51422_xxAC_s130_2.0.1.dir/__/__/__/mesh/access/src/access.c.obj
 .text.access_element_location_get
                0x00000000       0x20 examples/light_switch/client/CMakeFiles/light_switch_client_nrf51422_xxAC_s130_2.0.1.dir/__/__/__/mesh/access/src/access.c.obj
 .text.access_element_sig_model_count_get
                0x00000000       0x24 examples/light_switch/client/CMakeFiles/light_switch_client_nrf51422_xxAC_s130_2.0.1.dir/__/__/__/mesh/access/src/access.c.obj
 .text.access_element_vendor_model_count_get
                0x00000000       0x24 examples/light_switch/client/CMakeFiles/light_switch_client_nrf51422_xxAC_s130_2.0.1.dir/__/__/__/mesh/access/src/access.c.obj
 .text.access_model_id_get
                0x00000000       0x38 examples/light_switch/client/CMakeFiles/light_switch_client_nrf51422_xxAC_s130_2.0.1.dir/__/__/__/mesh/access/src/access.c.obj
 .text.access_handle_get
                0x00000000       0x4c examples/light_switch/client/CMakeFiles/light_switch_client_nrf51422_xxAC_s130_2.0.1.dir/__/__/__/mesh/access/src/access.c.obj
 .text.access_element_models_get
                0x00000000       0x60 examples/light_switch/client/CMakeFiles/light_switch_client_nrf51422_xxAC_s130_2.0.1.dir/__/__/__/mesh/access/src/access.c.obj
 .text          0x00000000        0x0 examples/light_switch/client/CMakeFiles/light_switch_client_nrf51422_xxAC_s130_2.0.1.dir/__/__/__/mesh/access/src/access_reliable.c.obj
 .data          0x00000000        0x0 examples/light_switch/client/CMakeFiles/light_switch_client_nrf51422_xxAC_s130_2.0.1.dir/__/__/__/mesh/access/src/access_reliable.c.obj
 .bss           0x00000000        0x0 examples/light_switch/client/CMakeFiles/light_switch_client_nrf51422_xxAC_s130_2.0.1.dir/__/__/__/mesh/access/src/access_reliable.c.obj
 .text.access_reliable_cancel_all
                0x00000000       0x34 examples/light_switch/client/CMakeFiles/light_switch_client_nrf51422_xxAC_s130_2.0.1.dir/__/__/__/mesh/access/src/access_reliable.c.obj
 .text.access_model_reliable_cancel
                0x00000000       0x48 examples/light_switch/client/CMakeFiles/light_switch_client_nrf51422_xxAC_s130_2.0.1.dir/__/__/__/mesh/access/src/access_reliable.c.obj
 .text          0x00000000        0x0 examples/light_switch/client/CMakeFiles/light_switch_client_nrf51422_xxAC_s130_2.0.1.dir/__/__/__/mesh/access/src/device_state_manager.c.obj
 .data          0x00000000        0x0 examples/light_switch/client/CMakeFiles/light_switch_client_nrf51422_xxAC_s130_2.0.1.dir/__/__/__/mesh/access/src/device_state_manager.c.obj
 .bss           0x00000000        0x0 examples/light_switch/client/CMakeFiles/light_switch_client_nrf51422_xxAC_s130_2.0.1.dir/__/__/__/mesh/access/src/device_state_manager.c.obj
 .text.add_address_virtual
                0x00000000       0x7c examples/light_switch/client/CMakeFiles/light_switch_client_nrf51422_xxAC_s130_2.0.1.dir/__/__/__/mesh/access/src/device_state_manager.c.obj
 .text.dsm_has_unflashed_data
                0x00000000       0x28 examples/light_switch/client/CMakeFiles/light_switch_client_nrf51422_xxAC_s130_2.0.1.dir/__/__/__/mesh/access/src/device_state_manager.c.obj
 .text.dsm_clear
                0x00000000       0x68 examples/light_switch/client/CMakeFiles/light_switch_client_nrf51422_xxAC_s130_2.0.1.dir/__/__/__/mesh/access/src/device_state_manager.c.obj
 .text.dsm_address_publish_virtual_add
                0x00000000        0xa examples/light_switch/client/CMakeFiles/light_switch_client_nrf51422_xxAC_s130_2.0.1.dir/__/__/__/mesh/access/src/device_state_manager.c.obj
 .text.dsm_address_subscription_add
                0x00000000       0x14 examples/light_switch/client/CMakeFiles/light_switch_client_nrf51422_xxAC_s130_2.0.1.dir/__/__/__/mesh/access/src/device_state_manager.c.obj
 .text.dsm_address_subscription_virtual_add
                0x00000000        0xa examples/light_switch/client/CMakeFiles/light_switch_client_nrf51422_xxAC_s130_2.0.1.dir/__/__/__/mesh/access/src/device_state_manager.c.obj
 .text.dsm_address_subscription_count_get
                0x00000000       0x58 examples/light_switch/client/CMakeFiles/light_switch_client_nrf51422_xxAC_s130_2.0.1.dir/__/__/__/mesh/access/src/device_state_manager.c.obj
 .text.dsm_address_subscription_remove
                0x00000000       0x60 examples/light_switch/client/CMakeFiles/light_switch_client_nrf51422_xxAC_s130_2.0.1.dir/__/__/__/mesh/access/src/device_state_manager.c.obj
 .text.dsm_net_key_index_to_subnet_handle
                0x00000000       0x1c examples/light_switch/client/CMakeFiles/light_switch_client_nrf51422_xxAC_s130_2.0.1.dir/__/__/__/mesh/access/src/device_state_manager.c.obj
 .text.dsm_subnet_handle_get
                0x00000000       0x14 examples/light_switch/client/CMakeFiles/light_switch_client_nrf51422_xxAC_s130_2.0.1.dir/__/__/__/mesh/access/src/device_state_manager.c.obj
 .text.dsm_subnet_handle_to_netkey_index
                0x00000000       0x34 examples/light_switch/client/CMakeFiles/light_switch_client_nrf51422_xxAC_s130_2.0.1.dir/__/__/__/mesh/access/src/device_state_manager.c.obj
 .text.dsm_appkey_index_to_appkey_handle
                0x00000000       0x1c examples/light_switch/client/CMakeFiles/light_switch_client_nrf51422_xxAC_s130_2.0.1.dir/__/__/__/mesh/access/src/device_state_manager.c.obj
 .text.dsm_appkey_handle_to_appkey_index
                0x00000000       0x34 examples/light_switch/client/CMakeFiles/light_switch_client_nrf51422_xxAC_s130_2.0.1.dir/__/__/__/mesh/access/src/device_state_manager.c.obj
 .text.dsm_subnet_kr_phase_get
                0x00000000       0x30 examples/light_switch/client/CMakeFiles/light_switch_client_nrf51422_xxAC_s130_2.0.1.dir/__/__/__/mesh/access/src/device_state_manager.c.obj
 .text.dsm_subnet_update
                0x00000000       0xa8 examples/light_switch/client/CMakeFiles/light_switch_client_nrf51422_xxAC_s130_2.0.1.dir/__/__/__/mesh/access/src/device_state_manager.c.obj
 .text.dsm_appkey_update
                0x00000000       0x8c examples/light_switch/client/CMakeFiles/light_switch_client_nrf51422_xxAC_s130_2.0.1.dir/__/__/__/mesh/access/src/device_state_manager.c.obj
 .text.dsm_appkey_delete
                0x00000000       0x34 examples/light_switch/client/CMakeFiles/light_switch_client_nrf51422_xxAC_s130_2.0.1.dir/__/__/__/mesh/access/src/device_state_manager.c.obj
 .text.dsm_subnet_delete
                0x00000000       0xac examples/light_switch/client/CMakeFiles/light_switch_client_nrf51422_xxAC_s130_2.0.1.dir/__/__/__/mesh/access/src/device_state_manager.c.obj
 .text.dsm_beacon_secmat_get
                0x00000000       0x34 examples/light_switch/client/CMakeFiles/light_switch_client_nrf51422_xxAC_s130_2.0.1.dir/__/__/__/mesh/access/src/device_state_manager.c.obj
 .text.dsm_net_secmat_from_keyindex_get
                0x00000000       0x38 examples/light_switch/client/CMakeFiles/light_switch_client_nrf51422_xxAC_s130_2.0.1.dir/__/__/__/mesh/access/src/device_state_manager.c.obj
 .text.dsm_proxy_identity_get
                0x00000000        0x4 examples/light_switch/client/CMakeFiles/light_switch_client_nrf51422_xxAC_s130_2.0.1.dir/__/__/__/mesh/access/src/device_state_manager.c.obj
 .text          0x00000000        0x0 examples/light_switch/client/CMakeFiles/light_switch_client_nrf51422_xxAC_s130_2.0.1.dir/__/__/__/mesh/prov/src/prov_provisioner.c.obj
 .data          0x00000000        0x0 examples/light_switch/client/CMakeFiles/light_switch_client_nrf51422_xxAC_s130_2.0.1.dir/__/__/__/mesh/prov/src/prov_provisioner.c.obj
 .bss           0x00000000        0x0 examples/light_switch/client/CMakeFiles/light_switch_client_nrf51422_xxAC_s130_2.0.1.dir/__/__/__/mesh/prov/src/prov_provisioner.c.obj
 .text.prov_provisioner_shared_secret
                0x00000000       0x28 examples/light_switch/client/CMakeFiles/light_switch_client_nrf51422_xxAC_s130_2.0.1.dir/__/__/__/mesh/prov/src/prov_provisioner.c.obj
 .text.prov_provisioner_oob_pubkey
                0x00000000       0x32 examples/light_switch/client/CMakeFiles/light_switch_client_nrf51422_xxAC_s130_2.0.1.dir/__/__/__/mesh/prov/src/prov_provisioner.c.obj
 .text          0x00000000        0x0 examples/light_switch/client/CMakeFiles/light_switch_client_nrf51422_xxAC_s130_2.0.1.dir/__/__/__/mesh/prov/src/nrf_mesh_prov.c.obj
 .data          0x00000000        0x0 examples/light_switch/client/CMakeFiles/light_switch_client_nrf51422_xxAC_s130_2.0.1.dir/__/__/__/mesh/prov/src/nrf_mesh_prov.c.obj
 .bss           0x00000000        0x0 examples/light_switch/client/CMakeFiles/light_switch_client_nrf51422_xxAC_s130_2.0.1.dir/__/__/__/mesh/prov/src/nrf_mesh_prov.c.obj
 .text.nrf_mesh_prov_listen
                0x00000000       0x36 examples/light_switch/client/CMakeFiles/light_switch_client_nrf51422_xxAC_s130_2.0.1.dir/__/__/__/mesh/prov/src/nrf_mesh_prov.c.obj
 .text.nrf_mesh_prov_shared_secret_provide
                0x00000000       0x18 examples/light_switch/client/CMakeFiles/light_switch_client_nrf51422_xxAC_s130_2.0.1.dir/__/__/__/mesh/prov/src/nrf_mesh_prov.c.obj
 .text.nrf_mesh_prov_pubkey_provide
                0x00000000       0x18 examples/light_switch/client/CMakeFiles/light_switch_client_nrf51422_xxAC_s130_2.0.1.dir/__/__/__/mesh/prov/src/nrf_mesh_prov.c.obj
 .text.nrf_mesh_prov_scan_stop
                0x00000000        0x8 examples/light_switch/client/CMakeFiles/light_switch_client_nrf51422_xxAC_s130_2.0.1.dir/__/__/__/mesh/prov/src/nrf_mesh_prov.c.obj
 .text          0x00000000        0x0 examples/light_switch/client/CMakeFiles/light_switch_client_nrf51422_xxAC_s130_2.0.1.dir/__/__/__/mesh/prov/src/provisioning.c.obj
 .data          0x00000000        0x0 examples/light_switch/client/CMakeFiles/light_switch_client_nrf51422_xxAC_s130_2.0.1.dir/__/__/__/mesh/prov/src/provisioning.c.obj
 .bss           0x00000000        0x0 examples/light_switch/client/CMakeFiles/light_switch_client_nrf51422_xxAC_s130_2.0.1.dir/__/__/__/mesh/prov/src/provisioning.c.obj
 .text.prov_tx_capabilities
                0x00000000       0x1c examples/light_switch/client/CMakeFiles/light_switch_client_nrf51422_xxAC_s130_2.0.1.dir/__/__/__/mesh/prov/src/provisioning.c.obj
 .text.prov_tx_input_complete
                0x00000000       0x10 examples/light_switch/client/CMakeFiles/light_switch_client_nrf51422_xxAC_s130_2.0.1.dir/__/__/__/mesh/prov/src/provisioning.c.obj
 .text.prov_tx_complete
                0x00000000       0x10 examples/light_switch/client/CMakeFiles/light_switch_client_nrf51422_xxAC_s130_2.0.1.dir/__/__/__/mesh/prov/src/provisioning.c.obj
 .text.prov_tx_failed
                0x00000000       0x14 examples/light_switch/client/CMakeFiles/light_switch_client_nrf51422_xxAC_s130_2.0.1.dir/__/__/__/mesh/prov/src/provisioning.c.obj
 .text.prov_tx  0x00000000        0x8 examples/light_switch/client/CMakeFiles/light_switch_client_nrf51422_xxAC_s130_2.0.1.dir/__/__/__/mesh/prov/src/provisioning.c.obj
 .text          0x00000000        0x0 examples/light_switch/client/CMakeFiles/light_switch_client_nrf51422_xxAC_s130_2.0.1.dir/__/__/__/mesh/prov/src/prov_beacon.c.obj
 .data          0x00000000        0x0 examples/light_switch/client/CMakeFiles/light_switch_client_nrf51422_xxAC_s130_2.0.1.dir/__/__/__/mesh/prov/src/prov_beacon.c.obj
 .bss           0x00000000        0x0 examples/light_switch/client/CMakeFiles/light_switch_client_nrf51422_xxAC_s130_2.0.1.dir/__/__/__/mesh/prov/src/prov_beacon.c.obj
 .text.prov_beacon_scan_stop
                0x00000000        0xc examples/light_switch/client/CMakeFiles/light_switch_client_nrf51422_xxAC_s130_2.0.1.dir/__/__/__/mesh/prov/src/prov_beacon.c.obj
 .text          0x00000000        0x0 examples/light_switch/client/CMakeFiles/light_switch_client_nrf51422_xxAC_s130_2.0.1.dir/__/__/__/mesh/prov/src/prov_utils.c.obj
 .data          0x00000000        0x0 examples/light_switch/client/CMakeFiles/light_switch_client_nrf51422_xxAC_s130_2.0.1.dir/__/__/__/mesh/prov/src/prov_utils.c.obj
 .bss           0x00000000        0x0 examples/light_switch/client/CMakeFiles/light_switch_client_nrf51422_xxAC_s130_2.0.1.dir/__/__/__/mesh/prov/src/prov_utils.c.obj
 .text.prov_utils_opt_set
                0x00000000       0x20 examples/light_switch/client/CMakeFiles/light_switch_client_nrf51422_xxAC_s130_2.0.1.dir/__/__/__/mesh/prov/src/prov_utils.c.obj
 .text          0x00000000        0x0 examples/light_switch/client/CMakeFiles/light_switch_client_nrf51422_xxAC_s130_2.0.1.dir/__/__/__/mesh/prov/src/prov_bearer_adv.c.obj
 .data          0x00000000        0x0 examples/light_switch/client/CMakeFiles/light_switch_client_nrf51422_xxAC_s130_2.0.1.dir/__/__/__/mesh/prov/src/prov_bearer_adv.c.obj
 .bss           0x00000000        0x0 examples/light_switch/client/CMakeFiles/light_switch_client_nrf51422_xxAC_s130_2.0.1.dir/__/__/__/mesh/prov/src/prov_bearer_adv.c.obj
 .text          0x00000000        0x0 examples/light_switch/client/CMakeFiles/light_switch_client_nrf51422_xxAC_s130_2.0.1.dir/__/__/__/external/nRF5_SDK_14.2.0_17b948a/components/toolchain/system_nrf51.c.obj
 .data          0x00000000        0x0 examples/light_switch/client/CMakeFiles/light_switch_client_nrf51422_xxAC_s130_2.0.1.dir/__/__/__/external/nRF5_SDK_14.2.0_17b948a/components/toolchain/system_nrf51.c.obj
 .bss           0x00000000        0x0 examples/light_switch/client/CMakeFiles/light_switch_client_nrf51422_xxAC_s130_2.0.1.dir/__/__/__/external/nRF5_SDK_14.2.0_17b948a/components/toolchain/system_nrf51.c.obj
 .text.SystemCoreClockUpdate
                0x00000000       0x10 examples/light_switch/client/CMakeFiles/light_switch_client_nrf51422_xxAC_s130_2.0.1.dir/__/__/__/external/nRF5_SDK_14.2.0_17b948a/components/toolchain/system_nrf51.c.obj
 .data          0x00000000        0x0 examples/light_switch/client/CMakeFiles/light_switch_client_nrf51422_xxAC_s130_2.0.1.dir/__/__/__/external/nRF5_SDK_14.2.0_17b948a/components/toolchain/gcc/gcc_startup_nrf51.S.obj
 .bss           0x00000000        0x0 examples/light_switch/client/CMakeFiles/light_switch_client_nrf51422_xxAC_s130_2.0.1.dir/__/__/__/external/nRF5_SDK_14.2.0_17b948a/components/toolchain/gcc/gcc_startup_nrf51.S.obj
 .text          0x00000000        0x0 mesh/core/libmesh_core_nrf51422_xxAC.a(nrf_mesh_configure.c.obj)
 .data          0x00000000        0x0 mesh/core/libmesh_core_nrf51422_xxAC.a(nrf_mesh_configure.c.obj)
 .bss           0x00000000        0x0 mesh/core/libmesh_core_nrf51422_xxAC.a(nrf_mesh_configure.c.obj)
 .text.nrf_mesh_configure_device_uuid_set
                0x00000000       0x14 mesh/core/libmesh_core_nrf51422_xxAC.a(nrf_mesh_configure.c.obj)
 .text          0x00000000        0x0 mesh/core/libmesh_core_nrf51422_xxAC.a(event.c.obj)
 .data          0x00000000        0x0 mesh/core/libmesh_core_nrf51422_xxAC.a(event.c.obj)
 .bss           0x00000000        0x0 mesh/core/libmesh_core_nrf51422_xxAC.a(event.c.obj)
 .text          0x00000000        0x0 mesh/core/libmesh_core_nrf51422_xxAC.a(packet_mgr.c.obj)
 .data          0x00000000        0x0 mesh/core/libmesh_core_nrf51422_xxAC.a(packet_mgr.c.obj)
 .bss           0x00000000        0x0 mesh/core/libmesh_core_nrf51422_xxAC.a(packet_mgr.c.obj)
 .text.packet_mgr_get_free_space
                0x00000000       0x1c mesh/core/libmesh_core_nrf51422_xxAC.a(packet_mgr.c.obj)
 .text.packet_mgr_refcount_get
                0x00000000        0x6 mesh/core/libmesh_core_nrf51422_xxAC.a(packet_mgr.c.obj)
 .text.packet_mgr_size_get
                0x00000000        0x6 mesh/core/libmesh_core_nrf51422_xxAC.a(packet_mgr.c.obj)
 .text          0x00000000        0x0 mesh/core/libmesh_core_nrf51422_xxAC.a(net_state.c.obj)
 .data          0x00000000        0x0 mesh/core/libmesh_core_nrf51422_xxAC.a(net_state.c.obj)
 .bss           0x00000000        0x0 mesh/core/libmesh_core_nrf51422_xxAC.a(net_state.c.obj)
 .text.net_state_reset
                0x00000000       0x3c mesh/core/libmesh_core_nrf51422_xxAC.a(net_state.c.obj)
 .text.net_state_iv_update_test_mode_set
                0x00000000        0xc mesh/core/libmesh_core_nrf51422_xxAC.a(net_state.c.obj)
 .data.mem_listener.7204
                0x00000000       0x10 mesh/core/libmesh_core_nrf51422_xxAC.a(net_state.c.obj)
 .text          0x00000000        0x0 mesh/core/libmesh_core_nrf51422_xxAC.a(nrf_mesh_utils.c.obj)
 .data          0x00000000        0x0 mesh/core/libmesh_core_nrf51422_xxAC.a(nrf_mesh_utils.c.obj)
 .bss           0x00000000        0x0 mesh/core/libmesh_core_nrf51422_xxAC.a(nrf_mesh_utils.c.obj)
 .text.nrf_mesh_rand_get
                0x00000000       0x14 mesh/core/libmesh_core_nrf51422_xxAC.a(nrf_mesh_utils.c.obj)
 .text.nrf_mesh_gap_address_type_get
                0x00000000       0x40 mesh/core/libmesh_core_nrf51422_xxAC.a(nrf_mesh_utils.c.obj)
 .text          0x00000000        0x0 mesh/core/libmesh_core_nrf51422_xxAC.a(nrf_mesh.c.obj)
 .data          0x00000000        0x0 mesh/core/libmesh_core_nrf51422_xxAC.a(nrf_mesh.c.obj)
 .bss           0x00000000        0x0 mesh/core/libmesh_core_nrf51422_xxAC.a(nrf_mesh.c.obj)
 .text.nrf_mesh_disable
                0x00000000       0x28 mesh/core/libmesh_core_nrf51422_xxAC.a(nrf_mesh.c.obj)
 .text.nrf_mesh_process
                0x00000000        0x8 mesh/core/libmesh_core_nrf51422_xxAC.a(nrf_mesh.c.obj)
 .text.nrf_mesh_evt_handler_remove
                0x00000000        0x8 mesh/core/libmesh_core_nrf51422_xxAC.a(nrf_mesh.c.obj)
 .text.nrf_mesh_rx_cb_set
                0x00000000        0xc mesh/core/libmesh_core_nrf51422_xxAC.a(nrf_mesh.c.obj)
 .text.nrf_mesh_rx_cb_clear
                0x00000000        0xc mesh/core/libmesh_core_nrf51422_xxAC.a(nrf_mesh.c.obj)
 .text          0x00000000        0x0 mesh/core/libmesh_core_nrf51422_xxAC.a(hal.c.obj)
 .data          0x00000000        0x0 mesh/core/libmesh_core_nrf51422_xxAC.a(hal.c.obj)
 .bss           0x00000000        0x0 mesh/core/libmesh_core_nrf51422_xxAC.a(hal.c.obj)
 .text.sd_power_reset_reason_clr
                0x00000000        0x4 mesh/core/libmesh_core_nrf51422_xxAC.a(hal.c.obj)
 .text.sd_power_gpregret_set
                0x00000000        0x4 mesh/core/libmesh_core_nrf51422_xxAC.a(hal.c.obj)
 .text.hal_device_reset
                0x00000000       0x2c mesh/core/libmesh_core_nrf51422_xxAC.a(hal.c.obj)
 .text          0x00000000        0x0 mesh/core/libmesh_core_nrf51422_xxAC.a(timer_scheduler.c.obj)
 .data          0x00000000        0x0 mesh/core/libmesh_core_nrf51422_xxAC.a(timer_scheduler.c.obj)
 .bss           0x00000000        0x0 mesh/core/libmesh_core_nrf51422_xxAC.a(timer_scheduler.c.obj)
 .text          0x00000000        0x0 mesh/core/libmesh_core_nrf51422_xxAC.a(timer.c.obj)
 .data          0x00000000        0x0 mesh/core/libmesh_core_nrf51422_xxAC.a(timer.c.obj)
 .bss           0x00000000        0x0 mesh/core/libmesh_core_nrf51422_xxAC.a(timer.c.obj)
 .text.timer_order_cb_ppi
                0x00000000       0xc8 mesh/core/libmesh_core_nrf51422_xxAC.a(timer.c.obj)
 .text.timer_order_ppi
                0x00000000       0xc4 mesh/core/libmesh_core_nrf51422_xxAC.a(timer.c.obj)
 .text.timer_abort
                0x00000000       0x7c mesh/core/libmesh_core_nrf51422_xxAC.a(timer.c.obj)
 .text          0x00000000        0x0 mesh/core/libmesh_core_nrf51422_xxAC.a(ticker.c.obj)
 .data          0x00000000        0x0 mesh/core/libmesh_core_nrf51422_xxAC.a(ticker.c.obj)
 .bss           0x00000000        0x0 mesh/core/libmesh_core_nrf51422_xxAC.a(ticker.c.obj)
 .text.ticker_get
                0x00000000        0xc mesh/core/libmesh_core_nrf51422_xxAC.a(ticker.c.obj)
 .text          0x00000000        0x0 mesh/core/libmesh_core_nrf51422_xxAC.a(rand.c.obj)
 .data          0x00000000        0x0 mesh/core/libmesh_core_nrf51422_xxAC.a(rand.c.obj)
 .bss           0x00000000        0x0 mesh/core/libmesh_core_nrf51422_xxAC.a(rand.c.obj)
 .text          0x00000000        0x0 mesh/core/libmesh_core_nrf51422_xxAC.a(timeslot.c.obj)
 .data          0x00000000        0x0 mesh/core/libmesh_core_nrf51422_xxAC.a(timeslot.c.obj)
 .bss           0x00000000        0x0 mesh/core/libmesh_core_nrf51422_xxAC.a(timeslot.c.obj)
 .text.timeslot_end_time_get
                0x00000000       0x18 mesh/core/libmesh_core_nrf51422_xxAC.a(timeslot.c.obj)
 .text.timeslot_is_in_ts
                0x00000000        0xc mesh/core/libmesh_core_nrf51422_xxAC.a(timeslot.c.obj)
 .text.timeslot_restart
                0x00000000       0x14 mesh/core/libmesh_core_nrf51422_xxAC.a(timeslot.c.obj)
 .text          0x00000000        0x0 mesh/core/libmesh_core_nrf51422_xxAC.a(bearer_event.c.obj)
 .data          0x00000000        0x0 mesh/core/libmesh_core_nrf51422_xxAC.a(bearer_event.c.obj)
 .bss           0x00000000        0x0 mesh/core/libmesh_core_nrf51422_xxAC.a(bearer_event.c.obj)
 .text.bearer_event_generic_post
                0x00000000       0x34 mesh/core/libmesh_core_nrf51422_xxAC.a(bearer_event.c.obj)
 .text.bearer_event_timer_sch_post
                0x00000000       0x38 mesh/core/libmesh_core_nrf51422_xxAC.a(bearer_event.c.obj)
 .text.bearer_event_in_correct_irq_priority
                0x00000000       0x60 mesh/core/libmesh_core_nrf51422_xxAC.a(bearer_event.c.obj)
 .text          0x00000000        0x0 mesh/core/libmesh_core_nrf51422_xxAC.a(enc.c.obj)
 .data          0x00000000        0x0 mesh/core/libmesh_core_nrf51422_xxAC.a(enc.c.obj)
 .bss           0x00000000        0x0 mesh/core/libmesh_core_nrf51422_xxAC.a(enc.c.obj)
 .text.enc_key_generate
                0x00000000        0xa mesh/core/libmesh_core_nrf51422_xxAC.a(enc.c.obj)
 .text          0x00000000        0x0 mesh/core/libmesh_core_nrf51422_xxAC.a(network.c.obj)
 .data          0x00000000        0x0 mesh/core/libmesh_core_nrf51422_xxAC.a(network.c.obj)
 .bss           0x00000000        0x0 mesh/core/libmesh_core_nrf51422_xxAC.a(network.c.obj)
 .text.network_opt_set
                0x00000000       0x68 mesh/core/libmesh_core_nrf51422_xxAC.a(network.c.obj)
 .text.network_packet_discard
                0x00000000       0x40 mesh/core/libmesh_core_nrf51422_xxAC.a(network.c.obj)
 .text          0x00000000        0x0 mesh/core/libmesh_core_nrf51422_xxAC.a(nrf_mesh_keygen.c.obj)
 .data          0x00000000        0x0 mesh/core/libmesh_core_nrf51422_xxAC.a(nrf_mesh_keygen.c.obj)
 .bss           0x00000000        0x0 mesh/core/libmesh_core_nrf51422_xxAC.a(nrf_mesh_keygen.c.obj)
 .text.nrf_mesh_keygen_identitykey
                0x00000000       0x4c mesh/core/libmesh_core_nrf51422_xxAC.a(nrf_mesh_keygen.c.obj)
 .text          0x00000000        0x0 mesh/core/libmesh_core_nrf51422_xxAC.a(list.c.obj)
 .data          0x00000000        0x0 mesh/core/libmesh_core_nrf51422_xxAC.a(list.c.obj)
 .bss           0x00000000        0x0 mesh/core/libmesh_core_nrf51422_xxAC.a(list.c.obj)
 .text.list_size_get
                0x00000000       0x12 mesh/core/libmesh_core_nrf51422_xxAC.a(list.c.obj)
 .text.list_sorted_add
                0x00000000       0x94 mesh/core/libmesh_core_nrf51422_xxAC.a(list.c.obj)
 .text          0x00000000        0x0 mesh/core/libmesh_core_nrf51422_xxAC.a(log.c.obj)
 .data          0x00000000        0x0 mesh/core/libmesh_core_nrf51422_xxAC.a(log.c.obj)
 .bss           0x00000000        0x0 mesh/core/libmesh_core_nrf51422_xxAC.a(log.c.obj)
 .text.log_callback_logview
                0x00000000       0x34 mesh/core/libmesh_core_nrf51422_xxAC.a(log.c.obj)
 .text.log_set_callback
                0x00000000        0xc mesh/core/libmesh_core_nrf51422_xxAC.a(log.c.obj)
 .rodata.log_callback_logview.str1.1
                0x00000000        0xf mesh/core/libmesh_core_nrf51422_xxAC.a(log.c.obj)
 .text          0x00000000        0x0 mesh/core/libmesh_core_nrf51422_xxAC.a(flash_manager.c.obj)
 .data          0x00000000        0x0 mesh/core/libmesh_core_nrf51422_xxAC.a(flash_manager.c.obj)
 .bss           0x00000000        0x0 mesh/core/libmesh_core_nrf51422_xxAC.a(flash_manager.c.obj)
 .text.flash_manager_entry_count_get
                0x00000000       0x5c mesh/core/libmesh_core_nrf51422_xxAC.a(flash_manager.c.obj)
 .text.flash_manager_entry_release
                0x00000000       0x10 mesh/core/libmesh_core_nrf51422_xxAC.a(flash_manager.c.obj)
 .text.flash_manager_action_queue_empty_cb_set
                0x00000000       0x2c mesh/core/libmesh_core_nrf51422_xxAC.a(flash_manager.c.obj)
 .text          0x00000000        0x0 mesh/core/libmesh_core_nrf51422_xxAC.a(ccm_soft.c.obj)
 .data          0x00000000        0x0 mesh/core/libmesh_core_nrf51422_xxAC.a(ccm_soft.c.obj)
 .bss           0x00000000        0x0 mesh/core/libmesh_core_nrf51422_xxAC.a(ccm_soft.c.obj)
 .text          0x00000000        0x0 mesh/core/libmesh_core_nrf51422_xxAC.a(beacon.c.obj)
 .data          0x00000000        0x0 mesh/core/libmesh_core_nrf51422_xxAC.a(beacon.c.obj)
 .bss           0x00000000        0x0 mesh/core/libmesh_core_nrf51422_xxAC.a(beacon.c.obj)
 .text          0x00000000        0x0 mesh/core/libmesh_core_nrf51422_xxAC.a(flash_manager_internal.c.obj)
 .data          0x00000000        0x0 mesh/core/libmesh_core_nrf51422_xxAC.a(flash_manager_internal.c.obj)
 .bss           0x00000000        0x0 mesh/core/libmesh_core_nrf51422_xxAC.a(flash_manager_internal.c.obj)
 .text          0x00000000        0x0 mesh/core/libmesh_core_nrf51422_xxAC.a(core_tx.c.obj)
 .data          0x00000000        0x0 mesh/core/libmesh_core_nrf51422_xxAC.a(core_tx.c.obj)
 .bss           0x00000000        0x0 mesh/core/libmesh_core_nrf51422_xxAC.a(core_tx.c.obj)
 .text          0x00000000        0x0 mesh/core/libmesh_core_nrf51422_xxAC.a(heartbeat.c.obj)
 .data          0x00000000        0x0 mesh/core/libmesh_core_nrf51422_xxAC.a(heartbeat.c.obj)
 .bss           0x00000000        0x0 mesh/core/libmesh_core_nrf51422_xxAC.a(heartbeat.c.obj)
 .text.heartbeat_on_feature_change_trigger
                0x00000000       0x58 mesh/core/libmesh_core_nrf51422_xxAC.a(heartbeat.c.obj)
 .text.heartbeat_subscription_set
                0x00000000       0x98 mesh/core/libmesh_core_nrf51422_xxAC.a(heartbeat.c.obj)
 .text.heartbeat_subscription_get
                0x00000000        0x8 mesh/core/libmesh_core_nrf51422_xxAC.a(heartbeat.c.obj)
 .text.heartbeat_config_server_cb_set
                0x00000000       0x44 mesh/core/libmesh_core_nrf51422_xxAC.a(heartbeat.c.obj)
 .text.heartbeat_publication_state_updated
                0x00000000       0x88 mesh/core/libmesh_core_nrf51422_xxAC.a(heartbeat.c.obj)
 .text          0x00000000        0x0 mesh/core/libmesh_core_nrf51422_xxAC.a(net_beacon.c.obj)
 .data          0x00000000        0x0 mesh/core/libmesh_core_nrf51422_xxAC.a(net_beacon.c.obj)
 .bss           0x00000000        0x0 mesh/core/libmesh_core_nrf51422_xxAC.a(net_beacon.c.obj)
 .text.net_beacon_state_set
                0x00000000       0x38 mesh/core/libmesh_core_nrf51422_xxAC.a(net_beacon.c.obj)
 .text.net_beacon_state_get
                0x00000000        0xc mesh/core/libmesh_core_nrf51422_xxAC.a(net_beacon.c.obj)
 .text          0x00000000        0x0 mesh/core/libmesh_core_nrf51422_xxAC.a(core_tx_adv.c.obj)
 .data          0x00000000        0x0 mesh/core/libmesh_core_nrf51422_xxAC.a(core_tx_adv.c.obj)
 .bss           0x00000000        0x0 mesh/core/libmesh_core_nrf51422_xxAC.a(core_tx_adv.c.obj)
 .text.core_tx_adv_count_set
                0x00000000       0x40 mesh/core/libmesh_core_nrf51422_xxAC.a(core_tx_adv.c.obj)
 .text.core_tx_adv_interval_set
                0x00000000       0x34 mesh/core/libmesh_core_nrf51422_xxAC.a(core_tx_adv.c.obj)
 .text.core_tx_adv_address_set
                0x00000000       0x34 mesh/core/libmesh_core_nrf51422_xxAC.a(core_tx_adv.c.obj)
 .text          0x00000000        0x0 mesh/core/libmesh_core_nrf51422_xxAC.a(ad_listener.c.obj)
 .data          0x00000000        0x0 mesh/core/libmesh_core_nrf51422_xxAC.a(ad_listener.c.obj)
 .bss           0x00000000        0x0 mesh/core/libmesh_core_nrf51422_xxAC.a(ad_listener.c.obj)
 .text.ad_listener_unsubscribe
                0x00000000       0x7c mesh/core/libmesh_core_nrf51422_xxAC.a(ad_listener.c.obj)
 .text          0x00000000        0x0 mesh/core/libmesh_core_nrf51422_xxAC.a(ad_type_filter.c.obj)
 .data          0x00000000        0x0 mesh/core/libmesh_core_nrf51422_xxAC.a(ad_type_filter.c.obj)
 .bss           0x00000000        0x0 mesh/core/libmesh_core_nrf51422_xxAC.a(ad_type_filter.c.obj)
 .text.bearer_adtype_remove
                0x00000000       0x20 mesh/core/libmesh_core_nrf51422_xxAC.a(ad_type_filter.c.obj)
 .text.bearer_adtype_clear
                0x00000000       0x14 mesh/core/libmesh_core_nrf51422_xxAC.a(ad_type_filter.c.obj)
 .text.bearer_invalid_length_amount_get
                0x00000000        0xc mesh/core/libmesh_core_nrf51422_xxAC.a(ad_type_filter.c.obj)
 .text.bearer_adtype_filtered_amount_get
                0x00000000        0xc mesh/core/libmesh_core_nrf51422_xxAC.a(ad_type_filter.c.obj)
 .text          0x00000000        0x0 mesh/core/libmesh_core_nrf51422_xxAC.a(advertiser.c.obj)
 .data          0x00000000        0x0 mesh/core/libmesh_core_nrf51422_xxAC.a(advertiser.c.obj)
 .bss           0x00000000        0x0 mesh/core/libmesh_core_nrf51422_xxAC.a(advertiser.c.obj)
 .text.advertiser_disable
                0x00000000        0xe mesh/core/libmesh_core_nrf51422_xxAC.a(advertiser.c.obj)
 .text.advertiser_channels_set
                0x00000000       0x94 mesh/core/libmesh_core_nrf51422_xxAC.a(advertiser.c.obj)
 .text.advertiser_address_set
                0x00000000       0x58 mesh/core/libmesh_core_nrf51422_xxAC.a(advertiser.c.obj)
 .text.advertiser_config_set
                0x00000000       0x48 mesh/core/libmesh_core_nrf51422_xxAC.a(advertiser.c.obj)
 .text.advertiser_config_get
                0x00000000       0x30 mesh/core/libmesh_core_nrf51422_xxAC.a(advertiser.c.obj)
 .text          0x00000000        0x0 mesh/core/libmesh_core_nrf51422_xxAC.a(bearer_handler.c.obj)
 .data          0x00000000        0x0 mesh/core/libmesh_core_nrf51422_xxAC.a(bearer_handler.c.obj)
 .bss           0x00000000        0x0 mesh/core/libmesh_core_nrf51422_xxAC.a(bearer_handler.c.obj)
 .text.bearer_handler_stop
                0x00000000       0x20 mesh/core/libmesh_core_nrf51422_xxAC.a(bearer_handler.c.obj)
 .text.bearer_handler_action_fire
                0x00000000       0xcc mesh/core/libmesh_core_nrf51422_xxAC.a(bearer_handler.c.obj)
 .text          0x00000000        0x0 mesh/core/libmesh_core_nrf51422_xxAC.a(broadcast.c.obj)
 .data          0x00000000        0x0 mesh/core/libmesh_core_nrf51422_xxAC.a(broadcast.c.obj)
 .bss           0x00000000        0x0 mesh/core/libmesh_core_nrf51422_xxAC.a(broadcast.c.obj)
 .text          0x00000000        0x0 mesh/core/libmesh_core_nrf51422_xxAC.a(filter_engine.c.obj)
 .data          0x00000000        0x0 mesh/core/libmesh_core_nrf51422_xxAC.a(filter_engine.c.obj)
 .bss           0x00000000        0x0 mesh/core/libmesh_core_nrf51422_xxAC.a(filter_engine.c.obj)
 .text.fen_accepted_amount_get
                0x00000000        0xc mesh/core/libmesh_core_nrf51422_xxAC.a(filter_engine.c.obj)
 .text          0x00000000        0x0 mesh/core/libmesh_core_nrf51422_xxAC.a(radio_config.c.obj)
 .data          0x00000000        0x0 mesh/core/libmesh_core_nrf51422_xxAC.a(radio_config.c.obj)
 .bss           0x00000000        0x0 mesh/core/libmesh_core_nrf51422_xxAC.a(radio_config.c.obj)
 .text.radio_config_access_addr_get
                0x00000000       0x78 mesh/core/libmesh_core_nrf51422_xxAC.a(radio_config.c.obj)
 .text          0x00000000        0x0 mesh/core/libmesh_core_nrf51422_xxAC.a(scanner.c.obj)
 .data          0x00000000        0x0 mesh/core/libmesh_core_nrf51422_xxAC.a(scanner.c.obj)
 .bss           0x00000000        0x0 mesh/core/libmesh_core_nrf51422_xxAC.a(scanner.c.obj)
 .text.scanner_rx_callback_set
                0x00000000       0x30 mesh/core/libmesh_core_nrf51422_xxAC.a(scanner.c.obj)
 .text.scanner_disable
                0x00000000       0x44 mesh/core/libmesh_core_nrf51422_xxAC.a(scanner.c.obj)
 .text.scanner_is_enabled
                0x00000000       0x14 mesh/core/libmesh_core_nrf51422_xxAC.a(scanner.c.obj)
 .text.scanner_stats_get
                0x00000000        0xc mesh/core/libmesh_core_nrf51422_xxAC.a(scanner.c.obj)
 .text.scanner_config_radio_mode_set
                0x00000000       0x10 mesh/core/libmesh_core_nrf51422_xxAC.a(scanner.c.obj)
 .text          0x00000000        0x0 mesh/core/libmesh_core_nrf51422_xxAC.a(internal_event.c.obj)
 .data          0x00000000        0x0 mesh/core/libmesh_core_nrf51422_xxAC.a(internal_event.c.obj)
 .bss           0x00000000        0x0 mesh/core/libmesh_core_nrf51422_xxAC.a(internal_event.c.obj)
 .text.internal_event_init
                0x00000000       0x40 mesh/core/libmesh_core_nrf51422_xxAC.a(internal_event.c.obj)
 .text.internal_event_pop
                0x00000000       0x20 mesh/core/libmesh_core_nrf51422_xxAC.a(internal_event.c.obj)
 .bss.m_internal_event_fifo_buffer
                0x00000000      0x100 mesh/core/libmesh_core_nrf51422_xxAC.a(internal_event.c.obj)
 .text          0x00000000        0x0 mesh/core/libmesh_core_nrf51422_xxAC.a(aes.c.obj)
 .data          0x00000000        0x0 mesh/core/libmesh_core_nrf51422_xxAC.a(aes.c.obj)
 .bss           0x00000000        0x0 mesh/core/libmesh_core_nrf51422_xxAC.a(aes.c.obj)
 .text          0x00000000        0x0 mesh/core/libmesh_core_nrf51422_xxAC.a(msg_cache.c.obj)
 .data          0x00000000        0x0 mesh/core/libmesh_core_nrf51422_xxAC.a(msg_cache.c.obj)
 .bss           0x00000000        0x0 mesh/core/libmesh_core_nrf51422_xxAC.a(msg_cache.c.obj)
 .text.msg_cache_clear
                0x00000000       0x18 mesh/core/libmesh_core_nrf51422_xxAC.a(msg_cache.c.obj)
 .text          0x00000000        0x0 mesh/core/libmesh_core_nrf51422_xxAC.a(transport.c.obj)
 .data          0x00000000        0x0 mesh/core/libmesh_core_nrf51422_xxAC.a(transport.c.obj)
 .bss           0x00000000        0x0 mesh/core/libmesh_core_nrf51422_xxAC.a(transport.c.obj)
 .text.transport_sar_mem_funcs_set
                0x00000000       0x3c mesh/core/libmesh_core_nrf51422_xxAC.a(transport.c.obj)
 .text.transport_opt_set
                0x00000000       0xcc mesh/core/libmesh_core_nrf51422_xxAC.a(transport.c.obj)
 .text          0x00000000        0x0 mesh/core/libmesh_core_nrf51422_xxAC.a(packet_buffer.c.obj)
 .data          0x00000000        0x0 mesh/core/libmesh_core_nrf51422_xxAC.a(packet_buffer.c.obj)
 .bss           0x00000000        0x0 mesh/core/libmesh_core_nrf51422_xxAC.a(packet_buffer.c.obj)
 .text.packet_buffer_max_packet_len_get
                0x00000000       0x38 mesh/core/libmesh_core_nrf51422_xxAC.a(packet_buffer.c.obj)
 .text          0x00000000        0x0 mesh/core/libmesh_core_nrf51422_xxAC.a(flash_manager_defrag.c.obj)
 .data          0x00000000        0x0 mesh/core/libmesh_core_nrf51422_xxAC.a(flash_manager_defrag.c.obj)
 .bss           0x00000000        0x0 mesh/core/libmesh_core_nrf51422_xxAC.a(flash_manager_defrag.c.obj)
 .text.flash_manager_defragging
                0x00000000       0x44 mesh/core/libmesh_core_nrf51422_xxAC.a(flash_manager_defrag.c.obj)
 .text          0x00000000        0x0 mesh/core/libmesh_core_nrf51422_xxAC.a(fifo.c.obj)
 .data          0x00000000        0x0 mesh/core/libmesh_core_nrf51422_xxAC.a(fifo.c.obj)
 .bss           0x00000000        0x0 mesh/core/libmesh_core_nrf51422_xxAC.a(fifo.c.obj)
 .text.fifo_peek_at
                0x00000000       0x5a mesh/core/libmesh_core_nrf51422_xxAC.a(fifo.c.obj)
 .text.fifo_peek
                0x00000000        0xa mesh/core/libmesh_core_nrf51422_xxAC.a(fifo.c.obj)
 .text.fifo_flush
                0x00000000        0x6 mesh/core/libmesh_core_nrf51422_xxAC.a(fifo.c.obj)
 .text.fifo_get_len
                0x00000000        0x8 mesh/core/libmesh_core_nrf51422_xxAC.a(fifo.c.obj)
 .text.fifo_is_full
                0x00000000       0x12 mesh/core/libmesh_core_nrf51422_xxAC.a(fifo.c.obj)
 .text.fifo_is_empty
                0x00000000        0xe mesh/core/libmesh_core_nrf51422_xxAC.a(fifo.c.obj)
 .text          0x00000000        0x0 mesh/core/libmesh_core_nrf51422_xxAC.a(mesh_flash.c.obj)
 .data          0x00000000        0x0 mesh/core/libmesh_core_nrf51422_xxAC.a(mesh_flash.c.obj)
 .bss           0x00000000        0x0 mesh/core/libmesh_core_nrf51422_xxAC.a(mesh_flash.c.obj)
 .text.mesh_flash_op_available_slots
                0x00000000       0x2c mesh/core/libmesh_core_nrf51422_xxAC.a(mesh_flash.c.obj)
 .text.mesh_flash_in_progress
                0x00000000       0x38 mesh/core/libmesh_core_nrf51422_xxAC.a(mesh_flash.c.obj)
 .text.mesh_flash_set_suspended
                0x00000000       0x90 mesh/core/libmesh_core_nrf51422_xxAC.a(mesh_flash.c.obj)
 .bss.suspend_count.7515
                0x00000000        0x4 mesh/core/libmesh_core_nrf51422_xxAC.a(mesh_flash.c.obj)
 .text          0x00000000        0x0 mesh/core/libmesh_core_nrf51422_xxAC.a(queue.c.obj)
 .data          0x00000000        0x0 mesh/core/libmesh_core_nrf51422_xxAC.a(queue.c.obj)
 .bss           0x00000000        0x0 mesh/core/libmesh_core_nrf51422_xxAC.a(queue.c.obj)
 .text          0x00000000        0x0 mesh/core/libmesh_core_nrf51422_xxAC.a(aes_cmac.c.obj)
 .data          0x00000000        0x0 mesh/core/libmesh_core_nrf51422_xxAC.a(aes_cmac.c.obj)
 .bss           0x00000000        0x0 mesh/core/libmesh_core_nrf51422_xxAC.a(aes_cmac.c.obj)
 .text          0x00000000        0x0 mesh/core/libmesh_core_nrf51422_xxAC.a(nrf_mesh_opt.c.obj)
 .data          0x00000000        0x0 mesh/core/libmesh_core_nrf51422_xxAC.a(nrf_mesh_opt.c.obj)
 .bss           0x00000000        0x0 mesh/core/libmesh_core_nrf51422_xxAC.a(nrf_mesh_opt.c.obj)
 .text.nrf_mesh_opt_set
                0x00000000       0x34 mesh/core/libmesh_core_nrf51422_xxAC.a(nrf_mesh_opt.c.obj)
 .text          0x00000000        0x0 mesh/core/libmesh_core_nrf51422_xxAC.a(msqueue.c.obj)
 .data          0x00000000        0x0 mesh/core/libmesh_core_nrf51422_xxAC.a(msqueue.c.obj)
 .bss           0x00000000        0x0 mesh/core/libmesh_core_nrf51422_xxAC.a(msqueue.c.obj)
 .text          0x00000000        0x0 mesh/core/libmesh_core_nrf51422_xxAC.a(replay_cache.c.obj)
 .data          0x00000000        0x0 mesh/core/libmesh_core_nrf51422_xxAC.a(replay_cache.c.obj)
 .bss           0x00000000        0x0 mesh/core/libmesh_core_nrf51422_xxAC.a(replay_cache.c.obj)
 .text.replay_cache_on_iv_update
                0x00000000       0x28 mesh/core/libmesh_core_nrf51422_xxAC.a(replay_cache.c.obj)
 .text          0x00000000        0x0 mesh/core/libmesh_core_nrf51422_xxAC.a(nrf_flash.c.obj)
 .data          0x00000000        0x0 mesh/core/libmesh_core_nrf51422_xxAC.a(nrf_flash.c.obj)
 .bss           0x00000000        0x0 mesh/core/libmesh_core_nrf51422_xxAC.a(nrf_flash.c.obj)
 .text          0x00000000        0x0 external/rtt/librtt_nrf51422_xxAC.a(SEGGER_RTT.c.obj)
 .data          0x00000000        0x0 external/rtt/librtt_nrf51422_xxAC.a(SEGGER_RTT.c.obj)
 .bss           0x00000000        0x0 external/rtt/librtt_nrf51422_xxAC.a(SEGGER_RTT.c.obj)
 .text._PostTerminalSwitch.constprop.0
                0x00000000       0x20 external/rtt/librtt_nrf51422_xxAC.a(SEGGER_RTT.c.obj)
 .text.SEGGER_RTT_WriteSkipNoLock
                0x00000000       0xb0 external/rtt/librtt_nrf51422_xxAC.a(SEGGER_RTT.c.obj)
 .text.SEGGER_RTT_WriteString
                0x00000000       0x18 external/rtt/librtt_nrf51422_xxAC.a(SEGGER_RTT.c.obj)
 .text.SEGGER_RTT_WaitKey
                0x00000000        0xc external/rtt/librtt_nrf51422_xxAC.a(SEGGER_RTT.c.obj)
 .text.SEGGER_RTT_HasKey
                0x00000000       0x20 external/rtt/librtt_nrf51422_xxAC.a(SEGGER_RTT.c.obj)
 .text.SEGGER_RTT_HasData
                0x00000000       0x14 external/rtt/librtt_nrf51422_xxAC.a(SEGGER_RTT.c.obj)
 .text.SEGGER_RTT_AllocDownBuffer
                0x00000000       0x64 external/rtt/librtt_nrf51422_xxAC.a(SEGGER_RTT.c.obj)
 .text.SEGGER_RTT_AllocUpBuffer
                0x00000000       0x68 external/rtt/librtt_nrf51422_xxAC.a(SEGGER_RTT.c.obj)
 .text.SEGGER_RTT_ConfigUpBuffer
                0x00000000       0x60 external/rtt/librtt_nrf51422_xxAC.a(SEGGER_RTT.c.obj)
 .text.SEGGER_RTT_ConfigDownBuffer
                0x00000000       0x5c external/rtt/librtt_nrf51422_xxAC.a(SEGGER_RTT.c.obj)
 .text.SEGGER_RTT_SetNameUpBuffer
                0x00000000       0x3c external/rtt/librtt_nrf51422_xxAC.a(SEGGER_RTT.c.obj)
 .text.SEGGER_RTT_SetNameDownBuffer
                0x00000000       0x3c external/rtt/librtt_nrf51422_xxAC.a(SEGGER_RTT.c.obj)
 .text.SEGGER_RTT_Init
                0x00000000       0x14 external/rtt/librtt_nrf51422_xxAC.a(SEGGER_RTT.c.obj)
 .text.SEGGER_RTT_SetTerminal
                0x00000000       0x80 external/rtt/librtt_nrf51422_xxAC.a(SEGGER_RTT.c.obj)
 .text.SEGGER_RTT_TerminalOut
                0x00000000       0xa0 external/rtt/librtt_nrf51422_xxAC.a(SEGGER_RTT.c.obj)
 .bss._ActiveTerminal
                0x00000000        0x1 external/rtt/librtt_nrf51422_xxAC.a(SEGGER_RTT.c.obj)
 .rodata._aTerminalId
                0x00000000       0x10 external/rtt/librtt_nrf51422_xxAC.a(SEGGER_RTT.c.obj)
 .text          0x00000000        0x0 external/rtt/librtt_nrf51422_xxAC.a(SEGGER_RTT_printf.c.obj)
 .data          0x00000000        0x0 external/rtt/librtt_nrf51422_xxAC.a(SEGGER_RTT_printf.c.obj)
 .bss           0x00000000        0x0 external/rtt/librtt_nrf51422_xxAC.a(SEGGER_RTT_printf.c.obj)
 .text          0x00000000        0x0 external/micro-ecc/libuECC_nrf51422_xxAC.a(uECC.c.obj)
 .data          0x00000000        0x0 external/micro-ecc/libuECC_nrf51422_xxAC.a(uECC.c.obj)
 .bss           0x00000000        0x0 external/micro-ecc/libuECC_nrf51422_xxAC.a(uECC.c.obj)
 .text.uECC_vli_modMult
                0x00000000      0x128 external/micro-ecc/libuECC_nrf51422_xxAC.a(uECC.c.obj)
 .text.HMAC_init
                0x00000000       0x40 external/micro-ecc/libuECC_nrf51422_xxAC.a(uECC.c.obj)
 .text.HMAC_update
                0x00000000        0x8 external/micro-ecc/libuECC_nrf51422_xxAC.a(uECC.c.obj)
 .text.HMAC_finish
                0x00000000       0x5c external/micro-ecc/libuECC_nrf51422_xxAC.a(uECC.c.obj)
 .text.update_V
                0x00000000       0x22 external/micro-ecc/libuECC_nrf51422_xxAC.a(uECC.c.obj)
 .text.bits2int
                0x00000000       0x8c external/micro-ecc/libuECC_nrf51422_xxAC.a(uECC.c.obj)
 .text.uECC_sign_with_k
                0x00000000      0x184 external/micro-ecc/libuECC_nrf51422_xxAC.a(uECC.c.obj)
 .text.uECC_set_rng
                0x00000000        0xc external/micro-ecc/libuECC_nrf51422_xxAC.a(uECC.c.obj)
 .text.uECC_get_rng
                0x00000000        0xc external/micro-ecc/libuECC_nrf51422_xxAC.a(uECC.c.obj)
 .text.uECC_curve_private_key_size
                0x00000000       0x12 external/micro-ecc/libuECC_nrf51422_xxAC.a(uECC.c.obj)
 .text.uECC_curve_public_key_size
                0x00000000        0x8 external/micro-ecc/libuECC_nrf51422_xxAC.a(uECC.c.obj)
 .text.uECC_compute_public_key
                0x00000000       0x88 external/micro-ecc/libuECC_nrf51422_xxAC.a(uECC.c.obj)
 .text.uECC_sign
                0x00000000       0x5a external/micro-ecc/libuECC_nrf51422_xxAC.a(uECC.c.obj)
 .text.uECC_sign_deterministic
                0x00000000      0x19c external/micro-ecc/libuECC_nrf51422_xxAC.a(uECC.c.obj)
 .text.uECC_verify
                0x00000000      0x2e4 external/micro-ecc/libuECC_nrf51422_xxAC.a(uECC.c.obj)
 .data          0x00000000        0x0 c:/a/gcc_arm/6/bin/../lib/gcc/arm-none-eabi/6.3.1/thumb/v6-m\libgcc.a(_thumb1_case_uqi.o)
 .bss           0x00000000        0x0 c:/a/gcc_arm/6/bin/../lib/gcc/arm-none-eabi/6.3.1/thumb/v6-m\libgcc.a(_thumb1_case_uqi.o)
 .data          0x00000000        0x0 c:/a/gcc_arm/6/bin/../lib/gcc/arm-none-eabi/6.3.1/thumb/v6-m\libgcc.a(_thumb1_case_shi.o)
 .bss           0x00000000        0x0 c:/a/gcc_arm/6/bin/../lib/gcc/arm-none-eabi/6.3.1/thumb/v6-m\libgcc.a(_thumb1_case_shi.o)
 .data          0x00000000        0x0 c:/a/gcc_arm/6/bin/../lib/gcc/arm-none-eabi/6.3.1/thumb/v6-m\libgcc.a(_thumb1_case_uhi.o)
 .bss           0x00000000        0x0 c:/a/gcc_arm/6/bin/../lib/gcc/arm-none-eabi/6.3.1/thumb/v6-m\libgcc.a(_thumb1_case_uhi.o)
 .data          0x00000000        0x0 c:/a/gcc_arm/6/bin/../lib/gcc/arm-none-eabi/6.3.1/thumb/v6-m\libgcc.a(_udivsi3.o)
 .bss           0x00000000        0x0 c:/a/gcc_arm/6/bin/../lib/gcc/arm-none-eabi/6.3.1/thumb/v6-m\libgcc.a(_udivsi3.o)
 .data          0x00000000        0x0 c:/a/gcc_arm/6/bin/../lib/gcc/arm-none-eabi/6.3.1/thumb/v6-m\libgcc.a(_divsi3.o)
 .bss           0x00000000        0x0 c:/a/gcc_arm/6/bin/../lib/gcc/arm-none-eabi/6.3.1/thumb/v6-m\libgcc.a(_divsi3.o)
 .data          0x00000000        0x0 c:/a/gcc_arm/6/bin/../lib/gcc/arm-none-eabi/6.3.1/thumb/v6-m\libgcc.a(_dvmd_tls.o)
 .bss           0x00000000        0x0 c:/a/gcc_arm/6/bin/../lib/gcc/arm-none-eabi/6.3.1/thumb/v6-m\libgcc.a(_dvmd_tls.o)
 .data          0x00000000        0x0 c:/a/gcc_arm/6/bin/../lib/gcc/arm-none-eabi/6.3.1/thumb/v6-m\libgcc.a(_aeabi_uldivmod.o)
 .bss           0x00000000        0x0 c:/a/gcc_arm/6/bin/../lib/gcc/arm-none-eabi/6.3.1/thumb/v6-m\libgcc.a(_aeabi_uldivmod.o)
 .data          0x00000000        0x0 c:/a/gcc_arm/6/bin/../lib/gcc/arm-none-eabi/6.3.1/thumb/v6-m\libgcc.a(_muldi3.o)
 .bss           0x00000000        0x0 c:/a/gcc_arm/6/bin/../lib/gcc/arm-none-eabi/6.3.1/thumb/v6-m\libgcc.a(_muldi3.o)
 .data          0x00000000        0x0 c:/a/gcc_arm/6/bin/../lib/gcc/arm-none-eabi/6.3.1/thumb/v6-m\libgcc.a(_udivmoddi4.o)
 .bss           0x00000000        0x0 c:/a/gcc_arm/6/bin/../lib/gcc/arm-none-eabi/6.3.1/thumb/v6-m\libgcc.a(_udivmoddi4.o)
 .ARM.extab     0x00000000        0x0 c:/a/gcc_arm/6/bin/../lib/gcc/arm-none-eabi/6.3.1/thumb/v6-m\libgcc.a(_udivmoddi4.o)
 .data          0x00000000        0x0 c:/a/gcc_arm/6/bin/../lib/gcc/arm-none-eabi/6.3.1/thumb/v6-m\libgcc.a(_clzdi2.o)
 .bss           0x00000000        0x0 c:/a/gcc_arm/6/bin/../lib/gcc/arm-none-eabi/6.3.1/thumb/v6-m\libgcc.a(_clzdi2.o)
 .data          0x00000000        0x0 c:/a/gcc_arm/6/bin/../lib/gcc/arm-none-eabi/6.3.1/thumb/v6-m\libgcc.a(_clzsi2.o)
 .bss           0x00000000        0x0 c:/a/gcc_arm/6/bin/../lib/gcc/arm-none-eabi/6.3.1/thumb/v6-m\libgcc.a(_clzsi2.o)
 .text          0x00000000        0x0 c:/a/gcc_arm/6/bin/../lib/gcc/arm-none-eabi/6.3.1/../../../../arm-none-eabi/lib/thumb/v6-m\libg_nano.a(lib_a-exit.o)
 .data          0x00000000        0x0 c:/a/gcc_arm/6/bin/../lib/gcc/arm-none-eabi/6.3.1/../../../../arm-none-eabi/lib/thumb/v6-m\libg_nano.a(lib_a-exit.o)
 .bss           0x00000000        0x0 c:/a/gcc_arm/6/bin/../lib/gcc/arm-none-eabi/6.3.1/../../../../arm-none-eabi/lib/thumb/v6-m\libg_nano.a(lib_a-exit.o)
 .text          0x00000000        0x0 c:/a/gcc_arm/6/bin/../lib/gcc/arm-none-eabi/6.3.1/../../../../arm-none-eabi/lib/thumb/v6-m\libg_nano.a(lib_a-impure.o)
 .data          0x00000000        0x0 c:/a/gcc_arm/6/bin/../lib/gcc/arm-none-eabi/6.3.1/../../../../arm-none-eabi/lib/thumb/v6-m\libg_nano.a(lib_a-impure.o)
 .bss           0x00000000        0x0 c:/a/gcc_arm/6/bin/../lib/gcc/arm-none-eabi/6.3.1/../../../../arm-none-eabi/lib/thumb/v6-m\libg_nano.a(lib_a-impure.o)
 .text          0x00000000        0x0 c:/a/gcc_arm/6/bin/../lib/gcc/arm-none-eabi/6.3.1/../../../../arm-none-eabi/lib/thumb/v6-m\libg_nano.a(lib_a-init.o)
 .data          0x00000000        0x0 c:/a/gcc_arm/6/bin/../lib/gcc/arm-none-eabi/6.3.1/../../../../arm-none-eabi/lib/thumb/v6-m\libg_nano.a(lib_a-init.o)
 .bss           0x00000000        0x0 c:/a/gcc_arm/6/bin/../lib/gcc/arm-none-eabi/6.3.1/../../../../arm-none-eabi/lib/thumb/v6-m\libg_nano.a(lib_a-init.o)
 .text          0x00000000        0x0 c:/a/gcc_arm/6/bin/../lib/gcc/arm-none-eabi/6.3.1/../../../../arm-none-eabi/lib/thumb/v6-m\libg_nano.a(lib_a-malloc.o)
 .data          0x00000000        0x0 c:/a/gcc_arm/6/bin/../lib/gcc/arm-none-eabi/6.3.1/../../../../arm-none-eabi/lib/thumb/v6-m\libg_nano.a(lib_a-malloc.o)
 .bss           0x00000000        0x0 c:/a/gcc_arm/6/bin/../lib/gcc/arm-none-eabi/6.3.1/../../../../arm-none-eabi/lib/thumb/v6-m\libg_nano.a(lib_a-malloc.o)
 .text          0x00000000        0x0 c:/a/gcc_arm/6/bin/../lib/gcc/arm-none-eabi/6.3.1/../../../../arm-none-eabi/lib/thumb/v6-m\libg_nano.a(lib_a-memcmp.o)
 .data          0x00000000        0x0 c:/a/gcc_arm/6/bin/../lib/gcc/arm-none-eabi/6.3.1/../../../../arm-none-eabi/lib/thumb/v6-m\libg_nano.a(lib_a-memcmp.o)
 .bss           0x00000000        0x0 c:/a/gcc_arm/6/bin/../lib/gcc/arm-none-eabi/6.3.1/../../../../arm-none-eabi/lib/thumb/v6-m\libg_nano.a(lib_a-memcmp.o)
 .text          0x00000000        0x0 c:/a/gcc_arm/6/bin/../lib/gcc/arm-none-eabi/6.3.1/../../../../arm-none-eabi/lib/thumb/v6-m\libg_nano.a(lib_a-memcpy-stub.o)
 .data          0x00000000        0x0 c:/a/gcc_arm/6/bin/../lib/gcc/arm-none-eabi/6.3.1/../../../../arm-none-eabi/lib/thumb/v6-m\libg_nano.a(lib_a-memcpy-stub.o)
 .bss           0x00000000        0x0 c:/a/gcc_arm/6/bin/../lib/gcc/arm-none-eabi/6.3.1/../../../../arm-none-eabi/lib/thumb/v6-m\libg_nano.a(lib_a-memcpy-stub.o)
 .text          0x00000000        0x0 c:/a/gcc_arm/6/bin/../lib/gcc/arm-none-eabi/6.3.1/../../../../arm-none-eabi/lib/thumb/v6-m\libg_nano.a(lib_a-memset.o)
 .data          0x00000000        0x0 c:/a/gcc_arm/6/bin/../lib/gcc/arm-none-eabi/6.3.1/../../../../arm-none-eabi/lib/thumb/v6-m\libg_nano.a(lib_a-memset.o)
 .bss           0x00000000        0x0 c:/a/gcc_arm/6/bin/../lib/gcc/arm-none-eabi/6.3.1/../../../../arm-none-eabi/lib/thumb/v6-m\libg_nano.a(lib_a-memset.o)
 .text          0x00000000        0x0 c:/a/gcc_arm/6/bin/../lib/gcc/arm-none-eabi/6.3.1/../../../../arm-none-eabi/lib/thumb/v6-m\libg_nano.a(lib_a-nano-freer.o)
 .data          0x00000000        0x0 c:/a/gcc_arm/6/bin/../lib/gcc/arm-none-eabi/6.3.1/../../../../arm-none-eabi/lib/thumb/v6-m\libg_nano.a(lib_a-nano-freer.o)
 .bss           0x00000000        0x0 c:/a/gcc_arm/6/bin/../lib/gcc/arm-none-eabi/6.3.1/../../../../arm-none-eabi/lib/thumb/v6-m\libg_nano.a(lib_a-nano-freer.o)
 .text          0x00000000        0x0 c:/a/gcc_arm/6/bin/../lib/gcc/arm-none-eabi/6.3.1/../../../../arm-none-eabi/lib/thumb/v6-m\libg_nano.a(lib_a-nano-mallocr.o)
 .data          0x00000000        0x0 c:/a/gcc_arm/6/bin/../lib/gcc/arm-none-eabi/6.3.1/../../../../arm-none-eabi/lib/thumb/v6-m\libg_nano.a(lib_a-nano-mallocr.o)
 .bss           0x00000000        0x0 c:/a/gcc_arm/6/bin/../lib/gcc/arm-none-eabi/6.3.1/../../../../arm-none-eabi/lib/thumb/v6-m\libg_nano.a(lib_a-nano-mallocr.o)
 .text          0x00000000        0x0 c:/a/gcc_arm/6/bin/../lib/gcc/arm-none-eabi/6.3.1/../../../../arm-none-eabi/lib/thumb/v6-m\libg_nano.a(lib_a-sbrkr.o)
 .data          0x00000000        0x0 c:/a/gcc_arm/6/bin/../lib/gcc/arm-none-eabi/6.3.1/../../../../arm-none-eabi/lib/thumb/v6-m\libg_nano.a(lib_a-sbrkr.o)
 .bss           0x00000000        0x0 c:/a/gcc_arm/6/bin/../lib/gcc/arm-none-eabi/6.3.1/../../../../arm-none-eabi/lib/thumb/v6-m\libg_nano.a(lib_a-sbrkr.o)
 .text          0x00000000        0x0 c:/a/gcc_arm/6/bin/../lib/gcc/arm-none-eabi/6.3.1/../../../../arm-none-eabi/lib/thumb/v6-m\libg_nano.a(lib_a-strcpy.o)
 .data          0x00000000        0x0 c:/a/gcc_arm/6/bin/../lib/gcc/arm-none-eabi/6.3.1/../../../../arm-none-eabi/lib/thumb/v6-m\libg_nano.a(lib_a-strcpy.o)
 .bss           0x00000000        0x0 c:/a/gcc_arm/6/bin/../lib/gcc/arm-none-eabi/6.3.1/../../../../arm-none-eabi/lib/thumb/v6-m\libg_nano.a(lib_a-strcpy.o)
 .data          0x00000000        0x0 c:/a/gcc_arm/6/bin/../lib/gcc/arm-none-eabi/6.3.1/../../../../arm-none-eabi/lib/thumb/v6-m\libg_nano.a(lib_a-strlen.o)
 .bss           0x00000000        0x0 c:/a/gcc_arm/6/bin/../lib/gcc/arm-none-eabi/6.3.1/../../../../arm-none-eabi/lib/thumb/v6-m\libg_nano.a(lib_a-strlen.o)
 .text          0x00000000        0x0 c:/a/gcc_arm/6/bin/../lib/gcc/arm-none-eabi/6.3.1/../../../../arm-none-eabi/lib/thumb/v6-m\libg_nano.a(lib_a-strrchr.o)
 .data          0x00000000        0x0 c:/a/gcc_arm/6/bin/../lib/gcc/arm-none-eabi/6.3.1/../../../../arm-none-eabi/lib/thumb/v6-m\libg_nano.a(lib_a-strrchr.o)
 .bss           0x00000000        0x0 c:/a/gcc_arm/6/bin/../lib/gcc/arm-none-eabi/6.3.1/../../../../arm-none-eabi/lib/thumb/v6-m\libg_nano.a(lib_a-strrchr.o)
 .text          0x00000000        0x0 c:/a/gcc_arm/6/bin/../lib/gcc/arm-none-eabi/6.3.1/../../../../arm-none-eabi/lib/thumb/v6-m\libg_nano.a(lib_a-mlock.o)
 .data          0x00000000        0x0 c:/a/gcc_arm/6/bin/../lib/gcc/arm-none-eabi/6.3.1/../../../../arm-none-eabi/lib/thumb/v6-m\libg_nano.a(lib_a-mlock.o)
 .bss           0x00000000        0x0 c:/a/gcc_arm/6/bin/../lib/gcc/arm-none-eabi/6.3.1/../../../../arm-none-eabi/lib/thumb/v6-m\libg_nano.a(lib_a-mlock.o)
 .text          0x00000000        0x0 c:/a/gcc_arm/6/bin/../lib/gcc/arm-none-eabi/6.3.1/../../../../arm-none-eabi/lib/thumb/v6-m\libg_nano.a(lib_a-reent.o)
 .data          0x00000000        0x0 c:/a/gcc_arm/6/bin/../lib/gcc/arm-none-eabi/6.3.1/../../../../arm-none-eabi/lib/thumb/v6-m\libg_nano.a(lib_a-reent.o)
 .bss           0x00000000        0x0 c:/a/gcc_arm/6/bin/../lib/gcc/arm-none-eabi/6.3.1/../../../../arm-none-eabi/lib/thumb/v6-m\libg_nano.a(lib_a-reent.o)
 .text.cleanup_glue
                0x00000000       0x1a c:/a/gcc_arm/6/bin/../lib/gcc/arm-none-eabi/6.3.1/../../../../arm-none-eabi/lib/thumb/v6-m\libg_nano.a(lib_a-reent.o)
 .text._reclaim_reent
                0x00000000       0xcc c:/a/gcc_arm/6/bin/../lib/gcc/arm-none-eabi/6.3.1/../../../../arm-none-eabi/lib/thumb/v6-m\libg_nano.a(lib_a-reent.o)
 .text          0x00000000        0x0 c:/a/gcc_arm/6/bin/../lib/gcc/arm-none-eabi/6.3.1/../../../../arm-none-eabi/lib/thumb/v6-m\libg_nano.a(lib_a-strchr.o)
 .data          0x00000000        0x0 c:/a/gcc_arm/6/bin/../lib/gcc/arm-none-eabi/6.3.1/../../../../arm-none-eabi/lib/thumb/v6-m\libg_nano.a(lib_a-strchr.o)
 .bss           0x00000000        0x0 c:/a/gcc_arm/6/bin/../lib/gcc/arm-none-eabi/6.3.1/../../../../arm-none-eabi/lib/thumb/v6-m\libg_nano.a(lib_a-strchr.o)
 .text          0x00000000        0x0 c:/a/gcc_arm/6/bin/../lib/gcc/arm-none-eabi/6.3.1/thumb/v6-m/crtend.o
 .data          0x00000000        0x0 c:/a/gcc_arm/6/bin/../lib/gcc/arm-none-eabi/6.3.1/thumb/v6-m/crtend.o
 .bss           0x00000000        0x0 c:/a/gcc_arm/6/bin/../lib/gcc/arm-none-eabi/6.3.1/thumb/v6-m/crtend.o
 .text          0x00000000        0x0 c:/a/gcc_arm/6/bin/../lib/gcc/arm-none-eabi/6.3.1/thumb/v6-m/crtn.o
 .data          0x00000000        0x0 c:/a/gcc_arm/6/bin/../lib/gcc/arm-none-eabi/6.3.1/thumb/v6-m/crtn.o
 .bss           0x00000000        0x0 c:/a/gcc_arm/6/bin/../lib/gcc/arm-none-eabi/6.3.1/thumb/v6-m/crtn.o
 .text          0x00000000        0x0 c:/a/gcc_arm/6/bin/../lib/gcc/arm-none-eabi/6.3.1/../../../../arm-none-eabi/lib/thumb/v6-m\libnosys.a(sbrk.o)
 .data          0x00000000        0x0 c:/a/gcc_arm/6/bin/../lib/gcc/arm-none-eabi/6.3.1/../../../../arm-none-eabi/lib/thumb/v6-m\libnosys.a(sbrk.o)
 .bss           0x00000000        0x0 c:/a/gcc_arm/6/bin/../lib/gcc/arm-none-eabi/6.3.1/../../../../arm-none-eabi/lib/thumb/v6-m\libnosys.a(sbrk.o)
 .text          0x00000000        0x0 c:/a/gcc_arm/6/bin/../lib/gcc/arm-none-eabi/6.3.1/../../../../arm-none-eabi/lib/thumb/v6-m\libnosys.a(_exit.o)
 .data          0x00000000        0x0 c:/a/gcc_arm/6/bin/../lib/gcc/arm-none-eabi/6.3.1/../../../../arm-none-eabi/lib/thumb/v6-m\libnosys.a(_exit.o)
 .bss           0x00000000        0x0 c:/a/gcc_arm/6/bin/../lib/gcc/arm-none-eabi/6.3.1/../../../../arm-none-eabi/lib/thumb/v6-m\libnosys.a(_exit.o)

Memory Configuration

Name             Origin             Length             Attributes
FLASH            0x0001b000         0x0001f000         xr
RAM              0x200022d8         0x00005a28         xrw
*default*        0x00000000         0xffffffff

Linker script and memory map


.text           0x0001b000    0x12c88
 *(.isr_vector)
 .isr_vector    0x0001b000       0xc0 examples/light_switch/client/CMakeFiles/light_switch_client_nrf51422_xxAC_s130_2.0.1.dir/__/__/__/external/nRF5_SDK_14.2.0_17b948a/components/toolchain/gcc/gcc_startup_nrf51.S.obj
                0x0001b000                __isr_vector
 *(.text*)
 .text          0x0001b0c0       0x60 c:/a/gcc_arm/6/bin/../lib/gcc/arm-none-eabi/6.3.1/thumb/v6-m/crtbegin.o
 .text          0x0001b120       0x78 c:/a/gcc_arm/6/bin/../lib/gcc/arm-none-eabi/6.3.1/../../../../arm-none-eabi/lib/thumb/v6-m/crt0.o
                0x0001b120                _start
                0x0001b120                _mainCRTStartup
 .text.sd_app_evt_wait
                0x0001b198        0x4 examples/light_switch/client/CMakeFiles/light_switch_client_nrf51422_xxAC_s130_2.0.1.dir/src/main.c.obj
 .text.client_status_cb
                0x0001b19c       0x94 examples/light_switch/client/CMakeFiles/light_switch_client_nrf51422_xxAC_s130_2.0.1.dir/src/main.c.obj
 .text.button_event_handler
                0x0001b230      0x1dc examples/light_switch/client/CMakeFiles/light_switch_client_nrf51422_xxAC_s130_2.0.1.dir/src/main.c.obj
 .text.rtt_input_handler
                0x0001b40c        0xe examples/light_switch/client/CMakeFiles/light_switch_client_nrf51422_xxAC_s130_2.0.1.dir/src/main.c.obj
 *fill*         0x0001b41a        0x2 
 .text.health_event_cb
                0x0001b41c       0x84 examples/light_switch/client/CMakeFiles/light_switch_client_nrf51422_xxAC_s130_2.0.1.dir/src/main.c.obj
 .text.provisioner_config_successful_cb
                0x0001b4a0      0x130 examples/light_switch/client/CMakeFiles/light_switch_client_nrf51422_xxAC_s130_2.0.1.dir/src/main.c.obj
                0x0001b4a0                provisioner_config_successful_cb
 .text.provisioner_config_failed_cb
                0x0001b5d0       0xc0 examples/light_switch/client/CMakeFiles/light_switch_client_nrf51422_xxAC_s130_2.0.1.dir/src/main.c.obj
                0x0001b5d0                provisioner_config_failed_cb
 .text.provisioner_prov_complete_cb
                0x0001b690      0x128 examples/light_switch/client/CMakeFiles/light_switch_client_nrf51422_xxAC_s130_2.0.1.dir/src/main.c.obj
                0x0001b690                provisioner_prov_complete_cb
 .text.startup.main
                0x0001b7b8      0x41c examples/light_switch/client/CMakeFiles/light_switch_client_nrf51422_xxAC_s130_2.0.1.dir/src/main.c.obj
                0x0001b7b8                main
 .text.do_config_step
                0x0001bbd4      0x3c4 examples/light_switch/client/CMakeFiles/light_switch_client_nrf51422_xxAC_s130_2.0.1.dir/src/provisioner.c.obj
 .text.prov_evt_handler
                0x0001bf98      0x2f8 examples/light_switch/client/CMakeFiles/light_switch_client_nrf51422_xxAC_s130_2.0.1.dir/src/provisioner.c.obj
 .text.provisioner_configure
                0x0001c290       0x24 examples/light_switch/client/CMakeFiles/light_switch_client_nrf51422_xxAC_s130_2.0.1.dir/src/provisioner.c.obj
                0x0001c290                provisioner_configure
 .text.provisioner_wait_for_unprov
                0x0001c2b4       0x14 examples/light_switch/client/CMakeFiles/light_switch_client_nrf51422_xxAC_s130_2.0.1.dir/src/provisioner.c.obj
                0x0001c2b4                provisioner_wait_for_unprov
 .text.config_client_event_cb
                0x0001c2c8      0x21c examples/light_switch/client/CMakeFiles/light_switch_client_nrf51422_xxAC_s130_2.0.1.dir/src/provisioner.c.obj
                0x0001c2c8                config_client_event_cb
 .text.provisioner_init
                0x0001c4e4       0xa4 examples/light_switch/client/CMakeFiles/light_switch_client_nrf51422_xxAC_s130_2.0.1.dir/src/provisioner.c.obj
                0x0001c4e4                provisioner_init
 .text.sd_evt_get
                0x0001c588        0x4 examples/light_switch/client/CMakeFiles/light_switch_client_nrf51422_xxAC_s130_2.0.1.dir/__/__/nrf_mesh_sdk.c.obj
 .text.sd_softdevice_enable
                0x0001c58c        0x4 examples/light_switch/client/CMakeFiles/light_switch_client_nrf51422_xxAC_s130_2.0.1.dir/__/__/nrf_mesh_sdk.c.obj
 .text.sd_ble_enable
                0x0001c590        0x4 examples/light_switch/client/CMakeFiles/light_switch_client_nrf51422_xxAC_s130_2.0.1.dir/__/__/nrf_mesh_sdk.c.obj
 .text.sd_ble_evt_get
                0x0001c594        0x4 examples/light_switch/client/CMakeFiles/light_switch_client_nrf51422_xxAC_s130_2.0.1.dir/__/__/nrf_mesh_sdk.c.obj
 .text.sleep_forever
                0x0001c598       0x24 examples/light_switch/client/CMakeFiles/light_switch_client_nrf51422_xxAC_s130_2.0.1.dir/__/__/nrf_mesh_sdk.c.obj
 .text.mesh_assert_handler
                0x0001c5bc       0x70 examples/light_switch/client/CMakeFiles/light_switch_client_nrf51422_xxAC_s130_2.0.1.dir/__/__/nrf_mesh_sdk.c.obj
                0x0001c5bc                mesh_assert_handler
 .text.softdevice_assert_handler
                0x0001c62c       0x7c examples/light_switch/client/CMakeFiles/light_switch_client_nrf51422_xxAC_s130_2.0.1.dir/__/__/nrf_mesh_sdk.c.obj
                0x0001c62c                softdevice_assert_handler
 .text.app_error_handler
                0x0001c6a8       0x7c examples/light_switch/client/CMakeFiles/light_switch_client_nrf51422_xxAC_s130_2.0.1.dir/__/__/nrf_mesh_sdk.c.obj
                0x0001c6a8                app_error_handler
 .text.HardFault_Handler
                0x0001c724       0x6c examples/light_switch/client/CMakeFiles/light_switch_client_nrf51422_xxAC_s130_2.0.1.dir/__/__/nrf_mesh_sdk.c.obj
                0x0001c724                HardFault_Handler
 .text.SWI2_IRQHandler
                0x0001c790       0x38 examples/light_switch/client/CMakeFiles/light_switch_client_nrf51422_xxAC_s130_2.0.1.dir/__/__/nrf_mesh_sdk.c.obj
                0x0001c790                SWI2_IRQHandler
 .text.mesh_softdevice_enable
                0x0001c7c8      0x12c examples/light_switch/client/CMakeFiles/light_switch_client_nrf51422_xxAC_s130_2.0.1.dir/__/__/nrf_mesh_sdk.c.obj
                0x0001c7c8                mesh_softdevice_enable
 .text.mesh_softdevice_setup
                0x0001c8f4       0x90 examples/light_switch/client/CMakeFiles/light_switch_client_nrf51422_xxAC_s130_2.0.1.dir/__/__/nrf_mesh_sdk.c.obj
                0x0001c8f4                mesh_softdevice_setup
 .text.mesh_core_setup
                0x0001c984      0x15c examples/light_switch/client/CMakeFiles/light_switch_client_nrf51422_xxAC_s130_2.0.1.dir/__/__/nrf_mesh_sdk.c.obj
                0x0001c984                mesh_core_setup
 .text.TIMER2_IRQHandler
                0x0001cae0       0x30 examples/light_switch/client/CMakeFiles/light_switch_client_nrf51422_xxAC_s130_2.0.1.dir/__/__/common/src/rtt_input.c.obj
                0x0001cae0                TIMER2_IRQHandler
 .text.rtt_input_enable
                0x0001cb10       0x7c examples/light_switch/client/CMakeFiles/light_switch_client_nrf51422_xxAC_s130_2.0.1.dir/__/__/common/src/rtt_input.c.obj
                0x0001cb10                rtt_input_enable
 .text.hal_led_pin_get
                0x0001cb8c       0x1c examples/light_switch/client/CMakeFiles/light_switch_client_nrf51422_xxAC_s130_2.0.1.dir/__/__/common/src/simple_hal.c.obj
                0x0001cb8c                hal_led_pin_get
 .text.hal_led_pin_set
                0x0001cba8       0x1c examples/light_switch/client/CMakeFiles/light_switch_client_nrf51422_xxAC_s130_2.0.1.dir/__/__/common/src/simple_hal.c.obj
                0x0001cba8                hal_led_pin_set
 .text.hal_led_blink_ms
                0x0001cbc4       0x58 examples/light_switch/client/CMakeFiles/light_switch_client_nrf51422_xxAC_s130_2.0.1.dir/__/__/common/src/simple_hal.c.obj
                0x0001cbc4                hal_led_blink_ms
 .text.hal_leds_init
                0x0001cc1c       0x40 examples/light_switch/client/CMakeFiles/light_switch_client_nrf51422_xxAC_s130_2.0.1.dir/__/__/common/src/simple_hal.c.obj
                0x0001cc1c                hal_leds_init
 .text.hal_buttons_init
                0x0001cc5c       0x6c examples/light_switch/client/CMakeFiles/light_switch_client_nrf51422_xxAC_s130_2.0.1.dir/__/__/common/src/simple_hal.c.obj
                0x0001cc5c                hal_buttons_init
 .text.GPIOTE_IRQHandler
                0x0001ccc8       0x6c examples/light_switch/client/CMakeFiles/light_switch_client_nrf51422_xxAC_s130_2.0.1.dir/__/__/common/src/simple_hal.c.obj
                0x0001ccc8                GPIOTE_IRQHandler
 .text._weak_handler
                0x0001cd34        0x4 examples/light_switch/client/CMakeFiles/light_switch_client_nrf51422_xxAC_s130_2.0.1.dir/__/__/nrf_mesh_weak.c.obj
                0x0001cd34                nrf_mesh_dfu_init
                0x0001cd34                nrf_mesh_dfu_jump_to_bootloader
                0x0001cd34                nrf_mesh_dfu_rx
                0x0001cd34                nrf_mesh_dfu_bank_info_get
                0x0001cd34                nrf_mesh_dfu_request
                0x0001cd34                nrf_mesh_dfu_bank_flash
                0x0001cd34                _weak_handler
                0x0001cd34                prov_provisionee_auth_data
                0x0001cd34                nrf_mesh_dfu_relay
                0x0001cd34                prov_provisionee_shared_secret
                0x0001cd34                nrf_mesh_dfu_abort
                0x0001cd34                mesh_flash_op_execute
                0x0001cd34                prov_provisionee_init
                0x0001cd34                nrf_mesh_dfu_state_get
 .text.reliable_status_cb
                0x0001cd38       0x48 examples/light_switch/client/CMakeFiles/light_switch_client_nrf51422_xxAC_s130_2.0.1.dir/__/__/__/models/simple_on_off/src/simple_on_off_client.c.obj
 .text.handle_status_cb
                0x0001cd80       0x64 examples/light_switch/client/CMakeFiles/light_switch_client_nrf51422_xxAC_s130_2.0.1.dir/__/__/__/models/simple_on_off/src/simple_on_off_client.c.obj
 .text.simple_on_off_client_init
                0x0001cde4       0x3c examples/light_switch/client/CMakeFiles/light_switch_client_nrf51422_xxAC_s130_2.0.1.dir/__/__/__/models/simple_on_off/src/simple_on_off_client.c.obj
                0x0001cde4                simple_on_off_client_init
 .text.simple_on_off_client_set
                0x0001ce20       0x6c examples/light_switch/client/CMakeFiles/light_switch_client_nrf51422_xxAC_s130_2.0.1.dir/__/__/__/models/simple_on_off/src/simple_on_off_client.c.obj
                0x0001ce20                simple_on_off_client_set
 .text.simple_on_off_client_set_unreliable
                0x0001ce8c       0x48 examples/light_switch/client/CMakeFiles/light_switch_client_nrf51422_xxAC_s130_2.0.1.dir/__/__/__/models/simple_on_off/src/simple_on_off_client.c.obj
                0x0001ce8c                simple_on_off_client_set_unreliable
 .text.reliable_status_cb
                0x0001ced4       0x34 examples/light_switch/client/CMakeFiles/light_switch_client_nrf51422_xxAC_s130_2.0.1.dir/__/__/__/models/config/src/config_client.c.obj
 .text.send_reliable
                0x0001cf08       0x5c examples/light_switch/client/CMakeFiles/light_switch_client_nrf51422_xxAC_s130_2.0.1.dir/__/__/__/models/config/src/config_client.c.obj
 .text.subscription_add_del_owr_send.isra.1
                0x0001cf64       0x84 examples/light_switch/client/CMakeFiles/light_switch_client_nrf51422_xxAC_s130_2.0.1.dir/__/__/__/models/config/src/config_client.c.obj
 .text.subscription_virtual_add_del_owr_send.isra.2
                0x0001cfe8       0x7c examples/light_switch/client/CMakeFiles/light_switch_client_nrf51422_xxAC_s130_2.0.1.dir/__/__/__/models/config/src/config_client.c.obj
 .text.client_in_wrong_state.constprop.3
                0x0001d064       0x24 examples/light_switch/client/CMakeFiles/light_switch_client_nrf51422_xxAC_s130_2.0.1.dir/__/__/__/models/config/src/config_client.c.obj
 .text.app_bind_unbind_send
                0x0001d088       0x98 examples/light_switch/client/CMakeFiles/light_switch_client_nrf51422_xxAC_s130_2.0.1.dir/__/__/__/models/config/src/config_client.c.obj
 .text.config_opcode_handler
                0x0001d120       0x68 examples/light_switch/client/CMakeFiles/light_switch_client_nrf51422_xxAC_s130_2.0.1.dir/__/__/__/models/config/src/config_client.c.obj
 .text.config_client_init
                0x0001d188       0x64 examples/light_switch/client/CMakeFiles/light_switch_client_nrf51422_xxAC_s130_2.0.1.dir/__/__/__/models/config/src/config_client.c.obj
                0x0001d188                config_client_init
 .text.config_client_server_set
                0x0001d1ec       0x98 examples/light_switch/client/CMakeFiles/light_switch_client_nrf51422_xxAC_s130_2.0.1.dir/__/__/__/models/config/src/config_client.c.obj
                0x0001d1ec                config_client_server_set
 .text.config_client_server_bind
                0x0001d284       0x30 examples/light_switch/client/CMakeFiles/light_switch_client_nrf51422_xxAC_s130_2.0.1.dir/__/__/__/models/config/src/config_client.c.obj
                0x0001d284                config_client_server_bind
 .text.config_client_composition_data_get
                0x0001d2b4       0x58 examples/light_switch/client/CMakeFiles/light_switch_client_nrf51422_xxAC_s130_2.0.1.dir/__/__/__/models/config/src/config_client.c.obj
                0x0001d2b4                config_client_composition_data_get
 .text.config_client_appkey_add
                0x0001d30c       0x9c examples/light_switch/client/CMakeFiles/light_switch_client_nrf51422_xxAC_s130_2.0.1.dir/__/__/__/models/config/src/config_client.c.obj
                0x0001d30c                config_client_appkey_add
 .text.config_client_model_publication_set
                0x0001d3a8      0x188 examples/light_switch/client/CMakeFiles/light_switch_client_nrf51422_xxAC_s130_2.0.1.dir/__/__/__/models/config/src/config_client.c.obj
                0x0001d3a8                config_client_model_publication_set
 .text.config_client_model_subscription_add
                0x0001d530       0x4c examples/light_switch/client/CMakeFiles/light_switch_client_nrf51422_xxAC_s130_2.0.1.dir/__/__/__/models/config/src/config_client.c.obj
                0x0001d530                config_client_model_subscription_add
 .text.config_client_model_app_bind
                0x0001d57c       0x10 examples/light_switch/client/CMakeFiles/light_switch_client_nrf51422_xxAC_s130_2.0.1.dir/__/__/__/models/config/src/config_client.c.obj
                0x0001d57c                config_client_model_app_bind
 .text.handle_fault_status
                0x0001d58c       0x50 examples/light_switch/client/CMakeFiles/light_switch_client_nrf51422_xxAC_s130_2.0.1.dir/__/__/__/models/health/src/health_client.c.obj
 .text.handle_period_status
                0x0001d5dc       0x26 examples/light_switch/client/CMakeFiles/light_switch_client_nrf51422_xxAC_s130_2.0.1.dir/__/__/__/models/health/src/health_client.c.obj
 .text.handle_attention_status
                0x0001d602       0x26 examples/light_switch/client/CMakeFiles/light_switch_client_nrf51422_xxAC_s130_2.0.1.dir/__/__/__/models/health/src/health_client.c.obj
 .text.health_client_init
                0x0001d628       0x50 examples/light_switch/client/CMakeFiles/light_switch_client_nrf51422_xxAC_s130_2.0.1.dir/__/__/__/models/health/src/health_client.c.obj
                0x0001d628                health_client_init
 .text.add_to_publication_list
                0x0001d678       0x60 examples/light_switch/client/CMakeFiles/light_switch_client_nrf51422_xxAC_s130_2.0.1.dir/__/__/__/mesh/access/src/access_publish.c.obj
 .text.step_resolution_to_us
                0x0001d6d8       0x48 examples/light_switch/client/CMakeFiles/light_switch_client_nrf51422_xxAC_s130_2.0.1.dir/__/__/__/mesh/access/src/access_publish.c.obj
 .text.schedule_publication_timer
                0x0001d720      0x16c examples/light_switch/client/CMakeFiles/light_switch_client_nrf51422_xxAC_s130_2.0.1.dir/__/__/__/mesh/access/src/access_publish.c.obj
 .text.publish_timer_tick
                0x0001d88c       0xac examples/light_switch/client/CMakeFiles/light_switch_client_nrf51422_xxAC_s130_2.0.1.dir/__/__/__/mesh/access/src/access_publish.c.obj
 .text.access_publish_init
                0x0001d938       0x38 examples/light_switch/client/CMakeFiles/light_switch_client_nrf51422_xxAC_s130_2.0.1.dir/__/__/__/mesh/access/src/access_publish.c.obj
                0x0001d938                access_publish_init
 .text.bitfield_get
                0x0001d970       0x18 examples/light_switch/client/CMakeFiles/light_switch_client_nrf51422_xxAC_s130_2.0.1.dir/__/__/__/mesh/access/src/access.c.obj
 .text.is_valid_opcode
                0x0001d988       0x4c examples/light_switch/client/CMakeFiles/light_switch_client_nrf51422_xxAC_s130_2.0.1.dir/__/__/__/mesh/access/src/access.c.obj
 .text.model_handle_valid_and_allocated
                0x0001d9d4       0x20 examples/light_switch/client/CMakeFiles/light_switch_client_nrf51422_xxAC_s130_2.0.1.dir/__/__/__/mesh/access/src/access.c.obj
 .text.flash_invalidate_complete
                0x0001d9f4       0x18 examples/light_switch/client/CMakeFiles/light_switch_client_nrf51422_xxAC_s130_2.0.1.dir/__/__/__/mesh/access/src/access.c.obj
 .text.flash_manager_mem_available
                0x0001da0c        0x6 examples/light_switch/client/CMakeFiles/light_switch_client_nrf51422_xxAC_s130_2.0.1.dir/__/__/__/mesh/access/src/access.c.obj
 *fill*         0x0001da12        0x2 
 .text.restore_acquired_subscription
                0x0001da14       0x2c examples/light_switch/client/CMakeFiles/light_switch_client_nrf51422_xxAC_s130_2.0.1.dir/__/__/__/mesh/access/src/access.c.obj
 .text.restore_acquired_element
                0x0001da40       0x20 examples/light_switch/client/CMakeFiles/light_switch_client_nrf51422_xxAC_s130_2.0.1.dir/__/__/__/mesh/access/src/access.c.obj
 .text.restore_flash_data
                0x0001da60       0x5c examples/light_switch/client/CMakeFiles/light_switch_client_nrf51422_xxAC_s130_2.0.1.dir/__/__/__/mesh/access/src/access.c.obj
 .text.access_flash_config_clear
                0x0001dabc       0x28 examples/light_switch/client/CMakeFiles/light_switch_client_nrf51422_xxAC_s130_2.0.1.dir/__/__/__/mesh/access/src/access.c.obj
 .text.access_flash_config_store
                0x0001dae4      0x144 examples/light_switch/client/CMakeFiles/light_switch_client_nrf51422_xxAC_s130_2.0.1.dir/__/__/__/mesh/access/src/access.c.obj
                0x0001dae4                access_flash_config_store
 .text.access_state_clear
                0x0001dc28       0x4c examples/light_switch/client/CMakeFiles/light_switch_client_nrf51422_xxAC_s130_2.0.1.dir/__/__/__/mesh/access/src/access.c.obj
 .text.add_flash_manager
                0x0001dc74       0x5c examples/light_switch/client/CMakeFiles/light_switch_client_nrf51422_xxAC_s130_2.0.1.dir/__/__/__/mesh/access/src/access.c.obj
 .text.flash_remove_complete
                0x0001dcd0       0x6c examples/light_switch/client/CMakeFiles/light_switch_client_nrf51422_xxAC_s130_2.0.1.dir/__/__/__/mesh/access/src/access.c.obj
 .text.flash_write_complete
                0x0001dd3c       0x54 examples/light_switch/client/CMakeFiles/light_switch_client_nrf51422_xxAC_s130_2.0.1.dir/__/__/__/mesh/access/src/access.c.obj
 .text.unlikely.bitfield_next_get.part.0.constprop.3
                0x0001dd90       0x34 examples/light_switch/client/CMakeFiles/light_switch_client_nrf51422_xxAC_s130_2.0.1.dir/__/__/__/mesh/access/src/access.c.obj
 .text.restore_acquired_model
                0x0001ddc4       0x88 examples/light_switch/client/CMakeFiles/light_switch_client_nrf51422_xxAC_s130_2.0.1.dir/__/__/__/mesh/access/src/access.c.obj
 .text.handle_incoming
                0x0001de4c      0x168 examples/light_switch/client/CMakeFiles/light_switch_client_nrf51422_xxAC_s130_2.0.1.dir/__/__/__/mesh/access/src/access.c.obj
 .text.mesh_evt_cb
                0x0001dfb4      0x130 examples/light_switch/client/CMakeFiles/light_switch_client_nrf51422_xxAC_s130_2.0.1.dir/__/__/__/mesh/access/src/access.c.obj
 .text.packet_tx
                0x0001e0e4      0x2fc examples/light_switch/client/CMakeFiles/light_switch_client_nrf51422_xxAC_s130_2.0.1.dir/__/__/__/mesh/access/src/access.c.obj
 .text.access_flash_config_load
                0x0001e3e0      0x13c examples/light_switch/client/CMakeFiles/light_switch_client_nrf51422_xxAC_s130_2.0.1.dir/__/__/__/mesh/access/src/access.c.obj
                0x0001e3e0                access_flash_config_load
 .text.access_init
                0x0001e51c       0x28 examples/light_switch/client/CMakeFiles/light_switch_client_nrf51422_xxAC_s130_2.0.1.dir/__/__/__/mesh/access/src/access.c.obj
                0x0001e51c                access_init
 .text.access_model_add
                0x0001e544      0x1ac examples/light_switch/client/CMakeFiles/light_switch_client_nrf51422_xxAC_s130_2.0.1.dir/__/__/__/mesh/access/src/access.c.obj
                0x0001e544                access_model_add
 .text.access_model_publish
                0x0001e6f0       0x14 examples/light_switch/client/CMakeFiles/light_switch_client_nrf51422_xxAC_s130_2.0.1.dir/__/__/__/mesh/access/src/access.c.obj
                0x0001e6f0                access_model_publish
 .text.access_model_publish_address_set
                0x0001e704       0x3c examples/light_switch/client/CMakeFiles/light_switch_client_nrf51422_xxAC_s130_2.0.1.dir/__/__/__/mesh/access/src/access.c.obj
                0x0001e704                access_model_publish_address_set
 .text.access_model_publish_address_get
                0x0001e740       0x2c examples/light_switch/client/CMakeFiles/light_switch_client_nrf51422_xxAC_s130_2.0.1.dir/__/__/__/mesh/access/src/access.c.obj
                0x0001e740                access_model_publish_address_get
 .text.access_model_subscription_list_alloc
                0x0001e76c       0x50 examples/light_switch/client/CMakeFiles/light_switch_client_nrf51422_xxAC_s130_2.0.1.dir/__/__/__/mesh/access/src/access.c.obj
                0x0001e76c                access_model_subscription_list_alloc
 .text.access_model_application_bind
                0x0001e7bc       0x50 examples/light_switch/client/CMakeFiles/light_switch_client_nrf51422_xxAC_s130_2.0.1.dir/__/__/__/mesh/access/src/access.c.obj
                0x0001e7bc                access_model_application_bind
 .text.access_model_publish_application_set
                0x0001e80c       0x3c examples/light_switch/client/CMakeFiles/light_switch_client_nrf51422_xxAC_s130_2.0.1.dir/__/__/__/mesh/access/src/access.c.obj
                0x0001e80c                access_model_publish_application_set
 .text.access_model_publish_ttl_get
                0x0001e848       0x2c examples/light_switch/client/CMakeFiles/light_switch_client_nrf51422_xxAC_s130_2.0.1.dir/__/__/__/mesh/access/src/access.c.obj
                0x0001e848                access_model_publish_ttl_get
 .text.access_model_p_args_get
                0x0001e874       0x2c examples/light_switch/client/CMakeFiles/light_switch_client_nrf51422_xxAC_s130_2.0.1.dir/__/__/__/mesh/access/src/access.c.obj
                0x0001e874                access_model_p_args_get
 .text.remove_and_reschedule
                0x0001e8a0       0xd4 examples/light_switch/client/CMakeFiles/light_switch_client_nrf51422_xxAC_s130_2.0.1.dir/__/__/__/mesh/access/src/access_reliable.c.obj
 .text.reliable_timer_cb
                0x0001e974      0x14c examples/light_switch/client/CMakeFiles/light_switch_client_nrf51422_xxAC_s130_2.0.1.dir/__/__/__/mesh/access/src/access_reliable.c.obj
 .text.access_reliable_message_rx_cb
                0x0001eac0       0x74 examples/light_switch/client/CMakeFiles/light_switch_client_nrf51422_xxAC_s130_2.0.1.dir/__/__/__/mesh/access/src/access_reliable.c.obj
                0x0001eac0                access_reliable_message_rx_cb
 .text.access_reliable_init
                0x0001eb34       0x20 examples/light_switch/client/CMakeFiles/light_switch_client_nrf51422_xxAC_s130_2.0.1.dir/__/__/__/mesh/access/src/access_reliable.c.obj
                0x0001eb34                access_reliable_init
 .text.access_model_reliable_publish
                0x0001eb54      0x1c4 examples/light_switch/client/CMakeFiles/light_switch_client_nrf51422_xxAC_s130_2.0.1.dir/__/__/__/mesh/access/src/access_reliable.c.obj
                0x0001eb54                access_model_reliable_publish
 .text.bitfield_get
                0x0001ed18       0x18 examples/light_switch/client/CMakeFiles/light_switch_client_nrf51422_xxAC_s130_2.0.1.dir/__/__/__/mesh/access/src/device_state_manager.c.obj
 .text.bitfield_set
                0x0001ed30       0x16 examples/light_switch/client/CMakeFiles/light_switch_client_nrf51422_xxAC_s130_2.0.1.dir/__/__/__/mesh/access/src/device_state_manager.c.obj
 .text.bitfield_clear
                0x0001ed46       0x16 examples/light_switch/client/CMakeFiles/light_switch_client_nrf51422_xxAC_s130_2.0.1.dir/__/__/__/mesh/access/src/device_state_manager.c.obj
 .text.bitfield_is_all_clear
                0x0001ed5c       0x3a examples/light_switch/client/CMakeFiles/light_switch_client_nrf51422_xxAC_s130_2.0.1.dir/__/__/__/mesh/access/src/device_state_manager.c.obj
 *fill*         0x0001ed96        0x2 
 .text.address_handle_virtual_valid
                0x0001ed98       0x18 examples/light_switch/client/CMakeFiles/light_switch_client_nrf51422_xxAC_s130_2.0.1.dir/__/__/__/mesh/access/src/device_state_manager.c.obj
 .text.net_key_handle_get
                0x0001edb0       0x38 examples/light_switch/client/CMakeFiles/light_switch_client_nrf51422_xxAC_s130_2.0.1.dir/__/__/__/mesh/access/src/device_state_manager.c.obj
 .text.dev_key_handle_get
                0x0001ede8       0x50 examples/light_switch/client/CMakeFiles/light_switch_client_nrf51422_xxAC_s130_2.0.1.dir/__/__/__/mesh/access/src/device_state_manager.c.obj
 .text.app_key_handle_get
                0x0001ee38       0x38 examples/light_switch/client/CMakeFiles/light_switch_client_nrf51422_xxAC_s130_2.0.1.dir/__/__/__/mesh/access/src/device_state_manager.c.obj
 .text.get_subnet_handle
                0x0001ee70       0x4c examples/light_switch/client/CMakeFiles/light_switch_client_nrf51422_xxAC_s130_2.0.1.dir/__/__/__/mesh/access/src/device_state_manager.c.obj
 .text.addr_nonvirtual_to_flash_entry
                0x0001eebc       0x10 examples/light_switch/client/CMakeFiles/light_switch_client_nrf51422_xxAC_s130_2.0.1.dir/__/__/__/mesh/access/src/device_state_manager.c.obj
 .text.flash_mem_listener_callback
                0x0001eecc       0x20 examples/light_switch/client/CMakeFiles/light_switch_client_nrf51422_xxAC_s130_2.0.1.dir/__/__/__/mesh/access/src/device_state_manager.c.obj
 .text.devkey_set
                0x0001eeec       0x4c examples/light_switch/client/CMakeFiles/light_switch_client_nrf51422_xxAC_s130_2.0.1.dir/__/__/__/mesh/access/src/device_state_manager.c.obj
 .text.devkey_to_dsm_entry
                0x0001ef38       0x14 examples/light_switch/client/CMakeFiles/light_switch_client_nrf51422_xxAC_s130_2.0.1.dir/__/__/__/mesh/access/src/device_state_manager.c.obj
 .text.devkey_to_flash_entry
                0x0001ef4c       0x28 examples/light_switch/client/CMakeFiles/light_switch_client_nrf51422_xxAC_s130_2.0.1.dir/__/__/__/mesh/access/src/device_state_manager.c.obj
 .text.addr_virtual_to_flash_entry
                0x0001ef74       0x1c examples/light_switch/client/CMakeFiles/light_switch_client_nrf51422_xxAC_s130_2.0.1.dir/__/__/__/mesh/access/src/device_state_manager.c.obj
 .text.addr_unicast_to_dsm_entry
                0x0001ef90       0x10 examples/light_switch/client/CMakeFiles/light_switch_client_nrf51422_xxAC_s130_2.0.1.dir/__/__/__/mesh/access/src/device_state_manager.c.obj
 .text.addr_unicast_to_flash_entry
                0x0001efa0       0x14 examples/light_switch/client/CMakeFiles/light_switch_client_nrf51422_xxAC_s130_2.0.1.dir/__/__/__/mesh/access/src/device_state_manager.c.obj
 .text.appkey_set
                0x0001efb4       0x84 examples/light_switch/client/CMakeFiles/light_switch_client_nrf51422_xxAC_s130_2.0.1.dir/__/__/__/mesh/access/src/device_state_manager.c.obj
 .text.appkey_to_flash_entry
                0x0001f038       0x54 examples/light_switch/client/CMakeFiles/light_switch_client_nrf51422_xxAC_s130_2.0.1.dir/__/__/__/mesh/access/src/device_state_manager.c.obj
 .text.subnet_to_flash_entry
                0x0001f08c       0x58 examples/light_switch/client/CMakeFiles/light_switch_client_nrf51422_xxAC_s130_2.0.1.dir/__/__/__/mesh/access/src/device_state_manager.c.obj
 .text.subnet_set
                0x0001f0e4       0xc0 examples/light_switch/client/CMakeFiles/light_switch_client_nrf51422_xxAC_s130_2.0.1.dir/__/__/__/mesh/access/src/device_state_manager.c.obj
 .text.virtual_address_set
                0x0001f1a4       0x58 examples/light_switch/client/CMakeFiles/light_switch_client_nrf51422_xxAC_s130_2.0.1.dir/__/__/__/mesh/access/src/device_state_manager.c.obj
 .text.addr_virtual_to_dsm_entry
                0x0001f1fc       0x10 examples/light_switch/client/CMakeFiles/light_switch_client_nrf51422_xxAC_s130_2.0.1.dir/__/__/__/mesh/access/src/device_state_manager.c.obj
 .text.reset_flash_area
                0x0001f20c       0x28 examples/light_switch/client/CMakeFiles/light_switch_client_nrf51422_xxAC_s130_2.0.1.dir/__/__/__/mesh/access/src/device_state_manager.c.obj
 .text.flash_save
                0x0001f234       0x8c examples/light_switch/client/CMakeFiles/light_switch_client_nrf51422_xxAC_s130_2.0.1.dir/__/__/__/mesh/access/src/device_state_manager.c.obj
 .text.flash_invalidate
                0x0001f2c0       0x74 examples/light_switch/client/CMakeFiles/light_switch_client_nrf51422_xxAC_s130_2.0.1.dir/__/__/__/mesh/access/src/device_state_manager.c.obj
 .text.flash_update_all
                0x0001f334       0x74 examples/light_switch/client/CMakeFiles/light_switch_client_nrf51422_xxAC_s130_2.0.1.dir/__/__/__/mesh/access/src/device_state_manager.c.obj
 .text.virtual_address_uuid_index_get
                0x0001f3a8       0x40 examples/light_switch/client/CMakeFiles/light_switch_client_nrf51422_xxAC_s130_2.0.1.dir/__/__/__/mesh/access/src/device_state_manager.c.obj
 .text.get_subnet_handle_by_beacon_info
                0x0001f3e8       0x38 examples/light_switch/client/CMakeFiles/light_switch_client_nrf51422_xxAC_s130_2.0.1.dir/__/__/__/mesh/access/src/device_state_manager.c.obj
 .text.get_app_handle
                0x0001f420       0x50 examples/light_switch/client/CMakeFiles/light_switch_client_nrf51422_xxAC_s130_2.0.1.dir/__/__/__/mesh/access/src/device_state_manager.c.obj
 .text.appkey_to_dsm_entry
                0x0001f470       0x80 examples/light_switch/client/CMakeFiles/light_switch_client_nrf51422_xxAC_s130_2.0.1.dir/__/__/__/mesh/access/src/device_state_manager.c.obj
 .text.subnet_to_dsm_entry
                0x0001f4f0       0x7c examples/light_switch/client/CMakeFiles/light_switch_client_nrf51422_xxAC_s130_2.0.1.dir/__/__/__/mesh/access/src/device_state_manager.c.obj
 .text.flash_operation_complete
                0x0001f56c       0x58 examples/light_switch/client/CMakeFiles/light_switch_client_nrf51422_xxAC_s130_2.0.1.dir/__/__/__/mesh/access/src/device_state_manager.c.obj
 .text.flash_invalidate_complete
                0x0001f5c4        0xc examples/light_switch/client/CMakeFiles/light_switch_client_nrf51422_xxAC_s130_2.0.1.dir/__/__/__/mesh/access/src/device_state_manager.c.obj
 .text.flash_write_complete
                0x0001f5d0        0xc examples/light_switch/client/CMakeFiles/light_switch_client_nrf51422_xxAC_s130_2.0.1.dir/__/__/__/mesh/access/src/device_state_manager.c.obj
 .text.add_address.part.7
                0x0001f5dc      0x138 examples/light_switch/client/CMakeFiles/light_switch_client_nrf51422_xxAC_s130_2.0.1.dir/__/__/__/mesh/access/src/device_state_manager.c.obj
 .text.address_handle_valid
                0x0001f714       0x28 examples/light_switch/client/CMakeFiles/light_switch_client_nrf51422_xxAC_s130_2.0.1.dir/__/__/__/mesh/access/src/device_state_manager.c.obj
 .text.address_handle_nonvirtual_valid
                0x0001f73c       0x18 examples/light_switch/client/CMakeFiles/light_switch_client_nrf51422_xxAC_s130_2.0.1.dir/__/__/__/mesh/access/src/device_state_manager.c.obj
 .text.address_delete_if_unused
                0x0001f754       0x7c examples/light_switch/client/CMakeFiles/light_switch_client_nrf51422_xxAC_s130_2.0.1.dir/__/__/__/mesh/access/src/device_state_manager.c.obj
 .text.addr_nonvirtual_to_dsm_entry
                0x0001f7d0       0x34 examples/light_switch/client/CMakeFiles/light_switch_client_nrf51422_xxAC_s130_2.0.1.dir/__/__/__/mesh/access/src/device_state_manager.c.obj
 .text.dsm_flash_config_load
                0x0001f804      0x124 examples/light_switch/client/CMakeFiles/light_switch_client_nrf51422_xxAC_s130_2.0.1.dir/__/__/__/mesh/access/src/device_state_manager.c.obj
                0x0001f804                dsm_flash_config_load
 .text.dsm_flash_area_get
                0x0001f928       0x10 examples/light_switch/client/CMakeFiles/light_switch_client_nrf51422_xxAC_s130_2.0.1.dir/__/__/__/mesh/access/src/device_state_manager.c.obj
                0x0001f928                dsm_flash_area_get
 .text.build_flash_area
                0x0001f938       0x8c examples/light_switch/client/CMakeFiles/light_switch_client_nrf51422_xxAC_s130_2.0.1.dir/__/__/__/mesh/access/src/device_state_manager.c.obj
 .text.flash_remove_complete
                0x0001f9c4        0x8 examples/light_switch/client/CMakeFiles/light_switch_client_nrf51422_xxAC_s130_2.0.1.dir/__/__/__/mesh/access/src/device_state_manager.c.obj
 .text.dsm_init
                0x0001f9cc       0x28 examples/light_switch/client/CMakeFiles/light_switch_client_nrf51422_xxAC_s130_2.0.1.dir/__/__/__/mesh/access/src/device_state_manager.c.obj
                0x0001f9cc                dsm_init
 .text.dsm_local_unicast_addresses_set
                0x0001f9f4       0x80 examples/light_switch/client/CMakeFiles/light_switch_client_nrf51422_xxAC_s130_2.0.1.dir/__/__/__/mesh/access/src/device_state_manager.c.obj
                0x0001f9f4                dsm_local_unicast_addresses_set
 .text.dsm_local_unicast_addresses_get
                0x0001fa74       0x2c examples/light_switch/client/CMakeFiles/light_switch_client_nrf51422_xxAC_s130_2.0.1.dir/__/__/__/mesh/access/src/device_state_manager.c.obj
                0x0001fa74                dsm_local_unicast_addresses_get
 .text.dsm_address_publish_add
                0x0001faa0       0x14 examples/light_switch/client/CMakeFiles/light_switch_client_nrf51422_xxAC_s130_2.0.1.dir/__/__/__/mesh/access/src/device_state_manager.c.obj
                0x0001faa0                dsm_address_publish_add
 .text.dsm_address_publish_add_handle
                0x0001fab4       0x38 examples/light_switch/client/CMakeFiles/light_switch_client_nrf51422_xxAC_s130_2.0.1.dir/__/__/__/mesh/access/src/device_state_manager.c.obj
                0x0001fab4                dsm_address_publish_add_handle
 .text.dsm_address_publish_remove
                0x0001faec       0x40 examples/light_switch/client/CMakeFiles/light_switch_client_nrf51422_xxAC_s130_2.0.1.dir/__/__/__/mesh/access/src/device_state_manager.c.obj
                0x0001faec                dsm_address_publish_remove
 .text.dsm_address_subscription_add_handle
                0x0001fb2c       0x38 examples/light_switch/client/CMakeFiles/light_switch_client_nrf51422_xxAC_s130_2.0.1.dir/__/__/__/mesh/access/src/device_state_manager.c.obj
                0x0001fb2c                dsm_address_subscription_add_handle
 .text.dsm_address_subscription_get
                0x0001fb64       0x34 examples/light_switch/client/CMakeFiles/light_switch_client_nrf51422_xxAC_s130_2.0.1.dir/__/__/__/mesh/access/src/device_state_manager.c.obj
                0x0001fb64                dsm_address_subscription_get
 .text.dsm_address_get
                0x0001fb98       0x5c examples/light_switch/client/CMakeFiles/light_switch_client_nrf51422_xxAC_s130_2.0.1.dir/__/__/__/mesh/access/src/device_state_manager.c.obj
                0x0001fb98                dsm_address_get
 .text.dsm_address_get_all
                0x0001fbf4       0x5c examples/light_switch/client/CMakeFiles/light_switch_client_nrf51422_xxAC_s130_2.0.1.dir/__/__/__/mesh/access/src/device_state_manager.c.obj
                0x0001fbf4                dsm_address_get_all
 .text.dsm_address_handle_get
                0x0001fc50       0x98 examples/light_switch/client/CMakeFiles/light_switch_client_nrf51422_xxAC_s130_2.0.1.dir/__/__/__/mesh/access/src/device_state_manager.c.obj
                0x0001fc50                dsm_address_handle_get
 .text.dsm_appkey_handle_get
                0x0001fce8       0x14 examples/light_switch/client/CMakeFiles/light_switch_client_nrf51422_xxAC_s130_2.0.1.dir/__/__/__/mesh/access/src/device_state_manager.c.obj
                0x0001fce8                dsm_appkey_handle_get
 .text.dsm_subnet_add
                0x0001fcfc       0x60 examples/light_switch/client/CMakeFiles/light_switch_client_nrf51422_xxAC_s130_2.0.1.dir/__/__/__/mesh/access/src/device_state_manager.c.obj
                0x0001fcfc                dsm_subnet_add
 .text.dsm_subnet_update_swap_keys
                0x0001fd5c       0x50 examples/light_switch/client/CMakeFiles/light_switch_client_nrf51422_xxAC_s130_2.0.1.dir/__/__/__/mesh/access/src/device_state_manager.c.obj
                0x0001fd5c                dsm_subnet_update_swap_keys
 .text.dsm_subnet_update_commit
                0x0001fdac       0xbc examples/light_switch/client/CMakeFiles/light_switch_client_nrf51422_xxAC_s130_2.0.1.dir/__/__/__/mesh/access/src/device_state_manager.c.obj
                0x0001fdac                dsm_subnet_update_commit
 .text.net_beacon_callback
                0x0001fe68       0x74 examples/light_switch/client/CMakeFiles/light_switch_client_nrf51422_xxAC_s130_2.0.1.dir/__/__/__/mesh/access/src/device_state_manager.c.obj
 .text.dsm_subnet_get_all
                0x0001fedc       0x44 examples/light_switch/client/CMakeFiles/light_switch_client_nrf51422_xxAC_s130_2.0.1.dir/__/__/__/mesh/access/src/device_state_manager.c.obj
                0x0001fedc                dsm_subnet_get_all
 .text.dsm_devkey_add
                0x0001ff20       0x7c examples/light_switch/client/CMakeFiles/light_switch_client_nrf51422_xxAC_s130_2.0.1.dir/__/__/__/mesh/access/src/device_state_manager.c.obj
                0x0001ff20                dsm_devkey_add
 .text.dsm_devkey_delete
                0x0001ff9c       0x44 examples/light_switch/client/CMakeFiles/light_switch_client_nrf51422_xxAC_s130_2.0.1.dir/__/__/__/mesh/access/src/device_state_manager.c.obj
                0x0001ff9c                dsm_devkey_delete
 .text.dsm_devkey_handle_get
                0x0001ffe0       0x30 examples/light_switch/client/CMakeFiles/light_switch_client_nrf51422_xxAC_s130_2.0.1.dir/__/__/__/mesh/access/src/device_state_manager.c.obj
                0x0001ffe0                dsm_devkey_handle_get
 .text.dsm_appkey_add
                0x00020010       0x78 examples/light_switch/client/CMakeFiles/light_switch_client_nrf51422_xxAC_s130_2.0.1.dir/__/__/__/mesh/access/src/device_state_manager.c.obj
                0x00020010                dsm_appkey_add
 .text.dsm_appkey_get_all
                0x00020088       0x64 examples/light_switch/client/CMakeFiles/light_switch_client_nrf51422_xxAC_s130_2.0.1.dir/__/__/__/mesh/access/src/device_state_manager.c.obj
                0x00020088                dsm_appkey_get_all
 .text.dsm_tx_secmat_get
                0x000200ec      0x114 examples/light_switch/client/CMakeFiles/light_switch_client_nrf51422_xxAC_s130_2.0.1.dir/__/__/__/mesh/access/src/device_state_manager.c.obj
                0x000200ec                dsm_tx_secmat_get
 .text.nrf_mesh_net_secmat_next_get
                0x00020200       0xb4 examples/light_switch/client/CMakeFiles/light_switch_client_nrf51422_xxAC_s130_2.0.1.dir/__/__/__/mesh/access/src/device_state_manager.c.obj
                0x00020200                nrf_mesh_net_secmat_next_get
 .text.nrf_mesh_app_secmat_next_get
                0x000202b4       0x88 examples/light_switch/client/CMakeFiles/light_switch_client_nrf51422_xxAC_s130_2.0.1.dir/__/__/__/mesh/access/src/device_state_manager.c.obj
                0x000202b4                nrf_mesh_app_secmat_next_get
 .text.nrf_mesh_devkey_secmat_get
                0x0002033c       0x50 examples/light_switch/client/CMakeFiles/light_switch_client_nrf51422_xxAC_s130_2.0.1.dir/__/__/__/mesh/access/src/device_state_manager.c.obj
                0x0002033c                nrf_mesh_devkey_secmat_get
 .text.nrf_mesh_beacon_info_next_get
                0x0002038c       0xcc examples/light_switch/client/CMakeFiles/light_switch_client_nrf51422_xxAC_s130_2.0.1.dir/__/__/__/mesh/access/src/device_state_manager.c.obj
                0x0002038c                nrf_mesh_beacon_info_next_get
 .text.nrf_mesh_rx_address_get
                0x00020458       0xec examples/light_switch/client/CMakeFiles/light_switch_client_nrf51422_xxAC_s130_2.0.1.dir/__/__/__/mesh/access/src/device_state_manager.c.obj
                0x00020458                nrf_mesh_rx_address_get
 .text.prov_provisioner_cb_link_closed
                0x00020544       0x26 examples/light_switch/client/CMakeFiles/light_switch_client_nrf51422_xxAC_s130_2.0.1.dir/__/__/__/mesh/prov/src/prov_provisioner.c.obj
 .text.prov_provisioner_cb_link_established
                0x0002056a       0x40 examples/light_switch/client/CMakeFiles/light_switch_client_nrf51422_xxAC_s130_2.0.1.dir/__/__/__/mesh/prov/src/prov_provisioner.c.obj
 .text.prov_provisioner_cb_ack_received
                0x000205aa       0x48 examples/light_switch/client/CMakeFiles/light_switch_client_nrf51422_xxAC_s130_2.0.1.dir/__/__/__/mesh/prov/src/prov_provisioner.c.obj
 .text.send_confirmation
                0x000205f2       0x28 examples/light_switch/client/CMakeFiles/light_switch_client_nrf51422_xxAC_s130_2.0.1.dir/__/__/__/mesh/prov/src/prov_provisioner.c.obj
 .text.request_authentication
                0x0002061a       0x7e examples/light_switch/client/CMakeFiles/light_switch_client_nrf51422_xxAC_s130_2.0.1.dir/__/__/__/mesh/prov/src/prov_provisioner.c.obj
 .text.prov_provisioner_pkt_in
                0x00020698      0x2d6 examples/light_switch/client/CMakeFiles/light_switch_client_nrf51422_xxAC_s130_2.0.1.dir/__/__/__/mesh/prov/src/prov_provisioner.c.obj
 *fill*         0x0002096e        0x2 
 .text.prov_provisioner_provision
                0x00020970       0x48 examples/light_switch/client/CMakeFiles/light_switch_client_nrf51422_xxAC_s130_2.0.1.dir/__/__/__/mesh/prov/src/prov_provisioner.c.obj
                0x00020970                prov_provisioner_provision
 .text.prov_provisioner_oob_use
                0x000209b8       0x70 examples/light_switch/client/CMakeFiles/light_switch_client_nrf51422_xxAC_s130_2.0.1.dir/__/__/__/mesh/prov/src/prov_provisioner.c.obj
                0x000209b8                prov_provisioner_oob_use
 .text.prov_provisioner_auth_data
                0x00020a28       0x40 examples/light_switch/client/CMakeFiles/light_switch_client_nrf51422_xxAC_s130_2.0.1.dir/__/__/__/mesh/prov/src/prov_provisioner.c.obj
                0x00020a28                prov_provisioner_auth_data
 .text.bearer_compare_callback
                0x00020a68        0xe examples/light_switch/client/CMakeFiles/light_switch_client_nrf51422_xxAC_s130_2.0.1.dir/__/__/__/mesh/prov/src/nrf_mesh_prov.c.obj
 .text.nrf_mesh_prov_init
                0x00020a76       0x3e examples/light_switch/client/CMakeFiles/light_switch_client_nrf51422_xxAC_s130_2.0.1.dir/__/__/__/mesh/prov/src/nrf_mesh_prov.c.obj
                0x00020a76                nrf_mesh_prov_init
 .text.nrf_mesh_prov_bearer_add
                0x00020ab4       0x24 examples/light_switch/client/CMakeFiles/light_switch_client_nrf51422_xxAC_s130_2.0.1.dir/__/__/__/mesh/prov/src/nrf_mesh_prov.c.obj
                0x00020ab4                nrf_mesh_prov_bearer_add
 .text.nrf_mesh_prov_generate_keys
                0x00020ad8        0x8 examples/light_switch/client/CMakeFiles/light_switch_client_nrf51422_xxAC_s130_2.0.1.dir/__/__/__/mesh/prov/src/nrf_mesh_prov.c.obj
                0x00020ad8                nrf_mesh_prov_generate_keys
 .text.nrf_mesh_prov_provision
                0x00020ae0       0x64 examples/light_switch/client/CMakeFiles/light_switch_client_nrf51422_xxAC_s130_2.0.1.dir/__/__/__/mesh/prov/src/nrf_mesh_prov.c.obj
                0x00020ae0                nrf_mesh_prov_provision
 .text.nrf_mesh_prov_oob_use
                0x00020b44       0x18 examples/light_switch/client/CMakeFiles/light_switch_client_nrf51422_xxAC_s130_2.0.1.dir/__/__/__/mesh/prov/src/nrf_mesh_prov.c.obj
                0x00020b44                nrf_mesh_prov_oob_use
 .text.nrf_mesh_prov_auth_data_provide
                0x00020b5c       0x18 examples/light_switch/client/CMakeFiles/light_switch_client_nrf51422_xxAC_s130_2.0.1.dir/__/__/__/mesh/prov/src/nrf_mesh_prov.c.obj
                0x00020b5c                nrf_mesh_prov_auth_data_provide
 .text.nrf_mesh_prov_scan_start
                0x00020b74       0x12 examples/light_switch/client/CMakeFiles/light_switch_client_nrf51422_xxAC_s130_2.0.1.dir/__/__/__/mesh/prov/src/nrf_mesh_prov.c.obj
                0x00020b74                nrf_mesh_prov_scan_start
 *fill*         0x00020b86        0x2 
 .text.send_data
                0x00020b88       0x44 examples/light_switch/client/CMakeFiles/light_switch_client_nrf51422_xxAC_s130_2.0.1.dir/__/__/__/mesh/prov/src/provisioning.c.obj
 .text.prov_packet_length_valid
                0x00020bcc       0x20 examples/light_switch/client/CMakeFiles/light_switch_client_nrf51422_xxAC_s130_2.0.1.dir/__/__/__/mesh/prov/src/provisioning.c.obj
                0x00020bcc                prov_packet_length_valid
 .text.prov_tx_invite
                0x00020bec       0x24 examples/light_switch/client/CMakeFiles/light_switch_client_nrf51422_xxAC_s130_2.0.1.dir/__/__/__/mesh/prov/src/provisioning.c.obj
                0x00020bec                prov_tx_invite
 .text.prov_tx_start
                0x00020c10       0x1e examples/light_switch/client/CMakeFiles/light_switch_client_nrf51422_xxAC_s130_2.0.1.dir/__/__/__/mesh/prov/src/provisioning.c.obj
                0x00020c10                prov_tx_start
 .text.prov_tx_public_key
                0x00020c2e       0x24 examples/light_switch/client/CMakeFiles/light_switch_client_nrf51422_xxAC_s130_2.0.1.dir/__/__/__/mesh/prov/src/provisioning.c.obj
                0x00020c2e                prov_tx_public_key
 .text.prov_tx_confirmation
                0x00020c52       0x24 examples/light_switch/client/CMakeFiles/light_switch_client_nrf51422_xxAC_s130_2.0.1.dir/__/__/__/mesh/prov/src/provisioning.c.obj
                0x00020c52                prov_tx_confirmation
 .text.prov_tx_random
                0x00020c76       0x24 examples/light_switch/client/CMakeFiles/light_switch_client_nrf51422_xxAC_s130_2.0.1.dir/__/__/__/mesh/prov/src/provisioning.c.obj
                0x00020c76                prov_tx_random
 .text.prov_tx_data
                0x00020c9a        0xa examples/light_switch/client/CMakeFiles/light_switch_client_nrf51422_xxAC_s130_2.0.1.dir/__/__/__/mesh/prov/src/provisioning.c.obj
                0x00020c9a                prov_tx_data
 .text.prov_beacon_unprov_build
                0x00020ca4       0x52 examples/light_switch/client/CMakeFiles/light_switch_client_nrf51422_xxAC_s130_2.0.1.dir/__/__/__/mesh/prov/src/prov_beacon.c.obj
                0x00020ca4                prov_beacon_unprov_build
 *fill*         0x00020cf6        0x2 
 .text.prov_beacon_unprov_packet_in
                0x00020cf8       0xb0 examples/light_switch/client/CMakeFiles/light_switch_client_nrf51422_xxAC_s130_2.0.1.dir/__/__/__/mesh/prov/src/prov_beacon.c.obj
                0x00020cf8                prov_beacon_unprov_packet_in
 .text.prov_beacon_scan_start
                0x00020da8       0x24 examples/light_switch/client/CMakeFiles/light_switch_client_nrf51422_xxAC_s130_2.0.1.dir/__/__/__/mesh/prov/src/prov_beacon.c.obj
                0x00020da8                prov_beacon_scan_start
 .text.oob_gen_alphanumeric
                0x00020dcc       0x34 examples/light_switch/client/CMakeFiles/light_switch_client_nrf51422_xxAC_s130_2.0.1.dir/__/__/__/mesh/prov/src/prov_utils.c.obj
 .text.oob_gen_numeric
                0x00020e00       0x30 examples/light_switch/client/CMakeFiles/light_switch_client_nrf51422_xxAC_s130_2.0.1.dir/__/__/__/mesh/prov/src/prov_utils.c.obj
 .text.prov_utils_opt_get
                0x00020e30       0x1c examples/light_switch/client/CMakeFiles/light_switch_client_nrf51422_xxAC_s130_2.0.1.dir/__/__/__/mesh/prov/src/prov_utils.c.obj
                0x00020e30                prov_utils_opt_get
 .text.prov_utils_use_ecdh_offloading
                0x00020e4c        0xc examples/light_switch/client/CMakeFiles/light_switch_client_nrf51422_xxAC_s130_2.0.1.dir/__/__/__/mesh/prov/src/prov_utils.c.obj
                0x00020e4c                prov_utils_use_ecdh_offloading
 .text.prov_utils_authentication_values_derive
                0x00020e58       0xac examples/light_switch/client/CMakeFiles/light_switch_client_nrf51422_xxAC_s130_2.0.1.dir/__/__/__/mesh/prov/src/prov_utils.c.obj
                0x00020e58                prov_utils_authentication_values_derive
 .text.prov_utils_keys_generate
                0x00020f04       0x20 examples/light_switch/client/CMakeFiles/light_switch_client_nrf51422_xxAC_s130_2.0.1.dir/__/__/__/mesh/prov/src/prov_utils.c.obj
                0x00020f04                prov_utils_keys_generate
 .text.prov_utils_derive_keys
                0x00020f24       0xac examples/light_switch/client/CMakeFiles/light_switch_client_nrf51422_xxAC_s130_2.0.1.dir/__/__/__/mesh/prov/src/prov_utils.c.obj
                0x00020f24                prov_utils_derive_keys
 .text.prov_utils_calculate_shared_secret
                0x00020fd0       0x38 examples/light_switch/client/CMakeFiles/light_switch_client_nrf51422_xxAC_s130_2.0.1.dir/__/__/__/mesh/prov/src/prov_utils.c.obj
                0x00020fd0                prov_utils_calculate_shared_secret
 .text.prov_utils_generate_oob_data
                0x00021008       0x8c examples/light_switch/client/CMakeFiles/light_switch_client_nrf51422_xxAC_s130_2.0.1.dir/__/__/__/mesh/prov/src/prov_utils.c.obj
                0x00021008                prov_utils_generate_oob_data
 .text.prov_utils_confirmation_check
                0x00021094       0x5c examples/light_switch/client/CMakeFiles/light_switch_client_nrf51422_xxAC_s130_2.0.1.dir/__/__/__/mesh/prov/src/prov_utils.c.obj
                0x00021094                prov_utils_confirmation_check
 .text.link_timeout_cb
                0x000210f0       0x12 examples/light_switch/client/CMakeFiles/light_switch_client_nrf51422_xxAC_s130_2.0.1.dir/__/__/__/mesh/prov/src/prov_bearer_adv.c.obj
 *fill*         0x00021102        0x2 
 .text.remove_active_bearer
                0x00021104       0x68 examples/light_switch/client/CMakeFiles/light_switch_client_nrf51422_xxAC_s130_2.0.1.dir/__/__/__/mesh/prov/src/prov_bearer_adv.c.obj
 .text.close_link
                0x0002116c       0x74 examples/light_switch/client/CMakeFiles/light_switch_client_nrf51422_xxAC_s130_2.0.1.dir/__/__/__/mesh/prov/src/prov_bearer_adv.c.obj
 .text.prov_bearer_adv_listen_stop
                0x000211e0       0x40 examples/light_switch/client/CMakeFiles/light_switch_client_nrf51422_xxAC_s130_2.0.1.dir/__/__/__/mesh/prov/src/prov_bearer_adv.c.obj
 .text.send_packet
                0x00021220       0x70 examples/light_switch/client/CMakeFiles/light_switch_client_nrf51422_xxAC_s130_2.0.1.dir/__/__/__/mesh/prov/src/prov_bearer_adv.c.obj
 .text.prov_buffer_tx
                0x00021290      0x168 examples/light_switch/client/CMakeFiles/light_switch_client_nrf51422_xxAC_s130_2.0.1.dir/__/__/__/mesh/prov/src/prov_bearer_adv.c.obj
 .text.send_link_close
                0x000213f8       0x28 examples/light_switch/client/CMakeFiles/light_switch_client_nrf51422_xxAC_s130_2.0.1.dir/__/__/__/mesh/prov/src/prov_bearer_adv.c.obj
 .text.prov_bearer_adv_link_close
                0x00021420       0x80 examples/light_switch/client/CMakeFiles/light_switch_client_nrf51422_xxAC_s130_2.0.1.dir/__/__/__/mesh/prov/src/prov_bearer_adv.c.obj
 .text.send_transaction_ack
                0x000214a0       0x24 examples/light_switch/client/CMakeFiles/light_switch_client_nrf51422_xxAC_s130_2.0.1.dir/__/__/__/mesh/prov/src/prov_bearer_adv.c.obj
 .text.send_link_ack
                0x000214c4       0x26 examples/light_switch/client/CMakeFiles/light_switch_client_nrf51422_xxAC_s130_2.0.1.dir/__/__/__/mesh/prov/src/prov_bearer_adv.c.obj
 .text.reset_timeout_timer
                0x000214ea       0x1a examples/light_switch/client/CMakeFiles/light_switch_client_nrf51422_xxAC_s130_2.0.1.dir/__/__/__/mesh/prov/src/prov_bearer_adv.c.obj
 .text.tx_complete_cb
                0x00021504       0x24 examples/light_switch/client/CMakeFiles/light_switch_client_nrf51422_xxAC_s130_2.0.1.dir/__/__/__/mesh/prov/src/prov_bearer_adv.c.obj
 .text.tx_retry_cb
                0x00021528       0xd4 examples/light_switch/client/CMakeFiles/light_switch_client_nrf51422_xxAC_s130_2.0.1.dir/__/__/__/mesh/prov/src/prov_bearer_adv.c.obj
 .text.add_active_bearer
                0x000215fc       0x88 examples/light_switch/client/CMakeFiles/light_switch_client_nrf51422_xxAC_s130_2.0.1.dir/__/__/__/mesh/prov/src/prov_bearer_adv.c.obj
 .text.prov_bearer_adv_link_open
                0x00021684      0x100 examples/light_switch/client/CMakeFiles/light_switch_client_nrf51422_xxAC_s130_2.0.1.dir/__/__/__/mesh/prov/src/prov_bearer_adv.c.obj
 .text.async_process
                0x00021784       0x5c examples/light_switch/client/CMakeFiles/light_switch_client_nrf51422_xxAC_s130_2.0.1.dir/__/__/__/mesh/prov/src/prov_bearer_adv.c.obj
 .text.prov_bearer_adv_listen
                0x000217e0      0x100 examples/light_switch/client/CMakeFiles/light_switch_client_nrf51422_xxAC_s130_2.0.1.dir/__/__/__/mesh/prov/src/prov_bearer_adv.c.obj
 .text.calculate_3GPP_CRC
                0x000218e0       0x24 examples/light_switch/client/CMakeFiles/light_switch_client_nrf51422_xxAC_s130_2.0.1.dir/__/__/__/mesh/prov/src/prov_bearer_adv.c.obj
                0x000218e0                calculate_3GPP_CRC
 .text.prov_bearer_adv_tx
                0x00021904       0xc4 examples/light_switch/client/CMakeFiles/light_switch_client_nrf51422_xxAC_s130_2.0.1.dir/__/__/__/mesh/prov/src/prov_bearer_adv.c.obj
 .text.prov_buffer_rx
                0x000219c8       0x80 examples/light_switch/client/CMakeFiles/light_switch_client_nrf51422_xxAC_s130_2.0.1.dir/__/__/__/mesh/prov/src/prov_bearer_adv.c.obj
 .text.nrf_mesh_prov_bearer_adv_interface_get
                0x00021a48       0x4c examples/light_switch/client/CMakeFiles/light_switch_client_nrf51422_xxAC_s130_2.0.1.dir/__/__/__/mesh/prov/src/prov_bearer_adv.c.obj
                0x00021a48                nrf_mesh_prov_bearer_adv_interface_get
 .text.prov_bearer_adv_packet_in
                0x00021a94      0x8b4 examples/light_switch/client/CMakeFiles/light_switch_client_nrf51422_xxAC_s130_2.0.1.dir/__/__/__/mesh/prov/src/prov_bearer_adv.c.obj
                0x00021a94                prov_bearer_adv_packet_in
 .text.SystemInit
                0x00022348       0xe0 examples/light_switch/client/CMakeFiles/light_switch_client_nrf51422_xxAC_s130_2.0.1.dir/__/__/__/external/nRF5_SDK_14.2.0_17b948a/components/toolchain/system_nrf51.c.obj
                0x00022348                SystemInit
 .text          0x00022428       0x4c examples/light_switch/client/CMakeFiles/light_switch_client_nrf51422_xxAC_s130_2.0.1.dir/__/__/__/external/nRF5_SDK_14.2.0_17b948a/components/toolchain/gcc/gcc_startup_nrf51.S.obj
                0x00022428                Reset_Handler
                0x00022468                NMI_Handler
                0x0002246c                SVC_Handler
                0x0002246e                PendSV_Handler
                0x00022470                SysTick_Handler
                0x00022472                POWER_CLOCK_IRQHandler
                0x00022472                RADIO_IRQHandler
                0x00022472                LPCOMP_IRQHandler
                0x00022472                SWI4_IRQHandler
                0x00022472                TEMP_IRQHandler
                0x00022472                UART0_IRQHandler
                0x00022472                RTC0_IRQHandler
                0x00022472                TIMER0_IRQHandler
                0x00022472                SPI0_TWI0_IRQHandler
                0x00022472                SWI0_IRQHandler
                0x00022472                TIMER1_IRQHandler
                0x00022472                ECB_IRQHandler
                0x00022472                Default_Handler
                0x00022472                ADC_IRQHandler
                0x00022472                SWI3_IRQHandler
                0x00022472                CCM_AAR_IRQHandler
                0x00022472                WDT_IRQHandler
                0x00022472                SWI5_IRQHandler
                0x00022472                RNG_IRQHandler
                0x00022472                SPI1_TWI1_IRQHandler
                0x00022472                RTC1_IRQHandler
                0x00022472                SWI1_IRQHandler
 .text.nrf_mesh_configure_device_uuid_reset
                0x00022474       0x28 mesh/core/libmesh_core_nrf51422_xxAC.a(nrf_mesh_configure.c.obj)
                0x00022474                nrf_mesh_configure_device_uuid_reset
 .text.nrf_mesh_configure_device_uuid_get
                0x0002249c        0x8 mesh/core/libmesh_core_nrf51422_xxAC.a(nrf_mesh_configure.c.obj)
                0x0002249c                nrf_mesh_configure_device_uuid_get
 .text.event_handle
                0x000224a4       0x34 mesh/core/libmesh_core_nrf51422_xxAC.a(event.c.obj)
                0x000224a4                event_handle
 .text.event_handler_add
                0x000224d8       0x28 mesh/core/libmesh_core_nrf51422_xxAC.a(event.c.obj)
                0x000224d8                event_handler_add
 .text.event_handler_remove
                0x00022500       0x28 mesh/core/libmesh_core_nrf51422_xxAC.a(event.c.obj)
                0x00022500                event_handler_remove
 .text.packet_mgr_init
                0x00022528       0x54 mesh/core/libmesh_core_nrf51422_xxAC.a(packet_mgr.c.obj)
                0x00022528                packet_mgr_init
 .text.packet_mgr_alloc
                0x0002257c      0x18c mesh/core/libmesh_core_nrf51422_xxAC.a(packet_mgr.c.obj)
                0x0002257c                packet_mgr_alloc
 .text.packet_mgr_free
                0x00022708       0x6c mesh/core/libmesh_core_nrf51422_xxAC.a(packet_mgr.c.obj)
                0x00022708                packet_mgr_free
 .text.flash_mem_available
                0x00022774       0x20 mesh/core/libmesh_core_nrf51422_xxAC.a(net_state.c.obj)
 .text.flash_store_iv_index
                0x00022794       0x34 mesh/core/libmesh_core_nrf51422_xxAC.a(net_state.c.obj)
 .text.seqnum_block_allocate
                0x000227c8       0x50 mesh/core/libmesh_core_nrf51422_xxAC.a(net_state.c.obj)
 .text.flash_write_complete
                0x00022818       0x80 mesh/core/libmesh_core_nrf51422_xxAC.a(net_state.c.obj)
 .text.net_state_recover_from_flash
                0x00022898       0x94 mesh/core/libmesh_core_nrf51422_xxAC.a(net_state.c.obj)
                0x00022898                net_state_recover_from_flash
 .text.net_state_flash_area_get
                0x0002292c       0x10 mesh/core/libmesh_core_nrf51422_xxAC.a(net_state.c.obj)
                0x0002292c                net_state_flash_area_get
 .text.init_flash_storage
                0x0002293c       0x40 mesh/core/libmesh_core_nrf51422_xxAC.a(net_state.c.obj)
 .text.net_state_init
                0x0002297c       0x48 mesh/core/libmesh_core_nrf51422_xxAC.a(net_state.c.obj)
                0x0002297c                net_state_init
 .text.net_state_iv_update_start
                0x000229c4       0x64 mesh/core/libmesh_core_nrf51422_xxAC.a(net_state.c.obj)
                0x000229c4                net_state_iv_update_start
 .text.iv_update_trigger_if_pending
                0x00022a28       0x94 mesh/core/libmesh_core_nrf51422_xxAC.a(net_state.c.obj)
 .text.iv_update_timer_handler
                0x00022abc       0x80 mesh/core/libmesh_core_nrf51422_xxAC.a(net_state.c.obj)
 .text.net_state_seqnum_alloc
                0x00022b3c       0x68 mesh/core/libmesh_core_nrf51422_xxAC.a(net_state.c.obj)
                0x00022b3c                net_state_seqnum_alloc
 .text.net_state_iv_index_lock
                0x00022ba4       0x4c mesh/core/libmesh_core_nrf51422_xxAC.a(net_state.c.obj)
                0x00022ba4                net_state_iv_index_lock
 .text.net_state_key_refresh_phase_changed
                0x00022bf0       0x18 mesh/core/libmesh_core_nrf51422_xxAC.a(net_state.c.obj)
                0x00022bf0                net_state_key_refresh_phase_changed
 .text.net_state_beacon_received
                0x00022c08       0x98 mesh/core/libmesh_core_nrf51422_xxAC.a(net_state.c.obj)
                0x00022c08                net_state_beacon_received
 .text.net_state_beacon_iv_index_get
                0x00022ca0        0xc mesh/core/libmesh_core_nrf51422_xxAC.a(net_state.c.obj)
                0x00022ca0                net_state_beacon_iv_index_get
 .text.net_state_tx_iv_index_get
                0x00022cac       0x14 mesh/core/libmesh_core_nrf51422_xxAC.a(net_state.c.obj)
                0x00022cac                net_state_tx_iv_index_get
 .text.net_state_rx_iv_index_get
                0x00022cc0       0x14 mesh/core/libmesh_core_nrf51422_xxAC.a(net_state.c.obj)
                0x00022cc0                net_state_rx_iv_index_get
 .text.net_state_iv_update_get
                0x00022cd4        0xc mesh/core/libmesh_core_nrf51422_xxAC.a(net_state.c.obj)
                0x00022cd4                net_state_iv_update_get
 .text.nrf_mesh_address_type_get
                0x00022ce0       0x14 mesh/core/libmesh_core_nrf51422_xxAC.a(nrf_mesh_utils.c.obj)
                0x00022ce0                nrf_mesh_address_type_get
 .text.sd_softdevice_is_enabled
                0x00022cf4        0x4 mesh/core/libmesh_core_nrf51422_xxAC.a(nrf_mesh.c.obj)
 .text.nrf_mesh_listen
                0x00022cf8      0x138 mesh/core/libmesh_core_nrf51422_xxAC.a(nrf_mesh.c.obj)
 .text.scanner_packet_process_cb
                0x00022e30       0x84 mesh/core/libmesh_core_nrf51422_xxAC.a(nrf_mesh.c.obj)
 .text.nrf_mesh_init
                0x00022eb4       0xd8 mesh/core/libmesh_core_nrf51422_xxAC.a(nrf_mesh.c.obj)
                0x00022eb4                nrf_mesh_init
 .text.nrf_mesh_enable
                0x00022f8c       0x4c mesh/core/libmesh_core_nrf51422_xxAC.a(nrf_mesh.c.obj)
                0x00022f8c                nrf_mesh_enable
 .text.nrf_mesh_packet_send
                0x00022fd8        0x8 mesh/core/libmesh_core_nrf51422_xxAC.a(nrf_mesh.c.obj)
                0x00022fd8                nrf_mesh_packet_send
 .text.nrf_mesh_on_ble_evt
                0x00022fe0        0x4 mesh/core/libmesh_core_nrf51422_xxAC.a(nrf_mesh.c.obj)
                0x00022fe0                nrf_mesh_on_ble_evt
 .text.nrf_mesh_on_sd_evt
                0x00022fe4        0xa mesh/core/libmesh_core_nrf51422_xxAC.a(nrf_mesh.c.obj)
                0x00022fe4                nrf_mesh_on_sd_evt
 .text.nrf_mesh_evt_handler_add
                0x00022fee        0x8 mesh/core/libmesh_core_nrf51422_xxAC.a(nrf_mesh.c.obj)
                0x00022fee                nrf_mesh_evt_handler_add
 *fill*         0x00022ff6        0x2 
 .text.hal_lfclk_ppm_get
                0x00022ff8       0x14 mesh/core/libmesh_core_nrf51422_xxAC.a(hal.c.obj)
                0x00022ff8                hal_lfclk_ppm_get
 .text.add_to_add_list
                0x0002300c       0x4c mesh/core/libmesh_core_nrf51422_xxAC.a(timer_scheduler.c.obj)
 .text.process_dirty_events
                0x00023058       0x64 mesh/core/libmesh_core_nrf51422_xxAC.a(timer_scheduler.c.obj)
 .text.timer_cb
                0x000230bc       0x10 mesh/core/libmesh_core_nrf51422_xxAC.a(timer_scheduler.c.obj)
 .text.add_evt.constprop.0
                0x000230cc       0x70 mesh/core/libmesh_core_nrf51422_xxAC.a(timer_scheduler.c.obj)
 .text.process_add_list
                0x0002313c       0x4c mesh/core/libmesh_core_nrf51422_xxAC.a(timer_scheduler.c.obj)
 .text.flag_event_cb
                0x00023188      0x108 mesh/core/libmesh_core_nrf51422_xxAC.a(timer_scheduler.c.obj)
 .text.timer_sch_init
                0x00023290       0x24 mesh/core/libmesh_core_nrf51422_xxAC.a(timer_scheduler.c.obj)
                0x00023290                timer_sch_init
 .text.timer_sch_schedule
                0x000232b4       0x54 mesh/core/libmesh_core_nrf51422_xxAC.a(timer_scheduler.c.obj)
                0x000232b4                timer_sch_schedule
 .text.timer_sch_abort
                0x00023308       0x68 mesh/core/libmesh_core_nrf51422_xxAC.a(timer_scheduler.c.obj)
                0x00023308                timer_sch_abort
 .text.timer_sch_reschedule
                0x00023370       0x78 mesh/core/libmesh_core_nrf51422_xxAC.a(timer_scheduler.c.obj)
                0x00023370                timer_sch_reschedule
 .text.timer_mut_unlock
                0x000233e8       0x10 mesh/core/libmesh_core_nrf51422_xxAC.a(timer.c.obj)
 .text.timer_order_cb
                0x000233f8       0x90 mesh/core/libmesh_core_nrf51422_xxAC.a(timer.c.obj)
                0x000233f8                timer_order_cb
 .text.timer_now
                0x00023488       0x54 mesh/core/libmesh_core_nrf51422_xxAC.a(timer.c.obj)
                0x00023488                timer_now
 .text.timer_event_handler
                0x000234dc       0xa4 mesh/core/libmesh_core_nrf51422_xxAC.a(timer.c.obj)
                0x000234dc                timer_event_handler
 .text.timer_on_ts_begin
                0x00023580      0x104 mesh/core/libmesh_core_nrf51422_xxAC.a(timer.c.obj)
                0x00023580                timer_on_ts_begin
 .text.timer_on_ts_end
                0x00023684       0x64 mesh/core/libmesh_core_nrf51422_xxAC.a(timer.c.obj)
                0x00023684                timer_on_ts_end
 .text.timer_cb
                0x000236e8       0x10 mesh/core/libmesh_core_nrf51422_xxAC.a(ticker.c.obj)
 .text.ticker_init
                0x000236f8       0x38 mesh/core/libmesh_core_nrf51422_xxAC.a(ticker.c.obj)
                0x000236f8                ticker_init
 .text.sd_rand_application_bytes_available_get
                0x00023730        0x4 mesh/core/libmesh_core_nrf51422_xxAC.a(rand.c.obj)
 .text.sd_rand_application_vector_get
                0x00023734        0x4 mesh/core/libmesh_core_nrf51422_xxAC.a(rand.c.obj)
 .text.rand_prng_get
                0x00023738       0x2e mesh/core/libmesh_core_nrf51422_xxAC.a(rand.c.obj)
                0x00023738                rand_prng_get
 *fill*         0x00023766        0x2 
 .text.rand_hw_rng_get
                0x00023768       0x4c mesh/core/libmesh_core_nrf51422_xxAC.a(rand.c.obj)
                0x00023768                rand_hw_rng_get
 .text.rand_prng_seed
                0x000237b4       0x30 mesh/core/libmesh_core_nrf51422_xxAC.a(rand.c.obj)
                0x000237b4                rand_prng_seed
 .text.sd_radio_session_open
                0x000237e4        0x4 mesh/core/libmesh_core_nrf51422_xxAC.a(timeslot.c.obj)
 .text.sd_radio_session_close
                0x000237e8        0x4 mesh/core/libmesh_core_nrf51422_xxAC.a(timeslot.c.obj)
 .text.sd_radio_request
                0x000237ec        0x4 mesh/core/libmesh_core_nrf51422_xxAC.a(timeslot.c.obj)
 .text.end_timer_handler
                0x000237f0       0x2c mesh/core/libmesh_core_nrf51422_xxAC.a(timeslot.c.obj)
 .text.get_end_time.constprop.10
                0x0002381c       0x28 mesh/core/libmesh_core_nrf51422_xxAC.a(timeslot.c.obj)
 .text.handle_extend_end.constprop.3
                0x00023844       0xc4 mesh/core/libmesh_core_nrf51422_xxAC.a(timeslot.c.obj)
 .text.radio_signal_callback
                0x00023908      0x160 mesh/core/libmesh_core_nrf51422_xxAC.a(timeslot.c.obj)
 .text.timeslot_sd_event_handler
                0x00023a68       0x48 mesh/core/libmesh_core_nrf51422_xxAC.a(timeslot.c.obj)
                0x00023a68                timeslot_sd_event_handler
 .text.timeslot_init
                0x00023ab0       0x4c mesh/core/libmesh_core_nrf51422_xxAC.a(timeslot.c.obj)
                0x00023ab0                timeslot_init
 .text.timeslot_start
                0x00023afc       0x1c mesh/core/libmesh_core_nrf51422_xxAC.a(timeslot.c.obj)
                0x00023afc                timeslot_start
 .text.timeslot_end_is_pending
                0x00023b18       0x2c mesh/core/libmesh_core_nrf51422_xxAC.a(timeslot.c.obj)
                0x00023b18                timeslot_end_is_pending
 .text.timeslot_start_time_get
                0x00023b44        0xc mesh/core/libmesh_core_nrf51422_xxAC.a(timeslot.c.obj)
                0x00023b44                timeslot_start_time_get
 .text.timeslot_remaining_time_get
                0x00023b50       0x24 mesh/core/libmesh_core_nrf51422_xxAC.a(timeslot.c.obj)
                0x00023b50                timeslot_remaining_time_get
 .text.timeslot_is_in_cb
                0x00023b74        0xc mesh/core/libmesh_core_nrf51422_xxAC.a(timeslot.c.obj)
                0x00023b74                timeslot_is_in_cb
 .text.timeslot_trigger
                0x00023b80       0x28 mesh/core/libmesh_core_nrf51422_xxAC.a(timeslot.c.obj)
                0x00023b80                timeslot_trigger
 .text.timeslot_stop
                0x00023ba8       0x14 mesh/core/libmesh_core_nrf51422_xxAC.a(timeslot.c.obj)
                0x00023ba8                timeslot_stop
 .text.timeslot_state_lock
                0x00023bbc       0x2c mesh/core/libmesh_core_nrf51422_xxAC.a(timeslot.c.obj)
                0x00023bbc                timeslot_state_lock
 .text.trigger_event_handler
                0x00023be8       0x1c mesh/core/libmesh_core_nrf51422_xxAC.a(bearer_event.c.obj)
 .text.evt_push
                0x00023c04       0x20 mesh/core/libmesh_core_nrf51422_xxAC.a(bearer_event.c.obj)
 .text.bearer_event_init
                0x00023c24       0x5c mesh/core/libmesh_core_nrf51422_xxAC.a(bearer_event.c.obj)
                0x00023c24                bearer_event_init
 .text.bearer_event_timer_post
                0x00023c80       0x34 mesh/core/libmesh_core_nrf51422_xxAC.a(bearer_event.c.obj)
                0x00023c80                bearer_event_timer_post
 .text.bearer_event_critical_section_begin
                0x00023cb4       0x54 mesh/core/libmesh_core_nrf51422_xxAC.a(bearer_event.c.obj)
                0x00023cb4                bearer_event_critical_section_begin
 .text.bearer_event_critical_section_end
                0x00023d08       0x54 mesh/core/libmesh_core_nrf51422_xxAC.a(bearer_event.c.obj)
                0x00023d08                bearer_event_critical_section_end
 .text.bearer_event_flag_add
                0x00023d5c       0x54 mesh/core/libmesh_core_nrf51422_xxAC.a(bearer_event.c.obj)
                0x00023d5c                bearer_event_flag_add
 .text.bearer_event_flag_set
                0x00023db0       0x50 mesh/core/libmesh_core_nrf51422_xxAC.a(bearer_event.c.obj)
                0x00023db0                bearer_event_flag_set
 .text.bearer_event_sequential_add
                0x00023e00       0x4c mesh/core/libmesh_core_nrf51422_xxAC.a(bearer_event.c.obj)
                0x00023e00                bearer_event_sequential_add
 .text.bearer_event_sequential_post
                0x00023e4c       0x60 mesh/core/libmesh_core_nrf51422_xxAC.a(bearer_event.c.obj)
                0x00023e4c                bearer_event_sequential_post
 .text.bearer_event_sequential_pending
                0x00023eac       0x20 mesh/core/libmesh_core_nrf51422_xxAC.a(bearer_event.c.obj)
                0x00023eac                bearer_event_sequential_pending
 .text.bearer_event_handler
                0x00023ecc       0xf8 mesh/core/libmesh_core_nrf51422_xxAC.a(bearer_event.c.obj)
                0x00023ecc                bearer_event_handler
 .text.QDEC_IRQHandler
                0x00023fc4        0x8 mesh/core/libmesh_core_nrf51422_xxAC.a(bearer_event.c.obj)
                0x00023fc4                QDEC_IRQHandler
 .text.enc_aes_encrypt
                0x00023fcc        0x8 mesh/core/libmesh_core_nrf51422_xxAC.a(enc.c.obj)
                0x00023fcc                enc_aes_encrypt
 .text.enc_aes_cmac
                0x00023fd4        0x8 mesh/core/libmesh_core_nrf51422_xxAC.a(enc.c.obj)
                0x00023fd4                enc_aes_cmac
 .text.enc_aes_ccm_encrypt
                0x00023fdc        0x8 mesh/core/libmesh_core_nrf51422_xxAC.a(enc.c.obj)
                0x00023fdc                enc_aes_ccm_encrypt
 .text.enc_aes_ccm_decrypt
                0x00023fe4        0x8 mesh/core/libmesh_core_nrf51422_xxAC.a(enc.c.obj)
                0x00023fe4                enc_aes_ccm_decrypt
 .text.enc_nonce_generate
                0x00023fec       0xd8 mesh/core/libmesh_core_nrf51422_xxAC.a(enc.c.obj)
                0x00023fec                enc_nonce_generate
 .text.enc_s1   0x000240c4       0x3c mesh/core/libmesh_core_nrf51422_xxAC.a(enc.c.obj)
                0x000240c4                enc_s1
 .text.enc_k1   0x00024100       0x58 mesh/core/libmesh_core_nrf51422_xxAC.a(enc.c.obj)
                0x00024100                enc_k1
 .text.enc_k2   0x00024158      0x110 mesh/core/libmesh_core_nrf51422_xxAC.a(enc.c.obj)
                0x00024158                enc_k2
 .text.enc_k3   0x00024268       0x70 mesh/core/libmesh_core_nrf51422_xxAC.a(enc.c.obj)
                0x00024268                enc_k3
 .text.enc_k4   0x000242d8       0x74 mesh/core/libmesh_core_nrf51422_xxAC.a(enc.c.obj)
                0x000242d8                enc_k4
 .text.header_transfuscate
                0x0002434c       0x58 mesh/core/libmesh_core_nrf51422_xxAC.a(network.c.obj)
 .text.allocate_packet
                0x000243a4      0x140 mesh/core/libmesh_core_nrf51422_xxAC.a(network.c.obj)
 .text.network_init
                0x000244e4       0x2c mesh/core/libmesh_core_nrf51422_xxAC.a(network.c.obj)
                0x000244e4                network_init
 .text.network_opt_get
                0x00024510       0x4c mesh/core/libmesh_core_nrf51422_xxAC.a(network.c.obj)
                0x00024510                network_opt_get
 .text.network_packet_alloc
                0x0002455c       0x58 mesh/core/libmesh_core_nrf51422_xxAC.a(network.c.obj)
                0x0002455c                network_packet_alloc
 .text.network_packet_send
                0x000245b4      0x154 mesh/core/libmesh_core_nrf51422_xxAC.a(network.c.obj)
                0x000245b4                network_packet_send
 .text.network_packet_in
                0x00024708      0x4e0 mesh/core/libmesh_core_nrf51422_xxAC.a(network.c.obj)
                0x00024708                network_packet_in
 .text.nrf_mesh_keygen_aid
                0x00024be8       0x16 mesh/core/libmesh_core_nrf51422_xxAC.a(nrf_mesh_keygen.c.obj)
                0x00024be8                nrf_mesh_keygen_aid
 .text.nrf_mesh_keygen_network_secmat
                0x00024bfe       0x20 mesh/core/libmesh_core_nrf51422_xxAC.a(nrf_mesh_keygen.c.obj)
                0x00024bfe                nrf_mesh_keygen_network_secmat
 *fill*         0x00024c1e        0x2 
 .text.nrf_mesh_keygen_beacon_secmat
                0x00024c20       0x54 mesh/core/libmesh_core_nrf51422_xxAC.a(nrf_mesh_keygen.c.obj)
                0x00024c20                nrf_mesh_keygen_beacon_secmat
 .text.nrf_mesh_keygen_virtual_address
                0x00024c74       0x50 mesh/core/libmesh_core_nrf51422_xxAC.a(nrf_mesh_keygen.c.obj)
                0x00024c74                nrf_mesh_keygen_virtual_address
 .text.list_insert
                0x00024cc4       0x30 mesh/core/libmesh_core_nrf51422_xxAC.a(list.c.obj)
 .text.list_add
                0x00024cf4       0x68 mesh/core/libmesh_core_nrf51422_xxAC.a(list.c.obj)
                0x00024cf4                list_add
 .text.list_remove
                0x00024d5c       0x50 mesh/core/libmesh_core_nrf51422_xxAC.a(list.c.obj)
                0x00024d5c                list_remove
 .text.list_compare_add
                0x00024dac       0x84 mesh/core/libmesh_core_nrf51422_xxAC.a(list.c.obj)
                0x00024dac                list_compare_add
 .text.log_callback_rtt
                0x00024e30       0x28 mesh/core/libmesh_core_nrf51422_xxAC.a(log.c.obj)
                0x00024e30                log_callback_rtt
 .text.log_init
                0x00024e58       0x1c mesh/core/libmesh_core_nrf51422_xxAC.a(log.c.obj)
                0x00024e58                log_init
 .text.log_vprintf
                0x00024e74       0x1c mesh/core/libmesh_core_nrf51422_xxAC.a(log.c.obj)
                0x00024e74                log_vprintf
 .text.log_printf
                0x00024e90       0x16 mesh/core/libmesh_core_nrf51422_xxAC.a(log.c.obj)
                0x00024e90                log_printf
 .text.get_area_end
                0x00024ea6        0xc mesh/core/libmesh_core_nrf51422_xxAC.a(flash_manager.c.obj)
 *fill*         0x00024eb2        0x2 
 .text.handle_matches_filter
                0x00024eb4       0x28 mesh/core/libmesh_core_nrf51422_xxAC.a(flash_manager.c.obj)
 .text.get_packet_buffer
                0x00024edc       0x30 mesh/core/libmesh_core_nrf51422_xxAC.a(flash_manager.c.obj)
 .text.get_entry_action
                0x00024f0c       0x30 mesh/core/libmesh_core_nrf51422_xxAC.a(flash_manager.c.obj)
 .text.flash_area_is_blank
                0x00024f3c       0x50 mesh/core/libmesh_core_nrf51422_xxAC.a(flash_manager.c.obj)
 .text.flash    0x00024f8c       0x1e mesh/core/libmesh_core_nrf51422_xxAC.a(flash_manager.c.obj)
 *fill*         0x00024faa        0x2 
 .text.free_packet_buffer
                0x00024fac       0x4c mesh/core/libmesh_core_nrf51422_xxAC.a(flash_manager.c.obj)
 .text.reserve_action_buffer
                0x00024ff8       0x20 mesh/core/libmesh_core_nrf51422_xxAC.a(flash_manager.c.obj)
 .text.commit_action_buffer
                0x00025018       0x18 mesh/core/libmesh_core_nrf51422_xxAC.a(flash_manager.c.obj)
 .text.schedule_processing
                0x00025030       0x10 mesh/core/libmesh_core_nrf51422_xxAC.a(flash_manager.c.obj)
 .text.get_next_entry
                0x00025040       0x44 mesh/core/libmesh_core_nrf51422_xxAC.a(flash_manager.c.obj)
 .text.get_last_entry.isra.1
                0x00025084       0x34 mesh/core/libmesh_core_nrf51422_xxAC.a(flash_manager.c.obj)
 .text.process_action_queue
                0x000250b8      0x4b0 mesh/core/libmesh_core_nrf51422_xxAC.a(flash_manager.c.obj)
 .text.flash_op_ended_callback
                0x00025568       0x24 mesh/core/libmesh_core_nrf51422_xxAC.a(flash_manager.c.obj)
 .text.flash_manager_init
                0x0002558c       0x68 mesh/core/libmesh_core_nrf51422_xxAC.a(flash_manager.c.obj)
                0x0002558c                flash_manager_init
 .text.flash_manager_remove
                0x000255f4       0x24 mesh/core/libmesh_core_nrf51422_xxAC.a(flash_manager.c.obj)
                0x000255f4                flash_manager_remove
 .text.flash_manager_entry_get
                0x00025618       0x4c mesh/core/libmesh_core_nrf51422_xxAC.a(flash_manager.c.obj)
                0x00025618                flash_manager_entry_get
 .text.flash_manager_entry_next_get
                0x00025664       0x74 mesh/core/libmesh_core_nrf51422_xxAC.a(flash_manager.c.obj)
                0x00025664                flash_manager_entry_next_get
 .text.flash_manager_entry_alloc
                0x000256d8       0x88 mesh/core/libmesh_core_nrf51422_xxAC.a(flash_manager.c.obj)
                0x000256d8                flash_manager_entry_alloc
 .text.flash_manager_entry_commit
                0x00025760       0x10 mesh/core/libmesh_core_nrf51422_xxAC.a(flash_manager.c.obj)
                0x00025760                flash_manager_entry_commit
 .text.flash_manager_entry_invalidate
                0x00025770       0x70 mesh/core/libmesh_core_nrf51422_xxAC.a(flash_manager.c.obj)
                0x00025770                flash_manager_entry_invalidate
 .text.flash_manager_add
                0x000257e0      0x250 mesh/core/libmesh_core_nrf51422_xxAC.a(flash_manager.c.obj)
                0x000257e0                flash_manager_add
 .text.flash_manager_mem_listener_register
                0x00025a30       0x48 mesh/core/libmesh_core_nrf51422_xxAC.a(flash_manager.c.obj)
                0x00025a30                flash_manager_mem_listener_register
 .text.flash_manager_is_stable
                0x00025a78       0x24 mesh/core/libmesh_core_nrf51422_xxAC.a(flash_manager.c.obj)
                0x00025a78                flash_manager_is_stable
 .text.flash_manager_on_defrag_end
                0x00025a9c       0x5c mesh/core/libmesh_core_nrf51422_xxAC.a(flash_manager.c.obj)
                0x00025a9c                flash_manager_on_defrag_end
 .text.flash_manager_recovery_page_get
                0x00025af8        0x8 mesh/core/libmesh_core_nrf51422_xxAC.a(flash_manager.c.obj)
                0x00025af8                flash_manager_recovery_page_get
 .text.utils_xor
                0x00025b00       0x16 mesh/core/libmesh_core_nrf51422_xxAC.a(ccm_soft.c.obj)
 .text.ccm_soft_authenticate_blocks
                0x00025b16       0x66 mesh/core/libmesh_core_nrf51422_xxAC.a(ccm_soft.c.obj)
 .text.utils_reverse_memcpy.constprop.0
                0x00025b7c        0xa mesh/core/libmesh_core_nrf51422_xxAC.a(ccm_soft.c.obj)
 .text.ccm_soft_authenticate
                0x00025b86       0x94 mesh/core/libmesh_core_nrf51422_xxAC.a(ccm_soft.c.obj)
 .text.ccm_soft_crypt
                0x00025c1a       0x58 mesh/core/libmesh_core_nrf51422_xxAC.a(ccm_soft.c.obj)
 .text.ccm_soft_encrypt
                0x00025c72       0x6e mesh/core/libmesh_core_nrf51422_xxAC.a(ccm_soft.c.obj)
                0x00025c72                ccm_soft_encrypt
 .text.ccm_soft_decrypt
                0x00025ce0      0x10c mesh/core/libmesh_core_nrf51422_xxAC.a(ccm_soft.c.obj)
                0x00025ce0                ccm_soft_decrypt
 .text.beacon_init
                0x00025dec       0x4c mesh/core/libmesh_core_nrf51422_xxAC.a(beacon.c.obj)
                0x00025dec                beacon_init
 .text.beacon_create
                0x00025e38       0x46 mesh/core/libmesh_core_nrf51422_xxAC.a(beacon.c.obj)
                0x00025e38                beacon_create
 *fill*         0x00025e7e        0x2 
 .text.beacon_tx
                0x00025e80       0x40 mesh/core/libmesh_core_nrf51422_xxAC.a(beacon.c.obj)
                0x00025e80                beacon_tx
 .text.beacon_packet_in
                0x00025ec0      0x164 mesh/core/libmesh_core_nrf51422_xxAC.a(beacon.c.obj)
                0x00025ec0                beacon_packet_in
 .text.entry_get
                0x00026024       0x80 mesh/core/libmesh_core_nrf51422_xxAC.a(flash_manager_internal.c.obj)
                0x00026024                entry_get
 .text.is_power_of_two
                0x000260a4       0x14 mesh/core/libmesh_core_nrf51422_xxAC.a(core_tx.c.obj)
 .text.bearer_if_get
                0x000260b8       0x4c mesh/core/libmesh_core_nrf51422_xxAC.a(core_tx.c.obj)
 .text.core_tx_complete_cb_set
                0x00026104        0xc mesh/core/libmesh_core_nrf51422_xxAC.a(core_tx.c.obj)
                0x00026104                core_tx_complete_cb_set
 .text.core_tx_packet_alloc
                0x00026110       0x98 mesh/core/libmesh_core_nrf51422_xxAC.a(core_tx.c.obj)
                0x00026110                core_tx_packet_alloc
 .text.core_tx_packet_send
                0x000261a8       0x88 mesh/core/libmesh_core_nrf51422_xxAC.a(core_tx.c.obj)
                0x000261a8                core_tx_packet_send
 .text.core_tx_packet_discard
                0x00026230       0x88 mesh/core/libmesh_core_nrf51422_xxAC.a(core_tx.c.obj)
                0x00026230                core_tx_packet_discard
 .text.core_tx_complete
                0x000262b8       0x14 mesh/core/libmesh_core_nrf51422_xxAC.a(core_tx.c.obj)
                0x000262b8                core_tx_complete
 .text.core_tx_bearer_register
                0x000262cc       0x90 mesh/core/libmesh_core_nrf51422_xxAC.a(core_tx.c.obj)
                0x000262cc                core_tx_bearer_register
 .text.heartbeat_subscription_timer_cb
                0x0002635c       0x1c mesh/core/libmesh_core_nrf51422_xxAC.a(heartbeat.c.obj)
 .text.heartbeat_opcode_handle
                0x00026378       0x74 mesh/core/libmesh_core_nrf51422_xxAC.a(heartbeat.c.obj)
 .text.heartbeat_send
                0x000263ec       0xcc mesh/core/libmesh_core_nrf51422_xxAC.a(heartbeat.c.obj)
 .text.heartbeat_core_evt_cb
                0x000264b8       0xa4 mesh/core/libmesh_core_nrf51422_xxAC.a(heartbeat.c.obj)
 .text.heartbeat_publication_timer_cb
                0x0002655c       0xd4 mesh/core/libmesh_core_nrf51422_xxAC.a(heartbeat.c.obj)
 .text.heartbeat_init
                0x00026630       0x98 mesh/core/libmesh_core_nrf51422_xxAC.a(heartbeat.c.obj)
                0x00026630                heartbeat_init
 .text.make_network_beacon_cmac
                0x000266c8       0x22 mesh/core/libmesh_core_nrf51422_xxAC.a(net_beacon.c.obj)
 *fill*         0x000266ea        0x2 
 .text.network_beacon_tx_cb
                0x000266ec      0x100 mesh/core/libmesh_core_nrf51422_xxAC.a(net_beacon.c.obj)
 .text.net_beacon_init
                0x000267ec       0x5c mesh/core/libmesh_core_nrf51422_xxAC.a(net_beacon.c.obj)
                0x000267ec                net_beacon_init
 .text.net_beacon_packet_in
                0x00026848      0x12c mesh/core/libmesh_core_nrf51422_xxAC.a(net_beacon.c.obj)
                0x00026848                net_beacon_packet_in
 .text.packet_discard
                0x00026974       0x18 mesh/core/libmesh_core_nrf51422_xxAC.a(core_tx_adv.c.obj)
 .text.packet_send
                0x0002698c       0x18 mesh/core/libmesh_core_nrf51422_xxAC.a(core_tx_adv.c.obj)
 .text.packet_alloc
                0x000269a4       0x40 mesh/core/libmesh_core_nrf51422_xxAC.a(core_tx_adv.c.obj)
 .text.adv_tx_complete_callback
                0x000269e4       0x2c mesh/core/libmesh_core_nrf51422_xxAC.a(core_tx_adv.c.obj)
 .text.core_tx_adv_init
                0x00026a10       0x58 mesh/core/libmesh_core_nrf51422_xxAC.a(core_tx_adv.c.obj)
                0x00026a10                core_tx_adv_init
 .text.core_tx_adv_count_get
                0x00026a68       0x2c mesh/core/libmesh_core_nrf51422_xxAC.a(core_tx_adv.c.obj)
                0x00026a68                core_tx_adv_count_get
 .text.core_tx_adv_interval_get
                0x00026a94       0x34 mesh/core/libmesh_core_nrf51422_xxAC.a(core_tx_adv.c.obj)
                0x00026a94                core_tx_adv_interval_get
 .text.ad_listener_subscribe
                0x00026ac8       0x68 mesh/core/libmesh_core_nrf51422_xxAC.a(ad_listener.c.obj)
                0x00026ac8                ad_listener_subscribe
 .text.ad_listener_process
                0x00026b30       0x60 mesh/core/libmesh_core_nrf51422_xxAC.a(ad_listener.c.obj)
                0x00026b30                ad_listener_process
 .text.adtype_filter_handle
                0x00026b90       0x6c mesh/core/libmesh_core_nrf51422_xxAC.a(ad_type_filter.c.obj)
 .text.bearer_adtype_filtering_set
                0x00026bfc       0x24 mesh/core/libmesh_core_nrf51422_xxAC.a(ad_type_filter.c.obj)
                0x00026bfc                bearer_adtype_filtering_set
 .text.bearer_adtype_add
                0x00026c20       0x20 mesh/core/libmesh_core_nrf51422_xxAC.a(ad_type_filter.c.obj)
                0x00026c20                bearer_adtype_add
 .text.bearer_adtype_mode_set
                0x00026c40       0x28 mesh/core/libmesh_core_nrf51422_xxAC.a(ad_type_filter.c.obj)
                0x00026c40                bearer_adtype_mode_set
 .text.set_gap_addr_type
                0x00026c68       0x30 mesh/core/libmesh_core_nrf51422_xxAC.a(advertiser.c.obj)
 .text.tx_complete_event_callback
                0x00026c98       0x44 mesh/core/libmesh_core_nrf51422_xxAC.a(advertiser.c.obj)
 .text.broadcast_complete_cb
                0x00026cdc       0x68 mesh/core/libmesh_core_nrf51422_xxAC.a(advertiser.c.obj)
 .text.schedule_first_time
                0x00026d44       0x28 mesh/core/libmesh_core_nrf51422_xxAC.a(advertiser.c.obj)
 .text.timeout_event
                0x00026d6c      0x12c mesh/core/libmesh_core_nrf51422_xxAC.a(advertiser.c.obj)
 .text.advertiser_init
                0x00026e98       0x10 mesh/core/libmesh_core_nrf51422_xxAC.a(advertiser.c.obj)
                0x00026e98                advertiser_init
 .text.advertiser_enable
                0x00026ea8       0x2c mesh/core/libmesh_core_nrf51422_xxAC.a(advertiser.c.obj)
                0x00026ea8                advertiser_enable
 .text.advertiser_packet_alloc
                0x00026ed4       0xac mesh/core/libmesh_core_nrf51422_xxAC.a(advertiser.c.obj)
                0x00026ed4                advertiser_packet_alloc
 .text.advertiser_packet_send
                0x00026f80       0x74 mesh/core/libmesh_core_nrf51422_xxAC.a(advertiser.c.obj)
                0x00026f80                advertiser_packet_send
 .text.advertiser_packet_discard
                0x00026ff4       0x2c mesh/core/libmesh_core_nrf51422_xxAC.a(advertiser.c.obj)
                0x00026ff4                advertiser_packet_discard
 .text.advertiser_interval_set
                0x00027020       0x68 mesh/core/libmesh_core_nrf51422_xxAC.a(advertiser.c.obj)
                0x00027020                advertiser_interval_set
 .text.advertiser_flush
                0x00027088       0x22 mesh/core/libmesh_core_nrf51422_xxAC.a(advertiser.c.obj)
                0x00027088                advertiser_flush
 *fill*         0x000270aa        0x2 
 .text.advertiser_address_default_get
                0x000270ac       0x30 mesh/core/libmesh_core_nrf51422_xxAC.a(advertiser.c.obj)
                0x000270ac                advertiser_address_default_get
 .text.advertiser_instance_init
                0x000270dc       0xb4 mesh/core/libmesh_core_nrf51422_xxAC.a(advertiser.c.obj)
                0x000270dc                advertiser_instance_init
 .text.action_switch
                0x00027190       0xc4 mesh/core/libmesh_core_nrf51422_xxAC.a(bearer_handler.c.obj)
 .text.bearer_handler_init
                0x00027254       0x2c mesh/core/libmesh_core_nrf51422_xxAC.a(bearer_handler.c.obj)
                0x00027254                bearer_handler_init
 .text.bearer_handler_start
                0x00027280       0x1c mesh/core/libmesh_core_nrf51422_xxAC.a(bearer_handler.c.obj)
                0x00027280                bearer_handler_start
 .text.bearer_handler_action_enqueue
                0x0002729c       0x9c mesh/core/libmesh_core_nrf51422_xxAC.a(bearer_handler.c.obj)
                0x0002729c                bearer_handler_action_enqueue
 .text.bearer_handler_action_end
                0x00027338       0x7c mesh/core/libmesh_core_nrf51422_xxAC.a(bearer_handler.c.obj)
                0x00027338                bearer_handler_action_end
 .text.bearer_handler_radio_irq_handler
                0x000273b4       0x6c mesh/core/libmesh_core_nrf51422_xxAC.a(bearer_handler.c.obj)
                0x000273b4                bearer_handler_radio_irq_handler
 .text.bearer_handler_timer_irq_handler
                0x00027420       0x30 mesh/core/libmesh_core_nrf51422_xxAC.a(bearer_handler.c.obj)
                0x00027420                bearer_handler_timer_irq_handler
 .text.bearer_handler_on_ts_begin
                0x00027450       0x4c mesh/core/libmesh_core_nrf51422_xxAC.a(bearer_handler.c.obj)
                0x00027450                bearer_handler_on_ts_begin
 .text.bearer_handler_on_ts_end
                0x0002749c       0x50 mesh/core/libmesh_core_nrf51422_xxAC.a(bearer_handler.c.obj)
                0x0002749c                bearer_handler_on_ts_end
 .text.radio_irq_handler
                0x000274ec       0xbc mesh/core/libmesh_core_nrf51422_xxAC.a(broadcast.c.obj)
 .text.broadcast_start
                0x000275a8       0x98 mesh/core/libmesh_core_nrf51422_xxAC.a(broadcast.c.obj)
 .text.broadcast_send
                0x00027640       0x80 mesh/core/libmesh_core_nrf51422_xxAC.a(broadcast.c.obj)
                0x00027640                broadcast_send
 .text.fen_filter_start
                0x000276c0       0x40 mesh/core/libmesh_core_nrf51422_xxAC.a(filter_engine.c.obj)
                0x000276c0                fen_filter_start
 .text.fen_filter_stop
                0x00027700       0x2c mesh/core/libmesh_core_nrf51422_xxAC.a(filter_engine.c.obj)
                0x00027700                fen_filter_stop
 .text.fen_filters_apply
                0x0002772c       0x34 mesh/core/libmesh_core_nrf51422_xxAC.a(filter_engine.c.obj)
                0x0002772c                fen_filters_apply
 .text.radio_config_reset
                0x00027760       0x48 mesh/core/libmesh_core_nrf51422_xxAC.a(radio_config.c.obj)
                0x00027760                radio_config_reset
 .text.radio_config_channel_set
                0x000277a8       0x3c mesh/core/libmesh_core_nrf51422_xxAC.a(radio_config.c.obj)
                0x000277a8                radio_config_channel_set
 .text.radio_config_config
                0x000277e4       0xb0 mesh/core/libmesh_core_nrf51422_xxAC.a(radio_config.c.obj)
                0x000277e4                radio_config_config
 .text.radio_config_access_addr_set
                0x00027894       0x74 mesh/core/libmesh_core_nrf51422_xxAC.a(radio_config.c.obj)
                0x00027894                radio_config_access_addr_set
 .text.radio_trigger
                0x00027908       0x24 mesh/core/libmesh_core_nrf51422_xxAC.a(scanner.c.obj)
 .text.scan_window_end
                0x0002792c       0x14 mesh/core/libmesh_core_nrf51422_xxAC.a(scanner.c.obj)
 .text.scan_window_start
                0x00027940       0x28 mesh/core/libmesh_core_nrf51422_xxAC.a(scanner.c.obj)
 .text.radio_configure
                0x00027968       0x88 mesh/core/libmesh_core_nrf51422_xxAC.a(scanner.c.obj)
 .text.radio_set_packet
                0x000279f0       0x58 mesh/core/libmesh_core_nrf51422_xxAC.a(scanner.c.obj)
 .text.radio_start
                0x00027a48       0x54 mesh/core/libmesh_core_nrf51422_xxAC.a(scanner.c.obj)
 .text.radio_stop
                0x00027a9c       0x38 mesh/core/libmesh_core_nrf51422_xxAC.a(scanner.c.obj)
 .text.schedule_timers
                0x00027ad4       0x34 mesh/core/libmesh_core_nrf51422_xxAC.a(scanner.c.obj)
 .text.scanner_radio_start
                0x00027b08       0x28 mesh/core/libmesh_core_nrf51422_xxAC.a(scanner.c.obj)
                0x00027b08                scanner_radio_start
 .text.scanner_radio_stop
                0x00027b30       0x14 mesh/core/libmesh_core_nrf51422_xxAC.a(scanner.c.obj)
                0x00027b30                scanner_radio_stop
 .text.scanner_radio_irq_handler
                0x00027b44      0x144 mesh/core/libmesh_core_nrf51422_xxAC.a(scanner.c.obj)
                0x00027b44                scanner_radio_irq_handler
 .text.scanner_enable
                0x00027c88       0x34 mesh/core/libmesh_core_nrf51422_xxAC.a(scanner.c.obj)
                0x00027c88                scanner_enable
 .text.scanner_packet_release
                0x00027cbc       0x38 mesh/core/libmesh_core_nrf51422_xxAC.a(scanner.c.obj)
                0x00027cbc                scanner_packet_release
 .text.scanner_rx
                0x00027cf4       0x34 mesh/core/libmesh_core_nrf51422_xxAC.a(scanner.c.obj)
                0x00027cf4                scanner_rx
 .text.scanner_rx_pending
                0x00027d28       0x10 mesh/core/libmesh_core_nrf51422_xxAC.a(scanner.c.obj)
                0x00027d28                scanner_rx_pending
 .text.scanner_config_scan_time_set
                0x00027d38       0x6c mesh/core/libmesh_core_nrf51422_xxAC.a(scanner.c.obj)
                0x00027d38                scanner_config_scan_time_set
 .text.scanner_config_channels_set
                0x00027da4       0x68 mesh/core/libmesh_core_nrf51422_xxAC.a(scanner.c.obj)
                0x00027da4                scanner_config_channels_set
 .text.scanner_config_access_addresses_set
                0x00027e0c       0x44 mesh/core/libmesh_core_nrf51422_xxAC.a(scanner.c.obj)
                0x00027e0c                scanner_config_access_addresses_set
 .text.scanner_config_reset
                0x00027e50       0x44 mesh/core/libmesh_core_nrf51422_xxAC.a(scanner.c.obj)
                0x00027e50                scanner_config_reset
 .text.scanner_init
                0x00027e94       0x54 mesh/core/libmesh_core_nrf51422_xxAC.a(scanner.c.obj)
                0x00027e94                scanner_init
 .text.internal_event_push
                0x00027ee8       0x30 mesh/core/libmesh_core_nrf51422_xxAC.a(internal_event.c.obj)
                0x00027ee8                internal_event_push
 .text.sd_ecb_block_encrypt
                0x00027f18        0x4 mesh/core/libmesh_core_nrf51422_xxAC.a(aes.c.obj)
 .text.aes_encrypt
                0x00027f1c       0x30 mesh/core/libmesh_core_nrf51422_xxAC.a(aes.c.obj)
                0x00027f1c                aes_encrypt
 .text.msg_cache_init
                0x00027f4c       0x28 mesh/core/libmesh_core_nrf51422_xxAC.a(msg_cache.c.obj)
                0x00027f4c                msg_cache_init
 .text.msg_cache_entry_exists
                0x00027f74       0x40 mesh/core/libmesh_core_nrf51422_xxAC.a(msg_cache.c.obj)
                0x00027f74                msg_cache_entry_exists
 .text.msg_cache_entry_add
                0x00027fb4       0x2c mesh/core/libmesh_core_nrf51422_xxAC.a(msg_cache.c.obj)
                0x00027fb4                msg_cache_entry_add
 .text.block_ack_full
                0x00027fe0       0x2c mesh/core/libmesh_core_nrf51422_xxAC.a(transport.c.obj)
 .text.seqauth_sequence_number_get
                0x0002800c       0x18 mesh/core/libmesh_core_nrf51422_xxAC.a(transport.c.obj)
 .text.sar_rx_session_mark_as_handled
                0x00028024       0x54 mesh/core/libmesh_core_nrf51422_xxAC.a(transport.c.obj)
 .text.sar_ctx_find
                0x00028078       0x40 mesh/core/libmesh_core_nrf51422_xxAC.a(transport.c.obj)
 .text.control_packet_callback_get
                0x000280b8       0x44 mesh/core/libmesh_core_nrf51422_xxAC.a(transport.c.obj)
 .text.m_send_sar_cancel_event
                0x000280fc       0x26 mesh/core/libmesh_core_nrf51422_xxAC.a(transport.c.obj)
 *fill*         0x00028122        0x2 
 .text.tx_complete
                0x00028124       0x30 mesh/core/libmesh_core_nrf51422_xxAC.a(transport.c.obj)
 .text.upper_trs_packet_encrypt
                0x00028154       0xc4 mesh/core/libmesh_core_nrf51422_xxAC.a(transport.c.obj)
 .text.sar_ctx_free
                0x00028218       0x38 mesh/core/libmesh_core_nrf51422_xxAC.a(transport.c.obj)
 .text.sar_ctx_tx_complete
                0x00028250       0xb8 mesh/core/libmesh_core_nrf51422_xxAC.a(transport.c.obj)
 .text.sar_ctx_cancel
                0x00028308      0x110 mesh/core/libmesh_core_nrf51422_xxAC.a(transport.c.obj)
 .text.abort_timeout
                0x00028418        0xc mesh/core/libmesh_core_nrf51422_xxAC.a(transport.c.obj)
 .text.sar_ctx_alloc
                0x00028424       0xc8 mesh/core/libmesh_core_nrf51422_xxAC.a(transport.c.obj)
 .text.test_transport_decrypt
                0x000284ec       0x90 mesh/core/libmesh_core_nrf51422_xxAC.a(transport.c.obj)
 .text.upper_transport_access_packet_in
                0x0002857c      0x290 mesh/core/libmesh_core_nrf51422_xxAC.a(transport.c.obj)
 .text.trs_packet_header_build
                0x0002880c       0x96 mesh/core/libmesh_core_nrf51422_xxAC.a(transport.c.obj)
 *fill*         0x000288a2        0x2 
 .text.tx_retry_timer_reset
                0x000288a4       0x50 mesh/core/libmesh_core_nrf51422_xxAC.a(transport.c.obj)
 .text.trs_sar_packet_out
                0x000288f4      0x100 mesh/core/libmesh_core_nrf51422_xxAC.a(transport.c.obj)
 .text.retry_timeout
                0x000289f4       0x54 mesh/core/libmesh_core_nrf51422_xxAC.a(transport.c.obj)
 .text.upper_transport_packet_in
                0x00028a48      0x1b0 mesh/core/libmesh_core_nrf51422_xxAC.a(transport.c.obj)
 .text.upper_transport_tx
                0x00028bf8      0x23c mesh/core/libmesh_core_nrf51422_xxAC.a(transport.c.obj)
 .text.transport_sar_mem_funcs_reset
                0x00028e34       0x2c mesh/core/libmesh_core_nrf51422_xxAC.a(transport.c.obj)
                0x00028e34                transport_sar_mem_funcs_reset
 .text.transport_init
                0x00028e60       0x7c mesh/core/libmesh_core_nrf51422_xxAC.a(transport.c.obj)
                0x00028e60                transport_init
 .text.transport_tx
                0x00028edc       0x94 mesh/core/libmesh_core_nrf51422_xxAC.a(transport.c.obj)
                0x00028edc                transport_tx
 .text.transport_control_tx
                0x00028f70       0x7c mesh/core/libmesh_core_nrf51422_xxAC.a(transport.c.obj)
                0x00028f70                transport_control_tx
 .text.sar_ack_send
                0x00028fec      0x10c mesh/core/libmesh_core_nrf51422_xxAC.a(transport.c.obj)
 .text.transport_sar_process
                0x000290f8       0x78 mesh/core/libmesh_core_nrf51422_xxAC.a(transport.c.obj)
 .text.transport_packet_in
                0x00029170      0x518 mesh/core/libmesh_core_nrf51422_xxAC.a(transport.c.obj)
                0x00029170                transport_packet_in
 .text.ack_timeout
                0x00029688       0x3c mesh/core/libmesh_core_nrf51422_xxAC.a(transport.c.obj)
 .text.transport_opt_get
                0x000296c4       0x58 mesh/core/libmesh_core_nrf51422_xxAC.a(transport.c.obj)
                0x000296c4                transport_opt_get
 .text.transport_control_packet_consumer_add
                0x0002971c       0x64 mesh/core/libmesh_core_nrf51422_xxAC.a(transport.c.obj)
                0x0002971c                transport_control_packet_consumer_add
 .text.m_adjust_desired_packet_length
                0x00029780       0x34 mesh/core/libmesh_core_nrf51422_xxAC.a(packet_buffer.c.obj)
 .text.m_index_increment.part.0
                0x000297b4       0x18 mesh/core/libmesh_core_nrf51422_xxAC.a(packet_buffer.c.obj)
 .text.m_free_popped_packet
                0x000297cc       0x64 mesh/core/libmesh_core_nrf51422_xxAC.a(packet_buffer.c.obj)
 .text.free_skipped_packets
                0x00029830       0x1c mesh/core/libmesh_core_nrf51422_xxAC.a(packet_buffer.c.obj)
 .text.packet_buffer_init
                0x0002984c       0xe0 mesh/core/libmesh_core_nrf51422_xxAC.a(packet_buffer.c.obj)
                0x0002984c                packet_buffer_init
 .text.packet_buffer_flush
                0x0002992c       0x60 mesh/core/libmesh_core_nrf51422_xxAC.a(packet_buffer.c.obj)
                0x0002992c                packet_buffer_flush
 .text.packet_buffer_reserve
                0x0002998c      0x11c mesh/core/libmesh_core_nrf51422_xxAC.a(packet_buffer.c.obj)
                0x0002998c                packet_buffer_reserve
 .text.packet_buffer_commit
                0x00029aa8      0x10c mesh/core/libmesh_core_nrf51422_xxAC.a(packet_buffer.c.obj)
                0x00029aa8                packet_buffer_commit
 .text.packet_buffer_pop
                0x00029bb4       0x64 mesh/core/libmesh_core_nrf51422_xxAC.a(packet_buffer.c.obj)
                0x00029bb4                packet_buffer_pop
 .text.packet_buffer_can_pop
                0x00029c18       0x2c mesh/core/libmesh_core_nrf51422_xxAC.a(packet_buffer.c.obj)
                0x00029c18                packet_buffer_can_pop
 .text.packet_buffer_packets_ready_to_pop
                0x00029c44       0x58 mesh/core/libmesh_core_nrf51422_xxAC.a(packet_buffer.c.obj)
                0x00029c44                packet_buffer_packets_ready_to_pop
 .text.packet_buffer_free
                0x00029c9c       0x94 mesh/core/libmesh_core_nrf51422_xxAC.a(packet_buffer.c.obj)
                0x00029c9c                packet_buffer_free
 .text.get_last_page
                0x00029d30       0x14 mesh/core/libmesh_core_nrf51422_xxAC.a(flash_manager_defrag.c.obj)
 .text.defrag_on_end
                0x00029d44       0x1c mesh/core/libmesh_core_nrf51422_xxAC.a(flash_manager_defrag.c.obj)
 .text.execute_procedure_step
                0x00029d60       0xac mesh/core/libmesh_core_nrf51422_xxAC.a(flash_manager_defrag.c.obj)
 .text.get_next_entry
                0x00029e0c       0x44 mesh/core/libmesh_core_nrf51422_xxAC.a(flash_manager_defrag.c.obj)
 .text.get_next_data_entry
                0x00029e50       0x24 mesh/core/libmesh_core_nrf51422_xxAC.a(flash_manager_defrag.c.obj)
 .text.on_flash_op_end
                0x00029e74       0x34 mesh/core/libmesh_core_nrf51422_xxAC.a(flash_manager_defrag.c.obj)
 .text.check_for_invalid_entries
                0x00029ea8       0x3c mesh/core/libmesh_core_nrf51422_xxAC.a(flash_manager_defrag.c.obj)
 .text.erase_recovery_area
                0x00029ee4       0x30 mesh/core/libmesh_core_nrf51422_xxAC.a(flash_manager_defrag.c.obj)
 .text.flash.constprop.6
                0x00029f14       0x20 mesh/core/libmesh_core_nrf51422_xxAC.a(flash_manager_defrag.c.obj)
 .text.seal_storage_page
                0x00029f34       0x58 mesh/core/libmesh_core_nrf51422_xxAC.a(flash_manager_defrag.c.obj)
 .text.invalidate_duplicate_entries
                0x00029f8c       0x88 mesh/core/libmesh_core_nrf51422_xxAC.a(flash_manager_defrag.c.obj)
 .text.copy_metadata
                0x0002a014       0x40 mesh/core/libmesh_core_nrf51422_xxAC.a(flash_manager_defrag.c.obj)
 .text.write_defrag_start_pointer
                0x0002a054       0x20 mesh/core/libmesh_core_nrf51422_xxAC.a(flash_manager_defrag.c.obj)
 .text.write_back
                0x0002a074       0x2c mesh/core/libmesh_core_nrf51422_xxAC.a(flash_manager_defrag.c.obj)
 .text.post_process
                0x0002a0a0       0x44 mesh/core/libmesh_core_nrf51422_xxAC.a(flash_manager_defrag.c.obj)
 .text.backup_entries
                0x0002a0e4      0x128 mesh/core/libmesh_core_nrf51422_xxAC.a(flash_manager_defrag.c.obj)
 .text.erase_source
                0x0002a20c       0x30 mesh/core/libmesh_core_nrf51422_xxAC.a(flash_manager_defrag.c.obj)
 .text.flash_manager_defrag_init
                0x0002a23c       0xa0 mesh/core/libmesh_core_nrf51422_xxAC.a(flash_manager_defrag.c.obj)
                0x0002a23c                flash_manager_defrag_init
 .text.flash_manager_defrag_is_running
                0x0002a2dc       0x10 mesh/core/libmesh_core_nrf51422_xxAC.a(flash_manager_defrag.c.obj)
                0x0002a2dc                flash_manager_defrag_is_running
 .text.flash_manager_defrag
                0x0002a2ec       0xdc mesh/core/libmesh_core_nrf51422_xxAC.a(flash_manager_defrag.c.obj)
                0x0002a2ec                flash_manager_defrag
 .text.flash_manager_defrag_recovery_page_get
                0x0002a3c8        0xc mesh/core/libmesh_core_nrf51422_xxAC.a(flash_manager_defrag.c.obj)
                0x0002a3c8                flash_manager_defrag_recovery_page_get
 .text.fifo_init
                0x0002a3d4       0x5c mesh/core/libmesh_core_nrf51422_xxAC.a(fifo.c.obj)
                0x0002a3d4                fifo_init
 .text.fifo_push
                0x0002a430       0x5c mesh/core/libmesh_core_nrf51422_xxAC.a(fifo.c.obj)
                0x0002a430                fifo_push
 .text.fifo_pop
                0x0002a48c       0x5c mesh/core/libmesh_core_nrf51422_xxAC.a(fifo.c.obj)
                0x0002a48c                fifo_pop
 .text.send_end_events
                0x0002a4e8       0x80 mesh/core/libmesh_core_nrf51422_xxAC.a(mesh_flash.c.obj)
 .text.flash_op_schedule
                0x0002a568       0xa0 mesh/core/libmesh_core_nrf51422_xxAC.a(mesh_flash.c.obj)
 .text.flash_op_start
                0x0002a608      0x178 mesh/core/libmesh_core_nrf51422_xxAC.a(mesh_flash.c.obj)
 .text.mesh_flash_init
                0x0002a780       0x94 mesh/core/libmesh_core_nrf51422_xxAC.a(mesh_flash.c.obj)
                0x0002a780                mesh_flash_init
 .text.mesh_flash_user_callback_set
                0x0002a814       0x30 mesh/core/libmesh_core_nrf51422_xxAC.a(mesh_flash.c.obj)
                0x0002a814                mesh_flash_user_callback_set
 .text.mesh_flash_op_push
                0x0002a844      0x140 mesh/core/libmesh_core_nrf51422_xxAC.a(mesh_flash.c.obj)
                0x0002a844                mesh_flash_op_push
 .text.queue_init
                0x0002a984       0x24 mesh/core/libmesh_core_nrf51422_xxAC.a(queue.c.obj)
                0x0002a984                queue_init
 .text.queue_push
                0x0002a9a8       0x54 mesh/core/libmesh_core_nrf51422_xxAC.a(queue.c.obj)
                0x0002a9a8                queue_push
 .text.queue_pop
                0x0002a9fc       0x3c mesh/core/libmesh_core_nrf51422_xxAC.a(queue.c.obj)
                0x0002a9fc                queue_pop
 .text.queue_peek
                0x0002aa38       0x20 mesh/core/libmesh_core_nrf51422_xxAC.a(queue.c.obj)
                0x0002aa38                queue_peek
 .text.my_xor.constprop.1
                0x0002aa58       0x12 mesh/core/libmesh_core_nrf51422_xxAC.a(aes_cmac.c.obj)
 .text.utils_lshift.constprop.2
                0x0002aa6a       0x18 mesh/core/libmesh_core_nrf51422_xxAC.a(aes_cmac.c.obj)
 *fill*         0x0002aa82        0x2 
 .text.aes_cmac_subkey_generate
                0x0002aa84       0x64 mesh/core/libmesh_core_nrf51422_xxAC.a(aes_cmac.c.obj)
                0x0002aa84                aes_cmac_subkey_generate
 .text.aes_cmac
                0x0002aae8       0xc0 mesh/core/libmesh_core_nrf51422_xxAC.a(aes_cmac.c.obj)
                0x0002aae8                aes_cmac
 .text.nrf_mesh_opt_get
                0x0002aba8       0x34 mesh/core/libmesh_core_nrf51422_xxAC.a(nrf_mesh_opt.c.obj)
                0x0002aba8                nrf_mesh_opt_get
 .text.stage_get_available
                0x0002abdc       0x26 mesh/core/libmesh_core_nrf51422_xxAC.a(msqueue.c.obj)
 *fill*         0x0002ac02        0x2 
 .text.msq_get  0x0002ac04       0x54 mesh/core/libmesh_core_nrf51422_xxAC.a(msqueue.c.obj)
                0x0002ac04                msq_get
 .text.msq_move
                0x0002ac58       0x4c mesh/core/libmesh_core_nrf51422_xxAC.a(msqueue.c.obj)
                0x0002ac58                msq_move
 .text.msq_reset
                0x0002aca4       0x30 mesh/core/libmesh_core_nrf51422_xxAC.a(msqueue.c.obj)
                0x0002aca4                msq_reset
 .text.msq_init
                0x0002acd4       0x88 mesh/core/libmesh_core_nrf51422_xxAC.a(msqueue.c.obj)
                0x0002acd4                msq_init
 .text.msq_available
                0x0002ad5c       0x40 mesh/core/libmesh_core_nrf51422_xxAC.a(msqueue.c.obj)
                0x0002ad5c                msq_available
 .text.replay_cache_add
                0x0002ad9c       0x68 mesh/core/libmesh_core_nrf51422_xxAC.a(replay_cache.c.obj)
                0x0002ad9c                replay_cache_add
 .text.replay_cache_has_room
                0x0002ae04       0x38 mesh/core/libmesh_core_nrf51422_xxAC.a(replay_cache.c.obj)
                0x0002ae04                replay_cache_has_room
 .text.replay_cache_has_elem
                0x0002ae3c       0x38 mesh/core/libmesh_core_nrf51422_xxAC.a(replay_cache.c.obj)
                0x0002ae3c                replay_cache_has_elem
 .text.replay_cache_clear
                0x0002ae74       0x28 mesh/core/libmesh_core_nrf51422_xxAC.a(replay_cache.c.obj)
                0x0002ae74                replay_cache_clear
 .text.replay_cache_init
                0x0002ae9c        0x8 mesh/core/libmesh_core_nrf51422_xxAC.a(replay_cache.c.obj)
                0x0002ae9c                replay_cache_init
 .text.wait_for_ready
                0x0002aea4       0x14 mesh/core/libmesh_core_nrf51422_xxAC.a(nrf_flash.c.obj)
 .text.nrf_flash_erase
                0x0002aeb8       0x58 mesh/core/libmesh_core_nrf51422_xxAC.a(nrf_flash.c.obj)
                0x0002aeb8                nrf_flash_erase
 .text.nrf_flash_write
                0x0002af10       0x5c mesh/core/libmesh_core_nrf51422_xxAC.a(nrf_flash.c.obj)
                0x0002af10                nrf_flash_write
 .text._GetAvailWriteSpace
                0x0002af6c       0x12 external/rtt/librtt_nrf51422_xxAC.a(SEGGER_RTT.c.obj)
 .text._WriteNoCheck
                0x0002af7e       0x38 external/rtt/librtt_nrf51422_xxAC.a(SEGGER_RTT.c.obj)
 .text._WriteBlocking
                0x0002afb6       0x5a external/rtt/librtt_nrf51422_xxAC.a(SEGGER_RTT.c.obj)
 .text._DoInit  0x0002b010       0x64 external/rtt/librtt_nrf51422_xxAC.a(SEGGER_RTT.c.obj)
 .text.SEGGER_RTT_ReadNoLock
                0x0002b074       0xa4 external/rtt/librtt_nrf51422_xxAC.a(SEGGER_RTT.c.obj)
                0x0002b074                SEGGER_RTT_ReadNoLock
 .text.SEGGER_RTT_Read
                0x0002b118       0x1a external/rtt/librtt_nrf51422_xxAC.a(SEGGER_RTT.c.obj)
                0x0002b118                SEGGER_RTT_Read
 *fill*         0x0002b132        0x2 
 .text.SEGGER_RTT_WriteNoLock
                0x0002b134       0x6c external/rtt/librtt_nrf51422_xxAC.a(SEGGER_RTT.c.obj)
                0x0002b134                SEGGER_RTT_WriteNoLock
 .text.SEGGER_RTT_Write
                0x0002b1a0       0x34 external/rtt/librtt_nrf51422_xxAC.a(SEGGER_RTT.c.obj)
                0x0002b1a0                SEGGER_RTT_Write
 .text.SEGGER_RTT_GetKey
                0x0002b1d4       0x1e external/rtt/librtt_nrf51422_xxAC.a(SEGGER_RTT.c.obj)
                0x0002b1d4                SEGGER_RTT_GetKey
 .text._StoreChar
                0x0002b1f2       0x3e external/rtt/librtt_nrf51422_xxAC.a(SEGGER_RTT_printf.c.obj)
 .text._PrintUnsigned
                0x0002b230       0xe0 external/rtt/librtt_nrf51422_xxAC.a(SEGGER_RTT_printf.c.obj)
 .text.SEGGER_RTT_vprintf
                0x0002b310      0x25c external/rtt/librtt_nrf51422_xxAC.a(SEGGER_RTT_printf.c.obj)
                0x0002b310                SEGGER_RTT_vprintf
 .text.SEGGER_RTT_printf
                0x0002b56c       0x18 external/rtt/librtt_nrf51422_xxAC.a(SEGGER_RTT_printf.c.obj)
                0x0002b56c                SEGGER_RTT_printf
 .text.uECC_vli_mult
                0x0002b584       0x90 external/micro-ecc/libuECC_nrf51422_xxAC.a(uECC.c.obj)
 .text.uECC_vli_clear
                0x0002b614       0x16 external/micro-ecc/libuECC_nrf51422_xxAC.a(uECC.c.obj)
 .text.uECC_vli_isZero
                0x0002b62a       0x1c external/micro-ecc/libuECC_nrf51422_xxAC.a(uECC.c.obj)
 .text.uECC_vli_testBit
                0x0002b646       0x12 external/micro-ecc/libuECC_nrf51422_xxAC.a(uECC.c.obj)
 .text.uECC_vli_numBits
                0x0002b658       0x40 external/micro-ecc/libuECC_nrf51422_xxAC.a(uECC.c.obj)
 .text.uECC_vli_set
                0x0002b698       0x16 external/micro-ecc/libuECC_nrf51422_xxAC.a(uECC.c.obj)
 .text.uECC_vli_cmp_unsafe
                0x0002b6ae       0x24 external/micro-ecc/libuECC_nrf51422_xxAC.a(uECC.c.obj)
 .text.uECC_vli_rshift1
                0x0002b6d2       0x1e external/micro-ecc/libuECC_nrf51422_xxAC.a(uECC.c.obj)
 .text.uECC_vli_modMult_fast
                0x0002b6f0       0x20 external/micro-ecc/libuECC_nrf51422_xxAC.a(uECC.c.obj)
 .text.uECC_vli_modSquare_fast
                0x0002b710        0xc external/micro-ecc/libuECC_nrf51422_xxAC.a(uECC.c.obj)
 .text.apply_z  0x0002b71c       0x3e external/micro-ecc/libuECC_nrf51422_xxAC.a(uECC.c.obj)
 .text.uECC_vli_nativeToBytes
                0x0002b75a       0x24 external/micro-ecc/libuECC_nrf51422_xxAC.a(uECC.c.obj)
 .text.uECC_vli_bytesToNative
                0x0002b77e       0x44 external/micro-ecc/libuECC_nrf51422_xxAC.a(uECC.c.obj)
 .text.default_RNG
                0x0002b7c2        0xc external/micro-ecc/libuECC_nrf51422_xxAC.a(uECC.c.obj)
 .text.uECC_vli_add.isra.0
                0x0002b7ce       0x4a external/micro-ecc/libuECC_nrf51422_xxAC.a(uECC.c.obj)
 .text.regularize_k
                0x0002b818       0x52 external/micro-ecc/libuECC_nrf51422_xxAC.a(uECC.c.obj)
 .text.uECC_vli_sub.isra.1
                0x0002b86a       0x4c external/micro-ecc/libuECC_nrf51422_xxAC.a(uECC.c.obj)
 .text.uECC_vli_cmp
                0x0002b8b6       0x2a external/micro-ecc/libuECC_nrf51422_xxAC.a(uECC.c.obj)
 .text.uECC_generate_random_int
                0x0002b8e0       0x78 external/micro-ecc/libuECC_nrf51422_xxAC.a(uECC.c.obj)
 .text.uECC_vli_modAdd
                0x0002b958       0x2e external/micro-ecc/libuECC_nrf51422_xxAC.a(uECC.c.obj)
 *fill*         0x0002b986        0x2 
 .text.vli_mmod_fast_secp256r1
                0x0002b988      0x19c external/micro-ecc/libuECC_nrf51422_xxAC.a(uECC.c.obj)
 .text.uECC_vli_modSub.isra.2
                0x0002bb24       0x1a external/micro-ecc/libuECC_nrf51422_xxAC.a(uECC.c.obj)
 *fill*         0x0002bb3e        0x2 
 .text.double_jacobian_default
                0x0002bb40      0x14c external/micro-ecc/libuECC_nrf51422_xxAC.a(uECC.c.obj)
 .text.x_side_default
                0x0002bc8c       0x58 external/micro-ecc/libuECC_nrf51422_xxAC.a(uECC.c.obj)
 .text.XYcZ_add
                0x0002bce4       0xbe external/micro-ecc/libuECC_nrf51422_xxAC.a(uECC.c.obj)
 .text.XYcZ_addC
                0x0002bda2      0x10c external/micro-ecc/libuECC_nrf51422_xxAC.a(uECC.c.obj)
 *fill*         0x0002beae        0x2 
 .text.vli_modInv_update
                0x0002beb0       0x3c external/micro-ecc/libuECC_nrf51422_xxAC.a(uECC.c.obj)
 .text.uECC_vli_modInv
                0x0002beec      0x10a external/micro-ecc/libuECC_nrf51422_xxAC.a(uECC.c.obj)
 .text.EccPoint_mult
                0x0002bff6      0x19c external/micro-ecc/libuECC_nrf51422_xxAC.a(uECC.c.obj)
 .text.EccPoint_compute_public_key
                0x0002c192       0x4c external/micro-ecc/libuECC_nrf51422_xxAC.a(uECC.c.obj)
 *fill*         0x0002c1de        0x2 
 .text.uECC_secp256r1
                0x0002c1e0        0x8 external/micro-ecc/libuECC_nrf51422_xxAC.a(uECC.c.obj)
                0x0002c1e0                uECC_secp256r1
 .text.uECC_make_key
                0x0002c1e8       0x84 external/micro-ecc/libuECC_nrf51422_xxAC.a(uECC.c.obj)
                0x0002c1e8                uECC_make_key
 .text.uECC_shared_secret
                0x0002c26c       0xc0 external/micro-ecc/libuECC_nrf51422_xxAC.a(uECC.c.obj)
                0x0002c26c                uECC_shared_secret
 .text.uECC_valid_point
                0x0002c32c       0x86 external/micro-ecc/libuECC_nrf51422_xxAC.a(uECC.c.obj)
                0x0002c32c                uECC_valid_point
 .text.uECC_valid_public_key
                0x0002c3b2       0x32 external/micro-ecc/libuECC_nrf51422_xxAC.a(uECC.c.obj)
                0x0002c3b2                uECC_valid_public_key
 .text          0x0002c3e4       0x14 c:/a/gcc_arm/6/bin/../lib/gcc/arm-none-eabi/6.3.1/thumb/v6-m\libgcc.a(_thumb1_case_uqi.o)
                0x0002c3e4                __gnu_thumb1_case_uqi
 .text          0x0002c3f8       0x14 c:/a/gcc_arm/6/bin/../lib/gcc/arm-none-eabi/6.3.1/thumb/v6-m\libgcc.a(_thumb1_case_shi.o)
                0x0002c3f8                __gnu_thumb1_case_shi
 .text          0x0002c40c       0x14 c:/a/gcc_arm/6/bin/../lib/gcc/arm-none-eabi/6.3.1/thumb/v6-m\libgcc.a(_thumb1_case_uhi.o)
                0x0002c40c                __gnu_thumb1_case_uhi
 .text          0x0002c420      0x114 c:/a/gcc_arm/6/bin/../lib/gcc/arm-none-eabi/6.3.1/thumb/v6-m\libgcc.a(_udivsi3.o)
                0x0002c420                __aeabi_uidiv
                0x0002c420                __udivsi3
                0x0002c52c                __aeabi_uidivmod
 .text          0x0002c534      0x1d4 c:/a/gcc_arm/6/bin/../lib/gcc/arm-none-eabi/6.3.1/thumb/v6-m\libgcc.a(_divsi3.o)
                0x0002c534                __divsi3
                0x0002c534                __aeabi_idiv
                0x0002c700                __aeabi_idivmod
 .text          0x0002c708        0x4 c:/a/gcc_arm/6/bin/../lib/gcc/arm-none-eabi/6.3.1/thumb/v6-m\libgcc.a(_dvmd_tls.o)
                0x0002c708                __aeabi_idiv0
                0x0002c708                __aeabi_ldiv0
 .text          0x0002c70c       0x40 c:/a/gcc_arm/6/bin/../lib/gcc/arm-none-eabi/6.3.1/thumb/v6-m\libgcc.a(_aeabi_uldivmod.o)
                0x0002c70c                __aeabi_uldivmod
 .text          0x0002c74c       0x54 c:/a/gcc_arm/6/bin/../lib/gcc/arm-none-eabi/6.3.1/thumb/v6-m\libgcc.a(_muldi3.o)
                0x0002c74c                __muldi3
                0x0002c74c                __aeabi_lmul
 .text          0x0002c7a0      0x180 c:/a/gcc_arm/6/bin/../lib/gcc/arm-none-eabi/6.3.1/thumb/v6-m\libgcc.a(_udivmoddi4.o)
                0x0002c7a0                __udivmoddi4
 .text          0x0002c920       0x18 c:/a/gcc_arm/6/bin/../lib/gcc/arm-none-eabi/6.3.1/thumb/v6-m\libgcc.a(_clzdi2.o)
                0x0002c920                __clzdi2
 .text          0x0002c938       0x3c c:/a/gcc_arm/6/bin/../lib/gcc/arm-none-eabi/6.3.1/thumb/v6-m\libgcc.a(_clzsi2.o)
                0x0002c938                __clzsi2
 .text.exit     0x0002c974       0x2c c:/a/gcc_arm/6/bin/../lib/gcc/arm-none-eabi/6.3.1/../../../../arm-none-eabi/lib/thumb/v6-m\libg_nano.a(lib_a-exit.o)
                0x0002c974                exit
 .text.__libc_init_array
                0x0002c9a0       0x48 c:/a/gcc_arm/6/bin/../lib/gcc/arm-none-eabi/6.3.1/../../../../arm-none-eabi/lib/thumb/v6-m\libg_nano.a(lib_a-init.o)
                0x0002c9a0                __libc_init_array
 .text.malloc   0x0002c9e8       0x14 c:/a/gcc_arm/6/bin/../lib/gcc/arm-none-eabi/6.3.1/../../../../arm-none-eabi/lib/thumb/v6-m\libg_nano.a(lib_a-malloc.o)
                0x0002c9e8                malloc
 .text.free     0x0002c9fc       0x14 c:/a/gcc_arm/6/bin/../lib/gcc/arm-none-eabi/6.3.1/../../../../arm-none-eabi/lib/thumb/v6-m\libg_nano.a(lib_a-malloc.o)
                0x0002c9fc                free
 .text.memcmp   0x0002ca10       0x1e c:/a/gcc_arm/6/bin/../lib/gcc/arm-none-eabi/6.3.1/../../../../arm-none-eabi/lib/thumb/v6-m\libg_nano.a(lib_a-memcmp.o)
                0x0002ca10                memcmp
 .text.memcpy   0x0002ca2e       0x12 c:/a/gcc_arm/6/bin/../lib/gcc/arm-none-eabi/6.3.1/../../../../arm-none-eabi/lib/thumb/v6-m\libg_nano.a(lib_a-memcpy-stub.o)
                0x0002ca2e                memcpy
 .text.memset   0x0002ca40       0x10 c:/a/gcc_arm/6/bin/../lib/gcc/arm-none-eabi/6.3.1/../../../../arm-none-eabi/lib/thumb/v6-m\libg_nano.a(lib_a-memset.o)
                0x0002ca40                memset
 .text._free_r  0x0002ca50       0x94 c:/a/gcc_arm/6/bin/../lib/gcc/arm-none-eabi/6.3.1/../../../../arm-none-eabi/lib/thumb/v6-m\libg_nano.a(lib_a-nano-freer.o)
                0x0002ca50                _free_r
 .text._malloc_r
                0x0002cae4       0xbc c:/a/gcc_arm/6/bin/../lib/gcc/arm-none-eabi/6.3.1/../../../../arm-none-eabi/lib/thumb/v6-m\libg_nano.a(lib_a-nano-mallocr.o)
                0x0002cae4                _malloc_r
 .text._sbrk_r  0x0002cba0       0x24 c:/a/gcc_arm/6/bin/../lib/gcc/arm-none-eabi/6.3.1/../../../../arm-none-eabi/lib/thumb/v6-m\libg_nano.a(lib_a-sbrkr.o)
                0x0002cba0                _sbrk_r
 .text.strcpy   0x0002cbc4       0x10 c:/a/gcc_arm/6/bin/../lib/gcc/arm-none-eabi/6.3.1/../../../../arm-none-eabi/lib/thumb/v6-m\libg_nano.a(lib_a-strcpy.o)
                0x0002cbc4                strcpy
 .text          0x0002cbd4        0xe c:/a/gcc_arm/6/bin/../lib/gcc/arm-none-eabi/6.3.1/../../../../arm-none-eabi/lib/thumb/v6-m\libg_nano.a(lib_a-strlen.o)
                0x0002cbd4                strlen
 .text.strrchr  0x0002cbe2       0x24 c:/a/gcc_arm/6/bin/../lib/gcc/arm-none-eabi/6.3.1/../../../../arm-none-eabi/lib/thumb/v6-m\libg_nano.a(lib_a-strrchr.o)
                0x0002cbe2                strrchr
 .text.__malloc_lock
                0x0002cc06        0x2 c:/a/gcc_arm/6/bin/../lib/gcc/arm-none-eabi/6.3.1/../../../../arm-none-eabi/lib/thumb/v6-m\libg_nano.a(lib_a-mlock.o)
                0x0002cc06                __malloc_lock
 .text.__malloc_unlock
                0x0002cc08        0x2 c:/a/gcc_arm/6/bin/../lib/gcc/arm-none-eabi/6.3.1/../../../../arm-none-eabi/lib/thumb/v6-m\libg_nano.a(lib_a-mlock.o)
                0x0002cc08                __malloc_unlock
 .text.strchr   0x0002cc0a       0x1c c:/a/gcc_arm/6/bin/../lib/gcc/arm-none-eabi/6.3.1/../../../../arm-none-eabi/lib/thumb/v6-m\libg_nano.a(lib_a-strchr.o)
                0x0002cc0a                strchr
 *fill*         0x0002cc26        0x2 
 .text._sbrk    0x0002cc28       0x1c c:/a/gcc_arm/6/bin/../lib/gcc/arm-none-eabi/6.3.1/../../../../arm-none-eabi/lib/thumb/v6-m\libnosys.a(sbrk.o)
                0x0002cc28                _sbrk
 .text._exit    0x0002cc44        0x4 c:/a/gcc_arm/6/bin/../lib/gcc/arm-none-eabi/6.3.1/../../../../arm-none-eabi/lib/thumb/v6-m\libnosys.a(_exit.o)
                0x0002cc44                _exit
 *(.init)
 .init          0x0002cc48        0x4 c:/a/gcc_arm/6/bin/../lib/gcc/arm-none-eabi/6.3.1/thumb/v6-m/crti.o
                0x0002cc48                _init
 .init          0x0002cc4c        0x8 c:/a/gcc_arm/6/bin/../lib/gcc/arm-none-eabi/6.3.1/thumb/v6-m/crtn.o
 *(.fini)
 .fini          0x0002cc54        0x4 c:/a/gcc_arm/6/bin/../lib/gcc/arm-none-eabi/6.3.1/thumb/v6-m/crti.o
                0x0002cc54                _fini
 .fini          0x0002cc58        0x8 c:/a/gcc_arm/6/bin/../lib/gcc/arm-none-eabi/6.3.1/thumb/v6-m/crtn.o
 *crtbegin.o(.ctors)
 *crtbegin?.o(.ctors)
 *(EXCLUDE_FILE(*crtend.o *crtend?.o) .ctors)
 *(SORT(.ctors.*))
 *(.ctors)
 *crtbegin.o(.dtors)
 *crtbegin?.o(.dtors)
 *(EXCLUDE_FILE(*crtend.o *crtend?.o) .dtors)
 *(SORT(.dtors.*))
 *(.dtors)
 *(.rodata*)
 .rodata        0x0002cc60        0x4 examples/light_switch/client/CMakeFiles/light_switch_client_nrf51422_xxAC_s130_2.0.1.dir/src/main.c.obj
 .rodata.button_event_handler.str1.1
                0x0002cc64       0x94 examples/light_switch/client/CMakeFiles/light_switch_client_nrf51422_xxAC_s130_2.0.1.dir/src/main.c.obj
 .rodata.health_event_cb.str1.1
                0x0002ccf8       0x35 examples/light_switch/client/CMakeFiles/light_switch_client_nrf51422_xxAC_s130_2.0.1.dir/src/main.c.obj
 .rodata.m_appkey
                0x0002cd2d       0x10 examples/light_switch/client/CMakeFiles/light_switch_client_nrf51422_xxAC_s130_2.0.1.dir/src/main.c.obj
 .rodata.m_netkey
                0x0002cd3d       0x10 examples/light_switch/client/CMakeFiles/light_switch_client_nrf51422_xxAC_s130_2.0.1.dir/src/main.c.obj
 .rodata.main.str1.1
                0x0002cd4d       0x53 examples/light_switch/client/CMakeFiles/light_switch_client_nrf51422_xxAC_s130_2.0.1.dir/src/main.c.obj
 .rodata.provisioner_config_failed_cb.str1.1
                0x0002cda0       0x23 examples/light_switch/client/CMakeFiles/light_switch_client_nrf51422_xxAC_s130_2.0.1.dir/src/main.c.obj
 .rodata.provisioner_config_successful_cb.str1.1
                0x0002cdc3       0x40 examples/light_switch/client/CMakeFiles/light_switch_client_nrf51422_xxAC_s130_2.0.1.dir/src/main.c.obj
 .rodata.provisioner_prov_complete_cb.str1.1
                0x0002ce03       0x2f examples/light_switch/client/CMakeFiles/light_switch_client_nrf51422_xxAC_s130_2.0.1.dir/src/main.c.obj
 .rodata        0x0002ce32       0x2b examples/light_switch/client/CMakeFiles/light_switch_client_nrf51422_xxAC_s130_2.0.1.dir/src/provisioner.c.obj
 .rodata.config_client_event_cb.str1.1
                0x0002ce5d       0x19 examples/light_switch/client/CMakeFiles/light_switch_client_nrf51422_xxAC_s130_2.0.1.dir/src/provisioner.c.obj
 .rodata.do_config_step.str1.1
                0x0002ce76      0x139 examples/light_switch/client/CMakeFiles/light_switch_client_nrf51422_xxAC_s130_2.0.1.dir/src/provisioner.c.obj
 .rodata.prov_evt_handler.str1.1
                0x0002cfaf       0xea examples/light_switch/client/CMakeFiles/light_switch_client_nrf51422_xxAC_s130_2.0.1.dir/src/provisioner.c.obj
 .rodata.HardFault_Handler.str1.1
                0x0002d099        0xe examples/light_switch/client/CMakeFiles/light_switch_client_nrf51422_xxAC_s130_2.0.1.dir/__/__/nrf_mesh_sdk.c.obj
 .rodata.app_error_handler.str1.1
                0x0002d0a7       0x1d examples/light_switch/client/CMakeFiles/light_switch_client_nrf51422_xxAC_s130_2.0.1.dir/__/__/nrf_mesh_sdk.c.obj
 .rodata.mesh_assert_handler.str1.1
                0x0002d0c4       0x34 examples/light_switch/client/CMakeFiles/light_switch_client_nrf51422_xxAC_s130_2.0.1.dir/__/__/nrf_mesh_sdk.c.obj
 .rodata.mesh_core_setup.str1.1
                0x0002d0f8       0x47 examples/light_switch/client/CMakeFiles/light_switch_client_nrf51422_xxAC_s130_2.0.1.dir/__/__/nrf_mesh_sdk.c.obj
 .rodata.mesh_softdevice_enable.str1.1
                0x0002d13f       0x65 examples/light_switch/client/CMakeFiles/light_switch_client_nrf51422_xxAC_s130_2.0.1.dir/__/__/nrf_mesh_sdk.c.obj
 .rodata.softdevice_assert_handler.str1.1
                0x0002d1a4       0x1d examples/light_switch/client/CMakeFiles/light_switch_client_nrf51422_xxAC_s130_2.0.1.dir/__/__/nrf_mesh_sdk.c.obj
 .rodata.m_buttons_list
                0x0002d1c1        0x4 examples/light_switch/client/CMakeFiles/light_switch_client_nrf51422_xxAC_s130_2.0.1.dir/__/__/common/src/simple_hal.c.obj
 *fill*         0x0002d1c5        0x3 
 .rodata.m_opcode_handlers
                0x0002d1c8        0x8 examples/light_switch/client/CMakeFiles/light_switch_client_nrf51422_xxAC_s130_2.0.1.dir/__/__/__/models/simple_on_off/src/simple_on_off_client.c.obj
 .rodata.m_config_message_lut
                0x0002d1d0       0x5a examples/light_switch/client/CMakeFiles/light_switch_client_nrf51422_xxAC_s130_2.0.1.dir/__/__/__/models/config/src/config_client.c.obj
 *fill*         0x0002d22a        0x2 
 .rodata.m_opcode_handlers
                0x0002d22c       0x78 examples/light_switch/client/CMakeFiles/light_switch_client_nrf51422_xxAC_s130_2.0.1.dir/__/__/__/models/config/src/config_client.c.obj
 .rodata.m_opcode_handlers
                0x0002d2a4       0x20 examples/light_switch/client/CMakeFiles/light_switch_client_nrf51422_xxAC_s130_2.0.1.dir/__/__/__/models/health/src/health_client.c.obj
 .rodata.mesh_evt_cb.str1.1
                0x0002d2c4       0x2f examples/light_switch/client/CMakeFiles/light_switch_client_nrf51422_xxAC_s130_2.0.1.dir/__/__/__/mesh/access/src/access.c.obj
 .rodata.multiply_de_bruijn_bit_position.6642
                0x0002d2f3       0x20 examples/light_switch/client/CMakeFiles/light_switch_client_nrf51422_xxAC_s130_2.0.1.dir/__/__/__/mesh/access/src/access.c.obj
 .rodata.packet_tx.str1.1
                0x0002d313       0x13 examples/light_switch/client/CMakeFiles/light_switch_client_nrf51422_xxAC_s130_2.0.1.dir/__/__/__/mesh/access/src/access.c.obj
 *fill*         0x0002d326        0x2 
 .rodata.m_flash_groups
                0x0002d328       0xa8 examples/light_switch/client/CMakeFiles/light_switch_client_nrf51422_xxAC_s130_2.0.1.dir/__/__/__/mesh/access/src/device_state_manager.c.obj
 .rodata.m_prov_callbacks
                0x0002d3d0       0x10 examples/light_switch/client/CMakeFiles/light_switch_client_nrf51422_xxAC_s130_2.0.1.dir/__/__/__/mesh/prov/src/prov_provisioner.c.obj
 .rodata.pdu_sizes.8424
                0x0002d3e0        0xa examples/light_switch/client/CMakeFiles/light_switch_client_nrf51422_xxAC_s130_2.0.1.dir/__/__/__/mesh/prov/src/provisioning.c.obj
 .rodata.alphanumeric.8529
                0x0002d3ea       0x25 examples/light_switch/client/CMakeFiles/light_switch_client_nrf51422_xxAC_s130_2.0.1.dir/__/__/__/mesh/prov/src/prov_utils.c.obj
 *fill*         0x0002d40f        0x1 
 .rodata.numeric_max.8523
                0x0002d410       0x24 examples/light_switch/client/CMakeFiles/light_switch_client_nrf51422_xxAC_s130_2.0.1.dir/__/__/__/mesh/prov/src/prov_utils.c.obj
 .rodata.prov_utils_authentication_values_derive.str1.1
                0x0002d434        0x5 examples/light_switch/client/CMakeFiles/light_switch_client_nrf51422_xxAC_s130_2.0.1.dir/__/__/__/mesh/prov/src/prov_utils.c.obj
 .rodata.prov_utils_derive_keys.str1.1
                0x0002d439        0xf examples/light_switch/client/CMakeFiles/light_switch_client_nrf51422_xxAC_s130_2.0.1.dir/__/__/__/mesh/prov/src/prov_utils.c.obj
 .rodata.add_active_bearer.str1.1
                0x0002d448       0x2c examples/light_switch/client/CMakeFiles/light_switch_client_nrf51422_xxAC_s130_2.0.1.dir/__/__/__/mesh/prov/src/prov_bearer_adv.c.obj
 .rodata.crctable.8282
                0x0002d474      0x100 examples/light_switch/client/CMakeFiles/light_switch_client_nrf51422_xxAC_s130_2.0.1.dir/__/__/__/mesh/prov/src/prov_bearer_adv.c.obj
 .rodata.interface.8512
                0x0002d574       0x14 examples/light_switch/client/CMakeFiles/light_switch_client_nrf51422_xxAC_s130_2.0.1.dir/__/__/__/mesh/prov/src/prov_bearer_adv.c.obj
 .rodata.prov_bearer_adv_packet_in.str1.1
                0x0002d588      0x26e examples/light_switch/client/CMakeFiles/light_switch_client_nrf51422_xxAC_s130_2.0.1.dir/__/__/__/mesh/prov/src/prov_bearer_adv.c.obj
 .rodata.tx_retry_cb.str1.1
                0x0002d7f6       0x37 examples/light_switch/client/CMakeFiles/light_switch_client_nrf51422_xxAC_s130_2.0.1.dir/__/__/__/mesh/prov/src/prov_bearer_adv.c.obj
 .rodata.types_lookup.6447
                0x0002d82d        0x4 mesh/core/libmesh_core_nrf51422_xxAC.a(nrf_mesh_utils.c.obj)
 .rodata.nrf_mesh_listen.str1.1
                0x0002d831       0x70 mesh/core/libmesh_core_nrf51422_xxAC.a(nrf_mesh.c.obj)
 *fill*         0x0002d8a1        0x1 
 .rodata.CSWTCH.9
                0x0002d8a2       0x10 mesh/core/libmesh_core_nrf51422_xxAC.a(hal.c.obj)
 .rodata        0x0002d8b2       0x15 mesh/core/libmesh_core_nrf51422_xxAC.a(enc.c.obj)
 .rodata.network_packet_in.str1.1
                0x0002d8c7       0x40 mesh/core/libmesh_core_nrf51422_xxAC.a(network.c.obj)
                                 0x48 (size before relaxing)
 .rodata.network_packet_send.str1.1
                0x0002d907       0x49 mesh/core/libmesh_core_nrf51422_xxAC.a(network.c.obj)
 .rodata        0x0002d950        0x7 mesh/core/libmesh_core_nrf51422_xxAC.a(nrf_mesh_keygen.c.obj)
 .rodata.log_callback_rtt.str1.1
                0x0002d957       0x15 mesh/core/libmesh_core_nrf51422_xxAC.a(log.c.obj)
 .rodata.str1.1
                0x0002d96c       0x11 mesh/core/libmesh_core_nrf51422_xxAC.a(log.c.obj)
 *fill*         0x0002d97d        0x3 
 .rodata.INVALID_HEADER
                0x0002d980        0x4 mesh/core/libmesh_core_nrf51422_xxAC.a(flash_manager.c.obj)
                0x0002d980                INVALID_HEADER
 .rodata.PADDING_HEADER
                0x0002d984        0x4 mesh/core/libmesh_core_nrf51422_xxAC.a(flash_manager.c.obj)
                0x0002d984                PADDING_HEADER
 .rodata.SEAL_HEADER
                0x0002d988        0x4 mesh/core/libmesh_core_nrf51422_xxAC.a(flash_manager.c.obj)
                0x0002d988                SEAL_HEADER
 .rodata.process_action_queue.str1.1
                0x0002d98c       0x21 mesh/core/libmesh_core_nrf51422_xxAC.a(flash_manager.c.obj)
                                 0x4f (size before relaxing)
 .rodata.beacon_packet_in.str1.1
                0x0002d9ad       0x51 mesh/core/libmesh_core_nrf51422_xxAC.a(beacon.c.obj)
                                 0x59 (size before relaxing)
 *fill*         0x0002d9fe        0x2 
 .rodata.cp_handler
                0x0002da00        0x8 mesh/core/libmesh_core_nrf51422_xxAC.a(heartbeat.c.obj)
 .rodata.net_beacon_init.str1.1
                0x0002da08        0x5 mesh/core/libmesh_core_nrf51422_xxAC.a(net_beacon.c.obj)
 *fill*         0x0002da0d        0x3 
 .rodata.m_interface
                0x0002da10        0xc mesh/core/libmesh_core_nrf51422_xxAC.a(core_tx_adv.c.obj)
 .rodata.radio_mode_to_us_per_byte.6840
                0x0002da1c        0x4 mesh/core/libmesh_core_nrf51422_xxAC.a(broadcast.c.obj)
 .rodata.channel_rf_offsets.6081
                0x0002da20       0x28 mesh/core/libmesh_core_nrf51422_xxAC.a(radio_config.c.obj)
 .rodata        0x0002da48        0x3 mesh/core/libmesh_core_nrf51422_xxAC.a(scanner.c.obj)
 .rodata.sar_ctx_cancel.str1.1
                0x0002da4b       0x18 mesh/core/libmesh_core_nrf51422_xxAC.a(transport.c.obj)
 .rodata.sar_ctx_tx_complete.str1.1
                0x0002da63       0x1d mesh/core/libmesh_core_nrf51422_xxAC.a(transport.c.obj)
                                 0x4b (size before relaxing)
 .rodata.test_transport_decrypt.str1.1
                0x0002da80       0x13 mesh/core/libmesh_core_nrf51422_xxAC.a(transport.c.obj)
 .rodata.transport_packet_in.str1.1
                0x0002da93       0x24 mesh/core/libmesh_core_nrf51422_xxAC.a(transport.c.obj)
 .rodata.upper_transport_access_packet_in.str1.1
                0x0002dab7       0x29 mesh/core/libmesh_core_nrf51422_xxAC.a(transport.c.obj)
 .rodata.upper_transport_packet_in.str1.1
                0x0002dae0       0x2e mesh/core/libmesh_core_nrf51422_xxAC.a(transport.c.obj)
 .rodata.upper_transport_tx.str1.1
                0x0002db0e       0x2c mesh/core/libmesh_core_nrf51422_xxAC.a(transport.c.obj)
                                 0x34 (size before relaxing)
 .rodata.flash_manager_defrag.str1.1
                0x0002db3a       0x28 mesh/core/libmesh_core_nrf51422_xxAC.a(flash_manager_defrag.c.obj)
                                 0x56 (size before relaxing)
 *fill*         0x0002db62        0x2 
 .rodata.m_procedure_steps
                0x0002db64       0x28 mesh/core/libmesh_core_nrf51422_xxAC.a(flash_manager_defrag.c.obj)
 .rodata.m_all_operations
                0x0002db8c       0x10 mesh/core/libmesh_core_nrf51422_xxAC.a(mesh_flash.c.obj)
 .rodata.Rb.5046
                0x0002db9c       0x10 mesh/core/libmesh_core_nrf51422_xxAC.a(aes_cmac.c.obj)
 .rodata._DoInit.str1.1
                0x0002dbac       0x14 external/rtt/librtt_nrf51422_xxAC.a(SEGGER_RTT.c.obj)
 .rodata._aV2C.4374
                0x0002dbc0       0x10 external/rtt/librtt_nrf51422_xxAC.a(SEGGER_RTT_printf.c.obj)
 .rodata.curve_secp256r1
                0x0002dbd0       0xb0 external/micro-ecc/libuECC_nrf51422_xxAC.a(uECC.c.obj)
 .rodata._global_impure_ptr
                0x0002dc80        0x4 c:/a/gcc_arm/6/bin/../lib/gcc/arm-none-eabi/6.3.1/../../../../arm-none-eabi/lib/thumb/v6-m\libg_nano.a(lib_a-impure.o)
                0x0002dc80                _global_impure_ptr
 *(.eh_frame*)
 .eh_frame      0x0002dc84        0x0 c:/a/gcc_arm/6/bin/../lib/gcc/arm-none-eabi/6.3.1/thumb/v6-m/crtbegin.o
 .eh_frame      0x0002dc84        0x4 c:/a/gcc_arm/6/bin/../lib/gcc/arm-none-eabi/6.3.1/thumb/v6-m/crtend.o

.glue_7         0x0002dc88        0x0
 .glue_7        0x0002dc88        0x0 linker stubs

.glue_7t        0x0002dc88        0x0
 .glue_7t       0x0002dc88        0x0 linker stubs

.vfp11_veneer   0x0002dc88        0x0
 .vfp11_veneer  0x0002dc88        0x0 linker stubs

.v4_bx          0x0002dc88        0x0
 .v4_bx         0x0002dc88        0x0 linker stubs

.iplt           0x0002dc88        0x0
 .iplt          0x0002dc88        0x0 c:/a/gcc_arm/6/bin/../lib/gcc/arm-none-eabi/6.3.1/thumb/v6-m/crtbegin.o

.pwr_mgmt_data  0x0002dc88        0x0
                [!provide]                PROVIDE (__start_pwr_mgmt_data, .)
 *(SORT(.pwr_mgmt_data*))
                [!provide]                PROVIDE (__stop_pwr_mgmt_data, .)

.log_const_data
                0x0002dc88        0x0
                [!provide]                PROVIDE (__start_log_const_data, .)
 *(.log_const_data)
                [!provide]                PROVIDE (__stop_log_const_data, .)

.cli_command    0x0002dc88        0x0
                [!provide]                PROVIDE (__start_cli_command, .)
 *(.cli_command)
                [!provide]                PROVIDE (__stop_cli_command, .)

.sdh_stack_observers
                0x0002dc88        0x0
                [!provide]                PROVIDE (__start_sdh_stack_observers, .)
 *(SORT(.sdh_stack_observers*))
                [!provide]                PROVIDE (__stop_sdh_stack_observers, .)

.sdh_req_observers
                0x0002dc88        0x0
                [!provide]                PROVIDE (__start_sdh_req_observers, .)
 *(SORT(.sdh_req_observers*))
                [!provide]                PROVIDE (__stop_sdh_req_observers, .)

.sdh_state_observers
                0x0002dc88        0x0
                [!provide]                PROVIDE (__start_sdh_state_observers, .)
 *(SORT(.sdh_state_observers*))
                [!provide]                PROVIDE (__stop_sdh_state_observers, .)

.sdh_ant_observers
                0x0002dc88        0x0
                [!provide]                PROVIDE (__start_sdh_ant_observers, .)
 *(SORT(.sdh_ant_observers*))
                [!provide]                PROVIDE (__stop_sdh_ant_observers, .)

.sdh_ble_observers
                0x0002dc88        0x0
                [!provide]                PROVIDE (__start_sdh_ble_observers, .)
 *(SORT(.sdh_ble_observers*))
                [!provide]                PROVIDE (__stop_sdh_ble_observers, .)

.sdh_soc_observers
                0x0002dc88        0x0
                [!provide]                PROVIDE (__start_sdh_soc_observers, .)
 *(SORT(.sdh_soc_observers*))
                [!provide]                PROVIDE (__stop_sdh_soc_observers, .)

.ARM.extab
 *(.ARM.extab* .gnu.linkonce.armextab.*)
                0x0002dc88                __exidx_start = .

.ARM.exidx      0x0002dc88        0x8
 *(.ARM.exidx* .gnu.linkonce.armexidx.*)
 .ARM.exidx     0x0002dc88        0x8 c:/a/gcc_arm/6/bin/../lib/gcc/arm-none-eabi/6.3.1/../../../../arm-none-eabi/lib/thumb/v6-m/crt0.o
 .ARM.exidx     0x0002dc90        0x0 c:/a/gcc_arm/6/bin/../lib/gcc/arm-none-eabi/6.3.1/thumb/v6-m\libgcc.a(_udivmoddi4.o)
                                  0x8 (size before relaxing)
                0x0002dc90                __exidx_end = .
                0x0002dc90                __etext = .

.rel.dyn        0x0002dc90        0x0
 .rel.iplt      0x0002dc90        0x0 c:/a/gcc_arm/6/bin/../lib/gcc/arm-none-eabi/6.3.1/thumb/v6-m/crtbegin.o

.data           0x200022d8      0x11c load address 0x0002dc90
                0x200022d8                __data_start__ = .
 *(vtable)
 *(.data*)
 .data.flash_add_mem_available_struct.7714
                0x200022d8       0x10 examples/light_switch/client/CMakeFiles/light_switch_client_nrf51422_xxAC_s130_2.0.1.dir/__/__/__/mesh/access/src/access.c.obj
 .data.flash_clear_mem_available_struct.7803
                0x200022e8       0x10 examples/light_switch/client/CMakeFiles/light_switch_client_nrf51422_xxAC_s130_2.0.1.dir/__/__/__/mesh/access/src/access.c.obj
 .data.flash_store_mem_available_struct.7827
                0x200022f8       0x10 examples/light_switch/client/CMakeFiles/light_switch_client_nrf51422_xxAC_s130_2.0.1.dir/__/__/__/mesh/access/src/access.c.obj
 .data.m_default_ttl
                0x20002308        0x1 examples/light_switch/client/CMakeFiles/light_switch_client_nrf51422_xxAC_s130_2.0.1.dir/__/__/__/mesh/access/src/access.c.obj
 *fill*         0x20002309        0x3 
 .data.mem_listener.8022
                0x2000230c       0x10 examples/light_switch/client/CMakeFiles/light_switch_client_nrf51422_xxAC_s130_2.0.1.dir/__/__/__/mesh/access/src/device_state_manager.c.obj
 .data.mem_listener.8048
                0x2000231c       0x10 examples/light_switch/client/CMakeFiles/light_switch_client_nrf51422_xxAC_s130_2.0.1.dir/__/__/__/mesh/access/src/device_state_manager.c.obj
 .data.m_async_process_flag
                0x2000232c        0x4 examples/light_switch/client/CMakeFiles/light_switch_client_nrf51422_xxAC_s130_2.0.1.dir/__/__/__/mesh/prov/src/prov_bearer_adv.c.obj
 .data.SystemCoreClock
                0x20002330        0x4 examples/light_switch/client/CMakeFiles/light_switch_client_nrf51422_xxAC_s130_2.0.1.dir/__/__/__/external/nRF5_SDK_14.2.0_17b948a/components/toolchain/system_nrf51.c.obj
                0x20002330                SystemCoreClock
 .data.mem_listener.7168
                0x20002334       0x10 mesh/core/libmesh_core_nrf51422_xxAC.a(net_state.c.obj)
 .data.mem_listener.7173
                0x20002344       0x10 mesh/core/libmesh_core_nrf51422_xxAC.a(net_state.c.obj)
 .data.mem_listener.7187
                0x20002354       0x10 mesh/core/libmesh_core_nrf51422_xxAC.a(net_state.c.obj)
 .data.m_nrf_mesh_listener
                0x20002364        0xc mesh/core/libmesh_core_nrf51422_xxAC.a(nrf_mesh.c.obj)
 .data.g_log_dbg_lvl
                0x20002370        0x4 mesh/core/libmesh_core_nrf51422_xxAC.a(log.c.obj)
                0x20002370                g_log_dbg_lvl
 .data.g_log_dbg_msk
                0x20002374        0x4 mesh/core/libmesh_core_nrf51422_xxAC.a(log.c.obj)
                0x20002374                g_log_dbg_msk
 .data.g_log_hex_digits
                0x20002378        0x4 mesh/core/libmesh_core_nrf51422_xxAC.a(log.c.obj)
                0x20002378                g_log_hex_digits
 .data.m_log_callback
                0x2000237c        0x4 mesh/core/libmesh_core_nrf51422_xxAC.a(log.c.obj)
                0x2000237c                m_log_callback
 .data.g_rng_function
                0x20002380        0x4 external/micro-ecc/libuECC_nrf51422_xxAC.a(uECC.c.obj)
 .data._impure_ptr
                0x20002384        0x4 c:/a/gcc_arm/6/bin/../lib/gcc/arm-none-eabi/6.3.1/../../../../arm-none-eabi/lib/thumb/v6-m\libg_nano.a(lib_a-impure.o)
                0x20002384                _impure_ptr
 .data.impure_data
                0x20002388       0x60 c:/a/gcc_arm/6/bin/../lib/gcc/arm-none-eabi/6.3.1/../../../../arm-none-eabi/lib/thumb/v6-m\libg_nano.a(lib_a-impure.o)
                0x200023e8                . = ALIGN (0x4)
                0x200023e8                PROVIDE (__preinit_array_start, .)
 *(.preinit_array)
                0x200023e8                PROVIDE (__preinit_array_end, .)
                0x200023e8                . = ALIGN (0x4)
                0x200023e8                PROVIDE (__init_array_start, .)
 *(SORT(.init_array.*))
 *(.init_array)
 .init_array    0x200023e8        0x4 c:/a/gcc_arm/6/bin/../lib/gcc/arm-none-eabi/6.3.1/thumb/v6-m/crtbegin.o
                0x200023ec                PROVIDE (__init_array_end, .)
                0x200023ec                . = ALIGN (0x4)
                [!provide]                PROVIDE (__fini_array_start, .)
 *(SORT(.fini_array.*))
 *(.fini_array)
 .fini_array    0x200023ec        0x4 c:/a/gcc_arm/6/bin/../lib/gcc/arm-none-eabi/6.3.1/thumb/v6-m/crtbegin.o
                [!provide]                PROVIDE (__fini_array_end, .)
 *(.jcr*)
 .jcr           0x200023f0        0x0 c:/a/gcc_arm/6/bin/../lib/gcc/arm-none-eabi/6.3.1/thumb/v6-m/crtbegin.o
 .jcr           0x200023f0        0x4 c:/a/gcc_arm/6/bin/../lib/gcc/arm-none-eabi/6.3.1/thumb/v6-m/crtend.o
                0x200023f4                . = ALIGN (0x4)
                0x200023f4                __data_end__ = .
LOAD c:/a/gcc_arm/6/bin/../lib/gcc/arm-none-eabi/6.3.1/thumb/v6-m/crti.o
LOAD c:/a/gcc_arm/6/bin/../lib/gcc/arm-none-eabi/6.3.1/thumb/v6-m/crtbegin.o
LOAD c:/a/gcc_arm/6/bin/../lib/gcc/arm-none-eabi/6.3.1/../../../../arm-none-eabi/lib/thumb/v6-m/crt0.o
LOAD examples/light_switch/client/CMakeFiles/light_switch_client_nrf51422_xxAC_s130_2.0.1.dir/src/main.c.obj
LOAD examples/light_switch/client/CMakeFiles/light_switch_client_nrf51422_xxAC_s130_2.0.1.dir/src/provisioner.c.obj
LOAD examples/light_switch/client/CMakeFiles/light_switch_client_nrf51422_xxAC_s130_2.0.1.dir/__/__/nrf_mesh_sdk.c.obj
LOAD examples/light_switch/client/CMakeFiles/light_switch_client_nrf51422_xxAC_s130_2.0.1.dir/__/__/common/src/rtt_input.c.obj
LOAD examples/light_switch/client/CMakeFiles/light_switch_client_nrf51422_xxAC_s130_2.0.1.dir/__/__/common/src/simple_hal.c.obj
LOAD examples/light_switch/client/CMakeFiles/light_switch_client_nrf51422_xxAC_s130_2.0.1.dir/__/__/nrf_mesh_weak.c.obj
LOAD examples/light_switch/client/CMakeFiles/light_switch_client_nrf51422_xxAC_s130_2.0.1.dir/__/__/__/models/simple_on_off/src/simple_on_off_client.c.obj
LOAD examples/light_switch/client/CMakeFiles/light_switch_client_nrf51422_xxAC_s130_2.0.1.dir/__/__/__/models/config/src/config_client.c.obj
LOAD examples/light_switch/client/CMakeFiles/light_switch_client_nrf51422_xxAC_s130_2.0.1.dir/__/__/__/models/health/src/health_client.c.obj
LOAD examples/light_switch/client/CMakeFiles/light_switch_client_nrf51422_xxAC_s130_2.0.1.dir/__/__/__/mesh/access/src/access_publish.c.obj
LOAD examples/light_switch/client/CMakeFiles/light_switch_client_nrf51422_xxAC_s130_2.0.1.dir/__/__/__/mesh/access/src/access.c.obj
LOAD examples/light_switch/client/CMakeFiles/light_switch_client_nrf51422_xxAC_s130_2.0.1.dir/__/__/__/mesh/access/src/access_reliable.c.obj
LOAD examples/light_switch/client/CMakeFiles/light_switch_client_nrf51422_xxAC_s130_2.0.1.dir/__/__/__/mesh/access/src/device_state_manager.c.obj
LOAD examples/light_switch/client/CMakeFiles/light_switch_client_nrf51422_xxAC_s130_2.0.1.dir/__/__/__/mesh/prov/src/prov_provisioner.c.obj
LOAD examples/light_switch/client/CMakeFiles/light_switch_client_nrf51422_xxAC_s130_2.0.1.dir/__/__/__/mesh/prov/src/nrf_mesh_prov.c.obj
LOAD examples/light_switch/client/CMakeFiles/light_switch_client_nrf51422_xxAC_s130_2.0.1.dir/__/__/__/mesh/prov/src/provisioning.c.obj
LOAD examples/light_switch/client/CMakeFiles/light_switch_client_nrf51422_xxAC_s130_2.0.1.dir/__/__/__/mesh/prov/src/prov_beacon.c.obj
LOAD examples/light_switch/client/CMakeFiles/light_switch_client_nrf51422_xxAC_s130_2.0.1.dir/__/__/__/mesh/prov/src/prov_utils.c.obj
LOAD examples/light_switch/client/CMakeFiles/light_switch_client_nrf51422_xxAC_s130_2.0.1.dir/__/__/__/mesh/prov/src/prov_bearer_adv.c.obj
LOAD examples/light_switch/client/CMakeFiles/light_switch_client_nrf51422_xxAC_s130_2.0.1.dir/__/__/__/external/nRF5_SDK_14.2.0_17b948a/components/toolchain/system_nrf51.c.obj
LOAD examples/light_switch/client/CMakeFiles/light_switch_client_nrf51422_xxAC_s130_2.0.1.dir/__/__/__/external/nRF5_SDK_14.2.0_17b948a/components/toolchain/gcc/gcc_startup_nrf51.S.obj
LOAD mesh/core/libmesh_core_nrf51422_xxAC.a
LOAD external/rtt/librtt_nrf51422_xxAC.a
LOAD external/micro-ecc/libuECC_nrf51422_xxAC.a
START GROUP
LOAD c:/a/gcc_arm/6/bin/../lib/gcc/arm-none-eabi/6.3.1/thumb/v6-m\libgcc.a
LOAD c:/a/gcc_arm/6/bin/../lib/gcc/arm-none-eabi/6.3.1/../../../../arm-none-eabi/lib/thumb/v6-m\libg_nano.a
LOAD c:/a/gcc_arm/6/bin/../lib/gcc/arm-none-eabi/6.3.1/../../../../arm-none-eabi/lib/thumb/v6-m\libc_nano.a
END GROUP
START GROUP
LOAD c:/a/gcc_arm/6/bin/../lib/gcc/arm-none-eabi/6.3.1/thumb/v6-m\libgcc.a
LOAD c:/a/gcc_arm/6/bin/../lib/gcc/arm-none-eabi/6.3.1/../../../../arm-none-eabi/lib/thumb/v6-m\libc_nano.a
END GROUP
LOAD c:/a/gcc_arm/6/bin/../lib/gcc/arm-none-eabi/6.3.1/thumb/v6-m/crtend.o
LOAD c:/a/gcc_arm/6/bin/../lib/gcc/arm-none-eabi/6.3.1/thumb/v6-m/crtn.o
START GROUP
LOAD c:/a/gcc_arm/6/bin/../lib/gcc/arm-none-eabi/6.3.1/thumb/v6-m\libgcc.a
LOAD c:/a/gcc_arm/6/bin/../lib/gcc/arm-none-eabi/6.3.1/../../../../arm-none-eabi/lib/thumb/v6-m\libc.a
LOAD c:/a/gcc_arm/6/bin/../lib/gcc/arm-none-eabi/6.3.1/../../../../arm-none-eabi/lib/thumb/v6-m\libnosys.a
END GROUP

.igot.plt       0x200023f4        0x0 load address 0x0002ddac
 .igot.plt      0x200023f4        0x0 c:/a/gcc_arm/6/bin/../lib/gcc/arm-none-eabi/6.3.1/thumb/v6-m/crtbegin.o
                0x200023f4                . = ALIGN (0x4)

.svc_data       0x200023f4        0x0
                [!provide]                PROVIDE (__start_svc_data, .)
 *(.svc_data)
                [!provide]                PROVIDE (__stop_svc_data, .)

.fs_data        0x200023f4        0x0
                [!provide]                PROVIDE (__start_fs_data, .)
 *(.fs_data)
                [!provide]                PROVIDE (__stop_fs_data, .)

.log_dynamic_data
                0x200023f4        0x0
                [!provide]                PROVIDE (__start_log_dynamic_data, .)
 *(.log_dynamic_data)
                [!provide]                PROVIDE (__stop_log_dynamic_data, .)

.cli_sorted_cmd_ptrs
                0x200023f4        0x0
                [!provide]                PROVIDE (__start_cli_sorted_cmd_ptrs, .)
 *(.cli_sorted_cmd_ptrs)
                [!provide]                PROVIDE (__stop_cli_sorted_cmd_ptrs, .)

.bss            0x200023f8     0x3094 load address 0x0002ddb0
                0x200023f8                . = ALIGN (0x4)
                0x200023f8                __bss_start__ = .
 *(.bss*)
 .bss           0x200023f8       0x1c c:/a/gcc_arm/6/bin/../lib/gcc/arm-none-eabi/6.3.1/thumb/v6-m/crtbegin.o
 .bss.m_appkey_handle
                0x20002414        0x2 examples/light_switch/client/CMakeFiles/light_switch_client_nrf51422_xxAC_s130_2.0.1.dir/src/main.c.obj
 *fill*         0x20002416        0x2 
 .bss.m_clients
                0x20002418       0x30 examples/light_switch/client/CMakeFiles/light_switch_client_nrf51422_xxAC_s130_2.0.1.dir/src/main.c.obj
 .bss.m_configured_devices
                0x20002448        0x2 examples/light_switch/client/CMakeFiles/light_switch_client_nrf51422_xxAC_s130_2.0.1.dir/src/main.c.obj
 .bss.m_devkey_handles
                0x2000244a        0x6 examples/light_switch/client/CMakeFiles/light_switch_client_nrf51422_xxAC_s130_2.0.1.dir/src/main.c.obj
 .bss.m_group_handle
                0x20002450        0x2 examples/light_switch/client/CMakeFiles/light_switch_client_nrf51422_xxAC_s130_2.0.1.dir/src/main.c.obj
 *fill*         0x20002452        0x2 
 .bss.m_health_client
                0x20002454       0x10 examples/light_switch/client/CMakeFiles/light_switch_client_nrf51422_xxAC_s130_2.0.1.dir/src/main.c.obj
 .bss.m_netkey_handle
                0x20002464        0x2 examples/light_switch/client/CMakeFiles/light_switch_client_nrf51422_xxAC_s130_2.0.1.dir/src/main.c.obj
 .bss.m_provisioned_devices
                0x20002466        0x2 examples/light_switch/client/CMakeFiles/light_switch_client_nrf51422_xxAC_s130_2.0.1.dir/src/main.c.obj
 .bss.m_server_handles
                0x20002468        0x6 examples/light_switch/client/CMakeFiles/light_switch_client_nrf51422_xxAC_s130_2.0.1.dir/src/main.c.obj
 .bss.m_private_key
                0x2000246e       0x20 examples/light_switch/client/CMakeFiles/light_switch_client_nrf51422_xxAC_s130_2.0.1.dir/src/provisioner.c.obj
 *fill*         0x2000248e        0x2 
 .bss.m_prov_bearer_adv
                0x20002490      0x1c0 examples/light_switch/client/CMakeFiles/light_switch_client_nrf51422_xxAC_s130_2.0.1.dir/src/provisioner.c.obj
 .bss.m_prov_ctx
                0x20002650      0x130 examples/light_switch/client/CMakeFiles/light_switch_client_nrf51422_xxAC_s130_2.0.1.dir/src/provisioner.c.obj
 .bss.m_prov_state
                0x20002780        0x1 examples/light_switch/client/CMakeFiles/light_switch_client_nrf51422_xxAC_s130_2.0.1.dir/src/provisioner.c.obj
 .bss.m_public_key
                0x20002781       0x40 examples/light_switch/client/CMakeFiles/light_switch_client_nrf51422_xxAC_s130_2.0.1.dir/src/provisioner.c.obj
 *fill*         0x200027c1        0x1 
 .bss.m_target_address
                0x200027c2        0x2 examples/light_switch/client/CMakeFiles/light_switch_client_nrf51422_xxAC_s130_2.0.1.dir/src/provisioner.c.obj
 .bss.m_ble_evt_buffer
                0x200027c4       0x47 examples/light_switch/client/CMakeFiles/light_switch_client_nrf51422_xxAC_s130_2.0.1.dir/__/__/nrf_mesh_sdk.c.obj
 *fill*         0x2000280b        0x1 
 .bss.m_rtt_input_handler
                0x2000280c        0x4 examples/light_switch/client/CMakeFiles/light_switch_client_nrf51422_xxAC_s130_2.0.1.dir/__/__/common/src/rtt_input.c.obj
 .bss.m_button_handler_cb
                0x20002810        0x4 examples/light_switch/client/CMakeFiles/light_switch_client_nrf51422_xxAC_s130_2.0.1.dir/__/__/common/src/simple_hal.c.obj
 .bss.m_last_button_press
                0x20002814        0x4 examples/light_switch/client/CMakeFiles/light_switch_client_nrf51422_xxAC_s130_2.0.1.dir/__/__/common/src/simple_hal.c.obj
 .bss.m_tid     0x20002818        0x1 examples/light_switch/client/CMakeFiles/light_switch_client_nrf51422_xxAC_s130_2.0.1.dir/__/__/__/models/simple_on_off/src/simple_on_off_client.c.obj
 *fill*         0x20002819        0x3 
 .bss.m_client  0x2000281c        0x8 examples/light_switch/client/CMakeFiles/light_switch_client_nrf51422_xxAC_s130_2.0.1.dir/__/__/__/models/config/src/config_client.c.obj
 .bss.mp_packet_buffer
                0x20002824        0x4 examples/light_switch/client/CMakeFiles/light_switch_client_nrf51422_xxAC_s130_2.0.1.dir/__/__/__/models/config/src/config_client.c.obj
 .bss.m_publish_timer
                0x20002828       0x18 examples/light_switch/client/CMakeFiles/light_switch_client_nrf51422_xxAC_s130_2.0.1.dir/__/__/__/mesh/access/src/access_publish.c.obj
 .bss.m_publish_timer_counter
                0x20002840        0x4 examples/light_switch/client/CMakeFiles/light_switch_client_nrf51422_xxAC_s130_2.0.1.dir/__/__/__/mesh/access/src/access_publish.c.obj
 .bss.m_publish_timer_running
                0x20002844        0x1 examples/light_switch/client/CMakeFiles/light_switch_client_nrf51422_xxAC_s130_2.0.1.dir/__/__/__/mesh/access/src/access_publish.c.obj
 .bss.m_timer_resolution
                0x20002845        0x1 examples/light_switch/client/CMakeFiles/light_switch_client_nrf51422_xxAC_s130_2.0.1.dir/__/__/__/mesh/access/src/access_publish.c.obj
 *fill*         0x20002846        0x2 
 .bss.mp_publication_list
                0x20002848        0x4 examples/light_switch/client/CMakeFiles/light_switch_client_nrf51422_xxAC_s130_2.0.1.dir/__/__/__/mesh/access/src/access_publish.c.obj
 .bss.m_element_pool
                0x2000284c       0x18 examples/light_switch/client/CMakeFiles/light_switch_client_nrf51422_xxAC_s130_2.0.1.dir/__/__/__/mesh/access/src/access.c.obj
 .bss.m_evt_handler
                0x20002864        0x8 examples/light_switch/client/CMakeFiles/light_switch_client_nrf51422_xxAC_s130_2.0.1.dir/__/__/__/mesh/access/src/access.c.obj
 .bss.m_flash_manager
                0x2000286c       0x24 examples/light_switch/client/CMakeFiles/light_switch_client_nrf51422_xxAC_s130_2.0.1.dir/__/__/__/mesh/access/src/access.c.obj
 .bss.m_flash_not_ready
                0x20002890        0x1 examples/light_switch/client/CMakeFiles/light_switch_client_nrf51422_xxAC_s130_2.0.1.dir/__/__/__/mesh/access/src/access.c.obj
 .bss.m_metadata_stored
                0x20002891        0x1 examples/light_switch/client/CMakeFiles/light_switch_client_nrf51422_xxAC_s130_2.0.1.dir/__/__/__/mesh/access/src/access.c.obj
 *fill*         0x20002892        0x2 
 .bss.m_model_pool
                0x20002894      0x138 examples/light_switch/client/CMakeFiles/light_switch_client_nrf51422_xxAC_s130_2.0.1.dir/__/__/__/mesh/access/src/access.c.obj
 .bss.m_subscription_list_pool
                0x200029cc       0x30 examples/light_switch/client/CMakeFiles/light_switch_client_nrf51422_xxAC_s130_2.0.1.dir/__/__/__/mesh/access/src/access.c.obj
 .bss.m_reliable
                0x200029fc      0x124 examples/light_switch/client/CMakeFiles/light_switch_client_nrf51422_xxAC_s130_2.0.1.dir/__/__/__/mesh/access/src/access_reliable.c.obj
 .bss.m_addr_nonvirtual_allocated
                0x20002b20        0x4 examples/light_switch/client/CMakeFiles/light_switch_client_nrf51422_xxAC_s130_2.0.1.dir/__/__/__/mesh/access/src/device_state_manager.c.obj
 .bss.m_addr_nonvirtual_needs_flashing
                0x20002b24        0x4 examples/light_switch/client/CMakeFiles/light_switch_client_nrf51422_xxAC_s130_2.0.1.dir/__/__/__/mesh/access/src/device_state_manager.c.obj
 .bss.m_addr_unicast_allocated
                0x20002b28        0x4 examples/light_switch/client/CMakeFiles/light_switch_client_nrf51422_xxAC_s130_2.0.1.dir/__/__/__/mesh/access/src/device_state_manager.c.obj
 .bss.m_addr_unicast_needs_flashing
                0x20002b2c        0x4 examples/light_switch/client/CMakeFiles/light_switch_client_nrf51422_xxAC_s130_2.0.1.dir/__/__/__/mesh/access/src/device_state_manager.c.obj
 .bss.m_addr_virtual_allocated
                0x20002b30        0x4 examples/light_switch/client/CMakeFiles/light_switch_client_nrf51422_xxAC_s130_2.0.1.dir/__/__/__/mesh/access/src/device_state_manager.c.obj
 .bss.m_addr_virtual_needs_flashing
                0x20002b34        0x4 examples/light_switch/client/CMakeFiles/light_switch_client_nrf51422_xxAC_s130_2.0.1.dir/__/__/__/mesh/access/src/device_state_manager.c.obj
 .bss.m_addresses
                0x20002b38       0x10 examples/light_switch/client/CMakeFiles/light_switch_client_nrf51422_xxAC_s130_2.0.1.dir/__/__/__/mesh/access/src/device_state_manager.c.obj
 .bss.m_appkey_allocated
                0x20002b48        0x4 examples/light_switch/client/CMakeFiles/light_switch_client_nrf51422_xxAC_s130_2.0.1.dir/__/__/__/mesh/access/src/device_state_manager.c.obj
 .bss.m_appkey_needs_flashing
                0x20002b4c        0x4 examples/light_switch/client/CMakeFiles/light_switch_client_nrf51422_xxAC_s130_2.0.1.dir/__/__/__/mesh/access/src/device_state_manager.c.obj
 .bss.m_appkeys
                0x20002b50       0x2a examples/light_switch/client/CMakeFiles/light_switch_client_nrf51422_xxAC_s130_2.0.1.dir/__/__/__/mesh/access/src/device_state_manager.c.obj
 *fill*         0x20002b7a        0x2 
 .bss.m_devkey_allocated
                0x20002b7c        0x4 examples/light_switch/client/CMakeFiles/light_switch_client_nrf51422_xxAC_s130_2.0.1.dir/__/__/__/mesh/access/src/device_state_manager.c.obj
 .bss.m_devkey_needs_flashing
                0x20002b80        0x4 examples/light_switch/client/CMakeFiles/light_switch_client_nrf51422_xxAC_s130_2.0.1.dir/__/__/__/mesh/access/src/device_state_manager.c.obj
 .bss.m_devkeys
                0x20002b84       0x42 examples/light_switch/client/CMakeFiles/light_switch_client_nrf51422_xxAC_s130_2.0.1.dir/__/__/__/mesh/access/src/device_state_manager.c.obj
 .bss.m_flash_is_available
                0x20002bc6        0x1 examples/light_switch/client/CMakeFiles/light_switch_client_nrf51422_xxAC_s130_2.0.1.dir/__/__/__/mesh/access/src/device_state_manager.c.obj
 *fill*         0x20002bc7        0x1 
 .bss.m_flash_manager
                0x20002bc8       0x24 examples/light_switch/client/CMakeFiles/light_switch_client_nrf51422_xxAC_s130_2.0.1.dir/__/__/__/mesh/access/src/device_state_manager.c.obj
 .bss.m_flash_mem_listener_update_all
                0x20002bec       0x10 examples/light_switch/client/CMakeFiles/light_switch_client_nrf51422_xxAC_s130_2.0.1.dir/__/__/__/mesh/access/src/device_state_manager.c.obj
 .bss.m_has_primary_subnet
                0x20002bfc        0x1 examples/light_switch/client/CMakeFiles/light_switch_client_nrf51422_xxAC_s130_2.0.1.dir/__/__/__/mesh/access/src/device_state_manager.c.obj
 *fill*         0x20002bfd        0x1 
 .bss.m_local_unicast_addr
                0x20002bfe        0x4 examples/light_switch/client/CMakeFiles/light_switch_client_nrf51422_xxAC_s130_2.0.1.dir/__/__/__/mesh/access/src/device_state_manager.c.obj
 *fill*         0x20002c02        0x2 
 .bss.m_subnet_allocated
                0x20002c04        0x4 examples/light_switch/client/CMakeFiles/light_switch_client_nrf51422_xxAC_s130_2.0.1.dir/__/__/__/mesh/access/src/device_state_manager.c.obj
 .bss.m_subnet_needs_flashing
                0x20002c08        0x4 examples/light_switch/client/CMakeFiles/light_switch_client_nrf51422_xxAC_s130_2.0.1.dir/__/__/__/mesh/access/src/device_state_manager.c.obj
 .bss.m_subnets
                0x20002c0c       0xac examples/light_switch/client/CMakeFiles/light_switch_client_nrf51422_xxAC_s130_2.0.1.dir/__/__/__/mesh/access/src/device_state_manager.c.obj
 .bss.m_virtual_addresses
                0x20002cb8       0x14 examples/light_switch/client/CMakeFiles/light_switch_client_nrf51422_xxAC_s130_2.0.1.dir/__/__/__/mesh/access/src/device_state_manager.c.obj
 .bss.m_event_handler
                0x20002ccc        0x4 examples/light_switch/client/CMakeFiles/light_switch_client_nrf51422_xxAC_s130_2.0.1.dir/__/__/__/mesh/prov/src/prov_beacon.c.obj
 .bss.m_offload_ecdh
                0x20002cd0        0x1 examples/light_switch/client/CMakeFiles/light_switch_client_nrf51422_xxAC_s130_2.0.1.dir/__/__/__/mesh/prov/src/prov_utils.c.obj
 *fill*         0x20002cd1        0x3 
 .bss.mp_bearer_head
                0x20002cd4        0x4 examples/light_switch/client/CMakeFiles/light_switch_client_nrf51422_xxAC_s130_2.0.1.dir/__/__/__/mesh/prov/src/prov_bearer_adv.c.obj
 .bss.m_uuid    0x20002cd8       0x10 mesh/core/libmesh_core_nrf51422_xxAC.a(nrf_mesh_configure.c.obj)
 .bss.mp_evt_handlers_head
                0x20002ce8        0x4 mesh/core/libmesh_core_nrf51422_xxAC.a(event.c.obj)
 .bss.m_pool    0x20002cec     0x1000 mesh/core/libmesh_core_nrf51422_xxAC.a(packet_mgr.c.obj)
 .bss.mp_free_head
                0x20003cec        0x4 mesh/core/libmesh_core_nrf51422_xxAC.a(packet_mgr.c.obj)
 .bss.lock_count.7227
                0x20003cf0        0x4 mesh/core/libmesh_core_nrf51422_xxAC.a(net_state.c.obj)
 .bss.m_flash_manager
                0x20003cf4       0x24 mesh/core/libmesh_core_nrf51422_xxAC.a(net_state.c.obj)
 .bss.m_iv_update_timer
                0x20003d18       0x18 mesh/core/libmesh_core_nrf51422_xxAC.a(net_state.c.obj)
 .bss.m_net_state
                0x20003d30       0x14 mesh/core/libmesh_core_nrf51422_xxAC.a(net_state.c.obj)
 .bss.m_seqnum_allocation_in_progress
                0x20003d44        0x1 mesh/core/libmesh_core_nrf51422_xxAC.a(net_state.c.obj)
 .bss.m_test_mode
                0x20003d45        0x1 mesh/core/libmesh_core_nrf51422_xxAC.a(net_state.c.obj)
 .bss.m_is_enabled
                0x20003d46        0x1 mesh/core/libmesh_core_nrf51422_xxAC.a(nrf_mesh.c.obj)
 .bss.m_is_initialized
                0x20003d47        0x1 mesh/core/libmesh_core_nrf51422_xxAC.a(nrf_mesh.c.obj)
 .bss.m_rx_cb   0x20003d48        0x4 mesh/core/libmesh_core_nrf51422_xxAC.a(nrf_mesh.c.obj)
 .bss.m_event_flag
                0x20003d4c        0x4 mesh/core/libmesh_core_nrf51422_xxAC.a(timer_scheduler.c.obj)
 .bss.m_scheduler
                0x20003d50       0x10 mesh/core/libmesh_core_nrf51422_xxAC.a(timer_scheduler.c.obj)
 .bss.m_attributes
                0x20003d60        0x3 mesh/core/libmesh_core_nrf51422_xxAC.a(timer.c.obj)
 *fill*         0x20003d63        0x1 
 .bss.m_callbacks
                0x20003d64        0xc mesh/core/libmesh_core_nrf51422_xxAC.a(timer.c.obj)
 .bss.m_is_in_ts
                0x20003d70        0x1 mesh/core/libmesh_core_nrf51422_xxAC.a(timer.c.obj)
 *fill*         0x20003d71        0x3 
 .bss.m_reference_time
                0x20003d74        0x4 mesh/core/libmesh_core_nrf51422_xxAC.a(timer.c.obj)
 .bss.m_timeouts
                0x20003d78        0xc mesh/core/libmesh_core_nrf51422_xxAC.a(timer.c.obj)
 .bss.m_timer_mut
                0x20003d84        0x4 mesh/core/libmesh_core_nrf51422_xxAC.a(timer.c.obj)
 .bss.m_ts_end_time
                0x20003d88        0x4 mesh/core/libmesh_core_nrf51422_xxAC.a(timer.c.obj)
 .bss.mp_ppi_tasks
                0x20003d8c        0xc mesh/core/libmesh_core_nrf51422_xxAC.a(timer.c.obj)
 .bss.m_current_time
                0x20003d98        0x4 mesh/core/libmesh_core_nrf51422_xxAC.a(ticker.c.obj)
 .bss.m_timer   0x20003d9c       0x18 mesh/core/libmesh_core_nrf51422_xxAC.a(ticker.c.obj)
 .bss.m_current_timeslot
                0x20003db4       0x1c mesh/core/libmesh_core_nrf51422_xxAC.a(timeslot.c.obj)
 .bss.m_lfclk_ppm
                0x20003dd0        0x4 mesh/core/libmesh_core_nrf51422_xxAC.a(timeslot.c.obj)
 .bss.m_radio_request_earliest
                0x20003dd4       0x10 mesh/core/libmesh_core_nrf51422_xxAC.a(timeslot.c.obj)
 .bss.m_state_lock
                0x20003de4        0x1 mesh/core/libmesh_core_nrf51422_xxAC.a(timeslot.c.obj)
 .bss.m_timeslot_forced_command
                0x20003de5        0x1 mesh/core/libmesh_core_nrf51422_xxAC.a(timeslot.c.obj)
 *fill*         0x20003de6        0x2 
 .bss.s_last_rtc_value.6691
                0x20003de8        0x8 mesh/core/libmesh_core_nrf51422_xxAC.a(timeslot.c.obj)
 .bss.m_bearer_event_fifo
                0x20003df0       0x14 mesh/core/libmesh_core_nrf51422_xxAC.a(bearer_event.c.obj)
 .bss.m_bearer_event_fifo_buffer
                0x20003e04      0x100 mesh/core/libmesh_core_nrf51422_xxAC.a(bearer_event.c.obj)
 .bss.m_critical
                0x20003f04        0x4 mesh/core/libmesh_core_nrf51422_xxAC.a(bearer_event.c.obj)
 .bss.m_flag_count
                0x20003f08        0x4 mesh/core/libmesh_core_nrf51422_xxAC.a(bearer_event.c.obj)
 .bss.m_flag_event_callbacks
                0x20003f0c       0x20 mesh/core/libmesh_core_nrf51422_xxAC.a(bearer_event.c.obj)
 .bss.m_flags   0x20003f2c        0x4 mesh/core/libmesh_core_nrf51422_xxAC.a(bearer_event.c.obj)
 .bss.m_irq_priority
                0x20003f30        0x1 mesh/core/libmesh_core_nrf51422_xxAC.a(bearer_event.c.obj)
 *fill*         0x20003f31        0x3 
 .bss.m_sequential_event_queue
                0x20003f34        0x8 mesh/core/libmesh_core_nrf51422_xxAC.a(bearer_event.c.obj)
 .bss.s_recursion_guard.6813
                0x20003f3c        0x1 mesh/core/libmesh_core_nrf51422_xxAC.a(bearer_event.c.obj)
 *fill*         0x20003f3d        0x3 
 .bss.m_relay_check_cb
                0x20003f40        0x4 mesh/core/libmesh_core_nrf51422_xxAC.a(network.c.obj)
 .bss.m_relay_enable
                0x20003f44        0x1 mesh/core/libmesh_core_nrf51422_xxAC.a(network.c.obj)
 *fill*         0x20003f45        0x3 
 .bss.m_action_queue
                0x20003f48        0xc mesh/core/libmesh_core_nrf51422_xxAC.a(flash_manager.c.obj)
 .bss.m_action_queue_buffer
                0x20003f54      0x104 mesh/core/libmesh_core_nrf51422_xxAC.a(flash_manager.c.obj)
 .bss.m_action_state
                0x20004058        0x1 mesh/core/libmesh_core_nrf51422_xxAC.a(flash_manager.c.obj)
 *fill*         0x20004059        0x3 
 .bss.m_memory_listener_queue
                0x2000405c        0x8 mesh/core/libmesh_core_nrf51422_xxAC.a(flash_manager.c.obj)
 .bss.m_processing_flag
                0x20004064        0x4 mesh/core/libmesh_core_nrf51422_xxAC.a(flash_manager.c.obj)
 .bss.m_queue_empty_cb
                0x20004068        0x4 mesh/core/libmesh_core_nrf51422_xxAC.a(flash_manager.c.obj)
 .bss.m_state   0x2000406c        0x1 mesh/core/libmesh_core_nrf51422_xxAC.a(flash_manager.c.obj)
 *fill*         0x2000406d        0x1 
 .bss.m_token   0x2000406e        0x2 mesh/core/libmesh_core_nrf51422_xxAC.a(flash_manager.c.obj)
 .bss.p_current.8541
                0x20004070        0x4 mesh/core/libmesh_core_nrf51422_xxAC.a(flash_manager.c.obj)
 .bss.result.8542
                0x20004074        0x1 mesh/core/libmesh_core_nrf51422_xxAC.a(flash_manager.c.obj)
 *fill*         0x20004075        0x3 
 .bss.m_adv_buffer
                0x20004078       0x68 mesh/core/libmesh_core_nrf51422_xxAC.a(beacon.c.obj)
 .bss.m_advertiser
                0x200040e0       0x94 mesh/core/libmesh_core_nrf51422_xxAC.a(beacon.c.obj)
 .bss.m_bearers
                0x20004174        0x4 mesh/core/libmesh_core_nrf51422_xxAC.a(core_tx.c.obj)
 .bss.m_tx_complete_callback
                0x20004178        0x4 mesh/core/libmesh_core_nrf51422_xxAC.a(core_tx.c.obj)
 .bss.m_hb_core_evt_handler
                0x2000417c        0x8 mesh/core/libmesh_core_nrf51422_xxAC.a(heartbeat.c.obj)
 .bss.m_hb_pending_feat_msg
                0x20004184        0x1 mesh/core/libmesh_core_nrf51422_xxAC.a(heartbeat.c.obj)
 .bss.m_hb_pending_pub_msg
                0x20004185        0x1 mesh/core/libmesh_core_nrf51422_xxAC.a(heartbeat.c.obj)
 .bss.m_heartbeat_init_done
                0x20004186        0x1 mesh/core/libmesh_core_nrf51422_xxAC.a(heartbeat.c.obj)
 *fill*         0x20004187        0x1 
 .bss.m_heartbeat_subscription
                0x20004188       0x10 mesh/core/libmesh_core_nrf51422_xxAC.a(heartbeat.c.obj)
 .bss.m_publication_count_decrement_cb
                0x20004198        0x4 mesh/core/libmesh_core_nrf51422_xxAC.a(heartbeat.c.obj)
 .bss.m_publication_get_cb
                0x2000419c        0x4 mesh/core/libmesh_core_nrf51422_xxAC.a(heartbeat.c.obj)
 .bss.m_publication_timer
                0x200041a0       0x1c mesh/core/libmesh_core_nrf51422_xxAC.a(heartbeat.c.obj)
 .bss.m_subscription_timer
                0x200041bc       0x18 mesh/core/libmesh_core_nrf51422_xxAC.a(heartbeat.c.obj)
 .bss.m_beacon_salt
                0x200041d4       0x10 mesh/core/libmesh_core_nrf51422_xxAC.a(net_beacon.c.obj)
 .bss.m_enabled
                0x200041e4        0x1 mesh/core/libmesh_core_nrf51422_xxAC.a(net_beacon.c.obj)
 *fill*         0x200041e5        0x3 
 .bss.m_tx_event
                0x200041e8       0x18 mesh/core/libmesh_core_nrf51422_xxAC.a(net_beacon.c.obj)
 .bss.m_adv_tx_count
                0x20004200        0x8 mesh/core/libmesh_core_nrf51422_xxAC.a(core_tx_adv.c.obj)
 .bss.m_advertisers
                0x20004208      0x128 mesh/core/libmesh_core_nrf51422_xxAC.a(core_tx_adv.c.obj)
 .bss.m_originator_adv_packet_buffer
                0x20004330      0x100 mesh/core/libmesh_core_nrf51422_xxAC.a(core_tx_adv.c.obj)
 .bss.m_relay_adv_packet_buffer
                0x20004430       0x80 mesh/core/libmesh_core_nrf51422_xxAC.a(core_tx_adv.c.obj)
 .bss.m_subscribers
                0x200044b0        0x4 mesh/core/libmesh_core_nrf51422_xxAC.a(ad_listener.c.obj)
 .bss.m_adtype_filter
                0x200044b4       0x38 mesh/core/libmesh_core_nrf51422_xxAC.a(ad_type_filter.c.obj)
 .bss.m_adv_prng
                0x200044ec       0x10 mesh/core/libmesh_core_nrf51422_xxAC.a(advertiser.c.obj)
 .bss.m_action_queue
                0x200044fc        0x8 mesh/core/libmesh_core_nrf51422_xxAC.a(bearer_handler.c.obj)
 .bss.m_end_time
                0x20004504        0x4 mesh/core/libmesh_core_nrf51422_xxAC.a(bearer_handler.c.obj)
 .bss.m_scanner_is_active
                0x20004508        0x1 mesh/core/libmesh_core_nrf51422_xxAC.a(bearer_handler.c.obj)
 .bss.m_stopped
                0x20004509        0x1 mesh/core/libmesh_core_nrf51422_xxAC.a(bearer_handler.c.obj)
 *fill*         0x2000450a        0x2 
 .bss.mp_action
                0x2000450c        0x4 mesh/core/libmesh_core_nrf51422_xxAC.a(bearer_handler.c.obj)
 .bss.m_next_channel_index
                0x20004510        0x1 mesh/core/libmesh_core_nrf51422_xxAC.a(broadcast.c.obj)
 *fill*         0x20004511        0x3 
 .bss.m_accepted_amount
                0x20004514        0x4 mesh/core/libmesh_core_nrf51422_xxAC.a(filter_engine.c.obj)
 .bss.m_filter_list_head
                0x20004518        0x4 mesh/core/libmesh_core_nrf51422_xxAC.a(filter_engine.c.obj)
 .bss.m_scanner
                0x2000451c      0x28c mesh/core/libmesh_core_nrf51422_xxAC.a(scanner.c.obj)
 .bss.m_internal_event_fifo
                0x200047a8       0x14 mesh/core/libmesh_core_nrf51422_xxAC.a(internal_event.c.obj)
 .bss.m_internal_event_initialized
                0x200047bc        0x1 mesh/core/libmesh_core_nrf51422_xxAC.a(internal_event.c.obj)
 *fill*         0x200047bd        0x3 
 .bss.m_report_cb
                0x200047c0        0x4 mesh/core/libmesh_core_nrf51422_xxAC.a(internal_event.c.obj)
 .bss.m_msg_cache
                0x200047c4      0x100 mesh/core/libmesh_core_nrf51422_xxAC.a(msg_cache.c.obj)
 .bss.m_msg_cache_head
                0x200048c4        0x4 mesh/core/libmesh_core_nrf51422_xxAC.a(msg_cache.c.obj)
 .bss.m_control_packet_consumer_count
                0x200048c8        0x4 mesh/core/libmesh_core_nrf51422_xxAC.a(transport.c.obj)
 .bss.m_control_packet_consumers
                0x200048cc        0x8 mesh/core/libmesh_core_nrf51422_xxAC.a(transport.c.obj)
 .bss.m_sar_alloc
                0x200048d4        0x4 mesh/core/libmesh_core_nrf51422_xxAC.a(transport.c.obj)
 .bss.m_sar_process_flag
                0x200048d8        0x4 mesh/core/libmesh_core_nrf51422_xxAC.a(transport.c.obj)
 .bss.m_sar_release
                0x200048dc        0x4 mesh/core/libmesh_core_nrf51422_xxAC.a(transport.c.obj)
 .bss.m_sar_session_cache
                0x200048e0       0x40 mesh/core/libmesh_core_nrf51422_xxAC.a(transport.c.obj)
 .bss.m_sar_session_cache_head
                0x20004920        0x4 mesh/core/libmesh_core_nrf51422_xxAC.a(transport.c.obj)
 .bss.m_trs_config
                0x20004924       0x18 mesh/core/libmesh_core_nrf51422_xxAC.a(transport.c.obj)
 .bss.m_trs_sar_sessions
                0x2000493c      0x1b0 mesh/core/libmesh_core_nrf51422_xxAC.a(transport.c.obj)
 .bss.m_defrag  0x20004aec       0x1c mesh/core/libmesh_core_nrf51422_xxAC.a(flash_manager_defrag.c.obj)
 .bss.m_token   0x20004b08        0x2 mesh/core/libmesh_core_nrf51422_xxAC.a(flash_manager_defrag.c.obj)
 *fill*         0x20004b0a        0x2 
 .bss.mp_recovery_area
                0x20004b0c        0x4 mesh/core/libmesh_core_nrf51422_xxAC.a(flash_manager_defrag.c.obj)
 .bss.p_null_ptr.7632
                0x20004b10        0x4 mesh/core/libmesh_core_nrf51422_xxAC.a(flash_manager_defrag.c.obj)
 .bss.m_event_flag
                0x20004b14        0x4 mesh/core/libmesh_core_nrf51422_xxAC.a(mesh_flash.c.obj)
 .bss.m_suspended
                0x20004b18        0x1 mesh/core/libmesh_core_nrf51422_xxAC.a(mesh_flash.c.obj)
 *fill*         0x20004b19        0x3 
 .bss.m_users   0x20004b1c      0x228 mesh/core/libmesh_core_nrf51422_xxAC.a(mesh_flash.c.obj)
 .bss.m_128buf  0x20004d44       0x10 mesh/core/libmesh_core_nrf51422_xxAC.a(aes_cmac.c.obj)
 .bss.m_subkey1
                0x20004d54       0x10 mesh/core/libmesh_core_nrf51422_xxAC.a(aes_cmac.c.obj)
 .bss.m_subkey2
                0x20004d64       0x10 mesh/core/libmesh_core_nrf51422_xxAC.a(aes_cmac.c.obj)
 .bss.m_cache_full
                0x20004d74        0x1 mesh/core/libmesh_core_nrf51422_xxAC.a(replay_cache.c.obj)
 .bss.m_cache_index
                0x20004d75        0x1 mesh/core/libmesh_core_nrf51422_xxAC.a(replay_cache.c.obj)
 *fill*         0x20004d76        0x2 
 .bss.m_replay_cache
                0x20004d78      0x200 mesh/core/libmesh_core_nrf51422_xxAC.a(replay_cache.c.obj)
 .bss._acDownBuffer
                0x20004f78       0x80 external/rtt/librtt_nrf51422_xxAC.a(SEGGER_RTT.c.obj)
 .bss._acUpBuffer
                0x20004ff8      0x400 external/rtt/librtt_nrf51422_xxAC.a(SEGGER_RTT.c.obj)
 .bss.__malloc_free_list
                0x200053f8        0x4 c:/a/gcc_arm/6/bin/../lib/gcc/arm-none-eabi/6.3.1/../../../../arm-none-eabi/lib/thumb/v6-m\libg_nano.a(lib_a-nano-mallocr.o)
                0x200053f8                __malloc_free_list
 .bss.__malloc_sbrk_start
                0x200053fc        0x4 c:/a/gcc_arm/6/bin/../lib/gcc/arm-none-eabi/6.3.1/../../../../arm-none-eabi/lib/thumb/v6-m\libg_nano.a(lib_a-nano-mallocr.o)
                0x200053fc                __malloc_sbrk_start
 .bss.heap_end.4116
                0x20005400        0x4 c:/a/gcc_arm/6/bin/../lib/gcc/arm-none-eabi/6.3.1/../../../../arm-none-eabi/lib/thumb/v6-m\libnosys.a(sbrk.o)
 *(COMMON)
 COMMON         0x20005404        0x8 examples/light_switch/client/CMakeFiles/light_switch_client_nrf51422_xxAC_s130_2.0.1.dir/__/__/nrf_mesh_sdk.c.obj
                0x20005404                nrf_nvic_state
 COMMON         0x2000540c        0x4 mesh/core/libmesh_core_nrf51422_xxAC.a(nrf_mesh.c.obj)
                0x2000540c                m_assertion_handler
 COMMON         0x20005410       0x78 external/rtt/librtt_nrf51422_xxAC.a(SEGGER_RTT.c.obj)
                0x20005410                _SEGGER_RTT
 COMMON         0x20005488        0x4 c:/a/gcc_arm/6/bin/../lib/gcc/arm-none-eabi/6.3.1/../../../../arm-none-eabi/lib/thumb/v6-m\libg_nano.a(lib_a-reent.o)
                0x20005488                errno
                0x2000548c                . = ALIGN (0x4)
                0x2000548c                __bss_end__ = .

.heap           0x20005490      0x800
                0x20005490                __HeapBase = .
                0x20005490                __end__ = .
                0x20005490                PROVIDE (end, .)
 *(.heap*)
 .heap          0x20005490      0x800 examples/light_switch/client/CMakeFiles/light_switch_client_nrf51422_xxAC_s130_2.0.1.dir/__/__/__/external/nRF5_SDK_14.2.0_17b948a/components/toolchain/gcc/gcc_startup_nrf51.S.obj
                0x20005c90                __HeapLimit = .

.stack_dummy    0x20005490      0x800
 *(.stack*)
 .stack         0x20005490      0x800 examples/light_switch/client/CMakeFiles/light_switch_client_nrf51422_xxAC_s130_2.0.1.dir/__/__/__/external/nRF5_SDK_14.2.0_17b948a/components/toolchain/gcc/gcc_startup_nrf51.S.obj
                0x20007d00                __StackTop = (ORIGIN (RAM) + LENGTH (RAM))
                0x20007500                __StackLimit = (__StackTop - SIZEOF (.stack_dummy))
                0x20007d00                PROVIDE (__stack, __StackTop)
                0x00000001                ASSERT ((__StackLimit >= __HeapLimit), region RAM overflowed with stack)
                0x00000120                DataInitFlashUsed = (__bss_start__ - __data_start__)
                0x00012c90                CodeFlashUsed = (__etext - ORIGIN (FLASH))
                0x00012db0                TotalFlashUsed = (CodeFlashUsed + DataInitFlashUsed)
                0x00000001                ASSERT ((TotalFlashUsed <= LENGTH (FLASH)), region FLASH overflowed with .data and user data)
OUTPUT(examples\light_switch\client\light_switch_client_nrf51422_xxAC_s130_2.0.1.elf elf32-littlearm)

.ARM.attributes
                0x00000000       0x28
 .ARM.attributes
                0x00000000       0x1e c:/a/gcc_arm/6/bin/../lib/gcc/arm-none-eabi/6.3.1/thumb/v6-m/crti.o
 .ARM.attributes
                0x0000001e       0x2c c:/a/gcc_arm/6/bin/../lib/gcc/arm-none-eabi/6.3.1/thumb/v6-m/crtbegin.o
 .ARM.attributes
                0x0000004a       0x1b c:/a/gcc_arm/6/bin/../lib/gcc/arm-none-eabi/6.3.1/../../../../arm-none-eabi/lib/thumb/v6-m/crt0.o
 .ARM.attributes
                0x00000065       0x31 examples/light_switch/client/CMakeFiles/light_switch_client_nrf51422_xxAC_s130_2.0.1.dir/src/main.c.obj
 .ARM.attributes
                0x00000096       0x31 examples/light_switch/client/CMakeFiles/light_switch_client_nrf51422_xxAC_s130_2.0.1.dir/src/provisioner.c.obj
 .ARM.attributes
                0x000000c7       0x31 examples/light_switch/client/CMakeFiles/light_switch_client_nrf51422_xxAC_s130_2.0.1.dir/__/__/nrf_mesh_sdk.c.obj
 .ARM.attributes
                0x000000f8       0x31 examples/light_switch/client/CMakeFiles/light_switch_client_nrf51422_xxAC_s130_2.0.1.dir/__/__/common/src/rtt_input.c.obj
 .ARM.attributes
                0x00000129       0x31 examples/light_switch/client/CMakeFiles/light_switch_client_nrf51422_xxAC_s130_2.0.1.dir/__/__/common/src/simple_hal.c.obj
 .ARM.attributes
                0x0000015a       0x31 examples/light_switch/client/CMakeFiles/light_switch_client_nrf51422_xxAC_s130_2.0.1.dir/__/__/nrf_mesh_weak.c.obj
 .ARM.attributes
                0x0000018b       0x31 examples/light_switch/client/CMakeFiles/light_switch_client_nrf51422_xxAC_s130_2.0.1.dir/__/__/__/models/simple_on_off/src/simple_on_off_client.c.obj
 .ARM.attributes
                0x000001bc       0x31 examples/light_switch/client/CMakeFiles/light_switch_client_nrf51422_xxAC_s130_2.0.1.dir/__/__/__/models/config/src/config_client.c.obj
 .ARM.attributes
                0x000001ed       0x31 examples/light_switch/client/CMakeFiles/light_switch_client_nrf51422_xxAC_s130_2.0.1.dir/__/__/__/models/health/src/health_client.c.obj
 .ARM.attributes
                0x0000021e       0x31 examples/light_switch/client/CMakeFiles/light_switch_client_nrf51422_xxAC_s130_2.0.1.dir/__/__/__/mesh/access/src/access_publish.c.obj
 .ARM.attributes
                0x0000024f       0x31 examples/light_switch/client/CMakeFiles/light_switch_client_nrf51422_xxAC_s130_2.0.1.dir/__/__/__/mesh/access/src/access.c.obj
 .ARM.attributes
                0x00000280       0x31 examples/light_switch/client/CMakeFiles/light_switch_client_nrf51422_xxAC_s130_2.0.1.dir/__/__/__/mesh/access/src/access_reliable.c.obj
 .ARM.attributes
                0x000002b1       0x31 examples/light_switch/client/CMakeFiles/light_switch_client_nrf51422_xxAC_s130_2.0.1.dir/__/__/__/mesh/access/src/device_state_manager.c.obj
 .ARM.attributes
                0x000002e2       0x31 examples/light_switch/client/CMakeFiles/light_switch_client_nrf51422_xxAC_s130_2.0.1.dir/__/__/__/mesh/prov/src/prov_provisioner.c.obj
 .ARM.attributes
                0x00000313       0x31 examples/light_switch/client/CMakeFiles/light_switch_client_nrf51422_xxAC_s130_2.0.1.dir/__/__/__/mesh/prov/src/nrf_mesh_prov.c.obj
 .ARM.attributes
                0x00000344       0x31 examples/light_switch/client/CMakeFiles/light_switch_client_nrf51422_xxAC_s130_2.0.1.dir/__/__/__/mesh/prov/src/provisioning.c.obj
 .ARM.attributes
                0x00000375       0x31 examples/light_switch/client/CMakeFiles/light_switch_client_nrf51422_xxAC_s130_2.0.1.dir/__/__/__/mesh/prov/src/prov_beacon.c.obj
 .ARM.attributes
                0x000003a6       0x31 examples/light_switch/client/CMakeFiles/light_switch_client_nrf51422_xxAC_s130_2.0.1.dir/__/__/__/mesh/prov/src/prov_utils.c.obj
 .ARM.attributes
                0x000003d7       0x31 examples/light_switch/client/CMakeFiles/light_switch_client_nrf51422_xxAC_s130_2.0.1.dir/__/__/__/mesh/prov/src/prov_bearer_adv.c.obj
 .ARM.attributes
                0x00000408       0x31 examples/light_switch/client/CMakeFiles/light_switch_client_nrf51422_xxAC_s130_2.0.1.dir/__/__/__/external/nRF5_SDK_14.2.0_17b948a/components/toolchain/system_nrf51.c.obj
 .ARM.attributes
                0x00000439       0x1b examples/light_switch/client/CMakeFiles/light_switch_client_nrf51422_xxAC_s130_2.0.1.dir/__/__/__/external/nRF5_SDK_14.2.0_17b948a/components/toolchain/gcc/gcc_startup_nrf51.S.obj
 .ARM.attributes
                0x00000454       0x31 mesh/core/libmesh_core_nrf51422_xxAC.a(nrf_mesh_configure.c.obj)
 .ARM.attributes
                0x00000485       0x31 mesh/core/libmesh_core_nrf51422_xxAC.a(event.c.obj)
 .ARM.attributes
                0x000004b6       0x31 mesh/core/libmesh_core_nrf51422_xxAC.a(packet_mgr.c.obj)
 .ARM.attributes
                0x000004e7       0x31 mesh/core/libmesh_core_nrf51422_xxAC.a(net_state.c.obj)
 .ARM.attributes
                0x00000518       0x31 mesh/core/libmesh_core_nrf51422_xxAC.a(nrf_mesh_utils.c.obj)
 .ARM.attributes
                0x00000549       0x31 mesh/core/libmesh_core_nrf51422_xxAC.a(nrf_mesh.c.obj)
 .ARM.attributes
                0x0000057a       0x31 mesh/core/libmesh_core_nrf51422_xxAC.a(hal.c.obj)
 .ARM.attributes
                0x000005ab       0x31 mesh/core/libmesh_core_nrf51422_xxAC.a(timer_scheduler.c.obj)
 .ARM.attributes
                0x000005dc       0x31 mesh/core/libmesh_core_nrf51422_xxAC.a(timer.c.obj)
 .ARM.attributes
                0x0000060d       0x31 mesh/core/libmesh_core_nrf51422_xxAC.a(ticker.c.obj)
 .ARM.attributes
                0x0000063e       0x31 mesh/core/libmesh_core_nrf51422_xxAC.a(rand.c.obj)
 .ARM.attributes
                0x0000066f       0x31 mesh/core/libmesh_core_nrf51422_xxAC.a(timeslot.c.obj)
 .ARM.attributes
                0x000006a0       0x31 mesh/core/libmesh_core_nrf51422_xxAC.a(bearer_event.c.obj)
 .ARM.attributes
                0x000006d1       0x31 mesh/core/libmesh_core_nrf51422_xxAC.a(enc.c.obj)
 .ARM.attributes
                0x00000702       0x31 mesh/core/libmesh_core_nrf51422_xxAC.a(network.c.obj)
 .ARM.attributes
                0x00000733       0x31 mesh/core/libmesh_core_nrf51422_xxAC.a(nrf_mesh_keygen.c.obj)
 .ARM.attributes
                0x00000764       0x31 mesh/core/libmesh_core_nrf51422_xxAC.a(list.c.obj)
 .ARM.attributes
                0x00000795       0x31 mesh/core/libmesh_core_nrf51422_xxAC.a(log.c.obj)
 .ARM.attributes
                0x000007c6       0x31 mesh/core/libmesh_core_nrf51422_xxAC.a(flash_manager.c.obj)
 .ARM.attributes
                0x000007f7       0x31 mesh/core/libmesh_core_nrf51422_xxAC.a(ccm_soft.c.obj)
 .ARM.attributes
                0x00000828       0x31 mesh/core/libmesh_core_nrf51422_xxAC.a(beacon.c.obj)
 .ARM.attributes
                0x00000859       0x31 mesh/core/libmesh_core_nrf51422_xxAC.a(flash_manager_internal.c.obj)
 .ARM.attributes
                0x0000088a       0x31 mesh/core/libmesh_core_nrf51422_xxAC.a(core_tx.c.obj)
 .ARM.attributes
                0x000008bb       0x31 mesh/core/libmesh_core_nrf51422_xxAC.a(heartbeat.c.obj)
 .ARM.attributes
                0x000008ec       0x31 mesh/core/libmesh_core_nrf51422_xxAC.a(net_beacon.c.obj)
 .ARM.attributes
                0x0000091d       0x31 mesh/core/libmesh_core_nrf51422_xxAC.a(core_tx_adv.c.obj)
 .ARM.attributes
                0x0000094e       0x31 mesh/core/libmesh_core_nrf51422_xxAC.a(ad_listener.c.obj)
 .ARM.attributes
                0x0000097f       0x31 mesh/core/libmesh_core_nrf51422_xxAC.a(ad_type_filter.c.obj)
 .ARM.attributes
                0x000009b0       0x31 mesh/core/libmesh_core_nrf51422_xxAC.a(advertiser.c.obj)
 .ARM.attributes
                0x000009e1       0x31 mesh/core/libmesh_core_nrf51422_xxAC.a(bearer_handler.c.obj)
 .ARM.attributes
                0x00000a12       0x31 mesh/core/libmesh_core_nrf51422_xxAC.a(broadcast.c.obj)
 .ARM.attributes
                0x00000a43       0x31 mesh/core/libmesh_core_nrf51422_xxAC.a(filter_engine.c.obj)
 .ARM.attributes
                0x00000a74       0x31 mesh/core/libmesh_core_nrf51422_xxAC.a(radio_config.c.obj)
 .ARM.attributes
                0x00000aa5       0x31 mesh/core/libmesh_core_nrf51422_xxAC.a(scanner.c.obj)
 .ARM.attributes
                0x00000ad6       0x31 mesh/core/libmesh_core_nrf51422_xxAC.a(internal_event.c.obj)
 .ARM.attributes
                0x00000b07       0x31 mesh/core/libmesh_core_nrf51422_xxAC.a(aes.c.obj)
 .ARM.attributes
                0x00000b38       0x31 mesh/core/libmesh_core_nrf51422_xxAC.a(msg_cache.c.obj)
 .ARM.attributes
                0x00000b69       0x31 mesh/core/libmesh_core_nrf51422_xxAC.a(transport.c.obj)
 .ARM.attributes
                0x00000b9a       0x31 mesh/core/libmesh_core_nrf51422_xxAC.a(packet_buffer.c.obj)
 .ARM.attributes
                0x00000bcb       0x31 mesh/core/libmesh_core_nrf51422_xxAC.a(flash_manager_defrag.c.obj)
 .ARM.attributes
                0x00000bfc       0x31 mesh/core/libmesh_core_nrf51422_xxAC.a(fifo.c.obj)
 .ARM.attributes
                0x00000c2d       0x31 mesh/core/libmesh_core_nrf51422_xxAC.a(mesh_flash.c.obj)
 .ARM.attributes
                0x00000c5e       0x31 mesh/core/libmesh_core_nrf51422_xxAC.a(queue.c.obj)
 .ARM.attributes
                0x00000c8f       0x31 mesh/core/libmesh_core_nrf51422_xxAC.a(aes_cmac.c.obj)
 .ARM.attributes
                0x00000cc0       0x31 mesh/core/libmesh_core_nrf51422_xxAC.a(nrf_mesh_opt.c.obj)
 .ARM.attributes
                0x00000cf1       0x31 mesh/core/libmesh_core_nrf51422_xxAC.a(msqueue.c.obj)
 .ARM.attributes
                0x00000d22       0x31 mesh/core/libmesh_core_nrf51422_xxAC.a(replay_cache.c.obj)
 .ARM.attributes
                0x00000d53       0x31 mesh/core/libmesh_core_nrf51422_xxAC.a(nrf_flash.c.obj)
 .ARM.attributes
                0x00000d84       0x31 external/rtt/librtt_nrf51422_xxAC.a(SEGGER_RTT.c.obj)
 .ARM.attributes
                0x00000db5       0x31 external/rtt/librtt_nrf51422_xxAC.a(SEGGER_RTT_printf.c.obj)
 .ARM.attributes
                0x00000de6       0x31 external/micro-ecc/libuECC_nrf51422_xxAC.a(uECC.c.obj)
 .ARM.attributes
                0x00000e17       0x1e c:/a/gcc_arm/6/bin/../lib/gcc/arm-none-eabi/6.3.1/thumb/v6-m\libgcc.a(_thumb1_case_uqi.o)
 .ARM.attributes
                0x00000e35       0x1e c:/a/gcc_arm/6/bin/../lib/gcc/arm-none-eabi/6.3.1/thumb/v6-m\libgcc.a(_thumb1_case_shi.o)
 .ARM.attributes
                0x00000e53       0x1e c:/a/gcc_arm/6/bin/../lib/gcc/arm-none-eabi/6.3.1/thumb/v6-m\libgcc.a(_thumb1_case_uhi.o)
 .ARM.attributes
                0x00000e71       0x1e c:/a/gcc_arm/6/bin/../lib/gcc/arm-none-eabi/6.3.1/thumb/v6-m\libgcc.a(_udivsi3.o)
 .ARM.attributes
                0x00000e8f       0x1e c:/a/gcc_arm/6/bin/../lib/gcc/arm-none-eabi/6.3.1/thumb/v6-m\libgcc.a(_divsi3.o)
 .ARM.attributes
                0x00000ead       0x1e c:/a/gcc_arm/6/bin/../lib/gcc/arm-none-eabi/6.3.1/thumb/v6-m\libgcc.a(_dvmd_tls.o)
 .ARM.attributes
                0x00000ecb       0x1e c:/a/gcc_arm/6/bin/../lib/gcc/arm-none-eabi/6.3.1/thumb/v6-m\libgcc.a(_aeabi_uldivmod.o)
 .ARM.attributes
                0x00000ee9       0x2c c:/a/gcc_arm/6/bin/../lib/gcc/arm-none-eabi/6.3.1/thumb/v6-m\libgcc.a(_muldi3.o)
 .ARM.attributes
                0x00000f15       0x2c c:/a/gcc_arm/6/bin/../lib/gcc/arm-none-eabi/6.3.1/thumb/v6-m\libgcc.a(_udivmoddi4.o)
 .ARM.attributes
                0x00000f41       0x1e c:/a/gcc_arm/6/bin/../lib/gcc/arm-none-eabi/6.3.1/thumb/v6-m\libgcc.a(_clzdi2.o)
 .ARM.attributes
                0x00000f5f       0x1e c:/a/gcc_arm/6/bin/../lib/gcc/arm-none-eabi/6.3.1/thumb/v6-m\libgcc.a(_clzsi2.o)
 .ARM.attributes
                0x00000f7d       0x2c c:/a/gcc_arm/6/bin/../lib/gcc/arm-none-eabi/6.3.1/../../../../arm-none-eabi/lib/thumb/v6-m\libg_nano.a(lib_a-exit.o)
 .ARM.attributes
                0x00000fa9       0x2c c:/a/gcc_arm/6/bin/../lib/gcc/arm-none-eabi/6.3.1/../../../../arm-none-eabi/lib/thumb/v6-m\libg_nano.a(lib_a-impure.o)
 .ARM.attributes
                0x00000fd5       0x2c c:/a/gcc_arm/6/bin/../lib/gcc/arm-none-eabi/6.3.1/../../../../arm-none-eabi/lib/thumb/v6-m\libg_nano.a(lib_a-init.o)
 .ARM.attributes
                0x00001001       0x2c c:/a/gcc_arm/6/bin/../lib/gcc/arm-none-eabi/6.3.1/../../../../arm-none-eabi/lib/thumb/v6-m\libg_nano.a(lib_a-malloc.o)
 .ARM.attributes
                0x0000102d       0x2c c:/a/gcc_arm/6/bin/../lib/gcc/arm-none-eabi/6.3.1/../../../../arm-none-eabi/lib/thumb/v6-m\libg_nano.a(lib_a-memcmp.o)
 .ARM.attributes
                0x00001059       0x2c c:/a/gcc_arm/6/bin/../lib/gcc/arm-none-eabi/6.3.1/../../../../arm-none-eabi/lib/thumb/v6-m\libg_nano.a(lib_a-memcpy-stub.o)
 .ARM.attributes
                0x00001085       0x2c c:/a/gcc_arm/6/bin/../lib/gcc/arm-none-eabi/6.3.1/../../../../arm-none-eabi/lib/thumb/v6-m\libg_nano.a(lib_a-memset.o)
 .ARM.attributes
                0x000010b1       0x2c c:/a/gcc_arm/6/bin/../lib/gcc/arm-none-eabi/6.3.1/../../../../arm-none-eabi/lib/thumb/v6-m\libg_nano.a(lib_a-nano-freer.o)
 .ARM.attributes
                0x000010dd       0x2c c:/a/gcc_arm/6/bin/../lib/gcc/arm-none-eabi/6.3.1/../../../../arm-none-eabi/lib/thumb/v6-m\libg_nano.a(lib_a-nano-mallocr.o)
 .ARM.attributes
                0x00001109       0x2c c:/a/gcc_arm/6/bin/../lib/gcc/arm-none-eabi/6.3.1/../../../../arm-none-eabi/lib/thumb/v6-m\libg_nano.a(lib_a-sbrkr.o)
 .ARM.attributes
                0x00001135       0x2c c:/a/gcc_arm/6/bin/../lib/gcc/arm-none-eabi/6.3.1/../../../../arm-none-eabi/lib/thumb/v6-m\libg_nano.a(lib_a-strcpy.o)
 .ARM.attributes
                0x00001161       0x1c c:/a/gcc_arm/6/bin/../lib/gcc/arm-none-eabi/6.3.1/../../../../arm-none-eabi/lib/thumb/v6-m\libg_nano.a(lib_a-strlen.o)
 .ARM.attributes
                0x0000117d       0x2c c:/a/gcc_arm/6/bin/../lib/gcc/arm-none-eabi/6.3.1/../../../../arm-none-eabi/lib/thumb/v6-m\libg_nano.a(lib_a-strrchr.o)
 .ARM.attributes
                0x000011a9       0x2c c:/a/gcc_arm/6/bin/../lib/gcc/arm-none-eabi/6.3.1/../../../../arm-none-eabi/lib/thumb/v6-m\libg_nano.a(lib_a-mlock.o)
 .ARM.attributes
                0x000011d5       0x2c c:/a/gcc_arm/6/bin/../lib/gcc/arm-none-eabi/6.3.1/../../../../arm-none-eabi/lib/thumb/v6-m\libg_nano.a(lib_a-reent.o)
 .ARM.attributes
                0x00001201       0x2c c:/a/gcc_arm/6/bin/../lib/gcc/arm-none-eabi/6.3.1/../../../../arm-none-eabi/lib/thumb/v6-m\libg_nano.a(lib_a-strchr.o)
 .ARM.attributes
                0x0000122d       0x2c c:/a/gcc_arm/6/bin/../lib/gcc/arm-none-eabi/6.3.1/thumb/v6-m/crtend.o
 .ARM.attributes
                0x00001259       0x1e c:/a/gcc_arm/6/bin/../lib/gcc/arm-none-eabi/6.3.1/thumb/v6-m/crtn.o
 .ARM.attributes
                0x00001277       0x2c c:/a/gcc_arm/6/bin/../lib/gcc/arm-none-eabi/6.3.1/../../../../arm-none-eabi/lib/thumb/v6-m\libnosys.a(sbrk.o)
 .ARM.attributes
                0x000012a3       0x2c c:/a/gcc_arm/6/bin/../lib/gcc/arm-none-eabi/6.3.1/../../../../arm-none-eabi/lib/thumb/v6-m\libnosys.a(_exit.o)

.comment        0x00000000       0x7f
 .comment       0x00000000       0x7f examples/light_switch/client/CMakeFiles/light_switch_client_nrf51422_xxAC_s130_2.0.1.dir/src/main.c.obj
                                 0x80 (size before relaxing)
 .comment       0x0000007f       0x80 examples/light_switch/client/CMakeFiles/light_switch_client_nrf51422_xxAC_s130_2.0.1.dir/src/provisioner.c.obj
 .comment       0x0000007f       0x80 examples/light_switch/client/CMakeFiles/light_switch_client_nrf51422_xxAC_s130_2.0.1.dir/__/__/nrf_mesh_sdk.c.obj
 .comment       0x0000007f       0x80 examples/light_switch/client/CMakeFiles/light_switch_client_nrf51422_xxAC_s130_2.0.1.dir/__/__/common/src/rtt_input.c.obj
 .comment       0x0000007f       0x80 examples/light_switch/client/CMakeFiles/light_switch_client_nrf51422_xxAC_s130_2.0.1.dir/__/__/common/src/simple_hal.c.obj
 .comment       0x0000007f       0x80 examples/light_switch/client/CMakeFiles/light_switch_client_nrf51422_xxAC_s130_2.0.1.dir/__/__/nrf_mesh_weak.c.obj
 .comment       0x0000007f       0x80 examples/light_switch/client/CMakeFiles/light_switch_client_nrf51422_xxAC_s130_2.0.1.dir/__/__/__/models/simple_on_off/src/simple_on_off_client.c.obj
 .comment       0x0000007f       0x80 examples/light_switch/client/CMakeFiles/light_switch_client_nrf51422_xxAC_s130_2.0.1.dir/__/__/__/models/config/src/config_client.c.obj
 .comment       0x0000007f       0x80 examples/light_switch/client/CMakeFiles/light_switch_client_nrf51422_xxAC_s130_2.0.1.dir/__/__/__/models/health/src/health_client.c.obj
 .comment       0x0000007f       0x80 examples/light_switch/client/CMakeFiles/light_switch_client_nrf51422_xxAC_s130_2.0.1.dir/__/__/__/mesh/access/src/access_publish.c.obj
 .comment       0x0000007f       0x80 examples/light_switch/client/CMakeFiles/light_switch_client_nrf51422_xxAC_s130_2.0.1.dir/__/__/__/mesh/access/src/access.c.obj
 .comment       0x0000007f       0x80 examples/light_switch/client/CMakeFiles/light_switch_client_nrf51422_xxAC_s130_2.0.1.dir/__/__/__/mesh/access/src/access_reliable.c.obj
 .comment       0x0000007f       0x80 examples/light_switch/client/CMakeFiles/light_switch_client_nrf51422_xxAC_s130_2.0.1.dir/__/__/__/mesh/access/src/device_state_manager.c.obj
 .comment       0x0000007f       0x80 examples/light_switch/client/CMakeFiles/light_switch_client_nrf51422_xxAC_s130_2.0.1.dir/__/__/__/mesh/prov/src/prov_provisioner.c.obj
 .comment       0x0000007f       0x80 examples/light_switch/client/CMakeFiles/light_switch_client_nrf51422_xxAC_s130_2.0.1.dir/__/__/__/mesh/prov/src/nrf_mesh_prov.c.obj
 .comment       0x0000007f       0x80 examples/light_switch/client/CMakeFiles/light_switch_client_nrf51422_xxAC_s130_2.0.1.dir/__/__/__/mesh/prov/src/provisioning.c.obj
 .comment       0x0000007f       0x80 examples/light_switch/client/CMakeFiles/light_switch_client_nrf51422_xxAC_s130_2.0.1.dir/__/__/__/mesh/prov/src/prov_beacon.c.obj
 .comment       0x0000007f       0x80 examples/light_switch/client/CMakeFiles/light_switch_client_nrf51422_xxAC_s130_2.0.1.dir/__/__/__/mesh/prov/src/prov_utils.c.obj
 .comment       0x0000007f       0x80 examples/light_switch/client/CMakeFiles/light_switch_client_nrf51422_xxAC_s130_2.0.1.dir/__/__/__/mesh/prov/src/prov_bearer_adv.c.obj
 .comment       0x0000007f       0x80 examples/light_switch/client/CMakeFiles/light_switch_client_nrf51422_xxAC_s130_2.0.1.dir/__/__/__/external/nRF5_SDK_14.2.0_17b948a/components/toolchain/system_nrf51.c.obj
 .comment       0x0000007f       0x80 mesh/core/libmesh_core_nrf51422_xxAC.a(nrf_mesh_configure.c.obj)
 .comment       0x0000007f       0x80 mesh/core/libmesh_core_nrf51422_xxAC.a(event.c.obj)
 .comment       0x0000007f       0x80 mesh/core/libmesh_core_nrf51422_xxAC.a(packet_mgr.c.obj)
 .comment       0x0000007f       0x80 mesh/core/libmesh_core_nrf51422_xxAC.a(net_state.c.obj)
 .comment       0x0000007f       0x80 mesh/core/libmesh_core_nrf51422_xxAC.a(nrf_mesh_utils.c.obj)
 .comment       0x0000007f       0x80 mesh/core/libmesh_core_nrf51422_xxAC.a(nrf_mesh.c.obj)
 .comment       0x0000007f       0x80 mesh/core/libmesh_core_nrf51422_xxAC.a(hal.c.obj)
 .comment       0x0000007f       0x80 mesh/core/libmesh_core_nrf51422_xxAC.a(timer_scheduler.c.obj)
 .comment       0x0000007f       0x80 mesh/core/libmesh_core_nrf51422_xxAC.a(timer.c.obj)
 .comment       0x0000007f       0x80 mesh/core/libmesh_core_nrf51422_xxAC.a(ticker.c.obj)
 .comment       0x0000007f       0x80 mesh/core/libmesh_core_nrf51422_xxAC.a(rand.c.obj)
 .comment       0x0000007f       0x80 mesh/core/libmesh_core_nrf51422_xxAC.a(timeslot.c.obj)
 .comment       0x0000007f       0x80 mesh/core/libmesh_core_nrf51422_xxAC.a(bearer_event.c.obj)
 .comment       0x0000007f       0x80 mesh/core/libmesh_core_nrf51422_xxAC.a(enc.c.obj)
 .comment       0x0000007f       0x80 mesh/core/libmesh_core_nrf51422_xxAC.a(network.c.obj)
 .comment       0x0000007f       0x80 mesh/core/libmesh_core_nrf51422_xxAC.a(nrf_mesh_keygen.c.obj)
 .comment       0x0000007f       0x80 mesh/core/libmesh_core_nrf51422_xxAC.a(list.c.obj)
 .comment       0x0000007f       0x80 mesh/core/libmesh_core_nrf51422_xxAC.a(log.c.obj)
 .comment       0x0000007f       0x80 mesh/core/libmesh_core_nrf51422_xxAC.a(flash_manager.c.obj)
 .comment       0x0000007f       0x80 mesh/core/libmesh_core_nrf51422_xxAC.a(ccm_soft.c.obj)
 .comment       0x0000007f       0x80 mesh/core/libmesh_core_nrf51422_xxAC.a(beacon.c.obj)
 .comment       0x0000007f       0x80 mesh/core/libmesh_core_nrf51422_xxAC.a(flash_manager_internal.c.obj)
 .comment       0x0000007f       0x80 mesh/core/libmesh_core_nrf51422_xxAC.a(core_tx.c.obj)
 .comment       0x0000007f       0x80 mesh/core/libmesh_core_nrf51422_xxAC.a(heartbeat.c.obj)
 .comment       0x0000007f       0x80 mesh/core/libmesh_core_nrf51422_xxAC.a(net_beacon.c.obj)
 .comment       0x0000007f       0x80 mesh/core/libmesh_core_nrf51422_xxAC.a(core_tx_adv.c.obj)
 .comment       0x0000007f       0x80 mesh/core/libmesh_core_nrf51422_xxAC.a(ad_listener.c.obj)
 .comment       0x0000007f       0x80 mesh/core/libmesh_core_nrf51422_xxAC.a(ad_type_filter.c.obj)
 .comment       0x0000007f       0x80 mesh/core/libmesh_core_nrf51422_xxAC.a(advertiser.c.obj)
 .comment       0x0000007f       0x80 mesh/core/libmesh_core_nrf51422_xxAC.a(bearer_handler.c.obj)
 .comment       0x0000007f       0x80 mesh/core/libmesh_core_nrf51422_xxAC.a(broadcast.c.obj)
 .comment       0x0000007f       0x80 mesh/core/libmesh_core_nrf51422_xxAC.a(filter_engine.c.obj)
 .comment       0x0000007f       0x80 mesh/core/libmesh_core_nrf51422_xxAC.a(radio_config.c.obj)
 .comment       0x0000007f       0x80 mesh/core/libmesh_core_nrf51422_xxAC.a(scanner.c.obj)
 .comment       0x0000007f       0x80 mesh/core/libmesh_core_nrf51422_xxAC.a(internal_event.c.obj)
 .comment       0x0000007f       0x80 mesh/core/libmesh_core_nrf51422_xxAC.a(aes.c.obj)
 .comment       0x0000007f       0x80 mesh/core/libmesh_core_nrf51422_xxAC.a(msg_cache.c.obj)
 .comment       0x0000007f       0x80 mesh/core/libmesh_core_nrf51422_xxAC.a(transport.c.obj)
 .comment       0x0000007f       0x80 mesh/core/libmesh_core_nrf51422_xxAC.a(packet_buffer.c.obj)
 .comment       0x0000007f       0x80 mesh/core/libmesh_core_nrf51422_xxAC.a(flash_manager_defrag.c.obj)
 .comment       0x0000007f       0x80 mesh/core/libmesh_core_nrf51422_xxAC.a(fifo.c.obj)
 .comment       0x0000007f       0x80 mesh/core/libmesh_core_nrf51422_xxAC.a(mesh_flash.c.obj)
 .comment       0x0000007f       0x80 mesh/core/libmesh_core_nrf51422_xxAC.a(queue.c.obj)
 .comment       0x0000007f       0x80 mesh/core/libmesh_core_nrf51422_xxAC.a(aes_cmac.c.obj)
 .comment       0x0000007f       0x80 mesh/core/libmesh_core_nrf51422_xxAC.a(nrf_mesh_opt.c.obj)
 .comment       0x0000007f       0x80 mesh/core/libmesh_core_nrf51422_xxAC.a(msqueue.c.obj)
 .comment       0x0000007f       0x80 mesh/core/libmesh_core_nrf51422_xxAC.a(replay_cache.c.obj)
 .comment       0x0000007f       0x80 mesh/core/libmesh_core_nrf51422_xxAC.a(nrf_flash.c.obj)
 .comment       0x0000007f       0x80 external/rtt/librtt_nrf51422_xxAC.a(SEGGER_RTT.c.obj)
 .comment       0x0000007f       0x80 external/rtt/librtt_nrf51422_xxAC.a(SEGGER_RTT_printf.c.obj)
 .comment       0x0000007f       0x80 external/micro-ecc/libuECC_nrf51422_xxAC.a(uECC.c.obj)

.debug_info     0x00000000    0x71023
 .debug_info    0x00000000     0x34dd examples/light_switch/client/CMakeFiles/light_switch_client_nrf51422_xxAC_s130_2.0.1.dir/src/main.c.obj
 .debug_info    0x000034dd     0x3b5d examples/light_switch/client/CMakeFiles/light_switch_client_nrf51422_xxAC_s130_2.0.1.dir/src/provisioner.c.obj
 .debug_info    0x0000703a     0x30bf examples/light_switch/client/CMakeFiles/light_switch_client_nrf51422_xxAC_s130_2.0.1.dir/__/__/nrf_mesh_sdk.c.obj
 .debug_info    0x0000a0f9      0xfeb examples/light_switch/client/CMakeFiles/light_switch_client_nrf51422_xxAC_s130_2.0.1.dir/__/__/common/src/rtt_input.c.obj
 .debug_info    0x0000b0e4     0x12cf examples/light_switch/client/CMakeFiles/light_switch_client_nrf51422_xxAC_s130_2.0.1.dir/__/__/common/src/simple_hal.c.obj
 .debug_info    0x0000c3b3      0x93a examples/light_switch/client/CMakeFiles/light_switch_client_nrf51422_xxAC_s130_2.0.1.dir/__/__/nrf_mesh_weak.c.obj
 .debug_info    0x0000cced     0x135b examples/light_switch/client/CMakeFiles/light_switch_client_nrf51422_xxAC_s130_2.0.1.dir/__/__/__/models/simple_on_off/src/simple_on_off_client.c.obj
 .debug_info    0x0000e048     0x3e39 examples/light_switch/client/CMakeFiles/light_switch_client_nrf51422_xxAC_s130_2.0.1.dir/__/__/__/models/config/src/config_client.c.obj
 .debug_info    0x00011e81     0x1a1b examples/light_switch/client/CMakeFiles/light_switch_client_nrf51422_xxAC_s130_2.0.1.dir/__/__/__/models/health/src/health_client.c.obj
 .debug_info    0x0001389c     0x10f5 examples/light_switch/client/CMakeFiles/light_switch_client_nrf51422_xxAC_s130_2.0.1.dir/__/__/__/mesh/access/src/access_publish.c.obj
 .debug_info    0x00014991     0x4408 examples/light_switch/client/CMakeFiles/light_switch_client_nrf51422_xxAC_s130_2.0.1.dir/__/__/__/mesh/access/src/access.c.obj
 .debug_info    0x00018d99     0x1512 examples/light_switch/client/CMakeFiles/light_switch_client_nrf51422_xxAC_s130_2.0.1.dir/__/__/__/mesh/access/src/access_reliable.c.obj
 .debug_info    0x0001a2ab     0x5f1a examples/light_switch/client/CMakeFiles/light_switch_client_nrf51422_xxAC_s130_2.0.1.dir/__/__/__/mesh/access/src/device_state_manager.c.obj
 .debug_info    0x000201c5     0x2323 examples/light_switch/client/CMakeFiles/light_switch_client_nrf51422_xxAC_s130_2.0.1.dir/__/__/__/mesh/prov/src/prov_provisioner.c.obj
 .debug_info    0x000224e8     0x1bc1 examples/light_switch/client/CMakeFiles/light_switch_client_nrf51422_xxAC_s130_2.0.1.dir/__/__/__/mesh/prov/src/nrf_mesh_prov.c.obj
 .debug_info    0x000240a9     0x1578 examples/light_switch/client/CMakeFiles/light_switch_client_nrf51422_xxAC_s130_2.0.1.dir/__/__/__/mesh/prov/src/provisioning.c.obj
 .debug_info    0x00025621     0x196f examples/light_switch/client/CMakeFiles/light_switch_client_nrf51422_xxAC_s130_2.0.1.dir/__/__/__/mesh/prov/src/prov_beacon.c.obj
 .debug_info    0x00026f90     0x1ff9 examples/light_switch/client/CMakeFiles/light_switch_client_nrf51422_xxAC_s130_2.0.1.dir/__/__/__/mesh/prov/src/prov_utils.c.obj
 .debug_info    0x00028f89     0x3928 examples/light_switch/client/CMakeFiles/light_switch_client_nrf51422_xxAC_s130_2.0.1.dir/__/__/__/mesh/prov/src/prov_bearer_adv.c.obj
 .debug_info    0x0002c8b1      0x1e5 examples/light_switch/client/CMakeFiles/light_switch_client_nrf51422_xxAC_s130_2.0.1.dir/__/__/__/external/nRF5_SDK_14.2.0_17b948a/components/toolchain/system_nrf51.c.obj
 .debug_info    0x0002ca96      0xba2 mesh/core/libmesh_core_nrf51422_xxAC.a(nrf_mesh_configure.c.obj)
 .debug_info    0x0002d638     0x14c9 mesh/core/libmesh_core_nrf51422_xxAC.a(event.c.obj)
 .debug_info    0x0002eb01     0x1164 mesh/core/libmesh_core_nrf51422_xxAC.a(packet_mgr.c.obj)
 .debug_info    0x0002fc65     0x23be mesh/core/libmesh_core_nrf51422_xxAC.a(net_state.c.obj)
 .debug_info    0x00032023      0xa60 mesh/core/libmesh_core_nrf51422_xxAC.a(nrf_mesh_utils.c.obj)
 .debug_info    0x00032a83     0x3341 mesh/core/libmesh_core_nrf51422_xxAC.a(nrf_mesh.c.obj)
 .debug_info    0x00035dc4      0x472 mesh/core/libmesh_core_nrf51422_xxAC.a(hal.c.obj)
 .debug_info    0x00036236     0x100b mesh/core/libmesh_core_nrf51422_xxAC.a(timer_scheduler.c.obj)
 .debug_info    0x00037241      0xc94 mesh/core/libmesh_core_nrf51422_xxAC.a(timer.c.obj)
 .debug_info    0x00037ed5      0x208 mesh/core/libmesh_core_nrf51422_xxAC.a(ticker.c.obj)
 .debug_info    0x000380dd      0x41e mesh/core/libmesh_core_nrf51422_xxAC.a(rand.c.obj)
 .debug_info    0x000384fb     0x19c1 mesh/core/libmesh_core_nrf51422_xxAC.a(timeslot.c.obj)
 .debug_info    0x00039ebc     0x1817 mesh/core/libmesh_core_nrf51422_xxAC.a(bearer_event.c.obj)
 .debug_info    0x0003b6d3     0x1702 mesh/core/libmesh_core_nrf51422_xxAC.a(enc.c.obj)
 .debug_info    0x0003cdd5     0x2afd mesh/core/libmesh_core_nrf51422_xxAC.a(network.c.obj)
 .debug_info    0x0003f8d2      0x4f2 mesh/core/libmesh_core_nrf51422_xxAC.a(nrf_mesh_keygen.c.obj)
 .debug_info    0x0003fdc4      0x46a mesh/core/libmesh_core_nrf51422_xxAC.a(list.c.obj)
 .debug_info    0x0004022e      0xe28 mesh/core/libmesh_core_nrf51422_xxAC.a(log.c.obj)
 .debug_info    0x00041056     0x3233 mesh/core/libmesh_core_nrf51422_xxAC.a(flash_manager.c.obj)
 .debug_info    0x00044289     0x107b mesh/core/libmesh_core_nrf51422_xxAC.a(ccm_soft.c.obj)
 .debug_info    0x00045304     0x1929 mesh/core/libmesh_core_nrf51422_xxAC.a(beacon.c.obj)
 .debug_info    0x00046c2d      0xb88 mesh/core/libmesh_core_nrf51422_xxAC.a(flash_manager_internal.c.obj)
 .debug_info    0x000477b5      0xf80 mesh/core/libmesh_core_nrf51422_xxAC.a(core_tx.c.obj)
 .debug_info    0x00048735     0x2156 mesh/core/libmesh_core_nrf51422_xxAC.a(heartbeat.c.obj)
 .debug_info    0x0004a88b     0x14bf mesh/core/libmesh_core_nrf51422_xxAC.a(net_beacon.c.obj)
 .debug_info    0x0004bd4a     0x1618 mesh/core/libmesh_core_nrf51422_xxAC.a(core_tx_adv.c.obj)
 .debug_info    0x0004d362     0x10f8 mesh/core/libmesh_core_nrf51422_xxAC.a(ad_listener.c.obj)
 .debug_info    0x0004e45a      0xf9e mesh/core/libmesh_core_nrf51422_xxAC.a(ad_type_filter.c.obj)
 .debug_info    0x0004f3f8     0x22fc mesh/core/libmesh_core_nrf51422_xxAC.a(advertiser.c.obj)
 .debug_info    0x000516f4     0x1833 mesh/core/libmesh_core_nrf51422_xxAC.a(bearer_handler.c.obj)
 .debug_info    0x00052f27     0x18f3 mesh/core/libmesh_core_nrf51422_xxAC.a(broadcast.c.obj)
 .debug_info    0x0005481a      0xccc mesh/core/libmesh_core_nrf51422_xxAC.a(filter_engine.c.obj)
 .debug_info    0x000554e6      0x848 mesh/core/libmesh_core_nrf51422_xxAC.a(radio_config.c.obj)
 .debug_info    0x00055d2e     0x24af mesh/core/libmesh_core_nrf51422_xxAC.a(scanner.c.obj)
 .debug_info    0x000581dd      0xc54 mesh/core/libmesh_core_nrf51422_xxAC.a(internal_event.c.obj)
 .debug_info    0x00058e31      0xbe1 mesh/core/libmesh_core_nrf51422_xxAC.a(aes.c.obj)
 .debug_info    0x00059a12      0xa70 mesh/core/libmesh_core_nrf51422_xxAC.a(msg_cache.c.obj)
 .debug_info    0x0005a482     0x54ce mesh/core/libmesh_core_nrf51422_xxAC.a(transport.c.obj)
 .debug_info    0x0005f950     0x1c1e mesh/core/libmesh_core_nrf51422_xxAC.a(packet_buffer.c.obj)
 .debug_info    0x0006156e     0x21d4 mesh/core/libmesh_core_nrf51422_xxAC.a(flash_manager_defrag.c.obj)
 .debug_info    0x00063742      0xce0 mesh/core/libmesh_core_nrf51422_xxAC.a(fifo.c.obj)
 .debug_info    0x00064422     0x1860 mesh/core/libmesh_core_nrf51422_xxAC.a(mesh_flash.c.obj)
 .debug_info    0x00065c82      0xacb mesh/core/libmesh_core_nrf51422_xxAC.a(queue.c.obj)
 .debug_info    0x0006674d      0xe2a mesh/core/libmesh_core_nrf51422_xxAC.a(aes_cmac.c.obj)
 .debug_info    0x00067577      0xb0b mesh/core/libmesh_core_nrf51422_xxAC.a(nrf_mesh_opt.c.obj)
 .debug_info    0x00068082      0xcdf mesh/core/libmesh_core_nrf51422_xxAC.a(msqueue.c.obj)
 .debug_info    0x00068d61      0xae9 mesh/core/libmesh_core_nrf51422_xxAC.a(replay_cache.c.obj)
 .debug_info    0x0006984a      0xac0 mesh/core/libmesh_core_nrf51422_xxAC.a(nrf_flash.c.obj)
 .debug_info    0x0006a30a     0x1831 external/rtt/librtt_nrf51422_xxAC.a(SEGGER_RTT.c.obj)
 .debug_info    0x0006bb3b      0xed0 external/rtt/librtt_nrf51422_xxAC.a(SEGGER_RTT_printf.c.obj)
 .debug_info    0x0006ca0b     0x4618 external/micro-ecc/libuECC_nrf51422_xxAC.a(uECC.c.obj)

.debug_abbrev   0x00000000     0xf3d6
 .debug_abbrev  0x00000000      0x4b6 examples/light_switch/client/CMakeFiles/light_switch_client_nrf51422_xxAC_s130_2.0.1.dir/src/main.c.obj
 .debug_abbrev  0x000004b6      0x452 examples/light_switch/client/CMakeFiles/light_switch_client_nrf51422_xxAC_s130_2.0.1.dir/src/provisioner.c.obj
 .debug_abbrev  0x00000908      0x4ae examples/light_switch/client/CMakeFiles/light_switch_client_nrf51422_xxAC_s130_2.0.1.dir/__/__/nrf_mesh_sdk.c.obj
 .debug_abbrev  0x00000db6      0x2b8 examples/light_switch/client/CMakeFiles/light_switch_client_nrf51422_xxAC_s130_2.0.1.dir/__/__/common/src/rtt_input.c.obj
 .debug_abbrev  0x0000106e      0x35b examples/light_switch/client/CMakeFiles/light_switch_client_nrf51422_xxAC_s130_2.0.1.dir/__/__/common/src/simple_hal.c.obj
 .debug_abbrev  0x000013c9      0x1a7 examples/light_switch/client/CMakeFiles/light_switch_client_nrf51422_xxAC_s130_2.0.1.dir/__/__/nrf_mesh_weak.c.obj
 .debug_abbrev  0x00001570      0x344 examples/light_switch/client/CMakeFiles/light_switch_client_nrf51422_xxAC_s130_2.0.1.dir/__/__/__/models/simple_on_off/src/simple_on_off_client.c.obj
 .debug_abbrev  0x000018b4      0x540 examples/light_switch/client/CMakeFiles/light_switch_client_nrf51422_xxAC_s130_2.0.1.dir/__/__/__/models/config/src/config_client.c.obj
 .debug_abbrev  0x00001df4      0x3a8 examples/light_switch/client/CMakeFiles/light_switch_client_nrf51422_xxAC_s130_2.0.1.dir/__/__/__/models/health/src/health_client.c.obj
 .debug_abbrev  0x0000219c      0x422 examples/light_switch/client/CMakeFiles/light_switch_client_nrf51422_xxAC_s130_2.0.1.dir/__/__/__/mesh/access/src/access_publish.c.obj
 .debug_abbrev  0x000025be      0x663 examples/light_switch/client/CMakeFiles/light_switch_client_nrf51422_xxAC_s130_2.0.1.dir/__/__/__/mesh/access/src/access.c.obj
 .debug_abbrev  0x00002c21      0x41f examples/light_switch/client/CMakeFiles/light_switch_client_nrf51422_xxAC_s130_2.0.1.dir/__/__/__/mesh/access/src/access_reliable.c.obj
 .debug_abbrev  0x00003040      0x5fa examples/light_switch/client/CMakeFiles/light_switch_client_nrf51422_xxAC_s130_2.0.1.dir/__/__/__/mesh/access/src/device_state_manager.c.obj
 .debug_abbrev  0x0000363a      0x3d9 examples/light_switch/client/CMakeFiles/light_switch_client_nrf51422_xxAC_s130_2.0.1.dir/__/__/__/mesh/prov/src/prov_provisioner.c.obj
 .debug_abbrev  0x00003a13      0x30f examples/light_switch/client/CMakeFiles/light_switch_client_nrf51422_xxAC_s130_2.0.1.dir/__/__/__/mesh/prov/src/nrf_mesh_prov.c.obj
 .debug_abbrev  0x00003d22      0x275 examples/light_switch/client/CMakeFiles/light_switch_client_nrf51422_xxAC_s130_2.0.1.dir/__/__/__/mesh/prov/src/provisioning.c.obj
 .debug_abbrev  0x00003f97      0x2b3 examples/light_switch/client/CMakeFiles/light_switch_client_nrf51422_xxAC_s130_2.0.1.dir/__/__/__/mesh/prov/src/prov_beacon.c.obj
 .debug_abbrev  0x0000424a      0x3c4 examples/light_switch/client/CMakeFiles/light_switch_client_nrf51422_xxAC_s130_2.0.1.dir/__/__/__/mesh/prov/src/prov_utils.c.obj
 .debug_abbrev  0x0000460e      0x4cd examples/light_switch/client/CMakeFiles/light_switch_client_nrf51422_xxAC_s130_2.0.1.dir/__/__/__/mesh/prov/src/prov_bearer_adv.c.obj
 .debug_abbrev  0x00004adb      0x117 examples/light_switch/client/CMakeFiles/light_switch_client_nrf51422_xxAC_s130_2.0.1.dir/__/__/__/external/nRF5_SDK_14.2.0_17b948a/components/toolchain/system_nrf51.c.obj
 .debug_abbrev  0x00004bf2      0x242 mesh/core/libmesh_core_nrf51422_xxAC.a(nrf_mesh_configure.c.obj)
 .debug_abbrev  0x00004e34      0x283 mesh/core/libmesh_core_nrf51422_xxAC.a(event.c.obj)
 .debug_abbrev  0x000050b7      0x3ca mesh/core/libmesh_core_nrf51422_xxAC.a(packet_mgr.c.obj)
 .debug_abbrev  0x00005481      0x527 mesh/core/libmesh_core_nrf51422_xxAC.a(net_state.c.obj)
 .debug_abbrev  0x000059a8      0x253 mesh/core/libmesh_core_nrf51422_xxAC.a(nrf_mesh_utils.c.obj)
 .debug_abbrev  0x00005bfb      0x42a mesh/core/libmesh_core_nrf51422_xxAC.a(nrf_mesh.c.obj)
 .debug_abbrev  0x00006025      0x1e4 mesh/core/libmesh_core_nrf51422_xxAC.a(hal.c.obj)
 .debug_abbrev  0x00006209      0x3bd mesh/core/libmesh_core_nrf51422_xxAC.a(timer_scheduler.c.obj)
 .debug_abbrev  0x000065c6      0x326 mesh/core/libmesh_core_nrf51422_xxAC.a(timer.c.obj)
 .debug_abbrev  0x000068ec      0x14f mesh/core/libmesh_core_nrf51422_xxAC.a(ticker.c.obj)
 .debug_abbrev  0x00006a3b      0x1ba mesh/core/libmesh_core_nrf51422_xxAC.a(rand.c.obj)
 .debug_abbrev  0x00006bf5      0x4ba mesh/core/libmesh_core_nrf51422_xxAC.a(timeslot.c.obj)
 .debug_abbrev  0x000070af      0x493 mesh/core/libmesh_core_nrf51422_xxAC.a(bearer_event.c.obj)
 .debug_abbrev  0x00007542      0x35c mesh/core/libmesh_core_nrf51422_xxAC.a(enc.c.obj)
 .debug_abbrev  0x0000789e      0x513 mesh/core/libmesh_core_nrf51422_xxAC.a(network.c.obj)
 .debug_abbrev  0x00007db1      0x158 mesh/core/libmesh_core_nrf51422_xxAC.a(nrf_mesh_keygen.c.obj)
 .debug_abbrev  0x00007f09      0x186 mesh/core/libmesh_core_nrf51422_xxAC.a(list.c.obj)
 .debug_abbrev  0x0000808f      0x24e mesh/core/libmesh_core_nrf51422_xxAC.a(log.c.obj)
 .debug_abbrev  0x000082dd      0x5a4 mesh/core/libmesh_core_nrf51422_xxAC.a(flash_manager.c.obj)
 .debug_abbrev  0x00008881      0x2ac mesh/core/libmesh_core_nrf51422_xxAC.a(ccm_soft.c.obj)
 .debug_abbrev  0x00008b2d      0x37f mesh/core/libmesh_core_nrf51422_xxAC.a(beacon.c.obj)
 .debug_abbrev  0x00008eac      0x283 mesh/core/libmesh_core_nrf51422_xxAC.a(flash_manager_internal.c.obj)
 .debug_abbrev  0x0000912f      0x30c mesh/core/libmesh_core_nrf51422_xxAC.a(core_tx.c.obj)
 .debug_abbrev  0x0000943b      0x4ad mesh/core/libmesh_core_nrf51422_xxAC.a(heartbeat.c.obj)
 .debug_abbrev  0x000098e8      0x3dc mesh/core/libmesh_core_nrf51422_xxAC.a(net_beacon.c.obj)
 .debug_abbrev  0x00009cc4      0x321 mesh/core/libmesh_core_nrf51422_xxAC.a(core_tx_adv.c.obj)
 .debug_abbrev  0x00009fe5      0x325 mesh/core/libmesh_core_nrf51422_xxAC.a(ad_listener.c.obj)
 .debug_abbrev  0x0000a30a      0x33d mesh/core/libmesh_core_nrf51422_xxAC.a(ad_type_filter.c.obj)
 .debug_abbrev  0x0000a647      0x4bb mesh/core/libmesh_core_nrf51422_xxAC.a(advertiser.c.obj)
 .debug_abbrev  0x0000ab02      0x40b mesh/core/libmesh_core_nrf51422_xxAC.a(bearer_handler.c.obj)
 .debug_abbrev  0x0000af0d      0x3b5 mesh/core/libmesh_core_nrf51422_xxAC.a(broadcast.c.obj)
 .debug_abbrev  0x0000b2c2      0x27a mesh/core/libmesh_core_nrf51422_xxAC.a(filter_engine.c.obj)
 .debug_abbrev  0x0000b53c      0x19f mesh/core/libmesh_core_nrf51422_xxAC.a(radio_config.c.obj)
 .debug_abbrev  0x0000b6db      0x510 mesh/core/libmesh_core_nrf51422_xxAC.a(scanner.c.obj)
 .debug_abbrev  0x0000bbeb      0x248 mesh/core/libmesh_core_nrf51422_xxAC.a(internal_event.c.obj)
 .debug_abbrev  0x0000be33      0x25d mesh/core/libmesh_core_nrf51422_xxAC.a(aes.c.obj)
 .debug_abbrev  0x0000c090      0x256 mesh/core/libmesh_core_nrf51422_xxAC.a(msg_cache.c.obj)
 .debug_abbrev  0x0000c2e6      0x5d9 mesh/core/libmesh_core_nrf51422_xxAC.a(transport.c.obj)
 .debug_abbrev  0x0000c8bf      0x472 mesh/core/libmesh_core_nrf51422_xxAC.a(packet_buffer.c.obj)
 .debug_abbrev  0x0000cd31      0x553 mesh/core/libmesh_core_nrf51422_xxAC.a(flash_manager_defrag.c.obj)
 .debug_abbrev  0x0000d284      0x2ec mesh/core/libmesh_core_nrf51422_xxAC.a(fifo.c.obj)
 .debug_abbrev  0x0000d570      0x45e mesh/core/libmesh_core_nrf51422_xxAC.a(mesh_flash.c.obj)
 .debug_abbrev  0x0000d9ce      0x220 mesh/core/libmesh_core_nrf51422_xxAC.a(queue.c.obj)
 .debug_abbrev  0x0000dbee      0x31a mesh/core/libmesh_core_nrf51422_xxAC.a(aes_cmac.c.obj)
 .debug_abbrev  0x0000df08      0x23d mesh/core/libmesh_core_nrf51422_xxAC.a(nrf_mesh_opt.c.obj)
 .debug_abbrev  0x0000e145      0x287 mesh/core/libmesh_core_nrf51422_xxAC.a(msqueue.c.obj)
 .debug_abbrev  0x0000e3cc      0x264 mesh/core/libmesh_core_nrf51422_xxAC.a(replay_cache.c.obj)
 .debug_abbrev  0x0000e630      0x21f mesh/core/libmesh_core_nrf51422_xxAC.a(nrf_flash.c.obj)
 .debug_abbrev  0x0000e84f      0x39c external/rtt/librtt_nrf51422_xxAC.a(SEGGER_RTT.c.obj)
 .debug_abbrev  0x0000ebeb      0x362 external/rtt/librtt_nrf51422_xxAC.a(SEGGER_RTT_printf.c.obj)
 .debug_abbrev  0x0000ef4d      0x489 external/micro-ecc/libuECC_nrf51422_xxAC.a(uECC.c.obj)

.debug_loc      0x00000000    0x21676
 .debug_loc     0x00000000      0x608 examples/light_switch/client/CMakeFiles/light_switch_client_nrf51422_xxAC_s130_2.0.1.dir/src/main.c.obj
 .debug_loc     0x00000608      0x545 examples/light_switch/client/CMakeFiles/light_switch_client_nrf51422_xxAC_s130_2.0.1.dir/src/provisioner.c.obj
 .debug_loc     0x00000b4d      0x2fc examples/light_switch/client/CMakeFiles/light_switch_client_nrf51422_xxAC_s130_2.0.1.dir/__/__/nrf_mesh_sdk.c.obj
 .debug_loc     0x00000e49       0xca examples/light_switch/client/CMakeFiles/light_switch_client_nrf51422_xxAC_s130_2.0.1.dir/__/__/common/src/rtt_input.c.obj
 .debug_loc     0x00000f13      0x242 examples/light_switch/client/CMakeFiles/light_switch_client_nrf51422_xxAC_s130_2.0.1.dir/__/__/common/src/simple_hal.c.obj
 .debug_loc     0x00001155      0x50c examples/light_switch/client/CMakeFiles/light_switch_client_nrf51422_xxAC_s130_2.0.1.dir/__/__/__/models/simple_on_off/src/simple_on_off_client.c.obj
 .debug_loc     0x00001661     0x137a examples/light_switch/client/CMakeFiles/light_switch_client_nrf51422_xxAC_s130_2.0.1.dir/__/__/__/models/config/src/config_client.c.obj
 .debug_loc     0x000029db      0xab7 examples/light_switch/client/CMakeFiles/light_switch_client_nrf51422_xxAC_s130_2.0.1.dir/__/__/__/models/health/src/health_client.c.obj
 .debug_loc     0x00003492      0x55e examples/light_switch/client/CMakeFiles/light_switch_client_nrf51422_xxAC_s130_2.0.1.dir/__/__/__/mesh/access/src/access_publish.c.obj
 .debug_loc     0x000039f0     0x1ed6 examples/light_switch/client/CMakeFiles/light_switch_client_nrf51422_xxAC_s130_2.0.1.dir/__/__/__/mesh/access/src/access.c.obj
 .debug_loc     0x000058c6      0x7c5 examples/light_switch/client/CMakeFiles/light_switch_client_nrf51422_xxAC_s130_2.0.1.dir/__/__/__/mesh/access/src/access_reliable.c.obj
 .debug_loc     0x0000608b     0x3655 examples/light_switch/client/CMakeFiles/light_switch_client_nrf51422_xxAC_s130_2.0.1.dir/__/__/__/mesh/access/src/device_state_manager.c.obj
 .debug_loc     0x000096e0      0x618 examples/light_switch/client/CMakeFiles/light_switch_client_nrf51422_xxAC_s130_2.0.1.dir/__/__/__/mesh/prov/src/prov_provisioner.c.obj
 .debug_loc     0x00009cf8      0x5ac examples/light_switch/client/CMakeFiles/light_switch_client_nrf51422_xxAC_s130_2.0.1.dir/__/__/__/mesh/prov/src/nrf_mesh_prov.c.obj
 .debug_loc     0x0000a2a4      0x4eb examples/light_switch/client/CMakeFiles/light_switch_client_nrf51422_xxAC_s130_2.0.1.dir/__/__/__/mesh/prov/src/provisioning.c.obj
 .debug_loc     0x0000a78f      0x1fb examples/light_switch/client/CMakeFiles/light_switch_client_nrf51422_xxAC_s130_2.0.1.dir/__/__/__/mesh/prov/src/prov_beacon.c.obj
 .debug_loc     0x0000a98a      0x50f examples/light_switch/client/CMakeFiles/light_switch_client_nrf51422_xxAC_s130_2.0.1.dir/__/__/__/mesh/prov/src/prov_utils.c.obj
 .debug_loc     0x0000ae99     0x178c examples/light_switch/client/CMakeFiles/light_switch_client_nrf51422_xxAC_s130_2.0.1.dir/__/__/__/mesh/prov/src/prov_bearer_adv.c.obj
 .debug_loc     0x0000c625       0x2c mesh/core/libmesh_core_nrf51422_xxAC.a(nrf_mesh_configure.c.obj)
 .debug_loc     0x0000c651      0x134 mesh/core/libmesh_core_nrf51422_xxAC.a(event.c.obj)
 .debug_loc     0x0000c785      0x67d mesh/core/libmesh_core_nrf51422_xxAC.a(packet_mgr.c.obj)
 .debug_loc     0x0000ce02      0x77f mesh/core/libmesh_core_nrf51422_xxAC.a(net_state.c.obj)
 .debug_loc     0x0000d581      0x103 mesh/core/libmesh_core_nrf51422_xxAC.a(nrf_mesh_utils.c.obj)
 .debug_loc     0x0000d684      0x4b5 mesh/core/libmesh_core_nrf51422_xxAC.a(nrf_mesh.c.obj)
 .debug_loc     0x0000db39       0x84 mesh/core/libmesh_core_nrf51422_xxAC.a(hal.c.obj)
 .debug_loc     0x0000dbbd      0x41b mesh/core/libmesh_core_nrf51422_xxAC.a(timer_scheduler.c.obj)
 .debug_loc     0x0000dfd8      0x5db mesh/core/libmesh_core_nrf51422_xxAC.a(timer.c.obj)
 .debug_loc     0x0000e5b3      0x172 mesh/core/libmesh_core_nrf51422_xxAC.a(rand.c.obj)
 .debug_loc     0x0000e725      0x3ad mesh/core/libmesh_core_nrf51422_xxAC.a(timeslot.c.obj)
 .debug_loc     0x0000ead2      0x7a7 mesh/core/libmesh_core_nrf51422_xxAC.a(bearer_event.c.obj)
 .debug_loc     0x0000f279      0xb0d mesh/core/libmesh_core_nrf51422_xxAC.a(enc.c.obj)
 .debug_loc     0x0000fd86      0xe27 mesh/core/libmesh_core_nrf51422_xxAC.a(network.c.obj)
 .debug_loc     0x00010bad      0x197 mesh/core/libmesh_core_nrf51422_xxAC.a(nrf_mesh_keygen.c.obj)
 .debug_loc     0x00010d44      0x598 mesh/core/libmesh_core_nrf51422_xxAC.a(list.c.obj)
 .debug_loc     0x000112dc      0x2e5 mesh/core/libmesh_core_nrf51422_xxAC.a(log.c.obj)
 .debug_loc     0x000115c1     0x17c2 mesh/core/libmesh_core_nrf51422_xxAC.a(flash_manager.c.obj)
 .debug_loc     0x00012d83      0x4a0 mesh/core/libmesh_core_nrf51422_xxAC.a(ccm_soft.c.obj)
 .debug_loc     0x00013223      0x521 mesh/core/libmesh_core_nrf51422_xxAC.a(beacon.c.obj)
 .debug_loc     0x00013744      0x149 mesh/core/libmesh_core_nrf51422_xxAC.a(flash_manager_internal.c.obj)
 .debug_loc     0x0001388d      0x632 mesh/core/libmesh_core_nrf51422_xxAC.a(core_tx.c.obj)
 .debug_loc     0x00013ebf      0x706 mesh/core/libmesh_core_nrf51422_xxAC.a(heartbeat.c.obj)
 .debug_loc     0x000145c5      0x4a3 mesh/core/libmesh_core_nrf51422_xxAC.a(net_beacon.c.obj)
 .debug_loc     0x00014a68      0x3e4 mesh/core/libmesh_core_nrf51422_xxAC.a(core_tx_adv.c.obj)
 .debug_loc     0x00014e4c      0x394 mesh/core/libmesh_core_nrf51422_xxAC.a(ad_listener.c.obj)
 .debug_loc     0x000151e0      0x434 mesh/core/libmesh_core_nrf51422_xxAC.a(ad_type_filter.c.obj)
 .debug_loc     0x00015614      0xdf8 mesh/core/libmesh_core_nrf51422_xxAC.a(advertiser.c.obj)
 .debug_loc     0x0001640c      0x3e1 mesh/core/libmesh_core_nrf51422_xxAC.a(bearer_handler.c.obj)
 .debug_loc     0x000167ed      0x301 mesh/core/libmesh_core_nrf51422_xxAC.a(broadcast.c.obj)
 .debug_loc     0x00016aee      0x14a mesh/core/libmesh_core_nrf51422_xxAC.a(filter_engine.c.obj)
 .debug_loc     0x00016c38      0x2b2 mesh/core/libmesh_core_nrf51422_xxAC.a(radio_config.c.obj)
 .debug_loc     0x00016eea      0x57f mesh/core/libmesh_core_nrf51422_xxAC.a(scanner.c.obj)
 .debug_loc     0x00017469       0xc4 mesh/core/libmesh_core_nrf51422_xxAC.a(internal_event.c.obj)
 .debug_loc     0x0001752d       0xa5 mesh/core/libmesh_core_nrf51422_xxAC.a(aes.c.obj)
 .debug_loc     0x000175d2       0xeb mesh/core/libmesh_core_nrf51422_xxAC.a(msg_cache.c.obj)
 .debug_loc     0x000176bd     0x2719 mesh/core/libmesh_core_nrf51422_xxAC.a(transport.c.obj)
 .debug_loc     0x00019dd6     0x108b mesh/core/libmesh_core_nrf51422_xxAC.a(packet_buffer.c.obj)
 .debug_loc     0x0001ae61      0x838 mesh/core/libmesh_core_nrf51422_xxAC.a(flash_manager_defrag.c.obj)
 .debug_loc     0x0001b699      0x5b7 mesh/core/libmesh_core_nrf51422_xxAC.a(fifo.c.obj)
 .debug_loc     0x0001bc50      0xa7c mesh/core/libmesh_core_nrf51422_xxAC.a(mesh_flash.c.obj)
 .debug_loc     0x0001c6cc      0x1f9 mesh/core/libmesh_core_nrf51422_xxAC.a(queue.c.obj)
 .debug_loc     0x0001c8c5      0x339 mesh/core/libmesh_core_nrf51422_xxAC.a(aes_cmac.c.obj)
 .debug_loc     0x0001cbfe      0x14c mesh/core/libmesh_core_nrf51422_xxAC.a(nrf_mesh_opt.c.obj)
 .debug_loc     0x0001cd4a      0x41a mesh/core/libmesh_core_nrf51422_xxAC.a(msqueue.c.obj)
 .debug_loc     0x0001d164      0x1fb mesh/core/libmesh_core_nrf51422_xxAC.a(replay_cache.c.obj)
 .debug_loc     0x0001d35f      0x1af mesh/core/libmesh_core_nrf51422_xxAC.a(nrf_flash.c.obj)
 .debug_loc     0x0001d50e     0x135a external/rtt/librtt_nrf51422_xxAC.a(SEGGER_RTT.c.obj)
 .debug_loc     0x0001e868      0x79b external/rtt/librtt_nrf51422_xxAC.a(SEGGER_RTT_printf.c.obj)
 .debug_loc     0x0001f003     0x2673 external/micro-ecc/libuECC_nrf51422_xxAC.a(uECC.c.obj)

.debug_aranges  0x00000000     0x2108
 .debug_aranges
                0x00000000       0x60 examples/light_switch/client/CMakeFiles/light_switch_client_nrf51422_xxAC_s130_2.0.1.dir/src/main.c.obj
 .debug_aranges
                0x00000060       0x48 examples/light_switch/client/CMakeFiles/light_switch_client_nrf51422_xxAC_s130_2.0.1.dir/src/provisioner.c.obj
 .debug_aranges
                0x000000a8       0x80 examples/light_switch/client/CMakeFiles/light_switch_client_nrf51422_xxAC_s130_2.0.1.dir/__/__/nrf_mesh_sdk.c.obj
 .debug_aranges
                0x00000128       0x30 examples/light_switch/client/CMakeFiles/light_switch_client_nrf51422_xxAC_s130_2.0.1.dir/__/__/common/src/rtt_input.c.obj
 .debug_aranges
                0x00000158       0x50 examples/light_switch/client/CMakeFiles/light_switch_client_nrf51422_xxAC_s130_2.0.1.dir/__/__/common/src/simple_hal.c.obj
 .debug_aranges
                0x000001a8       0x28 examples/light_switch/client/CMakeFiles/light_switch_client_nrf51422_xxAC_s130_2.0.1.dir/__/__/nrf_mesh_weak.c.obj
 .debug_aranges
                0x000001d0       0x48 examples/light_switch/client/CMakeFiles/light_switch_client_nrf51422_xxAC_s130_2.0.1.dir/__/__/__/models/simple_on_off/src/simple_on_off_client.c.obj
 .debug_aranges
                0x00000218      0x188 examples/light_switch/client/CMakeFiles/light_switch_client_nrf51422_xxAC_s130_2.0.1.dir/__/__/__/models/config/src/config_client.c.obj
 .debug_aranges
                0x000003a0       0x80 examples/light_switch/client/CMakeFiles/light_switch_client_nrf51422_xxAC_s130_2.0.1.dir/__/__/__/models/health/src/health_client.c.obj
 .debug_aranges
                0x00000420       0x50 examples/light_switch/client/CMakeFiles/light_switch_client_nrf51422_xxAC_s130_2.0.1.dir/__/__/__/mesh/access/src/access_publish.c.obj
 .debug_aranges
                0x00000470      0x1b0 examples/light_switch/client/CMakeFiles/light_switch_client_nrf51422_xxAC_s130_2.0.1.dir/__/__/__/mesh/access/src/access.c.obj
 .debug_aranges
                0x00000620       0x50 examples/light_switch/client/CMakeFiles/light_switch_client_nrf51422_xxAC_s130_2.0.1.dir/__/__/__/mesh/access/src/access_reliable.c.obj
 .debug_aranges
                0x00000670      0x300 examples/light_switch/client/CMakeFiles/light_switch_client_nrf51422_xxAC_s130_2.0.1.dir/__/__/__/mesh/access/src/device_state_manager.c.obj
 .debug_aranges
                0x00000970       0x70 examples/light_switch/client/CMakeFiles/light_switch_client_nrf51422_xxAC_s130_2.0.1.dir/__/__/__/mesh/prov/src/prov_provisioner.c.obj
 .debug_aranges
                0x000009e0       0x78 examples/light_switch/client/CMakeFiles/light_switch_client_nrf51422_xxAC_s130_2.0.1.dir/__/__/__/mesh/prov/src/nrf_mesh_prov.c.obj
 .debug_aranges
                0x00000a58       0x80 examples/light_switch/client/CMakeFiles/light_switch_client_nrf51422_xxAC_s130_2.0.1.dir/__/__/__/mesh/prov/src/provisioning.c.obj
 .debug_aranges
                0x00000ad8       0x38 examples/light_switch/client/CMakeFiles/light_switch_client_nrf51422_xxAC_s130_2.0.1.dir/__/__/__/mesh/prov/src/prov_beacon.c.obj
 .debug_aranges
                0x00000b10       0x70 examples/light_switch/client/CMakeFiles/light_switch_client_nrf51422_xxAC_s130_2.0.1.dir/__/__/__/mesh/prov/src/prov_utils.c.obj
 .debug_aranges
                0x00000b80       0xc8 examples/light_switch/client/CMakeFiles/light_switch_client_nrf51422_xxAC_s130_2.0.1.dir/__/__/__/mesh/prov/src/prov_bearer_adv.c.obj
 .debug_aranges
                0x00000c48       0x28 examples/light_switch/client/CMakeFiles/light_switch_client_nrf51422_xxAC_s130_2.0.1.dir/__/__/__/external/nRF5_SDK_14.2.0_17b948a/components/toolchain/system_nrf51.c.obj
 .debug_aranges
                0x00000c70       0x30 mesh/core/libmesh_core_nrf51422_xxAC.a(nrf_mesh_configure.c.obj)
 .debug_aranges
                0x00000ca0       0x30 mesh/core/libmesh_core_nrf51422_xxAC.a(event.c.obj)
 .debug_aranges
                0x00000cd0       0x48 mesh/core/libmesh_core_nrf51422_xxAC.a(packet_mgr.c.obj)
 .debug_aranges
                0x00000d18       0xc0 mesh/core/libmesh_core_nrf51422_xxAC.a(net_state.c.obj)
 .debug_aranges
                0x00000dd8       0x30 mesh/core/libmesh_core_nrf51422_xxAC.a(nrf_mesh_utils.c.obj)
 .debug_aranges
                0x00000e08       0x88 mesh/core/libmesh_core_nrf51422_xxAC.a(nrf_mesh.c.obj)
 .debug_aranges
                0x00000e90       0x38 mesh/core/libmesh_core_nrf51422_xxAC.a(hal.c.obj)
 .debug_aranges
                0x00000ec8       0x68 mesh/core/libmesh_core_nrf51422_xxAC.a(timer_scheduler.c.obj)
 .debug_aranges
                0x00000f30       0x60 mesh/core/libmesh_core_nrf51422_xxAC.a(timer.c.obj)
 .debug_aranges
                0x00000f90       0x30 mesh/core/libmesh_core_nrf51422_xxAC.a(ticker.c.obj)
 .debug_aranges
                0x00000fc0       0x40 mesh/core/libmesh_core_nrf51422_xxAC.a(rand.c.obj)
 .debug_aranges
                0x00001000       0xb8 mesh/core/libmesh_core_nrf51422_xxAC.a(timeslot.c.obj)
 .debug_aranges
                0x000010b8       0x98 mesh/core/libmesh_core_nrf51422_xxAC.a(bearer_event.c.obj)
 .debug_aranges
                0x00001150       0x70 mesh/core/libmesh_core_nrf51422_xxAC.a(enc.c.obj)
 .debug_aranges
                0x000011c0       0x60 mesh/core/libmesh_core_nrf51422_xxAC.a(network.c.obj)
 .debug_aranges
                0x00001220       0x40 mesh/core/libmesh_core_nrf51422_xxAC.a(nrf_mesh_keygen.c.obj)
 .debug_aranges
                0x00001260       0x48 mesh/core/libmesh_core_nrf51422_xxAC.a(list.c.obj)
 .debug_aranges
                0x000012a8       0x48 mesh/core/libmesh_core_nrf51422_xxAC.a(log.c.obj)
 .debug_aranges
                0x000012f0      0x100 mesh/core/libmesh_core_nrf51422_xxAC.a(flash_manager.c.obj)
 .debug_aranges
                0x000013f0       0x50 mesh/core/libmesh_core_nrf51422_xxAC.a(ccm_soft.c.obj)
 .debug_aranges
                0x00001440       0x38 mesh/core/libmesh_core_nrf51422_xxAC.a(beacon.c.obj)
 .debug_aranges
                0x00001478       0x20 mesh/core/libmesh_core_nrf51422_xxAC.a(flash_manager_internal.c.obj)
 .debug_aranges
                0x00001498       0x58 mesh/core/libmesh_core_nrf51422_xxAC.a(core_tx.c.obj)
 .debug_aranges
                0x000014f0       0x70 mesh/core/libmesh_core_nrf51422_xxAC.a(heartbeat.c.obj)
 .debug_aranges
                0x00001560       0x48 mesh/core/libmesh_core_nrf51422_xxAC.a(net_beacon.c.obj)
 .debug_aranges
                0x000015a8       0x68 mesh/core/libmesh_core_nrf51422_xxAC.a(core_tx_adv.c.obj)
 .debug_aranges
                0x00001610       0x30 mesh/core/libmesh_core_nrf51422_xxAC.a(ad_listener.c.obj)
 .debug_aranges
                0x00001640       0x58 mesh/core/libmesh_core_nrf51422_xxAC.a(ad_type_filter.c.obj)
 .debug_aranges
                0x00001698       0xb0 mesh/core/libmesh_core_nrf51422_xxAC.a(advertiser.c.obj)
 .debug_aranges
                0x00001748       0x70 mesh/core/libmesh_core_nrf51422_xxAC.a(bearer_handler.c.obj)
 .debug_aranges
                0x000017b8       0x30 mesh/core/libmesh_core_nrf51422_xxAC.a(broadcast.c.obj)
 .debug_aranges
                0x000017e8       0x38 mesh/core/libmesh_core_nrf51422_xxAC.a(filter_engine.c.obj)
 .debug_aranges
                0x00001820       0x40 mesh/core/libmesh_core_nrf51422_xxAC.a(radio_config.c.obj)
 .debug_aranges
                0x00001860       0xe0 mesh/core/libmesh_core_nrf51422_xxAC.a(scanner.c.obj)
 .debug_aranges
                0x00001940       0x30 mesh/core/libmesh_core_nrf51422_xxAC.a(internal_event.c.obj)
 .debug_aranges
                0x00001970       0x28 mesh/core/libmesh_core_nrf51422_xxAC.a(aes.c.obj)
 .debug_aranges
                0x00001998       0x38 mesh/core/libmesh_core_nrf51422_xxAC.a(msg_cache.c.obj)
 .debug_aranges
                0x000019d0      0x120 mesh/core/libmesh_core_nrf51422_xxAC.a(transport.c.obj)
 .debug_aranges
                0x00001af0       0x80 mesh/core/libmesh_core_nrf51422_xxAC.a(packet_buffer.c.obj)
 .debug_aranges
                0x00001b70       0xc8 mesh/core/libmesh_core_nrf51422_xxAC.a(flash_manager_defrag.c.obj)
 .debug_aranges
                0x00001c38       0x60 mesh/core/libmesh_core_nrf51422_xxAC.a(fifo.c.obj)
 .debug_aranges
                0x00001c98       0x60 mesh/core/libmesh_core_nrf51422_xxAC.a(mesh_flash.c.obj)
 .debug_aranges
                0x00001cf8       0x38 mesh/core/libmesh_core_nrf51422_xxAC.a(queue.c.obj)
 .debug_aranges
                0x00001d30       0x38 mesh/core/libmesh_core_nrf51422_xxAC.a(aes_cmac.c.obj)
 .debug_aranges
                0x00001d68       0x28 mesh/core/libmesh_core_nrf51422_xxAC.a(nrf_mesh_opt.c.obj)
 .debug_aranges
                0x00001d90       0x48 mesh/core/libmesh_core_nrf51422_xxAC.a(msqueue.c.obj)
 .debug_aranges
                0x00001dd8       0x48 mesh/core/libmesh_core_nrf51422_xxAC.a(replay_cache.c.obj)
 .debug_aranges
                0x00001e20       0x30 mesh/core/libmesh_core_nrf51422_xxAC.a(nrf_flash.c.obj)
 .debug_aranges
                0x00001e50       0xd8 external/rtt/librtt_nrf51422_xxAC.a(SEGGER_RTT.c.obj)
 .debug_aranges
                0x00001f28       0x38 external/rtt/librtt_nrf51422_xxAC.a(SEGGER_RTT_printf.c.obj)
 .debug_aranges
                0x00001f60      0x1a8 external/micro-ecc/libuECC_nrf51422_xxAC.a(uECC.c.obj)

.debug_ranges   0x00000000     0x7c38
 .debug_ranges  0x00000000      0x2d0 examples/light_switch/client/CMakeFiles/light_switch_client_nrf51422_xxAC_s130_2.0.1.dir/src/main.c.obj
 .debug_ranges  0x000002d0      0x2a8 examples/light_switch/client/CMakeFiles/light_switch_client_nrf51422_xxAC_s130_2.0.1.dir/src/provisioner.c.obj
 .debug_ranges  0x00000578      0x1b0 examples/light_switch/client/CMakeFiles/light_switch_client_nrf51422_xxAC_s130_2.0.1.dir/__/__/nrf_mesh_sdk.c.obj
 .debug_ranges  0x00000728       0x38 examples/light_switch/client/CMakeFiles/light_switch_client_nrf51422_xxAC_s130_2.0.1.dir/__/__/common/src/rtt_input.c.obj
 .debug_ranges  0x00000760       0xf8 examples/light_switch/client/CMakeFiles/light_switch_client_nrf51422_xxAC_s130_2.0.1.dir/__/__/common/src/simple_hal.c.obj
 .debug_ranges  0x00000858       0x18 examples/light_switch/client/CMakeFiles/light_switch_client_nrf51422_xxAC_s130_2.0.1.dir/__/__/nrf_mesh_weak.c.obj
 .debug_ranges  0x00000870       0xb0 examples/light_switch/client/CMakeFiles/light_switch_client_nrf51422_xxAC_s130_2.0.1.dir/__/__/__/models/simple_on_off/src/simple_on_off_client.c.obj
 .debug_ranges  0x00000920      0x488 examples/light_switch/client/CMakeFiles/light_switch_client_nrf51422_xxAC_s130_2.0.1.dir/__/__/__/models/config/src/config_client.c.obj
 .debug_ranges  0x00000da8       0xa0 examples/light_switch/client/CMakeFiles/light_switch_client_nrf51422_xxAC_s130_2.0.1.dir/__/__/__/models/health/src/health_client.c.obj
 .debug_ranges  0x00000e48      0x158 examples/light_switch/client/CMakeFiles/light_switch_client_nrf51422_xxAC_s130_2.0.1.dir/__/__/__/mesh/access/src/access_publish.c.obj
 .debug_ranges  0x00000fa0      0x7f8 examples/light_switch/client/CMakeFiles/light_switch_client_nrf51422_xxAC_s130_2.0.1.dir/__/__/__/mesh/access/src/access.c.obj
 .debug_ranges  0x00001798      0x220 examples/light_switch/client/CMakeFiles/light_switch_client_nrf51422_xxAC_s130_2.0.1.dir/__/__/__/mesh/access/src/access_reliable.c.obj
 .debug_ranges  0x000019b8      0xaf8 examples/light_switch/client/CMakeFiles/light_switch_client_nrf51422_xxAC_s130_2.0.1.dir/__/__/__/mesh/access/src/device_state_manager.c.obj
 .debug_ranges  0x000024b0       0xd8 examples/light_switch/client/CMakeFiles/light_switch_client_nrf51422_xxAC_s130_2.0.1.dir/__/__/__/mesh/prov/src/prov_provisioner.c.obj
 .debug_ranges  0x00002588       0xb0 examples/light_switch/client/CMakeFiles/light_switch_client_nrf51422_xxAC_s130_2.0.1.dir/__/__/__/mesh/prov/src/nrf_mesh_prov.c.obj
 .debug_ranges  0x00002638       0xa0 examples/light_switch/client/CMakeFiles/light_switch_client_nrf51422_xxAC_s130_2.0.1.dir/__/__/__/mesh/prov/src/provisioning.c.obj
 .debug_ranges  0x000026d8       0x88 examples/light_switch/client/CMakeFiles/light_switch_client_nrf51422_xxAC_s130_2.0.1.dir/__/__/__/mesh/prov/src/prov_beacon.c.obj
 .debug_ranges  0x00002760       0xd0 examples/light_switch/client/CMakeFiles/light_switch_client_nrf51422_xxAC_s130_2.0.1.dir/__/__/__/mesh/prov/src/prov_utils.c.obj
 .debug_ranges  0x00002830      0x5d0 examples/light_switch/client/CMakeFiles/light_switch_client_nrf51422_xxAC_s130_2.0.1.dir/__/__/__/mesh/prov/src/prov_bearer_adv.c.obj
 .debug_ranges  0x00002e00       0x48 examples/light_switch/client/CMakeFiles/light_switch_client_nrf51422_xxAC_s130_2.0.1.dir/__/__/__/external/nRF5_SDK_14.2.0_17b948a/components/toolchain/system_nrf51.c.obj
 .debug_ranges  0x00002e48       0x20 mesh/core/libmesh_core_nrf51422_xxAC.a(nrf_mesh_configure.c.obj)
 .debug_ranges  0x00002e68       0x68 mesh/core/libmesh_core_nrf51422_xxAC.a(event.c.obj)
 .debug_ranges  0x00002ed0      0x1b8 mesh/core/libmesh_core_nrf51422_xxAC.a(packet_mgr.c.obj)
 .debug_ranges  0x00003088      0x1e8 mesh/core/libmesh_core_nrf51422_xxAC.a(net_state.c.obj)
 .debug_ranges  0x00003270       0x38 mesh/core/libmesh_core_nrf51422_xxAC.a(nrf_mesh_utils.c.obj)
 .debug_ranges  0x000032a8       0xd8 mesh/core/libmesh_core_nrf51422_xxAC.a(nrf_mesh.c.obj)
 .debug_ranges  0x00003380       0x28 mesh/core/libmesh_core_nrf51422_xxAC.a(hal.c.obj)
 .debug_ranges  0x000033a8      0x210 mesh/core/libmesh_core_nrf51422_xxAC.a(timer_scheduler.c.obj)
 .debug_ranges  0x000035b8      0x118 mesh/core/libmesh_core_nrf51422_xxAC.a(timer.c.obj)
 .debug_ranges  0x000036d0       0x20 mesh/core/libmesh_core_nrf51422_xxAC.a(ticker.c.obj)
 .debug_ranges  0x000036f0       0x48 mesh/core/libmesh_core_nrf51422_xxAC.a(rand.c.obj)
 .debug_ranges  0x00003738      0x178 mesh/core/libmesh_core_nrf51422_xxAC.a(timeslot.c.obj)
 .debug_ranges  0x000038b0      0x228 mesh/core/libmesh_core_nrf51422_xxAC.a(bearer_event.c.obj)
 .debug_ranges  0x00003ad8      0x170 mesh/core/libmesh_core_nrf51422_xxAC.a(enc.c.obj)
 .debug_ranges  0x00003c48      0x4c8 mesh/core/libmesh_core_nrf51422_xxAC.a(network.c.obj)
 .debug_ranges  0x00004110       0x30 mesh/core/libmesh_core_nrf51422_xxAC.a(nrf_mesh_keygen.c.obj)
 .debug_ranges  0x00004140      0x178 mesh/core/libmesh_core_nrf51422_xxAC.a(list.c.obj)
 .debug_ranges  0x000042b8       0x38 mesh/core/libmesh_core_nrf51422_xxAC.a(log.c.obj)
 .debug_ranges  0x000042f0      0x740 mesh/core/libmesh_core_nrf51422_xxAC.a(flash_manager.c.obj)
 .debug_ranges  0x00004a30       0x40 mesh/core/libmesh_core_nrf51422_xxAC.a(ccm_soft.c.obj)
 .debug_ranges  0x00004a70       0xd8 mesh/core/libmesh_core_nrf51422_xxAC.a(beacon.c.obj)
 .debug_ranges  0x00004b48       0x58 mesh/core/libmesh_core_nrf51422_xxAC.a(flash_manager_internal.c.obj)
 .debug_ranges  0x00004ba0      0x288 mesh/core/libmesh_core_nrf51422_xxAC.a(core_tx.c.obj)
 .debug_ranges  0x00004e28      0x250 mesh/core/libmesh_core_nrf51422_xxAC.a(heartbeat.c.obj)
 .debug_ranges  0x00005078       0xb8 mesh/core/libmesh_core_nrf51422_xxAC.a(net_beacon.c.obj)
 .debug_ranges  0x00005130       0xe8 mesh/core/libmesh_core_nrf51422_xxAC.a(core_tx_adv.c.obj)
 .debug_ranges  0x00005218       0xa0 mesh/core/libmesh_core_nrf51422_xxAC.a(ad_listener.c.obj)
 .debug_ranges  0x000052b8      0x130 mesh/core/libmesh_core_nrf51422_xxAC.a(ad_type_filter.c.obj)
 .debug_ranges  0x000053e8      0x460 mesh/core/libmesh_core_nrf51422_xxAC.a(advertiser.c.obj)
 .debug_ranges  0x00005848      0x288 mesh/core/libmesh_core_nrf51422_xxAC.a(bearer_handler.c.obj)
 .debug_ranges  0x00005ad0       0xf0 mesh/core/libmesh_core_nrf51422_xxAC.a(broadcast.c.obj)
 .debug_ranges  0x00005bc0       0x88 mesh/core/libmesh_core_nrf51422_xxAC.a(filter_engine.c.obj)
 .debug_ranges  0x00005c48      0x110 mesh/core/libmesh_core_nrf51422_xxAC.a(radio_config.c.obj)
 .debug_ranges  0x00005d58      0x2c8 mesh/core/libmesh_core_nrf51422_xxAC.a(scanner.c.obj)
 .debug_ranges  0x00006020       0x20 mesh/core/libmesh_core_nrf51422_xxAC.a(internal_event.c.obj)
 .debug_ranges  0x00006040       0x18 mesh/core/libmesh_core_nrf51422_xxAC.a(aes.c.obj)
 .debug_ranges  0x00006058       0x48 mesh/core/libmesh_core_nrf51422_xxAC.a(msg_cache.c.obj)
 .debug_ranges  0x000060a0      0x848 mesh/core/libmesh_core_nrf51422_xxAC.a(transport.c.obj)
 .debug_ranges  0x000068e8      0x458 mesh/core/libmesh_core_nrf51422_xxAC.a(packet_buffer.c.obj)
 .debug_ranges  0x00006d40      0x388 mesh/core/libmesh_core_nrf51422_xxAC.a(flash_manager_defrag.c.obj)
 .debug_ranges  0x000070c8       0xb0 mesh/core/libmesh_core_nrf51422_xxAC.a(fifo.c.obj)
 .debug_ranges  0x00007178      0x318 mesh/core/libmesh_core_nrf51422_xxAC.a(mesh_flash.c.obj)
 .debug_ranges  0x00007490       0xa0 mesh/core/libmesh_core_nrf51422_xxAC.a(queue.c.obj)
 .debug_ranges  0x00007530       0x78 mesh/core/libmesh_core_nrf51422_xxAC.a(aes_cmac.c.obj)
 .debug_ranges  0x000075a8       0x18 mesh/core/libmesh_core_nrf51422_xxAC.a(nrf_mesh_opt.c.obj)
 .debug_ranges  0x000075c0      0x158 mesh/core/libmesh_core_nrf51422_xxAC.a(msqueue.c.obj)
 .debug_ranges  0x00007718       0x78 mesh/core/libmesh_core_nrf51422_xxAC.a(replay_cache.c.obj)
 .debug_ranges  0x00007790       0x38 mesh/core/libmesh_core_nrf51422_xxAC.a(nrf_flash.c.obj)
 .debug_ranges  0x000077c8      0x118 external/rtt/librtt_nrf51422_xxAC.a(SEGGER_RTT.c.obj)
 .debug_ranges  0x000078e0       0x50 external/rtt/librtt_nrf51422_xxAC.a(SEGGER_RTT_printf.c.obj)
 .debug_ranges  0x00007930      0x308 external/micro-ecc/libuECC_nrf51422_xxAC.a(uECC.c.obj)

.debug_line     0x00000000    0x16ac3
 .debug_line    0x00000000      0x921 examples/light_switch/client/CMakeFiles/light_switch_client_nrf51422_xxAC_s130_2.0.1.dir/src/main.c.obj
 .debug_line    0x00000921      0xa82 examples/light_switch/client/CMakeFiles/light_switch_client_nrf51422_xxAC_s130_2.0.1.dir/src/provisioner.c.obj
 .debug_line    0x000013a3      0x711 examples/light_switch/client/CMakeFiles/light_switch_client_nrf51422_xxAC_s130_2.0.1.dir/__/__/nrf_mesh_sdk.c.obj
 .debug_line    0x00001ab4      0x2fb examples/light_switch/client/CMakeFiles/light_switch_client_nrf51422_xxAC_s130_2.0.1.dir/__/__/common/src/rtt_input.c.obj
 .debug_line    0x00001daf      0x429 examples/light_switch/client/CMakeFiles/light_switch_client_nrf51422_xxAC_s130_2.0.1.dir/__/__/common/src/simple_hal.c.obj
 .debug_line    0x000021d8      0x1d0 examples/light_switch/client/CMakeFiles/light_switch_client_nrf51422_xxAC_s130_2.0.1.dir/__/__/nrf_mesh_weak.c.obj
 .debug_line    0x000023a8      0x399 examples/light_switch/client/CMakeFiles/light_switch_client_nrf51422_xxAC_s130_2.0.1.dir/__/__/__/models/simple_on_off/src/simple_on_off_client.c.obj
 .debug_line    0x00002741      0xb20 examples/light_switch/client/CMakeFiles/light_switch_client_nrf51422_xxAC_s130_2.0.1.dir/__/__/__/models/config/src/config_client.c.obj
 .debug_line    0x00003261      0x45b examples/light_switch/client/CMakeFiles/light_switch_client_nrf51422_xxAC_s130_2.0.1.dir/__/__/__/models/health/src/health_client.c.obj
 .debug_line    0x000036bc      0x3fc examples/light_switch/client/CMakeFiles/light_switch_client_nrf51422_xxAC_s130_2.0.1.dir/__/__/__/mesh/access/src/access_publish.c.obj
 .debug_line    0x00003ab8      0xebf examples/light_switch/client/CMakeFiles/light_switch_client_nrf51422_xxAC_s130_2.0.1.dir/__/__/__/mesh/access/src/access.c.obj
 .debug_line    0x00004977      0x4a4 examples/light_switch/client/CMakeFiles/light_switch_client_nrf51422_xxAC_s130_2.0.1.dir/__/__/__/mesh/access/src/access_reliable.c.obj
 .debug_line    0x00004e1b     0x1498 examples/light_switch/client/CMakeFiles/light_switch_client_nrf51422_xxAC_s130_2.0.1.dir/__/__/__/mesh/access/src/device_state_manager.c.obj
 .debug_line    0x000062b3      0x53e examples/light_switch/client/CMakeFiles/light_switch_client_nrf51422_xxAC_s130_2.0.1.dir/__/__/__/mesh/prov/src/prov_provisioner.c.obj
 .debug_line    0x000067f1      0x492 examples/light_switch/client/CMakeFiles/light_switch_client_nrf51422_xxAC_s130_2.0.1.dir/__/__/__/mesh/prov/src/nrf_mesh_prov.c.obj
 .debug_line    0x00006c83      0x3a6 examples/light_switch/client/CMakeFiles/light_switch_client_nrf51422_xxAC_s130_2.0.1.dir/__/__/__/mesh/prov/src/provisioning.c.obj
 .debug_line    0x00007029      0x438 examples/light_switch/client/CMakeFiles/light_switch_client_nrf51422_xxAC_s130_2.0.1.dir/__/__/__/mesh/prov/src/prov_beacon.c.obj
 .debug_line    0x00007461      0x471 examples/light_switch/client/CMakeFiles/light_switch_client_nrf51422_xxAC_s130_2.0.1.dir/__/__/__/mesh/prov/src/prov_utils.c.obj
 .debug_line    0x000078d2      0xbef examples/light_switch/client/CMakeFiles/light_switch_client_nrf51422_xxAC_s130_2.0.1.dir/__/__/__/mesh/prov/src/prov_bearer_adv.c.obj
 .debug_line    0x000084c1      0x17b examples/light_switch/client/CMakeFiles/light_switch_client_nrf51422_xxAC_s130_2.0.1.dir/__/__/__/external/nRF5_SDK_14.2.0_17b948a/components/toolchain/system_nrf51.c.obj
 .debug_line    0x0000863c      0x20f mesh/core/libmesh_core_nrf51422_xxAC.a(nrf_mesh_configure.c.obj)
 .debug_line    0x0000884b      0x2ba mesh/core/libmesh_core_nrf51422_xxAC.a(event.c.obj)
 .debug_line    0x00008b05      0x477 mesh/core/libmesh_core_nrf51422_xxAC.a(packet_mgr.c.obj)
 .debug_line    0x00008f7c      0x6ab mesh/core/libmesh_core_nrf51422_xxAC.a(net_state.c.obj)
 .debug_line    0x00009627      0x217 mesh/core/libmesh_core_nrf51422_xxAC.a(nrf_mesh_utils.c.obj)
 .debug_line    0x0000983e      0x725 mesh/core/libmesh_core_nrf51422_xxAC.a(nrf_mesh.c.obj)
 .debug_line    0x00009f63      0x24d mesh/core/libmesh_core_nrf51422_xxAC.a(hal.c.obj)
 .debug_line    0x0000a1b0      0x4a3 mesh/core/libmesh_core_nrf51422_xxAC.a(timer_scheduler.c.obj)
 .debug_line    0x0000a653      0x433 mesh/core/libmesh_core_nrf51422_xxAC.a(timer.c.obj)
 .debug_line    0x0000aa86      0x129 mesh/core/libmesh_core_nrf51422_xxAC.a(ticker.c.obj)
 .debug_line    0x0000abaf      0x243 mesh/core/libmesh_core_nrf51422_xxAC.a(rand.c.obj)
 .debug_line    0x0000adf2      0x5fb mesh/core/libmesh_core_nrf51422_xxAC.a(timeslot.c.obj)
 .debug_line    0x0000b3ed      0x621 mesh/core/libmesh_core_nrf51422_xxAC.a(bearer_event.c.obj)
 .debug_line    0x0000ba0e      0x44b mesh/core/libmesh_core_nrf51422_xxAC.a(enc.c.obj)
 .debug_line    0x0000be59      0x7f4 mesh/core/libmesh_core_nrf51422_xxAC.a(network.c.obj)
 .debug_line    0x0000c64d      0x1e8 mesh/core/libmesh_core_nrf51422_xxAC.a(nrf_mesh_keygen.c.obj)
 .debug_line    0x0000c835      0x31b mesh/core/libmesh_core_nrf51422_xxAC.a(list.c.obj)
 .debug_line    0x0000cb50      0x233 mesh/core/libmesh_core_nrf51422_xxAC.a(log.c.obj)
 .debug_line    0x0000cd83      0xa80 mesh/core/libmesh_core_nrf51422_xxAC.a(flash_manager.c.obj)
 .debug_line    0x0000d803      0x2e7 mesh/core/libmesh_core_nrf51422_xxAC.a(ccm_soft.c.obj)
 .debug_line    0x0000daea      0x4d3 mesh/core/libmesh_core_nrf51422_xxAC.a(beacon.c.obj)
 .debug_line    0x0000dfbd      0x239 mesh/core/libmesh_core_nrf51422_xxAC.a(flash_manager_internal.c.obj)
 .debug_line    0x0000e1f6      0x432 mesh/core/libmesh_core_nrf51422_xxAC.a(core_tx.c.obj)
 .debug_line    0x0000e628      0x5eb mesh/core/libmesh_core_nrf51422_xxAC.a(heartbeat.c.obj)
 .debug_line    0x0000ec13      0x400 mesh/core/libmesh_core_nrf51422_xxAC.a(net_beacon.c.obj)
 .debug_line    0x0000f013      0x440 mesh/core/libmesh_core_nrf51422_xxAC.a(core_tx_adv.c.obj)
 .debug_line    0x0000f453      0x305 mesh/core/libmesh_core_nrf51422_xxAC.a(ad_listener.c.obj)
 .debug_line    0x0000f758      0x3e9 mesh/core/libmesh_core_nrf51422_xxAC.a(ad_type_filter.c.obj)
 .debug_line    0x0000fb41      0x83d mesh/core/libmesh_core_nrf51422_xxAC.a(advertiser.c.obj)
 .debug_line    0x0001037e      0x5de mesh/core/libmesh_core_nrf51422_xxAC.a(bearer_handler.c.obj)
 .debug_line    0x0001095c      0x37c mesh/core/libmesh_core_nrf51422_xxAC.a(broadcast.c.obj)
 .debug_line    0x00010cd8      0x306 mesh/core/libmesh_core_nrf51422_xxAC.a(filter_engine.c.obj)
 .debug_line    0x00010fde      0x303 mesh/core/libmesh_core_nrf51422_xxAC.a(radio_config.c.obj)
 .debug_line    0x000112e1      0x798 mesh/core/libmesh_core_nrf51422_xxAC.a(scanner.c.obj)
 .debug_line    0x00011a79      0x255 mesh/core/libmesh_core_nrf51422_xxAC.a(internal_event.c.obj)
 .debug_line    0x00011cce      0x1fe mesh/core/libmesh_core_nrf51422_xxAC.a(aes.c.obj)
 .debug_line    0x00011ecc      0x245 mesh/core/libmesh_core_nrf51422_xxAC.a(msg_cache.c.obj)
 .debug_line    0x00012111     0x1040 mesh/core/libmesh_core_nrf51422_xxAC.a(transport.c.obj)
 .debug_line    0x00013151      0x728 mesh/core/libmesh_core_nrf51422_xxAC.a(packet_buffer.c.obj)
 .debug_line    0x00013879      0x7e4 mesh/core/libmesh_core_nrf51422_xxAC.a(flash_manager_defrag.c.obj)
 .debug_line    0x0001405d      0x3b8 mesh/core/libmesh_core_nrf51422_xxAC.a(fifo.c.obj)
 .debug_line    0x00014415      0x5a6 mesh/core/libmesh_core_nrf51422_xxAC.a(mesh_flash.c.obj)
 .debug_line    0x000149bb      0x2d0 mesh/core/libmesh_core_nrf51422_xxAC.a(queue.c.obj)
 .debug_line    0x00014c8b      0x27e mesh/core/libmesh_core_nrf51422_xxAC.a(aes_cmac.c.obj)
 .debug_line    0x00014f09      0x252 mesh/core/libmesh_core_nrf51422_xxAC.a(nrf_mesh_opt.c.obj)
 .debug_line    0x0001515b      0x335 mesh/core/libmesh_core_nrf51422_xxAC.a(msqueue.c.obj)
 .debug_line    0x00015490      0x1fb mesh/core/libmesh_core_nrf51422_xxAC.a(replay_cache.c.obj)
 .debug_line    0x0001568b      0x252 mesh/core/libmesh_core_nrf51422_xxAC.a(nrf_flash.c.obj)
 .debug_line    0x000158dd      0x4ea external/rtt/librtt_nrf51422_xxAC.a(SEGGER_RTT.c.obj)
 .debug_line    0x00015dc7      0x2aa external/rtt/librtt_nrf51422_xxAC.a(SEGGER_RTT_printf.c.obj)
 .debug_line    0x00016071      0xa52 external/micro-ecc/libuECC_nrf51422_xxAC.a(uECC.c.obj)

.debug_str      0x00000000    0x12560
 .debug_str     0x00000000     0x254a examples/light_switch/client/CMakeFiles/light_switch_client_nrf51422_xxAC_s130_2.0.1.dir/src/main.c.obj
                               0x2894 (size before relaxing)
 .debug_str     0x0000254a     0x1dfc examples/light_switch/client/CMakeFiles/light_switch_client_nrf51422_xxAC_s130_2.0.1.dir/src/provisioner.c.obj
                               0x3b62 (size before relaxing)
 .debug_str     0x00004346     0x127e examples/light_switch/client/CMakeFiles/light_switch_client_nrf51422_xxAC_s130_2.0.1.dir/__/__/nrf_mesh_sdk.c.obj
                               0x1f86 (size before relaxing)
 .debug_str     0x000055c4      0x183 examples/light_switch/client/CMakeFiles/light_switch_client_nrf51422_xxAC_s130_2.0.1.dir/__/__/common/src/rtt_input.c.obj
                                0x9f6 (size before relaxing)
 .debug_str     0x00005747      0x171 examples/light_switch/client/CMakeFiles/light_switch_client_nrf51422_xxAC_s130_2.0.1.dir/__/__/common/src/simple_hal.c.obj
                                0xabb (size before relaxing)
 .debug_str     0x000058b8       0x3c examples/light_switch/client/CMakeFiles/light_switch_client_nrf51422_xxAC_s130_2.0.1.dir/__/__/nrf_mesh_weak.c.obj
                                0x62e (size before relaxing)
 .debug_str     0x000058f4      0x36c examples/light_switch/client/CMakeFiles/light_switch_client_nrf51422_xxAC_s130_2.0.1.dir/__/__/__/models/simple_on_off/src/simple_on_off_client.c.obj
                                0xced (size before relaxing)
 .debug_str     0x00005c60      0xbb6 examples/light_switch/client/CMakeFiles/light_switch_client_nrf51422_xxAC_s130_2.0.1.dir/__/__/__/models/config/src/config_client.c.obj
                               0x2837 (size before relaxing)
 .debug_str     0x00006816      0x411 examples/light_switch/client/CMakeFiles/light_switch_client_nrf51422_xxAC_s130_2.0.1.dir/__/__/__/models/health/src/health_client.c.obj
                               0x10b9 (size before relaxing)
 .debug_str     0x00006c27      0x328 examples/light_switch/client/CMakeFiles/light_switch_client_nrf51422_xxAC_s130_2.0.1.dir/__/__/__/mesh/access/src/access_publish.c.obj
                                0xbb5 (size before relaxing)
 .debug_str     0x00006f4f     0x1960 examples/light_switch/client/CMakeFiles/light_switch_client_nrf51422_xxAC_s130_2.0.1.dir/__/__/__/mesh/access/src/access.c.obj
                               0x2b2a (size before relaxing)
 .debug_str     0x000088af      0x13c examples/light_switch/client/CMakeFiles/light_switch_client_nrf51422_xxAC_s130_2.0.1.dir/__/__/__/mesh/access/src/access_reliable.c.obj
                                0xc83 (size before relaxing)
 .debug_str     0x000089eb     0x1121 examples/light_switch/client/CMakeFiles/light_switch_client_nrf51422_xxAC_s130_2.0.1.dir/__/__/__/mesh/access/src/device_state_manager.c.obj
                               0x2e3f (size before relaxing)
 .debug_str     0x00009b0c      0x552 examples/light_switch/client/CMakeFiles/light_switch_client_nrf51422_xxAC_s130_2.0.1.dir/__/__/__/mesh/prov/src/prov_provisioner.c.obj
                               0x1e8d (size before relaxing)
 .debug_str     0x0000a05e      0x1d0 examples/light_switch/client/CMakeFiles/light_switch_client_nrf51422_xxAC_s130_2.0.1.dir/__/__/__/mesh/prov/src/nrf_mesh_prov.c.obj
                               0x1c63 (size before relaxing)
 .debug_str     0x0000a22e      0x10f examples/light_switch/client/CMakeFiles/light_switch_client_nrf51422_xxAC_s130_2.0.1.dir/__/__/__/mesh/prov/src/provisioning.c.obj
                                0xf26 (size before relaxing)
 .debug_str     0x0000a33d      0x113 examples/light_switch/client/CMakeFiles/light_switch_client_nrf51422_xxAC_s130_2.0.1.dir/__/__/__/mesh/prov/src/prov_beacon.c.obj
                               0x1843 (size before relaxing)
 .debug_str     0x0000a450      0x429 examples/light_switch/client/CMakeFiles/light_switch_client_nrf51422_xxAC_s130_2.0.1.dir/__/__/__/mesh/prov/src/prov_utils.c.obj
                               0x1e27 (size before relaxing)
 .debug_str     0x0000a879      0x556 examples/light_switch/client/CMakeFiles/light_switch_client_nrf51422_xxAC_s130_2.0.1.dir/__/__/__/mesh/prov/src/prov_bearer_adv.c.obj
                               0x1ae1 (size before relaxing)
 .debug_str     0x0000adcf      0x116 examples/light_switch/client/CMakeFiles/light_switch_client_nrf51422_xxAC_s130_2.0.1.dir/__/__/__/external/nRF5_SDK_14.2.0_17b948a/components/toolchain/system_nrf51.c.obj
                                0x2dc (size before relaxing)
 .debug_str     0x0000aee5      0x103 mesh/core/libmesh_core_nrf51422_xxAC.a(nrf_mesh_configure.c.obj)
                                0x723 (size before relaxing)
 .debug_str     0x0000afe8       0x82 mesh/core/libmesh_core_nrf51422_xxAC.a(event.c.obj)
                               0x1495 (size before relaxing)
 .debug_str     0x0000b06a      0x25b mesh/core/libmesh_core_nrf51422_xxAC.a(packet_mgr.c.obj)
                                0x9b0 (size before relaxing)
 .debug_str     0x0000b2c5      0x367 mesh/core/libmesh_core_nrf51422_xxAC.a(net_state.c.obj)
                               0x1e1a (size before relaxing)
 .debug_str     0x0000b62c       0x8b mesh/core/libmesh_core_nrf51422_xxAC.a(nrf_mesh_utils.c.obj)
                                0x73a (size before relaxing)
 .debug_str     0x0000b6b7      0x5a4 mesh/core/libmesh_core_nrf51422_xxAC.a(nrf_mesh.c.obj)
                               0x298a (size before relaxing)
 .debug_str     0x0000bc5b       0xba mesh/core/libmesh_core_nrf51422_xxAC.a(hal.c.obj)
                                0x746 (size before relaxing)
 .debug_str     0x0000bd15      0x14a mesh/core/libmesh_core_nrf51422_xxAC.a(timer_scheduler.c.obj)
                                0x91d (size before relaxing)
 .debug_str     0x0000be5f      0x1d2 mesh/core/libmesh_core_nrf51422_xxAC.a(timer.c.obj)
                                0x743 (size before relaxing)
 .debug_str     0x0000c031       0x3c mesh/core/libmesh_core_nrf51422_xxAC.a(ticker.c.obj)
                                0x33a (size before relaxing)
 .debug_str     0x0000c06d       0xac mesh/core/libmesh_core_nrf51422_xxAC.a(rand.c.obj)
                                0x6f9 (size before relaxing)
 .debug_str     0x0000c119      0x8ba mesh/core/libmesh_core_nrf51422_xxAC.a(timeslot.c.obj)
                               0x1716 (size before relaxing)
 .debug_str     0x0000c9d3      0x2f7 mesh/core/libmesh_core_nrf51422_xxAC.a(bearer_event.c.obj)
                                0xd62 (size before relaxing)
 .debug_str     0x0000ccca      0x1c1 mesh/core/libmesh_core_nrf51422_xxAC.a(enc.c.obj)
                                0x9a3 (size before relaxing)
 .debug_str     0x0000ce8b      0x9bc mesh/core/libmesh_core_nrf51422_xxAC.a(network.c.obj)
                               0x19ab (size before relaxing)
 .debug_str     0x0000d847       0x4e mesh/core/libmesh_core_nrf51422_xxAC.a(nrf_mesh_keygen.c.obj)
                                0x36d (size before relaxing)
 .debug_str     0x0000d895       0x65 mesh/core/libmesh_core_nrf51422_xxAC.a(list.c.obj)
                                0x2a7 (size before relaxing)
 .debug_str     0x0000d8fa       0xf0 mesh/core/libmesh_core_nrf51422_xxAC.a(log.c.obj)
                                0x7b1 (size before relaxing)
 .debug_str     0x0000d9ea      0x8c1 mesh/core/libmesh_core_nrf51422_xxAC.a(flash_manager.c.obj)
                               0x19c2 (size before relaxing)
 .debug_str     0x0000e2ab       0x85 mesh/core/libmesh_core_nrf51422_xxAC.a(ccm_soft.c.obj)
                                0x73e (size before relaxing)
 .debug_str     0x0000e330       0xb2 mesh/core/libmesh_core_nrf51422_xxAC.a(beacon.c.obj)
                               0x10ba (size before relaxing)
 .debug_str     0x0000e3e2       0x38 mesh/core/libmesh_core_nrf51422_xxAC.a(flash_manager_internal.c.obj)
                                0x79f (size before relaxing)
 .debug_str     0x0000e41a      0x142 mesh/core/libmesh_core_nrf51422_xxAC.a(core_tx.c.obj)
                                0x88c (size before relaxing)
 .debug_str     0x0000e55c      0x6f5 mesh/core/libmesh_core_nrf51422_xxAC.a(heartbeat.c.obj)
                               0x200f (size before relaxing)
 .debug_str     0x0000ec51      0x1d1 mesh/core/libmesh_core_nrf51422_xxAC.a(net_beacon.c.obj)
                                0xe58 (size before relaxing)
 .debug_str     0x0000ee22      0x102 mesh/core/libmesh_core_nrf51422_xxAC.a(core_tx_adv.c.obj)
                                0xfc2 (size before relaxing)
 .debug_str     0x0000ef24      0x182 mesh/core/libmesh_core_nrf51422_xxAC.a(ad_listener.c.obj)
                                0xb53 (size before relaxing)
 .debug_str     0x0000f0a6      0x14f mesh/core/libmesh_core_nrf51422_xxAC.a(ad_type_filter.c.obj)
                                0x98d (size before relaxing)
 .debug_str     0x0000f1f5      0x339 mesh/core/libmesh_core_nrf51422_xxAC.a(advertiser.c.obj)
                               0x1459 (size before relaxing)
 .debug_str     0x0000f52e      0x378 mesh/core/libmesh_core_nrf51422_xxAC.a(bearer_handler.c.obj)
                                0xe3e (size before relaxing)
 .debug_str     0x0000f8a6      0x1ac mesh/core/libmesh_core_nrf51422_xxAC.a(broadcast.c.obj)
                                0xea1 (size before relaxing)
 .debug_str     0x0000fa52       0x72 mesh/core/libmesh_core_nrf51422_xxAC.a(filter_engine.c.obj)
                                0x7fa (size before relaxing)
 .debug_str     0x0000fac4       0x79 mesh/core/libmesh_core_nrf51422_xxAC.a(radio_config.c.obj)
                                0x6f0 (size before relaxing)
 .debug_str     0x0000fb3d      0x45d mesh/core/libmesh_core_nrf51422_xxAC.a(scanner.c.obj)
                               0x171c (size before relaxing)
 .debug_str     0x0000ff9a       0xc0 mesh/core/libmesh_core_nrf51422_xxAC.a(internal_event.c.obj)
                                0xa74 (size before relaxing)
 .debug_str     0x0001005a       0xc1 mesh/core/libmesh_core_nrf51422_xxAC.a(aes.c.obj)
                                0xa8b (size before relaxing)
 .debug_str     0x0001011b       0x71 mesh/core/libmesh_core_nrf51422_xxAC.a(msg_cache.c.obj)
                                0x6cb (size before relaxing)
 .debug_str     0x0001018c      0xd41 mesh/core/libmesh_core_nrf51422_xxAC.a(transport.c.obj)
                               0x31ce (size before relaxing)
 .debug_str     0x00010ecd      0x2cd mesh/core/libmesh_core_nrf51422_xxAC.a(packet_buffer.c.obj)
                                0xbe6 (size before relaxing)
 .debug_str     0x0001119a      0x3aa mesh/core/libmesh_core_nrf51422_xxAC.a(flash_manager_defrag.c.obj)
                               0x14e0 (size before relaxing)
 .debug_str     0x00011544       0x69 mesh/core/libmesh_core_nrf51422_xxAC.a(fifo.c.obj)
                                0x6c4 (size before relaxing)
 .debug_str     0x000115ad      0x343 mesh/core/libmesh_core_nrf51422_xxAC.a(mesh_flash.c.obj)
                                0xcd7 (size before relaxing)
 .debug_str     0x000118f0       0x19 mesh/core/libmesh_core_nrf51422_xxAC.a(queue.c.obj)
                                0x66c (size before relaxing)
 .debug_str     0x00011909       0xb2 mesh/core/libmesh_core_nrf51422_xxAC.a(aes_cmac.c.obj)
                                0x6f6 (size before relaxing)
 .debug_str     0x000119bb       0x31 mesh/core/libmesh_core_nrf51422_xxAC.a(nrf_mesh_opt.c.obj)
                                0x902 (size before relaxing)
 .debug_str     0x000119ec       0x43 mesh/core/libmesh_core_nrf51422_xxAC.a(msqueue.c.obj)
                                0x6a8 (size before relaxing)
 .debug_str     0x00011a2f       0x9f mesh/core/libmesh_core_nrf51422_xxAC.a(replay_cache.c.obj)
                                0x69e (size before relaxing)
 .debug_str     0x00011ace       0x75 mesh/core/libmesh_core_nrf51422_xxAC.a(nrf_flash.c.obj)
                                0x692 (size before relaxing)
 .debug_str     0x00011b43      0x2bf external/rtt/librtt_nrf51422_xxAC.a(SEGGER_RTT.c.obj)
                                0x910 (size before relaxing)
 .debug_str     0x00011e02       0xdf external/rtt/librtt_nrf51422_xxAC.a(SEGGER_RTT_printf.c.obj)
                                0x780 (size before relaxing)
 .debug_str     0x00011ee1      0x67f external/micro-ecc/libuECC_nrf51422_xxAC.a(uECC.c.obj)
                                0x86e (size before relaxing)

.debug_frame    0x00000000     0x60ec
 .debug_frame   0x00000000      0x114 examples/light_switch/client/CMakeFiles/light_switch_client_nrf51422_xxAC_s130_2.0.1.dir/src/main.c.obj
 .debug_frame   0x00000114       0xb8 examples/light_switch/client/CMakeFiles/light_switch_client_nrf51422_xxAC_s130_2.0.1.dir/src/provisioner.c.obj
 .debug_frame   0x000001cc      0x154 examples/light_switch/client/CMakeFiles/light_switch_client_nrf51422_xxAC_s130_2.0.1.dir/__/__/nrf_mesh_sdk.c.obj
 .debug_frame   0x00000320       0x54 examples/light_switch/client/CMakeFiles/light_switch_client_nrf51422_xxAC_s130_2.0.1.dir/__/__/common/src/rtt_input.c.obj
 .debug_frame   0x00000374       0xa8 examples/light_switch/client/CMakeFiles/light_switch_client_nrf51422_xxAC_s130_2.0.1.dir/__/__/common/src/simple_hal.c.obj
 .debug_frame   0x0000041c       0x30 examples/light_switch/client/CMakeFiles/light_switch_client_nrf51422_xxAC_s130_2.0.1.dir/__/__/nrf_mesh_weak.c.obj
 .debug_frame   0x0000044c       0xc4 examples/light_switch/client/CMakeFiles/light_switch_client_nrf51422_xxAC_s130_2.0.1.dir/__/__/__/models/simple_on_off/src/simple_on_off_client.c.obj
 .debug_frame   0x00000510      0x560 examples/light_switch/client/CMakeFiles/light_switch_client_nrf51422_xxAC_s130_2.0.1.dir/__/__/__/models/config/src/config_client.c.obj
 .debug_frame   0x00000a70      0x194 examples/light_switch/client/CMakeFiles/light_switch_client_nrf51422_xxAC_s130_2.0.1.dir/__/__/__/models/health/src/health_client.c.obj
 .debug_frame   0x00000c04       0xd8 examples/light_switch/client/CMakeFiles/light_switch_client_nrf51422_xxAC_s130_2.0.1.dir/__/__/__/mesh/access/src/access_publish.c.obj
 .debug_frame   0x00000cdc      0x578 examples/light_switch/client/CMakeFiles/light_switch_client_nrf51422_xxAC_s130_2.0.1.dir/__/__/__/mesh/access/src/access.c.obj
 .debug_frame   0x00001254       0xdc examples/light_switch/client/CMakeFiles/light_switch_client_nrf51422_xxAC_s130_2.0.1.dir/__/__/__/mesh/access/src/access_reliable.c.obj
 .debug_frame   0x00001330      0xa40 examples/light_switch/client/CMakeFiles/light_switch_client_nrf51422_xxAC_s130_2.0.1.dir/__/__/__/mesh/access/src/device_state_manager.c.obj
 .debug_frame   0x00001d70      0x150 examples/light_switch/client/CMakeFiles/light_switch_client_nrf51422_xxAC_s130_2.0.1.dir/__/__/__/mesh/prov/src/prov_provisioner.c.obj
 .debug_frame   0x00001ec0      0x13c examples/light_switch/client/CMakeFiles/light_switch_client_nrf51422_xxAC_s130_2.0.1.dir/__/__/__/mesh/prov/src/nrf_mesh_prov.c.obj
 .debug_frame   0x00001ffc      0x16c examples/light_switch/client/CMakeFiles/light_switch_client_nrf51422_xxAC_s130_2.0.1.dir/__/__/__/mesh/prov/src/provisioning.c.obj
 .debug_frame   0x00002168       0x78 examples/light_switch/client/CMakeFiles/light_switch_client_nrf51422_xxAC_s130_2.0.1.dir/__/__/__/mesh/prov/src/prov_beacon.c.obj
 .debug_frame   0x000021e0      0x13c examples/light_switch/client/CMakeFiles/light_switch_client_nrf51422_xxAC_s130_2.0.1.dir/__/__/__/mesh/prov/src/prov_utils.c.obj
 .debug_frame   0x0000231c      0x298 examples/light_switch/client/CMakeFiles/light_switch_client_nrf51422_xxAC_s130_2.0.1.dir/__/__/__/mesh/prov/src/prov_bearer_adv.c.obj
 .debug_frame   0x000025b4       0x38 examples/light_switch/client/CMakeFiles/light_switch_client_nrf51422_xxAC_s130_2.0.1.dir/__/__/__/external/nRF5_SDK_14.2.0_17b948a/components/toolchain/system_nrf51.c.obj
 .debug_frame   0x000025ec       0x50 mesh/core/libmesh_core_nrf51422_xxAC.a(nrf_mesh_configure.c.obj)
 .debug_frame   0x0000263c       0x5c mesh/core/libmesh_core_nrf51422_xxAC.a(event.c.obj)
 .debug_frame   0x00002698       0x98 mesh/core/libmesh_core_nrf51422_xxAC.a(packet_mgr.c.obj)
 .debug_frame   0x00002730      0x210 mesh/core/libmesh_core_nrf51422_xxAC.a(net_state.c.obj)
 .debug_frame   0x00002940       0x50 mesh/core/libmesh_core_nrf51422_xxAC.a(nrf_mesh_utils.c.obj)
 .debug_frame   0x00002990      0x164 mesh/core/libmesh_core_nrf51422_xxAC.a(nrf_mesh.c.obj)
 .debug_frame   0x00002af4       0x58 mesh/core/libmesh_core_nrf51422_xxAC.a(hal.c.obj)
 .debug_frame   0x00002b4c      0x124 mesh/core/libmesh_core_nrf51422_xxAC.a(timer_scheduler.c.obj)
 .debug_frame   0x00002c70      0x110 mesh/core/libmesh_core_nrf51422_xxAC.a(timer.c.obj)
 .debug_frame   0x00002d80       0x48 mesh/core/libmesh_core_nrf51422_xxAC.a(ticker.c.obj)
 .debug_frame   0x00002dc8       0x90 mesh/core/libmesh_core_nrf51422_xxAC.a(rand.c.obj)
 .debug_frame   0x00002e58      0x1b0 mesh/core/libmesh_core_nrf51422_xxAC.a(timeslot.c.obj)
 .debug_frame   0x00003008      0x1b0 mesh/core/libmesh_core_nrf51422_xxAC.a(bearer_event.c.obj)
 .debug_frame   0x000031b8      0x14c mesh/core/libmesh_core_nrf51422_xxAC.a(enc.c.obj)
 .debug_frame   0x00003304      0x110 mesh/core/libmesh_core_nrf51422_xxAC.a(network.c.obj)
 .debug_frame   0x00003414       0xa4 mesh/core/libmesh_core_nrf51422_xxAC.a(nrf_mesh_keygen.c.obj)
 .debug_frame   0x000034b8       0xb8 mesh/core/libmesh_core_nrf51422_xxAC.a(list.c.obj)
 .debug_frame   0x00003570       0xac mesh/core/libmesh_core_nrf51422_xxAC.a(log.c.obj)
 .debug_frame   0x0000361c      0x308 mesh/core/libmesh_core_nrf51422_xxAC.a(flash_manager.c.obj)
 .debug_frame   0x00003924       0xec mesh/core/libmesh_core_nrf51422_xxAC.a(ccm_soft.c.obj)
 .debug_frame   0x00003a10       0x90 mesh/core/libmesh_core_nrf51422_xxAC.a(beacon.c.obj)
 .debug_frame   0x00003aa0       0x34 mesh/core/libmesh_core_nrf51422_xxAC.a(flash_manager_internal.c.obj)
 .debug_frame   0x00003ad4       0xd8 mesh/core/libmesh_core_nrf51422_xxAC.a(core_tx.c.obj)
 .debug_frame   0x00003bac      0x14c mesh/core/libmesh_core_nrf51422_xxAC.a(heartbeat.c.obj)
 .debug_frame   0x00003cf8       0xb8 mesh/core/libmesh_core_nrf51422_xxAC.a(net_beacon.c.obj)
 .debug_frame   0x00003db0      0x11c mesh/core/libmesh_core_nrf51422_xxAC.a(core_tx_adv.c.obj)
 .debug_frame   0x00003ecc       0x74 mesh/core/libmesh_core_nrf51422_xxAC.a(ad_listener.c.obj)
 .debug_frame   0x00003f40       0xbc mesh/core/libmesh_core_nrf51422_xxAC.a(ad_type_filter.c.obj)
 .debug_frame   0x00003ffc      0x214 mesh/core/libmesh_core_nrf51422_xxAC.a(advertiser.c.obj)
 .debug_frame   0x00004210      0x12c mesh/core/libmesh_core_nrf51422_xxAC.a(bearer_handler.c.obj)
 .debug_frame   0x0000433c       0x64 mesh/core/libmesh_core_nrf51422_xxAC.a(broadcast.c.obj)
 .debug_frame   0x000043a0       0x6c mesh/core/libmesh_core_nrf51422_xxAC.a(filter_engine.c.obj)
 .debug_frame   0x0000440c       0x88 mesh/core/libmesh_core_nrf51422_xxAC.a(radio_config.c.obj)
 .debug_frame   0x00004494      0x288 mesh/core/libmesh_core_nrf51422_xxAC.a(scanner.c.obj)
 .debug_frame   0x0000471c       0x58 mesh/core/libmesh_core_nrf51422_xxAC.a(internal_event.c.obj)
 .debug_frame   0x00004774       0x3c mesh/core/libmesh_core_nrf51422_xxAC.a(aes.c.obj)
 .debug_frame   0x000047b0       0x74 mesh/core/libmesh_core_nrf51422_xxAC.a(msg_cache.c.obj)
 .debug_frame   0x00004824      0x3cc mesh/core/libmesh_core_nrf51422_xxAC.a(transport.c.obj)
 .debug_frame   0x00004bf0      0x178 mesh/core/libmesh_core_nrf51422_xxAC.a(packet_buffer.c.obj)
 .debug_frame   0x00004d68      0x24c mesh/core/libmesh_core_nrf51422_xxAC.a(flash_manager_defrag.c.obj)
 .debug_frame   0x00004fb4       0xd4 mesh/core/libmesh_core_nrf51422_xxAC.a(fifo.c.obj)
 .debug_frame   0x00005088      0x11c mesh/core/libmesh_core_nrf51422_xxAC.a(mesh_flash.c.obj)
 .debug_frame   0x000051a4       0x74 mesh/core/libmesh_core_nrf51422_xxAC.a(queue.c.obj)
 .debug_frame   0x00005218       0x84 mesh/core/libmesh_core_nrf51422_xxAC.a(aes_cmac.c.obj)
 .debug_frame   0x0000529c       0x40 mesh/core/libmesh_core_nrf51422_xxAC.a(nrf_mesh_opt.c.obj)
 .debug_frame   0x000052dc       0xa4 mesh/core/libmesh_core_nrf51422_xxAC.a(msqueue.c.obj)
 .debug_frame   0x00005380       0xa8 mesh/core/libmesh_core_nrf51422_xxAC.a(replay_cache.c.obj)
 .debug_frame   0x00005428       0x64 mesh/core/libmesh_core_nrf51422_xxAC.a(nrf_flash.c.obj)
 .debug_frame   0x0000548c      0x2d8 external/rtt/librtt_nrf51422_xxAC.a(SEGGER_RTT.c.obj)
 .debug_frame   0x00005764       0x88 external/rtt/librtt_nrf51422_xxAC.a(SEGGER_RTT_printf.c.obj)
 .debug_frame   0x000057ec      0x5a0 external/micro-ecc/libuECC_nrf51422_xxAC.a(uECC.c.obj)
 .debug_frame   0x00005d8c       0x20 c:/a/gcc_arm/6/bin/../lib/gcc/arm-none-eabi/6.3.1/thumb/v6-m\libgcc.a(_udivsi3.o)
 .debug_frame   0x00005dac       0x20 c:/a/gcc_arm/6/bin/../lib/gcc/arm-none-eabi/6.3.1/thumb/v6-m\libgcc.a(_divsi3.o)
 .debug_frame   0x00005dcc       0x34 c:/a/gcc_arm/6/bin/../lib/gcc/arm-none-eabi/6.3.1/thumb/v6-m\libgcc.a(_muldi3.o)
 .debug_frame   0x00005e00       0x3c c:/a/gcc_arm/6/bin/../lib/gcc/arm-none-eabi/6.3.1/thumb/v6-m\libgcc.a(_udivmoddi4.o)
 .debug_frame   0x00005e3c       0x28 c:/a/gcc_arm/6/bin/../lib/gcc/arm-none-eabi/6.3.1/../../../../arm-none-eabi/lib/thumb/v6-m\libg_nano.a(lib_a-exit.o)
 .debug_frame   0x00005e64       0x2c c:/a/gcc_arm/6/bin/../lib/gcc/arm-none-eabi/6.3.1/../../../../arm-none-eabi/lib/thumb/v6-m\libg_nano.a(lib_a-init.o)
 .debug_frame   0x00005e90       0x40 c:/a/gcc_arm/6/bin/../lib/gcc/arm-none-eabi/6.3.1/../../../../arm-none-eabi/lib/thumb/v6-m\libg_nano.a(lib_a-malloc.o)
 .debug_frame   0x00005ed0       0x2c c:/a/gcc_arm/6/bin/../lib/gcc/arm-none-eabi/6.3.1/../../../../arm-none-eabi/lib/thumb/v6-m\libg_nano.a(lib_a-memcmp.o)
 .debug_frame   0x00005efc       0x28 c:/a/gcc_arm/6/bin/../lib/gcc/arm-none-eabi/6.3.1/../../../../arm-none-eabi/lib/thumb/v6-m\libg_nano.a(lib_a-memcpy-stub.o)
 .debug_frame   0x00005f24       0x20 c:/a/gcc_arm/6/bin/../lib/gcc/arm-none-eabi/6.3.1/../../../../arm-none-eabi/lib/thumb/v6-m\libg_nano.a(lib_a-memset.o)
 .debug_frame   0x00005f44       0x2c c:/a/gcc_arm/6/bin/../lib/gcc/arm-none-eabi/6.3.1/../../../../arm-none-eabi/lib/thumb/v6-m\libg_nano.a(lib_a-nano-freer.o)
 .debug_frame   0x00005f70       0x2c c:/a/gcc_arm/6/bin/../lib/gcc/arm-none-eabi/6.3.1/../../../../arm-none-eabi/lib/thumb/v6-m\libg_nano.a(lib_a-nano-mallocr.o)
 .debug_frame   0x00005f9c       0x2c c:/a/gcc_arm/6/bin/../lib/gcc/arm-none-eabi/6.3.1/../../../../arm-none-eabi/lib/thumb/v6-m\libg_nano.a(lib_a-sbrkr.o)
 .debug_frame   0x00005fc8       0x20 c:/a/gcc_arm/6/bin/../lib/gcc/arm-none-eabi/6.3.1/../../../../arm-none-eabi/lib/thumb/v6-m\libg_nano.a(lib_a-strcpy.o)
 .debug_frame   0x00005fe8       0x2c c:/a/gcc_arm/6/bin/../lib/gcc/arm-none-eabi/6.3.1/../../../../arm-none-eabi/lib/thumb/v6-m\libg_nano.a(lib_a-strrchr.o)
 .debug_frame   0x00006014       0x30 c:/a/gcc_arm/6/bin/../lib/gcc/arm-none-eabi/6.3.1/../../../../arm-none-eabi/lib/thumb/v6-m\libg_nano.a(lib_a-mlock.o)
 .debug_frame   0x00006044       0x48 c:/a/gcc_arm/6/bin/../lib/gcc/arm-none-eabi/6.3.1/../../../../arm-none-eabi/lib/thumb/v6-m\libg_nano.a(lib_a-reent.o)
 .debug_frame   0x0000608c       0x20 c:/a/gcc_arm/6/bin/../lib/gcc/arm-none-eabi/6.3.1/../../../../arm-none-eabi/lib/thumb/v6-m\libg_nano.a(lib_a-strchr.o)
 .debug_frame   0x000060ac       0x20 c:/a/gcc_arm/6/bin/../lib/gcc/arm-none-eabi/6.3.1/../../../../arm-none-eabi/lib/thumb/v6-m\libnosys.a(sbrk.o)
 .debug_frame   0x000060cc       0x20 c:/a/gcc_arm/6/bin/../lib/gcc/arm-none-eabi/6.3.1/../../../../arm-none-eabi/lib/thumb/v6-m\libnosys.a(_exit.o)
