Archive member included to satisfy reference by file (symbol)

external/rtt/librtt_nrf52840_xxAA.a(SEGGER_RTT.c.obj)
                              examples/light_switch/provisioner/CMakeFiles/light_switch_provisioner_nrf52840_xxAA_s140_6.0.0.dir/__/__/__/mesh/core/src/log.c.obj (SEGGER_RTT_Write)
external/rtt/librtt_nrf52840_xxAA.a(SEGGER_RTT_printf.c.obj)
                              examples/light_switch/provisioner/CMakeFiles/light_switch_provisioner_nrf52840_xxAA_s140_6.0.0.dir/__/__/__/mesh/core/src/log.c.obj (SEGGER_RTT_vprintf)
external/micro-ecc/libuECC_nrf52840_xxAA.a(uECC.c.obj)
                              examples/light_switch/provisioner/CMakeFiles/light_switch_provisioner_nrf52840_xxAA_s140_6.0.0.dir/__/__/__/mesh/prov/src/prov_utils.c.obj (uECC_secp256r1)
c:/mesh/arm_gcc/bin/../lib/gcc/arm-none-eabi/6.3.1/thumb/v7e-m/fpv4-sp/hard\libgcc.a(_aeabi_uldivmod.o)
                              examples/light_switch/provisioner/CMakeFiles/light_switch_provisioner_nrf52840_xxAA_s140_6.0.0.dir/__/__/common/src/rtt_input.c.obj (__aeabi_uldivmod)
c:/mesh/arm_gcc/bin/../lib/gcc/arm-none-eabi/6.3.1/thumb/v7e-m/fpv4-sp/hard\libgcc.a(_udivmoddi4.o)
                              c:/mesh/arm_gcc/bin/../lib/gcc/arm-none-eabi/6.3.1/thumb/v7e-m/fpv4-sp/hard\libgcc.a(_aeabi_uldivmod.o) (__udivmoddi4)
c:/mesh/arm_gcc/bin/../lib/gcc/arm-none-eabi/6.3.1/thumb/v7e-m/fpv4-sp/hard\libgcc.a(_dvmd_tls.o)
                              c:/mesh/arm_gcc/bin/../lib/gcc/arm-none-eabi/6.3.1/thumb/v7e-m/fpv4-sp/hard\libgcc.a(_aeabi_uldivmod.o) (__aeabi_ldiv0)
c:/mesh/arm_gcc/bin/../lib/gcc/arm-none-eabi/6.3.1/../../../../arm-none-eabi/lib/thumb/v7e-m/fpv4-sp/hard\libc_nano.a(lib_a-exit.o)
                              c:/mesh/arm_gcc/bin/../lib/gcc/arm-none-eabi/6.3.1/../../../../arm-none-eabi/lib/thumb/v7e-m/fpv4-sp/hard/crt0.o (exit)
c:/mesh/arm_gcc/bin/../lib/gcc/arm-none-eabi/6.3.1/../../../../arm-none-eabi/lib/thumb/v7e-m/fpv4-sp/hard\libc_nano.a(lib_a-impure.o)
                              c:/mesh/arm_gcc/bin/../lib/gcc/arm-none-eabi/6.3.1/../../../../arm-none-eabi/lib/thumb/v7e-m/fpv4-sp/hard\libc_nano.a(lib_a-exit.o) (_global_impure_ptr)
c:/mesh/arm_gcc/bin/../lib/gcc/arm-none-eabi/6.3.1/../../../../arm-none-eabi/lib/thumb/v7e-m/fpv4-sp/hard\libc_nano.a(lib_a-init.o)
                              c:/mesh/arm_gcc/bin/../lib/gcc/arm-none-eabi/6.3.1/../../../../arm-none-eabi/lib/thumb/v7e-m/fpv4-sp/hard/crt0.o (__libc_init_array)
c:/mesh/arm_gcc/bin/../lib/gcc/arm-none-eabi/6.3.1/../../../../arm-none-eabi/lib/thumb/v7e-m/fpv4-sp/hard\libc_nano.a(lib_a-malloc.o)
                              examples/light_switch/provisioner/CMakeFiles/light_switch_provisioner_nrf52840_xxAA_s140_6.0.0.dir/__/__/__/mesh/core/src/transport.c.obj (malloc)
c:/mesh/arm_gcc/bin/../lib/gcc/arm-none-eabi/6.3.1/../../../../arm-none-eabi/lib/thumb/v7e-m/fpv4-sp/hard\libc_nano.a(lib_a-memcmp.o)
                              examples/light_switch/provisioner/CMakeFiles/light_switch_provisioner_nrf52840_xxAA_s140_6.0.0.dir/src/provisioner_helper.c.obj (memcmp)
c:/mesh/arm_gcc/bin/../lib/gcc/arm-none-eabi/6.3.1/../../../../arm-none-eabi/lib/thumb/v7e-m/fpv4-sp/hard\libc_nano.a(lib_a-memcpy-stub.o)
                              examples/light_switch/provisioner/CMakeFiles/light_switch_provisioner_nrf52840_xxAA_s140_6.0.0.dir/src/main.c.obj (memcpy)
c:/mesh/arm_gcc/bin/../lib/gcc/arm-none-eabi/6.3.1/../../../../arm-none-eabi/lib/thumb/v7e-m/fpv4-sp/hard\libc_nano.a(lib_a-memset.o)
                              c:/mesh/arm_gcc/bin/../lib/gcc/arm-none-eabi/6.3.1/../../../../arm-none-eabi/lib/thumb/v7e-m/fpv4-sp/hard/crt0.o (memset)
c:/mesh/arm_gcc/bin/../lib/gcc/arm-none-eabi/6.3.1/../../../../arm-none-eabi/lib/thumb/v7e-m/fpv4-sp/hard\libc_nano.a(lib_a-nano-freer.o)
                              c:/mesh/arm_gcc/bin/../lib/gcc/arm-none-eabi/6.3.1/../../../../arm-none-eabi/lib/thumb/v7e-m/fpv4-sp/hard\libc_nano.a(lib_a-malloc.o) (_free_r)
c:/mesh/arm_gcc/bin/../lib/gcc/arm-none-eabi/6.3.1/../../../../arm-none-eabi/lib/thumb/v7e-m/fpv4-sp/hard\libc_nano.a(lib_a-nano-mallocr.o)
                              c:/mesh/arm_gcc/bin/../lib/gcc/arm-none-eabi/6.3.1/../../../../arm-none-eabi/lib/thumb/v7e-m/fpv4-sp/hard\libc_nano.a(lib_a-malloc.o) (_malloc_r)
c:/mesh/arm_gcc/bin/../lib/gcc/arm-none-eabi/6.3.1/../../../../arm-none-eabi/lib/thumb/v7e-m/fpv4-sp/hard\libc_nano.a(lib_a-sbrkr.o)
                              c:/mesh/arm_gcc/bin/../lib/gcc/arm-none-eabi/6.3.1/../../../../arm-none-eabi/lib/thumb/v7e-m/fpv4-sp/hard\libc_nano.a(lib_a-nano-mallocr.o) (_sbrk_r)
c:/mesh/arm_gcc/bin/../lib/gcc/arm-none-eabi/6.3.1/../../../../arm-none-eabi/lib/thumb/v7e-m/fpv4-sp/hard\libc_nano.a(lib_a-strcpy.o)
                              external/rtt/librtt_nrf52840_xxAA.a(SEGGER_RTT.c.obj) (strcpy)
c:/mesh/arm_gcc/bin/../lib/gcc/arm-none-eabi/6.3.1/../../../../arm-none-eabi/lib/thumb/v7e-m/fpv4-sp/hard\libc_nano.a(lib_a-strlen.o)
                              examples/light_switch/provisioner/CMakeFiles/light_switch_provisioner_nrf52840_xxAA_s140_6.0.0.dir/__/__/__/mesh/core/src/uri.c.obj (strlen)
c:/mesh/arm_gcc/bin/../lib/gcc/arm-none-eabi/6.3.1/../../../../arm-none-eabi/lib/thumb/v7e-m/fpv4-sp/hard\libc_nano.a(lib_a-strrchr.o)
                              examples/light_switch/provisioner/CMakeFiles/light_switch_provisioner_nrf52840_xxAA_s140_6.0.0.dir/src/main.c.obj (strrchr)
c:/mesh/arm_gcc/bin/../lib/gcc/arm-none-eabi/6.3.1/../../../../arm-none-eabi/lib/thumb/v7e-m/fpv4-sp/hard\libc_nano.a(lib_a-mlock.o)
                              c:/mesh/arm_gcc/bin/../lib/gcc/arm-none-eabi/6.3.1/../../../../arm-none-eabi/lib/thumb/v7e-m/fpv4-sp/hard\libc_nano.a(lib_a-nano-freer.o) (__malloc_lock)
c:/mesh/arm_gcc/bin/../lib/gcc/arm-none-eabi/6.3.1/../../../../arm-none-eabi/lib/thumb/v7e-m/fpv4-sp/hard\libc_nano.a(lib_a-reent.o)
                              c:/mesh/arm_gcc/bin/../lib/gcc/arm-none-eabi/6.3.1/../../../../arm-none-eabi/lib/thumb/v7e-m/fpv4-sp/hard\libc_nano.a(lib_a-sbrkr.o) (errno)
c:/mesh/arm_gcc/bin/../lib/gcc/arm-none-eabi/6.3.1/../../../../arm-none-eabi/lib/thumb/v7e-m/fpv4-sp/hard\libc_nano.a(lib_a-strchr.o)
                              c:/mesh/arm_gcc/bin/../lib/gcc/arm-none-eabi/6.3.1/../../../../arm-none-eabi/lib/thumb/v7e-m/fpv4-sp/hard\libc_nano.a(lib_a-strrchr.o) (strchr)
c:/mesh/arm_gcc/bin/../lib/gcc/arm-none-eabi/6.3.1/../../../../arm-none-eabi/lib/thumb/v7e-m/fpv4-sp/hard\libnosys.a(sbrk.o)
                              c:/mesh/arm_gcc/bin/../lib/gcc/arm-none-eabi/6.3.1/../../../../arm-none-eabi/lib/thumb/v7e-m/fpv4-sp/hard\libc_nano.a(lib_a-sbrkr.o) (_sbrk)
c:/mesh/arm_gcc/bin/../lib/gcc/arm-none-eabi/6.3.1/../../../../arm-none-eabi/lib/thumb/v7e-m/fpv4-sp/hard\libnosys.a(_exit.o)
                              c:/mesh/arm_gcc/bin/../lib/gcc/arm-none-eabi/6.3.1/../../../../arm-none-eabi/lib/thumb/v7e-m/fpv4-sp/hard\libc_nano.a(lib_a-exit.o) (_exit)

Allocating common symbols
Common symbol       size              file

nrf_nvic_state      0xc               examples/light_switch/provisioner/CMakeFiles/light_switch_provisioner_nrf52840_xxAA_s140_6.0.0.dir/__/__/common/src/mesh_softdevice_init.c.obj
m_packet            0x24              examples/light_switch/provisioner/CMakeFiles/light_switch_provisioner_nrf52840_xxAA_s140_6.0.0.dir/__/__/__/mesh/core/src/core_tx.c.obj
errno               0x4               c:/mesh/arm_gcc/bin/../lib/gcc/arm-none-eabi/6.3.1/../../../../arm-none-eabi/lib/thumb/v7e-m/fpv4-sp/hard\libc_nano.a(lib_a-reent.o)
_SEGGER_RTT         0x78              external/rtt/librtt_nrf52840_xxAA.a(SEGGER_RTT.c.obj)

Discarded input sections

 .text          0x00000000        0x0 c:/mesh/arm_gcc/bin/../lib/gcc/arm-none-eabi/6.3.1/thumb/v7e-m/fpv4-sp/hard/crti.o
 .data          0x00000000        0x0 c:/mesh/arm_gcc/bin/../lib/gcc/arm-none-eabi/6.3.1/thumb/v7e-m/fpv4-sp/hard/crti.o
 .bss           0x00000000        0x0 c:/mesh/arm_gcc/bin/../lib/gcc/arm-none-eabi/6.3.1/thumb/v7e-m/fpv4-sp/hard/crti.o
 .data          0x00000000        0x4 c:/mesh/arm_gcc/bin/../lib/gcc/arm-none-eabi/6.3.1/thumb/v7e-m/fpv4-sp/hard/crtbegin.o
 .data          0x00000000        0x0 c:/mesh/arm_gcc/bin/../lib/gcc/arm-none-eabi/6.3.1/../../../../arm-none-eabi/lib/thumb/v7e-m/fpv4-sp/hard/crt0.o
 .bss           0x00000000        0x0 c:/mesh/arm_gcc/bin/../lib/gcc/arm-none-eabi/6.3.1/../../../../arm-none-eabi/lib/thumb/v7e-m/fpv4-sp/hard/crt0.o
 .ARM.extab     0x00000000        0x0 c:/mesh/arm_gcc/bin/../lib/gcc/arm-none-eabi/6.3.1/../../../../arm-none-eabi/lib/thumb/v7e-m/fpv4-sp/hard/crt0.o
 .text          0x00000000        0x0 examples/light_switch/provisioner/CMakeFiles/light_switch_provisioner_nrf52840_xxAA_s140_6.0.0.dir/src/main.c.obj
 .data          0x00000000        0x0 examples/light_switch/provisioner/CMakeFiles/light_switch_provisioner_nrf52840_xxAA_s140_6.0.0.dir/src/main.c.obj
 .bss           0x00000000        0x0 examples/light_switch/provisioner/CMakeFiles/light_switch_provisioner_nrf52840_xxAA_s140_6.0.0.dir/src/main.c.obj
 .text          0x00000000        0x0 examples/light_switch/provisioner/CMakeFiles/light_switch_provisioner_nrf52840_xxAA_s140_6.0.0.dir/__/__/__/mesh/stack/src/mesh_stack.c.obj
 .data          0x00000000        0x0 examples/light_switch/provisioner/CMakeFiles/light_switch_provisioner_nrf52840_xxAA_s140_6.0.0.dir/__/__/__/mesh/stack/src/mesh_stack.c.obj
 .bss           0x00000000        0x0 examples/light_switch/provisioner/CMakeFiles/light_switch_provisioner_nrf52840_xxAA_s140_6.0.0.dir/__/__/__/mesh/stack/src/mesh_stack.c.obj
 .text.mesh_evt_handler
                0x00000000       0x10 examples/light_switch/provisioner/CMakeFiles/light_switch_provisioner_nrf52840_xxAA_s140_6.0.0.dir/__/__/__/mesh/stack/src/mesh_stack.c.obj
 .text.mesh_stack_start
                0x00000000        0x4 examples/light_switch/provisioner/CMakeFiles/light_switch_provisioner_nrf52840_xxAA_s140_6.0.0.dir/__/__/__/mesh/stack/src/mesh_stack.c.obj
 .text.mesh_stack_provisioning_data_store
                0x00000000       0x78 examples/light_switch/provisioner/CMakeFiles/light_switch_provisioner_nrf52840_xxAA_s140_6.0.0.dir/__/__/__/mesh/stack/src/mesh_stack.c.obj
 .text.mesh_stack_is_device_provisioned
                0x00000000       0x1c examples/light_switch/provisioner/CMakeFiles/light_switch_provisioner_nrf52840_xxAA_s140_6.0.0.dir/__/__/__/mesh/stack/src/mesh_stack.c.obj
 .text.mesh_stack_device_reset
                0x00000000       0x20 examples/light_switch/provisioner/CMakeFiles/light_switch_provisioner_nrf52840_xxAA_s140_6.0.0.dir/__/__/__/mesh/stack/src/mesh_stack.c.obj
 .data.s_evt_handler.11348
                0x00000000        0x8 examples/light_switch/provisioner/CMakeFiles/light_switch_provisioner_nrf52840_xxAA_s140_6.0.0.dir/__/__/__/mesh/stack/src/mesh_stack.c.obj
 .text          0x00000000        0x0 examples/light_switch/provisioner/CMakeFiles/light_switch_provisioner_nrf52840_xxAA_s140_6.0.0.dir/src/provisioner_helper.c.obj
 .data          0x00000000        0x0 examples/light_switch/provisioner/CMakeFiles/light_switch_provisioner_nrf52840_xxAA_s140_6.0.0.dir/src/provisioner_helper.c.obj
 .bss           0x00000000        0x0 examples/light_switch/provisioner/CMakeFiles/light_switch_provisioner_nrf52840_xxAA_s140_6.0.0.dir/src/provisioner_helper.c.obj
 .text.prov_helper_element_count_get
                0x00000000        0xc examples/light_switch/provisioner/CMakeFiles/light_switch_provisioner_nrf52840_xxAA_s140_6.0.0.dir/src/provisioner_helper.c.obj
 .text          0x00000000        0x0 examples/light_switch/provisioner/CMakeFiles/light_switch_provisioner_nrf52840_xxAA_s140_6.0.0.dir/src/node_setup.c.obj
 .data          0x00000000        0x0 examples/light_switch/provisioner/CMakeFiles/light_switch_provisioner_nrf52840_xxAA_s140_6.0.0.dir/src/node_setup.c.obj
 .bss           0x00000000        0x0 examples/light_switch/provisioner/CMakeFiles/light_switch_provisioner_nrf52840_xxAA_s140_6.0.0.dir/src/node_setup.c.obj
 .text          0x00000000        0x0 examples/light_switch/provisioner/CMakeFiles/light_switch_provisioner_nrf52840_xxAA_s140_6.0.0.dir/__/__/common/src/mesh_softdevice_init.c.obj
 .data          0x00000000        0x0 examples/light_switch/provisioner/CMakeFiles/light_switch_provisioner_nrf52840_xxAA_s140_6.0.0.dir/__/__/common/src/mesh_softdevice_init.c.obj
 .bss           0x00000000        0x0 examples/light_switch/provisioner/CMakeFiles/light_switch_provisioner_nrf52840_xxAA_s140_6.0.0.dir/__/__/common/src/mesh_softdevice_init.c.obj
 .text          0x00000000        0x0 examples/light_switch/provisioner/CMakeFiles/light_switch_provisioner_nrf52840_xxAA_s140_6.0.0.dir/__/__/common/src/rtt_input.c.obj
 .data          0x00000000        0x0 examples/light_switch/provisioner/CMakeFiles/light_switch_provisioner_nrf52840_xxAA_s140_6.0.0.dir/__/__/common/src/rtt_input.c.obj
 .bss           0x00000000        0x0 examples/light_switch/provisioner/CMakeFiles/light_switch_provisioner_nrf52840_xxAA_s140_6.0.0.dir/__/__/common/src/rtt_input.c.obj
 .text.rtt_input_disable
                0x00000000       0x28 examples/light_switch/provisioner/CMakeFiles/light_switch_provisioner_nrf52840_xxAA_s140_6.0.0.dir/__/__/common/src/rtt_input.c.obj
 .text          0x00000000        0x0 examples/light_switch/provisioner/CMakeFiles/light_switch_provisioner_nrf52840_xxAA_s140_6.0.0.dir/__/__/common/src/simple_hal.c.obj
 .data          0x00000000        0x0 examples/light_switch/provisioner/CMakeFiles/light_switch_provisioner_nrf52840_xxAA_s140_6.0.0.dir/__/__/common/src/simple_hal.c.obj
 .bss           0x00000000        0x0 examples/light_switch/provisioner/CMakeFiles/light_switch_provisioner_nrf52840_xxAA_s140_6.0.0.dir/__/__/common/src/simple_hal.c.obj
 .text.hal_led_pin_get
                0x00000000       0x18 examples/light_switch/provisioner/CMakeFiles/light_switch_provisioner_nrf52840_xxAA_s140_6.0.0.dir/__/__/common/src/simple_hal.c.obj
 .text          0x00000000        0x0 examples/light_switch/provisioner/CMakeFiles/light_switch_provisioner_nrf52840_xxAA_s140_6.0.0.dir/__/__/nrf_mesh_weak.c.obj
 .data          0x00000000        0x0 examples/light_switch/provisioner/CMakeFiles/light_switch_provisioner_nrf52840_xxAA_s140_6.0.0.dir/__/__/nrf_mesh_weak.c.obj
 .bss           0x00000000        0x0 examples/light_switch/provisioner/CMakeFiles/light_switch_provisioner_nrf52840_xxAA_s140_6.0.0.dir/__/__/nrf_mesh_weak.c.obj
 .text._weak_handler_ptr
                0x00000000        0x4 examples/light_switch/provisioner/CMakeFiles/light_switch_provisioner_nrf52840_xxAA_s140_6.0.0.dir/__/__/nrf_mesh_weak.c.obj
 .text          0x00000000        0x0 examples/light_switch/provisioner/CMakeFiles/light_switch_provisioner_nrf52840_xxAA_s140_6.0.0.dir/__/__/common/src/app_error_weak.c.obj
 .data          0x00000000        0x0 examples/light_switch/provisioner/CMakeFiles/light_switch_provisioner_nrf52840_xxAA_s140_6.0.0.dir/__/__/common/src/app_error_weak.c.obj
 .bss           0x00000000        0x0 examples/light_switch/provisioner/CMakeFiles/light_switch_provisioner_nrf52840_xxAA_s140_6.0.0.dir/__/__/common/src/app_error_weak.c.obj
 .text          0x00000000        0x0 examples/light_switch/provisioner/CMakeFiles/light_switch_provisioner_nrf52840_xxAA_s140_6.0.0.dir/__/__/common/src/assertion_handler_weak.c.obj
 .data          0x00000000        0x0 examples/light_switch/provisioner/CMakeFiles/light_switch_provisioner_nrf52840_xxAA_s140_6.0.0.dir/__/__/common/src/assertion_handler_weak.c.obj
 .bss           0x00000000        0x0 examples/light_switch/provisioner/CMakeFiles/light_switch_provisioner_nrf52840_xxAA_s140_6.0.0.dir/__/__/common/src/assertion_handler_weak.c.obj
 .text          0x00000000        0x0 examples/light_switch/provisioner/CMakeFiles/light_switch_provisioner_nrf52840_xxAA_s140_6.0.0.dir/__/__/__/mesh/core/src/internal_event.c.obj
 .data          0x00000000        0x0 examples/light_switch/provisioner/CMakeFiles/light_switch_provisioner_nrf52840_xxAA_s140_6.0.0.dir/__/__/__/mesh/core/src/internal_event.c.obj
 .bss           0x00000000        0x0 examples/light_switch/provisioner/CMakeFiles/light_switch_provisioner_nrf52840_xxAA_s140_6.0.0.dir/__/__/__/mesh/core/src/internal_event.c.obj
 .comment       0x00000000       0x80 examples/light_switch/provisioner/CMakeFiles/light_switch_provisioner_nrf52840_xxAA_s140_6.0.0.dir/__/__/__/mesh/core/src/internal_event.c.obj
 .ARM.attributes
                0x00000000       0x39 examples/light_switch/provisioner/CMakeFiles/light_switch_provisioner_nrf52840_xxAA_s140_6.0.0.dir/__/__/__/mesh/core/src/internal_event.c.obj
 .text          0x00000000        0x0 examples/light_switch/provisioner/CMakeFiles/light_switch_provisioner_nrf52840_xxAA_s140_6.0.0.dir/__/__/__/mesh/core/src/nrf_mesh_configure.c.obj
 .data          0x00000000        0x0 examples/light_switch/provisioner/CMakeFiles/light_switch_provisioner_nrf52840_xxAA_s140_6.0.0.dir/__/__/__/mesh/core/src/nrf_mesh_configure.c.obj
 .bss           0x00000000        0x0 examples/light_switch/provisioner/CMakeFiles/light_switch_provisioner_nrf52840_xxAA_s140_6.0.0.dir/__/__/__/mesh/core/src/nrf_mesh_configure.c.obj
 .text          0x00000000        0x0 examples/light_switch/provisioner/CMakeFiles/light_switch_provisioner_nrf52840_xxAA_s140_6.0.0.dir/__/__/__/mesh/core/src/aes.c.obj
 .data          0x00000000        0x0 examples/light_switch/provisioner/CMakeFiles/light_switch_provisioner_nrf52840_xxAA_s140_6.0.0.dir/__/__/__/mesh/core/src/aes.c.obj
 .bss           0x00000000        0x0 examples/light_switch/provisioner/CMakeFiles/light_switch_provisioner_nrf52840_xxAA_s140_6.0.0.dir/__/__/__/mesh/core/src/aes.c.obj
 .text          0x00000000        0x0 examples/light_switch/provisioner/CMakeFiles/light_switch_provisioner_nrf52840_xxAA_s140_6.0.0.dir/__/__/__/mesh/core/src/msg_cache.c.obj
 .data          0x00000000        0x0 examples/light_switch/provisioner/CMakeFiles/light_switch_provisioner_nrf52840_xxAA_s140_6.0.0.dir/__/__/__/mesh/core/src/msg_cache.c.obj
 .bss           0x00000000        0x0 examples/light_switch/provisioner/CMakeFiles/light_switch_provisioner_nrf52840_xxAA_s140_6.0.0.dir/__/__/__/mesh/core/src/msg_cache.c.obj
 .text.msg_cache_clear
                0x00000000       0x18 examples/light_switch/provisioner/CMakeFiles/light_switch_provisioner_nrf52840_xxAA_s140_6.0.0.dir/__/__/__/mesh/core/src/msg_cache.c.obj
 .text          0x00000000        0x0 examples/light_switch/provisioner/CMakeFiles/light_switch_provisioner_nrf52840_xxAA_s140_6.0.0.dir/__/__/__/mesh/core/src/transport.c.obj
 .data          0x00000000        0x0 examples/light_switch/provisioner/CMakeFiles/light_switch_provisioner_nrf52840_xxAA_s140_6.0.0.dir/__/__/__/mesh/core/src/transport.c.obj
 .bss           0x00000000        0x0 examples/light_switch/provisioner/CMakeFiles/light_switch_provisioner_nrf52840_xxAA_s140_6.0.0.dir/__/__/__/mesh/core/src/transport.c.obj
 .text.transport_sar_mem_funcs_reset
                0x00000000       0x30 examples/light_switch/provisioner/CMakeFiles/light_switch_provisioner_nrf52840_xxAA_s140_6.0.0.dir/__/__/__/mesh/core/src/transport.c.obj
 .text.transport_sar_mem_funcs_set
                0x00000000       0x48 examples/light_switch/provisioner/CMakeFiles/light_switch_provisioner_nrf52840_xxAA_s140_6.0.0.dir/__/__/__/mesh/core/src/transport.c.obj
 .text          0x00000000        0x0 examples/light_switch/provisioner/CMakeFiles/light_switch_provisioner_nrf52840_xxAA_s140_6.0.0.dir/__/__/__/mesh/core/src/event.c.obj
 .data          0x00000000        0x0 examples/light_switch/provisioner/CMakeFiles/light_switch_provisioner_nrf52840_xxAA_s140_6.0.0.dir/__/__/__/mesh/core/src/event.c.obj
 .bss           0x00000000        0x0 examples/light_switch/provisioner/CMakeFiles/light_switch_provisioner_nrf52840_xxAA_s140_6.0.0.dir/__/__/__/mesh/core/src/event.c.obj
 .text          0x00000000        0x0 examples/light_switch/provisioner/CMakeFiles/light_switch_provisioner_nrf52840_xxAA_s140_6.0.0.dir/__/__/__/mesh/core/src/packet_buffer.c.obj
 .data          0x00000000        0x0 examples/light_switch/provisioner/CMakeFiles/light_switch_provisioner_nrf52840_xxAA_s140_6.0.0.dir/__/__/__/mesh/core/src/packet_buffer.c.obj
 .bss           0x00000000        0x0 examples/light_switch/provisioner/CMakeFiles/light_switch_provisioner_nrf52840_xxAA_s140_6.0.0.dir/__/__/__/mesh/core/src/packet_buffer.c.obj
 .text.packet_buffer_max_packet_len_get
                0x00000000       0x24 examples/light_switch/provisioner/CMakeFiles/light_switch_provisioner_nrf52840_xxAA_s140_6.0.0.dir/__/__/__/mesh/core/src/packet_buffer.c.obj
 .text          0x00000000        0x0 examples/light_switch/provisioner/CMakeFiles/light_switch_provisioner_nrf52840_xxAA_s140_6.0.0.dir/__/__/__/mesh/core/src/flash_manager_defrag.c.obj
 .data          0x00000000        0x0 examples/light_switch/provisioner/CMakeFiles/light_switch_provisioner_nrf52840_xxAA_s140_6.0.0.dir/__/__/__/mesh/core/src/flash_manager_defrag.c.obj
 .bss           0x00000000        0x0 examples/light_switch/provisioner/CMakeFiles/light_switch_provisioner_nrf52840_xxAA_s140_6.0.0.dir/__/__/__/mesh/core/src/flash_manager_defrag.c.obj
 .text.flash_manager_defragging
                0x00000000       0x44 examples/light_switch/provisioner/CMakeFiles/light_switch_provisioner_nrf52840_xxAA_s140_6.0.0.dir/__/__/__/mesh/core/src/flash_manager_defrag.c.obj
 .text          0x00000000        0x0 examples/light_switch/provisioner/CMakeFiles/light_switch_provisioner_nrf52840_xxAA_s140_6.0.0.dir/__/__/__/mesh/core/src/fifo.c.obj
 .data          0x00000000        0x0 examples/light_switch/provisioner/CMakeFiles/light_switch_provisioner_nrf52840_xxAA_s140_6.0.0.dir/__/__/__/mesh/core/src/fifo.c.obj
 .bss           0x00000000        0x0 examples/light_switch/provisioner/CMakeFiles/light_switch_provisioner_nrf52840_xxAA_s140_6.0.0.dir/__/__/__/mesh/core/src/fifo.c.obj
 .text.fifo_peek_at
                0x00000000       0x54 examples/light_switch/provisioner/CMakeFiles/light_switch_provisioner_nrf52840_xxAA_s140_6.0.0.dir/__/__/__/mesh/core/src/fifo.c.obj
 .text.fifo_peek
                0x00000000       0x50 examples/light_switch/provisioner/CMakeFiles/light_switch_provisioner_nrf52840_xxAA_s140_6.0.0.dir/__/__/__/mesh/core/src/fifo.c.obj
 .text.fifo_flush
                0x00000000        0x8 examples/light_switch/provisioner/CMakeFiles/light_switch_provisioner_nrf52840_xxAA_s140_6.0.0.dir/__/__/__/mesh/core/src/fifo.c.obj
 .text.fifo_get_len
                0x00000000        0x8 examples/light_switch/provisioner/CMakeFiles/light_switch_provisioner_nrf52840_xxAA_s140_6.0.0.dir/__/__/__/mesh/core/src/fifo.c.obj
 .text.fifo_is_full
                0x00000000       0x14 examples/light_switch/provisioner/CMakeFiles/light_switch_provisioner_nrf52840_xxAA_s140_6.0.0.dir/__/__/__/mesh/core/src/fifo.c.obj
 .text.fifo_is_empty
                0x00000000       0x10 examples/light_switch/provisioner/CMakeFiles/light_switch_provisioner_nrf52840_xxAA_s140_6.0.0.dir/__/__/__/mesh/core/src/fifo.c.obj
 .text          0x00000000        0x0 examples/light_switch/provisioner/CMakeFiles/light_switch_provisioner_nrf52840_xxAA_s140_6.0.0.dir/__/__/__/mesh/core/src/nrf_flash.c.obj
 .data          0x00000000        0x0 examples/light_switch/provisioner/CMakeFiles/light_switch_provisioner_nrf52840_xxAA_s140_6.0.0.dir/__/__/__/mesh/core/src/nrf_flash.c.obj
 .bss           0x00000000        0x0 examples/light_switch/provisioner/CMakeFiles/light_switch_provisioner_nrf52840_xxAA_s140_6.0.0.dir/__/__/__/mesh/core/src/nrf_flash.c.obj
 .text          0x00000000        0x0 examples/light_switch/provisioner/CMakeFiles/light_switch_provisioner_nrf52840_xxAA_s140_6.0.0.dir/__/__/__/mesh/core/src/packet_mgr.c.obj
 .data          0x00000000        0x0 examples/light_switch/provisioner/CMakeFiles/light_switch_provisioner_nrf52840_xxAA_s140_6.0.0.dir/__/__/__/mesh/core/src/packet_mgr.c.obj
 .bss           0x00000000        0x0 examples/light_switch/provisioner/CMakeFiles/light_switch_provisioner_nrf52840_xxAA_s140_6.0.0.dir/__/__/__/mesh/core/src/packet_mgr.c.obj
 .text.packet_mgr_get_free_space
                0x00000000       0x1c examples/light_switch/provisioner/CMakeFiles/light_switch_provisioner_nrf52840_xxAA_s140_6.0.0.dir/__/__/__/mesh/core/src/packet_mgr.c.obj
 .text.packet_mgr_refcount_get
                0x00000000        0x8 examples/light_switch/provisioner/CMakeFiles/light_switch_provisioner_nrf52840_xxAA_s140_6.0.0.dir/__/__/__/mesh/core/src/packet_mgr.c.obj
 .text.packet_mgr_size_get
                0x00000000        0x8 examples/light_switch/provisioner/CMakeFiles/light_switch_provisioner_nrf52840_xxAA_s140_6.0.0.dir/__/__/__/mesh/core/src/packet_mgr.c.obj
 .text          0x00000000        0x0 examples/light_switch/provisioner/CMakeFiles/light_switch_provisioner_nrf52840_xxAA_s140_6.0.0.dir/__/__/__/mesh/core/src/net_state.c.obj
 .data          0x00000000        0x0 examples/light_switch/provisioner/CMakeFiles/light_switch_provisioner_nrf52840_xxAA_s140_6.0.0.dir/__/__/__/mesh/core/src/net_state.c.obj
 .bss           0x00000000        0x0 examples/light_switch/provisioner/CMakeFiles/light_switch_provisioner_nrf52840_xxAA_s140_6.0.0.dir/__/__/__/mesh/core/src/net_state.c.obj
 .text.net_state_iv_update_start
                0x00000000       0x90 examples/light_switch/provisioner/CMakeFiles/light_switch_provisioner_nrf52840_xxAA_s140_6.0.0.dir/__/__/__/mesh/core/src/net_state.c.obj
 .text.net_state_iv_update_test_mode_set
                0x00000000        0xc examples/light_switch/provisioner/CMakeFiles/light_switch_provisioner_nrf52840_xxAA_s140_6.0.0.dir/__/__/__/mesh/core/src/net_state.c.obj
 .text.net_state_test_mode_transition_run
                0x00000000      0x170 examples/light_switch/provisioner/CMakeFiles/light_switch_provisioner_nrf52840_xxAA_s140_6.0.0.dir/__/__/__/mesh/core/src/net_state.c.obj
 .text.net_state_iv_index_set
                0x00000000       0x8c examples/light_switch/provisioner/CMakeFiles/light_switch_provisioner_nrf52840_xxAA_s140_6.0.0.dir/__/__/__/mesh/core/src/net_state.c.obj
 .bss.iv_state_set.10189
                0x00000000        0x1 examples/light_switch/provisioner/CMakeFiles/light_switch_provisioner_nrf52840_xxAA_s140_6.0.0.dir/__/__/__/mesh/core/src/net_state.c.obj
 .text          0x00000000        0x0 examples/light_switch/provisioner/CMakeFiles/light_switch_provisioner_nrf52840_xxAA_s140_6.0.0.dir/__/__/__/mesh/core/src/mesh_flash.c.obj
 .data          0x00000000        0x0 examples/light_switch/provisioner/CMakeFiles/light_switch_provisioner_nrf52840_xxAA_s140_6.0.0.dir/__/__/__/mesh/core/src/mesh_flash.c.obj
 .bss           0x00000000        0x0 examples/light_switch/provisioner/CMakeFiles/light_switch_provisioner_nrf52840_xxAA_s140_6.0.0.dir/__/__/__/mesh/core/src/mesh_flash.c.obj
 .text.mesh_flash_op_available_slots
                0x00000000       0x2c examples/light_switch/provisioner/CMakeFiles/light_switch_provisioner_nrf52840_xxAA_s140_6.0.0.dir/__/__/__/mesh/core/src/mesh_flash.c.obj
 .text.mesh_flash_in_progress
                0x00000000       0x34 examples/light_switch/provisioner/CMakeFiles/light_switch_provisioner_nrf52840_xxAA_s140_6.0.0.dir/__/__/__/mesh/core/src/mesh_flash.c.obj
 .text.mesh_flash_set_suspended
                0x00000000      0x228 examples/light_switch/provisioner/CMakeFiles/light_switch_provisioner_nrf52840_xxAA_s140_6.0.0.dir/__/__/__/mesh/core/src/mesh_flash.c.obj
 .bss.suspend_count.10416
                0x00000000        0x4 examples/light_switch/provisioner/CMakeFiles/light_switch_provisioner_nrf52840_xxAA_s140_6.0.0.dir/__/__/__/mesh/core/src/mesh_flash.c.obj
 .text          0x00000000        0x0 examples/light_switch/provisioner/CMakeFiles/light_switch_provisioner_nrf52840_xxAA_s140_6.0.0.dir/__/__/__/mesh/core/src/nrf_mesh_utils.c.obj
 .data          0x00000000        0x0 examples/light_switch/provisioner/CMakeFiles/light_switch_provisioner_nrf52840_xxAA_s140_6.0.0.dir/__/__/__/mesh/core/src/nrf_mesh_utils.c.obj
 .bss           0x00000000        0x0 examples/light_switch/provisioner/CMakeFiles/light_switch_provisioner_nrf52840_xxAA_s140_6.0.0.dir/__/__/__/mesh/core/src/nrf_mesh_utils.c.obj
 .text.nrf_mesh_rand_get
                0x00000000       0x10 examples/light_switch/provisioner/CMakeFiles/light_switch_provisioner_nrf52840_xxAA_s140_6.0.0.dir/__/__/__/mesh/core/src/nrf_mesh_utils.c.obj
 .text.nrf_mesh_gap_address_type_get
                0x00000000       0x34 examples/light_switch/provisioner/CMakeFiles/light_switch_provisioner_nrf52840_xxAA_s140_6.0.0.dir/__/__/__/mesh/core/src/nrf_mesh_utils.c.obj
 .text          0x00000000        0x0 examples/light_switch/provisioner/CMakeFiles/light_switch_provisioner_nrf52840_xxAA_s140_6.0.0.dir/__/__/__/mesh/core/src/nrf_mesh.c.obj
 .data          0x00000000        0x0 examples/light_switch/provisioner/CMakeFiles/light_switch_provisioner_nrf52840_xxAA_s140_6.0.0.dir/__/__/__/mesh/core/src/nrf_mesh.c.obj
 .bss           0x00000000        0x0 examples/light_switch/provisioner/CMakeFiles/light_switch_provisioner_nrf52840_xxAA_s140_6.0.0.dir/__/__/__/mesh/core/src/nrf_mesh.c.obj
 .text.nrf_mesh_disable
                0x00000000       0x2c examples/light_switch/provisioner/CMakeFiles/light_switch_provisioner_nrf52840_xxAA_s140_6.0.0.dir/__/__/__/mesh/core/src/nrf_mesh.c.obj
 .text.nrf_mesh_process
                0x00000000        0x4 examples/light_switch/provisioner/CMakeFiles/light_switch_provisioner_nrf52840_xxAA_s140_6.0.0.dir/__/__/__/mesh/core/src/nrf_mesh.c.obj
 .text.nrf_mesh_evt_handler_remove
                0x00000000        0x4 examples/light_switch/provisioner/CMakeFiles/light_switch_provisioner_nrf52840_xxAA_s140_6.0.0.dir/__/__/__/mesh/core/src/nrf_mesh.c.obj
 .text.nrf_mesh_rx_cb_set
                0x00000000        0xc examples/light_switch/provisioner/CMakeFiles/light_switch_provisioner_nrf52840_xxAA_s140_6.0.0.dir/__/__/__/mesh/core/src/nrf_mesh.c.obj
 .text.nrf_mesh_rx_cb_clear
                0x00000000        0xc examples/light_switch/provisioner/CMakeFiles/light_switch_provisioner_nrf52840_xxAA_s140_6.0.0.dir/__/__/__/mesh/core/src/nrf_mesh.c.obj
 .text          0x00000000        0x0 examples/light_switch/provisioner/CMakeFiles/light_switch_provisioner_nrf52840_xxAA_s140_6.0.0.dir/__/__/__/mesh/core/src/queue.c.obj
 .data          0x00000000        0x0 examples/light_switch/provisioner/CMakeFiles/light_switch_provisioner_nrf52840_xxAA_s140_6.0.0.dir/__/__/__/mesh/core/src/queue.c.obj
 .bss           0x00000000        0x0 examples/light_switch/provisioner/CMakeFiles/light_switch_provisioner_nrf52840_xxAA_s140_6.0.0.dir/__/__/__/mesh/core/src/queue.c.obj
 .text          0x00000000        0x0 examples/light_switch/provisioner/CMakeFiles/light_switch_provisioner_nrf52840_xxAA_s140_6.0.0.dir/__/__/__/mesh/core/src/hal.c.obj
 .data          0x00000000        0x0 examples/light_switch/provisioner/CMakeFiles/light_switch_provisioner_nrf52840_xxAA_s140_6.0.0.dir/__/__/__/mesh/core/src/hal.c.obj
 .bss           0x00000000        0x0 examples/light_switch/provisioner/CMakeFiles/light_switch_provisioner_nrf52840_xxAA_s140_6.0.0.dir/__/__/__/mesh/core/src/hal.c.obj
 .text          0x00000000        0x0 examples/light_switch/provisioner/CMakeFiles/light_switch_provisioner_nrf52840_xxAA_s140_6.0.0.dir/__/__/__/mesh/core/src/aes_cmac.c.obj
 .data          0x00000000        0x0 examples/light_switch/provisioner/CMakeFiles/light_switch_provisioner_nrf52840_xxAA_s140_6.0.0.dir/__/__/__/mesh/core/src/aes_cmac.c.obj
 .bss           0x00000000        0x0 examples/light_switch/provisioner/CMakeFiles/light_switch_provisioner_nrf52840_xxAA_s140_6.0.0.dir/__/__/__/mesh/core/src/aes_cmac.c.obj
 .text          0x00000000        0x0 examples/light_switch/provisioner/CMakeFiles/light_switch_provisioner_nrf52840_xxAA_s140_6.0.0.dir/__/__/__/mesh/core/src/timer_scheduler.c.obj
 .data          0x00000000        0x0 examples/light_switch/provisioner/CMakeFiles/light_switch_provisioner_nrf52840_xxAA_s140_6.0.0.dir/__/__/__/mesh/core/src/timer_scheduler.c.obj
 .bss           0x00000000        0x0 examples/light_switch/provisioner/CMakeFiles/light_switch_provisioner_nrf52840_xxAA_s140_6.0.0.dir/__/__/__/mesh/core/src/timer_scheduler.c.obj
 .text          0x00000000        0x0 examples/light_switch/provisioner/CMakeFiles/light_switch_provisioner_nrf52840_xxAA_s140_6.0.0.dir/__/__/__/mesh/core/src/timer.c.obj
 .data          0x00000000        0x0 examples/light_switch/provisioner/CMakeFiles/light_switch_provisioner_nrf52840_xxAA_s140_6.0.0.dir/__/__/__/mesh/core/src/timer.c.obj
 .bss           0x00000000        0x0 examples/light_switch/provisioner/CMakeFiles/light_switch_provisioner_nrf52840_xxAA_s140_6.0.0.dir/__/__/__/mesh/core/src/timer.c.obj
 .text.timer_order_cb_ppi
                0x00000000       0xd8 examples/light_switch/provisioner/CMakeFiles/light_switch_provisioner_nrf52840_xxAA_s140_6.0.0.dir/__/__/__/mesh/core/src/timer.c.obj
 .text.timer_order_ppi
                0x00000000       0xc8 examples/light_switch/provisioner/CMakeFiles/light_switch_provisioner_nrf52840_xxAA_s140_6.0.0.dir/__/__/__/mesh/core/src/timer.c.obj
 .text.timer_abort
                0x00000000       0x84 examples/light_switch/provisioner/CMakeFiles/light_switch_provisioner_nrf52840_xxAA_s140_6.0.0.dir/__/__/__/mesh/core/src/timer.c.obj
 .text          0x00000000        0x0 examples/light_switch/provisioner/CMakeFiles/light_switch_provisioner_nrf52840_xxAA_s140_6.0.0.dir/__/__/__/mesh/core/src/ticker.c.obj
 .data          0x00000000        0x0 examples/light_switch/provisioner/CMakeFiles/light_switch_provisioner_nrf52840_xxAA_s140_6.0.0.dir/__/__/__/mesh/core/src/ticker.c.obj
 .bss           0x00000000        0x0 examples/light_switch/provisioner/CMakeFiles/light_switch_provisioner_nrf52840_xxAA_s140_6.0.0.dir/__/__/__/mesh/core/src/ticker.c.obj
 .text.ticker_get
                0x00000000        0xc examples/light_switch/provisioner/CMakeFiles/light_switch_provisioner_nrf52840_xxAA_s140_6.0.0.dir/__/__/__/mesh/core/src/ticker.c.obj
 .text          0x00000000        0x0 examples/light_switch/provisioner/CMakeFiles/light_switch_provisioner_nrf52840_xxAA_s140_6.0.0.dir/__/__/__/mesh/core/src/rand.c.obj
 .data          0x00000000        0x0 examples/light_switch/provisioner/CMakeFiles/light_switch_provisioner_nrf52840_xxAA_s140_6.0.0.dir/__/__/__/mesh/core/src/rand.c.obj
 .bss           0x00000000        0x0 examples/light_switch/provisioner/CMakeFiles/light_switch_provisioner_nrf52840_xxAA_s140_6.0.0.dir/__/__/__/mesh/core/src/rand.c.obj
 .text          0x00000000        0x0 examples/light_switch/provisioner/CMakeFiles/light_switch_provisioner_nrf52840_xxAA_s140_6.0.0.dir/__/__/__/mesh/core/src/nrf_mesh_opt.c.obj
 .data          0x00000000        0x0 examples/light_switch/provisioner/CMakeFiles/light_switch_provisioner_nrf52840_xxAA_s140_6.0.0.dir/__/__/__/mesh/core/src/nrf_mesh_opt.c.obj
 .bss           0x00000000        0x0 examples/light_switch/provisioner/CMakeFiles/light_switch_provisioner_nrf52840_xxAA_s140_6.0.0.dir/__/__/__/mesh/core/src/nrf_mesh_opt.c.obj
 .text          0x00000000        0x0 examples/light_switch/provisioner/CMakeFiles/light_switch_provisioner_nrf52840_xxAA_s140_6.0.0.dir/__/__/__/mesh/core/src/timeslot.c.obj
 .data          0x00000000        0x0 examples/light_switch/provisioner/CMakeFiles/light_switch_provisioner_nrf52840_xxAA_s140_6.0.0.dir/__/__/__/mesh/core/src/timeslot.c.obj
 .bss           0x00000000        0x0 examples/light_switch/provisioner/CMakeFiles/light_switch_provisioner_nrf52840_xxAA_s140_6.0.0.dir/__/__/__/mesh/core/src/timeslot.c.obj
 .text.timeslot_restart
                0x00000000       0x30 examples/light_switch/provisioner/CMakeFiles/light_switch_provisioner_nrf52840_xxAA_s140_6.0.0.dir/__/__/__/mesh/core/src/timeslot.c.obj
 .text.timeslot_end_time_get
                0x00000000       0x30 examples/light_switch/provisioner/CMakeFiles/light_switch_provisioner_nrf52840_xxAA_s140_6.0.0.dir/__/__/__/mesh/core/src/timeslot.c.obj
 .text.timeslot_is_in_ts
                0x00000000        0xc examples/light_switch/provisioner/CMakeFiles/light_switch_provisioner_nrf52840_xxAA_s140_6.0.0.dir/__/__/__/mesh/core/src/timeslot.c.obj
 .text          0x00000000        0x0 examples/light_switch/provisioner/CMakeFiles/light_switch_provisioner_nrf52840_xxAA_s140_6.0.0.dir/__/__/__/mesh/core/src/bearer_event.c.obj
 .data          0x00000000        0x0 examples/light_switch/provisioner/CMakeFiles/light_switch_provisioner_nrf52840_xxAA_s140_6.0.0.dir/__/__/__/mesh/core/src/bearer_event.c.obj
 .bss           0x00000000        0x0 examples/light_switch/provisioner/CMakeFiles/light_switch_provisioner_nrf52840_xxAA_s140_6.0.0.dir/__/__/__/mesh/core/src/bearer_event.c.obj
 .text.bearer_event_generic_post
                0x00000000       0x50 examples/light_switch/provisioner/CMakeFiles/light_switch_provisioner_nrf52840_xxAA_s140_6.0.0.dir/__/__/__/mesh/core/src/bearer_event.c.obj
 .text.bearer_event_timer_sch_post
                0x00000000       0x54 examples/light_switch/provisioner/CMakeFiles/light_switch_provisioner_nrf52840_xxAA_s140_6.0.0.dir/__/__/__/mesh/core/src/bearer_event.c.obj
 .text.bearer_event_in_correct_irq_priority
                0x00000000       0x54 examples/light_switch/provisioner/CMakeFiles/light_switch_provisioner_nrf52840_xxAA_s140_6.0.0.dir/__/__/__/mesh/core/src/bearer_event.c.obj
 .text          0x00000000        0x0 examples/light_switch/provisioner/CMakeFiles/light_switch_provisioner_nrf52840_xxAA_s140_6.0.0.dir/__/__/__/mesh/core/src/enc.c.obj
 .data          0x00000000        0x0 examples/light_switch/provisioner/CMakeFiles/light_switch_provisioner_nrf52840_xxAA_s140_6.0.0.dir/__/__/__/mesh/core/src/enc.c.obj
 .bss           0x00000000        0x0 examples/light_switch/provisioner/CMakeFiles/light_switch_provisioner_nrf52840_xxAA_s140_6.0.0.dir/__/__/__/mesh/core/src/enc.c.obj
 .text.enc_key_generate
                0x00000000        0x8 examples/light_switch/provisioner/CMakeFiles/light_switch_provisioner_nrf52840_xxAA_s140_6.0.0.dir/__/__/__/mesh/core/src/enc.c.obj
 .text          0x00000000        0x0 examples/light_switch/provisioner/CMakeFiles/light_switch_provisioner_nrf52840_xxAA_s140_6.0.0.dir/__/__/__/mesh/core/src/network.c.obj
 .data          0x00000000        0x0 examples/light_switch/provisioner/CMakeFiles/light_switch_provisioner_nrf52840_xxAA_s140_6.0.0.dir/__/__/__/mesh/core/src/network.c.obj
 .bss           0x00000000        0x0 examples/light_switch/provisioner/CMakeFiles/light_switch_provisioner_nrf52840_xxAA_s140_6.0.0.dir/__/__/__/mesh/core/src/network.c.obj
 .text.network_packet_discard
                0x00000000       0x28 examples/light_switch/provisioner/CMakeFiles/light_switch_provisioner_nrf52840_xxAA_s140_6.0.0.dir/__/__/__/mesh/core/src/network.c.obj
 .text          0x00000000        0x0 examples/light_switch/provisioner/CMakeFiles/light_switch_provisioner_nrf52840_xxAA_s140_6.0.0.dir/__/__/__/mesh/core/src/net_packet.c.obj
 .data          0x00000000        0x0 examples/light_switch/provisioner/CMakeFiles/light_switch_provisioner_nrf52840_xxAA_s140_6.0.0.dir/__/__/__/mesh/core/src/net_packet.c.obj
 .bss           0x00000000        0x0 examples/light_switch/provisioner/CMakeFiles/light_switch_provisioner_nrf52840_xxAA_s140_6.0.0.dir/__/__/__/mesh/core/src/net_packet.c.obj
 .text.net_packet_enc_start_get
                0x00000000        0x4 examples/light_switch/provisioner/CMakeFiles/light_switch_provisioner_nrf52840_xxAA_s140_6.0.0.dir/__/__/__/mesh/core/src/net_packet.c.obj
 .text.net_packet_payload_get
                0x00000000        0x4 examples/light_switch/provisioner/CMakeFiles/light_switch_provisioner_nrf52840_xxAA_s140_6.0.0.dir/__/__/__/mesh/core/src/net_packet.c.obj
 .text          0x00000000        0x0 examples/light_switch/provisioner/CMakeFiles/light_switch_provisioner_nrf52840_xxAA_s140_6.0.0.dir/__/__/__/mesh/core/src/msqueue.c.obj
 .data          0x00000000        0x0 examples/light_switch/provisioner/CMakeFiles/light_switch_provisioner_nrf52840_xxAA_s140_6.0.0.dir/__/__/__/mesh/core/src/msqueue.c.obj
 .bss           0x00000000        0x0 examples/light_switch/provisioner/CMakeFiles/light_switch_provisioner_nrf52840_xxAA_s140_6.0.0.dir/__/__/__/mesh/core/src/msqueue.c.obj
 .text.msq_reset
                0x00000000       0x24 examples/light_switch/provisioner/CMakeFiles/light_switch_provisioner_nrf52840_xxAA_s140_6.0.0.dir/__/__/__/mesh/core/src/msqueue.c.obj
 .text          0x00000000        0x0 examples/light_switch/provisioner/CMakeFiles/light_switch_provisioner_nrf52840_xxAA_s140_6.0.0.dir/__/__/__/mesh/core/src/nrf_mesh_keygen.c.obj
 .data          0x00000000        0x0 examples/light_switch/provisioner/CMakeFiles/light_switch_provisioner_nrf52840_xxAA_s140_6.0.0.dir/__/__/__/mesh/core/src/nrf_mesh_keygen.c.obj
 .bss           0x00000000        0x0 examples/light_switch/provisioner/CMakeFiles/light_switch_provisioner_nrf52840_xxAA_s140_6.0.0.dir/__/__/__/mesh/core/src/nrf_mesh_keygen.c.obj
 .text.nrf_mesh_keygen_identitykey
                0x00000000       0x4c examples/light_switch/provisioner/CMakeFiles/light_switch_provisioner_nrf52840_xxAA_s140_6.0.0.dir/__/__/__/mesh/core/src/nrf_mesh_keygen.c.obj
 .text          0x00000000        0x0 examples/light_switch/provisioner/CMakeFiles/light_switch_provisioner_nrf52840_xxAA_s140_6.0.0.dir/__/__/__/mesh/core/src/cache.c.obj
 .data          0x00000000        0x0 examples/light_switch/provisioner/CMakeFiles/light_switch_provisioner_nrf52840_xxAA_s140_6.0.0.dir/__/__/__/mesh/core/src/cache.c.obj
 .bss           0x00000000        0x0 examples/light_switch/provisioner/CMakeFiles/light_switch_provisioner_nrf52840_xxAA_s140_6.0.0.dir/__/__/__/mesh/core/src/cache.c.obj
 .text.cache_init
                0x00000000       0x44 examples/light_switch/provisioner/CMakeFiles/light_switch_provisioner_nrf52840_xxAA_s140_6.0.0.dir/__/__/__/mesh/core/src/cache.c.obj
 .text.cache_has_elem
                0x00000000       0x5c examples/light_switch/provisioner/CMakeFiles/light_switch_provisioner_nrf52840_xxAA_s140_6.0.0.dir/__/__/__/mesh/core/src/cache.c.obj
 .text.cache_put
                0x00000000       0x2c examples/light_switch/provisioner/CMakeFiles/light_switch_provisioner_nrf52840_xxAA_s140_6.0.0.dir/__/__/__/mesh/core/src/cache.c.obj
 .text.cache_erase_elem
                0x00000000       0x80 examples/light_switch/provisioner/CMakeFiles/light_switch_provisioner_nrf52840_xxAA_s140_6.0.0.dir/__/__/__/mesh/core/src/cache.c.obj
 .comment       0x00000000       0x80 examples/light_switch/provisioner/CMakeFiles/light_switch_provisioner_nrf52840_xxAA_s140_6.0.0.dir/__/__/__/mesh/core/src/cache.c.obj
 .ARM.attributes
                0x00000000       0x39 examples/light_switch/provisioner/CMakeFiles/light_switch_provisioner_nrf52840_xxAA_s140_6.0.0.dir/__/__/__/mesh/core/src/cache.c.obj
 .text          0x00000000        0x0 examples/light_switch/provisioner/CMakeFiles/light_switch_provisioner_nrf52840_xxAA_s140_6.0.0.dir/__/__/__/mesh/core/src/uri.c.obj
 .data          0x00000000        0x0 examples/light_switch/provisioner/CMakeFiles/light_switch_provisioner_nrf52840_xxAA_s140_6.0.0.dir/__/__/__/mesh/core/src/uri.c.obj
 .bss           0x00000000        0x0 examples/light_switch/provisioner/CMakeFiles/light_switch_provisioner_nrf52840_xxAA_s140_6.0.0.dir/__/__/__/mesh/core/src/uri.c.obj
 .text.uri_data_generate
                0x00000000       0x88 examples/light_switch/provisioner/CMakeFiles/light_switch_provisioner_nrf52840_xxAA_s140_6.0.0.dir/__/__/__/mesh/core/src/uri.c.obj
 .text.uri_data_parse
                0x00000000       0x80 examples/light_switch/provisioner/CMakeFiles/light_switch_provisioner_nrf52840_xxAA_s140_6.0.0.dir/__/__/__/mesh/core/src/uri.c.obj
 .text.uri_scheme_name_code_point
                0x00000000       0x5c examples/light_switch/provisioner/CMakeFiles/light_switch_provisioner_nrf52840_xxAA_s140_6.0.0.dir/__/__/__/mesh/core/src/uri.c.obj
 .text.uri_scheme_name_string
                0x00000000       0x14 examples/light_switch/provisioner/CMakeFiles/light_switch_provisioner_nrf52840_xxAA_s140_6.0.0.dir/__/__/__/mesh/core/src/uri.c.obj
 .rodata.m_code_point_strings
                0x00000000      0x2ec examples/light_switch/provisioner/CMakeFiles/light_switch_provisioner_nrf52840_xxAA_s140_6.0.0.dir/__/__/__/mesh/core/src/uri.c.obj
 .rodata.str1.4
                0x00000000      0x6ba examples/light_switch/provisioner/CMakeFiles/light_switch_provisioner_nrf52840_xxAA_s140_6.0.0.dir/__/__/__/mesh/core/src/uri.c.obj
 .comment       0x00000000       0x80 examples/light_switch/provisioner/CMakeFiles/light_switch_provisioner_nrf52840_xxAA_s140_6.0.0.dir/__/__/__/mesh/core/src/uri.c.obj
 .ARM.attributes
                0x00000000       0x39 examples/light_switch/provisioner/CMakeFiles/light_switch_provisioner_nrf52840_xxAA_s140_6.0.0.dir/__/__/__/mesh/core/src/uri.c.obj
 .text          0x00000000        0x0 examples/light_switch/provisioner/CMakeFiles/light_switch_provisioner_nrf52840_xxAA_s140_6.0.0.dir/__/__/__/mesh/core/src/list.c.obj
 .data          0x00000000        0x0 examples/light_switch/provisioner/CMakeFiles/light_switch_provisioner_nrf52840_xxAA_s140_6.0.0.dir/__/__/__/mesh/core/src/list.c.obj
 .bss           0x00000000        0x0 examples/light_switch/provisioner/CMakeFiles/light_switch_provisioner_nrf52840_xxAA_s140_6.0.0.dir/__/__/__/mesh/core/src/list.c.obj
 .text.list_size_get
                0x00000000       0x14 examples/light_switch/provisioner/CMakeFiles/light_switch_provisioner_nrf52840_xxAA_s140_6.0.0.dir/__/__/__/mesh/core/src/list.c.obj
 .text.list_sorted_add
                0x00000000       0x8c examples/light_switch/provisioner/CMakeFiles/light_switch_provisioner_nrf52840_xxAA_s140_6.0.0.dir/__/__/__/mesh/core/src/list.c.obj
 .text          0x00000000        0x0 examples/light_switch/provisioner/CMakeFiles/light_switch_provisioner_nrf52840_xxAA_s140_6.0.0.dir/__/__/__/mesh/core/src/log.c.obj
 .data          0x00000000        0x0 examples/light_switch/provisioner/CMakeFiles/light_switch_provisioner_nrf52840_xxAA_s140_6.0.0.dir/__/__/__/mesh/core/src/log.c.obj
 .bss           0x00000000        0x0 examples/light_switch/provisioner/CMakeFiles/light_switch_provisioner_nrf52840_xxAA_s140_6.0.0.dir/__/__/__/mesh/core/src/log.c.obj
 .text.log_callback_logview
                0x00000000       0x38 examples/light_switch/provisioner/CMakeFiles/light_switch_provisioner_nrf52840_xxAA_s140_6.0.0.dir/__/__/__/mesh/core/src/log.c.obj
 .text.log_set_callback
                0x00000000        0xc examples/light_switch/provisioner/CMakeFiles/light_switch_provisioner_nrf52840_xxAA_s140_6.0.0.dir/__/__/__/mesh/core/src/log.c.obj
 .text.log_vprintf
                0x00000000       0x18 examples/light_switch/provisioner/CMakeFiles/light_switch_provisioner_nrf52840_xxAA_s140_6.0.0.dir/__/__/__/mesh/core/src/log.c.obj
 .rodata.log_callback_logview.str1.4
                0x00000000       0x12 examples/light_switch/provisioner/CMakeFiles/light_switch_provisioner_nrf52840_xxAA_s140_6.0.0.dir/__/__/__/mesh/core/src/log.c.obj
 .text          0x00000000        0x0 examples/light_switch/provisioner/CMakeFiles/light_switch_provisioner_nrf52840_xxAA_s140_6.0.0.dir/__/__/__/mesh/core/src/flash_manager.c.obj
 .data          0x00000000        0x0 examples/light_switch/provisioner/CMakeFiles/light_switch_provisioner_nrf52840_xxAA_s140_6.0.0.dir/__/__/__/mesh/core/src/flash_manager.c.obj
 .bss           0x00000000        0x0 examples/light_switch/provisioner/CMakeFiles/light_switch_provisioner_nrf52840_xxAA_s140_6.0.0.dir/__/__/__/mesh/core/src/flash_manager.c.obj
 .text.flash_manager_entry_count_get
                0x00000000       0xf4 examples/light_switch/provisioner/CMakeFiles/light_switch_provisioner_nrf52840_xxAA_s140_6.0.0.dir/__/__/__/mesh/core/src/flash_manager.c.obj
 .text.flash_manager_entry_release
                0x00000000       0x74 examples/light_switch/provisioner/CMakeFiles/light_switch_provisioner_nrf52840_xxAA_s140_6.0.0.dir/__/__/__/mesh/core/src/flash_manager.c.obj
 .text          0x00000000        0x0 examples/light_switch/provisioner/CMakeFiles/light_switch_provisioner_nrf52840_xxAA_s140_6.0.0.dir/__/__/__/mesh/core/src/ccm_soft.c.obj
 .data          0x00000000        0x0 examples/light_switch/provisioner/CMakeFiles/light_switch_provisioner_nrf52840_xxAA_s140_6.0.0.dir/__/__/__/mesh/core/src/ccm_soft.c.obj
 .bss           0x00000000        0x0 examples/light_switch/provisioner/CMakeFiles/light_switch_provisioner_nrf52840_xxAA_s140_6.0.0.dir/__/__/__/mesh/core/src/ccm_soft.c.obj
 .text          0x00000000        0x0 examples/light_switch/provisioner/CMakeFiles/light_switch_provisioner_nrf52840_xxAA_s140_6.0.0.dir/__/__/__/mesh/core/src/toolchain.c.obj
 .data          0x00000000        0x0 examples/light_switch/provisioner/CMakeFiles/light_switch_provisioner_nrf52840_xxAA_s140_6.0.0.dir/__/__/__/mesh/core/src/toolchain.c.obj
 .bss           0x00000000        0x0 examples/light_switch/provisioner/CMakeFiles/light_switch_provisioner_nrf52840_xxAA_s140_6.0.0.dir/__/__/__/mesh/core/src/toolchain.c.obj
 .comment       0x00000000       0x80 examples/light_switch/provisioner/CMakeFiles/light_switch_provisioner_nrf52840_xxAA_s140_6.0.0.dir/__/__/__/mesh/core/src/toolchain.c.obj
 .ARM.attributes
                0x00000000       0x39 examples/light_switch/provisioner/CMakeFiles/light_switch_provisioner_nrf52840_xxAA_s140_6.0.0.dir/__/__/__/mesh/core/src/toolchain.c.obj
 .text          0x00000000        0x0 examples/light_switch/provisioner/CMakeFiles/light_switch_provisioner_nrf52840_xxAA_s140_6.0.0.dir/__/__/__/mesh/core/src/replay_cache.c.obj
 .data          0x00000000        0x0 examples/light_switch/provisioner/CMakeFiles/light_switch_provisioner_nrf52840_xxAA_s140_6.0.0.dir/__/__/__/mesh/core/src/replay_cache.c.obj
 .bss           0x00000000        0x0 examples/light_switch/provisioner/CMakeFiles/light_switch_provisioner_nrf52840_xxAA_s140_6.0.0.dir/__/__/__/mesh/core/src/replay_cache.c.obj
 .text.replay_cache_on_iv_update
                0x00000000       0x30 examples/light_switch/provisioner/CMakeFiles/light_switch_provisioner_nrf52840_xxAA_s140_6.0.0.dir/__/__/__/mesh/core/src/replay_cache.c.obj
 .text.replay_cache_clear
                0x00000000       0x20 examples/light_switch/provisioner/CMakeFiles/light_switch_provisioner_nrf52840_xxAA_s140_6.0.0.dir/__/__/__/mesh/core/src/replay_cache.c.obj
 .text          0x00000000        0x0 examples/light_switch/provisioner/CMakeFiles/light_switch_provisioner_nrf52840_xxAA_s140_6.0.0.dir/__/__/__/mesh/core/src/beacon.c.obj
 .data          0x00000000        0x0 examples/light_switch/provisioner/CMakeFiles/light_switch_provisioner_nrf52840_xxAA_s140_6.0.0.dir/__/__/__/mesh/core/src/beacon.c.obj
 .bss           0x00000000        0x0 examples/light_switch/provisioner/CMakeFiles/light_switch_provisioner_nrf52840_xxAA_s140_6.0.0.dir/__/__/__/mesh/core/src/beacon.c.obj
 .text          0x00000000        0x0 examples/light_switch/provisioner/CMakeFiles/light_switch_provisioner_nrf52840_xxAA_s140_6.0.0.dir/__/__/__/mesh/core/src/flash_manager_internal.c.obj
 .data          0x00000000        0x0 examples/light_switch/provisioner/CMakeFiles/light_switch_provisioner_nrf52840_xxAA_s140_6.0.0.dir/__/__/__/mesh/core/src/flash_manager_internal.c.obj
 .bss           0x00000000        0x0 examples/light_switch/provisioner/CMakeFiles/light_switch_provisioner_nrf52840_xxAA_s140_6.0.0.dir/__/__/__/mesh/core/src/flash_manager_internal.c.obj
 .text          0x00000000        0x0 examples/light_switch/provisioner/CMakeFiles/light_switch_provisioner_nrf52840_xxAA_s140_6.0.0.dir/__/__/__/mesh/core/src/core_tx.c.obj
 .data          0x00000000        0x0 examples/light_switch/provisioner/CMakeFiles/light_switch_provisioner_nrf52840_xxAA_s140_6.0.0.dir/__/__/__/mesh/core/src/core_tx.c.obj
 .bss           0x00000000        0x0 examples/light_switch/provisioner/CMakeFiles/light_switch_provisioner_nrf52840_xxAA_s140_6.0.0.dir/__/__/__/mesh/core/src/core_tx.c.obj
 .text.core_tx_bearer_type_get
                0x00000000       0x2c examples/light_switch/provisioner/CMakeFiles/light_switch_provisioner_nrf52840_xxAA_s140_6.0.0.dir/__/__/__/mesh/core/src/core_tx.c.obj
 .text.core_tx_bearer_count_get
                0x00000000        0xc examples/light_switch/provisioner/CMakeFiles/light_switch_provisioner_nrf52840_xxAA_s140_6.0.0.dir/__/__/__/mesh/core/src/core_tx.c.obj
 .text          0x00000000        0x0 examples/light_switch/provisioner/CMakeFiles/light_switch_provisioner_nrf52840_xxAA_s140_6.0.0.dir/__/__/__/mesh/core/src/heartbeat.c.obj
 .data          0x00000000        0x0 examples/light_switch/provisioner/CMakeFiles/light_switch_provisioner_nrf52840_xxAA_s140_6.0.0.dir/__/__/__/mesh/core/src/heartbeat.c.obj
 .bss           0x00000000        0x0 examples/light_switch/provisioner/CMakeFiles/light_switch_provisioner_nrf52840_xxAA_s140_6.0.0.dir/__/__/__/mesh/core/src/heartbeat.c.obj
 .text          0x00000000        0x0 examples/light_switch/provisioner/CMakeFiles/light_switch_provisioner_nrf52840_xxAA_s140_6.0.0.dir/__/__/__/mesh/core/src/net_beacon.c.obj
 .data          0x00000000        0x0 examples/light_switch/provisioner/CMakeFiles/light_switch_provisioner_nrf52840_xxAA_s140_6.0.0.dir/__/__/__/mesh/core/src/net_beacon.c.obj
 .bss           0x00000000        0x0 examples/light_switch/provisioner/CMakeFiles/light_switch_provisioner_nrf52840_xxAA_s140_6.0.0.dir/__/__/__/mesh/core/src/net_beacon.c.obj
 .text.net_beacon_build
                0x00000000       0x68 examples/light_switch/provisioner/CMakeFiles/light_switch_provisioner_nrf52840_xxAA_s140_6.0.0.dir/__/__/__/mesh/core/src/net_beacon.c.obj
 .text          0x00000000        0x0 examples/light_switch/provisioner/CMakeFiles/light_switch_provisioner_nrf52840_xxAA_s140_6.0.0.dir/__/__/__/mesh/core/src/fsm.c.obj
 .data          0x00000000        0x0 examples/light_switch/provisioner/CMakeFiles/light_switch_provisioner_nrf52840_xxAA_s140_6.0.0.dir/__/__/__/mesh/core/src/fsm.c.obj
 .bss           0x00000000        0x0 examples/light_switch/provisioner/CMakeFiles/light_switch_provisioner_nrf52840_xxAA_s140_6.0.0.dir/__/__/__/mesh/core/src/fsm.c.obj
 .text.fsm_event_post_try
                0x00000000      0x238 examples/light_switch/provisioner/CMakeFiles/light_switch_provisioner_nrf52840_xxAA_s140_6.0.0.dir/__/__/__/mesh/core/src/fsm.c.obj
 .text.fsm_init
                0x00000000      0x100 examples/light_switch/provisioner/CMakeFiles/light_switch_provisioner_nrf52840_xxAA_s140_6.0.0.dir/__/__/__/mesh/core/src/fsm.c.obj
 .text.fsm_event_post
                0x00000000       0xbc examples/light_switch/provisioner/CMakeFiles/light_switch_provisioner_nrf52840_xxAA_s140_6.0.0.dir/__/__/__/mesh/core/src/fsm.c.obj
 .text.fsm_is_processing
                0x00000000        0xc examples/light_switch/provisioner/CMakeFiles/light_switch_provisioner_nrf52840_xxAA_s140_6.0.0.dir/__/__/__/mesh/core/src/fsm.c.obj
 .rodata.fsm_event_post.str1.4
                0x00000000        0xb examples/light_switch/provisioner/CMakeFiles/light_switch_provisioner_nrf52840_xxAA_s140_6.0.0.dir/__/__/__/mesh/core/src/fsm.c.obj
 .rodata.fsm_event_post_try.str1.4
                0x00000000       0x44 examples/light_switch/provisioner/CMakeFiles/light_switch_provisioner_nrf52840_xxAA_s140_6.0.0.dir/__/__/__/mesh/core/src/fsm.c.obj
 .rodata.fsm_init.str1.4
                0x00000000        0xa examples/light_switch/provisioner/CMakeFiles/light_switch_provisioner_nrf52840_xxAA_s140_6.0.0.dir/__/__/__/mesh/core/src/fsm.c.obj
 .comment       0x00000000       0x80 examples/light_switch/provisioner/CMakeFiles/light_switch_provisioner_nrf52840_xxAA_s140_6.0.0.dir/__/__/__/mesh/core/src/fsm.c.obj
 .ARM.attributes
                0x00000000       0x39 examples/light_switch/provisioner/CMakeFiles/light_switch_provisioner_nrf52840_xxAA_s140_6.0.0.dir/__/__/__/mesh/core/src/fsm.c.obj
 .text          0x00000000        0x0 examples/light_switch/provisioner/CMakeFiles/light_switch_provisioner_nrf52840_xxAA_s140_6.0.0.dir/__/__/__/mesh/core/src/core_tx_adv.c.obj
 .data          0x00000000        0x0 examples/light_switch/provisioner/CMakeFiles/light_switch_provisioner_nrf52840_xxAA_s140_6.0.0.dir/__/__/__/mesh/core/src/core_tx_adv.c.obj
 .bss           0x00000000        0x0 examples/light_switch/provisioner/CMakeFiles/light_switch_provisioner_nrf52840_xxAA_s140_6.0.0.dir/__/__/__/mesh/core/src/core_tx_adv.c.obj
 .text.core_tx_adv_address_set
                0x00000000       0x28 examples/light_switch/provisioner/CMakeFiles/light_switch_provisioner_nrf52840_xxAA_s140_6.0.0.dir/__/__/__/mesh/core/src/core_tx_adv.c.obj
 .text          0x00000000        0x0 examples/light_switch/provisioner/CMakeFiles/light_switch_provisioner_nrf52840_xxAA_s140_6.0.0.dir/__/__/__/mesh/bearer/src/ad_listener.c.obj
 .data          0x00000000        0x0 examples/light_switch/provisioner/CMakeFiles/light_switch_provisioner_nrf52840_xxAA_s140_6.0.0.dir/__/__/__/mesh/bearer/src/ad_listener.c.obj
 .bss           0x00000000        0x0 examples/light_switch/provisioner/CMakeFiles/light_switch_provisioner_nrf52840_xxAA_s140_6.0.0.dir/__/__/__/mesh/bearer/src/ad_listener.c.obj
 .text.ad_listener_unsubscribe
                0x00000000       0x7c examples/light_switch/provisioner/CMakeFiles/light_switch_provisioner_nrf52840_xxAA_s140_6.0.0.dir/__/__/__/mesh/bearer/src/ad_listener.c.obj
 .text          0x00000000        0x0 examples/light_switch/provisioner/CMakeFiles/light_switch_provisioner_nrf52840_xxAA_s140_6.0.0.dir/__/__/__/mesh/bearer/src/ad_type_filter.c.obj
 .data          0x00000000        0x0 examples/light_switch/provisioner/CMakeFiles/light_switch_provisioner_nrf52840_xxAA_s140_6.0.0.dir/__/__/__/mesh/bearer/src/ad_type_filter.c.obj
 .bss           0x00000000        0x0 examples/light_switch/provisioner/CMakeFiles/light_switch_provisioner_nrf52840_xxAA_s140_6.0.0.dir/__/__/__/mesh/bearer/src/ad_type_filter.c.obj
 .text.bearer_adtype_remove
                0x00000000       0x28 examples/light_switch/provisioner/CMakeFiles/light_switch_provisioner_nrf52840_xxAA_s140_6.0.0.dir/__/__/__/mesh/bearer/src/ad_type_filter.c.obj
 .text.bearer_adtype_clear
                0x00000000       0x10 examples/light_switch/provisioner/CMakeFiles/light_switch_provisioner_nrf52840_xxAA_s140_6.0.0.dir/__/__/__/mesh/bearer/src/ad_type_filter.c.obj
 .text.bearer_invalid_length_amount_get
                0x00000000        0xc examples/light_switch/provisioner/CMakeFiles/light_switch_provisioner_nrf52840_xxAA_s140_6.0.0.dir/__/__/__/mesh/bearer/src/ad_type_filter.c.obj
 .text.bearer_adtype_filtered_amount_get
                0x00000000        0xc examples/light_switch/provisioner/CMakeFiles/light_switch_provisioner_nrf52840_xxAA_s140_6.0.0.dir/__/__/__/mesh/bearer/src/ad_type_filter.c.obj
 .text          0x00000000        0x0 examples/light_switch/provisioner/CMakeFiles/light_switch_provisioner_nrf52840_xxAA_s140_6.0.0.dir/__/__/__/mesh/bearer/src/adv_packet_filter.c.obj
 .data          0x00000000        0x0 examples/light_switch/provisioner/CMakeFiles/light_switch_provisioner_nrf52840_xxAA_s140_6.0.0.dir/__/__/__/mesh/bearer/src/adv_packet_filter.c.obj
 .bss           0x00000000        0x0 examples/light_switch/provisioner/CMakeFiles/light_switch_provisioner_nrf52840_xxAA_s140_6.0.0.dir/__/__/__/mesh/bearer/src/adv_packet_filter.c.obj
 .text.adv_filter_handle
                0x00000000       0x40 examples/light_switch/provisioner/CMakeFiles/light_switch_provisioner_nrf52840_xxAA_s140_6.0.0.dir/__/__/__/mesh/bearer/src/adv_packet_filter.c.obj
 .text.bearer_adv_packet_filtering_set
                0x00000000       0x1c examples/light_switch/provisioner/CMakeFiles/light_switch_provisioner_nrf52840_xxAA_s140_6.0.0.dir/__/__/__/mesh/bearer/src/adv_packet_filter.c.obj
 .text.bearer_adv_packet_remove
                0x00000000       0x18 examples/light_switch/provisioner/CMakeFiles/light_switch_provisioner_nrf52840_xxAA_s140_6.0.0.dir/__/__/__/mesh/bearer/src/adv_packet_filter.c.obj
 .text.bearer_adv_packet_add
                0x00000000       0x14 examples/light_switch/provisioner/CMakeFiles/light_switch_provisioner_nrf52840_xxAA_s140_6.0.0.dir/__/__/__/mesh/bearer/src/adv_packet_filter.c.obj
 .text.bearer_adv_packet_clear
                0x00000000        0xc examples/light_switch/provisioner/CMakeFiles/light_switch_provisioner_nrf52840_xxAA_s140_6.0.0.dir/__/__/__/mesh/bearer/src/adv_packet_filter.c.obj
 .text.bearer_adv_packet_filter_mode_set
                0x00000000       0x18 examples/light_switch/provisioner/CMakeFiles/light_switch_provisioner_nrf52840_xxAA_s140_6.0.0.dir/__/__/__/mesh/bearer/src/adv_packet_filter.c.obj
 .text.bearer_adv_packet_filtered_amount_get
                0x00000000        0xc examples/light_switch/provisioner/CMakeFiles/light_switch_provisioner_nrf52840_xxAA_s140_6.0.0.dir/__/__/__/mesh/bearer/src/adv_packet_filter.c.obj
 .bss.m_adv_packet_filter
                0x00000000       0x14 examples/light_switch/provisioner/CMakeFiles/light_switch_provisioner_nrf52840_xxAA_s140_6.0.0.dir/__/__/__/mesh/bearer/src/adv_packet_filter.c.obj
 .comment       0x00000000       0x80 examples/light_switch/provisioner/CMakeFiles/light_switch_provisioner_nrf52840_xxAA_s140_6.0.0.dir/__/__/__/mesh/bearer/src/adv_packet_filter.c.obj
 .ARM.attributes
                0x00000000       0x39 examples/light_switch/provisioner/CMakeFiles/light_switch_provisioner_nrf52840_xxAA_s140_6.0.0.dir/__/__/__/mesh/bearer/src/adv_packet_filter.c.obj
 .text          0x00000000        0x0 examples/light_switch/provisioner/CMakeFiles/light_switch_provisioner_nrf52840_xxAA_s140_6.0.0.dir/__/__/__/mesh/bearer/src/advertiser.c.obj
 .data          0x00000000        0x0 examples/light_switch/provisioner/CMakeFiles/light_switch_provisioner_nrf52840_xxAA_s140_6.0.0.dir/__/__/__/mesh/bearer/src/advertiser.c.obj
 .bss           0x00000000        0x0 examples/light_switch/provisioner/CMakeFiles/light_switch_provisioner_nrf52840_xxAA_s140_6.0.0.dir/__/__/__/mesh/bearer/src/advertiser.c.obj
 .text.advertiser_disable
                0x00000000        0xc examples/light_switch/provisioner/CMakeFiles/light_switch_provisioner_nrf52840_xxAA_s140_6.0.0.dir/__/__/__/mesh/bearer/src/advertiser.c.obj
 .text.advertiser_config_set
                0x00000000      0x180 examples/light_switch/provisioner/CMakeFiles/light_switch_provisioner_nrf52840_xxAA_s140_6.0.0.dir/__/__/__/mesh/bearer/src/advertiser.c.obj
 .text.advertiser_channels_set
                0x00000000       0x94 examples/light_switch/provisioner/CMakeFiles/light_switch_provisioner_nrf52840_xxAA_s140_6.0.0.dir/__/__/__/mesh/bearer/src/advertiser.c.obj
 .text.advertiser_address_set
                0x00000000       0x64 examples/light_switch/provisioner/CMakeFiles/light_switch_provisioner_nrf52840_xxAA_s140_6.0.0.dir/__/__/__/mesh/bearer/src/advertiser.c.obj
 .text.advertiser_config_get
                0x00000000       0x24 examples/light_switch/provisioner/CMakeFiles/light_switch_provisioner_nrf52840_xxAA_s140_6.0.0.dir/__/__/__/mesh/bearer/src/advertiser.c.obj
 .text.advertiser_address_default_get
                0x00000000       0x5c examples/light_switch/provisioner/CMakeFiles/light_switch_provisioner_nrf52840_xxAA_s140_6.0.0.dir/__/__/__/mesh/bearer/src/advertiser.c.obj
 .text          0x00000000        0x0 examples/light_switch/provisioner/CMakeFiles/light_switch_provisioner_nrf52840_xxAA_s140_6.0.0.dir/__/__/__/mesh/bearer/src/bearer_handler.c.obj
 .data          0x00000000        0x0 examples/light_switch/provisioner/CMakeFiles/light_switch_provisioner_nrf52840_xxAA_s140_6.0.0.dir/__/__/__/mesh/bearer/src/bearer_handler.c.obj
 .bss           0x00000000        0x0 examples/light_switch/provisioner/CMakeFiles/light_switch_provisioner_nrf52840_xxAA_s140_6.0.0.dir/__/__/__/mesh/bearer/src/bearer_handler.c.obj
 .text.bearer_handler_stop
                0x00000000       0x20 examples/light_switch/provisioner/CMakeFiles/light_switch_provisioner_nrf52840_xxAA_s140_6.0.0.dir/__/__/__/mesh/bearer/src/bearer_handler.c.obj
 .text.bearer_handler_action_fire
                0x00000000       0x9c examples/light_switch/provisioner/CMakeFiles/light_switch_provisioner_nrf52840_xxAA_s140_6.0.0.dir/__/__/__/mesh/bearer/src/bearer_handler.c.obj
 .text          0x00000000        0x0 examples/light_switch/provisioner/CMakeFiles/light_switch_provisioner_nrf52840_xxAA_s140_6.0.0.dir/__/__/__/mesh/bearer/src/broadcast.c.obj
 .data          0x00000000        0x0 examples/light_switch/provisioner/CMakeFiles/light_switch_provisioner_nrf52840_xxAA_s140_6.0.0.dir/__/__/__/mesh/bearer/src/broadcast.c.obj
 .bss           0x00000000        0x0 examples/light_switch/provisioner/CMakeFiles/light_switch_provisioner_nrf52840_xxAA_s140_6.0.0.dir/__/__/__/mesh/bearer/src/broadcast.c.obj
 .text          0x00000000        0x0 examples/light_switch/provisioner/CMakeFiles/light_switch_provisioner_nrf52840_xxAA_s140_6.0.0.dir/__/__/__/mesh/bearer/src/filter_engine.c.obj
 .data          0x00000000        0x0 examples/light_switch/provisioner/CMakeFiles/light_switch_provisioner_nrf52840_xxAA_s140_6.0.0.dir/__/__/__/mesh/bearer/src/filter_engine.c.obj
 .bss           0x00000000        0x0 examples/light_switch/provisioner/CMakeFiles/light_switch_provisioner_nrf52840_xxAA_s140_6.0.0.dir/__/__/__/mesh/bearer/src/filter_engine.c.obj
 .text.fen_accepted_amount_get
                0x00000000        0xc examples/light_switch/provisioner/CMakeFiles/light_switch_provisioner_nrf52840_xxAA_s140_6.0.0.dir/__/__/__/mesh/bearer/src/filter_engine.c.obj
 .text          0x00000000        0x0 examples/light_switch/provisioner/CMakeFiles/light_switch_provisioner_nrf52840_xxAA_s140_6.0.0.dir/__/__/__/mesh/bearer/src/gap_address_filter.c.obj
 .data          0x00000000        0x0 examples/light_switch/provisioner/CMakeFiles/light_switch_provisioner_nrf52840_xxAA_s140_6.0.0.dir/__/__/__/mesh/bearer/src/gap_address_filter.c.obj
 .bss           0x00000000        0x0 examples/light_switch/provisioner/CMakeFiles/light_switch_provisioner_nrf52840_xxAA_s140_6.0.0.dir/__/__/__/mesh/bearer/src/gap_address_filter.c.obj
 .text.gap_address_filter_handle
                0x00000000       0xb4 examples/light_switch/provisioner/CMakeFiles/light_switch_provisioner_nrf52840_xxAA_s140_6.0.0.dir/__/__/__/mesh/bearer/src/gap_address_filter.c.obj
 .text.bearer_filter_gap_addr_whitelist_set
                0x00000000       0x48 examples/light_switch/provisioner/CMakeFiles/light_switch_provisioner_nrf52840_xxAA_s140_6.0.0.dir/__/__/__/mesh/bearer/src/gap_address_filter.c.obj
 .text.bearer_filter_gap_addr_blacklist_set
                0x00000000       0x4c examples/light_switch/provisioner/CMakeFiles/light_switch_provisioner_nrf52840_xxAA_s140_6.0.0.dir/__/__/__/mesh/bearer/src/gap_address_filter.c.obj
 .text.bearer_filter_gap_addr_range_set
                0x00000000       0x64 examples/light_switch/provisioner/CMakeFiles/light_switch_provisioner_nrf52840_xxAA_s140_6.0.0.dir/__/__/__/mesh/bearer/src/gap_address_filter.c.obj
 .text.bearer_filter_gap_addr_clear
                0x00000000       0x24 examples/light_switch/provisioner/CMakeFiles/light_switch_provisioner_nrf52840_xxAA_s140_6.0.0.dir/__/__/__/mesh/bearer/src/gap_address_filter.c.obj
 .text.bearer_gap_addr_filtered_amount_get
                0x00000000        0xc examples/light_switch/provisioner/CMakeFiles/light_switch_provisioner_nrf52840_xxAA_s140_6.0.0.dir/__/__/__/mesh/bearer/src/gap_address_filter.c.obj
 .bss.m_addr_filter
                0x00000000       0x18 examples/light_switch/provisioner/CMakeFiles/light_switch_provisioner_nrf52840_xxAA_s140_6.0.0.dir/__/__/__/mesh/bearer/src/gap_address_filter.c.obj
 .comment       0x00000000       0x80 examples/light_switch/provisioner/CMakeFiles/light_switch_provisioner_nrf52840_xxAA_s140_6.0.0.dir/__/__/__/mesh/bearer/src/gap_address_filter.c.obj
 .ARM.attributes
                0x00000000       0x39 examples/light_switch/provisioner/CMakeFiles/light_switch_provisioner_nrf52840_xxAA_s140_6.0.0.dir/__/__/__/mesh/bearer/src/gap_address_filter.c.obj
 .text          0x00000000        0x0 examples/light_switch/provisioner/CMakeFiles/light_switch_provisioner_nrf52840_xxAA_s140_6.0.0.dir/__/__/__/mesh/bearer/src/radio_config.c.obj
 .data          0x00000000        0x0 examples/light_switch/provisioner/CMakeFiles/light_switch_provisioner_nrf52840_xxAA_s140_6.0.0.dir/__/__/__/mesh/bearer/src/radio_config.c.obj
 .bss           0x00000000        0x0 examples/light_switch/provisioner/CMakeFiles/light_switch_provisioner_nrf52840_xxAA_s140_6.0.0.dir/__/__/__/mesh/bearer/src/radio_config.c.obj
 .text.radio_config_access_addr_get
                0x00000000       0x54 examples/light_switch/provisioner/CMakeFiles/light_switch_provisioner_nrf52840_xxAA_s140_6.0.0.dir/__/__/__/mesh/bearer/src/radio_config.c.obj
 .text          0x00000000        0x0 examples/light_switch/provisioner/CMakeFiles/light_switch_provisioner_nrf52840_xxAA_s140_6.0.0.dir/__/__/__/mesh/bearer/src/rssi_filter.c.obj
 .data          0x00000000        0x0 examples/light_switch/provisioner/CMakeFiles/light_switch_provisioner_nrf52840_xxAA_s140_6.0.0.dir/__/__/__/mesh/bearer/src/rssi_filter.c.obj
 .bss           0x00000000        0x0 examples/light_switch/provisioner/CMakeFiles/light_switch_provisioner_nrf52840_xxAA_s140_6.0.0.dir/__/__/__/mesh/bearer/src/rssi_filter.c.obj
 .text.rssi_filter_handle
                0x00000000       0x20 examples/light_switch/provisioner/CMakeFiles/light_switch_provisioner_nrf52840_xxAA_s140_6.0.0.dir/__/__/__/mesh/bearer/src/rssi_filter.c.obj
 .text.bearer_rssi_filtering_set
                0x00000000       0x34 examples/light_switch/provisioner/CMakeFiles/light_switch_provisioner_nrf52840_xxAA_s140_6.0.0.dir/__/__/__/mesh/bearer/src/rssi_filter.c.obj
 .text.bearer_rssi_filtered_amount_get
                0x00000000        0xc examples/light_switch/provisioner/CMakeFiles/light_switch_provisioner_nrf52840_xxAA_s140_6.0.0.dir/__/__/__/mesh/bearer/src/rssi_filter.c.obj
 .bss.m_rssi_filter
                0x00000000       0x18 examples/light_switch/provisioner/CMakeFiles/light_switch_provisioner_nrf52840_xxAA_s140_6.0.0.dir/__/__/__/mesh/bearer/src/rssi_filter.c.obj
 .comment       0x00000000       0x80 examples/light_switch/provisioner/CMakeFiles/light_switch_provisioner_nrf52840_xxAA_s140_6.0.0.dir/__/__/__/mesh/bearer/src/rssi_filter.c.obj
 .ARM.attributes
                0x00000000       0x39 examples/light_switch/provisioner/CMakeFiles/light_switch_provisioner_nrf52840_xxAA_s140_6.0.0.dir/__/__/__/mesh/bearer/src/rssi_filter.c.obj
 .text          0x00000000        0x0 examples/light_switch/provisioner/CMakeFiles/light_switch_provisioner_nrf52840_xxAA_s140_6.0.0.dir/__/__/__/mesh/bearer/src/scanner.c.obj
 .data          0x00000000        0x0 examples/light_switch/provisioner/CMakeFiles/light_switch_provisioner_nrf52840_xxAA_s140_6.0.0.dir/__/__/__/mesh/bearer/src/scanner.c.obj
 .bss           0x00000000        0x0 examples/light_switch/provisioner/CMakeFiles/light_switch_provisioner_nrf52840_xxAA_s140_6.0.0.dir/__/__/__/mesh/bearer/src/scanner.c.obj
 .text.scanner_rx_callback_set
                0x00000000       0x20 examples/light_switch/provisioner/CMakeFiles/light_switch_provisioner_nrf52840_xxAA_s140_6.0.0.dir/__/__/__/mesh/bearer/src/scanner.c.obj
 .text.scanner_disable
                0x00000000       0x54 examples/light_switch/provisioner/CMakeFiles/light_switch_provisioner_nrf52840_xxAA_s140_6.0.0.dir/__/__/__/mesh/bearer/src/scanner.c.obj
 .text.scanner_is_enabled
                0x00000000       0x14 examples/light_switch/provisioner/CMakeFiles/light_switch_provisioner_nrf52840_xxAA_s140_6.0.0.dir/__/__/__/mesh/bearer/src/scanner.c.obj
 .text.scanner_stats_get
                0x00000000        0x8 examples/light_switch/provisioner/CMakeFiles/light_switch_provisioner_nrf52840_xxAA_s140_6.0.0.dir/__/__/__/mesh/bearer/src/scanner.c.obj
 .text.scanner_config_radio_mode_set
                0x00000000       0x10 examples/light_switch/provisioner/CMakeFiles/light_switch_provisioner_nrf52840_xxAA_s140_6.0.0.dir/__/__/__/mesh/bearer/src/scanner.c.obj
 .text.scanner_config_scan_time_set
                0x00000000       0x88 examples/light_switch/provisioner/CMakeFiles/light_switch_provisioner_nrf52840_xxAA_s140_6.0.0.dir/__/__/__/mesh/bearer/src/scanner.c.obj
 .text.scanner_config_channels_set
                0x00000000       0x50 examples/light_switch/provisioner/CMakeFiles/light_switch_provisioner_nrf52840_xxAA_s140_6.0.0.dir/__/__/__/mesh/bearer/src/scanner.c.obj
 .text.scanner_config_access_addresses_set
                0x00000000       0x38 examples/light_switch/provisioner/CMakeFiles/light_switch_provisioner_nrf52840_xxAA_s140_6.0.0.dir/__/__/__/mesh/bearer/src/scanner.c.obj
 .text          0x00000000        0x0 examples/light_switch/provisioner/CMakeFiles/light_switch_provisioner_nrf52840_xxAA_s140_6.0.0.dir/__/__/__/models/simple_on_off/src/simple_on_off_client.c.obj
 .data          0x00000000        0x0 examples/light_switch/provisioner/CMakeFiles/light_switch_provisioner_nrf52840_xxAA_s140_6.0.0.dir/__/__/__/models/simple_on_off/src/simple_on_off_client.c.obj
 .bss           0x00000000        0x0 examples/light_switch/provisioner/CMakeFiles/light_switch_provisioner_nrf52840_xxAA_s140_6.0.0.dir/__/__/__/models/simple_on_off/src/simple_on_off_client.c.obj
 .text.handle_publish_timeout
                0x00000000        0x8 examples/light_switch/provisioner/CMakeFiles/light_switch_provisioner_nrf52840_xxAA_s140_6.0.0.dir/__/__/__/models/simple_on_off/src/simple_on_off_client.c.obj
 .text.reliable_status_cb
                0x00000000       0x7c examples/light_switch/provisioner/CMakeFiles/light_switch_provisioner_nrf52840_xxAA_s140_6.0.0.dir/__/__/__/models/simple_on_off/src/simple_on_off_client.c.obj
 .text.handle_status_cb
                0x00000000       0x54 examples/light_switch/provisioner/CMakeFiles/light_switch_provisioner_nrf52840_xxAA_s140_6.0.0.dir/__/__/__/models/simple_on_off/src/simple_on_off_client.c.obj
 .text.simple_on_off_client_init
                0x00000000       0x44 examples/light_switch/provisioner/CMakeFiles/light_switch_provisioner_nrf52840_xxAA_s140_6.0.0.dir/__/__/__/models/simple_on_off/src/simple_on_off_client.c.obj
 .text.simple_on_off_client_set
                0x00000000       0x74 examples/light_switch/provisioner/CMakeFiles/light_switch_provisioner_nrf52840_xxAA_s140_6.0.0.dir/__/__/__/models/simple_on_off/src/simple_on_off_client.c.obj
 .text.simple_on_off_client_set_unreliable
                0x00000000       0x5c examples/light_switch/provisioner/CMakeFiles/light_switch_provisioner_nrf52840_xxAA_s140_6.0.0.dir/__/__/__/models/simple_on_off/src/simple_on_off_client.c.obj
 .text.simple_on_off_client_get
                0x00000000       0x60 examples/light_switch/provisioner/CMakeFiles/light_switch_provisioner_nrf52840_xxAA_s140_6.0.0.dir/__/__/__/models/simple_on_off/src/simple_on_off_client.c.obj
 .text.simple_on_off_client_pending_msg_cancel
                0x00000000        0x8 examples/light_switch/provisioner/CMakeFiles/light_switch_provisioner_nrf52840_xxAA_s140_6.0.0.dir/__/__/__/models/simple_on_off/src/simple_on_off_client.c.obj
 .bss.m_tid     0x00000000        0x1 examples/light_switch/provisioner/CMakeFiles/light_switch_provisioner_nrf52840_xxAA_s140_6.0.0.dir/__/__/__/models/simple_on_off/src/simple_on_off_client.c.obj
 .rodata.m_opcode_handlers
                0x00000000        0x8 examples/light_switch/provisioner/CMakeFiles/light_switch_provisioner_nrf52840_xxAA_s140_6.0.0.dir/__/__/__/models/simple_on_off/src/simple_on_off_client.c.obj
 .comment       0x00000000       0x80 examples/light_switch/provisioner/CMakeFiles/light_switch_provisioner_nrf52840_xxAA_s140_6.0.0.dir/__/__/__/models/simple_on_off/src/simple_on_off_client.c.obj
 .ARM.attributes
                0x00000000       0x39 examples/light_switch/provisioner/CMakeFiles/light_switch_provisioner_nrf52840_xxAA_s140_6.0.0.dir/__/__/__/models/simple_on_off/src/simple_on_off_client.c.obj
 .text          0x00000000        0x0 examples/light_switch/provisioner/CMakeFiles/light_switch_provisioner_nrf52840_xxAA_s140_6.0.0.dir/__/__/__/models/config/src/config_client.c.obj
 .data          0x00000000        0x0 examples/light_switch/provisioner/CMakeFiles/light_switch_provisioner_nrf52840_xxAA_s140_6.0.0.dir/__/__/__/models/config/src/config_client.c.obj
 .bss           0x00000000        0x0 examples/light_switch/provisioner/CMakeFiles/light_switch_provisioner_nrf52840_xxAA_s140_6.0.0.dir/__/__/__/models/config/src/config_client.c.obj
 .text.config_client_appkey_delete
                0x00000000       0xd4 examples/light_switch/provisioner/CMakeFiles/light_switch_provisioner_nrf52840_xxAA_s140_6.0.0.dir/__/__/__/models/config/src/config_client.c.obj
 .text.config_client_appkey_get
                0x00000000       0xb0 examples/light_switch/provisioner/CMakeFiles/light_switch_provisioner_nrf52840_xxAA_s140_6.0.0.dir/__/__/__/models/config/src/config_client.c.obj
 .text.config_client_appkey_update
                0x00000000       0xd8 examples/light_switch/provisioner/CMakeFiles/light_switch_provisioner_nrf52840_xxAA_s140_6.0.0.dir/__/__/__/models/config/src/config_client.c.obj
 .text.config_client_model_publication_get
                0x00000000       0xe4 examples/light_switch/provisioner/CMakeFiles/light_switch_provisioner_nrf52840_xxAA_s140_6.0.0.dir/__/__/__/models/config/src/config_client.c.obj
 .text.config_client_net_beacon_get
                0x00000000       0x90 examples/light_switch/provisioner/CMakeFiles/light_switch_provisioner_nrf52840_xxAA_s140_6.0.0.dir/__/__/__/models/config/src/config_client.c.obj
 .text.config_client_net_beacon_set
                0x00000000       0xb0 examples/light_switch/provisioner/CMakeFiles/light_switch_provisioner_nrf52840_xxAA_s140_6.0.0.dir/__/__/__/models/config/src/config_client.c.obj
 .text.config_client_default_ttl_get
                0x00000000       0x78 examples/light_switch/provisioner/CMakeFiles/light_switch_provisioner_nrf52840_xxAA_s140_6.0.0.dir/__/__/__/models/config/src/config_client.c.obj
 .text.config_client_default_ttl_set
                0x00000000       0xb8 examples/light_switch/provisioner/CMakeFiles/light_switch_provisioner_nrf52840_xxAA_s140_6.0.0.dir/__/__/__/models/config/src/config_client.c.obj
 .text.config_client_model_subscription_delete
                0x00000000      0x198 examples/light_switch/provisioner/CMakeFiles/light_switch_provisioner_nrf52840_xxAA_s140_6.0.0.dir/__/__/__/models/config/src/config_client.c.obj
 .text.config_client_model_subscription_delete_all
                0x00000000       0xe4 examples/light_switch/provisioner/CMakeFiles/light_switch_provisioner_nrf52840_xxAA_s140_6.0.0.dir/__/__/__/models/config/src/config_client.c.obj
 .text.config_client_model_subscription_get
                0x00000000       0xec examples/light_switch/provisioner/CMakeFiles/light_switch_provisioner_nrf52840_xxAA_s140_6.0.0.dir/__/__/__/models/config/src/config_client.c.obj
 .text.config_client_model_subscription_overwrite
                0x00000000      0x198 examples/light_switch/provisioner/CMakeFiles/light_switch_provisioner_nrf52840_xxAA_s140_6.0.0.dir/__/__/__/models/config/src/config_client.c.obj
 .text.config_client_relay_get
                0x00000000       0x78 examples/light_switch/provisioner/CMakeFiles/light_switch_provisioner_nrf52840_xxAA_s140_6.0.0.dir/__/__/__/models/config/src/config_client.c.obj
 .text.config_client_relay_set
                0x00000000       0xdc examples/light_switch/provisioner/CMakeFiles/light_switch_provisioner_nrf52840_xxAA_s140_6.0.0.dir/__/__/__/models/config/src/config_client.c.obj
 .text.config_client_model_app_get
                0x00000000       0xec examples/light_switch/provisioner/CMakeFiles/light_switch_provisioner_nrf52840_xxAA_s140_6.0.0.dir/__/__/__/models/config/src/config_client.c.obj
 .text.config_client_model_app_unbind
                0x00000000       0xf4 examples/light_switch/provisioner/CMakeFiles/light_switch_provisioner_nrf52840_xxAA_s140_6.0.0.dir/__/__/__/models/config/src/config_client.c.obj
 .text.config_client_netkey_add
                0x00000000       0xc0 examples/light_switch/provisioner/CMakeFiles/light_switch_provisioner_nrf52840_xxAA_s140_6.0.0.dir/__/__/__/models/config/src/config_client.c.obj
 .text.config_client_netkey_delete
                0x00000000       0xb0 examples/light_switch/provisioner/CMakeFiles/light_switch_provisioner_nrf52840_xxAA_s140_6.0.0.dir/__/__/__/models/config/src/config_client.c.obj
 .text.config_client_netkey_get
                0x00000000       0x90 examples/light_switch/provisioner/CMakeFiles/light_switch_provisioner_nrf52840_xxAA_s140_6.0.0.dir/__/__/__/models/config/src/config_client.c.obj
 .text.config_client_netkey_update
                0x00000000       0xc0 examples/light_switch/provisioner/CMakeFiles/light_switch_provisioner_nrf52840_xxAA_s140_6.0.0.dir/__/__/__/models/config/src/config_client.c.obj
 .text.config_client_node_reset
                0x00000000       0x90 examples/light_switch/provisioner/CMakeFiles/light_switch_provisioner_nrf52840_xxAA_s140_6.0.0.dir/__/__/__/models/config/src/config_client.c.obj
 .text.config_client_key_refresh_phase_get
                0x00000000       0xb0 examples/light_switch/provisioner/CMakeFiles/light_switch_provisioner_nrf52840_xxAA_s140_6.0.0.dir/__/__/__/models/config/src/config_client.c.obj
 .text.config_client_key_refresh_phase_set
                0x00000000       0xb8 examples/light_switch/provisioner/CMakeFiles/light_switch_provisioner_nrf52840_xxAA_s140_6.0.0.dir/__/__/__/models/config/src/config_client.c.obj
 .text.config_client_friend_get
                0x00000000        0x4 examples/light_switch/provisioner/CMakeFiles/light_switch_provisioner_nrf52840_xxAA_s140_6.0.0.dir/__/__/__/models/config/src/config_client.c.obj
 .text.config_client_friend_set
                0x00000000        0x4 examples/light_switch/provisioner/CMakeFiles/light_switch_provisioner_nrf52840_xxAA_s140_6.0.0.dir/__/__/__/models/config/src/config_client.c.obj
 .text.config_client_gatt_proxy_get
                0x00000000        0x4 examples/light_switch/provisioner/CMakeFiles/light_switch_provisioner_nrf52840_xxAA_s140_6.0.0.dir/__/__/__/models/config/src/config_client.c.obj
 .text.config_client_gatt_proxy_set
                0x00000000        0x4 examples/light_switch/provisioner/CMakeFiles/light_switch_provisioner_nrf52840_xxAA_s140_6.0.0.dir/__/__/__/models/config/src/config_client.c.obj
 .text.config_client_node_identity_get
                0x00000000        0x4 examples/light_switch/provisioner/CMakeFiles/light_switch_provisioner_nrf52840_xxAA_s140_6.0.0.dir/__/__/__/models/config/src/config_client.c.obj
 .text.config_client_node_identity_set
                0x00000000        0x4 examples/light_switch/provisioner/CMakeFiles/light_switch_provisioner_nrf52840_xxAA_s140_6.0.0.dir/__/__/__/models/config/src/config_client.c.obj
 .text.config_client_heartbeat_publication_get
                0x00000000       0x90 examples/light_switch/provisioner/CMakeFiles/light_switch_provisioner_nrf52840_xxAA_s140_6.0.0.dir/__/__/__/models/config/src/config_client.c.obj
 .text.config_client_heartbeat_publication_set
                0x00000000       0xc4 examples/light_switch/provisioner/CMakeFiles/light_switch_provisioner_nrf52840_xxAA_s140_6.0.0.dir/__/__/__/models/config/src/config_client.c.obj
 .text.config_client_heartbeat_subscription_get
                0x00000000       0x90 examples/light_switch/provisioner/CMakeFiles/light_switch_provisioner_nrf52840_xxAA_s140_6.0.0.dir/__/__/__/models/config/src/config_client.c.obj
 .text.config_client_heartbeat_subscription_set
                0x00000000       0xc0 examples/light_switch/provisioner/CMakeFiles/light_switch_provisioner_nrf52840_xxAA_s140_6.0.0.dir/__/__/__/models/config/src/config_client.c.obj
 .text          0x00000000        0x0 examples/light_switch/provisioner/CMakeFiles/light_switch_provisioner_nrf52840_xxAA_s140_6.0.0.dir/__/__/__/models/config/src/composition_data.c.obj
 .data          0x00000000        0x0 examples/light_switch/provisioner/CMakeFiles/light_switch_provisioner_nrf52840_xxAA_s140_6.0.0.dir/__/__/__/models/config/src/composition_data.c.obj
 .bss           0x00000000        0x0 examples/light_switch/provisioner/CMakeFiles/light_switch_provisioner_nrf52840_xxAA_s140_6.0.0.dir/__/__/__/models/config/src/composition_data.c.obj
 .text          0x00000000        0x0 examples/light_switch/provisioner/CMakeFiles/light_switch_provisioner_nrf52840_xxAA_s140_6.0.0.dir/__/__/__/models/config/src/config_server.c.obj
 .data          0x00000000        0x0 examples/light_switch/provisioner/CMakeFiles/light_switch_provisioner_nrf52840_xxAA_s140_6.0.0.dir/__/__/__/models/config/src/config_server.c.obj
 .bss           0x00000000        0x0 examples/light_switch/provisioner/CMakeFiles/light_switch_provisioner_nrf52840_xxAA_s140_6.0.0.dir/__/__/__/models/config/src/config_server.c.obj
 .text          0x00000000        0x0 examples/light_switch/provisioner/CMakeFiles/light_switch_provisioner_nrf52840_xxAA_s140_6.0.0.dir/__/__/__/models/config/src/packed_index_list.c.obj
 .data          0x00000000        0x0 examples/light_switch/provisioner/CMakeFiles/light_switch_provisioner_nrf52840_xxAA_s140_6.0.0.dir/__/__/__/models/config/src/packed_index_list.c.obj
 .bss           0x00000000        0x0 examples/light_switch/provisioner/CMakeFiles/light_switch_provisioner_nrf52840_xxAA_s140_6.0.0.dir/__/__/__/models/config/src/packed_index_list.c.obj
 .text          0x00000000        0x0 examples/light_switch/provisioner/CMakeFiles/light_switch_provisioner_nrf52840_xxAA_s140_6.0.0.dir/__/__/__/models/health/src/health_server.c.obj
 .data          0x00000000        0x0 examples/light_switch/provisioner/CMakeFiles/light_switch_provisioner_nrf52840_xxAA_s140_6.0.0.dir/__/__/__/models/health/src/health_server.c.obj
 .bss           0x00000000        0x0 examples/light_switch/provisioner/CMakeFiles/light_switch_provisioner_nrf52840_xxAA_s140_6.0.0.dir/__/__/__/models/health/src/health_server.c.obj
 .text.health_server_fault_register
                0x00000000      0x238 examples/light_switch/provisioner/CMakeFiles/light_switch_provisioner_nrf52840_xxAA_s140_6.0.0.dir/__/__/__/models/health/src/health_server.c.obj
 .text.health_server_fault_clear
                0x00000000      0x2f4 examples/light_switch/provisioner/CMakeFiles/light_switch_provisioner_nrf52840_xxAA_s140_6.0.0.dir/__/__/__/models/health/src/health_server.c.obj
 .text.health_server_fault_is_set
                0x00000000       0x1c examples/light_switch/provisioner/CMakeFiles/light_switch_provisioner_nrf52840_xxAA_s140_6.0.0.dir/__/__/__/models/health/src/health_server.c.obj
 .text.health_server_fault_count_get
                0x00000000      0x154 examples/light_switch/provisioner/CMakeFiles/light_switch_provisioner_nrf52840_xxAA_s140_6.0.0.dir/__/__/__/models/health/src/health_server.c.obj
 .text.health_server_attention_get
                0x00000000        0x8 examples/light_switch/provisioner/CMakeFiles/light_switch_provisioner_nrf52840_xxAA_s140_6.0.0.dir/__/__/__/models/health/src/health_server.c.obj
 .text.health_server_attention_set
                0x00000000       0x98 examples/light_switch/provisioner/CMakeFiles/light_switch_provisioner_nrf52840_xxAA_s140_6.0.0.dir/__/__/__/models/health/src/health_server.c.obj
 .text          0x00000000        0x0 examples/light_switch/provisioner/CMakeFiles/light_switch_provisioner_nrf52840_xxAA_s140_6.0.0.dir/__/__/__/models/health/src/health_client.c.obj
 .data          0x00000000        0x0 examples/light_switch/provisioner/CMakeFiles/light_switch_provisioner_nrf52840_xxAA_s140_6.0.0.dir/__/__/__/models/health/src/health_client.c.obj
 .bss           0x00000000        0x0 examples/light_switch/provisioner/CMakeFiles/light_switch_provisioner_nrf52840_xxAA_s140_6.0.0.dir/__/__/__/models/health/src/health_client.c.obj
 .text.reliable_status_cb
                0x00000000       0x50 examples/light_switch/provisioner/CMakeFiles/light_switch_provisioner_nrf52840_xxAA_s140_6.0.0.dir/__/__/__/models/health/src/health_client.c.obj
 .text.health_client_fault_get
                0x00000000       0x98 examples/light_switch/provisioner/CMakeFiles/light_switch_provisioner_nrf52840_xxAA_s140_6.0.0.dir/__/__/__/models/health/src/health_client.c.obj
 .text.health_client_fault_clear
                0x00000000       0xc8 examples/light_switch/provisioner/CMakeFiles/light_switch_provisioner_nrf52840_xxAA_s140_6.0.0.dir/__/__/__/models/health/src/health_client.c.obj
 .text.health_client_fault_test
                0x00000000       0xd0 examples/light_switch/provisioner/CMakeFiles/light_switch_provisioner_nrf52840_xxAA_s140_6.0.0.dir/__/__/__/models/health/src/health_client.c.obj
 .text.health_client_period_get
                0x00000000       0x7c examples/light_switch/provisioner/CMakeFiles/light_switch_provisioner_nrf52840_xxAA_s140_6.0.0.dir/__/__/__/models/health/src/health_client.c.obj
 .text.health_client_period_set
                0x00000000       0xc8 examples/light_switch/provisioner/CMakeFiles/light_switch_provisioner_nrf52840_xxAA_s140_6.0.0.dir/__/__/__/models/health/src/health_client.c.obj
 .text.health_client_attention_get
                0x00000000       0x7c examples/light_switch/provisioner/CMakeFiles/light_switch_provisioner_nrf52840_xxAA_s140_6.0.0.dir/__/__/__/models/health/src/health_client.c.obj
 .text.health_client_attention_set
                0x00000000       0xc8 examples/light_switch/provisioner/CMakeFiles/light_switch_provisioner_nrf52840_xxAA_s140_6.0.0.dir/__/__/__/models/health/src/health_client.c.obj
 .text.health_client_pending_msg_cancel
                0x00000000        0x8 examples/light_switch/provisioner/CMakeFiles/light_switch_provisioner_nrf52840_xxAA_s140_6.0.0.dir/__/__/__/models/health/src/health_client.c.obj
 .text          0x00000000        0x0 examples/light_switch/provisioner/CMakeFiles/light_switch_provisioner_nrf52840_xxAA_s140_6.0.0.dir/__/__/__/mesh/access/src/access_publish.c.obj
 .data          0x00000000        0x0 examples/light_switch/provisioner/CMakeFiles/light_switch_provisioner_nrf52840_xxAA_s140_6.0.0.dir/__/__/__/mesh/access/src/access_publish.c.obj
 .bss           0x00000000        0x0 examples/light_switch/provisioner/CMakeFiles/light_switch_provisioner_nrf52840_xxAA_s140_6.0.0.dir/__/__/__/mesh/access/src/access_publish.c.obj
 .text          0x00000000        0x0 examples/light_switch/provisioner/CMakeFiles/light_switch_provisioner_nrf52840_xxAA_s140_6.0.0.dir/__/__/__/mesh/access/src/access.c.obj
 .data          0x00000000        0x0 examples/light_switch/provisioner/CMakeFiles/light_switch_provisioner_nrf52840_xxAA_s140_6.0.0.dir/__/__/__/mesh/access/src/access.c.obj
 .bss           0x00000000        0x0 examples/light_switch/provisioner/CMakeFiles/light_switch_provisioner_nrf52840_xxAA_s140_6.0.0.dir/__/__/__/mesh/access/src/access.c.obj
 .text.access_model_subscription_lists_share
                0x00000000       0x58 examples/light_switch/provisioner/CMakeFiles/light_switch_provisioner_nrf52840_xxAA_s140_6.0.0.dir/__/__/__/mesh/access/src/access.c.obj
 .text.access_element_location_set
                0x00000000       0x20 examples/light_switch/provisioner/CMakeFiles/light_switch_provisioner_nrf52840_xxAA_s140_6.0.0.dir/__/__/__/mesh/access/src/access.c.obj
 .text          0x00000000        0x0 examples/light_switch/provisioner/CMakeFiles/light_switch_provisioner_nrf52840_xxAA_s140_6.0.0.dir/__/__/__/mesh/access/src/access_reliable.c.obj
 .data          0x00000000        0x0 examples/light_switch/provisioner/CMakeFiles/light_switch_provisioner_nrf52840_xxAA_s140_6.0.0.dir/__/__/__/mesh/access/src/access_reliable.c.obj
 .bss           0x00000000        0x0 examples/light_switch/provisioner/CMakeFiles/light_switch_provisioner_nrf52840_xxAA_s140_6.0.0.dir/__/__/__/mesh/access/src/access_reliable.c.obj
 .text          0x00000000        0x0 examples/light_switch/provisioner/CMakeFiles/light_switch_provisioner_nrf52840_xxAA_s140_6.0.0.dir/__/__/__/mesh/access/src/device_state_manager.c.obj
 .data          0x00000000        0x0 examples/light_switch/provisioner/CMakeFiles/light_switch_provisioner_nrf52840_xxAA_s140_6.0.0.dir/__/__/__/mesh/access/src/device_state_manager.c.obj
 .bss           0x00000000        0x0 examples/light_switch/provisioner/CMakeFiles/light_switch_provisioner_nrf52840_xxAA_s140_6.0.0.dir/__/__/__/mesh/access/src/device_state_manager.c.obj
 .text.dsm_has_unflashed_data
                0x00000000       0x58 examples/light_switch/provisioner/CMakeFiles/light_switch_provisioner_nrf52840_xxAA_s140_6.0.0.dir/__/__/__/mesh/access/src/device_state_manager.c.obj
 .text.dsm_address_subscription_count_get
                0x00000000       0x80 examples/light_switch/provisioner/CMakeFiles/light_switch_provisioner_nrf52840_xxAA_s140_6.0.0.dir/__/__/__/mesh/access/src/device_state_manager.c.obj
 .text.dsm_address_get_all
                0x00000000       0x60 examples/light_switch/provisioner/CMakeFiles/light_switch_provisioner_nrf52840_xxAA_s140_6.0.0.dir/__/__/__/mesh/access/src/device_state_manager.c.obj
 .text.dsm_subnet_handle_to_netkey_index
                0x00000000       0x24 examples/light_switch/provisioner/CMakeFiles/light_switch_provisioner_nrf52840_xxAA_s140_6.0.0.dir/__/__/__/mesh/access/src/device_state_manager.c.obj
 .text.dsm_devkey_delete
                0x00000000       0x80 examples/light_switch/provisioner/CMakeFiles/light_switch_provisioner_nrf52840_xxAA_s140_6.0.0.dir/__/__/__/mesh/access/src/device_state_manager.c.obj
 .text.dsm_beacon_info_get
                0x00000000       0x24 examples/light_switch/provisioner/CMakeFiles/light_switch_provisioner_nrf52840_xxAA_s140_6.0.0.dir/__/__/__/mesh/access/src/device_state_manager.c.obj
 .text          0x00000000        0x0 examples/light_switch/provisioner/CMakeFiles/light_switch_provisioner_nrf52840_xxAA_s140_6.0.0.dir/__/__/__/mesh/prov/src/prov_provisioner.c.obj
 .data          0x00000000        0x0 examples/light_switch/provisioner/CMakeFiles/light_switch_provisioner_nrf52840_xxAA_s140_6.0.0.dir/__/__/__/mesh/prov/src/prov_provisioner.c.obj
 .bss           0x00000000        0x0 examples/light_switch/provisioner/CMakeFiles/light_switch_provisioner_nrf52840_xxAA_s140_6.0.0.dir/__/__/__/mesh/prov/src/prov_provisioner.c.obj
 .text.prov_provisioner_shared_secret
                0x00000000       0xb8 examples/light_switch/provisioner/CMakeFiles/light_switch_provisioner_nrf52840_xxAA_s140_6.0.0.dir/__/__/__/mesh/prov/src/prov_provisioner.c.obj
 .text.prov_provisioner_oob_pubkey
                0x00000000       0x34 examples/light_switch/provisioner/CMakeFiles/light_switch_provisioner_nrf52840_xxAA_s140_6.0.0.dir/__/__/__/mesh/prov/src/prov_provisioner.c.obj
 .text          0x00000000        0x0 examples/light_switch/provisioner/CMakeFiles/light_switch_provisioner_nrf52840_xxAA_s140_6.0.0.dir/__/__/__/mesh/prov/src/nrf_mesh_prov.c.obj
 .data          0x00000000        0x0 examples/light_switch/provisioner/CMakeFiles/light_switch_provisioner_nrf52840_xxAA_s140_6.0.0.dir/__/__/__/mesh/prov/src/nrf_mesh_prov.c.obj
 .bss           0x00000000        0x0 examples/light_switch/provisioner/CMakeFiles/light_switch_provisioner_nrf52840_xxAA_s140_6.0.0.dir/__/__/__/mesh/prov/src/nrf_mesh_prov.c.obj
 .text.nrf_mesh_prov_listen
                0x00000000       0xf8 examples/light_switch/provisioner/CMakeFiles/light_switch_provisioner_nrf52840_xxAA_s140_6.0.0.dir/__/__/__/mesh/prov/src/nrf_mesh_prov.c.obj
 .text.nrf_mesh_prov_listen_stop
                0x00000000       0x30 examples/light_switch/provisioner/CMakeFiles/light_switch_provisioner_nrf52840_xxAA_s140_6.0.0.dir/__/__/__/mesh/prov/src/nrf_mesh_prov.c.obj
 .text.nrf_mesh_prov_shared_secret_provide
                0x00000000       0x10 examples/light_switch/provisioner/CMakeFiles/light_switch_provisioner_nrf52840_xxAA_s140_6.0.0.dir/__/__/__/mesh/prov/src/nrf_mesh_prov.c.obj
 .text.nrf_mesh_prov_pubkey_provide
                0x00000000       0x10 examples/light_switch/provisioner/CMakeFiles/light_switch_provisioner_nrf52840_xxAA_s140_6.0.0.dir/__/__/__/mesh/prov/src/nrf_mesh_prov.c.obj
 .text.nrf_mesh_prov_scan_stop
                0x00000000        0x4 examples/light_switch/provisioner/CMakeFiles/light_switch_provisioner_nrf52840_xxAA_s140_6.0.0.dir/__/__/__/mesh/prov/src/nrf_mesh_prov.c.obj
 .rodata.multiply_de_bruijn_bit_position.9606
                0x00000000       0x20 examples/light_switch/provisioner/CMakeFiles/light_switch_provisioner_nrf52840_xxAA_s140_6.0.0.dir/__/__/__/mesh/prov/src/nrf_mesh_prov.c.obj
 .text          0x00000000        0x0 examples/light_switch/provisioner/CMakeFiles/light_switch_provisioner_nrf52840_xxAA_s140_6.0.0.dir/__/__/__/mesh/prov/src/provisioning.c.obj
 .data          0x00000000        0x0 examples/light_switch/provisioner/CMakeFiles/light_switch_provisioner_nrf52840_xxAA_s140_6.0.0.dir/__/__/__/mesh/prov/src/provisioning.c.obj
 .bss           0x00000000        0x0 examples/light_switch/provisioner/CMakeFiles/light_switch_provisioner_nrf52840_xxAA_s140_6.0.0.dir/__/__/__/mesh/prov/src/provisioning.c.obj
 .text.prov_tx_capabilities
                0x00000000       0x38 examples/light_switch/provisioner/CMakeFiles/light_switch_provisioner_nrf52840_xxAA_s140_6.0.0.dir/__/__/__/mesh/prov/src/provisioning.c.obj
 .text.prov_tx_input_complete
                0x00000000       0x28 examples/light_switch/provisioner/CMakeFiles/light_switch_provisioner_nrf52840_xxAA_s140_6.0.0.dir/__/__/__/mesh/prov/src/provisioning.c.obj
 .text.prov_tx_complete
                0x00000000       0x28 examples/light_switch/provisioner/CMakeFiles/light_switch_provisioner_nrf52840_xxAA_s140_6.0.0.dir/__/__/__/mesh/prov/src/provisioning.c.obj
 .text.prov_tx_failed
                0x00000000       0x2c examples/light_switch/provisioner/CMakeFiles/light_switch_provisioner_nrf52840_xxAA_s140_6.0.0.dir/__/__/__/mesh/prov/src/provisioning.c.obj
 .text.prov_tx  0x00000000       0x3c examples/light_switch/provisioner/CMakeFiles/light_switch_provisioner_nrf52840_xxAA_s140_6.0.0.dir/__/__/__/mesh/prov/src/provisioning.c.obj
 .text          0x00000000        0x0 examples/light_switch/provisioner/CMakeFiles/light_switch_provisioner_nrf52840_xxAA_s140_6.0.0.dir/__/__/__/mesh/prov/src/prov_beacon.c.obj
 .data          0x00000000        0x0 examples/light_switch/provisioner/CMakeFiles/light_switch_provisioner_nrf52840_xxAA_s140_6.0.0.dir/__/__/__/mesh/prov/src/prov_beacon.c.obj
 .bss           0x00000000        0x0 examples/light_switch/provisioner/CMakeFiles/light_switch_provisioner_nrf52840_xxAA_s140_6.0.0.dir/__/__/__/mesh/prov/src/prov_beacon.c.obj
 .text.prov_beacon_scan_stop
                0x00000000        0xc examples/light_switch/provisioner/CMakeFiles/light_switch_provisioner_nrf52840_xxAA_s140_6.0.0.dir/__/__/__/mesh/prov/src/prov_beacon.c.obj
 .text          0x00000000        0x0 examples/light_switch/provisioner/CMakeFiles/light_switch_provisioner_nrf52840_xxAA_s140_6.0.0.dir/__/__/__/mesh/prov/src/prov_utils.c.obj
 .data          0x00000000        0x0 examples/light_switch/provisioner/CMakeFiles/light_switch_provisioner_nrf52840_xxAA_s140_6.0.0.dir/__/__/__/mesh/prov/src/prov_utils.c.obj
 .bss           0x00000000        0x0 examples/light_switch/provisioner/CMakeFiles/light_switch_provisioner_nrf52840_xxAA_s140_6.0.0.dir/__/__/__/mesh/prov/src/prov_utils.c.obj
 .text          0x00000000        0x0 examples/light_switch/provisioner/CMakeFiles/light_switch_provisioner_nrf52840_xxAA_s140_6.0.0.dir/__/__/__/mesh/prov/src/prov_bearer_adv.c.obj
 .data          0x00000000        0x0 examples/light_switch/provisioner/CMakeFiles/light_switch_provisioner_nrf52840_xxAA_s140_6.0.0.dir/__/__/__/mesh/prov/src/prov_bearer_adv.c.obj
 .bss           0x00000000        0x0 examples/light_switch/provisioner/CMakeFiles/light_switch_provisioner_nrf52840_xxAA_s140_6.0.0.dir/__/__/__/mesh/prov/src/prov_bearer_adv.c.obj
 .text.calculate_3GPP_CRC
                0x00000000       0x28 examples/light_switch/provisioner/CMakeFiles/light_switch_provisioner_nrf52840_xxAA_s140_6.0.0.dir/__/__/__/mesh/prov/src/prov_bearer_adv.c.obj
 .text          0x00000000        0x0 examples/light_switch/provisioner/CMakeFiles/light_switch_provisioner_nrf52840_xxAA_s140_6.0.0.dir/C_/ver/mod/nRF5_SDK_15.0.0_a53641a/modules/nrfx/mdk/system_nrf52840.c.obj
 .data          0x00000000        0x0 examples/light_switch/provisioner/CMakeFiles/light_switch_provisioner_nrf52840_xxAA_s140_6.0.0.dir/C_/ver/mod/nRF5_SDK_15.0.0_a53641a/modules/nrfx/mdk/system_nrf52840.c.obj
 .bss           0x00000000        0x0 examples/light_switch/provisioner/CMakeFiles/light_switch_provisioner_nrf52840_xxAA_s140_6.0.0.dir/C_/ver/mod/nRF5_SDK_15.0.0_a53641a/modules/nrfx/mdk/system_nrf52840.c.obj
 .text.SystemCoreClockUpdate
                0x00000000       0x10 examples/light_switch/provisioner/CMakeFiles/light_switch_provisioner_nrf52840_xxAA_s140_6.0.0.dir/C_/ver/mod/nRF5_SDK_15.0.0_a53641a/modules/nrfx/mdk/system_nrf52840.c.obj
 .data          0x00000000        0x0 examples/light_switch/provisioner/CMakeFiles/light_switch_provisioner_nrf52840_xxAA_s140_6.0.0.dir/C_/ver/mod/nRF5_SDK_15.0.0_a53641a/modules/nrfx/mdk/gcc_startup_nrf52840.S.obj
 .bss           0x00000000        0x0 examples/light_switch/provisioner/CMakeFiles/light_switch_provisioner_nrf52840_xxAA_s140_6.0.0.dir/C_/ver/mod/nRF5_SDK_15.0.0_a53641a/modules/nrfx/mdk/gcc_startup_nrf52840.S.obj
 .text          0x00000000        0x0 examples/light_switch/provisioner/CMakeFiles/light_switch_provisioner_nrf52840_xxAA_s140_6.0.0.dir/C_/ver/mod/nRF5_SDK_15.0.0_a53641a/components/libraries/util/app_error.c.obj
 .data          0x00000000        0x0 examples/light_switch/provisioner/CMakeFiles/light_switch_provisioner_nrf52840_xxAA_s140_6.0.0.dir/C_/ver/mod/nRF5_SDK_15.0.0_a53641a/components/libraries/util/app_error.c.obj
 .bss           0x00000000        0x0 examples/light_switch/provisioner/CMakeFiles/light_switch_provisioner_nrf52840_xxAA_s140_6.0.0.dir/C_/ver/mod/nRF5_SDK_15.0.0_a53641a/components/libraries/util/app_error.c.obj
 .text.app_error_handler_bare
                0x00000000       0x20 examples/light_switch/provisioner/CMakeFiles/light_switch_provisioner_nrf52840_xxAA_s140_6.0.0.dir/C_/ver/mod/nRF5_SDK_15.0.0_a53641a/components/libraries/util/app_error.c.obj
 .text.app_error_save_and_stop
                0x00000000       0x64 examples/light_switch/provisioner/CMakeFiles/light_switch_provisioner_nrf52840_xxAA_s140_6.0.0.dir/C_/ver/mod/nRF5_SDK_15.0.0_a53641a/components/libraries/util/app_error.c.obj
 .bss.m_error_data.8119
                0x00000000       0x20 examples/light_switch/provisioner/CMakeFiles/light_switch_provisioner_nrf52840_xxAA_s140_6.0.0.dir/C_/ver/mod/nRF5_SDK_15.0.0_a53641a/components/libraries/util/app_error.c.obj
 .comment       0x00000000       0x80 examples/light_switch/provisioner/CMakeFiles/light_switch_provisioner_nrf52840_xxAA_s140_6.0.0.dir/C_/ver/mod/nRF5_SDK_15.0.0_a53641a/components/libraries/util/app_error.c.obj
 .ARM.attributes
                0x00000000       0x39 examples/light_switch/provisioner/CMakeFiles/light_switch_provisioner_nrf52840_xxAA_s140_6.0.0.dir/C_/ver/mod/nRF5_SDK_15.0.0_a53641a/components/libraries/util/app_error.c.obj
 .text          0x00000000        0x0 examples/light_switch/provisioner/CMakeFiles/light_switch_provisioner_nrf52840_xxAA_s140_6.0.0.dir/C_/ver/mod/nRF5_SDK_15.0.0_a53641a/components/libraries/util/app_error_handler_gcc.c.obj
 .data          0x00000000        0x0 examples/light_switch/provisioner/CMakeFiles/light_switch_provisioner_nrf52840_xxAA_s140_6.0.0.dir/C_/ver/mod/nRF5_SDK_15.0.0_a53641a/components/libraries/util/app_error_handler_gcc.c.obj
 .bss           0x00000000        0x0 examples/light_switch/provisioner/CMakeFiles/light_switch_provisioner_nrf52840_xxAA_s140_6.0.0.dir/C_/ver/mod/nRF5_SDK_15.0.0_a53641a/components/libraries/util/app_error_handler_gcc.c.obj
 .text          0x00000000        0x0 external/rtt/librtt_nrf52840_xxAA.a(SEGGER_RTT.c.obj)
 .data          0x00000000        0x0 external/rtt/librtt_nrf52840_xxAA.a(SEGGER_RTT.c.obj)
 .bss           0x00000000        0x0 external/rtt/librtt_nrf52840_xxAA.a(SEGGER_RTT.c.obj)
 .text.SEGGER_RTT_ReadNoLock
                0x00000000      0x100 external/rtt/librtt_nrf52840_xxAA.a(SEGGER_RTT.c.obj)
 .text.SEGGER_RTT_Read
                0x00000000      0x114 external/rtt/librtt_nrf52840_xxAA.a(SEGGER_RTT.c.obj)
 .text.SEGGER_RTT_WriteSkipNoLock
                0x00000000      0x184 external/rtt/librtt_nrf52840_xxAA.a(SEGGER_RTT.c.obj)
 .text.SEGGER_RTT_WriteNoLock
                0x00000000      0x188 external/rtt/librtt_nrf52840_xxAA.a(SEGGER_RTT.c.obj)
 .text.SEGGER_RTT_WriteString
                0x00000000      0x20c external/rtt/librtt_nrf52840_xxAA.a(SEGGER_RTT.c.obj)
 .text.SEGGER_RTT_WaitKey
                0x00000000      0x114 external/rtt/librtt_nrf52840_xxAA.a(SEGGER_RTT.c.obj)
 .text.SEGGER_RTT_HasKey
                0x00000000       0x6c external/rtt/librtt_nrf52840_xxAA.a(SEGGER_RTT.c.obj)
 .text.SEGGER_RTT_HasData
                0x00000000       0x18 external/rtt/librtt_nrf52840_xxAA.a(SEGGER_RTT.c.obj)
 .text.SEGGER_RTT_AllocDownBuffer
                0x00000000       0xbc external/rtt/librtt_nrf52840_xxAA.a(SEGGER_RTT.c.obj)
 .text.SEGGER_RTT_AllocUpBuffer
                0x00000000       0xd8 external/rtt/librtt_nrf52840_xxAA.a(SEGGER_RTT.c.obj)
 .text.SEGGER_RTT_ConfigUpBuffer
                0x00000000       0xd0 external/rtt/librtt_nrf52840_xxAA.a(SEGGER_RTT.c.obj)
 .text.SEGGER_RTT_ConfigDownBuffer
                0x00000000       0xb8 external/rtt/librtt_nrf52840_xxAA.a(SEGGER_RTT.c.obj)
 .text.SEGGER_RTT_SetNameUpBuffer
                0x00000000       0x90 external/rtt/librtt_nrf52840_xxAA.a(SEGGER_RTT.c.obj)
 .text.SEGGER_RTT_SetNameDownBuffer
                0x00000000       0x90 external/rtt/librtt_nrf52840_xxAA.a(SEGGER_RTT.c.obj)
 .text.SEGGER_RTT_Init
                0x00000000       0x60 external/rtt/librtt_nrf52840_xxAA.a(SEGGER_RTT.c.obj)
 .text.SEGGER_RTT_SetTerminal
                0x00000000      0x15c external/rtt/librtt_nrf52840_xxAA.a(SEGGER_RTT.c.obj)
 .text.SEGGER_RTT_TerminalOut
                0x00000000      0x40c external/rtt/librtt_nrf52840_xxAA.a(SEGGER_RTT.c.obj)
 .bss._ActiveTerminal
                0x00000000        0x1 external/rtt/librtt_nrf52840_xxAA.a(SEGGER_RTT.c.obj)
 .rodata._aTerminalId
                0x00000000       0x10 external/rtt/librtt_nrf52840_xxAA.a(SEGGER_RTT.c.obj)
 .text          0x00000000        0x0 external/rtt/librtt_nrf52840_xxAA.a(SEGGER_RTT_printf.c.obj)
 .data          0x00000000        0x0 external/rtt/librtt_nrf52840_xxAA.a(SEGGER_RTT_printf.c.obj)
 .bss           0x00000000        0x0 external/rtt/librtt_nrf52840_xxAA.a(SEGGER_RTT_printf.c.obj)
 .text          0x00000000        0x0 external/micro-ecc/libuECC_nrf52840_xxAA.a(uECC.c.obj)
 .data          0x00000000        0x0 external/micro-ecc/libuECC_nrf52840_xxAA.a(uECC.c.obj)
 .bss           0x00000000        0x0 external/micro-ecc/libuECC_nrf52840_xxAA.a(uECC.c.obj)
 .text.HMAC_finish
                0x00000000       0x70 external/micro-ecc/libuECC_nrf52840_xxAA.a(uECC.c.obj)
 .text.uECC_vli_mmod
                0x00000000      0x3c8 external/micro-ecc/libuECC_nrf52840_xxAA.a(uECC.c.obj)
 .text.uECC_vli_modSub.isra.2
                0x00000000       0x98 external/micro-ecc/libuECC_nrf52840_xxAA.a(uECC.c.obj)
 .text.bits2int
                0x00000000      0x14c external/micro-ecc/libuECC_nrf52840_xxAA.a(uECC.c.obj)
 .text.uECC_sign_with_k
                0x00000000      0x60c external/micro-ecc/libuECC_nrf52840_xxAA.a(uECC.c.obj)
 .text.uECC_set_rng
                0x00000000        0xc external/micro-ecc/libuECC_nrf52840_xxAA.a(uECC.c.obj)
 .text.uECC_get_rng
                0x00000000        0xc external/micro-ecc/libuECC_nrf52840_xxAA.a(uECC.c.obj)
 .text.uECC_curve_private_key_size
                0x00000000       0x10 external/micro-ecc/libuECC_nrf52840_xxAA.a(uECC.c.obj)
 .text.uECC_curve_public_key_size
                0x00000000        0x8 external/micro-ecc/libuECC_nrf52840_xxAA.a(uECC.c.obj)
 .text.uECC_compute_public_key
                0x00000000      0x2e4 external/micro-ecc/libuECC_nrf52840_xxAA.a(uECC.c.obj)
 .text.uECC_sign
                0x00000000       0x60 external/micro-ecc/libuECC_nrf52840_xxAA.a(uECC.c.obj)
 .text.uECC_sign_deterministic
                0x00000000      0x400 external/micro-ecc/libuECC_nrf52840_xxAA.a(uECC.c.obj)
 .text.uECC_verify
                0x00000000      0x95c external/micro-ecc/libuECC_nrf52840_xxAA.a(uECC.c.obj)
 .data          0x00000000        0x0 c:/mesh/arm_gcc/bin/../lib/gcc/arm-none-eabi/6.3.1/thumb/v7e-m/fpv4-sp/hard\libgcc.a(_aeabi_uldivmod.o)
 .bss           0x00000000        0x0 c:/mesh/arm_gcc/bin/../lib/gcc/arm-none-eabi/6.3.1/thumb/v7e-m/fpv4-sp/hard\libgcc.a(_aeabi_uldivmod.o)
 .data          0x00000000        0x0 c:/mesh/arm_gcc/bin/../lib/gcc/arm-none-eabi/6.3.1/thumb/v7e-m/fpv4-sp/hard\libgcc.a(_udivmoddi4.o)
 .bss           0x00000000        0x0 c:/mesh/arm_gcc/bin/../lib/gcc/arm-none-eabi/6.3.1/thumb/v7e-m/fpv4-sp/hard\libgcc.a(_udivmoddi4.o)
 .ARM.extab     0x00000000        0x0 c:/mesh/arm_gcc/bin/../lib/gcc/arm-none-eabi/6.3.1/thumb/v7e-m/fpv4-sp/hard\libgcc.a(_udivmoddi4.o)
 .data          0x00000000        0x0 c:/mesh/arm_gcc/bin/../lib/gcc/arm-none-eabi/6.3.1/thumb/v7e-m/fpv4-sp/hard\libgcc.a(_dvmd_tls.o)
 .bss           0x00000000        0x0 c:/mesh/arm_gcc/bin/../lib/gcc/arm-none-eabi/6.3.1/thumb/v7e-m/fpv4-sp/hard\libgcc.a(_dvmd_tls.o)
 .text          0x00000000        0x0 c:/mesh/arm_gcc/bin/../lib/gcc/arm-none-eabi/6.3.1/../../../../arm-none-eabi/lib/thumb/v7e-m/fpv4-sp/hard\libc_nano.a(lib_a-exit.o)
 .data          0x00000000        0x0 c:/mesh/arm_gcc/bin/../lib/gcc/arm-none-eabi/6.3.1/../../../../arm-none-eabi/lib/thumb/v7e-m/fpv4-sp/hard\libc_nano.a(lib_a-exit.o)
 .bss           0x00000000        0x0 c:/mesh/arm_gcc/bin/../lib/gcc/arm-none-eabi/6.3.1/../../../../arm-none-eabi/lib/thumb/v7e-m/fpv4-sp/hard\libc_nano.a(lib_a-exit.o)
 .text          0x00000000        0x0 c:/mesh/arm_gcc/bin/../lib/gcc/arm-none-eabi/6.3.1/../../../../arm-none-eabi/lib/thumb/v7e-m/fpv4-sp/hard\libc_nano.a(lib_a-impure.o)
 .data          0x00000000        0x0 c:/mesh/arm_gcc/bin/../lib/gcc/arm-none-eabi/6.3.1/../../../../arm-none-eabi/lib/thumb/v7e-m/fpv4-sp/hard\libc_nano.a(lib_a-impure.o)
 .bss           0x00000000        0x0 c:/mesh/arm_gcc/bin/../lib/gcc/arm-none-eabi/6.3.1/../../../../arm-none-eabi/lib/thumb/v7e-m/fpv4-sp/hard\libc_nano.a(lib_a-impure.o)
 .text          0x00000000        0x0 c:/mesh/arm_gcc/bin/../lib/gcc/arm-none-eabi/6.3.1/../../../../arm-none-eabi/lib/thumb/v7e-m/fpv4-sp/hard\libc_nano.a(lib_a-init.o)
 .data          0x00000000        0x0 c:/mesh/arm_gcc/bin/../lib/gcc/arm-none-eabi/6.3.1/../../../../arm-none-eabi/lib/thumb/v7e-m/fpv4-sp/hard\libc_nano.a(lib_a-init.o)
 .bss           0x00000000        0x0 c:/mesh/arm_gcc/bin/../lib/gcc/arm-none-eabi/6.3.1/../../../../arm-none-eabi/lib/thumb/v7e-m/fpv4-sp/hard\libc_nano.a(lib_a-init.o)
 .text          0x00000000        0x0 c:/mesh/arm_gcc/bin/../lib/gcc/arm-none-eabi/6.3.1/../../../../arm-none-eabi/lib/thumb/v7e-m/fpv4-sp/hard\libc_nano.a(lib_a-malloc.o)
 .data          0x00000000        0x0 c:/mesh/arm_gcc/bin/../lib/gcc/arm-none-eabi/6.3.1/../../../../arm-none-eabi/lib/thumb/v7e-m/fpv4-sp/hard\libc_nano.a(lib_a-malloc.o)
 .bss           0x00000000        0x0 c:/mesh/arm_gcc/bin/../lib/gcc/arm-none-eabi/6.3.1/../../../../arm-none-eabi/lib/thumb/v7e-m/fpv4-sp/hard\libc_nano.a(lib_a-malloc.o)
 .text          0x00000000        0x0 c:/mesh/arm_gcc/bin/../lib/gcc/arm-none-eabi/6.3.1/../../../../arm-none-eabi/lib/thumb/v7e-m/fpv4-sp/hard\libc_nano.a(lib_a-memcmp.o)
 .data          0x00000000        0x0 c:/mesh/arm_gcc/bin/../lib/gcc/arm-none-eabi/6.3.1/../../../../arm-none-eabi/lib/thumb/v7e-m/fpv4-sp/hard\libc_nano.a(lib_a-memcmp.o)
 .bss           0x00000000        0x0 c:/mesh/arm_gcc/bin/../lib/gcc/arm-none-eabi/6.3.1/../../../../arm-none-eabi/lib/thumb/v7e-m/fpv4-sp/hard\libc_nano.a(lib_a-memcmp.o)
 .text          0x00000000        0x0 c:/mesh/arm_gcc/bin/../lib/gcc/arm-none-eabi/6.3.1/../../../../arm-none-eabi/lib/thumb/v7e-m/fpv4-sp/hard\libc_nano.a(lib_a-memcpy-stub.o)
 .data          0x00000000        0x0 c:/mesh/arm_gcc/bin/../lib/gcc/arm-none-eabi/6.3.1/../../../../arm-none-eabi/lib/thumb/v7e-m/fpv4-sp/hard\libc_nano.a(lib_a-memcpy-stub.o)
 .bss           0x00000000        0x0 c:/mesh/arm_gcc/bin/../lib/gcc/arm-none-eabi/6.3.1/../../../../arm-none-eabi/lib/thumb/v7e-m/fpv4-sp/hard\libc_nano.a(lib_a-memcpy-stub.o)
 .text          0x00000000        0x0 c:/mesh/arm_gcc/bin/../lib/gcc/arm-none-eabi/6.3.1/../../../../arm-none-eabi/lib/thumb/v7e-m/fpv4-sp/hard\libc_nano.a(lib_a-memset.o)
 .data          0x00000000        0x0 c:/mesh/arm_gcc/bin/../lib/gcc/arm-none-eabi/6.3.1/../../../../arm-none-eabi/lib/thumb/v7e-m/fpv4-sp/hard\libc_nano.a(lib_a-memset.o)
 .bss           0x00000000        0x0 c:/mesh/arm_gcc/bin/../lib/gcc/arm-none-eabi/6.3.1/../../../../arm-none-eabi/lib/thumb/v7e-m/fpv4-sp/hard\libc_nano.a(lib_a-memset.o)
 .text          0x00000000        0x0 c:/mesh/arm_gcc/bin/../lib/gcc/arm-none-eabi/6.3.1/../../../../arm-none-eabi/lib/thumb/v7e-m/fpv4-sp/hard\libc_nano.a(lib_a-nano-freer.o)
 .data          0x00000000        0x0 c:/mesh/arm_gcc/bin/../lib/gcc/arm-none-eabi/6.3.1/../../../../arm-none-eabi/lib/thumb/v7e-m/fpv4-sp/hard\libc_nano.a(lib_a-nano-freer.o)
 .bss           0x00000000        0x0 c:/mesh/arm_gcc/bin/../lib/gcc/arm-none-eabi/6.3.1/../../../../arm-none-eabi/lib/thumb/v7e-m/fpv4-sp/hard\libc_nano.a(lib_a-nano-freer.o)
 .text          0x00000000        0x0 c:/mesh/arm_gcc/bin/../lib/gcc/arm-none-eabi/6.3.1/../../../../arm-none-eabi/lib/thumb/v7e-m/fpv4-sp/hard\libc_nano.a(lib_a-nano-mallocr.o)
 .data          0x00000000        0x0 c:/mesh/arm_gcc/bin/../lib/gcc/arm-none-eabi/6.3.1/../../../../arm-none-eabi/lib/thumb/v7e-m/fpv4-sp/hard\libc_nano.a(lib_a-nano-mallocr.o)
 .bss           0x00000000        0x0 c:/mesh/arm_gcc/bin/../lib/gcc/arm-none-eabi/6.3.1/../../../../arm-none-eabi/lib/thumb/v7e-m/fpv4-sp/hard\libc_nano.a(lib_a-nano-mallocr.o)
 .text          0x00000000        0x0 c:/mesh/arm_gcc/bin/../lib/gcc/arm-none-eabi/6.3.1/../../../../arm-none-eabi/lib/thumb/v7e-m/fpv4-sp/hard\libc_nano.a(lib_a-sbrkr.o)
 .data          0x00000000        0x0 c:/mesh/arm_gcc/bin/../lib/gcc/arm-none-eabi/6.3.1/../../../../arm-none-eabi/lib/thumb/v7e-m/fpv4-sp/hard\libc_nano.a(lib_a-sbrkr.o)
 .bss           0x00000000        0x0 c:/mesh/arm_gcc/bin/../lib/gcc/arm-none-eabi/6.3.1/../../../../arm-none-eabi/lib/thumb/v7e-m/fpv4-sp/hard\libc_nano.a(lib_a-sbrkr.o)
 .text          0x00000000        0x0 c:/mesh/arm_gcc/bin/../lib/gcc/arm-none-eabi/6.3.1/../../../../arm-none-eabi/lib/thumb/v7e-m/fpv4-sp/hard\libc_nano.a(lib_a-strcpy.o)
 .data          0x00000000        0x0 c:/mesh/arm_gcc/bin/../lib/gcc/arm-none-eabi/6.3.1/../../../../arm-none-eabi/lib/thumb/v7e-m/fpv4-sp/hard\libc_nano.a(lib_a-strcpy.o)
 .bss           0x00000000        0x0 c:/mesh/arm_gcc/bin/../lib/gcc/arm-none-eabi/6.3.1/../../../../arm-none-eabi/lib/thumb/v7e-m/fpv4-sp/hard\libc_nano.a(lib_a-strcpy.o)
 .data          0x00000000        0x0 c:/mesh/arm_gcc/bin/../lib/gcc/arm-none-eabi/6.3.1/../../../../arm-none-eabi/lib/thumb/v7e-m/fpv4-sp/hard\libc_nano.a(lib_a-strlen.o)
 .bss           0x00000000        0x0 c:/mesh/arm_gcc/bin/../lib/gcc/arm-none-eabi/6.3.1/../../../../arm-none-eabi/lib/thumb/v7e-m/fpv4-sp/hard\libc_nano.a(lib_a-strlen.o)
 .text          0x00000000        0x0 c:/mesh/arm_gcc/bin/../lib/gcc/arm-none-eabi/6.3.1/../../../../arm-none-eabi/lib/thumb/v7e-m/fpv4-sp/hard\libc_nano.a(lib_a-strrchr.o)
 .data          0x00000000        0x0 c:/mesh/arm_gcc/bin/../lib/gcc/arm-none-eabi/6.3.1/../../../../arm-none-eabi/lib/thumb/v7e-m/fpv4-sp/hard\libc_nano.a(lib_a-strrchr.o)
 .bss           0x00000000        0x0 c:/mesh/arm_gcc/bin/../lib/gcc/arm-none-eabi/6.3.1/../../../../arm-none-eabi/lib/thumb/v7e-m/fpv4-sp/hard\libc_nano.a(lib_a-strrchr.o)
 .text          0x00000000        0x0 c:/mesh/arm_gcc/bin/../lib/gcc/arm-none-eabi/6.3.1/../../../../arm-none-eabi/lib/thumb/v7e-m/fpv4-sp/hard\libc_nano.a(lib_a-mlock.o)
 .data          0x00000000        0x0 c:/mesh/arm_gcc/bin/../lib/gcc/arm-none-eabi/6.3.1/../../../../arm-none-eabi/lib/thumb/v7e-m/fpv4-sp/hard\libc_nano.a(lib_a-mlock.o)
 .bss           0x00000000        0x0 c:/mesh/arm_gcc/bin/../lib/gcc/arm-none-eabi/6.3.1/../../../../arm-none-eabi/lib/thumb/v7e-m/fpv4-sp/hard\libc_nano.a(lib_a-mlock.o)
 .text          0x00000000        0x0 c:/mesh/arm_gcc/bin/../lib/gcc/arm-none-eabi/6.3.1/../../../../arm-none-eabi/lib/thumb/v7e-m/fpv4-sp/hard\libc_nano.a(lib_a-reent.o)
 .data          0x00000000        0x0 c:/mesh/arm_gcc/bin/../lib/gcc/arm-none-eabi/6.3.1/../../../../arm-none-eabi/lib/thumb/v7e-m/fpv4-sp/hard\libc_nano.a(lib_a-reent.o)
 .bss           0x00000000        0x0 c:/mesh/arm_gcc/bin/../lib/gcc/arm-none-eabi/6.3.1/../../../../arm-none-eabi/lib/thumb/v7e-m/fpv4-sp/hard\libc_nano.a(lib_a-reent.o)
 .text.cleanup_glue
                0x00000000       0x1a c:/mesh/arm_gcc/bin/../lib/gcc/arm-none-eabi/6.3.1/../../../../arm-none-eabi/lib/thumb/v7e-m/fpv4-sp/hard\libc_nano.a(lib_a-reent.o)
 .text._reclaim_reent
                0x00000000       0xb8 c:/mesh/arm_gcc/bin/../lib/gcc/arm-none-eabi/6.3.1/../../../../arm-none-eabi/lib/thumb/v7e-m/fpv4-sp/hard\libc_nano.a(lib_a-reent.o)
 .text          0x00000000        0x0 c:/mesh/arm_gcc/bin/../lib/gcc/arm-none-eabi/6.3.1/../../../../arm-none-eabi/lib/thumb/v7e-m/fpv4-sp/hard\libc_nano.a(lib_a-strchr.o)
 .data          0x00000000        0x0 c:/mesh/arm_gcc/bin/../lib/gcc/arm-none-eabi/6.3.1/../../../../arm-none-eabi/lib/thumb/v7e-m/fpv4-sp/hard\libc_nano.a(lib_a-strchr.o)
 .bss           0x00000000        0x0 c:/mesh/arm_gcc/bin/../lib/gcc/arm-none-eabi/6.3.1/../../../../arm-none-eabi/lib/thumb/v7e-m/fpv4-sp/hard\libc_nano.a(lib_a-strchr.o)
 .text          0x00000000        0x0 c:/mesh/arm_gcc/bin/../lib/gcc/arm-none-eabi/6.3.1/thumb/v7e-m/fpv4-sp/hard/crtend.o
 .data          0x00000000        0x0 c:/mesh/arm_gcc/bin/../lib/gcc/arm-none-eabi/6.3.1/thumb/v7e-m/fpv4-sp/hard/crtend.o
 .bss           0x00000000        0x0 c:/mesh/arm_gcc/bin/../lib/gcc/arm-none-eabi/6.3.1/thumb/v7e-m/fpv4-sp/hard/crtend.o
 .text          0x00000000        0x0 c:/mesh/arm_gcc/bin/../lib/gcc/arm-none-eabi/6.3.1/thumb/v7e-m/fpv4-sp/hard/crtn.o
 .data          0x00000000        0x0 c:/mesh/arm_gcc/bin/../lib/gcc/arm-none-eabi/6.3.1/thumb/v7e-m/fpv4-sp/hard/crtn.o
 .bss           0x00000000        0x0 c:/mesh/arm_gcc/bin/../lib/gcc/arm-none-eabi/6.3.1/thumb/v7e-m/fpv4-sp/hard/crtn.o
 .text          0x00000000        0x0 c:/mesh/arm_gcc/bin/../lib/gcc/arm-none-eabi/6.3.1/../../../../arm-none-eabi/lib/thumb/v7e-m/fpv4-sp/hard\libnosys.a(sbrk.o)
 .data          0x00000000        0x0 c:/mesh/arm_gcc/bin/../lib/gcc/arm-none-eabi/6.3.1/../../../../arm-none-eabi/lib/thumb/v7e-m/fpv4-sp/hard\libnosys.a(sbrk.o)
 .bss           0x00000000        0x0 c:/mesh/arm_gcc/bin/../lib/gcc/arm-none-eabi/6.3.1/../../../../arm-none-eabi/lib/thumb/v7e-m/fpv4-sp/hard\libnosys.a(sbrk.o)
 .text          0x00000000        0x0 c:/mesh/arm_gcc/bin/../lib/gcc/arm-none-eabi/6.3.1/../../../../arm-none-eabi/lib/thumb/v7e-m/fpv4-sp/hard\libnosys.a(_exit.o)
 .data          0x00000000        0x0 c:/mesh/arm_gcc/bin/../lib/gcc/arm-none-eabi/6.3.1/../../../../arm-none-eabi/lib/thumb/v7e-m/fpv4-sp/hard\libnosys.a(_exit.o)
 .bss           0x00000000        0x0 c:/mesh/arm_gcc/bin/../lib/gcc/arm-none-eabi/6.3.1/../../../../arm-none-eabi/lib/thumb/v7e-m/fpv4-sp/hard\libnosys.a(_exit.o)

Memory Configuration

Name             Origin             Length             Attributes
FLASH            0x00026000         0x000d1000         xr
RAM              0x200032c8         0x0003ca38         xrw
*default*        0x00000000         0xffffffff

Linker script and memory map


.text           0x00026000    0x203e0
 *(.isr_vector)
 .isr_vector    0x00026000      0x200 examples/light_switch/provisioner/CMakeFiles/light_switch_provisioner_nrf52840_xxAA_s140_6.0.0.dir/C_/ver/mod/nRF5_SDK_15.0.0_a53641a/modules/nrfx/mdk/gcc_startup_nrf52840.S.obj
                0x00026000                __isr_vector
 *(.text*)
 .text          0x00026200       0x6c c:/mesh/arm_gcc/bin/../lib/gcc/arm-none-eabi/6.3.1/thumb/v7e-m/fpv4-sp/hard/crtbegin.o
 .text          0x0002626c       0x74 c:/mesh/arm_gcc/bin/../lib/gcc/arm-none-eabi/6.3.1/../../../../arm-none-eabi/lib/thumb/v7e-m/fpv4-sp/hard/crt0.o
                0x0002626c                _start
                0x0002626c                _mainCRTStartup
 .text.sd_app_evt_wait
                0x000262e0        0x4 examples/light_switch/provisioner/CMakeFiles/light_switch_provisioner_nrf52840_xxAA_s140_6.0.0.dir/src/main.c.obj
 .text.flash_manager_mem_available
                0x000262e4        0x4 examples/light_switch/provisioner/CMakeFiles/light_switch_provisioner_nrf52840_xxAA_s140_6.0.0.dir/src/main.c.obj
 .text.flash_invalidate_complete
                0x000262e8       0x10 examples/light_switch/provisioner/CMakeFiles/light_switch_provisioner_nrf52840_xxAA_s140_6.0.0.dir/src/main.c.obj
 .text.models_init_cb
                0x000262f8       0xc0 examples/light_switch/provisioner/CMakeFiles/light_switch_provisioner_nrf52840_xxAA_s140_6.0.0.dir/src/main.c.obj
                0x000262f8                models_init_cb
 .text.app_config_client_event_cb
                0x000263b8       0x84 examples/light_switch/provisioner/CMakeFiles/light_switch_provisioner_nrf52840_xxAA_s140_6.0.0.dir/src/main.c.obj
 .text.app_config_failed_cb
                0x0002643c       0x90 examples/light_switch/provisioner/CMakeFiles/light_switch_provisioner_nrf52840_xxAA_s140_6.0.0.dir/src/main.c.obj
 .text.app_prov_failed_cb
                0x000264cc       0x84 examples/light_switch/provisioner/CMakeFiles/light_switch_provisioner_nrf52840_xxAA_s140_6.0.0.dir/src/main.c.obj
 .text.app_prov_success_cb
                0x00026550       0x84 examples/light_switch/provisioner/CMakeFiles/light_switch_provisioner_nrf52840_xxAA_s140_6.0.0.dir/src/main.c.obj
 .text.clear_app_data
                0x000265d4       0x2c examples/light_switch/provisioner/CMakeFiles/light_switch_provisioner_nrf52840_xxAA_s140_6.0.0.dir/src/main.c.obj
 .text.store_app_data
                0x00026600       0x3c examples/light_switch/provisioner/CMakeFiles/light_switch_provisioner_nrf52840_xxAA_s140_6.0.0.dir/src/main.c.obj
 .text.app_mesh_core_event_cb
                0x0002663c      0x824 examples/light_switch/provisioner/CMakeFiles/light_switch_provisioner_nrf52840_xxAA_s140_6.0.0.dir/src/main.c.obj
 .text.app_config_server_event_cb
                0x00026e60       0x8c examples/light_switch/provisioner/CMakeFiles/light_switch_provisioner_nrf52840_xxAA_s140_6.0.0.dir/src/main.c.obj
 .text.flash_write_complete
                0x00026eec       0x98 examples/light_switch/provisioner/CMakeFiles/light_switch_provisioner_nrf52840_xxAA_s140_6.0.0.dir/src/main.c.obj
 .text.app_health_event_cb
                0x00026f84       0x90 examples/light_switch/provisioner/CMakeFiles/light_switch_provisioner_nrf52840_xxAA_s140_6.0.0.dir/src/main.c.obj
 .text.flash_remove_complete
                0x00027014       0x70 examples/light_switch/provisioner/CMakeFiles/light_switch_provisioner_nrf52840_xxAA_s140_6.0.0.dir/src/main.c.obj
 .text.app_flash_manager_add
                0x00027084       0xb8 examples/light_switch/provisioner/CMakeFiles/light_switch_provisioner_nrf52840_xxAA_s140_6.0.0.dir/src/main.c.obj
 .text.button_event_handler
                0x0002713c      0x354 examples/light_switch/provisioner/CMakeFiles/light_switch_provisioner_nrf52840_xxAA_s140_6.0.0.dir/src/main.c.obj
 .text.app_data_store_cb
                0x00027490       0x3c examples/light_switch/provisioner/CMakeFiles/light_switch_provisioner_nrf52840_xxAA_s140_6.0.0.dir/src/main.c.obj
 .text.app_config_successful_cb
                0x000274cc      0x154 examples/light_switch/provisioner/CMakeFiles/light_switch_provisioner_nrf52840_xxAA_s140_6.0.0.dir/src/main.c.obj
 .text.app_rtt_input_handler
                0x00027620      0x360 examples/light_switch/provisioner/CMakeFiles/light_switch_provisioner_nrf52840_xxAA_s140_6.0.0.dir/src/main.c.obj
 .text.app_default_models_bind_setup
                0x00027980       0x50 examples/light_switch/provisioner/CMakeFiles/light_switch_provisioner_nrf52840_xxAA_s140_6.0.0.dir/src/main.c.obj
                0x00027980                app_default_models_bind_setup
 .text.startup.main
                0x000279d0      0x3f0 examples/light_switch/provisioner/CMakeFiles/light_switch_provisioner_nrf52840_xxAA_s140_6.0.0.dir/src/main.c.obj
                0x000279d0                main
 .text.mesh_stack_init
                0x00027dc0       0x90 examples/light_switch/provisioner/CMakeFiles/light_switch_provisioner_nrf52840_xxAA_s140_6.0.0.dir/__/__/__/mesh/stack/src/mesh_stack.c.obj
                0x00027dc0                mesh_stack_init
 .text.mesh_stack_config_clear
                0x00027e50       0x14 examples/light_switch/provisioner/CMakeFiles/light_switch_provisioner_nrf52840_xxAA_s140_6.0.0.dir/__/__/__/mesh/stack/src/mesh_stack.c.obj
                0x00027e50                mesh_stack_config_clear
 .text.prov_evt_handler
                0x00027e64      0xa48 examples/light_switch/provisioner/CMakeFiles/light_switch_provisioner_nrf52840_xxAA_s140_6.0.0.dir/src/provisioner_helper.c.obj
 .text.prov_helper_provision_next_device
                0x000288ac       0xc8 examples/light_switch/provisioner/CMakeFiles/light_switch_provisioner_nrf52840_xxAA_s140_6.0.0.dir/src/provisioner_helper.c.obj
                0x000288ac                prov_helper_provision_next_device
 .text.prov_helper_scan_start
                0x00028974       0x90 examples/light_switch/provisioner/CMakeFiles/light_switch_provisioner_nrf52840_xxAA_s140_6.0.0.dir/src/provisioner_helper.c.obj
                0x00028974                prov_helper_scan_start
 .text.prov_helper_device_handles_load
                0x00028a04       0xf0 examples/light_switch/provisioner/CMakeFiles/light_switch_provisioner_nrf52840_xxAA_s140_6.0.0.dir/src/provisioner_helper.c.obj
                0x00028a04                prov_helper_device_handles_load
 .text.prov_helper_init
                0x00028af4       0x50 examples/light_switch/provisioner/CMakeFiles/light_switch_provisioner_nrf52840_xxAA_s140_6.0.0.dir/src/provisioner_helper.c.obj
                0x00028af4                prov_helper_init
 .text.prov_helper_provision_self
                0x00028b44      0x110 examples/light_switch/provisioner/CMakeFiles/light_switch_provisioner_nrf52840_xxAA_s140_6.0.0.dir/src/provisioner_helper.c.obj
                0x00028b44                prov_helper_provision_self
 .text.client_pub_state_set
                0x00028c54       0xbc examples/light_switch/provisioner/CMakeFiles/light_switch_provisioner_nrf52840_xxAA_s140_6.0.0.dir/src/node_setup.c.obj
 .text.retry_on_fail
                0x00028d10       0xb8 examples/light_switch/provisioner/CMakeFiles/light_switch_provisioner_nrf52840_xxAA_s140_6.0.0.dir/src/node_setup.c.obj
 .text.config_step_execute
                0x00028dc8      0x664 examples/light_switch/provisioner/CMakeFiles/light_switch_provisioner_nrf52840_xxAA_s140_6.0.0.dir/src/node_setup.c.obj
 .text.client_send_timer_cb
                0x0002942c       0x14 examples/light_switch/provisioner/CMakeFiles/light_switch_provisioner_nrf52840_xxAA_s140_6.0.0.dir/src/node_setup.c.obj
 .text.node_setup_config_client_event_process
                0x00029440      0x330 examples/light_switch/provisioner/CMakeFiles/light_switch_provisioner_nrf52840_xxAA_s140_6.0.0.dir/src/node_setup.c.obj
                0x00029440                node_setup_config_client_event_process
 .text.node_setup_start
                0x00029770      0x25c examples/light_switch/provisioner/CMakeFiles/light_switch_provisioner_nrf52840_xxAA_s140_6.0.0.dir/src/node_setup.c.obj
                0x00029770                node_setup_start
 .text.node_setup_cb_set
                0x000299cc       0x38 examples/light_switch/provisioner/CMakeFiles/light_switch_provisioner_nrf52840_xxAA_s140_6.0.0.dir/src/node_setup.c.obj
                0x000299cc                node_setup_cb_set
 .text.sd_evt_get
                0x00029a04        0x4 examples/light_switch/provisioner/CMakeFiles/light_switch_provisioner_nrf52840_xxAA_s140_6.0.0.dir/__/__/common/src/mesh_softdevice_init.c.obj
 .text.sd_softdevice_enable
                0x00029a08        0x4 examples/light_switch/provisioner/CMakeFiles/light_switch_provisioner_nrf52840_xxAA_s140_6.0.0.dir/__/__/common/src/mesh_softdevice_init.c.obj
 .text.sd_ble_enable
                0x00029a0c        0x4 examples/light_switch/provisioner/CMakeFiles/light_switch_provisioner_nrf52840_xxAA_s140_6.0.0.dir/__/__/common/src/mesh_softdevice_init.c.obj
 .text.SWI2_EGU2_IRQHandler
                0x00029a10       0x1c examples/light_switch/provisioner/CMakeFiles/light_switch_provisioner_nrf52840_xxAA_s140_6.0.0.dir/__/__/common/src/mesh_softdevice_init.c.obj
                0x00029a10                SWI2_EGU2_IRQHandler
 .text.mesh_softdevice_init
                0x00029a2c      0x1f8 examples/light_switch/provisioner/CMakeFiles/light_switch_provisioner_nrf52840_xxAA_s140_6.0.0.dir/__/__/common/src/mesh_softdevice_init.c.obj
                0x00029a2c                mesh_softdevice_init
 .text.TIMER2_IRQHandler
                0x00029c24       0x34 examples/light_switch/provisioner/CMakeFiles/light_switch_provisioner_nrf52840_xxAA_s140_6.0.0.dir/__/__/common/src/rtt_input.c.obj
                0x00029c24                TIMER2_IRQHandler
 .text.rtt_input_enable
                0x00029c58       0x5c examples/light_switch/provisioner/CMakeFiles/light_switch_provisioner_nrf52840_xxAA_s140_6.0.0.dir/__/__/common/src/rtt_input.c.obj
                0x00029c58                rtt_input_enable
 .text.hal_led_pin_set
                0x00029cb4       0x18 examples/light_switch/provisioner/CMakeFiles/light_switch_provisioner_nrf52840_xxAA_s140_6.0.0.dir/__/__/common/src/simple_hal.c.obj
                0x00029cb4                hal_led_pin_set
 .text.hal_led_mask_set
                0x00029ccc       0x14 examples/light_switch/provisioner/CMakeFiles/light_switch_provisioner_nrf52840_xxAA_s140_6.0.0.dir/__/__/common/src/simple_hal.c.obj
                0x00029ccc                hal_led_mask_set
 .text.hal_led_blink_ms
                0x00029ce0       0x4c examples/light_switch/provisioner/CMakeFiles/light_switch_provisioner_nrf52840_xxAA_s140_6.0.0.dir/__/__/common/src/simple_hal.c.obj
                0x00029ce0                hal_led_blink_ms
 .text.hal_leds_init
                0x00029d2c       0x3c examples/light_switch/provisioner/CMakeFiles/light_switch_provisioner_nrf52840_xxAA_s140_6.0.0.dir/__/__/common/src/simple_hal.c.obj
                0x00029d2c                hal_leds_init
 .text.hal_buttons_init
                0x00029d68       0x54 examples/light_switch/provisioner/CMakeFiles/light_switch_provisioner_nrf52840_xxAA_s140_6.0.0.dir/__/__/common/src/simple_hal.c.obj
                0x00029d68                hal_buttons_init
 .text.GPIOTE_IRQHandler
                0x00029dbc      0x114 examples/light_switch/provisioner/CMakeFiles/light_switch_provisioner_nrf52840_xxAA_s140_6.0.0.dir/__/__/common/src/simple_hal.c.obj
                0x00029dbc                GPIOTE_IRQHandler
 .text._weak_handler
                0x00029ed0        0x4 examples/light_switch/provisioner/CMakeFiles/light_switch_provisioner_nrf52840_xxAA_s140_6.0.0.dir/__/__/nrf_mesh_weak.c.obj
                0x00029ed0                nrf_mesh_dfu_init
                0x00029ed0                nrf_mesh_dfu_jump_to_bootloader
                0x00029ed0                nrf_mesh_dfu_rx
                0x00029ed0                nrf_mesh_dfu_bank_info_get
                0x00029ed0                nrf_mesh_dfu_request
                0x00029ed0                nrf_mesh_dfu_bank_flash
                0x00029ed0                _weak_handler
                0x00029ed0                prov_provisionee_auth_data
                0x00029ed0                nrf_mesh_dfu_relay
                0x00029ed0                prov_provisionee_shared_secret
                0x00029ed0                nrf_mesh_dfu_abort
                0x00029ed0                mesh_flash_op_execute
                0x00029ed0                prov_provisionee_init
                0x00029ed0                nrf_mesh_dfu_state_get
                0x00029ed0                prov_provisionee_listen
 .text.app_error_fault_handler
                0x00029ed4      0x240 examples/light_switch/provisioner/CMakeFiles/light_switch_provisioner_nrf52840_xxAA_s140_6.0.0.dir/__/__/common/src/app_error_weak.c.obj
                0x00029ed4                app_error_fault_handler
 .text.mesh_assertion_handler
                0x0002a114       0x24 examples/light_switch/provisioner/CMakeFiles/light_switch_provisioner_nrf52840_xxAA_s140_6.0.0.dir/__/__/common/src/assertion_handler_weak.c.obj
                0x0002a114                mesh_assertion_handler
 .text.nrf_mesh_configure_device_uuid_set
                0x0002a138       0x10 examples/light_switch/provisioner/CMakeFiles/light_switch_provisioner_nrf52840_xxAA_s140_6.0.0.dir/__/__/__/mesh/core/src/nrf_mesh_configure.c.obj
                0x0002a138                nrf_mesh_configure_device_uuid_set
 .text.nrf_mesh_configure_device_uuid_reset
                0x0002a148       0x2c examples/light_switch/provisioner/CMakeFiles/light_switch_provisioner_nrf52840_xxAA_s140_6.0.0.dir/__/__/__/mesh/core/src/nrf_mesh_configure.c.obj
                0x0002a148                nrf_mesh_configure_device_uuid_reset
 .text.nrf_mesh_configure_device_uuid_get
                0x0002a174        0x8 examples/light_switch/provisioner/CMakeFiles/light_switch_provisioner_nrf52840_xxAA_s140_6.0.0.dir/__/__/__/mesh/core/src/nrf_mesh_configure.c.obj
                0x0002a174                nrf_mesh_configure_device_uuid_get
 .text.sd_ecb_block_encrypt
                0x0002a17c        0x4 examples/light_switch/provisioner/CMakeFiles/light_switch_provisioner_nrf52840_xxAA_s140_6.0.0.dir/__/__/__/mesh/core/src/aes.c.obj
 .text.aes_encrypt
                0x0002a180       0x34 examples/light_switch/provisioner/CMakeFiles/light_switch_provisioner_nrf52840_xxAA_s140_6.0.0.dir/__/__/__/mesh/core/src/aes.c.obj
                0x0002a180                aes_encrypt
 .text.msg_cache_init
                0x0002a1b4       0x24 examples/light_switch/provisioner/CMakeFiles/light_switch_provisioner_nrf52840_xxAA_s140_6.0.0.dir/__/__/__/mesh/core/src/msg_cache.c.obj
                0x0002a1b4                msg_cache_init
 .text.msg_cache_entry_exists
                0x0002a1d8       0x40 examples/light_switch/provisioner/CMakeFiles/light_switch_provisioner_nrf52840_xxAA_s140_6.0.0.dir/__/__/__/mesh/core/src/msg_cache.c.obj
                0x0002a1d8                msg_cache_entry_exists
 .text.msg_cache_entry_add
                0x0002a218       0x30 examples/light_switch/provisioner/CMakeFiles/light_switch_provisioner_nrf52840_xxAA_s140_6.0.0.dir/__/__/__/mesh/core/src/msg_cache.c.obj
                0x0002a218                msg_cache_entry_add
 .text.tx_complete
                0x0002a248       0x30 examples/light_switch/provisioner/CMakeFiles/light_switch_provisioner_nrf52840_xxAA_s140_6.0.0.dir/__/__/__/mesh/core/src/transport.c.obj
 .text.upper_trs_packet_encrypt
                0x0002a278       0xb4 examples/light_switch/provisioner/CMakeFiles/light_switch_provisioner_nrf52840_xxAA_s140_6.0.0.dir/__/__/__/mesh/core/src/transport.c.obj
 .text.trs_sar_packet_out
                0x0002a32c      0x1a4 examples/light_switch/provisioner/CMakeFiles/light_switch_provisioner_nrf52840_xxAA_s140_6.0.0.dir/__/__/__/mesh/core/src/transport.c.obj
 .text.upper_transport_tx.part.25
                0x0002a4d0      0x34c examples/light_switch/provisioner/CMakeFiles/light_switch_provisioner_nrf52840_xxAA_s140_6.0.0.dir/__/__/__/mesh/core/src/transport.c.obj
 .text.sar_ack_send.part.29
                0x0002a81c       0xd4 examples/light_switch/provisioner/CMakeFiles/light_switch_provisioner_nrf52840_xxAA_s140_6.0.0.dir/__/__/__/mesh/core/src/transport.c.obj
 .text.ack_timeout
                0x0002a8f0       0x34 examples/light_switch/provisioner/CMakeFiles/light_switch_provisioner_nrf52840_xxAA_s140_6.0.0.dir/__/__/__/mesh/core/src/transport.c.obj
 .text.upper_transport_access_packet_in
                0x0002a924      0x334 examples/light_switch/provisioner/CMakeFiles/light_switch_provisioner_nrf52840_xxAA_s140_6.0.0.dir/__/__/__/mesh/core/src/transport.c.obj
 .text.sar_ctx_cancel
                0x0002ac58      0x148 examples/light_switch/provisioner/CMakeFiles/light_switch_provisioner_nrf52840_xxAA_s140_6.0.0.dir/__/__/__/mesh/core/src/transport.c.obj
 .text.retry_timeout
                0x0002ada0       0x98 examples/light_switch/provisioner/CMakeFiles/light_switch_provisioner_nrf52840_xxAA_s140_6.0.0.dir/__/__/__/mesh/core/src/transport.c.obj
 .text.transport_sar_process
                0x0002ae38      0x288 examples/light_switch/provisioner/CMakeFiles/light_switch_provisioner_nrf52840_xxAA_s140_6.0.0.dir/__/__/__/mesh/core/src/transport.c.obj
 .text.upper_transport_packet_in
                0x0002b0c0      0x2e4 examples/light_switch/provisioner/CMakeFiles/light_switch_provisioner_nrf52840_xxAA_s140_6.0.0.dir/__/__/__/mesh/core/src/transport.c.obj
 .text.abort_timeout
                0x0002b3a4      0x13c examples/light_switch/provisioner/CMakeFiles/light_switch_provisioner_nrf52840_xxAA_s140_6.0.0.dir/__/__/__/mesh/core/src/transport.c.obj
 .text.transport_init
                0x0002b4e0       0xac examples/light_switch/provisioner/CMakeFiles/light_switch_provisioner_nrf52840_xxAA_s140_6.0.0.dir/__/__/__/mesh/core/src/transport.c.obj
                0x0002b4e0                transport_init
 .text.transport_packet_in
                0x0002b58c      0x770 examples/light_switch/provisioner/CMakeFiles/light_switch_provisioner_nrf52840_xxAA_s140_6.0.0.dir/__/__/__/mesh/core/src/transport.c.obj
                0x0002b58c                transport_packet_in
 .text.transport_tx
                0x0002bcfc      0x100 examples/light_switch/provisioner/CMakeFiles/light_switch_provisioner_nrf52840_xxAA_s140_6.0.0.dir/__/__/__/mesh/core/src/transport.c.obj
                0x0002bcfc                transport_tx
 .text.transport_control_tx
                0x0002bdfc       0xc0 examples/light_switch/provisioner/CMakeFiles/light_switch_provisioner_nrf52840_xxAA_s140_6.0.0.dir/__/__/__/mesh/core/src/transport.c.obj
                0x0002bdfc                transport_control_tx
 .text.transport_opt_set
                0x0002bebc       0xdc examples/light_switch/provisioner/CMakeFiles/light_switch_provisioner_nrf52840_xxAA_s140_6.0.0.dir/__/__/__/mesh/core/src/transport.c.obj
                0x0002bebc                transport_opt_set
 .text.transport_opt_get
                0x0002bf98       0x84 examples/light_switch/provisioner/CMakeFiles/light_switch_provisioner_nrf52840_xxAA_s140_6.0.0.dir/__/__/__/mesh/core/src/transport.c.obj
                0x0002bf98                transport_opt_get
 .text.transport_control_packet_consumer_add
                0x0002c01c       0x60 examples/light_switch/provisioner/CMakeFiles/light_switch_provisioner_nrf52840_xxAA_s140_6.0.0.dir/__/__/__/mesh/core/src/transport.c.obj
                0x0002c01c                transport_control_packet_consumer_add
 .text.event_handle
                0x0002c07c       0x28 examples/light_switch/provisioner/CMakeFiles/light_switch_provisioner_nrf52840_xxAA_s140_6.0.0.dir/__/__/__/mesh/core/src/event.c.obj
                0x0002c07c                event_handle
 .text.event_handler_add
                0x0002c0a4       0x28 examples/light_switch/provisioner/CMakeFiles/light_switch_provisioner_nrf52840_xxAA_s140_6.0.0.dir/__/__/__/mesh/core/src/event.c.obj
                0x0002c0a4                event_handler_add
 .text.event_handler_remove
                0x0002c0cc       0x28 examples/light_switch/provisioner/CMakeFiles/light_switch_provisioner_nrf52840_xxAA_s140_6.0.0.dir/__/__/__/mesh/core/src/event.c.obj
                0x0002c0cc                event_handler_remove
 .text.packet_buffer_init
                0x0002c0f4       0xb4 examples/light_switch/provisioner/CMakeFiles/light_switch_provisioner_nrf52840_xxAA_s140_6.0.0.dir/__/__/__/mesh/core/src/packet_buffer.c.obj
                0x0002c0f4                packet_buffer_init
 .text.packet_buffer_flush
                0x0002c1a8       0x74 examples/light_switch/provisioner/CMakeFiles/light_switch_provisioner_nrf52840_xxAA_s140_6.0.0.dir/__/__/__/mesh/core/src/packet_buffer.c.obj
                0x0002c1a8                packet_buffer_flush
 .text.packet_buffer_reserve
                0x0002c21c       0x9c examples/light_switch/provisioner/CMakeFiles/light_switch_provisioner_nrf52840_xxAA_s140_6.0.0.dir/__/__/__/mesh/core/src/packet_buffer.c.obj
                0x0002c21c                packet_buffer_reserve
 .text.packet_buffer_commit
                0x0002c2b8       0x7c examples/light_switch/provisioner/CMakeFiles/light_switch_provisioner_nrf52840_xxAA_s140_6.0.0.dir/__/__/__/mesh/core/src/packet_buffer.c.obj
                0x0002c2b8                packet_buffer_commit
 .text.packet_buffer_pop
                0x0002c334       0x50 examples/light_switch/provisioner/CMakeFiles/light_switch_provisioner_nrf52840_xxAA_s140_6.0.0.dir/__/__/__/mesh/core/src/packet_buffer.c.obj
                0x0002c334                packet_buffer_pop
 .text.packet_buffer_can_pop
                0x0002c384       0x24 examples/light_switch/provisioner/CMakeFiles/light_switch_provisioner_nrf52840_xxAA_s140_6.0.0.dir/__/__/__/mesh/core/src/packet_buffer.c.obj
                0x0002c384                packet_buffer_can_pop
 .text.packet_buffer_packets_ready_to_pop
                0x0002c3a8       0x48 examples/light_switch/provisioner/CMakeFiles/light_switch_provisioner_nrf52840_xxAA_s140_6.0.0.dir/__/__/__/mesh/core/src/packet_buffer.c.obj
                0x0002c3a8                packet_buffer_packets_ready_to_pop
 .text.packet_buffer_free
                0x0002c3f0       0x8c examples/light_switch/provisioner/CMakeFiles/light_switch_provisioner_nrf52840_xxAA_s140_6.0.0.dir/__/__/__/mesh/core/src/packet_buffer.c.obj
                0x0002c3f0                packet_buffer_free
 .text.erase_source
                0x0002c47c       0x34 examples/light_switch/provisioner/CMakeFiles/light_switch_provisioner_nrf52840_xxAA_s140_6.0.0.dir/__/__/__/mesh/core/src/flash_manager_defrag.c.obj
 .text.erase_recovery_area
                0x0002c4b0       0x34 examples/light_switch/provisioner/CMakeFiles/light_switch_provisioner_nrf52840_xxAA_s140_6.0.0.dir/__/__/__/mesh/core/src/flash_manager_defrag.c.obj
 .text.write_back
                0x0002c4e4       0x44 examples/light_switch/provisioner/CMakeFiles/light_switch_provisioner_nrf52840_xxAA_s140_6.0.0.dir/__/__/__/mesh/core/src/flash_manager_defrag.c.obj
 .text.write_defrag_start_pointer
                0x0002c528       0x38 examples/light_switch/provisioner/CMakeFiles/light_switch_provisioner_nrf52840_xxAA_s140_6.0.0.dir/__/__/__/mesh/core/src/flash_manager_defrag.c.obj
 .text.copy_metadata
                0x0002c560       0x58 examples/light_switch/provisioner/CMakeFiles/light_switch_provisioner_nrf52840_xxAA_s140_6.0.0.dir/__/__/__/mesh/core/src/flash_manager_defrag.c.obj
 .text.seal_storage_page
                0x0002c5b8       0x70 examples/light_switch/provisioner/CMakeFiles/light_switch_provisioner_nrf52840_xxAA_s140_6.0.0.dir/__/__/__/mesh/core/src/flash_manager_defrag.c.obj
 .text.post_process
                0x0002c628       0x64 examples/light_switch/provisioner/CMakeFiles/light_switch_provisioner_nrf52840_xxAA_s140_6.0.0.dir/__/__/__/mesh/core/src/flash_manager_defrag.c.obj
 .text.check_for_invalid_entries
                0x0002c68c       0x40 examples/light_switch/provisioner/CMakeFiles/light_switch_provisioner_nrf52840_xxAA_s140_6.0.0.dir/__/__/__/mesh/core/src/flash_manager_defrag.c.obj
 .text.execute_procedure_step
                0x0002c6cc       0xa0 examples/light_switch/provisioner/CMakeFiles/light_switch_provisioner_nrf52840_xxAA_s140_6.0.0.dir/__/__/__/mesh/core/src/flash_manager_defrag.c.obj
 .text.on_flash_op_end
                0x0002c76c       0x4c examples/light_switch/provisioner/CMakeFiles/light_switch_provisioner_nrf52840_xxAA_s140_6.0.0.dir/__/__/__/mesh/core/src/flash_manager_defrag.c.obj
 .text.invalidate_duplicate_entries
                0x0002c7b8      0x158 examples/light_switch/provisioner/CMakeFiles/light_switch_provisioner_nrf52840_xxAA_s140_6.0.0.dir/__/__/__/mesh/core/src/flash_manager_defrag.c.obj
 .text.backup_entries
                0x0002c910      0x1c4 examples/light_switch/provisioner/CMakeFiles/light_switch_provisioner_nrf52840_xxAA_s140_6.0.0.dir/__/__/__/mesh/core/src/flash_manager_defrag.c.obj
 .text.flash_manager_defrag_init
                0x0002cad4       0x6c examples/light_switch/provisioner/CMakeFiles/light_switch_provisioner_nrf52840_xxAA_s140_6.0.0.dir/__/__/__/mesh/core/src/flash_manager_defrag.c.obj
                0x0002cad4                flash_manager_defrag_init
 .text.flash_manager_defrag_is_running
                0x0002cb40       0x10 examples/light_switch/provisioner/CMakeFiles/light_switch_provisioner_nrf52840_xxAA_s140_6.0.0.dir/__/__/__/mesh/core/src/flash_manager_defrag.c.obj
                0x0002cb40                flash_manager_defrag_is_running
 .text.flash_manager_defrag
                0x0002cb50       0x48 examples/light_switch/provisioner/CMakeFiles/light_switch_provisioner_nrf52840_xxAA_s140_6.0.0.dir/__/__/__/mesh/core/src/flash_manager_defrag.c.obj
                0x0002cb50                flash_manager_defrag
 .text.flash_manager_defrag_recovery_page_get
                0x0002cb98        0xc examples/light_switch/provisioner/CMakeFiles/light_switch_provisioner_nrf52840_xxAA_s140_6.0.0.dir/__/__/__/mesh/core/src/flash_manager_defrag.c.obj
                0x0002cb98                flash_manager_defrag_recovery_page_get
 .text.fifo_init
                0x0002cba4       0x38 examples/light_switch/provisioner/CMakeFiles/light_switch_provisioner_nrf52840_xxAA_s140_6.0.0.dir/__/__/__/mesh/core/src/fifo.c.obj
                0x0002cba4                fifo_init
 .text.fifo_push
                0x0002cbdc       0x54 examples/light_switch/provisioner/CMakeFiles/light_switch_provisioner_nrf52840_xxAA_s140_6.0.0.dir/__/__/__/mesh/core/src/fifo.c.obj
                0x0002cbdc                fifo_push
 .text.fifo_pop
                0x0002cc30       0x58 examples/light_switch/provisioner/CMakeFiles/light_switch_provisioner_nrf52840_xxAA_s140_6.0.0.dir/__/__/__/mesh/core/src/fifo.c.obj
                0x0002cc30                fifo_pop
 .text.nrf_flash_erase
                0x0002cc88       0x5c examples/light_switch/provisioner/CMakeFiles/light_switch_provisioner_nrf52840_xxAA_s140_6.0.0.dir/__/__/__/mesh/core/src/nrf_flash.c.obj
                0x0002cc88                nrf_flash_erase
 .text.nrf_flash_write
                0x0002cce4       0x6c examples/light_switch/provisioner/CMakeFiles/light_switch_provisioner_nrf52840_xxAA_s140_6.0.0.dir/__/__/__/mesh/core/src/nrf_flash.c.obj
                0x0002cce4                nrf_flash_write
 .text.packet_mgr_init
                0x0002cd50       0x4c examples/light_switch/provisioner/CMakeFiles/light_switch_provisioner_nrf52840_xxAA_s140_6.0.0.dir/__/__/__/mesh/core/src/packet_mgr.c.obj
                0x0002cd50                packet_mgr_init
 .text.packet_mgr_alloc
                0x0002cd9c      0x1a0 examples/light_switch/provisioner/CMakeFiles/light_switch_provisioner_nrf52840_xxAA_s140_6.0.0.dir/__/__/__/mesh/core/src/packet_mgr.c.obj
                0x0002cd9c                packet_mgr_alloc
 .text.packet_mgr_free
                0x0002cf3c       0x5c examples/light_switch/provisioner/CMakeFiles/light_switch_provisioner_nrf52840_xxAA_s140_6.0.0.dir/__/__/__/mesh/core/src/packet_mgr.c.obj
                0x0002cf3c                packet_mgr_free
 .text.flash_store_iv_index
                0x0002cf98       0x38 examples/light_switch/provisioner/CMakeFiles/light_switch_provisioner_nrf52840_xxAA_s140_6.0.0.dir/__/__/__/mesh/core/src/net_state.c.obj
 .text.flash_mem_available
                0x0002cfd0       0x1c examples/light_switch/provisioner/CMakeFiles/light_switch_provisioner_nrf52840_xxAA_s140_6.0.0.dir/__/__/__/mesh/core/src/net_state.c.obj
 .text.init_flash_storage
                0x0002cfec       0x44 examples/light_switch/provisioner/CMakeFiles/light_switch_provisioner_nrf52840_xxAA_s140_6.0.0.dir/__/__/__/mesh/core/src/net_state.c.obj
 .text.flash_write_complete
                0x0002d030       0x68 examples/light_switch/provisioner/CMakeFiles/light_switch_provisioner_nrf52840_xxAA_s140_6.0.0.dir/__/__/__/mesh/core/src/net_state.c.obj
 .text.seqnum_block_allocate
                0x0002d098       0x4c examples/light_switch/provisioner/CMakeFiles/light_switch_provisioner_nrf52840_xxAA_s140_6.0.0.dir/__/__/__/mesh/core/src/net_state.c.obj
 .text.net_state_reset
                0x0002d0e4       0x78 examples/light_switch/provisioner/CMakeFiles/light_switch_provisioner_nrf52840_xxAA_s140_6.0.0.dir/__/__/__/mesh/core/src/net_state.c.obj
                0x0002d0e4                net_state_reset
 .text.iv_update_trigger_if_pending
                0x0002d15c      0x170 examples/light_switch/provisioner/CMakeFiles/light_switch_provisioner_nrf52840_xxAA_s140_6.0.0.dir/__/__/__/mesh/core/src/net_state.c.obj
 .text.mesh_evt_handler
                0x0002d2cc      0x108 examples/light_switch/provisioner/CMakeFiles/light_switch_provisioner_nrf52840_xxAA_s140_6.0.0.dir/__/__/__/mesh/core/src/net_state.c.obj
 .text.iv_update_timer_handler
                0x0002d3d4       0x70 examples/light_switch/provisioner/CMakeFiles/light_switch_provisioner_nrf52840_xxAA_s140_6.0.0.dir/__/__/__/mesh/core/src/net_state.c.obj
 .text.net_state_recover_from_flash
                0x0002d444      0x118 examples/light_switch/provisioner/CMakeFiles/light_switch_provisioner_nrf52840_xxAA_s140_6.0.0.dir/__/__/__/mesh/core/src/net_state.c.obj
                0x0002d444                net_state_recover_from_flash
 .text.net_state_flash_area_get
                0x0002d55c        0xc examples/light_switch/provisioner/CMakeFiles/light_switch_provisioner_nrf52840_xxAA_s140_6.0.0.dir/__/__/__/mesh/core/src/net_state.c.obj
                0x0002d55c                net_state_flash_area_get
 .text.net_state_init
                0x0002d568       0x94 examples/light_switch/provisioner/CMakeFiles/light_switch_provisioner_nrf52840_xxAA_s140_6.0.0.dir/__/__/__/mesh/core/src/net_state.c.obj
                0x0002d568                net_state_init
 .text.net_state_seqnum_alloc
                0x0002d5fc       0xd4 examples/light_switch/provisioner/CMakeFiles/light_switch_provisioner_nrf52840_xxAA_s140_6.0.0.dir/__/__/__/mesh/core/src/net_state.c.obj
                0x0002d5fc                net_state_seqnum_alloc
 .text.net_state_iv_index_lock
                0x0002d6d0      0x190 examples/light_switch/provisioner/CMakeFiles/light_switch_provisioner_nrf52840_xxAA_s140_6.0.0.dir/__/__/__/mesh/core/src/net_state.c.obj
                0x0002d6d0                net_state_iv_index_lock
 .text.net_state_key_refresh_phase_changed
                0x0002d860       0x20 examples/light_switch/provisioner/CMakeFiles/light_switch_provisioner_nrf52840_xxAA_s140_6.0.0.dir/__/__/__/mesh/core/src/net_state.c.obj
                0x0002d860                net_state_key_refresh_phase_changed
 .text.net_state_beacon_iv_index_get
                0x0002d880        0xc examples/light_switch/provisioner/CMakeFiles/light_switch_provisioner_nrf52840_xxAA_s140_6.0.0.dir/__/__/__/mesh/core/src/net_state.c.obj
                0x0002d880                net_state_beacon_iv_index_get
 .text.net_state_tx_iv_index_get
                0x0002d88c       0x14 examples/light_switch/provisioner/CMakeFiles/light_switch_provisioner_nrf52840_xxAA_s140_6.0.0.dir/__/__/__/mesh/core/src/net_state.c.obj
                0x0002d88c                net_state_tx_iv_index_get
 .text.net_state_rx_iv_index_get
                0x0002d8a0       0x18 examples/light_switch/provisioner/CMakeFiles/light_switch_provisioner_nrf52840_xxAA_s140_6.0.0.dir/__/__/__/mesh/core/src/net_state.c.obj
                0x0002d8a0                net_state_rx_iv_index_get
 .text.net_state_iv_update_get
                0x0002d8b8        0xc examples/light_switch/provisioner/CMakeFiles/light_switch_provisioner_nrf52840_xxAA_s140_6.0.0.dir/__/__/__/mesh/core/src/net_state.c.obj
                0x0002d8b8                net_state_iv_update_get
 .text.send_end_events
                0x0002d8c4       0x90 examples/light_switch/provisioner/CMakeFiles/light_switch_provisioner_nrf52840_xxAA_s140_6.0.0.dir/__/__/__/mesh/core/src/mesh_flash.c.obj
 .text.flash_op_start
                0x0002d954      0x224 examples/light_switch/provisioner/CMakeFiles/light_switch_provisioner_nrf52840_xxAA_s140_6.0.0.dir/__/__/__/mesh/core/src/mesh_flash.c.obj
 .text.mesh_flash_init
                0x0002db78       0x88 examples/light_switch/provisioner/CMakeFiles/light_switch_provisioner_nrf52840_xxAA_s140_6.0.0.dir/__/__/__/mesh/core/src/mesh_flash.c.obj
                0x0002db78                mesh_flash_init
 .text.mesh_flash_user_callback_set
                0x0002dc00       0x20 examples/light_switch/provisioner/CMakeFiles/light_switch_provisioner_nrf52840_xxAA_s140_6.0.0.dir/__/__/__/mesh/core/src/mesh_flash.c.obj
                0x0002dc00                mesh_flash_user_callback_set
 .text.mesh_flash_op_push
                0x0002dc20      0x1a0 examples/light_switch/provisioner/CMakeFiles/light_switch_provisioner_nrf52840_xxAA_s140_6.0.0.dir/__/__/__/mesh/core/src/mesh_flash.c.obj
                0x0002dc20                mesh_flash_op_push
 .text.nrf_mesh_address_type_get
                0x0002ddc0       0x10 examples/light_switch/provisioner/CMakeFiles/light_switch_provisioner_nrf52840_xxAA_s140_6.0.0.dir/__/__/__/mesh/core/src/nrf_mesh_utils.c.obj
                0x0002ddc0                nrf_mesh_address_type_get
 .text.sd_softdevice_is_enabled
                0x0002ddd0        0x4 examples/light_switch/provisioner/CMakeFiles/light_switch_provisioner_nrf52840_xxAA_s140_6.0.0.dir/__/__/__/mesh/core/src/nrf_mesh.c.obj
 .text.nrf_mesh_listen
                0x0002ddd4      0x1c8 examples/light_switch/provisioner/CMakeFiles/light_switch_provisioner_nrf52840_xxAA_s140_6.0.0.dir/__/__/__/mesh/core/src/nrf_mesh.c.obj
 .text.flash_stable_cb
                0x0002df9c       0x20 examples/light_switch/provisioner/CMakeFiles/light_switch_provisioner_nrf52840_xxAA_s140_6.0.0.dir/__/__/__/mesh/core/src/nrf_mesh.c.obj
 .text.scanner_packet_process_cb
                0x0002dfbc       0x88 examples/light_switch/provisioner/CMakeFiles/light_switch_provisioner_nrf52840_xxAA_s140_6.0.0.dir/__/__/__/mesh/core/src/nrf_mesh.c.obj
 .text.nrf_mesh_init
                0x0002e044       0xe0 examples/light_switch/provisioner/CMakeFiles/light_switch_provisioner_nrf52840_xxAA_s140_6.0.0.dir/__/__/__/mesh/core/src/nrf_mesh.c.obj
                0x0002e044                nrf_mesh_init
 .text.nrf_mesh_enable
                0x0002e124       0x48 examples/light_switch/provisioner/CMakeFiles/light_switch_provisioner_nrf52840_xxAA_s140_6.0.0.dir/__/__/__/mesh/core/src/nrf_mesh.c.obj
                0x0002e124                nrf_mesh_enable
 .text.nrf_mesh_packet_send
                0x0002e16c       0x94 examples/light_switch/provisioner/CMakeFiles/light_switch_provisioner_nrf52840_xxAA_s140_6.0.0.dir/__/__/__/mesh/core/src/nrf_mesh.c.obj
                0x0002e16c                nrf_mesh_packet_send
 .text.nrf_mesh_evt_handler_add
                0x0002e200        0x4 examples/light_switch/provisioner/CMakeFiles/light_switch_provisioner_nrf52840_xxAA_s140_6.0.0.dir/__/__/__/mesh/core/src/nrf_mesh.c.obj
                0x0002e200                nrf_mesh_evt_handler_add
 .text.nrf_mesh_on_sd_evt
                0x0002e204        0xc examples/light_switch/provisioner/CMakeFiles/light_switch_provisioner_nrf52840_xxAA_s140_6.0.0.dir/__/__/__/mesh/core/src/nrf_mesh.c.obj
                0x0002e204                nrf_mesh_on_sd_evt
 .text.nrf_mesh_subnet_added
                0x0002e210        0x4 examples/light_switch/provisioner/CMakeFiles/light_switch_provisioner_nrf52840_xxAA_s140_6.0.0.dir/__/__/__/mesh/core/src/nrf_mesh.c.obj
                0x0002e210                nrf_mesh_subnet_added
 .text.queue_init
                0x0002e214       0x1c examples/light_switch/provisioner/CMakeFiles/light_switch_provisioner_nrf52840_xxAA_s140_6.0.0.dir/__/__/__/mesh/core/src/queue.c.obj
                0x0002e214                queue_init
 .text.queue_push
                0x0002e230       0x44 examples/light_switch/provisioner/CMakeFiles/light_switch_provisioner_nrf52840_xxAA_s140_6.0.0.dir/__/__/__/mesh/core/src/queue.c.obj
                0x0002e230                queue_push
 .text.queue_pop
                0x0002e274       0x2c examples/light_switch/provisioner/CMakeFiles/light_switch_provisioner_nrf52840_xxAA_s140_6.0.0.dir/__/__/__/mesh/core/src/queue.c.obj
                0x0002e274                queue_pop
 .text.queue_peek
                0x0002e2a0       0x14 examples/light_switch/provisioner/CMakeFiles/light_switch_provisioner_nrf52840_xxAA_s140_6.0.0.dir/__/__/__/mesh/core/src/queue.c.obj
                0x0002e2a0                queue_peek
 .text.sd_power_reset_reason_clr
                0x0002e2b4        0x4 examples/light_switch/provisioner/CMakeFiles/light_switch_provisioner_nrf52840_xxAA_s140_6.0.0.dir/__/__/__/mesh/core/src/hal.c.obj
 .text.hal_device_reset
                0x0002e2b8       0x2c examples/light_switch/provisioner/CMakeFiles/light_switch_provisioner_nrf52840_xxAA_s140_6.0.0.dir/__/__/__/mesh/core/src/hal.c.obj
                0x0002e2b8                hal_device_reset
 .text.hal_lfclk_ppm_get
                0x0002e2e4       0x14 examples/light_switch/provisioner/CMakeFiles/light_switch_provisioner_nrf52840_xxAA_s140_6.0.0.dir/__/__/__/mesh/core/src/hal.c.obj
                0x0002e2e4                hal_lfclk_ppm_get
 .text.aes_cmac_subkey_generate
                0x0002e2f8      0x2b0 examples/light_switch/provisioner/CMakeFiles/light_switch_provisioner_nrf52840_xxAA_s140_6.0.0.dir/__/__/__/mesh/core/src/aes_cmac.c.obj
                0x0002e2f8                aes_cmac_subkey_generate
 .text.aes_cmac
                0x0002e5a8      0x49c examples/light_switch/provisioner/CMakeFiles/light_switch_provisioner_nrf52840_xxAA_s140_6.0.0.dir/__/__/__/mesh/core/src/aes_cmac.c.obj
                0x0002e5a8                aes_cmac
 .text.timer_cb
                0x0002ea44        0xc examples/light_switch/provisioner/CMakeFiles/light_switch_provisioner_nrf52840_xxAA_s140_6.0.0.dir/__/__/__/mesh/core/src/timer_scheduler.c.obj
 .text.add_evt.constprop.1
                0x0002ea50       0x60 examples/light_switch/provisioner/CMakeFiles/light_switch_provisioner_nrf52840_xxAA_s140_6.0.0.dir/__/__/__/mesh/core/src/timer_scheduler.c.obj
 .text.flag_event_cb
                0x0002eab0      0x328 examples/light_switch/provisioner/CMakeFiles/light_switch_provisioner_nrf52840_xxAA_s140_6.0.0.dir/__/__/__/mesh/core/src/timer_scheduler.c.obj
 .text.timer_sch_init
                0x0002edd8       0x24 examples/light_switch/provisioner/CMakeFiles/light_switch_provisioner_nrf52840_xxAA_s140_6.0.0.dir/__/__/__/mesh/core/src/timer_scheduler.c.obj
                0x0002edd8                timer_sch_init
 .text.timer_sch_schedule
                0x0002edfc       0x64 examples/light_switch/provisioner/CMakeFiles/light_switch_provisioner_nrf52840_xxAA_s140_6.0.0.dir/__/__/__/mesh/core/src/timer_scheduler.c.obj
                0x0002edfc                timer_sch_schedule
 .text.timer_sch_abort
                0x0002ee60       0x5c examples/light_switch/provisioner/CMakeFiles/light_switch_provisioner_nrf52840_xxAA_s140_6.0.0.dir/__/__/__/mesh/core/src/timer_scheduler.c.obj
                0x0002ee60                timer_sch_abort
 .text.timer_sch_reschedule
                0x0002eebc       0x88 examples/light_switch/provisioner/CMakeFiles/light_switch_provisioner_nrf52840_xxAA_s140_6.0.0.dir/__/__/__/mesh/core/src/timer_scheduler.c.obj
                0x0002eebc                timer_sch_reschedule
 .text.timer_event_handler
                0x0002ef44       0xd0 examples/light_switch/provisioner/CMakeFiles/light_switch_provisioner_nrf52840_xxAA_s140_6.0.0.dir/__/__/__/mesh/core/src/timer.c.obj
                0x0002ef44                timer_event_handler
 .text.timer_order_cb
                0x0002f014       0x98 examples/light_switch/provisioner/CMakeFiles/light_switch_provisioner_nrf52840_xxAA_s140_6.0.0.dir/__/__/__/mesh/core/src/timer.c.obj
                0x0002f014                timer_order_cb
 .text.timer_now
                0x0002f0ac       0x58 examples/light_switch/provisioner/CMakeFiles/light_switch_provisioner_nrf52840_xxAA_s140_6.0.0.dir/__/__/__/mesh/core/src/timer.c.obj
                0x0002f0ac                timer_now
 .text.timer_on_ts_begin
                0x0002f104      0x104 examples/light_switch/provisioner/CMakeFiles/light_switch_provisioner_nrf52840_xxAA_s140_6.0.0.dir/__/__/__/mesh/core/src/timer.c.obj
                0x0002f104                timer_on_ts_begin
 .text.timer_on_ts_end
                0x0002f208       0x78 examples/light_switch/provisioner/CMakeFiles/light_switch_provisioner_nrf52840_xxAA_s140_6.0.0.dir/__/__/__/mesh/core/src/timer.c.obj
                0x0002f208                timer_on_ts_end
 .text.timer_cb
                0x0002f280       0x10 examples/light_switch/provisioner/CMakeFiles/light_switch_provisioner_nrf52840_xxAA_s140_6.0.0.dir/__/__/__/mesh/core/src/ticker.c.obj
 .text.ticker_init
                0x0002f290       0x3c examples/light_switch/provisioner/CMakeFiles/light_switch_provisioner_nrf52840_xxAA_s140_6.0.0.dir/__/__/__/mesh/core/src/ticker.c.obj
                0x0002f290                ticker_init
 .text.sd_rand_application_bytes_available_get
                0x0002f2cc        0x4 examples/light_switch/provisioner/CMakeFiles/light_switch_provisioner_nrf52840_xxAA_s140_6.0.0.dir/__/__/__/mesh/core/src/rand.c.obj
 .text.sd_rand_application_vector_get
                0x0002f2d0        0x4 examples/light_switch/provisioner/CMakeFiles/light_switch_provisioner_nrf52840_xxAA_s140_6.0.0.dir/__/__/__/mesh/core/src/rand.c.obj
 .text.rand_prng_seed
                0x0002f2d4       0x6c examples/light_switch/provisioner/CMakeFiles/light_switch_provisioner_nrf52840_xxAA_s140_6.0.0.dir/__/__/__/mesh/core/src/rand.c.obj
                0x0002f2d4                rand_prng_seed
 .text.rand_prng_get
                0x0002f340       0x28 examples/light_switch/provisioner/CMakeFiles/light_switch_provisioner_nrf52840_xxAA_s140_6.0.0.dir/__/__/__/mesh/core/src/rand.c.obj
                0x0002f340                rand_prng_get
 .text.rand_hw_rng_get
                0x0002f368       0x4c examples/light_switch/provisioner/CMakeFiles/light_switch_provisioner_nrf52840_xxAA_s140_6.0.0.dir/__/__/__/mesh/core/src/rand.c.obj
                0x0002f368                rand_hw_rng_get
 .text.nrf_mesh_opt_set
                0x0002f3b4       0x28 examples/light_switch/provisioner/CMakeFiles/light_switch_provisioner_nrf52840_xxAA_s140_6.0.0.dir/__/__/__/mesh/core/src/nrf_mesh_opt.c.obj
                0x0002f3b4                nrf_mesh_opt_set
 .text.nrf_mesh_opt_get
                0x0002f3dc       0x28 examples/light_switch/provisioner/CMakeFiles/light_switch_provisioner_nrf52840_xxAA_s140_6.0.0.dir/__/__/__/mesh/core/src/nrf_mesh_opt.c.obj
                0x0002f3dc                nrf_mesh_opt_get
 .text.sd_radio_session_open
                0x0002f404        0x4 examples/light_switch/provisioner/CMakeFiles/light_switch_provisioner_nrf52840_xxAA_s140_6.0.0.dir/__/__/__/mesh/core/src/timeslot.c.obj
 .text.sd_radio_session_close
                0x0002f408        0x4 examples/light_switch/provisioner/CMakeFiles/light_switch_provisioner_nrf52840_xxAA_s140_6.0.0.dir/__/__/__/mesh/core/src/timeslot.c.obj
 .text.sd_radio_request
                0x0002f40c        0x4 examples/light_switch/provisioner/CMakeFiles/light_switch_provisioner_nrf52840_xxAA_s140_6.0.0.dir/__/__/__/mesh/core/src/timeslot.c.obj
 .text.end_timer_handler
                0x0002f410       0x2c examples/light_switch/provisioner/CMakeFiles/light_switch_provisioner_nrf52840_xxAA_s140_6.0.0.dir/__/__/__/mesh/core/src/timeslot.c.obj
 .text.radio_signal_callback
                0x0002f43c      0x2e4 examples/light_switch/provisioner/CMakeFiles/light_switch_provisioner_nrf52840_xxAA_s140_6.0.0.dir/__/__/__/mesh/core/src/timeslot.c.obj
 .text.timeslot_sd_event_handler
                0x0002f720       0x44 examples/light_switch/provisioner/CMakeFiles/light_switch_provisioner_nrf52840_xxAA_s140_6.0.0.dir/__/__/__/mesh/core/src/timeslot.c.obj
                0x0002f720                timeslot_sd_event_handler
 .text.timeslot_init
                0x0002f764       0x4c examples/light_switch/provisioner/CMakeFiles/light_switch_provisioner_nrf52840_xxAA_s140_6.0.0.dir/__/__/__/mesh/core/src/timeslot.c.obj
                0x0002f764                timeslot_init
 .text.timeslot_start
                0x0002f7b0       0x20 examples/light_switch/provisioner/CMakeFiles/light_switch_provisioner_nrf52840_xxAA_s140_6.0.0.dir/__/__/__/mesh/core/src/timeslot.c.obj
                0x0002f7b0                timeslot_start
 .text.timeslot_stop
                0x0002f7d0       0x30 examples/light_switch/provisioner/CMakeFiles/light_switch_provisioner_nrf52840_xxAA_s140_6.0.0.dir/__/__/__/mesh/core/src/timeslot.c.obj
                0x0002f7d0                timeslot_stop
 .text.timeslot_state_lock
                0x0002f800       0x44 examples/light_switch/provisioner/CMakeFiles/light_switch_provisioner_nrf52840_xxAA_s140_6.0.0.dir/__/__/__/mesh/core/src/timeslot.c.obj
                0x0002f800                timeslot_state_lock
 .text.timeslot_end_is_pending
                0x0002f844       0x24 examples/light_switch/provisioner/CMakeFiles/light_switch_provisioner_nrf52840_xxAA_s140_6.0.0.dir/__/__/__/mesh/core/src/timeslot.c.obj
                0x0002f844                timeslot_end_is_pending
 .text.timeslot_start_time_get
                0x0002f868        0xc examples/light_switch/provisioner/CMakeFiles/light_switch_provisioner_nrf52840_xxAA_s140_6.0.0.dir/__/__/__/mesh/core/src/timeslot.c.obj
                0x0002f868                timeslot_start_time_get
 .text.timeslot_remaining_time_get
                0x0002f874       0x40 examples/light_switch/provisioner/CMakeFiles/light_switch_provisioner_nrf52840_xxAA_s140_6.0.0.dir/__/__/__/mesh/core/src/timeslot.c.obj
                0x0002f874                timeslot_remaining_time_get
 .text.timeslot_is_in_cb
                0x0002f8b4        0xc examples/light_switch/provisioner/CMakeFiles/light_switch_provisioner_nrf52840_xxAA_s140_6.0.0.dir/__/__/__/mesh/core/src/timeslot.c.obj
                0x0002f8b4                timeslot_is_in_cb
 .text.timeslot_trigger
                0x0002f8c0       0x24 examples/light_switch/provisioner/CMakeFiles/light_switch_provisioner_nrf52840_xxAA_s140_6.0.0.dir/__/__/__/mesh/core/src/timeslot.c.obj
                0x0002f8c0                timeslot_trigger
 .text.bearer_event_init
                0x0002f8e4       0x4c examples/light_switch/provisioner/CMakeFiles/light_switch_provisioner_nrf52840_xxAA_s140_6.0.0.dir/__/__/__/mesh/core/src/bearer_event.c.obj
                0x0002f8e4                bearer_event_init
 .text.bearer_event_timer_post
                0x0002f930       0x50 examples/light_switch/provisioner/CMakeFiles/light_switch_provisioner_nrf52840_xxAA_s140_6.0.0.dir/__/__/__/mesh/core/src/bearer_event.c.obj
                0x0002f930                bearer_event_timer_post
 .text.bearer_event_critical_section_begin
                0x0002f980       0x44 examples/light_switch/provisioner/CMakeFiles/light_switch_provisioner_nrf52840_xxAA_s140_6.0.0.dir/__/__/__/mesh/core/src/bearer_event.c.obj
                0x0002f980                bearer_event_critical_section_begin
 .text.bearer_event_critical_section_end
                0x0002f9c4       0x40 examples/light_switch/provisioner/CMakeFiles/light_switch_provisioner_nrf52840_xxAA_s140_6.0.0.dir/__/__/__/mesh/core/src/bearer_event.c.obj
                0x0002f9c4                bearer_event_critical_section_end
 .text.bearer_event_flag_add
                0x0002fa04       0x40 examples/light_switch/provisioner/CMakeFiles/light_switch_provisioner_nrf52840_xxAA_s140_6.0.0.dir/__/__/__/mesh/core/src/bearer_event.c.obj
                0x0002fa04                bearer_event_flag_add
 .text.bearer_event_flag_set
                0x0002fa44       0x5c examples/light_switch/provisioner/CMakeFiles/light_switch_provisioner_nrf52840_xxAA_s140_6.0.0.dir/__/__/__/mesh/core/src/bearer_event.c.obj
                0x0002fa44                bearer_event_flag_set
 .text.bearer_event_sequential_add
                0x0002faa0       0x44 examples/light_switch/provisioner/CMakeFiles/light_switch_provisioner_nrf52840_xxAA_s140_6.0.0.dir/__/__/__/mesh/core/src/bearer_event.c.obj
                0x0002faa0                bearer_event_sequential_add
 .text.bearer_event_sequential_post
                0x0002fae4       0x64 examples/light_switch/provisioner/CMakeFiles/light_switch_provisioner_nrf52840_xxAA_s140_6.0.0.dir/__/__/__/mesh/core/src/bearer_event.c.obj
                0x0002fae4                bearer_event_sequential_post
 .text.bearer_event_sequential_pending
                0x0002fb48       0x14 examples/light_switch/provisioner/CMakeFiles/light_switch_provisioner_nrf52840_xxAA_s140_6.0.0.dir/__/__/__/mesh/core/src/bearer_event.c.obj
                0x0002fb48                bearer_event_sequential_pending
 .text.bearer_event_handler
                0x0002fb5c      0x154 examples/light_switch/provisioner/CMakeFiles/light_switch_provisioner_nrf52840_xxAA_s140_6.0.0.dir/__/__/__/mesh/core/src/bearer_event.c.obj
                0x0002fb5c                bearer_event_handler
 .text.QDEC_IRQHandler
                0x0002fcb0        0x4 examples/light_switch/provisioner/CMakeFiles/light_switch_provisioner_nrf52840_xxAA_s140_6.0.0.dir/__/__/__/mesh/core/src/bearer_event.c.obj
                0x0002fcb0                QDEC_IRQHandler
 .text.enc_aes_encrypt
                0x0002fcb4        0x4 examples/light_switch/provisioner/CMakeFiles/light_switch_provisioner_nrf52840_xxAA_s140_6.0.0.dir/__/__/__/mesh/core/src/enc.c.obj
                0x0002fcb4                enc_aes_encrypt
 .text.enc_aes_cmac
                0x0002fcb8        0x4 examples/light_switch/provisioner/CMakeFiles/light_switch_provisioner_nrf52840_xxAA_s140_6.0.0.dir/__/__/__/mesh/core/src/enc.c.obj
                0x0002fcb8                enc_aes_cmac
 .text.enc_aes_ccm_encrypt
                0x0002fcbc        0x4 examples/light_switch/provisioner/CMakeFiles/light_switch_provisioner_nrf52840_xxAA_s140_6.0.0.dir/__/__/__/mesh/core/src/enc.c.obj
                0x0002fcbc                enc_aes_ccm_encrypt
 .text.enc_aes_ccm_decrypt
                0x0002fcc0        0x4 examples/light_switch/provisioner/CMakeFiles/light_switch_provisioner_nrf52840_xxAA_s140_6.0.0.dir/__/__/__/mesh/core/src/enc.c.obj
                0x0002fcc0                enc_aes_ccm_decrypt
 .text.enc_nonce_generate
                0x0002fcc4       0xc8 examples/light_switch/provisioner/CMakeFiles/light_switch_provisioner_nrf52840_xxAA_s140_6.0.0.dir/__/__/__/mesh/core/src/enc.c.obj
                0x0002fcc4                enc_nonce_generate
 .text.enc_s1   0x0002fd8c       0x30 examples/light_switch/provisioner/CMakeFiles/light_switch_provisioner_nrf52840_xxAA_s140_6.0.0.dir/__/__/__/mesh/core/src/enc.c.obj
                0x0002fd8c                enc_s1
 .text.enc_k1   0x0002fdbc       0x44 examples/light_switch/provisioner/CMakeFiles/light_switch_provisioner_nrf52840_xxAA_s140_6.0.0.dir/__/__/__/mesh/core/src/enc.c.obj
                0x0002fdbc                enc_k1
 .text.enc_k2   0x0002fe00       0xe0 examples/light_switch/provisioner/CMakeFiles/light_switch_provisioner_nrf52840_xxAA_s140_6.0.0.dir/__/__/__/mesh/core/src/enc.c.obj
                0x0002fe00                enc_k2
 .text.enc_k3   0x0002fee0       0x68 examples/light_switch/provisioner/CMakeFiles/light_switch_provisioner_nrf52840_xxAA_s140_6.0.0.dir/__/__/__/mesh/core/src/enc.c.obj
                0x0002fee0                enc_k3
 .text.enc_k4   0x0002ff48       0x60 examples/light_switch/provisioner/CMakeFiles/light_switch_provisioner_nrf52840_xxAA_s140_6.0.0.dir/__/__/__/mesh/core/src/enc.c.obj
                0x0002ff48                enc_k4
 .text.network_init
                0x0002ffa8       0x28 examples/light_switch/provisioner/CMakeFiles/light_switch_provisioner_nrf52840_xxAA_s140_6.0.0.dir/__/__/__/mesh/core/src/network.c.obj
                0x0002ffa8                network_init
 .text.network_opt_set
                0x0002ffd0       0x84 examples/light_switch/provisioner/CMakeFiles/light_switch_provisioner_nrf52840_xxAA_s140_6.0.0.dir/__/__/__/mesh/core/src/network.c.obj
                0x0002ffd0                network_opt_set
 .text.network_opt_get
                0x00030054       0x5c examples/light_switch/provisioner/CMakeFiles/light_switch_provisioner_nrf52840_xxAA_s140_6.0.0.dir/__/__/__/mesh/core/src/network.c.obj
                0x00030054                network_opt_get
 .text.network_packet_alloc
                0x000300b0       0x98 examples/light_switch/provisioner/CMakeFiles/light_switch_provisioner_nrf52840_xxAA_s140_6.0.0.dir/__/__/__/mesh/core/src/network.c.obj
                0x000300b0                network_packet_alloc
 .text.network_packet_send
                0x00030148       0x50 examples/light_switch/provisioner/CMakeFiles/light_switch_provisioner_nrf52840_xxAA_s140_6.0.0.dir/__/__/__/mesh/core/src/network.c.obj
                0x00030148                network_packet_send
 .text.network_packet_in
                0x00030198      0x1c4 examples/light_switch/provisioner/CMakeFiles/light_switch_provisioner_nrf52840_xxAA_s140_6.0.0.dir/__/__/__/mesh/core/src/network.c.obj
                0x00030198                network_packet_in
 .text.net_packet_decrypt
                0x0003035c      0x2dc examples/light_switch/provisioner/CMakeFiles/light_switch_provisioner_nrf52840_xxAA_s140_6.0.0.dir/__/__/__/mesh/core/src/net_packet.c.obj
                0x0003035c                net_packet_decrypt
 .text.net_packet_encrypt
                0x00030638      0x100 examples/light_switch/provisioner/CMakeFiles/light_switch_provisioner_nrf52840_xxAA_s140_6.0.0.dir/__/__/__/mesh/core/src/net_packet.c.obj
                0x00030638                net_packet_encrypt
 .text.net_packet_header_set
                0x00030738       0xc0 examples/light_switch/provisioner/CMakeFiles/light_switch_provisioner_nrf52840_xxAA_s140_6.0.0.dir/__/__/__/mesh/core/src/net_packet.c.obj
                0x00030738                net_packet_header_set
 .text.net_packet_payload_len_get
                0x000307f8       0x14 examples/light_switch/provisioner/CMakeFiles/light_switch_provisioner_nrf52840_xxAA_s140_6.0.0.dir/__/__/__/mesh/core/src/net_packet.c.obj
                0x000307f8                net_packet_payload_len_get
 .text.net_packet_from_payload
                0x0003080c        0x4 examples/light_switch/provisioner/CMakeFiles/light_switch_provisioner_nrf52840_xxAA_s140_6.0.0.dir/__/__/__/mesh/core/src/net_packet.c.obj
                0x0003080c                net_packet_from_payload
 .text.net_packet_obfuscation_start_get
                0x00030810        0x4 examples/light_switch/provisioner/CMakeFiles/light_switch_provisioner_nrf52840_xxAA_s140_6.0.0.dir/__/__/__/mesh/core/src/net_packet.c.obj
                0x00030810                net_packet_obfuscation_start_get
 .text.msq_init
                0x00030814       0x64 examples/light_switch/provisioner/CMakeFiles/light_switch_provisioner_nrf52840_xxAA_s140_6.0.0.dir/__/__/__/mesh/core/src/msqueue.c.obj
                0x00030814                msq_init
 .text.msq_get  0x00030878       0x54 examples/light_switch/provisioner/CMakeFiles/light_switch_provisioner_nrf52840_xxAA_s140_6.0.0.dir/__/__/__/mesh/core/src/msqueue.c.obj
                0x00030878                msq_get
 .text.msq_move
                0x000308cc       0x4c examples/light_switch/provisioner/CMakeFiles/light_switch_provisioner_nrf52840_xxAA_s140_6.0.0.dir/__/__/__/mesh/core/src/msqueue.c.obj
                0x000308cc                msq_move
 .text.msq_available
                0x00030918       0x44 examples/light_switch/provisioner/CMakeFiles/light_switch_provisioner_nrf52840_xxAA_s140_6.0.0.dir/__/__/__/mesh/core/src/msqueue.c.obj
                0x00030918                msq_available
 .text.nrf_mesh_keygen_aid
                0x0003095c       0x18 examples/light_switch/provisioner/CMakeFiles/light_switch_provisioner_nrf52840_xxAA_s140_6.0.0.dir/__/__/__/mesh/core/src/nrf_mesh_keygen.c.obj
                0x0003095c                nrf_mesh_keygen_aid
 .text.nrf_mesh_keygen_network_secmat
                0x00030974       0x24 examples/light_switch/provisioner/CMakeFiles/light_switch_provisioner_nrf52840_xxAA_s140_6.0.0.dir/__/__/__/mesh/core/src/nrf_mesh_keygen.c.obj
                0x00030974                nrf_mesh_keygen_network_secmat
 .text.nrf_mesh_keygen_beacon_secmat
                0x00030998       0x50 examples/light_switch/provisioner/CMakeFiles/light_switch_provisioner_nrf52840_xxAA_s140_6.0.0.dir/__/__/__/mesh/core/src/nrf_mesh_keygen.c.obj
                0x00030998                nrf_mesh_keygen_beacon_secmat
 .text.nrf_mesh_keygen_virtual_address
                0x000309e8       0x50 examples/light_switch/provisioner/CMakeFiles/light_switch_provisioner_nrf52840_xxAA_s140_6.0.0.dir/__/__/__/mesh/core/src/nrf_mesh_keygen.c.obj
                0x000309e8                nrf_mesh_keygen_virtual_address
 .text.list_add
                0x00030a38       0x5c examples/light_switch/provisioner/CMakeFiles/light_switch_provisioner_nrf52840_xxAA_s140_6.0.0.dir/__/__/__/mesh/core/src/list.c.obj
                0x00030a38                list_add
 .text.list_remove
                0x00030a94       0x44 examples/light_switch/provisioner/CMakeFiles/light_switch_provisioner_nrf52840_xxAA_s140_6.0.0.dir/__/__/__/mesh/core/src/list.c.obj
                0x00030a94                list_remove
 .text.list_compare_add
                0x00030ad8       0x78 examples/light_switch/provisioner/CMakeFiles/light_switch_provisioner_nrf52840_xxAA_s140_6.0.0.dir/__/__/__/mesh/core/src/list.c.obj
                0x00030ad8                list_compare_add
 .text.log_callback_rtt
                0x00030b50       0x2c examples/light_switch/provisioner/CMakeFiles/light_switch_provisioner_nrf52840_xxAA_s140_6.0.0.dir/__/__/__/mesh/core/src/log.c.obj
                0x00030b50                log_callback_rtt
 .text.log_init
                0x00030b7c       0x20 examples/light_switch/provisioner/CMakeFiles/light_switch_provisioner_nrf52840_xxAA_s140_6.0.0.dir/__/__/__/mesh/core/src/log.c.obj
                0x00030b7c                log_init
 .text.log_printf
                0x00030b9c       0x20 examples/light_switch/provisioner/CMakeFiles/light_switch_provisioner_nrf52840_xxAA_s140_6.0.0.dir/__/__/__/mesh/core/src/log.c.obj
                0x00030b9c                log_printf
 .text.process_action_queue
                0x00030bbc      0x644 examples/light_switch/provisioner/CMakeFiles/light_switch_provisioner_nrf52840_xxAA_s140_6.0.0.dir/__/__/__/mesh/core/src/flash_manager.c.obj
 .text.flash_op_ended_callback
                0x00031200       0x24 examples/light_switch/provisioner/CMakeFiles/light_switch_provisioner_nrf52840_xxAA_s140_6.0.0.dir/__/__/__/mesh/core/src/flash_manager.c.obj
 .text.flash_manager_init
                0x00031224       0x68 examples/light_switch/provisioner/CMakeFiles/light_switch_provisioner_nrf52840_xxAA_s140_6.0.0.dir/__/__/__/mesh/core/src/flash_manager.c.obj
                0x00031224                flash_manager_init
 .text.flash_manager_remove
                0x0003128c       0x6c examples/light_switch/provisioner/CMakeFiles/light_switch_provisioner_nrf52840_xxAA_s140_6.0.0.dir/__/__/__/mesh/core/src/flash_manager.c.obj
                0x0003128c                flash_manager_remove
 .text.flash_manager_entry_get
                0x000312f8       0x48 examples/light_switch/provisioner/CMakeFiles/light_switch_provisioner_nrf52840_xxAA_s140_6.0.0.dir/__/__/__/mesh/core/src/flash_manager.c.obj
                0x000312f8                flash_manager_entry_get
 .text.flash_manager_entry_next_get
                0x00031340      0x148 examples/light_switch/provisioner/CMakeFiles/light_switch_provisioner_nrf52840_xxAA_s140_6.0.0.dir/__/__/__/mesh/core/src/flash_manager.c.obj
                0x00031340                flash_manager_entry_next_get
 .text.flash_manager_entry_alloc
                0x00031488       0x88 examples/light_switch/provisioner/CMakeFiles/light_switch_provisioner_nrf52840_xxAA_s140_6.0.0.dir/__/__/__/mesh/core/src/flash_manager.c.obj
                0x00031488                flash_manager_entry_alloc
 .text.flash_manager_entry_commit
                0x00031510       0x58 examples/light_switch/provisioner/CMakeFiles/light_switch_provisioner_nrf52840_xxAA_s140_6.0.0.dir/__/__/__/mesh/core/src/flash_manager.c.obj
                0x00031510                flash_manager_entry_commit
 .text.flash_manager_entry_invalidate
                0x00031568       0x98 examples/light_switch/provisioner/CMakeFiles/light_switch_provisioner_nrf52840_xxAA_s140_6.0.0.dir/__/__/__/mesh/core/src/flash_manager.c.obj
                0x00031568                flash_manager_entry_invalidate
 .text.flash_manager_add
                0x00031600      0x410 examples/light_switch/provisioner/CMakeFiles/light_switch_provisioner_nrf52840_xxAA_s140_6.0.0.dir/__/__/__/mesh/core/src/flash_manager.c.obj
                0x00031600                flash_manager_add
 .text.flash_manager_mem_listener_register
                0x00031a10       0x34 examples/light_switch/provisioner/CMakeFiles/light_switch_provisioner_nrf52840_xxAA_s140_6.0.0.dir/__/__/__/mesh/core/src/flash_manager.c.obj
                0x00031a10                flash_manager_mem_listener_register
 .text.flash_manager_is_stable
                0x00031a44       0x20 examples/light_switch/provisioner/CMakeFiles/light_switch_provisioner_nrf52840_xxAA_s140_6.0.0.dir/__/__/__/mesh/core/src/flash_manager.c.obj
                0x00031a44                flash_manager_is_stable
 .text.flash_manager_on_defrag_end
                0x00031a64       0x58 examples/light_switch/provisioner/CMakeFiles/light_switch_provisioner_nrf52840_xxAA_s140_6.0.0.dir/__/__/__/mesh/core/src/flash_manager.c.obj
                0x00031a64                flash_manager_on_defrag_end
 .text.flash_manager_recovery_page_get
                0x00031abc        0x4 examples/light_switch/provisioner/CMakeFiles/light_switch_provisioner_nrf52840_xxAA_s140_6.0.0.dir/__/__/__/mesh/core/src/flash_manager.c.obj
                0x00031abc                flash_manager_recovery_page_get
 .text.flash_manager_action_queue_empty_cb_set
                0x00031ac0       0x20 examples/light_switch/provisioner/CMakeFiles/light_switch_provisioner_nrf52840_xxAA_s140_6.0.0.dir/__/__/__/mesh/core/src/flash_manager.c.obj
                0x00031ac0                flash_manager_action_queue_empty_cb_set
 .text.ccm_soft_crypt.constprop.0
                0x00031ae0      0x298 examples/light_switch/provisioner/CMakeFiles/light_switch_provisioner_nrf52840_xxAA_s140_6.0.0.dir/__/__/__/mesh/core/src/ccm_soft.c.obj
 .text.ccm_soft_authenticate
                0x00031d78      0x324 examples/light_switch/provisioner/CMakeFiles/light_switch_provisioner_nrf52840_xxAA_s140_6.0.0.dir/__/__/__/mesh/core/src/ccm_soft.c.obj
 .text.ccm_soft_encrypt
                0x0003209c       0x78 examples/light_switch/provisioner/CMakeFiles/light_switch_provisioner_nrf52840_xxAA_s140_6.0.0.dir/__/__/__/mesh/core/src/ccm_soft.c.obj
                0x0003209c                ccm_soft_encrypt
 .text.ccm_soft_decrypt
                0x00032114      0x10c examples/light_switch/provisioner/CMakeFiles/light_switch_provisioner_nrf52840_xxAA_s140_6.0.0.dir/__/__/__/mesh/core/src/ccm_soft.c.obj
                0x00032114                ccm_soft_decrypt
 .text.replay_cache_init
                0x00032220       0x20 examples/light_switch/provisioner/CMakeFiles/light_switch_provisioner_nrf52840_xxAA_s140_6.0.0.dir/__/__/__/mesh/core/src/replay_cache.c.obj
                0x00032220                replay_cache_init
 .text.replay_cache_add
                0x00032240       0x68 examples/light_switch/provisioner/CMakeFiles/light_switch_provisioner_nrf52840_xxAA_s140_6.0.0.dir/__/__/__/mesh/core/src/replay_cache.c.obj
                0x00032240                replay_cache_add
 .text.replay_cache_has_elem
                0x000322a8       0x44 examples/light_switch/provisioner/CMakeFiles/light_switch_provisioner_nrf52840_xxAA_s140_6.0.0.dir/__/__/__/mesh/core/src/replay_cache.c.obj
                0x000322a8                replay_cache_has_elem
 .text.beacon_create
                0x000322ec       0x50 examples/light_switch/provisioner/CMakeFiles/light_switch_provisioner_nrf52840_xxAA_s140_6.0.0.dir/__/__/__/mesh/core/src/beacon.c.obj
                0x000322ec                beacon_create
 .text.beacon_packet_in
                0x0003233c      0x174 examples/light_switch/provisioner/CMakeFiles/light_switch_provisioner_nrf52840_xxAA_s140_6.0.0.dir/__/__/__/mesh/core/src/beacon.c.obj
                0x0003233c                beacon_packet_in
 .text.entry_get
                0x000324b0       0x80 examples/light_switch/provisioner/CMakeFiles/light_switch_provisioner_nrf52840_xxAA_s140_6.0.0.dir/__/__/__/mesh/core/src/flash_manager_internal.c.obj
                0x000324b0                entry_get
 .text.core_tx_complete_cb_set
                0x00032530        0xc examples/light_switch/provisioner/CMakeFiles/light_switch_provisioner_nrf52840_xxAA_s140_6.0.0.dir/__/__/__/mesh/core/src/core_tx.c.obj
                0x00032530                core_tx_complete_cb_set
 .text.core_tx_packet_alloc
                0x0003253c       0xb4 examples/light_switch/provisioner/CMakeFiles/light_switch_provisioner_nrf52840_xxAA_s140_6.0.0.dir/__/__/__/mesh/core/src/core_tx.c.obj
                0x0003253c                core_tx_packet_alloc
 .text.core_tx_packet_send
                0x000325f0       0x58 examples/light_switch/provisioner/CMakeFiles/light_switch_provisioner_nrf52840_xxAA_s140_6.0.0.dir/__/__/__/mesh/core/src/core_tx.c.obj
                0x000325f0                core_tx_packet_send
 .text.core_tx_packet_discard
                0x00032648       0x4c examples/light_switch/provisioner/CMakeFiles/light_switch_provisioner_nrf52840_xxAA_s140_6.0.0.dir/__/__/__/mesh/core/src/core_tx.c.obj
                0x00032648                core_tx_packet_discard
 .text.core_tx_complete
                0x00032694       0x38 examples/light_switch/provisioner/CMakeFiles/light_switch_provisioner_nrf52840_xxAA_s140_6.0.0.dir/__/__/__/mesh/core/src/core_tx.c.obj
                0x00032694                core_tx_complete
 .text.core_tx_bearer_add
                0x000326cc       0x84 examples/light_switch/provisioner/CMakeFiles/light_switch_provisioner_nrf52840_xxAA_s140_6.0.0.dir/__/__/__/mesh/core/src/core_tx.c.obj
                0x000326cc                core_tx_bearer_add
 .text.heartbeat_subscription_timer_cb
                0x00032750       0x1c examples/light_switch/provisioner/CMakeFiles/light_switch_provisioner_nrf52840_xxAA_s140_6.0.0.dir/__/__/__/mesh/core/src/heartbeat.c.obj
 .text.heartbeat_opcode_handle
                0x0003276c       0x8c examples/light_switch/provisioner/CMakeFiles/light_switch_provisioner_nrf52840_xxAA_s140_6.0.0.dir/__/__/__/mesh/core/src/heartbeat.c.obj
 .text.heartbeat_send
                0x000327f8       0xbc examples/light_switch/provisioner/CMakeFiles/light_switch_provisioner_nrf52840_xxAA_s140_6.0.0.dir/__/__/__/mesh/core/src/heartbeat.c.obj
 .text.heartbeat_core_evt_cb
                0x000328b4       0x94 examples/light_switch/provisioner/CMakeFiles/light_switch_provisioner_nrf52840_xxAA_s140_6.0.0.dir/__/__/__/mesh/core/src/heartbeat.c.obj
 .text.heartbeat_publication_timer_cb
                0x00032948       0xb0 examples/light_switch/provisioner/CMakeFiles/light_switch_provisioner_nrf52840_xxAA_s140_6.0.0.dir/__/__/__/mesh/core/src/heartbeat.c.obj
 .text.heartbeat_on_feature_change_trigger
                0x000329f8       0x48 examples/light_switch/provisioner/CMakeFiles/light_switch_provisioner_nrf52840_xxAA_s140_6.0.0.dir/__/__/__/mesh/core/src/heartbeat.c.obj
                0x000329f8                heartbeat_on_feature_change_trigger
 .text.heartbeat_init
                0x00032a40       0x7c examples/light_switch/provisioner/CMakeFiles/light_switch_provisioner_nrf52840_xxAA_s140_6.0.0.dir/__/__/__/mesh/core/src/heartbeat.c.obj
                0x00032a40                heartbeat_init
 .text.heartbeat_subscription_set
                0x00032abc       0xa4 examples/light_switch/provisioner/CMakeFiles/light_switch_provisioner_nrf52840_xxAA_s140_6.0.0.dir/__/__/__/mesh/core/src/heartbeat.c.obj
                0x00032abc                heartbeat_subscription_set
 .text.heartbeat_subscription_get
                0x00032b60        0x8 examples/light_switch/provisioner/CMakeFiles/light_switch_provisioner_nrf52840_xxAA_s140_6.0.0.dir/__/__/__/mesh/core/src/heartbeat.c.obj
                0x00032b60                heartbeat_subscription_get
 .text.heartbeat_config_server_cb_set
                0x00032b68       0x38 examples/light_switch/provisioner/CMakeFiles/light_switch_provisioner_nrf52840_xxAA_s140_6.0.0.dir/__/__/__/mesh/core/src/heartbeat.c.obj
                0x00032b68                heartbeat_config_server_cb_set
 .text.heartbeat_publication_state_updated
                0x00032ba0       0x78 examples/light_switch/provisioner/CMakeFiles/light_switch_provisioner_nrf52840_xxAA_s140_6.0.0.dir/__/__/__/mesh/core/src/heartbeat.c.obj
                0x00032ba0                heartbeat_publication_state_updated
 .text.beacon_tx
                0x00032c18      0x194 examples/light_switch/provisioner/CMakeFiles/light_switch_provisioner_nrf52840_xxAA_s140_6.0.0.dir/__/__/__/mesh/core/src/net_beacon.c.obj
 .text.tx_complete_cb
                0x00032dac       0x10 examples/light_switch/provisioner/CMakeFiles/light_switch_provisioner_nrf52840_xxAA_s140_6.0.0.dir/__/__/__/mesh/core/src/net_beacon.c.obj
 .text.beacon_tx_timeout
                0x00032dbc        0x4 examples/light_switch/provisioner/CMakeFiles/light_switch_provisioner_nrf52840_xxAA_s140_6.0.0.dir/__/__/__/mesh/core/src/net_beacon.c.obj
 .text.net_beacon_init
                0x00032dc0       0x94 examples/light_switch/provisioner/CMakeFiles/light_switch_provisioner_nrf52840_xxAA_s140_6.0.0.dir/__/__/__/mesh/core/src/net_beacon.c.obj
                0x00032dc0                net_beacon_init
 .text.net_beacon_state_set
                0x00032e54       0x3c examples/light_switch/provisioner/CMakeFiles/light_switch_provisioner_nrf52840_xxAA_s140_6.0.0.dir/__/__/__/mesh/core/src/net_beacon.c.obj
                0x00032e54                net_beacon_state_set
 .text.net_beacon_state_get
                0x00032e90        0xc examples/light_switch/provisioner/CMakeFiles/light_switch_provisioner_nrf52840_xxAA_s140_6.0.0.dir/__/__/__/mesh/core/src/net_beacon.c.obj
                0x00032e90                net_beacon_state_get
 .text.net_beacon_packet_in
                0x00032e9c      0x14c examples/light_switch/provisioner/CMakeFiles/light_switch_provisioner_nrf52840_xxAA_s140_6.0.0.dir/__/__/__/mesh/core/src/net_beacon.c.obj
                0x00032e9c                net_beacon_packet_in
 .text.packet_discard
                0x00032fe8       0x40 examples/light_switch/provisioner/CMakeFiles/light_switch_provisioner_nrf52840_xxAA_s140_6.0.0.dir/__/__/__/mesh/core/src/core_tx_adv.c.obj
 .text.packet_send
                0x00033028       0x58 examples/light_switch/provisioner/CMakeFiles/light_switch_provisioner_nrf52840_xxAA_s140_6.0.0.dir/__/__/__/mesh/core/src/core_tx_adv.c.obj
 .text.packet_alloc
                0x00033080       0x5c examples/light_switch/provisioner/CMakeFiles/light_switch_provisioner_nrf52840_xxAA_s140_6.0.0.dir/__/__/__/mesh/core/src/core_tx_adv.c.obj
 .text.adv_tx_complete_callback
                0x000330dc       0x28 examples/light_switch/provisioner/CMakeFiles/light_switch_provisioner_nrf52840_xxAA_s140_6.0.0.dir/__/__/__/mesh/core/src/core_tx_adv.c.obj
 .text.core_tx_adv_init
                0x00033104       0x60 examples/light_switch/provisioner/CMakeFiles/light_switch_provisioner_nrf52840_xxAA_s140_6.0.0.dir/__/__/__/mesh/core/src/core_tx_adv.c.obj
                0x00033104                core_tx_adv_init
 .text.core_tx_adv_count_set
                0x00033164       0x28 examples/light_switch/provisioner/CMakeFiles/light_switch_provisioner_nrf52840_xxAA_s140_6.0.0.dir/__/__/__/mesh/core/src/core_tx_adv.c.obj
                0x00033164                core_tx_adv_count_set
 .text.core_tx_adv_count_get
                0x0003318c       0x20 examples/light_switch/provisioner/CMakeFiles/light_switch_provisioner_nrf52840_xxAA_s140_6.0.0.dir/__/__/__/mesh/core/src/core_tx_adv.c.obj
                0x0003318c                core_tx_adv_count_get
 .text.core_tx_adv_interval_set
                0x000331ac       0x28 examples/light_switch/provisioner/CMakeFiles/light_switch_provisioner_nrf52840_xxAA_s140_6.0.0.dir/__/__/__/mesh/core/src/core_tx_adv.c.obj
                0x000331ac                core_tx_adv_interval_set
 .text.core_tx_adv_interval_get
                0x000331d4       0x2c examples/light_switch/provisioner/CMakeFiles/light_switch_provisioner_nrf52840_xxAA_s140_6.0.0.dir/__/__/__/mesh/core/src/core_tx_adv.c.obj
                0x000331d4                core_tx_adv_interval_get
 .text.ad_listener_subscribe
                0x00033200       0x60 examples/light_switch/provisioner/CMakeFiles/light_switch_provisioner_nrf52840_xxAA_s140_6.0.0.dir/__/__/__/mesh/bearer/src/ad_listener.c.obj
                0x00033200                ad_listener_subscribe
 .text.ad_listener_process
                0x00033260       0x7c examples/light_switch/provisioner/CMakeFiles/light_switch_provisioner_nrf52840_xxAA_s140_6.0.0.dir/__/__/__/mesh/bearer/src/ad_listener.c.obj
                0x00033260                ad_listener_process
 .text.adtype_filter_handle
                0x000332dc       0x98 examples/light_switch/provisioner/CMakeFiles/light_switch_provisioner_nrf52840_xxAA_s140_6.0.0.dir/__/__/__/mesh/bearer/src/ad_type_filter.c.obj
 .text.bearer_adtype_filtering_set
                0x00033374       0x1c examples/light_switch/provisioner/CMakeFiles/light_switch_provisioner_nrf52840_xxAA_s140_6.0.0.dir/__/__/__/mesh/bearer/src/ad_type_filter.c.obj
                0x00033374                bearer_adtype_filtering_set
 .text.bearer_adtype_add
                0x00033390       0x24 examples/light_switch/provisioner/CMakeFiles/light_switch_provisioner_nrf52840_xxAA_s140_6.0.0.dir/__/__/__/mesh/bearer/src/ad_type_filter.c.obj
                0x00033390                bearer_adtype_add
 .text.bearer_adtype_mode_set
                0x000333b4       0x18 examples/light_switch/provisioner/CMakeFiles/light_switch_provisioner_nrf52840_xxAA_s140_6.0.0.dir/__/__/__/mesh/bearer/src/ad_type_filter.c.obj
                0x000333b4                bearer_adtype_mode_set
 .text.tx_complete_event_callback
                0x000333cc       0x2c examples/light_switch/provisioner/CMakeFiles/light_switch_provisioner_nrf52840_xxAA_s140_6.0.0.dir/__/__/__/mesh/bearer/src/advertiser.c.obj
 .text.broadcast_complete_cb
                0x000333f8       0x48 examples/light_switch/provisioner/CMakeFiles/light_switch_provisioner_nrf52840_xxAA_s140_6.0.0.dir/__/__/__/mesh/bearer/src/advertiser.c.obj
 .text.timeout_event
                0x00033440      0x120 examples/light_switch/provisioner/CMakeFiles/light_switch_provisioner_nrf52840_xxAA_s140_6.0.0.dir/__/__/__/mesh/bearer/src/advertiser.c.obj
 .text.advertiser_init
                0x00033560        0xc examples/light_switch/provisioner/CMakeFiles/light_switch_provisioner_nrf52840_xxAA_s140_6.0.0.dir/__/__/__/mesh/bearer/src/advertiser.c.obj
                0x00033560                advertiser_init
 .text.advertiser_instance_init
                0x0003356c       0xfc examples/light_switch/provisioner/CMakeFiles/light_switch_provisioner_nrf52840_xxAA_s140_6.0.0.dir/__/__/__/mesh/bearer/src/advertiser.c.obj
                0x0003356c                advertiser_instance_init
 .text.advertiser_enable
                0x00033668       0x44 examples/light_switch/provisioner/CMakeFiles/light_switch_provisioner_nrf52840_xxAA_s140_6.0.0.dir/__/__/__/mesh/bearer/src/advertiser.c.obj
                0x00033668                advertiser_enable
 .text.advertiser_packet_alloc
                0x000336ac       0x80 examples/light_switch/provisioner/CMakeFiles/light_switch_provisioner_nrf52840_xxAA_s140_6.0.0.dir/__/__/__/mesh/bearer/src/advertiser.c.obj
                0x000336ac                advertiser_packet_alloc
 .text.advertiser_packet_send
                0x0003372c       0x80 examples/light_switch/provisioner/CMakeFiles/light_switch_provisioner_nrf52840_xxAA_s140_6.0.0.dir/__/__/__/mesh/bearer/src/advertiser.c.obj
                0x0003372c                advertiser_packet_send
 .text.advertiser_packet_discard
                0x000337ac       0x2c examples/light_switch/provisioner/CMakeFiles/light_switch_provisioner_nrf52840_xxAA_s140_6.0.0.dir/__/__/__/mesh/bearer/src/advertiser.c.obj
                0x000337ac                advertiser_packet_discard
 .text.advertiser_interval_set
                0x000337d8       0x70 examples/light_switch/provisioner/CMakeFiles/light_switch_provisioner_nrf52840_xxAA_s140_6.0.0.dir/__/__/__/mesh/bearer/src/advertiser.c.obj
                0x000337d8                advertiser_interval_set
 .text.advertiser_flush
                0x00033848       0x20 examples/light_switch/provisioner/CMakeFiles/light_switch_provisioner_nrf52840_xxAA_s140_6.0.0.dir/__/__/__/mesh/bearer/src/advertiser.c.obj
                0x00033848                advertiser_flush
 .text.action_switch.part.2
                0x00033868       0xb4 examples/light_switch/provisioner/CMakeFiles/light_switch_provisioner_nrf52840_xxAA_s140_6.0.0.dir/__/__/__/mesh/bearer/src/bearer_handler.c.obj
 .text.bearer_handler_init
                0x0003391c       0x2c examples/light_switch/provisioner/CMakeFiles/light_switch_provisioner_nrf52840_xxAA_s140_6.0.0.dir/__/__/__/mesh/bearer/src/bearer_handler.c.obj
                0x0003391c                bearer_handler_init
 .text.bearer_handler_start
                0x00033948       0x1c examples/light_switch/provisioner/CMakeFiles/light_switch_provisioner_nrf52840_xxAA_s140_6.0.0.dir/__/__/__/mesh/bearer/src/bearer_handler.c.obj
                0x00033948                bearer_handler_start
 .text.bearer_handler_action_enqueue
                0x00033964       0x7c examples/light_switch/provisioner/CMakeFiles/light_switch_provisioner_nrf52840_xxAA_s140_6.0.0.dir/__/__/__/mesh/bearer/src/bearer_handler.c.obj
                0x00033964                bearer_handler_action_enqueue
 .text.bearer_handler_action_end
                0x000339e0       0x68 examples/light_switch/provisioner/CMakeFiles/light_switch_provisioner_nrf52840_xxAA_s140_6.0.0.dir/__/__/__/mesh/bearer/src/bearer_handler.c.obj
                0x000339e0                bearer_handler_action_end
 .text.bearer_handler_radio_irq_handler
                0x00033a48       0x54 examples/light_switch/provisioner/CMakeFiles/light_switch_provisioner_nrf52840_xxAA_s140_6.0.0.dir/__/__/__/mesh/bearer/src/bearer_handler.c.obj
                0x00033a48                bearer_handler_radio_irq_handler
 .text.bearer_handler_timer_irq_handler
                0x00033a9c       0x34 examples/light_switch/provisioner/CMakeFiles/light_switch_provisioner_nrf52840_xxAA_s140_6.0.0.dir/__/__/__/mesh/bearer/src/bearer_handler.c.obj
                0x00033a9c                bearer_handler_timer_irq_handler
 .text.bearer_handler_on_ts_begin
                0x00033ad0       0x3c examples/light_switch/provisioner/CMakeFiles/light_switch_provisioner_nrf52840_xxAA_s140_6.0.0.dir/__/__/__/mesh/bearer/src/bearer_handler.c.obj
                0x00033ad0                bearer_handler_on_ts_begin
 .text.bearer_handler_on_ts_end
                0x00033b0c       0x34 examples/light_switch/provisioner/CMakeFiles/light_switch_provisioner_nrf52840_xxAA_s140_6.0.0.dir/__/__/__/mesh/bearer/src/bearer_handler.c.obj
                0x00033b0c                bearer_handler_on_ts_end
 .text.radio_irq_handler
                0x00033b40       0x98 examples/light_switch/provisioner/CMakeFiles/light_switch_provisioner_nrf52840_xxAA_s140_6.0.0.dir/__/__/__/mesh/bearer/src/broadcast.c.obj
 .text.broadcast_start
                0x00033bd8       0x8c examples/light_switch/provisioner/CMakeFiles/light_switch_provisioner_nrf52840_xxAA_s140_6.0.0.dir/__/__/__/mesh/bearer/src/broadcast.c.obj
 .text.broadcast_send
                0x00033c64       0x74 examples/light_switch/provisioner/CMakeFiles/light_switch_provisioner_nrf52840_xxAA_s140_6.0.0.dir/__/__/__/mesh/bearer/src/broadcast.c.obj
                0x00033c64                broadcast_send
 .text.fen_filter_start
                0x00033cd8       0x38 examples/light_switch/provisioner/CMakeFiles/light_switch_provisioner_nrf52840_xxAA_s140_6.0.0.dir/__/__/__/mesh/bearer/src/filter_engine.c.obj
                0x00033cd8                fen_filter_start
 .text.fen_filter_stop
                0x00033d10       0x2c examples/light_switch/provisioner/CMakeFiles/light_switch_provisioner_nrf52840_xxAA_s140_6.0.0.dir/__/__/__/mesh/bearer/src/filter_engine.c.obj
                0x00033d10                fen_filter_stop
 .text.fen_filters_apply
                0x00033d3c       0x38 examples/light_switch/provisioner/CMakeFiles/light_switch_provisioner_nrf52840_xxAA_s140_6.0.0.dir/__/__/__/mesh/bearer/src/filter_engine.c.obj
                0x00033d3c                fen_filters_apply
 .text.radio_config_reset
                0x00033d74       0x38 examples/light_switch/provisioner/CMakeFiles/light_switch_provisioner_nrf52840_xxAA_s140_6.0.0.dir/__/__/__/mesh/bearer/src/radio_config.c.obj
                0x00033d74                radio_config_reset
 .text.radio_config_channel_set
                0x00033dac       0x28 examples/light_switch/provisioner/CMakeFiles/light_switch_provisioner_nrf52840_xxAA_s140_6.0.0.dir/__/__/__/mesh/bearer/src/radio_config.c.obj
                0x00033dac                radio_config_channel_set
 .text.radio_config_config
                0x00033dd4       0x90 examples/light_switch/provisioner/CMakeFiles/light_switch_provisioner_nrf52840_xxAA_s140_6.0.0.dir/__/__/__/mesh/bearer/src/radio_config.c.obj
                0x00033dd4                radio_config_config
 .text.radio_config_access_addr_set
                0x00033e64       0x54 examples/light_switch/provisioner/CMakeFiles/light_switch_provisioner_nrf52840_xxAA_s140_6.0.0.dir/__/__/__/mesh/bearer/src/radio_config.c.obj
                0x00033e64                radio_config_access_addr_set
 .text.scan_window_end
                0x00033eb8       0x28 examples/light_switch/provisioner/CMakeFiles/light_switch_provisioner_nrf52840_xxAA_s140_6.0.0.dir/__/__/__/mesh/bearer/src/scanner.c.obj
 .text.scan_window_start
                0x00033ee0       0x38 examples/light_switch/provisioner/CMakeFiles/light_switch_provisioner_nrf52840_xxAA_s140_6.0.0.dir/__/__/__/mesh/bearer/src/scanner.c.obj
 .text.radio_start
                0x00033f18      0x188 examples/light_switch/provisioner/CMakeFiles/light_switch_provisioner_nrf52840_xxAA_s140_6.0.0.dir/__/__/__/mesh/bearer/src/scanner.c.obj
 .text.scanner_radio_start
                0x000340a0      0x14c examples/light_switch/provisioner/CMakeFiles/light_switch_provisioner_nrf52840_xxAA_s140_6.0.0.dir/__/__/__/mesh/bearer/src/scanner.c.obj
                0x000340a0                scanner_radio_start
 .text.scanner_radio_stop
                0x000341ec       0x34 examples/light_switch/provisioner/CMakeFiles/light_switch_provisioner_nrf52840_xxAA_s140_6.0.0.dir/__/__/__/mesh/bearer/src/scanner.c.obj
                0x000341ec                scanner_radio_stop
 .text.scanner_radio_irq_handler
                0x00034220      0x204 examples/light_switch/provisioner/CMakeFiles/light_switch_provisioner_nrf52840_xxAA_s140_6.0.0.dir/__/__/__/mesh/bearer/src/scanner.c.obj
                0x00034220                scanner_radio_irq_handler
 .text.scanner_enable
                0x00034424       0x54 examples/light_switch/provisioner/CMakeFiles/light_switch_provisioner_nrf52840_xxAA_s140_6.0.0.dir/__/__/__/mesh/bearer/src/scanner.c.obj
                0x00034424                scanner_enable
 .text.scanner_rx
                0x00034478       0x78 examples/light_switch/provisioner/CMakeFiles/light_switch_provisioner_nrf52840_xxAA_s140_6.0.0.dir/__/__/__/mesh/bearer/src/scanner.c.obj
                0x00034478                scanner_rx
 .text.scanner_packet_release
                0x000344f0       0x40 examples/light_switch/provisioner/CMakeFiles/light_switch_provisioner_nrf52840_xxAA_s140_6.0.0.dir/__/__/__/mesh/bearer/src/scanner.c.obj
                0x000344f0                scanner_packet_release
 .text.scanner_rx_pending
                0x00034530        0xc examples/light_switch/provisioner/CMakeFiles/light_switch_provisioner_nrf52840_xxAA_s140_6.0.0.dir/__/__/__/mesh/bearer/src/scanner.c.obj
                0x00034530                scanner_rx_pending
 .text.scanner_config_reset
                0x0003453c       0xa8 examples/light_switch/provisioner/CMakeFiles/light_switch_provisioner_nrf52840_xxAA_s140_6.0.0.dir/__/__/__/mesh/bearer/src/scanner.c.obj
                0x0003453c                scanner_config_reset
 .text.scanner_init
                0x000345e4       0x54 examples/light_switch/provisioner/CMakeFiles/light_switch_provisioner_nrf52840_xxAA_s140_6.0.0.dir/__/__/__/mesh/bearer/src/scanner.c.obj
                0x000345e4                scanner_init
 .text.config_opcode_handler
                0x00034638      0x104 examples/light_switch/provisioner/CMakeFiles/light_switch_provisioner_nrf52840_xxAA_s140_6.0.0.dir/__/__/__/models/config/src/config_client.c.obj
 .text.reliable_status_cb
                0x0003473c       0x50 examples/light_switch/provisioner/CMakeFiles/light_switch_provisioner_nrf52840_xxAA_s140_6.0.0.dir/__/__/__/models/config/src/config_client.c.obj
 .text.config_client_init
                0x0003478c       0x50 examples/light_switch/provisioner/CMakeFiles/light_switch_provisioner_nrf52840_xxAA_s140_6.0.0.dir/__/__/__/models/config/src/config_client.c.obj
                0x0003478c                config_client_init
 .text.config_client_server_set
                0x000347dc       0x9c examples/light_switch/provisioner/CMakeFiles/light_switch_provisioner_nrf52840_xxAA_s140_6.0.0.dir/__/__/__/models/config/src/config_client.c.obj
                0x000347dc                config_client_server_set
 .text.config_client_server_bind
                0x00034878       0x34 examples/light_switch/provisioner/CMakeFiles/light_switch_provisioner_nrf52840_xxAA_s140_6.0.0.dir/__/__/__/models/config/src/config_client.c.obj
                0x00034878                config_client_server_bind
 .text.config_client_composition_data_get
                0x000348ac       0xb0 examples/light_switch/provisioner/CMakeFiles/light_switch_provisioner_nrf52840_xxAA_s140_6.0.0.dir/__/__/__/models/config/src/config_client.c.obj
                0x000348ac                config_client_composition_data_get
 .text.config_client_appkey_add
                0x0003495c       0xe4 examples/light_switch/provisioner/CMakeFiles/light_switch_provisioner_nrf52840_xxAA_s140_6.0.0.dir/__/__/__/models/config/src/config_client.c.obj
                0x0003495c                config_client_appkey_add
 .text.config_client_model_publication_set
                0x00034a40      0x1e8 examples/light_switch/provisioner/CMakeFiles/light_switch_provisioner_nrf52840_xxAA_s140_6.0.0.dir/__/__/__/models/config/src/config_client.c.obj
                0x00034a40                config_client_model_publication_set
 .text.config_client_model_subscription_add
                0x00034c28      0x198 examples/light_switch/provisioner/CMakeFiles/light_switch_provisioner_nrf52840_xxAA_s140_6.0.0.dir/__/__/__/models/config/src/config_client.c.obj
                0x00034c28                config_client_model_subscription_add
 .text.config_client_model_app_bind
                0x00034dc0       0xf4 examples/light_switch/provisioner/CMakeFiles/light_switch_provisioner_nrf52840_xxAA_s140_6.0.0.dir/__/__/__/models/config/src/config_client.c.obj
                0x00034dc0                config_client_model_app_bind
 .text.config_client_pending_msg_cancel
                0x00034eb4        0xc examples/light_switch/provisioner/CMakeFiles/light_switch_provisioner_nrf52840_xxAA_s140_6.0.0.dir/__/__/__/models/config/src/config_client.c.obj
                0x00034eb4                config_client_pending_msg_cancel
 .text.config_composition_data_get
                0x00034ec0      0x1d4 examples/light_switch/provisioner/CMakeFiles/light_switch_provisioner_nrf52840_xxAA_s140_6.0.0.dir/__/__/__/models/config/src/composition_data.c.obj
                0x00034ec0                config_composition_data_get
 .text.config_server_heartbeat_publication_count_decrement
                0x00035094       0x1c examples/light_switch/provisioner/CMakeFiles/light_switch_provisioner_nrf52840_xxAA_s140_6.0.0.dir/__/__/__/models/config/src/config_server.c.obj
 .text.config_server_heartbeat_publication_params_get
                0x000350b0       0x38 examples/light_switch/provisioner/CMakeFiles/light_switch_provisioner_nrf52840_xxAA_s140_6.0.0.dir/__/__/__/models/config/src/config_server.c.obj
 .text.handle_config_network_transmit_set
                0x000350e8      0x11c examples/light_switch/provisioner/CMakeFiles/light_switch_provisioner_nrf52840_xxAA_s140_6.0.0.dir/__/__/__/models/config/src/config_server.c.obj
 .text.handle_node_reset
                0x00035204       0x30 examples/light_switch/provisioner/CMakeFiles/light_switch_provisioner_nrf52840_xxAA_s140_6.0.0.dir/__/__/__/models/config/src/config_server.c.obj
 .text.handle_config_relay_set
                0x00035234      0x1b0 examples/light_switch/provisioner/CMakeFiles/light_switch_provisioner_nrf52840_xxAA_s140_6.0.0.dir/__/__/__/models/config/src/config_server.c.obj
 .text.handle_config_gatt_proxy_set
                0x000353e4       0x38 examples/light_switch/provisioner/CMakeFiles/light_switch_provisioner_nrf52840_xxAA_s140_6.0.0.dir/__/__/__/models/config/src/config_server.c.obj
 .text.handle_netkey_get
                0x0003541c       0x68 examples/light_switch/provisioner/CMakeFiles/light_switch_provisioner_nrf52840_xxAA_s140_6.0.0.dir/__/__/__/models/config/src/config_server.c.obj
 .text.handle_model_app_bind_unbind
                0x00035484      0x22c examples/light_switch/provisioner/CMakeFiles/light_switch_provisioner_nrf52840_xxAA_s140_6.0.0.dir/__/__/__/models/config/src/config_server.c.obj
 .text.status_error_sub_send
                0x000356b0      0x184 examples/light_switch/provisioner/CMakeFiles/light_switch_provisioner_nrf52840_xxAA_s140_6.0.0.dir/__/__/__/models/config/src/config_server.c.obj
 .text.handle_config_model_subscription_overwrite
                0x00035834      0x1ec examples/light_switch/provisioner/CMakeFiles/light_switch_provisioner_nrf52840_xxAA_s140_6.0.0.dir/__/__/__/models/config/src/config_server.c.obj
 .text.send_publication_status
                0x00035a20      0x1a4 examples/light_switch/provisioner/CMakeFiles/light_switch_provisioner_nrf52840_xxAA_s140_6.0.0.dir/__/__/__/models/config/src/config_server.c.obj
 .text.handle_config_key_refresh_phase_set
                0x00035bc4       0xf0 examples/light_switch/provisioner/CMakeFiles/light_switch_provisioner_nrf52840_xxAA_s140_6.0.0.dir/__/__/__/models/config/src/config_server.c.obj
 .text.handle_config_default_ttl_set
                0x00035cb4       0x70 examples/light_switch/provisioner/CMakeFiles/light_switch_provisioner_nrf52840_xxAA_s140_6.0.0.dir/__/__/__/models/config/src/config_server.c.obj
 .text.handle_heartbeat_publication_set
                0x00035d24      0x170 examples/light_switch/provisioner/CMakeFiles/light_switch_provisioner_nrf52840_xxAA_s140_6.0.0.dir/__/__/__/models/config/src/config_server.c.obj
 .text.mesh_event_cb
                0x00035e94       0x70 examples/light_switch/provisioner/CMakeFiles/light_switch_provisioner_nrf52840_xxAA_s140_6.0.0.dir/__/__/__/models/config/src/config_server.c.obj
 .text.handle_node_identity_set
                0x00035f04       0x48 examples/light_switch/provisioner/CMakeFiles/light_switch_provisioner_nrf52840_xxAA_s140_6.0.0.dir/__/__/__/models/config/src/config_server.c.obj
 .text.handle_node_identity_get
                0x00035f4c       0x44 examples/light_switch/provisioner/CMakeFiles/light_switch_provisioner_nrf52840_xxAA_s140_6.0.0.dir/__/__/__/models/config/src/config_server.c.obj
 .text.handle_config_friend_set
                0x00035f90       0x38 examples/light_switch/provisioner/CMakeFiles/light_switch_provisioner_nrf52840_xxAA_s140_6.0.0.dir/__/__/__/models/config/src/config_server.c.obj
 .text.status_error_pub_send
                0x00035fc8       0xc8 examples/light_switch/provisioner/CMakeFiles/light_switch_provisioner_nrf52840_xxAA_s140_6.0.0.dir/__/__/__/models/config/src/config_server.c.obj
 .text.handle_config_model_publication_get
                0x00036090       0xa0 examples/light_switch/provisioner/CMakeFiles/light_switch_provisioner_nrf52840_xxAA_s140_6.0.0.dir/__/__/__/models/config/src/config_server.c.obj
 .text.handle_config_model_publication_set
                0x00036130      0x324 examples/light_switch/provisioner/CMakeFiles/light_switch_provisioner_nrf52840_xxAA_s140_6.0.0.dir/__/__/__/models/config/src/config_server.c.obj
 .text.handle_config_key_refresh_phase_get
                0x00036454       0x70 examples/light_switch/provisioner/CMakeFiles/light_switch_provisioner_nrf52840_xxAA_s140_6.0.0.dir/__/__/__/models/config/src/config_server.c.obj
 .text.handle_config_default_ttl_get
                0x000364c4       0x48 examples/light_switch/provisioner/CMakeFiles/light_switch_provisioner_nrf52840_xxAA_s140_6.0.0.dir/__/__/__/models/config/src/config_server.c.obj
 .text.handle_config_beacon_set
                0x0003650c       0x80 examples/light_switch/provisioner/CMakeFiles/light_switch_provisioner_nrf52840_xxAA_s140_6.0.0.dir/__/__/__/models/config/src/config_server.c.obj
 .text.handle_composition_data_get
                0x0003658c       0x64 examples/light_switch/provisioner/CMakeFiles/light_switch_provisioner_nrf52840_xxAA_s140_6.0.0.dir/__/__/__/models/config/src/config_server.c.obj
 .text.handle_appkey_delete
                0x000365f0      0x124 examples/light_switch/provisioner/CMakeFiles/light_switch_provisioner_nrf52840_xxAA_s140_6.0.0.dir/__/__/__/models/config/src/config_server.c.obj
 .text.handle_model_app_get
                0x00036714      0x214 examples/light_switch/provisioner/CMakeFiles/light_switch_provisioner_nrf52840_xxAA_s140_6.0.0.dir/__/__/__/models/config/src/config_server.c.obj
 .text.handle_config_vendor_model_subscription_get
                0x00036928      0x18c examples/light_switch/provisioner/CMakeFiles/light_switch_provisioner_nrf52840_xxAA_s140_6.0.0.dir/__/__/__/models/config/src/config_server.c.obj
 .text.handle_appkey_get
                0x00036ab4      0x104 examples/light_switch/provisioner/CMakeFiles/light_switch_provisioner_nrf52840_xxAA_s140_6.0.0.dir/__/__/__/models/config/src/config_server.c.obj
 .text.handle_heartbeat_subscription_get
                0x00036bb8       0xd8 examples/light_switch/provisioner/CMakeFiles/light_switch_provisioner_nrf52840_xxAA_s140_6.0.0.dir/__/__/__/models/config/src/config_server.c.obj
 .text.handle_config_gatt_proxy_get
                0x00036c90       0x38 examples/light_switch/provisioner/CMakeFiles/light_switch_provisioner_nrf52840_xxAA_s140_6.0.0.dir/__/__/__/models/config/src/config_server.c.obj
 .text.handle_heartbeat_subscription_set
                0x00036cc8      0x110 examples/light_switch/provisioner/CMakeFiles/light_switch_provisioner_nrf52840_xxAA_s140_6.0.0.dir/__/__/__/models/config/src/config_server.c.obj
 .text.handle_config_friend_get
                0x00036dd8       0x38 examples/light_switch/provisioner/CMakeFiles/light_switch_provisioner_nrf52840_xxAA_s140_6.0.0.dir/__/__/__/models/config/src/config_server.c.obj
 .text.handle_heartbeat_publication_get
                0x00036e10       0xcc examples/light_switch/provisioner/CMakeFiles/light_switch_provisioner_nrf52840_xxAA_s140_6.0.0.dir/__/__/__/models/config/src/config_server.c.obj
 .text.handle_config_beacon_get
                0x00036edc       0x40 examples/light_switch/provisioner/CMakeFiles/light_switch_provisioner_nrf52840_xxAA_s140_6.0.0.dir/__/__/__/models/config/src/config_server.c.obj
 .text.handle_config_sig_model_subscription_get
                0x00036f1c      0x150 examples/light_switch/provisioner/CMakeFiles/light_switch_provisioner_nrf52840_xxAA_s140_6.0.0.dir/__/__/__/models/config/src/config_server.c.obj
 .text.handle_appkey_update
                0x0003706c      0x11c examples/light_switch/provisioner/CMakeFiles/light_switch_provisioner_nrf52840_xxAA_s140_6.0.0.dir/__/__/__/models/config/src/config_server.c.obj
 .text.handle_appkey_add
                0x00037188      0x12c examples/light_switch/provisioner/CMakeFiles/light_switch_provisioner_nrf52840_xxAA_s140_6.0.0.dir/__/__/__/models/config/src/config_server.c.obj
 .text.handle_netkey_add_update
                0x000372b4       0xe8 examples/light_switch/provisioner/CMakeFiles/light_switch_provisioner_nrf52840_xxAA_s140_6.0.0.dir/__/__/__/models/config/src/config_server.c.obj
 .text.handle_netkey_delete
                0x0003739c      0x11c examples/light_switch/provisioner/CMakeFiles/light_switch_provisioner_nrf52840_xxAA_s140_6.0.0.dir/__/__/__/models/config/src/config_server.c.obj
 .text.handle_config_network_transmit_get
                0x000374b8       0x9c examples/light_switch/provisioner/CMakeFiles/light_switch_provisioner_nrf52840_xxAA_s140_6.0.0.dir/__/__/__/models/config/src/config_server.c.obj
 .text.handle_config_relay_get
                0x00037554       0xd8 examples/light_switch/provisioner/CMakeFiles/light_switch_provisioner_nrf52840_xxAA_s140_6.0.0.dir/__/__/__/models/config/src/config_server.c.obj
 .text.handle_config_model_subscription_virtual_address_delete
                0x0003762c      0x17c examples/light_switch/provisioner/CMakeFiles/light_switch_provisioner_nrf52840_xxAA_s140_6.0.0.dir/__/__/__/models/config/src/config_server.c.obj
 .text.handle_config_model_subscription_delete_all
                0x000377a8      0x1a8 examples/light_switch/provisioner/CMakeFiles/light_switch_provisioner_nrf52840_xxAA_s140_6.0.0.dir/__/__/__/models/config/src/config_server.c.obj
 .text.handle_config_model_subscription_virtual_address_add
                0x00037950      0x178 examples/light_switch/provisioner/CMakeFiles/light_switch_provisioner_nrf52840_xxAA_s140_6.0.0.dir/__/__/__/models/config/src/config_server.c.obj
 .text.handle_config_model_subscription_delete
                0x00037ac8      0x170 examples/light_switch/provisioner/CMakeFiles/light_switch_provisioner_nrf52840_xxAA_s140_6.0.0.dir/__/__/__/models/config/src/config_server.c.obj
 .text.handle_config_model_subscription_virtual_address_overwrite
                0x00037c38      0x210 examples/light_switch/provisioner/CMakeFiles/light_switch_provisioner_nrf52840_xxAA_s140_6.0.0.dir/__/__/__/models/config/src/config_server.c.obj
 .text.handle_config_model_subscription_add
                0x00037e48      0x168 examples/light_switch/provisioner/CMakeFiles/light_switch_provisioner_nrf52840_xxAA_s140_6.0.0.dir/__/__/__/models/config/src/config_server.c.obj
 .text.config_server_init
                0x00037fb0       0x64 examples/light_switch/provisioner/CMakeFiles/light_switch_provisioner_nrf52840_xxAA_s140_6.0.0.dir/__/__/__/models/config/src/config_server.c.obj
                0x00037fb0                config_server_init
 .text.config_server_bind
                0x00038014       0x10 examples/light_switch/provisioner/CMakeFiles/light_switch_provisioner_nrf52840_xxAA_s140_6.0.0.dir/__/__/__/models/config/src/config_server.c.obj
                0x00038014                config_server_bind
 .text.packed_index_list_create
                0x00038024       0x38 examples/light_switch/provisioner/CMakeFiles/light_switch_provisioner_nrf52840_xxAA_s140_6.0.0.dir/__/__/__/models/config/src/packed_index_list.c.obj
                0x00038024                packed_index_list_create
 .text.attention_timer_handler
                0x0003805c       0x6c examples/light_switch/provisioner/CMakeFiles/light_switch_provisioner_nrf52840_xxAA_s140_6.0.0.dir/__/__/__/models/health/src/health_server.c.obj
 .text.handle_attention_get
                0x000380c8       0x3c examples/light_switch/provisioner/CMakeFiles/light_switch_provisioner_nrf52840_xxAA_s140_6.0.0.dir/__/__/__/models/health/src/health_server.c.obj
 .text.handle_period_get
                0x00038104       0x38 examples/light_switch/provisioner/CMakeFiles/light_switch_provisioner_nrf52840_xxAA_s140_6.0.0.dir/__/__/__/models/health/src/health_server.c.obj
 .text.handle_attention_set
                0x0003813c       0xd8 examples/light_switch/provisioner/CMakeFiles/light_switch_provisioner_nrf52840_xxAA_s140_6.0.0.dir/__/__/__/models/health/src/health_server.c.obj
 .text.handle_period_set
                0x00038214       0x50 examples/light_switch/provisioner/CMakeFiles/light_switch_provisioner_nrf52840_xxAA_s140_6.0.0.dir/__/__/__/models/health/src/health_server.c.obj
 .text.send_fault_status
                0x00038264      0x37c examples/light_switch/provisioner/CMakeFiles/light_switch_provisioner_nrf52840_xxAA_s140_6.0.0.dir/__/__/__/models/health/src/health_server.c.obj
 .text.health_publish_timeout_handler
                0x000385e0        0xc examples/light_switch/provisioner/CMakeFiles/light_switch_provisioner_nrf52840_xxAA_s140_6.0.0.dir/__/__/__/models/health/src/health_server.c.obj
 .text.handle_fault_test
                0x000385ec       0x7c examples/light_switch/provisioner/CMakeFiles/light_switch_provisioner_nrf52840_xxAA_s140_6.0.0.dir/__/__/__/models/health/src/health_server.c.obj
 .text.handle_fault_clear
                0x00038668       0x48 examples/light_switch/provisioner/CMakeFiles/light_switch_provisioner_nrf52840_xxAA_s140_6.0.0.dir/__/__/__/models/health/src/health_server.c.obj
 .text.handle_fault_get
                0x000386b0       0x34 examples/light_switch/provisioner/CMakeFiles/light_switch_provisioner_nrf52840_xxAA_s140_6.0.0.dir/__/__/__/models/health/src/health_server.c.obj
 .text.health_server_init
                0x000386e4       0x74 examples/light_switch/provisioner/CMakeFiles/light_switch_provisioner_nrf52840_xxAA_s140_6.0.0.dir/__/__/__/models/health/src/health_server.c.obj
                0x000386e4                health_server_init
 .text.handle_fault_status
                0x00038758       0x4c examples/light_switch/provisioner/CMakeFiles/light_switch_provisioner_nrf52840_xxAA_s140_6.0.0.dir/__/__/__/models/health/src/health_client.c.obj
 .text.handle_period_status
                0x000387a4       0x2c examples/light_switch/provisioner/CMakeFiles/light_switch_provisioner_nrf52840_xxAA_s140_6.0.0.dir/__/__/__/models/health/src/health_client.c.obj
 .text.handle_attention_status
                0x000387d0       0x2c examples/light_switch/provisioner/CMakeFiles/light_switch_provisioner_nrf52840_xxAA_s140_6.0.0.dir/__/__/__/models/health/src/health_client.c.obj
 .text.health_client_init
                0x000387fc       0x54 examples/light_switch/provisioner/CMakeFiles/light_switch_provisioner_nrf52840_xxAA_s140_6.0.0.dir/__/__/__/models/health/src/health_client.c.obj
                0x000387fc                health_client_init
 .text.schedule_publication_timer
                0x00038850      0x2c4 examples/light_switch/provisioner/CMakeFiles/light_switch_provisioner_nrf52840_xxAA_s140_6.0.0.dir/__/__/__/mesh/access/src/access_publish.c.obj
 .text.publish_timer_tick
                0x00038b14      0x134 examples/light_switch/provisioner/CMakeFiles/light_switch_provisioner_nrf52840_xxAA_s140_6.0.0.dir/__/__/__/mesh/access/src/access_publish.c.obj
 .text.access_publish_init
                0x00038c48       0x38 examples/light_switch/provisioner/CMakeFiles/light_switch_provisioner_nrf52840_xxAA_s140_6.0.0.dir/__/__/__/mesh/access/src/access_publish.c.obj
                0x00038c48                access_publish_init
 .text.access_publish_period_set
                0x00038c80      0x12c examples/light_switch/provisioner/CMakeFiles/light_switch_provisioner_nrf52840_xxAA_s140_6.0.0.dir/__/__/__/mesh/access/src/access_publish.c.obj
                0x00038c80                access_publish_period_set
 .text.access_publish_period_get
                0x00038dac       0x2c examples/light_switch/provisioner/CMakeFiles/light_switch_provisioner_nrf52840_xxAA_s140_6.0.0.dir/__/__/__/mesh/access/src/access_publish.c.obj
                0x00038dac                access_publish_period_get
 .text.flash_manager_mem_available
                0x00038dd8        0x4 examples/light_switch/provisioner/CMakeFiles/light_switch_provisioner_nrf52840_xxAA_s140_6.0.0.dir/__/__/__/mesh/access/src/access.c.obj
 .text.flash_invalidate_complete
                0x00038ddc        0x8 examples/light_switch/provisioner/CMakeFiles/light_switch_provisioner_nrf52840_xxAA_s140_6.0.0.dir/__/__/__/mesh/access/src/access.c.obj
 .text.access_flash_config_clear
                0x00038de4       0x28 examples/light_switch/provisioner/CMakeFiles/light_switch_provisioner_nrf52840_xxAA_s140_6.0.0.dir/__/__/__/mesh/access/src/access.c.obj
 .text.access_flash_config_store
                0x00038e0c      0x148 examples/light_switch/provisioner/CMakeFiles/light_switch_provisioner_nrf52840_xxAA_s140_6.0.0.dir/__/__/__/mesh/access/src/access.c.obj
                0x00038e0c                access_flash_config_store
 .text.handle_incoming
                0x00038f54      0x198 examples/light_switch/provisioner/CMakeFiles/light_switch_provisioner_nrf52840_xxAA_s140_6.0.0.dir/__/__/__/mesh/access/src/access.c.obj
 .text.mesh_evt_cb
                0x000390ec      0x164 examples/light_switch/provisioner/CMakeFiles/light_switch_provisioner_nrf52840_xxAA_s140_6.0.0.dir/__/__/__/mesh/access/src/access.c.obj
 .text.add_flash_manager
                0x00039250       0x58 examples/light_switch/provisioner/CMakeFiles/light_switch_provisioner_nrf52840_xxAA_s140_6.0.0.dir/__/__/__/mesh/access/src/access.c.obj
 .text.flash_write_complete
                0x000392a8       0x4c examples/light_switch/provisioner/CMakeFiles/light_switch_provisioner_nrf52840_xxAA_s140_6.0.0.dir/__/__/__/mesh/access/src/access.c.obj
 .text.flash_remove_complete
                0x000392f4       0xec examples/light_switch/provisioner/CMakeFiles/light_switch_provisioner_nrf52840_xxAA_s140_6.0.0.dir/__/__/__/mesh/access/src/access.c.obj
 .text.access_flash_config_load
                0x000393e0      0x318 examples/light_switch/provisioner/CMakeFiles/light_switch_provisioner_nrf52840_xxAA_s140_6.0.0.dir/__/__/__/mesh/access/src/access.c.obj
                0x000393e0                access_flash_config_load
 .text.access_clear
                0x000396f8       0x78 examples/light_switch/provisioner/CMakeFiles/light_switch_provisioner_nrf52840_xxAA_s140_6.0.0.dir/__/__/__/mesh/access/src/access.c.obj
                0x000396f8                access_clear
 .text.access_init
                0x00039770       0xc0 examples/light_switch/provisioner/CMakeFiles/light_switch_provisioner_nrf52840_xxAA_s140_6.0.0.dir/__/__/__/mesh/access/src/access.c.obj
                0x00039770                access_init
 .text.access_model_add
                0x00039830      0x28c examples/light_switch/provisioner/CMakeFiles/light_switch_provisioner_nrf52840_xxAA_s140_6.0.0.dir/__/__/__/mesh/access/src/access.c.obj
                0x00039830                access_model_add
 .text.access_model_publish
                0x00039abc      0x3c4 examples/light_switch/provisioner/CMakeFiles/light_switch_provisioner_nrf52840_xxAA_s140_6.0.0.dir/__/__/__/mesh/access/src/access.c.obj
                0x00039abc                access_model_publish
 .text.access_model_reply
                0x00039e80      0x3ec examples/light_switch/provisioner/CMakeFiles/light_switch_provisioner_nrf52840_xxAA_s140_6.0.0.dir/__/__/__/mesh/access/src/access.c.obj
                0x00039e80                access_model_reply
 .text.access_model_publish_address_set
                0x0003a26c       0x40 examples/light_switch/provisioner/CMakeFiles/light_switch_provisioner_nrf52840_xxAA_s140_6.0.0.dir/__/__/__/mesh/access/src/access.c.obj
                0x0003a26c                access_model_publish_address_set
 .text.access_model_publish_address_get
                0x0003a2ac       0x2c examples/light_switch/provisioner/CMakeFiles/light_switch_provisioner_nrf52840_xxAA_s140_6.0.0.dir/__/__/__/mesh/access/src/access.c.obj
                0x0003a2ac                access_model_publish_address_get
 .text.access_model_publish_retransmit_set
                0x0003a2d8       0x58 examples/light_switch/provisioner/CMakeFiles/light_switch_provisioner_nrf52840_xxAA_s140_6.0.0.dir/__/__/__/mesh/access/src/access.c.obj
                0x0003a2d8                access_model_publish_retransmit_set
 .text.access_model_publish_retransmit_get
                0x0003a330       0x2c examples/light_switch/provisioner/CMakeFiles/light_switch_provisioner_nrf52840_xxAA_s140_6.0.0.dir/__/__/__/mesh/access/src/access.c.obj
                0x0003a330                access_model_publish_retransmit_get
 .text.access_model_publish_period_set
                0x0003a35c       0x78 examples/light_switch/provisioner/CMakeFiles/light_switch_provisioner_nrf52840_xxAA_s140_6.0.0.dir/__/__/__/mesh/access/src/access.c.obj
                0x0003a35c                access_model_publish_period_set
 .text.access_model_publish_period_get
                0x0003a3d4       0x40 examples/light_switch/provisioner/CMakeFiles/light_switch_provisioner_nrf52840_xxAA_s140_6.0.0.dir/__/__/__/mesh/access/src/access.c.obj
                0x0003a3d4                access_model_publish_period_get
 .text.access_model_subscription_list_alloc
                0x0003a414       0x7c examples/light_switch/provisioner/CMakeFiles/light_switch_provisioner_nrf52840_xxAA_s140_6.0.0.dir/__/__/__/mesh/access/src/access.c.obj
                0x0003a414                access_model_subscription_list_alloc
 .text.access_model_subscription_add
                0x0003a490       0x6c examples/light_switch/provisioner/CMakeFiles/light_switch_provisioner_nrf52840_xxAA_s140_6.0.0.dir/__/__/__/mesh/access/src/access.c.obj
                0x0003a490                access_model_subscription_add
 .text.access_model_subscription_remove
                0x0003a4fc       0x6c examples/light_switch/provisioner/CMakeFiles/light_switch_provisioner_nrf52840_xxAA_s140_6.0.0.dir/__/__/__/mesh/access/src/access.c.obj
                0x0003a4fc                access_model_subscription_remove
 .text.access_model_subscriptions_get
                0x0003a568       0x8c examples/light_switch/provisioner/CMakeFiles/light_switch_provisioner_nrf52840_xxAA_s140_6.0.0.dir/__/__/__/mesh/access/src/access.c.obj
                0x0003a568                access_model_subscriptions_get
 .text.access_model_application_bind
                0x0003a5f4       0x60 examples/light_switch/provisioner/CMakeFiles/light_switch_provisioner_nrf52840_xxAA_s140_6.0.0.dir/__/__/__/mesh/access/src/access.c.obj
                0x0003a5f4                access_model_application_bind
 .text.access_model_application_unbind
                0x0003a654       0x60 examples/light_switch/provisioner/CMakeFiles/light_switch_provisioner_nrf52840_xxAA_s140_6.0.0.dir/__/__/__/mesh/access/src/access.c.obj
                0x0003a654                access_model_application_unbind
 .text.access_model_applications_get
                0x0003a6b4       0x4c examples/light_switch/provisioner/CMakeFiles/light_switch_provisioner_nrf52840_xxAA_s140_6.0.0.dir/__/__/__/mesh/access/src/access.c.obj
                0x0003a6b4                access_model_applications_get
 .text.access_model_publish_application_set
                0x0003a700       0x40 examples/light_switch/provisioner/CMakeFiles/light_switch_provisioner_nrf52840_xxAA_s140_6.0.0.dir/__/__/__/mesh/access/src/access.c.obj
                0x0003a700                access_model_publish_application_set
 .text.access_model_publish_application_get
                0x0003a740       0x2c examples/light_switch/provisioner/CMakeFiles/light_switch_provisioner_nrf52840_xxAA_s140_6.0.0.dir/__/__/__/mesh/access/src/access.c.obj
                0x0003a740                access_model_publish_application_get
 .text.access_default_ttl_set
                0x0003a76c       0x1c examples/light_switch/provisioner/CMakeFiles/light_switch_provisioner_nrf52840_xxAA_s140_6.0.0.dir/__/__/__/mesh/access/src/access.c.obj
                0x0003a76c                access_default_ttl_set
 .text.access_default_ttl_get
                0x0003a788        0xc examples/light_switch/provisioner/CMakeFiles/light_switch_provisioner_nrf52840_xxAA_s140_6.0.0.dir/__/__/__/mesh/access/src/access.c.obj
                0x0003a788                access_default_ttl_get
 .text.access_model_publish_ttl_set
                0x0003a794       0x44 examples/light_switch/provisioner/CMakeFiles/light_switch_provisioner_nrf52840_xxAA_s140_6.0.0.dir/__/__/__/mesh/access/src/access.c.obj
                0x0003a794                access_model_publish_ttl_set
 .text.access_model_publish_ttl_get
                0x0003a7d8       0x2c examples/light_switch/provisioner/CMakeFiles/light_switch_provisioner_nrf52840_xxAA_s140_6.0.0.dir/__/__/__/mesh/access/src/access.c.obj
                0x0003a7d8                access_model_publish_ttl_get
 .text.access_element_location_get
                0x0003a804       0x18 examples/light_switch/provisioner/CMakeFiles/light_switch_provisioner_nrf52840_xxAA_s140_6.0.0.dir/__/__/__/mesh/access/src/access.c.obj
                0x0003a804                access_element_location_get
 .text.access_element_sig_model_count_get
                0x0003a81c       0x18 examples/light_switch/provisioner/CMakeFiles/light_switch_provisioner_nrf52840_xxAA_s140_6.0.0.dir/__/__/__/mesh/access/src/access.c.obj
                0x0003a81c                access_element_sig_model_count_get
 .text.access_element_vendor_model_count_get
                0x0003a834       0x18 examples/light_switch/provisioner/CMakeFiles/light_switch_provisioner_nrf52840_xxAA_s140_6.0.0.dir/__/__/__/mesh/access/src/access.c.obj
                0x0003a834                access_element_vendor_model_count_get
 .text.access_model_id_get
                0x0003a84c       0x40 examples/light_switch/provisioner/CMakeFiles/light_switch_provisioner_nrf52840_xxAA_s140_6.0.0.dir/__/__/__/mesh/access/src/access.c.obj
                0x0003a84c                access_model_id_get
 .text.access_handle_get
                0x0003a88c       0x94 examples/light_switch/provisioner/CMakeFiles/light_switch_provisioner_nrf52840_xxAA_s140_6.0.0.dir/__/__/__/mesh/access/src/access.c.obj
                0x0003a88c                access_handle_get
 .text.access_element_models_get
                0x0003a920       0xa0 examples/light_switch/provisioner/CMakeFiles/light_switch_provisioner_nrf52840_xxAA_s140_6.0.0.dir/__/__/__/mesh/access/src/access.c.obj
                0x0003a920                access_element_models_get
 .text.access_model_p_args_get
                0x0003a9c0       0x2c examples/light_switch/provisioner/CMakeFiles/light_switch_provisioner_nrf52840_xxAA_s140_6.0.0.dir/__/__/__/mesh/access/src/access.c.obj
                0x0003a9c0                access_model_p_args_get
 .text.access_model_publication_stop
                0x0003a9ec       0x74 examples/light_switch/provisioner/CMakeFiles/light_switch_provisioner_nrf52840_xxAA_s140_6.0.0.dir/__/__/__/mesh/access/src/access.c.obj
                0x0003a9ec                access_model_publication_stop
 .text.access_model_publication_by_appkey_stop
                0x0003aa60      0x1c0 examples/light_switch/provisioner/CMakeFiles/light_switch_provisioner_nrf52840_xxAA_s140_6.0.0.dir/__/__/__/mesh/access/src/access.c.obj
                0x0003aa60                access_model_publication_by_appkey_stop
 .text.remove_and_reschedule
                0x0003ac20       0xf4 examples/light_switch/provisioner/CMakeFiles/light_switch_provisioner_nrf52840_xxAA_s140_6.0.0.dir/__/__/__/mesh/access/src/access_reliable.c.obj
 .text.reliable_timer_cb
                0x0003ad14      0x348 examples/light_switch/provisioner/CMakeFiles/light_switch_provisioner_nrf52840_xxAA_s140_6.0.0.dir/__/__/__/mesh/access/src/access_reliable.c.obj
 .text.access_reliable_message_rx_cb
                0x0003b05c       0x90 examples/light_switch/provisioner/CMakeFiles/light_switch_provisioner_nrf52840_xxAA_s140_6.0.0.dir/__/__/__/mesh/access/src/access_reliable.c.obj
                0x0003b05c                access_reliable_message_rx_cb
 .text.access_reliable_init
                0x0003b0ec       0x1c examples/light_switch/provisioner/CMakeFiles/light_switch_provisioner_nrf52840_xxAA_s140_6.0.0.dir/__/__/__/mesh/access/src/access_reliable.c.obj
                0x0003b0ec                access_reliable_init
 .text.access_reliable_cancel_all
                0x0003b108      0x12c examples/light_switch/provisioner/CMakeFiles/light_switch_provisioner_nrf52840_xxAA_s140_6.0.0.dir/__/__/__/mesh/access/src/access_reliable.c.obj
                0x0003b108                access_reliable_cancel_all
 .text.access_model_reliable_cancel
                0x0003b234       0x98 examples/light_switch/provisioner/CMakeFiles/light_switch_provisioner_nrf52840_xxAA_s140_6.0.0.dir/__/__/__/mesh/access/src/access_reliable.c.obj
                0x0003b234                access_model_reliable_cancel
 .text.access_model_reliable_publish
                0x0003b2cc      0x228 examples/light_switch/provisioner/CMakeFiles/light_switch_provisioner_nrf52840_xxAA_s140_6.0.0.dir/__/__/__/mesh/access/src/access_reliable.c.obj
                0x0003b2cc                access_model_reliable_publish
 .text.addr_nonvirtual_to_dsm_entry
                0x0003b4f4       0x48 examples/light_switch/provisioner/CMakeFiles/light_switch_provisioner_nrf52840_xxAA_s140_6.0.0.dir/__/__/__/mesh/access/src/device_state_manager.c.obj
 .text.addr_nonvirtual_to_flash_entry
                0x0003b53c       0x10 examples/light_switch/provisioner/CMakeFiles/light_switch_provisioner_nrf52840_xxAA_s140_6.0.0.dir/__/__/__/mesh/access/src/device_state_manager.c.obj
 .text.devkey_to_flash_entry
                0x0003b54c       0x28 examples/light_switch/provisioner/CMakeFiles/light_switch_provisioner_nrf52840_xxAA_s140_6.0.0.dir/__/__/__/mesh/access/src/device_state_manager.c.obj
 .text.addr_virtual_to_flash_entry
                0x0003b574       0x18 examples/light_switch/provisioner/CMakeFiles/light_switch_provisioner_nrf52840_xxAA_s140_6.0.0.dir/__/__/__/mesh/access/src/device_state_manager.c.obj
 .text.addr_unicast_to_dsm_entry
                0x0003b58c        0xc examples/light_switch/provisioner/CMakeFiles/light_switch_provisioner_nrf52840_xxAA_s140_6.0.0.dir/__/__/__/mesh/access/src/device_state_manager.c.obj
 .text.addr_unicast_to_flash_entry
                0x0003b598       0x10 examples/light_switch/provisioner/CMakeFiles/light_switch_provisioner_nrf52840_xxAA_s140_6.0.0.dir/__/__/__/mesh/access/src/device_state_manager.c.obj
 .text.flash_mem_listener_callback
                0x0003b5a8       0x1c examples/light_switch/provisioner/CMakeFiles/light_switch_provisioner_nrf52840_xxAA_s140_6.0.0.dir/__/__/__/mesh/access/src/device_state_manager.c.obj
 .text.appkey_to_flash_entry
                0x0003b5c4       0x54 examples/light_switch/provisioner/CMakeFiles/light_switch_provisioner_nrf52840_xxAA_s140_6.0.0.dir/__/__/__/mesh/access/src/device_state_manager.c.obj
 .text.subnet_to_flash_entry
                0x0003b618       0x60 examples/light_switch/provisioner/CMakeFiles/light_switch_provisioner_nrf52840_xxAA_s140_6.0.0.dir/__/__/__/mesh/access/src/device_state_manager.c.obj
 .text.reset_flash_area
                0x0003b678       0x28 examples/light_switch/provisioner/CMakeFiles/light_switch_provisioner_nrf52840_xxAA_s140_6.0.0.dir/__/__/__/mesh/access/src/device_state_manager.c.obj
 .text.flash_save
                0x0003b6a0       0xb0 examples/light_switch/provisioner/CMakeFiles/light_switch_provisioner_nrf52840_xxAA_s140_6.0.0.dir/__/__/__/mesh/access/src/device_state_manager.c.obj
 .text.build_flash_area
                0x0003b750       0x90 examples/light_switch/provisioner/CMakeFiles/light_switch_provisioner_nrf52840_xxAA_s140_6.0.0.dir/__/__/__/mesh/access/src/device_state_manager.c.obj
 .text.flash_invalidate_complete
                0x0003b7e0       0x54 examples/light_switch/provisioner/CMakeFiles/light_switch_provisioner_nrf52840_xxAA_s140_6.0.0.dir/__/__/__/mesh/access/src/device_state_manager.c.obj
 .text.flash_write_complete
                0x0003b834       0x50 examples/light_switch/provisioner/CMakeFiles/light_switch_provisioner_nrf52840_xxAA_s140_6.0.0.dir/__/__/__/mesh/access/src/device_state_manager.c.obj
 .text.devkey_to_dsm_entry
                0x0003b884       0x70 examples/light_switch/provisioner/CMakeFiles/light_switch_provisioner_nrf52840_xxAA_s140_6.0.0.dir/__/__/__/mesh/access/src/device_state_manager.c.obj
 .text.addr_virtual_to_dsm_entry
                0x0003b8f4       0x60 examples/light_switch/provisioner/CMakeFiles/light_switch_provisioner_nrf52840_xxAA_s140_6.0.0.dir/__/__/__/mesh/access/src/device_state_manager.c.obj
 .text.appkey_to_dsm_entry
                0x0003b954       0xf4 examples/light_switch/provisioner/CMakeFiles/light_switch_provisioner_nrf52840_xxAA_s140_6.0.0.dir/__/__/__/mesh/access/src/device_state_manager.c.obj
 .text.subnet_to_dsm_entry
                0x0003ba48      0x11c examples/light_switch/provisioner/CMakeFiles/light_switch_provisioner_nrf52840_xxAA_s140_6.0.0.dir/__/__/__/mesh/access/src/device_state_manager.c.obj
 .text.flash_remove_complete
                0x0003bb64       0x90 examples/light_switch/provisioner/CMakeFiles/light_switch_provisioner_nrf52840_xxAA_s140_6.0.0.dir/__/__/__/mesh/access/src/device_state_manager.c.obj
 .text.flash_update_all
                0x0003bbf4      0x17c examples/light_switch/provisioner/CMakeFiles/light_switch_provisioner_nrf52840_xxAA_s140_6.0.0.dir/__/__/__/mesh/access/src/device_state_manager.c.obj
 .text.address_delete_if_unused
                0x0003bd70       0xf0 examples/light_switch/provisioner/CMakeFiles/light_switch_provisioner_nrf52840_xxAA_s140_6.0.0.dir/__/__/__/mesh/access/src/device_state_manager.c.obj
 .text.mesh_evt_handler
                0x0003be60      0x144 examples/light_switch/provisioner/CMakeFiles/light_switch_provisioner_nrf52840_xxAA_s140_6.0.0.dir/__/__/__/mesh/access/src/device_state_manager.c.obj
 .text.dsm_flash_config_load
                0x0003bfa4      0x1c8 examples/light_switch/provisioner/CMakeFiles/light_switch_provisioner_nrf52840_xxAA_s140_6.0.0.dir/__/__/__/mesh/access/src/device_state_manager.c.obj
                0x0003bfa4                dsm_flash_config_load
 .text.dsm_flash_area_get
                0x0003c16c        0xc examples/light_switch/provisioner/CMakeFiles/light_switch_provisioner_nrf52840_xxAA_s140_6.0.0.dir/__/__/__/mesh/access/src/device_state_manager.c.obj
                0x0003c16c                dsm_flash_area_get
 .text.dsm_clear
                0x0003c178       0xd8 examples/light_switch/provisioner/CMakeFiles/light_switch_provisioner_nrf52840_xxAA_s140_6.0.0.dir/__/__/__/mesh/access/src/device_state_manager.c.obj
                0x0003c178                dsm_clear
 .text.dsm_init
                0x0003c250       0xb8 examples/light_switch/provisioner/CMakeFiles/light_switch_provisioner_nrf52840_xxAA_s140_6.0.0.dir/__/__/__/mesh/access/src/device_state_manager.c.obj
                0x0003c250                dsm_init
 .text.dsm_local_unicast_addresses_set
                0x0003c308       0x78 examples/light_switch/provisioner/CMakeFiles/light_switch_provisioner_nrf52840_xxAA_s140_6.0.0.dir/__/__/__/mesh/access/src/device_state_manager.c.obj
                0x0003c308                dsm_local_unicast_addresses_set
 .text.dsm_local_unicast_addresses_get
                0x0003c380       0x20 examples/light_switch/provisioner/CMakeFiles/light_switch_provisioner_nrf52840_xxAA_s140_6.0.0.dir/__/__/__/mesh/access/src/device_state_manager.c.obj
                0x0003c380                dsm_local_unicast_addresses_get
 .text.dsm_address_publish_add
                0x0003c3a0      0x140 examples/light_switch/provisioner/CMakeFiles/light_switch_provisioner_nrf52840_xxAA_s140_6.0.0.dir/__/__/__/mesh/access/src/device_state_manager.c.obj
                0x0003c3a0                dsm_address_publish_add
 .text.dsm_address_publish_add_handle
                0x0003c4e0       0x54 examples/light_switch/provisioner/CMakeFiles/light_switch_provisioner_nrf52840_xxAA_s140_6.0.0.dir/__/__/__/mesh/access/src/device_state_manager.c.obj
                0x0003c4e0                dsm_address_publish_add_handle
 .text.dsm_address_publish_virtual_add
                0x0003c534       0xc8 examples/light_switch/provisioner/CMakeFiles/light_switch_provisioner_nrf52840_xxAA_s140_6.0.0.dir/__/__/__/mesh/access/src/device_state_manager.c.obj
                0x0003c534                dsm_address_publish_virtual_add
 .text.dsm_address_publish_remove
                0x0003c5fc       0xc0 examples/light_switch/provisioner/CMakeFiles/light_switch_provisioner_nrf52840_xxAA_s140_6.0.0.dir/__/__/__/mesh/access/src/device_state_manager.c.obj
                0x0003c5fc                dsm_address_publish_remove
 .text.dsm_address_subscription_add
                0x0003c6bc      0x130 examples/light_switch/provisioner/CMakeFiles/light_switch_provisioner_nrf52840_xxAA_s140_6.0.0.dir/__/__/__/mesh/access/src/device_state_manager.c.obj
                0x0003c6bc                dsm_address_subscription_add
 .text.dsm_address_subscription_virtual_add
                0x0003c7ec       0xc8 examples/light_switch/provisioner/CMakeFiles/light_switch_provisioner_nrf52840_xxAA_s140_6.0.0.dir/__/__/__/mesh/access/src/device_state_manager.c.obj
                0x0003c7ec                dsm_address_subscription_virtual_add
 .text.dsm_address_subscription_add_handle
                0x0003c8b4       0x54 examples/light_switch/provisioner/CMakeFiles/light_switch_provisioner_nrf52840_xxAA_s140_6.0.0.dir/__/__/__/mesh/access/src/device_state_manager.c.obj
                0x0003c8b4                dsm_address_subscription_add_handle
 .text.dsm_address_subscription_get
                0x0003c908       0x58 examples/light_switch/provisioner/CMakeFiles/light_switch_provisioner_nrf52840_xxAA_s140_6.0.0.dir/__/__/__/mesh/access/src/device_state_manager.c.obj
                0x0003c908                dsm_address_subscription_get
 .text.dsm_address_subscription_remove
                0x0003c960       0x8c examples/light_switch/provisioner/CMakeFiles/light_switch_provisioner_nrf52840_xxAA_s140_6.0.0.dir/__/__/__/mesh/access/src/device_state_manager.c.obj
                0x0003c960                dsm_address_subscription_remove
 .text.dsm_address_get
                0x0003c9ec       0x74 examples/light_switch/provisioner/CMakeFiles/light_switch_provisioner_nrf52840_xxAA_s140_6.0.0.dir/__/__/__/mesh/access/src/device_state_manager.c.obj
                0x0003c9ec                dsm_address_get
 .text.dsm_address_handle_get
                0x0003ca60       0xa0 examples/light_switch/provisioner/CMakeFiles/light_switch_provisioner_nrf52840_xxAA_s140_6.0.0.dir/__/__/__/mesh/access/src/device_state_manager.c.obj
                0x0003ca60                dsm_address_handle_get
 .text.dsm_net_key_index_to_subnet_handle
                0x0003cb00       0x28 examples/light_switch/provisioner/CMakeFiles/light_switch_provisioner_nrf52840_xxAA_s140_6.0.0.dir/__/__/__/mesh/access/src/device_state_manager.c.obj
                0x0003cb00                dsm_net_key_index_to_subnet_handle
 .text.dsm_subnet_handle_get
                0x0003cb28       0x3c examples/light_switch/provisioner/CMakeFiles/light_switch_provisioner_nrf52840_xxAA_s140_6.0.0.dir/__/__/__/mesh/access/src/device_state_manager.c.obj
                0x0003cb28                dsm_subnet_handle_get
 .text.dsm_appkey_index_to_appkey_handle
                0x0003cb64       0x28 examples/light_switch/provisioner/CMakeFiles/light_switch_provisioner_nrf52840_xxAA_s140_6.0.0.dir/__/__/__/mesh/access/src/device_state_manager.c.obj
                0x0003cb64                dsm_appkey_index_to_appkey_handle
 .text.dsm_appkey_handle_get
                0x0003cb8c       0x3c examples/light_switch/provisioner/CMakeFiles/light_switch_provisioner_nrf52840_xxAA_s140_6.0.0.dir/__/__/__/mesh/access/src/device_state_manager.c.obj
                0x0003cb8c                dsm_appkey_handle_get
 .text.dsm_appkey_handle_to_appkey_index
                0x0003cbc8       0x24 examples/light_switch/provisioner/CMakeFiles/light_switch_provisioner_nrf52840_xxAA_s140_6.0.0.dir/__/__/__/mesh/access/src/device_state_manager.c.obj
                0x0003cbc8                dsm_appkey_handle_to_appkey_index
 .text.dsm_appkey_handle_to_subnet_handle
                0x0003cbec       0xb0 examples/light_switch/provisioner/CMakeFiles/light_switch_provisioner_nrf52840_xxAA_s140_6.0.0.dir/__/__/__/mesh/access/src/device_state_manager.c.obj
                0x0003cbec                dsm_appkey_handle_to_subnet_handle
 .text.dsm_subnet_add
                0x0003cc9c      0x154 examples/light_switch/provisioner/CMakeFiles/light_switch_provisioner_nrf52840_xxAA_s140_6.0.0.dir/__/__/__/mesh/access/src/device_state_manager.c.obj
                0x0003cc9c                dsm_subnet_add
 .text.dsm_subnet_kr_phase_get
                0x0003cdf0       0x20 examples/light_switch/provisioner/CMakeFiles/light_switch_provisioner_nrf52840_xxAA_s140_6.0.0.dir/__/__/__/mesh/access/src/device_state_manager.c.obj
                0x0003cdf0                dsm_subnet_kr_phase_get
 .text.dsm_subnet_update
                0x0003ce10       0xe8 examples/light_switch/provisioner/CMakeFiles/light_switch_provisioner_nrf52840_xxAA_s140_6.0.0.dir/__/__/__/mesh/access/src/device_state_manager.c.obj
                0x0003ce10                dsm_subnet_update
 .text.dsm_subnet_update_swap_keys
                0x0003cef8       0x98 examples/light_switch/provisioner/CMakeFiles/light_switch_provisioner_nrf52840_xxAA_s140_6.0.0.dir/__/__/__/mesh/access/src/device_state_manager.c.obj
                0x0003cef8                dsm_subnet_update_swap_keys
 .text.dsm_subnet_update_commit
                0x0003cf90      0x104 examples/light_switch/provisioner/CMakeFiles/light_switch_provisioner_nrf52840_xxAA_s140_6.0.0.dir/__/__/__/mesh/access/src/device_state_manager.c.obj
                0x0003cf90                dsm_subnet_update_commit
 .text.dsm_subnet_delete
                0x0003d094       0xe8 examples/light_switch/provisioner/CMakeFiles/light_switch_provisioner_nrf52840_xxAA_s140_6.0.0.dir/__/__/__/mesh/access/src/device_state_manager.c.obj
                0x0003d094                dsm_subnet_delete
 .text.dsm_subnet_get_all
                0x0003d17c       0x44 examples/light_switch/provisioner/CMakeFiles/light_switch_provisioner_nrf52840_xxAA_s140_6.0.0.dir/__/__/__/mesh/access/src/device_state_manager.c.obj
                0x0003d17c                dsm_subnet_get_all
 .text.dsm_devkey_add
                0x0003d1c0       0xf8 examples/light_switch/provisioner/CMakeFiles/light_switch_provisioner_nrf52840_xxAA_s140_6.0.0.dir/__/__/__/mesh/access/src/device_state_manager.c.obj
                0x0003d1c0                dsm_devkey_add
 .text.dsm_devkey_handle_get
                0x0003d2b8       0x50 examples/light_switch/provisioner/CMakeFiles/light_switch_provisioner_nrf52840_xxAA_s140_6.0.0.dir/__/__/__/mesh/access/src/device_state_manager.c.obj
                0x0003d2b8                dsm_devkey_handle_get
 .text.dsm_appkey_add
                0x0003d308      0x138 examples/light_switch/provisioner/CMakeFiles/light_switch_provisioner_nrf52840_xxAA_s140_6.0.0.dir/__/__/__/mesh/access/src/device_state_manager.c.obj
                0x0003d308                dsm_appkey_add
 .text.dsm_appkey_update
                0x0003d440       0xd4 examples/light_switch/provisioner/CMakeFiles/light_switch_provisioner_nrf52840_xxAA_s140_6.0.0.dir/__/__/__/mesh/access/src/device_state_manager.c.obj
                0x0003d440                dsm_appkey_update
 .text.dsm_appkey_delete
                0x0003d514       0x60 examples/light_switch/provisioner/CMakeFiles/light_switch_provisioner_nrf52840_xxAA_s140_6.0.0.dir/__/__/__/mesh/access/src/device_state_manager.c.obj
                0x0003d514                dsm_appkey_delete
 .text.dsm_appkey_get_all
                0x0003d574       0x54 examples/light_switch/provisioner/CMakeFiles/light_switch_provisioner_nrf52840_xxAA_s140_6.0.0.dir/__/__/__/mesh/access/src/device_state_manager.c.obj
                0x0003d574                dsm_appkey_get_all
 .text.dsm_tx_secmat_get
                0x0003d5c8       0xc0 examples/light_switch/provisioner/CMakeFiles/light_switch_provisioner_nrf52840_xxAA_s140_6.0.0.dir/__/__/__/mesh/access/src/device_state_manager.c.obj
                0x0003d5c8                dsm_tx_secmat_get
 .text.dsm_net_secmat_from_keyindex_get
                0x0003d688       0x44 examples/light_switch/provisioner/CMakeFiles/light_switch_provisioner_nrf52840_xxAA_s140_6.0.0.dir/__/__/__/mesh/access/src/device_state_manager.c.obj
                0x0003d688                dsm_net_secmat_from_keyindex_get
 .text.nrf_mesh_net_secmat_next_get
                0x0003d6cc       0x9c examples/light_switch/provisioner/CMakeFiles/light_switch_provisioner_nrf52840_xxAA_s140_6.0.0.dir/__/__/__/mesh/access/src/device_state_manager.c.obj
                0x0003d6cc                nrf_mesh_net_secmat_next_get
 .text.nrf_mesh_app_secmat_next_get
                0x0003d768       0x80 examples/light_switch/provisioner/CMakeFiles/light_switch_provisioner_nrf52840_xxAA_s140_6.0.0.dir/__/__/__/mesh/access/src/device_state_manager.c.obj
                0x0003d768                nrf_mesh_app_secmat_next_get
 .text.nrf_mesh_devkey_secmat_get
                0x0003d7e8       0x48 examples/light_switch/provisioner/CMakeFiles/light_switch_provisioner_nrf52840_xxAA_s140_6.0.0.dir/__/__/__/mesh/access/src/device_state_manager.c.obj
                0x0003d7e8                nrf_mesh_devkey_secmat_get
 .text.nrf_mesh_beacon_info_next_get
                0x0003d830       0xb0 examples/light_switch/provisioner/CMakeFiles/light_switch_provisioner_nrf52840_xxAA_s140_6.0.0.dir/__/__/__/mesh/access/src/device_state_manager.c.obj
                0x0003d830                nrf_mesh_beacon_info_next_get
 .text.nrf_mesh_rx_address_get
                0x0003d8e0      0x104 examples/light_switch/provisioner/CMakeFiles/light_switch_provisioner_nrf52840_xxAA_s140_6.0.0.dir/__/__/__/mesh/access/src/device_state_manager.c.obj
                0x0003d8e0                nrf_mesh_rx_address_get
 .text.nrf_mesh_unicast_address_get
                0x0003d9e4       0x24 examples/light_switch/provisioner/CMakeFiles/light_switch_provisioner_nrf52840_xxAA_s140_6.0.0.dir/__/__/__/mesh/access/src/device_state_manager.c.obj
                0x0003d9e4                nrf_mesh_unicast_address_get
 .text.prov_provisioner_cb_link_closed
                0x0003da08       0x2c examples/light_switch/provisioner/CMakeFiles/light_switch_provisioner_nrf52840_xxAA_s140_6.0.0.dir/__/__/__/mesh/prov/src/prov_provisioner.c.obj
 .text.prov_provisioner_cb_link_established
                0x0003da34       0x44 examples/light_switch/provisioner/CMakeFiles/light_switch_provisioner_nrf52840_xxAA_s140_6.0.0.dir/__/__/__/mesh/prov/src/prov_provisioner.c.obj
 .text.request_authentication
                0x0003da78       0xa8 examples/light_switch/provisioner/CMakeFiles/light_switch_provisioner_nrf52840_xxAA_s140_6.0.0.dir/__/__/__/mesh/prov/src/prov_provisioner.c.obj
 .text.prov_provisioner_cb_ack_received
                0x0003db20       0x90 examples/light_switch/provisioner/CMakeFiles/light_switch_provisioner_nrf52840_xxAA_s140_6.0.0.dir/__/__/__/mesh/prov/src/prov_provisioner.c.obj
 .text.prov_provisioner_pkt_in
                0x0003dbb0      0x294 examples/light_switch/provisioner/CMakeFiles/light_switch_provisioner_nrf52840_xxAA_s140_6.0.0.dir/__/__/__/mesh/prov/src/prov_provisioner.c.obj
 .text.prov_provisioner_provision
                0x0003de44       0x48 examples/light_switch/provisioner/CMakeFiles/light_switch_provisioner_nrf52840_xxAA_s140_6.0.0.dir/__/__/__/mesh/prov/src/prov_provisioner.c.obj
                0x0003de44                prov_provisioner_provision
 .text.prov_provisioner_oob_use
                0x0003de8c       0xbc examples/light_switch/provisioner/CMakeFiles/light_switch_provisioner_nrf52840_xxAA_s140_6.0.0.dir/__/__/__/mesh/prov/src/prov_provisioner.c.obj
                0x0003de8c                prov_provisioner_oob_use
 .text.prov_provisioner_auth_data
                0x0003df48       0xec examples/light_switch/provisioner/CMakeFiles/light_switch_provisioner_nrf52840_xxAA_s140_6.0.0.dir/__/__/__/mesh/prov/src/prov_provisioner.c.obj
                0x0003df48                prov_provisioner_auth_data
 .text.bearer_compare_callback
                0x0003e034       0x10 examples/light_switch/provisioner/CMakeFiles/light_switch_provisioner_nrf52840_xxAA_s140_6.0.0.dir/__/__/__/mesh/prov/src/nrf_mesh_prov.c.obj
 .text.nrf_mesh_prov_init
                0x0003e044       0x3c examples/light_switch/provisioner/CMakeFiles/light_switch_provisioner_nrf52840_xxAA_s140_6.0.0.dir/__/__/__/mesh/prov/src/nrf_mesh_prov.c.obj
                0x0003e044                nrf_mesh_prov_init
 .text.nrf_mesh_prov_bearer_add
                0x0003e080       0x2c examples/light_switch/provisioner/CMakeFiles/light_switch_provisioner_nrf52840_xxAA_s140_6.0.0.dir/__/__/__/mesh/prov/src/nrf_mesh_prov.c.obj
                0x0003e080                nrf_mesh_prov_bearer_add
 .text.nrf_mesh_prov_generate_keys
                0x0003e0ac        0x4 examples/light_switch/provisioner/CMakeFiles/light_switch_provisioner_nrf52840_xxAA_s140_6.0.0.dir/__/__/__/mesh/prov/src/nrf_mesh_prov.c.obj
                0x0003e0ac                nrf_mesh_prov_generate_keys
 .text.nrf_mesh_prov_provision
                0x0003e0b0       0x58 examples/light_switch/provisioner/CMakeFiles/light_switch_provisioner_nrf52840_xxAA_s140_6.0.0.dir/__/__/__/mesh/prov/src/nrf_mesh_prov.c.obj
                0x0003e0b0                nrf_mesh_prov_provision
 .text.nrf_mesh_prov_oob_use
                0x0003e108       0x18 examples/light_switch/provisioner/CMakeFiles/light_switch_provisioner_nrf52840_xxAA_s140_6.0.0.dir/__/__/__/mesh/prov/src/nrf_mesh_prov.c.obj
                0x0003e108                nrf_mesh_prov_oob_use
 .text.nrf_mesh_prov_auth_data_provide
                0x0003e120       0x10 examples/light_switch/provisioner/CMakeFiles/light_switch_provisioner_nrf52840_xxAA_s140_6.0.0.dir/__/__/__/mesh/prov/src/nrf_mesh_prov.c.obj
                0x0003e120                nrf_mesh_prov_auth_data_provide
 .text.nrf_mesh_prov_scan_start
                0x0003e130       0x10 examples/light_switch/provisioner/CMakeFiles/light_switch_provisioner_nrf52840_xxAA_s140_6.0.0.dir/__/__/__/mesh/prov/src/nrf_mesh_prov.c.obj
                0x0003e130                nrf_mesh_prov_scan_start
 .text.prov_packet_length_valid
                0x0003e140       0x20 examples/light_switch/provisioner/CMakeFiles/light_switch_provisioner_nrf52840_xxAA_s140_6.0.0.dir/__/__/__/mesh/prov/src/provisioning.c.obj
                0x0003e140                prov_packet_length_valid
 .text.prov_tx_invite
                0x0003e160       0x38 examples/light_switch/provisioner/CMakeFiles/light_switch_provisioner_nrf52840_xxAA_s140_6.0.0.dir/__/__/__/mesh/prov/src/provisioning.c.obj
                0x0003e160                prov_tx_invite
 .text.prov_tx_start
                0x0003e198       0x38 examples/light_switch/provisioner/CMakeFiles/light_switch_provisioner_nrf52840_xxAA_s140_6.0.0.dir/__/__/__/mesh/prov/src/provisioning.c.obj
                0x0003e198                prov_tx_start
 .text.prov_tx_public_key
                0x0003e1d0       0x30 examples/light_switch/provisioner/CMakeFiles/light_switch_provisioner_nrf52840_xxAA_s140_6.0.0.dir/__/__/__/mesh/prov/src/provisioning.c.obj
                0x0003e1d0                prov_tx_public_key
 .text.prov_tx_confirmation
                0x0003e200       0x30 examples/light_switch/provisioner/CMakeFiles/light_switch_provisioner_nrf52840_xxAA_s140_6.0.0.dir/__/__/__/mesh/prov/src/provisioning.c.obj
                0x0003e200                prov_tx_confirmation
 .text.prov_tx_random
                0x0003e230       0x30 examples/light_switch/provisioner/CMakeFiles/light_switch_provisioner_nrf52840_xxAA_s140_6.0.0.dir/__/__/__/mesh/prov/src/provisioning.c.obj
                0x0003e230                prov_tx_random
 .text.prov_tx_data
                0x0003e260       0x34 examples/light_switch/provisioner/CMakeFiles/light_switch_provisioner_nrf52840_xxAA_s140_6.0.0.dir/__/__/__/mesh/prov/src/provisioning.c.obj
                0x0003e260                prov_tx_data
 .text.prov_beacon_unprov_build
                0x0003e294       0x54 examples/light_switch/provisioner/CMakeFiles/light_switch_provisioner_nrf52840_xxAA_s140_6.0.0.dir/__/__/__/mesh/prov/src/prov_beacon.c.obj
                0x0003e294                prov_beacon_unprov_build
 .text.prov_beacon_unprov_packet_in
                0x0003e2e8       0xd4 examples/light_switch/provisioner/CMakeFiles/light_switch_provisioner_nrf52840_xxAA_s140_6.0.0.dir/__/__/__/mesh/prov/src/prov_beacon.c.obj
                0x0003e2e8                prov_beacon_unprov_packet_in
 .text.prov_beacon_scan_start
                0x0003e3bc       0x1c examples/light_switch/provisioner/CMakeFiles/light_switch_provisioner_nrf52840_xxAA_s140_6.0.0.dir/__/__/__/mesh/prov/src/prov_beacon.c.obj
                0x0003e3bc                prov_beacon_scan_start
 .text.prov_utils_opt_set
                0x0003e3d8       0x24 examples/light_switch/provisioner/CMakeFiles/light_switch_provisioner_nrf52840_xxAA_s140_6.0.0.dir/__/__/__/mesh/prov/src/prov_utils.c.obj
                0x0003e3d8                prov_utils_opt_set
 .text.prov_utils_opt_get
                0x0003e3fc       0x1c examples/light_switch/provisioner/CMakeFiles/light_switch_provisioner_nrf52840_xxAA_s140_6.0.0.dir/__/__/__/mesh/prov/src/prov_utils.c.obj
                0x0003e3fc                prov_utils_opt_get
 .text.prov_utils_use_ecdh_offloading
                0x0003e418        0xc examples/light_switch/provisioner/CMakeFiles/light_switch_provisioner_nrf52840_xxAA_s140_6.0.0.dir/__/__/__/mesh/prov/src/prov_utils.c.obj
                0x0003e418                prov_utils_use_ecdh_offloading
 .text.prov_utils_authentication_values_derive
                0x0003e424       0xa8 examples/light_switch/provisioner/CMakeFiles/light_switch_provisioner_nrf52840_xxAA_s140_6.0.0.dir/__/__/__/mesh/prov/src/prov_utils.c.obj
                0x0003e424                prov_utils_authentication_values_derive
 .text.prov_utils_keys_generate
                0x0003e4cc       0x20 examples/light_switch/provisioner/CMakeFiles/light_switch_provisioner_nrf52840_xxAA_s140_6.0.0.dir/__/__/__/mesh/prov/src/prov_utils.c.obj
                0x0003e4cc                prov_utils_keys_generate
 .text.prov_utils_derive_keys
                0x0003e4ec       0xb4 examples/light_switch/provisioner/CMakeFiles/light_switch_provisioner_nrf52840_xxAA_s140_6.0.0.dir/__/__/__/mesh/prov/src/prov_utils.c.obj
                0x0003e4ec                prov_utils_derive_keys
 .text.prov_utils_calculate_shared_secret
                0x0003e5a0       0x38 examples/light_switch/provisioner/CMakeFiles/light_switch_provisioner_nrf52840_xxAA_s140_6.0.0.dir/__/__/__/mesh/prov/src/prov_utils.c.obj
                0x0003e5a0                prov_utils_calculate_shared_secret
 .text.prov_utils_generate_oob_data
                0x0003e5d8      0x1b8 examples/light_switch/provisioner/CMakeFiles/light_switch_provisioner_nrf52840_xxAA_s140_6.0.0.dir/__/__/__/mesh/prov/src/prov_utils.c.obj
                0x0003e5d8                prov_utils_generate_oob_data
 .text.prov_utils_confirmation_check
                0x0003e790       0x5c examples/light_switch/provisioner/CMakeFiles/light_switch_provisioner_nrf52840_xxAA_s140_6.0.0.dir/__/__/__/mesh/prov/src/prov_utils.c.obj
                0x0003e790                prov_utils_confirmation_check
 .text.link_timeout_cb
                0x0003e7ec       0x10 examples/light_switch/provisioner/CMakeFiles/light_switch_provisioner_nrf52840_xxAA_s140_6.0.0.dir/__/__/__/mesh/prov/src/prov_bearer_adv.c.obj
 .text.prov_bearer_adv_listen_stop
                0x0003e7fc       0x8c examples/light_switch/provisioner/CMakeFiles/light_switch_provisioner_nrf52840_xxAA_s140_6.0.0.dir/__/__/__/mesh/prov/src/prov_bearer_adv.c.obj
 .text.tx_complete_cb
                0x0003e888       0x20 examples/light_switch/provisioner/CMakeFiles/light_switch_provisioner_nrf52840_xxAA_s140_6.0.0.dir/__/__/__/mesh/prov/src/prov_bearer_adv.c.obj
 .text.prov_bearer_adv_listen
                0x0003e8a8      0x160 examples/light_switch/provisioner/CMakeFiles/light_switch_provisioner_nrf52840_xxAA_s140_6.0.0.dir/__/__/__/mesh/prov/src/prov_bearer_adv.c.obj
 .text.prov_buffer_tx
                0x0003ea08      0x1d8 examples/light_switch/provisioner/CMakeFiles/light_switch_provisioner_nrf52840_xxAA_s140_6.0.0.dir/__/__/__/mesh/prov/src/prov_bearer_adv.c.obj
 .text.close_link
                0x0003ebe0       0xc0 examples/light_switch/provisioner/CMakeFiles/light_switch_provisioner_nrf52840_xxAA_s140_6.0.0.dir/__/__/__/mesh/prov/src/prov_bearer_adv.c.obj
 .text.async_process
                0x0003eca0       0x60 examples/light_switch/provisioner/CMakeFiles/light_switch_provisioner_nrf52840_xxAA_s140_6.0.0.dir/__/__/__/mesh/prov/src/prov_bearer_adv.c.obj
 .text.prov_bearer_adv_tx
                0x0003ed00       0xe4 examples/light_switch/provisioner/CMakeFiles/light_switch_provisioner_nrf52840_xxAA_s140_6.0.0.dir/__/__/__/mesh/prov/src/prov_bearer_adv.c.obj
 .text.send_link_ack
                0x0003ede4       0x80 examples/light_switch/provisioner/CMakeFiles/light_switch_provisioner_nrf52840_xxAA_s140_6.0.0.dir/__/__/__/mesh/prov/src/prov_bearer_adv.c.obj
 .text.tx_retry_cb
                0x0003ee64      0x13c examples/light_switch/provisioner/CMakeFiles/light_switch_provisioner_nrf52840_xxAA_s140_6.0.0.dir/__/__/__/mesh/prov/src/prov_bearer_adv.c.obj
 .text.send_transaction_ack
                0x0003efa0       0x68 examples/light_switch/provisioner/CMakeFiles/light_switch_provisioner_nrf52840_xxAA_s140_6.0.0.dir/__/__/__/mesh/prov/src/prov_bearer_adv.c.obj
 .text.prov_buffer_rx
                0x0003f008       0x9c examples/light_switch/provisioner/CMakeFiles/light_switch_provisioner_nrf52840_xxAA_s140_6.0.0.dir/__/__/__/mesh/prov/src/prov_bearer_adv.c.obj
 .text.prov_bearer_adv_link_open
                0x0003f0a4      0x1c0 examples/light_switch/provisioner/CMakeFiles/light_switch_provisioner_nrf52840_xxAA_s140_6.0.0.dir/__/__/__/mesh/prov/src/prov_bearer_adv.c.obj
 .text.prov_bearer_adv_link_close
                0x0003f264       0xd8 examples/light_switch/provisioner/CMakeFiles/light_switch_provisioner_nrf52840_xxAA_s140_6.0.0.dir/__/__/__/mesh/prov/src/prov_bearer_adv.c.obj
 .text.nrf_mesh_prov_bearer_adv_interface_get
                0x0003f33c       0x40 examples/light_switch/provisioner/CMakeFiles/light_switch_provisioner_nrf52840_xxAA_s140_6.0.0.dir/__/__/__/mesh/prov/src/prov_bearer_adv.c.obj
                0x0003f33c                nrf_mesh_prov_bearer_adv_interface_get
 .text.prov_bearer_adv_packet_in
                0x0003f37c      0x950 examples/light_switch/provisioner/CMakeFiles/light_switch_provisioner_nrf52840_xxAA_s140_6.0.0.dir/__/__/__/mesh/prov/src/prov_bearer_adv.c.obj
                0x0003f37c                prov_bearer_adv_packet_in
 .text.SystemInit
                0x0003fccc      0x1c4 examples/light_switch/provisioner/CMakeFiles/light_switch_provisioner_nrf52840_xxAA_s140_6.0.0.dir/C_/ver/mod/nRF5_SDK_15.0.0_a53641a/modules/nrfx/mdk/system_nrf52840.c.obj
                0x0003fccc                SystemInit
 .text          0x0003fe90       0x3c examples/light_switch/provisioner/CMakeFiles/light_switch_provisioner_nrf52840_xxAA_s140_6.0.0.dir/C_/ver/mod/nRF5_SDK_15.0.0_a53641a/modules/nrfx/mdk/gcc_startup_nrf52840.S.obj
                0x0003fe90                Reset_Handler
                0x0003feb8                NMI_Handler
                0x0003feba                HardFault_Handler
                0x0003febc                MemoryManagement_Handler
                0x0003febe                BusFault_Handler
                0x0003fec0                UsageFault_Handler
                0x0003fec2                SVC_Handler
                0x0003fec4                DebugMon_Handler
                0x0003fec6                PendSV_Handler
                0x0003fec8                SysTick_Handler
                0x0003feca                PDM_IRQHandler
                0x0003feca                TEMP_IRQHandler
                0x0003feca                TIMER3_IRQHandler
                0x0003feca                PWM3_IRQHandler
                0x0003feca                FPU_IRQHandler
                0x0003feca                USBD_IRQHandler
                0x0003feca                SPIM0_SPIS0_TWIM0_TWIS0_SPI0_TWI0_IRQHandler
                0x0003feca                RADIO_IRQHandler
                0x0003feca                UARTE0_UART0_IRQHandler
                0x0003feca                TIMER4_IRQHandler
                0x0003feca                CRYPTOCELL_IRQHandler
                0x0003feca                I2S_IRQHandler
                0x0003feca                SWI4_EGU4_IRQHandler
                0x0003feca                TIMER0_IRQHandler
                0x0003feca                RTC0_IRQHandler
                0x0003feca                UARTE1_IRQHandler
                0x0003feca                POWER_CLOCK_IRQHandler
                0x0003feca                SPIM3_IRQHandler
                0x0003feca                PWM2_IRQHandler
                0x0003feca                ECB_IRQHandler
                0x0003feca                SPIM1_SPIS1_TWIM1_TWIS1_SPI1_TWI1_IRQHandler
                0x0003feca                Default_Handler
                0x0003feca                SAADC_IRQHandler
                0x0003feca                CCM_AAR_IRQHandler
                0x0003feca                WDT_IRQHandler
                0x0003feca                SWI0_EGU0_IRQHandler
                0x0003feca                SWI5_EGU5_IRQHandler
                0x0003feca                RNG_IRQHandler
                0x0003feca                RTC2_IRQHandler
                0x0003feca                PWM0_IRQHandler
                0x0003feca                SWI3_EGU3_IRQHandler
                0x0003feca                RTC1_IRQHandler
                0x0003feca                SWI1_EGU1_IRQHandler
                0x0003feca                SPIM2_SPIS2_SPI2_IRQHandler
                0x0003feca                NFCT_IRQHandler
                0x0003feca                PWM1_IRQHandler
                0x0003feca                MWU_IRQHandler
                0x0003feca                TIMER1_IRQHandler
                0x0003feca                QSPI_IRQHandler
                0x0003feca                COMP_LPCOMP_IRQHandler
 .text.app_error_handler
                0x0003fecc       0x1c examples/light_switch/provisioner/CMakeFiles/light_switch_provisioner_nrf52840_xxAA_s140_6.0.0.dir/C_/ver/mod/nRF5_SDK_15.0.0_a53641a/components/libraries/util/app_error_handler_gcc.c.obj
                0x0003fecc                app_error_handler
 .text.SEGGER_RTT_Write
                0x0003fee8      0x1e4 external/rtt/librtt_nrf52840_xxAA.a(SEGGER_RTT.c.obj)
                0x0003fee8                SEGGER_RTT_Write
 .text.SEGGER_RTT_GetKey
                0x000400cc       0xec external/rtt/librtt_nrf52840_xxAA.a(SEGGER_RTT.c.obj)
                0x000400cc                SEGGER_RTT_GetKey
 .text._PrintUnsigned
                0x000401b8      0x194 external/rtt/librtt_nrf52840_xxAA.a(SEGGER_RTT_printf.c.obj)
 .text.SEGGER_RTT_vprintf
                0x0004034c      0x464 external/rtt/librtt_nrf52840_xxAA.a(SEGGER_RTT_printf.c.obj)
                0x0004034c                SEGGER_RTT_vprintf
 .text.SEGGER_RTT_printf
                0x000407b0       0x20 external/rtt/librtt_nrf52840_xxAA.a(SEGGER_RTT_printf.c.obj)
                0x000407b0                SEGGER_RTT_printf
 .text.default_RNG
                0x000407d0        0xc external/micro-ecc/libuECC_nrf52840_xxAA.a(uECC.c.obj)
 .text.uECC_generate_random_int
                0x000407dc      0x170 external/micro-ecc/libuECC_nrf52840_xxAA.a(uECC.c.obj)
 .text.apply_z  0x0004094c      0x1a8 external/micro-ecc/libuECC_nrf52840_xxAA.a(uECC.c.obj)
 .text.uECC_vli_modAdd
                0x00040af4       0xc8 external/micro-ecc/libuECC_nrf52840_xxAA.a(uECC.c.obj)
 .text.x_side_default
                0x00040bbc      0x254 external/micro-ecc/libuECC_nrf52840_xxAA.a(uECC.c.obj)
 .text.vli_mmod_fast_secp256r1
                0x00040e10      0x520 external/micro-ecc/libuECC_nrf52840_xxAA.a(uECC.c.obj)
 .text.XYcZ_add
                0x00041330      0x6dc external/micro-ecc/libuECC_nrf52840_xxAA.a(uECC.c.obj)
 .text.XYcZ_addC
                0x00041a0c      0xa94 external/micro-ecc/libuECC_nrf52840_xxAA.a(uECC.c.obj)
 .text.uECC_vli_modInv.part.4
                0x000424a0      0x6e8 external/micro-ecc/libuECC_nrf52840_xxAA.a(uECC.c.obj)
 .text.EccPoint_mult.constprop.5
                0x00042b88      0x470 external/micro-ecc/libuECC_nrf52840_xxAA.a(uECC.c.obj)
 .text.double_jacobian_default
                0x00042ff8      0x7ec external/micro-ecc/libuECC_nrf52840_xxAA.a(uECC.c.obj)
 .text.uECC_secp256r1
                0x000437e4        0x8 external/micro-ecc/libuECC_nrf52840_xxAA.a(uECC.c.obj)
                0x000437e4                uECC_secp256r1
 .text.uECC_make_key
                0x000437ec      0x23c external/micro-ecc/libuECC_nrf52840_xxAA.a(uECC.c.obj)
                0x000437ec                uECC_make_key
 .text.uECC_shared_secret
                0x00043a28      0x788 external/micro-ecc/libuECC_nrf52840_xxAA.a(uECC.c.obj)
                0x00043a28                uECC_shared_secret
 .text.uECC_valid_point
                0x000441b0      0x134 external/micro-ecc/libuECC_nrf52840_xxAA.a(uECC.c.obj)
                0x000441b0                uECC_valid_point
 .text.uECC_valid_public_key
                0x000442e4       0xe8 external/micro-ecc/libuECC_nrf52840_xxAA.a(uECC.c.obj)
                0x000442e4                uECC_valid_public_key
 .text          0x000443cc       0x30 c:/mesh/arm_gcc/bin/../lib/gcc/arm-none-eabi/6.3.1/thumb/v7e-m/fpv4-sp/hard\libgcc.a(_aeabi_uldivmod.o)
                0x000443cc                __aeabi_uldivmod
 .text          0x000443fc      0x2dc c:/mesh/arm_gcc/bin/../lib/gcc/arm-none-eabi/6.3.1/thumb/v7e-m/fpv4-sp/hard\libgcc.a(_udivmoddi4.o)
                0x000443fc                __udivmoddi4
 .text          0x000446d8        0x4 c:/mesh/arm_gcc/bin/../lib/gcc/arm-none-eabi/6.3.1/thumb/v7e-m/fpv4-sp/hard\libgcc.a(_dvmd_tls.o)
                0x000446d8                __aeabi_idiv0
                0x000446d8                __aeabi_ldiv0
 .text.exit     0x000446dc       0x28 c:/mesh/arm_gcc/bin/../lib/gcc/arm-none-eabi/6.3.1/../../../../arm-none-eabi/lib/thumb/v7e-m/fpv4-sp/hard\libc_nano.a(lib_a-exit.o)
                0x000446dc                exit
 .text.__libc_init_array
                0x00044704       0x48 c:/mesh/arm_gcc/bin/../lib/gcc/arm-none-eabi/6.3.1/../../../../arm-none-eabi/lib/thumb/v7e-m/fpv4-sp/hard\libc_nano.a(lib_a-init.o)
                0x00044704                __libc_init_array
 .text.malloc   0x0004474c       0x10 c:/mesh/arm_gcc/bin/../lib/gcc/arm-none-eabi/6.3.1/../../../../arm-none-eabi/lib/thumb/v7e-m/fpv4-sp/hard\libc_nano.a(lib_a-malloc.o)
                0x0004474c                malloc
 .text.free     0x0004475c       0x10 c:/mesh/arm_gcc/bin/../lib/gcc/arm-none-eabi/6.3.1/../../../../arm-none-eabi/lib/thumb/v7e-m/fpv4-sp/hard\libc_nano.a(lib_a-malloc.o)
                0x0004475c                free
 .text.memcmp   0x0004476c       0x1e c:/mesh/arm_gcc/bin/../lib/gcc/arm-none-eabi/6.3.1/../../../../arm-none-eabi/lib/thumb/v7e-m/fpv4-sp/hard\libc_nano.a(lib_a-memcmp.o)
                0x0004476c                memcmp
 .text.memcpy   0x0004478a       0x16 c:/mesh/arm_gcc/bin/../lib/gcc/arm-none-eabi/6.3.1/../../../../arm-none-eabi/lib/thumb/v7e-m/fpv4-sp/hard\libc_nano.a(lib_a-memcpy-stub.o)
                0x0004478a                memcpy
 .text.memset   0x000447a0       0x10 c:/mesh/arm_gcc/bin/../lib/gcc/arm-none-eabi/6.3.1/../../../../arm-none-eabi/lib/thumb/v7e-m/fpv4-sp/hard\libc_nano.a(lib_a-memset.o)
                0x000447a0                memset
 .text._free_r  0x000447b0       0x9c c:/mesh/arm_gcc/bin/../lib/gcc/arm-none-eabi/6.3.1/../../../../arm-none-eabi/lib/thumb/v7e-m/fpv4-sp/hard\libc_nano.a(lib_a-nano-freer.o)
                0x000447b0                _free_r
 .text._malloc_r
                0x0004484c       0xbc c:/mesh/arm_gcc/bin/../lib/gcc/arm-none-eabi/6.3.1/../../../../arm-none-eabi/lib/thumb/v7e-m/fpv4-sp/hard\libc_nano.a(lib_a-nano-mallocr.o)
                0x0004484c                _malloc_r
 .text._sbrk_r  0x00044908       0x20 c:/mesh/arm_gcc/bin/../lib/gcc/arm-none-eabi/6.3.1/../../../../arm-none-eabi/lib/thumb/v7e-m/fpv4-sp/hard\libc_nano.a(lib_a-sbrkr.o)
                0x00044908                _sbrk_r
 .text.strcpy   0x00044928       0x10 c:/mesh/arm_gcc/bin/../lib/gcc/arm-none-eabi/6.3.1/../../../../arm-none-eabi/lib/thumb/v7e-m/fpv4-sp/hard\libc_nano.a(lib_a-strcpy.o)
                0x00044928                strcpy
 .text          0x00044938       0x10 c:/mesh/arm_gcc/bin/../lib/gcc/arm-none-eabi/6.3.1/../../../../arm-none-eabi/lib/thumb/v7e-m/fpv4-sp/hard\libc_nano.a(lib_a-strlen.o)
                0x00044938                strlen
 .text.strrchr  0x00044948       0x26 c:/mesh/arm_gcc/bin/../lib/gcc/arm-none-eabi/6.3.1/../../../../arm-none-eabi/lib/thumb/v7e-m/fpv4-sp/hard\libc_nano.a(lib_a-strrchr.o)
                0x00044948                strrchr
 .text.__malloc_lock
                0x0004496e        0x2 c:/mesh/arm_gcc/bin/../lib/gcc/arm-none-eabi/6.3.1/../../../../arm-none-eabi/lib/thumb/v7e-m/fpv4-sp/hard\libc_nano.a(lib_a-mlock.o)
                0x0004496e                __malloc_lock
 .text.__malloc_unlock
                0x00044970        0x2 c:/mesh/arm_gcc/bin/../lib/gcc/arm-none-eabi/6.3.1/../../../../arm-none-eabi/lib/thumb/v7e-m/fpv4-sp/hard\libc_nano.a(lib_a-mlock.o)
                0x00044970                __malloc_unlock
 .text.strchr   0x00044972       0x1c c:/mesh/arm_gcc/bin/../lib/gcc/arm-none-eabi/6.3.1/../../../../arm-none-eabi/lib/thumb/v7e-m/fpv4-sp/hard\libc_nano.a(lib_a-strchr.o)
                0x00044972                strchr
 *fill*         0x0004498e        0x2 
 .text._sbrk    0x00044990       0x1c c:/mesh/arm_gcc/bin/../lib/gcc/arm-none-eabi/6.3.1/../../../../arm-none-eabi/lib/thumb/v7e-m/fpv4-sp/hard\libnosys.a(sbrk.o)
                0x00044990                _sbrk
 .text._exit    0x000449ac        0x4 c:/mesh/arm_gcc/bin/../lib/gcc/arm-none-eabi/6.3.1/../../../../arm-none-eabi/lib/thumb/v7e-m/fpv4-sp/hard\libnosys.a(_exit.o)
                0x000449ac                _exit
 *(.init)
 .init          0x000449b0        0x4 c:/mesh/arm_gcc/bin/../lib/gcc/arm-none-eabi/6.3.1/thumb/v7e-m/fpv4-sp/hard/crti.o
                0x000449b0                _init
 .init          0x000449b4        0x8 c:/mesh/arm_gcc/bin/../lib/gcc/arm-none-eabi/6.3.1/thumb/v7e-m/fpv4-sp/hard/crtn.o
 *(.fini)
 .fini          0x000449bc        0x4 c:/mesh/arm_gcc/bin/../lib/gcc/arm-none-eabi/6.3.1/thumb/v7e-m/fpv4-sp/hard/crti.o
                0x000449bc                _fini
 .fini          0x000449c0        0x8 c:/mesh/arm_gcc/bin/../lib/gcc/arm-none-eabi/6.3.1/thumb/v7e-m/fpv4-sp/hard/crtn.o
 *crtbegin.o(.ctors)
 *crtbegin?.o(.ctors)
 *(EXCLUDE_FILE(*crtend.o *crtend?.o) .ctors)
 *(SORT(.ctors.*))
 *(.ctors)
 *crtbegin.o(.dtors)
 *crtbegin?.o(.dtors)
 *(EXCLUDE_FILE(*crtend.o *crtend?.o) .dtors)
 *(SORT(.dtors.*))
 *(.dtors)
 *(.rodata*)
 .rodata        0x000449c8       0x18 examples/light_switch/provisioner/CMakeFiles/light_switch_provisioner_nrf52840_xxAA_s140_6.0.0.dir/src/main.c.obj
 .rodata.app_config_client_event_cb.str1.4
                0x000449e0       0x15 examples/light_switch/provisioner/CMakeFiles/light_switch_provisioner_nrf52840_xxAA_s140_6.0.0.dir/src/main.c.obj
 *fill*         0x000449f5        0x3 
 .rodata.app_config_failed_cb.str1.4
                0x000449f8       0x3d examples/light_switch/provisioner/CMakeFiles/light_switch_provisioner_nrf52840_xxAA_s140_6.0.0.dir/src/main.c.obj
 *fill*         0x00044a35        0x3 
 .rodata.app_config_server_event_cb.str1.4
                0x00044a38       0x19 examples/light_switch/provisioner/CMakeFiles/light_switch_provisioner_nrf52840_xxAA_s140_6.0.0.dir/src/main.c.obj
 *fill*         0x00044a51        0x3 
 .rodata.app_config_successful_cb.str1.4
                0x00044a54       0x41 examples/light_switch/provisioner/CMakeFiles/light_switch_provisioner_nrf52840_xxAA_s140_6.0.0.dir/src/main.c.obj
 *fill*         0x00044a95        0x3 
 .rodata.app_flash_manager_add.str1.4
                0x00044a98       0x2a examples/light_switch/provisioner/CMakeFiles/light_switch_provisioner_nrf52840_xxAA_s140_6.0.0.dir/src/main.c.obj
 *fill*         0x00044ac2        0x2 
 .rodata.app_health_event_cb.str1.4
                0x00044ac4       0x35 examples/light_switch/provisioner/CMakeFiles/light_switch_provisioner_nrf52840_xxAA_s140_6.0.0.dir/src/main.c.obj
 *fill*         0x00044af9        0x3 
 .rodata.app_mesh_core_event_cb.str1.4
                0x00044afc      0x107 examples/light_switch/provisioner/CMakeFiles/light_switch_provisioner_nrf52840_xxAA_s140_6.0.0.dir/src/main.c.obj
 *fill*         0x00044c03        0x1 
 .rodata.app_prov_failed_cb.str1.4
                0x00044c04       0x2f examples/light_switch/provisioner/CMakeFiles/light_switch_provisioner_nrf52840_xxAA_s140_6.0.0.dir/src/main.c.obj
 *fill*         0x00044c33        0x1 
 .rodata.app_prov_success_cb.str1.4
                0x00044c34       0x19 examples/light_switch/provisioner/CMakeFiles/light_switch_provisioner_nrf52840_xxAA_s140_6.0.0.dir/src/main.c.obj
 *fill*         0x00044c4d        0x3 
 .rodata.button_event_handler.str1.4
                0x00044c50      0x12b examples/light_switch/provisioner/CMakeFiles/light_switch_provisioner_nrf52840_xxAA_s140_6.0.0.dir/src/main.c.obj
 *fill*         0x00044d7b        0x1 
 .rodata.flash_invalidate_complete.str1.4
                0x00044d7c       0x30 examples/light_switch/provisioner/CMakeFiles/light_switch_provisioner_nrf52840_xxAA_s140_6.0.0.dir/src/main.c.obj
 .rodata.flash_remove_complete.str1.4
                0x00044dac       0x17 examples/light_switch/provisioner/CMakeFiles/light_switch_provisioner_nrf52840_xxAA_s140_6.0.0.dir/src/main.c.obj
 *fill*         0x00044dc3        0x1 
 .rodata.flash_write_complete.str1.4
                0x00044dc4       0x16 examples/light_switch/provisioner/CMakeFiles/light_switch_provisioner_nrf52840_xxAA_s140_6.0.0.dir/src/main.c.obj
 *fill*         0x00044dda        0x2 
 .rodata.m_client_node_uuid
                0x00044ddc       0x10 examples/light_switch/provisioner/CMakeFiles/light_switch_provisioner_nrf52840_xxAA_s140_6.0.0.dir/src/main.c.obj
 .rodata.m_server_uuid_filter
                0x00044dec        0x4 examples/light_switch/provisioner/CMakeFiles/light_switch_provisioner_nrf52840_xxAA_s140_6.0.0.dir/src/main.c.obj
 .rodata.main.str1.4
                0x00044df0       0x9e examples/light_switch/provisioner/CMakeFiles/light_switch_provisioner_nrf52840_xxAA_s140_6.0.0.dir/src/main.c.obj
 *fill*         0x00044e8e        0x2 
 .rodata.models_init_cb.str1.4
                0x00044e90       0x20 examples/light_switch/provisioner/CMakeFiles/light_switch_provisioner_nrf52840_xxAA_s140_6.0.0.dir/src/main.c.obj
 .rodata        0x00044eb0       0x20 examples/light_switch/provisioner/CMakeFiles/light_switch_provisioner_nrf52840_xxAA_s140_6.0.0.dir/src/provisioner_helper.c.obj
 .rodata.prov_evt_handler.str1.4
                0x00044ed0      0x2df examples/light_switch/provisioner/CMakeFiles/light_switch_provisioner_nrf52840_xxAA_s140_6.0.0.dir/src/provisioner_helper.c.obj
                                0x2e7 (size before relaxing)
 *fill*         0x000451af        0x1 
 .rodata.prov_helper_device_handles_load.str1.4
                0x000451b0       0x3f examples/light_switch/provisioner/CMakeFiles/light_switch_provisioner_nrf52840_xxAA_s140_6.0.0.dir/src/provisioner_helper.c.obj
 *fill*         0x000451ef        0x1 
 .rodata.prov_helper_provision_self.str1.4
                0x000451f0       0x13 examples/light_switch/provisioner/CMakeFiles/light_switch_provisioner_nrf52840_xxAA_s140_6.0.0.dir/src/provisioner_helper.c.obj
 *fill*         0x00045203        0x1 
 .rodata.prov_helper_scan_start.str1.4
                0x00045204       0x24 examples/light_switch/provisioner/CMakeFiles/light_switch_provisioner_nrf52840_xxAA_s140_6.0.0.dir/src/provisioner_helper.c.obj
 .rodata.client_config_steps
                0x00045228        0xd examples/light_switch/provisioner/CMakeFiles/light_switch_provisioner_nrf52840_xxAA_s140_6.0.0.dir/src/node_setup.c.obj
 *fill*         0x00045235        0x3 
 .rodata.client_pub_state_set.str1.4
                0x00045238       0x66 examples/light_switch/provisioner/CMakeFiles/light_switch_provisioner_nrf52840_xxAA_s140_6.0.0.dir/src/node_setup.c.obj
 *fill*         0x0004529e        0x2 
 .rodata.config_step_execute.str1.4
                0x000452a0      0x125 examples/light_switch/provisioner/CMakeFiles/light_switch_provisioner_nrf52840_xxAA_s140_6.0.0.dir/src/node_setup.c.obj
 *fill*         0x000453c5        0x3 
 .rodata.exp_status.11588
                0x000453c8        0x2 examples/light_switch/provisioner/CMakeFiles/light_switch_provisioner_nrf52840_xxAA_s140_6.0.0.dir/src/node_setup.c.obj
 *fill*         0x000453ca        0x2 
 .rodata.exp_status.11592
                0x000453cc        0x1 examples/light_switch/provisioner/CMakeFiles/light_switch_provisioner_nrf52840_xxAA_s140_6.0.0.dir/src/node_setup.c.obj
 *fill*         0x000453cd        0x3 
 .rodata.exp_status.11596
                0x000453d0        0x1 examples/light_switch/provisioner/CMakeFiles/light_switch_provisioner_nrf52840_xxAA_s140_6.0.0.dir/src/node_setup.c.obj
 *fill*         0x000453d1        0x3 
 .rodata.exp_status.11600
                0x000453d4        0x1 examples/light_switch/provisioner/CMakeFiles/light_switch_provisioner_nrf52840_xxAA_s140_6.0.0.dir/src/node_setup.c.obj
 *fill*         0x000453d5        0x3 
 .rodata.exp_status.11603
                0x000453d8        0x1 examples/light_switch/provisioner/CMakeFiles/light_switch_provisioner_nrf52840_xxAA_s140_6.0.0.dir/src/node_setup.c.obj
 *fill*         0x000453d9        0x3 
 .rodata.exp_status.11606
                0x000453dc        0x1 examples/light_switch/provisioner/CMakeFiles/light_switch_provisioner_nrf52840_xxAA_s140_6.0.0.dir/src/node_setup.c.obj
 *fill*         0x000453dd        0x3 
 .rodata.exp_status.11611
                0x000453e0        0x1 examples/light_switch/provisioner/CMakeFiles/light_switch_provisioner_nrf52840_xxAA_s140_6.0.0.dir/src/node_setup.c.obj
 *fill*         0x000453e1        0x3 
 .rodata.exp_status.11614
                0x000453e4        0x1 examples/light_switch/provisioner/CMakeFiles/light_switch_provisioner_nrf52840_xxAA_s140_6.0.0.dir/src/node_setup.c.obj
 *fill*         0x000453e5        0x3 
 .rodata.exp_status.11617
                0x000453e8        0x1 examples/light_switch/provisioner/CMakeFiles/light_switch_provisioner_nrf52840_xxAA_s140_6.0.0.dir/src/node_setup.c.obj
 *fill*         0x000453e9        0x3 
 .rodata.exp_status.11620
                0x000453ec        0x1 examples/light_switch/provisioner/CMakeFiles/light_switch_provisioner_nrf52840_xxAA_s140_6.0.0.dir/src/node_setup.c.obj
 *fill*         0x000453ed        0x3 
 .rodata.exp_status.11623
                0x000453f0        0x1 examples/light_switch/provisioner/CMakeFiles/light_switch_provisioner_nrf52840_xxAA_s140_6.0.0.dir/src/node_setup.c.obj
 .rodata.m_idle_step
                0x000453f1        0x1 examples/light_switch/provisioner/CMakeFiles/light_switch_provisioner_nrf52840_xxAA_s140_6.0.0.dir/src/node_setup.c.obj
 *fill*         0x000453f2        0x2 
 .rodata.node_setup_config_client_event_process.str1.4
                0x000453f4       0x9e examples/light_switch/provisioner/CMakeFiles/light_switch_provisioner_nrf52840_xxAA_s140_6.0.0.dir/src/node_setup.c.obj
 *fill*         0x00045492        0x2 
 .rodata.node_setup_start.str1.4
                0x00045494       0x86 examples/light_switch/provisioner/CMakeFiles/light_switch_provisioner_nrf52840_xxAA_s140_6.0.0.dir/src/node_setup.c.obj
 *fill*         0x0004551a        0x2 
 .rodata.retry_on_fail.str1.4
                0x0004551c       0x1b examples/light_switch/provisioner/CMakeFiles/light_switch_provisioner_nrf52840_xxAA_s140_6.0.0.dir/src/node_setup.c.obj
 *fill*         0x00045537        0x1 
 .rodata.server1_server2_config_steps
                0x00045538        0x8 examples/light_switch/provisioner/CMakeFiles/light_switch_provisioner_nrf52840_xxAA_s140_6.0.0.dir/src/node_setup.c.obj
 .rodata.server_config_steps
                0x00045540        0x7 examples/light_switch/provisioner/CMakeFiles/light_switch_provisioner_nrf52840_xxAA_s140_6.0.0.dir/src/node_setup.c.obj
 *fill*         0x00045547        0x1 
 .rodata.mesh_softdevice_init.str1.4
                0x00045548       0xa9 examples/light_switch/provisioner/CMakeFiles/light_switch_provisioner_nrf52840_xxAA_s140_6.0.0.dir/__/__/common/src/mesh_softdevice_init.c.obj
 *fill*         0x000455f1        0xf 
 .rodata.delay_bytecode.8707
                0x00045600        0x6 examples/light_switch/provisioner/CMakeFiles/light_switch_provisioner_nrf52840_xxAA_s140_6.0.0.dir/__/__/common/src/simple_hal.c.obj
 *fill*         0x00045606        0x2 
 .rodata.app_error_fault_handler.str1.4
                0x00045608       0xc5 examples/light_switch/provisioner/CMakeFiles/light_switch_provisioner_nrf52840_xxAA_s140_6.0.0.dir/__/__/common/src/app_error_weak.c.obj
 .rodata.mesh_assertion_handler.str1.4
                0x000456cd       0xc5 examples/light_switch/provisioner/CMakeFiles/light_switch_provisioner_nrf52840_xxAA_s140_6.0.0.dir/__/__/common/src/assertion_handler_weak.c.obj
                                  0x1 (size before relaxing)
 *fill*         0x000456cd        0x3 
 .rodata.sar_ctx_cancel.str1.4
                0x000456d0       0x23 examples/light_switch/provisioner/CMakeFiles/light_switch_provisioner_nrf52840_xxAA_s140_6.0.0.dir/__/__/__/mesh/core/src/transport.c.obj
 *fill*         0x000456f3        0x1 
 .rodata.transport_packet_in.str1.4
                0x000456f4       0x24 examples/light_switch/provisioner/CMakeFiles/light_switch_provisioner_nrf52840_xxAA_s140_6.0.0.dir/__/__/__/mesh/core/src/transport.c.obj
 .rodata.upper_transport_access_packet_in.str1.4
                0x00045718       0x3d examples/light_switch/provisioner/CMakeFiles/light_switch_provisioner_nrf52840_xxAA_s140_6.0.0.dir/__/__/__/mesh/core/src/transport.c.obj
 *fill*         0x00045755        0x3 
 .rodata.upper_transport_packet_in.str1.4
                0x00045758       0x2e examples/light_switch/provisioner/CMakeFiles/light_switch_provisioner_nrf52840_xxAA_s140_6.0.0.dir/__/__/__/mesh/core/src/transport.c.obj
 *fill*         0x00045786        0x2 
 .rodata.upper_transport_tx.part.25.str1.4
                0x00045788       0x2e examples/light_switch/provisioner/CMakeFiles/light_switch_provisioner_nrf52840_xxAA_s140_6.0.0.dir/__/__/__/mesh/core/src/transport.c.obj
                                 0x38 (size before relaxing)
 *fill*         0x000457b6        0x2 
 .rodata.m_procedure_steps
                0x000457b8       0x28 examples/light_switch/provisioner/CMakeFiles/light_switch_provisioner_nrf52840_xxAA_s140_6.0.0.dir/__/__/__/mesh/core/src/flash_manager_defrag.c.obj
 .rodata.m_all_operations
                0x000457e0       0x10 examples/light_switch/provisioner/CMakeFiles/light_switch_provisioner_nrf52840_xxAA_s140_6.0.0.dir/__/__/__/mesh/core/src/mesh_flash.c.obj
 .rodata.types_lookup.9352
                0x000457f0        0x4 examples/light_switch/provisioner/CMakeFiles/light_switch_provisioner_nrf52840_xxAA_s140_6.0.0.dir/__/__/__/mesh/core/src/nrf_mesh_utils.c.obj
 .rodata.__func__.11824
                0x000457f4       0x15 examples/light_switch/provisioner/CMakeFiles/light_switch_provisioner_nrf52840_xxAA_s140_6.0.0.dir/__/__/__/mesh/core/src/nrf_mesh.c.obj
 *fill*         0x00045809        0x3 
 .rodata.nrf_mesh_listen.str1.4
                0x0004580c       0x73 examples/light_switch/provisioner/CMakeFiles/light_switch_provisioner_nrf52840_xxAA_s140_6.0.0.dir/__/__/__/mesh/core/src/nrf_mesh.c.obj
 .rodata.nrf_mesh_packet_send.str1.4
                0x0004587f       0x73 examples/light_switch/provisioner/CMakeFiles/light_switch_provisioner_nrf52840_xxAA_s140_6.0.0.dir/__/__/__/mesh/core/src/nrf_mesh.c.obj
                                  0x4 (size before relaxing)
 *fill*         0x0004587f        0x1 
 .rodata.CSWTCH.7
                0x00045880       0x20 examples/light_switch/provisioner/CMakeFiles/light_switch_provisioner_nrf52840_xxAA_s140_6.0.0.dir/__/__/__/mesh/core/src/hal.c.obj
 .rodata        0x000458a0       0x18 examples/light_switch/provisioner/CMakeFiles/light_switch_provisioner_nrf52840_xxAA_s140_6.0.0.dir/__/__/__/mesh/core/src/enc.c.obj
 .rodata.network_packet_in.str1.4
                0x000458b8       0x49 examples/light_switch/provisioner/CMakeFiles/light_switch_provisioner_nrf52840_xxAA_s140_6.0.0.dir/__/__/__/mesh/core/src/network.c.obj
 *fill*         0x00045901        0x3 
 .rodata.net_packet_decrypt.str1.4
                0x00045904       0x33 examples/light_switch/provisioner/CMakeFiles/light_switch_provisioner_nrf52840_xxAA_s140_6.0.0.dir/__/__/__/mesh/core/src/net_packet.c.obj
                                 0x3c (size before relaxing)
 *fill*         0x00045937        0x1 
 .rodata        0x00045938        0x7 examples/light_switch/provisioner/CMakeFiles/light_switch_provisioner_nrf52840_xxAA_s140_6.0.0.dir/__/__/__/mesh/core/src/nrf_mesh_keygen.c.obj
 *fill*         0x0004593f        0x1 
 .rodata.log_callback_rtt.str1.4
                0x00045940       0x15 examples/light_switch/provisioner/CMakeFiles/light_switch_provisioner_nrf52840_xxAA_s140_6.0.0.dir/__/__/__/mesh/core/src/log.c.obj
 *fill*         0x00045955        0x3 
 .rodata.str1.4
                0x00045958       0x11 examples/light_switch/provisioner/CMakeFiles/light_switch_provisioner_nrf52840_xxAA_s140_6.0.0.dir/__/__/__/mesh/core/src/log.c.obj
 *fill*         0x00045969        0x3 
 .rodata.INVALID_HEADER
                0x0004596c        0x4 examples/light_switch/provisioner/CMakeFiles/light_switch_provisioner_nrf52840_xxAA_s140_6.0.0.dir/__/__/__/mesh/core/src/flash_manager.c.obj
                0x0004596c                INVALID_HEADER
 .rodata.PADDING_HEADER
                0x00045970        0x4 examples/light_switch/provisioner/CMakeFiles/light_switch_provisioner_nrf52840_xxAA_s140_6.0.0.dir/__/__/__/mesh/core/src/flash_manager.c.obj
                0x00045970                PADDING_HEADER
 .rodata.SEAL_HEADER
                0x00045974        0x4 examples/light_switch/provisioner/CMakeFiles/light_switch_provisioner_nrf52840_xxAA_s140_6.0.0.dir/__/__/__/mesh/core/src/flash_manager.c.obj
                0x00045974                SEAL_HEADER
 .rodata.beacon_packet_in.str1.4
                0x00045978       0x55 examples/light_switch/provisioner/CMakeFiles/light_switch_provisioner_nrf52840_xxAA_s140_6.0.0.dir/__/__/__/mesh/core/src/beacon.c.obj
                                 0x60 (size before relaxing)
 *fill*         0x000459cd        0x3 
 .rodata.cp_handler
                0x000459d0        0x8 examples/light_switch/provisioner/CMakeFiles/light_switch_provisioner_nrf52840_xxAA_s140_6.0.0.dir/__/__/__/mesh/core/src/heartbeat.c.obj
 .rodata.beacon_tx.str1.4
                0x000459d8       0x37 examples/light_switch/provisioner/CMakeFiles/light_switch_provisioner_nrf52840_xxAA_s140_6.0.0.dir/__/__/__/mesh/core/src/net_beacon.c.obj
 *fill*         0x00045a0f        0x1 
 .rodata.net_beacon_init.str1.4
                0x00045a10        0x5 examples/light_switch/provisioner/CMakeFiles/light_switch_provisioner_nrf52840_xxAA_s140_6.0.0.dir/__/__/__/mesh/core/src/net_beacon.c.obj
 *fill*         0x00045a15        0x3 
 .rodata.m_interface
                0x00045a18        0xc examples/light_switch/provisioner/CMakeFiles/light_switch_provisioner_nrf52840_xxAA_s140_6.0.0.dir/__/__/__/mesh/core/src/core_tx_adv.c.obj
 .rodata.radio_mode_to_us_per_byte.9745
                0x00045a24        0x6 examples/light_switch/provisioner/CMakeFiles/light_switch_provisioner_nrf52840_xxAA_s140_6.0.0.dir/__/__/__/mesh/bearer/src/broadcast.c.obj
 *fill*         0x00045a2a        0x2 
 .rodata.channel_rf_offsets.8986
                0x00045a2c       0x28 examples/light_switch/provisioner/CMakeFiles/light_switch_provisioner_nrf52840_xxAA_s140_6.0.0.dir/__/__/__/mesh/bearer/src/radio_config.c.obj
 .rodata.m_config_message_lut
                0x00045a54       0x5a examples/light_switch/provisioner/CMakeFiles/light_switch_provisioner_nrf52840_xxAA_s140_6.0.0.dir/__/__/__/models/config/src/config_client.c.obj
 *fill*         0x00045aae        0x2 
 .rodata.m_opcode_handlers
                0x00045ab0       0x78 examples/light_switch/provisioner/CMakeFiles/light_switch_provisioner_nrf52840_xxAA_s140_6.0.0.dir/__/__/__/models/config/src/config_client.c.obj
 .rodata        0x00045b28        0x8 examples/light_switch/provisioner/CMakeFiles/light_switch_provisioner_nrf52840_xxAA_s140_6.0.0.dir/__/__/__/models/config/src/config_server.c.obj
 .rodata.CSWTCH.122
                0x00045b30       0x10 examples/light_switch/provisioner/CMakeFiles/light_switch_provisioner_nrf52840_xxAA_s140_6.0.0.dir/__/__/__/models/config/src/config_server.c.obj
 .rodata.opcode_handlers
                0x00045b40      0x170 examples/light_switch/provisioner/CMakeFiles/light_switch_provisioner_nrf52840_xxAA_s140_6.0.0.dir/__/__/__/models/config/src/config_server.c.obj
 .rodata.m_opcode_handlers
                0x00045cb0       0x58 examples/light_switch/provisioner/CMakeFiles/light_switch_provisioner_nrf52840_xxAA_s140_6.0.0.dir/__/__/__/models/health/src/health_server.c.obj
 .rodata.multiply_de_bruijn_bit_position.9597
                0x00045d08       0x20 examples/light_switch/provisioner/CMakeFiles/light_switch_provisioner_nrf52840_xxAA_s140_6.0.0.dir/__/__/__/models/health/src/health_server.c.obj
 .rodata.m_opcode_handlers
                0x00045d28       0x20 examples/light_switch/provisioner/CMakeFiles/light_switch_provisioner_nrf52840_xxAA_s140_6.0.0.dir/__/__/__/models/health/src/health_client.c.obj
 .rodata.access_model_publish.str1.4
                0x00045d48       0x1c examples/light_switch/provisioner/CMakeFiles/light_switch_provisioner_nrf52840_xxAA_s140_6.0.0.dir/__/__/__/mesh/access/src/access.c.obj
                                 0x24 (size before relaxing)
 .rodata.mesh_evt_cb.str1.4
                0x00045d64       0x2f examples/light_switch/provisioner/CMakeFiles/light_switch_provisioner_nrf52840_xxAA_s140_6.0.0.dir/__/__/__/mesh/access/src/access.c.obj
 *fill*         0x00045d93        0x1 
 .rodata.multiply_de_bruijn_bit_position.9553
                0x00045d94       0x20 examples/light_switch/provisioner/CMakeFiles/light_switch_provisioner_nrf52840_xxAA_s140_6.0.0.dir/__/__/__/mesh/access/src/access.c.obj
 .rodata.m_flash_groups
                0x00045db4       0xa8 examples/light_switch/provisioner/CMakeFiles/light_switch_provisioner_nrf52840_xxAA_s140_6.0.0.dir/__/__/__/mesh/access/src/device_state_manager.c.obj
 .rodata.multiply_de_bruijn_bit_position.9659
                0x00045e5c       0x20 examples/light_switch/provisioner/CMakeFiles/light_switch_provisioner_nrf52840_xxAA_s140_6.0.0.dir/__/__/__/mesh/access/src/device_state_manager.c.obj
 .rodata.m_prov_callbacks
                0x00045e7c       0x10 examples/light_switch/provisioner/CMakeFiles/light_switch_provisioner_nrf52840_xxAA_s140_6.0.0.dir/__/__/__/mesh/prov/src/prov_provisioner.c.obj
 .rodata.pdu_sizes.11531
                0x00045e8c        0xa examples/light_switch/provisioner/CMakeFiles/light_switch_provisioner_nrf52840_xxAA_s140_6.0.0.dir/__/__/__/mesh/prov/src/provisioning.c.obj
 *fill*         0x00045e96        0x2 
 .rodata.alphanumeric.11636
                0x00045e98       0x25 examples/light_switch/provisioner/CMakeFiles/light_switch_provisioner_nrf52840_xxAA_s140_6.0.0.dir/__/__/__/mesh/prov/src/prov_utils.c.obj
 *fill*         0x00045ebd        0x3 
 .rodata.numeric_max.11630
                0x00045ec0       0x24 examples/light_switch/provisioner/CMakeFiles/light_switch_provisioner_nrf52840_xxAA_s140_6.0.0.dir/__/__/__/mesh/prov/src/prov_utils.c.obj
 .rodata.prov_utils_authentication_values_derive.str1.4
                0x00045ee4        0x5 examples/light_switch/provisioner/CMakeFiles/light_switch_provisioner_nrf52840_xxAA_s140_6.0.0.dir/__/__/__/mesh/prov/src/prov_utils.c.obj
 *fill*         0x00045ee9        0x3 
 .rodata.prov_utils_derive_keys.str1.4
                0x00045eec       0x15 examples/light_switch/provisioner/CMakeFiles/light_switch_provisioner_nrf52840_xxAA_s140_6.0.0.dir/__/__/__/mesh/prov/src/prov_utils.c.obj
 *fill*         0x00045f01        0x3 
 .rodata.crctable.11265
                0x00045f04      0x100 examples/light_switch/provisioner/CMakeFiles/light_switch_provisioner_nrf52840_xxAA_s140_6.0.0.dir/__/__/__/mesh/prov/src/prov_bearer_adv.c.obj
 .rodata.interface.11495
                0x00046004       0x14 examples/light_switch/provisioner/CMakeFiles/light_switch_provisioner_nrf52840_xxAA_s140_6.0.0.dir/__/__/__/mesh/prov/src/prov_bearer_adv.c.obj
 .rodata.prov_bearer_adv_listen.str1.4
                0x00046018       0x50 examples/light_switch/provisioner/CMakeFiles/light_switch_provisioner_nrf52840_xxAA_s140_6.0.0.dir/__/__/__/mesh/prov/src/prov_bearer_adv.c.obj
 .rodata.prov_bearer_adv_packet_in.str1.4
                0x00046068      0x283 examples/light_switch/provisioner/CMakeFiles/light_switch_provisioner_nrf52840_xxAA_s140_6.0.0.dir/__/__/__/mesh/prov/src/prov_bearer_adv.c.obj
 *fill*         0x000462eb        0x1 
 .rodata.tx_retry_cb.str1.4
                0x000462ec       0x14 examples/light_switch/provisioner/CMakeFiles/light_switch_provisioner_nrf52840_xxAA_s140_6.0.0.dir/__/__/__/mesh/prov/src/prov_bearer_adv.c.obj
 .rodata.SEGGER_RTT_ReadNoLock.str1.4
                0x00046300       0x18 external/rtt/librtt_nrf52840_xxAA.a(SEGGER_RTT.c.obj)
                                 0x17 (size before relaxing)
 .rodata._aV2C.5497
                0x00046318       0x10 external/rtt/librtt_nrf52840_xxAA.a(SEGGER_RTT_printf.c.obj)
 .rodata.curve_secp256r1
                0x00046328       0xb0 external/micro-ecc/libuECC_nrf52840_xxAA.a(uECC.c.obj)
 .rodata._global_impure_ptr
                0x000463d8        0x4 c:/mesh/arm_gcc/bin/../lib/gcc/arm-none-eabi/6.3.1/../../../../arm-none-eabi/lib/thumb/v7e-m/fpv4-sp/hard\libc_nano.a(lib_a-impure.o)
                0x000463d8                _global_impure_ptr
 *(.eh_frame*)
 .eh_frame      0x000463dc        0x0 c:/mesh/arm_gcc/bin/../lib/gcc/arm-none-eabi/6.3.1/thumb/v7e-m/fpv4-sp/hard/crtbegin.o
 .eh_frame      0x000463dc        0x4 c:/mesh/arm_gcc/bin/../lib/gcc/arm-none-eabi/6.3.1/thumb/v7e-m/fpv4-sp/hard/crtend.o

.glue_7         0x000463e0        0x0
 .glue_7        0x000463e0        0x0 linker stubs

.glue_7t        0x000463e0        0x0
 .glue_7t       0x000463e0        0x0 linker stubs

.vfp11_veneer   0x000463e0        0x0
 .vfp11_veneer  0x000463e0        0x0 linker stubs

.v4_bx          0x000463e0        0x0
 .v4_bx         0x000463e0        0x0 linker stubs

.iplt           0x000463e0        0x0
 .iplt          0x000463e0        0x0 c:/mesh/arm_gcc/bin/../lib/gcc/arm-none-eabi/6.3.1/thumb/v7e-m/fpv4-sp/hard/crtbegin.o

.pwr_mgmt_data  0x000463e0        0x0
                [!provide]                PROVIDE (__start_pwr_mgmt_data, .)
 *(SORT(.pwr_mgmt_data*))
                [!provide]                PROVIDE (__stop_pwr_mgmt_data, .)

.log_const_data
                0x000463e0        0x0
                [!provide]                PROVIDE (__start_log_const_data, .)
 *(.log_const_data)
                [!provide]                PROVIDE (__stop_log_const_data, .)

.cli_command    0x000463e0        0x0
                [!provide]                PROVIDE (__start_cli_command, .)
 *(.cli_command)
                [!provide]                PROVIDE (__stop_cli_command, .)

.sdh_stack_observers
                0x000463e0        0x0
                [!provide]                PROVIDE (__start_sdh_stack_observers, .)
 *(SORT(.sdh_stack_observers*))
                [!provide]                PROVIDE (__stop_sdh_stack_observers, .)

.sdh_req_observers
                0x000463e0        0x0
                [!provide]                PROVIDE (__start_sdh_req_observers, .)
 *(SORT(.sdh_req_observers*))
                [!provide]                PROVIDE (__stop_sdh_req_observers, .)

.sdh_state_observers
                0x000463e0        0x0
                [!provide]                PROVIDE (__start_sdh_state_observers, .)
 *(SORT(.sdh_state_observers*))
                [!provide]                PROVIDE (__stop_sdh_state_observers, .)

.sdh_ant_observers
                0x000463e0        0x0
                [!provide]                PROVIDE (__start_sdh_ant_observers, .)
 *(SORT(.sdh_ant_observers*))
                [!provide]                PROVIDE (__stop_sdh_ant_observers, .)

.sdh_ble_observers
                0x000463e0        0x0
                [!provide]                PROVIDE (__start_sdh_ble_observers, .)
 *(SORT(.sdh_ble_observers*))
                [!provide]                PROVIDE (__stop_sdh_ble_observers, .)

.sdh_soc_observers
                0x000463e0        0x0
                [!provide]                PROVIDE (__start_sdh_soc_observers, .)
 *(SORT(.sdh_soc_observers*))
                [!provide]                PROVIDE (__stop_sdh_soc_observers, .)

.ARM.extab
 *(.ARM.extab* .gnu.linkonce.armextab.*)
                0x000463e0                __exidx_start = .

.ARM.exidx      0x000463e0        0x8
 *(.ARM.exidx* .gnu.linkonce.armexidx.*)
 .ARM.exidx     0x000463e0        0x8 c:/mesh/arm_gcc/bin/../lib/gcc/arm-none-eabi/6.3.1/../../../../arm-none-eabi/lib/thumb/v7e-m/fpv4-sp/hard/crt0.o
 .ARM.exidx     0x000463e8        0x0 c:/mesh/arm_gcc/bin/../lib/gcc/arm-none-eabi/6.3.1/thumb/v7e-m/fpv4-sp/hard\libgcc.a(_udivmoddi4.o)
                                  0x8 (size before relaxing)
                0x000463e8                __exidx_end = .
                0x000463e8                __etext = .

.rel.dyn        0x000463e8        0x0
 .rel.iplt      0x000463e8        0x0 c:/mesh/arm_gcc/bin/../lib/gcc/arm-none-eabi/6.3.1/thumb/v7e-m/fpv4-sp/hard/crtbegin.o

.data           0x200032c8      0x178 load address 0x000463e8
                0x200032c8                __data_start__ = .
 *(vtable)
 *(.data*)
 .data.flash_add_mem_available_struct.13449
                0x200032c8       0x10 examples/light_switch/provisioner/CMakeFiles/light_switch_provisioner_nrf52840_xxAA_s140_6.0.0.dir/src/main.c.obj
 .data.flash_add_mem_available_struct.13460
                0x200032d8       0x10 examples/light_switch/provisioner/CMakeFiles/light_switch_provisioner_nrf52840_xxAA_s140_6.0.0.dir/src/main.c.obj
 .data.m_mesh_core_event_handler
                0x200032e8        0x8 examples/light_switch/provisioner/CMakeFiles/light_switch_provisioner_nrf52840_xxAA_s140_6.0.0.dir/src/main.c.obj
 .data.mem_listener.13465
                0x200032f0       0x10 examples/light_switch/provisioner/CMakeFiles/light_switch_provisioner_nrf52840_xxAA_s140_6.0.0.dir/src/main.c.obj
 .data.mp_config_step
                0x20003300        0x4 examples/light_switch/provisioner/CMakeFiles/light_switch_provisioner_nrf52840_xxAA_s140_6.0.0.dir/src/node_setup.c.obj
 .data.wait.9229
                0x20003304        0x1 examples/light_switch/provisioner/CMakeFiles/light_switch_provisioner_nrf52840_xxAA_s140_6.0.0.dir/__/__/common/src/app_error_weak.c.obj
 *fill*         0x20003305        0x3 
 .data.mem_listener.10103
                0x20003308       0x10 examples/light_switch/provisioner/CMakeFiles/light_switch_provisioner_nrf52840_xxAA_s140_6.0.0.dir/__/__/__/mesh/core/src/net_state.c.obj
 .data.mem_listener.10108
                0x20003318       0x10 examples/light_switch/provisioner/CMakeFiles/light_switch_provisioner_nrf52840_xxAA_s140_6.0.0.dir/__/__/__/mesh/core/src/net_state.c.obj
 .data.mem_listener.10122
                0x20003328       0x10 examples/light_switch/provisioner/CMakeFiles/light_switch_provisioner_nrf52840_xxAA_s140_6.0.0.dir/__/__/__/mesh/core/src/net_state.c.obj
 .data.mem_listener.10139
                0x20003338       0x10 examples/light_switch/provisioner/CMakeFiles/light_switch_provisioner_nrf52840_xxAA_s140_6.0.0.dir/__/__/__/mesh/core/src/net_state.c.obj
 .data.m_nrf_mesh_listener
                0x20003348        0xc examples/light_switch/provisioner/CMakeFiles/light_switch_provisioner_nrf52840_xxAA_s140_6.0.0.dir/__/__/__/mesh/core/src/nrf_mesh.c.obj
 .data.g_log_dbg_lvl
                0x20003354        0x4 examples/light_switch/provisioner/CMakeFiles/light_switch_provisioner_nrf52840_xxAA_s140_6.0.0.dir/__/__/__/mesh/core/src/log.c.obj
                0x20003354                g_log_dbg_lvl
 .data.g_log_dbg_msk
                0x20003358        0x4 examples/light_switch/provisioner/CMakeFiles/light_switch_provisioner_nrf52840_xxAA_s140_6.0.0.dir/__/__/__/mesh/core/src/log.c.obj
                0x20003358                g_log_dbg_msk
 .data.g_log_hex_digits
                0x2000335c        0x4 examples/light_switch/provisioner/CMakeFiles/light_switch_provisioner_nrf52840_xxAA_s140_6.0.0.dir/__/__/__/mesh/core/src/log.c.obj
                0x2000335c                g_log_hex_digits
 .data.m_log_callback
                0x20003360        0x4 examples/light_switch/provisioner/CMakeFiles/light_switch_provisioner_nrf52840_xxAA_s140_6.0.0.dir/__/__/__/mesh/core/src/log.c.obj
                0x20003360                m_log_callback
 .data.m_config_server_handle
                0x20003364        0x2 examples/light_switch/provisioner/CMakeFiles/light_switch_provisioner_nrf52840_xxAA_s140_6.0.0.dir/__/__/__/models/config/src/config_server.c.obj
 *fill*         0x20003366        0x2 
 .data.m_mesh_evt_handler
                0x20003368        0x8 examples/light_switch/provisioner/CMakeFiles/light_switch_provisioner_nrf52840_xxAA_s140_6.0.0.dir/__/__/__/models/config/src/config_server.c.obj
 .data.flash_add_mem_available_struct.10677
                0x20003370       0x10 examples/light_switch/provisioner/CMakeFiles/light_switch_provisioner_nrf52840_xxAA_s140_6.0.0.dir/__/__/__/mesh/access/src/access.c.obj
 .data.flash_clear_mem_available_struct.10766
                0x20003380       0x10 examples/light_switch/provisioner/CMakeFiles/light_switch_provisioner_nrf52840_xxAA_s140_6.0.0.dir/__/__/__/mesh/access/src/access.c.obj
 .data.flash_store_mem_available_struct.10790
                0x20003390       0x10 examples/light_switch/provisioner/CMakeFiles/light_switch_provisioner_nrf52840_xxAA_s140_6.0.0.dir/__/__/__/mesh/access/src/access.c.obj
 .data.m_default_ttl
                0x200033a0        0x1 examples/light_switch/provisioner/CMakeFiles/light_switch_provisioner_nrf52840_xxAA_s140_6.0.0.dir/__/__/__/mesh/access/src/access.c.obj
 *fill*         0x200033a1        0x3 
 .data.mem_listener.10966
                0x200033a4       0x10 examples/light_switch/provisioner/CMakeFiles/light_switch_provisioner_nrf52840_xxAA_s140_6.0.0.dir/__/__/__/mesh/access/src/device_state_manager.c.obj
 .data.mem_listener.10992
                0x200033b4       0x10 examples/light_switch/provisioner/CMakeFiles/light_switch_provisioner_nrf52840_xxAA_s140_6.0.0.dir/__/__/__/mesh/access/src/device_state_manager.c.obj
 .data.m_async_process_flag
                0x200033c4        0x4 examples/light_switch/provisioner/CMakeFiles/light_switch_provisioner_nrf52840_xxAA_s140_6.0.0.dir/__/__/__/mesh/prov/src/prov_bearer_adv.c.obj
 .data.SystemCoreClock
                0x200033c8        0x4 examples/light_switch/provisioner/CMakeFiles/light_switch_provisioner_nrf52840_xxAA_s140_6.0.0.dir/C_/ver/mod/nRF5_SDK_15.0.0_a53641a/modules/nrfx/mdk/system_nrf52840.c.obj
                0x200033c8                SystemCoreClock
 .data.g_rng_function
                0x200033cc        0x4 external/micro-ecc/libuECC_nrf52840_xxAA.a(uECC.c.obj)
 .data._impure_ptr
                0x200033d0        0x4 c:/mesh/arm_gcc/bin/../lib/gcc/arm-none-eabi/6.3.1/../../../../arm-none-eabi/lib/thumb/v7e-m/fpv4-sp/hard\libc_nano.a(lib_a-impure.o)
                0x200033d0                _impure_ptr
 .data.impure_data
                0x200033d4       0x60 c:/mesh/arm_gcc/bin/../lib/gcc/arm-none-eabi/6.3.1/../../../../arm-none-eabi/lib/thumb/v7e-m/fpv4-sp/hard\libc_nano.a(lib_a-impure.o)
                0x20003434                . = ALIGN (0x4)
                0x20003434                PROVIDE (__preinit_array_start, .)
 *(.preinit_array)
                0x20003434                PROVIDE (__preinit_array_end, .)
                0x20003434                . = ALIGN (0x4)
                0x20003434                PROVIDE (__init_array_start, .)
 *(SORT(.init_array.*))
 *(.init_array)
 .init_array    0x20003434        0x4 c:/mesh/arm_gcc/bin/../lib/gcc/arm-none-eabi/6.3.1/thumb/v7e-m/fpv4-sp/hard/crtbegin.o
                0x20003438                PROVIDE (__init_array_end, .)
                0x20003438                . = ALIGN (0x4)
                [!provide]                PROVIDE (__fini_array_start, .)
 *(SORT(.fini_array.*))
 *(.fini_array)
 .fini_array    0x20003438        0x4 c:/mesh/arm_gcc/bin/../lib/gcc/arm-none-eabi/6.3.1/thumb/v7e-m/fpv4-sp/hard/crtbegin.o
                [!provide]                PROVIDE (__fini_array_end, .)
 *(.jcr*)
 .jcr           0x2000343c        0x0 c:/mesh/arm_gcc/bin/../lib/gcc/arm-none-eabi/6.3.1/thumb/v7e-m/fpv4-sp/hard/crtbegin.o
 .jcr           0x2000343c        0x4 c:/mesh/arm_gcc/bin/../lib/gcc/arm-none-eabi/6.3.1/thumb/v7e-m/fpv4-sp/hard/crtend.o
                0x20003440                . = ALIGN (0x4)
                0x20003440                __data_end__ = .
LOAD c:/mesh/arm_gcc/bin/../lib/gcc/arm-none-eabi/6.3.1/thumb/v7e-m/fpv4-sp/hard/crti.o
LOAD c:/mesh/arm_gcc/bin/../lib/gcc/arm-none-eabi/6.3.1/thumb/v7e-m/fpv4-sp/hard/crtbegin.o
LOAD c:/mesh/arm_gcc/bin/../lib/gcc/arm-none-eabi/6.3.1/../../../../arm-none-eabi/lib/thumb/v7e-m/fpv4-sp/hard/crt0.o
LOAD examples/light_switch/provisioner/CMakeFiles/light_switch_provisioner_nrf52840_xxAA_s140_6.0.0.dir/src/main.c.obj
LOAD examples/light_switch/provisioner/CMakeFiles/light_switch_provisioner_nrf52840_xxAA_s140_6.0.0.dir/__/__/__/mesh/stack/src/mesh_stack.c.obj
LOAD examples/light_switch/provisioner/CMakeFiles/light_switch_provisioner_nrf52840_xxAA_s140_6.0.0.dir/src/provisioner_helper.c.obj
LOAD examples/light_switch/provisioner/CMakeFiles/light_switch_provisioner_nrf52840_xxAA_s140_6.0.0.dir/src/node_setup.c.obj
LOAD examples/light_switch/provisioner/CMakeFiles/light_switch_provisioner_nrf52840_xxAA_s140_6.0.0.dir/__/__/common/src/mesh_softdevice_init.c.obj
LOAD examples/light_switch/provisioner/CMakeFiles/light_switch_provisioner_nrf52840_xxAA_s140_6.0.0.dir/__/__/common/src/rtt_input.c.obj
LOAD examples/light_switch/provisioner/CMakeFiles/light_switch_provisioner_nrf52840_xxAA_s140_6.0.0.dir/__/__/common/src/simple_hal.c.obj
LOAD examples/light_switch/provisioner/CMakeFiles/light_switch_provisioner_nrf52840_xxAA_s140_6.0.0.dir/__/__/nrf_mesh_weak.c.obj
LOAD examples/light_switch/provisioner/CMakeFiles/light_switch_provisioner_nrf52840_xxAA_s140_6.0.0.dir/__/__/common/src/app_error_weak.c.obj
LOAD examples/light_switch/provisioner/CMakeFiles/light_switch_provisioner_nrf52840_xxAA_s140_6.0.0.dir/__/__/common/src/assertion_handler_weak.c.obj
LOAD examples/light_switch/provisioner/CMakeFiles/light_switch_provisioner_nrf52840_xxAA_s140_6.0.0.dir/__/__/__/mesh/core/src/internal_event.c.obj
LOAD examples/light_switch/provisioner/CMakeFiles/light_switch_provisioner_nrf52840_xxAA_s140_6.0.0.dir/__/__/__/mesh/core/src/nrf_mesh_configure.c.obj
LOAD examples/light_switch/provisioner/CMakeFiles/light_switch_provisioner_nrf52840_xxAA_s140_6.0.0.dir/__/__/__/mesh/core/src/aes.c.obj
LOAD examples/light_switch/provisioner/CMakeFiles/light_switch_provisioner_nrf52840_xxAA_s140_6.0.0.dir/__/__/__/mesh/core/src/msg_cache.c.obj
LOAD examples/light_switch/provisioner/CMakeFiles/light_switch_provisioner_nrf52840_xxAA_s140_6.0.0.dir/__/__/__/mesh/core/src/transport.c.obj
LOAD examples/light_switch/provisioner/CMakeFiles/light_switch_provisioner_nrf52840_xxAA_s140_6.0.0.dir/__/__/__/mesh/core/src/event.c.obj
LOAD examples/light_switch/provisioner/CMakeFiles/light_switch_provisioner_nrf52840_xxAA_s140_6.0.0.dir/__/__/__/mesh/core/src/packet_buffer.c.obj
LOAD examples/light_switch/provisioner/CMakeFiles/light_switch_provisioner_nrf52840_xxAA_s140_6.0.0.dir/__/__/__/mesh/core/src/flash_manager_defrag.c.obj
LOAD examples/light_switch/provisioner/CMakeFiles/light_switch_provisioner_nrf52840_xxAA_s140_6.0.0.dir/__/__/__/mesh/core/src/fifo.c.obj
LOAD examples/light_switch/provisioner/CMakeFiles/light_switch_provisioner_nrf52840_xxAA_s140_6.0.0.dir/__/__/__/mesh/core/src/nrf_flash.c.obj
LOAD examples/light_switch/provisioner/CMakeFiles/light_switch_provisioner_nrf52840_xxAA_s140_6.0.0.dir/__/__/__/mesh/core/src/packet_mgr.c.obj
LOAD examples/light_switch/provisioner/CMakeFiles/light_switch_provisioner_nrf52840_xxAA_s140_6.0.0.dir/__/__/__/mesh/core/src/net_state.c.obj
LOAD examples/light_switch/provisioner/CMakeFiles/light_switch_provisioner_nrf52840_xxAA_s140_6.0.0.dir/__/__/__/mesh/core/src/mesh_flash.c.obj
LOAD examples/light_switch/provisioner/CMakeFiles/light_switch_provisioner_nrf52840_xxAA_s140_6.0.0.dir/__/__/__/mesh/core/src/nrf_mesh_utils.c.obj
LOAD examples/light_switch/provisioner/CMakeFiles/light_switch_provisioner_nrf52840_xxAA_s140_6.0.0.dir/__/__/__/mesh/core/src/nrf_mesh.c.obj
LOAD examples/light_switch/provisioner/CMakeFiles/light_switch_provisioner_nrf52840_xxAA_s140_6.0.0.dir/__/__/__/mesh/core/src/queue.c.obj
LOAD examples/light_switch/provisioner/CMakeFiles/light_switch_provisioner_nrf52840_xxAA_s140_6.0.0.dir/__/__/__/mesh/core/src/hal.c.obj
LOAD examples/light_switch/provisioner/CMakeFiles/light_switch_provisioner_nrf52840_xxAA_s140_6.0.0.dir/__/__/__/mesh/core/src/aes_cmac.c.obj
LOAD examples/light_switch/provisioner/CMakeFiles/light_switch_provisioner_nrf52840_xxAA_s140_6.0.0.dir/__/__/__/mesh/core/src/timer_scheduler.c.obj
LOAD examples/light_switch/provisioner/CMakeFiles/light_switch_provisioner_nrf52840_xxAA_s140_6.0.0.dir/__/__/__/mesh/core/src/timer.c.obj
LOAD examples/light_switch/provisioner/CMakeFiles/light_switch_provisioner_nrf52840_xxAA_s140_6.0.0.dir/__/__/__/mesh/core/src/ticker.c.obj
LOAD examples/light_switch/provisioner/CMakeFiles/light_switch_provisioner_nrf52840_xxAA_s140_6.0.0.dir/__/__/__/mesh/core/src/rand.c.obj
LOAD examples/light_switch/provisioner/CMakeFiles/light_switch_provisioner_nrf52840_xxAA_s140_6.0.0.dir/__/__/__/mesh/core/src/nrf_mesh_opt.c.obj
LOAD examples/light_switch/provisioner/CMakeFiles/light_switch_provisioner_nrf52840_xxAA_s140_6.0.0.dir/__/__/__/mesh/core/src/timeslot.c.obj
LOAD examples/light_switch/provisioner/CMakeFiles/light_switch_provisioner_nrf52840_xxAA_s140_6.0.0.dir/__/__/__/mesh/core/src/bearer_event.c.obj
LOAD examples/light_switch/provisioner/CMakeFiles/light_switch_provisioner_nrf52840_xxAA_s140_6.0.0.dir/__/__/__/mesh/core/src/enc.c.obj
LOAD examples/light_switch/provisioner/CMakeFiles/light_switch_provisioner_nrf52840_xxAA_s140_6.0.0.dir/__/__/__/mesh/core/src/network.c.obj
LOAD examples/light_switch/provisioner/CMakeFiles/light_switch_provisioner_nrf52840_xxAA_s140_6.0.0.dir/__/__/__/mesh/core/src/net_packet.c.obj
LOAD examples/light_switch/provisioner/CMakeFiles/light_switch_provisioner_nrf52840_xxAA_s140_6.0.0.dir/__/__/__/mesh/core/src/msqueue.c.obj
LOAD examples/light_switch/provisioner/CMakeFiles/light_switch_provisioner_nrf52840_xxAA_s140_6.0.0.dir/__/__/__/mesh/core/src/nrf_mesh_keygen.c.obj
LOAD examples/light_switch/provisioner/CMakeFiles/light_switch_provisioner_nrf52840_xxAA_s140_6.0.0.dir/__/__/__/mesh/core/src/cache.c.obj
LOAD examples/light_switch/provisioner/CMakeFiles/light_switch_provisioner_nrf52840_xxAA_s140_6.0.0.dir/__/__/__/mesh/core/src/uri.c.obj
LOAD examples/light_switch/provisioner/CMakeFiles/light_switch_provisioner_nrf52840_xxAA_s140_6.0.0.dir/__/__/__/mesh/core/src/list.c.obj
LOAD examples/light_switch/provisioner/CMakeFiles/light_switch_provisioner_nrf52840_xxAA_s140_6.0.0.dir/__/__/__/mesh/core/src/log.c.obj
LOAD examples/light_switch/provisioner/CMakeFiles/light_switch_provisioner_nrf52840_xxAA_s140_6.0.0.dir/__/__/__/mesh/core/src/flash_manager.c.obj
LOAD examples/light_switch/provisioner/CMakeFiles/light_switch_provisioner_nrf52840_xxAA_s140_6.0.0.dir/__/__/__/mesh/core/src/ccm_soft.c.obj
LOAD examples/light_switch/provisioner/CMakeFiles/light_switch_provisioner_nrf52840_xxAA_s140_6.0.0.dir/__/__/__/mesh/core/src/toolchain.c.obj
LOAD examples/light_switch/provisioner/CMakeFiles/light_switch_provisioner_nrf52840_xxAA_s140_6.0.0.dir/__/__/__/mesh/core/src/replay_cache.c.obj
LOAD examples/light_switch/provisioner/CMakeFiles/light_switch_provisioner_nrf52840_xxAA_s140_6.0.0.dir/__/__/__/mesh/core/src/beacon.c.obj
LOAD examples/light_switch/provisioner/CMakeFiles/light_switch_provisioner_nrf52840_xxAA_s140_6.0.0.dir/__/__/__/mesh/core/src/flash_manager_internal.c.obj
LOAD examples/light_switch/provisioner/CMakeFiles/light_switch_provisioner_nrf52840_xxAA_s140_6.0.0.dir/__/__/__/mesh/core/src/core_tx.c.obj
LOAD examples/light_switch/provisioner/CMakeFiles/light_switch_provisioner_nrf52840_xxAA_s140_6.0.0.dir/__/__/__/mesh/core/src/heartbeat.c.obj
LOAD examples/light_switch/provisioner/CMakeFiles/light_switch_provisioner_nrf52840_xxAA_s140_6.0.0.dir/__/__/__/mesh/core/src/net_beacon.c.obj
LOAD examples/light_switch/provisioner/CMakeFiles/light_switch_provisioner_nrf52840_xxAA_s140_6.0.0.dir/__/__/__/mesh/core/src/fsm.c.obj
LOAD examples/light_switch/provisioner/CMakeFiles/light_switch_provisioner_nrf52840_xxAA_s140_6.0.0.dir/__/__/__/mesh/core/src/core_tx_adv.c.obj
LOAD examples/light_switch/provisioner/CMakeFiles/light_switch_provisioner_nrf52840_xxAA_s140_6.0.0.dir/__/__/__/mesh/bearer/src/ad_listener.c.obj
LOAD examples/light_switch/provisioner/CMakeFiles/light_switch_provisioner_nrf52840_xxAA_s140_6.0.0.dir/__/__/__/mesh/bearer/src/ad_type_filter.c.obj
LOAD examples/light_switch/provisioner/CMakeFiles/light_switch_provisioner_nrf52840_xxAA_s140_6.0.0.dir/__/__/__/mesh/bearer/src/adv_packet_filter.c.obj
LOAD examples/light_switch/provisioner/CMakeFiles/light_switch_provisioner_nrf52840_xxAA_s140_6.0.0.dir/__/__/__/mesh/bearer/src/advertiser.c.obj
LOAD examples/light_switch/provisioner/CMakeFiles/light_switch_provisioner_nrf52840_xxAA_s140_6.0.0.dir/__/__/__/mesh/bearer/src/bearer_handler.c.obj
LOAD examples/light_switch/provisioner/CMakeFiles/light_switch_provisioner_nrf52840_xxAA_s140_6.0.0.dir/__/__/__/mesh/bearer/src/broadcast.c.obj
LOAD examples/light_switch/provisioner/CMakeFiles/light_switch_provisioner_nrf52840_xxAA_s140_6.0.0.dir/__/__/__/mesh/bearer/src/filter_engine.c.obj
LOAD examples/light_switch/provisioner/CMakeFiles/light_switch_provisioner_nrf52840_xxAA_s140_6.0.0.dir/__/__/__/mesh/bearer/src/gap_address_filter.c.obj
LOAD examples/light_switch/provisioner/CMakeFiles/light_switch_provisioner_nrf52840_xxAA_s140_6.0.0.dir/__/__/__/mesh/bearer/src/radio_config.c.obj
LOAD examples/light_switch/provisioner/CMakeFiles/light_switch_provisioner_nrf52840_xxAA_s140_6.0.0.dir/__/__/__/mesh/bearer/src/rssi_filter.c.obj
LOAD examples/light_switch/provisioner/CMakeFiles/light_switch_provisioner_nrf52840_xxAA_s140_6.0.0.dir/__/__/__/mesh/bearer/src/scanner.c.obj
LOAD examples/light_switch/provisioner/CMakeFiles/light_switch_provisioner_nrf52840_xxAA_s140_6.0.0.dir/__/__/__/models/simple_on_off/src/simple_on_off_client.c.obj
LOAD examples/light_switch/provisioner/CMakeFiles/light_switch_provisioner_nrf52840_xxAA_s140_6.0.0.dir/__/__/__/models/config/src/config_client.c.obj
LOAD examples/light_switch/provisioner/CMakeFiles/light_switch_provisioner_nrf52840_xxAA_s140_6.0.0.dir/__/__/__/models/config/src/composition_data.c.obj
LOAD examples/light_switch/provisioner/CMakeFiles/light_switch_provisioner_nrf52840_xxAA_s140_6.0.0.dir/__/__/__/models/config/src/config_server.c.obj
LOAD examples/light_switch/provisioner/CMakeFiles/light_switch_provisioner_nrf52840_xxAA_s140_6.0.0.dir/__/__/__/models/config/src/packed_index_list.c.obj
LOAD examples/light_switch/provisioner/CMakeFiles/light_switch_provisioner_nrf52840_xxAA_s140_6.0.0.dir/__/__/__/models/health/src/health_server.c.obj
LOAD examples/light_switch/provisioner/CMakeFiles/light_switch_provisioner_nrf52840_xxAA_s140_6.0.0.dir/__/__/__/models/health/src/health_client.c.obj
LOAD examples/light_switch/provisioner/CMakeFiles/light_switch_provisioner_nrf52840_xxAA_s140_6.0.0.dir/__/__/__/mesh/access/src/access_publish.c.obj
LOAD examples/light_switch/provisioner/CMakeFiles/light_switch_provisioner_nrf52840_xxAA_s140_6.0.0.dir/__/__/__/mesh/access/src/access.c.obj
LOAD examples/light_switch/provisioner/CMakeFiles/light_switch_provisioner_nrf52840_xxAA_s140_6.0.0.dir/__/__/__/mesh/access/src/access_reliable.c.obj
LOAD examples/light_switch/provisioner/CMakeFiles/light_switch_provisioner_nrf52840_xxAA_s140_6.0.0.dir/__/__/__/mesh/access/src/device_state_manager.c.obj
LOAD examples/light_switch/provisioner/CMakeFiles/light_switch_provisioner_nrf52840_xxAA_s140_6.0.0.dir/__/__/__/mesh/prov/src/prov_provisioner.c.obj
LOAD examples/light_switch/provisioner/CMakeFiles/light_switch_provisioner_nrf52840_xxAA_s140_6.0.0.dir/__/__/__/mesh/prov/src/nrf_mesh_prov.c.obj
LOAD examples/light_switch/provisioner/CMakeFiles/light_switch_provisioner_nrf52840_xxAA_s140_6.0.0.dir/__/__/__/mesh/prov/src/provisioning.c.obj
LOAD examples/light_switch/provisioner/CMakeFiles/light_switch_provisioner_nrf52840_xxAA_s140_6.0.0.dir/__/__/__/mesh/prov/src/prov_beacon.c.obj
LOAD examples/light_switch/provisioner/CMakeFiles/light_switch_provisioner_nrf52840_xxAA_s140_6.0.0.dir/__/__/__/mesh/prov/src/prov_utils.c.obj
LOAD examples/light_switch/provisioner/CMakeFiles/light_switch_provisioner_nrf52840_xxAA_s140_6.0.0.dir/__/__/__/mesh/prov/src/prov_bearer_adv.c.obj
LOAD examples/light_switch/provisioner/CMakeFiles/light_switch_provisioner_nrf52840_xxAA_s140_6.0.0.dir/C_/ver/mod/nRF5_SDK_15.0.0_a53641a/modules/nrfx/mdk/system_nrf52840.c.obj
LOAD examples/light_switch/provisioner/CMakeFiles/light_switch_provisioner_nrf52840_xxAA_s140_6.0.0.dir/C_/ver/mod/nRF5_SDK_15.0.0_a53641a/modules/nrfx/mdk/gcc_startup_nrf52840.S.obj
LOAD examples/light_switch/provisioner/CMakeFiles/light_switch_provisioner_nrf52840_xxAA_s140_6.0.0.dir/C_/ver/mod/nRF5_SDK_15.0.0_a53641a/components/libraries/util/app_error.c.obj
LOAD examples/light_switch/provisioner/CMakeFiles/light_switch_provisioner_nrf52840_xxAA_s140_6.0.0.dir/C_/ver/mod/nRF5_SDK_15.0.0_a53641a/components/libraries/util/app_error_handler_gcc.c.obj
LOAD external/rtt/librtt_nrf52840_xxAA.a
LOAD external/micro-ecc/libuECC_nrf52840_xxAA.a
START GROUP
LOAD c:/mesh/arm_gcc/bin/../lib/gcc/arm-none-eabi/6.3.1/thumb/v7e-m/fpv4-sp/hard\libgcc.a
LOAD c:/mesh/arm_gcc/bin/../lib/gcc/arm-none-eabi/6.3.1/../../../../arm-none-eabi/lib/thumb/v7e-m/fpv4-sp/hard\libc_nano.a
END GROUP
START GROUP
LOAD c:/mesh/arm_gcc/bin/../lib/gcc/arm-none-eabi/6.3.1/thumb/v7e-m/fpv4-sp/hard\libgcc.a
LOAD c:/mesh/arm_gcc/bin/../lib/gcc/arm-none-eabi/6.3.1/../../../../arm-none-eabi/lib/thumb/v7e-m/fpv4-sp/hard\libc_nano.a
END GROUP
LOAD c:/mesh/arm_gcc/bin/../lib/gcc/arm-none-eabi/6.3.1/thumb/v7e-m/fpv4-sp/hard/crtend.o
LOAD c:/mesh/arm_gcc/bin/../lib/gcc/arm-none-eabi/6.3.1/thumb/v7e-m/fpv4-sp/hard/crtn.o
START GROUP
LOAD c:/mesh/arm_gcc/bin/../lib/gcc/arm-none-eabi/6.3.1/thumb/v7e-m/fpv4-sp/hard\libgcc.a
LOAD c:/mesh/arm_gcc/bin/../lib/gcc/arm-none-eabi/6.3.1/../../../../arm-none-eabi/lib/thumb/v7e-m/fpv4-sp/hard\libc.a
LOAD c:/mesh/arm_gcc/bin/../lib/gcc/arm-none-eabi/6.3.1/../../../../arm-none-eabi/lib/thumb/v7e-m/fpv4-sp/hard\libnosys.a
END GROUP

.igot.plt       0x20003440        0x0 load address 0x00046560
 .igot.plt      0x20003440        0x0 c:/mesh/arm_gcc/bin/../lib/gcc/arm-none-eabi/6.3.1/thumb/v7e-m/fpv4-sp/hard/crtbegin.o
                0x20003440                . = ALIGN (0x4)

.svc_data       0x20003440        0x0
                [!provide]                PROVIDE (__start_svc_data, .)
 *(.svc_data)
                [!provide]                PROVIDE (__stop_svc_data, .)

.fs_data        0x20003440        0x0
                [!provide]                PROVIDE (__start_fs_data, .)
 *(.fs_data)
                [!provide]                PROVIDE (__stop_fs_data, .)

.log_dynamic_data
                0x20003440        0x0
                [!provide]                PROVIDE (__start_log_dynamic_data, .)
 *(.log_dynamic_data)
                [!provide]                PROVIDE (__stop_log_dynamic_data, .)

.cli_sorted_cmd_ptrs
                0x20003440        0x0
                [!provide]                PROVIDE (__start_cli_sorted_cmd_ptrs, .)
 *(.cli_sorted_cmd_ptrs)
                [!provide]                PROVIDE (__stop_cli_sorted_cmd_ptrs, .)

.bss            0x20003440     0x3588 load address 0x00046560
                0x20003440                . = ALIGN (0x4)
                0x20003440                __bss_start__ = .
 *(.bss*)
 .bss           0x20003440       0x1c c:/mesh/arm_gcc/bin/../lib/gcc/arm-none-eabi/6.3.1/thumb/v7e-m/fpv4-sp/hard/crtbegin.o
 .bss.m_dev_handles
                0x2000345c       0x1c examples/light_switch/provisioner/CMakeFiles/light_switch_provisioner_nrf52840_xxAA_s140_6.0.0.dir/src/main.c.obj
 .bss.m_exp_uuid
                0x20003478        0x8 examples/light_switch/provisioner/CMakeFiles/light_switch_provisioner_nrf52840_xxAA_s140_6.0.0.dir/src/main.c.obj
 .bss.m_flash_manager
                0x20003480       0x24 examples/light_switch/provisioner/CMakeFiles/light_switch_provisioner_nrf52840_xxAA_s140_6.0.0.dir/src/main.c.obj
 .bss.m_node_prov_setup_started
                0x200034a4        0x1 examples/light_switch/provisioner/CMakeFiles/light_switch_provisioner_nrf52840_xxAA_s140_6.0.0.dir/src/main.c.obj
 *fill*         0x200034a5        0x3 
 .bss.m_nw_state
                0x200034a8       0x38 examples/light_switch/provisioner/CMakeFiles/light_switch_provisioner_nrf52840_xxAA_s140_6.0.0.dir/src/main.c.obj
 .bss.s_app_started.13505
                0x200034e0        0x1 examples/light_switch/provisioner/CMakeFiles/light_switch_provisioner_nrf52840_xxAA_s140_6.0.0.dir/src/main.c.obj
 *fill*         0x200034e1        0x3 
 .bss.m_health_server
                0x200034e4       0x5c examples/light_switch/provisioner/CMakeFiles/light_switch_provisioner_nrf52840_xxAA_s140_6.0.0.dir/__/__/__/mesh/stack/src/mesh_stack.c.obj
 .bss.m_init_params
                0x20003540       0x24 examples/light_switch/provisioner/CMakeFiles/light_switch_provisioner_nrf52840_xxAA_s140_6.0.0.dir/__/__/__/mesh/stack/src/mesh_stack.c.obj
 .bss.addr_handle.12339
                0x20003564        0x2 examples/light_switch/provisioner/CMakeFiles/light_switch_provisioner_nrf52840_xxAA_s140_6.0.0.dir/src/provisioner_helper.c.obj
 .bss.devkey_handle.12340
                0x20003566        0x2 examples/light_switch/provisioner/CMakeFiles/light_switch_provisioner_nrf52840_xxAA_s140_6.0.0.dir/src/provisioner_helper.c.obj
 .bss.m_private_key
                0x20003568       0x20 examples/light_switch/provisioner/CMakeFiles/light_switch_provisioner_nrf52840_xxAA_s140_6.0.0.dir/src/provisioner_helper.c.obj
 .bss.m_prov_bearer_adv
                0x20003588      0x1c4 examples/light_switch/provisioner/CMakeFiles/light_switch_provisioner_nrf52840_xxAA_s140_6.0.0.dir/src/provisioner_helper.c.obj
 .bss.m_prov_ctx
                0x2000374c      0x134 examples/light_switch/provisioner/CMakeFiles/light_switch_provisioner_nrf52840_xxAA_s140_6.0.0.dir/src/provisioner_helper.c.obj
 .bss.m_prov_state
                0x20003880        0x1 examples/light_switch/provisioner/CMakeFiles/light_switch_provisioner_nrf52840_xxAA_s140_6.0.0.dir/src/provisioner_helper.c.obj
 *fill*         0x20003881        0x3 
 .bss.m_provisioner
                0x20003884       0x18 examples/light_switch/provisioner/CMakeFiles/light_switch_provisioner_nrf52840_xxAA_s140_6.0.0.dir/src/provisioner_helper.c.obj
 .bss.m_provisioner_init_done
                0x2000389c        0x1 examples/light_switch/provisioner/CMakeFiles/light_switch_provisioner_nrf52840_xxAA_s140_6.0.0.dir/src/provisioner_helper.c.obj
 *fill*         0x2000389d        0x3 
 .bss.m_public_key
                0x200038a0       0x40 examples/light_switch/provisioner/CMakeFiles/light_switch_provisioner_nrf52840_xxAA_s140_6.0.0.dir/src/provisioner_helper.c.obj
 .bss.m_retry_cnt
                0x200038e0        0x1 examples/light_switch/provisioner/CMakeFiles/light_switch_provisioner_nrf52840_xxAA_s140_6.0.0.dir/src/provisioner_helper.c.obj
 *fill*         0x200038e1        0x1 
 .bss.m_target_address
                0x200038e2        0x2 examples/light_switch/provisioner/CMakeFiles/light_switch_provisioner_nrf52840_xxAA_s140_6.0.0.dir/src/provisioner_helper.c.obj
 .bss.m_target_elements
                0x200038e4        0x2 examples/light_switch/provisioner/CMakeFiles/light_switch_provisioner_nrf52840_xxAA_s140_6.0.0.dir/src/provisioner_helper.c.obj
 *fill*         0x200038e6        0x2 
 .bss.mp_expected_uuid
                0x200038e8        0x4 examples/light_switch/provisioner/CMakeFiles/light_switch_provisioner_nrf52840_xxAA_s140_6.0.0.dir/src/provisioner_helper.c.obj
 .bss.m_appkey_idx
                0x200038ec        0x2 examples/light_switch/provisioner/CMakeFiles/light_switch_provisioner_nrf52840_xxAA_s140_6.0.0.dir/src/node_setup.c.obj
 .bss.m_current_node_addr
                0x200038ee        0x2 examples/light_switch/provisioner/CMakeFiles/light_switch_provisioner_nrf52840_xxAA_s140_6.0.0.dir/src/node_setup.c.obj
 .bss.m_expected_status_list
                0x200038f0        0x8 examples/light_switch/provisioner/CMakeFiles/light_switch_provisioner_nrf52840_xxAA_s140_6.0.0.dir/src/node_setup.c.obj
 .bss.m_node_composition
                0x200038f8      0x180 examples/light_switch/provisioner/CMakeFiles/light_switch_provisioner_nrf52840_xxAA_s140_6.0.0.dir/src/node_setup.c.obj
 .bss.m_node_setup_failed_cb
                0x20003a78        0x4 examples/light_switch/provisioner/CMakeFiles/light_switch_provisioner_nrf52840_xxAA_s140_6.0.0.dir/src/node_setup.c.obj
 .bss.m_node_setup_success_cb
                0x20003a7c        0x4 examples/light_switch/provisioner/CMakeFiles/light_switch_provisioner_nrf52840_xxAA_s140_6.0.0.dir/src/node_setup.c.obj
 .bss.m_retry_count
                0x20003a80        0x2 examples/light_switch/provisioner/CMakeFiles/light_switch_provisioner_nrf52840_xxAA_s140_6.0.0.dir/src/node_setup.c.obj
 *fill*         0x20003a82        0x2 
 .bss.m_send_timer
                0x20003a84       0x1c examples/light_switch/provisioner/CMakeFiles/light_switch_provisioner_nrf52840_xxAA_s140_6.0.0.dir/src/node_setup.c.obj
 .bss.m_status_checked
                0x20003aa0        0x1 examples/light_switch/provisioner/CMakeFiles/light_switch_provisioner_nrf52840_xxAA_s140_6.0.0.dir/src/node_setup.c.obj
 *fill*         0x20003aa1        0x1 
 .bss.model_element_addr.11584
                0x20003aa2        0x2 examples/light_switch/provisioner/CMakeFiles/light_switch_provisioner_nrf52840_xxAA_s140_6.0.0.dir/src/node_setup.c.obj
 .bss.mp_appkey
                0x20003aa4        0x4 examples/light_switch/provisioner/CMakeFiles/light_switch_provisioner_nrf52840_xxAA_s140_6.0.0.dir/src/node_setup.c.obj
 .bss.m_rtt_input_handler
                0x20003aa8        0x4 examples/light_switch/provisioner/CMakeFiles/light_switch_provisioner_nrf52840_xxAA_s140_6.0.0.dir/__/__/common/src/rtt_input.c.obj
 .bss.m_button_handler_cb
                0x20003aac        0x4 examples/light_switch/provisioner/CMakeFiles/light_switch_provisioner_nrf52840_xxAA_s140_6.0.0.dir/__/__/common/src/simple_hal.c.obj
 .bss.m_last_button_press
                0x20003ab0        0x4 examples/light_switch/provisioner/CMakeFiles/light_switch_provisioner_nrf52840_xxAA_s140_6.0.0.dir/__/__/common/src/simple_hal.c.obj
 .bss.m_uuid    0x20003ab4       0x10 examples/light_switch/provisioner/CMakeFiles/light_switch_provisioner_nrf52840_xxAA_s140_6.0.0.dir/__/__/__/mesh/core/src/nrf_mesh_configure.c.obj
 .bss.m_msg_cache
                0x20003ac4      0x100 examples/light_switch/provisioner/CMakeFiles/light_switch_provisioner_nrf52840_xxAA_s140_6.0.0.dir/__/__/__/mesh/core/src/msg_cache.c.obj
 .bss.m_msg_cache_head
                0x20003bc4        0x4 examples/light_switch/provisioner/CMakeFiles/light_switch_provisioner_nrf52840_xxAA_s140_6.0.0.dir/__/__/__/mesh/core/src/msg_cache.c.obj
 .bss.m_control_packet_consumer_count
                0x20003bc8        0x4 examples/light_switch/provisioner/CMakeFiles/light_switch_provisioner_nrf52840_xxAA_s140_6.0.0.dir/__/__/__/mesh/core/src/transport.c.obj
 .bss.m_control_packet_consumers
                0x20003bcc        0x8 examples/light_switch/provisioner/CMakeFiles/light_switch_provisioner_nrf52840_xxAA_s140_6.0.0.dir/__/__/__/mesh/core/src/transport.c.obj
 .bss.m_sar_alloc
                0x20003bd4        0x4 examples/light_switch/provisioner/CMakeFiles/light_switch_provisioner_nrf52840_xxAA_s140_6.0.0.dir/__/__/__/mesh/core/src/transport.c.obj
 .bss.m_sar_process_flag
                0x20003bd8        0x4 examples/light_switch/provisioner/CMakeFiles/light_switch_provisioner_nrf52840_xxAA_s140_6.0.0.dir/__/__/__/mesh/core/src/transport.c.obj
 .bss.m_sar_release
                0x20003bdc        0x4 examples/light_switch/provisioner/CMakeFiles/light_switch_provisioner_nrf52840_xxAA_s140_6.0.0.dir/__/__/__/mesh/core/src/transport.c.obj
 .bss.m_sar_session_cache
                0x20003be0       0x40 examples/light_switch/provisioner/CMakeFiles/light_switch_provisioner_nrf52840_xxAA_s140_6.0.0.dir/__/__/__/mesh/core/src/transport.c.obj
 .bss.m_sar_session_cache_head
                0x20003c20        0x4 examples/light_switch/provisioner/CMakeFiles/light_switch_provisioner_nrf52840_xxAA_s140_6.0.0.dir/__/__/__/mesh/core/src/transport.c.obj
 .bss.m_trs_config
                0x20003c24       0x18 examples/light_switch/provisioner/CMakeFiles/light_switch_provisioner_nrf52840_xxAA_s140_6.0.0.dir/__/__/__/mesh/core/src/transport.c.obj
 .bss.m_trs_sar_sessions
                0x20003c3c      0x1b0 examples/light_switch/provisioner/CMakeFiles/light_switch_provisioner_nrf52840_xxAA_s140_6.0.0.dir/__/__/__/mesh/core/src/transport.c.obj
 .bss.mp_evt_handlers_head
                0x20003dec        0x4 examples/light_switch/provisioner/CMakeFiles/light_switch_provisioner_nrf52840_xxAA_s140_6.0.0.dir/__/__/__/mesh/core/src/event.c.obj
 .bss.m_defrag  0x20003df0       0x1c examples/light_switch/provisioner/CMakeFiles/light_switch_provisioner_nrf52840_xxAA_s140_6.0.0.dir/__/__/__/mesh/core/src/flash_manager_defrag.c.obj
 .bss.m_token   0x20003e0c        0x2 examples/light_switch/provisioner/CMakeFiles/light_switch_provisioner_nrf52840_xxAA_s140_6.0.0.dir/__/__/__/mesh/core/src/flash_manager_defrag.c.obj
 *fill*         0x20003e0e        0x2 
 .bss.mp_recovery_area
                0x20003e10        0x4 examples/light_switch/provisioner/CMakeFiles/light_switch_provisioner_nrf52840_xxAA_s140_6.0.0.dir/__/__/__/mesh/core/src/flash_manager_defrag.c.obj
 .bss.p_null_ptr.10534
                0x20003e14        0x4 examples/light_switch/provisioner/CMakeFiles/light_switch_provisioner_nrf52840_xxAA_s140_6.0.0.dir/__/__/__/mesh/core/src/flash_manager_defrag.c.obj
 .bss.m_pool    0x20003e18     0x1000 examples/light_switch/provisioner/CMakeFiles/light_switch_provisioner_nrf52840_xxAA_s140_6.0.0.dir/__/__/__/mesh/core/src/packet_mgr.c.obj
 .bss.mp_free_head
                0x20004e18        0x4 examples/light_switch/provisioner/CMakeFiles/light_switch_provisioner_nrf52840_xxAA_s140_6.0.0.dir/__/__/__/mesh/core/src/packet_mgr.c.obj
 .bss.lock_count.10165
                0x20004e1c        0x4 examples/light_switch/provisioner/CMakeFiles/light_switch_provisioner_nrf52840_xxAA_s140_6.0.0.dir/__/__/__/mesh/core/src/net_state.c.obj
 .bss.m_flash_manager
                0x20004e20       0x24 examples/light_switch/provisioner/CMakeFiles/light_switch_provisioner_nrf52840_xxAA_s140_6.0.0.dir/__/__/__/mesh/core/src/net_state.c.obj
 .bss.m_iv_update_timer
                0x20004e44       0x18 examples/light_switch/provisioner/CMakeFiles/light_switch_provisioner_nrf52840_xxAA_s140_6.0.0.dir/__/__/__/mesh/core/src/net_state.c.obj
 .bss.m_mesh_evt_handler
                0x20004e5c        0x8 examples/light_switch/provisioner/CMakeFiles/light_switch_provisioner_nrf52840_xxAA_s140_6.0.0.dir/__/__/__/mesh/core/src/net_state.c.obj
 .bss.m_net_state
                0x20004e64       0x14 examples/light_switch/provisioner/CMakeFiles/light_switch_provisioner_nrf52840_xxAA_s140_6.0.0.dir/__/__/__/mesh/core/src/net_state.c.obj
 .bss.m_seqnum_allocation_in_progress
                0x20004e78        0x1 examples/light_switch/provisioner/CMakeFiles/light_switch_provisioner_nrf52840_xxAA_s140_6.0.0.dir/__/__/__/mesh/core/src/net_state.c.obj
 .bss.m_test_mode
                0x20004e79        0x1 examples/light_switch/provisioner/CMakeFiles/light_switch_provisioner_nrf52840_xxAA_s140_6.0.0.dir/__/__/__/mesh/core/src/net_state.c.obj
 *fill*         0x20004e7a        0x2 
 .bss.m_event_flag
                0x20004e7c        0x4 examples/light_switch/provisioner/CMakeFiles/light_switch_provisioner_nrf52840_xxAA_s140_6.0.0.dir/__/__/__/mesh/core/src/mesh_flash.c.obj
 .bss.m_suspended
                0x20004e80        0x1 examples/light_switch/provisioner/CMakeFiles/light_switch_provisioner_nrf52840_xxAA_s140_6.0.0.dir/__/__/__/mesh/core/src/mesh_flash.c.obj
 *fill*         0x20004e81        0x3 
 .bss.m_users   0x20004e84      0x228 examples/light_switch/provisioner/CMakeFiles/light_switch_provisioner_nrf52840_xxAA_s140_6.0.0.dir/__/__/__/mesh/core/src/mesh_flash.c.obj
 .bss.m_is_enabled
                0x200050ac        0x1 examples/light_switch/provisioner/CMakeFiles/light_switch_provisioner_nrf52840_xxAA_s140_6.0.0.dir/__/__/__/mesh/core/src/nrf_mesh.c.obj
 .bss.m_is_initialized
                0x200050ad        0x1 examples/light_switch/provisioner/CMakeFiles/light_switch_provisioner_nrf52840_xxAA_s140_6.0.0.dir/__/__/__/mesh/core/src/nrf_mesh.c.obj
 *fill*         0x200050ae        0x2 
 .bss.m_rx_cb   0x200050b0        0x4 examples/light_switch/provisioner/CMakeFiles/light_switch_provisioner_nrf52840_xxAA_s140_6.0.0.dir/__/__/__/mesh/core/src/nrf_mesh.c.obj
 .bss.m_128buf  0x200050b4       0x10 examples/light_switch/provisioner/CMakeFiles/light_switch_provisioner_nrf52840_xxAA_s140_6.0.0.dir/__/__/__/mesh/core/src/aes_cmac.c.obj
 .bss.m_subkey1
                0x200050c4       0x10 examples/light_switch/provisioner/CMakeFiles/light_switch_provisioner_nrf52840_xxAA_s140_6.0.0.dir/__/__/__/mesh/core/src/aes_cmac.c.obj
 .bss.m_subkey2
                0x200050d4       0x10 examples/light_switch/provisioner/CMakeFiles/light_switch_provisioner_nrf52840_xxAA_s140_6.0.0.dir/__/__/__/mesh/core/src/aes_cmac.c.obj
 .bss.m_event_flag
                0x200050e4        0x4 examples/light_switch/provisioner/CMakeFiles/light_switch_provisioner_nrf52840_xxAA_s140_6.0.0.dir/__/__/__/mesh/core/src/timer_scheduler.c.obj
 .bss.m_scheduler
                0x200050e8       0x10 examples/light_switch/provisioner/CMakeFiles/light_switch_provisioner_nrf52840_xxAA_s140_6.0.0.dir/__/__/__/mesh/core/src/timer_scheduler.c.obj
 .bss.m_attributes
                0x200050f8        0x3 examples/light_switch/provisioner/CMakeFiles/light_switch_provisioner_nrf52840_xxAA_s140_6.0.0.dir/__/__/__/mesh/core/src/timer.c.obj
 *fill*         0x200050fb        0x1 
 .bss.m_callbacks
                0x200050fc        0xc examples/light_switch/provisioner/CMakeFiles/light_switch_provisioner_nrf52840_xxAA_s140_6.0.0.dir/__/__/__/mesh/core/src/timer.c.obj
 .bss.m_is_in_ts
                0x20005108        0x1 examples/light_switch/provisioner/CMakeFiles/light_switch_provisioner_nrf52840_xxAA_s140_6.0.0.dir/__/__/__/mesh/core/src/timer.c.obj
 *fill*         0x20005109        0x3 
 .bss.m_reference_time
                0x2000510c        0x4 examples/light_switch/provisioner/CMakeFiles/light_switch_provisioner_nrf52840_xxAA_s140_6.0.0.dir/__/__/__/mesh/core/src/timer.c.obj
 .bss.m_timeouts
                0x20005110        0xc examples/light_switch/provisioner/CMakeFiles/light_switch_provisioner_nrf52840_xxAA_s140_6.0.0.dir/__/__/__/mesh/core/src/timer.c.obj
 .bss.m_timer_mut
                0x2000511c        0x4 examples/light_switch/provisioner/CMakeFiles/light_switch_provisioner_nrf52840_xxAA_s140_6.0.0.dir/__/__/__/mesh/core/src/timer.c.obj
 .bss.m_ts_end_time
                0x20005120        0x4 examples/light_switch/provisioner/CMakeFiles/light_switch_provisioner_nrf52840_xxAA_s140_6.0.0.dir/__/__/__/mesh/core/src/timer.c.obj
 .bss.mp_ppi_tasks
                0x20005124        0xc examples/light_switch/provisioner/CMakeFiles/light_switch_provisioner_nrf52840_xxAA_s140_6.0.0.dir/__/__/__/mesh/core/src/timer.c.obj
 .bss.m_current_time
                0x20005130        0x4 examples/light_switch/provisioner/CMakeFiles/light_switch_provisioner_nrf52840_xxAA_s140_6.0.0.dir/__/__/__/mesh/core/src/ticker.c.obj
 .bss.m_timer   0x20005134       0x18 examples/light_switch/provisioner/CMakeFiles/light_switch_provisioner_nrf52840_xxAA_s140_6.0.0.dir/__/__/__/mesh/core/src/ticker.c.obj
 .bss.m_current_timeslot
                0x2000514c       0x1c examples/light_switch/provisioner/CMakeFiles/light_switch_provisioner_nrf52840_xxAA_s140_6.0.0.dir/__/__/__/mesh/core/src/timeslot.c.obj
 .bss.m_lfclk_ppm
                0x20005168        0x4 examples/light_switch/provisioner/CMakeFiles/light_switch_provisioner_nrf52840_xxAA_s140_6.0.0.dir/__/__/__/mesh/core/src/timeslot.c.obj
 .bss.m_radio_request_earliest
                0x2000516c       0x10 examples/light_switch/provisioner/CMakeFiles/light_switch_provisioner_nrf52840_xxAA_s140_6.0.0.dir/__/__/__/mesh/core/src/timeslot.c.obj
 .bss.m_state_lock
                0x2000517c        0x1 examples/light_switch/provisioner/CMakeFiles/light_switch_provisioner_nrf52840_xxAA_s140_6.0.0.dir/__/__/__/mesh/core/src/timeslot.c.obj
 .bss.m_timeslot_forced_command
                0x2000517d        0x1 examples/light_switch/provisioner/CMakeFiles/light_switch_provisioner_nrf52840_xxAA_s140_6.0.0.dir/__/__/__/mesh/core/src/timeslot.c.obj
 *fill*         0x2000517e        0x2 
 .bss.s_last_rtc_value.9592
                0x20005180        0x8 examples/light_switch/provisioner/CMakeFiles/light_switch_provisioner_nrf52840_xxAA_s140_6.0.0.dir/__/__/__/mesh/core/src/timeslot.c.obj
 .bss.m_bearer_event_fifo
                0x20005188       0x14 examples/light_switch/provisioner/CMakeFiles/light_switch_provisioner_nrf52840_xxAA_s140_6.0.0.dir/__/__/__/mesh/core/src/bearer_event.c.obj
 .bss.m_bearer_event_fifo_buffer
                0x2000519c      0x100 examples/light_switch/provisioner/CMakeFiles/light_switch_provisioner_nrf52840_xxAA_s140_6.0.0.dir/__/__/__/mesh/core/src/bearer_event.c.obj
 .bss.m_critical
                0x2000529c        0x4 examples/light_switch/provisioner/CMakeFiles/light_switch_provisioner_nrf52840_xxAA_s140_6.0.0.dir/__/__/__/mesh/core/src/bearer_event.c.obj
 .bss.m_flag_count
                0x200052a0        0x4 examples/light_switch/provisioner/CMakeFiles/light_switch_provisioner_nrf52840_xxAA_s140_6.0.0.dir/__/__/__/mesh/core/src/bearer_event.c.obj
 .bss.m_flag_event_callbacks
                0x200052a4       0x20 examples/light_switch/provisioner/CMakeFiles/light_switch_provisioner_nrf52840_xxAA_s140_6.0.0.dir/__/__/__/mesh/core/src/bearer_event.c.obj
 .bss.m_flags   0x200052c4        0x4 examples/light_switch/provisioner/CMakeFiles/light_switch_provisioner_nrf52840_xxAA_s140_6.0.0.dir/__/__/__/mesh/core/src/bearer_event.c.obj
 .bss.m_irq_priority
                0x200052c8        0x1 examples/light_switch/provisioner/CMakeFiles/light_switch_provisioner_nrf52840_xxAA_s140_6.0.0.dir/__/__/__/mesh/core/src/bearer_event.c.obj
 *fill*         0x200052c9        0x3 
 .bss.m_sequential_event_queue
                0x200052cc        0x8 examples/light_switch/provisioner/CMakeFiles/light_switch_provisioner_nrf52840_xxAA_s140_6.0.0.dir/__/__/__/mesh/core/src/bearer_event.c.obj
 .bss.s_recursion_guard.9723
                0x200052d4        0x1 examples/light_switch/provisioner/CMakeFiles/light_switch_provisioner_nrf52840_xxAA_s140_6.0.0.dir/__/__/__/mesh/core/src/bearer_event.c.obj
 *fill*         0x200052d5        0x3 
 .bss.m_relay_check_cb
                0x200052d8        0x4 examples/light_switch/provisioner/CMakeFiles/light_switch_provisioner_nrf52840_xxAA_s140_6.0.0.dir/__/__/__/mesh/core/src/network.c.obj
 .bss.m_relay_enable
                0x200052dc        0x1 examples/light_switch/provisioner/CMakeFiles/light_switch_provisioner_nrf52840_xxAA_s140_6.0.0.dir/__/__/__/mesh/core/src/network.c.obj
 *fill*         0x200052dd        0x3 
 .bss.m_action_queue
                0x200052e0        0xc examples/light_switch/provisioner/CMakeFiles/light_switch_provisioner_nrf52840_xxAA_s140_6.0.0.dir/__/__/__/mesh/core/src/flash_manager.c.obj
 .bss.m_action_queue_buffer
                0x200052ec      0x104 examples/light_switch/provisioner/CMakeFiles/light_switch_provisioner_nrf52840_xxAA_s140_6.0.0.dir/__/__/__/mesh/core/src/flash_manager.c.obj
 .bss.m_action_state
                0x200053f0        0x1 examples/light_switch/provisioner/CMakeFiles/light_switch_provisioner_nrf52840_xxAA_s140_6.0.0.dir/__/__/__/mesh/core/src/flash_manager.c.obj
 *fill*         0x200053f1        0x3 
 .bss.m_memory_listener_queue
                0x200053f4        0x8 examples/light_switch/provisioner/CMakeFiles/light_switch_provisioner_nrf52840_xxAA_s140_6.0.0.dir/__/__/__/mesh/core/src/flash_manager.c.obj
 .bss.m_processing_flag
                0x200053fc        0x4 examples/light_switch/provisioner/CMakeFiles/light_switch_provisioner_nrf52840_xxAA_s140_6.0.0.dir/__/__/__/mesh/core/src/flash_manager.c.obj
 .bss.m_queue_empty_cb
                0x20005400        0x4 examples/light_switch/provisioner/CMakeFiles/light_switch_provisioner_nrf52840_xxAA_s140_6.0.0.dir/__/__/__/mesh/core/src/flash_manager.c.obj
 .bss.m_state   0x20005404        0x1 examples/light_switch/provisioner/CMakeFiles/light_switch_provisioner_nrf52840_xxAA_s140_6.0.0.dir/__/__/__/mesh/core/src/flash_manager.c.obj
 *fill*         0x20005405        0x1 
 .bss.m_token   0x20005406        0x2 examples/light_switch/provisioner/CMakeFiles/light_switch_provisioner_nrf52840_xxAA_s140_6.0.0.dir/__/__/__/mesh/core/src/flash_manager.c.obj
 .bss.p_current.11442
                0x20005408        0x4 examples/light_switch/provisioner/CMakeFiles/light_switch_provisioner_nrf52840_xxAA_s140_6.0.0.dir/__/__/__/mesh/core/src/flash_manager.c.obj
 .bss.result.11443
                0x2000540c        0x1 examples/light_switch/provisioner/CMakeFiles/light_switch_provisioner_nrf52840_xxAA_s140_6.0.0.dir/__/__/__/mesh/core/src/flash_manager.c.obj
 .bss.m_cache_index
                0x2000540d        0x1 examples/light_switch/provisioner/CMakeFiles/light_switch_provisioner_nrf52840_xxAA_s140_6.0.0.dir/__/__/__/mesh/core/src/replay_cache.c.obj
 *fill*         0x2000540e        0x2 
 .bss.m_replay_cache
                0x20005410      0x220 examples/light_switch/provisioner/CMakeFiles/light_switch_provisioner_nrf52840_xxAA_s140_6.0.0.dir/__/__/__/mesh/core/src/replay_cache.c.obj
 .bss.m_bearer_count
                0x20005630        0x1 examples/light_switch/provisioner/CMakeFiles/light_switch_provisioner_nrf52840_xxAA_s140_6.0.0.dir/__/__/__/mesh/core/src/core_tx.c.obj
 *fill*         0x20005631        0x3 
 .bss.m_tx_complete_callback
                0x20005634        0x4 examples/light_switch/provisioner/CMakeFiles/light_switch_provisioner_nrf52840_xxAA_s140_6.0.0.dir/__/__/__/mesh/core/src/core_tx.c.obj
 .bss.mp_bearers
                0x20005638        0x4 examples/light_switch/provisioner/CMakeFiles/light_switch_provisioner_nrf52840_xxAA_s140_6.0.0.dir/__/__/__/mesh/core/src/core_tx.c.obj
 .bss.m_hb_core_evt_handler
                0x2000563c        0x8 examples/light_switch/provisioner/CMakeFiles/light_switch_provisioner_nrf52840_xxAA_s140_6.0.0.dir/__/__/__/mesh/core/src/heartbeat.c.obj
 .bss.m_hb_pending_feat_msg
                0x20005644        0x1 examples/light_switch/provisioner/CMakeFiles/light_switch_provisioner_nrf52840_xxAA_s140_6.0.0.dir/__/__/__/mesh/core/src/heartbeat.c.obj
 .bss.m_hb_pending_pub_msg
                0x20005645        0x1 examples/light_switch/provisioner/CMakeFiles/light_switch_provisioner_nrf52840_xxAA_s140_6.0.0.dir/__/__/__/mesh/core/src/heartbeat.c.obj
 .bss.m_heartbeat_init_done
                0x20005646        0x1 examples/light_switch/provisioner/CMakeFiles/light_switch_provisioner_nrf52840_xxAA_s140_6.0.0.dir/__/__/__/mesh/core/src/heartbeat.c.obj
 *fill*         0x20005647        0x1 
 .bss.m_heartbeat_subscription
                0x20005648       0x10 examples/light_switch/provisioner/CMakeFiles/light_switch_provisioner_nrf52840_xxAA_s140_6.0.0.dir/__/__/__/mesh/core/src/heartbeat.c.obj
 .bss.m_publication_count_decrement_cb
                0x20005658        0x4 examples/light_switch/provisioner/CMakeFiles/light_switch_provisioner_nrf52840_xxAA_s140_6.0.0.dir/__/__/__/mesh/core/src/heartbeat.c.obj
 .bss.m_publication_get_cb
                0x2000565c        0x4 examples/light_switch/provisioner/CMakeFiles/light_switch_provisioner_nrf52840_xxAA_s140_6.0.0.dir/__/__/__/mesh/core/src/heartbeat.c.obj
 .bss.m_publication_timer
                0x20005660       0x1c examples/light_switch/provisioner/CMakeFiles/light_switch_provisioner_nrf52840_xxAA_s140_6.0.0.dir/__/__/__/mesh/core/src/heartbeat.c.obj
 .bss.m_subscription_timer
                0x2000567c       0x18 examples/light_switch/provisioner/CMakeFiles/light_switch_provisioner_nrf52840_xxAA_s140_6.0.0.dir/__/__/__/mesh/core/src/heartbeat.c.obj
 .bss.m_adv     0x20005694       0x98 examples/light_switch/provisioner/CMakeFiles/light_switch_provisioner_nrf52840_xxAA_s140_6.0.0.dir/__/__/__/mesh/core/src/net_beacon.c.obj
 .bss.m_adv_buf
                0x2000572c       0x34 examples/light_switch/provisioner/CMakeFiles/light_switch_provisioner_nrf52840_xxAA_s140_6.0.0.dir/__/__/__/mesh/core/src/net_beacon.c.obj
 .bss.m_beacon_salt
                0x20005760       0x10 examples/light_switch/provisioner/CMakeFiles/light_switch_provisioner_nrf52840_xxAA_s140_6.0.0.dir/__/__/__/mesh/core/src/net_beacon.c.obj
 .bss.m_enabled
                0x20005770        0x1 examples/light_switch/provisioner/CMakeFiles/light_switch_provisioner_nrf52840_xxAA_s140_6.0.0.dir/__/__/__/mesh/core/src/net_beacon.c.obj
 *fill*         0x20005771        0x3 
 .bss.m_tx_timer
                0x20005774       0x18 examples/light_switch/provisioner/CMakeFiles/light_switch_provisioner_nrf52840_xxAA_s140_6.0.0.dir/__/__/__/mesh/core/src/net_beacon.c.obj
 .bss.mp_beacon_info
                0x2000578c        0x4 examples/light_switch/provisioner/CMakeFiles/light_switch_provisioner_nrf52840_xxAA_s140_6.0.0.dir/__/__/__/mesh/core/src/net_beacon.c.obj
 .bss.m_bearer  0x20005790        0xc examples/light_switch/provisioner/CMakeFiles/light_switch_provisioner_nrf52840_xxAA_s140_6.0.0.dir/__/__/__/mesh/core/src/core_tx_adv.c.obj
 .bss.m_bearer_roles
                0x2000579c      0x138 examples/light_switch/provisioner/CMakeFiles/light_switch_provisioner_nrf52840_xxAA_s140_6.0.0.dir/__/__/__/mesh/core/src/core_tx_adv.c.obj
 .bss.m_current_alloc
                0x200058d4        0x8 examples/light_switch/provisioner/CMakeFiles/light_switch_provisioner_nrf52840_xxAA_s140_6.0.0.dir/__/__/__/mesh/core/src/core_tx_adv.c.obj
 .bss.m_originator_adv_packet_buffer
                0x200058dc      0x100 examples/light_switch/provisioner/CMakeFiles/light_switch_provisioner_nrf52840_xxAA_s140_6.0.0.dir/__/__/__/mesh/core/src/core_tx_adv.c.obj
 .bss.m_relay_adv_packet_buffer
                0x200059dc       0x80 examples/light_switch/provisioner/CMakeFiles/light_switch_provisioner_nrf52840_xxAA_s140_6.0.0.dir/__/__/__/mesh/core/src/core_tx_adv.c.obj
 .bss.m_subscribers
                0x20005a5c        0x4 examples/light_switch/provisioner/CMakeFiles/light_switch_provisioner_nrf52840_xxAA_s140_6.0.0.dir/__/__/__/mesh/bearer/src/ad_listener.c.obj
 .bss.m_adtype_filter
                0x20005a60       0x38 examples/light_switch/provisioner/CMakeFiles/light_switch_provisioner_nrf52840_xxAA_s140_6.0.0.dir/__/__/__/mesh/bearer/src/ad_type_filter.c.obj
 .bss.m_adv_prng
                0x20005a98       0x10 examples/light_switch/provisioner/CMakeFiles/light_switch_provisioner_nrf52840_xxAA_s140_6.0.0.dir/__/__/__/mesh/bearer/src/advertiser.c.obj
 .bss.m_action_queue
                0x20005aa8        0x8 examples/light_switch/provisioner/CMakeFiles/light_switch_provisioner_nrf52840_xxAA_s140_6.0.0.dir/__/__/__/mesh/bearer/src/bearer_handler.c.obj
 .bss.m_end_time
                0x20005ab0        0x4 examples/light_switch/provisioner/CMakeFiles/light_switch_provisioner_nrf52840_xxAA_s140_6.0.0.dir/__/__/__/mesh/bearer/src/bearer_handler.c.obj
 .bss.m_scanner_is_active
                0x20005ab4        0x1 examples/light_switch/provisioner/CMakeFiles/light_switch_provisioner_nrf52840_xxAA_s140_6.0.0.dir/__/__/__/mesh/bearer/src/bearer_handler.c.obj
 .bss.m_stopped
                0x20005ab5        0x1 examples/light_switch/provisioner/CMakeFiles/light_switch_provisioner_nrf52840_xxAA_s140_6.0.0.dir/__/__/__/mesh/bearer/src/bearer_handler.c.obj
 *fill*         0x20005ab6        0x2 
 .bss.mp_action
                0x20005ab8        0x4 examples/light_switch/provisioner/CMakeFiles/light_switch_provisioner_nrf52840_xxAA_s140_6.0.0.dir/__/__/__/mesh/bearer/src/bearer_handler.c.obj
 .bss.m_next_channel_index
                0x20005abc        0x1 examples/light_switch/provisioner/CMakeFiles/light_switch_provisioner_nrf52840_xxAA_s140_6.0.0.dir/__/__/__/mesh/bearer/src/broadcast.c.obj
 *fill*         0x20005abd        0x3 
 .bss.m_accepted_amount
                0x20005ac0        0x4 examples/light_switch/provisioner/CMakeFiles/light_switch_provisioner_nrf52840_xxAA_s140_6.0.0.dir/__/__/__/mesh/bearer/src/filter_engine.c.obj
 .bss.m_filter_list_head
                0x20005ac4        0x4 examples/light_switch/provisioner/CMakeFiles/light_switch_provisioner_nrf52840_xxAA_s140_6.0.0.dir/__/__/__/mesh/bearer/src/filter_engine.c.obj
 .bss.m_scanner
                0x20005ac8      0x290 examples/light_switch/provisioner/CMakeFiles/light_switch_provisioner_nrf52840_xxAA_s140_6.0.0.dir/__/__/__/mesh/bearer/src/scanner.c.obj
 .bss.m_client  0x20005d58        0x8 examples/light_switch/provisioner/CMakeFiles/light_switch_provisioner_nrf52840_xxAA_s140_6.0.0.dir/__/__/__/models/config/src/config_client.c.obj
 .bss.mp_packet_buffer
                0x20005d60        0x4 examples/light_switch/provisioner/CMakeFiles/light_switch_provisioner_nrf52840_xxAA_s140_6.0.0.dir/__/__/__/models/config/src/config_client.c.obj
 .bss.m_evt_cb  0x20005d64        0x4 examples/light_switch/provisioner/CMakeFiles/light_switch_provisioner_nrf52840_xxAA_s140_6.0.0.dir/__/__/__/models/config/src/config_server.c.obj
 .bss.m_heartbeat_publication
                0x20005d68       0x14 examples/light_switch/provisioner/CMakeFiles/light_switch_provisioner_nrf52840_xxAA_s140_6.0.0.dir/__/__/__/models/config/src/config_server.c.obj
 .bss.m_node_reset_pending
                0x20005d7c        0x1 examples/light_switch/provisioner/CMakeFiles/light_switch_provisioner_nrf52840_xxAA_s140_6.0.0.dir/__/__/__/models/config/src/config_server.c.obj
 *fill*         0x20005d7d        0x3 
 .bss.m_attention_timer
                0x20005d80       0x18 examples/light_switch/provisioner/CMakeFiles/light_switch_provisioner_nrf52840_xxAA_s140_6.0.0.dir/__/__/__/models/health/src/health_server.c.obj
 .bss.mp_attention_list
                0x20005d98        0x4 examples/light_switch/provisioner/CMakeFiles/light_switch_provisioner_nrf52840_xxAA_s140_6.0.0.dir/__/__/__/models/health/src/health_server.c.obj
 .bss.m_publish_timer
                0x20005d9c       0x18 examples/light_switch/provisioner/CMakeFiles/light_switch_provisioner_nrf52840_xxAA_s140_6.0.0.dir/__/__/__/mesh/access/src/access_publish.c.obj
 .bss.m_publish_timer_counter
                0x20005db4        0x4 examples/light_switch/provisioner/CMakeFiles/light_switch_provisioner_nrf52840_xxAA_s140_6.0.0.dir/__/__/__/mesh/access/src/access_publish.c.obj
 .bss.m_publish_timer_running
                0x20005db8        0x1 examples/light_switch/provisioner/CMakeFiles/light_switch_provisioner_nrf52840_xxAA_s140_6.0.0.dir/__/__/__/mesh/access/src/access_publish.c.obj
 .bss.m_timer_resolution
                0x20005db9        0x1 examples/light_switch/provisioner/CMakeFiles/light_switch_provisioner_nrf52840_xxAA_s140_6.0.0.dir/__/__/__/mesh/access/src/access_publish.c.obj
 *fill*         0x20005dba        0x2 
 .bss.mp_publication_list
                0x20005dbc        0x4 examples/light_switch/provisioner/CMakeFiles/light_switch_provisioner_nrf52840_xxAA_s140_6.0.0.dir/__/__/__/mesh/access/src/access_publish.c.obj
 .bss.m_element_pool
                0x20005dc0        0x6 examples/light_switch/provisioner/CMakeFiles/light_switch_provisioner_nrf52840_xxAA_s140_6.0.0.dir/__/__/__/mesh/access/src/access.c.obj
 *fill*         0x20005dc6        0x2 
 .bss.m_evt_handler
                0x20005dc8        0x8 examples/light_switch/provisioner/CMakeFiles/light_switch_provisioner_nrf52840_xxAA_s140_6.0.0.dir/__/__/__/mesh/access/src/access.c.obj
 .bss.m_flash_manager
                0x20005dd0       0x24 examples/light_switch/provisioner/CMakeFiles/light_switch_provisioner_nrf52840_xxAA_s140_6.0.0.dir/__/__/__/mesh/access/src/access.c.obj
 .bss.m_flash_not_ready
                0x20005df4        0x1 examples/light_switch/provisioner/CMakeFiles/light_switch_provisioner_nrf52840_xxAA_s140_6.0.0.dir/__/__/__/mesh/access/src/access.c.obj
 .bss.m_metadata_stored
                0x20005df5        0x1 examples/light_switch/provisioner/CMakeFiles/light_switch_provisioner_nrf52840_xxAA_s140_6.0.0.dir/__/__/__/mesh/access/src/access.c.obj
 *fill*         0x20005df6        0x2 
 .bss.m_model_pool
                0x20005df8       0xe0 examples/light_switch/provisioner/CMakeFiles/light_switch_provisioner_nrf52840_xxAA_s140_6.0.0.dir/__/__/__/mesh/access/src/access.c.obj
 .bss.m_subscription_list_pool
                0x20005ed8       0x30 examples/light_switch/provisioner/CMakeFiles/light_switch_provisioner_nrf52840_xxAA_s140_6.0.0.dir/__/__/__/mesh/access/src/access.c.obj
 .bss.m_reliable
                0x20005f08       0xcc examples/light_switch/provisioner/CMakeFiles/light_switch_provisioner_nrf52840_xxAA_s140_6.0.0.dir/__/__/__/mesh/access/src/access_reliable.c.obj
 .bss.m_addr_nonvirtual_allocated
                0x20005fd4        0x8 examples/light_switch/provisioner/CMakeFiles/light_switch_provisioner_nrf52840_xxAA_s140_6.0.0.dir/__/__/__/mesh/access/src/device_state_manager.c.obj
 .bss.m_addr_nonvirtual_needs_flashing
                0x20005fdc        0x8 examples/light_switch/provisioner/CMakeFiles/light_switch_provisioner_nrf52840_xxAA_s140_6.0.0.dir/__/__/__/mesh/access/src/device_state_manager.c.obj
 .bss.m_addr_unicast_allocated
                0x20005fe4        0x4 examples/light_switch/provisioner/CMakeFiles/light_switch_provisioner_nrf52840_xxAA_s140_6.0.0.dir/__/__/__/mesh/access/src/device_state_manager.c.obj
 .bss.m_addr_unicast_needs_flashing
                0x20005fe8        0x4 examples/light_switch/provisioner/CMakeFiles/light_switch_provisioner_nrf52840_xxAA_s140_6.0.0.dir/__/__/__/mesh/access/src/device_state_manager.c.obj
 .bss.m_addr_virtual_allocated
                0x20005fec        0x4 examples/light_switch/provisioner/CMakeFiles/light_switch_provisioner_nrf52840_xxAA_s140_6.0.0.dir/__/__/__/mesh/access/src/device_state_manager.c.obj
 .bss.m_addr_virtual_needs_flashing
                0x20005ff0        0x4 examples/light_switch/provisioner/CMakeFiles/light_switch_provisioner_nrf52840_xxAA_s140_6.0.0.dir/__/__/__/mesh/access/src/device_state_manager.c.obj
 .bss.m_addresses
                0x20005ff4       0x88 examples/light_switch/provisioner/CMakeFiles/light_switch_provisioner_nrf52840_xxAA_s140_6.0.0.dir/__/__/__/mesh/access/src/device_state_manager.c.obj
 .bss.m_appkey_allocated
                0x2000607c        0x4 examples/light_switch/provisioner/CMakeFiles/light_switch_provisioner_nrf52840_xxAA_s140_6.0.0.dir/__/__/__/mesh/access/src/device_state_manager.c.obj
 .bss.m_appkey_needs_flashing
                0x20006080        0x4 examples/light_switch/provisioner/CMakeFiles/light_switch_provisioner_nrf52840_xxAA_s140_6.0.0.dir/__/__/__/mesh/access/src/device_state_manager.c.obj
 .bss.m_appkeys
                0x20006084       0x2a examples/light_switch/provisioner/CMakeFiles/light_switch_provisioner_nrf52840_xxAA_s140_6.0.0.dir/__/__/__/mesh/access/src/device_state_manager.c.obj
 *fill*         0x200060ae        0x2 
 .bss.m_devkey_allocated
                0x200060b0        0x4 examples/light_switch/provisioner/CMakeFiles/light_switch_provisioner_nrf52840_xxAA_s140_6.0.0.dir/__/__/__/mesh/access/src/device_state_manager.c.obj
 .bss.m_devkey_needs_flashing
                0x200060b4        0x4 examples/light_switch/provisioner/CMakeFiles/light_switch_provisioner_nrf52840_xxAA_s140_6.0.0.dir/__/__/__/mesh/access/src/device_state_manager.c.obj
 .bss.m_devkeys
                0x200060b8      0x2c0 examples/light_switch/provisioner/CMakeFiles/light_switch_provisioner_nrf52840_xxAA_s140_6.0.0.dir/__/__/__/mesh/access/src/device_state_manager.c.obj
 .bss.m_flash_is_available
                0x20006378        0x1 examples/light_switch/provisioner/CMakeFiles/light_switch_provisioner_nrf52840_xxAA_s140_6.0.0.dir/__/__/__/mesh/access/src/device_state_manager.c.obj
 *fill*         0x20006379        0x3 
 .bss.m_flash_manager
                0x2000637c       0x24 examples/light_switch/provisioner/CMakeFiles/light_switch_provisioner_nrf52840_xxAA_s140_6.0.0.dir/__/__/__/mesh/access/src/device_state_manager.c.obj
 .bss.m_flash_mem_listener_update_all
                0x200063a0       0x10 examples/light_switch/provisioner/CMakeFiles/light_switch_provisioner_nrf52840_xxAA_s140_6.0.0.dir/__/__/__/mesh/access/src/device_state_manager.c.obj
 .bss.m_has_primary_subnet
                0x200063b0        0x1 examples/light_switch/provisioner/CMakeFiles/light_switch_provisioner_nrf52840_xxAA_s140_6.0.0.dir/__/__/__/mesh/access/src/device_state_manager.c.obj
 *fill*         0x200063b1        0x3 
 .bss.m_local_unicast_addr
                0x200063b4        0x4 examples/light_switch/provisioner/CMakeFiles/light_switch_provisioner_nrf52840_xxAA_s140_6.0.0.dir/__/__/__/mesh/access/src/device_state_manager.c.obj
 .bss.m_mesh_evt_handler
                0x200063b8        0x8 examples/light_switch/provisioner/CMakeFiles/light_switch_provisioner_nrf52840_xxAA_s140_6.0.0.dir/__/__/__/mesh/access/src/device_state_manager.c.obj
 .bss.m_subnet_allocated
                0x200063c0        0x4 examples/light_switch/provisioner/CMakeFiles/light_switch_provisioner_nrf52840_xxAA_s140_6.0.0.dir/__/__/__/mesh/access/src/device_state_manager.c.obj
 .bss.m_subnet_needs_flashing
                0x200063c4        0x4 examples/light_switch/provisioner/CMakeFiles/light_switch_provisioner_nrf52840_xxAA_s140_6.0.0.dir/__/__/__/mesh/access/src/device_state_manager.c.obj
 .bss.m_subnets
                0x200063c8       0xa8 examples/light_switch/provisioner/CMakeFiles/light_switch_provisioner_nrf52840_xxAA_s140_6.0.0.dir/__/__/__/mesh/access/src/device_state_manager.c.obj
 .bss.m_virtual_addresses
                0x20006470       0x14 examples/light_switch/provisioner/CMakeFiles/light_switch_provisioner_nrf52840_xxAA_s140_6.0.0.dir/__/__/__/mesh/access/src/device_state_manager.c.obj
 .bss.m_event_handler
                0x20006484        0x4 examples/light_switch/provisioner/CMakeFiles/light_switch_provisioner_nrf52840_xxAA_s140_6.0.0.dir/__/__/__/mesh/prov/src/prov_beacon.c.obj
 .bss.m_offload_ecdh
                0x20006488        0x1 examples/light_switch/provisioner/CMakeFiles/light_switch_provisioner_nrf52840_xxAA_s140_6.0.0.dir/__/__/__/mesh/prov/src/prov_utils.c.obj
 *fill*         0x20006489        0x3 
 .bss.mp_bearer_head
                0x2000648c        0x4 examples/light_switch/provisioner/CMakeFiles/light_switch_provisioner_nrf52840_xxAA_s140_6.0.0.dir/__/__/__/mesh/prov/src/prov_bearer_adv.c.obj
 .bss._acDownBuffer
                0x20006490       0x80 external/rtt/librtt_nrf52840_xxAA.a(SEGGER_RTT.c.obj)
 .bss._acUpBuffer
                0x20006510      0x400 external/rtt/librtt_nrf52840_xxAA.a(SEGGER_RTT.c.obj)
 .bss.__malloc_free_list
                0x20006910        0x4 c:/mesh/arm_gcc/bin/../lib/gcc/arm-none-eabi/6.3.1/../../../../arm-none-eabi/lib/thumb/v7e-m/fpv4-sp/hard\libc_nano.a(lib_a-nano-mallocr.o)
                0x20006910                __malloc_free_list
 .bss.__malloc_sbrk_start
                0x20006914        0x4 c:/mesh/arm_gcc/bin/../lib/gcc/arm-none-eabi/6.3.1/../../../../arm-none-eabi/lib/thumb/v7e-m/fpv4-sp/hard\libc_nano.a(lib_a-nano-mallocr.o)
                0x20006914                __malloc_sbrk_start
 .bss.heap_end.5239
                0x20006918        0x4 c:/mesh/arm_gcc/bin/../lib/gcc/arm-none-eabi/6.3.1/../../../../arm-none-eabi/lib/thumb/v7e-m/fpv4-sp/hard\libnosys.a(sbrk.o)
 *(COMMON)
 COMMON         0x2000691c        0xc examples/light_switch/provisioner/CMakeFiles/light_switch_provisioner_nrf52840_xxAA_s140_6.0.0.dir/__/__/common/src/mesh_softdevice_init.c.obj
                0x2000691c                nrf_nvic_state
 COMMON         0x20006928       0x24 examples/light_switch/provisioner/CMakeFiles/light_switch_provisioner_nrf52840_xxAA_s140_6.0.0.dir/__/__/__/mesh/core/src/core_tx.c.obj
                0x20006928                m_packet
 COMMON         0x2000694c       0x78 external/rtt/librtt_nrf52840_xxAA.a(SEGGER_RTT.c.obj)
                0x2000694c                _SEGGER_RTT
 COMMON         0x200069c4        0x4 c:/mesh/arm_gcc/bin/../lib/gcc/arm-none-eabi/6.3.1/../../../../arm-none-eabi/lib/thumb/v7e-m/fpv4-sp/hard\libc_nano.a(lib_a-reent.o)
                0x200069c4                errno
                0x200069c8                . = ALIGN (0x4)
                0x200069c8                __bss_end__ = .

.heap           0x200069c8     0x2000
                0x200069c8                __HeapBase = .
                0x200069c8                __end__ = .
                0x200069c8                PROVIDE (end, .)
 *(.heap*)
 .heap          0x200069c8     0x2000 examples/light_switch/provisioner/CMakeFiles/light_switch_provisioner_nrf52840_xxAA_s140_6.0.0.dir/C_/ver/mod/nRF5_SDK_15.0.0_a53641a/modules/nrfx/mdk/gcc_startup_nrf52840.S.obj
                0x200089c8                __HeapLimit = .

.stack_dummy    0x200069c8     0x2000
 *(.stack*)
 .stack         0x200069c8     0x2000 examples/light_switch/provisioner/CMakeFiles/light_switch_provisioner_nrf52840_xxAA_s140_6.0.0.dir/C_/ver/mod/nRF5_SDK_15.0.0_a53641a/modules/nrfx/mdk/gcc_startup_nrf52840.S.obj
                0x2003fd00                __StackTop = (ORIGIN (RAM) + LENGTH (RAM))
                0x2003dd00                __StackLimit = (__StackTop - SIZEOF (.stack_dummy))
                0x2003fd00                PROVIDE (__stack, __StackTop)
                0x00000001                ASSERT ((__StackLimit >= __HeapLimit), region RAM overflowed with stack)
                0x00000178                DataInitFlashUsed = (__bss_start__ - __data_start__)
                0x000203e8                CodeFlashUsed = (__etext - ORIGIN (FLASH))
                0x00020560                TotalFlashUsed = (CodeFlashUsed + DataInitFlashUsed)
                0x00000001                ASSERT ((TotalFlashUsed <= LENGTH (FLASH)), region FLASH overflowed with .data and user data)
OUTPUT(examples\light_switch\provisioner\light_switch_provisioner_nrf52840_xxAA_s140_6.0.0.elf elf32-littlearm)

.ARM.attributes
                0x00000000       0x30
 .ARM.attributes
                0x00000000       0x22 c:/mesh/arm_gcc/bin/../lib/gcc/arm-none-eabi/6.3.1/thumb/v7e-m/fpv4-sp/hard/crti.o
 .ARM.attributes
                0x00000022       0x34 c:/mesh/arm_gcc/bin/../lib/gcc/arm-none-eabi/6.3.1/thumb/v7e-m/fpv4-sp/hard/crtbegin.o
 .ARM.attributes
                0x00000056       0x20 c:/mesh/arm_gcc/bin/../lib/gcc/arm-none-eabi/6.3.1/../../../../arm-none-eabi/lib/thumb/v7e-m/fpv4-sp/hard/crt0.o
 .ARM.attributes
                0x00000076       0x39 examples/light_switch/provisioner/CMakeFiles/light_switch_provisioner_nrf52840_xxAA_s140_6.0.0.dir/src/main.c.obj
 .ARM.attributes
                0x000000af       0x39 examples/light_switch/provisioner/CMakeFiles/light_switch_provisioner_nrf52840_xxAA_s140_6.0.0.dir/__/__/__/mesh/stack/src/mesh_stack.c.obj
 .ARM.attributes
                0x000000e8       0x39 examples/light_switch/provisioner/CMakeFiles/light_switch_provisioner_nrf52840_xxAA_s140_6.0.0.dir/src/provisioner_helper.c.obj
 .ARM.attributes
                0x00000121       0x39 examples/light_switch/provisioner/CMakeFiles/light_switch_provisioner_nrf52840_xxAA_s140_6.0.0.dir/src/node_setup.c.obj
 .ARM.attributes
                0x0000015a       0x39 examples/light_switch/provisioner/CMakeFiles/light_switch_provisioner_nrf52840_xxAA_s140_6.0.0.dir/__/__/common/src/mesh_softdevice_init.c.obj
 .ARM.attributes
                0x00000193       0x39 examples/light_switch/provisioner/CMakeFiles/light_switch_provisioner_nrf52840_xxAA_s140_6.0.0.dir/__/__/common/src/rtt_input.c.obj
 .ARM.attributes
                0x000001cc       0x39 examples/light_switch/provisioner/CMakeFiles/light_switch_provisioner_nrf52840_xxAA_s140_6.0.0.dir/__/__/common/src/simple_hal.c.obj
 .ARM.attributes
                0x00000205       0x39 examples/light_switch/provisioner/CMakeFiles/light_switch_provisioner_nrf52840_xxAA_s140_6.0.0.dir/__/__/nrf_mesh_weak.c.obj
 .ARM.attributes
                0x0000023e       0x39 examples/light_switch/provisioner/CMakeFiles/light_switch_provisioner_nrf52840_xxAA_s140_6.0.0.dir/__/__/common/src/app_error_weak.c.obj
 .ARM.attributes
                0x00000277       0x39 examples/light_switch/provisioner/CMakeFiles/light_switch_provisioner_nrf52840_xxAA_s140_6.0.0.dir/__/__/common/src/assertion_handler_weak.c.obj
 .ARM.attributes
                0x000002b0       0x39 examples/light_switch/provisioner/CMakeFiles/light_switch_provisioner_nrf52840_xxAA_s140_6.0.0.dir/__/__/__/mesh/core/src/nrf_mesh_configure.c.obj
 .ARM.attributes
                0x000002e9       0x39 examples/light_switch/provisioner/CMakeFiles/light_switch_provisioner_nrf52840_xxAA_s140_6.0.0.dir/__/__/__/mesh/core/src/aes.c.obj
 .ARM.attributes
                0x00000322       0x39 examples/light_switch/provisioner/CMakeFiles/light_switch_provisioner_nrf52840_xxAA_s140_6.0.0.dir/__/__/__/mesh/core/src/msg_cache.c.obj
 .ARM.attributes
                0x0000035b       0x39 examples/light_switch/provisioner/CMakeFiles/light_switch_provisioner_nrf52840_xxAA_s140_6.0.0.dir/__/__/__/mesh/core/src/transport.c.obj
 .ARM.attributes
                0x00000394       0x39 examples/light_switch/provisioner/CMakeFiles/light_switch_provisioner_nrf52840_xxAA_s140_6.0.0.dir/__/__/__/mesh/core/src/event.c.obj
 .ARM.attributes
                0x000003cd       0x39 examples/light_switch/provisioner/CMakeFiles/light_switch_provisioner_nrf52840_xxAA_s140_6.0.0.dir/__/__/__/mesh/core/src/packet_buffer.c.obj
 .ARM.attributes
                0x00000406       0x39 examples/light_switch/provisioner/CMakeFiles/light_switch_provisioner_nrf52840_xxAA_s140_6.0.0.dir/__/__/__/mesh/core/src/flash_manager_defrag.c.obj
 .ARM.attributes
                0x0000043f       0x39 examples/light_switch/provisioner/CMakeFiles/light_switch_provisioner_nrf52840_xxAA_s140_6.0.0.dir/__/__/__/mesh/core/src/fifo.c.obj
 .ARM.attributes
                0x00000478       0x39 examples/light_switch/provisioner/CMakeFiles/light_switch_provisioner_nrf52840_xxAA_s140_6.0.0.dir/__/__/__/mesh/core/src/nrf_flash.c.obj
 .ARM.attributes
                0x000004b1       0x39 examples/light_switch/provisioner/CMakeFiles/light_switch_provisioner_nrf52840_xxAA_s140_6.0.0.dir/__/__/__/mesh/core/src/packet_mgr.c.obj
 .ARM.attributes
                0x000004ea       0x39 examples/light_switch/provisioner/CMakeFiles/light_switch_provisioner_nrf52840_xxAA_s140_6.0.0.dir/__/__/__/mesh/core/src/net_state.c.obj
 .ARM.attributes
                0x00000523       0x39 examples/light_switch/provisioner/CMakeFiles/light_switch_provisioner_nrf52840_xxAA_s140_6.0.0.dir/__/__/__/mesh/core/src/mesh_flash.c.obj
 .ARM.attributes
                0x0000055c       0x39 examples/light_switch/provisioner/CMakeFiles/light_switch_provisioner_nrf52840_xxAA_s140_6.0.0.dir/__/__/__/mesh/core/src/nrf_mesh_utils.c.obj
 .ARM.attributes
                0x00000595       0x39 examples/light_switch/provisioner/CMakeFiles/light_switch_provisioner_nrf52840_xxAA_s140_6.0.0.dir/__/__/__/mesh/core/src/nrf_mesh.c.obj
 .ARM.attributes
                0x000005ce       0x39 examples/light_switch/provisioner/CMakeFiles/light_switch_provisioner_nrf52840_xxAA_s140_6.0.0.dir/__/__/__/mesh/core/src/queue.c.obj
 .ARM.attributes
                0x00000607       0x39 examples/light_switch/provisioner/CMakeFiles/light_switch_provisioner_nrf52840_xxAA_s140_6.0.0.dir/__/__/__/mesh/core/src/hal.c.obj
 .ARM.attributes
                0x00000640       0x39 examples/light_switch/provisioner/CMakeFiles/light_switch_provisioner_nrf52840_xxAA_s140_6.0.0.dir/__/__/__/mesh/core/src/aes_cmac.c.obj
 .ARM.attributes
                0x00000679       0x39 examples/light_switch/provisioner/CMakeFiles/light_switch_provisioner_nrf52840_xxAA_s140_6.0.0.dir/__/__/__/mesh/core/src/timer_scheduler.c.obj
 .ARM.attributes
                0x000006b2       0x39 examples/light_switch/provisioner/CMakeFiles/light_switch_provisioner_nrf52840_xxAA_s140_6.0.0.dir/__/__/__/mesh/core/src/timer.c.obj
 .ARM.attributes
                0x000006eb       0x39 examples/light_switch/provisioner/CMakeFiles/light_switch_provisioner_nrf52840_xxAA_s140_6.0.0.dir/__/__/__/mesh/core/src/ticker.c.obj
 .ARM.attributes
                0x00000724       0x39 examples/light_switch/provisioner/CMakeFiles/light_switch_provisioner_nrf52840_xxAA_s140_6.0.0.dir/__/__/__/mesh/core/src/rand.c.obj
 .ARM.attributes
                0x0000075d       0x39 examples/light_switch/provisioner/CMakeFiles/light_switch_provisioner_nrf52840_xxAA_s140_6.0.0.dir/__/__/__/mesh/core/src/nrf_mesh_opt.c.obj
 .ARM.attributes
                0x00000796       0x39 examples/light_switch/provisioner/CMakeFiles/light_switch_provisioner_nrf52840_xxAA_s140_6.0.0.dir/__/__/__/mesh/core/src/timeslot.c.obj
 .ARM.attributes
                0x000007cf       0x39 examples/light_switch/provisioner/CMakeFiles/light_switch_provisioner_nrf52840_xxAA_s140_6.0.0.dir/__/__/__/mesh/core/src/bearer_event.c.obj
 .ARM.attributes
                0x00000808       0x39 examples/light_switch/provisioner/CMakeFiles/light_switch_provisioner_nrf52840_xxAA_s140_6.0.0.dir/__/__/__/mesh/core/src/enc.c.obj
 .ARM.attributes
                0x00000841       0x39 examples/light_switch/provisioner/CMakeFiles/light_switch_provisioner_nrf52840_xxAA_s140_6.0.0.dir/__/__/__/mesh/core/src/network.c.obj
 .ARM.attributes
                0x0000087a       0x39 examples/light_switch/provisioner/CMakeFiles/light_switch_provisioner_nrf52840_xxAA_s140_6.0.0.dir/__/__/__/mesh/core/src/net_packet.c.obj
 .ARM.attributes
                0x000008b3       0x39 examples/light_switch/provisioner/CMakeFiles/light_switch_provisioner_nrf52840_xxAA_s140_6.0.0.dir/__/__/__/mesh/core/src/msqueue.c.obj
 .ARM.attributes
                0x000008ec       0x39 examples/light_switch/provisioner/CMakeFiles/light_switch_provisioner_nrf52840_xxAA_s140_6.0.0.dir/__/__/__/mesh/core/src/nrf_mesh_keygen.c.obj
 .ARM.attributes
                0x00000925       0x39 examples/light_switch/provisioner/CMakeFiles/light_switch_provisioner_nrf52840_xxAA_s140_6.0.0.dir/__/__/__/mesh/core/src/list.c.obj
 .ARM.attributes
                0x0000095e       0x39 examples/light_switch/provisioner/CMakeFiles/light_switch_provisioner_nrf52840_xxAA_s140_6.0.0.dir/__/__/__/mesh/core/src/log.c.obj
 .ARM.attributes
                0x00000997       0x39 examples/light_switch/provisioner/CMakeFiles/light_switch_provisioner_nrf52840_xxAA_s140_6.0.0.dir/__/__/__/mesh/core/src/flash_manager.c.obj
 .ARM.attributes
                0x000009d0       0x39 examples/light_switch/provisioner/CMakeFiles/light_switch_provisioner_nrf52840_xxAA_s140_6.0.0.dir/__/__/__/mesh/core/src/ccm_soft.c.obj
 .ARM.attributes
                0x00000a09       0x39 examples/light_switch/provisioner/CMakeFiles/light_switch_provisioner_nrf52840_xxAA_s140_6.0.0.dir/__/__/__/mesh/core/src/replay_cache.c.obj
 .ARM.attributes
                0x00000a42       0x39 examples/light_switch/provisioner/CMakeFiles/light_switch_provisioner_nrf52840_xxAA_s140_6.0.0.dir/__/__/__/mesh/core/src/beacon.c.obj
 .ARM.attributes
                0x00000a7b       0x39 examples/light_switch/provisioner/CMakeFiles/light_switch_provisioner_nrf52840_xxAA_s140_6.0.0.dir/__/__/__/mesh/core/src/flash_manager_internal.c.obj
 .ARM.attributes
                0x00000ab4       0x39 examples/light_switch/provisioner/CMakeFiles/light_switch_provisioner_nrf52840_xxAA_s140_6.0.0.dir/__/__/__/mesh/core/src/core_tx.c.obj
 .ARM.attributes
                0x00000aed       0x39 examples/light_switch/provisioner/CMakeFiles/light_switch_provisioner_nrf52840_xxAA_s140_6.0.0.dir/__/__/__/mesh/core/src/heartbeat.c.obj
 .ARM.attributes
                0x00000b26       0x39 examples/light_switch/provisioner/CMakeFiles/light_switch_provisioner_nrf52840_xxAA_s140_6.0.0.dir/__/__/__/mesh/core/src/net_beacon.c.obj
 .ARM.attributes
                0x00000b5f       0x39 examples/light_switch/provisioner/CMakeFiles/light_switch_provisioner_nrf52840_xxAA_s140_6.0.0.dir/__/__/__/mesh/core/src/core_tx_adv.c.obj
 .ARM.attributes
                0x00000b98       0x39 examples/light_switch/provisioner/CMakeFiles/light_switch_provisioner_nrf52840_xxAA_s140_6.0.0.dir/__/__/__/mesh/bearer/src/ad_listener.c.obj
 .ARM.attributes
                0x00000bd1       0x39 examples/light_switch/provisioner/CMakeFiles/light_switch_provisioner_nrf52840_xxAA_s140_6.0.0.dir/__/__/__/mesh/bearer/src/ad_type_filter.c.obj
 .ARM.attributes
                0x00000c0a       0x39 examples/light_switch/provisioner/CMakeFiles/light_switch_provisioner_nrf52840_xxAA_s140_6.0.0.dir/__/__/__/mesh/bearer/src/advertiser.c.obj
 .ARM.attributes
                0x00000c43       0x39 examples/light_switch/provisioner/CMakeFiles/light_switch_provisioner_nrf52840_xxAA_s140_6.0.0.dir/__/__/__/mesh/bearer/src/bearer_handler.c.obj
 .ARM.attributes
                0x00000c7c       0x39 examples/light_switch/provisioner/CMakeFiles/light_switch_provisioner_nrf52840_xxAA_s140_6.0.0.dir/__/__/__/mesh/bearer/src/broadcast.c.obj
 .ARM.attributes
                0x00000cb5       0x39 examples/light_switch/provisioner/CMakeFiles/light_switch_provisioner_nrf52840_xxAA_s140_6.0.0.dir/__/__/__/mesh/bearer/src/filter_engine.c.obj
 .ARM.attributes
                0x00000cee       0x39 examples/light_switch/provisioner/CMakeFiles/light_switch_provisioner_nrf52840_xxAA_s140_6.0.0.dir/__/__/__/mesh/bearer/src/radio_config.c.obj
 .ARM.attributes
                0x00000d27       0x39 examples/light_switch/provisioner/CMakeFiles/light_switch_provisioner_nrf52840_xxAA_s140_6.0.0.dir/__/__/__/mesh/bearer/src/scanner.c.obj
 .ARM.attributes
                0x00000d60       0x39 examples/light_switch/provisioner/CMakeFiles/light_switch_provisioner_nrf52840_xxAA_s140_6.0.0.dir/__/__/__/models/config/src/config_client.c.obj
 .ARM.attributes
                0x00000d99       0x39 examples/light_switch/provisioner/CMakeFiles/light_switch_provisioner_nrf52840_xxAA_s140_6.0.0.dir/__/__/__/models/config/src/composition_data.c.obj
 .ARM.attributes
                0x00000dd2       0x39 examples/light_switch/provisioner/CMakeFiles/light_switch_provisioner_nrf52840_xxAA_s140_6.0.0.dir/__/__/__/models/config/src/config_server.c.obj
 .ARM.attributes
                0x00000e0b       0x39 examples/light_switch/provisioner/CMakeFiles/light_switch_provisioner_nrf52840_xxAA_s140_6.0.0.dir/__/__/__/models/config/src/packed_index_list.c.obj
 .ARM.attributes
                0x00000e44       0x39 examples/light_switch/provisioner/CMakeFiles/light_switch_provisioner_nrf52840_xxAA_s140_6.0.0.dir/__/__/__/models/health/src/health_server.c.obj
 .ARM.attributes
                0x00000e7d       0x39 examples/light_switch/provisioner/CMakeFiles/light_switch_provisioner_nrf52840_xxAA_s140_6.0.0.dir/__/__/__/models/health/src/health_client.c.obj
 .ARM.attributes
                0x00000eb6       0x39 examples/light_switch/provisioner/CMakeFiles/light_switch_provisioner_nrf52840_xxAA_s140_6.0.0.dir/__/__/__/mesh/access/src/access_publish.c.obj
 .ARM.attributes
                0x00000eef       0x39 examples/light_switch/provisioner/CMakeFiles/light_switch_provisioner_nrf52840_xxAA_s140_6.0.0.dir/__/__/__/mesh/access/src/access.c.obj
 .ARM.attributes
                0x00000f28       0x39 examples/light_switch/provisioner/CMakeFiles/light_switch_provisioner_nrf52840_xxAA_s140_6.0.0.dir/__/__/__/mesh/access/src/access_reliable.c.obj
 .ARM.attributes
                0x00000f61       0x39 examples/light_switch/provisioner/CMakeFiles/light_switch_provisioner_nrf52840_xxAA_s140_6.0.0.dir/__/__/__/mesh/access/src/device_state_manager.c.obj
 .ARM.attributes
                0x00000f9a       0x39 examples/light_switch/provisioner/CMakeFiles/light_switch_provisioner_nrf52840_xxAA_s140_6.0.0.dir/__/__/__/mesh/prov/src/prov_provisioner.c.obj
 .ARM.attributes
                0x00000fd3       0x39 examples/light_switch/provisioner/CMakeFiles/light_switch_provisioner_nrf52840_xxAA_s140_6.0.0.dir/__/__/__/mesh/prov/src/nrf_mesh_prov.c.obj
 .ARM.attributes
                0x0000100c       0x39 examples/light_switch/provisioner/CMakeFiles/light_switch_provisioner_nrf52840_xxAA_s140_6.0.0.dir/__/__/__/mesh/prov/src/provisioning.c.obj
 .ARM.attributes
                0x00001045       0x39 examples/light_switch/provisioner/CMakeFiles/light_switch_provisioner_nrf52840_xxAA_s140_6.0.0.dir/__/__/__/mesh/prov/src/prov_beacon.c.obj
 .ARM.attributes
                0x0000107e       0x39 examples/light_switch/provisioner/CMakeFiles/light_switch_provisioner_nrf52840_xxAA_s140_6.0.0.dir/__/__/__/mesh/prov/src/prov_utils.c.obj
 .ARM.attributes
                0x000010b7       0x39 examples/light_switch/provisioner/CMakeFiles/light_switch_provisioner_nrf52840_xxAA_s140_6.0.0.dir/__/__/__/mesh/prov/src/prov_bearer_adv.c.obj
 .ARM.attributes
                0x000010f0       0x39 examples/light_switch/provisioner/CMakeFiles/light_switch_provisioner_nrf52840_xxAA_s140_6.0.0.dir/C_/ver/mod/nRF5_SDK_15.0.0_a53641a/modules/nrfx/mdk/system_nrf52840.c.obj
 .ARM.attributes
                0x00001129       0x20 examples/light_switch/provisioner/CMakeFiles/light_switch_provisioner_nrf52840_xxAA_s140_6.0.0.dir/C_/ver/mod/nRF5_SDK_15.0.0_a53641a/modules/nrfx/mdk/gcc_startup_nrf52840.S.obj
 .ARM.attributes
                0x00001149       0x39 examples/light_switch/provisioner/CMakeFiles/light_switch_provisioner_nrf52840_xxAA_s140_6.0.0.dir/C_/ver/mod/nRF5_SDK_15.0.0_a53641a/components/libraries/util/app_error_handler_gcc.c.obj
 .ARM.attributes
                0x00001182       0x39 external/rtt/librtt_nrf52840_xxAA.a(SEGGER_RTT.c.obj)
 .ARM.attributes
                0x000011bb       0x39 external/rtt/librtt_nrf52840_xxAA.a(SEGGER_RTT_printf.c.obj)
 .ARM.attributes
                0x000011f4       0x39 external/micro-ecc/libuECC_nrf52840_xxAA.a(uECC.c.obj)
 .ARM.attributes
                0x0000122d       0x22 c:/mesh/arm_gcc/bin/../lib/gcc/arm-none-eabi/6.3.1/thumb/v7e-m/fpv4-sp/hard\libgcc.a(_aeabi_uldivmod.o)
 .ARM.attributes
                0x0000124f       0x34 c:/mesh/arm_gcc/bin/../lib/gcc/arm-none-eabi/6.3.1/thumb/v7e-m/fpv4-sp/hard\libgcc.a(_udivmoddi4.o)
 .ARM.attributes
                0x00001283       0x22 c:/mesh/arm_gcc/bin/../lib/gcc/arm-none-eabi/6.3.1/thumb/v7e-m/fpv4-sp/hard\libgcc.a(_dvmd_tls.o)
 .ARM.attributes
                0x000012a5       0x34 c:/mesh/arm_gcc/bin/../lib/gcc/arm-none-eabi/6.3.1/../../../../arm-none-eabi/lib/thumb/v7e-m/fpv4-sp/hard\libc_nano.a(lib_a-exit.o)
 .ARM.attributes
                0x000012d9       0x34 c:/mesh/arm_gcc/bin/../lib/gcc/arm-none-eabi/6.3.1/../../../../arm-none-eabi/lib/thumb/v7e-m/fpv4-sp/hard\libc_nano.a(lib_a-impure.o)
 .ARM.attributes
                0x0000130d       0x34 c:/mesh/arm_gcc/bin/../lib/gcc/arm-none-eabi/6.3.1/../../../../arm-none-eabi/lib/thumb/v7e-m/fpv4-sp/hard\libc_nano.a(lib_a-init.o)
 .ARM.attributes
                0x00001341       0x34 c:/mesh/arm_gcc/bin/../lib/gcc/arm-none-eabi/6.3.1/../../../../arm-none-eabi/lib/thumb/v7e-m/fpv4-sp/hard\libc_nano.a(lib_a-malloc.o)
 .ARM.attributes
                0x00001375       0x34 c:/mesh/arm_gcc/bin/../lib/gcc/arm-none-eabi/6.3.1/../../../../arm-none-eabi/lib/thumb/v7e-m/fpv4-sp/hard\libc_nano.a(lib_a-memcmp.o)
 .ARM.attributes
                0x000013a9       0x34 c:/mesh/arm_gcc/bin/../lib/gcc/arm-none-eabi/6.3.1/../../../../arm-none-eabi/lib/thumb/v7e-m/fpv4-sp/hard\libc_nano.a(lib_a-memcpy-stub.o)
 .ARM.attributes
                0x000013dd       0x34 c:/mesh/arm_gcc/bin/../lib/gcc/arm-none-eabi/6.3.1/../../../../arm-none-eabi/lib/thumb/v7e-m/fpv4-sp/hard\libc_nano.a(lib_a-memset.o)
 .ARM.attributes
                0x00001411       0x34 c:/mesh/arm_gcc/bin/../lib/gcc/arm-none-eabi/6.3.1/../../../../arm-none-eabi/lib/thumb/v7e-m/fpv4-sp/hard\libc_nano.a(lib_a-nano-freer.o)
 .ARM.attributes
                0x00001445       0x34 c:/mesh/arm_gcc/bin/../lib/gcc/arm-none-eabi/6.3.1/../../../../arm-none-eabi/lib/thumb/v7e-m/fpv4-sp/hard\libc_nano.a(lib_a-nano-mallocr.o)
 .ARM.attributes
                0x00001479       0x34 c:/mesh/arm_gcc/bin/../lib/gcc/arm-none-eabi/6.3.1/../../../../arm-none-eabi/lib/thumb/v7e-m/fpv4-sp/hard\libc_nano.a(lib_a-sbrkr.o)
 .ARM.attributes
                0x000014ad       0x34 c:/mesh/arm_gcc/bin/../lib/gcc/arm-none-eabi/6.3.1/../../../../arm-none-eabi/lib/thumb/v7e-m/fpv4-sp/hard\libc_nano.a(lib_a-strcpy.o)
 .ARM.attributes
                0x000014e1       0x1b c:/mesh/arm_gcc/bin/../lib/gcc/arm-none-eabi/6.3.1/../../../../arm-none-eabi/lib/thumb/v7e-m/fpv4-sp/hard\libc_nano.a(lib_a-strlen.o)
 .ARM.attributes
                0x000014fc       0x34 c:/mesh/arm_gcc/bin/../lib/gcc/arm-none-eabi/6.3.1/../../../../arm-none-eabi/lib/thumb/v7e-m/fpv4-sp/hard\libc_nano.a(lib_a-strrchr.o)
 .ARM.attributes
                0x00001530       0x34 c:/mesh/arm_gcc/bin/../lib/gcc/arm-none-eabi/6.3.1/../../../../arm-none-eabi/lib/thumb/v7e-m/fpv4-sp/hard\libc_nano.a(lib_a-mlock.o)
 .ARM.attributes
                0x00001564       0x34 c:/mesh/arm_gcc/bin/../lib/gcc/arm-none-eabi/6.3.1/../../../../arm-none-eabi/lib/thumb/v7e-m/fpv4-sp/hard\libc_nano.a(lib_a-reent.o)
 .ARM.attributes
                0x00001598       0x34 c:/mesh/arm_gcc/bin/../lib/gcc/arm-none-eabi/6.3.1/../../../../arm-none-eabi/lib/thumb/v7e-m/fpv4-sp/hard\libc_nano.a(lib_a-strchr.o)
 .ARM.attributes
                0x000015cc       0x34 c:/mesh/arm_gcc/bin/../lib/gcc/arm-none-eabi/6.3.1/thumb/v7e-m/fpv4-sp/hard/crtend.o
 .ARM.attributes
                0x00001600       0x22 c:/mesh/arm_gcc/bin/../lib/gcc/arm-none-eabi/6.3.1/thumb/v7e-m/fpv4-sp/hard/crtn.o
 .ARM.attributes
                0x00001622       0x34 c:/mesh/arm_gcc/bin/../lib/gcc/arm-none-eabi/6.3.1/../../../../arm-none-eabi/lib/thumb/v7e-m/fpv4-sp/hard\libnosys.a(sbrk.o)
 .ARM.attributes
                0x00001656       0x34 c:/mesh/arm_gcc/bin/../lib/gcc/arm-none-eabi/6.3.1/../../../../arm-none-eabi/lib/thumb/v7e-m/fpv4-sp/hard\libnosys.a(_exit.o)

.comment        0x00000000       0x7f
 .comment       0x00000000       0x7f examples/light_switch/provisioner/CMakeFiles/light_switch_provisioner_nrf52840_xxAA_s140_6.0.0.dir/src/main.c.obj
                                 0x80 (size before relaxing)
 .comment       0x0000007f       0x80 examples/light_switch/provisioner/CMakeFiles/light_switch_provisioner_nrf52840_xxAA_s140_6.0.0.dir/__/__/__/mesh/stack/src/mesh_stack.c.obj
 .comment       0x0000007f       0x80 examples/light_switch/provisioner/CMakeFiles/light_switch_provisioner_nrf52840_xxAA_s140_6.0.0.dir/src/provisioner_helper.c.obj
 .comment       0x0000007f       0x80 examples/light_switch/provisioner/CMakeFiles/light_switch_provisioner_nrf52840_xxAA_s140_6.0.0.dir/src/node_setup.c.obj
 .comment       0x0000007f       0x80 examples/light_switch/provisioner/CMakeFiles/light_switch_provisioner_nrf52840_xxAA_s140_6.0.0.dir/__/__/common/src/mesh_softdevice_init.c.obj
 .comment       0x0000007f       0x80 examples/light_switch/provisioner/CMakeFiles/light_switch_provisioner_nrf52840_xxAA_s140_6.0.0.dir/__/__/common/src/rtt_input.c.obj
 .comment       0x0000007f       0x80 examples/light_switch/provisioner/CMakeFiles/light_switch_provisioner_nrf52840_xxAA_s140_6.0.0.dir/__/__/common/src/simple_hal.c.obj
 .comment       0x0000007f       0x80 examples/light_switch/provisioner/CMakeFiles/light_switch_provisioner_nrf52840_xxAA_s140_6.0.0.dir/__/__/nrf_mesh_weak.c.obj
 .comment       0x0000007f       0x80 examples/light_switch/provisioner/CMakeFiles/light_switch_provisioner_nrf52840_xxAA_s140_6.0.0.dir/__/__/common/src/app_error_weak.c.obj
 .comment       0x0000007f       0x80 examples/light_switch/provisioner/CMakeFiles/light_switch_provisioner_nrf52840_xxAA_s140_6.0.0.dir/__/__/common/src/assertion_handler_weak.c.obj
 .comment       0x0000007f       0x80 examples/light_switch/provisioner/CMakeFiles/light_switch_provisioner_nrf52840_xxAA_s140_6.0.0.dir/__/__/__/mesh/core/src/nrf_mesh_configure.c.obj
 .comment       0x0000007f       0x80 examples/light_switch/provisioner/CMakeFiles/light_switch_provisioner_nrf52840_xxAA_s140_6.0.0.dir/__/__/__/mesh/core/src/aes.c.obj
 .comment       0x0000007f       0x80 examples/light_switch/provisioner/CMakeFiles/light_switch_provisioner_nrf52840_xxAA_s140_6.0.0.dir/__/__/__/mesh/core/src/msg_cache.c.obj
 .comment       0x0000007f       0x80 examples/light_switch/provisioner/CMakeFiles/light_switch_provisioner_nrf52840_xxAA_s140_6.0.0.dir/__/__/__/mesh/core/src/transport.c.obj
 .comment       0x0000007f       0x80 examples/light_switch/provisioner/CMakeFiles/light_switch_provisioner_nrf52840_xxAA_s140_6.0.0.dir/__/__/__/mesh/core/src/event.c.obj
 .comment       0x0000007f       0x80 examples/light_switch/provisioner/CMakeFiles/light_switch_provisioner_nrf52840_xxAA_s140_6.0.0.dir/__/__/__/mesh/core/src/packet_buffer.c.obj
 .comment       0x0000007f       0x80 examples/light_switch/provisioner/CMakeFiles/light_switch_provisioner_nrf52840_xxAA_s140_6.0.0.dir/__/__/__/mesh/core/src/flash_manager_defrag.c.obj
 .comment       0x0000007f       0x80 examples/light_switch/provisioner/CMakeFiles/light_switch_provisioner_nrf52840_xxAA_s140_6.0.0.dir/__/__/__/mesh/core/src/fifo.c.obj
 .comment       0x0000007f       0x80 examples/light_switch/provisioner/CMakeFiles/light_switch_provisioner_nrf52840_xxAA_s140_6.0.0.dir/__/__/__/mesh/core/src/nrf_flash.c.obj
 .comment       0x0000007f       0x80 examples/light_switch/provisioner/CMakeFiles/light_switch_provisioner_nrf52840_xxAA_s140_6.0.0.dir/__/__/__/mesh/core/src/packet_mgr.c.obj
 .comment       0x0000007f       0x80 examples/light_switch/provisioner/CMakeFiles/light_switch_provisioner_nrf52840_xxAA_s140_6.0.0.dir/__/__/__/mesh/core/src/net_state.c.obj
 .comment       0x0000007f       0x80 examples/light_switch/provisioner/CMakeFiles/light_switch_provisioner_nrf52840_xxAA_s140_6.0.0.dir/__/__/__/mesh/core/src/mesh_flash.c.obj
 .comment       0x0000007f       0x80 examples/light_switch/provisioner/CMakeFiles/light_switch_provisioner_nrf52840_xxAA_s140_6.0.0.dir/__/__/__/mesh/core/src/nrf_mesh_utils.c.obj
 .comment       0x0000007f       0x80 examples/light_switch/provisioner/CMakeFiles/light_switch_provisioner_nrf52840_xxAA_s140_6.0.0.dir/__/__/__/mesh/core/src/nrf_mesh.c.obj
 .comment       0x0000007f       0x80 examples/light_switch/provisioner/CMakeFiles/light_switch_provisioner_nrf52840_xxAA_s140_6.0.0.dir/__/__/__/mesh/core/src/queue.c.obj
 .comment       0x0000007f       0x80 examples/light_switch/provisioner/CMakeFiles/light_switch_provisioner_nrf52840_xxAA_s140_6.0.0.dir/__/__/__/mesh/core/src/hal.c.obj
 .comment       0x0000007f       0x80 examples/light_switch/provisioner/CMakeFiles/light_switch_provisioner_nrf52840_xxAA_s140_6.0.0.dir/__/__/__/mesh/core/src/aes_cmac.c.obj
 .comment       0x0000007f       0x80 examples/light_switch/provisioner/CMakeFiles/light_switch_provisioner_nrf52840_xxAA_s140_6.0.0.dir/__/__/__/mesh/core/src/timer_scheduler.c.obj
 .comment       0x0000007f       0x80 examples/light_switch/provisioner/CMakeFiles/light_switch_provisioner_nrf52840_xxAA_s140_6.0.0.dir/__/__/__/mesh/core/src/timer.c.obj
 .comment       0x0000007f       0x80 examples/light_switch/provisioner/CMakeFiles/light_switch_provisioner_nrf52840_xxAA_s140_6.0.0.dir/__/__/__/mesh/core/src/ticker.c.obj
 .comment       0x0000007f       0x80 examples/light_switch/provisioner/CMakeFiles/light_switch_provisioner_nrf52840_xxAA_s140_6.0.0.dir/__/__/__/mesh/core/src/rand.c.obj
 .comment       0x0000007f       0x80 examples/light_switch/provisioner/CMakeFiles/light_switch_provisioner_nrf52840_xxAA_s140_6.0.0.dir/__/__/__/mesh/core/src/nrf_mesh_opt.c.obj
 .comment       0x0000007f       0x80 examples/light_switch/provisioner/CMakeFiles/light_switch_provisioner_nrf52840_xxAA_s140_6.0.0.dir/__/__/__/mesh/core/src/timeslot.c.obj
 .comment       0x0000007f       0x80 examples/light_switch/provisioner/CMakeFiles/light_switch_provisioner_nrf52840_xxAA_s140_6.0.0.dir/__/__/__/mesh/core/src/bearer_event.c.obj
 .comment       0x0000007f       0x80 examples/light_switch/provisioner/CMakeFiles/light_switch_provisioner_nrf52840_xxAA_s140_6.0.0.dir/__/__/__/mesh/core/src/enc.c.obj
 .comment       0x0000007f       0x80 examples/light_switch/provisioner/CMakeFiles/light_switch_provisioner_nrf52840_xxAA_s140_6.0.0.dir/__/__/__/mesh/core/src/network.c.obj
 .comment       0x0000007f       0x80 examples/light_switch/provisioner/CMakeFiles/light_switch_provisioner_nrf52840_xxAA_s140_6.0.0.dir/__/__/__/mesh/core/src/net_packet.c.obj
 .comment       0x0000007f       0x80 examples/light_switch/provisioner/CMakeFiles/light_switch_provisioner_nrf52840_xxAA_s140_6.0.0.dir/__/__/__/mesh/core/src/msqueue.c.obj
 .comment       0x0000007f       0x80 examples/light_switch/provisioner/CMakeFiles/light_switch_provisioner_nrf52840_xxAA_s140_6.0.0.dir/__/__/__/mesh/core/src/nrf_mesh_keygen.c.obj
 .comment       0x0000007f       0x80 examples/light_switch/provisioner/CMakeFiles/light_switch_provisioner_nrf52840_xxAA_s140_6.0.0.dir/__/__/__/mesh/core/src/list.c.obj
 .comment       0x0000007f       0x80 examples/light_switch/provisioner/CMakeFiles/light_switch_provisioner_nrf52840_xxAA_s140_6.0.0.dir/__/__/__/mesh/core/src/log.c.obj
 .comment       0x0000007f       0x80 examples/light_switch/provisioner/CMakeFiles/light_switch_provisioner_nrf52840_xxAA_s140_6.0.0.dir/__/__/__/mesh/core/src/flash_manager.c.obj
 .comment       0x0000007f       0x80 examples/light_switch/provisioner/CMakeFiles/light_switch_provisioner_nrf52840_xxAA_s140_6.0.0.dir/__/__/__/mesh/core/src/ccm_soft.c.obj
 .comment       0x0000007f       0x80 examples/light_switch/provisioner/CMakeFiles/light_switch_provisioner_nrf52840_xxAA_s140_6.0.0.dir/__/__/__/mesh/core/src/replay_cache.c.obj
 .comment       0x0000007f       0x80 examples/light_switch/provisioner/CMakeFiles/light_switch_provisioner_nrf52840_xxAA_s140_6.0.0.dir/__/__/__/mesh/core/src/beacon.c.obj
 .comment       0x0000007f       0x80 examples/light_switch/provisioner/CMakeFiles/light_switch_provisioner_nrf52840_xxAA_s140_6.0.0.dir/__/__/__/mesh/core/src/flash_manager_internal.c.obj
 .comment       0x0000007f       0x80 examples/light_switch/provisioner/CMakeFiles/light_switch_provisioner_nrf52840_xxAA_s140_6.0.0.dir/__/__/__/mesh/core/src/core_tx.c.obj
 .comment       0x0000007f       0x80 examples/light_switch/provisioner/CMakeFiles/light_switch_provisioner_nrf52840_xxAA_s140_6.0.0.dir/__/__/__/mesh/core/src/heartbeat.c.obj
 .comment       0x0000007f       0x80 examples/light_switch/provisioner/CMakeFiles/light_switch_provisioner_nrf52840_xxAA_s140_6.0.0.dir/__/__/__/mesh/core/src/net_beacon.c.obj
 .comment       0x0000007f       0x80 examples/light_switch/provisioner/CMakeFiles/light_switch_provisioner_nrf52840_xxAA_s140_6.0.0.dir/__/__/__/mesh/core/src/core_tx_adv.c.obj
 .comment       0x0000007f       0x80 examples/light_switch/provisioner/CMakeFiles/light_switch_provisioner_nrf52840_xxAA_s140_6.0.0.dir/__/__/__/mesh/bearer/src/ad_listener.c.obj
 .comment       0x0000007f       0x80 examples/light_switch/provisioner/CMakeFiles/light_switch_provisioner_nrf52840_xxAA_s140_6.0.0.dir/__/__/__/mesh/bearer/src/ad_type_filter.c.obj
 .comment       0x0000007f       0x80 examples/light_switch/provisioner/CMakeFiles/light_switch_provisioner_nrf52840_xxAA_s140_6.0.0.dir/__/__/__/mesh/bearer/src/advertiser.c.obj
 .comment       0x0000007f       0x80 examples/light_switch/provisioner/CMakeFiles/light_switch_provisioner_nrf52840_xxAA_s140_6.0.0.dir/__/__/__/mesh/bearer/src/bearer_handler.c.obj
 .comment       0x0000007f       0x80 examples/light_switch/provisioner/CMakeFiles/light_switch_provisioner_nrf52840_xxAA_s140_6.0.0.dir/__/__/__/mesh/bearer/src/broadcast.c.obj
 .comment       0x0000007f       0x80 examples/light_switch/provisioner/CMakeFiles/light_switch_provisioner_nrf52840_xxAA_s140_6.0.0.dir/__/__/__/mesh/bearer/src/filter_engine.c.obj
 .comment       0x0000007f       0x80 examples/light_switch/provisioner/CMakeFiles/light_switch_provisioner_nrf52840_xxAA_s140_6.0.0.dir/__/__/__/mesh/bearer/src/radio_config.c.obj
 .comment       0x0000007f       0x80 examples/light_switch/provisioner/CMakeFiles/light_switch_provisioner_nrf52840_xxAA_s140_6.0.0.dir/__/__/__/mesh/bearer/src/scanner.c.obj
 .comment       0x0000007f       0x80 examples/light_switch/provisioner/CMakeFiles/light_switch_provisioner_nrf52840_xxAA_s140_6.0.0.dir/__/__/__/models/config/src/config_client.c.obj
 .comment       0x0000007f       0x80 examples/light_switch/provisioner/CMakeFiles/light_switch_provisioner_nrf52840_xxAA_s140_6.0.0.dir/__/__/__/models/config/src/composition_data.c.obj
 .comment       0x0000007f       0x80 examples/light_switch/provisioner/CMakeFiles/light_switch_provisioner_nrf52840_xxAA_s140_6.0.0.dir/__/__/__/models/config/src/config_server.c.obj
 .comment       0x0000007f       0x80 examples/light_switch/provisioner/CMakeFiles/light_switch_provisioner_nrf52840_xxAA_s140_6.0.0.dir/__/__/__/models/config/src/packed_index_list.c.obj
 .comment       0x0000007f       0x80 examples/light_switch/provisioner/CMakeFiles/light_switch_provisioner_nrf52840_xxAA_s140_6.0.0.dir/__/__/__/models/health/src/health_server.c.obj
 .comment       0x0000007f       0x80 examples/light_switch/provisioner/CMakeFiles/light_switch_provisioner_nrf52840_xxAA_s140_6.0.0.dir/__/__/__/models/health/src/health_client.c.obj
 .comment       0x0000007f       0x80 examples/light_switch/provisioner/CMakeFiles/light_switch_provisioner_nrf52840_xxAA_s140_6.0.0.dir/__/__/__/mesh/access/src/access_publish.c.obj
 .comment       0x0000007f       0x80 examples/light_switch/provisioner/CMakeFiles/light_switch_provisioner_nrf52840_xxAA_s140_6.0.0.dir/__/__/__/mesh/access/src/access.c.obj
 .comment       0x0000007f       0x80 examples/light_switch/provisioner/CMakeFiles/light_switch_provisioner_nrf52840_xxAA_s140_6.0.0.dir/__/__/__/mesh/access/src/access_reliable.c.obj
 .comment       0x0000007f       0x80 examples/light_switch/provisioner/CMakeFiles/light_switch_provisioner_nrf52840_xxAA_s140_6.0.0.dir/__/__/__/mesh/access/src/device_state_manager.c.obj
 .comment       0x0000007f       0x80 examples/light_switch/provisioner/CMakeFiles/light_switch_provisioner_nrf52840_xxAA_s140_6.0.0.dir/__/__/__/mesh/prov/src/prov_provisioner.c.obj
 .comment       0x0000007f       0x80 examples/light_switch/provisioner/CMakeFiles/light_switch_provisioner_nrf52840_xxAA_s140_6.0.0.dir/__/__/__/mesh/prov/src/nrf_mesh_prov.c.obj
 .comment       0x0000007f       0x80 examples/light_switch/provisioner/CMakeFiles/light_switch_provisioner_nrf52840_xxAA_s140_6.0.0.dir/__/__/__/mesh/prov/src/provisioning.c.obj
 .comment       0x0000007f       0x80 examples/light_switch/provisioner/CMakeFiles/light_switch_provisioner_nrf52840_xxAA_s140_6.0.0.dir/__/__/__/mesh/prov/src/prov_beacon.c.obj
 .comment       0x0000007f       0x80 examples/light_switch/provisioner/CMakeFiles/light_switch_provisioner_nrf52840_xxAA_s140_6.0.0.dir/__/__/__/mesh/prov/src/prov_utils.c.obj
 .comment       0x0000007f       0x80 examples/light_switch/provisioner/CMakeFiles/light_switch_provisioner_nrf52840_xxAA_s140_6.0.0.dir/__/__/__/mesh/prov/src/prov_bearer_adv.c.obj
 .comment       0x0000007f       0x80 examples/light_switch/provisioner/CMakeFiles/light_switch_provisioner_nrf52840_xxAA_s140_6.0.0.dir/C_/ver/mod/nRF5_SDK_15.0.0_a53641a/modules/nrfx/mdk/system_nrf52840.c.obj
 .comment       0x0000007f       0x80 examples/light_switch/provisioner/CMakeFiles/light_switch_provisioner_nrf52840_xxAA_s140_6.0.0.dir/C_/ver/mod/nRF5_SDK_15.0.0_a53641a/components/libraries/util/app_error_handler_gcc.c.obj
 .comment       0x0000007f       0x80 external/rtt/librtt_nrf52840_xxAA.a(SEGGER_RTT.c.obj)
 .comment       0x0000007f       0x80 external/rtt/librtt_nrf52840_xxAA.a(SEGGER_RTT_printf.c.obj)
 .comment       0x0000007f       0x80 external/micro-ecc/libuECC_nrf52840_xxAA.a(uECC.c.obj)

.debug_frame    0x00000000      0x324
 .debug_frame   0x00000000       0x2c c:/mesh/arm_gcc/bin/../lib/gcc/arm-none-eabi/6.3.1/thumb/v7e-m/fpv4-sp/hard\libgcc.a(_aeabi_uldivmod.o)
 .debug_frame   0x0000002c       0x34 c:/mesh/arm_gcc/bin/../lib/gcc/arm-none-eabi/6.3.1/thumb/v7e-m/fpv4-sp/hard\libgcc.a(_udivmoddi4.o)
 .debug_frame   0x00000060       0x28 c:/mesh/arm_gcc/bin/../lib/gcc/arm-none-eabi/6.3.1/../../../../arm-none-eabi/lib/thumb/v7e-m/fpv4-sp/hard\libc_nano.a(lib_a-exit.o)
 .debug_frame   0x00000088       0x2c c:/mesh/arm_gcc/bin/../lib/gcc/arm-none-eabi/6.3.1/../../../../arm-none-eabi/lib/thumb/v7e-m/fpv4-sp/hard\libc_nano.a(lib_a-init.o)
 .debug_frame   0x000000b4       0x30 c:/mesh/arm_gcc/bin/../lib/gcc/arm-none-eabi/6.3.1/../../../../arm-none-eabi/lib/thumb/v7e-m/fpv4-sp/hard\libc_nano.a(lib_a-malloc.o)
 .debug_frame   0x000000e4       0x28 c:/mesh/arm_gcc/bin/../lib/gcc/arm-none-eabi/6.3.1/../../../../arm-none-eabi/lib/thumb/v7e-m/fpv4-sp/hard\libc_nano.a(lib_a-memcmp.o)
 .debug_frame   0x0000010c       0x28 c:/mesh/arm_gcc/bin/../lib/gcc/arm-none-eabi/6.3.1/../../../../arm-none-eabi/lib/thumb/v7e-m/fpv4-sp/hard\libc_nano.a(lib_a-memcpy-stub.o)
 .debug_frame   0x00000134       0x20 c:/mesh/arm_gcc/bin/../lib/gcc/arm-none-eabi/6.3.1/../../../../arm-none-eabi/lib/thumb/v7e-m/fpv4-sp/hard\libc_nano.a(lib_a-memset.o)
 .debug_frame   0x00000154       0x38 c:/mesh/arm_gcc/bin/../lib/gcc/arm-none-eabi/6.3.1/../../../../arm-none-eabi/lib/thumb/v7e-m/fpv4-sp/hard\libc_nano.a(lib_a-nano-freer.o)
 .debug_frame   0x0000018c       0x2c c:/mesh/arm_gcc/bin/../lib/gcc/arm-none-eabi/6.3.1/../../../../arm-none-eabi/lib/thumb/v7e-m/fpv4-sp/hard\libc_nano.a(lib_a-nano-mallocr.o)
 .debug_frame   0x000001b8       0x2c c:/mesh/arm_gcc/bin/../lib/gcc/arm-none-eabi/6.3.1/../../../../arm-none-eabi/lib/thumb/v7e-m/fpv4-sp/hard\libc_nano.a(lib_a-sbrkr.o)
 .debug_frame   0x000001e4       0x20 c:/mesh/arm_gcc/bin/../lib/gcc/arm-none-eabi/6.3.1/../../../../arm-none-eabi/lib/thumb/v7e-m/fpv4-sp/hard\libc_nano.a(lib_a-strcpy.o)
 .debug_frame   0x00000204       0x34 c:/mesh/arm_gcc/bin/../lib/gcc/arm-none-eabi/6.3.1/../../../../arm-none-eabi/lib/thumb/v7e-m/fpv4-sp/hard\libc_nano.a(lib_a-strrchr.o)
 .debug_frame   0x00000238       0x30 c:/mesh/arm_gcc/bin/../lib/gcc/arm-none-eabi/6.3.1/../../../../arm-none-eabi/lib/thumb/v7e-m/fpv4-sp/hard\libc_nano.a(lib_a-mlock.o)
 .debug_frame   0x00000268       0x5c c:/mesh/arm_gcc/bin/../lib/gcc/arm-none-eabi/6.3.1/../../../../arm-none-eabi/lib/thumb/v7e-m/fpv4-sp/hard\libc_nano.a(lib_a-reent.o)
 .debug_frame   0x000002c4       0x20 c:/mesh/arm_gcc/bin/../lib/gcc/arm-none-eabi/6.3.1/../../../../arm-none-eabi/lib/thumb/v7e-m/fpv4-sp/hard\libc_nano.a(lib_a-strchr.o)
 .debug_frame   0x000002e4       0x20 c:/mesh/arm_gcc/bin/../lib/gcc/arm-none-eabi/6.3.1/../../../../arm-none-eabi/lib/thumb/v7e-m/fpv4-sp/hard\libnosys.a(sbrk.o)
 .debug_frame   0x00000304       0x20 c:/mesh/arm_gcc/bin/../lib/gcc/arm-none-eabi/6.3.1/../../../../arm-none-eabi/lib/thumb/v7e-m/fpv4-sp/hard\libnosys.a(_exit.o)
