Archive member included to satisfy reference by file (symbol)

external/rtt/librtt_nrf52832_xxAA.a(SEGGER_RTT.c.obj)
                              examples/light_switch/proxy_server/CMakeFiles/light_switch_proxy_server_nrf52832_xxAA_s132_6.0.0.dir/__/__/__/mesh/core/src/log.c.obj (SEGGER_RTT_Write)
external/rtt/librtt_nrf52832_xxAA.a(SEGGER_RTT_printf.c.obj)
                              examples/light_switch/proxy_server/CMakeFiles/light_switch_proxy_server_nrf52832_xxAA_s132_6.0.0.dir/__/__/__/mesh/core/src/log.c.obj (SEGGER_RTT_vprintf)
external/micro-ecc/libuECC_nrf52832_xxAA.a(uECC.c.obj)
                              examples/light_switch/proxy_server/CMakeFiles/light_switch_proxy_server_nrf52832_xxAA_s132_6.0.0.dir/__/__/__/mesh/prov/src/prov_utils.c.obj (uECC_secp256r1)
c:/mesh/arm_gcc/bin/../lib/gcc/arm-none-eabi/6.3.1/thumb/v7e-m/fpv4-sp/hard\libgcc.a(_aeabi_uldivmod.o)
                              examples/light_switch/proxy_server/CMakeFiles/light_switch_proxy_server_nrf52832_xxAA_s132_6.0.0.dir/__/__/common/src/rtt_input.c.obj (__aeabi_uldivmod)
c:/mesh/arm_gcc/bin/../lib/gcc/arm-none-eabi/6.3.1/thumb/v7e-m/fpv4-sp/hard\libgcc.a(_udivmoddi4.o)
                              c:/mesh/arm_gcc/bin/../lib/gcc/arm-none-eabi/6.3.1/thumb/v7e-m/fpv4-sp/hard\libgcc.a(_aeabi_uldivmod.o) (__udivmoddi4)
c:/mesh/arm_gcc/bin/../lib/gcc/arm-none-eabi/6.3.1/thumb/v7e-m/fpv4-sp/hard\libgcc.a(_dvmd_tls.o)
                              c:/mesh/arm_gcc/bin/../lib/gcc/arm-none-eabi/6.3.1/thumb/v7e-m/fpv4-sp/hard\libgcc.a(_aeabi_uldivmod.o) (__aeabi_ldiv0)
c:/mesh/arm_gcc/bin/../lib/gcc/arm-none-eabi/6.3.1/../../../../arm-none-eabi/lib/thumb/v7e-m/fpv4-sp/hard\libc_nano.a(lib_a-exit.o)
                              c:/mesh/arm_gcc/bin/../lib/gcc/arm-none-eabi/6.3.1/../../../../arm-none-eabi/lib/thumb/v7e-m/fpv4-sp/hard/crt0.o (exit)
c:/mesh/arm_gcc/bin/../lib/gcc/arm-none-eabi/6.3.1/../../../../arm-none-eabi/lib/thumb/v7e-m/fpv4-sp/hard\libc_nano.a(lib_a-impure.o)
                              c:/mesh/arm_gcc/bin/../lib/gcc/arm-none-eabi/6.3.1/../../../../arm-none-eabi/lib/thumb/v7e-m/fpv4-sp/hard\libc_nano.a(lib_a-exit.o) (_global_impure_ptr)
c:/mesh/arm_gcc/bin/../lib/gcc/arm-none-eabi/6.3.1/../../../../arm-none-eabi/lib/thumb/v7e-m/fpv4-sp/hard\libc_nano.a(lib_a-init.o)
                              c:/mesh/arm_gcc/bin/../lib/gcc/arm-none-eabi/6.3.1/../../../../arm-none-eabi/lib/thumb/v7e-m/fpv4-sp/hard/crt0.o (__libc_init_array)
c:/mesh/arm_gcc/bin/../lib/gcc/arm-none-eabi/6.3.1/../../../../arm-none-eabi/lib/thumb/v7e-m/fpv4-sp/hard\libc_nano.a(lib_a-malloc.o)
                              examples/light_switch/proxy_server/CMakeFiles/light_switch_proxy_server_nrf52832_xxAA_s132_6.0.0.dir/__/__/__/mesh/core/src/transport.c.obj (malloc)
c:/mesh/arm_gcc/bin/../lib/gcc/arm-none-eabi/6.3.1/../../../../arm-none-eabi/lib/thumb/v7e-m/fpv4-sp/hard\libc_nano.a(lib_a-memcmp.o)
                              examples/light_switch/proxy_server/CMakeFiles/light_switch_proxy_server_nrf52832_xxAA_s132_6.0.0.dir/C_/b/nRF5_SDK_15.0.0_a53641a/components/ble/common/ble_advdata.c.obj (memcmp)
c:/mesh/arm_gcc/bin/../lib/gcc/arm-none-eabi/6.3.1/../../../../arm-none-eabi/lib/thumb/v7e-m/fpv4-sp/hard\libc_nano.a(lib_a-memcpy-stub.o)
                              examples/light_switch/proxy_server/CMakeFiles/light_switch_proxy_server_nrf52832_xxAA_s132_6.0.0.dir/__/__/common/src/mesh_app_utils.c.obj (memcpy)
c:/mesh/arm_gcc/bin/../lib/gcc/arm-none-eabi/6.3.1/../../../../arm-none-eabi/lib/thumb/v7e-m/fpv4-sp/hard\libc_nano.a(lib_a-memset.o)
                              c:/mesh/arm_gcc/bin/../lib/gcc/arm-none-eabi/6.3.1/../../../../arm-none-eabi/lib/thumb/v7e-m/fpv4-sp/hard/crt0.o (memset)
c:/mesh/arm_gcc/bin/../lib/gcc/arm-none-eabi/6.3.1/../../../../arm-none-eabi/lib/thumb/v7e-m/fpv4-sp/hard\libc_nano.a(lib_a-nano-freer.o)
                              c:/mesh/arm_gcc/bin/../lib/gcc/arm-none-eabi/6.3.1/../../../../arm-none-eabi/lib/thumb/v7e-m/fpv4-sp/hard\libc_nano.a(lib_a-malloc.o) (_free_r)
c:/mesh/arm_gcc/bin/../lib/gcc/arm-none-eabi/6.3.1/../../../../arm-none-eabi/lib/thumb/v7e-m/fpv4-sp/hard\libc_nano.a(lib_a-nano-mallocr.o)
                              c:/mesh/arm_gcc/bin/../lib/gcc/arm-none-eabi/6.3.1/../../../../arm-none-eabi/lib/thumb/v7e-m/fpv4-sp/hard\libc_nano.a(lib_a-malloc.o) (_malloc_r)
c:/mesh/arm_gcc/bin/../lib/gcc/arm-none-eabi/6.3.1/../../../../arm-none-eabi/lib/thumb/v7e-m/fpv4-sp/hard\libc_nano.a(lib_a-sbrkr.o)
                              c:/mesh/arm_gcc/bin/../lib/gcc/arm-none-eabi/6.3.1/../../../../arm-none-eabi/lib/thumb/v7e-m/fpv4-sp/hard\libc_nano.a(lib_a-nano-mallocr.o) (_sbrk_r)
c:/mesh/arm_gcc/bin/../lib/gcc/arm-none-eabi/6.3.1/../../../../arm-none-eabi/lib/thumb/v7e-m/fpv4-sp/hard\libc_nano.a(lib_a-strcpy.o)
                              external/rtt/librtt_nrf52832_xxAA.a(SEGGER_RTT.c.obj) (strcpy)
c:/mesh/arm_gcc/bin/../lib/gcc/arm-none-eabi/6.3.1/../../../../arm-none-eabi/lib/thumb/v7e-m/fpv4-sp/hard\libc_nano.a(lib_a-strlen.o)
                              examples/light_switch/proxy_server/CMakeFiles/light_switch_proxy_server_nrf52832_xxAA_s132_6.0.0.dir/src/main.c.obj (strlen)
c:/mesh/arm_gcc/bin/../lib/gcc/arm-none-eabi/6.3.1/../../../../arm-none-eabi/lib/thumb/v7e-m/fpv4-sp/hard\libc_nano.a(lib_a-strrchr.o)
                              examples/light_switch/proxy_server/CMakeFiles/light_switch_proxy_server_nrf52832_xxAA_s132_6.0.0.dir/src/main.c.obj (strrchr)
c:/mesh/arm_gcc/bin/../lib/gcc/arm-none-eabi/6.3.1/../../../../arm-none-eabi/lib/thumb/v7e-m/fpv4-sp/hard\libc_nano.a(lib_a-mlock.o)
                              c:/mesh/arm_gcc/bin/../lib/gcc/arm-none-eabi/6.3.1/../../../../arm-none-eabi/lib/thumb/v7e-m/fpv4-sp/hard\libc_nano.a(lib_a-nano-freer.o) (__malloc_lock)
c:/mesh/arm_gcc/bin/../lib/gcc/arm-none-eabi/6.3.1/../../../../arm-none-eabi/lib/thumb/v7e-m/fpv4-sp/hard\libc_nano.a(lib_a-reent.o)
                              c:/mesh/arm_gcc/bin/../lib/gcc/arm-none-eabi/6.3.1/../../../../arm-none-eabi/lib/thumb/v7e-m/fpv4-sp/hard\libc_nano.a(lib_a-sbrkr.o) (errno)
c:/mesh/arm_gcc/bin/../lib/gcc/arm-none-eabi/6.3.1/../../../../arm-none-eabi/lib/thumb/v7e-m/fpv4-sp/hard\libc_nano.a(lib_a-strchr.o)
                              c:/mesh/arm_gcc/bin/../lib/gcc/arm-none-eabi/6.3.1/../../../../arm-none-eabi/lib/thumb/v7e-m/fpv4-sp/hard\libc_nano.a(lib_a-strrchr.o) (strchr)
c:/mesh/arm_gcc/bin/../lib/gcc/arm-none-eabi/6.3.1/../../../../arm-none-eabi/lib/thumb/v7e-m/fpv4-sp/hard\libnosys.a(sbrk.o)
                              c:/mesh/arm_gcc/bin/../lib/gcc/arm-none-eabi/6.3.1/../../../../arm-none-eabi/lib/thumb/v7e-m/fpv4-sp/hard\libc_nano.a(lib_a-sbrkr.o) (_sbrk)
c:/mesh/arm_gcc/bin/../lib/gcc/arm-none-eabi/6.3.1/../../../../arm-none-eabi/lib/thumb/v7e-m/fpv4-sp/hard\libnosys.a(_exit.o)
                              c:/mesh/arm_gcc/bin/../lib/gcc/arm-none-eabi/6.3.1/../../../../arm-none-eabi/lib/thumb/v7e-m/fpv4-sp/hard\libc_nano.a(lib_a-exit.o) (_exit)

Allocating common symbols
Common symbol       size              file

nrf_nvic_state      0xc               examples/light_switch/proxy_server/CMakeFiles/light_switch_proxy_server_nrf52832_xxAA_s132_6.0.0.dir/C_/b/nRF5_SDK_15.0.0_a53641a/components/libraries/util/app_util_platform.c.obj
m_packet            0x24              examples/light_switch/proxy_server/CMakeFiles/light_switch_proxy_server_nrf52832_xxAA_s132_6.0.0.dir/__/__/__/mesh/core/src/core_tx.c.obj
errno               0x4               c:/mesh/arm_gcc/bin/../lib/gcc/arm-none-eabi/6.3.1/../../../../arm-none-eabi/lib/thumb/v7e-m/fpv4-sp/hard\libc_nano.a(lib_a-reent.o)
_SEGGER_RTT         0x78              external/rtt/librtt_nrf52832_xxAA.a(SEGGER_RTT.c.obj)

Discarded input sections

 .text          0x00000000        0x0 c:/mesh/arm_gcc/bin/../lib/gcc/arm-none-eabi/6.3.1/thumb/v7e-m/fpv4-sp/hard/crti.o
 .data          0x00000000        0x0 c:/mesh/arm_gcc/bin/../lib/gcc/arm-none-eabi/6.3.1/thumb/v7e-m/fpv4-sp/hard/crti.o
 .bss           0x00000000        0x0 c:/mesh/arm_gcc/bin/../lib/gcc/arm-none-eabi/6.3.1/thumb/v7e-m/fpv4-sp/hard/crti.o
 .data          0x00000000        0x4 c:/mesh/arm_gcc/bin/../lib/gcc/arm-none-eabi/6.3.1/thumb/v7e-m/fpv4-sp/hard/crtbegin.o
 .data          0x00000000        0x0 c:/mesh/arm_gcc/bin/../lib/gcc/arm-none-eabi/6.3.1/../../../../arm-none-eabi/lib/thumb/v7e-m/fpv4-sp/hard/crt0.o
 .bss           0x00000000        0x0 c:/mesh/arm_gcc/bin/../lib/gcc/arm-none-eabi/6.3.1/../../../../arm-none-eabi/lib/thumb/v7e-m/fpv4-sp/hard/crt0.o
 .ARM.extab     0x00000000        0x0 c:/mesh/arm_gcc/bin/../lib/gcc/arm-none-eabi/6.3.1/../../../../arm-none-eabi/lib/thumb/v7e-m/fpv4-sp/hard/crt0.o
 .text          0x00000000        0x0 examples/light_switch/proxy_server/CMakeFiles/light_switch_proxy_server_nrf52832_xxAA_s132_6.0.0.dir/src/main.c.obj
 .data          0x00000000        0x0 examples/light_switch/proxy_server/CMakeFiles/light_switch_proxy_server_nrf52832_xxAA_s132_6.0.0.dir/src/main.c.obj
 .bss           0x00000000        0x0 examples/light_switch/proxy_server/CMakeFiles/light_switch_proxy_server_nrf52832_xxAA_s132_6.0.0.dir/src/main.c.obj
 .text          0x00000000        0x0 examples/light_switch/proxy_server/CMakeFiles/light_switch_proxy_server_nrf52832_xxAA_s132_6.0.0.dir/__/__/__/mesh/stack/src/mesh_stack.c.obj
 .data          0x00000000        0x0 examples/light_switch/proxy_server/CMakeFiles/light_switch_proxy_server_nrf52832_xxAA_s132_6.0.0.dir/__/__/__/mesh/stack/src/mesh_stack.c.obj
 .bss           0x00000000        0x0 examples/light_switch/proxy_server/CMakeFiles/light_switch_proxy_server_nrf52832_xxAA_s132_6.0.0.dir/__/__/__/mesh/stack/src/mesh_stack.c.obj
 .text.mesh_stack_is_device_provisioned
                0x00000000       0x1c examples/light_switch/proxy_server/CMakeFiles/light_switch_proxy_server_nrf52832_xxAA_s132_6.0.0.dir/__/__/__/mesh/stack/src/mesh_stack.c.obj
 .text          0x00000000        0x0 examples/light_switch/proxy_server/CMakeFiles/light_switch_proxy_server_nrf52832_xxAA_s132_6.0.0.dir/__/__/common/src/mesh_provisionee.c.obj
 .data          0x00000000        0x0 examples/light_switch/proxy_server/CMakeFiles/light_switch_proxy_server_nrf52832_xxAA_s132_6.0.0.dir/__/__/common/src/mesh_provisionee.c.obj
 .bss           0x00000000        0x0 examples/light_switch/proxy_server/CMakeFiles/light_switch_proxy_server_nrf52832_xxAA_s132_6.0.0.dir/__/__/common/src/mesh_provisionee.c.obj
 .text          0x00000000        0x0 examples/light_switch/proxy_server/CMakeFiles/light_switch_proxy_server_nrf52832_xxAA_s132_6.0.0.dir/__/__/common/src/rtt_input.c.obj
 .data          0x00000000        0x0 examples/light_switch/proxy_server/CMakeFiles/light_switch_proxy_server_nrf52832_xxAA_s132_6.0.0.dir/__/__/common/src/rtt_input.c.obj
 .bss           0x00000000        0x0 examples/light_switch/proxy_server/CMakeFiles/light_switch_proxy_server_nrf52832_xxAA_s132_6.0.0.dir/__/__/common/src/rtt_input.c.obj
 .text.rtt_input_disable
                0x00000000       0x28 examples/light_switch/proxy_server/CMakeFiles/light_switch_proxy_server_nrf52832_xxAA_s132_6.0.0.dir/__/__/common/src/rtt_input.c.obj
 .text          0x00000000        0x0 examples/light_switch/proxy_server/CMakeFiles/light_switch_proxy_server_nrf52832_xxAA_s132_6.0.0.dir/__/__/common/src/simple_hal.c.obj
 .data          0x00000000        0x0 examples/light_switch/proxy_server/CMakeFiles/light_switch_proxy_server_nrf52832_xxAA_s132_6.0.0.dir/__/__/common/src/simple_hal.c.obj
 .bss           0x00000000        0x0 examples/light_switch/proxy_server/CMakeFiles/light_switch_proxy_server_nrf52832_xxAA_s132_6.0.0.dir/__/__/common/src/simple_hal.c.obj
 .text          0x00000000        0x0 examples/light_switch/proxy_server/CMakeFiles/light_switch_proxy_server_nrf52832_xxAA_s132_6.0.0.dir/__/__/common/src/mesh_app_utils.c.obj
 .data          0x00000000        0x0 examples/light_switch/proxy_server/CMakeFiles/light_switch_proxy_server_nrf52832_xxAA_s132_6.0.0.dir/__/__/common/src/mesh_app_utils.c.obj
 .bss           0x00000000        0x0 examples/light_switch/proxy_server/CMakeFiles/light_switch_proxy_server_nrf52832_xxAA_s132_6.0.0.dir/__/__/common/src/mesh_app_utils.c.obj
 .text          0x00000000        0x0 examples/light_switch/proxy_server/CMakeFiles/light_switch_proxy_server_nrf52832_xxAA_s132_6.0.0.dir/__/__/common/src/mesh_adv.c.obj
 .data          0x00000000        0x0 examples/light_switch/proxy_server/CMakeFiles/light_switch_proxy_server_nrf52832_xxAA_s132_6.0.0.dir/__/__/common/src/mesh_adv.c.obj
 .bss           0x00000000        0x0 examples/light_switch/proxy_server/CMakeFiles/light_switch_proxy_server_nrf52832_xxAA_s132_6.0.0.dir/__/__/common/src/mesh_adv.c.obj
 .text          0x00000000        0x0 examples/light_switch/proxy_server/CMakeFiles/light_switch_proxy_server_nrf52832_xxAA_s132_6.0.0.dir/__/__/__/mesh/prov/src/nrf_mesh_prov_bearer_gatt.c.obj
 .data          0x00000000        0x0 examples/light_switch/proxy_server/CMakeFiles/light_switch_proxy_server_nrf52832_xxAA_s132_6.0.0.dir/__/__/__/mesh/prov/src/nrf_mesh_prov_bearer_gatt.c.obj
 .bss           0x00000000        0x0 examples/light_switch/proxy_server/CMakeFiles/light_switch_proxy_server_nrf52832_xxAA_s132_6.0.0.dir/__/__/__/mesh/prov/src/nrf_mesh_prov_bearer_gatt.c.obj
 .text          0x00000000        0x0 examples/light_switch/proxy_server/CMakeFiles/light_switch_proxy_server_nrf52832_xxAA_s132_6.0.0.dir/C_/b/nRF5_SDK_15.0.0_a53641a/components/libraries/util/app_util_platform.c.obj
 .data          0x00000000        0x0 examples/light_switch/proxy_server/CMakeFiles/light_switch_proxy_server_nrf52832_xxAA_s132_6.0.0.dir/C_/b/nRF5_SDK_15.0.0_a53641a/components/libraries/util/app_util_platform.c.obj
 .bss           0x00000000        0x0 examples/light_switch/proxy_server/CMakeFiles/light_switch_proxy_server_nrf52832_xxAA_s132_6.0.0.dir/C_/b/nRF5_SDK_15.0.0_a53641a/components/libraries/util/app_util_platform.c.obj
 .text.app_util_disable_irq
                0x00000000       0x10 examples/light_switch/proxy_server/CMakeFiles/light_switch_proxy_server_nrf52832_xxAA_s132_6.0.0.dir/C_/b/nRF5_SDK_15.0.0_a53641a/components/libraries/util/app_util_platform.c.obj
 .text.app_util_enable_irq
                0x00000000       0x14 examples/light_switch/proxy_server/CMakeFiles/light_switch_proxy_server_nrf52832_xxAA_s132_6.0.0.dir/C_/b/nRF5_SDK_15.0.0_a53641a/components/libraries/util/app_util_platform.c.obj
 .text.privilege_level_get
                0x00000000       0x1c examples/light_switch/proxy_server/CMakeFiles/light_switch_proxy_server_nrf52832_xxAA_s132_6.0.0.dir/C_/b/nRF5_SDK_15.0.0_a53641a/components/libraries/util/app_util_platform.c.obj
 .text.current_int_priority_get
                0x00000000       0x3c examples/light_switch/proxy_server/CMakeFiles/light_switch_proxy_server_nrf52832_xxAA_s132_6.0.0.dir/C_/b/nRF5_SDK_15.0.0_a53641a/components/libraries/util/app_util_platform.c.obj
 .bss.m_in_critical_region
                0x00000000        0x4 examples/light_switch/proxy_server/CMakeFiles/light_switch_proxy_server_nrf52832_xxAA_s132_6.0.0.dir/C_/b/nRF5_SDK_15.0.0_a53641a/components/libraries/util/app_util_platform.c.obj
 .text          0x00000000        0x0 examples/light_switch/proxy_server/CMakeFiles/light_switch_proxy_server_nrf52832_xxAA_s132_6.0.0.dir/C_/b/nRF5_SDK_15.0.0_a53641a/components/ble/common/ble_advdata.c.obj
 .data          0x00000000        0x0 examples/light_switch/proxy_server/CMakeFiles/light_switch_proxy_server_nrf52832_xxAA_s132_6.0.0.dir/C_/b/nRF5_SDK_15.0.0_a53641a/components/ble/common/ble_advdata.c.obj
 .bss           0x00000000        0x0 examples/light_switch/proxy_server/CMakeFiles/light_switch_proxy_server_nrf52832_xxAA_s132_6.0.0.dir/C_/b/nRF5_SDK_15.0.0_a53641a/components/ble/common/ble_advdata.c.obj
 .text.ble_advdata_search
                0x00000000       0x40 examples/light_switch/proxy_server/CMakeFiles/light_switch_proxy_server_nrf52832_xxAA_s132_6.0.0.dir/C_/b/nRF5_SDK_15.0.0_a53641a/components/ble/common/ble_advdata.c.obj
 .text.ble_advdata_parse
                0x00000000       0x48 examples/light_switch/proxy_server/CMakeFiles/light_switch_proxy_server_nrf52832_xxAA_s132_6.0.0.dir/C_/b/nRF5_SDK_15.0.0_a53641a/components/ble/common/ble_advdata.c.obj
 .text.ble_advdata_name_find
                0x00000000       0x78 examples/light_switch/proxy_server/CMakeFiles/light_switch_proxy_server_nrf52832_xxAA_s132_6.0.0.dir/C_/b/nRF5_SDK_15.0.0_a53641a/components/ble/common/ble_advdata.c.obj
 .text.ble_advdata_short_name_find
                0x00000000       0x78 examples/light_switch/proxy_server/CMakeFiles/light_switch_proxy_server_nrf52832_xxAA_s132_6.0.0.dir/C_/b/nRF5_SDK_15.0.0_a53641a/components/ble/common/ble_advdata.c.obj
 .text.ble_advdata_uuid_find
                0x00000000       0xd4 examples/light_switch/proxy_server/CMakeFiles/light_switch_proxy_server_nrf52832_xxAA_s132_6.0.0.dir/C_/b/nRF5_SDK_15.0.0_a53641a/components/ble/common/ble_advdata.c.obj
 .text.ble_advdata_appearance_find
                0x00000000       0x68 examples/light_switch/proxy_server/CMakeFiles/light_switch_proxy_server_nrf52832_xxAA_s132_6.0.0.dir/C_/b/nRF5_SDK_15.0.0_a53641a/components/ble/common/ble_advdata.c.obj
 .text          0x00000000        0x0 examples/light_switch/proxy_server/CMakeFiles/light_switch_proxy_server_nrf52832_xxAA_s132_6.0.0.dir/C_/b/nRF5_SDK_15.0.0_a53641a/components/libraries/experimental_section_vars/nrf_section_iter.c.obj
 .data          0x00000000        0x0 examples/light_switch/proxy_server/CMakeFiles/light_switch_proxy_server_nrf52832_xxAA_s132_6.0.0.dir/C_/b/nRF5_SDK_15.0.0_a53641a/components/libraries/experimental_section_vars/nrf_section_iter.c.obj
 .bss           0x00000000        0x0 examples/light_switch/proxy_server/CMakeFiles/light_switch_proxy_server_nrf52832_xxAA_s132_6.0.0.dir/C_/b/nRF5_SDK_15.0.0_a53641a/components/libraries/experimental_section_vars/nrf_section_iter.c.obj
 .text          0x00000000        0x0 examples/light_switch/proxy_server/CMakeFiles/light_switch_proxy_server_nrf52832_xxAA_s132_6.0.0.dir/C_/b/nRF5_SDK_15.0.0_a53641a/components/softdevice/common/nrf_sdh.c.obj
 .data          0x00000000        0x0 examples/light_switch/proxy_server/CMakeFiles/light_switch_proxy_server_nrf52832_xxAA_s132_6.0.0.dir/C_/b/nRF5_SDK_15.0.0_a53641a/components/softdevice/common/nrf_sdh.c.obj
 .bss           0x00000000        0x0 examples/light_switch/proxy_server/CMakeFiles/light_switch_proxy_server_nrf52832_xxAA_s132_6.0.0.dir/C_/b/nRF5_SDK_15.0.0_a53641a/components/softdevice/common/nrf_sdh.c.obj
 .text.nrf_sdh_request_continue
                0x00000000       0x20 examples/light_switch/proxy_server/CMakeFiles/light_switch_proxy_server_nrf52832_xxAA_s132_6.0.0.dir/C_/b/nRF5_SDK_15.0.0_a53641a/components/softdevice/common/nrf_sdh.c.obj
 .text.nrf_sdh_is_enabled
                0x00000000        0xc examples/light_switch/proxy_server/CMakeFiles/light_switch_proxy_server_nrf52832_xxAA_s132_6.0.0.dir/C_/b/nRF5_SDK_15.0.0_a53641a/components/softdevice/common/nrf_sdh.c.obj
 .text.nrf_sdh_suspend
                0x00000000       0x38 examples/light_switch/proxy_server/CMakeFiles/light_switch_proxy_server_nrf52832_xxAA_s132_6.0.0.dir/C_/b/nRF5_SDK_15.0.0_a53641a/components/softdevice/common/nrf_sdh.c.obj
 .text.nrf_sdh_resume
                0x00000000       0x5c examples/light_switch/proxy_server/CMakeFiles/light_switch_proxy_server_nrf52832_xxAA_s132_6.0.0.dir/C_/b/nRF5_SDK_15.0.0_a53641a/components/softdevice/common/nrf_sdh.c.obj
 .text.nrf_sdh_is_suspended
                0x00000000       0x18 examples/light_switch/proxy_server/CMakeFiles/light_switch_proxy_server_nrf52832_xxAA_s132_6.0.0.dir/C_/b/nRF5_SDK_15.0.0_a53641a/components/softdevice/common/nrf_sdh.c.obj
 .text.nrf_sdh_evts_poll
                0x00000000       0x2c examples/light_switch/proxy_server/CMakeFiles/light_switch_proxy_server_nrf52832_xxAA_s132_6.0.0.dir/C_/b/nRF5_SDK_15.0.0_a53641a/components/softdevice/common/nrf_sdh.c.obj
 .text          0x00000000        0x0 examples/light_switch/proxy_server/CMakeFiles/light_switch_proxy_server_nrf52832_xxAA_s132_6.0.0.dir/C_/b/nRF5_SDK_15.0.0_a53641a/components/softdevice/common/nrf_sdh_soc.c.obj
 .data          0x00000000        0x0 examples/light_switch/proxy_server/CMakeFiles/light_switch_proxy_server_nrf52832_xxAA_s132_6.0.0.dir/C_/b/nRF5_SDK_15.0.0_a53641a/components/softdevice/common/nrf_sdh_soc.c.obj
 .bss           0x00000000        0x0 examples/light_switch/proxy_server/CMakeFiles/light_switch_proxy_server_nrf52832_xxAA_s132_6.0.0.dir/C_/b/nRF5_SDK_15.0.0_a53641a/components/softdevice/common/nrf_sdh_soc.c.obj
 .text          0x00000000        0x0 examples/light_switch/proxy_server/CMakeFiles/light_switch_proxy_server_nrf52832_xxAA_s132_6.0.0.dir/C_/b/nRF5_SDK_15.0.0_a53641a/components/softdevice/common/nrf_sdh_ble.c.obj
 .data          0x00000000        0x0 examples/light_switch/proxy_server/CMakeFiles/light_switch_proxy_server_nrf52832_xxAA_s132_6.0.0.dir/C_/b/nRF5_SDK_15.0.0_a53641a/components/softdevice/common/nrf_sdh_ble.c.obj
 .bss           0x00000000        0x0 examples/light_switch/proxy_server/CMakeFiles/light_switch_proxy_server_nrf52832_xxAA_s132_6.0.0.dir/C_/b/nRF5_SDK_15.0.0_a53641a/components/softdevice/common/nrf_sdh_ble.c.obj
 .text.nrf_sdh_ble_app_ram_start_get
                0x00000000       0x14 examples/light_switch/proxy_server/CMakeFiles/light_switch_proxy_server_nrf52832_xxAA_s132_6.0.0.dir/C_/b/nRF5_SDK_15.0.0_a53641a/components/softdevice/common/nrf_sdh_ble.c.obj
 .rodata.m_ram_start
                0x00000000        0x4 examples/light_switch/proxy_server/CMakeFiles/light_switch_proxy_server_nrf52832_xxAA_s132_6.0.0.dir/C_/b/nRF5_SDK_15.0.0_a53641a/components/softdevice/common/nrf_sdh_ble.c.obj
 .text          0x00000000        0x0 examples/light_switch/proxy_server/CMakeFiles/light_switch_proxy_server_nrf52832_xxAA_s132_6.0.0.dir/__/__/nrf_mesh_weak.c.obj
 .data          0x00000000        0x0 examples/light_switch/proxy_server/CMakeFiles/light_switch_proxy_server_nrf52832_xxAA_s132_6.0.0.dir/__/__/nrf_mesh_weak.c.obj
 .bss           0x00000000        0x0 examples/light_switch/proxy_server/CMakeFiles/light_switch_proxy_server_nrf52832_xxAA_s132_6.0.0.dir/__/__/nrf_mesh_weak.c.obj
 .text._weak_handler_ptr
                0x00000000        0x4 examples/light_switch/proxy_server/CMakeFiles/light_switch_proxy_server_nrf52832_xxAA_s132_6.0.0.dir/__/__/nrf_mesh_weak.c.obj
 .text          0x00000000        0x0 examples/light_switch/proxy_server/CMakeFiles/light_switch_proxy_server_nrf52832_xxAA_s132_6.0.0.dir/__/__/common/src/app_error_weak.c.obj
 .data          0x00000000        0x0 examples/light_switch/proxy_server/CMakeFiles/light_switch_proxy_server_nrf52832_xxAA_s132_6.0.0.dir/__/__/common/src/app_error_weak.c.obj
 .bss           0x00000000        0x0 examples/light_switch/proxy_server/CMakeFiles/light_switch_proxy_server_nrf52832_xxAA_s132_6.0.0.dir/__/__/common/src/app_error_weak.c.obj
 .text          0x00000000        0x0 examples/light_switch/proxy_server/CMakeFiles/light_switch_proxy_server_nrf52832_xxAA_s132_6.0.0.dir/__/__/common/src/assertion_handler_weak.c.obj
 .data          0x00000000        0x0 examples/light_switch/proxy_server/CMakeFiles/light_switch_proxy_server_nrf52832_xxAA_s132_6.0.0.dir/__/__/common/src/assertion_handler_weak.c.obj
 .bss           0x00000000        0x0 examples/light_switch/proxy_server/CMakeFiles/light_switch_proxy_server_nrf52832_xxAA_s132_6.0.0.dir/__/__/common/src/assertion_handler_weak.c.obj
 .text          0x00000000        0x0 examples/light_switch/proxy_server/CMakeFiles/light_switch_proxy_server_nrf52832_xxAA_s132_6.0.0.dir/__/__/__/mesh/core/src/internal_event.c.obj
 .data          0x00000000        0x0 examples/light_switch/proxy_server/CMakeFiles/light_switch_proxy_server_nrf52832_xxAA_s132_6.0.0.dir/__/__/__/mesh/core/src/internal_event.c.obj
 .bss           0x00000000        0x0 examples/light_switch/proxy_server/CMakeFiles/light_switch_proxy_server_nrf52832_xxAA_s132_6.0.0.dir/__/__/__/mesh/core/src/internal_event.c.obj
 .comment       0x00000000       0x80 examples/light_switch/proxy_server/CMakeFiles/light_switch_proxy_server_nrf52832_xxAA_s132_6.0.0.dir/__/__/__/mesh/core/src/internal_event.c.obj
 .ARM.attributes
                0x00000000       0x39 examples/light_switch/proxy_server/CMakeFiles/light_switch_proxy_server_nrf52832_xxAA_s132_6.0.0.dir/__/__/__/mesh/core/src/internal_event.c.obj
 .text          0x00000000        0x0 examples/light_switch/proxy_server/CMakeFiles/light_switch_proxy_server_nrf52832_xxAA_s132_6.0.0.dir/__/__/__/mesh/core/src/nrf_mesh_configure.c.obj
 .data          0x00000000        0x0 examples/light_switch/proxy_server/CMakeFiles/light_switch_proxy_server_nrf52832_xxAA_s132_6.0.0.dir/__/__/__/mesh/core/src/nrf_mesh_configure.c.obj
 .bss           0x00000000        0x0 examples/light_switch/proxy_server/CMakeFiles/light_switch_proxy_server_nrf52832_xxAA_s132_6.0.0.dir/__/__/__/mesh/core/src/nrf_mesh_configure.c.obj
 .text          0x00000000        0x0 examples/light_switch/proxy_server/CMakeFiles/light_switch_proxy_server_nrf52832_xxAA_s132_6.0.0.dir/__/__/__/mesh/core/src/aes.c.obj
 .data          0x00000000        0x0 examples/light_switch/proxy_server/CMakeFiles/light_switch_proxy_server_nrf52832_xxAA_s132_6.0.0.dir/__/__/__/mesh/core/src/aes.c.obj
 .bss           0x00000000        0x0 examples/light_switch/proxy_server/CMakeFiles/light_switch_proxy_server_nrf52832_xxAA_s132_6.0.0.dir/__/__/__/mesh/core/src/aes.c.obj
 .text          0x00000000        0x0 examples/light_switch/proxy_server/CMakeFiles/light_switch_proxy_server_nrf52832_xxAA_s132_6.0.0.dir/__/__/__/mesh/core/src/msg_cache.c.obj
 .data          0x00000000        0x0 examples/light_switch/proxy_server/CMakeFiles/light_switch_proxy_server_nrf52832_xxAA_s132_6.0.0.dir/__/__/__/mesh/core/src/msg_cache.c.obj
 .bss           0x00000000        0x0 examples/light_switch/proxy_server/CMakeFiles/light_switch_proxy_server_nrf52832_xxAA_s132_6.0.0.dir/__/__/__/mesh/core/src/msg_cache.c.obj
 .text.msg_cache_clear
                0x00000000       0x18 examples/light_switch/proxy_server/CMakeFiles/light_switch_proxy_server_nrf52832_xxAA_s132_6.0.0.dir/__/__/__/mesh/core/src/msg_cache.c.obj
 .text          0x00000000        0x0 examples/light_switch/proxy_server/CMakeFiles/light_switch_proxy_server_nrf52832_xxAA_s132_6.0.0.dir/__/__/__/mesh/core/src/transport.c.obj
 .data          0x00000000        0x0 examples/light_switch/proxy_server/CMakeFiles/light_switch_proxy_server_nrf52832_xxAA_s132_6.0.0.dir/__/__/__/mesh/core/src/transport.c.obj
 .bss           0x00000000        0x0 examples/light_switch/proxy_server/CMakeFiles/light_switch_proxy_server_nrf52832_xxAA_s132_6.0.0.dir/__/__/__/mesh/core/src/transport.c.obj
 .text.transport_sar_mem_funcs_reset
                0x00000000       0x30 examples/light_switch/proxy_server/CMakeFiles/light_switch_proxy_server_nrf52832_xxAA_s132_6.0.0.dir/__/__/__/mesh/core/src/transport.c.obj
 .text.transport_sar_mem_funcs_set
                0x00000000       0x48 examples/light_switch/proxy_server/CMakeFiles/light_switch_proxy_server_nrf52832_xxAA_s132_6.0.0.dir/__/__/__/mesh/core/src/transport.c.obj
 .text          0x00000000        0x0 examples/light_switch/proxy_server/CMakeFiles/light_switch_proxy_server_nrf52832_xxAA_s132_6.0.0.dir/__/__/__/mesh/core/src/event.c.obj
 .data          0x00000000        0x0 examples/light_switch/proxy_server/CMakeFiles/light_switch_proxy_server_nrf52832_xxAA_s132_6.0.0.dir/__/__/__/mesh/core/src/event.c.obj
 .bss           0x00000000        0x0 examples/light_switch/proxy_server/CMakeFiles/light_switch_proxy_server_nrf52832_xxAA_s132_6.0.0.dir/__/__/__/mesh/core/src/event.c.obj
 .text          0x00000000        0x0 examples/light_switch/proxy_server/CMakeFiles/light_switch_proxy_server_nrf52832_xxAA_s132_6.0.0.dir/__/__/__/mesh/core/src/packet_buffer.c.obj
 .data          0x00000000        0x0 examples/light_switch/proxy_server/CMakeFiles/light_switch_proxy_server_nrf52832_xxAA_s132_6.0.0.dir/__/__/__/mesh/core/src/packet_buffer.c.obj
 .bss           0x00000000        0x0 examples/light_switch/proxy_server/CMakeFiles/light_switch_proxy_server_nrf52832_xxAA_s132_6.0.0.dir/__/__/__/mesh/core/src/packet_buffer.c.obj
 .text.packet_buffer_max_packet_len_get
                0x00000000       0x24 examples/light_switch/proxy_server/CMakeFiles/light_switch_proxy_server_nrf52832_xxAA_s132_6.0.0.dir/__/__/__/mesh/core/src/packet_buffer.c.obj
 .text          0x00000000        0x0 examples/light_switch/proxy_server/CMakeFiles/light_switch_proxy_server_nrf52832_xxAA_s132_6.0.0.dir/__/__/__/mesh/core/src/flash_manager_defrag.c.obj
 .data          0x00000000        0x0 examples/light_switch/proxy_server/CMakeFiles/light_switch_proxy_server_nrf52832_xxAA_s132_6.0.0.dir/__/__/__/mesh/core/src/flash_manager_defrag.c.obj
 .bss           0x00000000        0x0 examples/light_switch/proxy_server/CMakeFiles/light_switch_proxy_server_nrf52832_xxAA_s132_6.0.0.dir/__/__/__/mesh/core/src/flash_manager_defrag.c.obj
 .text.flash_manager_defragging
                0x00000000       0x44 examples/light_switch/proxy_server/CMakeFiles/light_switch_proxy_server_nrf52832_xxAA_s132_6.0.0.dir/__/__/__/mesh/core/src/flash_manager_defrag.c.obj
 .text          0x00000000        0x0 examples/light_switch/proxy_server/CMakeFiles/light_switch_proxy_server_nrf52832_xxAA_s132_6.0.0.dir/__/__/__/mesh/core/src/fifo.c.obj
 .data          0x00000000        0x0 examples/light_switch/proxy_server/CMakeFiles/light_switch_proxy_server_nrf52832_xxAA_s132_6.0.0.dir/__/__/__/mesh/core/src/fifo.c.obj
 .bss           0x00000000        0x0 examples/light_switch/proxy_server/CMakeFiles/light_switch_proxy_server_nrf52832_xxAA_s132_6.0.0.dir/__/__/__/mesh/core/src/fifo.c.obj
 .text.fifo_peek_at
                0x00000000       0x54 examples/light_switch/proxy_server/CMakeFiles/light_switch_proxy_server_nrf52832_xxAA_s132_6.0.0.dir/__/__/__/mesh/core/src/fifo.c.obj
 .text.fifo_peek
                0x00000000       0x50 examples/light_switch/proxy_server/CMakeFiles/light_switch_proxy_server_nrf52832_xxAA_s132_6.0.0.dir/__/__/__/mesh/core/src/fifo.c.obj
 .text.fifo_flush
                0x00000000        0x8 examples/light_switch/proxy_server/CMakeFiles/light_switch_proxy_server_nrf52832_xxAA_s132_6.0.0.dir/__/__/__/mesh/core/src/fifo.c.obj
 .text.fifo_get_len
                0x00000000        0x8 examples/light_switch/proxy_server/CMakeFiles/light_switch_proxy_server_nrf52832_xxAA_s132_6.0.0.dir/__/__/__/mesh/core/src/fifo.c.obj
 .text.fifo_is_full
                0x00000000       0x14 examples/light_switch/proxy_server/CMakeFiles/light_switch_proxy_server_nrf52832_xxAA_s132_6.0.0.dir/__/__/__/mesh/core/src/fifo.c.obj
 .text.fifo_is_empty
                0x00000000       0x10 examples/light_switch/proxy_server/CMakeFiles/light_switch_proxy_server_nrf52832_xxAA_s132_6.0.0.dir/__/__/__/mesh/core/src/fifo.c.obj
 .text          0x00000000        0x0 examples/light_switch/proxy_server/CMakeFiles/light_switch_proxy_server_nrf52832_xxAA_s132_6.0.0.dir/__/__/__/mesh/core/src/nrf_flash.c.obj
 .data          0x00000000        0x0 examples/light_switch/proxy_server/CMakeFiles/light_switch_proxy_server_nrf52832_xxAA_s132_6.0.0.dir/__/__/__/mesh/core/src/nrf_flash.c.obj
 .bss           0x00000000        0x0 examples/light_switch/proxy_server/CMakeFiles/light_switch_proxy_server_nrf52832_xxAA_s132_6.0.0.dir/__/__/__/mesh/core/src/nrf_flash.c.obj
 .text          0x00000000        0x0 examples/light_switch/proxy_server/CMakeFiles/light_switch_proxy_server_nrf52832_xxAA_s132_6.0.0.dir/__/__/__/mesh/core/src/packet_mgr.c.obj
 .data          0x00000000        0x0 examples/light_switch/proxy_server/CMakeFiles/light_switch_proxy_server_nrf52832_xxAA_s132_6.0.0.dir/__/__/__/mesh/core/src/packet_mgr.c.obj
 .bss           0x00000000        0x0 examples/light_switch/proxy_server/CMakeFiles/light_switch_proxy_server_nrf52832_xxAA_s132_6.0.0.dir/__/__/__/mesh/core/src/packet_mgr.c.obj
 .text.packet_mgr_alloc
                0x00000000      0x1a0 examples/light_switch/proxy_server/CMakeFiles/light_switch_proxy_server_nrf52832_xxAA_s132_6.0.0.dir/__/__/__/mesh/core/src/packet_mgr.c.obj
 .text.packet_mgr_free
                0x00000000       0x5c examples/light_switch/proxy_server/CMakeFiles/light_switch_proxy_server_nrf52832_xxAA_s132_6.0.0.dir/__/__/__/mesh/core/src/packet_mgr.c.obj
 .text.packet_mgr_get_free_space
                0x00000000       0x1c examples/light_switch/proxy_server/CMakeFiles/light_switch_proxy_server_nrf52832_xxAA_s132_6.0.0.dir/__/__/__/mesh/core/src/packet_mgr.c.obj
 .text.packet_mgr_refcount_get
                0x00000000        0x8 examples/light_switch/proxy_server/CMakeFiles/light_switch_proxy_server_nrf52832_xxAA_s132_6.0.0.dir/__/__/__/mesh/core/src/packet_mgr.c.obj
 .text.packet_mgr_size_get
                0x00000000        0x8 examples/light_switch/proxy_server/CMakeFiles/light_switch_proxy_server_nrf52832_xxAA_s132_6.0.0.dir/__/__/__/mesh/core/src/packet_mgr.c.obj
 .text          0x00000000        0x0 examples/light_switch/proxy_server/CMakeFiles/light_switch_proxy_server_nrf52832_xxAA_s132_6.0.0.dir/__/__/__/mesh/core/src/net_state.c.obj
 .data          0x00000000        0x0 examples/light_switch/proxy_server/CMakeFiles/light_switch_proxy_server_nrf52832_xxAA_s132_6.0.0.dir/__/__/__/mesh/core/src/net_state.c.obj
 .bss           0x00000000        0x0 examples/light_switch/proxy_server/CMakeFiles/light_switch_proxy_server_nrf52832_xxAA_s132_6.0.0.dir/__/__/__/mesh/core/src/net_state.c.obj
 .text.net_state_iv_update_start
                0x00000000       0x90 examples/light_switch/proxy_server/CMakeFiles/light_switch_proxy_server_nrf52832_xxAA_s132_6.0.0.dir/__/__/__/mesh/core/src/net_state.c.obj
 .text.net_state_iv_update_test_mode_set
                0x00000000        0xc examples/light_switch/proxy_server/CMakeFiles/light_switch_proxy_server_nrf52832_xxAA_s132_6.0.0.dir/__/__/__/mesh/core/src/net_state.c.obj
 .text.net_state_test_mode_transition_run
                0x00000000      0x170 examples/light_switch/proxy_server/CMakeFiles/light_switch_proxy_server_nrf52832_xxAA_s132_6.0.0.dir/__/__/__/mesh/core/src/net_state.c.obj
 .text          0x00000000        0x0 examples/light_switch/proxy_server/CMakeFiles/light_switch_proxy_server_nrf52832_xxAA_s132_6.0.0.dir/__/__/__/mesh/core/src/mesh_flash.c.obj
 .data          0x00000000        0x0 examples/light_switch/proxy_server/CMakeFiles/light_switch_proxy_server_nrf52832_xxAA_s132_6.0.0.dir/__/__/__/mesh/core/src/mesh_flash.c.obj
 .bss           0x00000000        0x0 examples/light_switch/proxy_server/CMakeFiles/light_switch_proxy_server_nrf52832_xxAA_s132_6.0.0.dir/__/__/__/mesh/core/src/mesh_flash.c.obj
 .text.mesh_flash_op_available_slots
                0x00000000       0x2c examples/light_switch/proxy_server/CMakeFiles/light_switch_proxy_server_nrf52832_xxAA_s132_6.0.0.dir/__/__/__/mesh/core/src/mesh_flash.c.obj
 .text.mesh_flash_in_progress
                0x00000000       0x34 examples/light_switch/proxy_server/CMakeFiles/light_switch_proxy_server_nrf52832_xxAA_s132_6.0.0.dir/__/__/__/mesh/core/src/mesh_flash.c.obj
 .text.mesh_flash_set_suspended
                0x00000000      0x228 examples/light_switch/proxy_server/CMakeFiles/light_switch_proxy_server_nrf52832_xxAA_s132_6.0.0.dir/__/__/__/mesh/core/src/mesh_flash.c.obj
 .bss.suspend_count.10124
                0x00000000        0x4 examples/light_switch/proxy_server/CMakeFiles/light_switch_proxy_server_nrf52832_xxAA_s132_6.0.0.dir/__/__/__/mesh/core/src/mesh_flash.c.obj
 .text          0x00000000        0x0 examples/light_switch/proxy_server/CMakeFiles/light_switch_proxy_server_nrf52832_xxAA_s132_6.0.0.dir/__/__/__/mesh/core/src/nrf_mesh_utils.c.obj
 .data          0x00000000        0x0 examples/light_switch/proxy_server/CMakeFiles/light_switch_proxy_server_nrf52832_xxAA_s132_6.0.0.dir/__/__/__/mesh/core/src/nrf_mesh_utils.c.obj
 .bss           0x00000000        0x0 examples/light_switch/proxy_server/CMakeFiles/light_switch_proxy_server_nrf52832_xxAA_s132_6.0.0.dir/__/__/__/mesh/core/src/nrf_mesh_utils.c.obj
 .text.nrf_mesh_rand_get
                0x00000000       0x10 examples/light_switch/proxy_server/CMakeFiles/light_switch_proxy_server_nrf52832_xxAA_s132_6.0.0.dir/__/__/__/mesh/core/src/nrf_mesh_utils.c.obj
 .text.nrf_mesh_gap_address_type_get
                0x00000000       0x34 examples/light_switch/proxy_server/CMakeFiles/light_switch_proxy_server_nrf52832_xxAA_s132_6.0.0.dir/__/__/__/mesh/core/src/nrf_mesh_utils.c.obj
 .text          0x00000000        0x0 examples/light_switch/proxy_server/CMakeFiles/light_switch_proxy_server_nrf52832_xxAA_s132_6.0.0.dir/__/__/__/mesh/core/src/nrf_mesh.c.obj
 .data          0x00000000        0x0 examples/light_switch/proxy_server/CMakeFiles/light_switch_proxy_server_nrf52832_xxAA_s132_6.0.0.dir/__/__/__/mesh/core/src/nrf_mesh.c.obj
 .bss           0x00000000        0x0 examples/light_switch/proxy_server/CMakeFiles/light_switch_proxy_server_nrf52832_xxAA_s132_6.0.0.dir/__/__/__/mesh/core/src/nrf_mesh.c.obj
 .text.nrf_mesh_process
                0x00000000        0x4 examples/light_switch/proxy_server/CMakeFiles/light_switch_proxy_server_nrf52832_xxAA_s132_6.0.0.dir/__/__/__/mesh/core/src/nrf_mesh.c.obj
 .text.nrf_mesh_evt_handler_remove
                0x00000000        0x4 examples/light_switch/proxy_server/CMakeFiles/light_switch_proxy_server_nrf52832_xxAA_s132_6.0.0.dir/__/__/__/mesh/core/src/nrf_mesh.c.obj
 .text.nrf_mesh_rx_cb_set
                0x00000000        0xc examples/light_switch/proxy_server/CMakeFiles/light_switch_proxy_server_nrf52832_xxAA_s132_6.0.0.dir/__/__/__/mesh/core/src/nrf_mesh.c.obj
 .text.nrf_mesh_rx_cb_clear
                0x00000000        0xc examples/light_switch/proxy_server/CMakeFiles/light_switch_proxy_server_nrf52832_xxAA_s132_6.0.0.dir/__/__/__/mesh/core/src/nrf_mesh.c.obj
 .text          0x00000000        0x0 examples/light_switch/proxy_server/CMakeFiles/light_switch_proxy_server_nrf52832_xxAA_s132_6.0.0.dir/__/__/__/mesh/core/src/queue.c.obj
 .data          0x00000000        0x0 examples/light_switch/proxy_server/CMakeFiles/light_switch_proxy_server_nrf52832_xxAA_s132_6.0.0.dir/__/__/__/mesh/core/src/queue.c.obj
 .bss           0x00000000        0x0 examples/light_switch/proxy_server/CMakeFiles/light_switch_proxy_server_nrf52832_xxAA_s132_6.0.0.dir/__/__/__/mesh/core/src/queue.c.obj
 .text          0x00000000        0x0 examples/light_switch/proxy_server/CMakeFiles/light_switch_proxy_server_nrf52832_xxAA_s132_6.0.0.dir/__/__/__/mesh/core/src/hal.c.obj
 .data          0x00000000        0x0 examples/light_switch/proxy_server/CMakeFiles/light_switch_proxy_server_nrf52832_xxAA_s132_6.0.0.dir/__/__/__/mesh/core/src/hal.c.obj
 .bss           0x00000000        0x0 examples/light_switch/proxy_server/CMakeFiles/light_switch_proxy_server_nrf52832_xxAA_s132_6.0.0.dir/__/__/__/mesh/core/src/hal.c.obj
 .text          0x00000000        0x0 examples/light_switch/proxy_server/CMakeFiles/light_switch_proxy_server_nrf52832_xxAA_s132_6.0.0.dir/__/__/__/mesh/core/src/aes_cmac.c.obj
 .data          0x00000000        0x0 examples/light_switch/proxy_server/CMakeFiles/light_switch_proxy_server_nrf52832_xxAA_s132_6.0.0.dir/__/__/__/mesh/core/src/aes_cmac.c.obj
 .bss           0x00000000        0x0 examples/light_switch/proxy_server/CMakeFiles/light_switch_proxy_server_nrf52832_xxAA_s132_6.0.0.dir/__/__/__/mesh/core/src/aes_cmac.c.obj
 .text          0x00000000        0x0 examples/light_switch/proxy_server/CMakeFiles/light_switch_proxy_server_nrf52832_xxAA_s132_6.0.0.dir/__/__/__/mesh/core/src/timer_scheduler.c.obj
 .data          0x00000000        0x0 examples/light_switch/proxy_server/CMakeFiles/light_switch_proxy_server_nrf52832_xxAA_s132_6.0.0.dir/__/__/__/mesh/core/src/timer_scheduler.c.obj
 .bss           0x00000000        0x0 examples/light_switch/proxy_server/CMakeFiles/light_switch_proxy_server_nrf52832_xxAA_s132_6.0.0.dir/__/__/__/mesh/core/src/timer_scheduler.c.obj
 .text          0x00000000        0x0 examples/light_switch/proxy_server/CMakeFiles/light_switch_proxy_server_nrf52832_xxAA_s132_6.0.0.dir/__/__/__/mesh/core/src/timer.c.obj
 .data          0x00000000        0x0 examples/light_switch/proxy_server/CMakeFiles/light_switch_proxy_server_nrf52832_xxAA_s132_6.0.0.dir/__/__/__/mesh/core/src/timer.c.obj
 .bss           0x00000000        0x0 examples/light_switch/proxy_server/CMakeFiles/light_switch_proxy_server_nrf52832_xxAA_s132_6.0.0.dir/__/__/__/mesh/core/src/timer.c.obj
 .text.timer_order_cb_ppi
                0x00000000       0xd8 examples/light_switch/proxy_server/CMakeFiles/light_switch_proxy_server_nrf52832_xxAA_s132_6.0.0.dir/__/__/__/mesh/core/src/timer.c.obj
 .text.timer_order_ppi
                0x00000000       0xc8 examples/light_switch/proxy_server/CMakeFiles/light_switch_proxy_server_nrf52832_xxAA_s132_6.0.0.dir/__/__/__/mesh/core/src/timer.c.obj
 .text.timer_abort
                0x00000000       0x84 examples/light_switch/proxy_server/CMakeFiles/light_switch_proxy_server_nrf52832_xxAA_s132_6.0.0.dir/__/__/__/mesh/core/src/timer.c.obj
 .text          0x00000000        0x0 examples/light_switch/proxy_server/CMakeFiles/light_switch_proxy_server_nrf52832_xxAA_s132_6.0.0.dir/__/__/__/mesh/core/src/ticker.c.obj
 .data          0x00000000        0x0 examples/light_switch/proxy_server/CMakeFiles/light_switch_proxy_server_nrf52832_xxAA_s132_6.0.0.dir/__/__/__/mesh/core/src/ticker.c.obj
 .bss           0x00000000        0x0 examples/light_switch/proxy_server/CMakeFiles/light_switch_proxy_server_nrf52832_xxAA_s132_6.0.0.dir/__/__/__/mesh/core/src/ticker.c.obj
 .text.ticker_get
                0x00000000        0xc examples/light_switch/proxy_server/CMakeFiles/light_switch_proxy_server_nrf52832_xxAA_s132_6.0.0.dir/__/__/__/mesh/core/src/ticker.c.obj
 .text          0x00000000        0x0 examples/light_switch/proxy_server/CMakeFiles/light_switch_proxy_server_nrf52832_xxAA_s132_6.0.0.dir/__/__/__/mesh/core/src/rand.c.obj
 .data          0x00000000        0x0 examples/light_switch/proxy_server/CMakeFiles/light_switch_proxy_server_nrf52832_xxAA_s132_6.0.0.dir/__/__/__/mesh/core/src/rand.c.obj
 .bss           0x00000000        0x0 examples/light_switch/proxy_server/CMakeFiles/light_switch_proxy_server_nrf52832_xxAA_s132_6.0.0.dir/__/__/__/mesh/core/src/rand.c.obj
 .text          0x00000000        0x0 examples/light_switch/proxy_server/CMakeFiles/light_switch_proxy_server_nrf52832_xxAA_s132_6.0.0.dir/__/__/__/mesh/core/src/nrf_mesh_opt.c.obj
 .data          0x00000000        0x0 examples/light_switch/proxy_server/CMakeFiles/light_switch_proxy_server_nrf52832_xxAA_s132_6.0.0.dir/__/__/__/mesh/core/src/nrf_mesh_opt.c.obj
 .bss           0x00000000        0x0 examples/light_switch/proxy_server/CMakeFiles/light_switch_proxy_server_nrf52832_xxAA_s132_6.0.0.dir/__/__/__/mesh/core/src/nrf_mesh_opt.c.obj
 .text          0x00000000        0x0 examples/light_switch/proxy_server/CMakeFiles/light_switch_proxy_server_nrf52832_xxAA_s132_6.0.0.dir/__/__/__/mesh/core/src/timeslot.c.obj
 .data          0x00000000        0x0 examples/light_switch/proxy_server/CMakeFiles/light_switch_proxy_server_nrf52832_xxAA_s132_6.0.0.dir/__/__/__/mesh/core/src/timeslot.c.obj
 .bss           0x00000000        0x0 examples/light_switch/proxy_server/CMakeFiles/light_switch_proxy_server_nrf52832_xxAA_s132_6.0.0.dir/__/__/__/mesh/core/src/timeslot.c.obj
 .text.timeslot_restart
                0x00000000       0x30 examples/light_switch/proxy_server/CMakeFiles/light_switch_proxy_server_nrf52832_xxAA_s132_6.0.0.dir/__/__/__/mesh/core/src/timeslot.c.obj
 .text.timeslot_end_time_get
                0x00000000       0x30 examples/light_switch/proxy_server/CMakeFiles/light_switch_proxy_server_nrf52832_xxAA_s132_6.0.0.dir/__/__/__/mesh/core/src/timeslot.c.obj
 .text.timeslot_is_in_ts
                0x00000000        0xc examples/light_switch/proxy_server/CMakeFiles/light_switch_proxy_server_nrf52832_xxAA_s132_6.0.0.dir/__/__/__/mesh/core/src/timeslot.c.obj
 .text          0x00000000        0x0 examples/light_switch/proxy_server/CMakeFiles/light_switch_proxy_server_nrf52832_xxAA_s132_6.0.0.dir/__/__/__/mesh/core/src/bearer_event.c.obj
 .data          0x00000000        0x0 examples/light_switch/proxy_server/CMakeFiles/light_switch_proxy_server_nrf52832_xxAA_s132_6.0.0.dir/__/__/__/mesh/core/src/bearer_event.c.obj
 .bss           0x00000000        0x0 examples/light_switch/proxy_server/CMakeFiles/light_switch_proxy_server_nrf52832_xxAA_s132_6.0.0.dir/__/__/__/mesh/core/src/bearer_event.c.obj
 .text.bearer_event_generic_post
                0x00000000       0x50 examples/light_switch/proxy_server/CMakeFiles/light_switch_proxy_server_nrf52832_xxAA_s132_6.0.0.dir/__/__/__/mesh/core/src/bearer_event.c.obj
 .text.bearer_event_timer_sch_post
                0x00000000       0x54 examples/light_switch/proxy_server/CMakeFiles/light_switch_proxy_server_nrf52832_xxAA_s132_6.0.0.dir/__/__/__/mesh/core/src/bearer_event.c.obj
 .text.bearer_event_in_correct_irq_priority
                0x00000000       0x54 examples/light_switch/proxy_server/CMakeFiles/light_switch_proxy_server_nrf52832_xxAA_s132_6.0.0.dir/__/__/__/mesh/core/src/bearer_event.c.obj
 .text          0x00000000        0x0 examples/light_switch/proxy_server/CMakeFiles/light_switch_proxy_server_nrf52832_xxAA_s132_6.0.0.dir/__/__/__/mesh/core/src/enc.c.obj
 .data          0x00000000        0x0 examples/light_switch/proxy_server/CMakeFiles/light_switch_proxy_server_nrf52832_xxAA_s132_6.0.0.dir/__/__/__/mesh/core/src/enc.c.obj
 .bss           0x00000000        0x0 examples/light_switch/proxy_server/CMakeFiles/light_switch_proxy_server_nrf52832_xxAA_s132_6.0.0.dir/__/__/__/mesh/core/src/enc.c.obj
 .text.enc_key_generate
                0x00000000        0x8 examples/light_switch/proxy_server/CMakeFiles/light_switch_proxy_server_nrf52832_xxAA_s132_6.0.0.dir/__/__/__/mesh/core/src/enc.c.obj
 .text          0x00000000        0x0 examples/light_switch/proxy_server/CMakeFiles/light_switch_proxy_server_nrf52832_xxAA_s132_6.0.0.dir/__/__/__/mesh/core/src/network.c.obj
 .data          0x00000000        0x0 examples/light_switch/proxy_server/CMakeFiles/light_switch_proxy_server_nrf52832_xxAA_s132_6.0.0.dir/__/__/__/mesh/core/src/network.c.obj
 .bss           0x00000000        0x0 examples/light_switch/proxy_server/CMakeFiles/light_switch_proxy_server_nrf52832_xxAA_s132_6.0.0.dir/__/__/__/mesh/core/src/network.c.obj
 .text.network_packet_discard
                0x00000000       0x28 examples/light_switch/proxy_server/CMakeFiles/light_switch_proxy_server_nrf52832_xxAA_s132_6.0.0.dir/__/__/__/mesh/core/src/network.c.obj
 .text          0x00000000        0x0 examples/light_switch/proxy_server/CMakeFiles/light_switch_proxy_server_nrf52832_xxAA_s132_6.0.0.dir/__/__/__/mesh/core/src/net_packet.c.obj
 .data          0x00000000        0x0 examples/light_switch/proxy_server/CMakeFiles/light_switch_proxy_server_nrf52832_xxAA_s132_6.0.0.dir/__/__/__/mesh/core/src/net_packet.c.obj
 .bss           0x00000000        0x0 examples/light_switch/proxy_server/CMakeFiles/light_switch_proxy_server_nrf52832_xxAA_s132_6.0.0.dir/__/__/__/mesh/core/src/net_packet.c.obj
 .text.net_packet_enc_start_get
                0x00000000        0x4 examples/light_switch/proxy_server/CMakeFiles/light_switch_proxy_server_nrf52832_xxAA_s132_6.0.0.dir/__/__/__/mesh/core/src/net_packet.c.obj
 .text          0x00000000        0x0 examples/light_switch/proxy_server/CMakeFiles/light_switch_proxy_server_nrf52832_xxAA_s132_6.0.0.dir/__/__/__/mesh/core/src/msqueue.c.obj
 .data          0x00000000        0x0 examples/light_switch/proxy_server/CMakeFiles/light_switch_proxy_server_nrf52832_xxAA_s132_6.0.0.dir/__/__/__/mesh/core/src/msqueue.c.obj
 .bss           0x00000000        0x0 examples/light_switch/proxy_server/CMakeFiles/light_switch_proxy_server_nrf52832_xxAA_s132_6.0.0.dir/__/__/__/mesh/core/src/msqueue.c.obj
 .text.msq_reset
                0x00000000       0x24 examples/light_switch/proxy_server/CMakeFiles/light_switch_proxy_server_nrf52832_xxAA_s132_6.0.0.dir/__/__/__/mesh/core/src/msqueue.c.obj
 .text          0x00000000        0x0 examples/light_switch/proxy_server/CMakeFiles/light_switch_proxy_server_nrf52832_xxAA_s132_6.0.0.dir/__/__/__/mesh/core/src/nrf_mesh_keygen.c.obj
 .data          0x00000000        0x0 examples/light_switch/proxy_server/CMakeFiles/light_switch_proxy_server_nrf52832_xxAA_s132_6.0.0.dir/__/__/__/mesh/core/src/nrf_mesh_keygen.c.obj
 .bss           0x00000000        0x0 examples/light_switch/proxy_server/CMakeFiles/light_switch_proxy_server_nrf52832_xxAA_s132_6.0.0.dir/__/__/__/mesh/core/src/nrf_mesh_keygen.c.obj
 .text          0x00000000        0x0 examples/light_switch/proxy_server/CMakeFiles/light_switch_proxy_server_nrf52832_xxAA_s132_6.0.0.dir/__/__/__/mesh/core/src/cache.c.obj
 .data          0x00000000        0x0 examples/light_switch/proxy_server/CMakeFiles/light_switch_proxy_server_nrf52832_xxAA_s132_6.0.0.dir/__/__/__/mesh/core/src/cache.c.obj
 .bss           0x00000000        0x0 examples/light_switch/proxy_server/CMakeFiles/light_switch_proxy_server_nrf52832_xxAA_s132_6.0.0.dir/__/__/__/mesh/core/src/cache.c.obj
 .text.cache_erase_elem
                0x00000000       0x80 examples/light_switch/proxy_server/CMakeFiles/light_switch_proxy_server_nrf52832_xxAA_s132_6.0.0.dir/__/__/__/mesh/core/src/cache.c.obj
 .text          0x00000000        0x0 examples/light_switch/proxy_server/CMakeFiles/light_switch_proxy_server_nrf52832_xxAA_s132_6.0.0.dir/__/__/__/mesh/core/src/uri.c.obj
 .data          0x00000000        0x0 examples/light_switch/proxy_server/CMakeFiles/light_switch_proxy_server_nrf52832_xxAA_s132_6.0.0.dir/__/__/__/mesh/core/src/uri.c.obj
 .bss           0x00000000        0x0 examples/light_switch/proxy_server/CMakeFiles/light_switch_proxy_server_nrf52832_xxAA_s132_6.0.0.dir/__/__/__/mesh/core/src/uri.c.obj
 .text.uri_data_generate
                0x00000000       0x88 examples/light_switch/proxy_server/CMakeFiles/light_switch_proxy_server_nrf52832_xxAA_s132_6.0.0.dir/__/__/__/mesh/core/src/uri.c.obj
 .text.uri_data_parse
                0x00000000       0x80 examples/light_switch/proxy_server/CMakeFiles/light_switch_proxy_server_nrf52832_xxAA_s132_6.0.0.dir/__/__/__/mesh/core/src/uri.c.obj
 .text.uri_scheme_name_code_point
                0x00000000       0x5c examples/light_switch/proxy_server/CMakeFiles/light_switch_proxy_server_nrf52832_xxAA_s132_6.0.0.dir/__/__/__/mesh/core/src/uri.c.obj
 .text.uri_scheme_name_string
                0x00000000       0x14 examples/light_switch/proxy_server/CMakeFiles/light_switch_proxy_server_nrf52832_xxAA_s132_6.0.0.dir/__/__/__/mesh/core/src/uri.c.obj
 .rodata.m_code_point_strings
                0x00000000      0x2ec examples/light_switch/proxy_server/CMakeFiles/light_switch_proxy_server_nrf52832_xxAA_s132_6.0.0.dir/__/__/__/mesh/core/src/uri.c.obj
 .rodata.str1.4
                0x00000000      0x6ba examples/light_switch/proxy_server/CMakeFiles/light_switch_proxy_server_nrf52832_xxAA_s132_6.0.0.dir/__/__/__/mesh/core/src/uri.c.obj
 .comment       0x00000000       0x80 examples/light_switch/proxy_server/CMakeFiles/light_switch_proxy_server_nrf52832_xxAA_s132_6.0.0.dir/__/__/__/mesh/core/src/uri.c.obj
 .ARM.attributes
                0x00000000       0x39 examples/light_switch/proxy_server/CMakeFiles/light_switch_proxy_server_nrf52832_xxAA_s132_6.0.0.dir/__/__/__/mesh/core/src/uri.c.obj
 .text          0x00000000        0x0 examples/light_switch/proxy_server/CMakeFiles/light_switch_proxy_server_nrf52832_xxAA_s132_6.0.0.dir/__/__/__/mesh/core/src/list.c.obj
 .data          0x00000000        0x0 examples/light_switch/proxy_server/CMakeFiles/light_switch_proxy_server_nrf52832_xxAA_s132_6.0.0.dir/__/__/__/mesh/core/src/list.c.obj
 .bss           0x00000000        0x0 examples/light_switch/proxy_server/CMakeFiles/light_switch_proxy_server_nrf52832_xxAA_s132_6.0.0.dir/__/__/__/mesh/core/src/list.c.obj
 .text.list_size_get
                0x00000000       0x14 examples/light_switch/proxy_server/CMakeFiles/light_switch_proxy_server_nrf52832_xxAA_s132_6.0.0.dir/__/__/__/mesh/core/src/list.c.obj
 .text.list_sorted_add
                0x00000000       0x8c examples/light_switch/proxy_server/CMakeFiles/light_switch_proxy_server_nrf52832_xxAA_s132_6.0.0.dir/__/__/__/mesh/core/src/list.c.obj
 .text          0x00000000        0x0 examples/light_switch/proxy_server/CMakeFiles/light_switch_proxy_server_nrf52832_xxAA_s132_6.0.0.dir/__/__/__/mesh/core/src/log.c.obj
 .data          0x00000000        0x0 examples/light_switch/proxy_server/CMakeFiles/light_switch_proxy_server_nrf52832_xxAA_s132_6.0.0.dir/__/__/__/mesh/core/src/log.c.obj
 .bss           0x00000000        0x0 examples/light_switch/proxy_server/CMakeFiles/light_switch_proxy_server_nrf52832_xxAA_s132_6.0.0.dir/__/__/__/mesh/core/src/log.c.obj
 .text.log_callback_logview
                0x00000000       0x38 examples/light_switch/proxy_server/CMakeFiles/light_switch_proxy_server_nrf52832_xxAA_s132_6.0.0.dir/__/__/__/mesh/core/src/log.c.obj
 .text.log_set_callback
                0x00000000        0xc examples/light_switch/proxy_server/CMakeFiles/light_switch_proxy_server_nrf52832_xxAA_s132_6.0.0.dir/__/__/__/mesh/core/src/log.c.obj
 .text.log_vprintf
                0x00000000       0x18 examples/light_switch/proxy_server/CMakeFiles/light_switch_proxy_server_nrf52832_xxAA_s132_6.0.0.dir/__/__/__/mesh/core/src/log.c.obj
 .rodata.log_callback_logview.str1.4
                0x00000000       0x12 examples/light_switch/proxy_server/CMakeFiles/light_switch_proxy_server_nrf52832_xxAA_s132_6.0.0.dir/__/__/__/mesh/core/src/log.c.obj
 .text          0x00000000        0x0 examples/light_switch/proxy_server/CMakeFiles/light_switch_proxy_server_nrf52832_xxAA_s132_6.0.0.dir/__/__/__/mesh/core/src/flash_manager.c.obj
 .data          0x00000000        0x0 examples/light_switch/proxy_server/CMakeFiles/light_switch_proxy_server_nrf52832_xxAA_s132_6.0.0.dir/__/__/__/mesh/core/src/flash_manager.c.obj
 .bss           0x00000000        0x0 examples/light_switch/proxy_server/CMakeFiles/light_switch_proxy_server_nrf52832_xxAA_s132_6.0.0.dir/__/__/__/mesh/core/src/flash_manager.c.obj
 .text.flash_manager_entry_count_get
                0x00000000       0xf4 examples/light_switch/proxy_server/CMakeFiles/light_switch_proxy_server_nrf52832_xxAA_s132_6.0.0.dir/__/__/__/mesh/core/src/flash_manager.c.obj
 .text.flash_manager_entry_release
                0x00000000       0x74 examples/light_switch/proxy_server/CMakeFiles/light_switch_proxy_server_nrf52832_xxAA_s132_6.0.0.dir/__/__/__/mesh/core/src/flash_manager.c.obj
 .text          0x00000000        0x0 examples/light_switch/proxy_server/CMakeFiles/light_switch_proxy_server_nrf52832_xxAA_s132_6.0.0.dir/__/__/__/mesh/core/src/ccm_soft.c.obj
 .data          0x00000000        0x0 examples/light_switch/proxy_server/CMakeFiles/light_switch_proxy_server_nrf52832_xxAA_s132_6.0.0.dir/__/__/__/mesh/core/src/ccm_soft.c.obj
 .bss           0x00000000        0x0 examples/light_switch/proxy_server/CMakeFiles/light_switch_proxy_server_nrf52832_xxAA_s132_6.0.0.dir/__/__/__/mesh/core/src/ccm_soft.c.obj
 .text          0x00000000        0x0 examples/light_switch/proxy_server/CMakeFiles/light_switch_proxy_server_nrf52832_xxAA_s132_6.0.0.dir/__/__/__/mesh/core/src/toolchain.c.obj
 .data          0x00000000        0x0 examples/light_switch/proxy_server/CMakeFiles/light_switch_proxy_server_nrf52832_xxAA_s132_6.0.0.dir/__/__/__/mesh/core/src/toolchain.c.obj
 .bss           0x00000000        0x0 examples/light_switch/proxy_server/CMakeFiles/light_switch_proxy_server_nrf52832_xxAA_s132_6.0.0.dir/__/__/__/mesh/core/src/toolchain.c.obj
 .comment       0x00000000       0x80 examples/light_switch/proxy_server/CMakeFiles/light_switch_proxy_server_nrf52832_xxAA_s132_6.0.0.dir/__/__/__/mesh/core/src/toolchain.c.obj
 .ARM.attributes
                0x00000000       0x39 examples/light_switch/proxy_server/CMakeFiles/light_switch_proxy_server_nrf52832_xxAA_s132_6.0.0.dir/__/__/__/mesh/core/src/toolchain.c.obj
 .text          0x00000000        0x0 examples/light_switch/proxy_server/CMakeFiles/light_switch_proxy_server_nrf52832_xxAA_s132_6.0.0.dir/__/__/__/mesh/core/src/replay_cache.c.obj
 .data          0x00000000        0x0 examples/light_switch/proxy_server/CMakeFiles/light_switch_proxy_server_nrf52832_xxAA_s132_6.0.0.dir/__/__/__/mesh/core/src/replay_cache.c.obj
 .bss           0x00000000        0x0 examples/light_switch/proxy_server/CMakeFiles/light_switch_proxy_server_nrf52832_xxAA_s132_6.0.0.dir/__/__/__/mesh/core/src/replay_cache.c.obj
 .text.replay_cache_on_iv_update
                0x00000000       0x2c examples/light_switch/proxy_server/CMakeFiles/light_switch_proxy_server_nrf52832_xxAA_s132_6.0.0.dir/__/__/__/mesh/core/src/replay_cache.c.obj
 .text.replay_cache_clear
                0x00000000       0x20 examples/light_switch/proxy_server/CMakeFiles/light_switch_proxy_server_nrf52832_xxAA_s132_6.0.0.dir/__/__/__/mesh/core/src/replay_cache.c.obj
 .text          0x00000000        0x0 examples/light_switch/proxy_server/CMakeFiles/light_switch_proxy_server_nrf52832_xxAA_s132_6.0.0.dir/__/__/__/mesh/core/src/beacon.c.obj
 .data          0x00000000        0x0 examples/light_switch/proxy_server/CMakeFiles/light_switch_proxy_server_nrf52832_xxAA_s132_6.0.0.dir/__/__/__/mesh/core/src/beacon.c.obj
 .bss           0x00000000        0x0 examples/light_switch/proxy_server/CMakeFiles/light_switch_proxy_server_nrf52832_xxAA_s132_6.0.0.dir/__/__/__/mesh/core/src/beacon.c.obj
 .text          0x00000000        0x0 examples/light_switch/proxy_server/CMakeFiles/light_switch_proxy_server_nrf52832_xxAA_s132_6.0.0.dir/__/__/__/mesh/core/src/flash_manager_internal.c.obj
 .data          0x00000000        0x0 examples/light_switch/proxy_server/CMakeFiles/light_switch_proxy_server_nrf52832_xxAA_s132_6.0.0.dir/__/__/__/mesh/core/src/flash_manager_internal.c.obj
 .bss           0x00000000        0x0 examples/light_switch/proxy_server/CMakeFiles/light_switch_proxy_server_nrf52832_xxAA_s132_6.0.0.dir/__/__/__/mesh/core/src/flash_manager_internal.c.obj
 .text          0x00000000        0x0 examples/light_switch/proxy_server/CMakeFiles/light_switch_proxy_server_nrf52832_xxAA_s132_6.0.0.dir/__/__/__/mesh/core/src/core_tx.c.obj
 .data          0x00000000        0x0 examples/light_switch/proxy_server/CMakeFiles/light_switch_proxy_server_nrf52832_xxAA_s132_6.0.0.dir/__/__/__/mesh/core/src/core_tx.c.obj
 .bss           0x00000000        0x0 examples/light_switch/proxy_server/CMakeFiles/light_switch_proxy_server_nrf52832_xxAA_s132_6.0.0.dir/__/__/__/mesh/core/src/core_tx.c.obj
 .text.core_tx_bearer_type_get
                0x00000000       0x2c examples/light_switch/proxy_server/CMakeFiles/light_switch_proxy_server_nrf52832_xxAA_s132_6.0.0.dir/__/__/__/mesh/core/src/core_tx.c.obj
 .text.core_tx_bearer_count_get
                0x00000000        0xc examples/light_switch/proxy_server/CMakeFiles/light_switch_proxy_server_nrf52832_xxAA_s132_6.0.0.dir/__/__/__/mesh/core/src/core_tx.c.obj
 .text          0x00000000        0x0 examples/light_switch/proxy_server/CMakeFiles/light_switch_proxy_server_nrf52832_xxAA_s132_6.0.0.dir/__/__/__/mesh/core/src/heartbeat.c.obj
 .data          0x00000000        0x0 examples/light_switch/proxy_server/CMakeFiles/light_switch_proxy_server_nrf52832_xxAA_s132_6.0.0.dir/__/__/__/mesh/core/src/heartbeat.c.obj
 .bss           0x00000000        0x0 examples/light_switch/proxy_server/CMakeFiles/light_switch_proxy_server_nrf52832_xxAA_s132_6.0.0.dir/__/__/__/mesh/core/src/heartbeat.c.obj
 .text          0x00000000        0x0 examples/light_switch/proxy_server/CMakeFiles/light_switch_proxy_server_nrf52832_xxAA_s132_6.0.0.dir/__/__/__/mesh/core/src/net_beacon.c.obj
 .data          0x00000000        0x0 examples/light_switch/proxy_server/CMakeFiles/light_switch_proxy_server_nrf52832_xxAA_s132_6.0.0.dir/__/__/__/mesh/core/src/net_beacon.c.obj
 .bss           0x00000000        0x0 examples/light_switch/proxy_server/CMakeFiles/light_switch_proxy_server_nrf52832_xxAA_s132_6.0.0.dir/__/__/__/mesh/core/src/net_beacon.c.obj
 .text          0x00000000        0x0 examples/light_switch/proxy_server/CMakeFiles/light_switch_proxy_server_nrf52832_xxAA_s132_6.0.0.dir/__/__/__/mesh/core/src/fsm.c.obj
 .data          0x00000000        0x0 examples/light_switch/proxy_server/CMakeFiles/light_switch_proxy_server_nrf52832_xxAA_s132_6.0.0.dir/__/__/__/mesh/core/src/fsm.c.obj
 .bss           0x00000000        0x0 examples/light_switch/proxy_server/CMakeFiles/light_switch_proxy_server_nrf52832_xxAA_s132_6.0.0.dir/__/__/__/mesh/core/src/fsm.c.obj
 .text          0x00000000        0x0 examples/light_switch/proxy_server/CMakeFiles/light_switch_proxy_server_nrf52832_xxAA_s132_6.0.0.dir/__/__/__/mesh/core/src/core_tx_adv.c.obj
 .data          0x00000000        0x0 examples/light_switch/proxy_server/CMakeFiles/light_switch_proxy_server_nrf52832_xxAA_s132_6.0.0.dir/__/__/__/mesh/core/src/core_tx_adv.c.obj
 .bss           0x00000000        0x0 examples/light_switch/proxy_server/CMakeFiles/light_switch_proxy_server_nrf52832_xxAA_s132_6.0.0.dir/__/__/__/mesh/core/src/core_tx_adv.c.obj
 .text.core_tx_adv_address_set
                0x00000000       0x28 examples/light_switch/proxy_server/CMakeFiles/light_switch_proxy_server_nrf52832_xxAA_s132_6.0.0.dir/__/__/__/mesh/core/src/core_tx_adv.c.obj
 .text          0x00000000        0x0 examples/light_switch/proxy_server/CMakeFiles/light_switch_proxy_server_nrf52832_xxAA_s132_6.0.0.dir/__/__/__/mesh/bearer/src/ad_listener.c.obj
 .data          0x00000000        0x0 examples/light_switch/proxy_server/CMakeFiles/light_switch_proxy_server_nrf52832_xxAA_s132_6.0.0.dir/__/__/__/mesh/bearer/src/ad_listener.c.obj
 .bss           0x00000000        0x0 examples/light_switch/proxy_server/CMakeFiles/light_switch_proxy_server_nrf52832_xxAA_s132_6.0.0.dir/__/__/__/mesh/bearer/src/ad_listener.c.obj
 .text.ad_listener_unsubscribe
                0x00000000       0x7c examples/light_switch/proxy_server/CMakeFiles/light_switch_proxy_server_nrf52832_xxAA_s132_6.0.0.dir/__/__/__/mesh/bearer/src/ad_listener.c.obj
 .text          0x00000000        0x0 examples/light_switch/proxy_server/CMakeFiles/light_switch_proxy_server_nrf52832_xxAA_s132_6.0.0.dir/__/__/__/mesh/bearer/src/ad_type_filter.c.obj
 .data          0x00000000        0x0 examples/light_switch/proxy_server/CMakeFiles/light_switch_proxy_server_nrf52832_xxAA_s132_6.0.0.dir/__/__/__/mesh/bearer/src/ad_type_filter.c.obj
 .bss           0x00000000        0x0 examples/light_switch/proxy_server/CMakeFiles/light_switch_proxy_server_nrf52832_xxAA_s132_6.0.0.dir/__/__/__/mesh/bearer/src/ad_type_filter.c.obj
 .text.bearer_adtype_remove
                0x00000000       0x28 examples/light_switch/proxy_server/CMakeFiles/light_switch_proxy_server_nrf52832_xxAA_s132_6.0.0.dir/__/__/__/mesh/bearer/src/ad_type_filter.c.obj
 .text.bearer_adtype_clear
                0x00000000       0x10 examples/light_switch/proxy_server/CMakeFiles/light_switch_proxy_server_nrf52832_xxAA_s132_6.0.0.dir/__/__/__/mesh/bearer/src/ad_type_filter.c.obj
 .text.bearer_invalid_length_amount_get
                0x00000000        0xc examples/light_switch/proxy_server/CMakeFiles/light_switch_proxy_server_nrf52832_xxAA_s132_6.0.0.dir/__/__/__/mesh/bearer/src/ad_type_filter.c.obj
 .text.bearer_adtype_filtered_amount_get
                0x00000000        0xc examples/light_switch/proxy_server/CMakeFiles/light_switch_proxy_server_nrf52832_xxAA_s132_6.0.0.dir/__/__/__/mesh/bearer/src/ad_type_filter.c.obj
 .text          0x00000000        0x0 examples/light_switch/proxy_server/CMakeFiles/light_switch_proxy_server_nrf52832_xxAA_s132_6.0.0.dir/__/__/__/mesh/bearer/src/adv_packet_filter.c.obj
 .data          0x00000000        0x0 examples/light_switch/proxy_server/CMakeFiles/light_switch_proxy_server_nrf52832_xxAA_s132_6.0.0.dir/__/__/__/mesh/bearer/src/adv_packet_filter.c.obj
 .bss           0x00000000        0x0 examples/light_switch/proxy_server/CMakeFiles/light_switch_proxy_server_nrf52832_xxAA_s132_6.0.0.dir/__/__/__/mesh/bearer/src/adv_packet_filter.c.obj
 .text.adv_filter_handle
                0x00000000       0x40 examples/light_switch/proxy_server/CMakeFiles/light_switch_proxy_server_nrf52832_xxAA_s132_6.0.0.dir/__/__/__/mesh/bearer/src/adv_packet_filter.c.obj
 .text.bearer_adv_packet_filtering_set
                0x00000000       0x1c examples/light_switch/proxy_server/CMakeFiles/light_switch_proxy_server_nrf52832_xxAA_s132_6.0.0.dir/__/__/__/mesh/bearer/src/adv_packet_filter.c.obj
 .text.bearer_adv_packet_remove
                0x00000000       0x18 examples/light_switch/proxy_server/CMakeFiles/light_switch_proxy_server_nrf52832_xxAA_s132_6.0.0.dir/__/__/__/mesh/bearer/src/adv_packet_filter.c.obj
 .text.bearer_adv_packet_add
                0x00000000       0x14 examples/light_switch/proxy_server/CMakeFiles/light_switch_proxy_server_nrf52832_xxAA_s132_6.0.0.dir/__/__/__/mesh/bearer/src/adv_packet_filter.c.obj
 .text.bearer_adv_packet_clear
                0x00000000        0xc examples/light_switch/proxy_server/CMakeFiles/light_switch_proxy_server_nrf52832_xxAA_s132_6.0.0.dir/__/__/__/mesh/bearer/src/adv_packet_filter.c.obj
 .text.bearer_adv_packet_filter_mode_set
                0x00000000       0x18 examples/light_switch/proxy_server/CMakeFiles/light_switch_proxy_server_nrf52832_xxAA_s132_6.0.0.dir/__/__/__/mesh/bearer/src/adv_packet_filter.c.obj
 .text.bearer_adv_packet_filtered_amount_get
                0x00000000        0xc examples/light_switch/proxy_server/CMakeFiles/light_switch_proxy_server_nrf52832_xxAA_s132_6.0.0.dir/__/__/__/mesh/bearer/src/adv_packet_filter.c.obj
 .bss.m_adv_packet_filter
                0x00000000       0x14 examples/light_switch/proxy_server/CMakeFiles/light_switch_proxy_server_nrf52832_xxAA_s132_6.0.0.dir/__/__/__/mesh/bearer/src/adv_packet_filter.c.obj
 .comment       0x00000000       0x80 examples/light_switch/proxy_server/CMakeFiles/light_switch_proxy_server_nrf52832_xxAA_s132_6.0.0.dir/__/__/__/mesh/bearer/src/adv_packet_filter.c.obj
 .ARM.attributes
                0x00000000       0x39 examples/light_switch/proxy_server/CMakeFiles/light_switch_proxy_server_nrf52832_xxAA_s132_6.0.0.dir/__/__/__/mesh/bearer/src/adv_packet_filter.c.obj
 .text          0x00000000        0x0 examples/light_switch/proxy_server/CMakeFiles/light_switch_proxy_server_nrf52832_xxAA_s132_6.0.0.dir/__/__/__/mesh/bearer/src/advertiser.c.obj
 .data          0x00000000        0x0 examples/light_switch/proxy_server/CMakeFiles/light_switch_proxy_server_nrf52832_xxAA_s132_6.0.0.dir/__/__/__/mesh/bearer/src/advertiser.c.obj
 .bss           0x00000000        0x0 examples/light_switch/proxy_server/CMakeFiles/light_switch_proxy_server_nrf52832_xxAA_s132_6.0.0.dir/__/__/__/mesh/bearer/src/advertiser.c.obj
 .text.advertiser_disable
                0x00000000        0xc examples/light_switch/proxy_server/CMakeFiles/light_switch_proxy_server_nrf52832_xxAA_s132_6.0.0.dir/__/__/__/mesh/bearer/src/advertiser.c.obj
 .text.advertiser_config_set
                0x00000000      0x180 examples/light_switch/proxy_server/CMakeFiles/light_switch_proxy_server_nrf52832_xxAA_s132_6.0.0.dir/__/__/__/mesh/bearer/src/advertiser.c.obj
 .text.advertiser_channels_set
                0x00000000       0x94 examples/light_switch/proxy_server/CMakeFiles/light_switch_proxy_server_nrf52832_xxAA_s132_6.0.0.dir/__/__/__/mesh/bearer/src/advertiser.c.obj
 .text.advertiser_address_set
                0x00000000       0x64 examples/light_switch/proxy_server/CMakeFiles/light_switch_proxy_server_nrf52832_xxAA_s132_6.0.0.dir/__/__/__/mesh/bearer/src/advertiser.c.obj
 .text.advertiser_config_get
                0x00000000       0x24 examples/light_switch/proxy_server/CMakeFiles/light_switch_proxy_server_nrf52832_xxAA_s132_6.0.0.dir/__/__/__/mesh/bearer/src/advertiser.c.obj
 .text.advertiser_address_default_get
                0x00000000       0x5c examples/light_switch/proxy_server/CMakeFiles/light_switch_proxy_server_nrf52832_xxAA_s132_6.0.0.dir/__/__/__/mesh/bearer/src/advertiser.c.obj
 .text          0x00000000        0x0 examples/light_switch/proxy_server/CMakeFiles/light_switch_proxy_server_nrf52832_xxAA_s132_6.0.0.dir/__/__/__/mesh/bearer/src/bearer_handler.c.obj
 .data          0x00000000        0x0 examples/light_switch/proxy_server/CMakeFiles/light_switch_proxy_server_nrf52832_xxAA_s132_6.0.0.dir/__/__/__/mesh/bearer/src/bearer_handler.c.obj
 .bss           0x00000000        0x0 examples/light_switch/proxy_server/CMakeFiles/light_switch_proxy_server_nrf52832_xxAA_s132_6.0.0.dir/__/__/__/mesh/bearer/src/bearer_handler.c.obj
 .text.bearer_handler_action_fire
                0x00000000       0x9c examples/light_switch/proxy_server/CMakeFiles/light_switch_proxy_server_nrf52832_xxAA_s132_6.0.0.dir/__/__/__/mesh/bearer/src/bearer_handler.c.obj
 .text          0x00000000        0x0 examples/light_switch/proxy_server/CMakeFiles/light_switch_proxy_server_nrf52832_xxAA_s132_6.0.0.dir/__/__/__/mesh/bearer/src/broadcast.c.obj
 .data          0x00000000        0x0 examples/light_switch/proxy_server/CMakeFiles/light_switch_proxy_server_nrf52832_xxAA_s132_6.0.0.dir/__/__/__/mesh/bearer/src/broadcast.c.obj
 .bss           0x00000000        0x0 examples/light_switch/proxy_server/CMakeFiles/light_switch_proxy_server_nrf52832_xxAA_s132_6.0.0.dir/__/__/__/mesh/bearer/src/broadcast.c.obj
 .text          0x00000000        0x0 examples/light_switch/proxy_server/CMakeFiles/light_switch_proxy_server_nrf52832_xxAA_s132_6.0.0.dir/__/__/__/mesh/bearer/src/filter_engine.c.obj
 .data          0x00000000        0x0 examples/light_switch/proxy_server/CMakeFiles/light_switch_proxy_server_nrf52832_xxAA_s132_6.0.0.dir/__/__/__/mesh/bearer/src/filter_engine.c.obj
 .bss           0x00000000        0x0 examples/light_switch/proxy_server/CMakeFiles/light_switch_proxy_server_nrf52832_xxAA_s132_6.0.0.dir/__/__/__/mesh/bearer/src/filter_engine.c.obj
 .text.fen_accepted_amount_get
                0x00000000        0xc examples/light_switch/proxy_server/CMakeFiles/light_switch_proxy_server_nrf52832_xxAA_s132_6.0.0.dir/__/__/__/mesh/bearer/src/filter_engine.c.obj
 .text          0x00000000        0x0 examples/light_switch/proxy_server/CMakeFiles/light_switch_proxy_server_nrf52832_xxAA_s132_6.0.0.dir/__/__/__/mesh/bearer/src/gap_address_filter.c.obj
 .data          0x00000000        0x0 examples/light_switch/proxy_server/CMakeFiles/light_switch_proxy_server_nrf52832_xxAA_s132_6.0.0.dir/__/__/__/mesh/bearer/src/gap_address_filter.c.obj
 .bss           0x00000000        0x0 examples/light_switch/proxy_server/CMakeFiles/light_switch_proxy_server_nrf52832_xxAA_s132_6.0.0.dir/__/__/__/mesh/bearer/src/gap_address_filter.c.obj
 .text.gap_address_filter_handle
                0x00000000       0xb4 examples/light_switch/proxy_server/CMakeFiles/light_switch_proxy_server_nrf52832_xxAA_s132_6.0.0.dir/__/__/__/mesh/bearer/src/gap_address_filter.c.obj
 .text.bearer_filter_gap_addr_whitelist_set
                0x00000000       0x48 examples/light_switch/proxy_server/CMakeFiles/light_switch_proxy_server_nrf52832_xxAA_s132_6.0.0.dir/__/__/__/mesh/bearer/src/gap_address_filter.c.obj
 .text.bearer_filter_gap_addr_blacklist_set
                0x00000000       0x4c examples/light_switch/proxy_server/CMakeFiles/light_switch_proxy_server_nrf52832_xxAA_s132_6.0.0.dir/__/__/__/mesh/bearer/src/gap_address_filter.c.obj
 .text.bearer_filter_gap_addr_range_set
                0x00000000       0x64 examples/light_switch/proxy_server/CMakeFiles/light_switch_proxy_server_nrf52832_xxAA_s132_6.0.0.dir/__/__/__/mesh/bearer/src/gap_address_filter.c.obj
 .text.bearer_filter_gap_addr_clear
                0x00000000       0x24 examples/light_switch/proxy_server/CMakeFiles/light_switch_proxy_server_nrf52832_xxAA_s132_6.0.0.dir/__/__/__/mesh/bearer/src/gap_address_filter.c.obj
 .text.bearer_gap_addr_filtered_amount_get
                0x00000000        0xc examples/light_switch/proxy_server/CMakeFiles/light_switch_proxy_server_nrf52832_xxAA_s132_6.0.0.dir/__/__/__/mesh/bearer/src/gap_address_filter.c.obj
 .bss.m_addr_filter
                0x00000000       0x18 examples/light_switch/proxy_server/CMakeFiles/light_switch_proxy_server_nrf52832_xxAA_s132_6.0.0.dir/__/__/__/mesh/bearer/src/gap_address_filter.c.obj
 .comment       0x00000000       0x80 examples/light_switch/proxy_server/CMakeFiles/light_switch_proxy_server_nrf52832_xxAA_s132_6.0.0.dir/__/__/__/mesh/bearer/src/gap_address_filter.c.obj
 .ARM.attributes
                0x00000000       0x39 examples/light_switch/proxy_server/CMakeFiles/light_switch_proxy_server_nrf52832_xxAA_s132_6.0.0.dir/__/__/__/mesh/bearer/src/gap_address_filter.c.obj
 .text          0x00000000        0x0 examples/light_switch/proxy_server/CMakeFiles/light_switch_proxy_server_nrf52832_xxAA_s132_6.0.0.dir/__/__/__/mesh/bearer/src/radio_config.c.obj
 .data          0x00000000        0x0 examples/light_switch/proxy_server/CMakeFiles/light_switch_proxy_server_nrf52832_xxAA_s132_6.0.0.dir/__/__/__/mesh/bearer/src/radio_config.c.obj
 .bss           0x00000000        0x0 examples/light_switch/proxy_server/CMakeFiles/light_switch_proxy_server_nrf52832_xxAA_s132_6.0.0.dir/__/__/__/mesh/bearer/src/radio_config.c.obj
 .text.radio_config_access_addr_get
                0x00000000       0x54 examples/light_switch/proxy_server/CMakeFiles/light_switch_proxy_server_nrf52832_xxAA_s132_6.0.0.dir/__/__/__/mesh/bearer/src/radio_config.c.obj
 .text          0x00000000        0x0 examples/light_switch/proxy_server/CMakeFiles/light_switch_proxy_server_nrf52832_xxAA_s132_6.0.0.dir/__/__/__/mesh/bearer/src/rssi_filter.c.obj
 .data          0x00000000        0x0 examples/light_switch/proxy_server/CMakeFiles/light_switch_proxy_server_nrf52832_xxAA_s132_6.0.0.dir/__/__/__/mesh/bearer/src/rssi_filter.c.obj
 .bss           0x00000000        0x0 examples/light_switch/proxy_server/CMakeFiles/light_switch_proxy_server_nrf52832_xxAA_s132_6.0.0.dir/__/__/__/mesh/bearer/src/rssi_filter.c.obj
 .text.rssi_filter_handle
                0x00000000       0x20 examples/light_switch/proxy_server/CMakeFiles/light_switch_proxy_server_nrf52832_xxAA_s132_6.0.0.dir/__/__/__/mesh/bearer/src/rssi_filter.c.obj
 .text.bearer_rssi_filtering_set
                0x00000000       0x34 examples/light_switch/proxy_server/CMakeFiles/light_switch_proxy_server_nrf52832_xxAA_s132_6.0.0.dir/__/__/__/mesh/bearer/src/rssi_filter.c.obj
 .text.bearer_rssi_filtered_amount_get
                0x00000000        0xc examples/light_switch/proxy_server/CMakeFiles/light_switch_proxy_server_nrf52832_xxAA_s132_6.0.0.dir/__/__/__/mesh/bearer/src/rssi_filter.c.obj
 .bss.m_rssi_filter
                0x00000000       0x18 examples/light_switch/proxy_server/CMakeFiles/light_switch_proxy_server_nrf52832_xxAA_s132_6.0.0.dir/__/__/__/mesh/bearer/src/rssi_filter.c.obj
 .comment       0x00000000       0x80 examples/light_switch/proxy_server/CMakeFiles/light_switch_proxy_server_nrf52832_xxAA_s132_6.0.0.dir/__/__/__/mesh/bearer/src/rssi_filter.c.obj
 .ARM.attributes
                0x00000000       0x39 examples/light_switch/proxy_server/CMakeFiles/light_switch_proxy_server_nrf52832_xxAA_s132_6.0.0.dir/__/__/__/mesh/bearer/src/rssi_filter.c.obj
 .text          0x00000000        0x0 examples/light_switch/proxy_server/CMakeFiles/light_switch_proxy_server_nrf52832_xxAA_s132_6.0.0.dir/__/__/__/mesh/bearer/src/scanner.c.obj
 .data          0x00000000        0x0 examples/light_switch/proxy_server/CMakeFiles/light_switch_proxy_server_nrf52832_xxAA_s132_6.0.0.dir/__/__/__/mesh/bearer/src/scanner.c.obj
 .bss           0x00000000        0x0 examples/light_switch/proxy_server/CMakeFiles/light_switch_proxy_server_nrf52832_xxAA_s132_6.0.0.dir/__/__/__/mesh/bearer/src/scanner.c.obj
 .text.scanner_rx_callback_set
                0x00000000       0x20 examples/light_switch/proxy_server/CMakeFiles/light_switch_proxy_server_nrf52832_xxAA_s132_6.0.0.dir/__/__/__/mesh/bearer/src/scanner.c.obj
 .text.scanner_is_enabled
                0x00000000       0x14 examples/light_switch/proxy_server/CMakeFiles/light_switch_proxy_server_nrf52832_xxAA_s132_6.0.0.dir/__/__/__/mesh/bearer/src/scanner.c.obj
 .text.scanner_stats_get
                0x00000000        0x8 examples/light_switch/proxy_server/CMakeFiles/light_switch_proxy_server_nrf52832_xxAA_s132_6.0.0.dir/__/__/__/mesh/bearer/src/scanner.c.obj
 .text.scanner_config_radio_mode_set
                0x00000000       0x10 examples/light_switch/proxy_server/CMakeFiles/light_switch_proxy_server_nrf52832_xxAA_s132_6.0.0.dir/__/__/__/mesh/bearer/src/scanner.c.obj
 .text.scanner_config_scan_time_set
                0x00000000       0x88 examples/light_switch/proxy_server/CMakeFiles/light_switch_proxy_server_nrf52832_xxAA_s132_6.0.0.dir/__/__/__/mesh/bearer/src/scanner.c.obj
 .text.scanner_config_channels_set
                0x00000000       0x50 examples/light_switch/proxy_server/CMakeFiles/light_switch_proxy_server_nrf52832_xxAA_s132_6.0.0.dir/__/__/__/mesh/bearer/src/scanner.c.obj
 .text.scanner_config_access_addresses_set
                0x00000000       0x38 examples/light_switch/proxy_server/CMakeFiles/light_switch_proxy_server_nrf52832_xxAA_s132_6.0.0.dir/__/__/__/mesh/bearer/src/scanner.c.obj
 .text          0x00000000        0x0 examples/light_switch/proxy_server/CMakeFiles/light_switch_proxy_server_nrf52832_xxAA_s132_6.0.0.dir/__/__/__/mesh/gatt/src/mesh_gatt.c.obj
 .data          0x00000000        0x0 examples/light_switch/proxy_server/CMakeFiles/light_switch_proxy_server_nrf52832_xxAA_s132_6.0.0.dir/__/__/__/mesh/gatt/src/mesh_gatt.c.obj
 .bss           0x00000000        0x0 examples/light_switch/proxy_server/CMakeFiles/light_switch_proxy_server_nrf52832_xxAA_s132_6.0.0.dir/__/__/__/mesh/gatt/src/mesh_gatt.c.obj
 .text          0x00000000        0x0 examples/light_switch/proxy_server/CMakeFiles/light_switch_proxy_server_nrf52832_xxAA_s132_6.0.0.dir/__/__/__/mesh/gatt/src/proxy.c.obj
 .data          0x00000000        0x0 examples/light_switch/proxy_server/CMakeFiles/light_switch_proxy_server_nrf52832_xxAA_s132_6.0.0.dir/__/__/__/mesh/gatt/src/proxy.c.obj
 .bss           0x00000000        0x0 examples/light_switch/proxy_server/CMakeFiles/light_switch_proxy_server_nrf52832_xxAA_s132_6.0.0.dir/__/__/__/mesh/gatt/src/proxy.c.obj
 .text.proxy_is_connected
                0x00000000       0x18 examples/light_switch/proxy_server/CMakeFiles/light_switch_proxy_server_nrf52832_xxAA_s132_6.0.0.dir/__/__/__/mesh/gatt/src/proxy.c.obj
 .text          0x00000000        0x0 examples/light_switch/proxy_server/CMakeFiles/light_switch_proxy_server_nrf52832_xxAA_s132_6.0.0.dir/__/__/__/mesh/gatt/src/proxy_filter.c.obj
 .data          0x00000000        0x0 examples/light_switch/proxy_server/CMakeFiles/light_switch_proxy_server_nrf52832_xxAA_s132_6.0.0.dir/__/__/__/mesh/gatt/src/proxy_filter.c.obj
 .bss           0x00000000        0x0 examples/light_switch/proxy_server/CMakeFiles/light_switch_proxy_server_nrf52832_xxAA_s132_6.0.0.dir/__/__/__/mesh/gatt/src/proxy_filter.c.obj
 .text          0x00000000        0x0 examples/light_switch/proxy_server/CMakeFiles/light_switch_proxy_server_nrf52832_xxAA_s132_6.0.0.dir/__/__/__/models/simple_on_off/src/simple_on_off_server.c.obj
 .data          0x00000000        0x0 examples/light_switch/proxy_server/CMakeFiles/light_switch_proxy_server_nrf52832_xxAA_s132_6.0.0.dir/__/__/__/models/simple_on_off/src/simple_on_off_server.c.obj
 .bss           0x00000000        0x0 examples/light_switch/proxy_server/CMakeFiles/light_switch_proxy_server_nrf52832_xxAA_s132_6.0.0.dir/__/__/__/models/simple_on_off/src/simple_on_off_server.c.obj
 .text          0x00000000        0x0 examples/light_switch/proxy_server/CMakeFiles/light_switch_proxy_server_nrf52832_xxAA_s132_6.0.0.dir/__/__/__/models/config/src/composition_data.c.obj
 .data          0x00000000        0x0 examples/light_switch/proxy_server/CMakeFiles/light_switch_proxy_server_nrf52832_xxAA_s132_6.0.0.dir/__/__/__/models/config/src/composition_data.c.obj
 .bss           0x00000000        0x0 examples/light_switch/proxy_server/CMakeFiles/light_switch_proxy_server_nrf52832_xxAA_s132_6.0.0.dir/__/__/__/models/config/src/composition_data.c.obj
 .text          0x00000000        0x0 examples/light_switch/proxy_server/CMakeFiles/light_switch_proxy_server_nrf52832_xxAA_s132_6.0.0.dir/__/__/__/models/config/src/config_server.c.obj
 .data          0x00000000        0x0 examples/light_switch/proxy_server/CMakeFiles/light_switch_proxy_server_nrf52832_xxAA_s132_6.0.0.dir/__/__/__/models/config/src/config_server.c.obj
 .bss           0x00000000        0x0 examples/light_switch/proxy_server/CMakeFiles/light_switch_proxy_server_nrf52832_xxAA_s132_6.0.0.dir/__/__/__/models/config/src/config_server.c.obj
 .text          0x00000000        0x0 examples/light_switch/proxy_server/CMakeFiles/light_switch_proxy_server_nrf52832_xxAA_s132_6.0.0.dir/__/__/__/models/config/src/packed_index_list.c.obj
 .data          0x00000000        0x0 examples/light_switch/proxy_server/CMakeFiles/light_switch_proxy_server_nrf52832_xxAA_s132_6.0.0.dir/__/__/__/models/config/src/packed_index_list.c.obj
 .bss           0x00000000        0x0 examples/light_switch/proxy_server/CMakeFiles/light_switch_proxy_server_nrf52832_xxAA_s132_6.0.0.dir/__/__/__/models/config/src/packed_index_list.c.obj
 .text          0x00000000        0x0 examples/light_switch/proxy_server/CMakeFiles/light_switch_proxy_server_nrf52832_xxAA_s132_6.0.0.dir/__/__/__/models/health/src/health_server.c.obj
 .data          0x00000000        0x0 examples/light_switch/proxy_server/CMakeFiles/light_switch_proxy_server_nrf52832_xxAA_s132_6.0.0.dir/__/__/__/models/health/src/health_server.c.obj
 .bss           0x00000000        0x0 examples/light_switch/proxy_server/CMakeFiles/light_switch_proxy_server_nrf52832_xxAA_s132_6.0.0.dir/__/__/__/models/health/src/health_server.c.obj
 .text.health_server_fault_register
                0x00000000      0x238 examples/light_switch/proxy_server/CMakeFiles/light_switch_proxy_server_nrf52832_xxAA_s132_6.0.0.dir/__/__/__/models/health/src/health_server.c.obj
 .text.health_server_fault_clear
                0x00000000      0x2f4 examples/light_switch/proxy_server/CMakeFiles/light_switch_proxy_server_nrf52832_xxAA_s132_6.0.0.dir/__/__/__/models/health/src/health_server.c.obj
 .text.health_server_fault_is_set
                0x00000000       0x1c examples/light_switch/proxy_server/CMakeFiles/light_switch_proxy_server_nrf52832_xxAA_s132_6.0.0.dir/__/__/__/models/health/src/health_server.c.obj
 .text.health_server_fault_count_get
                0x00000000      0x154 examples/light_switch/proxy_server/CMakeFiles/light_switch_proxy_server_nrf52832_xxAA_s132_6.0.0.dir/__/__/__/models/health/src/health_server.c.obj
 .text.health_server_attention_get
                0x00000000        0x8 examples/light_switch/proxy_server/CMakeFiles/light_switch_proxy_server_nrf52832_xxAA_s132_6.0.0.dir/__/__/__/models/health/src/health_server.c.obj
 .text.health_server_attention_set
                0x00000000       0x98 examples/light_switch/proxy_server/CMakeFiles/light_switch_proxy_server_nrf52832_xxAA_s132_6.0.0.dir/__/__/__/models/health/src/health_server.c.obj
 .text          0x00000000        0x0 examples/light_switch/proxy_server/CMakeFiles/light_switch_proxy_server_nrf52832_xxAA_s132_6.0.0.dir/__/__/__/mesh/access/src/access_publish.c.obj
 .data          0x00000000        0x0 examples/light_switch/proxy_server/CMakeFiles/light_switch_proxy_server_nrf52832_xxAA_s132_6.0.0.dir/__/__/__/mesh/access/src/access_publish.c.obj
 .bss           0x00000000        0x0 examples/light_switch/proxy_server/CMakeFiles/light_switch_proxy_server_nrf52832_xxAA_s132_6.0.0.dir/__/__/__/mesh/access/src/access_publish.c.obj
 .text          0x00000000        0x0 examples/light_switch/proxy_server/CMakeFiles/light_switch_proxy_server_nrf52832_xxAA_s132_6.0.0.dir/__/__/__/mesh/access/src/access.c.obj
 .data          0x00000000        0x0 examples/light_switch/proxy_server/CMakeFiles/light_switch_proxy_server_nrf52832_xxAA_s132_6.0.0.dir/__/__/__/mesh/access/src/access.c.obj
 .bss           0x00000000        0x0 examples/light_switch/proxy_server/CMakeFiles/light_switch_proxy_server_nrf52832_xxAA_s132_6.0.0.dir/__/__/__/mesh/access/src/access.c.obj
 .text.access_model_subscription_lists_share
                0x00000000       0x58 examples/light_switch/proxy_server/CMakeFiles/light_switch_proxy_server_nrf52832_xxAA_s132_6.0.0.dir/__/__/__/mesh/access/src/access.c.obj
 .text.access_element_location_set
                0x00000000       0x20 examples/light_switch/proxy_server/CMakeFiles/light_switch_proxy_server_nrf52832_xxAA_s132_6.0.0.dir/__/__/__/mesh/access/src/access.c.obj
 .text          0x00000000        0x0 examples/light_switch/proxy_server/CMakeFiles/light_switch_proxy_server_nrf52832_xxAA_s132_6.0.0.dir/__/__/__/mesh/access/src/access_reliable.c.obj
 .data          0x00000000        0x0 examples/light_switch/proxy_server/CMakeFiles/light_switch_proxy_server_nrf52832_xxAA_s132_6.0.0.dir/__/__/__/mesh/access/src/access_reliable.c.obj
 .bss           0x00000000        0x0 examples/light_switch/proxy_server/CMakeFiles/light_switch_proxy_server_nrf52832_xxAA_s132_6.0.0.dir/__/__/__/mesh/access/src/access_reliable.c.obj
 .text.access_model_reliable_publish
                0x00000000      0x200 examples/light_switch/proxy_server/CMakeFiles/light_switch_proxy_server_nrf52832_xxAA_s132_6.0.0.dir/__/__/__/mesh/access/src/access_reliable.c.obj
 .text          0x00000000        0x0 examples/light_switch/proxy_server/CMakeFiles/light_switch_proxy_server_nrf52832_xxAA_s132_6.0.0.dir/__/__/__/mesh/access/src/device_state_manager.c.obj
 .data          0x00000000        0x0 examples/light_switch/proxy_server/CMakeFiles/light_switch_proxy_server_nrf52832_xxAA_s132_6.0.0.dir/__/__/__/mesh/access/src/device_state_manager.c.obj
 .bss           0x00000000        0x0 examples/light_switch/proxy_server/CMakeFiles/light_switch_proxy_server_nrf52832_xxAA_s132_6.0.0.dir/__/__/__/mesh/access/src/device_state_manager.c.obj
 .text.dsm_has_unflashed_data
                0x00000000       0x58 examples/light_switch/proxy_server/CMakeFiles/light_switch_proxy_server_nrf52832_xxAA_s132_6.0.0.dir/__/__/__/mesh/access/src/device_state_manager.c.obj
 .text.dsm_address_subscription_count_get
                0x00000000       0x80 examples/light_switch/proxy_server/CMakeFiles/light_switch_proxy_server_nrf52832_xxAA_s132_6.0.0.dir/__/__/__/mesh/access/src/device_state_manager.c.obj
 .text.dsm_address_get_all
                0x00000000      0x198 examples/light_switch/proxy_server/CMakeFiles/light_switch_proxy_server_nrf52832_xxAA_s132_6.0.0.dir/__/__/__/mesh/access/src/device_state_manager.c.obj
 .text.dsm_subnet_handle_to_netkey_index
                0x00000000       0x34 examples/light_switch/proxy_server/CMakeFiles/light_switch_proxy_server_nrf52832_xxAA_s132_6.0.0.dir/__/__/__/mesh/access/src/device_state_manager.c.obj
 .text.dsm_devkey_delete
                0x00000000       0x6c examples/light_switch/proxy_server/CMakeFiles/light_switch_proxy_server_nrf52832_xxAA_s132_6.0.0.dir/__/__/__/mesh/access/src/device_state_manager.c.obj
 .text.dsm_devkey_handle_get
                0x00000000       0x3c examples/light_switch/proxy_server/CMakeFiles/light_switch_proxy_server_nrf52832_xxAA_s132_6.0.0.dir/__/__/__/mesh/access/src/device_state_manager.c.obj
 .text          0x00000000        0x0 examples/light_switch/proxy_server/CMakeFiles/light_switch_proxy_server_nrf52832_xxAA_s132_6.0.0.dir/__/__/__/mesh/prov/src/prov_provisionee.c.obj
 .data          0x00000000        0x0 examples/light_switch/proxy_server/CMakeFiles/light_switch_proxy_server_nrf52832_xxAA_s132_6.0.0.dir/__/__/__/mesh/prov/src/prov_provisionee.c.obj
 .bss           0x00000000        0x0 examples/light_switch/proxy_server/CMakeFiles/light_switch_proxy_server_nrf52832_xxAA_s132_6.0.0.dir/__/__/__/mesh/prov/src/prov_provisionee.c.obj
 .text.prov_provisionee_shared_secret
                0x00000000       0xa0 examples/light_switch/proxy_server/CMakeFiles/light_switch_proxy_server_nrf52832_xxAA_s132_6.0.0.dir/__/__/__/mesh/prov/src/prov_provisionee.c.obj
 .text          0x00000000        0x0 examples/light_switch/proxy_server/CMakeFiles/light_switch_proxy_server_nrf52832_xxAA_s132_6.0.0.dir/__/__/__/mesh/prov/src/nrf_mesh_prov.c.obj
 .data          0x00000000        0x0 examples/light_switch/proxy_server/CMakeFiles/light_switch_proxy_server_nrf52832_xxAA_s132_6.0.0.dir/__/__/__/mesh/prov/src/nrf_mesh_prov.c.obj
 .bss           0x00000000        0x0 examples/light_switch/proxy_server/CMakeFiles/light_switch_proxy_server_nrf52832_xxAA_s132_6.0.0.dir/__/__/__/mesh/prov/src/nrf_mesh_prov.c.obj
 .text.nrf_mesh_prov_listen_stop
                0x00000000       0x30 examples/light_switch/proxy_server/CMakeFiles/light_switch_proxy_server_nrf52832_xxAA_s132_6.0.0.dir/__/__/__/mesh/prov/src/nrf_mesh_prov.c.obj
 .text.nrf_mesh_prov_provision
                0x00000000       0x58 examples/light_switch/proxy_server/CMakeFiles/light_switch_proxy_server_nrf52832_xxAA_s132_6.0.0.dir/__/__/__/mesh/prov/src/nrf_mesh_prov.c.obj
 .text.nrf_mesh_prov_oob_use
                0x00000000       0x18 examples/light_switch/proxy_server/CMakeFiles/light_switch_proxy_server_nrf52832_xxAA_s132_6.0.0.dir/__/__/__/mesh/prov/src/nrf_mesh_prov.c.obj
 .text.nrf_mesh_prov_shared_secret_provide
                0x00000000       0x10 examples/light_switch/proxy_server/CMakeFiles/light_switch_proxy_server_nrf52832_xxAA_s132_6.0.0.dir/__/__/__/mesh/prov/src/nrf_mesh_prov.c.obj
 .text.nrf_mesh_prov_pubkey_provide
                0x00000000       0x10 examples/light_switch/proxy_server/CMakeFiles/light_switch_proxy_server_nrf52832_xxAA_s132_6.0.0.dir/__/__/__/mesh/prov/src/nrf_mesh_prov.c.obj
 .text.nrf_mesh_prov_scan_start
                0x00000000       0x10 examples/light_switch/proxy_server/CMakeFiles/light_switch_proxy_server_nrf52832_xxAA_s132_6.0.0.dir/__/__/__/mesh/prov/src/nrf_mesh_prov.c.obj
 .text.nrf_mesh_prov_scan_stop
                0x00000000        0x4 examples/light_switch/proxy_server/CMakeFiles/light_switch_proxy_server_nrf52832_xxAA_s132_6.0.0.dir/__/__/__/mesh/prov/src/nrf_mesh_prov.c.obj
 .text          0x00000000        0x0 examples/light_switch/proxy_server/CMakeFiles/light_switch_proxy_server_nrf52832_xxAA_s132_6.0.0.dir/__/__/__/mesh/prov/src/provisioning.c.obj
 .data          0x00000000        0x0 examples/light_switch/proxy_server/CMakeFiles/light_switch_proxy_server_nrf52832_xxAA_s132_6.0.0.dir/__/__/__/mesh/prov/src/provisioning.c.obj
 .bss           0x00000000        0x0 examples/light_switch/proxy_server/CMakeFiles/light_switch_proxy_server_nrf52832_xxAA_s132_6.0.0.dir/__/__/__/mesh/prov/src/provisioning.c.obj
 .text.prov_tx_invite
                0x00000000       0x38 examples/light_switch/proxy_server/CMakeFiles/light_switch_proxy_server_nrf52832_xxAA_s132_6.0.0.dir/__/__/__/mesh/prov/src/provisioning.c.obj
 .text.prov_tx_start
                0x00000000       0x38 examples/light_switch/proxy_server/CMakeFiles/light_switch_proxy_server_nrf52832_xxAA_s132_6.0.0.dir/__/__/__/mesh/prov/src/provisioning.c.obj
 .text.prov_tx_data
                0x00000000       0x34 examples/light_switch/proxy_server/CMakeFiles/light_switch_proxy_server_nrf52832_xxAA_s132_6.0.0.dir/__/__/__/mesh/prov/src/provisioning.c.obj
 .text.prov_tx  0x00000000       0x3c examples/light_switch/proxy_server/CMakeFiles/light_switch_proxy_server_nrf52832_xxAA_s132_6.0.0.dir/__/__/__/mesh/prov/src/provisioning.c.obj
 .text          0x00000000        0x0 examples/light_switch/proxy_server/CMakeFiles/light_switch_proxy_server_nrf52832_xxAA_s132_6.0.0.dir/__/__/__/mesh/prov/src/prov_beacon.c.obj
 .data          0x00000000        0x0 examples/light_switch/proxy_server/CMakeFiles/light_switch_proxy_server_nrf52832_xxAA_s132_6.0.0.dir/__/__/__/mesh/prov/src/prov_beacon.c.obj
 .bss           0x00000000        0x0 examples/light_switch/proxy_server/CMakeFiles/light_switch_proxy_server_nrf52832_xxAA_s132_6.0.0.dir/__/__/__/mesh/prov/src/prov_beacon.c.obj
 .text.prov_beacon_scan_start
                0x00000000       0x1c examples/light_switch/proxy_server/CMakeFiles/light_switch_proxy_server_nrf52832_xxAA_s132_6.0.0.dir/__/__/__/mesh/prov/src/prov_beacon.c.obj
 .text.prov_beacon_scan_stop
                0x00000000        0xc examples/light_switch/proxy_server/CMakeFiles/light_switch_proxy_server_nrf52832_xxAA_s132_6.0.0.dir/__/__/__/mesh/prov/src/prov_beacon.c.obj
 .text          0x00000000        0x0 examples/light_switch/proxy_server/CMakeFiles/light_switch_proxy_server_nrf52832_xxAA_s132_6.0.0.dir/__/__/__/mesh/prov/src/prov_utils.c.obj
 .data          0x00000000        0x0 examples/light_switch/proxy_server/CMakeFiles/light_switch_proxy_server_nrf52832_xxAA_s132_6.0.0.dir/__/__/__/mesh/prov/src/prov_utils.c.obj
 .bss           0x00000000        0x0 examples/light_switch/proxy_server/CMakeFiles/light_switch_proxy_server_nrf52832_xxAA_s132_6.0.0.dir/__/__/__/mesh/prov/src/prov_utils.c.obj
 .text          0x00000000        0x0 examples/light_switch/proxy_server/CMakeFiles/light_switch_proxy_server_nrf52832_xxAA_s132_6.0.0.dir/__/__/__/mesh/prov/src/prov_bearer_adv.c.obj
 .data          0x00000000        0x0 examples/light_switch/proxy_server/CMakeFiles/light_switch_proxy_server_nrf52832_xxAA_s132_6.0.0.dir/__/__/__/mesh/prov/src/prov_bearer_adv.c.obj
 .bss           0x00000000        0x0 examples/light_switch/proxy_server/CMakeFiles/light_switch_proxy_server_nrf52832_xxAA_s132_6.0.0.dir/__/__/__/mesh/prov/src/prov_bearer_adv.c.obj
 .text.calculate_3GPP_CRC
                0x00000000       0x28 examples/light_switch/proxy_server/CMakeFiles/light_switch_proxy_server_nrf52832_xxAA_s132_6.0.0.dir/__/__/__/mesh/prov/src/prov_bearer_adv.c.obj
 .text          0x00000000        0x0 examples/light_switch/proxy_server/CMakeFiles/light_switch_proxy_server_nrf52832_xxAA_s132_6.0.0.dir/C_/b/nRF5_SDK_15.0.0_a53641a/modules/nrfx/mdk/system_nrf52.c.obj
 .data          0x00000000        0x0 examples/light_switch/proxy_server/CMakeFiles/light_switch_proxy_server_nrf52832_xxAA_s132_6.0.0.dir/C_/b/nRF5_SDK_15.0.0_a53641a/modules/nrfx/mdk/system_nrf52.c.obj
 .bss           0x00000000        0x0 examples/light_switch/proxy_server/CMakeFiles/light_switch_proxy_server_nrf52832_xxAA_s132_6.0.0.dir/C_/b/nRF5_SDK_15.0.0_a53641a/modules/nrfx/mdk/system_nrf52.c.obj
 .text.SystemCoreClockUpdate
                0x00000000       0x10 examples/light_switch/proxy_server/CMakeFiles/light_switch_proxy_server_nrf52832_xxAA_s132_6.0.0.dir/C_/b/nRF5_SDK_15.0.0_a53641a/modules/nrfx/mdk/system_nrf52.c.obj
 .data          0x00000000        0x0 examples/light_switch/proxy_server/CMakeFiles/light_switch_proxy_server_nrf52832_xxAA_s132_6.0.0.dir/C_/b/nRF5_SDK_15.0.0_a53641a/modules/nrfx/mdk/gcc_startup_nrf52.S.obj
 .bss           0x00000000        0x0 examples/light_switch/proxy_server/CMakeFiles/light_switch_proxy_server_nrf52832_xxAA_s132_6.0.0.dir/C_/b/nRF5_SDK_15.0.0_a53641a/modules/nrfx/mdk/gcc_startup_nrf52.S.obj
 .text          0x00000000        0x0 examples/light_switch/proxy_server/CMakeFiles/light_switch_proxy_server_nrf52832_xxAA_s132_6.0.0.dir/C_/b/nRF5_SDK_15.0.0_a53641a/components/libraries/util/app_error.c.obj
 .data          0x00000000        0x0 examples/light_switch/proxy_server/CMakeFiles/light_switch_proxy_server_nrf52832_xxAA_s132_6.0.0.dir/C_/b/nRF5_SDK_15.0.0_a53641a/components/libraries/util/app_error.c.obj
 .bss           0x00000000        0x0 examples/light_switch/proxy_server/CMakeFiles/light_switch_proxy_server_nrf52832_xxAA_s132_6.0.0.dir/C_/b/nRF5_SDK_15.0.0_a53641a/components/libraries/util/app_error.c.obj
 .text.app_error_save_and_stop
                0x00000000       0x64 examples/light_switch/proxy_server/CMakeFiles/light_switch_proxy_server_nrf52832_xxAA_s132_6.0.0.dir/C_/b/nRF5_SDK_15.0.0_a53641a/components/libraries/util/app_error.c.obj
 .bss.m_error_data.7863
                0x00000000       0x20 examples/light_switch/proxy_server/CMakeFiles/light_switch_proxy_server_nrf52832_xxAA_s132_6.0.0.dir/C_/b/nRF5_SDK_15.0.0_a53641a/components/libraries/util/app_error.c.obj
 .text          0x00000000        0x0 examples/light_switch/proxy_server/CMakeFiles/light_switch_proxy_server_nrf52832_xxAA_s132_6.0.0.dir/C_/b/nRF5_SDK_15.0.0_a53641a/components/libraries/util/app_error_handler_gcc.c.obj
 .data          0x00000000        0x0 examples/light_switch/proxy_server/CMakeFiles/light_switch_proxy_server_nrf52832_xxAA_s132_6.0.0.dir/C_/b/nRF5_SDK_15.0.0_a53641a/components/libraries/util/app_error_handler_gcc.c.obj
 .bss           0x00000000        0x0 examples/light_switch/proxy_server/CMakeFiles/light_switch_proxy_server_nrf52832_xxAA_s132_6.0.0.dir/C_/b/nRF5_SDK_15.0.0_a53641a/components/libraries/util/app_error_handler_gcc.c.obj
 .text          0x00000000        0x0 external/rtt/librtt_nrf52832_xxAA.a(SEGGER_RTT.c.obj)
 .data          0x00000000        0x0 external/rtt/librtt_nrf52832_xxAA.a(SEGGER_RTT.c.obj)
 .bss           0x00000000        0x0 external/rtt/librtt_nrf52832_xxAA.a(SEGGER_RTT.c.obj)
 .text.SEGGER_RTT_ReadNoLock
                0x00000000      0x100 external/rtt/librtt_nrf52832_xxAA.a(SEGGER_RTT.c.obj)
 .text.SEGGER_RTT_Read
                0x00000000      0x114 external/rtt/librtt_nrf52832_xxAA.a(SEGGER_RTT.c.obj)
 .text.SEGGER_RTT_WriteSkipNoLock
                0x00000000      0x184 external/rtt/librtt_nrf52832_xxAA.a(SEGGER_RTT.c.obj)
 .text.SEGGER_RTT_WriteNoLock
                0x00000000      0x188 external/rtt/librtt_nrf52832_xxAA.a(SEGGER_RTT.c.obj)
 .text.SEGGER_RTT_WriteString
                0x00000000      0x20c external/rtt/librtt_nrf52832_xxAA.a(SEGGER_RTT.c.obj)
 .text.SEGGER_RTT_WaitKey
                0x00000000      0x114 external/rtt/librtt_nrf52832_xxAA.a(SEGGER_RTT.c.obj)
 .text.SEGGER_RTT_HasKey
                0x00000000       0x6c external/rtt/librtt_nrf52832_xxAA.a(SEGGER_RTT.c.obj)
 .text.SEGGER_RTT_HasData
                0x00000000       0x18 external/rtt/librtt_nrf52832_xxAA.a(SEGGER_RTT.c.obj)
 .text.SEGGER_RTT_AllocDownBuffer
                0x00000000       0xbc external/rtt/librtt_nrf52832_xxAA.a(SEGGER_RTT.c.obj)
 .text.SEGGER_RTT_AllocUpBuffer
                0x00000000       0xd8 external/rtt/librtt_nrf52832_xxAA.a(SEGGER_RTT.c.obj)
 .text.SEGGER_RTT_ConfigUpBuffer
                0x00000000       0xd0 external/rtt/librtt_nrf52832_xxAA.a(SEGGER_RTT.c.obj)
 .text.SEGGER_RTT_ConfigDownBuffer
                0x00000000       0xb8 external/rtt/librtt_nrf52832_xxAA.a(SEGGER_RTT.c.obj)
 .text.SEGGER_RTT_SetNameUpBuffer
                0x00000000       0x90 external/rtt/librtt_nrf52832_xxAA.a(SEGGER_RTT.c.obj)
 .text.SEGGER_RTT_SetNameDownBuffer
                0x00000000       0x90 external/rtt/librtt_nrf52832_xxAA.a(SEGGER_RTT.c.obj)
 .text.SEGGER_RTT_Init
                0x00000000       0x60 external/rtt/librtt_nrf52832_xxAA.a(SEGGER_RTT.c.obj)
 .text.SEGGER_RTT_SetTerminal
                0x00000000      0x15c external/rtt/librtt_nrf52832_xxAA.a(SEGGER_RTT.c.obj)
 .text.SEGGER_RTT_TerminalOut
                0x00000000      0x40c external/rtt/librtt_nrf52832_xxAA.a(SEGGER_RTT.c.obj)
 .bss._ActiveTerminal
                0x00000000        0x1 external/rtt/librtt_nrf52832_xxAA.a(SEGGER_RTT.c.obj)
 .rodata._aTerminalId
                0x00000000       0x10 external/rtt/librtt_nrf52832_xxAA.a(SEGGER_RTT.c.obj)
 .text          0x00000000        0x0 external/rtt/librtt_nrf52832_xxAA.a(SEGGER_RTT_printf.c.obj)
 .data          0x00000000        0x0 external/rtt/librtt_nrf52832_xxAA.a(SEGGER_RTT_printf.c.obj)
 .bss           0x00000000        0x0 external/rtt/librtt_nrf52832_xxAA.a(SEGGER_RTT_printf.c.obj)
 .text          0x00000000        0x0 external/micro-ecc/libuECC_nrf52832_xxAA.a(uECC.c.obj)
 .data          0x00000000        0x0 external/micro-ecc/libuECC_nrf52832_xxAA.a(uECC.c.obj)
 .bss           0x00000000        0x0 external/micro-ecc/libuECC_nrf52832_xxAA.a(uECC.c.obj)
 .text.HMAC_finish
                0x00000000       0x70 external/micro-ecc/libuECC_nrf52832_xxAA.a(uECC.c.obj)
 .text.uECC_vli_mmod
                0x00000000      0x3c8 external/micro-ecc/libuECC_nrf52832_xxAA.a(uECC.c.obj)
 .text.uECC_vli_modSub.isra.2
                0x00000000       0x98 external/micro-ecc/libuECC_nrf52832_xxAA.a(uECC.c.obj)
 .text.bits2int
                0x00000000      0x14c external/micro-ecc/libuECC_nrf52832_xxAA.a(uECC.c.obj)
 .text.uECC_sign_with_k
                0x00000000      0x60c external/micro-ecc/libuECC_nrf52832_xxAA.a(uECC.c.obj)
 .text.uECC_set_rng
                0x00000000        0xc external/micro-ecc/libuECC_nrf52832_xxAA.a(uECC.c.obj)
 .text.uECC_get_rng
                0x00000000        0xc external/micro-ecc/libuECC_nrf52832_xxAA.a(uECC.c.obj)
 .text.uECC_curve_private_key_size
                0x00000000       0x10 external/micro-ecc/libuECC_nrf52832_xxAA.a(uECC.c.obj)
 .text.uECC_curve_public_key_size
                0x00000000        0x8 external/micro-ecc/libuECC_nrf52832_xxAA.a(uECC.c.obj)
 .text.uECC_compute_public_key
                0x00000000      0x2e4 external/micro-ecc/libuECC_nrf52832_xxAA.a(uECC.c.obj)
 .text.uECC_sign
                0x00000000       0x60 external/micro-ecc/libuECC_nrf52832_xxAA.a(uECC.c.obj)
 .text.uECC_sign_deterministic
                0x00000000      0x400 external/micro-ecc/libuECC_nrf52832_xxAA.a(uECC.c.obj)
 .text.uECC_verify
                0x00000000      0x95c external/micro-ecc/libuECC_nrf52832_xxAA.a(uECC.c.obj)
 .data          0x00000000        0x0 c:/mesh/arm_gcc/bin/../lib/gcc/arm-none-eabi/6.3.1/thumb/v7e-m/fpv4-sp/hard\libgcc.a(_aeabi_uldivmod.o)
 .bss           0x00000000        0x0 c:/mesh/arm_gcc/bin/../lib/gcc/arm-none-eabi/6.3.1/thumb/v7e-m/fpv4-sp/hard\libgcc.a(_aeabi_uldivmod.o)
 .data          0x00000000        0x0 c:/mesh/arm_gcc/bin/../lib/gcc/arm-none-eabi/6.3.1/thumb/v7e-m/fpv4-sp/hard\libgcc.a(_udivmoddi4.o)
 .bss           0x00000000        0x0 c:/mesh/arm_gcc/bin/../lib/gcc/arm-none-eabi/6.3.1/thumb/v7e-m/fpv4-sp/hard\libgcc.a(_udivmoddi4.o)
 .ARM.extab     0x00000000        0x0 c:/mesh/arm_gcc/bin/../lib/gcc/arm-none-eabi/6.3.1/thumb/v7e-m/fpv4-sp/hard\libgcc.a(_udivmoddi4.o)
 .data          0x00000000        0x0 c:/mesh/arm_gcc/bin/../lib/gcc/arm-none-eabi/6.3.1/thumb/v7e-m/fpv4-sp/hard\libgcc.a(_dvmd_tls.o)
 .bss           0x00000000        0x0 c:/mesh/arm_gcc/bin/../lib/gcc/arm-none-eabi/6.3.1/thumb/v7e-m/fpv4-sp/hard\libgcc.a(_dvmd_tls.o)
 .text          0x00000000        0x0 c:/mesh/arm_gcc/bin/../lib/gcc/arm-none-eabi/6.3.1/../../../../arm-none-eabi/lib/thumb/v7e-m/fpv4-sp/hard\libc_nano.a(lib_a-exit.o)
 .data          0x00000000        0x0 c:/mesh/arm_gcc/bin/../lib/gcc/arm-none-eabi/6.3.1/../../../../arm-none-eabi/lib/thumb/v7e-m/fpv4-sp/hard\libc_nano.a(lib_a-exit.o)
 .bss           0x00000000        0x0 c:/mesh/arm_gcc/bin/../lib/gcc/arm-none-eabi/6.3.1/../../../../arm-none-eabi/lib/thumb/v7e-m/fpv4-sp/hard\libc_nano.a(lib_a-exit.o)
 .text          0x00000000        0x0 c:/mesh/arm_gcc/bin/../lib/gcc/arm-none-eabi/6.3.1/../../../../arm-none-eabi/lib/thumb/v7e-m/fpv4-sp/hard\libc_nano.a(lib_a-impure.o)
 .data          0x00000000        0x0 c:/mesh/arm_gcc/bin/../lib/gcc/arm-none-eabi/6.3.1/../../../../arm-none-eabi/lib/thumb/v7e-m/fpv4-sp/hard\libc_nano.a(lib_a-impure.o)
 .bss           0x00000000        0x0 c:/mesh/arm_gcc/bin/../lib/gcc/arm-none-eabi/6.3.1/../../../../arm-none-eabi/lib/thumb/v7e-m/fpv4-sp/hard\libc_nano.a(lib_a-impure.o)
 .text          0x00000000        0x0 c:/mesh/arm_gcc/bin/../lib/gcc/arm-none-eabi/6.3.1/../../../../arm-none-eabi/lib/thumb/v7e-m/fpv4-sp/hard\libc_nano.a(lib_a-init.o)
 .data          0x00000000        0x0 c:/mesh/arm_gcc/bin/../lib/gcc/arm-none-eabi/6.3.1/../../../../arm-none-eabi/lib/thumb/v7e-m/fpv4-sp/hard\libc_nano.a(lib_a-init.o)
 .bss           0x00000000        0x0 c:/mesh/arm_gcc/bin/../lib/gcc/arm-none-eabi/6.3.1/../../../../arm-none-eabi/lib/thumb/v7e-m/fpv4-sp/hard\libc_nano.a(lib_a-init.o)
 .text          0x00000000        0x0 c:/mesh/arm_gcc/bin/../lib/gcc/arm-none-eabi/6.3.1/../../../../arm-none-eabi/lib/thumb/v7e-m/fpv4-sp/hard\libc_nano.a(lib_a-malloc.o)
 .data          0x00000000        0x0 c:/mesh/arm_gcc/bin/../lib/gcc/arm-none-eabi/6.3.1/../../../../arm-none-eabi/lib/thumb/v7e-m/fpv4-sp/hard\libc_nano.a(lib_a-malloc.o)
 .bss           0x00000000        0x0 c:/mesh/arm_gcc/bin/../lib/gcc/arm-none-eabi/6.3.1/../../../../arm-none-eabi/lib/thumb/v7e-m/fpv4-sp/hard\libc_nano.a(lib_a-malloc.o)
 .text          0x00000000        0x0 c:/mesh/arm_gcc/bin/../lib/gcc/arm-none-eabi/6.3.1/../../../../arm-none-eabi/lib/thumb/v7e-m/fpv4-sp/hard\libc_nano.a(lib_a-memcmp.o)
 .data          0x00000000        0x0 c:/mesh/arm_gcc/bin/../lib/gcc/arm-none-eabi/6.3.1/../../../../arm-none-eabi/lib/thumb/v7e-m/fpv4-sp/hard\libc_nano.a(lib_a-memcmp.o)
 .bss           0x00000000        0x0 c:/mesh/arm_gcc/bin/../lib/gcc/arm-none-eabi/6.3.1/../../../../arm-none-eabi/lib/thumb/v7e-m/fpv4-sp/hard\libc_nano.a(lib_a-memcmp.o)
 .text          0x00000000        0x0 c:/mesh/arm_gcc/bin/../lib/gcc/arm-none-eabi/6.3.1/../../../../arm-none-eabi/lib/thumb/v7e-m/fpv4-sp/hard\libc_nano.a(lib_a-memcpy-stub.o)
 .data          0x00000000        0x0 c:/mesh/arm_gcc/bin/../lib/gcc/arm-none-eabi/6.3.1/../../../../arm-none-eabi/lib/thumb/v7e-m/fpv4-sp/hard\libc_nano.a(lib_a-memcpy-stub.o)
 .bss           0x00000000        0x0 c:/mesh/arm_gcc/bin/../lib/gcc/arm-none-eabi/6.3.1/../../../../arm-none-eabi/lib/thumb/v7e-m/fpv4-sp/hard\libc_nano.a(lib_a-memcpy-stub.o)
 .text          0x00000000        0x0 c:/mesh/arm_gcc/bin/../lib/gcc/arm-none-eabi/6.3.1/../../../../arm-none-eabi/lib/thumb/v7e-m/fpv4-sp/hard\libc_nano.a(lib_a-memset.o)
 .data          0x00000000        0x0 c:/mesh/arm_gcc/bin/../lib/gcc/arm-none-eabi/6.3.1/../../../../arm-none-eabi/lib/thumb/v7e-m/fpv4-sp/hard\libc_nano.a(lib_a-memset.o)
 .bss           0x00000000        0x0 c:/mesh/arm_gcc/bin/../lib/gcc/arm-none-eabi/6.3.1/../../../../arm-none-eabi/lib/thumb/v7e-m/fpv4-sp/hard\libc_nano.a(lib_a-memset.o)
 .text          0x00000000        0x0 c:/mesh/arm_gcc/bin/../lib/gcc/arm-none-eabi/6.3.1/../../../../arm-none-eabi/lib/thumb/v7e-m/fpv4-sp/hard\libc_nano.a(lib_a-nano-freer.o)
 .data          0x00000000        0x0 c:/mesh/arm_gcc/bin/../lib/gcc/arm-none-eabi/6.3.1/../../../../arm-none-eabi/lib/thumb/v7e-m/fpv4-sp/hard\libc_nano.a(lib_a-nano-freer.o)
 .bss           0x00000000        0x0 c:/mesh/arm_gcc/bin/../lib/gcc/arm-none-eabi/6.3.1/../../../../arm-none-eabi/lib/thumb/v7e-m/fpv4-sp/hard\libc_nano.a(lib_a-nano-freer.o)
 .text          0x00000000        0x0 c:/mesh/arm_gcc/bin/../lib/gcc/arm-none-eabi/6.3.1/../../../../arm-none-eabi/lib/thumb/v7e-m/fpv4-sp/hard\libc_nano.a(lib_a-nano-mallocr.o)
 .data          0x00000000        0x0 c:/mesh/arm_gcc/bin/../lib/gcc/arm-none-eabi/6.3.1/../../../../arm-none-eabi/lib/thumb/v7e-m/fpv4-sp/hard\libc_nano.a(lib_a-nano-mallocr.o)
 .bss           0x00000000        0x0 c:/mesh/arm_gcc/bin/../lib/gcc/arm-none-eabi/6.3.1/../../../../arm-none-eabi/lib/thumb/v7e-m/fpv4-sp/hard\libc_nano.a(lib_a-nano-mallocr.o)
 .text          0x00000000        0x0 c:/mesh/arm_gcc/bin/../lib/gcc/arm-none-eabi/6.3.1/../../../../arm-none-eabi/lib/thumb/v7e-m/fpv4-sp/hard\libc_nano.a(lib_a-sbrkr.o)
 .data          0x00000000        0x0 c:/mesh/arm_gcc/bin/../lib/gcc/arm-none-eabi/6.3.1/../../../../arm-none-eabi/lib/thumb/v7e-m/fpv4-sp/hard\libc_nano.a(lib_a-sbrkr.o)
 .bss           0x00000000        0x0 c:/mesh/arm_gcc/bin/../lib/gcc/arm-none-eabi/6.3.1/../../../../arm-none-eabi/lib/thumb/v7e-m/fpv4-sp/hard\libc_nano.a(lib_a-sbrkr.o)
 .text          0x00000000        0x0 c:/mesh/arm_gcc/bin/../lib/gcc/arm-none-eabi/6.3.1/../../../../arm-none-eabi/lib/thumb/v7e-m/fpv4-sp/hard\libc_nano.a(lib_a-strcpy.o)
 .data          0x00000000        0x0 c:/mesh/arm_gcc/bin/../lib/gcc/arm-none-eabi/6.3.1/../../../../arm-none-eabi/lib/thumb/v7e-m/fpv4-sp/hard\libc_nano.a(lib_a-strcpy.o)
 .bss           0x00000000        0x0 c:/mesh/arm_gcc/bin/../lib/gcc/arm-none-eabi/6.3.1/../../../../arm-none-eabi/lib/thumb/v7e-m/fpv4-sp/hard\libc_nano.a(lib_a-strcpy.o)
 .data          0x00000000        0x0 c:/mesh/arm_gcc/bin/../lib/gcc/arm-none-eabi/6.3.1/../../../../arm-none-eabi/lib/thumb/v7e-m/fpv4-sp/hard\libc_nano.a(lib_a-strlen.o)
 .bss           0x00000000        0x0 c:/mesh/arm_gcc/bin/../lib/gcc/arm-none-eabi/6.3.1/../../../../arm-none-eabi/lib/thumb/v7e-m/fpv4-sp/hard\libc_nano.a(lib_a-strlen.o)
 .text          0x00000000        0x0 c:/mesh/arm_gcc/bin/../lib/gcc/arm-none-eabi/6.3.1/../../../../arm-none-eabi/lib/thumb/v7e-m/fpv4-sp/hard\libc_nano.a(lib_a-strrchr.o)
 .data          0x00000000        0x0 c:/mesh/arm_gcc/bin/../lib/gcc/arm-none-eabi/6.3.1/../../../../arm-none-eabi/lib/thumb/v7e-m/fpv4-sp/hard\libc_nano.a(lib_a-strrchr.o)
 .bss           0x00000000        0x0 c:/mesh/arm_gcc/bin/../lib/gcc/arm-none-eabi/6.3.1/../../../../arm-none-eabi/lib/thumb/v7e-m/fpv4-sp/hard\libc_nano.a(lib_a-strrchr.o)
 .text          0x00000000        0x0 c:/mesh/arm_gcc/bin/../lib/gcc/arm-none-eabi/6.3.1/../../../../arm-none-eabi/lib/thumb/v7e-m/fpv4-sp/hard\libc_nano.a(lib_a-mlock.o)
 .data          0x00000000        0x0 c:/mesh/arm_gcc/bin/../lib/gcc/arm-none-eabi/6.3.1/../../../../arm-none-eabi/lib/thumb/v7e-m/fpv4-sp/hard\libc_nano.a(lib_a-mlock.o)
 .bss           0x00000000        0x0 c:/mesh/arm_gcc/bin/../lib/gcc/arm-none-eabi/6.3.1/../../../../arm-none-eabi/lib/thumb/v7e-m/fpv4-sp/hard\libc_nano.a(lib_a-mlock.o)
 .text          0x00000000        0x0 c:/mesh/arm_gcc/bin/../lib/gcc/arm-none-eabi/6.3.1/../../../../arm-none-eabi/lib/thumb/v7e-m/fpv4-sp/hard\libc_nano.a(lib_a-reent.o)
 .data          0x00000000        0x0 c:/mesh/arm_gcc/bin/../lib/gcc/arm-none-eabi/6.3.1/../../../../arm-none-eabi/lib/thumb/v7e-m/fpv4-sp/hard\libc_nano.a(lib_a-reent.o)
 .bss           0x00000000        0x0 c:/mesh/arm_gcc/bin/../lib/gcc/arm-none-eabi/6.3.1/../../../../arm-none-eabi/lib/thumb/v7e-m/fpv4-sp/hard\libc_nano.a(lib_a-reent.o)
 .text.cleanup_glue
                0x00000000       0x1a c:/mesh/arm_gcc/bin/../lib/gcc/arm-none-eabi/6.3.1/../../../../arm-none-eabi/lib/thumb/v7e-m/fpv4-sp/hard\libc_nano.a(lib_a-reent.o)
 .text._reclaim_reent
                0x00000000       0xb8 c:/mesh/arm_gcc/bin/../lib/gcc/arm-none-eabi/6.3.1/../../../../arm-none-eabi/lib/thumb/v7e-m/fpv4-sp/hard\libc_nano.a(lib_a-reent.o)
 .text          0x00000000        0x0 c:/mesh/arm_gcc/bin/../lib/gcc/arm-none-eabi/6.3.1/../../../../arm-none-eabi/lib/thumb/v7e-m/fpv4-sp/hard\libc_nano.a(lib_a-strchr.o)
 .data          0x00000000        0x0 c:/mesh/arm_gcc/bin/../lib/gcc/arm-none-eabi/6.3.1/../../../../arm-none-eabi/lib/thumb/v7e-m/fpv4-sp/hard\libc_nano.a(lib_a-strchr.o)
 .bss           0x00000000        0x0 c:/mesh/arm_gcc/bin/../lib/gcc/arm-none-eabi/6.3.1/../../../../arm-none-eabi/lib/thumb/v7e-m/fpv4-sp/hard\libc_nano.a(lib_a-strchr.o)
 .text          0x00000000        0x0 c:/mesh/arm_gcc/bin/../lib/gcc/arm-none-eabi/6.3.1/thumb/v7e-m/fpv4-sp/hard/crtend.o
 .data          0x00000000        0x0 c:/mesh/arm_gcc/bin/../lib/gcc/arm-none-eabi/6.3.1/thumb/v7e-m/fpv4-sp/hard/crtend.o
 .bss           0x00000000        0x0 c:/mesh/arm_gcc/bin/../lib/gcc/arm-none-eabi/6.3.1/thumb/v7e-m/fpv4-sp/hard/crtend.o
 .text          0x00000000        0x0 c:/mesh/arm_gcc/bin/../lib/gcc/arm-none-eabi/6.3.1/thumb/v7e-m/fpv4-sp/hard/crtn.o
 .data          0x00000000        0x0 c:/mesh/arm_gcc/bin/../lib/gcc/arm-none-eabi/6.3.1/thumb/v7e-m/fpv4-sp/hard/crtn.o
 .bss           0x00000000        0x0 c:/mesh/arm_gcc/bin/../lib/gcc/arm-none-eabi/6.3.1/thumb/v7e-m/fpv4-sp/hard/crtn.o
 .text          0x00000000        0x0 c:/mesh/arm_gcc/bin/../lib/gcc/arm-none-eabi/6.3.1/../../../../arm-none-eabi/lib/thumb/v7e-m/fpv4-sp/hard\libnosys.a(sbrk.o)
 .data          0x00000000        0x0 c:/mesh/arm_gcc/bin/../lib/gcc/arm-none-eabi/6.3.1/../../../../arm-none-eabi/lib/thumb/v7e-m/fpv4-sp/hard\libnosys.a(sbrk.o)
 .bss           0x00000000        0x0 c:/mesh/arm_gcc/bin/../lib/gcc/arm-none-eabi/6.3.1/../../../../arm-none-eabi/lib/thumb/v7e-m/fpv4-sp/hard\libnosys.a(sbrk.o)
 .text          0x00000000        0x0 c:/mesh/arm_gcc/bin/../lib/gcc/arm-none-eabi/6.3.1/../../../../arm-none-eabi/lib/thumb/v7e-m/fpv4-sp/hard\libnosys.a(_exit.o)
 .data          0x00000000        0x0 c:/mesh/arm_gcc/bin/../lib/gcc/arm-none-eabi/6.3.1/../../../../arm-none-eabi/lib/thumb/v7e-m/fpv4-sp/hard\libnosys.a(_exit.o)
 .bss           0x00000000        0x0 c:/mesh/arm_gcc/bin/../lib/gcc/arm-none-eabi/6.3.1/../../../../arm-none-eabi/lib/thumb/v7e-m/fpv4-sp/hard\libnosys.a(_exit.o)

Memory Configuration

Name             Origin             Length             Attributes
FLASH            0x00026000         0x00051000         xr
RAM              0x200032c8         0x0000ca38         xrw
*default*        0x00000000         0xffffffff

Linker script and memory map


.text           0x00026000    0x20bd0
 *(.isr_vector)
 .isr_vector    0x00026000      0x200 examples/light_switch/proxy_server/CMakeFiles/light_switch_proxy_server_nrf52832_xxAA_s132_6.0.0.dir/C_/b/nRF5_SDK_15.0.0_a53641a/modules/nrfx/mdk/gcc_startup_nrf52.S.obj
                0x00026000                __isr_vector
 *(.text*)
 .text          0x00026200       0x6c c:/mesh/arm_gcc/bin/../lib/gcc/arm-none-eabi/6.3.1/thumb/v7e-m/fpv4-sp/hard/crtbegin.o
 .text          0x0002626c       0x74 c:/mesh/arm_gcc/bin/../lib/gcc/arm-none-eabi/6.3.1/../../../../arm-none-eabi/lib/thumb/v7e-m/fpv4-sp/hard/crt0.o
                0x0002626c                _start
                0x0002626c                _mainCRTStartup
 .text.sd_app_evt_wait
                0x000262e0        0x4 examples/light_switch/proxy_server/CMakeFiles/light_switch_proxy_server_nrf52832_xxAA_s132_6.0.0.dir/src/main.c.obj
 .text.sd_ble_gap_ppcp_set
                0x000262e4        0x4 examples/light_switch/proxy_server/CMakeFiles/light_switch_proxy_server_nrf52832_xxAA_s132_6.0.0.dir/src/main.c.obj
 .text.sd_ble_gap_device_name_set
                0x000262e8        0x4 examples/light_switch/proxy_server/CMakeFiles/light_switch_proxy_server_nrf52832_xxAA_s132_6.0.0.dir/src/main.c.obj
 .text.on_sd_evt
                0x000262ec        0x4 examples/light_switch/proxy_server/CMakeFiles/light_switch_proxy_server_nrf52832_xxAA_s132_6.0.0.dir/src/main.c.obj
 .text.provisioning_complete_cb
                0x000262f0       0xe4 examples/light_switch/proxy_server/CMakeFiles/light_switch_proxy_server_nrf52832_xxAA_s132_6.0.0.dir/src/main.c.obj
 .text.on_off_server_get_cb
                0x000263d4        0x8 examples/light_switch/proxy_server/CMakeFiles/light_switch_proxy_server_nrf52832_xxAA_s132_6.0.0.dir/src/main.c.obj
 .text.on_off_server_set_cb
                0x000263dc       0x7c examples/light_switch/proxy_server/CMakeFiles/light_switch_proxy_server_nrf52832_xxAA_s132_6.0.0.dir/src/main.c.obj
 .text.node_reset
                0x00026458       0x80 examples/light_switch/proxy_server/CMakeFiles/light_switch_proxy_server_nrf52832_xxAA_s132_6.0.0.dir/src/main.c.obj
 .text.button_event_handler
                0x000264d8      0x104 examples/light_switch/proxy_server/CMakeFiles/light_switch_proxy_server_nrf52832_xxAA_s132_6.0.0.dir/src/main.c.obj
 .text.models_init_cb
                0x000265dc       0xc0 examples/light_switch/proxy_server/CMakeFiles/light_switch_proxy_server_nrf52832_xxAA_s132_6.0.0.dir/src/main.c.obj
 .text.config_server_evt_cb
                0x0002669c       0x88 examples/light_switch/proxy_server/CMakeFiles/light_switch_proxy_server_nrf52832_xxAA_s132_6.0.0.dir/src/main.c.obj
 .text.app_rtt_input_handler
                0x00026724      0x10c examples/light_switch/proxy_server/CMakeFiles/light_switch_proxy_server_nrf52832_xxAA_s132_6.0.0.dir/src/main.c.obj
 .text.startup.main
                0x00026830      0x460 examples/light_switch/proxy_server/CMakeFiles/light_switch_proxy_server_nrf52832_xxAA_s132_6.0.0.dir/src/main.c.obj
                0x00026830                main
 .text.mesh_evt_handler
                0x00026c90       0x10 examples/light_switch/proxy_server/CMakeFiles/light_switch_proxy_server_nrf52832_xxAA_s132_6.0.0.dir/__/__/__/mesh/stack/src/mesh_stack.c.obj
 .text.mesh_stack_init
                0x00026ca0       0x9c examples/light_switch/proxy_server/CMakeFiles/light_switch_proxy_server_nrf52832_xxAA_s132_6.0.0.dir/__/__/__/mesh/stack/src/mesh_stack.c.obj
                0x00026ca0                mesh_stack_init
 .text.mesh_stack_start
                0x00026d3c       0x20 examples/light_switch/proxy_server/CMakeFiles/light_switch_proxy_server_nrf52832_xxAA_s132_6.0.0.dir/__/__/__/mesh/stack/src/mesh_stack.c.obj
                0x00026d3c                mesh_stack_start
 .text.mesh_stack_provisioning_data_store
                0x00026d5c       0x78 examples/light_switch/proxy_server/CMakeFiles/light_switch_proxy_server_nrf52832_xxAA_s132_6.0.0.dir/__/__/__/mesh/stack/src/mesh_stack.c.obj
                0x00026d5c                mesh_stack_provisioning_data_store
 .text.mesh_stack_config_clear
                0x00026dd4       0x14 examples/light_switch/proxy_server/CMakeFiles/light_switch_proxy_server_nrf52832_xxAA_s132_6.0.0.dir/__/__/__/mesh/stack/src/mesh_stack.c.obj
                0x00026dd4                mesh_stack_config_clear
 .text.mesh_stack_device_reset
                0x00026de8       0x20 examples/light_switch/proxy_server/CMakeFiles/light_switch_proxy_server_nrf52832_xxAA_s132_6.0.0.dir/__/__/__/mesh/stack/src/mesh_stack.c.obj
                0x00026de8                mesh_stack_device_reset
 .text.sd_state_evt_handler
                0x00026e08       0x9c examples/light_switch/proxy_server/CMakeFiles/light_switch_proxy_server_nrf52832_xxAA_s132_6.0.0.dir/__/__/common/src/mesh_provisionee.c.obj
 .text.prov_evt_handler
                0x00026ea4       0x8c examples/light_switch/proxy_server/CMakeFiles/light_switch_proxy_server_nrf52832_xxAA_s132_6.0.0.dir/__/__/common/src/mesh_provisionee.c.obj
 .text.mesh_provisionee_prov_start
                0x00026f30       0xac examples/light_switch/proxy_server/CMakeFiles/light_switch_proxy_server_nrf52832_xxAA_s132_6.0.0.dir/__/__/common/src/mesh_provisionee.c.obj
                0x00026f30                mesh_provisionee_prov_start
 .text.TIMER2_IRQHandler
                0x00026fdc       0x34 examples/light_switch/proxy_server/CMakeFiles/light_switch_proxy_server_nrf52832_xxAA_s132_6.0.0.dir/__/__/common/src/rtt_input.c.obj
                0x00026fdc                TIMER2_IRQHandler
 .text.rtt_input_enable
                0x00027010       0x5c examples/light_switch/proxy_server/CMakeFiles/light_switch_proxy_server_nrf52832_xxAA_s132_6.0.0.dir/__/__/common/src/rtt_input.c.obj
                0x00027010                rtt_input_enable
 .text.hal_led_pin_get
                0x0002706c       0x18 examples/light_switch/proxy_server/CMakeFiles/light_switch_proxy_server_nrf52832_xxAA_s132_6.0.0.dir/__/__/common/src/simple_hal.c.obj
                0x0002706c                hal_led_pin_get
 .text.hal_led_pin_set
                0x00027084       0x18 examples/light_switch/proxy_server/CMakeFiles/light_switch_proxy_server_nrf52832_xxAA_s132_6.0.0.dir/__/__/common/src/simple_hal.c.obj
                0x00027084                hal_led_pin_set
 .text.hal_led_mask_set
                0x0002709c       0x14 examples/light_switch/proxy_server/CMakeFiles/light_switch_proxy_server_nrf52832_xxAA_s132_6.0.0.dir/__/__/common/src/simple_hal.c.obj
                0x0002709c                hal_led_mask_set
 .text.hal_led_blink_ms
                0x000270b0       0x4c examples/light_switch/proxy_server/CMakeFiles/light_switch_proxy_server_nrf52832_xxAA_s132_6.0.0.dir/__/__/common/src/simple_hal.c.obj
                0x000270b0                hal_led_blink_ms
 .text.hal_leds_init
                0x000270fc       0x3c examples/light_switch/proxy_server/CMakeFiles/light_switch_proxy_server_nrf52832_xxAA_s132_6.0.0.dir/__/__/common/src/simple_hal.c.obj
                0x000270fc                hal_leds_init
 .text.hal_buttons_init
                0x00027138       0x54 examples/light_switch/proxy_server/CMakeFiles/light_switch_proxy_server_nrf52832_xxAA_s132_6.0.0.dir/__/__/common/src/simple_hal.c.obj
                0x00027138                hal_buttons_init
 .text.GPIOTE_IRQHandler
                0x0002718c      0x114 examples/light_switch/proxy_server/CMakeFiles/light_switch_proxy_server_nrf52832_xxAA_s132_6.0.0.dir/__/__/common/src/simple_hal.c.obj
                0x0002718c                GPIOTE_IRQHandler
 .text.mesh_app_uuid_gen
                0x000272a0       0x34 examples/light_switch/proxy_server/CMakeFiles/light_switch_proxy_server_nrf52832_xxAA_s132_6.0.0.dir/__/__/common/src/mesh_app_utils.c.obj
                0x000272a0                mesh_app_uuid_gen
 .text.sd_ble_gap_adv_set_configure
                0x000272d4        0x4 examples/light_switch/proxy_server/CMakeFiles/light_switch_proxy_server_nrf52832_xxAA_s132_6.0.0.dir/__/__/common/src/mesh_adv.c.obj
 .text.sd_ble_gap_adv_start
                0x000272d8        0x4 examples/light_switch/proxy_server/CMakeFiles/light_switch_proxy_server_nrf52832_xxAA_s132_6.0.0.dir/__/__/common/src/mesh_adv.c.obj
 .text.sd_ble_gap_adv_stop
                0x000272dc        0x4 examples/light_switch/proxy_server/CMakeFiles/light_switch_proxy_server_nrf52832_xxAA_s132_6.0.0.dir/__/__/common/src/mesh_adv.c.obj
 .text.mesh_adv_data_set
                0x000272e0       0xe4 examples/light_switch/proxy_server/CMakeFiles/light_switch_proxy_server_nrf52832_xxAA_s132_6.0.0.dir/__/__/common/src/mesh_adv.c.obj
                0x000272e0                mesh_adv_data_set
 .text.mesh_adv_params_set
                0x000273c4       0x14 examples/light_switch/proxy_server/CMakeFiles/light_switch_proxy_server_nrf52832_xxAA_s132_6.0.0.dir/__/__/common/src/mesh_adv.c.obj
                0x000273c4                mesh_adv_params_set
 .text.mesh_adv_start
                0x000273d8       0x1c examples/light_switch/proxy_server/CMakeFiles/light_switch_proxy_server_nrf52832_xxAA_s132_6.0.0.dir/__/__/common/src/mesh_adv.c.obj
                0x000273d8                mesh_adv_start
 .text.mesh_adv_stop
                0x000273f4       0x1c examples/light_switch/proxy_server/CMakeFiles/light_switch_proxy_server_nrf52832_xxAA_s132_6.0.0.dir/__/__/common/src/mesh_adv.c.obj
                0x000273f4                mesh_adv_stop
 .text.pb_gatt_fsm_action
                0x00027410       0x10 examples/light_switch/proxy_server/CMakeFiles/light_switch_proxy_server_nrf52832_xxAA_s132_6.0.0.dir/__/__/__/mesh/prov/src/nrf_mesh_prov_bearer_gatt.c.obj
 .text.pb_gatt_fsm_guard
                0x00027420       0x10 examples/light_switch/proxy_server/CMakeFiles/light_switch_proxy_server_nrf52832_xxAA_s132_6.0.0.dir/__/__/__/mesh/prov/src/nrf_mesh_prov_bearer_gatt.c.obj
 .text.a_link_open_notify
                0x00027430        0xc examples/light_switch/proxy_server/CMakeFiles/light_switch_proxy_server_nrf52832_xxAA_s132_6.0.0.dir/__/__/__/mesh/prov/src/nrf_mesh_prov_bearer_gatt.c.obj
 .text.a_pdu_ack
                0x0002743c        0xc examples/light_switch/proxy_server/CMakeFiles/light_switch_proxy_server_nrf52832_xxAA_s132_6.0.0.dir/__/__/__/mesh/prov/src/nrf_mesh_prov_bearer_gatt.c.obj
 .text.link_evt_process
                0x00027448        0xc examples/light_switch/proxy_server/CMakeFiles/light_switch_proxy_server_nrf52832_xxAA_s132_6.0.0.dir/__/__/__/mesh/prov/src/nrf_mesh_prov_bearer_gatt.c.obj
 .text.link_timer_cb
                0x00027454       0x24 examples/light_switch/proxy_server/CMakeFiles/light_switch_proxy_server_nrf52832_xxAA_s132_6.0.0.dir/__/__/__/mesh/prov/src/nrf_mesh_prov_bearer_gatt.c.obj
 .text.tx_cb    0x00027478       0x30 examples/light_switch/proxy_server/CMakeFiles/light_switch_proxy_server_nrf52832_xxAA_s132_6.0.0.dir/__/__/__/mesh/prov/src/nrf_mesh_prov_bearer_gatt.c.obj
 .text.mesh_gatt_event_handler
                0x000274a8       0xb0 examples/light_switch/proxy_server/CMakeFiles/light_switch_proxy_server_nrf52832_xxAA_s132_6.0.0.dir/__/__/__/mesh/prov/src/nrf_mesh_prov_bearer_gatt.c.obj
 .text.a_listen_stop
                0x00027558        0x4 examples/light_switch/proxy_server/CMakeFiles/light_switch_proxy_server_nrf52832_xxAA_s132_6.0.0.dir/__/__/__/mesh/prov/src/nrf_mesh_prov_bearer_gatt.c.obj
 .text.a_listen_start
                0x0002755c       0x3c examples/light_switch/proxy_server/CMakeFiles/light_switch_proxy_server_nrf52832_xxAA_s132_6.0.0.dir/__/__/__/mesh/prov/src/nrf_mesh_prov_bearer_gatt.c.obj
 .text.a_pdu_tx
                0x00027598       0x50 examples/light_switch/proxy_server/CMakeFiles/light_switch_proxy_server_nrf52832_xxAA_s132_6.0.0.dir/__/__/__/mesh/prov/src/nrf_mesh_prov_bearer_gatt.c.obj
 .text.a_link_close_notify
                0x000275e8       0x1c examples/light_switch/proxy_server/CMakeFiles/light_switch_proxy_server_nrf52832_xxAA_s132_6.0.0.dir/__/__/__/mesh/prov/src/nrf_mesh_prov_bearer_gatt.c.obj
 .text.a_link_close
                0x00027604       0x18 examples/light_switch/proxy_server/CMakeFiles/light_switch_proxy_server_nrf52832_xxAA_s132_6.0.0.dir/__/__/__/mesh/prov/src/nrf_mesh_prov_bearer_gatt.c.obj
 .text.listen_start_cb
                0x0002761c       0x48 examples/light_switch/proxy_server/CMakeFiles/light_switch_proxy_server_nrf52832_xxAA_s132_6.0.0.dir/__/__/__/mesh/prov/src/nrf_mesh_prov_bearer_gatt.c.obj
 .text.a_link_timer_start
                0x00027664       0x18 examples/light_switch/proxy_server/CMakeFiles/light_switch_proxy_server_nrf52832_xxAA_s132_6.0.0.dir/__/__/__/mesh/prov/src/nrf_mesh_prov_bearer_gatt.c.obj
 .text.a_pdu_rx
                0x0002767c       0x28 examples/light_switch/proxy_server/CMakeFiles/light_switch_proxy_server_nrf52832_xxAA_s132_6.0.0.dir/__/__/__/mesh/prov/src/nrf_mesh_prov_bearer_gatt.c.obj
 .text.link_close_cb
                0x000276a4       0x40 examples/light_switch/proxy_server/CMakeFiles/light_switch_proxy_server_nrf52832_xxAA_s132_6.0.0.dir/__/__/__/mesh/prov/src/nrf_mesh_prov_bearer_gatt.c.obj
 .text.listen_stop_cb
                0x000276e4       0x40 examples/light_switch/proxy_server/CMakeFiles/light_switch_proxy_server_nrf52832_xxAA_s132_6.0.0.dir/__/__/__/mesh/prov/src/nrf_mesh_prov_bearer_gatt.c.obj
 .text.nrf_mesh_prov_bearer_gatt_init
                0x00027724       0x6c examples/light_switch/proxy_server/CMakeFiles/light_switch_proxy_server_nrf52832_xxAA_s132_6.0.0.dir/__/__/__/mesh/prov/src/nrf_mesh_prov_bearer_gatt.c.obj
                0x00027724                nrf_mesh_prov_bearer_gatt_init
 .text.nrf_mesh_prov_bearer_gatt_interface_get
                0x00027790       0x14 examples/light_switch/proxy_server/CMakeFiles/light_switch_proxy_server_nrf52832_xxAA_s132_6.0.0.dir/__/__/__/mesh/prov/src/nrf_mesh_prov_bearer_gatt.c.obj
                0x00027790                nrf_mesh_prov_bearer_gatt_interface_get
 .text.app_util_critical_region_enter
                0x000277a4       0x4c examples/light_switch/proxy_server/CMakeFiles/light_switch_proxy_server_nrf52832_xxAA_s132_6.0.0.dir/C_/b/nRF5_SDK_15.0.0_a53641a/components/libraries/util/app_util_platform.c.obj
                0x000277a4                app_util_critical_region_enter
 .text.app_util_critical_region_exit
                0x000277f0       0x30 examples/light_switch/proxy_server/CMakeFiles/light_switch_proxy_server_nrf52832_xxAA_s132_6.0.0.dir/C_/b/nRF5_SDK_15.0.0_a53641a/components/libraries/util/app_util_platform.c.obj
                0x000277f0                app_util_critical_region_exit
 .text.sd_ble_gap_addr_get
                0x00027820        0x4 examples/light_switch/proxy_server/CMakeFiles/light_switch_proxy_server_nrf52832_xxAA_s132_6.0.0.dir/C_/b/nRF5_SDK_15.0.0_a53641a/components/ble/common/ble_advdata.c.obj
 .text.sd_ble_gap_appearance_get
                0x00027824        0x4 examples/light_switch/proxy_server/CMakeFiles/light_switch_proxy_server_nrf52832_xxAA_s132_6.0.0.dir/C_/b/nRF5_SDK_15.0.0_a53641a/components/ble/common/ble_advdata.c.obj
 .text.sd_ble_gap_device_name_get
                0x00027828        0x4 examples/light_switch/proxy_server/CMakeFiles/light_switch_proxy_server_nrf52832_xxAA_s132_6.0.0.dir/C_/b/nRF5_SDK_15.0.0_a53641a/components/ble/common/ble_advdata.c.obj
 .text.sd_ble_uuid_encode
                0x0002782c        0x4 examples/light_switch/proxy_server/CMakeFiles/light_switch_proxy_server_nrf52832_xxAA_s132_6.0.0.dir/C_/b/nRF5_SDK_15.0.0_a53641a/components/ble/common/ble_advdata.c.obj
 .text.uuid_list_sized_encode
                0x00027830       0xb8 examples/light_switch/proxy_server/CMakeFiles/light_switch_proxy_server_nrf52832_xxAA_s132_6.0.0.dir/C_/b/nRF5_SDK_15.0.0_a53641a/components/ble/common/ble_advdata.c.obj
 .text.ble_advdata_encode
                0x000278e8      0x3fc examples/light_switch/proxy_server/CMakeFiles/light_switch_proxy_server_nrf52832_xxAA_s132_6.0.0.dir/C_/b/nRF5_SDK_15.0.0_a53641a/components/ble/common/ble_advdata.c.obj
                0x000278e8                ble_advdata_encode
 .text.nrf_section_iter_init
                0x00027ce4       0x14 examples/light_switch/proxy_server/CMakeFiles/light_switch_proxy_server_nrf52832_xxAA_s132_6.0.0.dir/C_/b/nRF5_SDK_15.0.0_a53641a/components/libraries/experimental_section_vars/nrf_section_iter.c.obj
                0x00027ce4                nrf_section_iter_init
 .text.nrf_section_iter_next
                0x00027cf8       0x18 examples/light_switch/proxy_server/CMakeFiles/light_switch_proxy_server_nrf52832_xxAA_s132_6.0.0.dir/C_/b/nRF5_SDK_15.0.0_a53641a/components/libraries/experimental_section_vars/nrf_section_iter.c.obj
                0x00027cf8                nrf_section_iter_next
 .text.sd_softdevice_enable
                0x00027d10        0x4 examples/light_switch/proxy_server/CMakeFiles/light_switch_proxy_server_nrf52832_xxAA_s132_6.0.0.dir/C_/b/nRF5_SDK_15.0.0_a53641a/components/softdevice/common/nrf_sdh.c.obj
 .text.sd_softdevice_disable
                0x00027d14        0x4 examples/light_switch/proxy_server/CMakeFiles/light_switch_proxy_server_nrf52832_xxAA_s132_6.0.0.dir/C_/b/nRF5_SDK_15.0.0_a53641a/components/softdevice/common/nrf_sdh.c.obj
 .text.nrf_sdh_enable_request
                0x00027d18      0x118 examples/light_switch/proxy_server/CMakeFiles/light_switch_proxy_server_nrf52832_xxAA_s132_6.0.0.dir/C_/b/nRF5_SDK_15.0.0_a53641a/components/softdevice/common/nrf_sdh.c.obj
                0x00027d18                nrf_sdh_enable_request
 .text.nrf_sdh_disable_request
                0x00027e30       0xd8 examples/light_switch/proxy_server/CMakeFiles/light_switch_proxy_server_nrf52832_xxAA_s132_6.0.0.dir/C_/b/nRF5_SDK_15.0.0_a53641a/components/softdevice/common/nrf_sdh.c.obj
                0x00027e30                nrf_sdh_disable_request
 .text.SWI2_EGU2_IRQHandler
                0x00027f08       0x2c examples/light_switch/proxy_server/CMakeFiles/light_switch_proxy_server_nrf52832_xxAA_s132_6.0.0.dir/C_/b/nRF5_SDK_15.0.0_a53641a/components/softdevice/common/nrf_sdh.c.obj
                0x00027f08                SWI2_EGU2_IRQHandler
 .text.sd_evt_get
                0x00027f34        0x4 examples/light_switch/proxy_server/CMakeFiles/light_switch_proxy_server_nrf52832_xxAA_s132_6.0.0.dir/C_/b/nRF5_SDK_15.0.0_a53641a/components/softdevice/common/nrf_sdh_soc.c.obj
 .text.nrf_sdh_soc_evts_poll
                0x00027f38       0x4c examples/light_switch/proxy_server/CMakeFiles/light_switch_proxy_server_nrf52832_xxAA_s132_6.0.0.dir/C_/b/nRF5_SDK_15.0.0_a53641a/components/softdevice/common/nrf_sdh_soc.c.obj
 .text.sd_ble_enable
                0x00027f84        0x4 examples/light_switch/proxy_server/CMakeFiles/light_switch_proxy_server_nrf52832_xxAA_s132_6.0.0.dir/C_/b/nRF5_SDK_15.0.0_a53641a/components/softdevice/common/nrf_sdh_ble.c.obj
 .text.sd_ble_cfg_set
                0x00027f88        0x4 examples/light_switch/proxy_server/CMakeFiles/light_switch_proxy_server_nrf52832_xxAA_s132_6.0.0.dir/C_/b/nRF5_SDK_15.0.0_a53641a/components/softdevice/common/nrf_sdh_ble.c.obj
 .text.sd_ble_evt_get
                0x00027f8c        0x4 examples/light_switch/proxy_server/CMakeFiles/light_switch_proxy_server_nrf52832_xxAA_s132_6.0.0.dir/C_/b/nRF5_SDK_15.0.0_a53641a/components/softdevice/common/nrf_sdh_ble.c.obj
 .text.nrf_sdh_ble_evts_poll
                0x00027f90       0x58 examples/light_switch/proxy_server/CMakeFiles/light_switch_proxy_server_nrf52832_xxAA_s132_6.0.0.dir/C_/b/nRF5_SDK_15.0.0_a53641a/components/softdevice/common/nrf_sdh_ble.c.obj
 .text.nrf_sdh_ble_default_cfg_set
                0x00027fe8       0xd4 examples/light_switch/proxy_server/CMakeFiles/light_switch_proxy_server_nrf52832_xxAA_s132_6.0.0.dir/C_/b/nRF5_SDK_15.0.0_a53641a/components/softdevice/common/nrf_sdh_ble.c.obj
                0x00027fe8                nrf_sdh_ble_default_cfg_set
 .text.nrf_sdh_ble_enable
                0x000280bc       0x14 examples/light_switch/proxy_server/CMakeFiles/light_switch_proxy_server_nrf52832_xxAA_s132_6.0.0.dir/C_/b/nRF5_SDK_15.0.0_a53641a/components/softdevice/common/nrf_sdh_ble.c.obj
                0x000280bc                nrf_sdh_ble_enable
 .text._weak_handler
                0x000280d0        0x4 examples/light_switch/proxy_server/CMakeFiles/light_switch_proxy_server_nrf52832_xxAA_s132_6.0.0.dir/__/__/nrf_mesh_weak.c.obj
                0x000280d0                nrf_mesh_dfu_init
                0x000280d0                nrf_mesh_dfu_jump_to_bootloader
                0x000280d0                nrf_mesh_dfu_rx
                0x000280d0                prov_provisioner_provision
                0x000280d0                nrf_mesh_dfu_bank_info_get
                0x000280d0                prov_provisioner_oob_pubkey
                0x000280d0                nrf_mesh_dfu_request
                0x000280d0                nrf_mesh_dfu_bank_flash
                0x000280d0                _weak_handler
                0x000280d0                nrf_mesh_dfu_relay
                0x000280d0                nrf_mesh_dfu_abort
                0x000280d0                mesh_flash_op_execute
                0x000280d0                prov_provisionee_init
                0x000280d0                nrf_mesh_dfu_state_get
                0x000280d0                prov_provisioner_shared_secret
                0x000280d0                prov_provisioner_auth_data
                0x000280d0                prov_provisioner_oob_use
 .text.app_error_fault_handler
                0x000280d4      0x240 examples/light_switch/proxy_server/CMakeFiles/light_switch_proxy_server_nrf52832_xxAA_s132_6.0.0.dir/__/__/common/src/app_error_weak.c.obj
                0x000280d4                app_error_fault_handler
 .text.mesh_assertion_handler
                0x00028314       0x24 examples/light_switch/proxy_server/CMakeFiles/light_switch_proxy_server_nrf52832_xxAA_s132_6.0.0.dir/__/__/common/src/assertion_handler_weak.c.obj
                0x00028314                mesh_assertion_handler
 .text.nrf_mesh_configure_device_uuid_set
                0x00028338       0x10 examples/light_switch/proxy_server/CMakeFiles/light_switch_proxy_server_nrf52832_xxAA_s132_6.0.0.dir/__/__/__/mesh/core/src/nrf_mesh_configure.c.obj
                0x00028338                nrf_mesh_configure_device_uuid_set
 .text.nrf_mesh_configure_device_uuid_reset
                0x00028348       0x2c examples/light_switch/proxy_server/CMakeFiles/light_switch_proxy_server_nrf52832_xxAA_s132_6.0.0.dir/__/__/__/mesh/core/src/nrf_mesh_configure.c.obj
                0x00028348                nrf_mesh_configure_device_uuid_reset
 .text.nrf_mesh_configure_device_uuid_get
                0x00028374        0x8 examples/light_switch/proxy_server/CMakeFiles/light_switch_proxy_server_nrf52832_xxAA_s132_6.0.0.dir/__/__/__/mesh/core/src/nrf_mesh_configure.c.obj
                0x00028374                nrf_mesh_configure_device_uuid_get
 .text.sd_ecb_block_encrypt
                0x0002837c        0x4 examples/light_switch/proxy_server/CMakeFiles/light_switch_proxy_server_nrf52832_xxAA_s132_6.0.0.dir/__/__/__/mesh/core/src/aes.c.obj
 .text.aes_encrypt
                0x00028380       0x34 examples/light_switch/proxy_server/CMakeFiles/light_switch_proxy_server_nrf52832_xxAA_s132_6.0.0.dir/__/__/__/mesh/core/src/aes.c.obj
                0x00028380                aes_encrypt
 .text.msg_cache_init
                0x000283b4       0x24 examples/light_switch/proxy_server/CMakeFiles/light_switch_proxy_server_nrf52832_xxAA_s132_6.0.0.dir/__/__/__/mesh/core/src/msg_cache.c.obj
                0x000283b4                msg_cache_init
 .text.msg_cache_entry_exists
                0x000283d8       0x40 examples/light_switch/proxy_server/CMakeFiles/light_switch_proxy_server_nrf52832_xxAA_s132_6.0.0.dir/__/__/__/mesh/core/src/msg_cache.c.obj
                0x000283d8                msg_cache_entry_exists
 .text.msg_cache_entry_add
                0x00028418       0x30 examples/light_switch/proxy_server/CMakeFiles/light_switch_proxy_server_nrf52832_xxAA_s132_6.0.0.dir/__/__/__/mesh/core/src/msg_cache.c.obj
                0x00028418                msg_cache_entry_add
 .text.tx_complete
                0x00028448       0x30 examples/light_switch/proxy_server/CMakeFiles/light_switch_proxy_server_nrf52832_xxAA_s132_6.0.0.dir/__/__/__/mesh/core/src/transport.c.obj
 .text.upper_trs_packet_encrypt
                0x00028478       0xb4 examples/light_switch/proxy_server/CMakeFiles/light_switch_proxy_server_nrf52832_xxAA_s132_6.0.0.dir/__/__/__/mesh/core/src/transport.c.obj
 .text.trs_sar_packet_out
                0x0002852c      0x1a4 examples/light_switch/proxy_server/CMakeFiles/light_switch_proxy_server_nrf52832_xxAA_s132_6.0.0.dir/__/__/__/mesh/core/src/transport.c.obj
 .text.upper_transport_tx.part.25
                0x000286d0      0x34c examples/light_switch/proxy_server/CMakeFiles/light_switch_proxy_server_nrf52832_xxAA_s132_6.0.0.dir/__/__/__/mesh/core/src/transport.c.obj
 .text.sar_ack_send.part.29
                0x00028a1c       0xd4 examples/light_switch/proxy_server/CMakeFiles/light_switch_proxy_server_nrf52832_xxAA_s132_6.0.0.dir/__/__/__/mesh/core/src/transport.c.obj
 .text.ack_timeout
                0x00028af0       0x34 examples/light_switch/proxy_server/CMakeFiles/light_switch_proxy_server_nrf52832_xxAA_s132_6.0.0.dir/__/__/__/mesh/core/src/transport.c.obj
 .text.upper_transport_access_packet_in
                0x00028b24      0x334 examples/light_switch/proxy_server/CMakeFiles/light_switch_proxy_server_nrf52832_xxAA_s132_6.0.0.dir/__/__/__/mesh/core/src/transport.c.obj
 .text.sar_ctx_cancel
                0x00028e58      0x148 examples/light_switch/proxy_server/CMakeFiles/light_switch_proxy_server_nrf52832_xxAA_s132_6.0.0.dir/__/__/__/mesh/core/src/transport.c.obj
 .text.retry_timeout
                0x00028fa0       0x98 examples/light_switch/proxy_server/CMakeFiles/light_switch_proxy_server_nrf52832_xxAA_s132_6.0.0.dir/__/__/__/mesh/core/src/transport.c.obj
 .text.transport_sar_process
                0x00029038      0x288 examples/light_switch/proxy_server/CMakeFiles/light_switch_proxy_server_nrf52832_xxAA_s132_6.0.0.dir/__/__/__/mesh/core/src/transport.c.obj
 .text.upper_transport_packet_in
                0x000292c0      0x2e4 examples/light_switch/proxy_server/CMakeFiles/light_switch_proxy_server_nrf52832_xxAA_s132_6.0.0.dir/__/__/__/mesh/core/src/transport.c.obj
 .text.abort_timeout
                0x000295a4      0x13c examples/light_switch/proxy_server/CMakeFiles/light_switch_proxy_server_nrf52832_xxAA_s132_6.0.0.dir/__/__/__/mesh/core/src/transport.c.obj
 .text.transport_init
                0x000296e0       0xac examples/light_switch/proxy_server/CMakeFiles/light_switch_proxy_server_nrf52832_xxAA_s132_6.0.0.dir/__/__/__/mesh/core/src/transport.c.obj
                0x000296e0                transport_init
 .text.transport_packet_in
                0x0002978c      0x770 examples/light_switch/proxy_server/CMakeFiles/light_switch_proxy_server_nrf52832_xxAA_s132_6.0.0.dir/__/__/__/mesh/core/src/transport.c.obj
                0x0002978c                transport_packet_in
 .text.transport_tx
                0x00029efc      0x100 examples/light_switch/proxy_server/CMakeFiles/light_switch_proxy_server_nrf52832_xxAA_s132_6.0.0.dir/__/__/__/mesh/core/src/transport.c.obj
                0x00029efc                transport_tx
 .text.transport_control_tx
                0x00029ffc       0xc0 examples/light_switch/proxy_server/CMakeFiles/light_switch_proxy_server_nrf52832_xxAA_s132_6.0.0.dir/__/__/__/mesh/core/src/transport.c.obj
                0x00029ffc                transport_control_tx
 .text.transport_opt_set
                0x0002a0bc       0xdc examples/light_switch/proxy_server/CMakeFiles/light_switch_proxy_server_nrf52832_xxAA_s132_6.0.0.dir/__/__/__/mesh/core/src/transport.c.obj
                0x0002a0bc                transport_opt_set
 .text.transport_opt_get
                0x0002a198       0x84 examples/light_switch/proxy_server/CMakeFiles/light_switch_proxy_server_nrf52832_xxAA_s132_6.0.0.dir/__/__/__/mesh/core/src/transport.c.obj
                0x0002a198                transport_opt_get
 .text.transport_control_packet_consumer_add
                0x0002a21c       0x60 examples/light_switch/proxy_server/CMakeFiles/light_switch_proxy_server_nrf52832_xxAA_s132_6.0.0.dir/__/__/__/mesh/core/src/transport.c.obj
                0x0002a21c                transport_control_packet_consumer_add
 .text.event_handle
                0x0002a27c       0x28 examples/light_switch/proxy_server/CMakeFiles/light_switch_proxy_server_nrf52832_xxAA_s132_6.0.0.dir/__/__/__/mesh/core/src/event.c.obj
                0x0002a27c                event_handle
 .text.event_handler_add
                0x0002a2a4       0x28 examples/light_switch/proxy_server/CMakeFiles/light_switch_proxy_server_nrf52832_xxAA_s132_6.0.0.dir/__/__/__/mesh/core/src/event.c.obj
                0x0002a2a4                event_handler_add
 .text.event_handler_remove
                0x0002a2cc       0x28 examples/light_switch/proxy_server/CMakeFiles/light_switch_proxy_server_nrf52832_xxAA_s132_6.0.0.dir/__/__/__/mesh/core/src/event.c.obj
                0x0002a2cc                event_handler_remove
 .text.packet_buffer_init
                0x0002a2f4       0xb4 examples/light_switch/proxy_server/CMakeFiles/light_switch_proxy_server_nrf52832_xxAA_s132_6.0.0.dir/__/__/__/mesh/core/src/packet_buffer.c.obj
                0x0002a2f4                packet_buffer_init
 .text.packet_buffer_flush
                0x0002a3a8       0x74 examples/light_switch/proxy_server/CMakeFiles/light_switch_proxy_server_nrf52832_xxAA_s132_6.0.0.dir/__/__/__/mesh/core/src/packet_buffer.c.obj
                0x0002a3a8                packet_buffer_flush
 .text.packet_buffer_reserve
                0x0002a41c       0x9c examples/light_switch/proxy_server/CMakeFiles/light_switch_proxy_server_nrf52832_xxAA_s132_6.0.0.dir/__/__/__/mesh/core/src/packet_buffer.c.obj
                0x0002a41c                packet_buffer_reserve
 .text.packet_buffer_commit
                0x0002a4b8       0x7c examples/light_switch/proxy_server/CMakeFiles/light_switch_proxy_server_nrf52832_xxAA_s132_6.0.0.dir/__/__/__/mesh/core/src/packet_buffer.c.obj
                0x0002a4b8                packet_buffer_commit
 .text.packet_buffer_pop
                0x0002a534       0x50 examples/light_switch/proxy_server/CMakeFiles/light_switch_proxy_server_nrf52832_xxAA_s132_6.0.0.dir/__/__/__/mesh/core/src/packet_buffer.c.obj
                0x0002a534                packet_buffer_pop
 .text.packet_buffer_can_pop
                0x0002a584       0x24 examples/light_switch/proxy_server/CMakeFiles/light_switch_proxy_server_nrf52832_xxAA_s132_6.0.0.dir/__/__/__/mesh/core/src/packet_buffer.c.obj
                0x0002a584                packet_buffer_can_pop
 .text.packet_buffer_packets_ready_to_pop
                0x0002a5a8       0x48 examples/light_switch/proxy_server/CMakeFiles/light_switch_proxy_server_nrf52832_xxAA_s132_6.0.0.dir/__/__/__/mesh/core/src/packet_buffer.c.obj
                0x0002a5a8                packet_buffer_packets_ready_to_pop
 .text.packet_buffer_free
                0x0002a5f0       0x8c examples/light_switch/proxy_server/CMakeFiles/light_switch_proxy_server_nrf52832_xxAA_s132_6.0.0.dir/__/__/__/mesh/core/src/packet_buffer.c.obj
                0x0002a5f0                packet_buffer_free
 .text.erase_source
                0x0002a67c       0x34 examples/light_switch/proxy_server/CMakeFiles/light_switch_proxy_server_nrf52832_xxAA_s132_6.0.0.dir/__/__/__/mesh/core/src/flash_manager_defrag.c.obj
 .text.erase_recovery_area
                0x0002a6b0       0x34 examples/light_switch/proxy_server/CMakeFiles/light_switch_proxy_server_nrf52832_xxAA_s132_6.0.0.dir/__/__/__/mesh/core/src/flash_manager_defrag.c.obj
 .text.write_back
                0x0002a6e4       0x44 examples/light_switch/proxy_server/CMakeFiles/light_switch_proxy_server_nrf52832_xxAA_s132_6.0.0.dir/__/__/__/mesh/core/src/flash_manager_defrag.c.obj
 .text.write_defrag_start_pointer
                0x0002a728       0x38 examples/light_switch/proxy_server/CMakeFiles/light_switch_proxy_server_nrf52832_xxAA_s132_6.0.0.dir/__/__/__/mesh/core/src/flash_manager_defrag.c.obj
 .text.copy_metadata
                0x0002a760       0x58 examples/light_switch/proxy_server/CMakeFiles/light_switch_proxy_server_nrf52832_xxAA_s132_6.0.0.dir/__/__/__/mesh/core/src/flash_manager_defrag.c.obj
 .text.seal_storage_page
                0x0002a7b8       0x70 examples/light_switch/proxy_server/CMakeFiles/light_switch_proxy_server_nrf52832_xxAA_s132_6.0.0.dir/__/__/__/mesh/core/src/flash_manager_defrag.c.obj
 .text.post_process
                0x0002a828       0x64 examples/light_switch/proxy_server/CMakeFiles/light_switch_proxy_server_nrf52832_xxAA_s132_6.0.0.dir/__/__/__/mesh/core/src/flash_manager_defrag.c.obj
 .text.check_for_invalid_entries
                0x0002a88c       0x40 examples/light_switch/proxy_server/CMakeFiles/light_switch_proxy_server_nrf52832_xxAA_s132_6.0.0.dir/__/__/__/mesh/core/src/flash_manager_defrag.c.obj
 .text.execute_procedure_step
                0x0002a8cc       0xa0 examples/light_switch/proxy_server/CMakeFiles/light_switch_proxy_server_nrf52832_xxAA_s132_6.0.0.dir/__/__/__/mesh/core/src/flash_manager_defrag.c.obj
 .text.on_flash_op_end
                0x0002a96c       0x4c examples/light_switch/proxy_server/CMakeFiles/light_switch_proxy_server_nrf52832_xxAA_s132_6.0.0.dir/__/__/__/mesh/core/src/flash_manager_defrag.c.obj
 .text.invalidate_duplicate_entries
                0x0002a9b8      0x158 examples/light_switch/proxy_server/CMakeFiles/light_switch_proxy_server_nrf52832_xxAA_s132_6.0.0.dir/__/__/__/mesh/core/src/flash_manager_defrag.c.obj
 .text.backup_entries
                0x0002ab10      0x1c4 examples/light_switch/proxy_server/CMakeFiles/light_switch_proxy_server_nrf52832_xxAA_s132_6.0.0.dir/__/__/__/mesh/core/src/flash_manager_defrag.c.obj
 .text.flash_manager_defrag_init
                0x0002acd4       0x6c examples/light_switch/proxy_server/CMakeFiles/light_switch_proxy_server_nrf52832_xxAA_s132_6.0.0.dir/__/__/__/mesh/core/src/flash_manager_defrag.c.obj
                0x0002acd4                flash_manager_defrag_init
 .text.flash_manager_defrag_is_running
                0x0002ad40       0x10 examples/light_switch/proxy_server/CMakeFiles/light_switch_proxy_server_nrf52832_xxAA_s132_6.0.0.dir/__/__/__/mesh/core/src/flash_manager_defrag.c.obj
                0x0002ad40                flash_manager_defrag_is_running
 .text.flash_manager_defrag
                0x0002ad50       0x48 examples/light_switch/proxy_server/CMakeFiles/light_switch_proxy_server_nrf52832_xxAA_s132_6.0.0.dir/__/__/__/mesh/core/src/flash_manager_defrag.c.obj
                0x0002ad50                flash_manager_defrag
 .text.flash_manager_defrag_recovery_page_get
                0x0002ad98        0xc examples/light_switch/proxy_server/CMakeFiles/light_switch_proxy_server_nrf52832_xxAA_s132_6.0.0.dir/__/__/__/mesh/core/src/flash_manager_defrag.c.obj
                0x0002ad98                flash_manager_defrag_recovery_page_get
 .text.fifo_init
                0x0002ada4       0x38 examples/light_switch/proxy_server/CMakeFiles/light_switch_proxy_server_nrf52832_xxAA_s132_6.0.0.dir/__/__/__/mesh/core/src/fifo.c.obj
                0x0002ada4                fifo_init
 .text.fifo_push
                0x0002addc       0x54 examples/light_switch/proxy_server/CMakeFiles/light_switch_proxy_server_nrf52832_xxAA_s132_6.0.0.dir/__/__/__/mesh/core/src/fifo.c.obj
                0x0002addc                fifo_push
 .text.fifo_pop
                0x0002ae30       0x58 examples/light_switch/proxy_server/CMakeFiles/light_switch_proxy_server_nrf52832_xxAA_s132_6.0.0.dir/__/__/__/mesh/core/src/fifo.c.obj
                0x0002ae30                fifo_pop
 .text.nrf_flash_erase
                0x0002ae88       0x5c examples/light_switch/proxy_server/CMakeFiles/light_switch_proxy_server_nrf52832_xxAA_s132_6.0.0.dir/__/__/__/mesh/core/src/nrf_flash.c.obj
                0x0002ae88                nrf_flash_erase
 .text.nrf_flash_write
                0x0002aee4       0x6c examples/light_switch/proxy_server/CMakeFiles/light_switch_proxy_server_nrf52832_xxAA_s132_6.0.0.dir/__/__/__/mesh/core/src/nrf_flash.c.obj
                0x0002aee4                nrf_flash_write
 .text.packet_mgr_init
                0x0002af50       0x4c examples/light_switch/proxy_server/CMakeFiles/light_switch_proxy_server_nrf52832_xxAA_s132_6.0.0.dir/__/__/__/mesh/core/src/packet_mgr.c.obj
                0x0002af50                packet_mgr_init
 .text.flash_store_iv_index
                0x0002af9c       0x38 examples/light_switch/proxy_server/CMakeFiles/light_switch_proxy_server_nrf52832_xxAA_s132_6.0.0.dir/__/__/__/mesh/core/src/net_state.c.obj
 .text.flash_mem_available
                0x0002afd4       0x1c examples/light_switch/proxy_server/CMakeFiles/light_switch_proxy_server_nrf52832_xxAA_s132_6.0.0.dir/__/__/__/mesh/core/src/net_state.c.obj
 .text.init_flash_storage
                0x0002aff0       0x44 examples/light_switch/proxy_server/CMakeFiles/light_switch_proxy_server_nrf52832_xxAA_s132_6.0.0.dir/__/__/__/mesh/core/src/net_state.c.obj
 .text.flash_write_complete
                0x0002b034       0x68 examples/light_switch/proxy_server/CMakeFiles/light_switch_proxy_server_nrf52832_xxAA_s132_6.0.0.dir/__/__/__/mesh/core/src/net_state.c.obj
 .text.seqnum_block_allocate
                0x0002b09c       0x4c examples/light_switch/proxy_server/CMakeFiles/light_switch_proxy_server_nrf52832_xxAA_s132_6.0.0.dir/__/__/__/mesh/core/src/net_state.c.obj
 .text.net_state_reset
                0x0002b0e8       0x78 examples/light_switch/proxy_server/CMakeFiles/light_switch_proxy_server_nrf52832_xxAA_s132_6.0.0.dir/__/__/__/mesh/core/src/net_state.c.obj
                0x0002b0e8                net_state_reset
 .text.iv_update_trigger_if_pending
                0x0002b160      0x170 examples/light_switch/proxy_server/CMakeFiles/light_switch_proxy_server_nrf52832_xxAA_s132_6.0.0.dir/__/__/__/mesh/core/src/net_state.c.obj
 .text.mesh_evt_handler
                0x0002b2d0      0x108 examples/light_switch/proxy_server/CMakeFiles/light_switch_proxy_server_nrf52832_xxAA_s132_6.0.0.dir/__/__/__/mesh/core/src/net_state.c.obj
 .text.iv_update_timer_handler
                0x0002b3d8       0x70 examples/light_switch/proxy_server/CMakeFiles/light_switch_proxy_server_nrf52832_xxAA_s132_6.0.0.dir/__/__/__/mesh/core/src/net_state.c.obj
 .text.net_state_recover_from_flash
                0x0002b448      0x118 examples/light_switch/proxy_server/CMakeFiles/light_switch_proxy_server_nrf52832_xxAA_s132_6.0.0.dir/__/__/__/mesh/core/src/net_state.c.obj
                0x0002b448                net_state_recover_from_flash
 .text.net_state_flash_area_get
                0x0002b560        0xc examples/light_switch/proxy_server/CMakeFiles/light_switch_proxy_server_nrf52832_xxAA_s132_6.0.0.dir/__/__/__/mesh/core/src/net_state.c.obj
                0x0002b560                net_state_flash_area_get
 .text.net_state_init
                0x0002b56c       0x94 examples/light_switch/proxy_server/CMakeFiles/light_switch_proxy_server_nrf52832_xxAA_s132_6.0.0.dir/__/__/__/mesh/core/src/net_state.c.obj
                0x0002b56c                net_state_init
 .text.net_state_seqnum_alloc
                0x0002b600       0xd4 examples/light_switch/proxy_server/CMakeFiles/light_switch_proxy_server_nrf52832_xxAA_s132_6.0.0.dir/__/__/__/mesh/core/src/net_state.c.obj
                0x0002b600                net_state_seqnum_alloc
 .text.net_state_iv_index_lock
                0x0002b6d4      0x190 examples/light_switch/proxy_server/CMakeFiles/light_switch_proxy_server_nrf52832_xxAA_s132_6.0.0.dir/__/__/__/mesh/core/src/net_state.c.obj
                0x0002b6d4                net_state_iv_index_lock
 .text.net_state_key_refresh_phase_changed
                0x0002b864       0x20 examples/light_switch/proxy_server/CMakeFiles/light_switch_proxy_server_nrf52832_xxAA_s132_6.0.0.dir/__/__/__/mesh/core/src/net_state.c.obj
                0x0002b864                net_state_key_refresh_phase_changed
 .text.net_state_beacon_iv_index_get
                0x0002b884        0xc examples/light_switch/proxy_server/CMakeFiles/light_switch_proxy_server_nrf52832_xxAA_s132_6.0.0.dir/__/__/__/mesh/core/src/net_state.c.obj
                0x0002b884                net_state_beacon_iv_index_get
 .text.net_state_tx_iv_index_get
                0x0002b890       0x14 examples/light_switch/proxy_server/CMakeFiles/light_switch_proxy_server_nrf52832_xxAA_s132_6.0.0.dir/__/__/__/mesh/core/src/net_state.c.obj
                0x0002b890                net_state_tx_iv_index_get
 .text.net_state_rx_iv_index_get
                0x0002b8a4       0x18 examples/light_switch/proxy_server/CMakeFiles/light_switch_proxy_server_nrf52832_xxAA_s132_6.0.0.dir/__/__/__/mesh/core/src/net_state.c.obj
                0x0002b8a4                net_state_rx_iv_index_get
 .text.net_state_iv_update_get
                0x0002b8bc        0xc examples/light_switch/proxy_server/CMakeFiles/light_switch_proxy_server_nrf52832_xxAA_s132_6.0.0.dir/__/__/__/mesh/core/src/net_state.c.obj
                0x0002b8bc                net_state_iv_update_get
 .text.net_state_iv_index_set
                0x0002b8c8       0x8c examples/light_switch/proxy_server/CMakeFiles/light_switch_proxy_server_nrf52832_xxAA_s132_6.0.0.dir/__/__/__/mesh/core/src/net_state.c.obj
                0x0002b8c8                net_state_iv_index_set
 .text.send_end_events
                0x0002b954       0x90 examples/light_switch/proxy_server/CMakeFiles/light_switch_proxy_server_nrf52832_xxAA_s132_6.0.0.dir/__/__/__/mesh/core/src/mesh_flash.c.obj
 .text.flash_op_start
                0x0002b9e4      0x224 examples/light_switch/proxy_server/CMakeFiles/light_switch_proxy_server_nrf52832_xxAA_s132_6.0.0.dir/__/__/__/mesh/core/src/mesh_flash.c.obj
 .text.mesh_flash_init
                0x0002bc08       0x88 examples/light_switch/proxy_server/CMakeFiles/light_switch_proxy_server_nrf52832_xxAA_s132_6.0.0.dir/__/__/__/mesh/core/src/mesh_flash.c.obj
                0x0002bc08                mesh_flash_init
 .text.mesh_flash_user_callback_set
                0x0002bc90       0x20 examples/light_switch/proxy_server/CMakeFiles/light_switch_proxy_server_nrf52832_xxAA_s132_6.0.0.dir/__/__/__/mesh/core/src/mesh_flash.c.obj
                0x0002bc90                mesh_flash_user_callback_set
 .text.mesh_flash_op_push
                0x0002bcb0      0x1a0 examples/light_switch/proxy_server/CMakeFiles/light_switch_proxy_server_nrf52832_xxAA_s132_6.0.0.dir/__/__/__/mesh/core/src/mesh_flash.c.obj
                0x0002bcb0                mesh_flash_op_push
 .text.nrf_mesh_address_type_get
                0x0002be50       0x10 examples/light_switch/proxy_server/CMakeFiles/light_switch_proxy_server_nrf52832_xxAA_s132_6.0.0.dir/__/__/__/mesh/core/src/nrf_mesh_utils.c.obj
                0x0002be50                nrf_mesh_address_type_get
 .text.sd_softdevice_is_enabled
                0x0002be60        0x4 examples/light_switch/proxy_server/CMakeFiles/light_switch_proxy_server_nrf52832_xxAA_s132_6.0.0.dir/__/__/__/mesh/core/src/nrf_mesh.c.obj
 .text.nrf_mesh_listen
                0x0002be64      0x1c8 examples/light_switch/proxy_server/CMakeFiles/light_switch_proxy_server_nrf52832_xxAA_s132_6.0.0.dir/__/__/__/mesh/core/src/nrf_mesh.c.obj
 .text.flash_stable_cb
                0x0002c02c       0x20 examples/light_switch/proxy_server/CMakeFiles/light_switch_proxy_server_nrf52832_xxAA_s132_6.0.0.dir/__/__/__/mesh/core/src/nrf_mesh.c.obj
 .text.scanner_packet_process_cb
                0x0002c04c       0x88 examples/light_switch/proxy_server/CMakeFiles/light_switch_proxy_server_nrf52832_xxAA_s132_6.0.0.dir/__/__/__/mesh/core/src/nrf_mesh.c.obj
 .text.nrf_mesh_init
                0x0002c0d4       0xe0 examples/light_switch/proxy_server/CMakeFiles/light_switch_proxy_server_nrf52832_xxAA_s132_6.0.0.dir/__/__/__/mesh/core/src/nrf_mesh.c.obj
                0x0002c0d4                nrf_mesh_init
 .text.nrf_mesh_enable
                0x0002c1b4       0x48 examples/light_switch/proxy_server/CMakeFiles/light_switch_proxy_server_nrf52832_xxAA_s132_6.0.0.dir/__/__/__/mesh/core/src/nrf_mesh.c.obj
                0x0002c1b4                nrf_mesh_enable
 .text.nrf_mesh_disable
                0x0002c1fc       0x2c examples/light_switch/proxy_server/CMakeFiles/light_switch_proxy_server_nrf52832_xxAA_s132_6.0.0.dir/__/__/__/mesh/core/src/nrf_mesh.c.obj
                0x0002c1fc                nrf_mesh_disable
 .text.nrf_mesh_packet_send
                0x0002c228       0x94 examples/light_switch/proxy_server/CMakeFiles/light_switch_proxy_server_nrf52832_xxAA_s132_6.0.0.dir/__/__/__/mesh/core/src/nrf_mesh.c.obj
                0x0002c228                nrf_mesh_packet_send
 .text.nrf_mesh_evt_handler_add
                0x0002c2bc        0x4 examples/light_switch/proxy_server/CMakeFiles/light_switch_proxy_server_nrf52832_xxAA_s132_6.0.0.dir/__/__/__/mesh/core/src/nrf_mesh.c.obj
                0x0002c2bc                nrf_mesh_evt_handler_add
 .text.nrf_mesh_on_sd_evt
                0x0002c2c0        0xc examples/light_switch/proxy_server/CMakeFiles/light_switch_proxy_server_nrf52832_xxAA_s132_6.0.0.dir/__/__/__/mesh/core/src/nrf_mesh.c.obj
                0x0002c2c0                nrf_mesh_on_sd_evt
 .text.nrf_mesh_subnet_added
                0x0002c2cc        0x4 examples/light_switch/proxy_server/CMakeFiles/light_switch_proxy_server_nrf52832_xxAA_s132_6.0.0.dir/__/__/__/mesh/core/src/nrf_mesh.c.obj
                0x0002c2cc                nrf_mesh_subnet_added
 .text.queue_init
                0x0002c2d0       0x1c examples/light_switch/proxy_server/CMakeFiles/light_switch_proxy_server_nrf52832_xxAA_s132_6.0.0.dir/__/__/__/mesh/core/src/queue.c.obj
                0x0002c2d0                queue_init
 .text.queue_push
                0x0002c2ec       0x44 examples/light_switch/proxy_server/CMakeFiles/light_switch_proxy_server_nrf52832_xxAA_s132_6.0.0.dir/__/__/__/mesh/core/src/queue.c.obj
                0x0002c2ec                queue_push
 .text.queue_pop
                0x0002c330       0x2c examples/light_switch/proxy_server/CMakeFiles/light_switch_proxy_server_nrf52832_xxAA_s132_6.0.0.dir/__/__/__/mesh/core/src/queue.c.obj
                0x0002c330                queue_pop
 .text.queue_peek
                0x0002c35c       0x14 examples/light_switch/proxy_server/CMakeFiles/light_switch_proxy_server_nrf52832_xxAA_s132_6.0.0.dir/__/__/__/mesh/core/src/queue.c.obj
                0x0002c35c                queue_peek
 .text.sd_power_reset_reason_clr
                0x0002c370        0x4 examples/light_switch/proxy_server/CMakeFiles/light_switch_proxy_server_nrf52832_xxAA_s132_6.0.0.dir/__/__/__/mesh/core/src/hal.c.obj
 .text.sd_power_gpregret_set
                0x0002c374        0x4 examples/light_switch/proxy_server/CMakeFiles/light_switch_proxy_server_nrf52832_xxAA_s132_6.0.0.dir/__/__/__/mesh/core/src/hal.c.obj
 .text.hal_device_reset
                0x0002c378       0x38 examples/light_switch/proxy_server/CMakeFiles/light_switch_proxy_server_nrf52832_xxAA_s132_6.0.0.dir/__/__/__/mesh/core/src/hal.c.obj
                0x0002c378                hal_device_reset
 .text.hal_lfclk_ppm_get
                0x0002c3b0       0x14 examples/light_switch/proxy_server/CMakeFiles/light_switch_proxy_server_nrf52832_xxAA_s132_6.0.0.dir/__/__/__/mesh/core/src/hal.c.obj
                0x0002c3b0                hal_lfclk_ppm_get
 .text.aes_cmac_subkey_generate
                0x0002c3c4      0x2b0 examples/light_switch/proxy_server/CMakeFiles/light_switch_proxy_server_nrf52832_xxAA_s132_6.0.0.dir/__/__/__/mesh/core/src/aes_cmac.c.obj
                0x0002c3c4                aes_cmac_subkey_generate
 .text.aes_cmac
                0x0002c674      0x49c examples/light_switch/proxy_server/CMakeFiles/light_switch_proxy_server_nrf52832_xxAA_s132_6.0.0.dir/__/__/__/mesh/core/src/aes_cmac.c.obj
                0x0002c674                aes_cmac
 .text.timer_cb
                0x0002cb10        0xc examples/light_switch/proxy_server/CMakeFiles/light_switch_proxy_server_nrf52832_xxAA_s132_6.0.0.dir/__/__/__/mesh/core/src/timer_scheduler.c.obj
 .text.add_evt.constprop.1
                0x0002cb1c       0x60 examples/light_switch/proxy_server/CMakeFiles/light_switch_proxy_server_nrf52832_xxAA_s132_6.0.0.dir/__/__/__/mesh/core/src/timer_scheduler.c.obj
 .text.flag_event_cb
                0x0002cb7c      0x328 examples/light_switch/proxy_server/CMakeFiles/light_switch_proxy_server_nrf52832_xxAA_s132_6.0.0.dir/__/__/__/mesh/core/src/timer_scheduler.c.obj
 .text.timer_sch_init
                0x0002cea4       0x24 examples/light_switch/proxy_server/CMakeFiles/light_switch_proxy_server_nrf52832_xxAA_s132_6.0.0.dir/__/__/__/mesh/core/src/timer_scheduler.c.obj
                0x0002cea4                timer_sch_init
 .text.timer_sch_schedule
                0x0002cec8       0x64 examples/light_switch/proxy_server/CMakeFiles/light_switch_proxy_server_nrf52832_xxAA_s132_6.0.0.dir/__/__/__/mesh/core/src/timer_scheduler.c.obj
                0x0002cec8                timer_sch_schedule
 .text.timer_sch_abort
                0x0002cf2c       0x5c examples/light_switch/proxy_server/CMakeFiles/light_switch_proxy_server_nrf52832_xxAA_s132_6.0.0.dir/__/__/__/mesh/core/src/timer_scheduler.c.obj
                0x0002cf2c                timer_sch_abort
 .text.timer_sch_reschedule
                0x0002cf88       0x88 examples/light_switch/proxy_server/CMakeFiles/light_switch_proxy_server_nrf52832_xxAA_s132_6.0.0.dir/__/__/__/mesh/core/src/timer_scheduler.c.obj
                0x0002cf88                timer_sch_reschedule
 .text.timer_event_handler
                0x0002d010       0xd0 examples/light_switch/proxy_server/CMakeFiles/light_switch_proxy_server_nrf52832_xxAA_s132_6.0.0.dir/__/__/__/mesh/core/src/timer.c.obj
                0x0002d010                timer_event_handler
 .text.timer_order_cb
                0x0002d0e0       0x98 examples/light_switch/proxy_server/CMakeFiles/light_switch_proxy_server_nrf52832_xxAA_s132_6.0.0.dir/__/__/__/mesh/core/src/timer.c.obj
                0x0002d0e0                timer_order_cb
 .text.timer_now
                0x0002d178       0x58 examples/light_switch/proxy_server/CMakeFiles/light_switch_proxy_server_nrf52832_xxAA_s132_6.0.0.dir/__/__/__/mesh/core/src/timer.c.obj
                0x0002d178                timer_now
 .text.timer_on_ts_begin
                0x0002d1d0      0x104 examples/light_switch/proxy_server/CMakeFiles/light_switch_proxy_server_nrf52832_xxAA_s132_6.0.0.dir/__/__/__/mesh/core/src/timer.c.obj
                0x0002d1d0                timer_on_ts_begin
 .text.timer_on_ts_end
                0x0002d2d4       0x78 examples/light_switch/proxy_server/CMakeFiles/light_switch_proxy_server_nrf52832_xxAA_s132_6.0.0.dir/__/__/__/mesh/core/src/timer.c.obj
                0x0002d2d4                timer_on_ts_end
 .text.timer_cb
                0x0002d34c       0x10 examples/light_switch/proxy_server/CMakeFiles/light_switch_proxy_server_nrf52832_xxAA_s132_6.0.0.dir/__/__/__/mesh/core/src/ticker.c.obj
 .text.ticker_init
                0x0002d35c       0x3c examples/light_switch/proxy_server/CMakeFiles/light_switch_proxy_server_nrf52832_xxAA_s132_6.0.0.dir/__/__/__/mesh/core/src/ticker.c.obj
                0x0002d35c                ticker_init
 .text.sd_rand_application_bytes_available_get
                0x0002d398        0x4 examples/light_switch/proxy_server/CMakeFiles/light_switch_proxy_server_nrf52832_xxAA_s132_6.0.0.dir/__/__/__/mesh/core/src/rand.c.obj
 .text.sd_rand_application_vector_get
                0x0002d39c        0x4 examples/light_switch/proxy_server/CMakeFiles/light_switch_proxy_server_nrf52832_xxAA_s132_6.0.0.dir/__/__/__/mesh/core/src/rand.c.obj
 .text.rand_prng_seed
                0x0002d3a0       0x6c examples/light_switch/proxy_server/CMakeFiles/light_switch_proxy_server_nrf52832_xxAA_s132_6.0.0.dir/__/__/__/mesh/core/src/rand.c.obj
                0x0002d3a0                rand_prng_seed
 .text.rand_prng_get
                0x0002d40c       0x28 examples/light_switch/proxy_server/CMakeFiles/light_switch_proxy_server_nrf52832_xxAA_s132_6.0.0.dir/__/__/__/mesh/core/src/rand.c.obj
                0x0002d40c                rand_prng_get
 .text.rand_hw_rng_get
                0x0002d434       0x4c examples/light_switch/proxy_server/CMakeFiles/light_switch_proxy_server_nrf52832_xxAA_s132_6.0.0.dir/__/__/__/mesh/core/src/rand.c.obj
                0x0002d434                rand_hw_rng_get
 .text.nrf_mesh_opt_set
                0x0002d480       0x28 examples/light_switch/proxy_server/CMakeFiles/light_switch_proxy_server_nrf52832_xxAA_s132_6.0.0.dir/__/__/__/mesh/core/src/nrf_mesh_opt.c.obj
                0x0002d480                nrf_mesh_opt_set
 .text.nrf_mesh_opt_get
                0x0002d4a8       0x28 examples/light_switch/proxy_server/CMakeFiles/light_switch_proxy_server_nrf52832_xxAA_s132_6.0.0.dir/__/__/__/mesh/core/src/nrf_mesh_opt.c.obj
                0x0002d4a8                nrf_mesh_opt_get
 .text.sd_radio_session_open
                0x0002d4d0        0x4 examples/light_switch/proxy_server/CMakeFiles/light_switch_proxy_server_nrf52832_xxAA_s132_6.0.0.dir/__/__/__/mesh/core/src/timeslot.c.obj
 .text.sd_radio_session_close
                0x0002d4d4        0x4 examples/light_switch/proxy_server/CMakeFiles/light_switch_proxy_server_nrf52832_xxAA_s132_6.0.0.dir/__/__/__/mesh/core/src/timeslot.c.obj
 .text.sd_radio_request
                0x0002d4d8        0x4 examples/light_switch/proxy_server/CMakeFiles/light_switch_proxy_server_nrf52832_xxAA_s132_6.0.0.dir/__/__/__/mesh/core/src/timeslot.c.obj
 .text.end_timer_handler
                0x0002d4dc       0x2c examples/light_switch/proxy_server/CMakeFiles/light_switch_proxy_server_nrf52832_xxAA_s132_6.0.0.dir/__/__/__/mesh/core/src/timeslot.c.obj
 .text.radio_signal_callback
                0x0002d508      0x2e4 examples/light_switch/proxy_server/CMakeFiles/light_switch_proxy_server_nrf52832_xxAA_s132_6.0.0.dir/__/__/__/mesh/core/src/timeslot.c.obj
 .text.timeslot_sd_event_handler
                0x0002d7ec       0x44 examples/light_switch/proxy_server/CMakeFiles/light_switch_proxy_server_nrf52832_xxAA_s132_6.0.0.dir/__/__/__/mesh/core/src/timeslot.c.obj
                0x0002d7ec                timeslot_sd_event_handler
 .text.timeslot_init
                0x0002d830       0x4c examples/light_switch/proxy_server/CMakeFiles/light_switch_proxy_server_nrf52832_xxAA_s132_6.0.0.dir/__/__/__/mesh/core/src/timeslot.c.obj
                0x0002d830                timeslot_init
 .text.timeslot_start
                0x0002d87c       0x20 examples/light_switch/proxy_server/CMakeFiles/light_switch_proxy_server_nrf52832_xxAA_s132_6.0.0.dir/__/__/__/mesh/core/src/timeslot.c.obj
                0x0002d87c                timeslot_start
 .text.timeslot_stop
                0x0002d89c       0x30 examples/light_switch/proxy_server/CMakeFiles/light_switch_proxy_server_nrf52832_xxAA_s132_6.0.0.dir/__/__/__/mesh/core/src/timeslot.c.obj
                0x0002d89c                timeslot_stop
 .text.timeslot_state_lock
                0x0002d8cc       0x44 examples/light_switch/proxy_server/CMakeFiles/light_switch_proxy_server_nrf52832_xxAA_s132_6.0.0.dir/__/__/__/mesh/core/src/timeslot.c.obj
                0x0002d8cc                timeslot_state_lock
 .text.timeslot_end_is_pending
                0x0002d910       0x24 examples/light_switch/proxy_server/CMakeFiles/light_switch_proxy_server_nrf52832_xxAA_s132_6.0.0.dir/__/__/__/mesh/core/src/timeslot.c.obj
                0x0002d910                timeslot_end_is_pending
 .text.timeslot_start_time_get
                0x0002d934        0xc examples/light_switch/proxy_server/CMakeFiles/light_switch_proxy_server_nrf52832_xxAA_s132_6.0.0.dir/__/__/__/mesh/core/src/timeslot.c.obj
                0x0002d934                timeslot_start_time_get
 .text.timeslot_remaining_time_get
                0x0002d940       0x40 examples/light_switch/proxy_server/CMakeFiles/light_switch_proxy_server_nrf52832_xxAA_s132_6.0.0.dir/__/__/__/mesh/core/src/timeslot.c.obj
                0x0002d940                timeslot_remaining_time_get
 .text.timeslot_is_in_cb
                0x0002d980        0xc examples/light_switch/proxy_server/CMakeFiles/light_switch_proxy_server_nrf52832_xxAA_s132_6.0.0.dir/__/__/__/mesh/core/src/timeslot.c.obj
                0x0002d980                timeslot_is_in_cb
 .text.timeslot_trigger
                0x0002d98c       0x24 examples/light_switch/proxy_server/CMakeFiles/light_switch_proxy_server_nrf52832_xxAA_s132_6.0.0.dir/__/__/__/mesh/core/src/timeslot.c.obj
                0x0002d98c                timeslot_trigger
 .text.bearer_event_init
                0x0002d9b0       0x4c examples/light_switch/proxy_server/CMakeFiles/light_switch_proxy_server_nrf52832_xxAA_s132_6.0.0.dir/__/__/__/mesh/core/src/bearer_event.c.obj
                0x0002d9b0                bearer_event_init
 .text.bearer_event_timer_post
                0x0002d9fc       0x50 examples/light_switch/proxy_server/CMakeFiles/light_switch_proxy_server_nrf52832_xxAA_s132_6.0.0.dir/__/__/__/mesh/core/src/bearer_event.c.obj
                0x0002d9fc                bearer_event_timer_post
 .text.bearer_event_critical_section_begin
                0x0002da4c       0x44 examples/light_switch/proxy_server/CMakeFiles/light_switch_proxy_server_nrf52832_xxAA_s132_6.0.0.dir/__/__/__/mesh/core/src/bearer_event.c.obj
                0x0002da4c                bearer_event_critical_section_begin
 .text.bearer_event_critical_section_end
                0x0002da90       0x40 examples/light_switch/proxy_server/CMakeFiles/light_switch_proxy_server_nrf52832_xxAA_s132_6.0.0.dir/__/__/__/mesh/core/src/bearer_event.c.obj
                0x0002da90                bearer_event_critical_section_end
 .text.bearer_event_flag_add
                0x0002dad0       0x40 examples/light_switch/proxy_server/CMakeFiles/light_switch_proxy_server_nrf52832_xxAA_s132_6.0.0.dir/__/__/__/mesh/core/src/bearer_event.c.obj
                0x0002dad0                bearer_event_flag_add
 .text.bearer_event_flag_set
                0x0002db10       0x5c examples/light_switch/proxy_server/CMakeFiles/light_switch_proxy_server_nrf52832_xxAA_s132_6.0.0.dir/__/__/__/mesh/core/src/bearer_event.c.obj
                0x0002db10                bearer_event_flag_set
 .text.bearer_event_sequential_add
                0x0002db6c       0x44 examples/light_switch/proxy_server/CMakeFiles/light_switch_proxy_server_nrf52832_xxAA_s132_6.0.0.dir/__/__/__/mesh/core/src/bearer_event.c.obj
                0x0002db6c                bearer_event_sequential_add
 .text.bearer_event_sequential_post
                0x0002dbb0       0x64 examples/light_switch/proxy_server/CMakeFiles/light_switch_proxy_server_nrf52832_xxAA_s132_6.0.0.dir/__/__/__/mesh/core/src/bearer_event.c.obj
                0x0002dbb0                bearer_event_sequential_post
 .text.bearer_event_sequential_pending
                0x0002dc14       0x14 examples/light_switch/proxy_server/CMakeFiles/light_switch_proxy_server_nrf52832_xxAA_s132_6.0.0.dir/__/__/__/mesh/core/src/bearer_event.c.obj
                0x0002dc14                bearer_event_sequential_pending
 .text.bearer_event_handler
                0x0002dc28      0x154 examples/light_switch/proxy_server/CMakeFiles/light_switch_proxy_server_nrf52832_xxAA_s132_6.0.0.dir/__/__/__/mesh/core/src/bearer_event.c.obj
                0x0002dc28                bearer_event_handler
 .text.QDEC_IRQHandler
                0x0002dd7c        0x4 examples/light_switch/proxy_server/CMakeFiles/light_switch_proxy_server_nrf52832_xxAA_s132_6.0.0.dir/__/__/__/mesh/core/src/bearer_event.c.obj
                0x0002dd7c                QDEC_IRQHandler
 .text.enc_aes_encrypt
                0x0002dd80        0x4 examples/light_switch/proxy_server/CMakeFiles/light_switch_proxy_server_nrf52832_xxAA_s132_6.0.0.dir/__/__/__/mesh/core/src/enc.c.obj
                0x0002dd80                enc_aes_encrypt
 .text.enc_aes_cmac
                0x0002dd84        0x4 examples/light_switch/proxy_server/CMakeFiles/light_switch_proxy_server_nrf52832_xxAA_s132_6.0.0.dir/__/__/__/mesh/core/src/enc.c.obj
                0x0002dd84                enc_aes_cmac
 .text.enc_aes_ccm_encrypt
                0x0002dd88        0x4 examples/light_switch/proxy_server/CMakeFiles/light_switch_proxy_server_nrf52832_xxAA_s132_6.0.0.dir/__/__/__/mesh/core/src/enc.c.obj
                0x0002dd88                enc_aes_ccm_encrypt
 .text.enc_aes_ccm_decrypt
                0x0002dd8c        0x4 examples/light_switch/proxy_server/CMakeFiles/light_switch_proxy_server_nrf52832_xxAA_s132_6.0.0.dir/__/__/__/mesh/core/src/enc.c.obj
                0x0002dd8c                enc_aes_ccm_decrypt
 .text.enc_nonce_generate
                0x0002dd90       0xc8 examples/light_switch/proxy_server/CMakeFiles/light_switch_proxy_server_nrf52832_xxAA_s132_6.0.0.dir/__/__/__/mesh/core/src/enc.c.obj
                0x0002dd90                enc_nonce_generate
 .text.enc_s1   0x0002de58       0x30 examples/light_switch/proxy_server/CMakeFiles/light_switch_proxy_server_nrf52832_xxAA_s132_6.0.0.dir/__/__/__/mesh/core/src/enc.c.obj
                0x0002de58                enc_s1
 .text.enc_k1   0x0002de88       0x44 examples/light_switch/proxy_server/CMakeFiles/light_switch_proxy_server_nrf52832_xxAA_s132_6.0.0.dir/__/__/__/mesh/core/src/enc.c.obj
                0x0002de88                enc_k1
 .text.enc_k2   0x0002decc       0xe0 examples/light_switch/proxy_server/CMakeFiles/light_switch_proxy_server_nrf52832_xxAA_s132_6.0.0.dir/__/__/__/mesh/core/src/enc.c.obj
                0x0002decc                enc_k2
 .text.enc_k3   0x0002dfac       0x68 examples/light_switch/proxy_server/CMakeFiles/light_switch_proxy_server_nrf52832_xxAA_s132_6.0.0.dir/__/__/__/mesh/core/src/enc.c.obj
                0x0002dfac                enc_k3
 .text.enc_k4   0x0002e014       0x60 examples/light_switch/proxy_server/CMakeFiles/light_switch_proxy_server_nrf52832_xxAA_s132_6.0.0.dir/__/__/__/mesh/core/src/enc.c.obj
                0x0002e014                enc_k4
 .text.network_init
                0x0002e074       0x28 examples/light_switch/proxy_server/CMakeFiles/light_switch_proxy_server_nrf52832_xxAA_s132_6.0.0.dir/__/__/__/mesh/core/src/network.c.obj
                0x0002e074                network_init
 .text.network_opt_set
                0x0002e09c       0x84 examples/light_switch/proxy_server/CMakeFiles/light_switch_proxy_server_nrf52832_xxAA_s132_6.0.0.dir/__/__/__/mesh/core/src/network.c.obj
                0x0002e09c                network_opt_set
 .text.network_opt_get
                0x0002e120       0x5c examples/light_switch/proxy_server/CMakeFiles/light_switch_proxy_server_nrf52832_xxAA_s132_6.0.0.dir/__/__/__/mesh/core/src/network.c.obj
                0x0002e120                network_opt_get
 .text.network_packet_alloc
                0x0002e17c       0x98 examples/light_switch/proxy_server/CMakeFiles/light_switch_proxy_server_nrf52832_xxAA_s132_6.0.0.dir/__/__/__/mesh/core/src/network.c.obj
                0x0002e17c                network_packet_alloc
 .text.network_packet_send
                0x0002e214       0x50 examples/light_switch/proxy_server/CMakeFiles/light_switch_proxy_server_nrf52832_xxAA_s132_6.0.0.dir/__/__/__/mesh/core/src/network.c.obj
                0x0002e214                network_packet_send
 .text.network_packet_in
                0x0002e264      0x1cc examples/light_switch/proxy_server/CMakeFiles/light_switch_proxy_server_nrf52832_xxAA_s132_6.0.0.dir/__/__/__/mesh/core/src/network.c.obj
                0x0002e264                network_packet_in
 .text.net_packet_decrypt
                0x0002e430      0x2dc examples/light_switch/proxy_server/CMakeFiles/light_switch_proxy_server_nrf52832_xxAA_s132_6.0.0.dir/__/__/__/mesh/core/src/net_packet.c.obj
                0x0002e430                net_packet_decrypt
 .text.net_packet_encrypt
                0x0002e70c      0x100 examples/light_switch/proxy_server/CMakeFiles/light_switch_proxy_server_nrf52832_xxAA_s132_6.0.0.dir/__/__/__/mesh/core/src/net_packet.c.obj
                0x0002e70c                net_packet_encrypt
 .text.net_packet_header_set
                0x0002e80c       0xc0 examples/light_switch/proxy_server/CMakeFiles/light_switch_proxy_server_nrf52832_xxAA_s132_6.0.0.dir/__/__/__/mesh/core/src/net_packet.c.obj
                0x0002e80c                net_packet_header_set
 .text.net_packet_payload_len_get
                0x0002e8cc       0x14 examples/light_switch/proxy_server/CMakeFiles/light_switch_proxy_server_nrf52832_xxAA_s132_6.0.0.dir/__/__/__/mesh/core/src/net_packet.c.obj
                0x0002e8cc                net_packet_payload_len_get
 .text.net_packet_from_payload
                0x0002e8e0        0x4 examples/light_switch/proxy_server/CMakeFiles/light_switch_proxy_server_nrf52832_xxAA_s132_6.0.0.dir/__/__/__/mesh/core/src/net_packet.c.obj
                0x0002e8e0                net_packet_from_payload
 .text.net_packet_payload_get
                0x0002e8e4        0x4 examples/light_switch/proxy_server/CMakeFiles/light_switch_proxy_server_nrf52832_xxAA_s132_6.0.0.dir/__/__/__/mesh/core/src/net_packet.c.obj
                0x0002e8e4                net_packet_payload_get
 .text.net_packet_obfuscation_start_get
                0x0002e8e8        0x4 examples/light_switch/proxy_server/CMakeFiles/light_switch_proxy_server_nrf52832_xxAA_s132_6.0.0.dir/__/__/__/mesh/core/src/net_packet.c.obj
                0x0002e8e8                net_packet_obfuscation_start_get
 .text.msq_init
                0x0002e8ec       0x64 examples/light_switch/proxy_server/CMakeFiles/light_switch_proxy_server_nrf52832_xxAA_s132_6.0.0.dir/__/__/__/mesh/core/src/msqueue.c.obj
                0x0002e8ec                msq_init
 .text.msq_get  0x0002e950       0x54 examples/light_switch/proxy_server/CMakeFiles/light_switch_proxy_server_nrf52832_xxAA_s132_6.0.0.dir/__/__/__/mesh/core/src/msqueue.c.obj
                0x0002e950                msq_get
 .text.msq_move
                0x0002e9a4       0x4c examples/light_switch/proxy_server/CMakeFiles/light_switch_proxy_server_nrf52832_xxAA_s132_6.0.0.dir/__/__/__/mesh/core/src/msqueue.c.obj
                0x0002e9a4                msq_move
 .text.msq_available
                0x0002e9f0       0x44 examples/light_switch/proxy_server/CMakeFiles/light_switch_proxy_server_nrf52832_xxAA_s132_6.0.0.dir/__/__/__/mesh/core/src/msqueue.c.obj
                0x0002e9f0                msq_available
 .text.nrf_mesh_keygen_aid
                0x0002ea34       0x18 examples/light_switch/proxy_server/CMakeFiles/light_switch_proxy_server_nrf52832_xxAA_s132_6.0.0.dir/__/__/__/mesh/core/src/nrf_mesh_keygen.c.obj
                0x0002ea34                nrf_mesh_keygen_aid
 .text.nrf_mesh_keygen_network_secmat
                0x0002ea4c       0x24 examples/light_switch/proxy_server/CMakeFiles/light_switch_proxy_server_nrf52832_xxAA_s132_6.0.0.dir/__/__/__/mesh/core/src/nrf_mesh_keygen.c.obj
                0x0002ea4c                nrf_mesh_keygen_network_secmat
 .text.nrf_mesh_keygen_beacon_secmat
                0x0002ea70       0x50 examples/light_switch/proxy_server/CMakeFiles/light_switch_proxy_server_nrf52832_xxAA_s132_6.0.0.dir/__/__/__/mesh/core/src/nrf_mesh_keygen.c.obj
                0x0002ea70                nrf_mesh_keygen_beacon_secmat
 .text.nrf_mesh_keygen_identitykey
                0x0002eac0       0x4c examples/light_switch/proxy_server/CMakeFiles/light_switch_proxy_server_nrf52832_xxAA_s132_6.0.0.dir/__/__/__/mesh/core/src/nrf_mesh_keygen.c.obj
                0x0002eac0                nrf_mesh_keygen_identitykey
 .text.nrf_mesh_keygen_virtual_address
                0x0002eb0c       0x50 examples/light_switch/proxy_server/CMakeFiles/light_switch_proxy_server_nrf52832_xxAA_s132_6.0.0.dir/__/__/__/mesh/core/src/nrf_mesh_keygen.c.obj
                0x0002eb0c                nrf_mesh_keygen_virtual_address
 .text.cache_init
                0x0002eb5c       0x44 examples/light_switch/proxy_server/CMakeFiles/light_switch_proxy_server_nrf52832_xxAA_s132_6.0.0.dir/__/__/__/mesh/core/src/cache.c.obj
                0x0002eb5c                cache_init
 .text.cache_has_elem
                0x0002eba0       0x5c examples/light_switch/proxy_server/CMakeFiles/light_switch_proxy_server_nrf52832_xxAA_s132_6.0.0.dir/__/__/__/mesh/core/src/cache.c.obj
                0x0002eba0                cache_has_elem
 .text.cache_put
                0x0002ebfc       0x2c examples/light_switch/proxy_server/CMakeFiles/light_switch_proxy_server_nrf52832_xxAA_s132_6.0.0.dir/__/__/__/mesh/core/src/cache.c.obj
                0x0002ebfc                cache_put
 .text.list_add
                0x0002ec28       0x5c examples/light_switch/proxy_server/CMakeFiles/light_switch_proxy_server_nrf52832_xxAA_s132_6.0.0.dir/__/__/__/mesh/core/src/list.c.obj
                0x0002ec28                list_add
 .text.list_remove
                0x0002ec84       0x44 examples/light_switch/proxy_server/CMakeFiles/light_switch_proxy_server_nrf52832_xxAA_s132_6.0.0.dir/__/__/__/mesh/core/src/list.c.obj
                0x0002ec84                list_remove
 .text.list_compare_add
                0x0002ecc8       0x78 examples/light_switch/proxy_server/CMakeFiles/light_switch_proxy_server_nrf52832_xxAA_s132_6.0.0.dir/__/__/__/mesh/core/src/list.c.obj
                0x0002ecc8                list_compare_add
 .text.log_callback_rtt
                0x0002ed40       0x2c examples/light_switch/proxy_server/CMakeFiles/light_switch_proxy_server_nrf52832_xxAA_s132_6.0.0.dir/__/__/__/mesh/core/src/log.c.obj
                0x0002ed40                log_callback_rtt
 .text.log_init
                0x0002ed6c       0x20 examples/light_switch/proxy_server/CMakeFiles/light_switch_proxy_server_nrf52832_xxAA_s132_6.0.0.dir/__/__/__/mesh/core/src/log.c.obj
                0x0002ed6c                log_init
 .text.log_printf
                0x0002ed8c       0x20 examples/light_switch/proxy_server/CMakeFiles/light_switch_proxy_server_nrf52832_xxAA_s132_6.0.0.dir/__/__/__/mesh/core/src/log.c.obj
                0x0002ed8c                log_printf
 .text.process_action_queue
                0x0002edac      0x644 examples/light_switch/proxy_server/CMakeFiles/light_switch_proxy_server_nrf52832_xxAA_s132_6.0.0.dir/__/__/__/mesh/core/src/flash_manager.c.obj
 .text.flash_op_ended_callback
                0x0002f3f0       0x24 examples/light_switch/proxy_server/CMakeFiles/light_switch_proxy_server_nrf52832_xxAA_s132_6.0.0.dir/__/__/__/mesh/core/src/flash_manager.c.obj
 .text.flash_manager_init
                0x0002f414       0x68 examples/light_switch/proxy_server/CMakeFiles/light_switch_proxy_server_nrf52832_xxAA_s132_6.0.0.dir/__/__/__/mesh/core/src/flash_manager.c.obj
                0x0002f414                flash_manager_init
 .text.flash_manager_remove
                0x0002f47c       0x6c examples/light_switch/proxy_server/CMakeFiles/light_switch_proxy_server_nrf52832_xxAA_s132_6.0.0.dir/__/__/__/mesh/core/src/flash_manager.c.obj
                0x0002f47c                flash_manager_remove
 .text.flash_manager_entry_get
                0x0002f4e8       0x48 examples/light_switch/proxy_server/CMakeFiles/light_switch_proxy_server_nrf52832_xxAA_s132_6.0.0.dir/__/__/__/mesh/core/src/flash_manager.c.obj
                0x0002f4e8                flash_manager_entry_get
 .text.flash_manager_entry_next_get
                0x0002f530      0x148 examples/light_switch/proxy_server/CMakeFiles/light_switch_proxy_server_nrf52832_xxAA_s132_6.0.0.dir/__/__/__/mesh/core/src/flash_manager.c.obj
                0x0002f530                flash_manager_entry_next_get
 .text.flash_manager_entry_alloc
                0x0002f678       0x88 examples/light_switch/proxy_server/CMakeFiles/light_switch_proxy_server_nrf52832_xxAA_s132_6.0.0.dir/__/__/__/mesh/core/src/flash_manager.c.obj
                0x0002f678                flash_manager_entry_alloc
 .text.flash_manager_entry_commit
                0x0002f700       0x58 examples/light_switch/proxy_server/CMakeFiles/light_switch_proxy_server_nrf52832_xxAA_s132_6.0.0.dir/__/__/__/mesh/core/src/flash_manager.c.obj
                0x0002f700                flash_manager_entry_commit
 .text.flash_manager_entry_invalidate
                0x0002f758       0x98 examples/light_switch/proxy_server/CMakeFiles/light_switch_proxy_server_nrf52832_xxAA_s132_6.0.0.dir/__/__/__/mesh/core/src/flash_manager.c.obj
                0x0002f758                flash_manager_entry_invalidate
 .text.flash_manager_add
                0x0002f7f0      0x410 examples/light_switch/proxy_server/CMakeFiles/light_switch_proxy_server_nrf52832_xxAA_s132_6.0.0.dir/__/__/__/mesh/core/src/flash_manager.c.obj
                0x0002f7f0                flash_manager_add
 .text.flash_manager_mem_listener_register
                0x0002fc00       0x34 examples/light_switch/proxy_server/CMakeFiles/light_switch_proxy_server_nrf52832_xxAA_s132_6.0.0.dir/__/__/__/mesh/core/src/flash_manager.c.obj
                0x0002fc00                flash_manager_mem_listener_register
 .text.flash_manager_is_stable
                0x0002fc34       0x20 examples/light_switch/proxy_server/CMakeFiles/light_switch_proxy_server_nrf52832_xxAA_s132_6.0.0.dir/__/__/__/mesh/core/src/flash_manager.c.obj
                0x0002fc34                flash_manager_is_stable
 .text.flash_manager_on_defrag_end
                0x0002fc54       0x58 examples/light_switch/proxy_server/CMakeFiles/light_switch_proxy_server_nrf52832_xxAA_s132_6.0.0.dir/__/__/__/mesh/core/src/flash_manager.c.obj
                0x0002fc54                flash_manager_on_defrag_end
 .text.flash_manager_recovery_page_get
                0x0002fcac        0x4 examples/light_switch/proxy_server/CMakeFiles/light_switch_proxy_server_nrf52832_xxAA_s132_6.0.0.dir/__/__/__/mesh/core/src/flash_manager.c.obj
                0x0002fcac                flash_manager_recovery_page_get
 .text.flash_manager_action_queue_empty_cb_set
                0x0002fcb0       0x20 examples/light_switch/proxy_server/CMakeFiles/light_switch_proxy_server_nrf52832_xxAA_s132_6.0.0.dir/__/__/__/mesh/core/src/flash_manager.c.obj
                0x0002fcb0                flash_manager_action_queue_empty_cb_set
 .text.ccm_soft_crypt.constprop.0
                0x0002fcd0      0x298 examples/light_switch/proxy_server/CMakeFiles/light_switch_proxy_server_nrf52832_xxAA_s132_6.0.0.dir/__/__/__/mesh/core/src/ccm_soft.c.obj
 .text.ccm_soft_authenticate
                0x0002ff68      0x324 examples/light_switch/proxy_server/CMakeFiles/light_switch_proxy_server_nrf52832_xxAA_s132_6.0.0.dir/__/__/__/mesh/core/src/ccm_soft.c.obj
 .text.ccm_soft_encrypt
                0x0003028c       0x78 examples/light_switch/proxy_server/CMakeFiles/light_switch_proxy_server_nrf52832_xxAA_s132_6.0.0.dir/__/__/__/mesh/core/src/ccm_soft.c.obj
                0x0003028c                ccm_soft_encrypt
 .text.ccm_soft_decrypt
                0x00030304      0x10c examples/light_switch/proxy_server/CMakeFiles/light_switch_proxy_server_nrf52832_xxAA_s132_6.0.0.dir/__/__/__/mesh/core/src/ccm_soft.c.obj
                0x00030304                ccm_soft_decrypt
 .text.replay_cache_init
                0x00030410       0x20 examples/light_switch/proxy_server/CMakeFiles/light_switch_proxy_server_nrf52832_xxAA_s132_6.0.0.dir/__/__/__/mesh/core/src/replay_cache.c.obj
                0x00030410                replay_cache_init
 .text.replay_cache_add
                0x00030430       0x5c examples/light_switch/proxy_server/CMakeFiles/light_switch_proxy_server_nrf52832_xxAA_s132_6.0.0.dir/__/__/__/mesh/core/src/replay_cache.c.obj
                0x00030430                replay_cache_add
 .text.replay_cache_has_elem
                0x0003048c       0x40 examples/light_switch/proxy_server/CMakeFiles/light_switch_proxy_server_nrf52832_xxAA_s132_6.0.0.dir/__/__/__/mesh/core/src/replay_cache.c.obj
                0x0003048c                replay_cache_has_elem
 .text.beacon_create
                0x000304cc       0x50 examples/light_switch/proxy_server/CMakeFiles/light_switch_proxy_server_nrf52832_xxAA_s132_6.0.0.dir/__/__/__/mesh/core/src/beacon.c.obj
                0x000304cc                beacon_create
 .text.beacon_packet_in
                0x0003051c      0x174 examples/light_switch/proxy_server/CMakeFiles/light_switch_proxy_server_nrf52832_xxAA_s132_6.0.0.dir/__/__/__/mesh/core/src/beacon.c.obj
                0x0003051c                beacon_packet_in
 .text.entry_get
                0x00030690       0x80 examples/light_switch/proxy_server/CMakeFiles/light_switch_proxy_server_nrf52832_xxAA_s132_6.0.0.dir/__/__/__/mesh/core/src/flash_manager_internal.c.obj
                0x00030690                entry_get
 .text.core_tx_complete_cb_set
                0x00030710        0xc examples/light_switch/proxy_server/CMakeFiles/light_switch_proxy_server_nrf52832_xxAA_s132_6.0.0.dir/__/__/__/mesh/core/src/core_tx.c.obj
                0x00030710                core_tx_complete_cb_set
 .text.core_tx_packet_alloc
                0x0003071c       0xb4 examples/light_switch/proxy_server/CMakeFiles/light_switch_proxy_server_nrf52832_xxAA_s132_6.0.0.dir/__/__/__/mesh/core/src/core_tx.c.obj
                0x0003071c                core_tx_packet_alloc
 .text.core_tx_packet_send
                0x000307d0       0x58 examples/light_switch/proxy_server/CMakeFiles/light_switch_proxy_server_nrf52832_xxAA_s132_6.0.0.dir/__/__/__/mesh/core/src/core_tx.c.obj
                0x000307d0                core_tx_packet_send
 .text.core_tx_packet_discard
                0x00030828       0x4c examples/light_switch/proxy_server/CMakeFiles/light_switch_proxy_server_nrf52832_xxAA_s132_6.0.0.dir/__/__/__/mesh/core/src/core_tx.c.obj
                0x00030828                core_tx_packet_discard
 .text.core_tx_complete
                0x00030874       0x38 examples/light_switch/proxy_server/CMakeFiles/light_switch_proxy_server_nrf52832_xxAA_s132_6.0.0.dir/__/__/__/mesh/core/src/core_tx.c.obj
                0x00030874                core_tx_complete
 .text.core_tx_bearer_add
                0x000308ac       0x84 examples/light_switch/proxy_server/CMakeFiles/light_switch_proxy_server_nrf52832_xxAA_s132_6.0.0.dir/__/__/__/mesh/core/src/core_tx.c.obj
                0x000308ac                core_tx_bearer_add
 .text.heartbeat_subscription_timer_cb
                0x00030930       0x1c examples/light_switch/proxy_server/CMakeFiles/light_switch_proxy_server_nrf52832_xxAA_s132_6.0.0.dir/__/__/__/mesh/core/src/heartbeat.c.obj
 .text.heartbeat_opcode_handle
                0x0003094c       0x8c examples/light_switch/proxy_server/CMakeFiles/light_switch_proxy_server_nrf52832_xxAA_s132_6.0.0.dir/__/__/__/mesh/core/src/heartbeat.c.obj
 .text.heartbeat_send
                0x000309d8       0xbc examples/light_switch/proxy_server/CMakeFiles/light_switch_proxy_server_nrf52832_xxAA_s132_6.0.0.dir/__/__/__/mesh/core/src/heartbeat.c.obj
 .text.heartbeat_core_evt_cb
                0x00030a94       0x94 examples/light_switch/proxy_server/CMakeFiles/light_switch_proxy_server_nrf52832_xxAA_s132_6.0.0.dir/__/__/__/mesh/core/src/heartbeat.c.obj
 .text.heartbeat_publication_timer_cb
                0x00030b28       0xb0 examples/light_switch/proxy_server/CMakeFiles/light_switch_proxy_server_nrf52832_xxAA_s132_6.0.0.dir/__/__/__/mesh/core/src/heartbeat.c.obj
 .text.heartbeat_on_feature_change_trigger
                0x00030bd8       0x48 examples/light_switch/proxy_server/CMakeFiles/light_switch_proxy_server_nrf52832_xxAA_s132_6.0.0.dir/__/__/__/mesh/core/src/heartbeat.c.obj
                0x00030bd8                heartbeat_on_feature_change_trigger
 .text.heartbeat_init
                0x00030c20       0x7c examples/light_switch/proxy_server/CMakeFiles/light_switch_proxy_server_nrf52832_xxAA_s132_6.0.0.dir/__/__/__/mesh/core/src/heartbeat.c.obj
                0x00030c20                heartbeat_init
 .text.heartbeat_subscription_set
                0x00030c9c       0xa4 examples/light_switch/proxy_server/CMakeFiles/light_switch_proxy_server_nrf52832_xxAA_s132_6.0.0.dir/__/__/__/mesh/core/src/heartbeat.c.obj
                0x00030c9c                heartbeat_subscription_set
 .text.heartbeat_subscription_get
                0x00030d40        0x8 examples/light_switch/proxy_server/CMakeFiles/light_switch_proxy_server_nrf52832_xxAA_s132_6.0.0.dir/__/__/__/mesh/core/src/heartbeat.c.obj
                0x00030d40                heartbeat_subscription_get
 .text.heartbeat_config_server_cb_set
                0x00030d48       0x38 examples/light_switch/proxy_server/CMakeFiles/light_switch_proxy_server_nrf52832_xxAA_s132_6.0.0.dir/__/__/__/mesh/core/src/heartbeat.c.obj
                0x00030d48                heartbeat_config_server_cb_set
 .text.heartbeat_publication_state_updated
                0x00030d80       0x78 examples/light_switch/proxy_server/CMakeFiles/light_switch_proxy_server_nrf52832_xxAA_s132_6.0.0.dir/__/__/__/mesh/core/src/heartbeat.c.obj
                0x00030d80                heartbeat_publication_state_updated
 .text.beacon_tx
                0x00030df8      0x194 examples/light_switch/proxy_server/CMakeFiles/light_switch_proxy_server_nrf52832_xxAA_s132_6.0.0.dir/__/__/__/mesh/core/src/net_beacon.c.obj
 .text.tx_complete_cb
                0x00030f8c       0x10 examples/light_switch/proxy_server/CMakeFiles/light_switch_proxy_server_nrf52832_xxAA_s132_6.0.0.dir/__/__/__/mesh/core/src/net_beacon.c.obj
 .text.beacon_tx_timeout
                0x00030f9c        0x4 examples/light_switch/proxy_server/CMakeFiles/light_switch_proxy_server_nrf52832_xxAA_s132_6.0.0.dir/__/__/__/mesh/core/src/net_beacon.c.obj
 .text.net_beacon_init
                0x00030fa0       0x94 examples/light_switch/proxy_server/CMakeFiles/light_switch_proxy_server_nrf52832_xxAA_s132_6.0.0.dir/__/__/__/mesh/core/src/net_beacon.c.obj
                0x00030fa0                net_beacon_init
 .text.net_beacon_state_set
                0x00031034       0x3c examples/light_switch/proxy_server/CMakeFiles/light_switch_proxy_server_nrf52832_xxAA_s132_6.0.0.dir/__/__/__/mesh/core/src/net_beacon.c.obj
                0x00031034                net_beacon_state_set
 .text.net_beacon_state_get
                0x00031070        0xc examples/light_switch/proxy_server/CMakeFiles/light_switch_proxy_server_nrf52832_xxAA_s132_6.0.0.dir/__/__/__/mesh/core/src/net_beacon.c.obj
                0x00031070                net_beacon_state_get
 .text.net_beacon_build
                0x0003107c       0x68 examples/light_switch/proxy_server/CMakeFiles/light_switch_proxy_server_nrf52832_xxAA_s132_6.0.0.dir/__/__/__/mesh/core/src/net_beacon.c.obj
                0x0003107c                net_beacon_build
 .text.net_beacon_packet_in
                0x000310e4      0x14c examples/light_switch/proxy_server/CMakeFiles/light_switch_proxy_server_nrf52832_xxAA_s132_6.0.0.dir/__/__/__/mesh/core/src/net_beacon.c.obj
                0x000310e4                net_beacon_packet_in
 .text.fsm_event_post_try
                0x00031230      0x238 examples/light_switch/proxy_server/CMakeFiles/light_switch_proxy_server_nrf52832_xxAA_s132_6.0.0.dir/__/__/__/mesh/core/src/fsm.c.obj
 .text.fsm_init
                0x00031468      0x100 examples/light_switch/proxy_server/CMakeFiles/light_switch_proxy_server_nrf52832_xxAA_s132_6.0.0.dir/__/__/__/mesh/core/src/fsm.c.obj
                0x00031468                fsm_init
 .text.fsm_event_post
                0x00031568       0xbc examples/light_switch/proxy_server/CMakeFiles/light_switch_proxy_server_nrf52832_xxAA_s132_6.0.0.dir/__/__/__/mesh/core/src/fsm.c.obj
                0x00031568                fsm_event_post
 .text.fsm_is_processing
                0x00031624        0xc examples/light_switch/proxy_server/CMakeFiles/light_switch_proxy_server_nrf52832_xxAA_s132_6.0.0.dir/__/__/__/mesh/core/src/fsm.c.obj
                0x00031624                fsm_is_processing
 .text.packet_discard
                0x00031630       0x40 examples/light_switch/proxy_server/CMakeFiles/light_switch_proxy_server_nrf52832_xxAA_s132_6.0.0.dir/__/__/__/mesh/core/src/core_tx_adv.c.obj
 .text.packet_send
                0x00031670       0x58 examples/light_switch/proxy_server/CMakeFiles/light_switch_proxy_server_nrf52832_xxAA_s132_6.0.0.dir/__/__/__/mesh/core/src/core_tx_adv.c.obj
 .text.packet_alloc
                0x000316c8       0x5c examples/light_switch/proxy_server/CMakeFiles/light_switch_proxy_server_nrf52832_xxAA_s132_6.0.0.dir/__/__/__/mesh/core/src/core_tx_adv.c.obj
 .text.adv_tx_complete_callback
                0x00031724       0x28 examples/light_switch/proxy_server/CMakeFiles/light_switch_proxy_server_nrf52832_xxAA_s132_6.0.0.dir/__/__/__/mesh/core/src/core_tx_adv.c.obj
 .text.core_tx_adv_init
                0x0003174c       0x60 examples/light_switch/proxy_server/CMakeFiles/light_switch_proxy_server_nrf52832_xxAA_s132_6.0.0.dir/__/__/__/mesh/core/src/core_tx_adv.c.obj
                0x0003174c                core_tx_adv_init
 .text.core_tx_adv_count_set
                0x000317ac       0x28 examples/light_switch/proxy_server/CMakeFiles/light_switch_proxy_server_nrf52832_xxAA_s132_6.0.0.dir/__/__/__/mesh/core/src/core_tx_adv.c.obj
                0x000317ac                core_tx_adv_count_set
 .text.core_tx_adv_count_get
                0x000317d4       0x20 examples/light_switch/proxy_server/CMakeFiles/light_switch_proxy_server_nrf52832_xxAA_s132_6.0.0.dir/__/__/__/mesh/core/src/core_tx_adv.c.obj
                0x000317d4                core_tx_adv_count_get
 .text.core_tx_adv_interval_set
                0x000317f4       0x28 examples/light_switch/proxy_server/CMakeFiles/light_switch_proxy_server_nrf52832_xxAA_s132_6.0.0.dir/__/__/__/mesh/core/src/core_tx_adv.c.obj
                0x000317f4                core_tx_adv_interval_set
 .text.core_tx_adv_interval_get
                0x0003181c       0x2c examples/light_switch/proxy_server/CMakeFiles/light_switch_proxy_server_nrf52832_xxAA_s132_6.0.0.dir/__/__/__/mesh/core/src/core_tx_adv.c.obj
                0x0003181c                core_tx_adv_interval_get
 .text.ad_listener_subscribe
                0x00031848       0x60 examples/light_switch/proxy_server/CMakeFiles/light_switch_proxy_server_nrf52832_xxAA_s132_6.0.0.dir/__/__/__/mesh/bearer/src/ad_listener.c.obj
                0x00031848                ad_listener_subscribe
 .text.ad_listener_process
                0x000318a8       0x7c examples/light_switch/proxy_server/CMakeFiles/light_switch_proxy_server_nrf52832_xxAA_s132_6.0.0.dir/__/__/__/mesh/bearer/src/ad_listener.c.obj
                0x000318a8                ad_listener_process
 .text.adtype_filter_handle
                0x00031924       0x98 examples/light_switch/proxy_server/CMakeFiles/light_switch_proxy_server_nrf52832_xxAA_s132_6.0.0.dir/__/__/__/mesh/bearer/src/ad_type_filter.c.obj
 .text.bearer_adtype_filtering_set
                0x000319bc       0x1c examples/light_switch/proxy_server/CMakeFiles/light_switch_proxy_server_nrf52832_xxAA_s132_6.0.0.dir/__/__/__/mesh/bearer/src/ad_type_filter.c.obj
                0x000319bc                bearer_adtype_filtering_set
 .text.bearer_adtype_add
                0x000319d8       0x24 examples/light_switch/proxy_server/CMakeFiles/light_switch_proxy_server_nrf52832_xxAA_s132_6.0.0.dir/__/__/__/mesh/bearer/src/ad_type_filter.c.obj
                0x000319d8                bearer_adtype_add
 .text.bearer_adtype_mode_set
                0x000319fc       0x18 examples/light_switch/proxy_server/CMakeFiles/light_switch_proxy_server_nrf52832_xxAA_s132_6.0.0.dir/__/__/__/mesh/bearer/src/ad_type_filter.c.obj
                0x000319fc                bearer_adtype_mode_set
 .text.tx_complete_event_callback
                0x00031a14       0x2c examples/light_switch/proxy_server/CMakeFiles/light_switch_proxy_server_nrf52832_xxAA_s132_6.0.0.dir/__/__/__/mesh/bearer/src/advertiser.c.obj
 .text.broadcast_complete_cb
                0x00031a40       0x48 examples/light_switch/proxy_server/CMakeFiles/light_switch_proxy_server_nrf52832_xxAA_s132_6.0.0.dir/__/__/__/mesh/bearer/src/advertiser.c.obj
 .text.timeout_event
                0x00031a88      0x120 examples/light_switch/proxy_server/CMakeFiles/light_switch_proxy_server_nrf52832_xxAA_s132_6.0.0.dir/__/__/__/mesh/bearer/src/advertiser.c.obj
 .text.advertiser_init
                0x00031ba8        0xc examples/light_switch/proxy_server/CMakeFiles/light_switch_proxy_server_nrf52832_xxAA_s132_6.0.0.dir/__/__/__/mesh/bearer/src/advertiser.c.obj
                0x00031ba8                advertiser_init
 .text.advertiser_instance_init
                0x00031bb4       0xfc examples/light_switch/proxy_server/CMakeFiles/light_switch_proxy_server_nrf52832_xxAA_s132_6.0.0.dir/__/__/__/mesh/bearer/src/advertiser.c.obj
                0x00031bb4                advertiser_instance_init
 .text.advertiser_enable
                0x00031cb0       0x44 examples/light_switch/proxy_server/CMakeFiles/light_switch_proxy_server_nrf52832_xxAA_s132_6.0.0.dir/__/__/__/mesh/bearer/src/advertiser.c.obj
                0x00031cb0                advertiser_enable
 .text.advertiser_packet_alloc
                0x00031cf4       0x80 examples/light_switch/proxy_server/CMakeFiles/light_switch_proxy_server_nrf52832_xxAA_s132_6.0.0.dir/__/__/__/mesh/bearer/src/advertiser.c.obj
                0x00031cf4                advertiser_packet_alloc
 .text.advertiser_packet_send
                0x00031d74       0x80 examples/light_switch/proxy_server/CMakeFiles/light_switch_proxy_server_nrf52832_xxAA_s132_6.0.0.dir/__/__/__/mesh/bearer/src/advertiser.c.obj
                0x00031d74                advertiser_packet_send
 .text.advertiser_packet_discard
                0x00031df4       0x2c examples/light_switch/proxy_server/CMakeFiles/light_switch_proxy_server_nrf52832_xxAA_s132_6.0.0.dir/__/__/__/mesh/bearer/src/advertiser.c.obj
                0x00031df4                advertiser_packet_discard
 .text.advertiser_interval_set
                0x00031e20       0x70 examples/light_switch/proxy_server/CMakeFiles/light_switch_proxy_server_nrf52832_xxAA_s132_6.0.0.dir/__/__/__/mesh/bearer/src/advertiser.c.obj
                0x00031e20                advertiser_interval_set
 .text.advertiser_flush
                0x00031e90       0x20 examples/light_switch/proxy_server/CMakeFiles/light_switch_proxy_server_nrf52832_xxAA_s132_6.0.0.dir/__/__/__/mesh/bearer/src/advertiser.c.obj
                0x00031e90                advertiser_flush
 .text.action_switch.part.2
                0x00031eb0       0xb4 examples/light_switch/proxy_server/CMakeFiles/light_switch_proxy_server_nrf52832_xxAA_s132_6.0.0.dir/__/__/__/mesh/bearer/src/bearer_handler.c.obj
 .text.bearer_handler_init
                0x00031f64       0x2c examples/light_switch/proxy_server/CMakeFiles/light_switch_proxy_server_nrf52832_xxAA_s132_6.0.0.dir/__/__/__/mesh/bearer/src/bearer_handler.c.obj
                0x00031f64                bearer_handler_init
 .text.bearer_handler_start
                0x00031f90       0x1c examples/light_switch/proxy_server/CMakeFiles/light_switch_proxy_server_nrf52832_xxAA_s132_6.0.0.dir/__/__/__/mesh/bearer/src/bearer_handler.c.obj
                0x00031f90                bearer_handler_start
 .text.bearer_handler_stop
                0x00031fac       0x20 examples/light_switch/proxy_server/CMakeFiles/light_switch_proxy_server_nrf52832_xxAA_s132_6.0.0.dir/__/__/__/mesh/bearer/src/bearer_handler.c.obj
                0x00031fac                bearer_handler_stop
 .text.bearer_handler_action_enqueue
                0x00031fcc       0x7c examples/light_switch/proxy_server/CMakeFiles/light_switch_proxy_server_nrf52832_xxAA_s132_6.0.0.dir/__/__/__/mesh/bearer/src/bearer_handler.c.obj
                0x00031fcc                bearer_handler_action_enqueue
 .text.bearer_handler_action_end
                0x00032048       0x68 examples/light_switch/proxy_server/CMakeFiles/light_switch_proxy_server_nrf52832_xxAA_s132_6.0.0.dir/__/__/__/mesh/bearer/src/bearer_handler.c.obj
                0x00032048                bearer_handler_action_end
 .text.bearer_handler_radio_irq_handler
                0x000320b0       0x54 examples/light_switch/proxy_server/CMakeFiles/light_switch_proxy_server_nrf52832_xxAA_s132_6.0.0.dir/__/__/__/mesh/bearer/src/bearer_handler.c.obj
                0x000320b0                bearer_handler_radio_irq_handler
 .text.bearer_handler_timer_irq_handler
                0x00032104       0x34 examples/light_switch/proxy_server/CMakeFiles/light_switch_proxy_server_nrf52832_xxAA_s132_6.0.0.dir/__/__/__/mesh/bearer/src/bearer_handler.c.obj
                0x00032104                bearer_handler_timer_irq_handler
 .text.bearer_handler_on_ts_begin
                0x00032138       0x3c examples/light_switch/proxy_server/CMakeFiles/light_switch_proxy_server_nrf52832_xxAA_s132_6.0.0.dir/__/__/__/mesh/bearer/src/bearer_handler.c.obj
                0x00032138                bearer_handler_on_ts_begin
 .text.bearer_handler_on_ts_end
                0x00032174       0x34 examples/light_switch/proxy_server/CMakeFiles/light_switch_proxy_server_nrf52832_xxAA_s132_6.0.0.dir/__/__/__/mesh/bearer/src/bearer_handler.c.obj
                0x00032174                bearer_handler_on_ts_end
 .text.radio_irq_handler
                0x000321a8       0x98 examples/light_switch/proxy_server/CMakeFiles/light_switch_proxy_server_nrf52832_xxAA_s132_6.0.0.dir/__/__/__/mesh/bearer/src/broadcast.c.obj
 .text.broadcast_start
                0x00032240       0x8c examples/light_switch/proxy_server/CMakeFiles/light_switch_proxy_server_nrf52832_xxAA_s132_6.0.0.dir/__/__/__/mesh/bearer/src/broadcast.c.obj
 .text.broadcast_send
                0x000322cc       0x74 examples/light_switch/proxy_server/CMakeFiles/light_switch_proxy_server_nrf52832_xxAA_s132_6.0.0.dir/__/__/__/mesh/bearer/src/broadcast.c.obj
                0x000322cc                broadcast_send
 .text.fen_filter_start
                0x00032340       0x38 examples/light_switch/proxy_server/CMakeFiles/light_switch_proxy_server_nrf52832_xxAA_s132_6.0.0.dir/__/__/__/mesh/bearer/src/filter_engine.c.obj
                0x00032340                fen_filter_start
 .text.fen_filter_stop
                0x00032378       0x2c examples/light_switch/proxy_server/CMakeFiles/light_switch_proxy_server_nrf52832_xxAA_s132_6.0.0.dir/__/__/__/mesh/bearer/src/filter_engine.c.obj
                0x00032378                fen_filter_stop
 .text.fen_filters_apply
                0x000323a4       0x38 examples/light_switch/proxy_server/CMakeFiles/light_switch_proxy_server_nrf52832_xxAA_s132_6.0.0.dir/__/__/__/mesh/bearer/src/filter_engine.c.obj
                0x000323a4                fen_filters_apply
 .text.radio_config_reset
                0x000323dc       0x38 examples/light_switch/proxy_server/CMakeFiles/light_switch_proxy_server_nrf52832_xxAA_s132_6.0.0.dir/__/__/__/mesh/bearer/src/radio_config.c.obj
                0x000323dc                radio_config_reset
 .text.radio_config_channel_set
                0x00032414       0x28 examples/light_switch/proxy_server/CMakeFiles/light_switch_proxy_server_nrf52832_xxAA_s132_6.0.0.dir/__/__/__/mesh/bearer/src/radio_config.c.obj
                0x00032414                radio_config_channel_set
 .text.radio_config_config
                0x0003243c       0x90 examples/light_switch/proxy_server/CMakeFiles/light_switch_proxy_server_nrf52832_xxAA_s132_6.0.0.dir/__/__/__/mesh/bearer/src/radio_config.c.obj
                0x0003243c                radio_config_config
 .text.radio_config_access_addr_set
                0x000324cc       0x54 examples/light_switch/proxy_server/CMakeFiles/light_switch_proxy_server_nrf52832_xxAA_s132_6.0.0.dir/__/__/__/mesh/bearer/src/radio_config.c.obj
                0x000324cc                radio_config_access_addr_set
 .text.scan_window_end
                0x00032520       0x28 examples/light_switch/proxy_server/CMakeFiles/light_switch_proxy_server_nrf52832_xxAA_s132_6.0.0.dir/__/__/__/mesh/bearer/src/scanner.c.obj
 .text.scan_window_start
                0x00032548       0x38 examples/light_switch/proxy_server/CMakeFiles/light_switch_proxy_server_nrf52832_xxAA_s132_6.0.0.dir/__/__/__/mesh/bearer/src/scanner.c.obj
 .text.radio_start
                0x00032580      0x188 examples/light_switch/proxy_server/CMakeFiles/light_switch_proxy_server_nrf52832_xxAA_s132_6.0.0.dir/__/__/__/mesh/bearer/src/scanner.c.obj
 .text.scanner_radio_start
                0x00032708      0x14c examples/light_switch/proxy_server/CMakeFiles/light_switch_proxy_server_nrf52832_xxAA_s132_6.0.0.dir/__/__/__/mesh/bearer/src/scanner.c.obj
                0x00032708                scanner_radio_start
 .text.scanner_radio_stop
                0x00032854       0x34 examples/light_switch/proxy_server/CMakeFiles/light_switch_proxy_server_nrf52832_xxAA_s132_6.0.0.dir/__/__/__/mesh/bearer/src/scanner.c.obj
                0x00032854                scanner_radio_stop
 .text.scanner_radio_irq_handler
                0x00032888      0x204 examples/light_switch/proxy_server/CMakeFiles/light_switch_proxy_server_nrf52832_xxAA_s132_6.0.0.dir/__/__/__/mesh/bearer/src/scanner.c.obj
                0x00032888                scanner_radio_irq_handler
 .text.scanner_enable
                0x00032a8c       0x54 examples/light_switch/proxy_server/CMakeFiles/light_switch_proxy_server_nrf52832_xxAA_s132_6.0.0.dir/__/__/__/mesh/bearer/src/scanner.c.obj
                0x00032a8c                scanner_enable
 .text.scanner_disable
                0x00032ae0       0x54 examples/light_switch/proxy_server/CMakeFiles/light_switch_proxy_server_nrf52832_xxAA_s132_6.0.0.dir/__/__/__/mesh/bearer/src/scanner.c.obj
                0x00032ae0                scanner_disable
 .text.scanner_rx
                0x00032b34       0x78 examples/light_switch/proxy_server/CMakeFiles/light_switch_proxy_server_nrf52832_xxAA_s132_6.0.0.dir/__/__/__/mesh/bearer/src/scanner.c.obj
                0x00032b34                scanner_rx
 .text.scanner_packet_release
                0x00032bac       0x40 examples/light_switch/proxy_server/CMakeFiles/light_switch_proxy_server_nrf52832_xxAA_s132_6.0.0.dir/__/__/__/mesh/bearer/src/scanner.c.obj
                0x00032bac                scanner_packet_release
 .text.scanner_rx_pending
                0x00032bec        0xc examples/light_switch/proxy_server/CMakeFiles/light_switch_proxy_server_nrf52832_xxAA_s132_6.0.0.dir/__/__/__/mesh/bearer/src/scanner.c.obj
                0x00032bec                scanner_rx_pending
 .text.scanner_config_reset
                0x00032bf8       0xa8 examples/light_switch/proxy_server/CMakeFiles/light_switch_proxy_server_nrf52832_xxAA_s132_6.0.0.dir/__/__/__/mesh/bearer/src/scanner.c.obj
                0x00032bf8                scanner_config_reset
 .text.scanner_init
                0x00032ca0       0x54 examples/light_switch/proxy_server/CMakeFiles/light_switch_proxy_server_nrf52832_xxAA_s132_6.0.0.dir/__/__/__/mesh/bearer/src/scanner.c.obj
                0x00032ca0                scanner_init
 .text.sd_ble_gap_disconnect
                0x00032cf4        0x4 examples/light_switch/proxy_server/CMakeFiles/light_switch_proxy_server_nrf52832_xxAA_s132_6.0.0.dir/__/__/__/mesh/gatt/src/mesh_gatt.c.obj
 .text.sd_ble_gap_sec_params_reply
                0x00032cf8        0x4 examples/light_switch/proxy_server/CMakeFiles/light_switch_proxy_server_nrf52832_xxAA_s132_6.0.0.dir/__/__/__/mesh/gatt/src/mesh_gatt.c.obj
 .text.sd_ble_gap_phy_update
                0x00032cfc        0x4 examples/light_switch/proxy_server/CMakeFiles/light_switch_proxy_server_nrf52832_xxAA_s132_6.0.0.dir/__/__/__/mesh/gatt/src/mesh_gatt.c.obj
 .text.sd_ble_gap_data_length_update
                0x00032d00        0x4 examples/light_switch/proxy_server/CMakeFiles/light_switch_proxy_server_nrf52832_xxAA_s132_6.0.0.dir/__/__/__/mesh/gatt/src/mesh_gatt.c.obj
 .text.sd_ble_gatts_service_add
                0x00032d04        0x4 examples/light_switch/proxy_server/CMakeFiles/light_switch_proxy_server_nrf52832_xxAA_s132_6.0.0.dir/__/__/__/mesh/gatt/src/mesh_gatt.c.obj
 .text.sd_ble_gatts_characteristic_add
                0x00032d08        0x4 examples/light_switch/proxy_server/CMakeFiles/light_switch_proxy_server_nrf52832_xxAA_s132_6.0.0.dir/__/__/__/mesh/gatt/src/mesh_gatt.c.obj
 .text.sd_ble_gatts_hvx
                0x00032d0c        0x4 examples/light_switch/proxy_server/CMakeFiles/light_switch_proxy_server_nrf52832_xxAA_s132_6.0.0.dir/__/__/__/mesh/gatt/src/mesh_gatt.c.obj
 .text.sd_ble_gatts_service_changed
                0x00032d10        0x4 examples/light_switch/proxy_server/CMakeFiles/light_switch_proxy_server_nrf52832_xxAA_s132_6.0.0.dir/__/__/__/mesh/gatt/src/mesh_gatt.c.obj
 .text.sd_ble_gatts_sys_attr_set
                0x00032d14        0x4 examples/light_switch/proxy_server/CMakeFiles/light_switch_proxy_server_nrf52832_xxAA_s132_6.0.0.dir/__/__/__/mesh/gatt/src/mesh_gatt.c.obj
 .text.sd_ble_gatts_exchange_mtu_reply
                0x00032d18        0x4 examples/light_switch/proxy_server/CMakeFiles/light_switch_proxy_server_nrf52832_xxAA_s132_6.0.0.dir/__/__/__/mesh/gatt/src/mesh_gatt.c.obj
 .text.timeout_cb
                0x00032d1c       0x1c examples/light_switch/proxy_server/CMakeFiles/light_switch_proxy_server_nrf52832_xxAA_s132_6.0.0.dir/__/__/__/mesh/gatt/src/mesh_gatt.c.obj
 .text.mesh_gatt_pdu_send
                0x00032d38      0x164 examples/light_switch/proxy_server/CMakeFiles/light_switch_proxy_server_nrf52832_xxAA_s132_6.0.0.dir/__/__/__/mesh/gatt/src/mesh_gatt.c.obj
 .text.mesh_gatt_init
                0x00032e9c      0x170 examples/light_switch/proxy_server/CMakeFiles/light_switch_proxy_server_nrf52832_xxAA_s132_6.0.0.dir/__/__/__/mesh/gatt/src/mesh_gatt.c.obj
                0x00032e9c                mesh_gatt_init
 .text.mesh_gatt_packet_alloc
                0x0003300c       0x8c examples/light_switch/proxy_server/CMakeFiles/light_switch_proxy_server_nrf52832_xxAA_s132_6.0.0.dir/__/__/__/mesh/gatt/src/mesh_gatt.c.obj
                0x0003300c                mesh_gatt_packet_alloc
 .text.mesh_gatt_packet_send
                0x00033098       0x8c examples/light_switch/proxy_server/CMakeFiles/light_switch_proxy_server_nrf52832_xxAA_s132_6.0.0.dir/__/__/__/mesh/gatt/src/mesh_gatt.c.obj
                0x00033098                mesh_gatt_packet_send
 .text.mesh_gatt_packet_discard
                0x00033124       0x50 examples/light_switch/proxy_server/CMakeFiles/light_switch_proxy_server_nrf52832_xxAA_s132_6.0.0.dir/__/__/__/mesh/gatt/src/mesh_gatt.c.obj
                0x00033124                mesh_gatt_packet_discard
 .text.mesh_gatt_disconnect
                0x00033174       0x34 examples/light_switch/proxy_server/CMakeFiles/light_switch_proxy_server_nrf52832_xxAA_s132_6.0.0.dir/__/__/__/mesh/gatt/src/mesh_gatt.c.obj
                0x00033174                mesh_gatt_disconnect
 .text.mesh_gatt_on_ble_evt
                0x000331a8      0x408 examples/light_switch/proxy_server/CMakeFiles/light_switch_proxy_server_nrf52832_xxAA_s132_6.0.0.dir/__/__/__/mesh/gatt/src/mesh_gatt.c.obj
                0x000331a8                mesh_gatt_on_ble_evt
 .text.adv_start
                0x000335b0      0x12c examples/light_switch/proxy_server/CMakeFiles/light_switch_proxy_server_nrf52832_xxAA_s132_6.0.0.dir/__/__/__/mesh/gatt/src/proxy.c.obj
 .text.mesh_evt_handle
                0x000336dc       0xac examples/light_switch/proxy_server/CMakeFiles/light_switch_proxy_server_nrf52832_xxAA_s132_6.0.0.dir/__/__/__/mesh/gatt/src/proxy.c.obj
 .text.core_tx_packet_discard_cb
                0x00033788       0x50 examples/light_switch/proxy_server/CMakeFiles/light_switch_proxy_server_nrf52832_xxAA_s132_6.0.0.dir/__/__/__/mesh/gatt/src/proxy.c.obj
 .text.core_tx_packet_alloc_cb
                0x000337d8       0x6c examples/light_switch/proxy_server/CMakeFiles/light_switch_proxy_server_nrf52832_xxAA_s132_6.0.0.dir/__/__/__/mesh/gatt/src/proxy.c.obj
 .text.core_tx_packet_send_cb
                0x00033844       0x8c examples/light_switch/proxy_server/CMakeFiles/light_switch_proxy_server_nrf52832_xxAA_s132_6.0.0.dir/__/__/__/mesh/gatt/src/proxy.c.obj
 .text.adv_timer_handler
                0x000338d0       0xec examples/light_switch/proxy_server/CMakeFiles/light_switch_proxy_server_nrf52832_xxAA_s132_6.0.0.dir/__/__/__/mesh/gatt/src/proxy.c.obj
 .text.gatt_evt_handler
                0x000339bc      0x7b8 examples/light_switch/proxy_server/CMakeFiles/light_switch_proxy_server_nrf52832_xxAA_s132_6.0.0.dir/__/__/__/mesh/gatt/src/proxy.c.obj
 .text.proxy_init
                0x00034174       0x90 examples/light_switch/proxy_server/CMakeFiles/light_switch_proxy_server_nrf52832_xxAA_s132_6.0.0.dir/__/__/__/mesh/gatt/src/proxy.c.obj
                0x00034174                proxy_init
 .text.proxy_subnet_added
                0x00034204       0xc8 examples/light_switch/proxy_server/CMakeFiles/light_switch_proxy_server_nrf52832_xxAA_s132_6.0.0.dir/__/__/__/mesh/gatt/src/proxy.c.obj
                0x00034204                proxy_subnet_added
 .text.proxy_net_packet_processed
                0x000342cc       0x48 examples/light_switch/proxy_server/CMakeFiles/light_switch_proxy_server_nrf52832_xxAA_s132_6.0.0.dir/__/__/__/mesh/gatt/src/proxy.c.obj
                0x000342cc                proxy_net_packet_processed
 .text.proxy_enable
                0x00034314      0x11c examples/light_switch/proxy_server/CMakeFiles/light_switch_proxy_server_nrf52832_xxAA_s132_6.0.0.dir/__/__/__/mesh/gatt/src/proxy.c.obj
                0x00034314                proxy_enable
 .text.proxy_node_id_enable
                0x00034430       0x38 examples/light_switch/proxy_server/CMakeFiles/light_switch_proxy_server_nrf52832_xxAA_s132_6.0.0.dir/__/__/__/mesh/gatt/src/proxy.c.obj
                0x00034430                proxy_node_id_enable
 .text.proxy_node_id_is_enabled
                0x00034468       0x30 examples/light_switch/proxy_server/CMakeFiles/light_switch_proxy_server_nrf52832_xxAA_s132_6.0.0.dir/__/__/__/mesh/gatt/src/proxy.c.obj
                0x00034468                proxy_node_id_is_enabled
 .text.proxy_node_id_disable
                0x00034498      0x120 examples/light_switch/proxy_server/CMakeFiles/light_switch_proxy_server_nrf52832_xxAA_s132_6.0.0.dir/__/__/__/mesh/gatt/src/proxy.c.obj
                0x00034498                proxy_node_id_disable
 .text.proxy_disable
                0x000345b8       0x4c examples/light_switch/proxy_server/CMakeFiles/light_switch_proxy_server_nrf52832_xxAA_s132_6.0.0.dir/__/__/__/mesh/gatt/src/proxy.c.obj
                0x000345b8                proxy_disable
 .text.proxy_is_enabled
                0x00034604        0xc examples/light_switch/proxy_server/CMakeFiles/light_switch_proxy_server_nrf52832_xxAA_s132_6.0.0.dir/__/__/__/mesh/gatt/src/proxy.c.obj
                0x00034604                proxy_is_enabled
 .text.proxy_filter_clear
                0x00034610       0x24 examples/light_switch/proxy_server/CMakeFiles/light_switch_proxy_server_nrf52832_xxAA_s132_6.0.0.dir/__/__/__/mesh/gatt/src/proxy_filter.c.obj
                0x00034610                proxy_filter_clear
 .text.proxy_filter_type_set
                0x00034634       0x38 examples/light_switch/proxy_server/CMakeFiles/light_switch_proxy_server_nrf52832_xxAA_s132_6.0.0.dir/__/__/__/mesh/gatt/src/proxy_filter.c.obj
                0x00034634                proxy_filter_type_set
 .text.proxy_filter_add
                0x0003466c       0x94 examples/light_switch/proxy_server/CMakeFiles/light_switch_proxy_server_nrf52832_xxAA_s132_6.0.0.dir/__/__/__/mesh/gatt/src/proxy_filter.c.obj
                0x0003466c                proxy_filter_add
 .text.proxy_filter_remove
                0x00034700       0x80 examples/light_switch/proxy_server/CMakeFiles/light_switch_proxy_server_nrf52832_xxAA_s132_6.0.0.dir/__/__/__/mesh/gatt/src/proxy_filter.c.obj
                0x00034700                proxy_filter_remove
 .text.proxy_filter_accept
                0x00034780       0x50 examples/light_switch/proxy_server/CMakeFiles/light_switch_proxy_server_nrf52832_xxAA_s132_6.0.0.dir/__/__/__/mesh/gatt/src/proxy_filter.c.obj
                0x00034780                proxy_filter_accept
 .text.handle_get_cb
                0x000347d0       0x4c examples/light_switch/proxy_server/CMakeFiles/light_switch_proxy_server_nrf52832_xxAA_s132_6.0.0.dir/__/__/__/models/simple_on_off/src/simple_on_off_server.c.obj
 .text.handle_set_unreliable_cb
                0x0003481c       0x54 examples/light_switch/proxy_server/CMakeFiles/light_switch_proxy_server_nrf52832_xxAA_s132_6.0.0.dir/__/__/__/models/simple_on_off/src/simple_on_off_server.c.obj
 .text.handle_set_cb
                0x00034870       0x84 examples/light_switch/proxy_server/CMakeFiles/light_switch_proxy_server_nrf52832_xxAA_s132_6.0.0.dir/__/__/__/models/simple_on_off/src/simple_on_off_server.c.obj
 .text.simple_on_off_server_init
                0x000348f4       0x44 examples/light_switch/proxy_server/CMakeFiles/light_switch_proxy_server_nrf52832_xxAA_s132_6.0.0.dir/__/__/__/models/simple_on_off/src/simple_on_off_server.c.obj
                0x000348f4                simple_on_off_server_init
 .text.simple_on_off_server_status_publish
                0x00034938       0x34 examples/light_switch/proxy_server/CMakeFiles/light_switch_proxy_server_nrf52832_xxAA_s132_6.0.0.dir/__/__/__/models/simple_on_off/src/simple_on_off_server.c.obj
                0x00034938                simple_on_off_server_status_publish
 .text.config_composition_data_get
                0x0003496c      0x1d4 examples/light_switch/proxy_server/CMakeFiles/light_switch_proxy_server_nrf52832_xxAA_s132_6.0.0.dir/__/__/__/models/config/src/composition_data.c.obj
                0x0003496c                config_composition_data_get
 .text.config_server_heartbeat_publication_count_decrement
                0x00034b40       0x1c examples/light_switch/proxy_server/CMakeFiles/light_switch_proxy_server_nrf52832_xxAA_s132_6.0.0.dir/__/__/__/models/config/src/config_server.c.obj
 .text.config_server_heartbeat_publication_params_get
                0x00034b5c       0x38 examples/light_switch/proxy_server/CMakeFiles/light_switch_proxy_server_nrf52832_xxAA_s132_6.0.0.dir/__/__/__/models/config/src/config_server.c.obj
 .text.handle_config_network_transmit_set
                0x00034b94      0x11c examples/light_switch/proxy_server/CMakeFiles/light_switch_proxy_server_nrf52832_xxAA_s132_6.0.0.dir/__/__/__/models/config/src/config_server.c.obj
 .text.handle_node_reset
                0x00034cb0       0x30 examples/light_switch/proxy_server/CMakeFiles/light_switch_proxy_server_nrf52832_xxAA_s132_6.0.0.dir/__/__/__/models/config/src/config_server.c.obj
 .text.handle_config_relay_set
                0x00034ce0      0x1b0 examples/light_switch/proxy_server/CMakeFiles/light_switch_proxy_server_nrf52832_xxAA_s132_6.0.0.dir/__/__/__/models/config/src/config_server.c.obj
 .text.handle_node_identity_set
                0x00034e90       0xd8 examples/light_switch/proxy_server/CMakeFiles/light_switch_proxy_server_nrf52832_xxAA_s132_6.0.0.dir/__/__/__/models/config/src/config_server.c.obj
 .text.handle_netkey_get
                0x00034f68       0x68 examples/light_switch/proxy_server/CMakeFiles/light_switch_proxy_server_nrf52832_xxAA_s132_6.0.0.dir/__/__/__/models/config/src/config_server.c.obj
 .text.handle_model_app_bind_unbind
                0x00034fd0      0x22c examples/light_switch/proxy_server/CMakeFiles/light_switch_proxy_server_nrf52832_xxAA_s132_6.0.0.dir/__/__/__/models/config/src/config_server.c.obj
 .text.status_error_sub_send
                0x000351fc      0x184 examples/light_switch/proxy_server/CMakeFiles/light_switch_proxy_server_nrf52832_xxAA_s132_6.0.0.dir/__/__/__/models/config/src/config_server.c.obj
 .text.handle_config_model_subscription_overwrite
                0x00035380      0x1e8 examples/light_switch/proxy_server/CMakeFiles/light_switch_proxy_server_nrf52832_xxAA_s132_6.0.0.dir/__/__/__/models/config/src/config_server.c.obj
 .text.send_publication_status
                0x00035568      0x1a4 examples/light_switch/proxy_server/CMakeFiles/light_switch_proxy_server_nrf52832_xxAA_s132_6.0.0.dir/__/__/__/models/config/src/config_server.c.obj
 .text.handle_config_key_refresh_phase_set
                0x0003570c       0xf0 examples/light_switch/proxy_server/CMakeFiles/light_switch_proxy_server_nrf52832_xxAA_s132_6.0.0.dir/__/__/__/models/config/src/config_server.c.obj
 .text.handle_config_default_ttl_set
                0x000357fc       0x70 examples/light_switch/proxy_server/CMakeFiles/light_switch_proxy_server_nrf52832_xxAA_s132_6.0.0.dir/__/__/__/models/config/src/config_server.c.obj
 .text.handle_heartbeat_publication_set
                0x0003586c      0x170 examples/light_switch/proxy_server/CMakeFiles/light_switch_proxy_server_nrf52832_xxAA_s132_6.0.0.dir/__/__/__/models/config/src/config_server.c.obj
 .text.mesh_event_cb
                0x000359dc       0x70 examples/light_switch/proxy_server/CMakeFiles/light_switch_proxy_server_nrf52832_xxAA_s132_6.0.0.dir/__/__/__/models/config/src/config_server.c.obj
 .text.handle_config_friend_set
                0x00035a4c       0x40 examples/light_switch/proxy_server/CMakeFiles/light_switch_proxy_server_nrf52832_xxAA_s132_6.0.0.dir/__/__/__/models/config/src/config_server.c.obj
 .text.handle_config_key_refresh_phase_get
                0x00035a8c       0x70 examples/light_switch/proxy_server/CMakeFiles/light_switch_proxy_server_nrf52832_xxAA_s132_6.0.0.dir/__/__/__/models/config/src/config_server.c.obj
 .text.handle_node_identity_get
                0x00035afc       0x88 examples/light_switch/proxy_server/CMakeFiles/light_switch_proxy_server_nrf52832_xxAA_s132_6.0.0.dir/__/__/__/models/config/src/config_server.c.obj
 .text.status_error_pub_send
                0x00035b84       0xc8 examples/light_switch/proxy_server/CMakeFiles/light_switch_proxy_server_nrf52832_xxAA_s132_6.0.0.dir/__/__/__/models/config/src/config_server.c.obj
 .text.handle_config_model_publication_get
                0x00035c4c       0xa0 examples/light_switch/proxy_server/CMakeFiles/light_switch_proxy_server_nrf52832_xxAA_s132_6.0.0.dir/__/__/__/models/config/src/config_server.c.obj
 .text.handle_config_model_publication_set
                0x00035cec      0x324 examples/light_switch/proxy_server/CMakeFiles/light_switch_proxy_server_nrf52832_xxAA_s132_6.0.0.dir/__/__/__/models/config/src/config_server.c.obj
 .text.handle_config_gatt_proxy_set
                0x00036010       0x5c examples/light_switch/proxy_server/CMakeFiles/light_switch_proxy_server_nrf52832_xxAA_s132_6.0.0.dir/__/__/__/models/config/src/config_server.c.obj
 .text.handle_config_default_ttl_get
                0x0003606c       0x48 examples/light_switch/proxy_server/CMakeFiles/light_switch_proxy_server_nrf52832_xxAA_s132_6.0.0.dir/__/__/__/models/config/src/config_server.c.obj
 .text.handle_config_beacon_set
                0x000360b4       0x80 examples/light_switch/proxy_server/CMakeFiles/light_switch_proxy_server_nrf52832_xxAA_s132_6.0.0.dir/__/__/__/models/config/src/config_server.c.obj
 .text.handle_composition_data_get
                0x00036134       0x64 examples/light_switch/proxy_server/CMakeFiles/light_switch_proxy_server_nrf52832_xxAA_s132_6.0.0.dir/__/__/__/models/config/src/config_server.c.obj
 .text.handle_appkey_add
                0x00036198      0x12c examples/light_switch/proxy_server/CMakeFiles/light_switch_proxy_server_nrf52832_xxAA_s132_6.0.0.dir/__/__/__/models/config/src/config_server.c.obj
 .text.handle_model_app_get
                0x000362c4      0x230 examples/light_switch/proxy_server/CMakeFiles/light_switch_proxy_server_nrf52832_xxAA_s132_6.0.0.dir/__/__/__/models/config/src/config_server.c.obj
 .text.handle_config_vendor_model_subscription_get
                0x000364f4      0x18c examples/light_switch/proxy_server/CMakeFiles/light_switch_proxy_server_nrf52832_xxAA_s132_6.0.0.dir/__/__/__/models/config/src/config_server.c.obj
 .text.handle_appkey_get
                0x00036680      0x104 examples/light_switch/proxy_server/CMakeFiles/light_switch_proxy_server_nrf52832_xxAA_s132_6.0.0.dir/__/__/__/models/config/src/config_server.c.obj
 .text.handle_heartbeat_subscription_get
                0x00036784       0xd8 examples/light_switch/proxy_server/CMakeFiles/light_switch_proxy_server_nrf52832_xxAA_s132_6.0.0.dir/__/__/__/models/config/src/config_server.c.obj
 .text.handle_heartbeat_subscription_set
                0x0003685c      0x110 examples/light_switch/proxy_server/CMakeFiles/light_switch_proxy_server_nrf52832_xxAA_s132_6.0.0.dir/__/__/__/models/config/src/config_server.c.obj
 .text.handle_config_friend_get
                0x0003696c       0x38 examples/light_switch/proxy_server/CMakeFiles/light_switch_proxy_server_nrf52832_xxAA_s132_6.0.0.dir/__/__/__/models/config/src/config_server.c.obj
 .text.handle_heartbeat_publication_get
                0x000369a4       0xcc examples/light_switch/proxy_server/CMakeFiles/light_switch_proxy_server_nrf52832_xxAA_s132_6.0.0.dir/__/__/__/models/config/src/config_server.c.obj
 .text.handle_config_beacon_get
                0x00036a70       0x40 examples/light_switch/proxy_server/CMakeFiles/light_switch_proxy_server_nrf52832_xxAA_s132_6.0.0.dir/__/__/__/models/config/src/config_server.c.obj
 .text.handle_config_gatt_proxy_get
                0x00036ab0       0x44 examples/light_switch/proxy_server/CMakeFiles/light_switch_proxy_server_nrf52832_xxAA_s132_6.0.0.dir/__/__/__/models/config/src/config_server.c.obj
 .text.handle_config_sig_model_subscription_get
                0x00036af4      0x150 examples/light_switch/proxy_server/CMakeFiles/light_switch_proxy_server_nrf52832_xxAA_s132_6.0.0.dir/__/__/__/models/config/src/config_server.c.obj
 .text.handle_appkey_update
                0x00036c44      0x11c examples/light_switch/proxy_server/CMakeFiles/light_switch_proxy_server_nrf52832_xxAA_s132_6.0.0.dir/__/__/__/models/config/src/config_server.c.obj
 .text.handle_appkey_delete
                0x00036d60      0x124 examples/light_switch/proxy_server/CMakeFiles/light_switch_proxy_server_nrf52832_xxAA_s132_6.0.0.dir/__/__/__/models/config/src/config_server.c.obj
 .text.handle_netkey_add_update
                0x00036e84       0xe8 examples/light_switch/proxy_server/CMakeFiles/light_switch_proxy_server_nrf52832_xxAA_s132_6.0.0.dir/__/__/__/models/config/src/config_server.c.obj
 .text.handle_netkey_delete
                0x00036f6c      0x148 examples/light_switch/proxy_server/CMakeFiles/light_switch_proxy_server_nrf52832_xxAA_s132_6.0.0.dir/__/__/__/models/config/src/config_server.c.obj
 .text.handle_config_network_transmit_get
                0x000370b4       0x9c examples/light_switch/proxy_server/CMakeFiles/light_switch_proxy_server_nrf52832_xxAA_s132_6.0.0.dir/__/__/__/models/config/src/config_server.c.obj
 .text.handle_config_relay_get
                0x00037150       0xd8 examples/light_switch/proxy_server/CMakeFiles/light_switch_proxy_server_nrf52832_xxAA_s132_6.0.0.dir/__/__/__/models/config/src/config_server.c.obj
 .text.handle_config_model_subscription_virtual_address_delete
                0x00037228      0x17c examples/light_switch/proxy_server/CMakeFiles/light_switch_proxy_server_nrf52832_xxAA_s132_6.0.0.dir/__/__/__/models/config/src/config_server.c.obj
 .text.handle_config_model_subscription_delete_all
                0x000373a4      0x1a4 examples/light_switch/proxy_server/CMakeFiles/light_switch_proxy_server_nrf52832_xxAA_s132_6.0.0.dir/__/__/__/models/config/src/config_server.c.obj
 .text.handle_config_model_subscription_virtual_address_add
                0x00037548      0x178 examples/light_switch/proxy_server/CMakeFiles/light_switch_proxy_server_nrf52832_xxAA_s132_6.0.0.dir/__/__/__/models/config/src/config_server.c.obj
 .text.handle_config_model_subscription_delete
                0x000376c0      0x170 examples/light_switch/proxy_server/CMakeFiles/light_switch_proxy_server_nrf52832_xxAA_s132_6.0.0.dir/__/__/__/models/config/src/config_server.c.obj
 .text.handle_config_model_subscription_virtual_address_overwrite
                0x00037830      0x20c examples/light_switch/proxy_server/CMakeFiles/light_switch_proxy_server_nrf52832_xxAA_s132_6.0.0.dir/__/__/__/models/config/src/config_server.c.obj
 .text.handle_config_model_subscription_add
                0x00037a3c      0x168 examples/light_switch/proxy_server/CMakeFiles/light_switch_proxy_server_nrf52832_xxAA_s132_6.0.0.dir/__/__/__/models/config/src/config_server.c.obj
 .text.config_server_init
                0x00037ba4       0x64 examples/light_switch/proxy_server/CMakeFiles/light_switch_proxy_server_nrf52832_xxAA_s132_6.0.0.dir/__/__/__/models/config/src/config_server.c.obj
                0x00037ba4                config_server_init
 .text.config_server_bind
                0x00037c08       0x10 examples/light_switch/proxy_server/CMakeFiles/light_switch_proxy_server_nrf52832_xxAA_s132_6.0.0.dir/__/__/__/models/config/src/config_server.c.obj
                0x00037c08                config_server_bind
 .text.packed_index_list_create
                0x00037c18       0x38 examples/light_switch/proxy_server/CMakeFiles/light_switch_proxy_server_nrf52832_xxAA_s132_6.0.0.dir/__/__/__/models/config/src/packed_index_list.c.obj
                0x00037c18                packed_index_list_create
 .text.attention_timer_handler
                0x00037c50       0x6c examples/light_switch/proxy_server/CMakeFiles/light_switch_proxy_server_nrf52832_xxAA_s132_6.0.0.dir/__/__/__/models/health/src/health_server.c.obj
 .text.handle_attention_get
                0x00037cbc       0x3c examples/light_switch/proxy_server/CMakeFiles/light_switch_proxy_server_nrf52832_xxAA_s132_6.0.0.dir/__/__/__/models/health/src/health_server.c.obj
 .text.handle_period_get
                0x00037cf8       0x38 examples/light_switch/proxy_server/CMakeFiles/light_switch_proxy_server_nrf52832_xxAA_s132_6.0.0.dir/__/__/__/models/health/src/health_server.c.obj
 .text.handle_attention_set
                0x00037d30       0xd8 examples/light_switch/proxy_server/CMakeFiles/light_switch_proxy_server_nrf52832_xxAA_s132_6.0.0.dir/__/__/__/models/health/src/health_server.c.obj
 .text.handle_period_set
                0x00037e08       0x50 examples/light_switch/proxy_server/CMakeFiles/light_switch_proxy_server_nrf52832_xxAA_s132_6.0.0.dir/__/__/__/models/health/src/health_server.c.obj
 .text.send_fault_status
                0x00037e58      0x37c examples/light_switch/proxy_server/CMakeFiles/light_switch_proxy_server_nrf52832_xxAA_s132_6.0.0.dir/__/__/__/models/health/src/health_server.c.obj
 .text.health_publish_timeout_handler
                0x000381d4        0xc examples/light_switch/proxy_server/CMakeFiles/light_switch_proxy_server_nrf52832_xxAA_s132_6.0.0.dir/__/__/__/models/health/src/health_server.c.obj
 .text.handle_fault_test
                0x000381e0       0x7c examples/light_switch/proxy_server/CMakeFiles/light_switch_proxy_server_nrf52832_xxAA_s132_6.0.0.dir/__/__/__/models/health/src/health_server.c.obj
 .text.handle_fault_clear
                0x0003825c       0x48 examples/light_switch/proxy_server/CMakeFiles/light_switch_proxy_server_nrf52832_xxAA_s132_6.0.0.dir/__/__/__/models/health/src/health_server.c.obj
 .text.handle_fault_get
                0x000382a4       0x34 examples/light_switch/proxy_server/CMakeFiles/light_switch_proxy_server_nrf52832_xxAA_s132_6.0.0.dir/__/__/__/models/health/src/health_server.c.obj
 .text.health_server_init
                0x000382d8       0x74 examples/light_switch/proxy_server/CMakeFiles/light_switch_proxy_server_nrf52832_xxAA_s132_6.0.0.dir/__/__/__/models/health/src/health_server.c.obj
                0x000382d8                health_server_init
 .text.schedule_publication_timer
                0x0003834c      0x2c4 examples/light_switch/proxy_server/CMakeFiles/light_switch_proxy_server_nrf52832_xxAA_s132_6.0.0.dir/__/__/__/mesh/access/src/access_publish.c.obj
 .text.publish_timer_tick
                0x00038610      0x134 examples/light_switch/proxy_server/CMakeFiles/light_switch_proxy_server_nrf52832_xxAA_s132_6.0.0.dir/__/__/__/mesh/access/src/access_publish.c.obj
 .text.access_publish_init
                0x00038744       0x38 examples/light_switch/proxy_server/CMakeFiles/light_switch_proxy_server_nrf52832_xxAA_s132_6.0.0.dir/__/__/__/mesh/access/src/access_publish.c.obj
                0x00038744                access_publish_init
 .text.access_publish_period_set
                0x0003877c      0x12c examples/light_switch/proxy_server/CMakeFiles/light_switch_proxy_server_nrf52832_xxAA_s132_6.0.0.dir/__/__/__/mesh/access/src/access_publish.c.obj
                0x0003877c                access_publish_period_set
 .text.access_publish_period_get
                0x000388a8       0x2c examples/light_switch/proxy_server/CMakeFiles/light_switch_proxy_server_nrf52832_xxAA_s132_6.0.0.dir/__/__/__/mesh/access/src/access_publish.c.obj
                0x000388a8                access_publish_period_get
 .text.flash_manager_mem_available
                0x000388d4        0x4 examples/light_switch/proxy_server/CMakeFiles/light_switch_proxy_server_nrf52832_xxAA_s132_6.0.0.dir/__/__/__/mesh/access/src/access.c.obj
 .text.flash_invalidate_complete
                0x000388d8        0x8 examples/light_switch/proxy_server/CMakeFiles/light_switch_proxy_server_nrf52832_xxAA_s132_6.0.0.dir/__/__/__/mesh/access/src/access.c.obj
 .text.access_flash_config_clear
                0x000388e0       0x28 examples/light_switch/proxy_server/CMakeFiles/light_switch_proxy_server_nrf52832_xxAA_s132_6.0.0.dir/__/__/__/mesh/access/src/access.c.obj
 .text.access_flash_config_store
                0x00038908      0x11c examples/light_switch/proxy_server/CMakeFiles/light_switch_proxy_server_nrf52832_xxAA_s132_6.0.0.dir/__/__/__/mesh/access/src/access.c.obj
                0x00038908                access_flash_config_store
 .text.handle_incoming
                0x00038a24      0x194 examples/light_switch/proxy_server/CMakeFiles/light_switch_proxy_server_nrf52832_xxAA_s132_6.0.0.dir/__/__/__/mesh/access/src/access.c.obj
 .text.mesh_evt_cb
                0x00038bb8      0x164 examples/light_switch/proxy_server/CMakeFiles/light_switch_proxy_server_nrf52832_xxAA_s132_6.0.0.dir/__/__/__/mesh/access/src/access.c.obj
 .text.add_flash_manager
                0x00038d1c       0x58 examples/light_switch/proxy_server/CMakeFiles/light_switch_proxy_server_nrf52832_xxAA_s132_6.0.0.dir/__/__/__/mesh/access/src/access.c.obj
 .text.flash_write_complete
                0x00038d74       0x4c examples/light_switch/proxy_server/CMakeFiles/light_switch_proxy_server_nrf52832_xxAA_s132_6.0.0.dir/__/__/__/mesh/access/src/access.c.obj
 .text.flash_remove_complete
                0x00038dc0       0xb4 examples/light_switch/proxy_server/CMakeFiles/light_switch_proxy_server_nrf52832_xxAA_s132_6.0.0.dir/__/__/__/mesh/access/src/access.c.obj
 .text.access_flash_config_load
                0x00038e74      0x2c8 examples/light_switch/proxy_server/CMakeFiles/light_switch_proxy_server_nrf52832_xxAA_s132_6.0.0.dir/__/__/__/mesh/access/src/access.c.obj
                0x00038e74                access_flash_config_load
 .text.access_clear
                0x0003913c       0x70 examples/light_switch/proxy_server/CMakeFiles/light_switch_proxy_server_nrf52832_xxAA_s132_6.0.0.dir/__/__/__/mesh/access/src/access.c.obj
                0x0003913c                access_clear
 .text.access_init
                0x000391ac       0xb8 examples/light_switch/proxy_server/CMakeFiles/light_switch_proxy_server_nrf52832_xxAA_s132_6.0.0.dir/__/__/__/mesh/access/src/access.c.obj
                0x000391ac                access_init
 .text.access_model_add
                0x00039264      0x228 examples/light_switch/proxy_server/CMakeFiles/light_switch_proxy_server_nrf52832_xxAA_s132_6.0.0.dir/__/__/__/mesh/access/src/access.c.obj
                0x00039264                access_model_add
 .text.access_model_publish
                0x0003948c      0x3bc examples/light_switch/proxy_server/CMakeFiles/light_switch_proxy_server_nrf52832_xxAA_s132_6.0.0.dir/__/__/__/mesh/access/src/access.c.obj
                0x0003948c                access_model_publish
 .text.access_model_reply
                0x00039848      0x3d4 examples/light_switch/proxy_server/CMakeFiles/light_switch_proxy_server_nrf52832_xxAA_s132_6.0.0.dir/__/__/__/mesh/access/src/access.c.obj
                0x00039848                access_model_reply
 .text.access_model_publish_address_set
                0x00039c1c       0x3c examples/light_switch/proxy_server/CMakeFiles/light_switch_proxy_server_nrf52832_xxAA_s132_6.0.0.dir/__/__/__/mesh/access/src/access.c.obj
                0x00039c1c                access_model_publish_address_set
 .text.access_model_publish_address_get
                0x00039c58       0x2c examples/light_switch/proxy_server/CMakeFiles/light_switch_proxy_server_nrf52832_xxAA_s132_6.0.0.dir/__/__/__/mesh/access/src/access.c.obj
                0x00039c58                access_model_publish_address_get
 .text.access_model_publish_retransmit_set
                0x00039c84       0x58 examples/light_switch/proxy_server/CMakeFiles/light_switch_proxy_server_nrf52832_xxAA_s132_6.0.0.dir/__/__/__/mesh/access/src/access.c.obj
                0x00039c84                access_model_publish_retransmit_set
 .text.access_model_publish_retransmit_get
                0x00039cdc       0x2c examples/light_switch/proxy_server/CMakeFiles/light_switch_proxy_server_nrf52832_xxAA_s132_6.0.0.dir/__/__/__/mesh/access/src/access.c.obj
                0x00039cdc                access_model_publish_retransmit_get
 .text.access_model_publish_period_set
                0x00039d08       0x78 examples/light_switch/proxy_server/CMakeFiles/light_switch_proxy_server_nrf52832_xxAA_s132_6.0.0.dir/__/__/__/mesh/access/src/access.c.obj
                0x00039d08                access_model_publish_period_set
 .text.access_model_publish_period_get
                0x00039d80       0x40 examples/light_switch/proxy_server/CMakeFiles/light_switch_proxy_server_nrf52832_xxAA_s132_6.0.0.dir/__/__/__/mesh/access/src/access.c.obj
                0x00039d80                access_model_publish_period_get
 .text.access_model_subscription_list_alloc
                0x00039dc0       0x44 examples/light_switch/proxy_server/CMakeFiles/light_switch_proxy_server_nrf52832_xxAA_s132_6.0.0.dir/__/__/__/mesh/access/src/access.c.obj
                0x00039dc0                access_model_subscription_list_alloc
 .text.access_model_subscription_add
                0x00039e04       0x60 examples/light_switch/proxy_server/CMakeFiles/light_switch_proxy_server_nrf52832_xxAA_s132_6.0.0.dir/__/__/__/mesh/access/src/access.c.obj
                0x00039e04                access_model_subscription_add
 .text.access_model_subscription_remove
                0x00039e64       0x60 examples/light_switch/proxy_server/CMakeFiles/light_switch_proxy_server_nrf52832_xxAA_s132_6.0.0.dir/__/__/__/mesh/access/src/access.c.obj
                0x00039e64                access_model_subscription_remove
 .text.access_model_subscriptions_get
                0x00039ec4       0x70 examples/light_switch/proxy_server/CMakeFiles/light_switch_proxy_server_nrf52832_xxAA_s132_6.0.0.dir/__/__/__/mesh/access/src/access.c.obj
                0x00039ec4                access_model_subscriptions_get
 .text.access_model_application_bind
                0x00039f34       0x58 examples/light_switch/proxy_server/CMakeFiles/light_switch_proxy_server_nrf52832_xxAA_s132_6.0.0.dir/__/__/__/mesh/access/src/access.c.obj
                0x00039f34                access_model_application_bind
 .text.access_model_application_unbind
                0x00039f8c       0x58 examples/light_switch/proxy_server/CMakeFiles/light_switch_proxy_server_nrf52832_xxAA_s132_6.0.0.dir/__/__/__/mesh/access/src/access.c.obj
                0x00039f8c                access_model_application_unbind
 .text.access_model_applications_get
                0x00039fe4      0x100 examples/light_switch/proxy_server/CMakeFiles/light_switch_proxy_server_nrf52832_xxAA_s132_6.0.0.dir/__/__/__/mesh/access/src/access.c.obj
                0x00039fe4                access_model_applications_get
 .text.access_model_publish_application_set
                0x0003a0e4       0x3c examples/light_switch/proxy_server/CMakeFiles/light_switch_proxy_server_nrf52832_xxAA_s132_6.0.0.dir/__/__/__/mesh/access/src/access.c.obj
                0x0003a0e4                access_model_publish_application_set
 .text.access_model_publish_application_get
                0x0003a120       0x2c examples/light_switch/proxy_server/CMakeFiles/light_switch_proxy_server_nrf52832_xxAA_s132_6.0.0.dir/__/__/__/mesh/access/src/access.c.obj
                0x0003a120                access_model_publish_application_get
 .text.access_default_ttl_set
                0x0003a14c       0x1c examples/light_switch/proxy_server/CMakeFiles/light_switch_proxy_server_nrf52832_xxAA_s132_6.0.0.dir/__/__/__/mesh/access/src/access.c.obj
                0x0003a14c                access_default_ttl_set
 .text.access_default_ttl_get
                0x0003a168        0xc examples/light_switch/proxy_server/CMakeFiles/light_switch_proxy_server_nrf52832_xxAA_s132_6.0.0.dir/__/__/__/mesh/access/src/access.c.obj
                0x0003a168                access_default_ttl_get
 .text.access_model_publish_ttl_set
                0x0003a174       0x40 examples/light_switch/proxy_server/CMakeFiles/light_switch_proxy_server_nrf52832_xxAA_s132_6.0.0.dir/__/__/__/mesh/access/src/access.c.obj
                0x0003a174                access_model_publish_ttl_set
 .text.access_model_publish_ttl_get
                0x0003a1b4       0x2c examples/light_switch/proxy_server/CMakeFiles/light_switch_proxy_server_nrf52832_xxAA_s132_6.0.0.dir/__/__/__/mesh/access/src/access.c.obj
                0x0003a1b4                access_model_publish_ttl_get
 .text.access_element_location_get
                0x0003a1e0       0x18 examples/light_switch/proxy_server/CMakeFiles/light_switch_proxy_server_nrf52832_xxAA_s132_6.0.0.dir/__/__/__/mesh/access/src/access.c.obj
                0x0003a1e0                access_element_location_get
 .text.access_element_sig_model_count_get
                0x0003a1f8       0x18 examples/light_switch/proxy_server/CMakeFiles/light_switch_proxy_server_nrf52832_xxAA_s132_6.0.0.dir/__/__/__/mesh/access/src/access.c.obj
                0x0003a1f8                access_element_sig_model_count_get
 .text.access_element_vendor_model_count_get
                0x0003a210       0x18 examples/light_switch/proxy_server/CMakeFiles/light_switch_proxy_server_nrf52832_xxAA_s132_6.0.0.dir/__/__/__/mesh/access/src/access.c.obj
                0x0003a210                access_element_vendor_model_count_get
 .text.access_model_id_get
                0x0003a228       0x40 examples/light_switch/proxy_server/CMakeFiles/light_switch_proxy_server_nrf52832_xxAA_s132_6.0.0.dir/__/__/__/mesh/access/src/access.c.obj
                0x0003a228                access_model_id_get
 .text.access_handle_get
                0x0003a268       0x78 examples/light_switch/proxy_server/CMakeFiles/light_switch_proxy_server_nrf52832_xxAA_s132_6.0.0.dir/__/__/__/mesh/access/src/access.c.obj
                0x0003a268                access_handle_get
 .text.access_element_models_get
                0x0003a2e0       0x84 examples/light_switch/proxy_server/CMakeFiles/light_switch_proxy_server_nrf52832_xxAA_s132_6.0.0.dir/__/__/__/mesh/access/src/access.c.obj
                0x0003a2e0                access_element_models_get
 .text.access_model_p_args_get
                0x0003a364       0x2c examples/light_switch/proxy_server/CMakeFiles/light_switch_proxy_server_nrf52832_xxAA_s132_6.0.0.dir/__/__/__/mesh/access/src/access.c.obj
                0x0003a364                access_model_p_args_get
 .text.access_model_publication_stop
                0x0003a390       0x74 examples/light_switch/proxy_server/CMakeFiles/light_switch_proxy_server_nrf52832_xxAA_s132_6.0.0.dir/__/__/__/mesh/access/src/access.c.obj
                0x0003a390                access_model_publication_stop
 .text.access_model_publication_by_appkey_stop
                0x0003a404      0x14c examples/light_switch/proxy_server/CMakeFiles/light_switch_proxy_server_nrf52832_xxAA_s132_6.0.0.dir/__/__/__/mesh/access/src/access.c.obj
                0x0003a404                access_model_publication_by_appkey_stop
 .text.remove_and_reschedule
                0x0003a550       0xdc examples/light_switch/proxy_server/CMakeFiles/light_switch_proxy_server_nrf52832_xxAA_s132_6.0.0.dir/__/__/__/mesh/access/src/access_reliable.c.obj
 .text.reliable_timer_cb
                0x0003a62c      0x274 examples/light_switch/proxy_server/CMakeFiles/light_switch_proxy_server_nrf52832_xxAA_s132_6.0.0.dir/__/__/__/mesh/access/src/access_reliable.c.obj
 .text.access_reliable_message_rx_cb
                0x0003a8a0       0x80 examples/light_switch/proxy_server/CMakeFiles/light_switch_proxy_server_nrf52832_xxAA_s132_6.0.0.dir/__/__/__/mesh/access/src/access_reliable.c.obj
                0x0003a8a0                access_reliable_message_rx_cb
 .text.access_reliable_init
                0x0003a920       0x1c examples/light_switch/proxy_server/CMakeFiles/light_switch_proxy_server_nrf52832_xxAA_s132_6.0.0.dir/__/__/__/mesh/access/src/access_reliable.c.obj
                0x0003a920                access_reliable_init
 .text.access_reliable_cancel_all
                0x0003a93c       0xe8 examples/light_switch/proxy_server/CMakeFiles/light_switch_proxy_server_nrf52832_xxAA_s132_6.0.0.dir/__/__/__/mesh/access/src/access_reliable.c.obj
                0x0003a93c                access_reliable_cancel_all
 .text.access_model_reliable_cancel
                0x0003aa24       0x84 examples/light_switch/proxy_server/CMakeFiles/light_switch_proxy_server_nrf52832_xxAA_s132_6.0.0.dir/__/__/__/mesh/access/src/access_reliable.c.obj
                0x0003aa24                access_model_reliable_cancel
 .text.addr_nonvirtual_to_dsm_entry
                0x0003aaa8       0x48 examples/light_switch/proxy_server/CMakeFiles/light_switch_proxy_server_nrf52832_xxAA_s132_6.0.0.dir/__/__/__/mesh/access/src/device_state_manager.c.obj
 .text.addr_nonvirtual_to_flash_entry
                0x0003aaf0       0x10 examples/light_switch/proxy_server/CMakeFiles/light_switch_proxy_server_nrf52832_xxAA_s132_6.0.0.dir/__/__/__/mesh/access/src/device_state_manager.c.obj
 .text.devkey_to_flash_entry
                0x0003ab00       0x28 examples/light_switch/proxy_server/CMakeFiles/light_switch_proxy_server_nrf52832_xxAA_s132_6.0.0.dir/__/__/__/mesh/access/src/device_state_manager.c.obj
 .text.addr_virtual_to_flash_entry
                0x0003ab28       0x18 examples/light_switch/proxy_server/CMakeFiles/light_switch_proxy_server_nrf52832_xxAA_s132_6.0.0.dir/__/__/__/mesh/access/src/device_state_manager.c.obj
 .text.addr_unicast_to_dsm_entry
                0x0003ab40        0xc examples/light_switch/proxy_server/CMakeFiles/light_switch_proxy_server_nrf52832_xxAA_s132_6.0.0.dir/__/__/__/mesh/access/src/device_state_manager.c.obj
 .text.addr_unicast_to_flash_entry
                0x0003ab4c       0x10 examples/light_switch/proxy_server/CMakeFiles/light_switch_proxy_server_nrf52832_xxAA_s132_6.0.0.dir/__/__/__/mesh/access/src/device_state_manager.c.obj
 .text.flash_mem_listener_callback
                0x0003ab5c       0x1c examples/light_switch/proxy_server/CMakeFiles/light_switch_proxy_server_nrf52832_xxAA_s132_6.0.0.dir/__/__/__/mesh/access/src/device_state_manager.c.obj
 .text.appkey_to_flash_entry
                0x0003ab78       0x54 examples/light_switch/proxy_server/CMakeFiles/light_switch_proxy_server_nrf52832_xxAA_s132_6.0.0.dir/__/__/__/mesh/access/src/device_state_manager.c.obj
 .text.subnet_to_flash_entry
                0x0003abcc       0x60 examples/light_switch/proxy_server/CMakeFiles/light_switch_proxy_server_nrf52832_xxAA_s132_6.0.0.dir/__/__/__/mesh/access/src/device_state_manager.c.obj
 .text.reset_flash_area
                0x0003ac2c       0x28 examples/light_switch/proxy_server/CMakeFiles/light_switch_proxy_server_nrf52832_xxAA_s132_6.0.0.dir/__/__/__/mesh/access/src/device_state_manager.c.obj
 .text.flash_save
                0x0003ac54       0xb0 examples/light_switch/proxy_server/CMakeFiles/light_switch_proxy_server_nrf52832_xxAA_s132_6.0.0.dir/__/__/__/mesh/access/src/device_state_manager.c.obj
 .text.build_flash_area
                0x0003ad04       0x90 examples/light_switch/proxy_server/CMakeFiles/light_switch_proxy_server_nrf52832_xxAA_s132_6.0.0.dir/__/__/__/mesh/access/src/device_state_manager.c.obj
 .text.flash_invalidate_complete
                0x0003ad94       0x54 examples/light_switch/proxy_server/CMakeFiles/light_switch_proxy_server_nrf52832_xxAA_s132_6.0.0.dir/__/__/__/mesh/access/src/device_state_manager.c.obj
 .text.flash_write_complete
                0x0003ade8       0x50 examples/light_switch/proxy_server/CMakeFiles/light_switch_proxy_server_nrf52832_xxAA_s132_6.0.0.dir/__/__/__/mesh/access/src/device_state_manager.c.obj
 .text.devkey_to_dsm_entry
                0x0003ae38       0x70 examples/light_switch/proxy_server/CMakeFiles/light_switch_proxy_server_nrf52832_xxAA_s132_6.0.0.dir/__/__/__/mesh/access/src/device_state_manager.c.obj
 .text.addr_virtual_to_dsm_entry
                0x0003aea8       0x60 examples/light_switch/proxy_server/CMakeFiles/light_switch_proxy_server_nrf52832_xxAA_s132_6.0.0.dir/__/__/__/mesh/access/src/device_state_manager.c.obj
 .text.appkey_to_dsm_entry
                0x0003af08       0xf4 examples/light_switch/proxy_server/CMakeFiles/light_switch_proxy_server_nrf52832_xxAA_s132_6.0.0.dir/__/__/__/mesh/access/src/device_state_manager.c.obj
 .text.flash_remove_complete
                0x0003affc       0x90 examples/light_switch/proxy_server/CMakeFiles/light_switch_proxy_server_nrf52832_xxAA_s132_6.0.0.dir/__/__/__/mesh/access/src/device_state_manager.c.obj
 .text.subnet_to_dsm_entry
                0x0003b08c      0x134 examples/light_switch/proxy_server/CMakeFiles/light_switch_proxy_server_nrf52832_xxAA_s132_6.0.0.dir/__/__/__/mesh/access/src/device_state_manager.c.obj
 .text.flash_update_all
                0x0003b1c0      0x17c examples/light_switch/proxy_server/CMakeFiles/light_switch_proxy_server_nrf52832_xxAA_s132_6.0.0.dir/__/__/__/mesh/access/src/device_state_manager.c.obj
 .text.address_delete_if_unused
                0x0003b33c      0x100 examples/light_switch/proxy_server/CMakeFiles/light_switch_proxy_server_nrf52832_xxAA_s132_6.0.0.dir/__/__/__/mesh/access/src/device_state_manager.c.obj
 .text.mesh_evt_handler
                0x0003b43c      0x27c examples/light_switch/proxy_server/CMakeFiles/light_switch_proxy_server_nrf52832_xxAA_s132_6.0.0.dir/__/__/__/mesh/access/src/device_state_manager.c.obj
 .text.dsm_flash_config_load
                0x0003b6b8      0x1c8 examples/light_switch/proxy_server/CMakeFiles/light_switch_proxy_server_nrf52832_xxAA_s132_6.0.0.dir/__/__/__/mesh/access/src/device_state_manager.c.obj
                0x0003b6b8                dsm_flash_config_load
 .text.dsm_flash_area_get
                0x0003b880        0xc examples/light_switch/proxy_server/CMakeFiles/light_switch_proxy_server_nrf52832_xxAA_s132_6.0.0.dir/__/__/__/mesh/access/src/device_state_manager.c.obj
                0x0003b880                dsm_flash_area_get
 .text.dsm_clear
                0x0003b88c      0x120 examples/light_switch/proxy_server/CMakeFiles/light_switch_proxy_server_nrf52832_xxAA_s132_6.0.0.dir/__/__/__/mesh/access/src/device_state_manager.c.obj
                0x0003b88c                dsm_clear
 .text.dsm_init
                0x0003b9ac       0xb8 examples/light_switch/proxy_server/CMakeFiles/light_switch_proxy_server_nrf52832_xxAA_s132_6.0.0.dir/__/__/__/mesh/access/src/device_state_manager.c.obj
                0x0003b9ac                dsm_init
 .text.dsm_local_unicast_addresses_set
                0x0003ba64       0x78 examples/light_switch/proxy_server/CMakeFiles/light_switch_proxy_server_nrf52832_xxAA_s132_6.0.0.dir/__/__/__/mesh/access/src/device_state_manager.c.obj
                0x0003ba64                dsm_local_unicast_addresses_set
 .text.dsm_local_unicast_addresses_get
                0x0003badc       0x20 examples/light_switch/proxy_server/CMakeFiles/light_switch_proxy_server_nrf52832_xxAA_s132_6.0.0.dir/__/__/__/mesh/access/src/device_state_manager.c.obj
                0x0003badc                dsm_local_unicast_addresses_get
 .text.dsm_address_publish_add
                0x0003bafc      0x230 examples/light_switch/proxy_server/CMakeFiles/light_switch_proxy_server_nrf52832_xxAA_s132_6.0.0.dir/__/__/__/mesh/access/src/device_state_manager.c.obj
                0x0003bafc                dsm_address_publish_add
 .text.dsm_address_publish_add_handle
                0x0003bd2c       0x54 examples/light_switch/proxy_server/CMakeFiles/light_switch_proxy_server_nrf52832_xxAA_s132_6.0.0.dir/__/__/__/mesh/access/src/device_state_manager.c.obj
                0x0003bd2c                dsm_address_publish_add_handle
 .text.dsm_address_publish_virtual_add
                0x0003bd80      0x268 examples/light_switch/proxy_server/CMakeFiles/light_switch_proxy_server_nrf52832_xxAA_s132_6.0.0.dir/__/__/__/mesh/access/src/device_state_manager.c.obj
                0x0003bd80                dsm_address_publish_virtual_add
 .text.dsm_address_publish_remove
                0x0003bfe8       0xbc examples/light_switch/proxy_server/CMakeFiles/light_switch_proxy_server_nrf52832_xxAA_s132_6.0.0.dir/__/__/__/mesh/access/src/device_state_manager.c.obj
                0x0003bfe8                dsm_address_publish_remove
 .text.dsm_address_subscription_add
                0x0003c0a4      0x214 examples/light_switch/proxy_server/CMakeFiles/light_switch_proxy_server_nrf52832_xxAA_s132_6.0.0.dir/__/__/__/mesh/access/src/device_state_manager.c.obj
                0x0003c0a4                dsm_address_subscription_add
 .text.dsm_address_subscription_virtual_add
                0x0003c2b8      0x268 examples/light_switch/proxy_server/CMakeFiles/light_switch_proxy_server_nrf52832_xxAA_s132_6.0.0.dir/__/__/__/mesh/access/src/device_state_manager.c.obj
                0x0003c2b8                dsm_address_subscription_virtual_add
 .text.dsm_address_subscription_add_handle
                0x0003c520       0x54 examples/light_switch/proxy_server/CMakeFiles/light_switch_proxy_server_nrf52832_xxAA_s132_6.0.0.dir/__/__/__/mesh/access/src/device_state_manager.c.obj
                0x0003c520                dsm_address_subscription_add_handle
 .text.dsm_address_subscription_get
                0x0003c574       0x5c examples/light_switch/proxy_server/CMakeFiles/light_switch_proxy_server_nrf52832_xxAA_s132_6.0.0.dir/__/__/__/mesh/access/src/device_state_manager.c.obj
                0x0003c574                dsm_address_subscription_get
 .text.dsm_address_subscription_remove
                0x0003c5d0       0x94 examples/light_switch/proxy_server/CMakeFiles/light_switch_proxy_server_nrf52832_xxAA_s132_6.0.0.dir/__/__/__/mesh/access/src/device_state_manager.c.obj
                0x0003c5d0                dsm_address_subscription_remove
 .text.dsm_address_get
                0x0003c664       0x74 examples/light_switch/proxy_server/CMakeFiles/light_switch_proxy_server_nrf52832_xxAA_s132_6.0.0.dir/__/__/__/mesh/access/src/device_state_manager.c.obj
                0x0003c664                dsm_address_get
 .text.dsm_address_handle_get
                0x0003c6d8      0x24c examples/light_switch/proxy_server/CMakeFiles/light_switch_proxy_server_nrf52832_xxAA_s132_6.0.0.dir/__/__/__/mesh/access/src/device_state_manager.c.obj
                0x0003c6d8                dsm_address_handle_get
 .text.dsm_net_key_index_to_subnet_handle
                0x0003c924       0x40 examples/light_switch/proxy_server/CMakeFiles/light_switch_proxy_server_nrf52832_xxAA_s132_6.0.0.dir/__/__/__/mesh/access/src/device_state_manager.c.obj
                0x0003c924                dsm_net_key_index_to_subnet_handle
 .text.dsm_subnet_handle_get
                0x0003c964       0x64 examples/light_switch/proxy_server/CMakeFiles/light_switch_proxy_server_nrf52832_xxAA_s132_6.0.0.dir/__/__/__/mesh/access/src/device_state_manager.c.obj
                0x0003c964                dsm_subnet_handle_get
 .text.dsm_appkey_index_to_appkey_handle
                0x0003c9c8       0xcc examples/light_switch/proxy_server/CMakeFiles/light_switch_proxy_server_nrf52832_xxAA_s132_6.0.0.dir/__/__/__/mesh/access/src/device_state_manager.c.obj
                0x0003c9c8                dsm_appkey_index_to_appkey_handle
 .text.dsm_appkey_handle_get
                0x0003ca94       0x44 examples/light_switch/proxy_server/CMakeFiles/light_switch_proxy_server_nrf52832_xxAA_s132_6.0.0.dir/__/__/__/mesh/access/src/device_state_manager.c.obj
                0x0003ca94                dsm_appkey_handle_get
 .text.dsm_appkey_handle_to_appkey_index
                0x0003cad8       0x34 examples/light_switch/proxy_server/CMakeFiles/light_switch_proxy_server_nrf52832_xxAA_s132_6.0.0.dir/__/__/__/mesh/access/src/device_state_manager.c.obj
                0x0003cad8                dsm_appkey_handle_to_appkey_index
 .text.dsm_appkey_handle_to_subnet_handle
                0x0003cb0c       0xb4 examples/light_switch/proxy_server/CMakeFiles/light_switch_proxy_server_nrf52832_xxAA_s132_6.0.0.dir/__/__/__/mesh/access/src/device_state_manager.c.obj
                0x0003cb0c                dsm_appkey_handle_to_subnet_handle
 .text.dsm_subnet_add
                0x0003cbc0      0x214 examples/light_switch/proxy_server/CMakeFiles/light_switch_proxy_server_nrf52832_xxAA_s132_6.0.0.dir/__/__/__/mesh/access/src/device_state_manager.c.obj
                0x0003cbc0                dsm_subnet_add
 .text.dsm_subnet_kr_phase_get
                0x0003cdd4       0x30 examples/light_switch/proxy_server/CMakeFiles/light_switch_proxy_server_nrf52832_xxAA_s132_6.0.0.dir/__/__/__/mesh/access/src/device_state_manager.c.obj
                0x0003cdd4                dsm_subnet_kr_phase_get
 .text.dsm_subnet_update
                0x0003ce04      0x134 examples/light_switch/proxy_server/CMakeFiles/light_switch_proxy_server_nrf52832_xxAA_s132_6.0.0.dir/__/__/__/mesh/access/src/device_state_manager.c.obj
                0x0003ce04                dsm_subnet_update
 .text.dsm_subnet_update_swap_keys
                0x0003cf38       0xa8 examples/light_switch/proxy_server/CMakeFiles/light_switch_proxy_server_nrf52832_xxAA_s132_6.0.0.dir/__/__/__/mesh/access/src/device_state_manager.c.obj
                0x0003cf38                dsm_subnet_update_swap_keys
 .text.dsm_subnet_update_commit
                0x0003cfe0      0x194 examples/light_switch/proxy_server/CMakeFiles/light_switch_proxy_server_nrf52832_xxAA_s132_6.0.0.dir/__/__/__/mesh/access/src/device_state_manager.c.obj
                0x0003cfe0                dsm_subnet_update_commit
 .text.dsm_subnet_delete
                0x0003d174      0x338 examples/light_switch/proxy_server/CMakeFiles/light_switch_proxy_server_nrf52832_xxAA_s132_6.0.0.dir/__/__/__/mesh/access/src/device_state_manager.c.obj
                0x0003d174                dsm_subnet_delete
 .text.dsm_subnet_get_all
                0x0003d4ac       0x54 examples/light_switch/proxy_server/CMakeFiles/light_switch_proxy_server_nrf52832_xxAA_s132_6.0.0.dir/__/__/__/mesh/access/src/device_state_manager.c.obj
                0x0003d4ac                dsm_subnet_get_all
 .text.dsm_devkey_add
                0x0003d500       0xb0 examples/light_switch/proxy_server/CMakeFiles/light_switch_proxy_server_nrf52832_xxAA_s132_6.0.0.dir/__/__/__/mesh/access/src/device_state_manager.c.obj
                0x0003d500                dsm_devkey_add
 .text.dsm_appkey_add
                0x0003d5b0      0x234 examples/light_switch/proxy_server/CMakeFiles/light_switch_proxy_server_nrf52832_xxAA_s132_6.0.0.dir/__/__/__/mesh/access/src/device_state_manager.c.obj
                0x0003d5b0                dsm_appkey_add
 .text.dsm_appkey_update
                0x0003d7e4       0xfc examples/light_switch/proxy_server/CMakeFiles/light_switch_proxy_server_nrf52832_xxAA_s132_6.0.0.dir/__/__/__/mesh/access/src/device_state_manager.c.obj
                0x0003d7e4                dsm_appkey_update
 .text.dsm_appkey_delete
                0x0003d8e0       0x68 examples/light_switch/proxy_server/CMakeFiles/light_switch_proxy_server_nrf52832_xxAA_s132_6.0.0.dir/__/__/__/mesh/access/src/device_state_manager.c.obj
                0x0003d8e0                dsm_appkey_delete
 .text.dsm_appkey_get_all
                0x0003d948      0x158 examples/light_switch/proxy_server/CMakeFiles/light_switch_proxy_server_nrf52832_xxAA_s132_6.0.0.dir/__/__/__/mesh/access/src/device_state_manager.c.obj
                0x0003d948                dsm_appkey_get_all
 .text.dsm_tx_secmat_get
                0x0003daa0       0xd4 examples/light_switch/proxy_server/CMakeFiles/light_switch_proxy_server_nrf52832_xxAA_s132_6.0.0.dir/__/__/__/mesh/access/src/device_state_manager.c.obj
                0x0003daa0                dsm_tx_secmat_get
 .text.dsm_beacon_info_get
                0x0003db74       0x34 examples/light_switch/proxy_server/CMakeFiles/light_switch_proxy_server_nrf52832_xxAA_s132_6.0.0.dir/__/__/__/mesh/access/src/device_state_manager.c.obj
                0x0003db74                dsm_beacon_info_get
 .text.dsm_net_secmat_from_keyindex_get
                0x0003dba8       0x64 examples/light_switch/proxy_server/CMakeFiles/light_switch_proxy_server_nrf52832_xxAA_s132_6.0.0.dir/__/__/__/mesh/access/src/device_state_manager.c.obj
                0x0003dba8                dsm_net_secmat_from_keyindex_get
 .text.nrf_mesh_net_secmat_next_get
                0x0003dc0c      0x15c examples/light_switch/proxy_server/CMakeFiles/light_switch_proxy_server_nrf52832_xxAA_s132_6.0.0.dir/__/__/__/mesh/access/src/device_state_manager.c.obj
                0x0003dc0c                nrf_mesh_net_secmat_next_get
 .text.nrf_mesh_app_secmat_next_get
                0x0003dd68      0x22c examples/light_switch/proxy_server/CMakeFiles/light_switch_proxy_server_nrf52832_xxAA_s132_6.0.0.dir/__/__/__/mesh/access/src/device_state_manager.c.obj
                0x0003dd68                nrf_mesh_app_secmat_next_get
 .text.nrf_mesh_devkey_secmat_get
                0x0003df94       0x30 examples/light_switch/proxy_server/CMakeFiles/light_switch_proxy_server_nrf52832_xxAA_s132_6.0.0.dir/__/__/__/mesh/access/src/device_state_manager.c.obj
                0x0003df94                nrf_mesh_devkey_secmat_get
 .text.nrf_mesh_beacon_info_next_get
                0x0003dfc4      0x148 examples/light_switch/proxy_server/CMakeFiles/light_switch_proxy_server_nrf52832_xxAA_s132_6.0.0.dir/__/__/__/mesh/access/src/device_state_manager.c.obj
                0x0003dfc4                nrf_mesh_beacon_info_next_get
 .text.nrf_mesh_rx_address_get
                0x0003e10c      0x3c8 examples/light_switch/proxy_server/CMakeFiles/light_switch_proxy_server_nrf52832_xxAA_s132_6.0.0.dir/__/__/__/mesh/access/src/device_state_manager.c.obj
                0x0003e10c                nrf_mesh_rx_address_get
 .text.nrf_mesh_unicast_address_get
                0x0003e4d4       0x24 examples/light_switch/proxy_server/CMakeFiles/light_switch_proxy_server_nrf52832_xxAA_s132_6.0.0.dir/__/__/__/mesh/access/src/device_state_manager.c.obj
                0x0003e4d4                nrf_mesh_unicast_address_get
 .text.prov_provisionee_cb_link_established
                0x0003e4f8       0x38 examples/light_switch/proxy_server/CMakeFiles/light_switch_proxy_server_nrf52832_xxAA_s132_6.0.0.dir/__/__/__/mesh/prov/src/prov_provisionee.c.obj
 .text.prov_provisionee_cb_link_closed
                0x0003e530       0x54 examples/light_switch/proxy_server/CMakeFiles/light_switch_proxy_server_nrf52832_xxAA_s132_6.0.0.dir/__/__/__/mesh/prov/src/prov_provisionee.c.obj
 .text.request_authentication
                0x0003e584       0x90 examples/light_switch/proxy_server/CMakeFiles/light_switch_proxy_server_nrf52832_xxAA_s132_6.0.0.dir/__/__/__/mesh/prov/src/prov_provisionee.c.obj
 .text.prov_provisionee_cb_ack_received
                0x0003e614      0x194 examples/light_switch/proxy_server/CMakeFiles/light_switch_proxy_server_nrf52832_xxAA_s132_6.0.0.dir/__/__/__/mesh/prov/src/prov_provisionee.c.obj
 .text.prov_provisionee_pkt_in
                0x0003e7a8      0x420 examples/light_switch/proxy_server/CMakeFiles/light_switch_proxy_server_nrf52832_xxAA_s132_6.0.0.dir/__/__/__/mesh/prov/src/prov_provisionee.c.obj
 .text.prov_provisionee_listen
                0x0003ebc8       0x34 examples/light_switch/proxy_server/CMakeFiles/light_switch_proxy_server_nrf52832_xxAA_s132_6.0.0.dir/__/__/__/mesh/prov/src/prov_provisionee.c.obj
                0x0003ebc8                prov_provisionee_listen
 .text.prov_provisionee_auth_data
                0x0003ebfc      0x104 examples/light_switch/proxy_server/CMakeFiles/light_switch_proxy_server_nrf52832_xxAA_s132_6.0.0.dir/__/__/__/mesh/prov/src/prov_provisionee.c.obj
                0x0003ebfc                prov_provisionee_auth_data
 .text.bearer_compare_callback
                0x0003ed00       0x10 examples/light_switch/proxy_server/CMakeFiles/light_switch_proxy_server_nrf52832_xxAA_s132_6.0.0.dir/__/__/__/mesh/prov/src/nrf_mesh_prov.c.obj
 .text.nrf_mesh_prov_init
                0x0003ed10       0x3c examples/light_switch/proxy_server/CMakeFiles/light_switch_proxy_server_nrf52832_xxAA_s132_6.0.0.dir/__/__/__/mesh/prov/src/nrf_mesh_prov.c.obj
                0x0003ed10                nrf_mesh_prov_init
 .text.nrf_mesh_prov_bearer_add
                0x0003ed4c       0x2c examples/light_switch/proxy_server/CMakeFiles/light_switch_proxy_server_nrf52832_xxAA_s132_6.0.0.dir/__/__/__/mesh/prov/src/nrf_mesh_prov.c.obj
                0x0003ed4c                nrf_mesh_prov_bearer_add
 .text.nrf_mesh_prov_generate_keys
                0x0003ed78        0x4 examples/light_switch/proxy_server/CMakeFiles/light_switch_proxy_server_nrf52832_xxAA_s132_6.0.0.dir/__/__/__/mesh/prov/src/nrf_mesh_prov.c.obj
                0x0003ed78                nrf_mesh_prov_generate_keys
 .text.nrf_mesh_prov_listen
                0x0003ed7c       0xf8 examples/light_switch/proxy_server/CMakeFiles/light_switch_proxy_server_nrf52832_xxAA_s132_6.0.0.dir/__/__/__/mesh/prov/src/nrf_mesh_prov.c.obj
                0x0003ed7c                nrf_mesh_prov_listen
 .text.nrf_mesh_prov_auth_data_provide
                0x0003ee74       0x10 examples/light_switch/proxy_server/CMakeFiles/light_switch_proxy_server_nrf52832_xxAA_s132_6.0.0.dir/__/__/__/mesh/prov/src/nrf_mesh_prov.c.obj
                0x0003ee74                nrf_mesh_prov_auth_data_provide
 .text.prov_packet_length_valid
                0x0003ee84       0x20 examples/light_switch/proxy_server/CMakeFiles/light_switch_proxy_server_nrf52832_xxAA_s132_6.0.0.dir/__/__/__/mesh/prov/src/provisioning.c.obj
                0x0003ee84                prov_packet_length_valid
 .text.prov_tx_capabilities
                0x0003eea4       0x38 examples/light_switch/proxy_server/CMakeFiles/light_switch_proxy_server_nrf52832_xxAA_s132_6.0.0.dir/__/__/__/mesh/prov/src/provisioning.c.obj
                0x0003eea4                prov_tx_capabilities
 .text.prov_tx_public_key
                0x0003eedc       0x30 examples/light_switch/proxy_server/CMakeFiles/light_switch_proxy_server_nrf52832_xxAA_s132_6.0.0.dir/__/__/__/mesh/prov/src/provisioning.c.obj
                0x0003eedc                prov_tx_public_key
 .text.prov_tx_input_complete
                0x0003ef0c       0x28 examples/light_switch/proxy_server/CMakeFiles/light_switch_proxy_server_nrf52832_xxAA_s132_6.0.0.dir/__/__/__/mesh/prov/src/provisioning.c.obj
                0x0003ef0c                prov_tx_input_complete
 .text.prov_tx_confirmation
                0x0003ef34       0x30 examples/light_switch/proxy_server/CMakeFiles/light_switch_proxy_server_nrf52832_xxAA_s132_6.0.0.dir/__/__/__/mesh/prov/src/provisioning.c.obj
                0x0003ef34                prov_tx_confirmation
 .text.prov_tx_random
                0x0003ef64       0x30 examples/light_switch/proxy_server/CMakeFiles/light_switch_proxy_server_nrf52832_xxAA_s132_6.0.0.dir/__/__/__/mesh/prov/src/provisioning.c.obj
                0x0003ef64                prov_tx_random
 .text.prov_tx_complete
                0x0003ef94       0x28 examples/light_switch/proxy_server/CMakeFiles/light_switch_proxy_server_nrf52832_xxAA_s132_6.0.0.dir/__/__/__/mesh/prov/src/provisioning.c.obj
                0x0003ef94                prov_tx_complete
 .text.prov_tx_failed
                0x0003efbc       0x2c examples/light_switch/proxy_server/CMakeFiles/light_switch_proxy_server_nrf52832_xxAA_s132_6.0.0.dir/__/__/__/mesh/prov/src/provisioning.c.obj
                0x0003efbc                prov_tx_failed
 .text.prov_beacon_unprov_build
                0x0003efe8       0x54 examples/light_switch/proxy_server/CMakeFiles/light_switch_proxy_server_nrf52832_xxAA_s132_6.0.0.dir/__/__/__/mesh/prov/src/prov_beacon.c.obj
                0x0003efe8                prov_beacon_unprov_build
 .text.prov_beacon_unprov_packet_in
                0x0003f03c       0xd4 examples/light_switch/proxy_server/CMakeFiles/light_switch_proxy_server_nrf52832_xxAA_s132_6.0.0.dir/__/__/__/mesh/prov/src/prov_beacon.c.obj
                0x0003f03c                prov_beacon_unprov_packet_in
 .text.prov_utils_opt_set
                0x0003f110       0x24 examples/light_switch/proxy_server/CMakeFiles/light_switch_proxy_server_nrf52832_xxAA_s132_6.0.0.dir/__/__/__/mesh/prov/src/prov_utils.c.obj
                0x0003f110                prov_utils_opt_set
 .text.prov_utils_opt_get
                0x0003f134       0x1c examples/light_switch/proxy_server/CMakeFiles/light_switch_proxy_server_nrf52832_xxAA_s132_6.0.0.dir/__/__/__/mesh/prov/src/prov_utils.c.obj
                0x0003f134                prov_utils_opt_get
 .text.prov_utils_use_ecdh_offloading
                0x0003f150        0xc examples/light_switch/proxy_server/CMakeFiles/light_switch_proxy_server_nrf52832_xxAA_s132_6.0.0.dir/__/__/__/mesh/prov/src/prov_utils.c.obj
                0x0003f150                prov_utils_use_ecdh_offloading
 .text.prov_utils_authentication_values_derive
                0x0003f15c       0xa8 examples/light_switch/proxy_server/CMakeFiles/light_switch_proxy_server_nrf52832_xxAA_s132_6.0.0.dir/__/__/__/mesh/prov/src/prov_utils.c.obj
                0x0003f15c                prov_utils_authentication_values_derive
 .text.prov_utils_keys_generate
                0x0003f204       0x20 examples/light_switch/proxy_server/CMakeFiles/light_switch_proxy_server_nrf52832_xxAA_s132_6.0.0.dir/__/__/__/mesh/prov/src/prov_utils.c.obj
                0x0003f204                prov_utils_keys_generate
 .text.prov_utils_derive_keys
                0x0003f224       0xb4 examples/light_switch/proxy_server/CMakeFiles/light_switch_proxy_server_nrf52832_xxAA_s132_6.0.0.dir/__/__/__/mesh/prov/src/prov_utils.c.obj
                0x0003f224                prov_utils_derive_keys
 .text.prov_utils_calculate_shared_secret
                0x0003f2d8       0x38 examples/light_switch/proxy_server/CMakeFiles/light_switch_proxy_server_nrf52832_xxAA_s132_6.0.0.dir/__/__/__/mesh/prov/src/prov_utils.c.obj
                0x0003f2d8                prov_utils_calculate_shared_secret
 .text.prov_utils_generate_oob_data
                0x0003f310      0x1b8 examples/light_switch/proxy_server/CMakeFiles/light_switch_proxy_server_nrf52832_xxAA_s132_6.0.0.dir/__/__/__/mesh/prov/src/prov_utils.c.obj
                0x0003f310                prov_utils_generate_oob_data
 .text.prov_utils_confirmation_check
                0x0003f4c8       0x5c examples/light_switch/proxy_server/CMakeFiles/light_switch_proxy_server_nrf52832_xxAA_s132_6.0.0.dir/__/__/__/mesh/prov/src/prov_utils.c.obj
                0x0003f4c8                prov_utils_confirmation_check
 .text.link_timeout_cb
                0x0003f524       0x10 examples/light_switch/proxy_server/CMakeFiles/light_switch_proxy_server_nrf52832_xxAA_s132_6.0.0.dir/__/__/__/mesh/prov/src/prov_bearer_adv.c.obj
 .text.prov_bearer_adv_listen_stop
                0x0003f534       0x8c examples/light_switch/proxy_server/CMakeFiles/light_switch_proxy_server_nrf52832_xxAA_s132_6.0.0.dir/__/__/__/mesh/prov/src/prov_bearer_adv.c.obj
 .text.tx_complete_cb
                0x0003f5c0       0x20 examples/light_switch/proxy_server/CMakeFiles/light_switch_proxy_server_nrf52832_xxAA_s132_6.0.0.dir/__/__/__/mesh/prov/src/prov_bearer_adv.c.obj
 .text.prov_bearer_adv_listen
                0x0003f5e0      0x160 examples/light_switch/proxy_server/CMakeFiles/light_switch_proxy_server_nrf52832_xxAA_s132_6.0.0.dir/__/__/__/mesh/prov/src/prov_bearer_adv.c.obj
 .text.prov_buffer_tx
                0x0003f740      0x1d8 examples/light_switch/proxy_server/CMakeFiles/light_switch_proxy_server_nrf52832_xxAA_s132_6.0.0.dir/__/__/__/mesh/prov/src/prov_bearer_adv.c.obj
 .text.close_link
                0x0003f918       0xc0 examples/light_switch/proxy_server/CMakeFiles/light_switch_proxy_server_nrf52832_xxAA_s132_6.0.0.dir/__/__/__/mesh/prov/src/prov_bearer_adv.c.obj
 .text.async_process
                0x0003f9d8       0x60 examples/light_switch/proxy_server/CMakeFiles/light_switch_proxy_server_nrf52832_xxAA_s132_6.0.0.dir/__/__/__/mesh/prov/src/prov_bearer_adv.c.obj
 .text.prov_bearer_adv_tx
                0x0003fa38       0xe4 examples/light_switch/proxy_server/CMakeFiles/light_switch_proxy_server_nrf52832_xxAA_s132_6.0.0.dir/__/__/__/mesh/prov/src/prov_bearer_adv.c.obj
 .text.send_link_ack
                0x0003fb1c       0x80 examples/light_switch/proxy_server/CMakeFiles/light_switch_proxy_server_nrf52832_xxAA_s132_6.0.0.dir/__/__/__/mesh/prov/src/prov_bearer_adv.c.obj
 .text.tx_retry_cb
                0x0003fb9c      0x13c examples/light_switch/proxy_server/CMakeFiles/light_switch_proxy_server_nrf52832_xxAA_s132_6.0.0.dir/__/__/__/mesh/prov/src/prov_bearer_adv.c.obj
 .text.send_transaction_ack
                0x0003fcd8       0x68 examples/light_switch/proxy_server/CMakeFiles/light_switch_proxy_server_nrf52832_xxAA_s132_6.0.0.dir/__/__/__/mesh/prov/src/prov_bearer_adv.c.obj
 .text.prov_buffer_rx
                0x0003fd40       0x9c examples/light_switch/proxy_server/CMakeFiles/light_switch_proxy_server_nrf52832_xxAA_s132_6.0.0.dir/__/__/__/mesh/prov/src/prov_bearer_adv.c.obj
 .text.prov_bearer_adv_link_open
                0x0003fddc      0x1c0 examples/light_switch/proxy_server/CMakeFiles/light_switch_proxy_server_nrf52832_xxAA_s132_6.0.0.dir/__/__/__/mesh/prov/src/prov_bearer_adv.c.obj
 .text.prov_bearer_adv_link_close
                0x0003ff9c       0xd8 examples/light_switch/proxy_server/CMakeFiles/light_switch_proxy_server_nrf52832_xxAA_s132_6.0.0.dir/__/__/__/mesh/prov/src/prov_bearer_adv.c.obj
 .text.nrf_mesh_prov_bearer_adv_interface_get
                0x00040074       0x40 examples/light_switch/proxy_server/CMakeFiles/light_switch_proxy_server_nrf52832_xxAA_s132_6.0.0.dir/__/__/__/mesh/prov/src/prov_bearer_adv.c.obj
                0x00040074                nrf_mesh_prov_bearer_adv_interface_get
 .text.prov_bearer_adv_packet_in
                0x000400b4      0x950 examples/light_switch/proxy_server/CMakeFiles/light_switch_proxy_server_nrf52832_xxAA_s132_6.0.0.dir/__/__/__/mesh/prov/src/prov_bearer_adv.c.obj
                0x000400b4                prov_bearer_adv_packet_in
 .text.SystemInit
                0x00040a04      0x3cc examples/light_switch/proxy_server/CMakeFiles/light_switch_proxy_server_nrf52832_xxAA_s132_6.0.0.dir/C_/b/nRF5_SDK_15.0.0_a53641a/modules/nrfx/mdk/system_nrf52.c.obj
                0x00040a04                SystemInit
 .text          0x00040dd0       0x3c examples/light_switch/proxy_server/CMakeFiles/light_switch_proxy_server_nrf52832_xxAA_s132_6.0.0.dir/C_/b/nRF5_SDK_15.0.0_a53641a/modules/nrfx/mdk/gcc_startup_nrf52.S.obj
                0x00040dd0                Reset_Handler
                0x00040df8                NMI_Handler
                0x00040dfa                HardFault_Handler
                0x00040dfc                MemoryManagement_Handler
                0x00040dfe                BusFault_Handler
                0x00040e00                UsageFault_Handler
                0x00040e02                SVC_Handler
                0x00040e04                DebugMon_Handler
                0x00040e06                PendSV_Handler
                0x00040e08                SysTick_Handler
                0x00040e0a                PDM_IRQHandler
                0x00040e0a                TEMP_IRQHandler
                0x00040e0a                TIMER3_IRQHandler
                0x00040e0a                FPU_IRQHandler
                0x00040e0a                SPIM0_SPIS0_TWIM0_TWIS0_SPI0_TWI0_IRQHandler
                0x00040e0a                RADIO_IRQHandler
                0x00040e0a                UARTE0_UART0_IRQHandler
                0x00040e0a                TIMER4_IRQHandler
                0x00040e0a                I2S_IRQHandler
                0x00040e0a                SWI4_EGU4_IRQHandler
                0x00040e0a                TIMER0_IRQHandler
                0x00040e0a                RTC0_IRQHandler
                0x00040e0a                TIMER1_IRQHandler
                0x00040e0a                POWER_CLOCK_IRQHandler
                0x00040e0a                ECB_IRQHandler
                0x00040e0a                SPIM1_SPIS1_TWIM1_TWIS1_SPI1_TWI1_IRQHandler
                0x00040e0a                Default_Handler
                0x00040e0a                SAADC_IRQHandler
                0x00040e0a                CCM_AAR_IRQHandler
                0x00040e0a                WDT_IRQHandler
                0x00040e0a                SWI0_EGU0_IRQHandler
                0x00040e0a                SWI5_EGU5_IRQHandler
                0x00040e0a                RNG_IRQHandler
                0x00040e0a                RTC2_IRQHandler
                0x00040e0a                PWM0_IRQHandler
                0x00040e0a                SWI3_EGU3_IRQHandler
                0x00040e0a                RTC1_IRQHandler
                0x00040e0a                SWI1_EGU1_IRQHandler
                0x00040e0a                SPIM2_SPIS2_SPI2_IRQHandler
                0x00040e0a                NFCT_IRQHandler
                0x00040e0a                PWM1_IRQHandler
                0x00040e0a                MWU_IRQHandler
                0x00040e0a                PWM2_IRQHandler
                0x00040e0a                COMP_LPCOMP_IRQHandler
 .text.app_error_handler_bare
                0x00040e0c       0x20 examples/light_switch/proxy_server/CMakeFiles/light_switch_proxy_server_nrf52832_xxAA_s132_6.0.0.dir/C_/b/nRF5_SDK_15.0.0_a53641a/components/libraries/util/app_error.c.obj
                0x00040e0c                app_error_handler_bare
 .text.app_error_handler
                0x00040e2c       0x1c examples/light_switch/proxy_server/CMakeFiles/light_switch_proxy_server_nrf52832_xxAA_s132_6.0.0.dir/C_/b/nRF5_SDK_15.0.0_a53641a/components/libraries/util/app_error_handler_gcc.c.obj
                0x00040e2c                app_error_handler
 .text.SEGGER_RTT_Write
                0x00040e48      0x1e4 external/rtt/librtt_nrf52832_xxAA.a(SEGGER_RTT.c.obj)
                0x00040e48                SEGGER_RTT_Write
 .text.SEGGER_RTT_GetKey
                0x0004102c       0xec external/rtt/librtt_nrf52832_xxAA.a(SEGGER_RTT.c.obj)
                0x0004102c                SEGGER_RTT_GetKey
 .text._PrintUnsigned
                0x00041118      0x194 external/rtt/librtt_nrf52832_xxAA.a(SEGGER_RTT_printf.c.obj)
 .text.SEGGER_RTT_vprintf
                0x000412ac      0x464 external/rtt/librtt_nrf52832_xxAA.a(SEGGER_RTT_printf.c.obj)
                0x000412ac                SEGGER_RTT_vprintf
 .text.SEGGER_RTT_printf
                0x00041710       0x20 external/rtt/librtt_nrf52832_xxAA.a(SEGGER_RTT_printf.c.obj)
                0x00041710                SEGGER_RTT_printf
 .text.default_RNG
                0x00041730        0xc external/micro-ecc/libuECC_nrf52832_xxAA.a(uECC.c.obj)
 .text.uECC_generate_random_int
                0x0004173c      0x170 external/micro-ecc/libuECC_nrf52832_xxAA.a(uECC.c.obj)
 .text.apply_z  0x000418ac      0x1a8 external/micro-ecc/libuECC_nrf52832_xxAA.a(uECC.c.obj)
 .text.uECC_vli_modAdd
                0x00041a54       0xc8 external/micro-ecc/libuECC_nrf52832_xxAA.a(uECC.c.obj)
 .text.x_side_default
                0x00041b1c      0x254 external/micro-ecc/libuECC_nrf52832_xxAA.a(uECC.c.obj)
 .text.vli_mmod_fast_secp256r1
                0x00041d70      0x520 external/micro-ecc/libuECC_nrf52832_xxAA.a(uECC.c.obj)
 .text.XYcZ_add
                0x00042290      0x6dc external/micro-ecc/libuECC_nrf52832_xxAA.a(uECC.c.obj)
 .text.XYcZ_addC
                0x0004296c      0xa94 external/micro-ecc/libuECC_nrf52832_xxAA.a(uECC.c.obj)
 .text.uECC_vli_modInv.part.4
                0x00043400      0x6e8 external/micro-ecc/libuECC_nrf52832_xxAA.a(uECC.c.obj)
 .text.EccPoint_mult.constprop.5
                0x00043ae8      0x470 external/micro-ecc/libuECC_nrf52832_xxAA.a(uECC.c.obj)
 .text.double_jacobian_default
                0x00043f58      0x7ec external/micro-ecc/libuECC_nrf52832_xxAA.a(uECC.c.obj)
 .text.uECC_secp256r1
                0x00044744        0x8 external/micro-ecc/libuECC_nrf52832_xxAA.a(uECC.c.obj)
                0x00044744                uECC_secp256r1
 .text.uECC_make_key
                0x0004474c      0x23c external/micro-ecc/libuECC_nrf52832_xxAA.a(uECC.c.obj)
                0x0004474c                uECC_make_key
 .text.uECC_shared_secret
                0x00044988      0x788 external/micro-ecc/libuECC_nrf52832_xxAA.a(uECC.c.obj)
                0x00044988                uECC_shared_secret
 .text.uECC_valid_point
                0x00045110      0x134 external/micro-ecc/libuECC_nrf52832_xxAA.a(uECC.c.obj)
                0x00045110                uECC_valid_point
 .text.uECC_valid_public_key
                0x00045244       0xe8 external/micro-ecc/libuECC_nrf52832_xxAA.a(uECC.c.obj)
                0x00045244                uECC_valid_public_key
 .text          0x0004532c       0x30 c:/mesh/arm_gcc/bin/../lib/gcc/arm-none-eabi/6.3.1/thumb/v7e-m/fpv4-sp/hard\libgcc.a(_aeabi_uldivmod.o)
                0x0004532c                __aeabi_uldivmod
 .text          0x0004535c      0x2dc c:/mesh/arm_gcc/bin/../lib/gcc/arm-none-eabi/6.3.1/thumb/v7e-m/fpv4-sp/hard\libgcc.a(_udivmoddi4.o)
                0x0004535c                __udivmoddi4
 .text          0x00045638        0x4 c:/mesh/arm_gcc/bin/../lib/gcc/arm-none-eabi/6.3.1/thumb/v7e-m/fpv4-sp/hard\libgcc.a(_dvmd_tls.o)
                0x00045638                __aeabi_idiv0
                0x00045638                __aeabi_ldiv0
 .text.exit     0x0004563c       0x28 c:/mesh/arm_gcc/bin/../lib/gcc/arm-none-eabi/6.3.1/../../../../arm-none-eabi/lib/thumb/v7e-m/fpv4-sp/hard\libc_nano.a(lib_a-exit.o)
                0x0004563c                exit
 .text.__libc_init_array
                0x00045664       0x48 c:/mesh/arm_gcc/bin/../lib/gcc/arm-none-eabi/6.3.1/../../../../arm-none-eabi/lib/thumb/v7e-m/fpv4-sp/hard\libc_nano.a(lib_a-init.o)
                0x00045664                __libc_init_array
 .text.malloc   0x000456ac       0x10 c:/mesh/arm_gcc/bin/../lib/gcc/arm-none-eabi/6.3.1/../../../../arm-none-eabi/lib/thumb/v7e-m/fpv4-sp/hard\libc_nano.a(lib_a-malloc.o)
                0x000456ac                malloc
 .text.free     0x000456bc       0x10 c:/mesh/arm_gcc/bin/../lib/gcc/arm-none-eabi/6.3.1/../../../../arm-none-eabi/lib/thumb/v7e-m/fpv4-sp/hard\libc_nano.a(lib_a-malloc.o)
                0x000456bc                free
 .text.memcmp   0x000456cc       0x1e c:/mesh/arm_gcc/bin/../lib/gcc/arm-none-eabi/6.3.1/../../../../arm-none-eabi/lib/thumb/v7e-m/fpv4-sp/hard\libc_nano.a(lib_a-memcmp.o)
                0x000456cc                memcmp
 .text.memcpy   0x000456ea       0x16 c:/mesh/arm_gcc/bin/../lib/gcc/arm-none-eabi/6.3.1/../../../../arm-none-eabi/lib/thumb/v7e-m/fpv4-sp/hard\libc_nano.a(lib_a-memcpy-stub.o)
                0x000456ea                memcpy
 .text.memset   0x00045700       0x10 c:/mesh/arm_gcc/bin/../lib/gcc/arm-none-eabi/6.3.1/../../../../arm-none-eabi/lib/thumb/v7e-m/fpv4-sp/hard\libc_nano.a(lib_a-memset.o)
                0x00045700                memset
 .text._free_r  0x00045710       0x9c c:/mesh/arm_gcc/bin/../lib/gcc/arm-none-eabi/6.3.1/../../../../arm-none-eabi/lib/thumb/v7e-m/fpv4-sp/hard\libc_nano.a(lib_a-nano-freer.o)
                0x00045710                _free_r
 .text._malloc_r
                0x000457ac       0xbc c:/mesh/arm_gcc/bin/../lib/gcc/arm-none-eabi/6.3.1/../../../../arm-none-eabi/lib/thumb/v7e-m/fpv4-sp/hard\libc_nano.a(lib_a-nano-mallocr.o)
                0x000457ac                _malloc_r
 .text._sbrk_r  0x00045868       0x20 c:/mesh/arm_gcc/bin/../lib/gcc/arm-none-eabi/6.3.1/../../../../arm-none-eabi/lib/thumb/v7e-m/fpv4-sp/hard\libc_nano.a(lib_a-sbrkr.o)
                0x00045868                _sbrk_r
 .text.strcpy   0x00045888       0x10 c:/mesh/arm_gcc/bin/../lib/gcc/arm-none-eabi/6.3.1/../../../../arm-none-eabi/lib/thumb/v7e-m/fpv4-sp/hard\libc_nano.a(lib_a-strcpy.o)
                0x00045888                strcpy
 .text          0x00045898       0x10 c:/mesh/arm_gcc/bin/../lib/gcc/arm-none-eabi/6.3.1/../../../../arm-none-eabi/lib/thumb/v7e-m/fpv4-sp/hard\libc_nano.a(lib_a-strlen.o)
                0x00045898                strlen
 .text.strrchr  0x000458a8       0x26 c:/mesh/arm_gcc/bin/../lib/gcc/arm-none-eabi/6.3.1/../../../../arm-none-eabi/lib/thumb/v7e-m/fpv4-sp/hard\libc_nano.a(lib_a-strrchr.o)
                0x000458a8                strrchr
 .text.__malloc_lock
                0x000458ce        0x2 c:/mesh/arm_gcc/bin/../lib/gcc/arm-none-eabi/6.3.1/../../../../arm-none-eabi/lib/thumb/v7e-m/fpv4-sp/hard\libc_nano.a(lib_a-mlock.o)
                0x000458ce                __malloc_lock
 .text.__malloc_unlock
                0x000458d0        0x2 c:/mesh/arm_gcc/bin/../lib/gcc/arm-none-eabi/6.3.1/../../../../arm-none-eabi/lib/thumb/v7e-m/fpv4-sp/hard\libc_nano.a(lib_a-mlock.o)
                0x000458d0                __malloc_unlock
 .text.strchr   0x000458d2       0x1c c:/mesh/arm_gcc/bin/../lib/gcc/arm-none-eabi/6.3.1/../../../../arm-none-eabi/lib/thumb/v7e-m/fpv4-sp/hard\libc_nano.a(lib_a-strchr.o)
                0x000458d2                strchr
 *fill*         0x000458ee        0x2 
 .text._sbrk    0x000458f0       0x1c c:/mesh/arm_gcc/bin/../lib/gcc/arm-none-eabi/6.3.1/../../../../arm-none-eabi/lib/thumb/v7e-m/fpv4-sp/hard\libnosys.a(sbrk.o)
                0x000458f0                _sbrk
 .text._exit    0x0004590c        0x4 c:/mesh/arm_gcc/bin/../lib/gcc/arm-none-eabi/6.3.1/../../../../arm-none-eabi/lib/thumb/v7e-m/fpv4-sp/hard\libnosys.a(_exit.o)
                0x0004590c                _exit
 *(.init)
 .init          0x00045910        0x4 c:/mesh/arm_gcc/bin/../lib/gcc/arm-none-eabi/6.3.1/thumb/v7e-m/fpv4-sp/hard/crti.o
                0x00045910                _init
 .init          0x00045914        0x8 c:/mesh/arm_gcc/bin/../lib/gcc/arm-none-eabi/6.3.1/thumb/v7e-m/fpv4-sp/hard/crtn.o
 *(.fini)
 .fini          0x0004591c        0x4 c:/mesh/arm_gcc/bin/../lib/gcc/arm-none-eabi/6.3.1/thumb/v7e-m/fpv4-sp/hard/crti.o
                0x0004591c                _fini
 .fini          0x00045920        0x8 c:/mesh/arm_gcc/bin/../lib/gcc/arm-none-eabi/6.3.1/thumb/v7e-m/fpv4-sp/hard/crtn.o
 *crtbegin.o(.ctors)
 *crtbegin?.o(.ctors)
 *(EXCLUDE_FILE(*crtend.o *crtend?.o) .ctors)
 *(SORT(.ctors.*))
 *(.ctors)
 *crtbegin.o(.dtors)
 *crtbegin?.o(.dtors)
 *(EXCLUDE_FILE(*crtend.o *crtend?.o) .dtors)
 *(SORT(.dtors.*))
 *(.dtors)
 *(.rodata*)
 .rodata        0x00045928        0x4 examples/light_switch/proxy_server/CMakeFiles/light_switch_proxy_server_nrf52832_xxAA_s132_6.0.0.dir/src/main.c.obj
 .rodata.button_event_handler.str1.4
                0x0004592c       0x22 examples/light_switch/proxy_server/CMakeFiles/light_switch_proxy_server_nrf52832_xxAA_s132_6.0.0.dir/src/main.c.obj
 *fill*         0x0004594e        0x2 
 .rodata.main.str1.4
                0x00045950       0x64 examples/light_switch/proxy_server/CMakeFiles/light_switch_proxy_server_nrf52832_xxAA_s132_6.0.0.dir/src/main.c.obj
 .rodata.models_init_cb.str1.4
                0x000459b4       0x20 examples/light_switch/proxy_server/CMakeFiles/light_switch_proxy_server_nrf52832_xxAA_s132_6.0.0.dir/src/main.c.obj
 .rodata.node_reset.str1.4
                0x000459d4       0x19 examples/light_switch/proxy_server/CMakeFiles/light_switch_proxy_server_nrf52832_xxAA_s132_6.0.0.dir/src/main.c.obj
 *fill*         0x000459ed        0x3 
 .rodata.on_off_server_set_cb.str1.4
                0x000459f0       0x17 examples/light_switch/proxy_server/CMakeFiles/light_switch_proxy_server_nrf52832_xxAA_s132_6.0.0.dir/src/main.c.obj
 *fill*         0x00045a07        0x1 
 .rodata.provisioning_complete_cb.str1.4
                0x00045a08       0x67 examples/light_switch/proxy_server/CMakeFiles/light_switch_proxy_server_nrf52832_xxAA_s132_6.0.0.dir/src/main.c.obj
 *fill*         0x00045a6f        0x1 
 .rodata.static_auth_data.12154
                0x00045a70       0x10 examples/light_switch/proxy_server/CMakeFiles/light_switch_proxy_server_nrf52832_xxAA_s132_6.0.0.dir/src/main.c.obj
 .rodata        0x00045a80        0xb examples/light_switch/proxy_server/CMakeFiles/light_switch_proxy_server_nrf52832_xxAA_s132_6.0.0.dir/__/__/common/src/mesh_provisionee.c.obj
 *fill*         0x00045a8b        0x5 
 .rodata.delay_bytecode.8414
                0x00045a90        0x6 examples/light_switch/proxy_server/CMakeFiles/light_switch_proxy_server_nrf52832_xxAA_s132_6.0.0.dir/__/__/common/src/simple_hal.c.obj
 *fill*         0x00045a96        0x2 
 .rodata.m_pb_gatt_fsm_descriptor
                0x00045a98       0x24 examples/light_switch/proxy_server/CMakeFiles/light_switch_proxy_server_nrf52832_xxAA_s132_6.0.0.dir/__/__/__/mesh/prov/src/nrf_mesh_prov_bearer_gatt.c.obj
 .rodata.m_pb_gatt_fsm_transition_table
                0x00045abc       0x48 examples/light_switch/proxy_server/CMakeFiles/light_switch_proxy_server_nrf52832_xxAA_s132_6.0.0.dir/__/__/__/mesh/prov/src/nrf_mesh_prov_bearer_gatt.c.obj
 .rodata.pb_gatt_fsm_actions
                0x00045b04       0x24 examples/light_switch/proxy_server/CMakeFiles/light_switch_proxy_server_nrf52832_xxAA_s132_6.0.0.dir/__/__/__/mesh/prov/src/nrf_mesh_prov_bearer_gatt.c.obj
 .rodata.prov_bearer_interface.9812
                0x00045b28       0x14 examples/light_switch/proxy_server/CMakeFiles/light_switch_proxy_server_nrf52832_xxAA_s132_6.0.0.dir/__/__/__/mesh/prov/src/nrf_mesh_prov_bearer_gatt.c.obj
 .rodata.str1.4
                0x00045b3c      0x186 examples/light_switch/proxy_server/CMakeFiles/light_switch_proxy_server_nrf52832_xxAA_s132_6.0.0.dir/__/__/__/mesh/prov/src/nrf_mesh_prov_bearer_gatt.c.obj
 *fill*         0x00045cc2        0x2 
 .rodata        0x00045cc4        0x4 examples/light_switch/proxy_server/CMakeFiles/light_switch_proxy_server_nrf52832_xxAA_s132_6.0.0.dir/C_/b/nRF5_SDK_15.0.0_a53641a/components/softdevice/common/nrf_sdh.c.obj
 .rodata.sdh_req_observers
                0x00045cc8        0xc examples/light_switch/proxy_server/CMakeFiles/light_switch_proxy_server_nrf52832_xxAA_s132_6.0.0.dir/C_/b/nRF5_SDK_15.0.0_a53641a/components/softdevice/common/nrf_sdh.c.obj
 .rodata.sdh_stack_observers
                0x00045cd4        0xc examples/light_switch/proxy_server/CMakeFiles/light_switch_proxy_server_nrf52832_xxAA_s132_6.0.0.dir/C_/b/nRF5_SDK_15.0.0_a53641a/components/softdevice/common/nrf_sdh.c.obj
 .rodata.sdh_state_observers
                0x00045ce0        0xc examples/light_switch/proxy_server/CMakeFiles/light_switch_proxy_server_nrf52832_xxAA_s132_6.0.0.dir/C_/b/nRF5_SDK_15.0.0_a53641a/components/softdevice/common/nrf_sdh.c.obj
 .rodata.sdh_soc_observers
                0x00045cec        0xc examples/light_switch/proxy_server/CMakeFiles/light_switch_proxy_server_nrf52832_xxAA_s132_6.0.0.dir/C_/b/nRF5_SDK_15.0.0_a53641a/components/softdevice/common/nrf_sdh_soc.c.obj
 .rodata.sdh_ble_observers
                0x00045cf8        0xc examples/light_switch/proxy_server/CMakeFiles/light_switch_proxy_server_nrf52832_xxAA_s132_6.0.0.dir/C_/b/nRF5_SDK_15.0.0_a53641a/components/softdevice/common/nrf_sdh_ble.c.obj
 .rodata.app_error_fault_handler.str1.4
                0x00045d04       0xc5 examples/light_switch/proxy_server/CMakeFiles/light_switch_proxy_server_nrf52832_xxAA_s132_6.0.0.dir/__/__/common/src/app_error_weak.c.obj
 .rodata.mesh_assertion_handler.str1.4
                0x00045dc9       0xc5 examples/light_switch/proxy_server/CMakeFiles/light_switch_proxy_server_nrf52832_xxAA_s132_6.0.0.dir/__/__/common/src/assertion_handler_weak.c.obj
                                  0x1 (size before relaxing)
 *fill*         0x00045dc9        0x3 
 .rodata.sar_ctx_cancel.str1.4
                0x00045dcc       0x23 examples/light_switch/proxy_server/CMakeFiles/light_switch_proxy_server_nrf52832_xxAA_s132_6.0.0.dir/__/__/__/mesh/core/src/transport.c.obj
 *fill*         0x00045def        0x1 
 .rodata.transport_packet_in.str1.4
                0x00045df0       0x24 examples/light_switch/proxy_server/CMakeFiles/light_switch_proxy_server_nrf52832_xxAA_s132_6.0.0.dir/__/__/__/mesh/core/src/transport.c.obj
 .rodata.upper_transport_access_packet_in.str1.4
                0x00045e14       0x3d examples/light_switch/proxy_server/CMakeFiles/light_switch_proxy_server_nrf52832_xxAA_s132_6.0.0.dir/__/__/__/mesh/core/src/transport.c.obj
 *fill*         0x00045e51        0x3 
 .rodata.upper_transport_packet_in.str1.4
                0x00045e54       0x2e examples/light_switch/proxy_server/CMakeFiles/light_switch_proxy_server_nrf52832_xxAA_s132_6.0.0.dir/__/__/__/mesh/core/src/transport.c.obj
 *fill*         0x00045e82        0x2 
 .rodata.upper_transport_tx.part.25.str1.4
                0x00045e84       0x2e examples/light_switch/proxy_server/CMakeFiles/light_switch_proxy_server_nrf52832_xxAA_s132_6.0.0.dir/__/__/__/mesh/core/src/transport.c.obj
                                 0x38 (size before relaxing)
 *fill*         0x00045eb2        0x2 
 .rodata.m_procedure_steps
                0x00045eb4       0x28 examples/light_switch/proxy_server/CMakeFiles/light_switch_proxy_server_nrf52832_xxAA_s132_6.0.0.dir/__/__/__/mesh/core/src/flash_manager_defrag.c.obj
 .rodata.m_all_operations
                0x00045edc       0x10 examples/light_switch/proxy_server/CMakeFiles/light_switch_proxy_server_nrf52832_xxAA_s132_6.0.0.dir/__/__/__/mesh/core/src/mesh_flash.c.obj
 .rodata.types_lookup.9060
                0x00045eec        0x4 examples/light_switch/proxy_server/CMakeFiles/light_switch_proxy_server_nrf52832_xxAA_s132_6.0.0.dir/__/__/__/mesh/core/src/nrf_mesh_utils.c.obj
 .rodata.__func__.11555
                0x00045ef0       0x15 examples/light_switch/proxy_server/CMakeFiles/light_switch_proxy_server_nrf52832_xxAA_s132_6.0.0.dir/__/__/__/mesh/core/src/nrf_mesh.c.obj
 *fill*         0x00045f05        0x3 
 .rodata.nrf_mesh_listen.str1.4
                0x00045f08       0x73 examples/light_switch/proxy_server/CMakeFiles/light_switch_proxy_server_nrf52832_xxAA_s132_6.0.0.dir/__/__/__/mesh/core/src/nrf_mesh.c.obj
 .rodata.nrf_mesh_packet_send.str1.4
                0x00045f7b       0x73 examples/light_switch/proxy_server/CMakeFiles/light_switch_proxy_server_nrf52832_xxAA_s132_6.0.0.dir/__/__/__/mesh/core/src/nrf_mesh.c.obj
                                  0x4 (size before relaxing)
 *fill*         0x00045f7b        0x1 
 .rodata.CSWTCH.8
                0x00045f7c       0x20 examples/light_switch/proxy_server/CMakeFiles/light_switch_proxy_server_nrf52832_xxAA_s132_6.0.0.dir/__/__/__/mesh/core/src/hal.c.obj
 .rodata        0x00045f9c       0x18 examples/light_switch/proxy_server/CMakeFiles/light_switch_proxy_server_nrf52832_xxAA_s132_6.0.0.dir/__/__/__/mesh/core/src/enc.c.obj
 .rodata.network_packet_in.str1.4
                0x00045fb4       0x49 examples/light_switch/proxy_server/CMakeFiles/light_switch_proxy_server_nrf52832_xxAA_s132_6.0.0.dir/__/__/__/mesh/core/src/network.c.obj
 *fill*         0x00045ffd        0x3 
 .rodata.net_packet_decrypt.str1.4
                0x00046000       0x33 examples/light_switch/proxy_server/CMakeFiles/light_switch_proxy_server_nrf52832_xxAA_s132_6.0.0.dir/__/__/__/mesh/core/src/net_packet.c.obj
                                 0x3c (size before relaxing)
 *fill*         0x00046033        0x1 
 .rodata        0x00046034        0x7 examples/light_switch/proxy_server/CMakeFiles/light_switch_proxy_server_nrf52832_xxAA_s132_6.0.0.dir/__/__/__/mesh/core/src/nrf_mesh_keygen.c.obj
 *fill*         0x0004603b        0x1 
 .rodata.log_callback_rtt.str1.4
                0x0004603c       0x15 examples/light_switch/proxy_server/CMakeFiles/light_switch_proxy_server_nrf52832_xxAA_s132_6.0.0.dir/__/__/__/mesh/core/src/log.c.obj
 *fill*         0x00046051        0x3 
 .rodata.str1.4
                0x00046054       0x11 examples/light_switch/proxy_server/CMakeFiles/light_switch_proxy_server_nrf52832_xxAA_s132_6.0.0.dir/__/__/__/mesh/core/src/log.c.obj
 *fill*         0x00046065        0x3 
 .rodata.INVALID_HEADER
                0x00046068        0x4 examples/light_switch/proxy_server/CMakeFiles/light_switch_proxy_server_nrf52832_xxAA_s132_6.0.0.dir/__/__/__/mesh/core/src/flash_manager.c.obj
                0x00046068                INVALID_HEADER
 .rodata.PADDING_HEADER
                0x0004606c        0x4 examples/light_switch/proxy_server/CMakeFiles/light_switch_proxy_server_nrf52832_xxAA_s132_6.0.0.dir/__/__/__/mesh/core/src/flash_manager.c.obj
                0x0004606c                PADDING_HEADER
 .rodata.SEAL_HEADER
                0x00046070        0x4 examples/light_switch/proxy_server/CMakeFiles/light_switch_proxy_server_nrf52832_xxAA_s132_6.0.0.dir/__/__/__/mesh/core/src/flash_manager.c.obj
                0x00046070                SEAL_HEADER
 .rodata.beacon_packet_in.str1.4
                0x00046074       0x55 examples/light_switch/proxy_server/CMakeFiles/light_switch_proxy_server_nrf52832_xxAA_s132_6.0.0.dir/__/__/__/mesh/core/src/beacon.c.obj
                                 0x60 (size before relaxing)
 *fill*         0x000460c9        0x3 
 .rodata.cp_handler
                0x000460cc        0x8 examples/light_switch/proxy_server/CMakeFiles/light_switch_proxy_server_nrf52832_xxAA_s132_6.0.0.dir/__/__/__/mesh/core/src/heartbeat.c.obj
 .rodata.beacon_tx.str1.4
                0x000460d4       0x37 examples/light_switch/proxy_server/CMakeFiles/light_switch_proxy_server_nrf52832_xxAA_s132_6.0.0.dir/__/__/__/mesh/core/src/net_beacon.c.obj
 *fill*         0x0004610b        0x1 
 .rodata.net_beacon_init.str1.4
                0x0004610c        0x5 examples/light_switch/proxy_server/CMakeFiles/light_switch_proxy_server_nrf52832_xxAA_s132_6.0.0.dir/__/__/__/mesh/core/src/net_beacon.c.obj
 *fill*         0x00046111        0x3 
 .rodata.fsm_event_post.str1.4
                0x00046114        0xb examples/light_switch/proxy_server/CMakeFiles/light_switch_proxy_server_nrf52832_xxAA_s132_6.0.0.dir/__/__/__/mesh/core/src/fsm.c.obj
 *fill*         0x0004611f        0x1 
 .rodata.fsm_event_post_try.str1.4
                0x00046120       0x44 examples/light_switch/proxy_server/CMakeFiles/light_switch_proxy_server_nrf52832_xxAA_s132_6.0.0.dir/__/__/__/mesh/core/src/fsm.c.obj
 .rodata.fsm_init.str1.4
                0x00046164        0xa examples/light_switch/proxy_server/CMakeFiles/light_switch_proxy_server_nrf52832_xxAA_s132_6.0.0.dir/__/__/__/mesh/core/src/fsm.c.obj
 *fill*         0x0004616e        0x2 
 .rodata.m_interface
                0x00046170        0xc examples/light_switch/proxy_server/CMakeFiles/light_switch_proxy_server_nrf52832_xxAA_s132_6.0.0.dir/__/__/__/mesh/core/src/core_tx_adv.c.obj
 .rodata.radio_mode_to_us_per_byte.9453
                0x0004617c        0x6 examples/light_switch/proxy_server/CMakeFiles/light_switch_proxy_server_nrf52832_xxAA_s132_6.0.0.dir/__/__/__/mesh/bearer/src/broadcast.c.obj
 *fill*         0x00046182        0x2 
 .rodata.channel_rf_offsets.8694
                0x00046184       0x28 examples/light_switch/proxy_server/CMakeFiles/light_switch_proxy_server_nrf52832_xxAA_s132_6.0.0.dir/__/__/__/mesh/bearer/src/radio_config.c.obj
 .rodata        0x000461ac        0x6 examples/light_switch/proxy_server/CMakeFiles/light_switch_proxy_server_nrf52832_xxAA_s132_6.0.0.dir/__/__/__/mesh/gatt/src/proxy.c.obj
 *fill*         0x000461b2        0x2 
 .rodata.gatt_evt_handler.str1.4
                0x000461b4       0xea examples/light_switch/proxy_server/CMakeFiles/light_switch_proxy_server_nrf52832_xxAA_s132_6.0.0.dir/__/__/__/mesh/gatt/src/proxy.c.obj
 *fill*         0x0004629e        0x2 
 .rodata.m_interface
                0x000462a0        0xc examples/light_switch/proxy_server/CMakeFiles/light_switch_proxy_server_nrf52832_xxAA_s132_6.0.0.dir/__/__/__/mesh/gatt/src/proxy.c.obj
 .rodata.m_opcode_handlers
                0x000462ac       0x18 examples/light_switch/proxy_server/CMakeFiles/light_switch_proxy_server_nrf52832_xxAA_s132_6.0.0.dir/__/__/__/models/simple_on_off/src/simple_on_off_server.c.obj
 .rodata        0x000462c4        0x8 examples/light_switch/proxy_server/CMakeFiles/light_switch_proxy_server_nrf52832_xxAA_s132_6.0.0.dir/__/__/__/models/config/src/config_server.c.obj
 .rodata.CSWTCH.126
                0x000462cc       0x10 examples/light_switch/proxy_server/CMakeFiles/light_switch_proxy_server_nrf52832_xxAA_s132_6.0.0.dir/__/__/__/models/config/src/config_server.c.obj
 .rodata.opcode_handlers
                0x000462dc      0x170 examples/light_switch/proxy_server/CMakeFiles/light_switch_proxy_server_nrf52832_xxAA_s132_6.0.0.dir/__/__/__/models/config/src/config_server.c.obj
 .rodata.m_opcode_handlers
                0x0004644c       0x58 examples/light_switch/proxy_server/CMakeFiles/light_switch_proxy_server_nrf52832_xxAA_s132_6.0.0.dir/__/__/__/models/health/src/health_server.c.obj
 .rodata.multiply_de_bruijn_bit_position.9305
                0x000464a4       0x20 examples/light_switch/proxy_server/CMakeFiles/light_switch_proxy_server_nrf52832_xxAA_s132_6.0.0.dir/__/__/__/models/health/src/health_server.c.obj
 .rodata.access_model_publish.str1.4
                0x000464c4       0x1c examples/light_switch/proxy_server/CMakeFiles/light_switch_proxy_server_nrf52832_xxAA_s132_6.0.0.dir/__/__/__/mesh/access/src/access.c.obj
                                 0x24 (size before relaxing)
 .rodata.mesh_evt_cb.str1.4
                0x000464e0       0x2f examples/light_switch/proxy_server/CMakeFiles/light_switch_proxy_server_nrf52832_xxAA_s132_6.0.0.dir/__/__/__/mesh/access/src/access.c.obj
 *fill*         0x0004650f        0x1 
 .rodata.multiply_de_bruijn_bit_position.9261
                0x00046510       0x20 examples/light_switch/proxy_server/CMakeFiles/light_switch_proxy_server_nrf52832_xxAA_s132_6.0.0.dir/__/__/__/mesh/access/src/access.c.obj
 .rodata.m_flash_groups
                0x00046530       0xa8 examples/light_switch/proxy_server/CMakeFiles/light_switch_proxy_server_nrf52832_xxAA_s132_6.0.0.dir/__/__/__/mesh/access/src/device_state_manager.c.obj
 .rodata.multiply_de_bruijn_bit_position.9367
                0x000465d8       0x20 examples/light_switch/proxy_server/CMakeFiles/light_switch_proxy_server_nrf52832_xxAA_s132_6.0.0.dir/__/__/__/mesh/access/src/device_state_manager.c.obj
 .rodata.m_prov_callbacks
                0x000465f8       0x10 examples/light_switch/proxy_server/CMakeFiles/light_switch_proxy_server_nrf52832_xxAA_s132_6.0.0.dir/__/__/__/mesh/prov/src/prov_provisionee.c.obj
 .rodata.prov_provisionee_cb_ack_received.str1.4
                0x00046608       0x53 examples/light_switch/proxy_server/CMakeFiles/light_switch_proxy_server_nrf52832_xxAA_s132_6.0.0.dir/__/__/__/mesh/prov/src/prov_provisionee.c.obj
 *fill*         0x0004665b        0x1 
 .rodata.multiply_de_bruijn_bit_position.9314
                0x0004665c       0x20 examples/light_switch/proxy_server/CMakeFiles/light_switch_proxy_server_nrf52832_xxAA_s132_6.0.0.dir/__/__/__/mesh/prov/src/nrf_mesh_prov.c.obj
 .rodata.pdu_sizes.11239
                0x0004667c        0xa examples/light_switch/proxy_server/CMakeFiles/light_switch_proxy_server_nrf52832_xxAA_s132_6.0.0.dir/__/__/__/mesh/prov/src/provisioning.c.obj
 *fill*         0x00046686        0x2 
 .rodata.alphanumeric.11344
                0x00046688       0x25 examples/light_switch/proxy_server/CMakeFiles/light_switch_proxy_server_nrf52832_xxAA_s132_6.0.0.dir/__/__/__/mesh/prov/src/prov_utils.c.obj
 *fill*         0x000466ad        0x3 
 .rodata.numeric_max.11338
                0x000466b0       0x24 examples/light_switch/proxy_server/CMakeFiles/light_switch_proxy_server_nrf52832_xxAA_s132_6.0.0.dir/__/__/__/mesh/prov/src/prov_utils.c.obj
 .rodata.prov_utils_authentication_values_derive.str1.4
                0x000466d4        0x5 examples/light_switch/proxy_server/CMakeFiles/light_switch_proxy_server_nrf52832_xxAA_s132_6.0.0.dir/__/__/__/mesh/prov/src/prov_utils.c.obj
 *fill*         0x000466d9        0x3 
 .rodata.prov_utils_derive_keys.str1.4
                0x000466dc       0x15 examples/light_switch/proxy_server/CMakeFiles/light_switch_proxy_server_nrf52832_xxAA_s132_6.0.0.dir/__/__/__/mesh/prov/src/prov_utils.c.obj
 *fill*         0x000466f1        0x3 
 .rodata.crctable.10973
                0x000466f4      0x100 examples/light_switch/proxy_server/CMakeFiles/light_switch_proxy_server_nrf52832_xxAA_s132_6.0.0.dir/__/__/__/mesh/prov/src/prov_bearer_adv.c.obj
 .rodata.interface.11203
                0x000467f4       0x14 examples/light_switch/proxy_server/CMakeFiles/light_switch_proxy_server_nrf52832_xxAA_s132_6.0.0.dir/__/__/__/mesh/prov/src/prov_bearer_adv.c.obj
 .rodata.prov_bearer_adv_listen.str1.4
                0x00046808       0x50 examples/light_switch/proxy_server/CMakeFiles/light_switch_proxy_server_nrf52832_xxAA_s132_6.0.0.dir/__/__/__/mesh/prov/src/prov_bearer_adv.c.obj
 .rodata.prov_bearer_adv_packet_in.str1.4
                0x00046858      0x283 examples/light_switch/proxy_server/CMakeFiles/light_switch_proxy_server_nrf52832_xxAA_s132_6.0.0.dir/__/__/__/mesh/prov/src/prov_bearer_adv.c.obj
 *fill*         0x00046adb        0x1 
 .rodata.tx_retry_cb.str1.4
                0x00046adc       0x14 examples/light_switch/proxy_server/CMakeFiles/light_switch_proxy_server_nrf52832_xxAA_s132_6.0.0.dir/__/__/__/mesh/prov/src/prov_bearer_adv.c.obj
 .rodata.SEGGER_RTT_ReadNoLock.str1.4
                0x00046af0       0x18 external/rtt/librtt_nrf52832_xxAA.a(SEGGER_RTT.c.obj)
                                 0x17 (size before relaxing)
 .rodata._aV2C.5497
                0x00046b08       0x10 external/rtt/librtt_nrf52832_xxAA.a(SEGGER_RTT_printf.c.obj)
 .rodata.curve_secp256r1
                0x00046b18       0xb0 external/micro-ecc/libuECC_nrf52832_xxAA.a(uECC.c.obj)
 .rodata._global_impure_ptr
                0x00046bc8        0x4 c:/mesh/arm_gcc/bin/../lib/gcc/arm-none-eabi/6.3.1/../../../../arm-none-eabi/lib/thumb/v7e-m/fpv4-sp/hard\libc_nano.a(lib_a-impure.o)
                0x00046bc8                _global_impure_ptr
 *(.eh_frame*)
 .eh_frame      0x00046bcc        0x0 c:/mesh/arm_gcc/bin/../lib/gcc/arm-none-eabi/6.3.1/thumb/v7e-m/fpv4-sp/hard/crtbegin.o
 .eh_frame      0x00046bcc        0x4 c:/mesh/arm_gcc/bin/../lib/gcc/arm-none-eabi/6.3.1/thumb/v7e-m/fpv4-sp/hard/crtend.o

.glue_7         0x00046bd0        0x0
 .glue_7        0x00046bd0        0x0 linker stubs

.glue_7t        0x00046bd0        0x0
 .glue_7t       0x00046bd0        0x0 linker stubs

.vfp11_veneer   0x00046bd0        0x0
 .vfp11_veneer  0x00046bd0        0x0 linker stubs

.v4_bx          0x00046bd0        0x0
 .v4_bx         0x00046bd0        0x0 linker stubs

.iplt           0x00046bd0        0x0
 .iplt          0x00046bd0        0x0 c:/mesh/arm_gcc/bin/../lib/gcc/arm-none-eabi/6.3.1/thumb/v7e-m/fpv4-sp/hard/crtbegin.o

.pwr_mgmt_data  0x00046bd0        0x0
                [!provide]                PROVIDE (__start_pwr_mgmt_data, .)
 *(SORT(.pwr_mgmt_data*))
                [!provide]                PROVIDE (__stop_pwr_mgmt_data, .)

.log_const_data
                0x00046bd0        0x0
                [!provide]                PROVIDE (__start_log_const_data, .)
 *(.log_const_data)
                [!provide]                PROVIDE (__stop_log_const_data, .)

.cli_command    0x00046bd0        0x0
                [!provide]                PROVIDE (__start_cli_command, .)
 *(.cli_command)
                [!provide]                PROVIDE (__stop_cli_command, .)

.sdh_stack_observers
                0x00046bd0       0x10
                0x00046bd0                PROVIDE (__start_sdh_stack_observers, .)
 *(SORT(.sdh_stack_observers*))
 .sdh_stack_observers0
                0x00046bd0        0x8 examples/light_switch/proxy_server/CMakeFiles/light_switch_proxy_server_nrf52832_xxAA_s132_6.0.0.dir/C_/b/nRF5_SDK_15.0.0_a53641a/components/softdevice/common/nrf_sdh_soc.c.obj
 .sdh_stack_observers0
                0x00046bd8        0x8 examples/light_switch/proxy_server/CMakeFiles/light_switch_proxy_server_nrf52832_xxAA_s132_6.0.0.dir/C_/b/nRF5_SDK_15.0.0_a53641a/components/softdevice/common/nrf_sdh_ble.c.obj
                0x00046be0                PROVIDE (__stop_sdh_stack_observers, .)

.sdh_req_observers
                0x00046be0        0x0
                0x00046be0                PROVIDE (__start_sdh_req_observers, .)
 *(SORT(.sdh_req_observers*))
                0x00046be0                PROVIDE (__stop_sdh_req_observers, .)

.sdh_state_observers
                0x00046be0        0x8
                0x00046be0                PROVIDE (__start_sdh_state_observers, .)
 *(SORT(.sdh_state_observers*))
 .sdh_state_observers1
                0x00046be0        0x8 examples/light_switch/proxy_server/CMakeFiles/light_switch_proxy_server_nrf52832_xxAA_s132_6.0.0.dir/__/__/common/src/mesh_provisionee.c.obj
                0x00046be8                PROVIDE (__stop_sdh_state_observers, .)

.sdh_ant_observers
                0x00046be8        0x0
                [!provide]                PROVIDE (__start_sdh_ant_observers, .)
 *(SORT(.sdh_ant_observers*))
                [!provide]                PROVIDE (__stop_sdh_ant_observers, .)

.sdh_ble_observers
                0x00046be8        0x8
                0x00046be8                PROVIDE (__start_sdh_ble_observers, .)
 *(SORT(.sdh_ble_observers*))
 .sdh_ble_observers2
                0x00046be8        0x8 examples/light_switch/proxy_server/CMakeFiles/light_switch_proxy_server_nrf52832_xxAA_s132_6.0.0.dir/__/__/__/mesh/gatt/src/mesh_gatt.c.obj
                0x00046bf0                PROVIDE (__stop_sdh_ble_observers, .)

.sdh_soc_observers
                0x00046bf0        0x8
                0x00046bf0                PROVIDE (__start_sdh_soc_observers, .)
 *(SORT(.sdh_soc_observers*))
 .sdh_soc_observers0
                0x00046bf0        0x8 examples/light_switch/proxy_server/CMakeFiles/light_switch_proxy_server_nrf52832_xxAA_s132_6.0.0.dir/src/main.c.obj
                0x00046bf8                PROVIDE (__stop_sdh_soc_observers, .)

.ARM.extab
 *(.ARM.extab* .gnu.linkonce.armextab.*)
                0x00046bf8                __exidx_start = .

.ARM.exidx      0x00046bf8        0x8
 *(.ARM.exidx* .gnu.linkonce.armexidx.*)
 .ARM.exidx     0x00046bf8        0x8 c:/mesh/arm_gcc/bin/../lib/gcc/arm-none-eabi/6.3.1/../../../../arm-none-eabi/lib/thumb/v7e-m/fpv4-sp/hard/crt0.o
 .ARM.exidx     0x00046c00        0x0 c:/mesh/arm_gcc/bin/../lib/gcc/arm-none-eabi/6.3.1/thumb/v7e-m/fpv4-sp/hard\libgcc.a(_udivmoddi4.o)
                                  0x8 (size before relaxing)
                0x00046c00                __exidx_end = .
                0x00046c00                __etext = .

.rel.dyn        0x00046c00        0x0
 .rel.iplt      0x00046c00        0x0 c:/mesh/arm_gcc/bin/../lib/gcc/arm-none-eabi/6.3.1/thumb/v7e-m/fpv4-sp/hard/crtbegin.o

.data           0x200032c8      0x1c4 load address 0x00046c00
                0x200032c8                __data_start__ = .
 *(vtable)
 *(.data*)
 .data.s_evt_handler.11079
                0x200032c8        0x8 examples/light_switch/proxy_server/CMakeFiles/light_switch_proxy_server_nrf52832_xxAA_s132_6.0.0.dir/__/__/__/mesh/stack/src/mesh_stack.c.obj
 .data.m_adv_handle
                0x200032d0        0x1 examples/light_switch/proxy_server/CMakeFiles/light_switch_proxy_server_nrf52832_xxAA_s132_6.0.0.dir/__/__/common/src/mesh_adv.c.obj
 *fill*         0x200032d1        0x3 
 .data.m_adv_params
                0x200032d4       0x18 examples/light_switch/proxy_server/CMakeFiles/light_switch_proxy_server_nrf52832_xxAA_s132_6.0.0.dir/__/__/common/src/mesh_adv.c.obj
 .data.m_action_lookup_table
                0x200032ec       0x24 examples/light_switch/proxy_server/CMakeFiles/light_switch_proxy_server_nrf52832_xxAA_s132_6.0.0.dir/__/__/__/mesh/prov/src/nrf_mesh_prov_bearer_gatt.c.obj
 .data.m_event_lookup_table
                0x20003310       0x2c examples/light_switch/proxy_server/CMakeFiles/light_switch_proxy_server_nrf52832_xxAA_s132_6.0.0.dir/__/__/__/mesh/prov/src/nrf_mesh_prov_bearer_gatt.c.obj
 .data.m_guard_lookup_table
                0x2000333c        0x4 examples/light_switch/proxy_server/CMakeFiles/light_switch_proxy_server_nrf52832_xxAA_s132_6.0.0.dir/__/__/__/mesh/prov/src/nrf_mesh_prov_bearer_gatt.c.obj
 .data.m_state_lookup_table
                0x20003340       0x10 examples/light_switch/proxy_server/CMakeFiles/light_switch_proxy_server_nrf52832_xxAA_s132_6.0.0.dir/__/__/__/mesh/prov/src/nrf_mesh_prov_bearer_gatt.c.obj
 .data.wait.8936
                0x20003350        0x1 examples/light_switch/proxy_server/CMakeFiles/light_switch_proxy_server_nrf52832_xxAA_s132_6.0.0.dir/__/__/common/src/app_error_weak.c.obj
 *fill*         0x20003351        0x3 
 .data.mem_listener.9811
                0x20003354       0x10 examples/light_switch/proxy_server/CMakeFiles/light_switch_proxy_server_nrf52832_xxAA_s132_6.0.0.dir/__/__/__/mesh/core/src/net_state.c.obj
 .data.mem_listener.9816
                0x20003364       0x10 examples/light_switch/proxy_server/CMakeFiles/light_switch_proxy_server_nrf52832_xxAA_s132_6.0.0.dir/__/__/__/mesh/core/src/net_state.c.obj
 .data.mem_listener.9830
                0x20003374       0x10 examples/light_switch/proxy_server/CMakeFiles/light_switch_proxy_server_nrf52832_xxAA_s132_6.0.0.dir/__/__/__/mesh/core/src/net_state.c.obj
 .data.mem_listener.9847
                0x20003384       0x10 examples/light_switch/proxy_server/CMakeFiles/light_switch_proxy_server_nrf52832_xxAA_s132_6.0.0.dir/__/__/__/mesh/core/src/net_state.c.obj
 .data.m_nrf_mesh_listener
                0x20003394        0xc examples/light_switch/proxy_server/CMakeFiles/light_switch_proxy_server_nrf52832_xxAA_s132_6.0.0.dir/__/__/__/mesh/core/src/nrf_mesh.c.obj
 .data.g_log_dbg_lvl
                0x200033a0        0x4 examples/light_switch/proxy_server/CMakeFiles/light_switch_proxy_server_nrf52832_xxAA_s132_6.0.0.dir/__/__/__/mesh/core/src/log.c.obj
                0x200033a0                g_log_dbg_lvl
 .data.g_log_dbg_msk
                0x200033a4        0x4 examples/light_switch/proxy_server/CMakeFiles/light_switch_proxy_server_nrf52832_xxAA_s132_6.0.0.dir/__/__/__/mesh/core/src/log.c.obj
                0x200033a4                g_log_dbg_msk
 .data.g_log_hex_digits
                0x200033a8        0x4 examples/light_switch/proxy_server/CMakeFiles/light_switch_proxy_server_nrf52832_xxAA_s132_6.0.0.dir/__/__/__/mesh/core/src/log.c.obj
                0x200033a8                g_log_hex_digits
 .data.m_log_callback
                0x200033ac        0x4 examples/light_switch/proxy_server/CMakeFiles/light_switch_proxy_server_nrf52832_xxAA_s132_6.0.0.dir/__/__/__/mesh/core/src/log.c.obj
                0x200033ac                m_log_callback
 .data.m_config_server_handle
                0x200033b0        0x2 examples/light_switch/proxy_server/CMakeFiles/light_switch_proxy_server_nrf52832_xxAA_s132_6.0.0.dir/__/__/__/models/config/src/config_server.c.obj
 *fill*         0x200033b2        0x2 
 .data.m_mesh_evt_handler
                0x200033b4        0x8 examples/light_switch/proxy_server/CMakeFiles/light_switch_proxy_server_nrf52832_xxAA_s132_6.0.0.dir/__/__/__/models/config/src/config_server.c.obj
 .data.flash_add_mem_available_struct.10385
                0x200033bc       0x10 examples/light_switch/proxy_server/CMakeFiles/light_switch_proxy_server_nrf52832_xxAA_s132_6.0.0.dir/__/__/__/mesh/access/src/access.c.obj
 .data.flash_clear_mem_available_struct.10474
                0x200033cc       0x10 examples/light_switch/proxy_server/CMakeFiles/light_switch_proxy_server_nrf52832_xxAA_s132_6.0.0.dir/__/__/__/mesh/access/src/access.c.obj
 .data.flash_store_mem_available_struct.10498
                0x200033dc       0x10 examples/light_switch/proxy_server/CMakeFiles/light_switch_proxy_server_nrf52832_xxAA_s132_6.0.0.dir/__/__/__/mesh/access/src/access.c.obj
 .data.m_default_ttl
                0x200033ec        0x1 examples/light_switch/proxy_server/CMakeFiles/light_switch_proxy_server_nrf52832_xxAA_s132_6.0.0.dir/__/__/__/mesh/access/src/access.c.obj
 *fill*         0x200033ed        0x3 
 .data.mem_listener.10675
                0x200033f0       0x10 examples/light_switch/proxy_server/CMakeFiles/light_switch_proxy_server_nrf52832_xxAA_s132_6.0.0.dir/__/__/__/mesh/access/src/device_state_manager.c.obj
 .data.mem_listener.10701
                0x20003400       0x10 examples/light_switch/proxy_server/CMakeFiles/light_switch_proxy_server_nrf52832_xxAA_s132_6.0.0.dir/__/__/__/mesh/access/src/device_state_manager.c.obj
 .data.m_async_process_flag
                0x20003410        0x4 examples/light_switch/proxy_server/CMakeFiles/light_switch_proxy_server_nrf52832_xxAA_s132_6.0.0.dir/__/__/__/mesh/prov/src/prov_bearer_adv.c.obj
 .data.SystemCoreClock
                0x20003414        0x4 examples/light_switch/proxy_server/CMakeFiles/light_switch_proxy_server_nrf52832_xxAA_s132_6.0.0.dir/C_/b/nRF5_SDK_15.0.0_a53641a/modules/nrfx/mdk/system_nrf52.c.obj
                0x20003414                SystemCoreClock
 .data.g_rng_function
                0x20003418        0x4 external/micro-ecc/libuECC_nrf52832_xxAA.a(uECC.c.obj)
 .data._impure_ptr
                0x2000341c        0x4 c:/mesh/arm_gcc/bin/../lib/gcc/arm-none-eabi/6.3.1/../../../../arm-none-eabi/lib/thumb/v7e-m/fpv4-sp/hard\libc_nano.a(lib_a-impure.o)
                0x2000341c                _impure_ptr
 .data.impure_data
                0x20003420       0x60 c:/mesh/arm_gcc/bin/../lib/gcc/arm-none-eabi/6.3.1/../../../../arm-none-eabi/lib/thumb/v7e-m/fpv4-sp/hard\libc_nano.a(lib_a-impure.o)
                0x20003480                . = ALIGN (0x4)
                0x20003480                PROVIDE (__preinit_array_start, .)
 *(.preinit_array)
                0x20003480                PROVIDE (__preinit_array_end, .)
                0x20003480                . = ALIGN (0x4)
                0x20003480                PROVIDE (__init_array_start, .)
 *(SORT(.init_array.*))
 *(.init_array)
 .init_array    0x20003480        0x4 c:/mesh/arm_gcc/bin/../lib/gcc/arm-none-eabi/6.3.1/thumb/v7e-m/fpv4-sp/hard/crtbegin.o
                0x20003484                PROVIDE (__init_array_end, .)
                0x20003484                . = ALIGN (0x4)
                [!provide]                PROVIDE (__fini_array_start, .)
 *(SORT(.fini_array.*))
 *(.fini_array)
 .fini_array    0x20003484        0x4 c:/mesh/arm_gcc/bin/../lib/gcc/arm-none-eabi/6.3.1/thumb/v7e-m/fpv4-sp/hard/crtbegin.o
                [!provide]                PROVIDE (__fini_array_end, .)
 *(.jcr*)
 .jcr           0x20003488        0x0 c:/mesh/arm_gcc/bin/../lib/gcc/arm-none-eabi/6.3.1/thumb/v7e-m/fpv4-sp/hard/crtbegin.o
 .jcr           0x20003488        0x4 c:/mesh/arm_gcc/bin/../lib/gcc/arm-none-eabi/6.3.1/thumb/v7e-m/fpv4-sp/hard/crtend.o
                0x2000348c                . = ALIGN (0x4)
                0x2000348c                __data_end__ = .
LOAD c:/mesh/arm_gcc/bin/../lib/gcc/arm-none-eabi/6.3.1/thumb/v7e-m/fpv4-sp/hard/crti.o
LOAD c:/mesh/arm_gcc/bin/../lib/gcc/arm-none-eabi/6.3.1/thumb/v7e-m/fpv4-sp/hard/crtbegin.o
LOAD c:/mesh/arm_gcc/bin/../lib/gcc/arm-none-eabi/6.3.1/../../../../arm-none-eabi/lib/thumb/v7e-m/fpv4-sp/hard/crt0.o
LOAD examples/light_switch/proxy_server/CMakeFiles/light_switch_proxy_server_nrf52832_xxAA_s132_6.0.0.dir/src/main.c.obj
LOAD examples/light_switch/proxy_server/CMakeFiles/light_switch_proxy_server_nrf52832_xxAA_s132_6.0.0.dir/__/__/__/mesh/stack/src/mesh_stack.c.obj
LOAD examples/light_switch/proxy_server/CMakeFiles/light_switch_proxy_server_nrf52832_xxAA_s132_6.0.0.dir/__/__/common/src/mesh_provisionee.c.obj
LOAD examples/light_switch/proxy_server/CMakeFiles/light_switch_proxy_server_nrf52832_xxAA_s132_6.0.0.dir/__/__/common/src/rtt_input.c.obj
LOAD examples/light_switch/proxy_server/CMakeFiles/light_switch_proxy_server_nrf52832_xxAA_s132_6.0.0.dir/__/__/common/src/simple_hal.c.obj
LOAD examples/light_switch/proxy_server/CMakeFiles/light_switch_proxy_server_nrf52832_xxAA_s132_6.0.0.dir/__/__/common/src/mesh_app_utils.c.obj
LOAD examples/light_switch/proxy_server/CMakeFiles/light_switch_proxy_server_nrf52832_xxAA_s132_6.0.0.dir/__/__/common/src/mesh_adv.c.obj
LOAD examples/light_switch/proxy_server/CMakeFiles/light_switch_proxy_server_nrf52832_xxAA_s132_6.0.0.dir/__/__/__/mesh/prov/src/nrf_mesh_prov_bearer_gatt.c.obj
LOAD examples/light_switch/proxy_server/CMakeFiles/light_switch_proxy_server_nrf52832_xxAA_s132_6.0.0.dir/C_/b/nRF5_SDK_15.0.0_a53641a/components/libraries/util/app_util_platform.c.obj
LOAD examples/light_switch/proxy_server/CMakeFiles/light_switch_proxy_server_nrf52832_xxAA_s132_6.0.0.dir/C_/b/nRF5_SDK_15.0.0_a53641a/components/ble/common/ble_advdata.c.obj
LOAD examples/light_switch/proxy_server/CMakeFiles/light_switch_proxy_server_nrf52832_xxAA_s132_6.0.0.dir/C_/b/nRF5_SDK_15.0.0_a53641a/components/libraries/experimental_section_vars/nrf_section_iter.c.obj
LOAD examples/light_switch/proxy_server/CMakeFiles/light_switch_proxy_server_nrf52832_xxAA_s132_6.0.0.dir/C_/b/nRF5_SDK_15.0.0_a53641a/components/softdevice/common/nrf_sdh.c.obj
LOAD examples/light_switch/proxy_server/CMakeFiles/light_switch_proxy_server_nrf52832_xxAA_s132_6.0.0.dir/C_/b/nRF5_SDK_15.0.0_a53641a/components/softdevice/common/nrf_sdh_soc.c.obj
LOAD examples/light_switch/proxy_server/CMakeFiles/light_switch_proxy_server_nrf52832_xxAA_s132_6.0.0.dir/C_/b/nRF5_SDK_15.0.0_a53641a/components/softdevice/common/nrf_sdh_ble.c.obj
LOAD examples/light_switch/proxy_server/CMakeFiles/light_switch_proxy_server_nrf52832_xxAA_s132_6.0.0.dir/__/__/nrf_mesh_weak.c.obj
LOAD examples/light_switch/proxy_server/CMakeFiles/light_switch_proxy_server_nrf52832_xxAA_s132_6.0.0.dir/__/__/common/src/app_error_weak.c.obj
LOAD examples/light_switch/proxy_server/CMakeFiles/light_switch_proxy_server_nrf52832_xxAA_s132_6.0.0.dir/__/__/common/src/assertion_handler_weak.c.obj
LOAD examples/light_switch/proxy_server/CMakeFiles/light_switch_proxy_server_nrf52832_xxAA_s132_6.0.0.dir/__/__/__/mesh/core/src/internal_event.c.obj
LOAD examples/light_switch/proxy_server/CMakeFiles/light_switch_proxy_server_nrf52832_xxAA_s132_6.0.0.dir/__/__/__/mesh/core/src/nrf_mesh_configure.c.obj
LOAD examples/light_switch/proxy_server/CMakeFiles/light_switch_proxy_server_nrf52832_xxAA_s132_6.0.0.dir/__/__/__/mesh/core/src/aes.c.obj
LOAD examples/light_switch/proxy_server/CMakeFiles/light_switch_proxy_server_nrf52832_xxAA_s132_6.0.0.dir/__/__/__/mesh/core/src/msg_cache.c.obj
LOAD examples/light_switch/proxy_server/CMakeFiles/light_switch_proxy_server_nrf52832_xxAA_s132_6.0.0.dir/__/__/__/mesh/core/src/transport.c.obj
LOAD examples/light_switch/proxy_server/CMakeFiles/light_switch_proxy_server_nrf52832_xxAA_s132_6.0.0.dir/__/__/__/mesh/core/src/event.c.obj
LOAD examples/light_switch/proxy_server/CMakeFiles/light_switch_proxy_server_nrf52832_xxAA_s132_6.0.0.dir/__/__/__/mesh/core/src/packet_buffer.c.obj
LOAD examples/light_switch/proxy_server/CMakeFiles/light_switch_proxy_server_nrf52832_xxAA_s132_6.0.0.dir/__/__/__/mesh/core/src/flash_manager_defrag.c.obj
LOAD examples/light_switch/proxy_server/CMakeFiles/light_switch_proxy_server_nrf52832_xxAA_s132_6.0.0.dir/__/__/__/mesh/core/src/fifo.c.obj
LOAD examples/light_switch/proxy_server/CMakeFiles/light_switch_proxy_server_nrf52832_xxAA_s132_6.0.0.dir/__/__/__/mesh/core/src/nrf_flash.c.obj
LOAD examples/light_switch/proxy_server/CMakeFiles/light_switch_proxy_server_nrf52832_xxAA_s132_6.0.0.dir/__/__/__/mesh/core/src/packet_mgr.c.obj
LOAD examples/light_switch/proxy_server/CMakeFiles/light_switch_proxy_server_nrf52832_xxAA_s132_6.0.0.dir/__/__/__/mesh/core/src/net_state.c.obj
LOAD examples/light_switch/proxy_server/CMakeFiles/light_switch_proxy_server_nrf52832_xxAA_s132_6.0.0.dir/__/__/__/mesh/core/src/mesh_flash.c.obj
LOAD examples/light_switch/proxy_server/CMakeFiles/light_switch_proxy_server_nrf52832_xxAA_s132_6.0.0.dir/__/__/__/mesh/core/src/nrf_mesh_utils.c.obj
LOAD examples/light_switch/proxy_server/CMakeFiles/light_switch_proxy_server_nrf52832_xxAA_s132_6.0.0.dir/__/__/__/mesh/core/src/nrf_mesh.c.obj
LOAD examples/light_switch/proxy_server/CMakeFiles/light_switch_proxy_server_nrf52832_xxAA_s132_6.0.0.dir/__/__/__/mesh/core/src/queue.c.obj
LOAD examples/light_switch/proxy_server/CMakeFiles/light_switch_proxy_server_nrf52832_xxAA_s132_6.0.0.dir/__/__/__/mesh/core/src/hal.c.obj
LOAD examples/light_switch/proxy_server/CMakeFiles/light_switch_proxy_server_nrf52832_xxAA_s132_6.0.0.dir/__/__/__/mesh/core/src/aes_cmac.c.obj
LOAD examples/light_switch/proxy_server/CMakeFiles/light_switch_proxy_server_nrf52832_xxAA_s132_6.0.0.dir/__/__/__/mesh/core/src/timer_scheduler.c.obj
LOAD examples/light_switch/proxy_server/CMakeFiles/light_switch_proxy_server_nrf52832_xxAA_s132_6.0.0.dir/__/__/__/mesh/core/src/timer.c.obj
LOAD examples/light_switch/proxy_server/CMakeFiles/light_switch_proxy_server_nrf52832_xxAA_s132_6.0.0.dir/__/__/__/mesh/core/src/ticker.c.obj
LOAD examples/light_switch/proxy_server/CMakeFiles/light_switch_proxy_server_nrf52832_xxAA_s132_6.0.0.dir/__/__/__/mesh/core/src/rand.c.obj
LOAD examples/light_switch/proxy_server/CMakeFiles/light_switch_proxy_server_nrf52832_xxAA_s132_6.0.0.dir/__/__/__/mesh/core/src/nrf_mesh_opt.c.obj
LOAD examples/light_switch/proxy_server/CMakeFiles/light_switch_proxy_server_nrf52832_xxAA_s132_6.0.0.dir/__/__/__/mesh/core/src/timeslot.c.obj
LOAD examples/light_switch/proxy_server/CMakeFiles/light_switch_proxy_server_nrf52832_xxAA_s132_6.0.0.dir/__/__/__/mesh/core/src/bearer_event.c.obj
LOAD examples/light_switch/proxy_server/CMakeFiles/light_switch_proxy_server_nrf52832_xxAA_s132_6.0.0.dir/__/__/__/mesh/core/src/enc.c.obj
LOAD examples/light_switch/proxy_server/CMakeFiles/light_switch_proxy_server_nrf52832_xxAA_s132_6.0.0.dir/__/__/__/mesh/core/src/network.c.obj
LOAD examples/light_switch/proxy_server/CMakeFiles/light_switch_proxy_server_nrf52832_xxAA_s132_6.0.0.dir/__/__/__/mesh/core/src/net_packet.c.obj
LOAD examples/light_switch/proxy_server/CMakeFiles/light_switch_proxy_server_nrf52832_xxAA_s132_6.0.0.dir/__/__/__/mesh/core/src/msqueue.c.obj
LOAD examples/light_switch/proxy_server/CMakeFiles/light_switch_proxy_server_nrf52832_xxAA_s132_6.0.0.dir/__/__/__/mesh/core/src/nrf_mesh_keygen.c.obj
LOAD examples/light_switch/proxy_server/CMakeFiles/light_switch_proxy_server_nrf52832_xxAA_s132_6.0.0.dir/__/__/__/mesh/core/src/cache.c.obj
LOAD examples/light_switch/proxy_server/CMakeFiles/light_switch_proxy_server_nrf52832_xxAA_s132_6.0.0.dir/__/__/__/mesh/core/src/uri.c.obj
LOAD examples/light_switch/proxy_server/CMakeFiles/light_switch_proxy_server_nrf52832_xxAA_s132_6.0.0.dir/__/__/__/mesh/core/src/list.c.obj
LOAD examples/light_switch/proxy_server/CMakeFiles/light_switch_proxy_server_nrf52832_xxAA_s132_6.0.0.dir/__/__/__/mesh/core/src/log.c.obj
LOAD examples/light_switch/proxy_server/CMakeFiles/light_switch_proxy_server_nrf52832_xxAA_s132_6.0.0.dir/__/__/__/mesh/core/src/flash_manager.c.obj
LOAD examples/light_switch/proxy_server/CMakeFiles/light_switch_proxy_server_nrf52832_xxAA_s132_6.0.0.dir/__/__/__/mesh/core/src/ccm_soft.c.obj
LOAD examples/light_switch/proxy_server/CMakeFiles/light_switch_proxy_server_nrf52832_xxAA_s132_6.0.0.dir/__/__/__/mesh/core/src/toolchain.c.obj
LOAD examples/light_switch/proxy_server/CMakeFiles/light_switch_proxy_server_nrf52832_xxAA_s132_6.0.0.dir/__/__/__/mesh/core/src/replay_cache.c.obj
LOAD examples/light_switch/proxy_server/CMakeFiles/light_switch_proxy_server_nrf52832_xxAA_s132_6.0.0.dir/__/__/__/mesh/core/src/beacon.c.obj
LOAD examples/light_switch/proxy_server/CMakeFiles/light_switch_proxy_server_nrf52832_xxAA_s132_6.0.0.dir/__/__/__/mesh/core/src/flash_manager_internal.c.obj
LOAD examples/light_switch/proxy_server/CMakeFiles/light_switch_proxy_server_nrf52832_xxAA_s132_6.0.0.dir/__/__/__/mesh/core/src/core_tx.c.obj
LOAD examples/light_switch/proxy_server/CMakeFiles/light_switch_proxy_server_nrf52832_xxAA_s132_6.0.0.dir/__/__/__/mesh/core/src/heartbeat.c.obj
LOAD examples/light_switch/proxy_server/CMakeFiles/light_switch_proxy_server_nrf52832_xxAA_s132_6.0.0.dir/__/__/__/mesh/core/src/net_beacon.c.obj
LOAD examples/light_switch/proxy_server/CMakeFiles/light_switch_proxy_server_nrf52832_xxAA_s132_6.0.0.dir/__/__/__/mesh/core/src/fsm.c.obj
LOAD examples/light_switch/proxy_server/CMakeFiles/light_switch_proxy_server_nrf52832_xxAA_s132_6.0.0.dir/__/__/__/mesh/core/src/core_tx_adv.c.obj
LOAD examples/light_switch/proxy_server/CMakeFiles/light_switch_proxy_server_nrf52832_xxAA_s132_6.0.0.dir/__/__/__/mesh/bearer/src/ad_listener.c.obj
LOAD examples/light_switch/proxy_server/CMakeFiles/light_switch_proxy_server_nrf52832_xxAA_s132_6.0.0.dir/__/__/__/mesh/bearer/src/ad_type_filter.c.obj
LOAD examples/light_switch/proxy_server/CMakeFiles/light_switch_proxy_server_nrf52832_xxAA_s132_6.0.0.dir/__/__/__/mesh/bearer/src/adv_packet_filter.c.obj
LOAD examples/light_switch/proxy_server/CMakeFiles/light_switch_proxy_server_nrf52832_xxAA_s132_6.0.0.dir/__/__/__/mesh/bearer/src/advertiser.c.obj
LOAD examples/light_switch/proxy_server/CMakeFiles/light_switch_proxy_server_nrf52832_xxAA_s132_6.0.0.dir/__/__/__/mesh/bearer/src/bearer_handler.c.obj
LOAD examples/light_switch/proxy_server/CMakeFiles/light_switch_proxy_server_nrf52832_xxAA_s132_6.0.0.dir/__/__/__/mesh/bearer/src/broadcast.c.obj
LOAD examples/light_switch/proxy_server/CMakeFiles/light_switch_proxy_server_nrf52832_xxAA_s132_6.0.0.dir/__/__/__/mesh/bearer/src/filter_engine.c.obj
LOAD examples/light_switch/proxy_server/CMakeFiles/light_switch_proxy_server_nrf52832_xxAA_s132_6.0.0.dir/__/__/__/mesh/bearer/src/gap_address_filter.c.obj
LOAD examples/light_switch/proxy_server/CMakeFiles/light_switch_proxy_server_nrf52832_xxAA_s132_6.0.0.dir/__/__/__/mesh/bearer/src/radio_config.c.obj
LOAD examples/light_switch/proxy_server/CMakeFiles/light_switch_proxy_server_nrf52832_xxAA_s132_6.0.0.dir/__/__/__/mesh/bearer/src/rssi_filter.c.obj
LOAD examples/light_switch/proxy_server/CMakeFiles/light_switch_proxy_server_nrf52832_xxAA_s132_6.0.0.dir/__/__/__/mesh/bearer/src/scanner.c.obj
LOAD examples/light_switch/proxy_server/CMakeFiles/light_switch_proxy_server_nrf52832_xxAA_s132_6.0.0.dir/__/__/__/mesh/gatt/src/mesh_gatt.c.obj
LOAD examples/light_switch/proxy_server/CMakeFiles/light_switch_proxy_server_nrf52832_xxAA_s132_6.0.0.dir/__/__/__/mesh/gatt/src/proxy.c.obj
LOAD examples/light_switch/proxy_server/CMakeFiles/light_switch_proxy_server_nrf52832_xxAA_s132_6.0.0.dir/__/__/__/mesh/gatt/src/proxy_filter.c.obj
LOAD examples/light_switch/proxy_server/CMakeFiles/light_switch_proxy_server_nrf52832_xxAA_s132_6.0.0.dir/__/__/__/models/simple_on_off/src/simple_on_off_server.c.obj
LOAD examples/light_switch/proxy_server/CMakeFiles/light_switch_proxy_server_nrf52832_xxAA_s132_6.0.0.dir/__/__/__/models/config/src/composition_data.c.obj
LOAD examples/light_switch/proxy_server/CMakeFiles/light_switch_proxy_server_nrf52832_xxAA_s132_6.0.0.dir/__/__/__/models/config/src/config_server.c.obj
LOAD examples/light_switch/proxy_server/CMakeFiles/light_switch_proxy_server_nrf52832_xxAA_s132_6.0.0.dir/__/__/__/models/config/src/packed_index_list.c.obj
LOAD examples/light_switch/proxy_server/CMakeFiles/light_switch_proxy_server_nrf52832_xxAA_s132_6.0.0.dir/__/__/__/models/health/src/health_server.c.obj
LOAD examples/light_switch/proxy_server/CMakeFiles/light_switch_proxy_server_nrf52832_xxAA_s132_6.0.0.dir/__/__/__/mesh/access/src/access_publish.c.obj
LOAD examples/light_switch/proxy_server/CMakeFiles/light_switch_proxy_server_nrf52832_xxAA_s132_6.0.0.dir/__/__/__/mesh/access/src/access.c.obj
LOAD examples/light_switch/proxy_server/CMakeFiles/light_switch_proxy_server_nrf52832_xxAA_s132_6.0.0.dir/__/__/__/mesh/access/src/access_reliable.c.obj
LOAD examples/light_switch/proxy_server/CMakeFiles/light_switch_proxy_server_nrf52832_xxAA_s132_6.0.0.dir/__/__/__/mesh/access/src/device_state_manager.c.obj
LOAD examples/light_switch/proxy_server/CMakeFiles/light_switch_proxy_server_nrf52832_xxAA_s132_6.0.0.dir/__/__/__/mesh/prov/src/prov_provisionee.c.obj
LOAD examples/light_switch/proxy_server/CMakeFiles/light_switch_proxy_server_nrf52832_xxAA_s132_6.0.0.dir/__/__/__/mesh/prov/src/nrf_mesh_prov.c.obj
LOAD examples/light_switch/proxy_server/CMakeFiles/light_switch_proxy_server_nrf52832_xxAA_s132_6.0.0.dir/__/__/__/mesh/prov/src/provisioning.c.obj
LOAD examples/light_switch/proxy_server/CMakeFiles/light_switch_proxy_server_nrf52832_xxAA_s132_6.0.0.dir/__/__/__/mesh/prov/src/prov_beacon.c.obj
LOAD examples/light_switch/proxy_server/CMakeFiles/light_switch_proxy_server_nrf52832_xxAA_s132_6.0.0.dir/__/__/__/mesh/prov/src/prov_utils.c.obj
LOAD examples/light_switch/proxy_server/CMakeFiles/light_switch_proxy_server_nrf52832_xxAA_s132_6.0.0.dir/__/__/__/mesh/prov/src/prov_bearer_adv.c.obj
LOAD examples/light_switch/proxy_server/CMakeFiles/light_switch_proxy_server_nrf52832_xxAA_s132_6.0.0.dir/C_/b/nRF5_SDK_15.0.0_a53641a/modules/nrfx/mdk/system_nrf52.c.obj
LOAD examples/light_switch/proxy_server/CMakeFiles/light_switch_proxy_server_nrf52832_xxAA_s132_6.0.0.dir/C_/b/nRF5_SDK_15.0.0_a53641a/modules/nrfx/mdk/gcc_startup_nrf52.S.obj
LOAD examples/light_switch/proxy_server/CMakeFiles/light_switch_proxy_server_nrf52832_xxAA_s132_6.0.0.dir/C_/b/nRF5_SDK_15.0.0_a53641a/components/libraries/util/app_error.c.obj
LOAD examples/light_switch/proxy_server/CMakeFiles/light_switch_proxy_server_nrf52832_xxAA_s132_6.0.0.dir/C_/b/nRF5_SDK_15.0.0_a53641a/components/libraries/util/app_error_handler_gcc.c.obj
LOAD external/rtt/librtt_nrf52832_xxAA.a
LOAD external/micro-ecc/libuECC_nrf52832_xxAA.a
START GROUP
LOAD c:/mesh/arm_gcc/bin/../lib/gcc/arm-none-eabi/6.3.1/thumb/v7e-m/fpv4-sp/hard\libgcc.a
LOAD c:/mesh/arm_gcc/bin/../lib/gcc/arm-none-eabi/6.3.1/../../../../arm-none-eabi/lib/thumb/v7e-m/fpv4-sp/hard\libc_nano.a
END GROUP
START GROUP
LOAD c:/mesh/arm_gcc/bin/../lib/gcc/arm-none-eabi/6.3.1/thumb/v7e-m/fpv4-sp/hard\libgcc.a
LOAD c:/mesh/arm_gcc/bin/../lib/gcc/arm-none-eabi/6.3.1/../../../../arm-none-eabi/lib/thumb/v7e-m/fpv4-sp/hard\libc_nano.a
END GROUP
LOAD c:/mesh/arm_gcc/bin/../lib/gcc/arm-none-eabi/6.3.1/thumb/v7e-m/fpv4-sp/hard/crtend.o
LOAD c:/mesh/arm_gcc/bin/../lib/gcc/arm-none-eabi/6.3.1/thumb/v7e-m/fpv4-sp/hard/crtn.o
START GROUP
LOAD c:/mesh/arm_gcc/bin/../lib/gcc/arm-none-eabi/6.3.1/thumb/v7e-m/fpv4-sp/hard\libgcc.a
LOAD c:/mesh/arm_gcc/bin/../lib/gcc/arm-none-eabi/6.3.1/../../../../arm-none-eabi/lib/thumb/v7e-m/fpv4-sp/hard\libc.a
LOAD c:/mesh/arm_gcc/bin/../lib/gcc/arm-none-eabi/6.3.1/../../../../arm-none-eabi/lib/thumb/v7e-m/fpv4-sp/hard\libnosys.a
END GROUP

.igot.plt       0x2000348c        0x0 load address 0x00046dc4
 .igot.plt      0x2000348c        0x0 c:/mesh/arm_gcc/bin/../lib/gcc/arm-none-eabi/6.3.1/thumb/v7e-m/fpv4-sp/hard/crtbegin.o
                0x2000348c                . = ALIGN (0x4)

.svc_data       0x2000348c        0x0
                [!provide]                PROVIDE (__start_svc_data, .)
 *(.svc_data)
                [!provide]                PROVIDE (__stop_svc_data, .)

.fs_data        0x2000348c        0x0
                [!provide]                PROVIDE (__start_fs_data, .)
 *(.fs_data)
                [!provide]                PROVIDE (__stop_fs_data, .)

.log_dynamic_data
                0x2000348c        0x0
                [!provide]                PROVIDE (__start_log_dynamic_data, .)
 *(.log_dynamic_data)
                [!provide]                PROVIDE (__stop_log_dynamic_data, .)

.cli_sorted_cmd_ptrs
                0x2000348c        0x0
                [!provide]                PROVIDE (__start_cli_sorted_cmd_ptrs, .)
 *(.cli_sorted_cmd_ptrs)
                [!provide]                PROVIDE (__stop_cli_sorted_cmd_ptrs, .)

.bss            0x20003490     0x353c load address 0x00046dc8
                0x20003490                . = ALIGN (0x4)
                0x20003490                __bss_start__ = .
 *(.bss*)
 .bss           0x20003490       0x1c c:/mesh/arm_gcc/bin/../lib/gcc/arm-none-eabi/6.3.1/thumb/v7e-m/fpv4-sp/hard/crtbegin.o
 .bss.m_device_provisioned
                0x200034ac        0x1 examples/light_switch/proxy_server/CMakeFiles/light_switch_proxy_server_nrf52832_xxAA_s132_6.0.0.dir/src/main.c.obj
 *fill*         0x200034ad        0x3 
 .bss.m_server  0x200034b0        0xc examples/light_switch/proxy_server/CMakeFiles/light_switch_proxy_server_nrf52832_xxAA_s132_6.0.0.dir/src/main.c.obj
 .bss.m_health_server
                0x200034bc       0x5c examples/light_switch/proxy_server/CMakeFiles/light_switch_proxy_server_nrf52832_xxAA_s132_6.0.0.dir/__/__/__/mesh/stack/src/mesh_stack.c.obj
 .bss.m_init_params
                0x20003518       0x24 examples/light_switch/proxy_server/CMakeFiles/light_switch_proxy_server_nrf52832_xxAA_s132_6.0.0.dir/__/__/__/mesh/stack/src/mesh_stack.c.obj
 .bss.m_device_provisioned
                0x2000353c        0x1 examples/light_switch/proxy_server/CMakeFiles/light_switch_proxy_server_nrf52832_xxAA_s132_6.0.0.dir/__/__/common/src/mesh_provisionee.c.obj
 .bss.m_doing_gatt_reset
                0x2000353d        0x1 examples/light_switch/proxy_server/CMakeFiles/light_switch_proxy_server_nrf52832_xxAA_s132_6.0.0.dir/__/__/common/src/mesh_provisionee.c.obj
 *fill*         0x2000353e        0x2 
 .bss.m_params  0x20003540        0xc examples/light_switch/proxy_server/CMakeFiles/light_switch_proxy_server_nrf52832_xxAA_s132_6.0.0.dir/__/__/common/src/mesh_provisionee.c.obj
 .bss.m_private_key
                0x2000354c       0x20 examples/light_switch/proxy_server/CMakeFiles/light_switch_proxy_server_nrf52832_xxAA_s132_6.0.0.dir/__/__/common/src/mesh_provisionee.c.obj
 .bss.m_prov_bearer_adv
                0x2000356c      0x1c4 examples/light_switch/proxy_server/CMakeFiles/light_switch_proxy_server_nrf52832_xxAA_s132_6.0.0.dir/__/__/common/src/mesh_provisionee.c.obj
 .bss.m_prov_bearer_gatt
                0x20003730       0x50 examples/light_switch/proxy_server/CMakeFiles/light_switch_proxy_server_nrf52832_xxAA_s132_6.0.0.dir/__/__/common/src/mesh_provisionee.c.obj
 .bss.m_prov_ctx
                0x20003780      0x134 examples/light_switch/proxy_server/CMakeFiles/light_switch_proxy_server_nrf52832_xxAA_s132_6.0.0.dir/__/__/common/src/mesh_provisionee.c.obj
 .bss.m_public_key
                0x200038b4       0x40 examples/light_switch/proxy_server/CMakeFiles/light_switch_proxy_server_nrf52832_xxAA_s132_6.0.0.dir/__/__/common/src/mesh_provisionee.c.obj
 .bss.m_rtt_input_handler
                0x200038f4        0x4 examples/light_switch/proxy_server/CMakeFiles/light_switch_proxy_server_nrf52832_xxAA_s132_6.0.0.dir/__/__/common/src/rtt_input.c.obj
 .bss.m_button_handler_cb
                0x200038f8        0x4 examples/light_switch/proxy_server/CMakeFiles/light_switch_proxy_server_nrf52832_xxAA_s132_6.0.0.dir/__/__/common/src/simple_hal.c.obj
 .bss.m_last_button_press
                0x200038fc        0x4 examples/light_switch/proxy_server/CMakeFiles/light_switch_proxy_server_nrf52832_xxAA_s132_6.0.0.dir/__/__/common/src/simple_hal.c.obj
 .bss.m_adv_set_index
                0x20003900        0x1 examples/light_switch/proxy_server/CMakeFiles/light_switch_proxy_server_nrf52832_xxAA_s132_6.0.0.dir/__/__/common/src/mesh_adv.c.obj
 *fill*         0x20003901        0x3 
 .bss.m_advdata_raw
                0x20003904       0x3e examples/light_switch/proxy_server/CMakeFiles/light_switch_proxy_server_nrf52832_xxAA_s132_6.0.0.dir/__/__/common/src/mesh_adv.c.obj
 *fill*         0x20003942        0x2 
 .bss.m_gap_adv_data
                0x20003944       0x10 examples/light_switch/proxy_server/CMakeFiles/light_switch_proxy_server_nrf52832_xxAA_s132_6.0.0.dir/__/__/common/src/mesh_adv.c.obj
 .bss.m_srdata_raw
                0x20003954       0x3e examples/light_switch/proxy_server/CMakeFiles/light_switch_proxy_server_nrf52832_xxAA_s132_6.0.0.dir/__/__/common/src/mesh_adv.c.obj
 *fill*         0x20003992        0x2 
 .bss.m_evt_prov_link
                0x20003994        0xc examples/light_switch/proxy_server/CMakeFiles/light_switch_proxy_server_nrf52832_xxAA_s132_6.0.0.dir/__/__/__/mesh/prov/src/nrf_mesh_prov_bearer_gatt.c.obj
 .bss.m_nrf_sdh_continue
                0x200039a0        0x1 examples/light_switch/proxy_server/CMakeFiles/light_switch_proxy_server_nrf52832_xxAA_s132_6.0.0.dir/C_/b/nRF5_SDK_15.0.0_a53641a/components/softdevice/common/nrf_sdh.c.obj
 .bss.m_nrf_sdh_enabled
                0x200039a1        0x1 examples/light_switch/proxy_server/CMakeFiles/light_switch_proxy_server_nrf52832_xxAA_s132_6.0.0.dir/C_/b/nRF5_SDK_15.0.0_a53641a/components/softdevice/common/nrf_sdh.c.obj
 .bss.m_nrf_sdh_suspended
                0x200039a2        0x1 examples/light_switch/proxy_server/CMakeFiles/light_switch_proxy_server_nrf52832_xxAA_s132_6.0.0.dir/C_/b/nRF5_SDK_15.0.0_a53641a/components/softdevice/common/nrf_sdh.c.obj
 .bss.m_stack_is_enabled
                0x200039a3        0x1 examples/light_switch/proxy_server/CMakeFiles/light_switch_proxy_server_nrf52832_xxAA_s132_6.0.0.dir/C_/b/nRF5_SDK_15.0.0_a53641a/components/softdevice/common/nrf_sdh_ble.c.obj
 .bss.m_uuid    0x200039a4       0x10 examples/light_switch/proxy_server/CMakeFiles/light_switch_proxy_server_nrf52832_xxAA_s132_6.0.0.dir/__/__/__/mesh/core/src/nrf_mesh_configure.c.obj
 .bss.m_msg_cache
                0x200039b4      0x100 examples/light_switch/proxy_server/CMakeFiles/light_switch_proxy_server_nrf52832_xxAA_s132_6.0.0.dir/__/__/__/mesh/core/src/msg_cache.c.obj
 .bss.m_msg_cache_head
                0x20003ab4        0x4 examples/light_switch/proxy_server/CMakeFiles/light_switch_proxy_server_nrf52832_xxAA_s132_6.0.0.dir/__/__/__/mesh/core/src/msg_cache.c.obj
 .bss.m_control_packet_consumer_count
                0x20003ab8        0x4 examples/light_switch/proxy_server/CMakeFiles/light_switch_proxy_server_nrf52832_xxAA_s132_6.0.0.dir/__/__/__/mesh/core/src/transport.c.obj
 .bss.m_control_packet_consumers
                0x20003abc        0x8 examples/light_switch/proxy_server/CMakeFiles/light_switch_proxy_server_nrf52832_xxAA_s132_6.0.0.dir/__/__/__/mesh/core/src/transport.c.obj
 .bss.m_sar_alloc
                0x20003ac4        0x4 examples/light_switch/proxy_server/CMakeFiles/light_switch_proxy_server_nrf52832_xxAA_s132_6.0.0.dir/__/__/__/mesh/core/src/transport.c.obj
 .bss.m_sar_process_flag
                0x20003ac8        0x4 examples/light_switch/proxy_server/CMakeFiles/light_switch_proxy_server_nrf52832_xxAA_s132_6.0.0.dir/__/__/__/mesh/core/src/transport.c.obj
 .bss.m_sar_release
                0x20003acc        0x4 examples/light_switch/proxy_server/CMakeFiles/light_switch_proxy_server_nrf52832_xxAA_s132_6.0.0.dir/__/__/__/mesh/core/src/transport.c.obj
 .bss.m_sar_session_cache
                0x20003ad0       0x40 examples/light_switch/proxy_server/CMakeFiles/light_switch_proxy_server_nrf52832_xxAA_s132_6.0.0.dir/__/__/__/mesh/core/src/transport.c.obj
 .bss.m_sar_session_cache_head
                0x20003b10        0x4 examples/light_switch/proxy_server/CMakeFiles/light_switch_proxy_server_nrf52832_xxAA_s132_6.0.0.dir/__/__/__/mesh/core/src/transport.c.obj
 .bss.m_trs_config
                0x20003b14       0x18 examples/light_switch/proxy_server/CMakeFiles/light_switch_proxy_server_nrf52832_xxAA_s132_6.0.0.dir/__/__/__/mesh/core/src/transport.c.obj
 .bss.m_trs_sar_sessions
                0x20003b2c      0x1b0 examples/light_switch/proxy_server/CMakeFiles/light_switch_proxy_server_nrf52832_xxAA_s132_6.0.0.dir/__/__/__/mesh/core/src/transport.c.obj
 .bss.mp_evt_handlers_head
                0x20003cdc        0x4 examples/light_switch/proxy_server/CMakeFiles/light_switch_proxy_server_nrf52832_xxAA_s132_6.0.0.dir/__/__/__/mesh/core/src/event.c.obj
 .bss.m_defrag  0x20003ce0       0x1c examples/light_switch/proxy_server/CMakeFiles/light_switch_proxy_server_nrf52832_xxAA_s132_6.0.0.dir/__/__/__/mesh/core/src/flash_manager_defrag.c.obj
 .bss.m_token   0x20003cfc        0x2 examples/light_switch/proxy_server/CMakeFiles/light_switch_proxy_server_nrf52832_xxAA_s132_6.0.0.dir/__/__/__/mesh/core/src/flash_manager_defrag.c.obj
 *fill*         0x20003cfe        0x2 
 .bss.mp_recovery_area
                0x20003d00        0x4 examples/light_switch/proxy_server/CMakeFiles/light_switch_proxy_server_nrf52832_xxAA_s132_6.0.0.dir/__/__/__/mesh/core/src/flash_manager_defrag.c.obj
 .bss.p_null_ptr.10242
                0x20003d04        0x4 examples/light_switch/proxy_server/CMakeFiles/light_switch_proxy_server_nrf52832_xxAA_s132_6.0.0.dir/__/__/__/mesh/core/src/flash_manager_defrag.c.obj
 .bss.m_pool    0x20003d08     0x1000 examples/light_switch/proxy_server/CMakeFiles/light_switch_proxy_server_nrf52832_xxAA_s132_6.0.0.dir/__/__/__/mesh/core/src/packet_mgr.c.obj
 .bss.mp_free_head
                0x20004d08        0x4 examples/light_switch/proxy_server/CMakeFiles/light_switch_proxy_server_nrf52832_xxAA_s132_6.0.0.dir/__/__/__/mesh/core/src/packet_mgr.c.obj
 .bss.iv_state_set.9897
                0x20004d0c        0x1 examples/light_switch/proxy_server/CMakeFiles/light_switch_proxy_server_nrf52832_xxAA_s132_6.0.0.dir/__/__/__/mesh/core/src/net_state.c.obj
 *fill*         0x20004d0d        0x3 
 .bss.lock_count.9873
                0x20004d10        0x4 examples/light_switch/proxy_server/CMakeFiles/light_switch_proxy_server_nrf52832_xxAA_s132_6.0.0.dir/__/__/__/mesh/core/src/net_state.c.obj
 .bss.m_flash_manager
                0x20004d14       0x24 examples/light_switch/proxy_server/CMakeFiles/light_switch_proxy_server_nrf52832_xxAA_s132_6.0.0.dir/__/__/__/mesh/core/src/net_state.c.obj
 .bss.m_iv_update_timer
                0x20004d38       0x18 examples/light_switch/proxy_server/CMakeFiles/light_switch_proxy_server_nrf52832_xxAA_s132_6.0.0.dir/__/__/__/mesh/core/src/net_state.c.obj
 .bss.m_mesh_evt_handler
                0x20004d50        0x8 examples/light_switch/proxy_server/CMakeFiles/light_switch_proxy_server_nrf52832_xxAA_s132_6.0.0.dir/__/__/__/mesh/core/src/net_state.c.obj
 .bss.m_net_state
                0x20004d58       0x14 examples/light_switch/proxy_server/CMakeFiles/light_switch_proxy_server_nrf52832_xxAA_s132_6.0.0.dir/__/__/__/mesh/core/src/net_state.c.obj
 .bss.m_seqnum_allocation_in_progress
                0x20004d6c        0x1 examples/light_switch/proxy_server/CMakeFiles/light_switch_proxy_server_nrf52832_xxAA_s132_6.0.0.dir/__/__/__/mesh/core/src/net_state.c.obj
 .bss.m_test_mode
                0x20004d6d        0x1 examples/light_switch/proxy_server/CMakeFiles/light_switch_proxy_server_nrf52832_xxAA_s132_6.0.0.dir/__/__/__/mesh/core/src/net_state.c.obj
 *fill*         0x20004d6e        0x2 
 .bss.m_event_flag
                0x20004d70        0x4 examples/light_switch/proxy_server/CMakeFiles/light_switch_proxy_server_nrf52832_xxAA_s132_6.0.0.dir/__/__/__/mesh/core/src/mesh_flash.c.obj
 .bss.m_suspended
                0x20004d74        0x1 examples/light_switch/proxy_server/CMakeFiles/light_switch_proxy_server_nrf52832_xxAA_s132_6.0.0.dir/__/__/__/mesh/core/src/mesh_flash.c.obj
 *fill*         0x20004d75        0x3 
 .bss.m_users   0x20004d78      0x228 examples/light_switch/proxy_server/CMakeFiles/light_switch_proxy_server_nrf52832_xxAA_s132_6.0.0.dir/__/__/__/mesh/core/src/mesh_flash.c.obj
 .bss.m_is_enabled
                0x20004fa0        0x1 examples/light_switch/proxy_server/CMakeFiles/light_switch_proxy_server_nrf52832_xxAA_s132_6.0.0.dir/__/__/__/mesh/core/src/nrf_mesh.c.obj
 .bss.m_is_initialized
                0x20004fa1        0x1 examples/light_switch/proxy_server/CMakeFiles/light_switch_proxy_server_nrf52832_xxAA_s132_6.0.0.dir/__/__/__/mesh/core/src/nrf_mesh.c.obj
 *fill*         0x20004fa2        0x2 
 .bss.m_rx_cb   0x20004fa4        0x4 examples/light_switch/proxy_server/CMakeFiles/light_switch_proxy_server_nrf52832_xxAA_s132_6.0.0.dir/__/__/__/mesh/core/src/nrf_mesh.c.obj
 .bss.m_128buf  0x20004fa8       0x10 examples/light_switch/proxy_server/CMakeFiles/light_switch_proxy_server_nrf52832_xxAA_s132_6.0.0.dir/__/__/__/mesh/core/src/aes_cmac.c.obj
 .bss.m_subkey1
                0x20004fb8       0x10 examples/light_switch/proxy_server/CMakeFiles/light_switch_proxy_server_nrf52832_xxAA_s132_6.0.0.dir/__/__/__/mesh/core/src/aes_cmac.c.obj
 .bss.m_subkey2
                0x20004fc8       0x10 examples/light_switch/proxy_server/CMakeFiles/light_switch_proxy_server_nrf52832_xxAA_s132_6.0.0.dir/__/__/__/mesh/core/src/aes_cmac.c.obj
 .bss.m_event_flag
                0x20004fd8        0x4 examples/light_switch/proxy_server/CMakeFiles/light_switch_proxy_server_nrf52832_xxAA_s132_6.0.0.dir/__/__/__/mesh/core/src/timer_scheduler.c.obj
 .bss.m_scheduler
                0x20004fdc       0x10 examples/light_switch/proxy_server/CMakeFiles/light_switch_proxy_server_nrf52832_xxAA_s132_6.0.0.dir/__/__/__/mesh/core/src/timer_scheduler.c.obj
 .bss.m_attributes
                0x20004fec        0x3 examples/light_switch/proxy_server/CMakeFiles/light_switch_proxy_server_nrf52832_xxAA_s132_6.0.0.dir/__/__/__/mesh/core/src/timer.c.obj
 *fill*         0x20004fef        0x1 
 .bss.m_callbacks
                0x20004ff0        0xc examples/light_switch/proxy_server/CMakeFiles/light_switch_proxy_server_nrf52832_xxAA_s132_6.0.0.dir/__/__/__/mesh/core/src/timer.c.obj
 .bss.m_is_in_ts
                0x20004ffc        0x1 examples/light_switch/proxy_server/CMakeFiles/light_switch_proxy_server_nrf52832_xxAA_s132_6.0.0.dir/__/__/__/mesh/core/src/timer.c.obj
 *fill*         0x20004ffd        0x3 
 .bss.m_reference_time
                0x20005000        0x4 examples/light_switch/proxy_server/CMakeFiles/light_switch_proxy_server_nrf52832_xxAA_s132_6.0.0.dir/__/__/__/mesh/core/src/timer.c.obj
 .bss.m_timeouts
                0x20005004        0xc examples/light_switch/proxy_server/CMakeFiles/light_switch_proxy_server_nrf52832_xxAA_s132_6.0.0.dir/__/__/__/mesh/core/src/timer.c.obj
 .bss.m_timer_mut
                0x20005010        0x4 examples/light_switch/proxy_server/CMakeFiles/light_switch_proxy_server_nrf52832_xxAA_s132_6.0.0.dir/__/__/__/mesh/core/src/timer.c.obj
 .bss.m_ts_end_time
                0x20005014        0x4 examples/light_switch/proxy_server/CMakeFiles/light_switch_proxy_server_nrf52832_xxAA_s132_6.0.0.dir/__/__/__/mesh/core/src/timer.c.obj
 .bss.mp_ppi_tasks
                0x20005018        0xc examples/light_switch/proxy_server/CMakeFiles/light_switch_proxy_server_nrf52832_xxAA_s132_6.0.0.dir/__/__/__/mesh/core/src/timer.c.obj
 .bss.m_current_time
                0x20005024        0x4 examples/light_switch/proxy_server/CMakeFiles/light_switch_proxy_server_nrf52832_xxAA_s132_6.0.0.dir/__/__/__/mesh/core/src/ticker.c.obj
 .bss.m_timer   0x20005028       0x18 examples/light_switch/proxy_server/CMakeFiles/light_switch_proxy_server_nrf52832_xxAA_s132_6.0.0.dir/__/__/__/mesh/core/src/ticker.c.obj
 .bss.m_current_timeslot
                0x20005040       0x1c examples/light_switch/proxy_server/CMakeFiles/light_switch_proxy_server_nrf52832_xxAA_s132_6.0.0.dir/__/__/__/mesh/core/src/timeslot.c.obj
 .bss.m_lfclk_ppm
                0x2000505c        0x4 examples/light_switch/proxy_server/CMakeFiles/light_switch_proxy_server_nrf52832_xxAA_s132_6.0.0.dir/__/__/__/mesh/core/src/timeslot.c.obj
 .bss.m_radio_request_earliest
                0x20005060       0x10 examples/light_switch/proxy_server/CMakeFiles/light_switch_proxy_server_nrf52832_xxAA_s132_6.0.0.dir/__/__/__/mesh/core/src/timeslot.c.obj
 .bss.m_state_lock
                0x20005070        0x1 examples/light_switch/proxy_server/CMakeFiles/light_switch_proxy_server_nrf52832_xxAA_s132_6.0.0.dir/__/__/__/mesh/core/src/timeslot.c.obj
 .bss.m_timeslot_forced_command
                0x20005071        0x1 examples/light_switch/proxy_server/CMakeFiles/light_switch_proxy_server_nrf52832_xxAA_s132_6.0.0.dir/__/__/__/mesh/core/src/timeslot.c.obj
 *fill*         0x20005072        0x6 
 .bss.s_last_rtc_value.9300
                0x20005078        0x8 examples/light_switch/proxy_server/CMakeFiles/light_switch_proxy_server_nrf52832_xxAA_s132_6.0.0.dir/__/__/__/mesh/core/src/timeslot.c.obj
 .bss.m_bearer_event_fifo
                0x20005080       0x14 examples/light_switch/proxy_server/CMakeFiles/light_switch_proxy_server_nrf52832_xxAA_s132_6.0.0.dir/__/__/__/mesh/core/src/bearer_event.c.obj
 .bss.m_bearer_event_fifo_buffer
                0x20005094      0x100 examples/light_switch/proxy_server/CMakeFiles/light_switch_proxy_server_nrf52832_xxAA_s132_6.0.0.dir/__/__/__/mesh/core/src/bearer_event.c.obj
 .bss.m_critical
                0x20005194        0x4 examples/light_switch/proxy_server/CMakeFiles/light_switch_proxy_server_nrf52832_xxAA_s132_6.0.0.dir/__/__/__/mesh/core/src/bearer_event.c.obj
 .bss.m_flag_count
                0x20005198        0x4 examples/light_switch/proxy_server/CMakeFiles/light_switch_proxy_server_nrf52832_xxAA_s132_6.0.0.dir/__/__/__/mesh/core/src/bearer_event.c.obj
 .bss.m_flag_event_callbacks
                0x2000519c       0x20 examples/light_switch/proxy_server/CMakeFiles/light_switch_proxy_server_nrf52832_xxAA_s132_6.0.0.dir/__/__/__/mesh/core/src/bearer_event.c.obj
 .bss.m_flags   0x200051bc        0x4 examples/light_switch/proxy_server/CMakeFiles/light_switch_proxy_server_nrf52832_xxAA_s132_6.0.0.dir/__/__/__/mesh/core/src/bearer_event.c.obj
 .bss.m_irq_priority
                0x200051c0        0x1 examples/light_switch/proxy_server/CMakeFiles/light_switch_proxy_server_nrf52832_xxAA_s132_6.0.0.dir/__/__/__/mesh/core/src/bearer_event.c.obj
 *fill*         0x200051c1        0x3 
 .bss.m_sequential_event_queue
                0x200051c4        0x8 examples/light_switch/proxy_server/CMakeFiles/light_switch_proxy_server_nrf52832_xxAA_s132_6.0.0.dir/__/__/__/mesh/core/src/bearer_event.c.obj
 .bss.s_recursion_guard.9431
                0x200051cc        0x1 examples/light_switch/proxy_server/CMakeFiles/light_switch_proxy_server_nrf52832_xxAA_s132_6.0.0.dir/__/__/__/mesh/core/src/bearer_event.c.obj
 *fill*         0x200051cd        0x3 
 .bss.m_relay_check_cb
                0x200051d0        0x4 examples/light_switch/proxy_server/CMakeFiles/light_switch_proxy_server_nrf52832_xxAA_s132_6.0.0.dir/__/__/__/mesh/core/src/network.c.obj
 .bss.m_relay_enable
                0x200051d4        0x1 examples/light_switch/proxy_server/CMakeFiles/light_switch_proxy_server_nrf52832_xxAA_s132_6.0.0.dir/__/__/__/mesh/core/src/network.c.obj
 *fill*         0x200051d5        0x3 
 .bss.m_action_queue
                0x200051d8        0xc examples/light_switch/proxy_server/CMakeFiles/light_switch_proxy_server_nrf52832_xxAA_s132_6.0.0.dir/__/__/__/mesh/core/src/flash_manager.c.obj
 .bss.m_action_queue_buffer
                0x200051e4      0x104 examples/light_switch/proxy_server/CMakeFiles/light_switch_proxy_server_nrf52832_xxAA_s132_6.0.0.dir/__/__/__/mesh/core/src/flash_manager.c.obj
 .bss.m_action_state
                0x200052e8        0x1 examples/light_switch/proxy_server/CMakeFiles/light_switch_proxy_server_nrf52832_xxAA_s132_6.0.0.dir/__/__/__/mesh/core/src/flash_manager.c.obj
 *fill*         0x200052e9        0x3 
 .bss.m_memory_listener_queue
                0x200052ec        0x8 examples/light_switch/proxy_server/CMakeFiles/light_switch_proxy_server_nrf52832_xxAA_s132_6.0.0.dir/__/__/__/mesh/core/src/flash_manager.c.obj
 .bss.m_processing_flag
                0x200052f4        0x4 examples/light_switch/proxy_server/CMakeFiles/light_switch_proxy_server_nrf52832_xxAA_s132_6.0.0.dir/__/__/__/mesh/core/src/flash_manager.c.obj
 .bss.m_queue_empty_cb
                0x200052f8        0x4 examples/light_switch/proxy_server/CMakeFiles/light_switch_proxy_server_nrf52832_xxAA_s132_6.0.0.dir/__/__/__/mesh/core/src/flash_manager.c.obj
 .bss.m_state   0x200052fc        0x1 examples/light_switch/proxy_server/CMakeFiles/light_switch_proxy_server_nrf52832_xxAA_s132_6.0.0.dir/__/__/__/mesh/core/src/flash_manager.c.obj
 *fill*         0x200052fd        0x1 
 .bss.m_token   0x200052fe        0x2 examples/light_switch/proxy_server/CMakeFiles/light_switch_proxy_server_nrf52832_xxAA_s132_6.0.0.dir/__/__/__/mesh/core/src/flash_manager.c.obj
 .bss.p_current.11150
                0x20005300        0x4 examples/light_switch/proxy_server/CMakeFiles/light_switch_proxy_server_nrf52832_xxAA_s132_6.0.0.dir/__/__/__/mesh/core/src/flash_manager.c.obj
 .bss.result.11151
                0x20005304        0x1 examples/light_switch/proxy_server/CMakeFiles/light_switch_proxy_server_nrf52832_xxAA_s132_6.0.0.dir/__/__/__/mesh/core/src/flash_manager.c.obj
 .bss.m_cache_index
                0x20005305        0x1 examples/light_switch/proxy_server/CMakeFiles/light_switch_proxy_server_nrf52832_xxAA_s132_6.0.0.dir/__/__/__/mesh/core/src/replay_cache.c.obj
 *fill*         0x20005306        0x2 
 .bss.m_replay_cache
                0x20005308      0x200 examples/light_switch/proxy_server/CMakeFiles/light_switch_proxy_server_nrf52832_xxAA_s132_6.0.0.dir/__/__/__/mesh/core/src/replay_cache.c.obj
 .bss.m_bearer_count
                0x20005508        0x1 examples/light_switch/proxy_server/CMakeFiles/light_switch_proxy_server_nrf52832_xxAA_s132_6.0.0.dir/__/__/__/mesh/core/src/core_tx.c.obj
 *fill*         0x20005509        0x3 
 .bss.m_tx_complete_callback
                0x2000550c        0x4 examples/light_switch/proxy_server/CMakeFiles/light_switch_proxy_server_nrf52832_xxAA_s132_6.0.0.dir/__/__/__/mesh/core/src/core_tx.c.obj
 .bss.mp_bearers
                0x20005510        0x4 examples/light_switch/proxy_server/CMakeFiles/light_switch_proxy_server_nrf52832_xxAA_s132_6.0.0.dir/__/__/__/mesh/core/src/core_tx.c.obj
 .bss.m_hb_core_evt_handler
                0x20005514        0x8 examples/light_switch/proxy_server/CMakeFiles/light_switch_proxy_server_nrf52832_xxAA_s132_6.0.0.dir/__/__/__/mesh/core/src/heartbeat.c.obj
 .bss.m_hb_pending_feat_msg
                0x2000551c        0x1 examples/light_switch/proxy_server/CMakeFiles/light_switch_proxy_server_nrf52832_xxAA_s132_6.0.0.dir/__/__/__/mesh/core/src/heartbeat.c.obj
 .bss.m_hb_pending_pub_msg
                0x2000551d        0x1 examples/light_switch/proxy_server/CMakeFiles/light_switch_proxy_server_nrf52832_xxAA_s132_6.0.0.dir/__/__/__/mesh/core/src/heartbeat.c.obj
 .bss.m_heartbeat_init_done
                0x2000551e        0x1 examples/light_switch/proxy_server/CMakeFiles/light_switch_proxy_server_nrf52832_xxAA_s132_6.0.0.dir/__/__/__/mesh/core/src/heartbeat.c.obj
 *fill*         0x2000551f        0x1 
 .bss.m_heartbeat_subscription
                0x20005520       0x10 examples/light_switch/proxy_server/CMakeFiles/light_switch_proxy_server_nrf52832_xxAA_s132_6.0.0.dir/__/__/__/mesh/core/src/heartbeat.c.obj
 .bss.m_publication_count_decrement_cb
                0x20005530        0x4 examples/light_switch/proxy_server/CMakeFiles/light_switch_proxy_server_nrf52832_xxAA_s132_6.0.0.dir/__/__/__/mesh/core/src/heartbeat.c.obj
 .bss.m_publication_get_cb
                0x20005534        0x4 examples/light_switch/proxy_server/CMakeFiles/light_switch_proxy_server_nrf52832_xxAA_s132_6.0.0.dir/__/__/__/mesh/core/src/heartbeat.c.obj
 .bss.m_publication_timer
                0x20005538       0x1c examples/light_switch/proxy_server/CMakeFiles/light_switch_proxy_server_nrf52832_xxAA_s132_6.0.0.dir/__/__/__/mesh/core/src/heartbeat.c.obj
 .bss.m_subscription_timer
                0x20005554       0x18 examples/light_switch/proxy_server/CMakeFiles/light_switch_proxy_server_nrf52832_xxAA_s132_6.0.0.dir/__/__/__/mesh/core/src/heartbeat.c.obj
 .bss.m_adv     0x2000556c       0x98 examples/light_switch/proxy_server/CMakeFiles/light_switch_proxy_server_nrf52832_xxAA_s132_6.0.0.dir/__/__/__/mesh/core/src/net_beacon.c.obj
 .bss.m_adv_buf
                0x20005604       0x34 examples/light_switch/proxy_server/CMakeFiles/light_switch_proxy_server_nrf52832_xxAA_s132_6.0.0.dir/__/__/__/mesh/core/src/net_beacon.c.obj
 .bss.m_beacon_salt
                0x20005638       0x10 examples/light_switch/proxy_server/CMakeFiles/light_switch_proxy_server_nrf52832_xxAA_s132_6.0.0.dir/__/__/__/mesh/core/src/net_beacon.c.obj
 .bss.m_enabled
                0x20005648        0x1 examples/light_switch/proxy_server/CMakeFiles/light_switch_proxy_server_nrf52832_xxAA_s132_6.0.0.dir/__/__/__/mesh/core/src/net_beacon.c.obj
 *fill*         0x20005649        0x3 
 .bss.m_tx_timer
                0x2000564c       0x18 examples/light_switch/proxy_server/CMakeFiles/light_switch_proxy_server_nrf52832_xxAA_s132_6.0.0.dir/__/__/__/mesh/core/src/net_beacon.c.obj
 .bss.mp_beacon_info
                0x20005664        0x4 examples/light_switch/proxy_server/CMakeFiles/light_switch_proxy_server_nrf52832_xxAA_s132_6.0.0.dir/__/__/__/mesh/core/src/net_beacon.c.obj
 .bss.m_bearer  0x20005668        0xc examples/light_switch/proxy_server/CMakeFiles/light_switch_proxy_server_nrf52832_xxAA_s132_6.0.0.dir/__/__/__/mesh/core/src/core_tx_adv.c.obj
 .bss.m_bearer_roles
                0x20005674      0x138 examples/light_switch/proxy_server/CMakeFiles/light_switch_proxy_server_nrf52832_xxAA_s132_6.0.0.dir/__/__/__/mesh/core/src/core_tx_adv.c.obj
 .bss.m_current_alloc
                0x200057ac        0x8 examples/light_switch/proxy_server/CMakeFiles/light_switch_proxy_server_nrf52832_xxAA_s132_6.0.0.dir/__/__/__/mesh/core/src/core_tx_adv.c.obj
 .bss.m_originator_adv_packet_buffer
                0x200057b4      0x100 examples/light_switch/proxy_server/CMakeFiles/light_switch_proxy_server_nrf52832_xxAA_s132_6.0.0.dir/__/__/__/mesh/core/src/core_tx_adv.c.obj
 .bss.m_relay_adv_packet_buffer
                0x200058b4       0x80 examples/light_switch/proxy_server/CMakeFiles/light_switch_proxy_server_nrf52832_xxAA_s132_6.0.0.dir/__/__/__/mesh/core/src/core_tx_adv.c.obj
 .bss.m_subscribers
                0x20005934        0x4 examples/light_switch/proxy_server/CMakeFiles/light_switch_proxy_server_nrf52832_xxAA_s132_6.0.0.dir/__/__/__/mesh/bearer/src/ad_listener.c.obj
 .bss.m_adtype_filter
                0x20005938       0x38 examples/light_switch/proxy_server/CMakeFiles/light_switch_proxy_server_nrf52832_xxAA_s132_6.0.0.dir/__/__/__/mesh/bearer/src/ad_type_filter.c.obj
 .bss.m_adv_prng
                0x20005970       0x10 examples/light_switch/proxy_server/CMakeFiles/light_switch_proxy_server_nrf52832_xxAA_s132_6.0.0.dir/__/__/__/mesh/bearer/src/advertiser.c.obj
 .bss.m_action_queue
                0x20005980        0x8 examples/light_switch/proxy_server/CMakeFiles/light_switch_proxy_server_nrf52832_xxAA_s132_6.0.0.dir/__/__/__/mesh/bearer/src/bearer_handler.c.obj
 .bss.m_end_time
                0x20005988        0x4 examples/light_switch/proxy_server/CMakeFiles/light_switch_proxy_server_nrf52832_xxAA_s132_6.0.0.dir/__/__/__/mesh/bearer/src/bearer_handler.c.obj
 .bss.m_scanner_is_active
                0x2000598c        0x1 examples/light_switch/proxy_server/CMakeFiles/light_switch_proxy_server_nrf52832_xxAA_s132_6.0.0.dir/__/__/__/mesh/bearer/src/bearer_handler.c.obj
 .bss.m_stopped
                0x2000598d        0x1 examples/light_switch/proxy_server/CMakeFiles/light_switch_proxy_server_nrf52832_xxAA_s132_6.0.0.dir/__/__/__/mesh/bearer/src/bearer_handler.c.obj
 *fill*         0x2000598e        0x2 
 .bss.mp_action
                0x20005990        0x4 examples/light_switch/proxy_server/CMakeFiles/light_switch_proxy_server_nrf52832_xxAA_s132_6.0.0.dir/__/__/__/mesh/bearer/src/bearer_handler.c.obj
 .bss.m_next_channel_index
                0x20005994        0x1 examples/light_switch/proxy_server/CMakeFiles/light_switch_proxy_server_nrf52832_xxAA_s132_6.0.0.dir/__/__/__/mesh/bearer/src/broadcast.c.obj
 *fill*         0x20005995        0x3 
 .bss.m_accepted_amount
                0x20005998        0x4 examples/light_switch/proxy_server/CMakeFiles/light_switch_proxy_server_nrf52832_xxAA_s132_6.0.0.dir/__/__/__/mesh/bearer/src/filter_engine.c.obj
 .bss.m_filter_list_head
                0x2000599c        0x4 examples/light_switch/proxy_server/CMakeFiles/light_switch_proxy_server_nrf52832_xxAA_s132_6.0.0.dir/__/__/__/mesh/bearer/src/filter_engine.c.obj
 .bss.m_scanner
                0x200059a0      0x290 examples/light_switch/proxy_server/CMakeFiles/light_switch_proxy_server_nrf52832_xxAA_s132_6.0.0.dir/__/__/__/mesh/bearer/src/scanner.c.obj
 .bss.m_gatt    0x20005c30      0x16c examples/light_switch/proxy_server/CMakeFiles/light_switch_proxy_server_nrf52832_xxAA_s132_6.0.0.dir/__/__/__/mesh/gatt/src/mesh_gatt.c.obj
 .bss.m_advertising
                0x20005d9c       0x24 examples/light_switch/proxy_server/CMakeFiles/light_switch_proxy_server_nrf52832_xxAA_s132_6.0.0.dir/__/__/__/mesh/gatt/src/proxy.c.obj
 .bss.m_beacon_cache
                0x20005dc0       0x1c examples/light_switch/proxy_server/CMakeFiles/light_switch_proxy_server_nrf52832_xxAA_s132_6.0.0.dir/__/__/__/mesh/gatt/src/proxy.c.obj
 .bss.m_beacon_cache_entries
                0x20005ddc       0x40 examples/light_switch/proxy_server/CMakeFiles/light_switch_proxy_server_nrf52832_xxAA_s132_6.0.0.dir/__/__/__/mesh/gatt/src/proxy.c.obj
 .bss.m_connections
                0x20005e1c       0x5c examples/light_switch/proxy_server/CMakeFiles/light_switch_proxy_server_nrf52832_xxAA_s132_6.0.0.dir/__/__/__/mesh/gatt/src/proxy.c.obj
 .bss.m_enabled
                0x20005e78        0x1 examples/light_switch/proxy_server/CMakeFiles/light_switch_proxy_server_nrf52832_xxAA_s132_6.0.0.dir/__/__/__/mesh/gatt/src/proxy.c.obj
 *fill*         0x20005e79        0x3 
 .bss.m_mesh_evt_handler
                0x20005e7c        0x8 examples/light_switch/proxy_server/CMakeFiles/light_switch_proxy_server_nrf52832_xxAA_s132_6.0.0.dir/__/__/__/mesh/gatt/src/proxy.c.obj
 .bss.m_evt_cb  0x20005e84        0x4 examples/light_switch/proxy_server/CMakeFiles/light_switch_proxy_server_nrf52832_xxAA_s132_6.0.0.dir/__/__/__/models/config/src/config_server.c.obj
 .bss.m_heartbeat_publication
                0x20005e88       0x14 examples/light_switch/proxy_server/CMakeFiles/light_switch_proxy_server_nrf52832_xxAA_s132_6.0.0.dir/__/__/__/models/config/src/config_server.c.obj
 .bss.m_node_reset_pending
                0x20005e9c        0x1 examples/light_switch/proxy_server/CMakeFiles/light_switch_proxy_server_nrf52832_xxAA_s132_6.0.0.dir/__/__/__/models/config/src/config_server.c.obj
 *fill*         0x20005e9d        0x3 
 .bss.m_attention_timer
                0x20005ea0       0x18 examples/light_switch/proxy_server/CMakeFiles/light_switch_proxy_server_nrf52832_xxAA_s132_6.0.0.dir/__/__/__/models/health/src/health_server.c.obj
 .bss.mp_attention_list
                0x20005eb8        0x4 examples/light_switch/proxy_server/CMakeFiles/light_switch_proxy_server_nrf52832_xxAA_s132_6.0.0.dir/__/__/__/models/health/src/health_server.c.obj
 .bss.m_publish_timer
                0x20005ebc       0x18 examples/light_switch/proxy_server/CMakeFiles/light_switch_proxy_server_nrf52832_xxAA_s132_6.0.0.dir/__/__/__/mesh/access/src/access_publish.c.obj
 .bss.m_publish_timer_counter
                0x20005ed4        0x4 examples/light_switch/proxy_server/CMakeFiles/light_switch_proxy_server_nrf52832_xxAA_s132_6.0.0.dir/__/__/__/mesh/access/src/access_publish.c.obj
 .bss.m_publish_timer_running
                0x20005ed8        0x1 examples/light_switch/proxy_server/CMakeFiles/light_switch_proxy_server_nrf52832_xxAA_s132_6.0.0.dir/__/__/__/mesh/access/src/access_publish.c.obj
 .bss.m_timer_resolution
                0x20005ed9        0x1 examples/light_switch/proxy_server/CMakeFiles/light_switch_proxy_server_nrf52832_xxAA_s132_6.0.0.dir/__/__/__/mesh/access/src/access_publish.c.obj
 *fill*         0x20005eda        0x2 
 .bss.mp_publication_list
                0x20005edc        0x4 examples/light_switch/proxy_server/CMakeFiles/light_switch_proxy_server_nrf52832_xxAA_s132_6.0.0.dir/__/__/__/mesh/access/src/access_publish.c.obj
 .bss.m_element_pool
                0x20005ee0        0x6 examples/light_switch/proxy_server/CMakeFiles/light_switch_proxy_server_nrf52832_xxAA_s132_6.0.0.dir/__/__/__/mesh/access/src/access.c.obj
 *fill*         0x20005ee6        0x2 
 .bss.m_evt_handler
                0x20005ee8        0x8 examples/light_switch/proxy_server/CMakeFiles/light_switch_proxy_server_nrf52832_xxAA_s132_6.0.0.dir/__/__/__/mesh/access/src/access.c.obj
 .bss.m_flash_manager
                0x20005ef0       0x24 examples/light_switch/proxy_server/CMakeFiles/light_switch_proxy_server_nrf52832_xxAA_s132_6.0.0.dir/__/__/__/mesh/access/src/access.c.obj
 .bss.m_flash_not_ready
                0x20005f14        0x1 examples/light_switch/proxy_server/CMakeFiles/light_switch_proxy_server_nrf52832_xxAA_s132_6.0.0.dir/__/__/__/mesh/access/src/access.c.obj
 .bss.m_metadata_stored
                0x20005f15        0x1 examples/light_switch/proxy_server/CMakeFiles/light_switch_proxy_server_nrf52832_xxAA_s132_6.0.0.dir/__/__/__/mesh/access/src/access.c.obj
 *fill*         0x20005f16        0x2 
 .bss.m_model_pool
                0x20005f18       0x9c examples/light_switch/proxy_server/CMakeFiles/light_switch_proxy_server_nrf52832_xxAA_s132_6.0.0.dir/__/__/__/mesh/access/src/access.c.obj
 .bss.m_subscription_list_pool
                0x20005fb4        0x8 examples/light_switch/proxy_server/CMakeFiles/light_switch_proxy_server_nrf52832_xxAA_s132_6.0.0.dir/__/__/__/mesh/access/src/access.c.obj
 .bss.m_reliable
                0x20005fbc       0xa0 examples/light_switch/proxy_server/CMakeFiles/light_switch_proxy_server_nrf52832_xxAA_s132_6.0.0.dir/__/__/__/mesh/access/src/access_reliable.c.obj
 .bss.m_addr_nonvirtual_allocated
                0x2000605c        0x4 examples/light_switch/proxy_server/CMakeFiles/light_switch_proxy_server_nrf52832_xxAA_s132_6.0.0.dir/__/__/__/mesh/access/src/device_state_manager.c.obj
 .bss.m_addr_nonvirtual_needs_flashing
                0x20006060        0x4 examples/light_switch/proxy_server/CMakeFiles/light_switch_proxy_server_nrf52832_xxAA_s132_6.0.0.dir/__/__/__/mesh/access/src/device_state_manager.c.obj
 .bss.m_addr_unicast_allocated
                0x20006064        0x4 examples/light_switch/proxy_server/CMakeFiles/light_switch_proxy_server_nrf52832_xxAA_s132_6.0.0.dir/__/__/__/mesh/access/src/device_state_manager.c.obj
 .bss.m_addr_unicast_needs_flashing
                0x20006068        0x4 examples/light_switch/proxy_server/CMakeFiles/light_switch_proxy_server_nrf52832_xxAA_s132_6.0.0.dir/__/__/__/mesh/access/src/device_state_manager.c.obj
 .bss.m_addr_virtual_allocated
                0x2000606c        0x4 examples/light_switch/proxy_server/CMakeFiles/light_switch_proxy_server_nrf52832_xxAA_s132_6.0.0.dir/__/__/__/mesh/access/src/device_state_manager.c.obj
 .bss.m_addr_virtual_needs_flashing
                0x20006070        0x4 examples/light_switch/proxy_server/CMakeFiles/light_switch_proxy_server_nrf52832_xxAA_s132_6.0.0.dir/__/__/__/mesh/access/src/device_state_manager.c.obj
 .bss.m_addresses
                0x20006074       0x20 examples/light_switch/proxy_server/CMakeFiles/light_switch_proxy_server_nrf52832_xxAA_s132_6.0.0.dir/__/__/__/mesh/access/src/device_state_manager.c.obj
 .bss.m_appkey_allocated
                0x20006094        0x4 examples/light_switch/proxy_server/CMakeFiles/light_switch_proxy_server_nrf52832_xxAA_s132_6.0.0.dir/__/__/__/mesh/access/src/device_state_manager.c.obj
 .bss.m_appkey_needs_flashing
                0x20006098        0x4 examples/light_switch/proxy_server/CMakeFiles/light_switch_proxy_server_nrf52832_xxAA_s132_6.0.0.dir/__/__/__/mesh/access/src/device_state_manager.c.obj
 .bss.m_appkeys
                0x2000609c      0x150 examples/light_switch/proxy_server/CMakeFiles/light_switch_proxy_server_nrf52832_xxAA_s132_6.0.0.dir/__/__/__/mesh/access/src/device_state_manager.c.obj
 .bss.m_devkey_allocated
                0x200061ec        0x4 examples/light_switch/proxy_server/CMakeFiles/light_switch_proxy_server_nrf52832_xxAA_s132_6.0.0.dir/__/__/__/mesh/access/src/device_state_manager.c.obj
 .bss.m_devkey_needs_flashing
                0x200061f0        0x4 examples/light_switch/proxy_server/CMakeFiles/light_switch_proxy_server_nrf52832_xxAA_s132_6.0.0.dir/__/__/__/mesh/access/src/device_state_manager.c.obj
 .bss.m_devkeys
                0x200061f4       0x16 examples/light_switch/proxy_server/CMakeFiles/light_switch_proxy_server_nrf52832_xxAA_s132_6.0.0.dir/__/__/__/mesh/access/src/device_state_manager.c.obj
 .bss.m_flash_is_available
                0x2000620a        0x1 examples/light_switch/proxy_server/CMakeFiles/light_switch_proxy_server_nrf52832_xxAA_s132_6.0.0.dir/__/__/__/mesh/access/src/device_state_manager.c.obj
 *fill*         0x2000620b        0x1 
 .bss.m_flash_manager
                0x2000620c       0x24 examples/light_switch/proxy_server/CMakeFiles/light_switch_proxy_server_nrf52832_xxAA_s132_6.0.0.dir/__/__/__/mesh/access/src/device_state_manager.c.obj
 .bss.m_flash_mem_listener_update_all
                0x20006230       0x10 examples/light_switch/proxy_server/CMakeFiles/light_switch_proxy_server_nrf52832_xxAA_s132_6.0.0.dir/__/__/__/mesh/access/src/device_state_manager.c.obj
 .bss.m_has_primary_subnet
                0x20006240        0x1 examples/light_switch/proxy_server/CMakeFiles/light_switch_proxy_server_nrf52832_xxAA_s132_6.0.0.dir/__/__/__/mesh/access/src/device_state_manager.c.obj
 *fill*         0x20006241        0x3 
 .bss.m_local_unicast_addr
                0x20006244        0x4 examples/light_switch/proxy_server/CMakeFiles/light_switch_proxy_server_nrf52832_xxAA_s132_6.0.0.dir/__/__/__/mesh/access/src/device_state_manager.c.obj
 .bss.m_mesh_evt_handler
                0x20006248        0x8 examples/light_switch/proxy_server/CMakeFiles/light_switch_proxy_server_nrf52832_xxAA_s132_6.0.0.dir/__/__/__/mesh/access/src/device_state_manager.c.obj
 .bss.m_subnet_allocated
                0x20006250        0x4 examples/light_switch/proxy_server/CMakeFiles/light_switch_proxy_server_nrf52832_xxAA_s132_6.0.0.dir/__/__/__/mesh/access/src/device_state_manager.c.obj
 .bss.m_subnet_needs_flashing
                0x20006254        0x4 examples/light_switch/proxy_server/CMakeFiles/light_switch_proxy_server_nrf52832_xxAA_s132_6.0.0.dir/__/__/__/mesh/access/src/device_state_manager.c.obj
 .bss.m_subnets
                0x20006258      0x190 examples/light_switch/proxy_server/CMakeFiles/light_switch_proxy_server_nrf52832_xxAA_s132_6.0.0.dir/__/__/__/mesh/access/src/device_state_manager.c.obj
 .bss.m_virtual_addresses
                0x200063e8       0xa0 examples/light_switch/proxy_server/CMakeFiles/light_switch_proxy_server_nrf52832_xxAA_s132_6.0.0.dir/__/__/__/mesh/access/src/device_state_manager.c.obj
 .bss.m_event_handler
                0x20006488        0x4 examples/light_switch/proxy_server/CMakeFiles/light_switch_proxy_server_nrf52832_xxAA_s132_6.0.0.dir/__/__/__/mesh/prov/src/prov_beacon.c.obj
 .bss.m_offload_ecdh
                0x2000648c        0x1 examples/light_switch/proxy_server/CMakeFiles/light_switch_proxy_server_nrf52832_xxAA_s132_6.0.0.dir/__/__/__/mesh/prov/src/prov_utils.c.obj
 *fill*         0x2000648d        0x3 
 .bss.mp_bearer_head
                0x20006490        0x4 examples/light_switch/proxy_server/CMakeFiles/light_switch_proxy_server_nrf52832_xxAA_s132_6.0.0.dir/__/__/__/mesh/prov/src/prov_bearer_adv.c.obj
 .bss._acDownBuffer
                0x20006494       0x80 external/rtt/librtt_nrf52832_xxAA.a(SEGGER_RTT.c.obj)
 .bss._acUpBuffer
                0x20006514      0x400 external/rtt/librtt_nrf52832_xxAA.a(SEGGER_RTT.c.obj)
 .bss.__malloc_free_list
                0x20006914        0x4 c:/mesh/arm_gcc/bin/../lib/gcc/arm-none-eabi/6.3.1/../../../../arm-none-eabi/lib/thumb/v7e-m/fpv4-sp/hard\libc_nano.a(lib_a-nano-mallocr.o)
                0x20006914                __malloc_free_list
 .bss.__malloc_sbrk_start
                0x20006918        0x4 c:/mesh/arm_gcc/bin/../lib/gcc/arm-none-eabi/6.3.1/../../../../arm-none-eabi/lib/thumb/v7e-m/fpv4-sp/hard\libc_nano.a(lib_a-nano-mallocr.o)
                0x20006918                __malloc_sbrk_start
 .bss.heap_end.5239
                0x2000691c        0x4 c:/mesh/arm_gcc/bin/../lib/gcc/arm-none-eabi/6.3.1/../../../../arm-none-eabi/lib/thumb/v7e-m/fpv4-sp/hard\libnosys.a(sbrk.o)
 *(COMMON)
 COMMON         0x20006920        0xc examples/light_switch/proxy_server/CMakeFiles/light_switch_proxy_server_nrf52832_xxAA_s132_6.0.0.dir/C_/b/nRF5_SDK_15.0.0_a53641a/components/libraries/util/app_util_platform.c.obj
                0x20006920                nrf_nvic_state
 COMMON         0x2000692c       0x24 examples/light_switch/proxy_server/CMakeFiles/light_switch_proxy_server_nrf52832_xxAA_s132_6.0.0.dir/__/__/__/mesh/core/src/core_tx.c.obj
                0x2000692c                m_packet
 COMMON         0x20006950       0x78 external/rtt/librtt_nrf52832_xxAA.a(SEGGER_RTT.c.obj)
                0x20006950                _SEGGER_RTT
 COMMON         0x200069c8        0x4 c:/mesh/arm_gcc/bin/../lib/gcc/arm-none-eabi/6.3.1/../../../../arm-none-eabi/lib/thumb/v7e-m/fpv4-sp/hard\libc_nano.a(lib_a-reent.o)
                0x200069c8                errno
                0x200069cc                . = ALIGN (0x4)
                0x200069cc                __bss_end__ = .

.heap           0x200069d0     0x2000
                0x200069d0                __HeapBase = .
                0x200069d0                __end__ = .
                0x200069d0                PROVIDE (end, .)
 *(.heap*)
 .heap          0x200069d0     0x2000 examples/light_switch/proxy_server/CMakeFiles/light_switch_proxy_server_nrf52832_xxAA_s132_6.0.0.dir/C_/b/nRF5_SDK_15.0.0_a53641a/modules/nrfx/mdk/gcc_startup_nrf52.S.obj
                0x200089d0                __HeapLimit = .

.stack_dummy    0x200069d0     0x2000
 *(.stack*)
 .stack         0x200069d0     0x2000 examples/light_switch/proxy_server/CMakeFiles/light_switch_proxy_server_nrf52832_xxAA_s132_6.0.0.dir/C_/b/nRF5_SDK_15.0.0_a53641a/modules/nrfx/mdk/gcc_startup_nrf52.S.obj
                0x2000fd00                __StackTop = (ORIGIN (RAM) + LENGTH (RAM))
                0x2000dd00                __StackLimit = (__StackTop - SIZEOF (.stack_dummy))
                0x2000fd00                PROVIDE (__stack, __StackTop)
                0x00000001                ASSERT ((__StackLimit >= __HeapLimit), region RAM overflowed with stack)
                0x000001c8                DataInitFlashUsed = (__bss_start__ - __data_start__)
                0x00020c00                CodeFlashUsed = (__etext - ORIGIN (FLASH))
                0x00020dc8                TotalFlashUsed = (CodeFlashUsed + DataInitFlashUsed)
                0x00000001                ASSERT ((TotalFlashUsed <= LENGTH (FLASH)), region FLASH overflowed with .data and user data)
OUTPUT(examples\light_switch\proxy_server\light_switch_proxy_server_nrf52832_xxAA_s132_6.0.0.elf elf32-littlearm)

.ARM.attributes
                0x00000000       0x30
 .ARM.attributes
                0x00000000       0x22 c:/mesh/arm_gcc/bin/../lib/gcc/arm-none-eabi/6.3.1/thumb/v7e-m/fpv4-sp/hard/crti.o
 .ARM.attributes
                0x00000022       0x34 c:/mesh/arm_gcc/bin/../lib/gcc/arm-none-eabi/6.3.1/thumb/v7e-m/fpv4-sp/hard/crtbegin.o
 .ARM.attributes
                0x00000056       0x20 c:/mesh/arm_gcc/bin/../lib/gcc/arm-none-eabi/6.3.1/../../../../arm-none-eabi/lib/thumb/v7e-m/fpv4-sp/hard/crt0.o
 .ARM.attributes
                0x00000076       0x39 examples/light_switch/proxy_server/CMakeFiles/light_switch_proxy_server_nrf52832_xxAA_s132_6.0.0.dir/src/main.c.obj
 .ARM.attributes
                0x000000af       0x39 examples/light_switch/proxy_server/CMakeFiles/light_switch_proxy_server_nrf52832_xxAA_s132_6.0.0.dir/__/__/__/mesh/stack/src/mesh_stack.c.obj
 .ARM.attributes
                0x000000e8       0x39 examples/light_switch/proxy_server/CMakeFiles/light_switch_proxy_server_nrf52832_xxAA_s132_6.0.0.dir/__/__/common/src/mesh_provisionee.c.obj
 .ARM.attributes
                0x00000121       0x39 examples/light_switch/proxy_server/CMakeFiles/light_switch_proxy_server_nrf52832_xxAA_s132_6.0.0.dir/__/__/common/src/rtt_input.c.obj
 .ARM.attributes
                0x0000015a       0x39 examples/light_switch/proxy_server/CMakeFiles/light_switch_proxy_server_nrf52832_xxAA_s132_6.0.0.dir/__/__/common/src/simple_hal.c.obj
 .ARM.attributes
                0x00000193       0x39 examples/light_switch/proxy_server/CMakeFiles/light_switch_proxy_server_nrf52832_xxAA_s132_6.0.0.dir/__/__/common/src/mesh_app_utils.c.obj
 .ARM.attributes
                0x000001cc       0x39 examples/light_switch/proxy_server/CMakeFiles/light_switch_proxy_server_nrf52832_xxAA_s132_6.0.0.dir/__/__/common/src/mesh_adv.c.obj
 .ARM.attributes
                0x00000205       0x39 examples/light_switch/proxy_server/CMakeFiles/light_switch_proxy_server_nrf52832_xxAA_s132_6.0.0.dir/__/__/__/mesh/prov/src/nrf_mesh_prov_bearer_gatt.c.obj
 .ARM.attributes
                0x0000023e       0x39 examples/light_switch/proxy_server/CMakeFiles/light_switch_proxy_server_nrf52832_xxAA_s132_6.0.0.dir/C_/b/nRF5_SDK_15.0.0_a53641a/components/libraries/util/app_util_platform.c.obj
 .ARM.attributes
                0x00000277       0x39 examples/light_switch/proxy_server/CMakeFiles/light_switch_proxy_server_nrf52832_xxAA_s132_6.0.0.dir/C_/b/nRF5_SDK_15.0.0_a53641a/components/ble/common/ble_advdata.c.obj
 .ARM.attributes
                0x000002b0       0x39 examples/light_switch/proxy_server/CMakeFiles/light_switch_proxy_server_nrf52832_xxAA_s132_6.0.0.dir/C_/b/nRF5_SDK_15.0.0_a53641a/components/libraries/experimental_section_vars/nrf_section_iter.c.obj
 .ARM.attributes
                0x000002e9       0x39 examples/light_switch/proxy_server/CMakeFiles/light_switch_proxy_server_nrf52832_xxAA_s132_6.0.0.dir/C_/b/nRF5_SDK_15.0.0_a53641a/components/softdevice/common/nrf_sdh.c.obj
 .ARM.attributes
                0x00000322       0x39 examples/light_switch/proxy_server/CMakeFiles/light_switch_proxy_server_nrf52832_xxAA_s132_6.0.0.dir/C_/b/nRF5_SDK_15.0.0_a53641a/components/softdevice/common/nrf_sdh_soc.c.obj
 .ARM.attributes
                0x0000035b       0x39 examples/light_switch/proxy_server/CMakeFiles/light_switch_proxy_server_nrf52832_xxAA_s132_6.0.0.dir/C_/b/nRF5_SDK_15.0.0_a53641a/components/softdevice/common/nrf_sdh_ble.c.obj
 .ARM.attributes
                0x00000394       0x39 examples/light_switch/proxy_server/CMakeFiles/light_switch_proxy_server_nrf52832_xxAA_s132_6.0.0.dir/__/__/nrf_mesh_weak.c.obj
 .ARM.attributes
                0x000003cd       0x39 examples/light_switch/proxy_server/CMakeFiles/light_switch_proxy_server_nrf52832_xxAA_s132_6.0.0.dir/__/__/common/src/app_error_weak.c.obj
 .ARM.attributes
                0x00000406       0x39 examples/light_switch/proxy_server/CMakeFiles/light_switch_proxy_server_nrf52832_xxAA_s132_6.0.0.dir/__/__/common/src/assertion_handler_weak.c.obj
 .ARM.attributes
                0x0000043f       0x39 examples/light_switch/proxy_server/CMakeFiles/light_switch_proxy_server_nrf52832_xxAA_s132_6.0.0.dir/__/__/__/mesh/core/src/nrf_mesh_configure.c.obj
 .ARM.attributes
                0x00000478       0x39 examples/light_switch/proxy_server/CMakeFiles/light_switch_proxy_server_nrf52832_xxAA_s132_6.0.0.dir/__/__/__/mesh/core/src/aes.c.obj
 .ARM.attributes
                0x000004b1       0x39 examples/light_switch/proxy_server/CMakeFiles/light_switch_proxy_server_nrf52832_xxAA_s132_6.0.0.dir/__/__/__/mesh/core/src/msg_cache.c.obj
 .ARM.attributes
                0x000004ea       0x39 examples/light_switch/proxy_server/CMakeFiles/light_switch_proxy_server_nrf52832_xxAA_s132_6.0.0.dir/__/__/__/mesh/core/src/transport.c.obj
 .ARM.attributes
                0x00000523       0x39 examples/light_switch/proxy_server/CMakeFiles/light_switch_proxy_server_nrf52832_xxAA_s132_6.0.0.dir/__/__/__/mesh/core/src/event.c.obj
 .ARM.attributes
                0x0000055c       0x39 examples/light_switch/proxy_server/CMakeFiles/light_switch_proxy_server_nrf52832_xxAA_s132_6.0.0.dir/__/__/__/mesh/core/src/packet_buffer.c.obj
 .ARM.attributes
                0x00000595       0x39 examples/light_switch/proxy_server/CMakeFiles/light_switch_proxy_server_nrf52832_xxAA_s132_6.0.0.dir/__/__/__/mesh/core/src/flash_manager_defrag.c.obj
 .ARM.attributes
                0x000005ce       0x39 examples/light_switch/proxy_server/CMakeFiles/light_switch_proxy_server_nrf52832_xxAA_s132_6.0.0.dir/__/__/__/mesh/core/src/fifo.c.obj
 .ARM.attributes
                0x00000607       0x39 examples/light_switch/proxy_server/CMakeFiles/light_switch_proxy_server_nrf52832_xxAA_s132_6.0.0.dir/__/__/__/mesh/core/src/nrf_flash.c.obj
 .ARM.attributes
                0x00000640       0x39 examples/light_switch/proxy_server/CMakeFiles/light_switch_proxy_server_nrf52832_xxAA_s132_6.0.0.dir/__/__/__/mesh/core/src/packet_mgr.c.obj
 .ARM.attributes
                0x00000679       0x39 examples/light_switch/proxy_server/CMakeFiles/light_switch_proxy_server_nrf52832_xxAA_s132_6.0.0.dir/__/__/__/mesh/core/src/net_state.c.obj
 .ARM.attributes
                0x000006b2       0x39 examples/light_switch/proxy_server/CMakeFiles/light_switch_proxy_server_nrf52832_xxAA_s132_6.0.0.dir/__/__/__/mesh/core/src/mesh_flash.c.obj
 .ARM.attributes
                0x000006eb       0x39 examples/light_switch/proxy_server/CMakeFiles/light_switch_proxy_server_nrf52832_xxAA_s132_6.0.0.dir/__/__/__/mesh/core/src/nrf_mesh_utils.c.obj
 .ARM.attributes
                0x00000724       0x39 examples/light_switch/proxy_server/CMakeFiles/light_switch_proxy_server_nrf52832_xxAA_s132_6.0.0.dir/__/__/__/mesh/core/src/nrf_mesh.c.obj
 .ARM.attributes
                0x0000075d       0x39 examples/light_switch/proxy_server/CMakeFiles/light_switch_proxy_server_nrf52832_xxAA_s132_6.0.0.dir/__/__/__/mesh/core/src/queue.c.obj
 .ARM.attributes
                0x00000796       0x39 examples/light_switch/proxy_server/CMakeFiles/light_switch_proxy_server_nrf52832_xxAA_s132_6.0.0.dir/__/__/__/mesh/core/src/hal.c.obj
 .ARM.attributes
                0x000007cf       0x39 examples/light_switch/proxy_server/CMakeFiles/light_switch_proxy_server_nrf52832_xxAA_s132_6.0.0.dir/__/__/__/mesh/core/src/aes_cmac.c.obj
 .ARM.attributes
                0x00000808       0x39 examples/light_switch/proxy_server/CMakeFiles/light_switch_proxy_server_nrf52832_xxAA_s132_6.0.0.dir/__/__/__/mesh/core/src/timer_scheduler.c.obj
 .ARM.attributes
                0x00000841       0x39 examples/light_switch/proxy_server/CMakeFiles/light_switch_proxy_server_nrf52832_xxAA_s132_6.0.0.dir/__/__/__/mesh/core/src/timer.c.obj
 .ARM.attributes
                0x0000087a       0x39 examples/light_switch/proxy_server/CMakeFiles/light_switch_proxy_server_nrf52832_xxAA_s132_6.0.0.dir/__/__/__/mesh/core/src/ticker.c.obj
 .ARM.attributes
                0x000008b3       0x39 examples/light_switch/proxy_server/CMakeFiles/light_switch_proxy_server_nrf52832_xxAA_s132_6.0.0.dir/__/__/__/mesh/core/src/rand.c.obj
 .ARM.attributes
                0x000008ec       0x39 examples/light_switch/proxy_server/CMakeFiles/light_switch_proxy_server_nrf52832_xxAA_s132_6.0.0.dir/__/__/__/mesh/core/src/nrf_mesh_opt.c.obj
 .ARM.attributes
                0x00000925       0x39 examples/light_switch/proxy_server/CMakeFiles/light_switch_proxy_server_nrf52832_xxAA_s132_6.0.0.dir/__/__/__/mesh/core/src/timeslot.c.obj
 .ARM.attributes
                0x0000095e       0x39 examples/light_switch/proxy_server/CMakeFiles/light_switch_proxy_server_nrf52832_xxAA_s132_6.0.0.dir/__/__/__/mesh/core/src/bearer_event.c.obj
 .ARM.attributes
                0x00000997       0x39 examples/light_switch/proxy_server/CMakeFiles/light_switch_proxy_server_nrf52832_xxAA_s132_6.0.0.dir/__/__/__/mesh/core/src/enc.c.obj
 .ARM.attributes
                0x000009d0       0x39 examples/light_switch/proxy_server/CMakeFiles/light_switch_proxy_server_nrf52832_xxAA_s132_6.0.0.dir/__/__/__/mesh/core/src/network.c.obj
 .ARM.attributes
                0x00000a09       0x39 examples/light_switch/proxy_server/CMakeFiles/light_switch_proxy_server_nrf52832_xxAA_s132_6.0.0.dir/__/__/__/mesh/core/src/net_packet.c.obj
 .ARM.attributes
                0x00000a42       0x39 examples/light_switch/proxy_server/CMakeFiles/light_switch_proxy_server_nrf52832_xxAA_s132_6.0.0.dir/__/__/__/mesh/core/src/msqueue.c.obj
 .ARM.attributes
                0x00000a7b       0x39 examples/light_switch/proxy_server/CMakeFiles/light_switch_proxy_server_nrf52832_xxAA_s132_6.0.0.dir/__/__/__/mesh/core/src/nrf_mesh_keygen.c.obj
 .ARM.attributes
                0x00000ab4       0x39 examples/light_switch/proxy_server/CMakeFiles/light_switch_proxy_server_nrf52832_xxAA_s132_6.0.0.dir/__/__/__/mesh/core/src/cache.c.obj
 .ARM.attributes
                0x00000aed       0x39 examples/light_switch/proxy_server/CMakeFiles/light_switch_proxy_server_nrf52832_xxAA_s132_6.0.0.dir/__/__/__/mesh/core/src/list.c.obj
 .ARM.attributes
                0x00000b26       0x39 examples/light_switch/proxy_server/CMakeFiles/light_switch_proxy_server_nrf52832_xxAA_s132_6.0.0.dir/__/__/__/mesh/core/src/log.c.obj
 .ARM.attributes
                0x00000b5f       0x39 examples/light_switch/proxy_server/CMakeFiles/light_switch_proxy_server_nrf52832_xxAA_s132_6.0.0.dir/__/__/__/mesh/core/src/flash_manager.c.obj
 .ARM.attributes
                0x00000b98       0x39 examples/light_switch/proxy_server/CMakeFiles/light_switch_proxy_server_nrf52832_xxAA_s132_6.0.0.dir/__/__/__/mesh/core/src/ccm_soft.c.obj
 .ARM.attributes
                0x00000bd1       0x39 examples/light_switch/proxy_server/CMakeFiles/light_switch_proxy_server_nrf52832_xxAA_s132_6.0.0.dir/__/__/__/mesh/core/src/replay_cache.c.obj
 .ARM.attributes
                0x00000c0a       0x39 examples/light_switch/proxy_server/CMakeFiles/light_switch_proxy_server_nrf52832_xxAA_s132_6.0.0.dir/__/__/__/mesh/core/src/beacon.c.obj
 .ARM.attributes
                0x00000c43       0x39 examples/light_switch/proxy_server/CMakeFiles/light_switch_proxy_server_nrf52832_xxAA_s132_6.0.0.dir/__/__/__/mesh/core/src/flash_manager_internal.c.obj
 .ARM.attributes
                0x00000c7c       0x39 examples/light_switch/proxy_server/CMakeFiles/light_switch_proxy_server_nrf52832_xxAA_s132_6.0.0.dir/__/__/__/mesh/core/src/core_tx.c.obj
 .ARM.attributes
                0x00000cb5       0x39 examples/light_switch/proxy_server/CMakeFiles/light_switch_proxy_server_nrf52832_xxAA_s132_6.0.0.dir/__/__/__/mesh/core/src/heartbeat.c.obj
 .ARM.attributes
                0x00000cee       0x39 examples/light_switch/proxy_server/CMakeFiles/light_switch_proxy_server_nrf52832_xxAA_s132_6.0.0.dir/__/__/__/mesh/core/src/net_beacon.c.obj
 .ARM.attributes
                0x00000d27       0x39 examples/light_switch/proxy_server/CMakeFiles/light_switch_proxy_server_nrf52832_xxAA_s132_6.0.0.dir/__/__/__/mesh/core/src/fsm.c.obj
 .ARM.attributes
                0x00000d60       0x39 examples/light_switch/proxy_server/CMakeFiles/light_switch_proxy_server_nrf52832_xxAA_s132_6.0.0.dir/__/__/__/mesh/core/src/core_tx_adv.c.obj
 .ARM.attributes
                0x00000d99       0x39 examples/light_switch/proxy_server/CMakeFiles/light_switch_proxy_server_nrf52832_xxAA_s132_6.0.0.dir/__/__/__/mesh/bearer/src/ad_listener.c.obj
 .ARM.attributes
                0x00000dd2       0x39 examples/light_switch/proxy_server/CMakeFiles/light_switch_proxy_server_nrf52832_xxAA_s132_6.0.0.dir/__/__/__/mesh/bearer/src/ad_type_filter.c.obj
 .ARM.attributes
                0x00000e0b       0x39 examples/light_switch/proxy_server/CMakeFiles/light_switch_proxy_server_nrf52832_xxAA_s132_6.0.0.dir/__/__/__/mesh/bearer/src/advertiser.c.obj
 .ARM.attributes
                0x00000e44       0x39 examples/light_switch/proxy_server/CMakeFiles/light_switch_proxy_server_nrf52832_xxAA_s132_6.0.0.dir/__/__/__/mesh/bearer/src/bearer_handler.c.obj
 .ARM.attributes
                0x00000e7d       0x39 examples/light_switch/proxy_server/CMakeFiles/light_switch_proxy_server_nrf52832_xxAA_s132_6.0.0.dir/__/__/__/mesh/bearer/src/broadcast.c.obj
 .ARM.attributes
                0x00000eb6       0x39 examples/light_switch/proxy_server/CMakeFiles/light_switch_proxy_server_nrf52832_xxAA_s132_6.0.0.dir/__/__/__/mesh/bearer/src/filter_engine.c.obj
 .ARM.attributes
                0x00000eef       0x39 examples/light_switch/proxy_server/CMakeFiles/light_switch_proxy_server_nrf52832_xxAA_s132_6.0.0.dir/__/__/__/mesh/bearer/src/radio_config.c.obj
 .ARM.attributes
                0x00000f28       0x39 examples/light_switch/proxy_server/CMakeFiles/light_switch_proxy_server_nrf52832_xxAA_s132_6.0.0.dir/__/__/__/mesh/bearer/src/scanner.c.obj
 .ARM.attributes
                0x00000f61       0x39 examples/light_switch/proxy_server/CMakeFiles/light_switch_proxy_server_nrf52832_xxAA_s132_6.0.0.dir/__/__/__/mesh/gatt/src/mesh_gatt.c.obj
 .ARM.attributes
                0x00000f9a       0x39 examples/light_switch/proxy_server/CMakeFiles/light_switch_proxy_server_nrf52832_xxAA_s132_6.0.0.dir/__/__/__/mesh/gatt/src/proxy.c.obj
 .ARM.attributes
                0x00000fd3       0x39 examples/light_switch/proxy_server/CMakeFiles/light_switch_proxy_server_nrf52832_xxAA_s132_6.0.0.dir/__/__/__/mesh/gatt/src/proxy_filter.c.obj
 .ARM.attributes
                0x0000100c       0x39 examples/light_switch/proxy_server/CMakeFiles/light_switch_proxy_server_nrf52832_xxAA_s132_6.0.0.dir/__/__/__/models/simple_on_off/src/simple_on_off_server.c.obj
 .ARM.attributes
                0x00001045       0x39 examples/light_switch/proxy_server/CMakeFiles/light_switch_proxy_server_nrf52832_xxAA_s132_6.0.0.dir/__/__/__/models/config/src/composition_data.c.obj
 .ARM.attributes
                0x0000107e       0x39 examples/light_switch/proxy_server/CMakeFiles/light_switch_proxy_server_nrf52832_xxAA_s132_6.0.0.dir/__/__/__/models/config/src/config_server.c.obj
 .ARM.attributes
                0x000010b7       0x39 examples/light_switch/proxy_server/CMakeFiles/light_switch_proxy_server_nrf52832_xxAA_s132_6.0.0.dir/__/__/__/models/config/src/packed_index_list.c.obj
 .ARM.attributes
                0x000010f0       0x39 examples/light_switch/proxy_server/CMakeFiles/light_switch_proxy_server_nrf52832_xxAA_s132_6.0.0.dir/__/__/__/models/health/src/health_server.c.obj
 .ARM.attributes
                0x00001129       0x39 examples/light_switch/proxy_server/CMakeFiles/light_switch_proxy_server_nrf52832_xxAA_s132_6.0.0.dir/__/__/__/mesh/access/src/access_publish.c.obj
 .ARM.attributes
                0x00001162       0x39 examples/light_switch/proxy_server/CMakeFiles/light_switch_proxy_server_nrf52832_xxAA_s132_6.0.0.dir/__/__/__/mesh/access/src/access.c.obj
 .ARM.attributes
                0x0000119b       0x39 examples/light_switch/proxy_server/CMakeFiles/light_switch_proxy_server_nrf52832_xxAA_s132_6.0.0.dir/__/__/__/mesh/access/src/access_reliable.c.obj
 .ARM.attributes
                0x000011d4       0x39 examples/light_switch/proxy_server/CMakeFiles/light_switch_proxy_server_nrf52832_xxAA_s132_6.0.0.dir/__/__/__/mesh/access/src/device_state_manager.c.obj
 .ARM.attributes
                0x0000120d       0x39 examples/light_switch/proxy_server/CMakeFiles/light_switch_proxy_server_nrf52832_xxAA_s132_6.0.0.dir/__/__/__/mesh/prov/src/prov_provisionee.c.obj
 .ARM.attributes
                0x00001246       0x39 examples/light_switch/proxy_server/CMakeFiles/light_switch_proxy_server_nrf52832_xxAA_s132_6.0.0.dir/__/__/__/mesh/prov/src/nrf_mesh_prov.c.obj
 .ARM.attributes
                0x0000127f       0x39 examples/light_switch/proxy_server/CMakeFiles/light_switch_proxy_server_nrf52832_xxAA_s132_6.0.0.dir/__/__/__/mesh/prov/src/provisioning.c.obj
 .ARM.attributes
                0x000012b8       0x39 examples/light_switch/proxy_server/CMakeFiles/light_switch_proxy_server_nrf52832_xxAA_s132_6.0.0.dir/__/__/__/mesh/prov/src/prov_beacon.c.obj
 .ARM.attributes
                0x000012f1       0x39 examples/light_switch/proxy_server/CMakeFiles/light_switch_proxy_server_nrf52832_xxAA_s132_6.0.0.dir/__/__/__/mesh/prov/src/prov_utils.c.obj
 .ARM.attributes
                0x0000132a       0x39 examples/light_switch/proxy_server/CMakeFiles/light_switch_proxy_server_nrf52832_xxAA_s132_6.0.0.dir/__/__/__/mesh/prov/src/prov_bearer_adv.c.obj
 .ARM.attributes
                0x00001363       0x39 examples/light_switch/proxy_server/CMakeFiles/light_switch_proxy_server_nrf52832_xxAA_s132_6.0.0.dir/C_/b/nRF5_SDK_15.0.0_a53641a/modules/nrfx/mdk/system_nrf52.c.obj
 .ARM.attributes
                0x0000139c       0x20 examples/light_switch/proxy_server/CMakeFiles/light_switch_proxy_server_nrf52832_xxAA_s132_6.0.0.dir/C_/b/nRF5_SDK_15.0.0_a53641a/modules/nrfx/mdk/gcc_startup_nrf52.S.obj
 .ARM.attributes
                0x000013bc       0x39 examples/light_switch/proxy_server/CMakeFiles/light_switch_proxy_server_nrf52832_xxAA_s132_6.0.0.dir/C_/b/nRF5_SDK_15.0.0_a53641a/components/libraries/util/app_error.c.obj
 .ARM.attributes
                0x000013f5       0x39 examples/light_switch/proxy_server/CMakeFiles/light_switch_proxy_server_nrf52832_xxAA_s132_6.0.0.dir/C_/b/nRF5_SDK_15.0.0_a53641a/components/libraries/util/app_error_handler_gcc.c.obj
 .ARM.attributes
                0x0000142e       0x39 external/rtt/librtt_nrf52832_xxAA.a(SEGGER_RTT.c.obj)
 .ARM.attributes
                0x00001467       0x39 external/rtt/librtt_nrf52832_xxAA.a(SEGGER_RTT_printf.c.obj)
 .ARM.attributes
                0x000014a0       0x39 external/micro-ecc/libuECC_nrf52832_xxAA.a(uECC.c.obj)
 .ARM.attributes
                0x000014d9       0x22 c:/mesh/arm_gcc/bin/../lib/gcc/arm-none-eabi/6.3.1/thumb/v7e-m/fpv4-sp/hard\libgcc.a(_aeabi_uldivmod.o)
 .ARM.attributes
                0x000014fb       0x34 c:/mesh/arm_gcc/bin/../lib/gcc/arm-none-eabi/6.3.1/thumb/v7e-m/fpv4-sp/hard\libgcc.a(_udivmoddi4.o)
 .ARM.attributes
                0x0000152f       0x22 c:/mesh/arm_gcc/bin/../lib/gcc/arm-none-eabi/6.3.1/thumb/v7e-m/fpv4-sp/hard\libgcc.a(_dvmd_tls.o)
 .ARM.attributes
                0x00001551       0x34 c:/mesh/arm_gcc/bin/../lib/gcc/arm-none-eabi/6.3.1/../../../../arm-none-eabi/lib/thumb/v7e-m/fpv4-sp/hard\libc_nano.a(lib_a-exit.o)
 .ARM.attributes
                0x00001585       0x34 c:/mesh/arm_gcc/bin/../lib/gcc/arm-none-eabi/6.3.1/../../../../arm-none-eabi/lib/thumb/v7e-m/fpv4-sp/hard\libc_nano.a(lib_a-impure.o)
 .ARM.attributes
                0x000015b9       0x34 c:/mesh/arm_gcc/bin/../lib/gcc/arm-none-eabi/6.3.1/../../../../arm-none-eabi/lib/thumb/v7e-m/fpv4-sp/hard\libc_nano.a(lib_a-init.o)
 .ARM.attributes
                0x000015ed       0x34 c:/mesh/arm_gcc/bin/../lib/gcc/arm-none-eabi/6.3.1/../../../../arm-none-eabi/lib/thumb/v7e-m/fpv4-sp/hard\libc_nano.a(lib_a-malloc.o)
 .ARM.attributes
                0x00001621       0x34 c:/mesh/arm_gcc/bin/../lib/gcc/arm-none-eabi/6.3.1/../../../../arm-none-eabi/lib/thumb/v7e-m/fpv4-sp/hard\libc_nano.a(lib_a-memcmp.o)
 .ARM.attributes
                0x00001655       0x34 c:/mesh/arm_gcc/bin/../lib/gcc/arm-none-eabi/6.3.1/../../../../arm-none-eabi/lib/thumb/v7e-m/fpv4-sp/hard\libc_nano.a(lib_a-memcpy-stub.o)
 .ARM.attributes
                0x00001689       0x34 c:/mesh/arm_gcc/bin/../lib/gcc/arm-none-eabi/6.3.1/../../../../arm-none-eabi/lib/thumb/v7e-m/fpv4-sp/hard\libc_nano.a(lib_a-memset.o)
 .ARM.attributes
                0x000016bd       0x34 c:/mesh/arm_gcc/bin/../lib/gcc/arm-none-eabi/6.3.1/../../../../arm-none-eabi/lib/thumb/v7e-m/fpv4-sp/hard\libc_nano.a(lib_a-nano-freer.o)
 .ARM.attributes
                0x000016f1       0x34 c:/mesh/arm_gcc/bin/../lib/gcc/arm-none-eabi/6.3.1/../../../../arm-none-eabi/lib/thumb/v7e-m/fpv4-sp/hard\libc_nano.a(lib_a-nano-mallocr.o)
 .ARM.attributes
                0x00001725       0x34 c:/mesh/arm_gcc/bin/../lib/gcc/arm-none-eabi/6.3.1/../../../../arm-none-eabi/lib/thumb/v7e-m/fpv4-sp/hard\libc_nano.a(lib_a-sbrkr.o)
 .ARM.attributes
                0x00001759       0x34 c:/mesh/arm_gcc/bin/../lib/gcc/arm-none-eabi/6.3.1/../../../../arm-none-eabi/lib/thumb/v7e-m/fpv4-sp/hard\libc_nano.a(lib_a-strcpy.o)
 .ARM.attributes
                0x0000178d       0x1b c:/mesh/arm_gcc/bin/../lib/gcc/arm-none-eabi/6.3.1/../../../../arm-none-eabi/lib/thumb/v7e-m/fpv4-sp/hard\libc_nano.a(lib_a-strlen.o)
 .ARM.attributes
                0x000017a8       0x34 c:/mesh/arm_gcc/bin/../lib/gcc/arm-none-eabi/6.3.1/../../../../arm-none-eabi/lib/thumb/v7e-m/fpv4-sp/hard\libc_nano.a(lib_a-strrchr.o)
 .ARM.attributes
                0x000017dc       0x34 c:/mesh/arm_gcc/bin/../lib/gcc/arm-none-eabi/6.3.1/../../../../arm-none-eabi/lib/thumb/v7e-m/fpv4-sp/hard\libc_nano.a(lib_a-mlock.o)
 .ARM.attributes
                0x00001810       0x34 c:/mesh/arm_gcc/bin/../lib/gcc/arm-none-eabi/6.3.1/../../../../arm-none-eabi/lib/thumb/v7e-m/fpv4-sp/hard\libc_nano.a(lib_a-reent.o)
 .ARM.attributes
                0x00001844       0x34 c:/mesh/arm_gcc/bin/../lib/gcc/arm-none-eabi/6.3.1/../../../../arm-none-eabi/lib/thumb/v7e-m/fpv4-sp/hard\libc_nano.a(lib_a-strchr.o)
 .ARM.attributes
                0x00001878       0x34 c:/mesh/arm_gcc/bin/../lib/gcc/arm-none-eabi/6.3.1/thumb/v7e-m/fpv4-sp/hard/crtend.o
 .ARM.attributes
                0x000018ac       0x22 c:/mesh/arm_gcc/bin/../lib/gcc/arm-none-eabi/6.3.1/thumb/v7e-m/fpv4-sp/hard/crtn.o
 .ARM.attributes
                0x000018ce       0x34 c:/mesh/arm_gcc/bin/../lib/gcc/arm-none-eabi/6.3.1/../../../../arm-none-eabi/lib/thumb/v7e-m/fpv4-sp/hard\libnosys.a(sbrk.o)
 .ARM.attributes
                0x00001902       0x34 c:/mesh/arm_gcc/bin/../lib/gcc/arm-none-eabi/6.3.1/../../../../arm-none-eabi/lib/thumb/v7e-m/fpv4-sp/hard\libnosys.a(_exit.o)

.comment        0x00000000       0x7f
 .comment       0x00000000       0x7f examples/light_switch/proxy_server/CMakeFiles/light_switch_proxy_server_nrf52832_xxAA_s132_6.0.0.dir/src/main.c.obj
                                 0x80 (size before relaxing)
 .comment       0x0000007f       0x80 examples/light_switch/proxy_server/CMakeFiles/light_switch_proxy_server_nrf52832_xxAA_s132_6.0.0.dir/__/__/__/mesh/stack/src/mesh_stack.c.obj
 .comment       0x0000007f       0x80 examples/light_switch/proxy_server/CMakeFiles/light_switch_proxy_server_nrf52832_xxAA_s132_6.0.0.dir/__/__/common/src/mesh_provisionee.c.obj
 .comment       0x0000007f       0x80 examples/light_switch/proxy_server/CMakeFiles/light_switch_proxy_server_nrf52832_xxAA_s132_6.0.0.dir/__/__/common/src/rtt_input.c.obj
 .comment       0x0000007f       0x80 examples/light_switch/proxy_server/CMakeFiles/light_switch_proxy_server_nrf52832_xxAA_s132_6.0.0.dir/__/__/common/src/simple_hal.c.obj
 .comment       0x0000007f       0x80 examples/light_switch/proxy_server/CMakeFiles/light_switch_proxy_server_nrf52832_xxAA_s132_6.0.0.dir/__/__/common/src/mesh_app_utils.c.obj
 .comment       0x0000007f       0x80 examples/light_switch/proxy_server/CMakeFiles/light_switch_proxy_server_nrf52832_xxAA_s132_6.0.0.dir/__/__/common/src/mesh_adv.c.obj
 .comment       0x0000007f       0x80 examples/light_switch/proxy_server/CMakeFiles/light_switch_proxy_server_nrf52832_xxAA_s132_6.0.0.dir/__/__/__/mesh/prov/src/nrf_mesh_prov_bearer_gatt.c.obj
 .comment       0x0000007f       0x80 examples/light_switch/proxy_server/CMakeFiles/light_switch_proxy_server_nrf52832_xxAA_s132_6.0.0.dir/C_/b/nRF5_SDK_15.0.0_a53641a/components/libraries/util/app_util_platform.c.obj
 .comment       0x0000007f       0x80 examples/light_switch/proxy_server/CMakeFiles/light_switch_proxy_server_nrf52832_xxAA_s132_6.0.0.dir/C_/b/nRF5_SDK_15.0.0_a53641a/components/ble/common/ble_advdata.c.obj
 .comment       0x0000007f       0x80 examples/light_switch/proxy_server/CMakeFiles/light_switch_proxy_server_nrf52832_xxAA_s132_6.0.0.dir/C_/b/nRF5_SDK_15.0.0_a53641a/components/libraries/experimental_section_vars/nrf_section_iter.c.obj
 .comment       0x0000007f       0x80 examples/light_switch/proxy_server/CMakeFiles/light_switch_proxy_server_nrf52832_xxAA_s132_6.0.0.dir/C_/b/nRF5_SDK_15.0.0_a53641a/components/softdevice/common/nrf_sdh.c.obj
 .comment       0x0000007f       0x80 examples/light_switch/proxy_server/CMakeFiles/light_switch_proxy_server_nrf52832_xxAA_s132_6.0.0.dir/C_/b/nRF5_SDK_15.0.0_a53641a/components/softdevice/common/nrf_sdh_soc.c.obj
 .comment       0x0000007f       0x80 examples/light_switch/proxy_server/CMakeFiles/light_switch_proxy_server_nrf52832_xxAA_s132_6.0.0.dir/C_/b/nRF5_SDK_15.0.0_a53641a/components/softdevice/common/nrf_sdh_ble.c.obj
 .comment       0x0000007f       0x80 examples/light_switch/proxy_server/CMakeFiles/light_switch_proxy_server_nrf52832_xxAA_s132_6.0.0.dir/__/__/nrf_mesh_weak.c.obj
 .comment       0x0000007f       0x80 examples/light_switch/proxy_server/CMakeFiles/light_switch_proxy_server_nrf52832_xxAA_s132_6.0.0.dir/__/__/common/src/app_error_weak.c.obj
 .comment       0x0000007f       0x80 examples/light_switch/proxy_server/CMakeFiles/light_switch_proxy_server_nrf52832_xxAA_s132_6.0.0.dir/__/__/common/src/assertion_handler_weak.c.obj
 .comment       0x0000007f       0x80 examples/light_switch/proxy_server/CMakeFiles/light_switch_proxy_server_nrf52832_xxAA_s132_6.0.0.dir/__/__/__/mesh/core/src/nrf_mesh_configure.c.obj
 .comment       0x0000007f       0x80 examples/light_switch/proxy_server/CMakeFiles/light_switch_proxy_server_nrf52832_xxAA_s132_6.0.0.dir/__/__/__/mesh/core/src/aes.c.obj
 .comment       0x0000007f       0x80 examples/light_switch/proxy_server/CMakeFiles/light_switch_proxy_server_nrf52832_xxAA_s132_6.0.0.dir/__/__/__/mesh/core/src/msg_cache.c.obj
 .comment       0x0000007f       0x80 examples/light_switch/proxy_server/CMakeFiles/light_switch_proxy_server_nrf52832_xxAA_s132_6.0.0.dir/__/__/__/mesh/core/src/transport.c.obj
 .comment       0x0000007f       0x80 examples/light_switch/proxy_server/CMakeFiles/light_switch_proxy_server_nrf52832_xxAA_s132_6.0.0.dir/__/__/__/mesh/core/src/event.c.obj
 .comment       0x0000007f       0x80 examples/light_switch/proxy_server/CMakeFiles/light_switch_proxy_server_nrf52832_xxAA_s132_6.0.0.dir/__/__/__/mesh/core/src/packet_buffer.c.obj
 .comment       0x0000007f       0x80 examples/light_switch/proxy_server/CMakeFiles/light_switch_proxy_server_nrf52832_xxAA_s132_6.0.0.dir/__/__/__/mesh/core/src/flash_manager_defrag.c.obj
 .comment       0x0000007f       0x80 examples/light_switch/proxy_server/CMakeFiles/light_switch_proxy_server_nrf52832_xxAA_s132_6.0.0.dir/__/__/__/mesh/core/src/fifo.c.obj
 .comment       0x0000007f       0x80 examples/light_switch/proxy_server/CMakeFiles/light_switch_proxy_server_nrf52832_xxAA_s132_6.0.0.dir/__/__/__/mesh/core/src/nrf_flash.c.obj
 .comment       0x0000007f       0x80 examples/light_switch/proxy_server/CMakeFiles/light_switch_proxy_server_nrf52832_xxAA_s132_6.0.0.dir/__/__/__/mesh/core/src/packet_mgr.c.obj
 .comment       0x0000007f       0x80 examples/light_switch/proxy_server/CMakeFiles/light_switch_proxy_server_nrf52832_xxAA_s132_6.0.0.dir/__/__/__/mesh/core/src/net_state.c.obj
 .comment       0x0000007f       0x80 examples/light_switch/proxy_server/CMakeFiles/light_switch_proxy_server_nrf52832_xxAA_s132_6.0.0.dir/__/__/__/mesh/core/src/mesh_flash.c.obj
 .comment       0x0000007f       0x80 examples/light_switch/proxy_server/CMakeFiles/light_switch_proxy_server_nrf52832_xxAA_s132_6.0.0.dir/__/__/__/mesh/core/src/nrf_mesh_utils.c.obj
 .comment       0x0000007f       0x80 examples/light_switch/proxy_server/CMakeFiles/light_switch_proxy_server_nrf52832_xxAA_s132_6.0.0.dir/__/__/__/mesh/core/src/nrf_mesh.c.obj
 .comment       0x0000007f       0x80 examples/light_switch/proxy_server/CMakeFiles/light_switch_proxy_server_nrf52832_xxAA_s132_6.0.0.dir/__/__/__/mesh/core/src/queue.c.obj
 .comment       0x0000007f       0x80 examples/light_switch/proxy_server/CMakeFiles/light_switch_proxy_server_nrf52832_xxAA_s132_6.0.0.dir/__/__/__/mesh/core/src/hal.c.obj
 .comment       0x0000007f       0x80 examples/light_switch/proxy_server/CMakeFiles/light_switch_proxy_server_nrf52832_xxAA_s132_6.0.0.dir/__/__/__/mesh/core/src/aes_cmac.c.obj
 .comment       0x0000007f       0x80 examples/light_switch/proxy_server/CMakeFiles/light_switch_proxy_server_nrf52832_xxAA_s132_6.0.0.dir/__/__/__/mesh/core/src/timer_scheduler.c.obj
 .comment       0x0000007f       0x80 examples/light_switch/proxy_server/CMakeFiles/light_switch_proxy_server_nrf52832_xxAA_s132_6.0.0.dir/__/__/__/mesh/core/src/timer.c.obj
 .comment       0x0000007f       0x80 examples/light_switch/proxy_server/CMakeFiles/light_switch_proxy_server_nrf52832_xxAA_s132_6.0.0.dir/__/__/__/mesh/core/src/ticker.c.obj
 .comment       0x0000007f       0x80 examples/light_switch/proxy_server/CMakeFiles/light_switch_proxy_server_nrf52832_xxAA_s132_6.0.0.dir/__/__/__/mesh/core/src/rand.c.obj
 .comment       0x0000007f       0x80 examples/light_switch/proxy_server/CMakeFiles/light_switch_proxy_server_nrf52832_xxAA_s132_6.0.0.dir/__/__/__/mesh/core/src/nrf_mesh_opt.c.obj
 .comment       0x0000007f       0x80 examples/light_switch/proxy_server/CMakeFiles/light_switch_proxy_server_nrf52832_xxAA_s132_6.0.0.dir/__/__/__/mesh/core/src/timeslot.c.obj
 .comment       0x0000007f       0x80 examples/light_switch/proxy_server/CMakeFiles/light_switch_proxy_server_nrf52832_xxAA_s132_6.0.0.dir/__/__/__/mesh/core/src/bearer_event.c.obj
 .comment       0x0000007f       0x80 examples/light_switch/proxy_server/CMakeFiles/light_switch_proxy_server_nrf52832_xxAA_s132_6.0.0.dir/__/__/__/mesh/core/src/enc.c.obj
 .comment       0x0000007f       0x80 examples/light_switch/proxy_server/CMakeFiles/light_switch_proxy_server_nrf52832_xxAA_s132_6.0.0.dir/__/__/__/mesh/core/src/network.c.obj
 .comment       0x0000007f       0x80 examples/light_switch/proxy_server/CMakeFiles/light_switch_proxy_server_nrf52832_xxAA_s132_6.0.0.dir/__/__/__/mesh/core/src/net_packet.c.obj
 .comment       0x0000007f       0x80 examples/light_switch/proxy_server/CMakeFiles/light_switch_proxy_server_nrf52832_xxAA_s132_6.0.0.dir/__/__/__/mesh/core/src/msqueue.c.obj
 .comment       0x0000007f       0x80 examples/light_switch/proxy_server/CMakeFiles/light_switch_proxy_server_nrf52832_xxAA_s132_6.0.0.dir/__/__/__/mesh/core/src/nrf_mesh_keygen.c.obj
 .comment       0x0000007f       0x80 examples/light_switch/proxy_server/CMakeFiles/light_switch_proxy_server_nrf52832_xxAA_s132_6.0.0.dir/__/__/__/mesh/core/src/cache.c.obj
 .comment       0x0000007f       0x80 examples/light_switch/proxy_server/CMakeFiles/light_switch_proxy_server_nrf52832_xxAA_s132_6.0.0.dir/__/__/__/mesh/core/src/list.c.obj
 .comment       0x0000007f       0x80 examples/light_switch/proxy_server/CMakeFiles/light_switch_proxy_server_nrf52832_xxAA_s132_6.0.0.dir/__/__/__/mesh/core/src/log.c.obj
 .comment       0x0000007f       0x80 examples/light_switch/proxy_server/CMakeFiles/light_switch_proxy_server_nrf52832_xxAA_s132_6.0.0.dir/__/__/__/mesh/core/src/flash_manager.c.obj
 .comment       0x0000007f       0x80 examples/light_switch/proxy_server/CMakeFiles/light_switch_proxy_server_nrf52832_xxAA_s132_6.0.0.dir/__/__/__/mesh/core/src/ccm_soft.c.obj
 .comment       0x0000007f       0x80 examples/light_switch/proxy_server/CMakeFiles/light_switch_proxy_server_nrf52832_xxAA_s132_6.0.0.dir/__/__/__/mesh/core/src/replay_cache.c.obj
 .comment       0x0000007f       0x80 examples/light_switch/proxy_server/CMakeFiles/light_switch_proxy_server_nrf52832_xxAA_s132_6.0.0.dir/__/__/__/mesh/core/src/beacon.c.obj
 .comment       0x0000007f       0x80 examples/light_switch/proxy_server/CMakeFiles/light_switch_proxy_server_nrf52832_xxAA_s132_6.0.0.dir/__/__/__/mesh/core/src/flash_manager_internal.c.obj
 .comment       0x0000007f       0x80 examples/light_switch/proxy_server/CMakeFiles/light_switch_proxy_server_nrf52832_xxAA_s132_6.0.0.dir/__/__/__/mesh/core/src/core_tx.c.obj
 .comment       0x0000007f       0x80 examples/light_switch/proxy_server/CMakeFiles/light_switch_proxy_server_nrf52832_xxAA_s132_6.0.0.dir/__/__/__/mesh/core/src/heartbeat.c.obj
 .comment       0x0000007f       0x80 examples/light_switch/proxy_server/CMakeFiles/light_switch_proxy_server_nrf52832_xxAA_s132_6.0.0.dir/__/__/__/mesh/core/src/net_beacon.c.obj
 .comment       0x0000007f       0x80 examples/light_switch/proxy_server/CMakeFiles/light_switch_proxy_server_nrf52832_xxAA_s132_6.0.0.dir/__/__/__/mesh/core/src/fsm.c.obj
 .comment       0x0000007f       0x80 examples/light_switch/proxy_server/CMakeFiles/light_switch_proxy_server_nrf52832_xxAA_s132_6.0.0.dir/__/__/__/mesh/core/src/core_tx_adv.c.obj
 .comment       0x0000007f       0x80 examples/light_switch/proxy_server/CMakeFiles/light_switch_proxy_server_nrf52832_xxAA_s132_6.0.0.dir/__/__/__/mesh/bearer/src/ad_listener.c.obj
 .comment       0x0000007f       0x80 examples/light_switch/proxy_server/CMakeFiles/light_switch_proxy_server_nrf52832_xxAA_s132_6.0.0.dir/__/__/__/mesh/bearer/src/ad_type_filter.c.obj
 .comment       0x0000007f       0x80 examples/light_switch/proxy_server/CMakeFiles/light_switch_proxy_server_nrf52832_xxAA_s132_6.0.0.dir/__/__/__/mesh/bearer/src/advertiser.c.obj
 .comment       0x0000007f       0x80 examples/light_switch/proxy_server/CMakeFiles/light_switch_proxy_server_nrf52832_xxAA_s132_6.0.0.dir/__/__/__/mesh/bearer/src/bearer_handler.c.obj
 .comment       0x0000007f       0x80 examples/light_switch/proxy_server/CMakeFiles/light_switch_proxy_server_nrf52832_xxAA_s132_6.0.0.dir/__/__/__/mesh/bearer/src/broadcast.c.obj
 .comment       0x0000007f       0x80 examples/light_switch/proxy_server/CMakeFiles/light_switch_proxy_server_nrf52832_xxAA_s132_6.0.0.dir/__/__/__/mesh/bearer/src/filter_engine.c.obj
 .comment       0x0000007f       0x80 examples/light_switch/proxy_server/CMakeFiles/light_switch_proxy_server_nrf52832_xxAA_s132_6.0.0.dir/__/__/__/mesh/bearer/src/radio_config.c.obj
 .comment       0x0000007f       0x80 examples/light_switch/proxy_server/CMakeFiles/light_switch_proxy_server_nrf52832_xxAA_s132_6.0.0.dir/__/__/__/mesh/bearer/src/scanner.c.obj
 .comment       0x0000007f       0x80 examples/light_switch/proxy_server/CMakeFiles/light_switch_proxy_server_nrf52832_xxAA_s132_6.0.0.dir/__/__/__/mesh/gatt/src/mesh_gatt.c.obj
 .comment       0x0000007f       0x80 examples/light_switch/proxy_server/CMakeFiles/light_switch_proxy_server_nrf52832_xxAA_s132_6.0.0.dir/__/__/__/mesh/gatt/src/proxy.c.obj
 .comment       0x0000007f       0x80 examples/light_switch/proxy_server/CMakeFiles/light_switch_proxy_server_nrf52832_xxAA_s132_6.0.0.dir/__/__/__/mesh/gatt/src/proxy_filter.c.obj
 .comment       0x0000007f       0x80 examples/light_switch/proxy_server/CMakeFiles/light_switch_proxy_server_nrf52832_xxAA_s132_6.0.0.dir/__/__/__/models/simple_on_off/src/simple_on_off_server.c.obj
 .comment       0x0000007f       0x80 examples/light_switch/proxy_server/CMakeFiles/light_switch_proxy_server_nrf52832_xxAA_s132_6.0.0.dir/__/__/__/models/config/src/composition_data.c.obj
 .comment       0x0000007f       0x80 examples/light_switch/proxy_server/CMakeFiles/light_switch_proxy_server_nrf52832_xxAA_s132_6.0.0.dir/__/__/__/models/config/src/config_server.c.obj
 .comment       0x0000007f       0x80 examples/light_switch/proxy_server/CMakeFiles/light_switch_proxy_server_nrf52832_xxAA_s132_6.0.0.dir/__/__/__/models/config/src/packed_index_list.c.obj
 .comment       0x0000007f       0x80 examples/light_switch/proxy_server/CMakeFiles/light_switch_proxy_server_nrf52832_xxAA_s132_6.0.0.dir/__/__/__/models/health/src/health_server.c.obj
 .comment       0x0000007f       0x80 examples/light_switch/proxy_server/CMakeFiles/light_switch_proxy_server_nrf52832_xxAA_s132_6.0.0.dir/__/__/__/mesh/access/src/access_publish.c.obj
 .comment       0x0000007f       0x80 examples/light_switch/proxy_server/CMakeFiles/light_switch_proxy_server_nrf52832_xxAA_s132_6.0.0.dir/__/__/__/mesh/access/src/access.c.obj
 .comment       0x0000007f       0x80 examples/light_switch/proxy_server/CMakeFiles/light_switch_proxy_server_nrf52832_xxAA_s132_6.0.0.dir/__/__/__/mesh/access/src/access_reliable.c.obj
 .comment       0x0000007f       0x80 examples/light_switch/proxy_server/CMakeFiles/light_switch_proxy_server_nrf52832_xxAA_s132_6.0.0.dir/__/__/__/mesh/access/src/device_state_manager.c.obj
 .comment       0x0000007f       0x80 examples/light_switch/proxy_server/CMakeFiles/light_switch_proxy_server_nrf52832_xxAA_s132_6.0.0.dir/__/__/__/mesh/prov/src/prov_provisionee.c.obj
 .comment       0x0000007f       0x80 examples/light_switch/proxy_server/CMakeFiles/light_switch_proxy_server_nrf52832_xxAA_s132_6.0.0.dir/__/__/__/mesh/prov/src/nrf_mesh_prov.c.obj
 .comment       0x0000007f       0x80 examples/light_switch/proxy_server/CMakeFiles/light_switch_proxy_server_nrf52832_xxAA_s132_6.0.0.dir/__/__/__/mesh/prov/src/provisioning.c.obj
 .comment       0x0000007f       0x80 examples/light_switch/proxy_server/CMakeFiles/light_switch_proxy_server_nrf52832_xxAA_s132_6.0.0.dir/__/__/__/mesh/prov/src/prov_beacon.c.obj
 .comment       0x0000007f       0x80 examples/light_switch/proxy_server/CMakeFiles/light_switch_proxy_server_nrf52832_xxAA_s132_6.0.0.dir/__/__/__/mesh/prov/src/prov_utils.c.obj
 .comment       0x0000007f       0x80 examples/light_switch/proxy_server/CMakeFiles/light_switch_proxy_server_nrf52832_xxAA_s132_6.0.0.dir/__/__/__/mesh/prov/src/prov_bearer_adv.c.obj
 .comment       0x0000007f       0x80 examples/light_switch/proxy_server/CMakeFiles/light_switch_proxy_server_nrf52832_xxAA_s132_6.0.0.dir/C_/b/nRF5_SDK_15.0.0_a53641a/modules/nrfx/mdk/system_nrf52.c.obj
 .comment       0x0000007f       0x80 examples/light_switch/proxy_server/CMakeFiles/light_switch_proxy_server_nrf52832_xxAA_s132_6.0.0.dir/C_/b/nRF5_SDK_15.0.0_a53641a/components/libraries/util/app_error.c.obj
 .comment       0x0000007f       0x80 examples/light_switch/proxy_server/CMakeFiles/light_switch_proxy_server_nrf52832_xxAA_s132_6.0.0.dir/C_/b/nRF5_SDK_15.0.0_a53641a/components/libraries/util/app_error_handler_gcc.c.obj
 .comment       0x0000007f       0x80 external/rtt/librtt_nrf52832_xxAA.a(SEGGER_RTT.c.obj)
 .comment       0x0000007f       0x80 external/rtt/librtt_nrf52832_xxAA.a(SEGGER_RTT_printf.c.obj)
 .comment       0x0000007f       0x80 external/micro-ecc/libuECC_nrf52832_xxAA.a(uECC.c.obj)

.debug_frame    0x00000000      0x324
 .debug_frame   0x00000000       0x2c c:/mesh/arm_gcc/bin/../lib/gcc/arm-none-eabi/6.3.1/thumb/v7e-m/fpv4-sp/hard\libgcc.a(_aeabi_uldivmod.o)
 .debug_frame   0x0000002c       0x34 c:/mesh/arm_gcc/bin/../lib/gcc/arm-none-eabi/6.3.1/thumb/v7e-m/fpv4-sp/hard\libgcc.a(_udivmoddi4.o)
 .debug_frame   0x00000060       0x28 c:/mesh/arm_gcc/bin/../lib/gcc/arm-none-eabi/6.3.1/../../../../arm-none-eabi/lib/thumb/v7e-m/fpv4-sp/hard\libc_nano.a(lib_a-exit.o)
 .debug_frame   0x00000088       0x2c c:/mesh/arm_gcc/bin/../lib/gcc/arm-none-eabi/6.3.1/../../../../arm-none-eabi/lib/thumb/v7e-m/fpv4-sp/hard\libc_nano.a(lib_a-init.o)
 .debug_frame   0x000000b4       0x30 c:/mesh/arm_gcc/bin/../lib/gcc/arm-none-eabi/6.3.1/../../../../arm-none-eabi/lib/thumb/v7e-m/fpv4-sp/hard\libc_nano.a(lib_a-malloc.o)
 .debug_frame   0x000000e4       0x28 c:/mesh/arm_gcc/bin/../lib/gcc/arm-none-eabi/6.3.1/../../../../arm-none-eabi/lib/thumb/v7e-m/fpv4-sp/hard\libc_nano.a(lib_a-memcmp.o)
 .debug_frame   0x0000010c       0x28 c:/mesh/arm_gcc/bin/../lib/gcc/arm-none-eabi/6.3.1/../../../../arm-none-eabi/lib/thumb/v7e-m/fpv4-sp/hard\libc_nano.a(lib_a-memcpy-stub.o)
 .debug_frame   0x00000134       0x20 c:/mesh/arm_gcc/bin/../lib/gcc/arm-none-eabi/6.3.1/../../../../arm-none-eabi/lib/thumb/v7e-m/fpv4-sp/hard\libc_nano.a(lib_a-memset.o)
 .debug_frame   0x00000154       0x38 c:/mesh/arm_gcc/bin/../lib/gcc/arm-none-eabi/6.3.1/../../../../arm-none-eabi/lib/thumb/v7e-m/fpv4-sp/hard\libc_nano.a(lib_a-nano-freer.o)
 .debug_frame   0x0000018c       0x2c c:/mesh/arm_gcc/bin/../lib/gcc/arm-none-eabi/6.3.1/../../../../arm-none-eabi/lib/thumb/v7e-m/fpv4-sp/hard\libc_nano.a(lib_a-nano-mallocr.o)
 .debug_frame   0x000001b8       0x2c c:/mesh/arm_gcc/bin/../lib/gcc/arm-none-eabi/6.3.1/../../../../arm-none-eabi/lib/thumb/v7e-m/fpv4-sp/hard\libc_nano.a(lib_a-sbrkr.o)
 .debug_frame   0x000001e4       0x20 c:/mesh/arm_gcc/bin/../lib/gcc/arm-none-eabi/6.3.1/../../../../arm-none-eabi/lib/thumb/v7e-m/fpv4-sp/hard\libc_nano.a(lib_a-strcpy.o)
 .debug_frame   0x00000204       0x34 c:/mesh/arm_gcc/bin/../lib/gcc/arm-none-eabi/6.3.1/../../../../arm-none-eabi/lib/thumb/v7e-m/fpv4-sp/hard\libc_nano.a(lib_a-strrchr.o)
 .debug_frame   0x00000238       0x30 c:/mesh/arm_gcc/bin/../lib/gcc/arm-none-eabi/6.3.1/../../../../arm-none-eabi/lib/thumb/v7e-m/fpv4-sp/hard\libc_nano.a(lib_a-mlock.o)
 .debug_frame   0x00000268       0x5c c:/mesh/arm_gcc/bin/../lib/gcc/arm-none-eabi/6.3.1/../../../../arm-none-eabi/lib/thumb/v7e-m/fpv4-sp/hard\libc_nano.a(lib_a-reent.o)
 .debug_frame   0x000002c4       0x20 c:/mesh/arm_gcc/bin/../lib/gcc/arm-none-eabi/6.3.1/../../../../arm-none-eabi/lib/thumb/v7e-m/fpv4-sp/hard\libc_nano.a(lib_a-strchr.o)
 .debug_frame   0x000002e4       0x20 c:/mesh/arm_gcc/bin/../lib/gcc/arm-none-eabi/6.3.1/../../../../arm-none-eabi/lib/thumb/v7e-m/fpv4-sp/hard\libnosys.a(sbrk.o)
 .debug_frame   0x00000304       0x20 c:/mesh/arm_gcc/bin/../lib/gcc/arm-none-eabi/6.3.1/../../../../arm-none-eabi/lib/thumb/v7e-m/fpv4-sp/hard\libnosys.a(_exit.o)
