Archive member included to satisfy reference by file (symbol)

mesh/core/libmesh_core_nrf51422_xxAC.a(nrf_mesh_configure.c.obj)
                              examples/pb_remote/server/CMakeFiles/pb_remote_server_nrf51422_xxAC_s130_2.0.1.dir/__/__/__/mesh/prov/src/prov_beacon.c.obj (nrf_mesh_configure_device_uuid_get)
mesh/core/libmesh_core_nrf51422_xxAC.a(event.c.obj)
                              examples/pb_remote/server/CMakeFiles/pb_remote_server_nrf51422_xxAC_s130_2.0.1.dir/__/__/__/mesh/access/src/access.c.obj (event_handle)
mesh/core/libmesh_core_nrf51422_xxAC.a(fifo.c.obj)
                              examples/pb_remote/server/CMakeFiles/pb_remote_server_nrf51422_xxAC_s130_2.0.1.dir/__/__/__/models/pb_remote/src/pb_remote_server.c.obj (fifo_init)
mesh/core/libmesh_core_nrf51422_xxAC.a(net_state.c.obj)
                              examples/pb_remote/server/CMakeFiles/pb_remote_server_nrf51422_xxAC_s130_2.0.1.dir/__/__/__/mesh/access/src/nrf_mesh_node_config.c.obj (net_state_reset)
mesh/core/libmesh_core_nrf51422_xxAC.a(nrf_mesh_utils.c.obj)
                              examples/pb_remote/server/CMakeFiles/pb_remote_server_nrf51422_xxAC_s130_2.0.1.dir/__/__/__/mesh/prov/src/prov_provisionee.c.obj (nrf_mesh_address_type_get)
mesh/core/libmesh_core_nrf51422_xxAC.a(nrf_mesh.c.obj)
                              examples/pb_remote/server/CMakeFiles/pb_remote_server_nrf51422_xxAC_s130_2.0.1.dir/__/__/nrf_mesh_sdk.c.obj (nrf_mesh_init)
mesh/core/libmesh_core_nrf51422_xxAC.a(hal.c.obj)
                              examples/pb_remote/server/CMakeFiles/pb_remote_server_nrf51422_xxAC_s130_2.0.1.dir/__/__/__/mesh/access/src/nrf_mesh_node_config.c.obj (hal_device_reset)
mesh/core/libmesh_core_nrf51422_xxAC.a(timer_scheduler.c.obj)
                              mesh/core/libmesh_core_nrf51422_xxAC.a(nrf_mesh.c.obj) (timer_sch_init)
mesh/core/libmesh_core_nrf51422_xxAC.a(timer.c.obj)
                              mesh/core/libmesh_core_nrf51422_xxAC.a(timer_scheduler.c.obj) (timer_order_cb)
mesh/core/libmesh_core_nrf51422_xxAC.a(ticker.c.obj)
                              mesh/core/libmesh_core_nrf51422_xxAC.a(nrf_mesh.c.obj) (ticker_init)
mesh/core/libmesh_core_nrf51422_xxAC.a(rand.c.obj)
                              examples/pb_remote/server/CMakeFiles/pb_remote_server_nrf51422_xxAC_s130_2.0.1.dir/__/__/__/mesh/prov/src/prov_utils.c.obj (rand_hw_rng_get)
mesh/core/libmesh_core_nrf51422_xxAC.a(nrf_mesh_opt.c.obj)
                              examples/pb_remote/server/CMakeFiles/pb_remote_server_nrf51422_xxAC_s130_2.0.1.dir/__/__/__/models/config/src/config_server.c.obj (nrf_mesh_opt_set)
mesh/core/libmesh_core_nrf51422_xxAC.a(timeslot.c.obj)
                              mesh/core/libmesh_core_nrf51422_xxAC.a(nrf_mesh.c.obj) (timeslot_sd_event_handler)
mesh/core/libmesh_core_nrf51422_xxAC.a(bearer_event.c.obj)
                              mesh/core/libmesh_core_nrf51422_xxAC.a(nrf_mesh.c.obj) (bearer_event_init)
mesh/core/libmesh_core_nrf51422_xxAC.a(enc.c.obj)
                              examples/pb_remote/server/CMakeFiles/pb_remote_server_nrf51422_xxAC_s130_2.0.1.dir/__/__/__/mesh/prov/src/prov_utils.c.obj (enc_aes_cmac)
mesh/core/libmesh_core_nrf51422_xxAC.a(network.c.obj)
                              mesh/core/libmesh_core_nrf51422_xxAC.a(nrf_mesh.c.obj) (network_init)
mesh/core/libmesh_core_nrf51422_xxAC.a(nrf_mesh_keygen.c.obj)
                              examples/pb_remote/server/CMakeFiles/pb_remote_server_nrf51422_xxAC_s130_2.0.1.dir/__/__/__/mesh/access/src/device_state_manager.c.obj (nrf_mesh_keygen_aid)
mesh/core/libmesh_core_nrf51422_xxAC.a(list.c.obj)
                              mesh/core/libmesh_core_nrf51422_xxAC.a(event.c.obj) (list_add)
mesh/core/libmesh_core_nrf51422_xxAC.a(log.c.obj)
                              examples/pb_remote/server/CMakeFiles/pb_remote_server_nrf51422_xxAC_s130_2.0.1.dir/src/main.c.obj (log_callback_rtt)
mesh/core/libmesh_core_nrf51422_xxAC.a(flash_manager.c.obj)
                              mesh/core/libmesh_core_nrf51422_xxAC.a(nrf_mesh.c.obj) (flash_manager_init)
mesh/core/libmesh_core_nrf51422_xxAC.a(ccm_soft.c.obj)
                              mesh/core/libmesh_core_nrf51422_xxAC.a(enc.c.obj) (ccm_soft_encrypt)
mesh/core/libmesh_core_nrf51422_xxAC.a(beacon.c.obj)
                              mesh/core/libmesh_core_nrf51422_xxAC.a(nrf_mesh.c.obj) (beacon_init)
mesh/core/libmesh_core_nrf51422_xxAC.a(flash_manager_internal.c.obj)
                              mesh/core/libmesh_core_nrf51422_xxAC.a(flash_manager.c.obj) (entry_get)
mesh/core/libmesh_core_nrf51422_xxAC.a(core_tx.c.obj)
                              mesh/core/libmesh_core_nrf51422_xxAC.a(network.c.obj) (core_tx_packet_alloc)
mesh/core/libmesh_core_nrf51422_xxAC.a(heartbeat.c.obj)
                              mesh/core/libmesh_core_nrf51422_xxAC.a(network.c.obj) (heartbeat_on_feature_change_trigger)
mesh/core/libmesh_core_nrf51422_xxAC.a(net_beacon.c.obj)
                              mesh/core/libmesh_core_nrf51422_xxAC.a(network.c.obj) (net_beacon_init)
mesh/core/libmesh_core_nrf51422_xxAC.a(core_tx_adv.c.obj)
                              mesh/core/libmesh_core_nrf51422_xxAC.a(nrf_mesh.c.obj) (core_tx_adv_init)
mesh/core/libmesh_core_nrf51422_xxAC.a(ad_listener.c.obj)
                              mesh/core/libmesh_core_nrf51422_xxAC.a(nrf_mesh.c.obj) (ad_listener_subscribe)
mesh/core/libmesh_core_nrf51422_xxAC.a(ad_type_filter.c.obj)
                              mesh/core/libmesh_core_nrf51422_xxAC.a(ad_listener.c.obj) (bearer_adtype_filtering_set)
mesh/core/libmesh_core_nrf51422_xxAC.a(advertiser.c.obj)
                              mesh/core/libmesh_core_nrf51422_xxAC.a(nrf_mesh.c.obj) (advertiser_init)
mesh/core/libmesh_core_nrf51422_xxAC.a(bearer_handler.c.obj)
                              mesh/core/libmesh_core_nrf51422_xxAC.a(nrf_mesh.c.obj) (bearer_handler_init)
mesh/core/libmesh_core_nrf51422_xxAC.a(broadcast.c.obj)
                              mesh/core/libmesh_core_nrf51422_xxAC.a(advertiser.c.obj) (broadcast_send)
mesh/core/libmesh_core_nrf51422_xxAC.a(filter_engine.c.obj)
                              mesh/core/libmesh_core_nrf51422_xxAC.a(ad_type_filter.c.obj) (fen_filter_start)
mesh/core/libmesh_core_nrf51422_xxAC.a(radio_config.c.obj)
                              mesh/core/libmesh_core_nrf51422_xxAC.a(broadcast.c.obj) (radio_config_reset)
mesh/core/libmesh_core_nrf51422_xxAC.a(scanner.c.obj)
                              mesh/core/libmesh_core_nrf51422_xxAC.a(bearer_handler.c.obj) (scanner_radio_start)
mesh/core/libmesh_core_nrf51422_xxAC.a(internal_event.c.obj)
                              mesh/core/libmesh_core_nrf51422_xxAC.a(network.c.obj) (internal_event_push)
mesh/core/libmesh_core_nrf51422_xxAC.a(aes.c.obj)
                              mesh/core/libmesh_core_nrf51422_xxAC.a(enc.c.obj) (aes_encrypt)
mesh/core/libmesh_core_nrf51422_xxAC.a(msg_cache.c.obj)
                              mesh/core/libmesh_core_nrf51422_xxAC.a(nrf_mesh.c.obj) (msg_cache_init)
mesh/core/libmesh_core_nrf51422_xxAC.a(transport.c.obj)
                              mesh/core/libmesh_core_nrf51422_xxAC.a(nrf_mesh.c.obj) (transport_init)
mesh/core/libmesh_core_nrf51422_xxAC.a(packet_buffer.c.obj)
                              mesh/core/libmesh_core_nrf51422_xxAC.a(flash_manager.c.obj) (packet_buffer_init)
mesh/core/libmesh_core_nrf51422_xxAC.a(flash_manager_defrag.c.obj)
                              mesh/core/libmesh_core_nrf51422_xxAC.a(flash_manager.c.obj) (flash_manager_defrag_init)
mesh/core/libmesh_core_nrf51422_xxAC.a(packet_mgr.c.obj)
                              mesh/core/libmesh_core_nrf51422_xxAC.a(nrf_mesh.c.obj) (packet_mgr_init)
mesh/core/libmesh_core_nrf51422_xxAC.a(mesh_flash.c.obj)
                              mesh/core/libmesh_core_nrf51422_xxAC.a(flash_manager.c.obj) (mesh_flash_user_callback_set)
mesh/core/libmesh_core_nrf51422_xxAC.a(queue.c.obj)
                              mesh/core/libmesh_core_nrf51422_xxAC.a(bearer_event.c.obj) (queue_init)
mesh/core/libmesh_core_nrf51422_xxAC.a(aes_cmac.c.obj)
                              mesh/core/libmesh_core_nrf51422_xxAC.a(enc.c.obj) (aes_cmac)
mesh/core/libmesh_core_nrf51422_xxAC.a(msqueue.c.obj)
                              mesh/core/libmesh_core_nrf51422_xxAC.a(mesh_flash.c.obj) (msq_get)
mesh/core/libmesh_core_nrf51422_xxAC.a(replay_cache.c.obj)
                              mesh/core/libmesh_core_nrf51422_xxAC.a(transport.c.obj) (replay_cache_add)
mesh/core/libmesh_core_nrf51422_xxAC.a(nrf_flash.c.obj)
                              mesh/core/libmesh_core_nrf51422_xxAC.a(mesh_flash.c.obj) (nrf_flash_erase)
external/rtt/librtt_nrf51422_xxAC.a(SEGGER_RTT.c.obj)
                              mesh/core/libmesh_core_nrf51422_xxAC.a(log.c.obj) (SEGGER_RTT_Write)
external/rtt/librtt_nrf51422_xxAC.a(SEGGER_RTT_printf.c.obj)
                              mesh/core/libmesh_core_nrf51422_xxAC.a(log.c.obj) (SEGGER_RTT_vprintf)
external/micro-ecc/libuECC_nrf51422_xxAC.a(uECC.c.obj)
                              examples/pb_remote/server/CMakeFiles/pb_remote_server_nrf51422_xxAC_s130_2.0.1.dir/__/__/__/mesh/prov/src/prov_utils.c.obj (uECC_secp256r1)
c:/a/gcc_arm/6/bin/../lib/gcc/arm-none-eabi/6.3.1/thumb/v6-m\libgcc.a(_thumb1_case_uqi.o)
                              examples/pb_remote/server/CMakeFiles/pb_remote_server_nrf51422_xxAC_s130_2.0.1.dir/__/__/__/mesh/prov/src/prov_provisionee.c.obj (__gnu_thumb1_case_uqi)
c:/a/gcc_arm/6/bin/../lib/gcc/arm-none-eabi/6.3.1/thumb/v6-m\libgcc.a(_thumb1_case_uhi.o)
                              examples/pb_remote/server/CMakeFiles/pb_remote_server_nrf51422_xxAC_s130_2.0.1.dir/__/__/__/mesh/prov/src/prov_provisionee.c.obj (__gnu_thumb1_case_uhi)
c:/a/gcc_arm/6/bin/../lib/gcc/arm-none-eabi/6.3.1/thumb/v6-m\libgcc.a(_udivsi3.o)
                              examples/pb_remote/server/CMakeFiles/pb_remote_server_nrf51422_xxAC_s130_2.0.1.dir/__/__/__/mesh/prov/src/prov_bearer_adv.c.obj (__aeabi_uidiv)
c:/a/gcc_arm/6/bin/../lib/gcc/arm-none-eabi/6.3.1/thumb/v6-m\libgcc.a(_divsi3.o)
                              examples/pb_remote/server/CMakeFiles/pb_remote_server_nrf51422_xxAC_s130_2.0.1.dir/__/__/__/mesh/access/src/access_reliable.c.obj (__aeabi_idiv)
c:/a/gcc_arm/6/bin/../lib/gcc/arm-none-eabi/6.3.1/thumb/v6-m\libgcc.a(_dvmd_tls.o)
                              c:/a/gcc_arm/6/bin/../lib/gcc/arm-none-eabi/6.3.1/thumb/v6-m\libgcc.a(_udivsi3.o) (__aeabi_idiv0)
c:/a/gcc_arm/6/bin/../lib/gcc/arm-none-eabi/6.3.1/thumb/v6-m\libgcc.a(_muldi3.o)
                              mesh/core/libmesh_core_nrf51422_xxAC.a(timeslot.c.obj) (__aeabi_lmul)
c:/a/gcc_arm/6/bin/../lib/gcc/arm-none-eabi/6.3.1/../../../../arm-none-eabi/lib/thumb/v6-m\libg_nano.a(lib_a-exit.o)
                              c:/a/gcc_arm/6/bin/../lib/gcc/arm-none-eabi/6.3.1/../../../../arm-none-eabi/lib/thumb/v6-m/crt0.o (exit)
c:/a/gcc_arm/6/bin/../lib/gcc/arm-none-eabi/6.3.1/../../../../arm-none-eabi/lib/thumb/v6-m\libg_nano.a(lib_a-impure.o)
                              c:/a/gcc_arm/6/bin/../lib/gcc/arm-none-eabi/6.3.1/../../../../arm-none-eabi/lib/thumb/v6-m\libg_nano.a(lib_a-exit.o) (_global_impure_ptr)
c:/a/gcc_arm/6/bin/../lib/gcc/arm-none-eabi/6.3.1/../../../../arm-none-eabi/lib/thumb/v6-m\libg_nano.a(lib_a-init.o)
                              c:/a/gcc_arm/6/bin/../lib/gcc/arm-none-eabi/6.3.1/../../../../arm-none-eabi/lib/thumb/v6-m/crt0.o (__libc_init_array)
c:/a/gcc_arm/6/bin/../lib/gcc/arm-none-eabi/6.3.1/../../../../arm-none-eabi/lib/thumb/v6-m\libg_nano.a(lib_a-malloc.o)
                              mesh/core/libmesh_core_nrf51422_xxAC.a(transport.c.obj) (malloc)
c:/a/gcc_arm/6/bin/../lib/gcc/arm-none-eabi/6.3.1/../../../../arm-none-eabi/lib/thumb/v6-m\libg_nano.a(lib_a-memcmp.o)
                              examples/pb_remote/server/CMakeFiles/pb_remote_server_nrf51422_xxAC_s130_2.0.1.dir/__/__/__/mesh/prov/src/prov_utils.c.obj (memcmp)
c:/a/gcc_arm/6/bin/../lib/gcc/arm-none-eabi/6.3.1/../../../../arm-none-eabi/lib/thumb/v6-m\libg_nano.a(lib_a-memcpy-stub.o)
                              examples/pb_remote/server/CMakeFiles/pb_remote_server_nrf51422_xxAC_s130_2.0.1.dir/__/__/__/mesh/prov/src/prov_provisionee.c.obj (memcpy)
c:/a/gcc_arm/6/bin/../lib/gcc/arm-none-eabi/6.3.1/../../../../arm-none-eabi/lib/thumb/v6-m\libg_nano.a(lib_a-memset.o)
                              c:/a/gcc_arm/6/bin/../lib/gcc/arm-none-eabi/6.3.1/../../../../arm-none-eabi/lib/thumb/v6-m/crt0.o (memset)
c:/a/gcc_arm/6/bin/../lib/gcc/arm-none-eabi/6.3.1/../../../../arm-none-eabi/lib/thumb/v6-m\libg_nano.a(lib_a-nano-freer.o)
                              c:/a/gcc_arm/6/bin/../lib/gcc/arm-none-eabi/6.3.1/../../../../arm-none-eabi/lib/thumb/v6-m\libg_nano.a(lib_a-malloc.o) (_free_r)
c:/a/gcc_arm/6/bin/../lib/gcc/arm-none-eabi/6.3.1/../../../../arm-none-eabi/lib/thumb/v6-m\libg_nano.a(lib_a-nano-mallocr.o)
                              c:/a/gcc_arm/6/bin/../lib/gcc/arm-none-eabi/6.3.1/../../../../arm-none-eabi/lib/thumb/v6-m\libg_nano.a(lib_a-malloc.o) (_malloc_r)
c:/a/gcc_arm/6/bin/../lib/gcc/arm-none-eabi/6.3.1/../../../../arm-none-eabi/lib/thumb/v6-m\libg_nano.a(lib_a-sbrkr.o)
                              c:/a/gcc_arm/6/bin/../lib/gcc/arm-none-eabi/6.3.1/../../../../arm-none-eabi/lib/thumb/v6-m\libg_nano.a(lib_a-nano-mallocr.o) (_sbrk_r)
c:/a/gcc_arm/6/bin/../lib/gcc/arm-none-eabi/6.3.1/../../../../arm-none-eabi/lib/thumb/v6-m\libg_nano.a(lib_a-strcpy.o)
                              external/rtt/librtt_nrf51422_xxAC.a(SEGGER_RTT.c.obj) (strcpy)
c:/a/gcc_arm/6/bin/../lib/gcc/arm-none-eabi/6.3.1/../../../../arm-none-eabi/lib/thumb/v6-m\libg_nano.a(lib_a-strlen.o)
                              examples/pb_remote/server/CMakeFiles/pb_remote_server_nrf51422_xxAC_s130_2.0.1.dir/__/__/__/mesh/prov/src/prov_beacon.c.obj (strlen)
c:/a/gcc_arm/6/bin/../lib/gcc/arm-none-eabi/6.3.1/../../../../arm-none-eabi/lib/thumb/v6-m\libg_nano.a(lib_a-strrchr.o)
                              examples/pb_remote/server/CMakeFiles/pb_remote_server_nrf51422_xxAC_s130_2.0.1.dir/src/main.c.obj (strrchr)
c:/a/gcc_arm/6/bin/../lib/gcc/arm-none-eabi/6.3.1/../../../../arm-none-eabi/lib/thumb/v6-m\libg_nano.a(lib_a-mlock.o)
                              c:/a/gcc_arm/6/bin/../lib/gcc/arm-none-eabi/6.3.1/../../../../arm-none-eabi/lib/thumb/v6-m\libg_nano.a(lib_a-nano-freer.o) (__malloc_lock)
c:/a/gcc_arm/6/bin/../lib/gcc/arm-none-eabi/6.3.1/../../../../arm-none-eabi/lib/thumb/v6-m\libg_nano.a(lib_a-reent.o)
                              c:/a/gcc_arm/6/bin/../lib/gcc/arm-none-eabi/6.3.1/../../../../arm-none-eabi/lib/thumb/v6-m\libg_nano.a(lib_a-sbrkr.o) (errno)
c:/a/gcc_arm/6/bin/../lib/gcc/arm-none-eabi/6.3.1/../../../../arm-none-eabi/lib/thumb/v6-m\libg_nano.a(lib_a-strchr.o)
                              c:/a/gcc_arm/6/bin/../lib/gcc/arm-none-eabi/6.3.1/../../../../arm-none-eabi/lib/thumb/v6-m\libg_nano.a(lib_a-strrchr.o) (strchr)
c:/a/gcc_arm/6/bin/../lib/gcc/arm-none-eabi/6.3.1/../../../../arm-none-eabi/lib/thumb/v6-m\libnosys.a(sbrk.o)
                              c:/a/gcc_arm/6/bin/../lib/gcc/arm-none-eabi/6.3.1/../../../../arm-none-eabi/lib/thumb/v6-m\libg_nano.a(lib_a-sbrkr.o) (_sbrk)
c:/a/gcc_arm/6/bin/../lib/gcc/arm-none-eabi/6.3.1/../../../../arm-none-eabi/lib/thumb/v6-m\libnosys.a(_exit.o)
                              c:/a/gcc_arm/6/bin/../lib/gcc/arm-none-eabi/6.3.1/../../../../arm-none-eabi/lib/thumb/v6-m\libg_nano.a(lib_a-exit.o) (_exit)

Allocating common symbols
Common symbol       size              file

nrf_nvic_state      0x8               examples/pb_remote/server/CMakeFiles/pb_remote_server_nrf51422_xxAC_s130_2.0.1.dir/__/__/nrf_mesh_sdk.c.obj
errno               0x4               c:/a/gcc_arm/6/bin/../lib/gcc/arm-none-eabi/6.3.1/../../../../arm-none-eabi/lib/thumb/v6-m\libg_nano.a(lib_a-reent.o)
m_assertion_handler
                    0x4               mesh/core/libmesh_core_nrf51422_xxAC.a(nrf_mesh.c.obj)
_SEGGER_RTT         0x78              external/rtt/librtt_nrf51422_xxAC.a(SEGGER_RTT.c.obj)

Discarded input sections

 .text          0x00000000        0x0 c:/a/gcc_arm/6/bin/../lib/gcc/arm-none-eabi/6.3.1/thumb/v6-m/crti.o
 .data          0x00000000        0x0 c:/a/gcc_arm/6/bin/../lib/gcc/arm-none-eabi/6.3.1/thumb/v6-m/crti.o
 .bss           0x00000000        0x0 c:/a/gcc_arm/6/bin/../lib/gcc/arm-none-eabi/6.3.1/thumb/v6-m/crti.o
 .data          0x00000000        0x4 c:/a/gcc_arm/6/bin/../lib/gcc/arm-none-eabi/6.3.1/thumb/v6-m/crtbegin.o
 .data          0x00000000        0x0 c:/a/gcc_arm/6/bin/../lib/gcc/arm-none-eabi/6.3.1/../../../../arm-none-eabi/lib/thumb/v6-m/crt0.o
 .bss           0x00000000        0x0 c:/a/gcc_arm/6/bin/../lib/gcc/arm-none-eabi/6.3.1/../../../../arm-none-eabi/lib/thumb/v6-m/crt0.o
 .ARM.extab     0x00000000        0x0 c:/a/gcc_arm/6/bin/../lib/gcc/arm-none-eabi/6.3.1/../../../../arm-none-eabi/lib/thumb/v6-m/crt0.o
 .text          0x00000000        0x0 examples/pb_remote/server/CMakeFiles/pb_remote_server_nrf51422_xxAC_s130_2.0.1.dir/src/main.c.obj
 .data          0x00000000        0x0 examples/pb_remote/server/CMakeFiles/pb_remote_server_nrf51422_xxAC_s130_2.0.1.dir/src/main.c.obj
 .bss           0x00000000        0x0 examples/pb_remote/server/CMakeFiles/pb_remote_server_nrf51422_xxAC_s130_2.0.1.dir/src/main.c.obj
 .text          0x00000000        0x0 examples/pb_remote/server/CMakeFiles/pb_remote_server_nrf51422_xxAC_s130_2.0.1.dir/__/__/nrf_mesh_sdk.c.obj
 .data          0x00000000        0x0 examples/pb_remote/server/CMakeFiles/pb_remote_server_nrf51422_xxAC_s130_2.0.1.dir/__/__/nrf_mesh_sdk.c.obj
 .bss           0x00000000        0x0 examples/pb_remote/server/CMakeFiles/pb_remote_server_nrf51422_xxAC_s130_2.0.1.dir/__/__/nrf_mesh_sdk.c.obj
 .text.sd_softdevice_enable
                0x00000000        0x4 examples/pb_remote/server/CMakeFiles/pb_remote_server_nrf51422_xxAC_s130_2.0.1.dir/__/__/nrf_mesh_sdk.c.obj
 .text.sd_ble_enable
                0x00000000        0x4 examples/pb_remote/server/CMakeFiles/pb_remote_server_nrf51422_xxAC_s130_2.0.1.dir/__/__/nrf_mesh_sdk.c.obj
 .text.mesh_assert_handler
                0x00000000       0x70 examples/pb_remote/server/CMakeFiles/pb_remote_server_nrf51422_xxAC_s130_2.0.1.dir/__/__/nrf_mesh_sdk.c.obj
 .text.softdevice_assert_handler
                0x00000000       0x7c examples/pb_remote/server/CMakeFiles/pb_remote_server_nrf51422_xxAC_s130_2.0.1.dir/__/__/nrf_mesh_sdk.c.obj
 .text.mesh_softdevice_enable
                0x00000000      0x12c examples/pb_remote/server/CMakeFiles/pb_remote_server_nrf51422_xxAC_s130_2.0.1.dir/__/__/nrf_mesh_sdk.c.obj
 .text.mesh_softdevice_setup
                0x00000000       0x90 examples/pb_remote/server/CMakeFiles/pb_remote_server_nrf51422_xxAC_s130_2.0.1.dir/__/__/nrf_mesh_sdk.c.obj
 .text.mesh_core_setup
                0x00000000      0x15c examples/pb_remote/server/CMakeFiles/pb_remote_server_nrf51422_xxAC_s130_2.0.1.dir/__/__/nrf_mesh_sdk.c.obj
 .rodata.mesh_core_setup.str1.1
                0x00000000       0x47 examples/pb_remote/server/CMakeFiles/pb_remote_server_nrf51422_xxAC_s130_2.0.1.dir/__/__/nrf_mesh_sdk.c.obj
 .rodata.mesh_softdevice_enable.str1.1
                0x00000000       0x65 examples/pb_remote/server/CMakeFiles/pb_remote_server_nrf51422_xxAC_s130_2.0.1.dir/__/__/nrf_mesh_sdk.c.obj
 .rodata.softdevice_assert_handler.str1.1
                0x00000000       0x1d examples/pb_remote/server/CMakeFiles/pb_remote_server_nrf51422_xxAC_s130_2.0.1.dir/__/__/nrf_mesh_sdk.c.obj
 .text          0x00000000        0x0 examples/pb_remote/server/CMakeFiles/pb_remote_server_nrf51422_xxAC_s130_2.0.1.dir/__/__/common/src/simple_hal.c.obj
 .data          0x00000000        0x0 examples/pb_remote/server/CMakeFiles/pb_remote_server_nrf51422_xxAC_s130_2.0.1.dir/__/__/common/src/simple_hal.c.obj
 .bss           0x00000000        0x0 examples/pb_remote/server/CMakeFiles/pb_remote_server_nrf51422_xxAC_s130_2.0.1.dir/__/__/common/src/simple_hal.c.obj
 .text.hal_led_pin_get
                0x00000000       0x1c examples/pb_remote/server/CMakeFiles/pb_remote_server_nrf51422_xxAC_s130_2.0.1.dir/__/__/common/src/simple_hal.c.obj
 .text.hal_led_pin_set
                0x00000000       0x1c examples/pb_remote/server/CMakeFiles/pb_remote_server_nrf51422_xxAC_s130_2.0.1.dir/__/__/common/src/simple_hal.c.obj
 .text.hal_buttons_init
                0x00000000       0x6c examples/pb_remote/server/CMakeFiles/pb_remote_server_nrf51422_xxAC_s130_2.0.1.dir/__/__/common/src/simple_hal.c.obj
 .text          0x00000000        0x0 examples/pb_remote/server/CMakeFiles/pb_remote_server_nrf51422_xxAC_s130_2.0.1.dir/__/__/nrf_mesh_weak.c.obj
 .data          0x00000000        0x0 examples/pb_remote/server/CMakeFiles/pb_remote_server_nrf51422_xxAC_s130_2.0.1.dir/__/__/nrf_mesh_weak.c.obj
 .bss           0x00000000        0x0 examples/pb_remote/server/CMakeFiles/pb_remote_server_nrf51422_xxAC_s130_2.0.1.dir/__/__/nrf_mesh_weak.c.obj
 .text._weak_handler_ptr
                0x00000000        0x4 examples/pb_remote/server/CMakeFiles/pb_remote_server_nrf51422_xxAC_s130_2.0.1.dir/__/__/nrf_mesh_weak.c.obj
 .text          0x00000000        0x0 examples/pb_remote/server/CMakeFiles/pb_remote_server_nrf51422_xxAC_s130_2.0.1.dir/__/__/__/mesh/prov/src/prov_provisionee.c.obj
 .data          0x00000000        0x0 examples/pb_remote/server/CMakeFiles/pb_remote_server_nrf51422_xxAC_s130_2.0.1.dir/__/__/__/mesh/prov/src/prov_provisionee.c.obj
 .bss           0x00000000        0x0 examples/pb_remote/server/CMakeFiles/pb_remote_server_nrf51422_xxAC_s130_2.0.1.dir/__/__/__/mesh/prov/src/prov_provisionee.c.obj
 .text.prov_provisionee_shared_secret
                0x00000000       0x28 examples/pb_remote/server/CMakeFiles/pb_remote_server_nrf51422_xxAC_s130_2.0.1.dir/__/__/__/mesh/prov/src/prov_provisionee.c.obj
 .text          0x00000000        0x0 examples/pb_remote/server/CMakeFiles/pb_remote_server_nrf51422_xxAC_s130_2.0.1.dir/__/__/__/mesh/prov/src/nrf_mesh_prov.c.obj
 .data          0x00000000        0x0 examples/pb_remote/server/CMakeFiles/pb_remote_server_nrf51422_xxAC_s130_2.0.1.dir/__/__/__/mesh/prov/src/nrf_mesh_prov.c.obj
 .bss           0x00000000        0x0 examples/pb_remote/server/CMakeFiles/pb_remote_server_nrf51422_xxAC_s130_2.0.1.dir/__/__/__/mesh/prov/src/nrf_mesh_prov.c.obj
 .text.nrf_mesh_prov_provision
                0x00000000       0x64 examples/pb_remote/server/CMakeFiles/pb_remote_server_nrf51422_xxAC_s130_2.0.1.dir/__/__/__/mesh/prov/src/nrf_mesh_prov.c.obj
 .text.nrf_mesh_prov_oob_use
                0x00000000       0x18 examples/pb_remote/server/CMakeFiles/pb_remote_server_nrf51422_xxAC_s130_2.0.1.dir/__/__/__/mesh/prov/src/nrf_mesh_prov.c.obj
 .text.nrf_mesh_prov_shared_secret_provide
                0x00000000       0x18 examples/pb_remote/server/CMakeFiles/pb_remote_server_nrf51422_xxAC_s130_2.0.1.dir/__/__/__/mesh/prov/src/nrf_mesh_prov.c.obj
 .text.nrf_mesh_prov_pubkey_provide
                0x00000000       0x18 examples/pb_remote/server/CMakeFiles/pb_remote_server_nrf51422_xxAC_s130_2.0.1.dir/__/__/__/mesh/prov/src/nrf_mesh_prov.c.obj
 .text          0x00000000        0x0 examples/pb_remote/server/CMakeFiles/pb_remote_server_nrf51422_xxAC_s130_2.0.1.dir/__/__/__/mesh/prov/src/provisioning.c.obj
 .data          0x00000000        0x0 examples/pb_remote/server/CMakeFiles/pb_remote_server_nrf51422_xxAC_s130_2.0.1.dir/__/__/__/mesh/prov/src/provisioning.c.obj
 .bss           0x00000000        0x0 examples/pb_remote/server/CMakeFiles/pb_remote_server_nrf51422_xxAC_s130_2.0.1.dir/__/__/__/mesh/prov/src/provisioning.c.obj
 .text.prov_tx_invite
                0x00000000       0x24 examples/pb_remote/server/CMakeFiles/pb_remote_server_nrf51422_xxAC_s130_2.0.1.dir/__/__/__/mesh/prov/src/provisioning.c.obj
 .text.prov_tx_start
                0x00000000       0x1e examples/pb_remote/server/CMakeFiles/pb_remote_server_nrf51422_xxAC_s130_2.0.1.dir/__/__/__/mesh/prov/src/provisioning.c.obj
 .text.prov_tx_data
                0x00000000        0xa examples/pb_remote/server/CMakeFiles/pb_remote_server_nrf51422_xxAC_s130_2.0.1.dir/__/__/__/mesh/prov/src/provisioning.c.obj
 .text.prov_tx  0x00000000        0x8 examples/pb_remote/server/CMakeFiles/pb_remote_server_nrf51422_xxAC_s130_2.0.1.dir/__/__/__/mesh/prov/src/provisioning.c.obj
 .text          0x00000000        0x0 examples/pb_remote/server/CMakeFiles/pb_remote_server_nrf51422_xxAC_s130_2.0.1.dir/__/__/__/mesh/prov/src/prov_beacon.c.obj
 .data          0x00000000        0x0 examples/pb_remote/server/CMakeFiles/pb_remote_server_nrf51422_xxAC_s130_2.0.1.dir/__/__/__/mesh/prov/src/prov_beacon.c.obj
 .bss           0x00000000        0x0 examples/pb_remote/server/CMakeFiles/pb_remote_server_nrf51422_xxAC_s130_2.0.1.dir/__/__/__/mesh/prov/src/prov_beacon.c.obj
 .text          0x00000000        0x0 examples/pb_remote/server/CMakeFiles/pb_remote_server_nrf51422_xxAC_s130_2.0.1.dir/__/__/__/mesh/prov/src/prov_utils.c.obj
 .data          0x00000000        0x0 examples/pb_remote/server/CMakeFiles/pb_remote_server_nrf51422_xxAC_s130_2.0.1.dir/__/__/__/mesh/prov/src/prov_utils.c.obj
 .bss           0x00000000        0x0 examples/pb_remote/server/CMakeFiles/pb_remote_server_nrf51422_xxAC_s130_2.0.1.dir/__/__/__/mesh/prov/src/prov_utils.c.obj
 .text          0x00000000        0x0 examples/pb_remote/server/CMakeFiles/pb_remote_server_nrf51422_xxAC_s130_2.0.1.dir/__/__/__/mesh/prov/src/prov_bearer_adv.c.obj
 .data          0x00000000        0x0 examples/pb_remote/server/CMakeFiles/pb_remote_server_nrf51422_xxAC_s130_2.0.1.dir/__/__/__/mesh/prov/src/prov_bearer_adv.c.obj
 .bss           0x00000000        0x0 examples/pb_remote/server/CMakeFiles/pb_remote_server_nrf51422_xxAC_s130_2.0.1.dir/__/__/__/mesh/prov/src/prov_bearer_adv.c.obj
 .text          0x00000000        0x0 examples/pb_remote/server/CMakeFiles/pb_remote_server_nrf51422_xxAC_s130_2.0.1.dir/__/__/__/models/pb_remote/src/pb_remote_server.c.obj
 .data          0x00000000        0x0 examples/pb_remote/server/CMakeFiles/pb_remote_server_nrf51422_xxAC_s130_2.0.1.dir/__/__/__/models/pb_remote/src/pb_remote_server.c.obj
 .bss           0x00000000        0x0 examples/pb_remote/server/CMakeFiles/pb_remote_server_nrf51422_xxAC_s130_2.0.1.dir/__/__/__/models/pb_remote/src/pb_remote_server.c.obj
 .text.pb_remote_server_disable
                0x00000000        0xc examples/pb_remote/server/CMakeFiles/pb_remote_server_nrf51422_xxAC_s130_2.0.1.dir/__/__/__/models/pb_remote/src/pb_remote_server.c.obj
 .text.pb_remote_server_return_to_scan_set
                0x00000000       0x10 examples/pb_remote/server/CMakeFiles/pb_remote_server_nrf51422_xxAC_s130_2.0.1.dir/__/__/__/models/pb_remote/src/pb_remote_server.c.obj
 .text          0x00000000        0x0 examples/pb_remote/server/CMakeFiles/pb_remote_server_nrf51422_xxAC_s130_2.0.1.dir/__/__/__/mesh/access/src/access_publish.c.obj
 .data          0x00000000        0x0 examples/pb_remote/server/CMakeFiles/pb_remote_server_nrf51422_xxAC_s130_2.0.1.dir/__/__/__/mesh/access/src/access_publish.c.obj
 .bss           0x00000000        0x0 examples/pb_remote/server/CMakeFiles/pb_remote_server_nrf51422_xxAC_s130_2.0.1.dir/__/__/__/mesh/access/src/access_publish.c.obj
 .text          0x00000000        0x0 examples/pb_remote/server/CMakeFiles/pb_remote_server_nrf51422_xxAC_s130_2.0.1.dir/__/__/__/mesh/access/src/access.c.obj
 .data          0x00000000        0x0 examples/pb_remote/server/CMakeFiles/pb_remote_server_nrf51422_xxAC_s130_2.0.1.dir/__/__/__/mesh/access/src/access.c.obj
 .bss           0x00000000        0x0 examples/pb_remote/server/CMakeFiles/pb_remote_server_nrf51422_xxAC_s130_2.0.1.dir/__/__/__/mesh/access/src/access.c.obj
 .text.access_model_subscription_list_alloc
                0x00000000       0x50 examples/pb_remote/server/CMakeFiles/pb_remote_server_nrf51422_xxAC_s130_2.0.1.dir/__/__/__/mesh/access/src/access.c.obj
 .text.access_model_subscription_lists_share
                0x00000000       0x50 examples/pb_remote/server/CMakeFiles/pb_remote_server_nrf51422_xxAC_s130_2.0.1.dir/__/__/__/mesh/access/src/access.c.obj
 .text.access_element_location_set
                0x00000000       0x28 examples/pb_remote/server/CMakeFiles/pb_remote_server_nrf51422_xxAC_s130_2.0.1.dir/__/__/__/mesh/access/src/access.c.obj
 .text          0x00000000        0x0 examples/pb_remote/server/CMakeFiles/pb_remote_server_nrf51422_xxAC_s130_2.0.1.dir/__/__/__/mesh/access/src/access_reliable.c.obj
 .data          0x00000000        0x0 examples/pb_remote/server/CMakeFiles/pb_remote_server_nrf51422_xxAC_s130_2.0.1.dir/__/__/__/mesh/access/src/access_reliable.c.obj
 .bss           0x00000000        0x0 examples/pb_remote/server/CMakeFiles/pb_remote_server_nrf51422_xxAC_s130_2.0.1.dir/__/__/__/mesh/access/src/access_reliable.c.obj
 .text          0x00000000        0x0 examples/pb_remote/server/CMakeFiles/pb_remote_server_nrf51422_xxAC_s130_2.0.1.dir/__/__/__/mesh/access/src/device_state_manager.c.obj
 .data          0x00000000        0x0 examples/pb_remote/server/CMakeFiles/pb_remote_server_nrf51422_xxAC_s130_2.0.1.dir/__/__/__/mesh/access/src/device_state_manager.c.obj
 .bss           0x00000000        0x0 examples/pb_remote/server/CMakeFiles/pb_remote_server_nrf51422_xxAC_s130_2.0.1.dir/__/__/__/mesh/access/src/device_state_manager.c.obj
 .text.dsm_has_unflashed_data
                0x00000000       0x28 examples/pb_remote/server/CMakeFiles/pb_remote_server_nrf51422_xxAC_s130_2.0.1.dir/__/__/__/mesh/access/src/device_state_manager.c.obj
 .text.dsm_address_publish_remove
                0x00000000       0x40 examples/pb_remote/server/CMakeFiles/pb_remote_server_nrf51422_xxAC_s130_2.0.1.dir/__/__/__/mesh/access/src/device_state_manager.c.obj
 .text.dsm_address_subscription_count_get
                0x00000000       0x58 examples/pb_remote/server/CMakeFiles/pb_remote_server_nrf51422_xxAC_s130_2.0.1.dir/__/__/__/mesh/access/src/device_state_manager.c.obj
 .text.dsm_address_get_all
                0x00000000       0x5c examples/pb_remote/server/CMakeFiles/pb_remote_server_nrf51422_xxAC_s130_2.0.1.dir/__/__/__/mesh/access/src/device_state_manager.c.obj
 .text.dsm_subnet_handle_get
                0x00000000       0x14 examples/pb_remote/server/CMakeFiles/pb_remote_server_nrf51422_xxAC_s130_2.0.1.dir/__/__/__/mesh/access/src/device_state_manager.c.obj
 .text.dsm_subnet_handle_to_netkey_index
                0x00000000       0x34 examples/pb_remote/server/CMakeFiles/pb_remote_server_nrf51422_xxAC_s130_2.0.1.dir/__/__/__/mesh/access/src/device_state_manager.c.obj
 .text.dsm_devkey_handle_get
                0x00000000       0x30 examples/pb_remote/server/CMakeFiles/pb_remote_server_nrf51422_xxAC_s130_2.0.1.dir/__/__/__/mesh/access/src/device_state_manager.c.obj
 .text.dsm_beacon_secmat_get
                0x00000000       0x34 examples/pb_remote/server/CMakeFiles/pb_remote_server_nrf51422_xxAC_s130_2.0.1.dir/__/__/__/mesh/access/src/device_state_manager.c.obj
 .text.dsm_proxy_identity_get
                0x00000000        0x4 examples/pb_remote/server/CMakeFiles/pb_remote_server_nrf51422_xxAC_s130_2.0.1.dir/__/__/__/mesh/access/src/device_state_manager.c.obj
 .text          0x00000000        0x0 examples/pb_remote/server/CMakeFiles/pb_remote_server_nrf51422_xxAC_s130_2.0.1.dir/__/__/__/mesh/access/src/nrf_mesh_node_config.c.obj
 .data          0x00000000        0x0 examples/pb_remote/server/CMakeFiles/pb_remote_server_nrf51422_xxAC_s130_2.0.1.dir/__/__/__/mesh/access/src/nrf_mesh_node_config.c.obj
 .bss           0x00000000        0x0 examples/pb_remote/server/CMakeFiles/pb_remote_server_nrf51422_xxAC_s130_2.0.1.dir/__/__/__/mesh/access/src/nrf_mesh_node_config.c.obj
 .text.nrf_mesh_node_config_clear
                0x00000000       0x24 examples/pb_remote/server/CMakeFiles/pb_remote_server_nrf51422_xxAC_s130_2.0.1.dir/__/__/__/mesh/access/src/nrf_mesh_node_config.c.obj
 .text          0x00000000        0x0 examples/pb_remote/server/CMakeFiles/pb_remote_server_nrf51422_xxAC_s130_2.0.1.dir/__/__/__/models/config/src/composition_data.c.obj
 .data          0x00000000        0x0 examples/pb_remote/server/CMakeFiles/pb_remote_server_nrf51422_xxAC_s130_2.0.1.dir/__/__/__/models/config/src/composition_data.c.obj
 .bss           0x00000000        0x0 examples/pb_remote/server/CMakeFiles/pb_remote_server_nrf51422_xxAC_s130_2.0.1.dir/__/__/__/models/config/src/composition_data.c.obj
 .text          0x00000000        0x0 examples/pb_remote/server/CMakeFiles/pb_remote_server_nrf51422_xxAC_s130_2.0.1.dir/__/__/__/models/config/src/config_server.c.obj
 .data          0x00000000        0x0 examples/pb_remote/server/CMakeFiles/pb_remote_server_nrf51422_xxAC_s130_2.0.1.dir/__/__/__/models/config/src/config_server.c.obj
 .bss           0x00000000        0x0 examples/pb_remote/server/CMakeFiles/pb_remote_server_nrf51422_xxAC_s130_2.0.1.dir/__/__/__/models/config/src/config_server.c.obj
 .text          0x00000000        0x0 examples/pb_remote/server/CMakeFiles/pb_remote_server_nrf51422_xxAC_s130_2.0.1.dir/__/__/__/models/config/src/packed_index_list.c.obj
 .data          0x00000000        0x0 examples/pb_remote/server/CMakeFiles/pb_remote_server_nrf51422_xxAC_s130_2.0.1.dir/__/__/__/models/config/src/packed_index_list.c.obj
 .bss           0x00000000        0x0 examples/pb_remote/server/CMakeFiles/pb_remote_server_nrf51422_xxAC_s130_2.0.1.dir/__/__/__/models/config/src/packed_index_list.c.obj
 .text          0x00000000        0x0 examples/pb_remote/server/CMakeFiles/pb_remote_server_nrf51422_xxAC_s130_2.0.1.dir/__/__/__/models/health/src/health_server.c.obj
 .data          0x00000000        0x0 examples/pb_remote/server/CMakeFiles/pb_remote_server_nrf51422_xxAC_s130_2.0.1.dir/__/__/__/models/health/src/health_server.c.obj
 .bss           0x00000000        0x0 examples/pb_remote/server/CMakeFiles/pb_remote_server_nrf51422_xxAC_s130_2.0.1.dir/__/__/__/models/health/src/health_server.c.obj
 .text.health_server_fault_is_set
                0x00000000       0x1a examples/pb_remote/server/CMakeFiles/pb_remote_server_nrf51422_xxAC_s130_2.0.1.dir/__/__/__/models/health/src/health_server.c.obj
 .text.health_server_fault_count_get
                0x00000000        0xc examples/pb_remote/server/CMakeFiles/pb_remote_server_nrf51422_xxAC_s130_2.0.1.dir/__/__/__/models/health/src/health_server.c.obj
 .text.health_server_fault_register
                0x00000000       0xe0 examples/pb_remote/server/CMakeFiles/pb_remote_server_nrf51422_xxAC_s130_2.0.1.dir/__/__/__/models/health/src/health_server.c.obj
 .text.health_server_fault_clear
                0x00000000       0x54 examples/pb_remote/server/CMakeFiles/pb_remote_server_nrf51422_xxAC_s130_2.0.1.dir/__/__/__/models/health/src/health_server.c.obj
 .text.health_server_attention_get
                0x00000000        0x6 examples/pb_remote/server/CMakeFiles/pb_remote_server_nrf51422_xxAC_s130_2.0.1.dir/__/__/__/models/health/src/health_server.c.obj
 .text.health_server_attention_set
                0x00000000        0x8 examples/pb_remote/server/CMakeFiles/pb_remote_server_nrf51422_xxAC_s130_2.0.1.dir/__/__/__/models/health/src/health_server.c.obj
 .text          0x00000000        0x0 examples/pb_remote/server/CMakeFiles/pb_remote_server_nrf51422_xxAC_s130_2.0.1.dir/__/__/__/external/nRF5_SDK_14.2.0_17b948a/components/toolchain/system_nrf51.c.obj
 .data          0x00000000        0x0 examples/pb_remote/server/CMakeFiles/pb_remote_server_nrf51422_xxAC_s130_2.0.1.dir/__/__/__/external/nRF5_SDK_14.2.0_17b948a/components/toolchain/system_nrf51.c.obj
 .bss           0x00000000        0x0 examples/pb_remote/server/CMakeFiles/pb_remote_server_nrf51422_xxAC_s130_2.0.1.dir/__/__/__/external/nRF5_SDK_14.2.0_17b948a/components/toolchain/system_nrf51.c.obj
 .text.SystemCoreClockUpdate
                0x00000000       0x10 examples/pb_remote/server/CMakeFiles/pb_remote_server_nrf51422_xxAC_s130_2.0.1.dir/__/__/__/external/nRF5_SDK_14.2.0_17b948a/components/toolchain/system_nrf51.c.obj
 .data          0x00000000        0x0 examples/pb_remote/server/CMakeFiles/pb_remote_server_nrf51422_xxAC_s130_2.0.1.dir/__/__/__/external/nRF5_SDK_14.2.0_17b948a/components/toolchain/gcc/gcc_startup_nrf51.S.obj
 .bss           0x00000000        0x0 examples/pb_remote/server/CMakeFiles/pb_remote_server_nrf51422_xxAC_s130_2.0.1.dir/__/__/__/external/nRF5_SDK_14.2.0_17b948a/components/toolchain/gcc/gcc_startup_nrf51.S.obj
 .text          0x00000000        0x0 mesh/core/libmesh_core_nrf51422_xxAC.a(nrf_mesh_configure.c.obj)
 .data          0x00000000        0x0 mesh/core/libmesh_core_nrf51422_xxAC.a(nrf_mesh_configure.c.obj)
 .bss           0x00000000        0x0 mesh/core/libmesh_core_nrf51422_xxAC.a(nrf_mesh_configure.c.obj)
 .text.nrf_mesh_configure_device_uuid_set
                0x00000000       0x14 mesh/core/libmesh_core_nrf51422_xxAC.a(nrf_mesh_configure.c.obj)
 .text          0x00000000        0x0 mesh/core/libmesh_core_nrf51422_xxAC.a(event.c.obj)
 .data          0x00000000        0x0 mesh/core/libmesh_core_nrf51422_xxAC.a(event.c.obj)
 .bss           0x00000000        0x0 mesh/core/libmesh_core_nrf51422_xxAC.a(event.c.obj)
 .text          0x00000000        0x0 mesh/core/libmesh_core_nrf51422_xxAC.a(fifo.c.obj)
 .data          0x00000000        0x0 mesh/core/libmesh_core_nrf51422_xxAC.a(fifo.c.obj)
 .bss           0x00000000        0x0 mesh/core/libmesh_core_nrf51422_xxAC.a(fifo.c.obj)
 .text.fifo_peek_at
                0x00000000       0x5a mesh/core/libmesh_core_nrf51422_xxAC.a(fifo.c.obj)
 .text.fifo_peek
                0x00000000        0xa mesh/core/libmesh_core_nrf51422_xxAC.a(fifo.c.obj)
 .text.fifo_is_full
                0x00000000       0x12 mesh/core/libmesh_core_nrf51422_xxAC.a(fifo.c.obj)
 .text.fifo_is_empty
                0x00000000        0xe mesh/core/libmesh_core_nrf51422_xxAC.a(fifo.c.obj)
 .text          0x00000000        0x0 mesh/core/libmesh_core_nrf51422_xxAC.a(net_state.c.obj)
 .data          0x00000000        0x0 mesh/core/libmesh_core_nrf51422_xxAC.a(net_state.c.obj)
 .bss           0x00000000        0x0 mesh/core/libmesh_core_nrf51422_xxAC.a(net_state.c.obj)
 .text.net_state_iv_update_test_mode_set
                0x00000000        0xc mesh/core/libmesh_core_nrf51422_xxAC.a(net_state.c.obj)
 .text          0x00000000        0x0 mesh/core/libmesh_core_nrf51422_xxAC.a(nrf_mesh_utils.c.obj)
 .data          0x00000000        0x0 mesh/core/libmesh_core_nrf51422_xxAC.a(nrf_mesh_utils.c.obj)
 .bss           0x00000000        0x0 mesh/core/libmesh_core_nrf51422_xxAC.a(nrf_mesh_utils.c.obj)
 .text.nrf_mesh_rand_get
                0x00000000       0x14 mesh/core/libmesh_core_nrf51422_xxAC.a(nrf_mesh_utils.c.obj)
 .text.nrf_mesh_gap_address_type_get
                0x00000000       0x40 mesh/core/libmesh_core_nrf51422_xxAC.a(nrf_mesh_utils.c.obj)
 .text          0x00000000        0x0 mesh/core/libmesh_core_nrf51422_xxAC.a(nrf_mesh.c.obj)
 .data          0x00000000        0x0 mesh/core/libmesh_core_nrf51422_xxAC.a(nrf_mesh.c.obj)
 .bss           0x00000000        0x0 mesh/core/libmesh_core_nrf51422_xxAC.a(nrf_mesh.c.obj)
 .text.nrf_mesh_disable
                0x00000000       0x28 mesh/core/libmesh_core_nrf51422_xxAC.a(nrf_mesh.c.obj)
 .text.nrf_mesh_process
                0x00000000        0x8 mesh/core/libmesh_core_nrf51422_xxAC.a(nrf_mesh.c.obj)
 .text.nrf_mesh_evt_handler_remove
                0x00000000        0x8 mesh/core/libmesh_core_nrf51422_xxAC.a(nrf_mesh.c.obj)
 .text.nrf_mesh_rx_cb_set
                0x00000000        0xc mesh/core/libmesh_core_nrf51422_xxAC.a(nrf_mesh.c.obj)
 .text.nrf_mesh_rx_cb_clear
                0x00000000        0xc mesh/core/libmesh_core_nrf51422_xxAC.a(nrf_mesh.c.obj)
 .text          0x00000000        0x0 mesh/core/libmesh_core_nrf51422_xxAC.a(hal.c.obj)
 .data          0x00000000        0x0 mesh/core/libmesh_core_nrf51422_xxAC.a(hal.c.obj)
 .bss           0x00000000        0x0 mesh/core/libmesh_core_nrf51422_xxAC.a(hal.c.obj)
 .text          0x00000000        0x0 mesh/core/libmesh_core_nrf51422_xxAC.a(timer_scheduler.c.obj)
 .data          0x00000000        0x0 mesh/core/libmesh_core_nrf51422_xxAC.a(timer_scheduler.c.obj)
 .bss           0x00000000        0x0 mesh/core/libmesh_core_nrf51422_xxAC.a(timer_scheduler.c.obj)
 .text          0x00000000        0x0 mesh/core/libmesh_core_nrf51422_xxAC.a(timer.c.obj)
 .data          0x00000000        0x0 mesh/core/libmesh_core_nrf51422_xxAC.a(timer.c.obj)
 .bss           0x00000000        0x0 mesh/core/libmesh_core_nrf51422_xxAC.a(timer.c.obj)
 .text.timer_order_cb_ppi
                0x00000000       0xc8 mesh/core/libmesh_core_nrf51422_xxAC.a(timer.c.obj)
 .text.timer_order_ppi
                0x00000000       0xc4 mesh/core/libmesh_core_nrf51422_xxAC.a(timer.c.obj)
 .text.timer_abort
                0x00000000       0x7c mesh/core/libmesh_core_nrf51422_xxAC.a(timer.c.obj)
 .text          0x00000000        0x0 mesh/core/libmesh_core_nrf51422_xxAC.a(ticker.c.obj)
 .data          0x00000000        0x0 mesh/core/libmesh_core_nrf51422_xxAC.a(ticker.c.obj)
 .bss           0x00000000        0x0 mesh/core/libmesh_core_nrf51422_xxAC.a(ticker.c.obj)
 .text.ticker_get
                0x00000000        0xc mesh/core/libmesh_core_nrf51422_xxAC.a(ticker.c.obj)
 .text          0x00000000        0x0 mesh/core/libmesh_core_nrf51422_xxAC.a(rand.c.obj)
 .data          0x00000000        0x0 mesh/core/libmesh_core_nrf51422_xxAC.a(rand.c.obj)
 .bss           0x00000000        0x0 mesh/core/libmesh_core_nrf51422_xxAC.a(rand.c.obj)
 .text          0x00000000        0x0 mesh/core/libmesh_core_nrf51422_xxAC.a(nrf_mesh_opt.c.obj)
 .data          0x00000000        0x0 mesh/core/libmesh_core_nrf51422_xxAC.a(nrf_mesh_opt.c.obj)
 .bss           0x00000000        0x0 mesh/core/libmesh_core_nrf51422_xxAC.a(nrf_mesh_opt.c.obj)
 .text          0x00000000        0x0 mesh/core/libmesh_core_nrf51422_xxAC.a(timeslot.c.obj)
 .data          0x00000000        0x0 mesh/core/libmesh_core_nrf51422_xxAC.a(timeslot.c.obj)
 .bss           0x00000000        0x0 mesh/core/libmesh_core_nrf51422_xxAC.a(timeslot.c.obj)
 .text.timeslot_end_time_get
                0x00000000       0x18 mesh/core/libmesh_core_nrf51422_xxAC.a(timeslot.c.obj)
 .text.timeslot_is_in_ts
                0x00000000        0xc mesh/core/libmesh_core_nrf51422_xxAC.a(timeslot.c.obj)
 .text.timeslot_restart
                0x00000000       0x14 mesh/core/libmesh_core_nrf51422_xxAC.a(timeslot.c.obj)
 .text          0x00000000        0x0 mesh/core/libmesh_core_nrf51422_xxAC.a(bearer_event.c.obj)
 .data          0x00000000        0x0 mesh/core/libmesh_core_nrf51422_xxAC.a(bearer_event.c.obj)
 .bss           0x00000000        0x0 mesh/core/libmesh_core_nrf51422_xxAC.a(bearer_event.c.obj)
 .text.bearer_event_generic_post
                0x00000000       0x34 mesh/core/libmesh_core_nrf51422_xxAC.a(bearer_event.c.obj)
 .text.bearer_event_timer_sch_post
                0x00000000       0x38 mesh/core/libmesh_core_nrf51422_xxAC.a(bearer_event.c.obj)
 .text.bearer_event_in_correct_irq_priority
                0x00000000       0x60 mesh/core/libmesh_core_nrf51422_xxAC.a(bearer_event.c.obj)
 .text          0x00000000        0x0 mesh/core/libmesh_core_nrf51422_xxAC.a(enc.c.obj)
 .data          0x00000000        0x0 mesh/core/libmesh_core_nrf51422_xxAC.a(enc.c.obj)
 .bss           0x00000000        0x0 mesh/core/libmesh_core_nrf51422_xxAC.a(enc.c.obj)
 .text.enc_key_generate
                0x00000000        0xa mesh/core/libmesh_core_nrf51422_xxAC.a(enc.c.obj)
 .text          0x00000000        0x0 mesh/core/libmesh_core_nrf51422_xxAC.a(network.c.obj)
 .data          0x00000000        0x0 mesh/core/libmesh_core_nrf51422_xxAC.a(network.c.obj)
 .bss           0x00000000        0x0 mesh/core/libmesh_core_nrf51422_xxAC.a(network.c.obj)
 .text.network_packet_discard
                0x00000000       0x40 mesh/core/libmesh_core_nrf51422_xxAC.a(network.c.obj)
 .text          0x00000000        0x0 mesh/core/libmesh_core_nrf51422_xxAC.a(nrf_mesh_keygen.c.obj)
 .data          0x00000000        0x0 mesh/core/libmesh_core_nrf51422_xxAC.a(nrf_mesh_keygen.c.obj)
 .bss           0x00000000        0x0 mesh/core/libmesh_core_nrf51422_xxAC.a(nrf_mesh_keygen.c.obj)
 .text.nrf_mesh_keygen_identitykey
                0x00000000       0x4c mesh/core/libmesh_core_nrf51422_xxAC.a(nrf_mesh_keygen.c.obj)
 .text          0x00000000        0x0 mesh/core/libmesh_core_nrf51422_xxAC.a(list.c.obj)
 .data          0x00000000        0x0 mesh/core/libmesh_core_nrf51422_xxAC.a(list.c.obj)
 .bss           0x00000000        0x0 mesh/core/libmesh_core_nrf51422_xxAC.a(list.c.obj)
 .text.list_size_get
                0x00000000       0x12 mesh/core/libmesh_core_nrf51422_xxAC.a(list.c.obj)
 .text.list_sorted_add
                0x00000000       0x94 mesh/core/libmesh_core_nrf51422_xxAC.a(list.c.obj)
 .text          0x00000000        0x0 mesh/core/libmesh_core_nrf51422_xxAC.a(log.c.obj)
 .data          0x00000000        0x0 mesh/core/libmesh_core_nrf51422_xxAC.a(log.c.obj)
 .bss           0x00000000        0x0 mesh/core/libmesh_core_nrf51422_xxAC.a(log.c.obj)
 .text.log_callback_logview
                0x00000000       0x34 mesh/core/libmesh_core_nrf51422_xxAC.a(log.c.obj)
 .text.log_set_callback
                0x00000000        0xc mesh/core/libmesh_core_nrf51422_xxAC.a(log.c.obj)
 .rodata.log_callback_logview.str1.1
                0x00000000        0xf mesh/core/libmesh_core_nrf51422_xxAC.a(log.c.obj)
 .text          0x00000000        0x0 mesh/core/libmesh_core_nrf51422_xxAC.a(flash_manager.c.obj)
 .data          0x00000000        0x0 mesh/core/libmesh_core_nrf51422_xxAC.a(flash_manager.c.obj)
 .bss           0x00000000        0x0 mesh/core/libmesh_core_nrf51422_xxAC.a(flash_manager.c.obj)
 .text.flash_manager_entry_count_get
                0x00000000       0x5c mesh/core/libmesh_core_nrf51422_xxAC.a(flash_manager.c.obj)
 .text.flash_manager_entry_release
                0x00000000       0x10 mesh/core/libmesh_core_nrf51422_xxAC.a(flash_manager.c.obj)
 .text          0x00000000        0x0 mesh/core/libmesh_core_nrf51422_xxAC.a(ccm_soft.c.obj)
 .data          0x00000000        0x0 mesh/core/libmesh_core_nrf51422_xxAC.a(ccm_soft.c.obj)
 .bss           0x00000000        0x0 mesh/core/libmesh_core_nrf51422_xxAC.a(ccm_soft.c.obj)
 .text          0x00000000        0x0 mesh/core/libmesh_core_nrf51422_xxAC.a(beacon.c.obj)
 .data          0x00000000        0x0 mesh/core/libmesh_core_nrf51422_xxAC.a(beacon.c.obj)
 .bss           0x00000000        0x0 mesh/core/libmesh_core_nrf51422_xxAC.a(beacon.c.obj)
 .text          0x00000000        0x0 mesh/core/libmesh_core_nrf51422_xxAC.a(flash_manager_internal.c.obj)
 .data          0x00000000        0x0 mesh/core/libmesh_core_nrf51422_xxAC.a(flash_manager_internal.c.obj)
 .bss           0x00000000        0x0 mesh/core/libmesh_core_nrf51422_xxAC.a(flash_manager_internal.c.obj)
 .text          0x00000000        0x0 mesh/core/libmesh_core_nrf51422_xxAC.a(core_tx.c.obj)
 .data          0x00000000        0x0 mesh/core/libmesh_core_nrf51422_xxAC.a(core_tx.c.obj)
 .bss           0x00000000        0x0 mesh/core/libmesh_core_nrf51422_xxAC.a(core_tx.c.obj)
 .text          0x00000000        0x0 mesh/core/libmesh_core_nrf51422_xxAC.a(heartbeat.c.obj)
 .data          0x00000000        0x0 mesh/core/libmesh_core_nrf51422_xxAC.a(heartbeat.c.obj)
 .bss           0x00000000        0x0 mesh/core/libmesh_core_nrf51422_xxAC.a(heartbeat.c.obj)
 .text          0x00000000        0x0 mesh/core/libmesh_core_nrf51422_xxAC.a(net_beacon.c.obj)
 .data          0x00000000        0x0 mesh/core/libmesh_core_nrf51422_xxAC.a(net_beacon.c.obj)
 .bss           0x00000000        0x0 mesh/core/libmesh_core_nrf51422_xxAC.a(net_beacon.c.obj)
 .text          0x00000000        0x0 mesh/core/libmesh_core_nrf51422_xxAC.a(core_tx_adv.c.obj)
 .data          0x00000000        0x0 mesh/core/libmesh_core_nrf51422_xxAC.a(core_tx_adv.c.obj)
 .bss           0x00000000        0x0 mesh/core/libmesh_core_nrf51422_xxAC.a(core_tx_adv.c.obj)
 .text.core_tx_adv_address_set
                0x00000000       0x34 mesh/core/libmesh_core_nrf51422_xxAC.a(core_tx_adv.c.obj)
 .text          0x00000000        0x0 mesh/core/libmesh_core_nrf51422_xxAC.a(ad_listener.c.obj)
 .data          0x00000000        0x0 mesh/core/libmesh_core_nrf51422_xxAC.a(ad_listener.c.obj)
 .bss           0x00000000        0x0 mesh/core/libmesh_core_nrf51422_xxAC.a(ad_listener.c.obj)
 .text.ad_listener_unsubscribe
                0x00000000       0x7c mesh/core/libmesh_core_nrf51422_xxAC.a(ad_listener.c.obj)
 .text          0x00000000        0x0 mesh/core/libmesh_core_nrf51422_xxAC.a(ad_type_filter.c.obj)
 .data          0x00000000        0x0 mesh/core/libmesh_core_nrf51422_xxAC.a(ad_type_filter.c.obj)
 .bss           0x00000000        0x0 mesh/core/libmesh_core_nrf51422_xxAC.a(ad_type_filter.c.obj)
 .text.bearer_adtype_remove
                0x00000000       0x20 mesh/core/libmesh_core_nrf51422_xxAC.a(ad_type_filter.c.obj)
 .text.bearer_adtype_clear
                0x00000000       0x14 mesh/core/libmesh_core_nrf51422_xxAC.a(ad_type_filter.c.obj)
 .text.bearer_invalid_length_amount_get
                0x00000000        0xc mesh/core/libmesh_core_nrf51422_xxAC.a(ad_type_filter.c.obj)
 .text.bearer_adtype_filtered_amount_get
                0x00000000        0xc mesh/core/libmesh_core_nrf51422_xxAC.a(ad_type_filter.c.obj)
 .text          0x00000000        0x0 mesh/core/libmesh_core_nrf51422_xxAC.a(advertiser.c.obj)
 .data          0x00000000        0x0 mesh/core/libmesh_core_nrf51422_xxAC.a(advertiser.c.obj)
 .bss           0x00000000        0x0 mesh/core/libmesh_core_nrf51422_xxAC.a(advertiser.c.obj)
 .text.advertiser_disable
                0x00000000        0xe mesh/core/libmesh_core_nrf51422_xxAC.a(advertiser.c.obj)
 .text.advertiser_channels_set
                0x00000000       0x94 mesh/core/libmesh_core_nrf51422_xxAC.a(advertiser.c.obj)
 .text.advertiser_address_set
                0x00000000       0x58 mesh/core/libmesh_core_nrf51422_xxAC.a(advertiser.c.obj)
 .text.advertiser_config_set
                0x00000000       0x48 mesh/core/libmesh_core_nrf51422_xxAC.a(advertiser.c.obj)
 .text.advertiser_config_get
                0x00000000       0x30 mesh/core/libmesh_core_nrf51422_xxAC.a(advertiser.c.obj)
 .text          0x00000000        0x0 mesh/core/libmesh_core_nrf51422_xxAC.a(bearer_handler.c.obj)
 .data          0x00000000        0x0 mesh/core/libmesh_core_nrf51422_xxAC.a(bearer_handler.c.obj)
 .bss           0x00000000        0x0 mesh/core/libmesh_core_nrf51422_xxAC.a(bearer_handler.c.obj)
 .text.bearer_handler_stop
                0x00000000       0x20 mesh/core/libmesh_core_nrf51422_xxAC.a(bearer_handler.c.obj)
 .text.bearer_handler_action_fire
                0x00000000       0xcc mesh/core/libmesh_core_nrf51422_xxAC.a(bearer_handler.c.obj)
 .text          0x00000000        0x0 mesh/core/libmesh_core_nrf51422_xxAC.a(broadcast.c.obj)
 .data          0x00000000        0x0 mesh/core/libmesh_core_nrf51422_xxAC.a(broadcast.c.obj)
 .bss           0x00000000        0x0 mesh/core/libmesh_core_nrf51422_xxAC.a(broadcast.c.obj)
 .text          0x00000000        0x0 mesh/core/libmesh_core_nrf51422_xxAC.a(filter_engine.c.obj)
 .data          0x00000000        0x0 mesh/core/libmesh_core_nrf51422_xxAC.a(filter_engine.c.obj)
 .bss           0x00000000        0x0 mesh/core/libmesh_core_nrf51422_xxAC.a(filter_engine.c.obj)
 .text.fen_accepted_amount_get
                0x00000000        0xc mesh/core/libmesh_core_nrf51422_xxAC.a(filter_engine.c.obj)
 .text          0x00000000        0x0 mesh/core/libmesh_core_nrf51422_xxAC.a(radio_config.c.obj)
 .data          0x00000000        0x0 mesh/core/libmesh_core_nrf51422_xxAC.a(radio_config.c.obj)
 .bss           0x00000000        0x0 mesh/core/libmesh_core_nrf51422_xxAC.a(radio_config.c.obj)
 .text.radio_config_access_addr_get
                0x00000000       0x78 mesh/core/libmesh_core_nrf51422_xxAC.a(radio_config.c.obj)
 .text          0x00000000        0x0 mesh/core/libmesh_core_nrf51422_xxAC.a(scanner.c.obj)
 .data          0x00000000        0x0 mesh/core/libmesh_core_nrf51422_xxAC.a(scanner.c.obj)
 .bss           0x00000000        0x0 mesh/core/libmesh_core_nrf51422_xxAC.a(scanner.c.obj)
 .text.scanner_rx_callback_set
                0x00000000       0x30 mesh/core/libmesh_core_nrf51422_xxAC.a(scanner.c.obj)
 .text.scanner_disable
                0x00000000       0x44 mesh/core/libmesh_core_nrf51422_xxAC.a(scanner.c.obj)
 .text.scanner_is_enabled
                0x00000000       0x14 mesh/core/libmesh_core_nrf51422_xxAC.a(scanner.c.obj)
 .text.scanner_stats_get
                0x00000000        0xc mesh/core/libmesh_core_nrf51422_xxAC.a(scanner.c.obj)
 .text.scanner_config_radio_mode_set
                0x00000000       0x10 mesh/core/libmesh_core_nrf51422_xxAC.a(scanner.c.obj)
 .text          0x00000000        0x0 mesh/core/libmesh_core_nrf51422_xxAC.a(internal_event.c.obj)
 .data          0x00000000        0x0 mesh/core/libmesh_core_nrf51422_xxAC.a(internal_event.c.obj)
 .bss           0x00000000        0x0 mesh/core/libmesh_core_nrf51422_xxAC.a(internal_event.c.obj)
 .text.internal_event_init
                0x00000000       0x40 mesh/core/libmesh_core_nrf51422_xxAC.a(internal_event.c.obj)
 .text.internal_event_pop
                0x00000000       0x20 mesh/core/libmesh_core_nrf51422_xxAC.a(internal_event.c.obj)
 .bss.m_internal_event_fifo_buffer
                0x00000000      0x100 mesh/core/libmesh_core_nrf51422_xxAC.a(internal_event.c.obj)
 .text          0x00000000        0x0 mesh/core/libmesh_core_nrf51422_xxAC.a(aes.c.obj)
 .data          0x00000000        0x0 mesh/core/libmesh_core_nrf51422_xxAC.a(aes.c.obj)
 .bss           0x00000000        0x0 mesh/core/libmesh_core_nrf51422_xxAC.a(aes.c.obj)
 .text          0x00000000        0x0 mesh/core/libmesh_core_nrf51422_xxAC.a(msg_cache.c.obj)
 .data          0x00000000        0x0 mesh/core/libmesh_core_nrf51422_xxAC.a(msg_cache.c.obj)
 .bss           0x00000000        0x0 mesh/core/libmesh_core_nrf51422_xxAC.a(msg_cache.c.obj)
 .text.msg_cache_clear
                0x00000000       0x18 mesh/core/libmesh_core_nrf51422_xxAC.a(msg_cache.c.obj)
 .text          0x00000000        0x0 mesh/core/libmesh_core_nrf51422_xxAC.a(transport.c.obj)
 .data          0x00000000        0x0 mesh/core/libmesh_core_nrf51422_xxAC.a(transport.c.obj)
 .bss           0x00000000        0x0 mesh/core/libmesh_core_nrf51422_xxAC.a(transport.c.obj)
 .text.transport_sar_mem_funcs_set
                0x00000000       0x3c mesh/core/libmesh_core_nrf51422_xxAC.a(transport.c.obj)
 .text          0x00000000        0x0 mesh/core/libmesh_core_nrf51422_xxAC.a(packet_buffer.c.obj)
 .data          0x00000000        0x0 mesh/core/libmesh_core_nrf51422_xxAC.a(packet_buffer.c.obj)
 .bss           0x00000000        0x0 mesh/core/libmesh_core_nrf51422_xxAC.a(packet_buffer.c.obj)
 .text.packet_buffer_max_packet_len_get
                0x00000000       0x38 mesh/core/libmesh_core_nrf51422_xxAC.a(packet_buffer.c.obj)
 .text          0x00000000        0x0 mesh/core/libmesh_core_nrf51422_xxAC.a(flash_manager_defrag.c.obj)
 .data          0x00000000        0x0 mesh/core/libmesh_core_nrf51422_xxAC.a(flash_manager_defrag.c.obj)
 .bss           0x00000000        0x0 mesh/core/libmesh_core_nrf51422_xxAC.a(flash_manager_defrag.c.obj)
 .text.flash_manager_defragging
                0x00000000       0x44 mesh/core/libmesh_core_nrf51422_xxAC.a(flash_manager_defrag.c.obj)
 .text          0x00000000        0x0 mesh/core/libmesh_core_nrf51422_xxAC.a(packet_mgr.c.obj)
 .data          0x00000000        0x0 mesh/core/libmesh_core_nrf51422_xxAC.a(packet_mgr.c.obj)
 .bss           0x00000000        0x0 mesh/core/libmesh_core_nrf51422_xxAC.a(packet_mgr.c.obj)
 .text.packet_mgr_alloc
                0x00000000      0x18c mesh/core/libmesh_core_nrf51422_xxAC.a(packet_mgr.c.obj)
 .text.packet_mgr_free
                0x00000000       0x6c mesh/core/libmesh_core_nrf51422_xxAC.a(packet_mgr.c.obj)
 .text.packet_mgr_get_free_space
                0x00000000       0x1c mesh/core/libmesh_core_nrf51422_xxAC.a(packet_mgr.c.obj)
 .text.packet_mgr_refcount_get
                0x00000000        0x6 mesh/core/libmesh_core_nrf51422_xxAC.a(packet_mgr.c.obj)
 .text.packet_mgr_size_get
                0x00000000        0x6 mesh/core/libmesh_core_nrf51422_xxAC.a(packet_mgr.c.obj)
 .text          0x00000000        0x0 mesh/core/libmesh_core_nrf51422_xxAC.a(mesh_flash.c.obj)
 .data          0x00000000        0x0 mesh/core/libmesh_core_nrf51422_xxAC.a(mesh_flash.c.obj)
 .bss           0x00000000        0x0 mesh/core/libmesh_core_nrf51422_xxAC.a(mesh_flash.c.obj)
 .text.mesh_flash_op_available_slots
                0x00000000       0x2c mesh/core/libmesh_core_nrf51422_xxAC.a(mesh_flash.c.obj)
 .text.mesh_flash_in_progress
                0x00000000       0x38 mesh/core/libmesh_core_nrf51422_xxAC.a(mesh_flash.c.obj)
 .text.mesh_flash_set_suspended
                0x00000000       0x90 mesh/core/libmesh_core_nrf51422_xxAC.a(mesh_flash.c.obj)
 .bss.suspend_count.7515
                0x00000000        0x4 mesh/core/libmesh_core_nrf51422_xxAC.a(mesh_flash.c.obj)
 .text          0x00000000        0x0 mesh/core/libmesh_core_nrf51422_xxAC.a(queue.c.obj)
 .data          0x00000000        0x0 mesh/core/libmesh_core_nrf51422_xxAC.a(queue.c.obj)
 .bss           0x00000000        0x0 mesh/core/libmesh_core_nrf51422_xxAC.a(queue.c.obj)
 .text          0x00000000        0x0 mesh/core/libmesh_core_nrf51422_xxAC.a(aes_cmac.c.obj)
 .data          0x00000000        0x0 mesh/core/libmesh_core_nrf51422_xxAC.a(aes_cmac.c.obj)
 .bss           0x00000000        0x0 mesh/core/libmesh_core_nrf51422_xxAC.a(aes_cmac.c.obj)
 .text          0x00000000        0x0 mesh/core/libmesh_core_nrf51422_xxAC.a(msqueue.c.obj)
 .data          0x00000000        0x0 mesh/core/libmesh_core_nrf51422_xxAC.a(msqueue.c.obj)
 .bss           0x00000000        0x0 mesh/core/libmesh_core_nrf51422_xxAC.a(msqueue.c.obj)
 .text          0x00000000        0x0 mesh/core/libmesh_core_nrf51422_xxAC.a(replay_cache.c.obj)
 .data          0x00000000        0x0 mesh/core/libmesh_core_nrf51422_xxAC.a(replay_cache.c.obj)
 .bss           0x00000000        0x0 mesh/core/libmesh_core_nrf51422_xxAC.a(replay_cache.c.obj)
 .text.replay_cache_on_iv_update
                0x00000000       0x28 mesh/core/libmesh_core_nrf51422_xxAC.a(replay_cache.c.obj)
 .text          0x00000000        0x0 mesh/core/libmesh_core_nrf51422_xxAC.a(nrf_flash.c.obj)
 .data          0x00000000        0x0 mesh/core/libmesh_core_nrf51422_xxAC.a(nrf_flash.c.obj)
 .bss           0x00000000        0x0 mesh/core/libmesh_core_nrf51422_xxAC.a(nrf_flash.c.obj)
 .text          0x00000000        0x0 external/rtt/librtt_nrf51422_xxAC.a(SEGGER_RTT.c.obj)
 .data          0x00000000        0x0 external/rtt/librtt_nrf51422_xxAC.a(SEGGER_RTT.c.obj)
 .bss           0x00000000        0x0 external/rtt/librtt_nrf51422_xxAC.a(SEGGER_RTT.c.obj)
 .text._PostTerminalSwitch.constprop.0
                0x00000000       0x20 external/rtt/librtt_nrf51422_xxAC.a(SEGGER_RTT.c.obj)
 .text.SEGGER_RTT_ReadNoLock
                0x00000000       0xa4 external/rtt/librtt_nrf51422_xxAC.a(SEGGER_RTT.c.obj)
 .text.SEGGER_RTT_Read
                0x00000000       0x1a external/rtt/librtt_nrf51422_xxAC.a(SEGGER_RTT.c.obj)
 .text.SEGGER_RTT_WriteSkipNoLock
                0x00000000       0xb0 external/rtt/librtt_nrf51422_xxAC.a(SEGGER_RTT.c.obj)
 .text.SEGGER_RTT_WriteString
                0x00000000       0x18 external/rtt/librtt_nrf51422_xxAC.a(SEGGER_RTT.c.obj)
 .text.SEGGER_RTT_GetKey
                0x00000000       0x1e external/rtt/librtt_nrf51422_xxAC.a(SEGGER_RTT.c.obj)
 .text.SEGGER_RTT_WaitKey
                0x00000000        0xc external/rtt/librtt_nrf51422_xxAC.a(SEGGER_RTT.c.obj)
 .text.SEGGER_RTT_HasKey
                0x00000000       0x20 external/rtt/librtt_nrf51422_xxAC.a(SEGGER_RTT.c.obj)
 .text.SEGGER_RTT_HasData
                0x00000000       0x14 external/rtt/librtt_nrf51422_xxAC.a(SEGGER_RTT.c.obj)
 .text.SEGGER_RTT_AllocDownBuffer
                0x00000000       0x64 external/rtt/librtt_nrf51422_xxAC.a(SEGGER_RTT.c.obj)
 .text.SEGGER_RTT_AllocUpBuffer
                0x00000000       0x68 external/rtt/librtt_nrf51422_xxAC.a(SEGGER_RTT.c.obj)
 .text.SEGGER_RTT_ConfigUpBuffer
                0x00000000       0x60 external/rtt/librtt_nrf51422_xxAC.a(SEGGER_RTT.c.obj)
 .text.SEGGER_RTT_ConfigDownBuffer
                0x00000000       0x5c external/rtt/librtt_nrf51422_xxAC.a(SEGGER_RTT.c.obj)
 .text.SEGGER_RTT_SetNameUpBuffer
                0x00000000       0x3c external/rtt/librtt_nrf51422_xxAC.a(SEGGER_RTT.c.obj)
 .text.SEGGER_RTT_SetNameDownBuffer
                0x00000000       0x3c external/rtt/librtt_nrf51422_xxAC.a(SEGGER_RTT.c.obj)
 .text.SEGGER_RTT_Init
                0x00000000       0x14 external/rtt/librtt_nrf51422_xxAC.a(SEGGER_RTT.c.obj)
 .text.SEGGER_RTT_SetTerminal
                0x00000000       0x80 external/rtt/librtt_nrf51422_xxAC.a(SEGGER_RTT.c.obj)
 .text.SEGGER_RTT_TerminalOut
                0x00000000       0xa0 external/rtt/librtt_nrf51422_xxAC.a(SEGGER_RTT.c.obj)
 .bss._ActiveTerminal
                0x00000000        0x1 external/rtt/librtt_nrf51422_xxAC.a(SEGGER_RTT.c.obj)
 .rodata._aTerminalId
                0x00000000       0x10 external/rtt/librtt_nrf51422_xxAC.a(SEGGER_RTT.c.obj)
 .text          0x00000000        0x0 external/rtt/librtt_nrf51422_xxAC.a(SEGGER_RTT_printf.c.obj)
 .data          0x00000000        0x0 external/rtt/librtt_nrf51422_xxAC.a(SEGGER_RTT_printf.c.obj)
 .bss           0x00000000        0x0 external/rtt/librtt_nrf51422_xxAC.a(SEGGER_RTT_printf.c.obj)
 .text          0x00000000        0x0 external/micro-ecc/libuECC_nrf51422_xxAC.a(uECC.c.obj)
 .data          0x00000000        0x0 external/micro-ecc/libuECC_nrf51422_xxAC.a(uECC.c.obj)
 .bss           0x00000000        0x0 external/micro-ecc/libuECC_nrf51422_xxAC.a(uECC.c.obj)
 .text.uECC_vli_modMult
                0x00000000      0x128 external/micro-ecc/libuECC_nrf51422_xxAC.a(uECC.c.obj)
 .text.HMAC_init
                0x00000000       0x40 external/micro-ecc/libuECC_nrf51422_xxAC.a(uECC.c.obj)
 .text.HMAC_update
                0x00000000        0x8 external/micro-ecc/libuECC_nrf51422_xxAC.a(uECC.c.obj)
 .text.HMAC_finish
                0x00000000       0x5c external/micro-ecc/libuECC_nrf51422_xxAC.a(uECC.c.obj)
 .text.update_V
                0x00000000       0x22 external/micro-ecc/libuECC_nrf51422_xxAC.a(uECC.c.obj)
 .text.bits2int
                0x00000000       0x8c external/micro-ecc/libuECC_nrf51422_xxAC.a(uECC.c.obj)
 .text.uECC_sign_with_k
                0x00000000      0x184 external/micro-ecc/libuECC_nrf51422_xxAC.a(uECC.c.obj)
 .text.uECC_set_rng
                0x00000000        0xc external/micro-ecc/libuECC_nrf51422_xxAC.a(uECC.c.obj)
 .text.uECC_get_rng
                0x00000000        0xc external/micro-ecc/libuECC_nrf51422_xxAC.a(uECC.c.obj)
 .text.uECC_curve_private_key_size
                0x00000000       0x12 external/micro-ecc/libuECC_nrf51422_xxAC.a(uECC.c.obj)
 .text.uECC_curve_public_key_size
                0x00000000        0x8 external/micro-ecc/libuECC_nrf51422_xxAC.a(uECC.c.obj)
 .text.uECC_compute_public_key
                0x00000000       0x88 external/micro-ecc/libuECC_nrf51422_xxAC.a(uECC.c.obj)
 .text.uECC_sign
                0x00000000       0x5a external/micro-ecc/libuECC_nrf51422_xxAC.a(uECC.c.obj)
 .text.uECC_sign_deterministic
                0x00000000      0x19c external/micro-ecc/libuECC_nrf51422_xxAC.a(uECC.c.obj)
 .text.uECC_verify
                0x00000000      0x2e4 external/micro-ecc/libuECC_nrf51422_xxAC.a(uECC.c.obj)
 .data          0x00000000        0x0 c:/a/gcc_arm/6/bin/../lib/gcc/arm-none-eabi/6.3.1/thumb/v6-m\libgcc.a(_thumb1_case_uqi.o)
 .bss           0x00000000        0x0 c:/a/gcc_arm/6/bin/../lib/gcc/arm-none-eabi/6.3.1/thumb/v6-m\libgcc.a(_thumb1_case_uqi.o)
 .data          0x00000000        0x0 c:/a/gcc_arm/6/bin/../lib/gcc/arm-none-eabi/6.3.1/thumb/v6-m\libgcc.a(_thumb1_case_uhi.o)
 .bss           0x00000000        0x0 c:/a/gcc_arm/6/bin/../lib/gcc/arm-none-eabi/6.3.1/thumb/v6-m\libgcc.a(_thumb1_case_uhi.o)
 .data          0x00000000        0x0 c:/a/gcc_arm/6/bin/../lib/gcc/arm-none-eabi/6.3.1/thumb/v6-m\libgcc.a(_udivsi3.o)
 .bss           0x00000000        0x0 c:/a/gcc_arm/6/bin/../lib/gcc/arm-none-eabi/6.3.1/thumb/v6-m\libgcc.a(_udivsi3.o)
 .data          0x00000000        0x0 c:/a/gcc_arm/6/bin/../lib/gcc/arm-none-eabi/6.3.1/thumb/v6-m\libgcc.a(_divsi3.o)
 .bss           0x00000000        0x0 c:/a/gcc_arm/6/bin/../lib/gcc/arm-none-eabi/6.3.1/thumb/v6-m\libgcc.a(_divsi3.o)
 .data          0x00000000        0x0 c:/a/gcc_arm/6/bin/../lib/gcc/arm-none-eabi/6.3.1/thumb/v6-m\libgcc.a(_dvmd_tls.o)
 .bss           0x00000000        0x0 c:/a/gcc_arm/6/bin/../lib/gcc/arm-none-eabi/6.3.1/thumb/v6-m\libgcc.a(_dvmd_tls.o)
 .data          0x00000000        0x0 c:/a/gcc_arm/6/bin/../lib/gcc/arm-none-eabi/6.3.1/thumb/v6-m\libgcc.a(_muldi3.o)
 .bss           0x00000000        0x0 c:/a/gcc_arm/6/bin/../lib/gcc/arm-none-eabi/6.3.1/thumb/v6-m\libgcc.a(_muldi3.o)
 .text          0x00000000        0x0 c:/a/gcc_arm/6/bin/../lib/gcc/arm-none-eabi/6.3.1/../../../../arm-none-eabi/lib/thumb/v6-m\libg_nano.a(lib_a-exit.o)
 .data          0x00000000        0x0 c:/a/gcc_arm/6/bin/../lib/gcc/arm-none-eabi/6.3.1/../../../../arm-none-eabi/lib/thumb/v6-m\libg_nano.a(lib_a-exit.o)
 .bss           0x00000000        0x0 c:/a/gcc_arm/6/bin/../lib/gcc/arm-none-eabi/6.3.1/../../../../arm-none-eabi/lib/thumb/v6-m\libg_nano.a(lib_a-exit.o)
 .text          0x00000000        0x0 c:/a/gcc_arm/6/bin/../lib/gcc/arm-none-eabi/6.3.1/../../../../arm-none-eabi/lib/thumb/v6-m\libg_nano.a(lib_a-impure.o)
 .data          0x00000000        0x0 c:/a/gcc_arm/6/bin/../lib/gcc/arm-none-eabi/6.3.1/../../../../arm-none-eabi/lib/thumb/v6-m\libg_nano.a(lib_a-impure.o)
 .bss           0x00000000        0x0 c:/a/gcc_arm/6/bin/../lib/gcc/arm-none-eabi/6.3.1/../../../../arm-none-eabi/lib/thumb/v6-m\libg_nano.a(lib_a-impure.o)
 .text          0x00000000        0x0 c:/a/gcc_arm/6/bin/../lib/gcc/arm-none-eabi/6.3.1/../../../../arm-none-eabi/lib/thumb/v6-m\libg_nano.a(lib_a-init.o)
 .data          0x00000000        0x0 c:/a/gcc_arm/6/bin/../lib/gcc/arm-none-eabi/6.3.1/../../../../arm-none-eabi/lib/thumb/v6-m\libg_nano.a(lib_a-init.o)
 .bss           0x00000000        0x0 c:/a/gcc_arm/6/bin/../lib/gcc/arm-none-eabi/6.3.1/../../../../arm-none-eabi/lib/thumb/v6-m\libg_nano.a(lib_a-init.o)
 .text          0x00000000        0x0 c:/a/gcc_arm/6/bin/../lib/gcc/arm-none-eabi/6.3.1/../../../../arm-none-eabi/lib/thumb/v6-m\libg_nano.a(lib_a-malloc.o)
 .data          0x00000000        0x0 c:/a/gcc_arm/6/bin/../lib/gcc/arm-none-eabi/6.3.1/../../../../arm-none-eabi/lib/thumb/v6-m\libg_nano.a(lib_a-malloc.o)
 .bss           0x00000000        0x0 c:/a/gcc_arm/6/bin/../lib/gcc/arm-none-eabi/6.3.1/../../../../arm-none-eabi/lib/thumb/v6-m\libg_nano.a(lib_a-malloc.o)
 .text          0x00000000        0x0 c:/a/gcc_arm/6/bin/../lib/gcc/arm-none-eabi/6.3.1/../../../../arm-none-eabi/lib/thumb/v6-m\libg_nano.a(lib_a-memcmp.o)
 .data          0x00000000        0x0 c:/a/gcc_arm/6/bin/../lib/gcc/arm-none-eabi/6.3.1/../../../../arm-none-eabi/lib/thumb/v6-m\libg_nano.a(lib_a-memcmp.o)
 .bss           0x00000000        0x0 c:/a/gcc_arm/6/bin/../lib/gcc/arm-none-eabi/6.3.1/../../../../arm-none-eabi/lib/thumb/v6-m\libg_nano.a(lib_a-memcmp.o)
 .text          0x00000000        0x0 c:/a/gcc_arm/6/bin/../lib/gcc/arm-none-eabi/6.3.1/../../../../arm-none-eabi/lib/thumb/v6-m\libg_nano.a(lib_a-memcpy-stub.o)
 .data          0x00000000        0x0 c:/a/gcc_arm/6/bin/../lib/gcc/arm-none-eabi/6.3.1/../../../../arm-none-eabi/lib/thumb/v6-m\libg_nano.a(lib_a-memcpy-stub.o)
 .bss           0x00000000        0x0 c:/a/gcc_arm/6/bin/../lib/gcc/arm-none-eabi/6.3.1/../../../../arm-none-eabi/lib/thumb/v6-m\libg_nano.a(lib_a-memcpy-stub.o)
 .text          0x00000000        0x0 c:/a/gcc_arm/6/bin/../lib/gcc/arm-none-eabi/6.3.1/../../../../arm-none-eabi/lib/thumb/v6-m\libg_nano.a(lib_a-memset.o)
 .data          0x00000000        0x0 c:/a/gcc_arm/6/bin/../lib/gcc/arm-none-eabi/6.3.1/../../../../arm-none-eabi/lib/thumb/v6-m\libg_nano.a(lib_a-memset.o)
 .bss           0x00000000        0x0 c:/a/gcc_arm/6/bin/../lib/gcc/arm-none-eabi/6.3.1/../../../../arm-none-eabi/lib/thumb/v6-m\libg_nano.a(lib_a-memset.o)
 .text          0x00000000        0x0 c:/a/gcc_arm/6/bin/../lib/gcc/arm-none-eabi/6.3.1/../../../../arm-none-eabi/lib/thumb/v6-m\libg_nano.a(lib_a-nano-freer.o)
 .data          0x00000000        0x0 c:/a/gcc_arm/6/bin/../lib/gcc/arm-none-eabi/6.3.1/../../../../arm-none-eabi/lib/thumb/v6-m\libg_nano.a(lib_a-nano-freer.o)
 .bss           0x00000000        0x0 c:/a/gcc_arm/6/bin/../lib/gcc/arm-none-eabi/6.3.1/../../../../arm-none-eabi/lib/thumb/v6-m\libg_nano.a(lib_a-nano-freer.o)
 .text          0x00000000        0x0 c:/a/gcc_arm/6/bin/../lib/gcc/arm-none-eabi/6.3.1/../../../../arm-none-eabi/lib/thumb/v6-m\libg_nano.a(lib_a-nano-mallocr.o)
 .data          0x00000000        0x0 c:/a/gcc_arm/6/bin/../lib/gcc/arm-none-eabi/6.3.1/../../../../arm-none-eabi/lib/thumb/v6-m\libg_nano.a(lib_a-nano-mallocr.o)
 .bss           0x00000000        0x0 c:/a/gcc_arm/6/bin/../lib/gcc/arm-none-eabi/6.3.1/../../../../arm-none-eabi/lib/thumb/v6-m\libg_nano.a(lib_a-nano-mallocr.o)
 .text          0x00000000        0x0 c:/a/gcc_arm/6/bin/../lib/gcc/arm-none-eabi/6.3.1/../../../../arm-none-eabi/lib/thumb/v6-m\libg_nano.a(lib_a-sbrkr.o)
 .data          0x00000000        0x0 c:/a/gcc_arm/6/bin/../lib/gcc/arm-none-eabi/6.3.1/../../../../arm-none-eabi/lib/thumb/v6-m\libg_nano.a(lib_a-sbrkr.o)
 .bss           0x00000000        0x0 c:/a/gcc_arm/6/bin/../lib/gcc/arm-none-eabi/6.3.1/../../../../arm-none-eabi/lib/thumb/v6-m\libg_nano.a(lib_a-sbrkr.o)
 .text          0x00000000        0x0 c:/a/gcc_arm/6/bin/../lib/gcc/arm-none-eabi/6.3.1/../../../../arm-none-eabi/lib/thumb/v6-m\libg_nano.a(lib_a-strcpy.o)
 .data          0x00000000        0x0 c:/a/gcc_arm/6/bin/../lib/gcc/arm-none-eabi/6.3.1/../../../../arm-none-eabi/lib/thumb/v6-m\libg_nano.a(lib_a-strcpy.o)
 .bss           0x00000000        0x0 c:/a/gcc_arm/6/bin/../lib/gcc/arm-none-eabi/6.3.1/../../../../arm-none-eabi/lib/thumb/v6-m\libg_nano.a(lib_a-strcpy.o)
 .data          0x00000000        0x0 c:/a/gcc_arm/6/bin/../lib/gcc/arm-none-eabi/6.3.1/../../../../arm-none-eabi/lib/thumb/v6-m\libg_nano.a(lib_a-strlen.o)
 .bss           0x00000000        0x0 c:/a/gcc_arm/6/bin/../lib/gcc/arm-none-eabi/6.3.1/../../../../arm-none-eabi/lib/thumb/v6-m\libg_nano.a(lib_a-strlen.o)
 .text          0x00000000        0x0 c:/a/gcc_arm/6/bin/../lib/gcc/arm-none-eabi/6.3.1/../../../../arm-none-eabi/lib/thumb/v6-m\libg_nano.a(lib_a-strrchr.o)
 .data          0x00000000        0x0 c:/a/gcc_arm/6/bin/../lib/gcc/arm-none-eabi/6.3.1/../../../../arm-none-eabi/lib/thumb/v6-m\libg_nano.a(lib_a-strrchr.o)
 .bss           0x00000000        0x0 c:/a/gcc_arm/6/bin/../lib/gcc/arm-none-eabi/6.3.1/../../../../arm-none-eabi/lib/thumb/v6-m\libg_nano.a(lib_a-strrchr.o)
 .text          0x00000000        0x0 c:/a/gcc_arm/6/bin/../lib/gcc/arm-none-eabi/6.3.1/../../../../arm-none-eabi/lib/thumb/v6-m\libg_nano.a(lib_a-mlock.o)
 .data          0x00000000        0x0 c:/a/gcc_arm/6/bin/../lib/gcc/arm-none-eabi/6.3.1/../../../../arm-none-eabi/lib/thumb/v6-m\libg_nano.a(lib_a-mlock.o)
 .bss           0x00000000        0x0 c:/a/gcc_arm/6/bin/../lib/gcc/arm-none-eabi/6.3.1/../../../../arm-none-eabi/lib/thumb/v6-m\libg_nano.a(lib_a-mlock.o)
 .text          0x00000000        0x0 c:/a/gcc_arm/6/bin/../lib/gcc/arm-none-eabi/6.3.1/../../../../arm-none-eabi/lib/thumb/v6-m\libg_nano.a(lib_a-reent.o)
 .data          0x00000000        0x0 c:/a/gcc_arm/6/bin/../lib/gcc/arm-none-eabi/6.3.1/../../../../arm-none-eabi/lib/thumb/v6-m\libg_nano.a(lib_a-reent.o)
 .bss           0x00000000        0x0 c:/a/gcc_arm/6/bin/../lib/gcc/arm-none-eabi/6.3.1/../../../../arm-none-eabi/lib/thumb/v6-m\libg_nano.a(lib_a-reent.o)
 .text.cleanup_glue
                0x00000000       0x1a c:/a/gcc_arm/6/bin/../lib/gcc/arm-none-eabi/6.3.1/../../../../arm-none-eabi/lib/thumb/v6-m\libg_nano.a(lib_a-reent.o)
 .text._reclaim_reent
                0x00000000       0xcc c:/a/gcc_arm/6/bin/../lib/gcc/arm-none-eabi/6.3.1/../../../../arm-none-eabi/lib/thumb/v6-m\libg_nano.a(lib_a-reent.o)
 .text          0x00000000        0x0 c:/a/gcc_arm/6/bin/../lib/gcc/arm-none-eabi/6.3.1/../../../../arm-none-eabi/lib/thumb/v6-m\libg_nano.a(lib_a-strchr.o)
 .data          0x00000000        0x0 c:/a/gcc_arm/6/bin/../lib/gcc/arm-none-eabi/6.3.1/../../../../arm-none-eabi/lib/thumb/v6-m\libg_nano.a(lib_a-strchr.o)
 .bss           0x00000000        0x0 c:/a/gcc_arm/6/bin/../lib/gcc/arm-none-eabi/6.3.1/../../../../arm-none-eabi/lib/thumb/v6-m\libg_nano.a(lib_a-strchr.o)
 .text          0x00000000        0x0 c:/a/gcc_arm/6/bin/../lib/gcc/arm-none-eabi/6.3.1/thumb/v6-m/crtend.o
 .data          0x00000000        0x0 c:/a/gcc_arm/6/bin/../lib/gcc/arm-none-eabi/6.3.1/thumb/v6-m/crtend.o
 .bss           0x00000000        0x0 c:/a/gcc_arm/6/bin/../lib/gcc/arm-none-eabi/6.3.1/thumb/v6-m/crtend.o
 .text          0x00000000        0x0 c:/a/gcc_arm/6/bin/../lib/gcc/arm-none-eabi/6.3.1/thumb/v6-m/crtn.o
 .data          0x00000000        0x0 c:/a/gcc_arm/6/bin/../lib/gcc/arm-none-eabi/6.3.1/thumb/v6-m/crtn.o
 .bss           0x00000000        0x0 c:/a/gcc_arm/6/bin/../lib/gcc/arm-none-eabi/6.3.1/thumb/v6-m/crtn.o
 .text          0x00000000        0x0 c:/a/gcc_arm/6/bin/../lib/gcc/arm-none-eabi/6.3.1/../../../../arm-none-eabi/lib/thumb/v6-m\libnosys.a(sbrk.o)
 .data          0x00000000        0x0 c:/a/gcc_arm/6/bin/../lib/gcc/arm-none-eabi/6.3.1/../../../../arm-none-eabi/lib/thumb/v6-m\libnosys.a(sbrk.o)
 .bss           0x00000000        0x0 c:/a/gcc_arm/6/bin/../lib/gcc/arm-none-eabi/6.3.1/../../../../arm-none-eabi/lib/thumb/v6-m\libnosys.a(sbrk.o)
 .text          0x00000000        0x0 c:/a/gcc_arm/6/bin/../lib/gcc/arm-none-eabi/6.3.1/../../../../arm-none-eabi/lib/thumb/v6-m\libnosys.a(_exit.o)
 .data          0x00000000        0x0 c:/a/gcc_arm/6/bin/../lib/gcc/arm-none-eabi/6.3.1/../../../../arm-none-eabi/lib/thumb/v6-m\libnosys.a(_exit.o)
 .bss           0x00000000        0x0 c:/a/gcc_arm/6/bin/../lib/gcc/arm-none-eabi/6.3.1/../../../../arm-none-eabi/lib/thumb/v6-m\libnosys.a(_exit.o)

Memory Configuration

Name             Origin             Length             Attributes
FLASH            0x0001b000         0x0001f000         xr
RAM              0x200022d8         0x00005a28         xrw
*default*        0x00000000         0xffffffff

Linker script and memory map


.text           0x0001b000    0x158d8
 *(.isr_vector)
 .isr_vector    0x0001b000       0xc0 examples/pb_remote/server/CMakeFiles/pb_remote_server_nrf51422_xxAC_s130_2.0.1.dir/__/__/__/external/nRF5_SDK_14.2.0_17b948a/components/toolchain/gcc/gcc_startup_nrf51.S.obj
                0x0001b000                __isr_vector
 *(.text*)
 .text          0x0001b0c0       0x60 c:/a/gcc_arm/6/bin/../lib/gcc/arm-none-eabi/6.3.1/thumb/v6-m/crtbegin.o
 .text          0x0001b120       0x78 c:/a/gcc_arm/6/bin/../lib/gcc/arm-none-eabi/6.3.1/../../../../arm-none-eabi/lib/thumb/v6-m/crt0.o
                0x0001b120                _start
                0x0001b120                _mainCRTStartup
 .text.sd_app_evt_wait
                0x0001b198        0x4 examples/pb_remote/server/CMakeFiles/pb_remote_server_nrf51422_xxAC_s130_2.0.1.dir/src/main.c.obj
 .text.configuration_setup
                0x0001b19c       0x88 examples/pb_remote/server/CMakeFiles/pb_remote_server_nrf51422_xxAC_s130_2.0.1.dir/src/main.c.obj
 .text.provisioning_complete
                0x0001b224      0x16c examples/pb_remote/server/CMakeFiles/pb_remote_server_nrf51422_xxAC_s130_2.0.1.dir/src/main.c.obj
 .text.startup.main
                0x0001b390       0xbc examples/pb_remote/server/CMakeFiles/pb_remote_server_nrf51422_xxAC_s130_2.0.1.dir/src/main.c.obj
                0x0001b390                main
 .text.sd_evt_get
                0x0001b44c        0x4 examples/pb_remote/server/CMakeFiles/pb_remote_server_nrf51422_xxAC_s130_2.0.1.dir/__/__/nrf_mesh_sdk.c.obj
 .text.sd_ble_evt_get
                0x0001b450        0x4 examples/pb_remote/server/CMakeFiles/pb_remote_server_nrf51422_xxAC_s130_2.0.1.dir/__/__/nrf_mesh_sdk.c.obj
 .text.sleep_forever
                0x0001b454       0x24 examples/pb_remote/server/CMakeFiles/pb_remote_server_nrf51422_xxAC_s130_2.0.1.dir/__/__/nrf_mesh_sdk.c.obj
 .text.app_error_handler
                0x0001b478       0x7c examples/pb_remote/server/CMakeFiles/pb_remote_server_nrf51422_xxAC_s130_2.0.1.dir/__/__/nrf_mesh_sdk.c.obj
                0x0001b478                app_error_handler
 .text.HardFault_Handler
                0x0001b4f4       0x6c examples/pb_remote/server/CMakeFiles/pb_remote_server_nrf51422_xxAC_s130_2.0.1.dir/__/__/nrf_mesh_sdk.c.obj
                0x0001b4f4                HardFault_Handler
 .text.SWI2_IRQHandler
                0x0001b560       0x38 examples/pb_remote/server/CMakeFiles/pb_remote_server_nrf51422_xxAC_s130_2.0.1.dir/__/__/nrf_mesh_sdk.c.obj
                0x0001b560                SWI2_IRQHandler
 .text.hal_led_mask_set
                0x0001b598       0x18 examples/pb_remote/server/CMakeFiles/pb_remote_server_nrf51422_xxAC_s130_2.0.1.dir/__/__/common/src/simple_hal.c.obj
                0x0001b598                hal_led_mask_set
 .text.hal_led_blink_ms
                0x0001b5b0       0x58 examples/pb_remote/server/CMakeFiles/pb_remote_server_nrf51422_xxAC_s130_2.0.1.dir/__/__/common/src/simple_hal.c.obj
                0x0001b5b0                hal_led_blink_ms
 .text.hal_leds_init
                0x0001b608       0x40 examples/pb_remote/server/CMakeFiles/pb_remote_server_nrf51422_xxAC_s130_2.0.1.dir/__/__/common/src/simple_hal.c.obj
                0x0001b608                hal_leds_init
 .text.GPIOTE_IRQHandler
                0x0001b648       0x6c examples/pb_remote/server/CMakeFiles/pb_remote_server_nrf51422_xxAC_s130_2.0.1.dir/__/__/common/src/simple_hal.c.obj
                0x0001b648                GPIOTE_IRQHandler
 .text._weak_handler
                0x0001b6b4        0x4 examples/pb_remote/server/CMakeFiles/pb_remote_server_nrf51422_xxAC_s130_2.0.1.dir/__/__/nrf_mesh_weak.c.obj
                0x0001b6b4                nrf_mesh_dfu_init
                0x0001b6b4                nrf_mesh_dfu_jump_to_bootloader
                0x0001b6b4                nrf_mesh_dfu_rx
                0x0001b6b4                prov_provisioner_provision
                0x0001b6b4                nrf_mesh_dfu_bank_info_get
                0x0001b6b4                prov_provisioner_oob_pubkey
                0x0001b6b4                nrf_mesh_dfu_request
                0x0001b6b4                nrf_mesh_dfu_bank_flash
                0x0001b6b4                _weak_handler
                0x0001b6b4                nrf_mesh_dfu_relay
                0x0001b6b4                nrf_mesh_dfu_abort
                0x0001b6b4                mesh_flash_op_execute
                0x0001b6b4                nrf_mesh_dfu_state_get
                0x0001b6b4                prov_provisioner_shared_secret
                0x0001b6b4                prov_provisioner_auth_data
                0x0001b6b4                prov_provisioner_oob_use
 .text.complete_provisioning
                0x0001b6b8       0x5c examples/pb_remote/server/CMakeFiles/pb_remote_server_nrf51422_xxAC_s130_2.0.1.dir/__/__/__/mesh/prov/src/prov_provisionee.c.obj
 .text.prov_provisionee_cb_link_established
                0x0001b714       0x20 examples/pb_remote/server/CMakeFiles/pb_remote_server_nrf51422_xxAC_s130_2.0.1.dir/__/__/__/mesh/prov/src/prov_provisionee.c.obj
 .text.prov_provisionee_cb_link_closed
                0x0001b734       0x34 examples/pb_remote/server/CMakeFiles/pb_remote_server_nrf51422_xxAC_s130_2.0.1.dir/__/__/__/mesh/prov/src/prov_provisionee.c.obj
 .text.request_authentication
                0x0001b768       0x7c examples/pb_remote/server/CMakeFiles/pb_remote_server_nrf51422_xxAC_s130_2.0.1.dir/__/__/__/mesh/prov/src/prov_provisionee.c.obj
 .text.send_failed
                0x0001b7e4       0x3a examples/pb_remote/server/CMakeFiles/pb_remote_server_nrf51422_xxAC_s130_2.0.1.dir/__/__/__/mesh/prov/src/prov_provisionee.c.obj
 .text.start_authentication
                0x0001b81e       0x56 examples/pb_remote/server/CMakeFiles/pb_remote_server_nrf51422_xxAC_s130_2.0.1.dir/__/__/__/mesh/prov/src/prov_provisionee.c.obj
 .text.prov_provisionee_cb_ack_received
                0x0001b874       0xb8 examples/pb_remote/server/CMakeFiles/pb_remote_server_nrf51422_xxAC_s130_2.0.1.dir/__/__/__/mesh/prov/src/prov_provisionee.c.obj
 .text.prov_provisionee_pkt_in
                0x0001b92c      0x294 examples/pb_remote/server/CMakeFiles/pb_remote_server_nrf51422_xxAC_s130_2.0.1.dir/__/__/__/mesh/prov/src/prov_provisionee.c.obj
 .text.prov_provisionee_init
                0x0001bbc0       0x30 examples/pb_remote/server/CMakeFiles/pb_remote_server_nrf51422_xxAC_s130_2.0.1.dir/__/__/__/mesh/prov/src/prov_provisionee.c.obj
                0x0001bbc0                prov_provisionee_init
 .text.prov_provisionee_auth_data
                0x0001bbf0       0x74 examples/pb_remote/server/CMakeFiles/pb_remote_server_nrf51422_xxAC_s130_2.0.1.dir/__/__/__/mesh/prov/src/prov_provisionee.c.obj
                0x0001bbf0                prov_provisionee_auth_data
 .text.bearer_compare_callback
                0x0001bc64        0xe examples/pb_remote/server/CMakeFiles/pb_remote_server_nrf51422_xxAC_s130_2.0.1.dir/__/__/__/mesh/prov/src/nrf_mesh_prov.c.obj
 .text.nrf_mesh_prov_init
                0x0001bc72       0x3e examples/pb_remote/server/CMakeFiles/pb_remote_server_nrf51422_xxAC_s130_2.0.1.dir/__/__/__/mesh/prov/src/nrf_mesh_prov.c.obj
                0x0001bc72                nrf_mesh_prov_init
 .text.nrf_mesh_prov_bearer_add
                0x0001bcb0       0x24 examples/pb_remote/server/CMakeFiles/pb_remote_server_nrf51422_xxAC_s130_2.0.1.dir/__/__/__/mesh/prov/src/nrf_mesh_prov.c.obj
                0x0001bcb0                nrf_mesh_prov_bearer_add
 .text.nrf_mesh_prov_generate_keys
                0x0001bcd4        0x8 examples/pb_remote/server/CMakeFiles/pb_remote_server_nrf51422_xxAC_s130_2.0.1.dir/__/__/__/mesh/prov/src/nrf_mesh_prov.c.obj
                0x0001bcd4                nrf_mesh_prov_generate_keys
 .text.nrf_mesh_prov_listen
                0x0001bcdc       0x36 examples/pb_remote/server/CMakeFiles/pb_remote_server_nrf51422_xxAC_s130_2.0.1.dir/__/__/__/mesh/prov/src/nrf_mesh_prov.c.obj
                0x0001bcdc                nrf_mesh_prov_listen
 .text.nrf_mesh_prov_auth_data_provide
                0x0001bd12       0x18 examples/pb_remote/server/CMakeFiles/pb_remote_server_nrf51422_xxAC_s130_2.0.1.dir/__/__/__/mesh/prov/src/nrf_mesh_prov.c.obj
                0x0001bd12                nrf_mesh_prov_auth_data_provide
 .text.nrf_mesh_prov_scan_start
                0x0001bd2a       0x12 examples/pb_remote/server/CMakeFiles/pb_remote_server_nrf51422_xxAC_s130_2.0.1.dir/__/__/__/mesh/prov/src/nrf_mesh_prov.c.obj
                0x0001bd2a                nrf_mesh_prov_scan_start
 .text.nrf_mesh_prov_scan_stop
                0x0001bd3c        0x8 examples/pb_remote/server/CMakeFiles/pb_remote_server_nrf51422_xxAC_s130_2.0.1.dir/__/__/__/mesh/prov/src/nrf_mesh_prov.c.obj
                0x0001bd3c                nrf_mesh_prov_scan_stop
 .text.send_data
                0x0001bd44       0x44 examples/pb_remote/server/CMakeFiles/pb_remote_server_nrf51422_xxAC_s130_2.0.1.dir/__/__/__/mesh/prov/src/provisioning.c.obj
 .text.prov_packet_length_valid
                0x0001bd88       0x20 examples/pb_remote/server/CMakeFiles/pb_remote_server_nrf51422_xxAC_s130_2.0.1.dir/__/__/__/mesh/prov/src/provisioning.c.obj
                0x0001bd88                prov_packet_length_valid
 .text.prov_tx_capabilities
                0x0001bda8       0x1c examples/pb_remote/server/CMakeFiles/pb_remote_server_nrf51422_xxAC_s130_2.0.1.dir/__/__/__/mesh/prov/src/provisioning.c.obj
                0x0001bda8                prov_tx_capabilities
 .text.prov_tx_public_key
                0x0001bdc4       0x24 examples/pb_remote/server/CMakeFiles/pb_remote_server_nrf51422_xxAC_s130_2.0.1.dir/__/__/__/mesh/prov/src/provisioning.c.obj
                0x0001bdc4                prov_tx_public_key
 .text.prov_tx_input_complete
                0x0001bde8       0x10 examples/pb_remote/server/CMakeFiles/pb_remote_server_nrf51422_xxAC_s130_2.0.1.dir/__/__/__/mesh/prov/src/provisioning.c.obj
                0x0001bde8                prov_tx_input_complete
 .text.prov_tx_confirmation
                0x0001bdf8       0x24 examples/pb_remote/server/CMakeFiles/pb_remote_server_nrf51422_xxAC_s130_2.0.1.dir/__/__/__/mesh/prov/src/provisioning.c.obj
                0x0001bdf8                prov_tx_confirmation
 .text.prov_tx_random
                0x0001be1c       0x24 examples/pb_remote/server/CMakeFiles/pb_remote_server_nrf51422_xxAC_s130_2.0.1.dir/__/__/__/mesh/prov/src/provisioning.c.obj
                0x0001be1c                prov_tx_random
 .text.prov_tx_complete
                0x0001be40       0x10 examples/pb_remote/server/CMakeFiles/pb_remote_server_nrf51422_xxAC_s130_2.0.1.dir/__/__/__/mesh/prov/src/provisioning.c.obj
                0x0001be40                prov_tx_complete
 .text.prov_tx_failed
                0x0001be50       0x14 examples/pb_remote/server/CMakeFiles/pb_remote_server_nrf51422_xxAC_s130_2.0.1.dir/__/__/__/mesh/prov/src/provisioning.c.obj
                0x0001be50                prov_tx_failed
 .text.prov_beacon_unprov_build
                0x0001be64       0x52 examples/pb_remote/server/CMakeFiles/pb_remote_server_nrf51422_xxAC_s130_2.0.1.dir/__/__/__/mesh/prov/src/prov_beacon.c.obj
                0x0001be64                prov_beacon_unprov_build
 *fill*         0x0001beb6        0x2 
 .text.prov_beacon_unprov_packet_in
                0x0001beb8       0xb0 examples/pb_remote/server/CMakeFiles/pb_remote_server_nrf51422_xxAC_s130_2.0.1.dir/__/__/__/mesh/prov/src/prov_beacon.c.obj
                0x0001beb8                prov_beacon_unprov_packet_in
 .text.prov_beacon_scan_start
                0x0001bf68       0x24 examples/pb_remote/server/CMakeFiles/pb_remote_server_nrf51422_xxAC_s130_2.0.1.dir/__/__/__/mesh/prov/src/prov_beacon.c.obj
                0x0001bf68                prov_beacon_scan_start
 .text.prov_beacon_scan_stop
                0x0001bf8c        0xc examples/pb_remote/server/CMakeFiles/pb_remote_server_nrf51422_xxAC_s130_2.0.1.dir/__/__/__/mesh/prov/src/prov_beacon.c.obj
                0x0001bf8c                prov_beacon_scan_stop
 .text.oob_gen_alphanumeric
                0x0001bf98       0x34 examples/pb_remote/server/CMakeFiles/pb_remote_server_nrf51422_xxAC_s130_2.0.1.dir/__/__/__/mesh/prov/src/prov_utils.c.obj
 .text.oob_gen_numeric
                0x0001bfcc       0x30 examples/pb_remote/server/CMakeFiles/pb_remote_server_nrf51422_xxAC_s130_2.0.1.dir/__/__/__/mesh/prov/src/prov_utils.c.obj
 .text.prov_utils_opt_set
                0x0001bffc       0x20 examples/pb_remote/server/CMakeFiles/pb_remote_server_nrf51422_xxAC_s130_2.0.1.dir/__/__/__/mesh/prov/src/prov_utils.c.obj
                0x0001bffc                prov_utils_opt_set
 .text.prov_utils_opt_get
                0x0001c01c       0x1c examples/pb_remote/server/CMakeFiles/pb_remote_server_nrf51422_xxAC_s130_2.0.1.dir/__/__/__/mesh/prov/src/prov_utils.c.obj
                0x0001c01c                prov_utils_opt_get
 .text.prov_utils_use_ecdh_offloading
                0x0001c038        0xc examples/pb_remote/server/CMakeFiles/pb_remote_server_nrf51422_xxAC_s130_2.0.1.dir/__/__/__/mesh/prov/src/prov_utils.c.obj
                0x0001c038                prov_utils_use_ecdh_offloading
 .text.prov_utils_authentication_values_derive
                0x0001c044       0xac examples/pb_remote/server/CMakeFiles/pb_remote_server_nrf51422_xxAC_s130_2.0.1.dir/__/__/__/mesh/prov/src/prov_utils.c.obj
                0x0001c044                prov_utils_authentication_values_derive
 .text.prov_utils_keys_generate
                0x0001c0f0       0x20 examples/pb_remote/server/CMakeFiles/pb_remote_server_nrf51422_xxAC_s130_2.0.1.dir/__/__/__/mesh/prov/src/prov_utils.c.obj
                0x0001c0f0                prov_utils_keys_generate
 .text.prov_utils_derive_keys
                0x0001c110       0xac examples/pb_remote/server/CMakeFiles/pb_remote_server_nrf51422_xxAC_s130_2.0.1.dir/__/__/__/mesh/prov/src/prov_utils.c.obj
                0x0001c110                prov_utils_derive_keys
 .text.prov_utils_calculate_shared_secret
                0x0001c1bc       0x38 examples/pb_remote/server/CMakeFiles/pb_remote_server_nrf51422_xxAC_s130_2.0.1.dir/__/__/__/mesh/prov/src/prov_utils.c.obj
                0x0001c1bc                prov_utils_calculate_shared_secret
 .text.prov_utils_generate_oob_data
                0x0001c1f4       0x8c examples/pb_remote/server/CMakeFiles/pb_remote_server_nrf51422_xxAC_s130_2.0.1.dir/__/__/__/mesh/prov/src/prov_utils.c.obj
                0x0001c1f4                prov_utils_generate_oob_data
 .text.prov_utils_confirmation_check
                0x0001c280       0x5c examples/pb_remote/server/CMakeFiles/pb_remote_server_nrf51422_xxAC_s130_2.0.1.dir/__/__/__/mesh/prov/src/prov_utils.c.obj
                0x0001c280                prov_utils_confirmation_check
 .text.link_timeout_cb
                0x0001c2dc       0x12 examples/pb_remote/server/CMakeFiles/pb_remote_server_nrf51422_xxAC_s130_2.0.1.dir/__/__/__/mesh/prov/src/prov_bearer_adv.c.obj
 *fill*         0x0001c2ee        0x2 
 .text.remove_active_bearer
                0x0001c2f0       0x68 examples/pb_remote/server/CMakeFiles/pb_remote_server_nrf51422_xxAC_s130_2.0.1.dir/__/__/__/mesh/prov/src/prov_bearer_adv.c.obj
 .text.close_link
                0x0001c358       0x74 examples/pb_remote/server/CMakeFiles/pb_remote_server_nrf51422_xxAC_s130_2.0.1.dir/__/__/__/mesh/prov/src/prov_bearer_adv.c.obj
 .text.prov_bearer_adv_listen_stop
                0x0001c3cc       0x40 examples/pb_remote/server/CMakeFiles/pb_remote_server_nrf51422_xxAC_s130_2.0.1.dir/__/__/__/mesh/prov/src/prov_bearer_adv.c.obj
 .text.send_packet
                0x0001c40c       0x70 examples/pb_remote/server/CMakeFiles/pb_remote_server_nrf51422_xxAC_s130_2.0.1.dir/__/__/__/mesh/prov/src/prov_bearer_adv.c.obj
 .text.prov_buffer_tx
                0x0001c47c      0x168 examples/pb_remote/server/CMakeFiles/pb_remote_server_nrf51422_xxAC_s130_2.0.1.dir/__/__/__/mesh/prov/src/prov_bearer_adv.c.obj
 .text.send_link_close
                0x0001c5e4       0x28 examples/pb_remote/server/CMakeFiles/pb_remote_server_nrf51422_xxAC_s130_2.0.1.dir/__/__/__/mesh/prov/src/prov_bearer_adv.c.obj
 .text.prov_bearer_adv_link_close
                0x0001c60c       0x80 examples/pb_remote/server/CMakeFiles/pb_remote_server_nrf51422_xxAC_s130_2.0.1.dir/__/__/__/mesh/prov/src/prov_bearer_adv.c.obj
 .text.send_transaction_ack
                0x0001c68c       0x24 examples/pb_remote/server/CMakeFiles/pb_remote_server_nrf51422_xxAC_s130_2.0.1.dir/__/__/__/mesh/prov/src/prov_bearer_adv.c.obj
 .text.send_link_ack
                0x0001c6b0       0x26 examples/pb_remote/server/CMakeFiles/pb_remote_server_nrf51422_xxAC_s130_2.0.1.dir/__/__/__/mesh/prov/src/prov_bearer_adv.c.obj
 .text.reset_timeout_timer
                0x0001c6d6       0x1a examples/pb_remote/server/CMakeFiles/pb_remote_server_nrf51422_xxAC_s130_2.0.1.dir/__/__/__/mesh/prov/src/prov_bearer_adv.c.obj
 .text.tx_complete_cb
                0x0001c6f0       0x24 examples/pb_remote/server/CMakeFiles/pb_remote_server_nrf51422_xxAC_s130_2.0.1.dir/__/__/__/mesh/prov/src/prov_bearer_adv.c.obj
 .text.tx_retry_cb
                0x0001c714       0xd4 examples/pb_remote/server/CMakeFiles/pb_remote_server_nrf51422_xxAC_s130_2.0.1.dir/__/__/__/mesh/prov/src/prov_bearer_adv.c.obj
 .text.add_active_bearer
                0x0001c7e8       0x88 examples/pb_remote/server/CMakeFiles/pb_remote_server_nrf51422_xxAC_s130_2.0.1.dir/__/__/__/mesh/prov/src/prov_bearer_adv.c.obj
 .text.prov_bearer_adv_link_open
                0x0001c870      0x100 examples/pb_remote/server/CMakeFiles/pb_remote_server_nrf51422_xxAC_s130_2.0.1.dir/__/__/__/mesh/prov/src/prov_bearer_adv.c.obj
 .text.async_process
                0x0001c970       0x5c examples/pb_remote/server/CMakeFiles/pb_remote_server_nrf51422_xxAC_s130_2.0.1.dir/__/__/__/mesh/prov/src/prov_bearer_adv.c.obj
 .text.prov_bearer_adv_listen
                0x0001c9cc      0x100 examples/pb_remote/server/CMakeFiles/pb_remote_server_nrf51422_xxAC_s130_2.0.1.dir/__/__/__/mesh/prov/src/prov_bearer_adv.c.obj
 .text.calculate_3GPP_CRC
                0x0001cacc       0x24 examples/pb_remote/server/CMakeFiles/pb_remote_server_nrf51422_xxAC_s130_2.0.1.dir/__/__/__/mesh/prov/src/prov_bearer_adv.c.obj
                0x0001cacc                calculate_3GPP_CRC
 .text.prov_bearer_adv_tx
                0x0001caf0       0xc4 examples/pb_remote/server/CMakeFiles/pb_remote_server_nrf51422_xxAC_s130_2.0.1.dir/__/__/__/mesh/prov/src/prov_bearer_adv.c.obj
 .text.prov_buffer_rx
                0x0001cbb4       0x80 examples/pb_remote/server/CMakeFiles/pb_remote_server_nrf51422_xxAC_s130_2.0.1.dir/__/__/__/mesh/prov/src/prov_bearer_adv.c.obj
 .text.nrf_mesh_prov_bearer_adv_interface_get
                0x0001cc34       0x4c examples/pb_remote/server/CMakeFiles/pb_remote_server_nrf51422_xxAC_s130_2.0.1.dir/__/__/__/mesh/prov/src/prov_bearer_adv.c.obj
                0x0001cc34                nrf_mesh_prov_bearer_adv_interface_get
 .text.prov_bearer_adv_packet_in
                0x0001cc80      0x8b4 examples/pb_remote/server/CMakeFiles/pb_remote_server_nrf51422_xxAC_s130_2.0.1.dir/__/__/__/mesh/prov/src/prov_bearer_adv.c.obj
                0x0001cc80                prov_bearer_adv_packet_in
 .text.pb_remote_server_event_transfer_status_cb
                0x0001d534       0xfc examples/pb_remote/server/CMakeFiles/pb_remote_server_nrf51422_xxAC_s130_2.0.1.dir/__/__/__/models/pb_remote/src/pb_remote_server.c.obj
 .text.pb_remote_server_event_link_status_cb
                0x0001d630      0x1e4 examples/pb_remote/server/CMakeFiles/pb_remote_server_nrf51422_xxAC_s130_2.0.1.dir/__/__/__/models/pb_remote/src/pb_remote_server.c.obj
 .text.pb_remote_server_event_scan_report_status_cb
                0x0001d814       0x84 examples/pb_remote/server/CMakeFiles/pb_remote_server_nrf51422_xxAC_s130_2.0.1.dir/__/__/__/models/pb_remote/src/pb_remote_server.c.obj
 .text.do_state_change
                0x0001d898       0x80 examples/pb_remote/server/CMakeFiles/pb_remote_server_nrf51422_xxAC_s130_2.0.1.dir/__/__/__/models/pb_remote/src/pb_remote_server.c.obj
 .text.pb_remote_server_process
                0x0001d918      0x220 examples/pb_remote/server/CMakeFiles/pb_remote_server_nrf51422_xxAC_s130_2.0.1.dir/__/__/__/models/pb_remote/src/pb_remote_server.c.obj
 .text.server_reliable_status_cb
                0x0001db38      0x134 examples/pb_remote/server/CMakeFiles/pb_remote_server_nrf51422_xxAC_s130_2.0.1.dir/__/__/__/models/pb_remote/src/pb_remote_server.c.obj
 .text.pb_adv_link_closed_cb
                0x0001dc6c       0x48 examples/pb_remote/server/CMakeFiles/pb_remote_server_nrf51422_xxAC_s130_2.0.1.dir/__/__/__/models/pb_remote/src/pb_remote_server.c.obj
 .text.pb_adv_link_opened_cb
                0x0001dcb4       0x44 examples/pb_remote/server/CMakeFiles/pb_remote_server_nrf51422_xxAC_s130_2.0.1.dir/__/__/__/models/pb_remote/src/pb_remote_server.c.obj
 .text.pb_adv_ack_cb
                0x0001dcf8       0x44 examples/pb_remote/server/CMakeFiles/pb_remote_server_nrf51422_xxAC_s130_2.0.1.dir/__/__/__/models/pb_remote/src/pb_remote_server.c.obj
 .text.pb_adv_rx_cb
                0x0001dd3c       0x54 examples/pb_remote/server/CMakeFiles/pb_remote_server_nrf51422_xxAC_s130_2.0.1.dir/__/__/__/models/pb_remote/src/pb_remote_server.c.obj
 .text.prov_evt_handler
                0x0001dd90       0x50 examples/pb_remote/server/CMakeFiles/pb_remote_server_nrf51422_xxAC_s130_2.0.1.dir/__/__/__/models/pb_remote/src/pb_remote_server.c.obj
 .text.pb_remote_server_event_tx_failed_cb
                0x0001dde0       0x38 examples/pb_remote/server/CMakeFiles/pb_remote_server_nrf51422_xxAC_s130_2.0.1.dir/__/__/__/models/pb_remote/src/pb_remote_server.c.obj
 .text.send_reply.isra.8.part.9
                0x0001de18       0x18 examples/pb_remote/server/CMakeFiles/pb_remote_server_nrf51422_xxAC_s130_2.0.1.dir/__/__/__/models/pb_remote/src/pb_remote_server.c.obj
 .text.send_reliable_msg
                0x0001de30       0x28 examples/pb_remote/server/CMakeFiles/pb_remote_server_nrf51422_xxAC_s130_2.0.1.dir/__/__/__/models/pb_remote/src/pb_remote_server.c.obj
 .text.pb_remote_server_event_local_packet_cb
                0x0001de58      0x144 examples/pb_remote/server/CMakeFiles/pb_remote_server_nrf51422_xxAC_s130_2.0.1.dir/__/__/__/models/pb_remote/src/pb_remote_server.c.obj
 .text.pb_remote_server_event_local_ack_cb
                0x0001df9c       0x94 examples/pb_remote/server/CMakeFiles/pb_remote_server_nrf51422_xxAC_s130_2.0.1.dir/__/__/__/models/pb_remote/src/pb_remote_server.c.obj
 .text.pb_remote_server_event_link_established_cb
                0x0001e030       0x9c examples/pb_remote/server/CMakeFiles/pb_remote_server_nrf51422_xxAC_s130_2.0.1.dir/__/__/__/models/pb_remote/src/pb_remote_server.c.obj
 .text.pb_remote_server_event_link_closed_cb
                0x0001e0cc      0x104 examples/pb_remote/server/CMakeFiles/pb_remote_server_nrf51422_xxAC_s130_2.0.1.dir/__/__/__/models/pb_remote/src/pb_remote_server.c.obj
 .text.send_reply.isra.8
                0x0001e1d0       0x12 examples/pb_remote/server/CMakeFiles/pb_remote_server_nrf51422_xxAC_s130_2.0.1.dir/__/__/__/models/pb_remote/src/pb_remote_server.c.obj
 *fill*         0x0001e1e2        0x2 
 .text.pb_remote_server_event_link_close_cb
                0x0001e1e4       0xfc examples/pb_remote/server/CMakeFiles/pb_remote_server_nrf51422_xxAC_s130_2.0.1.dir/__/__/__/models/pb_remote/src/pb_remote_server.c.obj
 .text.pb_remote_server_event_scan_start_filter_cb
                0x0001e2e0      0x140 examples/pb_remote/server/CMakeFiles/pb_remote_server_nrf51422_xxAC_s130_2.0.1.dir/__/__/__/models/pb_remote/src/pb_remote_server.c.obj
 .text.pb_remote_server_event_packet_transfer_cb
                0x0001e420      0x10c examples/pb_remote/server/CMakeFiles/pb_remote_server_nrf51422_xxAC_s130_2.0.1.dir/__/__/__/models/pb_remote/src/pb_remote_server.c.obj
 .text.pb_remote_server_event_scan_start_cb
                0x0001e52c       0x90 examples/pb_remote/server/CMakeFiles/pb_remote_server_nrf51422_xxAC_s130_2.0.1.dir/__/__/__/models/pb_remote/src/pb_remote_server.c.obj
 .text.local_link_open.isra.14
                0x0001e5bc       0xfc examples/pb_remote/server/CMakeFiles/pb_remote_server_nrf51422_xxAC_s130_2.0.1.dir/__/__/__/models/pb_remote/src/pb_remote_server.c.obj
 .text.pb_remote_server_event_link_open_cb
                0x0001e6b8       0xbc examples/pb_remote/server/CMakeFiles/pb_remote_server_nrf51422_xxAC_s130_2.0.1.dir/__/__/__/models/pb_remote/src/pb_remote_server.c.obj
 .text.pb_remote_server_event_scan_cancel_cb
                0x0001e774       0x54 examples/pb_remote/server/CMakeFiles/pb_remote_server_nrf51422_xxAC_s130_2.0.1.dir/__/__/__/models/pb_remote/src/pb_remote_server.c.obj
 .text.remote_server_access_rx_cb
                0x0001e7c8      0x18c examples/pb_remote/server/CMakeFiles/pb_remote_server_nrf51422_xxAC_s130_2.0.1.dir/__/__/__/models/pb_remote/src/pb_remote_server.c.obj
 .text.pb_remote_server_event_unprov_uuid_cb
                0x0001e954      0x170 examples/pb_remote/server/CMakeFiles/pb_remote_server_nrf51422_xxAC_s130_2.0.1.dir/__/__/__/models/pb_remote/src/pb_remote_server.c.obj
 .text.pb_remote_server_init
                0x0001eac4       0xa0 examples/pb_remote/server/CMakeFiles/pb_remote_server_nrf51422_xxAC_s130_2.0.1.dir/__/__/__/models/pb_remote/src/pb_remote_server.c.obj
                0x0001eac4                pb_remote_server_init
 .text.pb_remote_server_enable
                0x0001eb64       0x28 examples/pb_remote/server/CMakeFiles/pb_remote_server_nrf51422_xxAC_s130_2.0.1.dir/__/__/__/models/pb_remote/src/pb_remote_server.c.obj
                0x0001eb64                pb_remote_server_enable
 .text.pb_remote_server_prov_bearer_set
                0x0001eb8c       0x1c examples/pb_remote/server/CMakeFiles/pb_remote_server_nrf51422_xxAC_s130_2.0.1.dir/__/__/__/models/pb_remote/src/pb_remote_server.c.obj
                0x0001eb8c                pb_remote_server_prov_bearer_set
 .text.add_to_publication_list
                0x0001eba8       0x60 examples/pb_remote/server/CMakeFiles/pb_remote_server_nrf51422_xxAC_s130_2.0.1.dir/__/__/__/mesh/access/src/access_publish.c.obj
 .text.step_resolution_to_us
                0x0001ec08       0x48 examples/pb_remote/server/CMakeFiles/pb_remote_server_nrf51422_xxAC_s130_2.0.1.dir/__/__/__/mesh/access/src/access_publish.c.obj
 .text.schedule_publication_timer
                0x0001ec50      0x16c examples/pb_remote/server/CMakeFiles/pb_remote_server_nrf51422_xxAC_s130_2.0.1.dir/__/__/__/mesh/access/src/access_publish.c.obj
 .text.publish_timer_tick
                0x0001edbc       0xac examples/pb_remote/server/CMakeFiles/pb_remote_server_nrf51422_xxAC_s130_2.0.1.dir/__/__/__/mesh/access/src/access_publish.c.obj
 .text.access_publish_init
                0x0001ee68       0x38 examples/pb_remote/server/CMakeFiles/pb_remote_server_nrf51422_xxAC_s130_2.0.1.dir/__/__/__/mesh/access/src/access_publish.c.obj
                0x0001ee68                access_publish_init
 .text.access_publish_period_set
                0x0001eea0       0x84 examples/pb_remote/server/CMakeFiles/pb_remote_server_nrf51422_xxAC_s130_2.0.1.dir/__/__/__/mesh/access/src/access_publish.c.obj
                0x0001eea0                access_publish_period_set
 .text.access_publish_period_get
                0x0001ef24       0x30 examples/pb_remote/server/CMakeFiles/pb_remote_server_nrf51422_xxAC_s130_2.0.1.dir/__/__/__/mesh/access/src/access_publish.c.obj
                0x0001ef24                access_publish_period_get
 .text.bitfield_get
                0x0001ef54       0x18 examples/pb_remote/server/CMakeFiles/pb_remote_server_nrf51422_xxAC_s130_2.0.1.dir/__/__/__/mesh/access/src/access.c.obj
 .text.is_valid_opcode
                0x0001ef6c       0x4c examples/pb_remote/server/CMakeFiles/pb_remote_server_nrf51422_xxAC_s130_2.0.1.dir/__/__/__/mesh/access/src/access.c.obj
 .text.model_handle_valid_and_allocated
                0x0001efb8       0x20 examples/pb_remote/server/CMakeFiles/pb_remote_server_nrf51422_xxAC_s130_2.0.1.dir/__/__/__/mesh/access/src/access.c.obj
 .text.flash_invalidate_complete
                0x0001efd8       0x18 examples/pb_remote/server/CMakeFiles/pb_remote_server_nrf51422_xxAC_s130_2.0.1.dir/__/__/__/mesh/access/src/access.c.obj
 .text.flash_manager_mem_available
                0x0001eff0        0x6 examples/pb_remote/server/CMakeFiles/pb_remote_server_nrf51422_xxAC_s130_2.0.1.dir/__/__/__/mesh/access/src/access.c.obj
 *fill*         0x0001eff6        0x2 
 .text.restore_acquired_subscription
                0x0001eff8       0x2c examples/pb_remote/server/CMakeFiles/pb_remote_server_nrf51422_xxAC_s130_2.0.1.dir/__/__/__/mesh/access/src/access.c.obj
 .text.restore_acquired_element
                0x0001f024       0x1c examples/pb_remote/server/CMakeFiles/pb_remote_server_nrf51422_xxAC_s130_2.0.1.dir/__/__/__/mesh/access/src/access.c.obj
 .text.restore_flash_data
                0x0001f040       0x5c examples/pb_remote/server/CMakeFiles/pb_remote_server_nrf51422_xxAC_s130_2.0.1.dir/__/__/__/mesh/access/src/access.c.obj
 .text.access_flash_config_clear
                0x0001f09c       0x28 examples/pb_remote/server/CMakeFiles/pb_remote_server_nrf51422_xxAC_s130_2.0.1.dir/__/__/__/mesh/access/src/access.c.obj
 .text.access_flash_config_store
                0x0001f0c4      0x12c examples/pb_remote/server/CMakeFiles/pb_remote_server_nrf51422_xxAC_s130_2.0.1.dir/__/__/__/mesh/access/src/access.c.obj
                0x0001f0c4                access_flash_config_store
 .text.access_state_clear
                0x0001f1f0       0x48 examples/pb_remote/server/CMakeFiles/pb_remote_server_nrf51422_xxAC_s130_2.0.1.dir/__/__/__/mesh/access/src/access.c.obj
 .text.add_flash_manager
                0x0001f238       0x5c examples/pb_remote/server/CMakeFiles/pb_remote_server_nrf51422_xxAC_s130_2.0.1.dir/__/__/__/mesh/access/src/access.c.obj
 .text.flash_remove_complete
                0x0001f294       0x5c examples/pb_remote/server/CMakeFiles/pb_remote_server_nrf51422_xxAC_s130_2.0.1.dir/__/__/__/mesh/access/src/access.c.obj
 .text.flash_write_complete
                0x0001f2f0       0x54 examples/pb_remote/server/CMakeFiles/pb_remote_server_nrf51422_xxAC_s130_2.0.1.dir/__/__/__/mesh/access/src/access.c.obj
 .text.unlikely.bitfield_next_get.part.0.constprop.3
                0x0001f344       0x34 examples/pb_remote/server/CMakeFiles/pb_remote_server_nrf51422_xxAC_s130_2.0.1.dir/__/__/__/mesh/access/src/access.c.obj
 .text.restore_acquired_model
                0x0001f378       0x88 examples/pb_remote/server/CMakeFiles/pb_remote_server_nrf51422_xxAC_s130_2.0.1.dir/__/__/__/mesh/access/src/access.c.obj
 .text.handle_incoming
                0x0001f400      0x168 examples/pb_remote/server/CMakeFiles/pb_remote_server_nrf51422_xxAC_s130_2.0.1.dir/__/__/__/mesh/access/src/access.c.obj
 .text.mesh_evt_cb
                0x0001f568      0x130 examples/pb_remote/server/CMakeFiles/pb_remote_server_nrf51422_xxAC_s130_2.0.1.dir/__/__/__/mesh/access/src/access.c.obj
 .text.packet_tx
                0x0001f698      0x2fc examples/pb_remote/server/CMakeFiles/pb_remote_server_nrf51422_xxAC_s130_2.0.1.dir/__/__/__/mesh/access/src/access.c.obj
 .text.access_flash_config_load
                0x0001f994      0x130 examples/pb_remote/server/CMakeFiles/pb_remote_server_nrf51422_xxAC_s130_2.0.1.dir/__/__/__/mesh/access/src/access.c.obj
                0x0001f994                access_flash_config_load
 .text.access_clear
                0x0001fac4       0x10 examples/pb_remote/server/CMakeFiles/pb_remote_server_nrf51422_xxAC_s130_2.0.1.dir/__/__/__/mesh/access/src/access.c.obj
                0x0001fac4                access_clear
 .text.access_init
                0x0001fad4       0x28 examples/pb_remote/server/CMakeFiles/pb_remote_server_nrf51422_xxAC_s130_2.0.1.dir/__/__/__/mesh/access/src/access.c.obj
                0x0001fad4                access_init
 .text.access_model_add
                0x0001fafc      0x1a0 examples/pb_remote/server/CMakeFiles/pb_remote_server_nrf51422_xxAC_s130_2.0.1.dir/__/__/__/mesh/access/src/access.c.obj
                0x0001fafc                access_model_add
 .text.access_model_publish
                0x0001fc9c       0x14 examples/pb_remote/server/CMakeFiles/pb_remote_server_nrf51422_xxAC_s130_2.0.1.dir/__/__/__/mesh/access/src/access.c.obj
                0x0001fc9c                access_model_publish
 .text.access_model_reply
                0x0001fcb0       0x1c examples/pb_remote/server/CMakeFiles/pb_remote_server_nrf51422_xxAC_s130_2.0.1.dir/__/__/__/mesh/access/src/access.c.obj
                0x0001fcb0                access_model_reply
 .text.access_model_publish_address_set
                0x0001fccc       0x3c examples/pb_remote/server/CMakeFiles/pb_remote_server_nrf51422_xxAC_s130_2.0.1.dir/__/__/__/mesh/access/src/access.c.obj
                0x0001fccc                access_model_publish_address_set
 .text.access_model_publish_address_get
                0x0001fd08       0x2c examples/pb_remote/server/CMakeFiles/pb_remote_server_nrf51422_xxAC_s130_2.0.1.dir/__/__/__/mesh/access/src/access.c.obj
                0x0001fd08                access_model_publish_address_get
 .text.access_model_publish_period_set
                0x0001fd34       0x80 examples/pb_remote/server/CMakeFiles/pb_remote_server_nrf51422_xxAC_s130_2.0.1.dir/__/__/__/mesh/access/src/access.c.obj
                0x0001fd34                access_model_publish_period_set
 .text.access_model_publish_period_get
                0x0001fdb4       0x44 examples/pb_remote/server/CMakeFiles/pb_remote_server_nrf51422_xxAC_s130_2.0.1.dir/__/__/__/mesh/access/src/access.c.obj
                0x0001fdb4                access_model_publish_period_get
 .text.access_model_subscription_add
                0x0001fdf8       0x5c examples/pb_remote/server/CMakeFiles/pb_remote_server_nrf51422_xxAC_s130_2.0.1.dir/__/__/__/mesh/access/src/access.c.obj
                0x0001fdf8                access_model_subscription_add
 .text.access_model_subscription_remove
                0x0001fe54       0x5c examples/pb_remote/server/CMakeFiles/pb_remote_server_nrf51422_xxAC_s130_2.0.1.dir/__/__/__/mesh/access/src/access.c.obj
                0x0001fe54                access_model_subscription_remove
 .text.access_model_subscriptions_get
                0x0001feb0       0x7c examples/pb_remote/server/CMakeFiles/pb_remote_server_nrf51422_xxAC_s130_2.0.1.dir/__/__/__/mesh/access/src/access.c.obj
                0x0001feb0                access_model_subscriptions_get
 .text.access_model_application_bind
                0x0001ff2c       0x50 examples/pb_remote/server/CMakeFiles/pb_remote_server_nrf51422_xxAC_s130_2.0.1.dir/__/__/__/mesh/access/src/access.c.obj
                0x0001ff2c                access_model_application_bind
 .text.access_model_application_unbind
                0x0001ff7c       0x50 examples/pb_remote/server/CMakeFiles/pb_remote_server_nrf51422_xxAC_s130_2.0.1.dir/__/__/__/mesh/access/src/access.c.obj
                0x0001ff7c                access_model_application_unbind
 .text.access_model_applications_get
                0x0001ffcc       0x54 examples/pb_remote/server/CMakeFiles/pb_remote_server_nrf51422_xxAC_s130_2.0.1.dir/__/__/__/mesh/access/src/access.c.obj
                0x0001ffcc                access_model_applications_get
 .text.access_model_publish_application_set
                0x00020020       0x3c examples/pb_remote/server/CMakeFiles/pb_remote_server_nrf51422_xxAC_s130_2.0.1.dir/__/__/__/mesh/access/src/access.c.obj
                0x00020020                access_model_publish_application_set
 .text.access_model_publish_application_get
                0x0002005c       0x2c examples/pb_remote/server/CMakeFiles/pb_remote_server_nrf51422_xxAC_s130_2.0.1.dir/__/__/__/mesh/access/src/access.c.obj
                0x0002005c                access_model_publish_application_get
 .text.access_default_ttl_set
                0x00020088       0x10 examples/pb_remote/server/CMakeFiles/pb_remote_server_nrf51422_xxAC_s130_2.0.1.dir/__/__/__/mesh/access/src/access.c.obj
                0x00020088                access_default_ttl_set
 .text.access_default_ttl_get
                0x00020098        0xc examples/pb_remote/server/CMakeFiles/pb_remote_server_nrf51422_xxAC_s130_2.0.1.dir/__/__/__/mesh/access/src/access.c.obj
                0x00020098                access_default_ttl_get
 .text.access_model_publish_ttl_set
                0x000200a4       0x44 examples/pb_remote/server/CMakeFiles/pb_remote_server_nrf51422_xxAC_s130_2.0.1.dir/__/__/__/mesh/access/src/access.c.obj
                0x000200a4                access_model_publish_ttl_set
 .text.access_model_publish_ttl_get
                0x000200e8       0x2c examples/pb_remote/server/CMakeFiles/pb_remote_server_nrf51422_xxAC_s130_2.0.1.dir/__/__/__/mesh/access/src/access.c.obj
                0x000200e8                access_model_publish_ttl_get
 .text.access_element_location_get
                0x00020114       0x1c examples/pb_remote/server/CMakeFiles/pb_remote_server_nrf51422_xxAC_s130_2.0.1.dir/__/__/__/mesh/access/src/access.c.obj
                0x00020114                access_element_location_get
 .text.access_element_sig_model_count_get
                0x00020130       0x1c examples/pb_remote/server/CMakeFiles/pb_remote_server_nrf51422_xxAC_s130_2.0.1.dir/__/__/__/mesh/access/src/access.c.obj
                0x00020130                access_element_sig_model_count_get
 .text.access_element_vendor_model_count_get
                0x0002014c       0x1c examples/pb_remote/server/CMakeFiles/pb_remote_server_nrf51422_xxAC_s130_2.0.1.dir/__/__/__/mesh/access/src/access.c.obj
                0x0002014c                access_element_vendor_model_count_get
 .text.access_model_id_get
                0x00020168       0x38 examples/pb_remote/server/CMakeFiles/pb_remote_server_nrf51422_xxAC_s130_2.0.1.dir/__/__/__/mesh/access/src/access.c.obj
                0x00020168                access_model_id_get
 .text.access_handle_get
                0x000201a0       0x48 examples/pb_remote/server/CMakeFiles/pb_remote_server_nrf51422_xxAC_s130_2.0.1.dir/__/__/__/mesh/access/src/access.c.obj
                0x000201a0                access_handle_get
 .text.access_element_models_get
                0x000201e8       0x60 examples/pb_remote/server/CMakeFiles/pb_remote_server_nrf51422_xxAC_s130_2.0.1.dir/__/__/__/mesh/access/src/access.c.obj
                0x000201e8                access_element_models_get
 .text.access_model_p_args_get
                0x00020248       0x2c examples/pb_remote/server/CMakeFiles/pb_remote_server_nrf51422_xxAC_s130_2.0.1.dir/__/__/__/mesh/access/src/access.c.obj
                0x00020248                access_model_p_args_get
 .text.remove_and_reschedule
                0x00020274       0xd8 examples/pb_remote/server/CMakeFiles/pb_remote_server_nrf51422_xxAC_s130_2.0.1.dir/__/__/__/mesh/access/src/access_reliable.c.obj
 .text.reliable_timer_cb
                0x0002034c      0x150 examples/pb_remote/server/CMakeFiles/pb_remote_server_nrf51422_xxAC_s130_2.0.1.dir/__/__/__/mesh/access/src/access_reliable.c.obj
 .text.access_reliable_message_rx_cb
                0x0002049c       0x74 examples/pb_remote/server/CMakeFiles/pb_remote_server_nrf51422_xxAC_s130_2.0.1.dir/__/__/__/mesh/access/src/access_reliable.c.obj
                0x0002049c                access_reliable_message_rx_cb
 .text.access_reliable_init
                0x00020510       0x1c examples/pb_remote/server/CMakeFiles/pb_remote_server_nrf51422_xxAC_s130_2.0.1.dir/__/__/__/mesh/access/src/access_reliable.c.obj
                0x00020510                access_reliable_init
 .text.access_reliable_cancel_all
                0x0002052c       0x34 examples/pb_remote/server/CMakeFiles/pb_remote_server_nrf51422_xxAC_s130_2.0.1.dir/__/__/__/mesh/access/src/access_reliable.c.obj
                0x0002052c                access_reliable_cancel_all
 .text.access_model_reliable_cancel
                0x00020560       0x48 examples/pb_remote/server/CMakeFiles/pb_remote_server_nrf51422_xxAC_s130_2.0.1.dir/__/__/__/mesh/access/src/access_reliable.c.obj
                0x00020560                access_model_reliable_cancel
 .text.access_model_reliable_publish
                0x000205a8      0x1cc examples/pb_remote/server/CMakeFiles/pb_remote_server_nrf51422_xxAC_s130_2.0.1.dir/__/__/__/mesh/access/src/access_reliable.c.obj
                0x000205a8                access_model_reliable_publish
 .text.bitfield_get
                0x00020774       0x18 examples/pb_remote/server/CMakeFiles/pb_remote_server_nrf51422_xxAC_s130_2.0.1.dir/__/__/__/mesh/access/src/device_state_manager.c.obj
 .text.bitfield_set
                0x0002078c       0x16 examples/pb_remote/server/CMakeFiles/pb_remote_server_nrf51422_xxAC_s130_2.0.1.dir/__/__/__/mesh/access/src/device_state_manager.c.obj
 .text.bitfield_clear
                0x000207a2       0x16 examples/pb_remote/server/CMakeFiles/pb_remote_server_nrf51422_xxAC_s130_2.0.1.dir/__/__/__/mesh/access/src/device_state_manager.c.obj
 .text.bitfield_is_all_clear
                0x000207b8       0x3a examples/pb_remote/server/CMakeFiles/pb_remote_server_nrf51422_xxAC_s130_2.0.1.dir/__/__/__/mesh/access/src/device_state_manager.c.obj
 *fill*         0x000207f2        0x2 
 .text.address_handle_virtual_valid
                0x000207f4       0x18 examples/pb_remote/server/CMakeFiles/pb_remote_server_nrf51422_xxAC_s130_2.0.1.dir/__/__/__/mesh/access/src/device_state_manager.c.obj
 .text.net_key_handle_get
                0x0002080c       0x38 examples/pb_remote/server/CMakeFiles/pb_remote_server_nrf51422_xxAC_s130_2.0.1.dir/__/__/__/mesh/access/src/device_state_manager.c.obj
 .text.dev_key_handle_get
                0x00020844       0x34 examples/pb_remote/server/CMakeFiles/pb_remote_server_nrf51422_xxAC_s130_2.0.1.dir/__/__/__/mesh/access/src/device_state_manager.c.obj
 .text.app_key_handle_get
                0x00020878       0x38 examples/pb_remote/server/CMakeFiles/pb_remote_server_nrf51422_xxAC_s130_2.0.1.dir/__/__/__/mesh/access/src/device_state_manager.c.obj
 .text.get_subnet_handle
                0x000208b0       0x4c examples/pb_remote/server/CMakeFiles/pb_remote_server_nrf51422_xxAC_s130_2.0.1.dir/__/__/__/mesh/access/src/device_state_manager.c.obj
 .text.addr_nonvirtual_to_flash_entry
                0x000208fc       0x10 examples/pb_remote/server/CMakeFiles/pb_remote_server_nrf51422_xxAC_s130_2.0.1.dir/__/__/__/mesh/access/src/device_state_manager.c.obj
 .text.flash_mem_listener_callback
                0x0002090c       0x20 examples/pb_remote/server/CMakeFiles/pb_remote_server_nrf51422_xxAC_s130_2.0.1.dir/__/__/__/mesh/access/src/device_state_manager.c.obj
 .text.devkey_set
                0x0002092c       0x4c examples/pb_remote/server/CMakeFiles/pb_remote_server_nrf51422_xxAC_s130_2.0.1.dir/__/__/__/mesh/access/src/device_state_manager.c.obj
 .text.devkey_to_dsm_entry
                0x00020978       0x14 examples/pb_remote/server/CMakeFiles/pb_remote_server_nrf51422_xxAC_s130_2.0.1.dir/__/__/__/mesh/access/src/device_state_manager.c.obj
 .text.devkey_to_flash_entry
                0x0002098c       0x28 examples/pb_remote/server/CMakeFiles/pb_remote_server_nrf51422_xxAC_s130_2.0.1.dir/__/__/__/mesh/access/src/device_state_manager.c.obj
 .text.addr_virtual_to_flash_entry
                0x000209b4       0x1c examples/pb_remote/server/CMakeFiles/pb_remote_server_nrf51422_xxAC_s130_2.0.1.dir/__/__/__/mesh/access/src/device_state_manager.c.obj
 .text.addr_unicast_to_dsm_entry
                0x000209d0       0x10 examples/pb_remote/server/CMakeFiles/pb_remote_server_nrf51422_xxAC_s130_2.0.1.dir/__/__/__/mesh/access/src/device_state_manager.c.obj
 .text.addr_unicast_to_flash_entry
                0x000209e0       0x14 examples/pb_remote/server/CMakeFiles/pb_remote_server_nrf51422_xxAC_s130_2.0.1.dir/__/__/__/mesh/access/src/device_state_manager.c.obj
 .text.appkey_set
                0x000209f4       0x84 examples/pb_remote/server/CMakeFiles/pb_remote_server_nrf51422_xxAC_s130_2.0.1.dir/__/__/__/mesh/access/src/device_state_manager.c.obj
 .text.appkey_to_flash_entry
                0x00020a78       0x54 examples/pb_remote/server/CMakeFiles/pb_remote_server_nrf51422_xxAC_s130_2.0.1.dir/__/__/__/mesh/access/src/device_state_manager.c.obj
 .text.subnet_to_flash_entry
                0x00020acc       0x58 examples/pb_remote/server/CMakeFiles/pb_remote_server_nrf51422_xxAC_s130_2.0.1.dir/__/__/__/mesh/access/src/device_state_manager.c.obj
 .text.subnet_set
                0x00020b24       0xc0 examples/pb_remote/server/CMakeFiles/pb_remote_server_nrf51422_xxAC_s130_2.0.1.dir/__/__/__/mesh/access/src/device_state_manager.c.obj
 .text.virtual_address_set
                0x00020be4       0x58 examples/pb_remote/server/CMakeFiles/pb_remote_server_nrf51422_xxAC_s130_2.0.1.dir/__/__/__/mesh/access/src/device_state_manager.c.obj
 .text.addr_virtual_to_dsm_entry
                0x00020c3c       0x10 examples/pb_remote/server/CMakeFiles/pb_remote_server_nrf51422_xxAC_s130_2.0.1.dir/__/__/__/mesh/access/src/device_state_manager.c.obj
 .text.reset_flash_area
                0x00020c4c       0x28 examples/pb_remote/server/CMakeFiles/pb_remote_server_nrf51422_xxAC_s130_2.0.1.dir/__/__/__/mesh/access/src/device_state_manager.c.obj
 .text.flash_save
                0x00020c74       0x8c examples/pb_remote/server/CMakeFiles/pb_remote_server_nrf51422_xxAC_s130_2.0.1.dir/__/__/__/mesh/access/src/device_state_manager.c.obj
 .text.flash_invalidate
                0x00020d00       0x74 examples/pb_remote/server/CMakeFiles/pb_remote_server_nrf51422_xxAC_s130_2.0.1.dir/__/__/__/mesh/access/src/device_state_manager.c.obj
 .text.flash_update_all
                0x00020d74       0x74 examples/pb_remote/server/CMakeFiles/pb_remote_server_nrf51422_xxAC_s130_2.0.1.dir/__/__/__/mesh/access/src/device_state_manager.c.obj
 .text.virtual_address_uuid_index_get
                0x00020de8       0x40 examples/pb_remote/server/CMakeFiles/pb_remote_server_nrf51422_xxAC_s130_2.0.1.dir/__/__/__/mesh/access/src/device_state_manager.c.obj
 .text.add_address_virtual
                0x00020e28       0x7c examples/pb_remote/server/CMakeFiles/pb_remote_server_nrf51422_xxAC_s130_2.0.1.dir/__/__/__/mesh/access/src/device_state_manager.c.obj
 .text.get_subnet_handle_by_beacon_info
                0x00020ea4       0x38 examples/pb_remote/server/CMakeFiles/pb_remote_server_nrf51422_xxAC_s130_2.0.1.dir/__/__/__/mesh/access/src/device_state_manager.c.obj
 .text.get_app_handle
                0x00020edc       0x44 examples/pb_remote/server/CMakeFiles/pb_remote_server_nrf51422_xxAC_s130_2.0.1.dir/__/__/__/mesh/access/src/device_state_manager.c.obj
 .text.appkey_to_dsm_entry
                0x00020f20       0x80 examples/pb_remote/server/CMakeFiles/pb_remote_server_nrf51422_xxAC_s130_2.0.1.dir/__/__/__/mesh/access/src/device_state_manager.c.obj
 .text.subnet_to_dsm_entry
                0x00020fa0       0x7c examples/pb_remote/server/CMakeFiles/pb_remote_server_nrf51422_xxAC_s130_2.0.1.dir/__/__/__/mesh/access/src/device_state_manager.c.obj
 .text.flash_operation_complete
                0x0002101c       0x58 examples/pb_remote/server/CMakeFiles/pb_remote_server_nrf51422_xxAC_s130_2.0.1.dir/__/__/__/mesh/access/src/device_state_manager.c.obj
 .text.flash_invalidate_complete
                0x00021074        0xc examples/pb_remote/server/CMakeFiles/pb_remote_server_nrf51422_xxAC_s130_2.0.1.dir/__/__/__/mesh/access/src/device_state_manager.c.obj
 .text.flash_write_complete
                0x00021080        0xc examples/pb_remote/server/CMakeFiles/pb_remote_server_nrf51422_xxAC_s130_2.0.1.dir/__/__/__/mesh/access/src/device_state_manager.c.obj
 .text.add_address.part.7
                0x0002108c      0x138 examples/pb_remote/server/CMakeFiles/pb_remote_server_nrf51422_xxAC_s130_2.0.1.dir/__/__/__/mesh/access/src/device_state_manager.c.obj
 .text.address_handle_valid
                0x000211c4       0x28 examples/pb_remote/server/CMakeFiles/pb_remote_server_nrf51422_xxAC_s130_2.0.1.dir/__/__/__/mesh/access/src/device_state_manager.c.obj
 .text.address_handle_nonvirtual_valid
                0x000211ec       0x18 examples/pb_remote/server/CMakeFiles/pb_remote_server_nrf51422_xxAC_s130_2.0.1.dir/__/__/__/mesh/access/src/device_state_manager.c.obj
 .text.address_delete_if_unused
                0x00021204       0x7c examples/pb_remote/server/CMakeFiles/pb_remote_server_nrf51422_xxAC_s130_2.0.1.dir/__/__/__/mesh/access/src/device_state_manager.c.obj
 .text.addr_nonvirtual_to_dsm_entry
                0x00021280       0x34 examples/pb_remote/server/CMakeFiles/pb_remote_server_nrf51422_xxAC_s130_2.0.1.dir/__/__/__/mesh/access/src/device_state_manager.c.obj
 .text.dsm_flash_config_load
                0x000212b4      0x124 examples/pb_remote/server/CMakeFiles/pb_remote_server_nrf51422_xxAC_s130_2.0.1.dir/__/__/__/mesh/access/src/device_state_manager.c.obj
                0x000212b4                dsm_flash_config_load
 .text.dsm_flash_area_get
                0x000213d8       0x10 examples/pb_remote/server/CMakeFiles/pb_remote_server_nrf51422_xxAC_s130_2.0.1.dir/__/__/__/mesh/access/src/device_state_manager.c.obj
                0x000213d8                dsm_flash_area_get
 .text.build_flash_area
                0x000213e8       0x8c examples/pb_remote/server/CMakeFiles/pb_remote_server_nrf51422_xxAC_s130_2.0.1.dir/__/__/__/mesh/access/src/device_state_manager.c.obj
 .text.flash_remove_complete
                0x00021474        0x8 examples/pb_remote/server/CMakeFiles/pb_remote_server_nrf51422_xxAC_s130_2.0.1.dir/__/__/__/mesh/access/src/device_state_manager.c.obj
 .text.dsm_clear
                0x0002147c       0x68 examples/pb_remote/server/CMakeFiles/pb_remote_server_nrf51422_xxAC_s130_2.0.1.dir/__/__/__/mesh/access/src/device_state_manager.c.obj
                0x0002147c                dsm_clear
 .text.dsm_init
                0x000214e4       0x28 examples/pb_remote/server/CMakeFiles/pb_remote_server_nrf51422_xxAC_s130_2.0.1.dir/__/__/__/mesh/access/src/device_state_manager.c.obj
                0x000214e4                dsm_init
 .text.dsm_local_unicast_addresses_set
                0x0002150c       0x80 examples/pb_remote/server/CMakeFiles/pb_remote_server_nrf51422_xxAC_s130_2.0.1.dir/__/__/__/mesh/access/src/device_state_manager.c.obj
                0x0002150c                dsm_local_unicast_addresses_set
 .text.dsm_local_unicast_addresses_get
                0x0002158c       0x2c examples/pb_remote/server/CMakeFiles/pb_remote_server_nrf51422_xxAC_s130_2.0.1.dir/__/__/__/mesh/access/src/device_state_manager.c.obj
                0x0002158c                dsm_local_unicast_addresses_get
 .text.dsm_address_publish_add
                0x000215b8       0x14 examples/pb_remote/server/CMakeFiles/pb_remote_server_nrf51422_xxAC_s130_2.0.1.dir/__/__/__/mesh/access/src/device_state_manager.c.obj
                0x000215b8                dsm_address_publish_add
 .text.dsm_address_publish_add_handle
                0x000215cc       0x38 examples/pb_remote/server/CMakeFiles/pb_remote_server_nrf51422_xxAC_s130_2.0.1.dir/__/__/__/mesh/access/src/device_state_manager.c.obj
                0x000215cc                dsm_address_publish_add_handle
 .text.dsm_address_publish_virtual_add
                0x00021604        0xa examples/pb_remote/server/CMakeFiles/pb_remote_server_nrf51422_xxAC_s130_2.0.1.dir/__/__/__/mesh/access/src/device_state_manager.c.obj
                0x00021604                dsm_address_publish_virtual_add
 .text.dsm_address_subscription_add
                0x0002160e       0x14 examples/pb_remote/server/CMakeFiles/pb_remote_server_nrf51422_xxAC_s130_2.0.1.dir/__/__/__/mesh/access/src/device_state_manager.c.obj
                0x0002160e                dsm_address_subscription_add
 .text.dsm_address_subscription_virtual_add
                0x00021622        0xa examples/pb_remote/server/CMakeFiles/pb_remote_server_nrf51422_xxAC_s130_2.0.1.dir/__/__/__/mesh/access/src/device_state_manager.c.obj
                0x00021622                dsm_address_subscription_virtual_add
 .text.dsm_address_subscription_add_handle
                0x0002162c       0x38 examples/pb_remote/server/CMakeFiles/pb_remote_server_nrf51422_xxAC_s130_2.0.1.dir/__/__/__/mesh/access/src/device_state_manager.c.obj
                0x0002162c                dsm_address_subscription_add_handle
 .text.dsm_address_subscription_get
                0x00021664       0x34 examples/pb_remote/server/CMakeFiles/pb_remote_server_nrf51422_xxAC_s130_2.0.1.dir/__/__/__/mesh/access/src/device_state_manager.c.obj
                0x00021664                dsm_address_subscription_get
 .text.dsm_address_get
                0x00021698       0x5c examples/pb_remote/server/CMakeFiles/pb_remote_server_nrf51422_xxAC_s130_2.0.1.dir/__/__/__/mesh/access/src/device_state_manager.c.obj
                0x00021698                dsm_address_get
 .text.dsm_address_subscription_remove
                0x000216f4       0x60 examples/pb_remote/server/CMakeFiles/pb_remote_server_nrf51422_xxAC_s130_2.0.1.dir/__/__/__/mesh/access/src/device_state_manager.c.obj
                0x000216f4                dsm_address_subscription_remove
 .text.dsm_address_handle_get
                0x00021754       0x98 examples/pb_remote/server/CMakeFiles/pb_remote_server_nrf51422_xxAC_s130_2.0.1.dir/__/__/__/mesh/access/src/device_state_manager.c.obj
                0x00021754                dsm_address_handle_get
 .text.dsm_net_key_index_to_subnet_handle
                0x000217ec       0x1c examples/pb_remote/server/CMakeFiles/pb_remote_server_nrf51422_xxAC_s130_2.0.1.dir/__/__/__/mesh/access/src/device_state_manager.c.obj
                0x000217ec                dsm_net_key_index_to_subnet_handle
 .text.dsm_appkey_index_to_appkey_handle
                0x00021808       0x1c examples/pb_remote/server/CMakeFiles/pb_remote_server_nrf51422_xxAC_s130_2.0.1.dir/__/__/__/mesh/access/src/device_state_manager.c.obj
                0x00021808                dsm_appkey_index_to_appkey_handle
 .text.dsm_appkey_handle_get
                0x00021824       0x14 examples/pb_remote/server/CMakeFiles/pb_remote_server_nrf51422_xxAC_s130_2.0.1.dir/__/__/__/mesh/access/src/device_state_manager.c.obj
                0x00021824                dsm_appkey_handle_get
 .text.dsm_appkey_handle_to_appkey_index
                0x00021838       0x34 examples/pb_remote/server/CMakeFiles/pb_remote_server_nrf51422_xxAC_s130_2.0.1.dir/__/__/__/mesh/access/src/device_state_manager.c.obj
                0x00021838                dsm_appkey_handle_to_appkey_index
 .text.dsm_subnet_add
                0x0002186c       0x60 examples/pb_remote/server/CMakeFiles/pb_remote_server_nrf51422_xxAC_s130_2.0.1.dir/__/__/__/mesh/access/src/device_state_manager.c.obj
                0x0002186c                dsm_subnet_add
 .text.dsm_subnet_kr_phase_get
                0x000218cc       0x30 examples/pb_remote/server/CMakeFiles/pb_remote_server_nrf51422_xxAC_s130_2.0.1.dir/__/__/__/mesh/access/src/device_state_manager.c.obj
                0x000218cc                dsm_subnet_kr_phase_get
 .text.dsm_subnet_update
                0x000218fc       0xa8 examples/pb_remote/server/CMakeFiles/pb_remote_server_nrf51422_xxAC_s130_2.0.1.dir/__/__/__/mesh/access/src/device_state_manager.c.obj
                0x000218fc                dsm_subnet_update
 .text.dsm_subnet_update_swap_keys
                0x000219a4       0x50 examples/pb_remote/server/CMakeFiles/pb_remote_server_nrf51422_xxAC_s130_2.0.1.dir/__/__/__/mesh/access/src/device_state_manager.c.obj
                0x000219a4                dsm_subnet_update_swap_keys
 .text.dsm_subnet_update_commit
                0x000219f4       0xbc examples/pb_remote/server/CMakeFiles/pb_remote_server_nrf51422_xxAC_s130_2.0.1.dir/__/__/__/mesh/access/src/device_state_manager.c.obj
                0x000219f4                dsm_subnet_update_commit
 .text.net_beacon_callback
                0x00021ab0       0x74 examples/pb_remote/server/CMakeFiles/pb_remote_server_nrf51422_xxAC_s130_2.0.1.dir/__/__/__/mesh/access/src/device_state_manager.c.obj
 .text.dsm_subnet_get_all
                0x00021b24       0x44 examples/pb_remote/server/CMakeFiles/pb_remote_server_nrf51422_xxAC_s130_2.0.1.dir/__/__/__/mesh/access/src/device_state_manager.c.obj
                0x00021b24                dsm_subnet_get_all
 .text.dsm_devkey_add
                0x00021b68       0x7c examples/pb_remote/server/CMakeFiles/pb_remote_server_nrf51422_xxAC_s130_2.0.1.dir/__/__/__/mesh/access/src/device_state_manager.c.obj
                0x00021b68                dsm_devkey_add
 .text.dsm_devkey_delete
                0x00021be4       0x3c examples/pb_remote/server/CMakeFiles/pb_remote_server_nrf51422_xxAC_s130_2.0.1.dir/__/__/__/mesh/access/src/device_state_manager.c.obj
                0x00021be4                dsm_devkey_delete
 .text.dsm_appkey_add
                0x00021c20       0x78 examples/pb_remote/server/CMakeFiles/pb_remote_server_nrf51422_xxAC_s130_2.0.1.dir/__/__/__/mesh/access/src/device_state_manager.c.obj
                0x00021c20                dsm_appkey_add
 .text.dsm_appkey_update
                0x00021c98       0x8c examples/pb_remote/server/CMakeFiles/pb_remote_server_nrf51422_xxAC_s130_2.0.1.dir/__/__/__/mesh/access/src/device_state_manager.c.obj
                0x00021c98                dsm_appkey_update
 .text.dsm_appkey_delete
                0x00021d24       0x34 examples/pb_remote/server/CMakeFiles/pb_remote_server_nrf51422_xxAC_s130_2.0.1.dir/__/__/__/mesh/access/src/device_state_manager.c.obj
                0x00021d24                dsm_appkey_delete
 .text.dsm_subnet_delete
                0x00021d58       0x98 examples/pb_remote/server/CMakeFiles/pb_remote_server_nrf51422_xxAC_s130_2.0.1.dir/__/__/__/mesh/access/src/device_state_manager.c.obj
                0x00021d58                dsm_subnet_delete
 .text.dsm_appkey_get_all
                0x00021df0       0x64 examples/pb_remote/server/CMakeFiles/pb_remote_server_nrf51422_xxAC_s130_2.0.1.dir/__/__/__/mesh/access/src/device_state_manager.c.obj
                0x00021df0                dsm_appkey_get_all
 .text.dsm_tx_secmat_get
                0x00021e54       0xfc examples/pb_remote/server/CMakeFiles/pb_remote_server_nrf51422_xxAC_s130_2.0.1.dir/__/__/__/mesh/access/src/device_state_manager.c.obj
                0x00021e54                dsm_tx_secmat_get
 .text.dsm_net_secmat_from_keyindex_get
                0x00021f50       0x38 examples/pb_remote/server/CMakeFiles/pb_remote_server_nrf51422_xxAC_s130_2.0.1.dir/__/__/__/mesh/access/src/device_state_manager.c.obj
                0x00021f50                dsm_net_secmat_from_keyindex_get
 .text.nrf_mesh_net_secmat_next_get
                0x00021f88       0xb4 examples/pb_remote/server/CMakeFiles/pb_remote_server_nrf51422_xxAC_s130_2.0.1.dir/__/__/__/mesh/access/src/device_state_manager.c.obj
                0x00021f88                nrf_mesh_net_secmat_next_get
 .text.nrf_mesh_app_secmat_next_get
                0x0002203c       0x88 examples/pb_remote/server/CMakeFiles/pb_remote_server_nrf51422_xxAC_s130_2.0.1.dir/__/__/__/mesh/access/src/device_state_manager.c.obj
                0x0002203c                nrf_mesh_app_secmat_next_get
 .text.nrf_mesh_devkey_secmat_get
                0x000220c4       0x34 examples/pb_remote/server/CMakeFiles/pb_remote_server_nrf51422_xxAC_s130_2.0.1.dir/__/__/__/mesh/access/src/device_state_manager.c.obj
                0x000220c4                nrf_mesh_devkey_secmat_get
 .text.nrf_mesh_beacon_info_next_get
                0x000220f8       0xcc examples/pb_remote/server/CMakeFiles/pb_remote_server_nrf51422_xxAC_s130_2.0.1.dir/__/__/__/mesh/access/src/device_state_manager.c.obj
                0x000220f8                nrf_mesh_beacon_info_next_get
 .text.nrf_mesh_rx_address_get
                0x000221c4       0xec examples/pb_remote/server/CMakeFiles/pb_remote_server_nrf51422_xxAC_s130_2.0.1.dir/__/__/__/mesh/access/src/device_state_manager.c.obj
                0x000221c4                nrf_mesh_rx_address_get
 .text.sd_softdevice_enable
                0x000222b0        0x4 examples/pb_remote/server/CMakeFiles/pb_remote_server_nrf51422_xxAC_s130_2.0.1.dir/__/__/__/mesh/access/src/nrf_mesh_node_config.c.obj
 .text.sd_softdevice_is_enabled
                0x000222b4        0x4 examples/pb_remote/server/CMakeFiles/pb_remote_server_nrf51422_xxAC_s130_2.0.1.dir/__/__/__/mesh/access/src/nrf_mesh_node_config.c.obj
 .text.default_softdevice_assertion_handler
                0x000222b8       0x84 examples/pb_remote/server/CMakeFiles/pb_remote_server_nrf51422_xxAC_s130_2.0.1.dir/__/__/__/mesh/access/src/nrf_mesh_node_config.c.obj
 .text.config_server_cb
                0x0002233c       0x28 examples/pb_remote/server/CMakeFiles/pb_remote_server_nrf51422_xxAC_s130_2.0.1.dir/__/__/__/mesh/access/src/nrf_mesh_node_config.c.obj
 .text.flash_stable_cb
                0x00022364       0x20 examples/pb_remote/server/CMakeFiles/pb_remote_server_nrf51422_xxAC_s130_2.0.1.dir/__/__/__/mesh/access/src/nrf_mesh_node_config.c.obj
 .text.start_provisionee
                0x00022384       0x1c examples/pb_remote/server/CMakeFiles/pb_remote_server_nrf51422_xxAC_s130_2.0.1.dir/__/__/__/mesh/access/src/nrf_mesh_node_config.c.obj
 .text.prov_evt_handler
                0x000223a0       0xf8 examples/pb_remote/server/CMakeFiles/pb_remote_server_nrf51422_xxAC_s130_2.0.1.dir/__/__/__/mesh/access/src/nrf_mesh_node_config.c.obj
 .text.default_mesh_assertion_handler
                0x00022498       0x78 examples/pb_remote/server/CMakeFiles/pb_remote_server_nrf51422_xxAC_s130_2.0.1.dir/__/__/__/mesh/access/src/nrf_mesh_node_config.c.obj
                0x00022498                default_mesh_assertion_handler
 .text.softdevice_setup
                0x00022510       0x4c examples/pb_remote/server/CMakeFiles/pb_remote_server_nrf51422_xxAC_s130_2.0.1.dir/__/__/__/mesh/access/src/nrf_mesh_node_config.c.obj
                0x00022510                softdevice_setup
 .text.nrf_mesh_node_config
                0x0002255c      0x140 examples/pb_remote/server/CMakeFiles/pb_remote_server_nrf51422_xxAC_s130_2.0.1.dir/__/__/__/mesh/access/src/nrf_mesh_node_config.c.obj
                0x0002255c                nrf_mesh_node_config
 .text.config_composition_data_get
                0x0002269c      0x1e4 examples/pb_remote/server/CMakeFiles/pb_remote_server_nrf51422_xxAC_s130_2.0.1.dir/__/__/__/models/config/src/composition_data.c.obj
                0x0002269c                config_composition_data_get
 .text.app_evt_send
                0x00022880       0x14 examples/pb_remote/server/CMakeFiles/pb_remote_server_nrf51422_xxAC_s130_2.0.1.dir/__/__/__/models/config/src/config_server.c.obj
 .text.extract_model_id
                0x00022894       0x22 examples/pb_remote/server/CMakeFiles/pb_remote_server_nrf51422_xxAC_s130_2.0.1.dir/__/__/__/models/config/src/config_server.c.obj
 *fill*         0x000228b6        0x2 
 .text.config_server_heartbeat_publication_count_decrement
                0x000228b8       0x1c examples/pb_remote/server/CMakeFiles/pb_remote_server_nrf51422_xxAC_s130_2.0.1.dir/__/__/__/models/config/src/config_server.c.obj
 .text.get_element_index
                0x000228d4       0x28 examples/pb_remote/server/CMakeFiles/pb_remote_server_nrf51422_xxAC_s130_2.0.1.dir/__/__/__/models/config/src/config_server.c.obj
 .text.config_server_heartbeat_publication_params_get
                0x000228fc       0x34 examples/pb_remote/server/CMakeFiles/pb_remote_server_nrf51422_xxAC_s130_2.0.1.dir/__/__/__/models/config/src/config_server.c.obj
 .text.send_reply
                0x00022930       0x40 examples/pb_remote/server/CMakeFiles/pb_remote_server_nrf51422_xxAC_s130_2.0.1.dir/__/__/__/models/config/src/config_server.c.obj
 .text.send_network_transmit_status
                0x00022970       0x90 examples/pb_remote/server/CMakeFiles/pb_remote_server_nrf51422_xxAC_s130_2.0.1.dir/__/__/__/models/config/src/config_server.c.obj
 .text.handle_config_network_transmit_set
                0x00022a00       0xa0 examples/pb_remote/server/CMakeFiles/pb_remote_server_nrf51422_xxAC_s130_2.0.1.dir/__/__/__/models/config/src/config_server.c.obj
 .text.handle_config_network_transmit_get
                0x00022aa0        0xe examples/pb_remote/server/CMakeFiles/pb_remote_server_nrf51422_xxAC_s130_2.0.1.dir/__/__/__/models/config/src/config_server.c.obj
 *fill*         0x00022aae        0x2 
 .text.send_relay_status
                0x00022ab0       0xb8 examples/pb_remote/server/CMakeFiles/pb_remote_server_nrf51422_xxAC_s130_2.0.1.dir/__/__/__/models/config/src/config_server.c.obj
 .text.handle_config_relay_set
                0x00022b68       0xd4 examples/pb_remote/server/CMakeFiles/pb_remote_server_nrf51422_xxAC_s130_2.0.1.dir/__/__/__/models/config/src/config_server.c.obj
 .text.handle_config_relay_get
                0x00022c3c        0xe examples/pb_remote/server/CMakeFiles/pb_remote_server_nrf51422_xxAC_s130_2.0.1.dir/__/__/__/models/config/src/config_server.c.obj
 *fill*         0x00022c4a        0x2 
 .text.send_subscription_status
                0x00022c4c       0x50 examples/pb_remote/server/CMakeFiles/pb_remote_server_nrf51422_xxAC_s130_2.0.1.dir/__/__/__/models/config/src/config_server.c.obj
 .text.send_generic_error_reply
                0x00022c9c       0x40 examples/pb_remote/server/CMakeFiles/pb_remote_server_nrf51422_xxAC_s130_2.0.1.dir/__/__/__/models/config/src/config_server.c.obj
 .text.handle_model_app_get
                0x00022cdc      0x1d4 examples/pb_remote/server/CMakeFiles/pb_remote_server_nrf51422_xxAC_s130_2.0.1.dir/__/__/__/models/config/src/config_server.c.obj
 .text.handle_node_reset
                0x00022eb0       0x40 examples/pb_remote/server/CMakeFiles/pb_remote_server_nrf51422_xxAC_s130_2.0.1.dir/__/__/__/models/config/src/config_server.c.obj
 .text.handle_netkey_get
                0x00022ef0       0x64 examples/pb_remote/server/CMakeFiles/pb_remote_server_nrf51422_xxAC_s130_2.0.1.dir/__/__/__/models/config/src/config_server.c.obj
 .text.handle_model_app_bind_unbind
                0x00022f54      0x128 examples/pb_remote/server/CMakeFiles/pb_remote_server_nrf51422_xxAC_s130_2.0.1.dir/__/__/__/models/config/src/config_server.c.obj
 .text.handle_config_model_subscription_virtual_address_add
                0x0002307c      0x140 examples/pb_remote/server/CMakeFiles/pb_remote_server_nrf51422_xxAC_s130_2.0.1.dir/__/__/__/models/config/src/config_server.c.obj
 .text.delete_all_subscriptions
                0x000231bc       0x88 examples/pb_remote/server/CMakeFiles/pb_remote_server_nrf51422_xxAC_s130_2.0.1.dir/__/__/__/models/config/src/config_server.c.obj
 .text.handle_config_model_subscription_virtual_address_overwrite
                0x00023244      0x170 examples/pb_remote/server/CMakeFiles/pb_remote_server_nrf51422_xxAC_s130_2.0.1.dir/__/__/__/models/config/src/config_server.c.obj
 .text.handle_config_model_subscription_delete_all
                0x000233b4       0xcc examples/pb_remote/server/CMakeFiles/pb_remote_server_nrf51422_xxAC_s130_2.0.1.dir/__/__/__/models/config/src/config_server.c.obj
 .text.handle_config_model_subscription_virtual_address_delete
                0x00023480      0x150 examples/pb_remote/server/CMakeFiles/pb_remote_server_nrf51422_xxAC_s130_2.0.1.dir/__/__/__/models/config/src/config_server.c.obj
 .text.handle_config_model_subscription_delete
                0x000235d0      0x14c examples/pb_remote/server/CMakeFiles/pb_remote_server_nrf51422_xxAC_s130_2.0.1.dir/__/__/__/models/config/src/config_server.c.obj
 .text.handle_config_model_subscription_overwrite
                0x0002371c      0x168 examples/pb_remote/server/CMakeFiles/pb_remote_server_nrf51422_xxAC_s130_2.0.1.dir/__/__/__/models/config/src/config_server.c.obj
 .text.handle_config_model_subscription_add
                0x00023884      0x14c examples/pb_remote/server/CMakeFiles/pb_remote_server_nrf51422_xxAC_s130_2.0.1.dir/__/__/__/models/config/src/config_server.c.obj
 .text.send_publication_status
                0x000239d0      0x188 examples/pb_remote/server/CMakeFiles/pb_remote_server_nrf51422_xxAC_s130_2.0.1.dir/__/__/__/models/config/src/config_server.c.obj
 .text.handle_config_model_publication_get
                0x00023b58       0x78 examples/pb_remote/server/CMakeFiles/pb_remote_server_nrf51422_xxAC_s130_2.0.1.dir/__/__/__/models/config/src/config_server.c.obj
 .text.handle_config_default_ttl_getset
                0x00023bd0       0x6c examples/pb_remote/server/CMakeFiles/pb_remote_server_nrf51422_xxAC_s130_2.0.1.dir/__/__/__/models/config/src/config_server.c.obj
 .text.send_net_beacon_state
                0x00023c3c       0x28 examples/pb_remote/server/CMakeFiles/pb_remote_server_nrf51422_xxAC_s130_2.0.1.dir/__/__/__/models/config/src/config_server.c.obj
 .text.handle_config_beacon_get
                0x00023c64        0xe examples/pb_remote/server/CMakeFiles/pb_remote_server_nrf51422_xxAC_s130_2.0.1.dir/__/__/__/models/config/src/config_server.c.obj
 .text.handle_composition_data_get
                0x00023c72       0x44 examples/pb_remote/server/CMakeFiles/pb_remote_server_nrf51422_xxAC_s130_2.0.1.dir/__/__/__/models/config/src/config_server.c.obj
 *fill*         0x00023cb6        0x2 
 .text.handle_appkey_get
                0x00023cb8       0xb8 examples/pb_remote/server/CMakeFiles/pb_remote_server_nrf51422_xxAC_s130_2.0.1.dir/__/__/__/models/config/src/config_server.c.obj
 .text.handle_config_model_publication_set
                0x00023d70      0x21c examples/pb_remote/server/CMakeFiles/pb_remote_server_nrf51422_xxAC_s130_2.0.1.dir/__/__/__/models/config/src/config_server.c.obj
 .text.handle_heartbeat_publication_set
                0x00023f8c      0x144 examples/pb_remote/server/CMakeFiles/pb_remote_server_nrf51422_xxAC_s130_2.0.1.dir/__/__/__/models/config/src/config_server.c.obj
 .text.heartbeat_pubsub_period_encode
                0x000240d0       0x38 examples/pb_remote/server/CMakeFiles/pb_remote_server_nrf51422_xxAC_s130_2.0.1.dir/__/__/__/models/config/src/config_server.c.obj
 .text.handle_node_identity_set
                0x00024108       0x3c examples/pb_remote/server/CMakeFiles/pb_remote_server_nrf51422_xxAC_s130_2.0.1.dir/__/__/__/models/config/src/config_server.c.obj
 .text.handle_node_identity_get
                0x00024144       0x34 examples/pb_remote/server/CMakeFiles/pb_remote_server_nrf51422_xxAC_s130_2.0.1.dir/__/__/__/models/config/src/config_server.c.obj
 .text.handle_config_gatt_proxy_set
                0x00024178       0x1c examples/pb_remote/server/CMakeFiles/pb_remote_server_nrf51422_xxAC_s130_2.0.1.dir/__/__/__/models/config/src/config_server.c.obj
 .text.handle_config_friend_set
                0x00024194       0x1c examples/pb_remote/server/CMakeFiles/pb_remote_server_nrf51422_xxAC_s130_2.0.1.dir/__/__/__/models/config/src/config_server.c.obj
 .text.handle_netkey_delete
                0x000241b0       0x8c examples/pb_remote/server/CMakeFiles/pb_remote_server_nrf51422_xxAC_s130_2.0.1.dir/__/__/__/models/config/src/config_server.c.obj
 .text.handle_config_key_refresh_phase_get
                0x0002423c       0x64 examples/pb_remote/server/CMakeFiles/pb_remote_server_nrf51422_xxAC_s130_2.0.1.dir/__/__/__/models/config/src/config_server.c.obj
 .text.handle_config_key_refresh_phase_set
                0x000242a0       0xd0 examples/pb_remote/server/CMakeFiles/pb_remote_server_nrf51422_xxAC_s130_2.0.1.dir/__/__/__/models/config/src/config_server.c.obj
 .text.handle_config_beacon_set
                0x00024370       0x42 examples/pb_remote/server/CMakeFiles/pb_remote_server_nrf51422_xxAC_s130_2.0.1.dir/__/__/__/models/config/src/config_server.c.obj
 *fill*         0x000243b2        0x2 
 .text.handle_appkey_add_update
                0x000243b4       0xd0 examples/pb_remote/server/CMakeFiles/pb_remote_server_nrf51422_xxAC_s130_2.0.1.dir/__/__/__/models/config/src/config_server.c.obj
 .text.handle_config_vendor_model_subscription_get
                0x00024484      0x10c examples/pb_remote/server/CMakeFiles/pb_remote_server_nrf51422_xxAC_s130_2.0.1.dir/__/__/__/models/config/src/config_server.c.obj
 .text.heartbeat_pubsub_count_encode
                0x00024590       0x38 examples/pb_remote/server/CMakeFiles/pb_remote_server_nrf51422_xxAC_s130_2.0.1.dir/__/__/__/models/config/src/config_server.c.obj
 .text.handle_heartbeat_publication_get
                0x000245c8       0x54 examples/pb_remote/server/CMakeFiles/pb_remote_server_nrf51422_xxAC_s130_2.0.1.dir/__/__/__/models/config/src/config_server.c.obj
 .text.handle_heartbeat_subscription_get
                0x0002461c       0x70 examples/pb_remote/server/CMakeFiles/pb_remote_server_nrf51422_xxAC_s130_2.0.1.dir/__/__/__/models/config/src/config_server.c.obj
 .text.handle_config_sig_model_subscription_get
                0x0002468c       0xf4 examples/pb_remote/server/CMakeFiles/pb_remote_server_nrf51422_xxAC_s130_2.0.1.dir/__/__/__/models/config/src/config_server.c.obj
 .text.handle_heartbeat_subscription_set
                0x00024780       0xd8 examples/pb_remote/server/CMakeFiles/pb_remote_server_nrf51422_xxAC_s130_2.0.1.dir/__/__/__/models/config/src/config_server.c.obj
 .text.handle_config_friend_get
                0x00024858       0x20 examples/pb_remote/server/CMakeFiles/pb_remote_server_nrf51422_xxAC_s130_2.0.1.dir/__/__/__/models/config/src/config_server.c.obj
 .text.handle_config_gatt_proxy_get
                0x00024878       0x20 examples/pb_remote/server/CMakeFiles/pb_remote_server_nrf51422_xxAC_s130_2.0.1.dir/__/__/__/models/config/src/config_server.c.obj
 .text.handle_appkey_delete
                0x00024898       0x8c examples/pb_remote/server/CMakeFiles/pb_remote_server_nrf51422_xxAC_s130_2.0.1.dir/__/__/__/models/config/src/config_server.c.obj
 .text.handle_netkey_add_update
                0x00024924       0xac examples/pb_remote/server/CMakeFiles/pb_remote_server_nrf51422_xxAC_s130_2.0.1.dir/__/__/__/models/config/src/config_server.c.obj
 .text.config_server_init
                0x000249d0       0x70 examples/pb_remote/server/CMakeFiles/pb_remote_server_nrf51422_xxAC_s130_2.0.1.dir/__/__/__/models/config/src/config_server.c.obj
                0x000249d0                config_server_init
 .text.config_server_bind
                0x00024a40       0x14 examples/pb_remote/server/CMakeFiles/pb_remote_server_nrf51422_xxAC_s130_2.0.1.dir/__/__/__/models/config/src/config_server.c.obj
                0x00024a40                config_server_bind
 .text.packed_index_list_size
                0x00024a54       0x10 examples/pb_remote/server/CMakeFiles/pb_remote_server_nrf51422_xxAC_s130_2.0.1.dir/__/__/__/models/config/src/packed_index_list.c.obj
                0x00024a54                packed_index_list_size
 .text.packed_index_list_create
                0x00024a64       0x30 examples/pb_remote/server/CMakeFiles/pb_remote_server_nrf51422_xxAC_s130_2.0.1.dir/__/__/__/models/config/src/packed_index_list.c.obj
                0x00024a64                packed_index_list_create
 .text.attention_timer_set
                0x00024a94       0xa4 examples/pb_remote/server/CMakeFiles/pb_remote_server_nrf51422_xxAC_s130_2.0.1.dir/__/__/__/models/health/src/health_server.c.obj
 .text.attention_timer_handler
                0x00024b38       0x6c examples/pb_remote/server/CMakeFiles/pb_remote_server_nrf51422_xxAC_s130_2.0.1.dir/__/__/__/models/health/src/health_server.c.obj
 .text.send_attention_status.isra.1
                0x00024ba4       0x3c examples/pb_remote/server/CMakeFiles/pb_remote_server_nrf51422_xxAC_s130_2.0.1.dir/__/__/__/models/health/src/health_server.c.obj
 .text.handle_attention_set
                0x00024be0       0x34 examples/pb_remote/server/CMakeFiles/pb_remote_server_nrf51422_xxAC_s130_2.0.1.dir/__/__/__/models/health/src/health_server.c.obj
 .text.send_period_status.isra.4
                0x00024c14       0x3c examples/pb_remote/server/CMakeFiles/pb_remote_server_nrf51422_xxAC_s130_2.0.1.dir/__/__/__/models/health/src/health_server.c.obj
 .text.handle_period_set
                0x00024c50       0x2c examples/pb_remote/server/CMakeFiles/pb_remote_server_nrf51422_xxAC_s130_2.0.1.dir/__/__/__/models/health/src/health_server.c.obj
 .text.bitfield_next_get.part.0.constprop.13
                0x00024c7c       0x48 examples/pb_remote/server/CMakeFiles/pb_remote_server_nrf51422_xxAC_s130_2.0.1.dir/__/__/__/models/health/src/health_server.c.obj
 .text.bitfield_popcount.constprop.11
                0x00024cc4       0x2a examples/pb_remote/server/CMakeFiles/pb_remote_server_nrf51422_xxAC_s130_2.0.1.dir/__/__/__/models/health/src/health_server.c.obj
 .text.send_fault_status
                0x00024cee       0xac examples/pb_remote/server/CMakeFiles/pb_remote_server_nrf51422_xxAC_s130_2.0.1.dir/__/__/__/models/health/src/health_server.c.obj
 .text.health_publish_timeout_handler
                0x00024d9a        0xe examples/pb_remote/server/CMakeFiles/pb_remote_server_nrf51422_xxAC_s130_2.0.1.dir/__/__/__/models/health/src/health_server.c.obj
 .text.handle_fault_test
                0x00024da8       0x78 examples/pb_remote/server/CMakeFiles/pb_remote_server_nrf51422_xxAC_s130_2.0.1.dir/__/__/__/models/health/src/health_server.c.obj
 .text.handle_fault_get
                0x00024e20       0x44 examples/pb_remote/server/CMakeFiles/pb_remote_server_nrf51422_xxAC_s130_2.0.1.dir/__/__/__/models/health/src/health_server.c.obj
 .text.handle_fault_clear
                0x00024e64       0x5c examples/pb_remote/server/CMakeFiles/pb_remote_server_nrf51422_xxAC_s130_2.0.1.dir/__/__/__/models/health/src/health_server.c.obj
 .text.handle_attention_get
                0x00024ec0       0x1a examples/pb_remote/server/CMakeFiles/pb_remote_server_nrf51422_xxAC_s130_2.0.1.dir/__/__/__/models/health/src/health_server.c.obj
 .text.handle_period_get
                0x00024eda       0x16 examples/pb_remote/server/CMakeFiles/pb_remote_server_nrf51422_xxAC_s130_2.0.1.dir/__/__/__/models/health/src/health_server.c.obj
 .text.health_server_init
                0x00024ef0       0x6c examples/pb_remote/server/CMakeFiles/pb_remote_server_nrf51422_xxAC_s130_2.0.1.dir/__/__/__/models/health/src/health_server.c.obj
                0x00024ef0                health_server_init
 .text.SystemInit
                0x00024f5c       0xe0 examples/pb_remote/server/CMakeFiles/pb_remote_server_nrf51422_xxAC_s130_2.0.1.dir/__/__/__/external/nRF5_SDK_14.2.0_17b948a/components/toolchain/system_nrf51.c.obj
                0x00024f5c                SystemInit
 .text          0x0002503c       0x4c examples/pb_remote/server/CMakeFiles/pb_remote_server_nrf51422_xxAC_s130_2.0.1.dir/__/__/__/external/nRF5_SDK_14.2.0_17b948a/components/toolchain/gcc/gcc_startup_nrf51.S.obj
                0x0002503c                Reset_Handler
                0x0002507c                NMI_Handler
                0x00025080                SVC_Handler
                0x00025082                PendSV_Handler
                0x00025084                SysTick_Handler
                0x00025086                RTC0_IRQHandler
                0x00025086                POWER_CLOCK_IRQHandler
                0x00025086                RADIO_IRQHandler
                0x00025086                LPCOMP_IRQHandler
                0x00025086                SWI4_IRQHandler
                0x00025086                TEMP_IRQHandler
                0x00025086                UART0_IRQHandler
                0x00025086                SPI0_TWI0_IRQHandler
                0x00025086                TIMER0_IRQHandler
                0x00025086                TIMER2_IRQHandler
                0x00025086                SWI0_IRQHandler
                0x00025086                TIMER1_IRQHandler
                0x00025086                ECB_IRQHandler
                0x00025086                Default_Handler
                0x00025086                ADC_IRQHandler
                0x00025086                SWI3_IRQHandler
                0x00025086                CCM_AAR_IRQHandler
                0x00025086                WDT_IRQHandler
                0x00025086                SWI5_IRQHandler
                0x00025086                RNG_IRQHandler
                0x00025086                SPI1_TWI1_IRQHandler
                0x00025086                RTC1_IRQHandler
                0x00025086                SWI1_IRQHandler
 .text.nrf_mesh_configure_device_uuid_reset
                0x00025088       0x28 mesh/core/libmesh_core_nrf51422_xxAC.a(nrf_mesh_configure.c.obj)
                0x00025088                nrf_mesh_configure_device_uuid_reset
 .text.nrf_mesh_configure_device_uuid_get
                0x000250b0        0x8 mesh/core/libmesh_core_nrf51422_xxAC.a(nrf_mesh_configure.c.obj)
                0x000250b0                nrf_mesh_configure_device_uuid_get
 .text.event_handle
                0x000250b8       0x34 mesh/core/libmesh_core_nrf51422_xxAC.a(event.c.obj)
                0x000250b8                event_handle
 .text.event_handler_add
                0x000250ec       0x28 mesh/core/libmesh_core_nrf51422_xxAC.a(event.c.obj)
                0x000250ec                event_handler_add
 .text.event_handler_remove
                0x00025114       0x28 mesh/core/libmesh_core_nrf51422_xxAC.a(event.c.obj)
                0x00025114                event_handler_remove
 .text.fifo_init
                0x0002513c       0x5c mesh/core/libmesh_core_nrf51422_xxAC.a(fifo.c.obj)
                0x0002513c                fifo_init
 .text.fifo_push
                0x00025198       0x5c mesh/core/libmesh_core_nrf51422_xxAC.a(fifo.c.obj)
                0x00025198                fifo_push
 .text.fifo_pop
                0x000251f4       0x5c mesh/core/libmesh_core_nrf51422_xxAC.a(fifo.c.obj)
                0x000251f4                fifo_pop
 .text.fifo_flush
                0x00025250        0x6 mesh/core/libmesh_core_nrf51422_xxAC.a(fifo.c.obj)
                0x00025250                fifo_flush
 .text.fifo_get_len
                0x00025256        0x8 mesh/core/libmesh_core_nrf51422_xxAC.a(fifo.c.obj)
                0x00025256                fifo_get_len
 *fill*         0x0002525e        0x2 
 .text.flash_mem_available
                0x00025260       0x20 mesh/core/libmesh_core_nrf51422_xxAC.a(net_state.c.obj)
 .text.flash_store_iv_index
                0x00025280       0x34 mesh/core/libmesh_core_nrf51422_xxAC.a(net_state.c.obj)
 .text.seqnum_block_allocate
                0x000252b4       0x50 mesh/core/libmesh_core_nrf51422_xxAC.a(net_state.c.obj)
 .text.net_state_reset
                0x00025304       0x3c mesh/core/libmesh_core_nrf51422_xxAC.a(net_state.c.obj)
                0x00025304                net_state_reset
 .text.flash_write_complete
                0x00025340       0x80 mesh/core/libmesh_core_nrf51422_xxAC.a(net_state.c.obj)
 .text.net_state_recover_from_flash
                0x000253c0       0x94 mesh/core/libmesh_core_nrf51422_xxAC.a(net_state.c.obj)
                0x000253c0                net_state_recover_from_flash
 .text.net_state_flash_area_get
                0x00025454       0x10 mesh/core/libmesh_core_nrf51422_xxAC.a(net_state.c.obj)
                0x00025454                net_state_flash_area_get
 .text.init_flash_storage
                0x00025464       0x40 mesh/core/libmesh_core_nrf51422_xxAC.a(net_state.c.obj)
 .text.net_state_init
                0x000254a4       0x48 mesh/core/libmesh_core_nrf51422_xxAC.a(net_state.c.obj)
                0x000254a4                net_state_init
 .text.net_state_iv_update_start
                0x000254ec       0x64 mesh/core/libmesh_core_nrf51422_xxAC.a(net_state.c.obj)
                0x000254ec                net_state_iv_update_start
 .text.iv_update_trigger_if_pending
                0x00025550       0x94 mesh/core/libmesh_core_nrf51422_xxAC.a(net_state.c.obj)
 .text.iv_update_timer_handler
                0x000255e4       0x80 mesh/core/libmesh_core_nrf51422_xxAC.a(net_state.c.obj)
 .text.net_state_seqnum_alloc
                0x00025664       0x68 mesh/core/libmesh_core_nrf51422_xxAC.a(net_state.c.obj)
                0x00025664                net_state_seqnum_alloc
 .text.net_state_iv_index_lock
                0x000256cc       0x4c mesh/core/libmesh_core_nrf51422_xxAC.a(net_state.c.obj)
                0x000256cc                net_state_iv_index_lock
 .text.net_state_key_refresh_phase_changed
                0x00025718       0x18 mesh/core/libmesh_core_nrf51422_xxAC.a(net_state.c.obj)
                0x00025718                net_state_key_refresh_phase_changed
 .text.net_state_beacon_received
                0x00025730       0x98 mesh/core/libmesh_core_nrf51422_xxAC.a(net_state.c.obj)
                0x00025730                net_state_beacon_received
 .text.net_state_beacon_iv_index_get
                0x000257c8        0xc mesh/core/libmesh_core_nrf51422_xxAC.a(net_state.c.obj)
                0x000257c8                net_state_beacon_iv_index_get
 .text.net_state_tx_iv_index_get
                0x000257d4       0x14 mesh/core/libmesh_core_nrf51422_xxAC.a(net_state.c.obj)
                0x000257d4                net_state_tx_iv_index_get
 .text.net_state_rx_iv_index_get
                0x000257e8       0x14 mesh/core/libmesh_core_nrf51422_xxAC.a(net_state.c.obj)
                0x000257e8                net_state_rx_iv_index_get
 .text.net_state_iv_update_get
                0x000257fc        0xc mesh/core/libmesh_core_nrf51422_xxAC.a(net_state.c.obj)
                0x000257fc                net_state_iv_update_get
 .text.nrf_mesh_address_type_get
                0x00025808       0x14 mesh/core/libmesh_core_nrf51422_xxAC.a(nrf_mesh_utils.c.obj)
                0x00025808                nrf_mesh_address_type_get
 .text.sd_softdevice_is_enabled
                0x0002581c        0x4 mesh/core/libmesh_core_nrf51422_xxAC.a(nrf_mesh.c.obj)
 .text.nrf_mesh_listen
                0x00025820      0x138 mesh/core/libmesh_core_nrf51422_xxAC.a(nrf_mesh.c.obj)
 .text.scanner_packet_process_cb
                0x00025958       0x84 mesh/core/libmesh_core_nrf51422_xxAC.a(nrf_mesh.c.obj)
 .text.nrf_mesh_init
                0x000259dc       0xd8 mesh/core/libmesh_core_nrf51422_xxAC.a(nrf_mesh.c.obj)
                0x000259dc                nrf_mesh_init
 .text.nrf_mesh_enable
                0x00025ab4       0x4c mesh/core/libmesh_core_nrf51422_xxAC.a(nrf_mesh.c.obj)
                0x00025ab4                nrf_mesh_enable
 .text.nrf_mesh_packet_send
                0x00025b00        0x8 mesh/core/libmesh_core_nrf51422_xxAC.a(nrf_mesh.c.obj)
                0x00025b00                nrf_mesh_packet_send
 .text.nrf_mesh_on_ble_evt
                0x00025b08        0x4 mesh/core/libmesh_core_nrf51422_xxAC.a(nrf_mesh.c.obj)
                0x00025b08                nrf_mesh_on_ble_evt
 .text.nrf_mesh_on_sd_evt
                0x00025b0c        0xa mesh/core/libmesh_core_nrf51422_xxAC.a(nrf_mesh.c.obj)
                0x00025b0c                nrf_mesh_on_sd_evt
 .text.nrf_mesh_evt_handler_add
                0x00025b16        0x8 mesh/core/libmesh_core_nrf51422_xxAC.a(nrf_mesh.c.obj)
                0x00025b16                nrf_mesh_evt_handler_add
 .text.sd_power_reset_reason_clr
                0x00025b1e        0x4 mesh/core/libmesh_core_nrf51422_xxAC.a(hal.c.obj)
 .text.sd_power_gpregret_set
                0x00025b22        0x4 mesh/core/libmesh_core_nrf51422_xxAC.a(hal.c.obj)
 *fill*         0x00025b26        0x2 
 .text.hal_device_reset
                0x00025b28       0x2c mesh/core/libmesh_core_nrf51422_xxAC.a(hal.c.obj)
                0x00025b28                hal_device_reset
 .text.hal_lfclk_ppm_get
                0x00025b54       0x14 mesh/core/libmesh_core_nrf51422_xxAC.a(hal.c.obj)
                0x00025b54                hal_lfclk_ppm_get
 .text.add_to_add_list
                0x00025b68       0x4c mesh/core/libmesh_core_nrf51422_xxAC.a(timer_scheduler.c.obj)
 .text.process_dirty_events
                0x00025bb4       0x64 mesh/core/libmesh_core_nrf51422_xxAC.a(timer_scheduler.c.obj)
 .text.timer_cb
                0x00025c18       0x10 mesh/core/libmesh_core_nrf51422_xxAC.a(timer_scheduler.c.obj)
 .text.add_evt.constprop.0
                0x00025c28       0x70 mesh/core/libmesh_core_nrf51422_xxAC.a(timer_scheduler.c.obj)
 .text.process_add_list
                0x00025c98       0x4c mesh/core/libmesh_core_nrf51422_xxAC.a(timer_scheduler.c.obj)
 .text.flag_event_cb
                0x00025ce4      0x108 mesh/core/libmesh_core_nrf51422_xxAC.a(timer_scheduler.c.obj)
 .text.timer_sch_init
                0x00025dec       0x24 mesh/core/libmesh_core_nrf51422_xxAC.a(timer_scheduler.c.obj)
                0x00025dec                timer_sch_init
 .text.timer_sch_schedule
                0x00025e10       0x54 mesh/core/libmesh_core_nrf51422_xxAC.a(timer_scheduler.c.obj)
                0x00025e10                timer_sch_schedule
 .text.timer_sch_abort
                0x00025e64       0x68 mesh/core/libmesh_core_nrf51422_xxAC.a(timer_scheduler.c.obj)
                0x00025e64                timer_sch_abort
 .text.timer_sch_reschedule
                0x00025ecc       0x78 mesh/core/libmesh_core_nrf51422_xxAC.a(timer_scheduler.c.obj)
                0x00025ecc                timer_sch_reschedule
 .text.timer_mut_unlock
                0x00025f44       0x10 mesh/core/libmesh_core_nrf51422_xxAC.a(timer.c.obj)
 .text.timer_order_cb
                0x00025f54       0x90 mesh/core/libmesh_core_nrf51422_xxAC.a(timer.c.obj)
                0x00025f54                timer_order_cb
 .text.timer_now
                0x00025fe4       0x54 mesh/core/libmesh_core_nrf51422_xxAC.a(timer.c.obj)
                0x00025fe4                timer_now
 .text.timer_event_handler
                0x00026038       0xa4 mesh/core/libmesh_core_nrf51422_xxAC.a(timer.c.obj)
                0x00026038                timer_event_handler
 .text.timer_on_ts_begin
                0x000260dc      0x104 mesh/core/libmesh_core_nrf51422_xxAC.a(timer.c.obj)
                0x000260dc                timer_on_ts_begin
 .text.timer_on_ts_end
                0x000261e0       0x64 mesh/core/libmesh_core_nrf51422_xxAC.a(timer.c.obj)
                0x000261e0                timer_on_ts_end
 .text.timer_cb
                0x00026244       0x10 mesh/core/libmesh_core_nrf51422_xxAC.a(ticker.c.obj)
 .text.ticker_init
                0x00026254       0x38 mesh/core/libmesh_core_nrf51422_xxAC.a(ticker.c.obj)
                0x00026254                ticker_init
 .text.sd_rand_application_bytes_available_get
                0x0002628c        0x4 mesh/core/libmesh_core_nrf51422_xxAC.a(rand.c.obj)
 .text.sd_rand_application_vector_get
                0x00026290        0x4 mesh/core/libmesh_core_nrf51422_xxAC.a(rand.c.obj)
 .text.rand_prng_get
                0x00026294       0x2e mesh/core/libmesh_core_nrf51422_xxAC.a(rand.c.obj)
                0x00026294                rand_prng_get
 *fill*         0x000262c2        0x2 
 .text.rand_hw_rng_get
                0x000262c4       0x4c mesh/core/libmesh_core_nrf51422_xxAC.a(rand.c.obj)
                0x000262c4                rand_hw_rng_get
 .text.rand_prng_seed
                0x00026310       0x30 mesh/core/libmesh_core_nrf51422_xxAC.a(rand.c.obj)
                0x00026310                rand_prng_seed
 .text.nrf_mesh_opt_set
                0x00026340       0x34 mesh/core/libmesh_core_nrf51422_xxAC.a(nrf_mesh_opt.c.obj)
                0x00026340                nrf_mesh_opt_set
 .text.nrf_mesh_opt_get
                0x00026374       0x34 mesh/core/libmesh_core_nrf51422_xxAC.a(nrf_mesh_opt.c.obj)
                0x00026374                nrf_mesh_opt_get
 .text.sd_radio_session_open
                0x000263a8        0x4 mesh/core/libmesh_core_nrf51422_xxAC.a(timeslot.c.obj)
 .text.sd_radio_session_close
                0x000263ac        0x4 mesh/core/libmesh_core_nrf51422_xxAC.a(timeslot.c.obj)
 .text.sd_radio_request
                0x000263b0        0x4 mesh/core/libmesh_core_nrf51422_xxAC.a(timeslot.c.obj)
 .text.end_timer_handler
                0x000263b4       0x2c mesh/core/libmesh_core_nrf51422_xxAC.a(timeslot.c.obj)
 .text.get_end_time.constprop.10
                0x000263e0       0x28 mesh/core/libmesh_core_nrf51422_xxAC.a(timeslot.c.obj)
 .text.handle_extend_end.constprop.3
                0x00026408       0xc4 mesh/core/libmesh_core_nrf51422_xxAC.a(timeslot.c.obj)
 .text.radio_signal_callback
                0x000264cc      0x160 mesh/core/libmesh_core_nrf51422_xxAC.a(timeslot.c.obj)
 .text.timeslot_sd_event_handler
                0x0002662c       0x48 mesh/core/libmesh_core_nrf51422_xxAC.a(timeslot.c.obj)
                0x0002662c                timeslot_sd_event_handler
 .text.timeslot_init
                0x00026674       0x4c mesh/core/libmesh_core_nrf51422_xxAC.a(timeslot.c.obj)
                0x00026674                timeslot_init
 .text.timeslot_start
                0x000266c0       0x1c mesh/core/libmesh_core_nrf51422_xxAC.a(timeslot.c.obj)
                0x000266c0                timeslot_start
 .text.timeslot_end_is_pending
                0x000266dc       0x2c mesh/core/libmesh_core_nrf51422_xxAC.a(timeslot.c.obj)
                0x000266dc                timeslot_end_is_pending
 .text.timeslot_start_time_get
                0x00026708        0xc mesh/core/libmesh_core_nrf51422_xxAC.a(timeslot.c.obj)
                0x00026708                timeslot_start_time_get
 .text.timeslot_remaining_time_get
                0x00026714       0x24 mesh/core/libmesh_core_nrf51422_xxAC.a(timeslot.c.obj)
                0x00026714                timeslot_remaining_time_get
 .text.timeslot_is_in_cb
                0x00026738        0xc mesh/core/libmesh_core_nrf51422_xxAC.a(timeslot.c.obj)
                0x00026738                timeslot_is_in_cb
 .text.timeslot_trigger
                0x00026744       0x28 mesh/core/libmesh_core_nrf51422_xxAC.a(timeslot.c.obj)
                0x00026744                timeslot_trigger
 .text.timeslot_stop
                0x0002676c       0x14 mesh/core/libmesh_core_nrf51422_xxAC.a(timeslot.c.obj)
                0x0002676c                timeslot_stop
 .text.timeslot_state_lock
                0x00026780       0x2c mesh/core/libmesh_core_nrf51422_xxAC.a(timeslot.c.obj)
                0x00026780                timeslot_state_lock
 .text.trigger_event_handler
                0x000267ac       0x1c mesh/core/libmesh_core_nrf51422_xxAC.a(bearer_event.c.obj)
 .text.evt_push
                0x000267c8       0x20 mesh/core/libmesh_core_nrf51422_xxAC.a(bearer_event.c.obj)
 .text.bearer_event_init
                0x000267e8       0x5c mesh/core/libmesh_core_nrf51422_xxAC.a(bearer_event.c.obj)
                0x000267e8                bearer_event_init
 .text.bearer_event_timer_post
                0x00026844       0x34 mesh/core/libmesh_core_nrf51422_xxAC.a(bearer_event.c.obj)
                0x00026844                bearer_event_timer_post
 .text.bearer_event_critical_section_begin
                0x00026878       0x54 mesh/core/libmesh_core_nrf51422_xxAC.a(bearer_event.c.obj)
                0x00026878                bearer_event_critical_section_begin
 .text.bearer_event_critical_section_end
                0x000268cc       0x54 mesh/core/libmesh_core_nrf51422_xxAC.a(bearer_event.c.obj)
                0x000268cc                bearer_event_critical_section_end
 .text.bearer_event_flag_add
                0x00026920       0x54 mesh/core/libmesh_core_nrf51422_xxAC.a(bearer_event.c.obj)
                0x00026920                bearer_event_flag_add
 .text.bearer_event_flag_set
                0x00026974       0x50 mesh/core/libmesh_core_nrf51422_xxAC.a(bearer_event.c.obj)
                0x00026974                bearer_event_flag_set
 .text.bearer_event_sequential_add
                0x000269c4       0x4c mesh/core/libmesh_core_nrf51422_xxAC.a(bearer_event.c.obj)
                0x000269c4                bearer_event_sequential_add
 .text.bearer_event_sequential_post
                0x00026a10       0x60 mesh/core/libmesh_core_nrf51422_xxAC.a(bearer_event.c.obj)
                0x00026a10                bearer_event_sequential_post
 .text.bearer_event_sequential_pending
                0x00026a70       0x20 mesh/core/libmesh_core_nrf51422_xxAC.a(bearer_event.c.obj)
                0x00026a70                bearer_event_sequential_pending
 .text.bearer_event_handler
                0x00026a90       0xf8 mesh/core/libmesh_core_nrf51422_xxAC.a(bearer_event.c.obj)
                0x00026a90                bearer_event_handler
 .text.QDEC_IRQHandler
                0x00026b88        0x8 mesh/core/libmesh_core_nrf51422_xxAC.a(bearer_event.c.obj)
                0x00026b88                QDEC_IRQHandler
 .text.enc_aes_encrypt
                0x00026b90        0x8 mesh/core/libmesh_core_nrf51422_xxAC.a(enc.c.obj)
                0x00026b90                enc_aes_encrypt
 .text.enc_aes_cmac
                0x00026b98        0x8 mesh/core/libmesh_core_nrf51422_xxAC.a(enc.c.obj)
                0x00026b98                enc_aes_cmac
 .text.enc_aes_ccm_encrypt
                0x00026ba0        0x8 mesh/core/libmesh_core_nrf51422_xxAC.a(enc.c.obj)
                0x00026ba0                enc_aes_ccm_encrypt
 .text.enc_aes_ccm_decrypt
                0x00026ba8        0x8 mesh/core/libmesh_core_nrf51422_xxAC.a(enc.c.obj)
                0x00026ba8                enc_aes_ccm_decrypt
 .text.enc_nonce_generate
                0x00026bb0       0xd8 mesh/core/libmesh_core_nrf51422_xxAC.a(enc.c.obj)
                0x00026bb0                enc_nonce_generate
 .text.enc_s1   0x00026c88       0x3c mesh/core/libmesh_core_nrf51422_xxAC.a(enc.c.obj)
                0x00026c88                enc_s1
 .text.enc_k1   0x00026cc4       0x58 mesh/core/libmesh_core_nrf51422_xxAC.a(enc.c.obj)
                0x00026cc4                enc_k1
 .text.enc_k2   0x00026d1c      0x110 mesh/core/libmesh_core_nrf51422_xxAC.a(enc.c.obj)
                0x00026d1c                enc_k2
 .text.enc_k3   0x00026e2c       0x70 mesh/core/libmesh_core_nrf51422_xxAC.a(enc.c.obj)
                0x00026e2c                enc_k3
 .text.enc_k4   0x00026e9c       0x74 mesh/core/libmesh_core_nrf51422_xxAC.a(enc.c.obj)
                0x00026e9c                enc_k4
 .text.header_transfuscate
                0x00026f10       0x58 mesh/core/libmesh_core_nrf51422_xxAC.a(network.c.obj)
 .text.allocate_packet
                0x00026f68      0x140 mesh/core/libmesh_core_nrf51422_xxAC.a(network.c.obj)
 .text.network_init
                0x000270a8       0x2c mesh/core/libmesh_core_nrf51422_xxAC.a(network.c.obj)
                0x000270a8                network_init
 .text.network_opt_set
                0x000270d4       0x68 mesh/core/libmesh_core_nrf51422_xxAC.a(network.c.obj)
                0x000270d4                network_opt_set
 .text.network_opt_get
                0x0002713c       0x4c mesh/core/libmesh_core_nrf51422_xxAC.a(network.c.obj)
                0x0002713c                network_opt_get
 .text.network_packet_alloc
                0x00027188       0x58 mesh/core/libmesh_core_nrf51422_xxAC.a(network.c.obj)
                0x00027188                network_packet_alloc
 .text.network_packet_send
                0x000271e0      0x154 mesh/core/libmesh_core_nrf51422_xxAC.a(network.c.obj)
                0x000271e0                network_packet_send
 .text.network_packet_in
                0x00027334      0x4e0 mesh/core/libmesh_core_nrf51422_xxAC.a(network.c.obj)
                0x00027334                network_packet_in
 .text.nrf_mesh_keygen_aid
                0x00027814       0x16 mesh/core/libmesh_core_nrf51422_xxAC.a(nrf_mesh_keygen.c.obj)
                0x00027814                nrf_mesh_keygen_aid
 .text.nrf_mesh_keygen_network_secmat
                0x0002782a       0x20 mesh/core/libmesh_core_nrf51422_xxAC.a(nrf_mesh_keygen.c.obj)
                0x0002782a                nrf_mesh_keygen_network_secmat
 *fill*         0x0002784a        0x2 
 .text.nrf_mesh_keygen_beacon_secmat
                0x0002784c       0x54 mesh/core/libmesh_core_nrf51422_xxAC.a(nrf_mesh_keygen.c.obj)
                0x0002784c                nrf_mesh_keygen_beacon_secmat
 .text.nrf_mesh_keygen_virtual_address
                0x000278a0       0x50 mesh/core/libmesh_core_nrf51422_xxAC.a(nrf_mesh_keygen.c.obj)
                0x000278a0                nrf_mesh_keygen_virtual_address
 .text.list_insert
                0x000278f0       0x30 mesh/core/libmesh_core_nrf51422_xxAC.a(list.c.obj)
 .text.list_add
                0x00027920       0x68 mesh/core/libmesh_core_nrf51422_xxAC.a(list.c.obj)
                0x00027920                list_add
 .text.list_remove
                0x00027988       0x50 mesh/core/libmesh_core_nrf51422_xxAC.a(list.c.obj)
                0x00027988                list_remove
 .text.list_compare_add
                0x000279d8       0x84 mesh/core/libmesh_core_nrf51422_xxAC.a(list.c.obj)
                0x000279d8                list_compare_add
 .text.log_callback_rtt
                0x00027a5c       0x28 mesh/core/libmesh_core_nrf51422_xxAC.a(log.c.obj)
                0x00027a5c                log_callback_rtt
 .text.log_init
                0x00027a84       0x1c mesh/core/libmesh_core_nrf51422_xxAC.a(log.c.obj)
                0x00027a84                log_init
 .text.log_vprintf
                0x00027aa0       0x1c mesh/core/libmesh_core_nrf51422_xxAC.a(log.c.obj)
                0x00027aa0                log_vprintf
 .text.log_printf
                0x00027abc       0x16 mesh/core/libmesh_core_nrf51422_xxAC.a(log.c.obj)
                0x00027abc                log_printf
 .text.get_area_end
                0x00027ad2        0xc mesh/core/libmesh_core_nrf51422_xxAC.a(flash_manager.c.obj)
 *fill*         0x00027ade        0x2 
 .text.handle_matches_filter
                0x00027ae0       0x28 mesh/core/libmesh_core_nrf51422_xxAC.a(flash_manager.c.obj)
 .text.get_packet_buffer
                0x00027b08       0x30 mesh/core/libmesh_core_nrf51422_xxAC.a(flash_manager.c.obj)
 .text.get_entry_action
                0x00027b38       0x30 mesh/core/libmesh_core_nrf51422_xxAC.a(flash_manager.c.obj)
 .text.flash_area_is_blank
                0x00027b68       0x50 mesh/core/libmesh_core_nrf51422_xxAC.a(flash_manager.c.obj)
 .text.flash    0x00027bb8       0x1e mesh/core/libmesh_core_nrf51422_xxAC.a(flash_manager.c.obj)
 *fill*         0x00027bd6        0x2 
 .text.free_packet_buffer
                0x00027bd8       0x4c mesh/core/libmesh_core_nrf51422_xxAC.a(flash_manager.c.obj)
 .text.reserve_action_buffer
                0x00027c24       0x20 mesh/core/libmesh_core_nrf51422_xxAC.a(flash_manager.c.obj)
 .text.commit_action_buffer
                0x00027c44       0x18 mesh/core/libmesh_core_nrf51422_xxAC.a(flash_manager.c.obj)
 .text.schedule_processing
                0x00027c5c       0x10 mesh/core/libmesh_core_nrf51422_xxAC.a(flash_manager.c.obj)
 .text.get_next_entry
                0x00027c6c       0x44 mesh/core/libmesh_core_nrf51422_xxAC.a(flash_manager.c.obj)
 .text.get_last_entry.isra.1
                0x00027cb0       0x34 mesh/core/libmesh_core_nrf51422_xxAC.a(flash_manager.c.obj)
 .text.process_action_queue
                0x00027ce4      0x4b0 mesh/core/libmesh_core_nrf51422_xxAC.a(flash_manager.c.obj)
 .text.flash_op_ended_callback
                0x00028194       0x24 mesh/core/libmesh_core_nrf51422_xxAC.a(flash_manager.c.obj)
 .text.flash_manager_init
                0x000281b8       0x68 mesh/core/libmesh_core_nrf51422_xxAC.a(flash_manager.c.obj)
                0x000281b8                flash_manager_init
 .text.flash_manager_remove
                0x00028220       0x24 mesh/core/libmesh_core_nrf51422_xxAC.a(flash_manager.c.obj)
                0x00028220                flash_manager_remove
 .text.flash_manager_entry_get
                0x00028244       0x4c mesh/core/libmesh_core_nrf51422_xxAC.a(flash_manager.c.obj)
                0x00028244                flash_manager_entry_get
 .text.flash_manager_entry_next_get
                0x00028290       0x74 mesh/core/libmesh_core_nrf51422_xxAC.a(flash_manager.c.obj)
                0x00028290                flash_manager_entry_next_get
 .text.flash_manager_entry_alloc
                0x00028304       0x88 mesh/core/libmesh_core_nrf51422_xxAC.a(flash_manager.c.obj)
                0x00028304                flash_manager_entry_alloc
 .text.flash_manager_entry_commit
                0x0002838c       0x10 mesh/core/libmesh_core_nrf51422_xxAC.a(flash_manager.c.obj)
                0x0002838c                flash_manager_entry_commit
 .text.flash_manager_entry_invalidate
                0x0002839c       0x70 mesh/core/libmesh_core_nrf51422_xxAC.a(flash_manager.c.obj)
                0x0002839c                flash_manager_entry_invalidate
 .text.flash_manager_add
                0x0002840c      0x250 mesh/core/libmesh_core_nrf51422_xxAC.a(flash_manager.c.obj)
                0x0002840c                flash_manager_add
 .text.flash_manager_mem_listener_register
                0x0002865c       0x48 mesh/core/libmesh_core_nrf51422_xxAC.a(flash_manager.c.obj)
                0x0002865c                flash_manager_mem_listener_register
 .text.flash_manager_is_stable
                0x000286a4       0x24 mesh/core/libmesh_core_nrf51422_xxAC.a(flash_manager.c.obj)
                0x000286a4                flash_manager_is_stable
 .text.flash_manager_on_defrag_end
                0x000286c8       0x5c mesh/core/libmesh_core_nrf51422_xxAC.a(flash_manager.c.obj)
                0x000286c8                flash_manager_on_defrag_end
 .text.flash_manager_recovery_page_get
                0x00028724        0x8 mesh/core/libmesh_core_nrf51422_xxAC.a(flash_manager.c.obj)
                0x00028724                flash_manager_recovery_page_get
 .text.flash_manager_action_queue_empty_cb_set
                0x0002872c       0x2c mesh/core/libmesh_core_nrf51422_xxAC.a(flash_manager.c.obj)
                0x0002872c                flash_manager_action_queue_empty_cb_set
 .text.utils_xor
                0x00028758       0x16 mesh/core/libmesh_core_nrf51422_xxAC.a(ccm_soft.c.obj)
 .text.ccm_soft_authenticate_blocks
                0x0002876e       0x66 mesh/core/libmesh_core_nrf51422_xxAC.a(ccm_soft.c.obj)
 .text.utils_reverse_memcpy.constprop.0
                0x000287d4        0xa mesh/core/libmesh_core_nrf51422_xxAC.a(ccm_soft.c.obj)
 .text.ccm_soft_authenticate
                0x000287de       0x94 mesh/core/libmesh_core_nrf51422_xxAC.a(ccm_soft.c.obj)
 .text.ccm_soft_crypt
                0x00028872       0x58 mesh/core/libmesh_core_nrf51422_xxAC.a(ccm_soft.c.obj)
 .text.ccm_soft_encrypt
                0x000288ca       0x6e mesh/core/libmesh_core_nrf51422_xxAC.a(ccm_soft.c.obj)
                0x000288ca                ccm_soft_encrypt
 .text.ccm_soft_decrypt
                0x00028938      0x10c mesh/core/libmesh_core_nrf51422_xxAC.a(ccm_soft.c.obj)
                0x00028938                ccm_soft_decrypt
 .text.beacon_init
                0x00028a44       0x4c mesh/core/libmesh_core_nrf51422_xxAC.a(beacon.c.obj)
                0x00028a44                beacon_init
 .text.beacon_create
                0x00028a90       0x46 mesh/core/libmesh_core_nrf51422_xxAC.a(beacon.c.obj)
                0x00028a90                beacon_create
 *fill*         0x00028ad6        0x2 
 .text.beacon_tx
                0x00028ad8       0x40 mesh/core/libmesh_core_nrf51422_xxAC.a(beacon.c.obj)
                0x00028ad8                beacon_tx
 .text.beacon_packet_in
                0x00028b18      0x164 mesh/core/libmesh_core_nrf51422_xxAC.a(beacon.c.obj)
                0x00028b18                beacon_packet_in
 .text.entry_get
                0x00028c7c       0x80 mesh/core/libmesh_core_nrf51422_xxAC.a(flash_manager_internal.c.obj)
                0x00028c7c                entry_get
 .text.is_power_of_two
                0x00028cfc       0x14 mesh/core/libmesh_core_nrf51422_xxAC.a(core_tx.c.obj)
 .text.bearer_if_get
                0x00028d10       0x4c mesh/core/libmesh_core_nrf51422_xxAC.a(core_tx.c.obj)
 .text.core_tx_complete_cb_set
                0x00028d5c        0xc mesh/core/libmesh_core_nrf51422_xxAC.a(core_tx.c.obj)
                0x00028d5c                core_tx_complete_cb_set
 .text.core_tx_packet_alloc
                0x00028d68       0x98 mesh/core/libmesh_core_nrf51422_xxAC.a(core_tx.c.obj)
                0x00028d68                core_tx_packet_alloc
 .text.core_tx_packet_send
                0x00028e00       0x88 mesh/core/libmesh_core_nrf51422_xxAC.a(core_tx.c.obj)
                0x00028e00                core_tx_packet_send
 .text.core_tx_packet_discard
                0x00028e88       0x88 mesh/core/libmesh_core_nrf51422_xxAC.a(core_tx.c.obj)
                0x00028e88                core_tx_packet_discard
 .text.core_tx_complete
                0x00028f10       0x14 mesh/core/libmesh_core_nrf51422_xxAC.a(core_tx.c.obj)
                0x00028f10                core_tx_complete
 .text.core_tx_bearer_register
                0x00028f24       0x90 mesh/core/libmesh_core_nrf51422_xxAC.a(core_tx.c.obj)
                0x00028f24                core_tx_bearer_register
 .text.heartbeat_subscription_timer_cb
                0x00028fb4       0x1c mesh/core/libmesh_core_nrf51422_xxAC.a(heartbeat.c.obj)
 .text.heartbeat_opcode_handle
                0x00028fd0       0x74 mesh/core/libmesh_core_nrf51422_xxAC.a(heartbeat.c.obj)
 .text.heartbeat_send
                0x00029044       0xcc mesh/core/libmesh_core_nrf51422_xxAC.a(heartbeat.c.obj)
 .text.heartbeat_core_evt_cb
                0x00029110       0xa4 mesh/core/libmesh_core_nrf51422_xxAC.a(heartbeat.c.obj)
 .text.heartbeat_publication_timer_cb
                0x000291b4       0xd4 mesh/core/libmesh_core_nrf51422_xxAC.a(heartbeat.c.obj)
 .text.heartbeat_on_feature_change_trigger
                0x00029288       0x58 mesh/core/libmesh_core_nrf51422_xxAC.a(heartbeat.c.obj)
                0x00029288                heartbeat_on_feature_change_trigger
 .text.heartbeat_init
                0x000292e0       0x98 mesh/core/libmesh_core_nrf51422_xxAC.a(heartbeat.c.obj)
                0x000292e0                heartbeat_init
 .text.heartbeat_subscription_set
                0x00029378       0x98 mesh/core/libmesh_core_nrf51422_xxAC.a(heartbeat.c.obj)
                0x00029378                heartbeat_subscription_set
 .text.heartbeat_subscription_get
                0x00029410        0x8 mesh/core/libmesh_core_nrf51422_xxAC.a(heartbeat.c.obj)
                0x00029410                heartbeat_subscription_get
 .text.heartbeat_config_server_cb_set
                0x00029418       0x44 mesh/core/libmesh_core_nrf51422_xxAC.a(heartbeat.c.obj)
                0x00029418                heartbeat_config_server_cb_set
 .text.heartbeat_publication_state_updated
                0x0002945c       0x88 mesh/core/libmesh_core_nrf51422_xxAC.a(heartbeat.c.obj)
                0x0002945c                heartbeat_publication_state_updated
 .text.make_network_beacon_cmac
                0x000294e4       0x22 mesh/core/libmesh_core_nrf51422_xxAC.a(net_beacon.c.obj)
 *fill*         0x00029506        0x2 
 .text.network_beacon_tx_cb
                0x00029508      0x100 mesh/core/libmesh_core_nrf51422_xxAC.a(net_beacon.c.obj)
 .text.net_beacon_init
                0x00029608       0x5c mesh/core/libmesh_core_nrf51422_xxAC.a(net_beacon.c.obj)
                0x00029608                net_beacon_init
 .text.net_beacon_state_set
                0x00029664       0x38 mesh/core/libmesh_core_nrf51422_xxAC.a(net_beacon.c.obj)
                0x00029664                net_beacon_state_set
 .text.net_beacon_state_get
                0x0002969c        0xc mesh/core/libmesh_core_nrf51422_xxAC.a(net_beacon.c.obj)
                0x0002969c                net_beacon_state_get
 .text.net_beacon_packet_in
                0x000296a8      0x12c mesh/core/libmesh_core_nrf51422_xxAC.a(net_beacon.c.obj)
                0x000296a8                net_beacon_packet_in
 .text.packet_discard
                0x000297d4       0x18 mesh/core/libmesh_core_nrf51422_xxAC.a(core_tx_adv.c.obj)
 .text.packet_send
                0x000297ec       0x18 mesh/core/libmesh_core_nrf51422_xxAC.a(core_tx_adv.c.obj)
 .text.packet_alloc
                0x00029804       0x40 mesh/core/libmesh_core_nrf51422_xxAC.a(core_tx_adv.c.obj)
 .text.adv_tx_complete_callback
                0x00029844       0x2c mesh/core/libmesh_core_nrf51422_xxAC.a(core_tx_adv.c.obj)
 .text.core_tx_adv_init
                0x00029870       0x58 mesh/core/libmesh_core_nrf51422_xxAC.a(core_tx_adv.c.obj)
                0x00029870                core_tx_adv_init
 .text.core_tx_adv_count_set
                0x000298c8       0x40 mesh/core/libmesh_core_nrf51422_xxAC.a(core_tx_adv.c.obj)
                0x000298c8                core_tx_adv_count_set
 .text.core_tx_adv_count_get
                0x00029908       0x2c mesh/core/libmesh_core_nrf51422_xxAC.a(core_tx_adv.c.obj)
                0x00029908                core_tx_adv_count_get
 .text.core_tx_adv_interval_set
                0x00029934       0x34 mesh/core/libmesh_core_nrf51422_xxAC.a(core_tx_adv.c.obj)
                0x00029934                core_tx_adv_interval_set
 .text.core_tx_adv_interval_get
                0x00029968       0x34 mesh/core/libmesh_core_nrf51422_xxAC.a(core_tx_adv.c.obj)
                0x00029968                core_tx_adv_interval_get
 .text.ad_listener_subscribe
                0x0002999c       0x68 mesh/core/libmesh_core_nrf51422_xxAC.a(ad_listener.c.obj)
                0x0002999c                ad_listener_subscribe
 .text.ad_listener_process
                0x00029a04       0x60 mesh/core/libmesh_core_nrf51422_xxAC.a(ad_listener.c.obj)
                0x00029a04                ad_listener_process
 .text.adtype_filter_handle
                0x00029a64       0x6c mesh/core/libmesh_core_nrf51422_xxAC.a(ad_type_filter.c.obj)
 .text.bearer_adtype_filtering_set
                0x00029ad0       0x24 mesh/core/libmesh_core_nrf51422_xxAC.a(ad_type_filter.c.obj)
                0x00029ad0                bearer_adtype_filtering_set
 .text.bearer_adtype_add
                0x00029af4       0x20 mesh/core/libmesh_core_nrf51422_xxAC.a(ad_type_filter.c.obj)
                0x00029af4                bearer_adtype_add
 .text.bearer_adtype_mode_set
                0x00029b14       0x28 mesh/core/libmesh_core_nrf51422_xxAC.a(ad_type_filter.c.obj)
                0x00029b14                bearer_adtype_mode_set
 .text.set_gap_addr_type
                0x00029b3c       0x30 mesh/core/libmesh_core_nrf51422_xxAC.a(advertiser.c.obj)
 .text.tx_complete_event_callback
                0x00029b6c       0x44 mesh/core/libmesh_core_nrf51422_xxAC.a(advertiser.c.obj)
 .text.broadcast_complete_cb
                0x00029bb0       0x68 mesh/core/libmesh_core_nrf51422_xxAC.a(advertiser.c.obj)
 .text.schedule_first_time
                0x00029c18       0x28 mesh/core/libmesh_core_nrf51422_xxAC.a(advertiser.c.obj)
 .text.timeout_event
                0x00029c40      0x12c mesh/core/libmesh_core_nrf51422_xxAC.a(advertiser.c.obj)
 .text.advertiser_init
                0x00029d6c       0x10 mesh/core/libmesh_core_nrf51422_xxAC.a(advertiser.c.obj)
                0x00029d6c                advertiser_init
 .text.advertiser_enable
                0x00029d7c       0x2c mesh/core/libmesh_core_nrf51422_xxAC.a(advertiser.c.obj)
                0x00029d7c                advertiser_enable
 .text.advertiser_packet_alloc
                0x00029da8       0xac mesh/core/libmesh_core_nrf51422_xxAC.a(advertiser.c.obj)
                0x00029da8                advertiser_packet_alloc
 .text.advertiser_packet_send
                0x00029e54       0x74 mesh/core/libmesh_core_nrf51422_xxAC.a(advertiser.c.obj)
                0x00029e54                advertiser_packet_send
 .text.advertiser_packet_discard
                0x00029ec8       0x2c mesh/core/libmesh_core_nrf51422_xxAC.a(advertiser.c.obj)
                0x00029ec8                advertiser_packet_discard
 .text.advertiser_interval_set
                0x00029ef4       0x68 mesh/core/libmesh_core_nrf51422_xxAC.a(advertiser.c.obj)
                0x00029ef4                advertiser_interval_set
 .text.advertiser_flush
                0x00029f5c       0x22 mesh/core/libmesh_core_nrf51422_xxAC.a(advertiser.c.obj)
                0x00029f5c                advertiser_flush
 *fill*         0x00029f7e        0x2 
 .text.advertiser_address_default_get
                0x00029f80       0x30 mesh/core/libmesh_core_nrf51422_xxAC.a(advertiser.c.obj)
                0x00029f80                advertiser_address_default_get
 .text.advertiser_instance_init
                0x00029fb0       0xb4 mesh/core/libmesh_core_nrf51422_xxAC.a(advertiser.c.obj)
                0x00029fb0                advertiser_instance_init
 .text.action_switch
                0x0002a064       0xc4 mesh/core/libmesh_core_nrf51422_xxAC.a(bearer_handler.c.obj)
 .text.bearer_handler_init
                0x0002a128       0x2c mesh/core/libmesh_core_nrf51422_xxAC.a(bearer_handler.c.obj)
                0x0002a128                bearer_handler_init
 .text.bearer_handler_start
                0x0002a154       0x1c mesh/core/libmesh_core_nrf51422_xxAC.a(bearer_handler.c.obj)
                0x0002a154                bearer_handler_start
 .text.bearer_handler_action_enqueue
                0x0002a170       0x9c mesh/core/libmesh_core_nrf51422_xxAC.a(bearer_handler.c.obj)
                0x0002a170                bearer_handler_action_enqueue
 .text.bearer_handler_action_end
                0x0002a20c       0x7c mesh/core/libmesh_core_nrf51422_xxAC.a(bearer_handler.c.obj)
                0x0002a20c                bearer_handler_action_end
 .text.bearer_handler_radio_irq_handler
                0x0002a288       0x6c mesh/core/libmesh_core_nrf51422_xxAC.a(bearer_handler.c.obj)
                0x0002a288                bearer_handler_radio_irq_handler
 .text.bearer_handler_timer_irq_handler
                0x0002a2f4       0x30 mesh/core/libmesh_core_nrf51422_xxAC.a(bearer_handler.c.obj)
                0x0002a2f4                bearer_handler_timer_irq_handler
 .text.bearer_handler_on_ts_begin
                0x0002a324       0x4c mesh/core/libmesh_core_nrf51422_xxAC.a(bearer_handler.c.obj)
                0x0002a324                bearer_handler_on_ts_begin
 .text.bearer_handler_on_ts_end
                0x0002a370       0x50 mesh/core/libmesh_core_nrf51422_xxAC.a(bearer_handler.c.obj)
                0x0002a370                bearer_handler_on_ts_end
 .text.radio_irq_handler
                0x0002a3c0       0xbc mesh/core/libmesh_core_nrf51422_xxAC.a(broadcast.c.obj)
 .text.broadcast_start
                0x0002a47c       0x98 mesh/core/libmesh_core_nrf51422_xxAC.a(broadcast.c.obj)
 .text.broadcast_send
                0x0002a514       0x80 mesh/core/libmesh_core_nrf51422_xxAC.a(broadcast.c.obj)
                0x0002a514                broadcast_send
 .text.fen_filter_start
                0x0002a594       0x40 mesh/core/libmesh_core_nrf51422_xxAC.a(filter_engine.c.obj)
                0x0002a594                fen_filter_start
 .text.fen_filter_stop
                0x0002a5d4       0x2c mesh/core/libmesh_core_nrf51422_xxAC.a(filter_engine.c.obj)
                0x0002a5d4                fen_filter_stop
 .text.fen_filters_apply
                0x0002a600       0x34 mesh/core/libmesh_core_nrf51422_xxAC.a(filter_engine.c.obj)
                0x0002a600                fen_filters_apply
 .text.radio_config_reset
                0x0002a634       0x48 mesh/core/libmesh_core_nrf51422_xxAC.a(radio_config.c.obj)
                0x0002a634                radio_config_reset
 .text.radio_config_channel_set
                0x0002a67c       0x3c mesh/core/libmesh_core_nrf51422_xxAC.a(radio_config.c.obj)
                0x0002a67c                radio_config_channel_set
 .text.radio_config_config
                0x0002a6b8       0xb0 mesh/core/libmesh_core_nrf51422_xxAC.a(radio_config.c.obj)
                0x0002a6b8                radio_config_config
 .text.radio_config_access_addr_set
                0x0002a768       0x74 mesh/core/libmesh_core_nrf51422_xxAC.a(radio_config.c.obj)
                0x0002a768                radio_config_access_addr_set
 .text.radio_trigger
                0x0002a7dc       0x24 mesh/core/libmesh_core_nrf51422_xxAC.a(scanner.c.obj)
 .text.scan_window_end
                0x0002a800       0x14 mesh/core/libmesh_core_nrf51422_xxAC.a(scanner.c.obj)
 .text.scan_window_start
                0x0002a814       0x28 mesh/core/libmesh_core_nrf51422_xxAC.a(scanner.c.obj)
 .text.radio_configure
                0x0002a83c       0x88 mesh/core/libmesh_core_nrf51422_xxAC.a(scanner.c.obj)
 .text.radio_set_packet
                0x0002a8c4       0x58 mesh/core/libmesh_core_nrf51422_xxAC.a(scanner.c.obj)
 .text.radio_start
                0x0002a91c       0x54 mesh/core/libmesh_core_nrf51422_xxAC.a(scanner.c.obj)
 .text.radio_stop
                0x0002a970       0x38 mesh/core/libmesh_core_nrf51422_xxAC.a(scanner.c.obj)
 .text.schedule_timers
                0x0002a9a8       0x34 mesh/core/libmesh_core_nrf51422_xxAC.a(scanner.c.obj)
 .text.scanner_radio_start
                0x0002a9dc       0x28 mesh/core/libmesh_core_nrf51422_xxAC.a(scanner.c.obj)
                0x0002a9dc                scanner_radio_start
 .text.scanner_radio_stop
                0x0002aa04       0x14 mesh/core/libmesh_core_nrf51422_xxAC.a(scanner.c.obj)
                0x0002aa04                scanner_radio_stop
 .text.scanner_radio_irq_handler
                0x0002aa18      0x144 mesh/core/libmesh_core_nrf51422_xxAC.a(scanner.c.obj)
                0x0002aa18                scanner_radio_irq_handler
 .text.scanner_enable
                0x0002ab5c       0x34 mesh/core/libmesh_core_nrf51422_xxAC.a(scanner.c.obj)
                0x0002ab5c                scanner_enable
 .text.scanner_packet_release
                0x0002ab90       0x38 mesh/core/libmesh_core_nrf51422_xxAC.a(scanner.c.obj)
                0x0002ab90                scanner_packet_release
 .text.scanner_rx
                0x0002abc8       0x34 mesh/core/libmesh_core_nrf51422_xxAC.a(scanner.c.obj)
                0x0002abc8                scanner_rx
 .text.scanner_rx_pending
                0x0002abfc       0x10 mesh/core/libmesh_core_nrf51422_xxAC.a(scanner.c.obj)
                0x0002abfc                scanner_rx_pending
 .text.scanner_config_scan_time_set
                0x0002ac0c       0x6c mesh/core/libmesh_core_nrf51422_xxAC.a(scanner.c.obj)
                0x0002ac0c                scanner_config_scan_time_set
 .text.scanner_config_channels_set
                0x0002ac78       0x68 mesh/core/libmesh_core_nrf51422_xxAC.a(scanner.c.obj)
                0x0002ac78                scanner_config_channels_set
 .text.scanner_config_access_addresses_set
                0x0002ace0       0x44 mesh/core/libmesh_core_nrf51422_xxAC.a(scanner.c.obj)
                0x0002ace0                scanner_config_access_addresses_set
 .text.scanner_config_reset
                0x0002ad24       0x44 mesh/core/libmesh_core_nrf51422_xxAC.a(scanner.c.obj)
                0x0002ad24                scanner_config_reset
 .text.scanner_init
                0x0002ad68       0x54 mesh/core/libmesh_core_nrf51422_xxAC.a(scanner.c.obj)
                0x0002ad68                scanner_init
 .text.internal_event_push
                0x0002adbc       0x30 mesh/core/libmesh_core_nrf51422_xxAC.a(internal_event.c.obj)
                0x0002adbc                internal_event_push
 .text.sd_ecb_block_encrypt
                0x0002adec        0x4 mesh/core/libmesh_core_nrf51422_xxAC.a(aes.c.obj)
 .text.aes_encrypt
                0x0002adf0       0x30 mesh/core/libmesh_core_nrf51422_xxAC.a(aes.c.obj)
                0x0002adf0                aes_encrypt
 .text.msg_cache_init
                0x0002ae20       0x28 mesh/core/libmesh_core_nrf51422_xxAC.a(msg_cache.c.obj)
                0x0002ae20                msg_cache_init
 .text.msg_cache_entry_exists
                0x0002ae48       0x40 mesh/core/libmesh_core_nrf51422_xxAC.a(msg_cache.c.obj)
                0x0002ae48                msg_cache_entry_exists
 .text.msg_cache_entry_add
                0x0002ae88       0x2c mesh/core/libmesh_core_nrf51422_xxAC.a(msg_cache.c.obj)
                0x0002ae88                msg_cache_entry_add
 .text.block_ack_full
                0x0002aeb4       0x2c mesh/core/libmesh_core_nrf51422_xxAC.a(transport.c.obj)
 .text.seqauth_sequence_number_get
                0x0002aee0       0x18 mesh/core/libmesh_core_nrf51422_xxAC.a(transport.c.obj)
 .text.sar_rx_session_mark_as_handled
                0x0002aef8       0x54 mesh/core/libmesh_core_nrf51422_xxAC.a(transport.c.obj)
 .text.sar_ctx_find
                0x0002af4c       0x40 mesh/core/libmesh_core_nrf51422_xxAC.a(transport.c.obj)
 .text.control_packet_callback_get
                0x0002af8c       0x44 mesh/core/libmesh_core_nrf51422_xxAC.a(transport.c.obj)
 .text.m_send_sar_cancel_event
                0x0002afd0       0x26 mesh/core/libmesh_core_nrf51422_xxAC.a(transport.c.obj)
 *fill*         0x0002aff6        0x2 
 .text.tx_complete
                0x0002aff8       0x30 mesh/core/libmesh_core_nrf51422_xxAC.a(transport.c.obj)
 .text.upper_trs_packet_encrypt
                0x0002b028       0xc4 mesh/core/libmesh_core_nrf51422_xxAC.a(transport.c.obj)
 .text.sar_ctx_free
                0x0002b0ec       0x38 mesh/core/libmesh_core_nrf51422_xxAC.a(transport.c.obj)
 .text.sar_ctx_tx_complete
                0x0002b124       0xb8 mesh/core/libmesh_core_nrf51422_xxAC.a(transport.c.obj)
 .text.sar_ctx_cancel
                0x0002b1dc      0x110 mesh/core/libmesh_core_nrf51422_xxAC.a(transport.c.obj)
 .text.abort_timeout
                0x0002b2ec        0xc mesh/core/libmesh_core_nrf51422_xxAC.a(transport.c.obj)
 .text.sar_ctx_alloc
                0x0002b2f8       0xc8 mesh/core/libmesh_core_nrf51422_xxAC.a(transport.c.obj)
 .text.test_transport_decrypt
                0x0002b3c0       0x90 mesh/core/libmesh_core_nrf51422_xxAC.a(transport.c.obj)
 .text.upper_transport_access_packet_in
                0x0002b450      0x290 mesh/core/libmesh_core_nrf51422_xxAC.a(transport.c.obj)
 .text.trs_packet_header_build
                0x0002b6e0       0x96 mesh/core/libmesh_core_nrf51422_xxAC.a(transport.c.obj)
 *fill*         0x0002b776        0x2 
 .text.tx_retry_timer_reset
                0x0002b778       0x50 mesh/core/libmesh_core_nrf51422_xxAC.a(transport.c.obj)
 .text.trs_sar_packet_out
                0x0002b7c8      0x100 mesh/core/libmesh_core_nrf51422_xxAC.a(transport.c.obj)
 .text.retry_timeout
                0x0002b8c8       0x54 mesh/core/libmesh_core_nrf51422_xxAC.a(transport.c.obj)
 .text.upper_transport_packet_in
                0x0002b91c      0x1b0 mesh/core/libmesh_core_nrf51422_xxAC.a(transport.c.obj)
 .text.upper_transport_tx
                0x0002bacc      0x23c mesh/core/libmesh_core_nrf51422_xxAC.a(transport.c.obj)
 .text.transport_sar_mem_funcs_reset
                0x0002bd08       0x2c mesh/core/libmesh_core_nrf51422_xxAC.a(transport.c.obj)
                0x0002bd08                transport_sar_mem_funcs_reset
 .text.transport_init
                0x0002bd34       0x7c mesh/core/libmesh_core_nrf51422_xxAC.a(transport.c.obj)
                0x0002bd34                transport_init
 .text.transport_tx
                0x0002bdb0       0x94 mesh/core/libmesh_core_nrf51422_xxAC.a(transport.c.obj)
                0x0002bdb0                transport_tx
 .text.transport_control_tx
                0x0002be44       0x7c mesh/core/libmesh_core_nrf51422_xxAC.a(transport.c.obj)
                0x0002be44                transport_control_tx
 .text.sar_ack_send
                0x0002bec0      0x10c mesh/core/libmesh_core_nrf51422_xxAC.a(transport.c.obj)
 .text.transport_sar_process
                0x0002bfcc       0x78 mesh/core/libmesh_core_nrf51422_xxAC.a(transport.c.obj)
 .text.transport_packet_in
                0x0002c044      0x518 mesh/core/libmesh_core_nrf51422_xxAC.a(transport.c.obj)
                0x0002c044                transport_packet_in
 .text.ack_timeout
                0x0002c55c       0x3c mesh/core/libmesh_core_nrf51422_xxAC.a(transport.c.obj)
 .text.transport_opt_set
                0x0002c598       0xcc mesh/core/libmesh_core_nrf51422_xxAC.a(transport.c.obj)
                0x0002c598                transport_opt_set
 .text.transport_opt_get
                0x0002c664       0x58 mesh/core/libmesh_core_nrf51422_xxAC.a(transport.c.obj)
                0x0002c664                transport_opt_get
 .text.transport_control_packet_consumer_add
                0x0002c6bc       0x64 mesh/core/libmesh_core_nrf51422_xxAC.a(transport.c.obj)
                0x0002c6bc                transport_control_packet_consumer_add
 .text.m_adjust_desired_packet_length
                0x0002c720       0x34 mesh/core/libmesh_core_nrf51422_xxAC.a(packet_buffer.c.obj)
 .text.m_index_increment.part.0
                0x0002c754       0x18 mesh/core/libmesh_core_nrf51422_xxAC.a(packet_buffer.c.obj)
 .text.m_free_popped_packet
                0x0002c76c       0x64 mesh/core/libmesh_core_nrf51422_xxAC.a(packet_buffer.c.obj)
 .text.free_skipped_packets
                0x0002c7d0       0x1c mesh/core/libmesh_core_nrf51422_xxAC.a(packet_buffer.c.obj)
 .text.packet_buffer_init
                0x0002c7ec       0xe0 mesh/core/libmesh_core_nrf51422_xxAC.a(packet_buffer.c.obj)
                0x0002c7ec                packet_buffer_init
 .text.packet_buffer_flush
                0x0002c8cc       0x60 mesh/core/libmesh_core_nrf51422_xxAC.a(packet_buffer.c.obj)
                0x0002c8cc                packet_buffer_flush
 .text.packet_buffer_reserve
                0x0002c92c      0x11c mesh/core/libmesh_core_nrf51422_xxAC.a(packet_buffer.c.obj)
                0x0002c92c                packet_buffer_reserve
 .text.packet_buffer_commit
                0x0002ca48      0x10c mesh/core/libmesh_core_nrf51422_xxAC.a(packet_buffer.c.obj)
                0x0002ca48                packet_buffer_commit
 .text.packet_buffer_pop
                0x0002cb54       0x64 mesh/core/libmesh_core_nrf51422_xxAC.a(packet_buffer.c.obj)
                0x0002cb54                packet_buffer_pop
 .text.packet_buffer_can_pop
                0x0002cbb8       0x2c mesh/core/libmesh_core_nrf51422_xxAC.a(packet_buffer.c.obj)
                0x0002cbb8                packet_buffer_can_pop
 .text.packet_buffer_packets_ready_to_pop
                0x0002cbe4       0x58 mesh/core/libmesh_core_nrf51422_xxAC.a(packet_buffer.c.obj)
                0x0002cbe4                packet_buffer_packets_ready_to_pop
 .text.packet_buffer_free
                0x0002cc3c       0x94 mesh/core/libmesh_core_nrf51422_xxAC.a(packet_buffer.c.obj)
                0x0002cc3c                packet_buffer_free
 .text.get_last_page
                0x0002ccd0       0x14 mesh/core/libmesh_core_nrf51422_xxAC.a(flash_manager_defrag.c.obj)
 .text.defrag_on_end
                0x0002cce4       0x1c mesh/core/libmesh_core_nrf51422_xxAC.a(flash_manager_defrag.c.obj)
 .text.execute_procedure_step
                0x0002cd00       0xac mesh/core/libmesh_core_nrf51422_xxAC.a(flash_manager_defrag.c.obj)
 .text.get_next_entry
                0x0002cdac       0x44 mesh/core/libmesh_core_nrf51422_xxAC.a(flash_manager_defrag.c.obj)
 .text.get_next_data_entry
                0x0002cdf0       0x24 mesh/core/libmesh_core_nrf51422_xxAC.a(flash_manager_defrag.c.obj)
 .text.on_flash_op_end
                0x0002ce14       0x34 mesh/core/libmesh_core_nrf51422_xxAC.a(flash_manager_defrag.c.obj)
 .text.check_for_invalid_entries
                0x0002ce48       0x3c mesh/core/libmesh_core_nrf51422_xxAC.a(flash_manager_defrag.c.obj)
 .text.erase_recovery_area
                0x0002ce84       0x30 mesh/core/libmesh_core_nrf51422_xxAC.a(flash_manager_defrag.c.obj)
 .text.flash.constprop.6
                0x0002ceb4       0x20 mesh/core/libmesh_core_nrf51422_xxAC.a(flash_manager_defrag.c.obj)
 .text.seal_storage_page
                0x0002ced4       0x58 mesh/core/libmesh_core_nrf51422_xxAC.a(flash_manager_defrag.c.obj)
 .text.invalidate_duplicate_entries
                0x0002cf2c       0x88 mesh/core/libmesh_core_nrf51422_xxAC.a(flash_manager_defrag.c.obj)
 .text.copy_metadata
                0x0002cfb4       0x40 mesh/core/libmesh_core_nrf51422_xxAC.a(flash_manager_defrag.c.obj)
 .text.write_defrag_start_pointer
                0x0002cff4       0x20 mesh/core/libmesh_core_nrf51422_xxAC.a(flash_manager_defrag.c.obj)
 .text.write_back
                0x0002d014       0x2c mesh/core/libmesh_core_nrf51422_xxAC.a(flash_manager_defrag.c.obj)
 .text.post_process
                0x0002d040       0x44 mesh/core/libmesh_core_nrf51422_xxAC.a(flash_manager_defrag.c.obj)
 .text.backup_entries
                0x0002d084      0x128 mesh/core/libmesh_core_nrf51422_xxAC.a(flash_manager_defrag.c.obj)
 .text.erase_source
                0x0002d1ac       0x30 mesh/core/libmesh_core_nrf51422_xxAC.a(flash_manager_defrag.c.obj)
 .text.flash_manager_defrag_init
                0x0002d1dc       0xa0 mesh/core/libmesh_core_nrf51422_xxAC.a(flash_manager_defrag.c.obj)
                0x0002d1dc                flash_manager_defrag_init
 .text.flash_manager_defrag_is_running
                0x0002d27c       0x10 mesh/core/libmesh_core_nrf51422_xxAC.a(flash_manager_defrag.c.obj)
                0x0002d27c                flash_manager_defrag_is_running
 .text.flash_manager_defrag
                0x0002d28c       0xdc mesh/core/libmesh_core_nrf51422_xxAC.a(flash_manager_defrag.c.obj)
                0x0002d28c                flash_manager_defrag
 .text.flash_manager_defrag_recovery_page_get
                0x0002d368        0xc mesh/core/libmesh_core_nrf51422_xxAC.a(flash_manager_defrag.c.obj)
                0x0002d368                flash_manager_defrag_recovery_page_get
 .text.packet_mgr_init
                0x0002d374       0x54 mesh/core/libmesh_core_nrf51422_xxAC.a(packet_mgr.c.obj)
                0x0002d374                packet_mgr_init
 .text.send_end_events
                0x0002d3c8       0x80 mesh/core/libmesh_core_nrf51422_xxAC.a(mesh_flash.c.obj)
 .text.flash_op_schedule
                0x0002d448       0xa0 mesh/core/libmesh_core_nrf51422_xxAC.a(mesh_flash.c.obj)
 .text.flash_op_start
                0x0002d4e8      0x178 mesh/core/libmesh_core_nrf51422_xxAC.a(mesh_flash.c.obj)
 .text.mesh_flash_init
                0x0002d660       0x94 mesh/core/libmesh_core_nrf51422_xxAC.a(mesh_flash.c.obj)
                0x0002d660                mesh_flash_init
 .text.mesh_flash_user_callback_set
                0x0002d6f4       0x30 mesh/core/libmesh_core_nrf51422_xxAC.a(mesh_flash.c.obj)
                0x0002d6f4                mesh_flash_user_callback_set
 .text.mesh_flash_op_push
                0x0002d724      0x140 mesh/core/libmesh_core_nrf51422_xxAC.a(mesh_flash.c.obj)
                0x0002d724                mesh_flash_op_push
 .text.queue_init
                0x0002d864       0x24 mesh/core/libmesh_core_nrf51422_xxAC.a(queue.c.obj)
                0x0002d864                queue_init
 .text.queue_push
                0x0002d888       0x54 mesh/core/libmesh_core_nrf51422_xxAC.a(queue.c.obj)
                0x0002d888                queue_push
 .text.queue_pop
                0x0002d8dc       0x3c mesh/core/libmesh_core_nrf51422_xxAC.a(queue.c.obj)
                0x0002d8dc                queue_pop
 .text.queue_peek
                0x0002d918       0x20 mesh/core/libmesh_core_nrf51422_xxAC.a(queue.c.obj)
                0x0002d918                queue_peek
 .text.my_xor.constprop.1
                0x0002d938       0x12 mesh/core/libmesh_core_nrf51422_xxAC.a(aes_cmac.c.obj)
 .text.utils_lshift.constprop.2
                0x0002d94a       0x18 mesh/core/libmesh_core_nrf51422_xxAC.a(aes_cmac.c.obj)
 *fill*         0x0002d962        0x2 
 .text.aes_cmac_subkey_generate
                0x0002d964       0x64 mesh/core/libmesh_core_nrf51422_xxAC.a(aes_cmac.c.obj)
                0x0002d964                aes_cmac_subkey_generate
 .text.aes_cmac
                0x0002d9c8       0xc0 mesh/core/libmesh_core_nrf51422_xxAC.a(aes_cmac.c.obj)
                0x0002d9c8                aes_cmac
 .text.stage_get_available
                0x0002da88       0x26 mesh/core/libmesh_core_nrf51422_xxAC.a(msqueue.c.obj)
 *fill*         0x0002daae        0x2 
 .text.msq_get  0x0002dab0       0x54 mesh/core/libmesh_core_nrf51422_xxAC.a(msqueue.c.obj)
                0x0002dab0                msq_get
 .text.msq_move
                0x0002db04       0x4c mesh/core/libmesh_core_nrf51422_xxAC.a(msqueue.c.obj)
                0x0002db04                msq_move
 .text.msq_reset
                0x0002db50       0x30 mesh/core/libmesh_core_nrf51422_xxAC.a(msqueue.c.obj)
                0x0002db50                msq_reset
 .text.msq_init
                0x0002db80       0x88 mesh/core/libmesh_core_nrf51422_xxAC.a(msqueue.c.obj)
                0x0002db80                msq_init
 .text.msq_available
                0x0002dc08       0x40 mesh/core/libmesh_core_nrf51422_xxAC.a(msqueue.c.obj)
                0x0002dc08                msq_available
 .text.replay_cache_add
                0x0002dc48       0x68 mesh/core/libmesh_core_nrf51422_xxAC.a(replay_cache.c.obj)
                0x0002dc48                replay_cache_add
 .text.replay_cache_has_room
                0x0002dcb0       0x38 mesh/core/libmesh_core_nrf51422_xxAC.a(replay_cache.c.obj)
                0x0002dcb0                replay_cache_has_room
 .text.replay_cache_has_elem
                0x0002dce8       0x38 mesh/core/libmesh_core_nrf51422_xxAC.a(replay_cache.c.obj)
                0x0002dce8                replay_cache_has_elem
 .text.replay_cache_clear
                0x0002dd20       0x28 mesh/core/libmesh_core_nrf51422_xxAC.a(replay_cache.c.obj)
                0x0002dd20                replay_cache_clear
 .text.replay_cache_init
                0x0002dd48        0x8 mesh/core/libmesh_core_nrf51422_xxAC.a(replay_cache.c.obj)
                0x0002dd48                replay_cache_init
 .text.wait_for_ready
                0x0002dd50       0x14 mesh/core/libmesh_core_nrf51422_xxAC.a(nrf_flash.c.obj)
 .text.nrf_flash_erase
                0x0002dd64       0x58 mesh/core/libmesh_core_nrf51422_xxAC.a(nrf_flash.c.obj)
                0x0002dd64                nrf_flash_erase
 .text.nrf_flash_write
                0x0002ddbc       0x5c mesh/core/libmesh_core_nrf51422_xxAC.a(nrf_flash.c.obj)
                0x0002ddbc                nrf_flash_write
 .text._GetAvailWriteSpace
                0x0002de18       0x12 external/rtt/librtt_nrf51422_xxAC.a(SEGGER_RTT.c.obj)
 .text._WriteNoCheck
                0x0002de2a       0x38 external/rtt/librtt_nrf51422_xxAC.a(SEGGER_RTT.c.obj)
 .text._WriteBlocking
                0x0002de62       0x5a external/rtt/librtt_nrf51422_xxAC.a(SEGGER_RTT.c.obj)
 .text._DoInit  0x0002debc       0x64 external/rtt/librtt_nrf51422_xxAC.a(SEGGER_RTT.c.obj)
 .text.SEGGER_RTT_WriteNoLock
                0x0002df20       0x6c external/rtt/librtt_nrf51422_xxAC.a(SEGGER_RTT.c.obj)
                0x0002df20                SEGGER_RTT_WriteNoLock
 .text.SEGGER_RTT_Write
                0x0002df8c       0x34 external/rtt/librtt_nrf51422_xxAC.a(SEGGER_RTT.c.obj)
                0x0002df8c                SEGGER_RTT_Write
 .text._StoreChar
                0x0002dfc0       0x3e external/rtt/librtt_nrf51422_xxAC.a(SEGGER_RTT_printf.c.obj)
 *fill*         0x0002dffe        0x2 
 .text._PrintUnsigned
                0x0002e000       0xe0 external/rtt/librtt_nrf51422_xxAC.a(SEGGER_RTT_printf.c.obj)
 .text.SEGGER_RTT_vprintf
                0x0002e0e0      0x25c external/rtt/librtt_nrf51422_xxAC.a(SEGGER_RTT_printf.c.obj)
                0x0002e0e0                SEGGER_RTT_vprintf
 .text.SEGGER_RTT_printf
                0x0002e33c       0x18 external/rtt/librtt_nrf51422_xxAC.a(SEGGER_RTT_printf.c.obj)
                0x0002e33c                SEGGER_RTT_printf
 .text.uECC_vli_mult
                0x0002e354       0x90 external/micro-ecc/libuECC_nrf51422_xxAC.a(uECC.c.obj)
 .text.uECC_vli_clear
                0x0002e3e4       0x16 external/micro-ecc/libuECC_nrf51422_xxAC.a(uECC.c.obj)
 .text.uECC_vli_isZero
                0x0002e3fa       0x1c external/micro-ecc/libuECC_nrf51422_xxAC.a(uECC.c.obj)
 .text.uECC_vli_testBit
                0x0002e416       0x12 external/micro-ecc/libuECC_nrf51422_xxAC.a(uECC.c.obj)
 .text.uECC_vli_numBits
                0x0002e428       0x40 external/micro-ecc/libuECC_nrf51422_xxAC.a(uECC.c.obj)
 .text.uECC_vli_set
                0x0002e468       0x16 external/micro-ecc/libuECC_nrf51422_xxAC.a(uECC.c.obj)
 .text.uECC_vli_cmp_unsafe
                0x0002e47e       0x24 external/micro-ecc/libuECC_nrf51422_xxAC.a(uECC.c.obj)
 .text.uECC_vli_rshift1
                0x0002e4a2       0x1e external/micro-ecc/libuECC_nrf51422_xxAC.a(uECC.c.obj)
 .text.uECC_vli_modMult_fast
                0x0002e4c0       0x20 external/micro-ecc/libuECC_nrf51422_xxAC.a(uECC.c.obj)
 .text.uECC_vli_modSquare_fast
                0x0002e4e0        0xc external/micro-ecc/libuECC_nrf51422_xxAC.a(uECC.c.obj)
 .text.apply_z  0x0002e4ec       0x3e external/micro-ecc/libuECC_nrf51422_xxAC.a(uECC.c.obj)
 .text.uECC_vli_nativeToBytes
                0x0002e52a       0x24 external/micro-ecc/libuECC_nrf51422_xxAC.a(uECC.c.obj)
 .text.uECC_vli_bytesToNative
                0x0002e54e       0x44 external/micro-ecc/libuECC_nrf51422_xxAC.a(uECC.c.obj)
 .text.default_RNG
                0x0002e592        0xc external/micro-ecc/libuECC_nrf51422_xxAC.a(uECC.c.obj)
 .text.uECC_vli_add.isra.0
                0x0002e59e       0x4a external/micro-ecc/libuECC_nrf51422_xxAC.a(uECC.c.obj)
 .text.regularize_k
                0x0002e5e8       0x52 external/micro-ecc/libuECC_nrf51422_xxAC.a(uECC.c.obj)
 .text.uECC_vli_sub.isra.1
                0x0002e63a       0x4c external/micro-ecc/libuECC_nrf51422_xxAC.a(uECC.c.obj)
 .text.uECC_vli_cmp
                0x0002e686       0x2a external/micro-ecc/libuECC_nrf51422_xxAC.a(uECC.c.obj)
 .text.uECC_generate_random_int
                0x0002e6b0       0x78 external/micro-ecc/libuECC_nrf51422_xxAC.a(uECC.c.obj)
 .text.uECC_vli_modAdd
                0x0002e728       0x2e external/micro-ecc/libuECC_nrf51422_xxAC.a(uECC.c.obj)
 *fill*         0x0002e756        0x2 
 .text.vli_mmod_fast_secp256r1
                0x0002e758      0x19c external/micro-ecc/libuECC_nrf51422_xxAC.a(uECC.c.obj)
 .text.uECC_vli_modSub.isra.2
                0x0002e8f4       0x1a external/micro-ecc/libuECC_nrf51422_xxAC.a(uECC.c.obj)
 *fill*         0x0002e90e        0x2 
 .text.double_jacobian_default
                0x0002e910      0x14c external/micro-ecc/libuECC_nrf51422_xxAC.a(uECC.c.obj)
 .text.x_side_default
                0x0002ea5c       0x58 external/micro-ecc/libuECC_nrf51422_xxAC.a(uECC.c.obj)
 .text.XYcZ_add
                0x0002eab4       0xbe external/micro-ecc/libuECC_nrf51422_xxAC.a(uECC.c.obj)
 .text.XYcZ_addC
                0x0002eb72      0x10c external/micro-ecc/libuECC_nrf51422_xxAC.a(uECC.c.obj)
 *fill*         0x0002ec7e        0x2 
 .text.vli_modInv_update
                0x0002ec80       0x3c external/micro-ecc/libuECC_nrf51422_xxAC.a(uECC.c.obj)
 .text.uECC_vli_modInv
                0x0002ecbc      0x10a external/micro-ecc/libuECC_nrf51422_xxAC.a(uECC.c.obj)
 .text.EccPoint_mult
                0x0002edc6      0x19c external/micro-ecc/libuECC_nrf51422_xxAC.a(uECC.c.obj)
 .text.EccPoint_compute_public_key
                0x0002ef62       0x4c external/micro-ecc/libuECC_nrf51422_xxAC.a(uECC.c.obj)
 *fill*         0x0002efae        0x2 
 .text.uECC_secp256r1
                0x0002efb0        0x8 external/micro-ecc/libuECC_nrf51422_xxAC.a(uECC.c.obj)
                0x0002efb0                uECC_secp256r1
 .text.uECC_make_key
                0x0002efb8       0x84 external/micro-ecc/libuECC_nrf51422_xxAC.a(uECC.c.obj)
                0x0002efb8                uECC_make_key
 .text.uECC_shared_secret
                0x0002f03c       0xc0 external/micro-ecc/libuECC_nrf51422_xxAC.a(uECC.c.obj)
                0x0002f03c                uECC_shared_secret
 .text.uECC_valid_point
                0x0002f0fc       0x86 external/micro-ecc/libuECC_nrf51422_xxAC.a(uECC.c.obj)
                0x0002f0fc                uECC_valid_point
 .text.uECC_valid_public_key
                0x0002f182       0x32 external/micro-ecc/libuECC_nrf51422_xxAC.a(uECC.c.obj)
                0x0002f182                uECC_valid_public_key
 .text          0x0002f1b4       0x14 c:/a/gcc_arm/6/bin/../lib/gcc/arm-none-eabi/6.3.1/thumb/v6-m\libgcc.a(_thumb1_case_uqi.o)
                0x0002f1b4                __gnu_thumb1_case_uqi
 .text          0x0002f1c8       0x14 c:/a/gcc_arm/6/bin/../lib/gcc/arm-none-eabi/6.3.1/thumb/v6-m\libgcc.a(_thumb1_case_uhi.o)
                0x0002f1c8                __gnu_thumb1_case_uhi
 .text          0x0002f1dc      0x114 c:/a/gcc_arm/6/bin/../lib/gcc/arm-none-eabi/6.3.1/thumb/v6-m\libgcc.a(_udivsi3.o)
                0x0002f1dc                __aeabi_uidiv
                0x0002f1dc                __udivsi3
                0x0002f2e8                __aeabi_uidivmod
 .text          0x0002f2f0      0x1d4 c:/a/gcc_arm/6/bin/../lib/gcc/arm-none-eabi/6.3.1/thumb/v6-m\libgcc.a(_divsi3.o)
                0x0002f2f0                __divsi3
                0x0002f2f0                __aeabi_idiv
                0x0002f4bc                __aeabi_idivmod
 .text          0x0002f4c4        0x4 c:/a/gcc_arm/6/bin/../lib/gcc/arm-none-eabi/6.3.1/thumb/v6-m\libgcc.a(_dvmd_tls.o)
                0x0002f4c4                __aeabi_idiv0
                0x0002f4c4                __aeabi_ldiv0
 .text          0x0002f4c8       0x54 c:/a/gcc_arm/6/bin/../lib/gcc/arm-none-eabi/6.3.1/thumb/v6-m\libgcc.a(_muldi3.o)
                0x0002f4c8                __muldi3
                0x0002f4c8                __aeabi_lmul
 .text.exit     0x0002f51c       0x2c c:/a/gcc_arm/6/bin/../lib/gcc/arm-none-eabi/6.3.1/../../../../arm-none-eabi/lib/thumb/v6-m\libg_nano.a(lib_a-exit.o)
                0x0002f51c                exit
 .text.__libc_init_array
                0x0002f548       0x48 c:/a/gcc_arm/6/bin/../lib/gcc/arm-none-eabi/6.3.1/../../../../arm-none-eabi/lib/thumb/v6-m\libg_nano.a(lib_a-init.o)
                0x0002f548                __libc_init_array
 .text.malloc   0x0002f590       0x14 c:/a/gcc_arm/6/bin/../lib/gcc/arm-none-eabi/6.3.1/../../../../arm-none-eabi/lib/thumb/v6-m\libg_nano.a(lib_a-malloc.o)
                0x0002f590                malloc
 .text.free     0x0002f5a4       0x14 c:/a/gcc_arm/6/bin/../lib/gcc/arm-none-eabi/6.3.1/../../../../arm-none-eabi/lib/thumb/v6-m\libg_nano.a(lib_a-malloc.o)
                0x0002f5a4                free
 .text.memcmp   0x0002f5b8       0x1e c:/a/gcc_arm/6/bin/../lib/gcc/arm-none-eabi/6.3.1/../../../../arm-none-eabi/lib/thumb/v6-m\libg_nano.a(lib_a-memcmp.o)
                0x0002f5b8                memcmp
 .text.memcpy   0x0002f5d6       0x12 c:/a/gcc_arm/6/bin/../lib/gcc/arm-none-eabi/6.3.1/../../../../arm-none-eabi/lib/thumb/v6-m\libg_nano.a(lib_a-memcpy-stub.o)
                0x0002f5d6                memcpy
 .text.memset   0x0002f5e8       0x10 c:/a/gcc_arm/6/bin/../lib/gcc/arm-none-eabi/6.3.1/../../../../arm-none-eabi/lib/thumb/v6-m\libg_nano.a(lib_a-memset.o)
                0x0002f5e8                memset
 .text._free_r  0x0002f5f8       0x94 c:/a/gcc_arm/6/bin/../lib/gcc/arm-none-eabi/6.3.1/../../../../arm-none-eabi/lib/thumb/v6-m\libg_nano.a(lib_a-nano-freer.o)
                0x0002f5f8                _free_r
 .text._malloc_r
                0x0002f68c       0xbc c:/a/gcc_arm/6/bin/../lib/gcc/arm-none-eabi/6.3.1/../../../../arm-none-eabi/lib/thumb/v6-m\libg_nano.a(lib_a-nano-mallocr.o)
                0x0002f68c                _malloc_r
 .text._sbrk_r  0x0002f748       0x24 c:/a/gcc_arm/6/bin/../lib/gcc/arm-none-eabi/6.3.1/../../../../arm-none-eabi/lib/thumb/v6-m\libg_nano.a(lib_a-sbrkr.o)
                0x0002f748                _sbrk_r
 .text.strcpy   0x0002f76c       0x10 c:/a/gcc_arm/6/bin/../lib/gcc/arm-none-eabi/6.3.1/../../../../arm-none-eabi/lib/thumb/v6-m\libg_nano.a(lib_a-strcpy.o)
                0x0002f76c                strcpy
 .text          0x0002f77c        0xe c:/a/gcc_arm/6/bin/../lib/gcc/arm-none-eabi/6.3.1/../../../../arm-none-eabi/lib/thumb/v6-m\libg_nano.a(lib_a-strlen.o)
                0x0002f77c                strlen
 .text.strrchr  0x0002f78a       0x24 c:/a/gcc_arm/6/bin/../lib/gcc/arm-none-eabi/6.3.1/../../../../arm-none-eabi/lib/thumb/v6-m\libg_nano.a(lib_a-strrchr.o)
                0x0002f78a                strrchr
 .text.__malloc_lock
                0x0002f7ae        0x2 c:/a/gcc_arm/6/bin/../lib/gcc/arm-none-eabi/6.3.1/../../../../arm-none-eabi/lib/thumb/v6-m\libg_nano.a(lib_a-mlock.o)
                0x0002f7ae                __malloc_lock
 .text.__malloc_unlock
                0x0002f7b0        0x2 c:/a/gcc_arm/6/bin/../lib/gcc/arm-none-eabi/6.3.1/../../../../arm-none-eabi/lib/thumb/v6-m\libg_nano.a(lib_a-mlock.o)
                0x0002f7b0                __malloc_unlock
 .text.strchr   0x0002f7b2       0x1c c:/a/gcc_arm/6/bin/../lib/gcc/arm-none-eabi/6.3.1/../../../../arm-none-eabi/lib/thumb/v6-m\libg_nano.a(lib_a-strchr.o)
                0x0002f7b2                strchr
 *fill*         0x0002f7ce        0x2 
 .text._sbrk    0x0002f7d0       0x1c c:/a/gcc_arm/6/bin/../lib/gcc/arm-none-eabi/6.3.1/../../../../arm-none-eabi/lib/thumb/v6-m\libnosys.a(sbrk.o)
                0x0002f7d0                _sbrk
 .text._exit    0x0002f7ec        0x4 c:/a/gcc_arm/6/bin/../lib/gcc/arm-none-eabi/6.3.1/../../../../arm-none-eabi/lib/thumb/v6-m\libnosys.a(_exit.o)
                0x0002f7ec                _exit
 *(.init)
 .init          0x0002f7f0        0x4 c:/a/gcc_arm/6/bin/../lib/gcc/arm-none-eabi/6.3.1/thumb/v6-m/crti.o
                0x0002f7f0                _init
 .init          0x0002f7f4        0x8 c:/a/gcc_arm/6/bin/../lib/gcc/arm-none-eabi/6.3.1/thumb/v6-m/crtn.o
 *(.fini)
 .fini          0x0002f7fc        0x4 c:/a/gcc_arm/6/bin/../lib/gcc/arm-none-eabi/6.3.1/thumb/v6-m/crti.o
                0x0002f7fc                _fini
 .fini          0x0002f800        0x8 c:/a/gcc_arm/6/bin/../lib/gcc/arm-none-eabi/6.3.1/thumb/v6-m/crtn.o
 *crtbegin.o(.ctors)
 *crtbegin?.o(.ctors)
 *(EXCLUDE_FILE(*crtend.o *crtend?.o) .ctors)
 *(SORT(.ctors.*))
 *(.ctors)
 *crtbegin.o(.dtors)
 *crtbegin?.o(.dtors)
 *(EXCLUDE_FILE(*crtend.o *crtend?.o) .dtors)
 *(SORT(.dtors.*))
 *(.dtors)
 *(.rodata*)
 .rodata.configuration_setup.str1.1
                0x0002f808       0x48 examples/pb_remote/server/CMakeFiles/pb_remote_server_nrf51422_xxAC_s130_2.0.1.dir/src/main.c.obj
 .rodata.main.str1.1
                0x0002f850       0x44 examples/pb_remote/server/CMakeFiles/pb_remote_server_nrf51422_xxAC_s130_2.0.1.dir/src/main.c.obj
 .rodata.provisioning_complete.str1.1
                0x0002f894       0x1a examples/pb_remote/server/CMakeFiles/pb_remote_server_nrf51422_xxAC_s130_2.0.1.dir/src/main.c.obj
 .rodata.static_auth_data.10208
                0x0002f8ae       0x10 examples/pb_remote/server/CMakeFiles/pb_remote_server_nrf51422_xxAC_s130_2.0.1.dir/src/main.c.obj
 .rodata.HardFault_Handler.str1.1
                0x0002f8be        0xe examples/pb_remote/server/CMakeFiles/pb_remote_server_nrf51422_xxAC_s130_2.0.1.dir/__/__/nrf_mesh_sdk.c.obj
 .rodata.app_error_handler.str1.1
                0x0002f8cc       0x1d examples/pb_remote/server/CMakeFiles/pb_remote_server_nrf51422_xxAC_s130_2.0.1.dir/__/__/nrf_mesh_sdk.c.obj
 .rodata.mesh_assert_handler.str1.1
                0x0002f8e9       0x34 examples/pb_remote/server/CMakeFiles/pb_remote_server_nrf51422_xxAC_s130_2.0.1.dir/__/__/nrf_mesh_sdk.c.obj
 .rodata.m_buttons_list
                0x0002f91d        0x4 examples/pb_remote/server/CMakeFiles/pb_remote_server_nrf51422_xxAC_s130_2.0.1.dir/__/__/common/src/simple_hal.c.obj
 *fill*         0x0002f921        0x3 
 .rodata.m_prov_callbacks
                0x0002f924       0x10 examples/pb_remote/server/CMakeFiles/pb_remote_server_nrf51422_xxAC_s130_2.0.1.dir/__/__/__/mesh/prov/src/prov_provisionee.c.obj
 .rodata.prov_provisionee_cb_ack_received.str1.1
                0x0002f934       0x53 examples/pb_remote/server/CMakeFiles/pb_remote_server_nrf51422_xxAC_s130_2.0.1.dir/__/__/__/mesh/prov/src/prov_provisionee.c.obj
 .rodata.pdu_sizes.8424
                0x0002f987        0xa examples/pb_remote/server/CMakeFiles/pb_remote_server_nrf51422_xxAC_s130_2.0.1.dir/__/__/__/mesh/prov/src/provisioning.c.obj
 .rodata.alphanumeric.8529
                0x0002f991       0x25 examples/pb_remote/server/CMakeFiles/pb_remote_server_nrf51422_xxAC_s130_2.0.1.dir/__/__/__/mesh/prov/src/prov_utils.c.obj
 *fill*         0x0002f9b6        0x2 
 .rodata.numeric_max.8523
                0x0002f9b8       0x24 examples/pb_remote/server/CMakeFiles/pb_remote_server_nrf51422_xxAC_s130_2.0.1.dir/__/__/__/mesh/prov/src/prov_utils.c.obj
 .rodata.prov_utils_authentication_values_derive.str1.1
                0x0002f9dc        0x5 examples/pb_remote/server/CMakeFiles/pb_remote_server_nrf51422_xxAC_s130_2.0.1.dir/__/__/__/mesh/prov/src/prov_utils.c.obj
 .rodata.prov_utils_derive_keys.str1.1
                0x0002f9e1        0xf examples/pb_remote/server/CMakeFiles/pb_remote_server_nrf51422_xxAC_s130_2.0.1.dir/__/__/__/mesh/prov/src/prov_utils.c.obj
 .rodata.add_active_bearer.str1.1
                0x0002f9f0       0x2c examples/pb_remote/server/CMakeFiles/pb_remote_server_nrf51422_xxAC_s130_2.0.1.dir/__/__/__/mesh/prov/src/prov_bearer_adv.c.obj
 .rodata.crctable.8282
                0x0002fa1c      0x100 examples/pb_remote/server/CMakeFiles/pb_remote_server_nrf51422_xxAC_s130_2.0.1.dir/__/__/__/mesh/prov/src/prov_bearer_adv.c.obj
 .rodata.interface.8512
                0x0002fb1c       0x14 examples/pb_remote/server/CMakeFiles/pb_remote_server_nrf51422_xxAC_s130_2.0.1.dir/__/__/__/mesh/prov/src/prov_bearer_adv.c.obj
 .rodata.prov_bearer_adv_packet_in.str1.1
                0x0002fb30      0x26e examples/pb_remote/server/CMakeFiles/pb_remote_server_nrf51422_xxAC_s130_2.0.1.dir/__/__/__/mesh/prov/src/prov_bearer_adv.c.obj
 .rodata.tx_retry_cb.str1.1
                0x0002fd9e       0x37 examples/pb_remote/server/CMakeFiles/pb_remote_server_nrf51422_xxAC_s130_2.0.1.dir/__/__/__/mesh/prov/src/prov_bearer_adv.c.obj
 *fill*         0x0002fdd5        0x1 
 .rodata        0x0002fdd6       0x30 examples/pb_remote/server/CMakeFiles/pb_remote_server_nrf51422_xxAC_s130_2.0.1.dir/__/__/__/models/pb_remote/src/pb_remote_server.c.obj
 .rodata.do_state_change.str1.1
                0x0002fe06       0x1e examples/pb_remote/server/CMakeFiles/pb_remote_server_nrf51422_xxAC_s130_2.0.1.dir/__/__/__/models/pb_remote/src/pb_remote_server.c.obj
 .rodata.local_link_open.isra.14.str1.1
                0x0002fe24       0x27 examples/pb_remote/server/CMakeFiles/pb_remote_server_nrf51422_xxAC_s130_2.0.1.dir/__/__/__/models/pb_remote/src/pb_remote_server.c.obj
 *fill*         0x0002fe4b        0x1 
 .rodata.m_opcode_handlers
                0x0002fe4c       0x48 examples/pb_remote/server/CMakeFiles/pb_remote_server_nrf51422_xxAC_s130_2.0.1.dir/__/__/__/models/pb_remote/src/pb_remote_server.c.obj
 .rodata.m_pb_remote_server_event_handler_callbacks
                0x0002fe94       0x3c examples/pb_remote/server/CMakeFiles/pb_remote_server_nrf51422_xxAC_s130_2.0.1.dir/__/__/__/models/pb_remote/src/pb_remote_server.c.obj
 .rodata.pb_remote_server_event_link_close_cb.str1.1
                0x0002fed0       0x1d examples/pb_remote/server/CMakeFiles/pb_remote_server_nrf51422_xxAC_s130_2.0.1.dir/__/__/__/models/pb_remote/src/pb_remote_server.c.obj
 .rodata.pb_remote_server_event_link_established_cb.str1.1
                0x0002feed       0x2f examples/pb_remote/server/CMakeFiles/pb_remote_server_nrf51422_xxAC_s130_2.0.1.dir/__/__/__/models/pb_remote/src/pb_remote_server.c.obj
 .rodata.pb_remote_server_event_link_status_cb.str1.1
                0x0002ff1c       0x8d examples/pb_remote/server/CMakeFiles/pb_remote_server_nrf51422_xxAC_s130_2.0.1.dir/__/__/__/models/pb_remote/src/pb_remote_server.c.obj
 .rodata.pb_remote_server_event_local_ack_cb.str1.1
                0x0002ffa9       0x16 examples/pb_remote/server/CMakeFiles/pb_remote_server_nrf51422_xxAC_s130_2.0.1.dir/__/__/__/models/pb_remote/src/pb_remote_server.c.obj
 .rodata.pb_remote_server_event_local_packet_cb.str1.1
                0x0002ffbf       0x2a examples/pb_remote/server/CMakeFiles/pb_remote_server_nrf51422_xxAC_s130_2.0.1.dir/__/__/__/models/pb_remote/src/pb_remote_server.c.obj
 .rodata.pb_remote_server_event_packet_transfer_cb.str1.1
                0x0002ffe9       0x2d examples/pb_remote/server/CMakeFiles/pb_remote_server_nrf51422_xxAC_s130_2.0.1.dir/__/__/__/models/pb_remote/src/pb_remote_server.c.obj
 .rodata.pb_remote_server_event_scan_report_status_cb.str1.1
                0x00030016       0x1e examples/pb_remote/server/CMakeFiles/pb_remote_server_nrf51422_xxAC_s130_2.0.1.dir/__/__/__/models/pb_remote/src/pb_remote_server.c.obj
 .rodata.pb_remote_server_event_scan_start_filter_cb.str1.1
                0x00030034       0x16 examples/pb_remote/server/CMakeFiles/pb_remote_server_nrf51422_xxAC_s130_2.0.1.dir/__/__/__/models/pb_remote/src/pb_remote_server.c.obj
 .rodata.pb_remote_server_event_transfer_status_cb.str1.1
                0x0003004a       0x69 examples/pb_remote/server/CMakeFiles/pb_remote_server_nrf51422_xxAC_s130_2.0.1.dir/__/__/__/models/pb_remote/src/pb_remote_server.c.obj
 .rodata.pb_remote_server_event_unprov_uuid_cb.str1.1
                0x000300b3       0x19 examples/pb_remote/server/CMakeFiles/pb_remote_server_nrf51422_xxAC_s130_2.0.1.dir/__/__/__/models/pb_remote/src/pb_remote_server.c.obj
 .rodata.pb_remote_server_process.str1.1
                0x000300cc        0xc examples/pb_remote/server/CMakeFiles/pb_remote_server_nrf51422_xxAC_s130_2.0.1.dir/__/__/__/models/pb_remote/src/pb_remote_server.c.obj
 .rodata.prov_callbacks.9386
                0x000300d8       0x10 examples/pb_remote/server/CMakeFiles/pb_remote_server_nrf51422_xxAC_s130_2.0.1.dir/__/__/__/models/pb_remote/src/pb_remote_server.c.obj
 .rodata.server_reliable_status_cb.str1.1
                0x000300e8       0x3f examples/pb_remote/server/CMakeFiles/pb_remote_server_nrf51422_xxAC_s130_2.0.1.dir/__/__/__/models/pb_remote/src/pb_remote_server.c.obj
 .rodata.mesh_evt_cb.str1.1
                0x00030127       0x2f examples/pb_remote/server/CMakeFiles/pb_remote_server_nrf51422_xxAC_s130_2.0.1.dir/__/__/__/mesh/access/src/access.c.obj
 .rodata.multiply_de_bruijn_bit_position.6642
                0x00030156       0x20 examples/pb_remote/server/CMakeFiles/pb_remote_server_nrf51422_xxAC_s130_2.0.1.dir/__/__/__/mesh/access/src/access.c.obj
 .rodata.packet_tx.str1.1
                0x00030176       0x13 examples/pb_remote/server/CMakeFiles/pb_remote_server_nrf51422_xxAC_s130_2.0.1.dir/__/__/__/mesh/access/src/access.c.obj
 *fill*         0x00030189        0x3 
 .rodata.m_flash_groups
                0x0003018c       0xa8 examples/pb_remote/server/CMakeFiles/pb_remote_server_nrf51422_xxAC_s130_2.0.1.dir/__/__/__/mesh/access/src/device_state_manager.c.obj
 .rodata.default_mesh_assertion_handler.str1.1
                0x00030234       0x19 examples/pb_remote/server/CMakeFiles/pb_remote_server_nrf51422_xxAC_s130_2.0.1.dir/__/__/__/mesh/access/src/nrf_mesh_node_config.c.obj
 .rodata.default_softdevice_assertion_handler.str1.1
                0x00030234       0x47 examples/pb_remote/server/CMakeFiles/pb_remote_server_nrf51422_xxAC_s130_2.0.1.dir/__/__/__/mesh/access/src/nrf_mesh_node_config.c.obj
 *fill*         0x0003027b        0x1 
 .rodata        0x0003027c        0x8 examples/pb_remote/server/CMakeFiles/pb_remote_server_nrf51422_xxAC_s130_2.0.1.dir/__/__/__/models/config/src/config_server.c.obj
 .rodata.CSWTCH.173
                0x00030284        0xc examples/pb_remote/server/CMakeFiles/pb_remote_server_nrf51422_xxAC_s130_2.0.1.dir/__/__/__/models/config/src/config_server.c.obj
 .rodata.CSWTCH.185
                0x00030290        0x7 examples/pb_remote/server/CMakeFiles/pb_remote_server_nrf51422_xxAC_s130_2.0.1.dir/__/__/__/models/config/src/config_server.c.obj
 *fill*         0x00030297        0x1 
 .rodata.opcode_handlers
                0x00030298      0x170 examples/pb_remote/server/CMakeFiles/pb_remote_server_nrf51422_xxAC_s130_2.0.1.dir/__/__/__/models/config/src/config_server.c.obj
 .rodata.m_opcode_handlers
                0x00030408       0x58 examples/pb_remote/server/CMakeFiles/pb_remote_server_nrf51422_xxAC_s130_2.0.1.dir/__/__/__/models/health/src/health_server.c.obj
 .rodata.multiply_de_bruijn_bit_position.6686
                0x00030460       0x20 examples/pb_remote/server/CMakeFiles/pb_remote_server_nrf51422_xxAC_s130_2.0.1.dir/__/__/__/models/health/src/health_server.c.obj
 .rodata.types_lookup.6447
                0x00030480        0x4 mesh/core/libmesh_core_nrf51422_xxAC.a(nrf_mesh_utils.c.obj)
 .rodata.nrf_mesh_listen.str1.1
                0x00030484       0x70 mesh/core/libmesh_core_nrf51422_xxAC.a(nrf_mesh.c.obj)
 .rodata.CSWTCH.9
                0x000304f4       0x10 mesh/core/libmesh_core_nrf51422_xxAC.a(hal.c.obj)
 .rodata        0x00030504       0x15 mesh/core/libmesh_core_nrf51422_xxAC.a(enc.c.obj)
 .rodata.network_packet_in.str1.1
                0x00030519       0x40 mesh/core/libmesh_core_nrf51422_xxAC.a(network.c.obj)
                                 0x48 (size before relaxing)
 .rodata.network_packet_send.str1.1
                0x00030559       0x49 mesh/core/libmesh_core_nrf51422_xxAC.a(network.c.obj)
 .rodata        0x000305a2        0x7 mesh/core/libmesh_core_nrf51422_xxAC.a(nrf_mesh_keygen.c.obj)
 .rodata.log_callback_rtt.str1.1
                0x000305a9       0x15 mesh/core/libmesh_core_nrf51422_xxAC.a(log.c.obj)
 .rodata.str1.1
                0x000305be       0x11 mesh/core/libmesh_core_nrf51422_xxAC.a(log.c.obj)
 *fill*         0x000305cf        0x1 
 .rodata.INVALID_HEADER
                0x000305d0        0x4 mesh/core/libmesh_core_nrf51422_xxAC.a(flash_manager.c.obj)
                0x000305d0                INVALID_HEADER
 .rodata.PADDING_HEADER
                0x000305d4        0x4 mesh/core/libmesh_core_nrf51422_xxAC.a(flash_manager.c.obj)
                0x000305d4                PADDING_HEADER
 .rodata.SEAL_HEADER
                0x000305d8        0x4 mesh/core/libmesh_core_nrf51422_xxAC.a(flash_manager.c.obj)
                0x000305d8                SEAL_HEADER
 .rodata.process_action_queue.str1.1
                0x000305dc       0x21 mesh/core/libmesh_core_nrf51422_xxAC.a(flash_manager.c.obj)
                                 0x4f (size before relaxing)
 .rodata.beacon_packet_in.str1.1
                0x000305fd       0x51 mesh/core/libmesh_core_nrf51422_xxAC.a(beacon.c.obj)
                                 0x59 (size before relaxing)
 *fill*         0x0003064e        0x2 
 .rodata.cp_handler
                0x00030650        0x8 mesh/core/libmesh_core_nrf51422_xxAC.a(heartbeat.c.obj)
 .rodata.net_beacon_init.str1.1
                0x00030658        0x5 mesh/core/libmesh_core_nrf51422_xxAC.a(net_beacon.c.obj)
 *fill*         0x0003065d        0x3 
 .rodata.m_interface
                0x00030660        0xc mesh/core/libmesh_core_nrf51422_xxAC.a(core_tx_adv.c.obj)
 .rodata.radio_mode_to_us_per_byte.6840
                0x0003066c        0x4 mesh/core/libmesh_core_nrf51422_xxAC.a(broadcast.c.obj)
 .rodata.channel_rf_offsets.6081
                0x00030670       0x28 mesh/core/libmesh_core_nrf51422_xxAC.a(radio_config.c.obj)
 .rodata        0x00030698        0x3 mesh/core/libmesh_core_nrf51422_xxAC.a(scanner.c.obj)
 .rodata.sar_ctx_cancel.str1.1
                0x0003069b       0x18 mesh/core/libmesh_core_nrf51422_xxAC.a(transport.c.obj)
 .rodata.sar_ctx_tx_complete.str1.1
                0x000306b3       0x1d mesh/core/libmesh_core_nrf51422_xxAC.a(transport.c.obj)
                                 0x4b (size before relaxing)
 .rodata.test_transport_decrypt.str1.1
                0x000306d0       0x13 mesh/core/libmesh_core_nrf51422_xxAC.a(transport.c.obj)
 .rodata.transport_packet_in.str1.1
                0x000306e3       0x24 mesh/core/libmesh_core_nrf51422_xxAC.a(transport.c.obj)
 .rodata.upper_transport_access_packet_in.str1.1
                0x00030707       0x29 mesh/core/libmesh_core_nrf51422_xxAC.a(transport.c.obj)
 .rodata.upper_transport_packet_in.str1.1
                0x00030730       0x2e mesh/core/libmesh_core_nrf51422_xxAC.a(transport.c.obj)
 .rodata.upper_transport_tx.str1.1
                0x0003075e       0x2c mesh/core/libmesh_core_nrf51422_xxAC.a(transport.c.obj)
                                 0x34 (size before relaxing)
 .rodata.flash_manager_defrag.str1.1
                0x0003078a       0x28 mesh/core/libmesh_core_nrf51422_xxAC.a(flash_manager_defrag.c.obj)
                                 0x56 (size before relaxing)
 *fill*         0x000307b2        0x2 
 .rodata.m_procedure_steps
                0x000307b4       0x28 mesh/core/libmesh_core_nrf51422_xxAC.a(flash_manager_defrag.c.obj)
 .rodata.m_all_operations
                0x000307dc       0x10 mesh/core/libmesh_core_nrf51422_xxAC.a(mesh_flash.c.obj)
 .rodata.Rb.5046
                0x000307ec       0x10 mesh/core/libmesh_core_nrf51422_xxAC.a(aes_cmac.c.obj)
 .rodata._DoInit.str1.1
                0x000307fc       0x14 external/rtt/librtt_nrf51422_xxAC.a(SEGGER_RTT.c.obj)
 .rodata._aV2C.4374
                0x00030810       0x10 external/rtt/librtt_nrf51422_xxAC.a(SEGGER_RTT_printf.c.obj)
 .rodata.curve_secp256r1
                0x00030820       0xb0 external/micro-ecc/libuECC_nrf51422_xxAC.a(uECC.c.obj)
 .rodata._global_impure_ptr
                0x000308d0        0x4 c:/a/gcc_arm/6/bin/../lib/gcc/arm-none-eabi/6.3.1/../../../../arm-none-eabi/lib/thumb/v6-m\libg_nano.a(lib_a-impure.o)
                0x000308d0                _global_impure_ptr
 *(.eh_frame*)
 .eh_frame      0x000308d4        0x0 c:/a/gcc_arm/6/bin/../lib/gcc/arm-none-eabi/6.3.1/thumb/v6-m/crtbegin.o
 .eh_frame      0x000308d4        0x4 c:/a/gcc_arm/6/bin/../lib/gcc/arm-none-eabi/6.3.1/thumb/v6-m/crtend.o

.glue_7         0x000308d8        0x0
 .glue_7        0x000308d8        0x0 linker stubs

.glue_7t        0x000308d8        0x0
 .glue_7t       0x000308d8        0x0 linker stubs

.vfp11_veneer   0x000308d8        0x0
 .vfp11_veneer  0x000308d8        0x0 linker stubs

.v4_bx          0x000308d8        0x0
 .v4_bx         0x000308d8        0x0 linker stubs

.iplt           0x000308d8        0x0
 .iplt          0x000308d8        0x0 c:/a/gcc_arm/6/bin/../lib/gcc/arm-none-eabi/6.3.1/thumb/v6-m/crtbegin.o

.pwr_mgmt_data  0x000308d8        0x0
                [!provide]                PROVIDE (__start_pwr_mgmt_data, .)
 *(SORT(.pwr_mgmt_data*))
                [!provide]                PROVIDE (__stop_pwr_mgmt_data, .)

.log_const_data
                0x000308d8        0x0
                [!provide]                PROVIDE (__start_log_const_data, .)
 *(.log_const_data)
                [!provide]                PROVIDE (__stop_log_const_data, .)

.cli_command    0x000308d8        0x0
                [!provide]                PROVIDE (__start_cli_command, .)
 *(.cli_command)
                [!provide]                PROVIDE (__stop_cli_command, .)

.sdh_stack_observers
                0x000308d8        0x0
                [!provide]                PROVIDE (__start_sdh_stack_observers, .)
 *(SORT(.sdh_stack_observers*))
                [!provide]                PROVIDE (__stop_sdh_stack_observers, .)

.sdh_req_observers
                0x000308d8        0x0
                [!provide]                PROVIDE (__start_sdh_req_observers, .)
 *(SORT(.sdh_req_observers*))
                [!provide]                PROVIDE (__stop_sdh_req_observers, .)

.sdh_state_observers
                0x000308d8        0x0
                [!provide]                PROVIDE (__start_sdh_state_observers, .)
 *(SORT(.sdh_state_observers*))
                [!provide]                PROVIDE (__stop_sdh_state_observers, .)

.sdh_ant_observers
                0x000308d8        0x0
                [!provide]                PROVIDE (__start_sdh_ant_observers, .)
 *(SORT(.sdh_ant_observers*))
                [!provide]                PROVIDE (__stop_sdh_ant_observers, .)

.sdh_ble_observers
                0x000308d8        0x0
                [!provide]                PROVIDE (__start_sdh_ble_observers, .)
 *(SORT(.sdh_ble_observers*))
                [!provide]                PROVIDE (__stop_sdh_ble_observers, .)

.sdh_soc_observers
                0x000308d8        0x0
                [!provide]                PROVIDE (__start_sdh_soc_observers, .)
 *(SORT(.sdh_soc_observers*))
                [!provide]                PROVIDE (__stop_sdh_soc_observers, .)

.ARM.extab
 *(.ARM.extab* .gnu.linkonce.armextab.*)
                0x000308d8                __exidx_start = .

.ARM.exidx      0x000308d8        0x8
 *(.ARM.exidx* .gnu.linkonce.armexidx.*)
 .ARM.exidx     0x000308d8        0x8 c:/a/gcc_arm/6/bin/../lib/gcc/arm-none-eabi/6.3.1/../../../../arm-none-eabi/lib/thumb/v6-m/crt0.o
                0x000308e0                __exidx_end = .
                0x000308e0                __etext = .

.rel.dyn        0x000308e0        0x0
 .rel.iplt      0x000308e0        0x0 c:/a/gcc_arm/6/bin/../lib/gcc/arm-none-eabi/6.3.1/thumb/v6-m/crtbegin.o

.data           0x200022d8      0x170 load address 0x000308e0
                0x200022d8                __data_start__ = .
 *(vtable)
 *(.data*)
 .data.config_params.10209
                0x200022d8       0x40 examples/pb_remote/server/CMakeFiles/pb_remote_server_nrf51422_xxAC_s130_2.0.1.dir/src/main.c.obj
 .data.m_async_process_flag
                0x20002318        0x4 examples/pb_remote/server/CMakeFiles/pb_remote_server_nrf51422_xxAC_s130_2.0.1.dir/__/__/__/mesh/prov/src/prov_bearer_adv.c.obj
 .data.flash_add_mem_available_struct.7714
                0x2000231c       0x10 examples/pb_remote/server/CMakeFiles/pb_remote_server_nrf51422_xxAC_s130_2.0.1.dir/__/__/__/mesh/access/src/access.c.obj
 .data.flash_clear_mem_available_struct.7803
                0x2000232c       0x10 examples/pb_remote/server/CMakeFiles/pb_remote_server_nrf51422_xxAC_s130_2.0.1.dir/__/__/__/mesh/access/src/access.c.obj
 .data.flash_store_mem_available_struct.7827
                0x2000233c       0x10 examples/pb_remote/server/CMakeFiles/pb_remote_server_nrf51422_xxAC_s130_2.0.1.dir/__/__/__/mesh/access/src/access.c.obj
 .data.m_default_ttl
                0x2000234c        0x1 examples/pb_remote/server/CMakeFiles/pb_remote_server_nrf51422_xxAC_s130_2.0.1.dir/__/__/__/mesh/access/src/access.c.obj
 *fill*         0x2000234d        0x3 
 .data.mem_listener.8022
                0x20002350       0x10 examples/pb_remote/server/CMakeFiles/pb_remote_server_nrf51422_xxAC_s130_2.0.1.dir/__/__/__/mesh/access/src/device_state_manager.c.obj
 .data.mem_listener.8048
                0x20002360       0x10 examples/pb_remote/server/CMakeFiles/pb_remote_server_nrf51422_xxAC_s130_2.0.1.dir/__/__/__/mesh/access/src/device_state_manager.c.obj
 .data.m_config_server_handle
                0x20002370        0x2 examples/pb_remote/server/CMakeFiles/pb_remote_server_nrf51422_xxAC_s130_2.0.1.dir/__/__/__/models/config/src/config_server.c.obj
 *fill*         0x20002372        0x2 
 .data.SystemCoreClock
                0x20002374        0x4 examples/pb_remote/server/CMakeFiles/pb_remote_server_nrf51422_xxAC_s130_2.0.1.dir/__/__/__/external/nRF5_SDK_14.2.0_17b948a/components/toolchain/system_nrf51.c.obj
                0x20002374                SystemCoreClock
 .data.mem_listener.7168
                0x20002378       0x10 mesh/core/libmesh_core_nrf51422_xxAC.a(net_state.c.obj)
 .data.mem_listener.7173
                0x20002388       0x10 mesh/core/libmesh_core_nrf51422_xxAC.a(net_state.c.obj)
 .data.mem_listener.7187
                0x20002398       0x10 mesh/core/libmesh_core_nrf51422_xxAC.a(net_state.c.obj)
 .data.mem_listener.7204
                0x200023a8       0x10 mesh/core/libmesh_core_nrf51422_xxAC.a(net_state.c.obj)
 .data.m_nrf_mesh_listener
                0x200023b8        0xc mesh/core/libmesh_core_nrf51422_xxAC.a(nrf_mesh.c.obj)
 .data.g_log_dbg_lvl
                0x200023c4        0x4 mesh/core/libmesh_core_nrf51422_xxAC.a(log.c.obj)
                0x200023c4                g_log_dbg_lvl
 .data.g_log_dbg_msk
                0x200023c8        0x4 mesh/core/libmesh_core_nrf51422_xxAC.a(log.c.obj)
                0x200023c8                g_log_dbg_msk
 .data.g_log_hex_digits
                0x200023cc        0x4 mesh/core/libmesh_core_nrf51422_xxAC.a(log.c.obj)
                0x200023cc                g_log_hex_digits
 .data.m_log_callback
                0x200023d0        0x4 mesh/core/libmesh_core_nrf51422_xxAC.a(log.c.obj)
                0x200023d0                m_log_callback
 .data.g_rng_function
                0x200023d4        0x4 external/micro-ecc/libuECC_nrf51422_xxAC.a(uECC.c.obj)
 .data._impure_ptr
                0x200023d8        0x4 c:/a/gcc_arm/6/bin/../lib/gcc/arm-none-eabi/6.3.1/../../../../arm-none-eabi/lib/thumb/v6-m\libg_nano.a(lib_a-impure.o)
                0x200023d8                _impure_ptr
 .data.impure_data
                0x200023dc       0x60 c:/a/gcc_arm/6/bin/../lib/gcc/arm-none-eabi/6.3.1/../../../../arm-none-eabi/lib/thumb/v6-m\libg_nano.a(lib_a-impure.o)
                0x2000243c                . = ALIGN (0x4)
                0x2000243c                PROVIDE (__preinit_array_start, .)
 *(.preinit_array)
                0x2000243c                PROVIDE (__preinit_array_end, .)
                0x2000243c                . = ALIGN (0x4)
                0x2000243c                PROVIDE (__init_array_start, .)
 *(SORT(.init_array.*))
 *(.init_array)
 .init_array    0x2000243c        0x4 c:/a/gcc_arm/6/bin/../lib/gcc/arm-none-eabi/6.3.1/thumb/v6-m/crtbegin.o
                0x20002440                PROVIDE (__init_array_end, .)
                0x20002440                . = ALIGN (0x4)
                [!provide]                PROVIDE (__fini_array_start, .)
 *(SORT(.fini_array.*))
 *(.fini_array)
 .fini_array    0x20002440        0x4 c:/a/gcc_arm/6/bin/../lib/gcc/arm-none-eabi/6.3.1/thumb/v6-m/crtbegin.o
                [!provide]                PROVIDE (__fini_array_end, .)
 *(.jcr*)
 .jcr           0x20002444        0x0 c:/a/gcc_arm/6/bin/../lib/gcc/arm-none-eabi/6.3.1/thumb/v6-m/crtbegin.o
 .jcr           0x20002444        0x4 c:/a/gcc_arm/6/bin/../lib/gcc/arm-none-eabi/6.3.1/thumb/v6-m/crtend.o
                0x20002448                . = ALIGN (0x4)
                0x20002448                __data_end__ = .
LOAD c:/a/gcc_arm/6/bin/../lib/gcc/arm-none-eabi/6.3.1/thumb/v6-m/crti.o
LOAD c:/a/gcc_arm/6/bin/../lib/gcc/arm-none-eabi/6.3.1/thumb/v6-m/crtbegin.o
LOAD c:/a/gcc_arm/6/bin/../lib/gcc/arm-none-eabi/6.3.1/../../../../arm-none-eabi/lib/thumb/v6-m/crt0.o
LOAD examples/pb_remote/server/CMakeFiles/pb_remote_server_nrf51422_xxAC_s130_2.0.1.dir/src/main.c.obj
LOAD examples/pb_remote/server/CMakeFiles/pb_remote_server_nrf51422_xxAC_s130_2.0.1.dir/__/__/nrf_mesh_sdk.c.obj
LOAD examples/pb_remote/server/CMakeFiles/pb_remote_server_nrf51422_xxAC_s130_2.0.1.dir/__/__/common/src/simple_hal.c.obj
LOAD examples/pb_remote/server/CMakeFiles/pb_remote_server_nrf51422_xxAC_s130_2.0.1.dir/__/__/nrf_mesh_weak.c.obj
LOAD examples/pb_remote/server/CMakeFiles/pb_remote_server_nrf51422_xxAC_s130_2.0.1.dir/__/__/__/mesh/prov/src/prov_provisionee.c.obj
LOAD examples/pb_remote/server/CMakeFiles/pb_remote_server_nrf51422_xxAC_s130_2.0.1.dir/__/__/__/mesh/prov/src/nrf_mesh_prov.c.obj
LOAD examples/pb_remote/server/CMakeFiles/pb_remote_server_nrf51422_xxAC_s130_2.0.1.dir/__/__/__/mesh/prov/src/provisioning.c.obj
LOAD examples/pb_remote/server/CMakeFiles/pb_remote_server_nrf51422_xxAC_s130_2.0.1.dir/__/__/__/mesh/prov/src/prov_beacon.c.obj
LOAD examples/pb_remote/server/CMakeFiles/pb_remote_server_nrf51422_xxAC_s130_2.0.1.dir/__/__/__/mesh/prov/src/prov_utils.c.obj
LOAD examples/pb_remote/server/CMakeFiles/pb_remote_server_nrf51422_xxAC_s130_2.0.1.dir/__/__/__/mesh/prov/src/prov_bearer_adv.c.obj
LOAD examples/pb_remote/server/CMakeFiles/pb_remote_server_nrf51422_xxAC_s130_2.0.1.dir/__/__/__/models/pb_remote/src/pb_remote_server.c.obj
LOAD examples/pb_remote/server/CMakeFiles/pb_remote_server_nrf51422_xxAC_s130_2.0.1.dir/__/__/__/mesh/access/src/access_publish.c.obj
LOAD examples/pb_remote/server/CMakeFiles/pb_remote_server_nrf51422_xxAC_s130_2.0.1.dir/__/__/__/mesh/access/src/access.c.obj
LOAD examples/pb_remote/server/CMakeFiles/pb_remote_server_nrf51422_xxAC_s130_2.0.1.dir/__/__/__/mesh/access/src/access_reliable.c.obj
LOAD examples/pb_remote/server/CMakeFiles/pb_remote_server_nrf51422_xxAC_s130_2.0.1.dir/__/__/__/mesh/access/src/device_state_manager.c.obj
LOAD examples/pb_remote/server/CMakeFiles/pb_remote_server_nrf51422_xxAC_s130_2.0.1.dir/__/__/__/mesh/access/src/nrf_mesh_node_config.c.obj
LOAD examples/pb_remote/server/CMakeFiles/pb_remote_server_nrf51422_xxAC_s130_2.0.1.dir/__/__/__/models/config/src/composition_data.c.obj
LOAD examples/pb_remote/server/CMakeFiles/pb_remote_server_nrf51422_xxAC_s130_2.0.1.dir/__/__/__/models/config/src/config_server.c.obj
LOAD examples/pb_remote/server/CMakeFiles/pb_remote_server_nrf51422_xxAC_s130_2.0.1.dir/__/__/__/models/config/src/packed_index_list.c.obj
LOAD examples/pb_remote/server/CMakeFiles/pb_remote_server_nrf51422_xxAC_s130_2.0.1.dir/__/__/__/models/health/src/health_server.c.obj
LOAD examples/pb_remote/server/CMakeFiles/pb_remote_server_nrf51422_xxAC_s130_2.0.1.dir/__/__/__/external/nRF5_SDK_14.2.0_17b948a/components/toolchain/system_nrf51.c.obj
LOAD examples/pb_remote/server/CMakeFiles/pb_remote_server_nrf51422_xxAC_s130_2.0.1.dir/__/__/__/external/nRF5_SDK_14.2.0_17b948a/components/toolchain/gcc/gcc_startup_nrf51.S.obj
LOAD mesh/core/libmesh_core_nrf51422_xxAC.a
LOAD external/rtt/librtt_nrf51422_xxAC.a
LOAD external/micro-ecc/libuECC_nrf51422_xxAC.a
START GROUP
LOAD c:/a/gcc_arm/6/bin/../lib/gcc/arm-none-eabi/6.3.1/thumb/v6-m\libgcc.a
LOAD c:/a/gcc_arm/6/bin/../lib/gcc/arm-none-eabi/6.3.1/../../../../arm-none-eabi/lib/thumb/v6-m\libg_nano.a
LOAD c:/a/gcc_arm/6/bin/../lib/gcc/arm-none-eabi/6.3.1/../../../../arm-none-eabi/lib/thumb/v6-m\libc_nano.a
END GROUP
START GROUP
LOAD c:/a/gcc_arm/6/bin/../lib/gcc/arm-none-eabi/6.3.1/thumb/v6-m\libgcc.a
LOAD c:/a/gcc_arm/6/bin/../lib/gcc/arm-none-eabi/6.3.1/../../../../arm-none-eabi/lib/thumb/v6-m\libc_nano.a
END GROUP
LOAD c:/a/gcc_arm/6/bin/../lib/gcc/arm-none-eabi/6.3.1/thumb/v6-m/crtend.o
LOAD c:/a/gcc_arm/6/bin/../lib/gcc/arm-none-eabi/6.3.1/thumb/v6-m/crtn.o
START GROUP
LOAD c:/a/gcc_arm/6/bin/../lib/gcc/arm-none-eabi/6.3.1/thumb/v6-m\libgcc.a
LOAD c:/a/gcc_arm/6/bin/../lib/gcc/arm-none-eabi/6.3.1/../../../../arm-none-eabi/lib/thumb/v6-m\libc.a
LOAD c:/a/gcc_arm/6/bin/../lib/gcc/arm-none-eabi/6.3.1/../../../../arm-none-eabi/lib/thumb/v6-m\libnosys.a
END GROUP

.igot.plt       0x20002448        0x0 load address 0x00030a50
 .igot.plt      0x20002448        0x0 c:/a/gcc_arm/6/bin/../lib/gcc/arm-none-eabi/6.3.1/thumb/v6-m/crtbegin.o
                0x20002448                . = ALIGN (0x4)

.svc_data       0x20002448        0x0
                [!provide]                PROVIDE (__start_svc_data, .)
 *(.svc_data)
                [!provide]                PROVIDE (__stop_svc_data, .)

.fs_data        0x20002448        0x0
                [!provide]                PROVIDE (__start_fs_data, .)
 *(.fs_data)
                [!provide]                PROVIDE (__stop_fs_data, .)

.log_dynamic_data
                0x20002448        0x0
                [!provide]                PROVIDE (__start_log_dynamic_data, .)
 *(.log_dynamic_data)
                [!provide]                PROVIDE (__stop_log_dynamic_data, .)

.cli_sorted_cmd_ptrs
                0x20002448        0x0
                [!provide]                PROVIDE (__start_cli_sorted_cmd_ptrs, .)
 *(.cli_sorted_cmd_ptrs)
                [!provide]                PROVIDE (__stop_cli_sorted_cmd_ptrs, .)

.bss            0x20002448     0x3300 load address 0x00030a50
                0x20002448                . = ALIGN (0x4)
                0x20002448                __bss_start__ = .
 *(.bss*)
 .bss           0x20002448       0x1c c:/a/gcc_arm/6/bin/../lib/gcc/arm-none-eabi/6.3.1/thumb/v6-m/crtbegin.o
 .bss.m_appkey_handle
                0x20002464        0x2 examples/pb_remote/server/CMakeFiles/pb_remote_server_nrf51422_xxAC_s130_2.0.1.dir/src/main.c.obj
 *fill*         0x20002466        0x2 
 .bss.m_prov_bearer_adv
                0x20002468      0x1c0 examples/pb_remote/server/CMakeFiles/pb_remote_server_nrf51422_xxAC_s130_2.0.1.dir/src/main.c.obj
 .bss.m_provisioner_address_handle
                0x20002628        0x2 examples/pb_remote/server/CMakeFiles/pb_remote_server_nrf51422_xxAC_s130_2.0.1.dir/src/main.c.obj
 *fill*         0x2000262a        0x2 
 .bss.m_remote_server
                0x2000262c       0x2c examples/pb_remote/server/CMakeFiles/pb_remote_server_nrf51422_xxAC_s130_2.0.1.dir/src/main.c.obj
 .bss.m_ble_evt_buffer
                0x20002658       0x47 examples/pb_remote/server/CMakeFiles/pb_remote_server_nrf51422_xxAC_s130_2.0.1.dir/__/__/nrf_mesh_sdk.c.obj
 *fill*         0x2000269f        0x1 
 .bss.m_button_handler_cb
                0x200026a0        0x4 examples/pb_remote/server/CMakeFiles/pb_remote_server_nrf51422_xxAC_s130_2.0.1.dir/__/__/common/src/simple_hal.c.obj
 .bss.m_last_button_press
                0x200026a4        0x4 examples/pb_remote/server/CMakeFiles/pb_remote_server_nrf51422_xxAC_s130_2.0.1.dir/__/__/common/src/simple_hal.c.obj
 .bss.m_event_handler
                0x200026a8        0x4 examples/pb_remote/server/CMakeFiles/pb_remote_server_nrf51422_xxAC_s130_2.0.1.dir/__/__/__/mesh/prov/src/prov_beacon.c.obj
 .bss.m_offload_ecdh
                0x200026ac        0x1 examples/pb_remote/server/CMakeFiles/pb_remote_server_nrf51422_xxAC_s130_2.0.1.dir/__/__/__/mesh/prov/src/prov_utils.c.obj
 *fill*         0x200026ad        0x3 
 .bss.mp_bearer_head
                0x200026b0        0x4 examples/pb_remote/server/CMakeFiles/pb_remote_server_nrf51422_xxAC_s130_2.0.1.dir/__/__/__/mesh/prov/src/prov_bearer_adv.c.obj
 .bss.m_is_interrupting
                0x200026b4        0x1 examples/pb_remote/server/CMakeFiles/pb_remote_server_nrf51422_xxAC_s130_2.0.1.dir/__/__/__/models/pb_remote/src/pb_remote_server.c.obj
 .bss.m_packet  0x200026b5       0x41 examples/pb_remote/server/CMakeFiles/pb_remote_server_nrf51422_xxAC_s130_2.0.1.dir/__/__/__/models/pb_remote/src/pb_remote_server.c.obj
 *fill*         0x200026f6        0x2 
 .bss.m_pbr_server_alt_event_queue
                0x200026f8       0x14 examples/pb_remote/server/CMakeFiles/pb_remote_server_nrf51422_xxAC_s130_2.0.1.dir/__/__/__/models/pb_remote/src/pb_remote_server.c.obj
 .bss.m_pbr_server_alt_event_queue_buffer
                0x2000270c       0x90 examples/pb_remote/server/CMakeFiles/pb_remote_server_nrf51422_xxAC_s130_2.0.1.dir/__/__/__/models/pb_remote/src/pb_remote_server.c.obj
 .bss.m_pbr_server_event_queue
                0x2000279c       0x14 examples/pb_remote/server/CMakeFiles/pb_remote_server_nrf51422_xxAC_s130_2.0.1.dir/__/__/__/models/pb_remote/src/pb_remote_server.c.obj
 .bss.m_pbr_server_event_queue_buffer
                0x200027b0       0x90 examples/pb_remote/server/CMakeFiles/pb_remote_server_nrf51422_xxAC_s130_2.0.1.dir/__/__/__/models/pb_remote/src/pb_remote_server.c.obj
 .bss.m_uuid_list
                0x20002840       0x33 examples/pb_remote/server/CMakeFiles/pb_remote_server_nrf51422_xxAC_s130_2.0.1.dir/__/__/__/models/pb_remote/src/pb_remote_server.c.obj
 *fill*         0x20002873        0x1 
 .bss.mp_pb_remote_server_model
                0x20002874        0x4 examples/pb_remote/server/CMakeFiles/pb_remote_server_nrf51422_xxAC_s130_2.0.1.dir/__/__/__/models/pb_remote/src/pb_remote_server.c.obj
 .bss.m_publish_timer
                0x20002878       0x18 examples/pb_remote/server/CMakeFiles/pb_remote_server_nrf51422_xxAC_s130_2.0.1.dir/__/__/__/mesh/access/src/access_publish.c.obj
 .bss.m_publish_timer_counter
                0x20002890        0x4 examples/pb_remote/server/CMakeFiles/pb_remote_server_nrf51422_xxAC_s130_2.0.1.dir/__/__/__/mesh/access/src/access_publish.c.obj
 .bss.m_publish_timer_running
                0x20002894        0x1 examples/pb_remote/server/CMakeFiles/pb_remote_server_nrf51422_xxAC_s130_2.0.1.dir/__/__/__/mesh/access/src/access_publish.c.obj
 .bss.m_timer_resolution
                0x20002895        0x1 examples/pb_remote/server/CMakeFiles/pb_remote_server_nrf51422_xxAC_s130_2.0.1.dir/__/__/__/mesh/access/src/access_publish.c.obj
 *fill*         0x20002896        0x2 
 .bss.mp_publication_list
                0x20002898        0x4 examples/pb_remote/server/CMakeFiles/pb_remote_server_nrf51422_xxAC_s130_2.0.1.dir/__/__/__/mesh/access/src/access_publish.c.obj
 .bss.m_element_pool
                0x2000289c        0x6 examples/pb_remote/server/CMakeFiles/pb_remote_server_nrf51422_xxAC_s130_2.0.1.dir/__/__/__/mesh/access/src/access.c.obj
 *fill*         0x200028a2        0x2 
 .bss.m_evt_handler
                0x200028a4        0x8 examples/pb_remote/server/CMakeFiles/pb_remote_server_nrf51422_xxAC_s130_2.0.1.dir/__/__/__/mesh/access/src/access.c.obj
 .bss.m_flash_manager
                0x200028ac       0x24 examples/pb_remote/server/CMakeFiles/pb_remote_server_nrf51422_xxAC_s130_2.0.1.dir/__/__/__/mesh/access/src/access.c.obj
 .bss.m_flash_not_ready
                0x200028d0        0x1 examples/pb_remote/server/CMakeFiles/pb_remote_server_nrf51422_xxAC_s130_2.0.1.dir/__/__/__/mesh/access/src/access.c.obj
 .bss.m_metadata_stored
                0x200028d1        0x1 examples/pb_remote/server/CMakeFiles/pb_remote_server_nrf51422_xxAC_s130_2.0.1.dir/__/__/__/mesh/access/src/access.c.obj
 *fill*         0x200028d2        0x2 
 .bss.m_model_pool
                0x200028d4       0x9c examples/pb_remote/server/CMakeFiles/pb_remote_server_nrf51422_xxAC_s130_2.0.1.dir/__/__/__/mesh/access/src/access.c.obj
 .bss.m_subscription_list_pool
                0x20002970       0x18 examples/pb_remote/server/CMakeFiles/pb_remote_server_nrf51422_xxAC_s130_2.0.1.dir/__/__/__/mesh/access/src/access.c.obj
 .bss.m_reliable
                0x20002988       0xa0 examples/pb_remote/server/CMakeFiles/pb_remote_server_nrf51422_xxAC_s130_2.0.1.dir/__/__/__/mesh/access/src/access_reliable.c.obj
 .bss.m_addr_nonvirtual_allocated
                0x20002a28        0x4 examples/pb_remote/server/CMakeFiles/pb_remote_server_nrf51422_xxAC_s130_2.0.1.dir/__/__/__/mesh/access/src/device_state_manager.c.obj
 .bss.m_addr_nonvirtual_needs_flashing
                0x20002a2c        0x4 examples/pb_remote/server/CMakeFiles/pb_remote_server_nrf51422_xxAC_s130_2.0.1.dir/__/__/__/mesh/access/src/device_state_manager.c.obj
 .bss.m_addr_unicast_allocated
                0x20002a30        0x4 examples/pb_remote/server/CMakeFiles/pb_remote_server_nrf51422_xxAC_s130_2.0.1.dir/__/__/__/mesh/access/src/device_state_manager.c.obj
 .bss.m_addr_unicast_needs_flashing
                0x20002a34        0x4 examples/pb_remote/server/CMakeFiles/pb_remote_server_nrf51422_xxAC_s130_2.0.1.dir/__/__/__/mesh/access/src/device_state_manager.c.obj
 .bss.m_addr_virtual_allocated
                0x20002a38        0x4 examples/pb_remote/server/CMakeFiles/pb_remote_server_nrf51422_xxAC_s130_2.0.1.dir/__/__/__/mesh/access/src/device_state_manager.c.obj
 .bss.m_addr_virtual_needs_flashing
                0x20002a3c        0x4 examples/pb_remote/server/CMakeFiles/pb_remote_server_nrf51422_xxAC_s130_2.0.1.dir/__/__/__/mesh/access/src/device_state_manager.c.obj
 .bss.m_addresses
                0x20002a40       0x10 examples/pb_remote/server/CMakeFiles/pb_remote_server_nrf51422_xxAC_s130_2.0.1.dir/__/__/__/mesh/access/src/device_state_manager.c.obj
 .bss.m_appkey_allocated
                0x20002a50        0x4 examples/pb_remote/server/CMakeFiles/pb_remote_server_nrf51422_xxAC_s130_2.0.1.dir/__/__/__/mesh/access/src/device_state_manager.c.obj
 .bss.m_appkey_needs_flashing
                0x20002a54        0x4 examples/pb_remote/server/CMakeFiles/pb_remote_server_nrf51422_xxAC_s130_2.0.1.dir/__/__/__/mesh/access/src/device_state_manager.c.obj
 .bss.m_appkeys
                0x20002a58       0x2a examples/pb_remote/server/CMakeFiles/pb_remote_server_nrf51422_xxAC_s130_2.0.1.dir/__/__/__/mesh/access/src/device_state_manager.c.obj
 *fill*         0x20002a82        0x2 
 .bss.m_devkey_allocated
                0x20002a84        0x4 examples/pb_remote/server/CMakeFiles/pb_remote_server_nrf51422_xxAC_s130_2.0.1.dir/__/__/__/mesh/access/src/device_state_manager.c.obj
 .bss.m_devkey_needs_flashing
                0x20002a88        0x4 examples/pb_remote/server/CMakeFiles/pb_remote_server_nrf51422_xxAC_s130_2.0.1.dir/__/__/__/mesh/access/src/device_state_manager.c.obj
 .bss.m_devkeys
                0x20002a8c       0x16 examples/pb_remote/server/CMakeFiles/pb_remote_server_nrf51422_xxAC_s130_2.0.1.dir/__/__/__/mesh/access/src/device_state_manager.c.obj
 .bss.m_flash_is_available
                0x20002aa2        0x1 examples/pb_remote/server/CMakeFiles/pb_remote_server_nrf51422_xxAC_s130_2.0.1.dir/__/__/__/mesh/access/src/device_state_manager.c.obj
 *fill*         0x20002aa3        0x1 
 .bss.m_flash_manager
                0x20002aa4       0x24 examples/pb_remote/server/CMakeFiles/pb_remote_server_nrf51422_xxAC_s130_2.0.1.dir/__/__/__/mesh/access/src/device_state_manager.c.obj
 .bss.m_flash_mem_listener_update_all
                0x20002ac8       0x10 examples/pb_remote/server/CMakeFiles/pb_remote_server_nrf51422_xxAC_s130_2.0.1.dir/__/__/__/mesh/access/src/device_state_manager.c.obj
 .bss.m_has_primary_subnet
                0x20002ad8        0x1 examples/pb_remote/server/CMakeFiles/pb_remote_server_nrf51422_xxAC_s130_2.0.1.dir/__/__/__/mesh/access/src/device_state_manager.c.obj
 *fill*         0x20002ad9        0x1 
 .bss.m_local_unicast_addr
                0x20002ada        0x4 examples/pb_remote/server/CMakeFiles/pb_remote_server_nrf51422_xxAC_s130_2.0.1.dir/__/__/__/mesh/access/src/device_state_manager.c.obj
 *fill*         0x20002ade        0x2 
 .bss.m_subnet_allocated
                0x20002ae0        0x4 examples/pb_remote/server/CMakeFiles/pb_remote_server_nrf51422_xxAC_s130_2.0.1.dir/__/__/__/mesh/access/src/device_state_manager.c.obj
 .bss.m_subnet_needs_flashing
                0x20002ae4        0x4 examples/pb_remote/server/CMakeFiles/pb_remote_server_nrf51422_xxAC_s130_2.0.1.dir/__/__/__/mesh/access/src/device_state_manager.c.obj
 .bss.m_subnets
                0x20002ae8       0xac examples/pb_remote/server/CMakeFiles/pb_remote_server_nrf51422_xxAC_s130_2.0.1.dir/__/__/__/mesh/access/src/device_state_manager.c.obj
 .bss.m_virtual_addresses
                0x20002b94       0x14 examples/pb_remote/server/CMakeFiles/pb_remote_server_nrf51422_xxAC_s130_2.0.1.dir/__/__/__/mesh/access/src/device_state_manager.c.obj
 .bss.m_health_server
                0x20002ba8       0x5c examples/pb_remote/server/CMakeFiles/pb_remote_server_nrf51422_xxAC_s130_2.0.1.dir/__/__/__/mesh/access/src/nrf_mesh_node_config.c.obj
 .bss.m_node_provisioned
                0x20002c04        0x1 examples/pb_remote/server/CMakeFiles/pb_remote_server_nrf51422_xxAC_s130_2.0.1.dir/__/__/__/mesh/access/src/nrf_mesh_node_config.c.obj
 .bss.m_private_key
                0x20002c05       0x20 examples/pb_remote/server/CMakeFiles/pb_remote_server_nrf51422_xxAC_s130_2.0.1.dir/__/__/__/mesh/access/src/nrf_mesh_node_config.c.obj
 *fill*         0x20002c25        0x3 
 .bss.m_prov_bearer_adv
                0x20002c28      0x1c0 examples/pb_remote/server/CMakeFiles/pb_remote_server_nrf51422_xxAC_s130_2.0.1.dir/__/__/__/mesh/access/src/nrf_mesh_node_config.c.obj
 .bss.m_prov_ctx
                0x20002de8      0x130 examples/pb_remote/server/CMakeFiles/pb_remote_server_nrf51422_xxAC_s130_2.0.1.dir/__/__/__/mesh/access/src/nrf_mesh_node_config.c.obj
 .bss.m_public_key
                0x20002f18       0x40 examples/pb_remote/server/CMakeFiles/pb_remote_server_nrf51422_xxAC_s130_2.0.1.dir/__/__/__/mesh/access/src/nrf_mesh_node_config.c.obj
 .bss.mp_init_params
                0x20002f58        0x4 examples/pb_remote/server/CMakeFiles/pb_remote_server_nrf51422_xxAC_s130_2.0.1.dir/__/__/__/mesh/access/src/nrf_mesh_node_config.c.obj
 .bss.m_evt_cb  0x20002f5c        0x4 examples/pb_remote/server/CMakeFiles/pb_remote_server_nrf51422_xxAC_s130_2.0.1.dir/__/__/__/models/config/src/config_server.c.obj
 .bss.m_heartbeat_publication
                0x20002f60       0x14 examples/pb_remote/server/CMakeFiles/pb_remote_server_nrf51422_xxAC_s130_2.0.1.dir/__/__/__/models/config/src/config_server.c.obj
 .bss.m_attention_timer
                0x20002f74       0x18 examples/pb_remote/server/CMakeFiles/pb_remote_server_nrf51422_xxAC_s130_2.0.1.dir/__/__/__/models/health/src/health_server.c.obj
 .bss.mp_attention_list
                0x20002f8c        0x4 examples/pb_remote/server/CMakeFiles/pb_remote_server_nrf51422_xxAC_s130_2.0.1.dir/__/__/__/models/health/src/health_server.c.obj
 .bss.m_uuid    0x20002f90       0x10 mesh/core/libmesh_core_nrf51422_xxAC.a(nrf_mesh_configure.c.obj)
 .bss.mp_evt_handlers_head
                0x20002fa0        0x4 mesh/core/libmesh_core_nrf51422_xxAC.a(event.c.obj)
 .bss.lock_count.7227
                0x20002fa4        0x4 mesh/core/libmesh_core_nrf51422_xxAC.a(net_state.c.obj)
 .bss.m_flash_manager
                0x20002fa8       0x24 mesh/core/libmesh_core_nrf51422_xxAC.a(net_state.c.obj)
 .bss.m_iv_update_timer
                0x20002fcc       0x18 mesh/core/libmesh_core_nrf51422_xxAC.a(net_state.c.obj)
 .bss.m_net_state
                0x20002fe4       0x14 mesh/core/libmesh_core_nrf51422_xxAC.a(net_state.c.obj)
 .bss.m_seqnum_allocation_in_progress
                0x20002ff8        0x1 mesh/core/libmesh_core_nrf51422_xxAC.a(net_state.c.obj)
 .bss.m_test_mode
                0x20002ff9        0x1 mesh/core/libmesh_core_nrf51422_xxAC.a(net_state.c.obj)
 .bss.m_is_enabled
                0x20002ffa        0x1 mesh/core/libmesh_core_nrf51422_xxAC.a(nrf_mesh.c.obj)
 .bss.m_is_initialized
                0x20002ffb        0x1 mesh/core/libmesh_core_nrf51422_xxAC.a(nrf_mesh.c.obj)
 .bss.m_rx_cb   0x20002ffc        0x4 mesh/core/libmesh_core_nrf51422_xxAC.a(nrf_mesh.c.obj)
 .bss.m_event_flag
                0x20003000        0x4 mesh/core/libmesh_core_nrf51422_xxAC.a(timer_scheduler.c.obj)
 .bss.m_scheduler
                0x20003004       0x10 mesh/core/libmesh_core_nrf51422_xxAC.a(timer_scheduler.c.obj)
 .bss.m_attributes
                0x20003014        0x3 mesh/core/libmesh_core_nrf51422_xxAC.a(timer.c.obj)
 *fill*         0x20003017        0x1 
 .bss.m_callbacks
                0x20003018        0xc mesh/core/libmesh_core_nrf51422_xxAC.a(timer.c.obj)
 .bss.m_is_in_ts
                0x20003024        0x1 mesh/core/libmesh_core_nrf51422_xxAC.a(timer.c.obj)
 *fill*         0x20003025        0x3 
 .bss.m_reference_time
                0x20003028        0x4 mesh/core/libmesh_core_nrf51422_xxAC.a(timer.c.obj)
 .bss.m_timeouts
                0x2000302c        0xc mesh/core/libmesh_core_nrf51422_xxAC.a(timer.c.obj)
 .bss.m_timer_mut
                0x20003038        0x4 mesh/core/libmesh_core_nrf51422_xxAC.a(timer.c.obj)
 .bss.m_ts_end_time
                0x2000303c        0x4 mesh/core/libmesh_core_nrf51422_xxAC.a(timer.c.obj)
 .bss.mp_ppi_tasks
                0x20003040        0xc mesh/core/libmesh_core_nrf51422_xxAC.a(timer.c.obj)
 .bss.m_current_time
                0x2000304c        0x4 mesh/core/libmesh_core_nrf51422_xxAC.a(ticker.c.obj)
 .bss.m_timer   0x20003050       0x18 mesh/core/libmesh_core_nrf51422_xxAC.a(ticker.c.obj)
 .bss.m_current_timeslot
                0x20003068       0x1c mesh/core/libmesh_core_nrf51422_xxAC.a(timeslot.c.obj)
 .bss.m_lfclk_ppm
                0x20003084        0x4 mesh/core/libmesh_core_nrf51422_xxAC.a(timeslot.c.obj)
 .bss.m_radio_request_earliest
                0x20003088       0x10 mesh/core/libmesh_core_nrf51422_xxAC.a(timeslot.c.obj)
 .bss.m_state_lock
                0x20003098        0x1 mesh/core/libmesh_core_nrf51422_xxAC.a(timeslot.c.obj)
 .bss.m_timeslot_forced_command
                0x20003099        0x1 mesh/core/libmesh_core_nrf51422_xxAC.a(timeslot.c.obj)
 *fill*         0x2000309a        0x6 
 .bss.s_last_rtc_value.6691
                0x200030a0        0x8 mesh/core/libmesh_core_nrf51422_xxAC.a(timeslot.c.obj)
 .bss.m_bearer_event_fifo
                0x200030a8       0x14 mesh/core/libmesh_core_nrf51422_xxAC.a(bearer_event.c.obj)
 .bss.m_bearer_event_fifo_buffer
                0x200030bc      0x100 mesh/core/libmesh_core_nrf51422_xxAC.a(bearer_event.c.obj)
 .bss.m_critical
                0x200031bc        0x4 mesh/core/libmesh_core_nrf51422_xxAC.a(bearer_event.c.obj)
 .bss.m_flag_count
                0x200031c0        0x4 mesh/core/libmesh_core_nrf51422_xxAC.a(bearer_event.c.obj)
 .bss.m_flag_event_callbacks
                0x200031c4       0x20 mesh/core/libmesh_core_nrf51422_xxAC.a(bearer_event.c.obj)
 .bss.m_flags   0x200031e4        0x4 mesh/core/libmesh_core_nrf51422_xxAC.a(bearer_event.c.obj)
 .bss.m_irq_priority
                0x200031e8        0x1 mesh/core/libmesh_core_nrf51422_xxAC.a(bearer_event.c.obj)
 *fill*         0x200031e9        0x3 
 .bss.m_sequential_event_queue
                0x200031ec        0x8 mesh/core/libmesh_core_nrf51422_xxAC.a(bearer_event.c.obj)
 .bss.s_recursion_guard.6813
                0x200031f4        0x1 mesh/core/libmesh_core_nrf51422_xxAC.a(bearer_event.c.obj)
 *fill*         0x200031f5        0x3 
 .bss.m_relay_check_cb
                0x200031f8        0x4 mesh/core/libmesh_core_nrf51422_xxAC.a(network.c.obj)
 .bss.m_relay_enable
                0x200031fc        0x1 mesh/core/libmesh_core_nrf51422_xxAC.a(network.c.obj)
 *fill*         0x200031fd        0x3 
 .bss.m_action_queue
                0x20003200        0xc mesh/core/libmesh_core_nrf51422_xxAC.a(flash_manager.c.obj)
 .bss.m_action_queue_buffer
                0x2000320c      0x104 mesh/core/libmesh_core_nrf51422_xxAC.a(flash_manager.c.obj)
 .bss.m_action_state
                0x20003310        0x1 mesh/core/libmesh_core_nrf51422_xxAC.a(flash_manager.c.obj)
 *fill*         0x20003311        0x3 
 .bss.m_memory_listener_queue
                0x20003314        0x8 mesh/core/libmesh_core_nrf51422_xxAC.a(flash_manager.c.obj)
 .bss.m_processing_flag
                0x2000331c        0x4 mesh/core/libmesh_core_nrf51422_xxAC.a(flash_manager.c.obj)
 .bss.m_queue_empty_cb
                0x20003320        0x4 mesh/core/libmesh_core_nrf51422_xxAC.a(flash_manager.c.obj)
 .bss.m_state   0x20003324        0x1 mesh/core/libmesh_core_nrf51422_xxAC.a(flash_manager.c.obj)
 *fill*         0x20003325        0x1 
 .bss.m_token   0x20003326        0x2 mesh/core/libmesh_core_nrf51422_xxAC.a(flash_manager.c.obj)
 .bss.p_current.8541
                0x20003328        0x4 mesh/core/libmesh_core_nrf51422_xxAC.a(flash_manager.c.obj)
 .bss.result.8542
                0x2000332c        0x1 mesh/core/libmesh_core_nrf51422_xxAC.a(flash_manager.c.obj)
 *fill*         0x2000332d        0x3 
 .bss.m_adv_buffer
                0x20003330       0x68 mesh/core/libmesh_core_nrf51422_xxAC.a(beacon.c.obj)
 .bss.m_advertiser
                0x20003398       0x94 mesh/core/libmesh_core_nrf51422_xxAC.a(beacon.c.obj)
 .bss.m_bearers
                0x2000342c        0x4 mesh/core/libmesh_core_nrf51422_xxAC.a(core_tx.c.obj)
 .bss.m_tx_complete_callback
                0x20003430        0x4 mesh/core/libmesh_core_nrf51422_xxAC.a(core_tx.c.obj)
 .bss.m_hb_core_evt_handler
                0x20003434        0x8 mesh/core/libmesh_core_nrf51422_xxAC.a(heartbeat.c.obj)
 .bss.m_hb_pending_feat_msg
                0x2000343c        0x1 mesh/core/libmesh_core_nrf51422_xxAC.a(heartbeat.c.obj)
 .bss.m_hb_pending_pub_msg
                0x2000343d        0x1 mesh/core/libmesh_core_nrf51422_xxAC.a(heartbeat.c.obj)
 .bss.m_heartbeat_init_done
                0x2000343e        0x1 mesh/core/libmesh_core_nrf51422_xxAC.a(heartbeat.c.obj)
 *fill*         0x2000343f        0x1 
 .bss.m_heartbeat_subscription
                0x20003440       0x10 mesh/core/libmesh_core_nrf51422_xxAC.a(heartbeat.c.obj)
 .bss.m_publication_count_decrement_cb
                0x20003450        0x4 mesh/core/libmesh_core_nrf51422_xxAC.a(heartbeat.c.obj)
 .bss.m_publication_get_cb
                0x20003454        0x4 mesh/core/libmesh_core_nrf51422_xxAC.a(heartbeat.c.obj)
 .bss.m_publication_timer
                0x20003458       0x1c mesh/core/libmesh_core_nrf51422_xxAC.a(heartbeat.c.obj)
 .bss.m_subscription_timer
                0x20003474       0x18 mesh/core/libmesh_core_nrf51422_xxAC.a(heartbeat.c.obj)
 .bss.m_beacon_salt
                0x2000348c       0x10 mesh/core/libmesh_core_nrf51422_xxAC.a(net_beacon.c.obj)
 .bss.m_enabled
                0x2000349c        0x1 mesh/core/libmesh_core_nrf51422_xxAC.a(net_beacon.c.obj)
 *fill*         0x2000349d        0x3 
 .bss.m_tx_event
                0x200034a0       0x18 mesh/core/libmesh_core_nrf51422_xxAC.a(net_beacon.c.obj)
 .bss.m_adv_tx_count
                0x200034b8        0x8 mesh/core/libmesh_core_nrf51422_xxAC.a(core_tx_adv.c.obj)
 .bss.m_advertisers
                0x200034c0      0x128 mesh/core/libmesh_core_nrf51422_xxAC.a(core_tx_adv.c.obj)
 .bss.m_originator_adv_packet_buffer
                0x200035e8      0x100 mesh/core/libmesh_core_nrf51422_xxAC.a(core_tx_adv.c.obj)
 .bss.m_relay_adv_packet_buffer
                0x200036e8       0x80 mesh/core/libmesh_core_nrf51422_xxAC.a(core_tx_adv.c.obj)
 .bss.m_subscribers
                0x20003768        0x4 mesh/core/libmesh_core_nrf51422_xxAC.a(ad_listener.c.obj)
 .bss.m_adtype_filter
                0x2000376c       0x38 mesh/core/libmesh_core_nrf51422_xxAC.a(ad_type_filter.c.obj)
 .bss.m_adv_prng
                0x200037a4       0x10 mesh/core/libmesh_core_nrf51422_xxAC.a(advertiser.c.obj)
 .bss.m_action_queue
                0x200037b4        0x8 mesh/core/libmesh_core_nrf51422_xxAC.a(bearer_handler.c.obj)
 .bss.m_end_time
                0x200037bc        0x4 mesh/core/libmesh_core_nrf51422_xxAC.a(bearer_handler.c.obj)
 .bss.m_scanner_is_active
                0x200037c0        0x1 mesh/core/libmesh_core_nrf51422_xxAC.a(bearer_handler.c.obj)
 .bss.m_stopped
                0x200037c1        0x1 mesh/core/libmesh_core_nrf51422_xxAC.a(bearer_handler.c.obj)
 *fill*         0x200037c2        0x2 
 .bss.mp_action
                0x200037c4        0x4 mesh/core/libmesh_core_nrf51422_xxAC.a(bearer_handler.c.obj)
 .bss.m_next_channel_index
                0x200037c8        0x1 mesh/core/libmesh_core_nrf51422_xxAC.a(broadcast.c.obj)
 *fill*         0x200037c9        0x3 
 .bss.m_accepted_amount
                0x200037cc        0x4 mesh/core/libmesh_core_nrf51422_xxAC.a(filter_engine.c.obj)
 .bss.m_filter_list_head
                0x200037d0        0x4 mesh/core/libmesh_core_nrf51422_xxAC.a(filter_engine.c.obj)
 .bss.m_scanner
                0x200037d4      0x28c mesh/core/libmesh_core_nrf51422_xxAC.a(scanner.c.obj)
 .bss.m_internal_event_fifo
                0x20003a60       0x14 mesh/core/libmesh_core_nrf51422_xxAC.a(internal_event.c.obj)
 .bss.m_internal_event_initialized
                0x20003a74        0x1 mesh/core/libmesh_core_nrf51422_xxAC.a(internal_event.c.obj)
 *fill*         0x20003a75        0x3 
 .bss.m_report_cb
                0x20003a78        0x4 mesh/core/libmesh_core_nrf51422_xxAC.a(internal_event.c.obj)
 .bss.m_msg_cache
                0x20003a7c      0x100 mesh/core/libmesh_core_nrf51422_xxAC.a(msg_cache.c.obj)
 .bss.m_msg_cache_head
                0x20003b7c        0x4 mesh/core/libmesh_core_nrf51422_xxAC.a(msg_cache.c.obj)
 .bss.m_control_packet_consumer_count
                0x20003b80        0x4 mesh/core/libmesh_core_nrf51422_xxAC.a(transport.c.obj)
 .bss.m_control_packet_consumers
                0x20003b84        0x8 mesh/core/libmesh_core_nrf51422_xxAC.a(transport.c.obj)
 .bss.m_sar_alloc
                0x20003b8c        0x4 mesh/core/libmesh_core_nrf51422_xxAC.a(transport.c.obj)
 .bss.m_sar_process_flag
                0x20003b90        0x4 mesh/core/libmesh_core_nrf51422_xxAC.a(transport.c.obj)
 .bss.m_sar_release
                0x20003b94        0x4 mesh/core/libmesh_core_nrf51422_xxAC.a(transport.c.obj)
 .bss.m_sar_session_cache
                0x20003b98       0x40 mesh/core/libmesh_core_nrf51422_xxAC.a(transport.c.obj)
 .bss.m_sar_session_cache_head
                0x20003bd8        0x4 mesh/core/libmesh_core_nrf51422_xxAC.a(transport.c.obj)
 .bss.m_trs_config
                0x20003bdc       0x18 mesh/core/libmesh_core_nrf51422_xxAC.a(transport.c.obj)
 .bss.m_trs_sar_sessions
                0x20003bf4      0x1b0 mesh/core/libmesh_core_nrf51422_xxAC.a(transport.c.obj)
 .bss.m_defrag  0x20003da4       0x1c mesh/core/libmesh_core_nrf51422_xxAC.a(flash_manager_defrag.c.obj)
 .bss.m_token   0x20003dc0        0x2 mesh/core/libmesh_core_nrf51422_xxAC.a(flash_manager_defrag.c.obj)
 *fill*         0x20003dc2        0x2 
 .bss.mp_recovery_area
                0x20003dc4        0x4 mesh/core/libmesh_core_nrf51422_xxAC.a(flash_manager_defrag.c.obj)
 .bss.p_null_ptr.7632
                0x20003dc8        0x4 mesh/core/libmesh_core_nrf51422_xxAC.a(flash_manager_defrag.c.obj)
 .bss.m_pool    0x20003dcc     0x1000 mesh/core/libmesh_core_nrf51422_xxAC.a(packet_mgr.c.obj)
 .bss.mp_free_head
                0x20004dcc        0x4 mesh/core/libmesh_core_nrf51422_xxAC.a(packet_mgr.c.obj)
 .bss.m_event_flag
                0x20004dd0        0x4 mesh/core/libmesh_core_nrf51422_xxAC.a(mesh_flash.c.obj)
 .bss.m_suspended
                0x20004dd4        0x1 mesh/core/libmesh_core_nrf51422_xxAC.a(mesh_flash.c.obj)
 *fill*         0x20004dd5        0x3 
 .bss.m_users   0x20004dd8      0x228 mesh/core/libmesh_core_nrf51422_xxAC.a(mesh_flash.c.obj)
 .bss.m_128buf  0x20005000       0x10 mesh/core/libmesh_core_nrf51422_xxAC.a(aes_cmac.c.obj)
 .bss.m_subkey1
                0x20005010       0x10 mesh/core/libmesh_core_nrf51422_xxAC.a(aes_cmac.c.obj)
 .bss.m_subkey2
                0x20005020       0x10 mesh/core/libmesh_core_nrf51422_xxAC.a(aes_cmac.c.obj)
 .bss.m_cache_full
                0x20005030        0x1 mesh/core/libmesh_core_nrf51422_xxAC.a(replay_cache.c.obj)
 .bss.m_cache_index
                0x20005031        0x1 mesh/core/libmesh_core_nrf51422_xxAC.a(replay_cache.c.obj)
 *fill*         0x20005032        0x2 
 .bss.m_replay_cache
                0x20005034      0x200 mesh/core/libmesh_core_nrf51422_xxAC.a(replay_cache.c.obj)
 .bss._acDownBuffer
                0x20005234       0x80 external/rtt/librtt_nrf51422_xxAC.a(SEGGER_RTT.c.obj)
 .bss._acUpBuffer
                0x200052b4      0x400 external/rtt/librtt_nrf51422_xxAC.a(SEGGER_RTT.c.obj)
 .bss.__malloc_free_list
                0x200056b4        0x4 c:/a/gcc_arm/6/bin/../lib/gcc/arm-none-eabi/6.3.1/../../../../arm-none-eabi/lib/thumb/v6-m\libg_nano.a(lib_a-nano-mallocr.o)
                0x200056b4                __malloc_free_list
 .bss.__malloc_sbrk_start
                0x200056b8        0x4 c:/a/gcc_arm/6/bin/../lib/gcc/arm-none-eabi/6.3.1/../../../../arm-none-eabi/lib/thumb/v6-m\libg_nano.a(lib_a-nano-mallocr.o)
                0x200056b8                __malloc_sbrk_start
 .bss.heap_end.4116
                0x200056bc        0x4 c:/a/gcc_arm/6/bin/../lib/gcc/arm-none-eabi/6.3.1/../../../../arm-none-eabi/lib/thumb/v6-m\libnosys.a(sbrk.o)
 *(COMMON)
 COMMON         0x200056c0        0x8 examples/pb_remote/server/CMakeFiles/pb_remote_server_nrf51422_xxAC_s130_2.0.1.dir/__/__/nrf_mesh_sdk.c.obj
                0x200056c0                nrf_nvic_state
 COMMON         0x200056c8        0x4 mesh/core/libmesh_core_nrf51422_xxAC.a(nrf_mesh.c.obj)
                0x200056c8                m_assertion_handler
 COMMON         0x200056cc       0x78 external/rtt/librtt_nrf51422_xxAC.a(SEGGER_RTT.c.obj)
                0x200056cc                _SEGGER_RTT
 COMMON         0x20005744        0x4 c:/a/gcc_arm/6/bin/../lib/gcc/arm-none-eabi/6.3.1/../../../../arm-none-eabi/lib/thumb/v6-m\libg_nano.a(lib_a-reent.o)
                0x20005744                errno
                0x20005748                . = ALIGN (0x4)
                0x20005748                __bss_end__ = .

.heap           0x20005748      0x800
                0x20005748                __HeapBase = .
                0x20005748                __end__ = .
                0x20005748                PROVIDE (end, .)
 *(.heap*)
 .heap          0x20005748      0x800 examples/pb_remote/server/CMakeFiles/pb_remote_server_nrf51422_xxAC_s130_2.0.1.dir/__/__/__/external/nRF5_SDK_14.2.0_17b948a/components/toolchain/gcc/gcc_startup_nrf51.S.obj
                0x20005f48                __HeapLimit = .

.stack_dummy    0x20005748      0x800
 *(.stack*)
 .stack         0x20005748      0x800 examples/pb_remote/server/CMakeFiles/pb_remote_server_nrf51422_xxAC_s130_2.0.1.dir/__/__/__/external/nRF5_SDK_14.2.0_17b948a/components/toolchain/gcc/gcc_startup_nrf51.S.obj
                0x20007d00                __StackTop = (ORIGIN (RAM) + LENGTH (RAM))
                0x20007500                __StackLimit = (__StackTop - SIZEOF (.stack_dummy))
                0x20007d00                PROVIDE (__stack, __StackTop)
                0x00000001                ASSERT ((__StackLimit >= __HeapLimit), region RAM overflowed with stack)
                0x00000170                DataInitFlashUsed = (__bss_start__ - __data_start__)
                0x000158e0                CodeFlashUsed = (__etext - ORIGIN (FLASH))
                0x00015a50                TotalFlashUsed = (CodeFlashUsed + DataInitFlashUsed)
                0x00000001                ASSERT ((TotalFlashUsed <= LENGTH (FLASH)), region FLASH overflowed with .data and user data)
OUTPUT(examples\pb_remote\server\pb_remote_server_nrf51422_xxAC_s130_2.0.1.elf elf32-littlearm)

.ARM.attributes
                0x00000000       0x28
 .ARM.attributes
                0x00000000       0x1e c:/a/gcc_arm/6/bin/../lib/gcc/arm-none-eabi/6.3.1/thumb/v6-m/crti.o
 .ARM.attributes
                0x0000001e       0x2c c:/a/gcc_arm/6/bin/../lib/gcc/arm-none-eabi/6.3.1/thumb/v6-m/crtbegin.o
 .ARM.attributes
                0x0000004a       0x1b c:/a/gcc_arm/6/bin/../lib/gcc/arm-none-eabi/6.3.1/../../../../arm-none-eabi/lib/thumb/v6-m/crt0.o
 .ARM.attributes
                0x00000065       0x31 examples/pb_remote/server/CMakeFiles/pb_remote_server_nrf51422_xxAC_s130_2.0.1.dir/src/main.c.obj
 .ARM.attributes
                0x00000096       0x31 examples/pb_remote/server/CMakeFiles/pb_remote_server_nrf51422_xxAC_s130_2.0.1.dir/__/__/nrf_mesh_sdk.c.obj
 .ARM.attributes
                0x000000c7       0x31 examples/pb_remote/server/CMakeFiles/pb_remote_server_nrf51422_xxAC_s130_2.0.1.dir/__/__/common/src/simple_hal.c.obj
 .ARM.attributes
                0x000000f8       0x31 examples/pb_remote/server/CMakeFiles/pb_remote_server_nrf51422_xxAC_s130_2.0.1.dir/__/__/nrf_mesh_weak.c.obj
 .ARM.attributes
                0x00000129       0x31 examples/pb_remote/server/CMakeFiles/pb_remote_server_nrf51422_xxAC_s130_2.0.1.dir/__/__/__/mesh/prov/src/prov_provisionee.c.obj
 .ARM.attributes
                0x0000015a       0x31 examples/pb_remote/server/CMakeFiles/pb_remote_server_nrf51422_xxAC_s130_2.0.1.dir/__/__/__/mesh/prov/src/nrf_mesh_prov.c.obj
 .ARM.attributes
                0x0000018b       0x31 examples/pb_remote/server/CMakeFiles/pb_remote_server_nrf51422_xxAC_s130_2.0.1.dir/__/__/__/mesh/prov/src/provisioning.c.obj
 .ARM.attributes
                0x000001bc       0x31 examples/pb_remote/server/CMakeFiles/pb_remote_server_nrf51422_xxAC_s130_2.0.1.dir/__/__/__/mesh/prov/src/prov_beacon.c.obj
 .ARM.attributes
                0x000001ed       0x31 examples/pb_remote/server/CMakeFiles/pb_remote_server_nrf51422_xxAC_s130_2.0.1.dir/__/__/__/mesh/prov/src/prov_utils.c.obj
 .ARM.attributes
                0x0000021e       0x31 examples/pb_remote/server/CMakeFiles/pb_remote_server_nrf51422_xxAC_s130_2.0.1.dir/__/__/__/mesh/prov/src/prov_bearer_adv.c.obj
 .ARM.attributes
                0x0000024f       0x31 examples/pb_remote/server/CMakeFiles/pb_remote_server_nrf51422_xxAC_s130_2.0.1.dir/__/__/__/models/pb_remote/src/pb_remote_server.c.obj
 .ARM.attributes
                0x00000280       0x31 examples/pb_remote/server/CMakeFiles/pb_remote_server_nrf51422_xxAC_s130_2.0.1.dir/__/__/__/mesh/access/src/access_publish.c.obj
 .ARM.attributes
                0x000002b1       0x31 examples/pb_remote/server/CMakeFiles/pb_remote_server_nrf51422_xxAC_s130_2.0.1.dir/__/__/__/mesh/access/src/access.c.obj
 .ARM.attributes
                0x000002e2       0x31 examples/pb_remote/server/CMakeFiles/pb_remote_server_nrf51422_xxAC_s130_2.0.1.dir/__/__/__/mesh/access/src/access_reliable.c.obj
 .ARM.attributes
                0x00000313       0x31 examples/pb_remote/server/CMakeFiles/pb_remote_server_nrf51422_xxAC_s130_2.0.1.dir/__/__/__/mesh/access/src/device_state_manager.c.obj
 .ARM.attributes
                0x00000344       0x31 examples/pb_remote/server/CMakeFiles/pb_remote_server_nrf51422_xxAC_s130_2.0.1.dir/__/__/__/mesh/access/src/nrf_mesh_node_config.c.obj
 .ARM.attributes
                0x00000375       0x31 examples/pb_remote/server/CMakeFiles/pb_remote_server_nrf51422_xxAC_s130_2.0.1.dir/__/__/__/models/config/src/composition_data.c.obj
 .ARM.attributes
                0x000003a6       0x31 examples/pb_remote/server/CMakeFiles/pb_remote_server_nrf51422_xxAC_s130_2.0.1.dir/__/__/__/models/config/src/config_server.c.obj
 .ARM.attributes
                0x000003d7       0x31 examples/pb_remote/server/CMakeFiles/pb_remote_server_nrf51422_xxAC_s130_2.0.1.dir/__/__/__/models/config/src/packed_index_list.c.obj
 .ARM.attributes
                0x00000408       0x31 examples/pb_remote/server/CMakeFiles/pb_remote_server_nrf51422_xxAC_s130_2.0.1.dir/__/__/__/models/health/src/health_server.c.obj
 .ARM.attributes
                0x00000439       0x31 examples/pb_remote/server/CMakeFiles/pb_remote_server_nrf51422_xxAC_s130_2.0.1.dir/__/__/__/external/nRF5_SDK_14.2.0_17b948a/components/toolchain/system_nrf51.c.obj
 .ARM.attributes
                0x0000046a       0x1b examples/pb_remote/server/CMakeFiles/pb_remote_server_nrf51422_xxAC_s130_2.0.1.dir/__/__/__/external/nRF5_SDK_14.2.0_17b948a/components/toolchain/gcc/gcc_startup_nrf51.S.obj
 .ARM.attributes
                0x00000485       0x31 mesh/core/libmesh_core_nrf51422_xxAC.a(nrf_mesh_configure.c.obj)
 .ARM.attributes
                0x000004b6       0x31 mesh/core/libmesh_core_nrf51422_xxAC.a(event.c.obj)
 .ARM.attributes
                0x000004e7       0x31 mesh/core/libmesh_core_nrf51422_xxAC.a(fifo.c.obj)
 .ARM.attributes
                0x00000518       0x31 mesh/core/libmesh_core_nrf51422_xxAC.a(net_state.c.obj)
 .ARM.attributes
                0x00000549       0x31 mesh/core/libmesh_core_nrf51422_xxAC.a(nrf_mesh_utils.c.obj)
 .ARM.attributes
                0x0000057a       0x31 mesh/core/libmesh_core_nrf51422_xxAC.a(nrf_mesh.c.obj)
 .ARM.attributes
                0x000005ab       0x31 mesh/core/libmesh_core_nrf51422_xxAC.a(hal.c.obj)
 .ARM.attributes
                0x000005dc       0x31 mesh/core/libmesh_core_nrf51422_xxAC.a(timer_scheduler.c.obj)
 .ARM.attributes
                0x0000060d       0x31 mesh/core/libmesh_core_nrf51422_xxAC.a(timer.c.obj)
 .ARM.attributes
                0x0000063e       0x31 mesh/core/libmesh_core_nrf51422_xxAC.a(ticker.c.obj)
 .ARM.attributes
                0x0000066f       0x31 mesh/core/libmesh_core_nrf51422_xxAC.a(rand.c.obj)
 .ARM.attributes
                0x000006a0       0x31 mesh/core/libmesh_core_nrf51422_xxAC.a(nrf_mesh_opt.c.obj)
 .ARM.attributes
                0x000006d1       0x31 mesh/core/libmesh_core_nrf51422_xxAC.a(timeslot.c.obj)
 .ARM.attributes
                0x00000702       0x31 mesh/core/libmesh_core_nrf51422_xxAC.a(bearer_event.c.obj)
 .ARM.attributes
                0x00000733       0x31 mesh/core/libmesh_core_nrf51422_xxAC.a(enc.c.obj)
 .ARM.attributes
                0x00000764       0x31 mesh/core/libmesh_core_nrf51422_xxAC.a(network.c.obj)
 .ARM.attributes
                0x00000795       0x31 mesh/core/libmesh_core_nrf51422_xxAC.a(nrf_mesh_keygen.c.obj)
 .ARM.attributes
                0x000007c6       0x31 mesh/core/libmesh_core_nrf51422_xxAC.a(list.c.obj)
 .ARM.attributes
                0x000007f7       0x31 mesh/core/libmesh_core_nrf51422_xxAC.a(log.c.obj)
 .ARM.attributes
                0x00000828       0x31 mesh/core/libmesh_core_nrf51422_xxAC.a(flash_manager.c.obj)
 .ARM.attributes
                0x00000859       0x31 mesh/core/libmesh_core_nrf51422_xxAC.a(ccm_soft.c.obj)
 .ARM.attributes
                0x0000088a       0x31 mesh/core/libmesh_core_nrf51422_xxAC.a(beacon.c.obj)
 .ARM.attributes
                0x000008bb       0x31 mesh/core/libmesh_core_nrf51422_xxAC.a(flash_manager_internal.c.obj)
 .ARM.attributes
                0x000008ec       0x31 mesh/core/libmesh_core_nrf51422_xxAC.a(core_tx.c.obj)
 .ARM.attributes
                0x0000091d       0x31 mesh/core/libmesh_core_nrf51422_xxAC.a(heartbeat.c.obj)
 .ARM.attributes
                0x0000094e       0x31 mesh/core/libmesh_core_nrf51422_xxAC.a(net_beacon.c.obj)
 .ARM.attributes
                0x0000097f       0x31 mesh/core/libmesh_core_nrf51422_xxAC.a(core_tx_adv.c.obj)
 .ARM.attributes
                0x000009b0       0x31 mesh/core/libmesh_core_nrf51422_xxAC.a(ad_listener.c.obj)
 .ARM.attributes
                0x000009e1       0x31 mesh/core/libmesh_core_nrf51422_xxAC.a(ad_type_filter.c.obj)
 .ARM.attributes
                0x00000a12       0x31 mesh/core/libmesh_core_nrf51422_xxAC.a(advertiser.c.obj)
 .ARM.attributes
                0x00000a43       0x31 mesh/core/libmesh_core_nrf51422_xxAC.a(bearer_handler.c.obj)
 .ARM.attributes
                0x00000a74       0x31 mesh/core/libmesh_core_nrf51422_xxAC.a(broadcast.c.obj)
 .ARM.attributes
                0x00000aa5       0x31 mesh/core/libmesh_core_nrf51422_xxAC.a(filter_engine.c.obj)
 .ARM.attributes
                0x00000ad6       0x31 mesh/core/libmesh_core_nrf51422_xxAC.a(radio_config.c.obj)
 .ARM.attributes
                0x00000b07       0x31 mesh/core/libmesh_core_nrf51422_xxAC.a(scanner.c.obj)
 .ARM.attributes
                0x00000b38       0x31 mesh/core/libmesh_core_nrf51422_xxAC.a(internal_event.c.obj)
 .ARM.attributes
                0x00000b69       0x31 mesh/core/libmesh_core_nrf51422_xxAC.a(aes.c.obj)
 .ARM.attributes
                0x00000b9a       0x31 mesh/core/libmesh_core_nrf51422_xxAC.a(msg_cache.c.obj)
 .ARM.attributes
                0x00000bcb       0x31 mesh/core/libmesh_core_nrf51422_xxAC.a(transport.c.obj)
 .ARM.attributes
                0x00000bfc       0x31 mesh/core/libmesh_core_nrf51422_xxAC.a(packet_buffer.c.obj)
 .ARM.attributes
                0x00000c2d       0x31 mesh/core/libmesh_core_nrf51422_xxAC.a(flash_manager_defrag.c.obj)
 .ARM.attributes
                0x00000c5e       0x31 mesh/core/libmesh_core_nrf51422_xxAC.a(packet_mgr.c.obj)
 .ARM.attributes
                0x00000c8f       0x31 mesh/core/libmesh_core_nrf51422_xxAC.a(mesh_flash.c.obj)
 .ARM.attributes
                0x00000cc0       0x31 mesh/core/libmesh_core_nrf51422_xxAC.a(queue.c.obj)
 .ARM.attributes
                0x00000cf1       0x31 mesh/core/libmesh_core_nrf51422_xxAC.a(aes_cmac.c.obj)
 .ARM.attributes
                0x00000d22       0x31 mesh/core/libmesh_core_nrf51422_xxAC.a(msqueue.c.obj)
 .ARM.attributes
                0x00000d53       0x31 mesh/core/libmesh_core_nrf51422_xxAC.a(replay_cache.c.obj)
 .ARM.attributes
                0x00000d84       0x31 mesh/core/libmesh_core_nrf51422_xxAC.a(nrf_flash.c.obj)
 .ARM.attributes
                0x00000db5       0x31 external/rtt/librtt_nrf51422_xxAC.a(SEGGER_RTT.c.obj)
 .ARM.attributes
                0x00000de6       0x31 external/rtt/librtt_nrf51422_xxAC.a(SEGGER_RTT_printf.c.obj)
 .ARM.attributes
                0x00000e17       0x31 external/micro-ecc/libuECC_nrf51422_xxAC.a(uECC.c.obj)
 .ARM.attributes
                0x00000e48       0x1e c:/a/gcc_arm/6/bin/../lib/gcc/arm-none-eabi/6.3.1/thumb/v6-m\libgcc.a(_thumb1_case_uqi.o)
 .ARM.attributes
                0x00000e66       0x1e c:/a/gcc_arm/6/bin/../lib/gcc/arm-none-eabi/6.3.1/thumb/v6-m\libgcc.a(_thumb1_case_uhi.o)
 .ARM.attributes
                0x00000e84       0x1e c:/a/gcc_arm/6/bin/../lib/gcc/arm-none-eabi/6.3.1/thumb/v6-m\libgcc.a(_udivsi3.o)
 .ARM.attributes
                0x00000ea2       0x1e c:/a/gcc_arm/6/bin/../lib/gcc/arm-none-eabi/6.3.1/thumb/v6-m\libgcc.a(_divsi3.o)
 .ARM.attributes
                0x00000ec0       0x1e c:/a/gcc_arm/6/bin/../lib/gcc/arm-none-eabi/6.3.1/thumb/v6-m\libgcc.a(_dvmd_tls.o)
 .ARM.attributes
                0x00000ede       0x2c c:/a/gcc_arm/6/bin/../lib/gcc/arm-none-eabi/6.3.1/thumb/v6-m\libgcc.a(_muldi3.o)
 .ARM.attributes
                0x00000f0a       0x2c c:/a/gcc_arm/6/bin/../lib/gcc/arm-none-eabi/6.3.1/../../../../arm-none-eabi/lib/thumb/v6-m\libg_nano.a(lib_a-exit.o)
 .ARM.attributes
                0x00000f36       0x2c c:/a/gcc_arm/6/bin/../lib/gcc/arm-none-eabi/6.3.1/../../../../arm-none-eabi/lib/thumb/v6-m\libg_nano.a(lib_a-impure.o)
 .ARM.attributes
                0x00000f62       0x2c c:/a/gcc_arm/6/bin/../lib/gcc/arm-none-eabi/6.3.1/../../../../arm-none-eabi/lib/thumb/v6-m\libg_nano.a(lib_a-init.o)
 .ARM.attributes
                0x00000f8e       0x2c c:/a/gcc_arm/6/bin/../lib/gcc/arm-none-eabi/6.3.1/../../../../arm-none-eabi/lib/thumb/v6-m\libg_nano.a(lib_a-malloc.o)
 .ARM.attributes
                0x00000fba       0x2c c:/a/gcc_arm/6/bin/../lib/gcc/arm-none-eabi/6.3.1/../../../../arm-none-eabi/lib/thumb/v6-m\libg_nano.a(lib_a-memcmp.o)
 .ARM.attributes
                0x00000fe6       0x2c c:/a/gcc_arm/6/bin/../lib/gcc/arm-none-eabi/6.3.1/../../../../arm-none-eabi/lib/thumb/v6-m\libg_nano.a(lib_a-memcpy-stub.o)
 .ARM.attributes
                0x00001012       0x2c c:/a/gcc_arm/6/bin/../lib/gcc/arm-none-eabi/6.3.1/../../../../arm-none-eabi/lib/thumb/v6-m\libg_nano.a(lib_a-memset.o)
 .ARM.attributes
                0x0000103e       0x2c c:/a/gcc_arm/6/bin/../lib/gcc/arm-none-eabi/6.3.1/../../../../arm-none-eabi/lib/thumb/v6-m\libg_nano.a(lib_a-nano-freer.o)
 .ARM.attributes
                0x0000106a       0x2c c:/a/gcc_arm/6/bin/../lib/gcc/arm-none-eabi/6.3.1/../../../../arm-none-eabi/lib/thumb/v6-m\libg_nano.a(lib_a-nano-mallocr.o)
 .ARM.attributes
                0x00001096       0x2c c:/a/gcc_arm/6/bin/../lib/gcc/arm-none-eabi/6.3.1/../../../../arm-none-eabi/lib/thumb/v6-m\libg_nano.a(lib_a-sbrkr.o)
 .ARM.attributes
                0x000010c2       0x2c c:/a/gcc_arm/6/bin/../lib/gcc/arm-none-eabi/6.3.1/../../../../arm-none-eabi/lib/thumb/v6-m\libg_nano.a(lib_a-strcpy.o)
 .ARM.attributes
                0x000010ee       0x1c c:/a/gcc_arm/6/bin/../lib/gcc/arm-none-eabi/6.3.1/../../../../arm-none-eabi/lib/thumb/v6-m\libg_nano.a(lib_a-strlen.o)
 .ARM.attributes
                0x0000110a       0x2c c:/a/gcc_arm/6/bin/../lib/gcc/arm-none-eabi/6.3.1/../../../../arm-none-eabi/lib/thumb/v6-m\libg_nano.a(lib_a-strrchr.o)
 .ARM.attributes
                0x00001136       0x2c c:/a/gcc_arm/6/bin/../lib/gcc/arm-none-eabi/6.3.1/../../../../arm-none-eabi/lib/thumb/v6-m\libg_nano.a(lib_a-mlock.o)
 .ARM.attributes
                0x00001162       0x2c c:/a/gcc_arm/6/bin/../lib/gcc/arm-none-eabi/6.3.1/../../../../arm-none-eabi/lib/thumb/v6-m\libg_nano.a(lib_a-reent.o)
 .ARM.attributes
                0x0000118e       0x2c c:/a/gcc_arm/6/bin/../lib/gcc/arm-none-eabi/6.3.1/../../../../arm-none-eabi/lib/thumb/v6-m\libg_nano.a(lib_a-strchr.o)
 .ARM.attributes
                0x000011ba       0x2c c:/a/gcc_arm/6/bin/../lib/gcc/arm-none-eabi/6.3.1/thumb/v6-m/crtend.o
 .ARM.attributes
                0x000011e6       0x1e c:/a/gcc_arm/6/bin/../lib/gcc/arm-none-eabi/6.3.1/thumb/v6-m/crtn.o
 .ARM.attributes
                0x00001204       0x2c c:/a/gcc_arm/6/bin/../lib/gcc/arm-none-eabi/6.3.1/../../../../arm-none-eabi/lib/thumb/v6-m\libnosys.a(sbrk.o)
 .ARM.attributes
                0x00001230       0x2c c:/a/gcc_arm/6/bin/../lib/gcc/arm-none-eabi/6.3.1/../../../../arm-none-eabi/lib/thumb/v6-m\libnosys.a(_exit.o)

.comment        0x00000000       0x7f
 .comment       0x00000000       0x7f examples/pb_remote/server/CMakeFiles/pb_remote_server_nrf51422_xxAC_s130_2.0.1.dir/src/main.c.obj
                                 0x80 (size before relaxing)
 .comment       0x0000007f       0x80 examples/pb_remote/server/CMakeFiles/pb_remote_server_nrf51422_xxAC_s130_2.0.1.dir/__/__/nrf_mesh_sdk.c.obj
 .comment       0x0000007f       0x80 examples/pb_remote/server/CMakeFiles/pb_remote_server_nrf51422_xxAC_s130_2.0.1.dir/__/__/common/src/simple_hal.c.obj
 .comment       0x0000007f       0x80 examples/pb_remote/server/CMakeFiles/pb_remote_server_nrf51422_xxAC_s130_2.0.1.dir/__/__/nrf_mesh_weak.c.obj
 .comment       0x0000007f       0x80 examples/pb_remote/server/CMakeFiles/pb_remote_server_nrf51422_xxAC_s130_2.0.1.dir/__/__/__/mesh/prov/src/prov_provisionee.c.obj
 .comment       0x0000007f       0x80 examples/pb_remote/server/CMakeFiles/pb_remote_server_nrf51422_xxAC_s130_2.0.1.dir/__/__/__/mesh/prov/src/nrf_mesh_prov.c.obj
 .comment       0x0000007f       0x80 examples/pb_remote/server/CMakeFiles/pb_remote_server_nrf51422_xxAC_s130_2.0.1.dir/__/__/__/mesh/prov/src/provisioning.c.obj
 .comment       0x0000007f       0x80 examples/pb_remote/server/CMakeFiles/pb_remote_server_nrf51422_xxAC_s130_2.0.1.dir/__/__/__/mesh/prov/src/prov_beacon.c.obj
 .comment       0x0000007f       0x80 examples/pb_remote/server/CMakeFiles/pb_remote_server_nrf51422_xxAC_s130_2.0.1.dir/__/__/__/mesh/prov/src/prov_utils.c.obj
 .comment       0x0000007f       0x80 examples/pb_remote/server/CMakeFiles/pb_remote_server_nrf51422_xxAC_s130_2.0.1.dir/__/__/__/mesh/prov/src/prov_bearer_adv.c.obj
 .comment       0x0000007f       0x80 examples/pb_remote/server/CMakeFiles/pb_remote_server_nrf51422_xxAC_s130_2.0.1.dir/__/__/__/models/pb_remote/src/pb_remote_server.c.obj
 .comment       0x0000007f       0x80 examples/pb_remote/server/CMakeFiles/pb_remote_server_nrf51422_xxAC_s130_2.0.1.dir/__/__/__/mesh/access/src/access_publish.c.obj
 .comment       0x0000007f       0x80 examples/pb_remote/server/CMakeFiles/pb_remote_server_nrf51422_xxAC_s130_2.0.1.dir/__/__/__/mesh/access/src/access.c.obj
 .comment       0x0000007f       0x80 examples/pb_remote/server/CMakeFiles/pb_remote_server_nrf51422_xxAC_s130_2.0.1.dir/__/__/__/mesh/access/src/access_reliable.c.obj
 .comment       0x0000007f       0x80 examples/pb_remote/server/CMakeFiles/pb_remote_server_nrf51422_xxAC_s130_2.0.1.dir/__/__/__/mesh/access/src/device_state_manager.c.obj
 .comment       0x0000007f       0x80 examples/pb_remote/server/CMakeFiles/pb_remote_server_nrf51422_xxAC_s130_2.0.1.dir/__/__/__/mesh/access/src/nrf_mesh_node_config.c.obj
 .comment       0x0000007f       0x80 examples/pb_remote/server/CMakeFiles/pb_remote_server_nrf51422_xxAC_s130_2.0.1.dir/__/__/__/models/config/src/composition_data.c.obj
 .comment       0x0000007f       0x80 examples/pb_remote/server/CMakeFiles/pb_remote_server_nrf51422_xxAC_s130_2.0.1.dir/__/__/__/models/config/src/config_server.c.obj
 .comment       0x0000007f       0x80 examples/pb_remote/server/CMakeFiles/pb_remote_server_nrf51422_xxAC_s130_2.0.1.dir/__/__/__/models/config/src/packed_index_list.c.obj
 .comment       0x0000007f       0x80 examples/pb_remote/server/CMakeFiles/pb_remote_server_nrf51422_xxAC_s130_2.0.1.dir/__/__/__/models/health/src/health_server.c.obj
 .comment       0x0000007f       0x80 examples/pb_remote/server/CMakeFiles/pb_remote_server_nrf51422_xxAC_s130_2.0.1.dir/__/__/__/external/nRF5_SDK_14.2.0_17b948a/components/toolchain/system_nrf51.c.obj
 .comment       0x0000007f       0x80 mesh/core/libmesh_core_nrf51422_xxAC.a(nrf_mesh_configure.c.obj)
 .comment       0x0000007f       0x80 mesh/core/libmesh_core_nrf51422_xxAC.a(event.c.obj)
 .comment       0x0000007f       0x80 mesh/core/libmesh_core_nrf51422_xxAC.a(fifo.c.obj)
 .comment       0x0000007f       0x80 mesh/core/libmesh_core_nrf51422_xxAC.a(net_state.c.obj)
 .comment       0x0000007f       0x80 mesh/core/libmesh_core_nrf51422_xxAC.a(nrf_mesh_utils.c.obj)
 .comment       0x0000007f       0x80 mesh/core/libmesh_core_nrf51422_xxAC.a(nrf_mesh.c.obj)
 .comment       0x0000007f       0x80 mesh/core/libmesh_core_nrf51422_xxAC.a(hal.c.obj)
 .comment       0x0000007f       0x80 mesh/core/libmesh_core_nrf51422_xxAC.a(timer_scheduler.c.obj)
 .comment       0x0000007f       0x80 mesh/core/libmesh_core_nrf51422_xxAC.a(timer.c.obj)
 .comment       0x0000007f       0x80 mesh/core/libmesh_core_nrf51422_xxAC.a(ticker.c.obj)
 .comment       0x0000007f       0x80 mesh/core/libmesh_core_nrf51422_xxAC.a(rand.c.obj)
 .comment       0x0000007f       0x80 mesh/core/libmesh_core_nrf51422_xxAC.a(nrf_mesh_opt.c.obj)
 .comment       0x0000007f       0x80 mesh/core/libmesh_core_nrf51422_xxAC.a(timeslot.c.obj)
 .comment       0x0000007f       0x80 mesh/core/libmesh_core_nrf51422_xxAC.a(bearer_event.c.obj)
 .comment       0x0000007f       0x80 mesh/core/libmesh_core_nrf51422_xxAC.a(enc.c.obj)
 .comment       0x0000007f       0x80 mesh/core/libmesh_core_nrf51422_xxAC.a(network.c.obj)
 .comment       0x0000007f       0x80 mesh/core/libmesh_core_nrf51422_xxAC.a(nrf_mesh_keygen.c.obj)
 .comment       0x0000007f       0x80 mesh/core/libmesh_core_nrf51422_xxAC.a(list.c.obj)
 .comment       0x0000007f       0x80 mesh/core/libmesh_core_nrf51422_xxAC.a(log.c.obj)
 .comment       0x0000007f       0x80 mesh/core/libmesh_core_nrf51422_xxAC.a(flash_manager.c.obj)
 .comment       0x0000007f       0x80 mesh/core/libmesh_core_nrf51422_xxAC.a(ccm_soft.c.obj)
 .comment       0x0000007f       0x80 mesh/core/libmesh_core_nrf51422_xxAC.a(beacon.c.obj)
 .comment       0x0000007f       0x80 mesh/core/libmesh_core_nrf51422_xxAC.a(flash_manager_internal.c.obj)
 .comment       0x0000007f       0x80 mesh/core/libmesh_core_nrf51422_xxAC.a(core_tx.c.obj)
 .comment       0x0000007f       0x80 mesh/core/libmesh_core_nrf51422_xxAC.a(heartbeat.c.obj)
 .comment       0x0000007f       0x80 mesh/core/libmesh_core_nrf51422_xxAC.a(net_beacon.c.obj)
 .comment       0x0000007f       0x80 mesh/core/libmesh_core_nrf51422_xxAC.a(core_tx_adv.c.obj)
 .comment       0x0000007f       0x80 mesh/core/libmesh_core_nrf51422_xxAC.a(ad_listener.c.obj)
 .comment       0x0000007f       0x80 mesh/core/libmesh_core_nrf51422_xxAC.a(ad_type_filter.c.obj)
 .comment       0x0000007f       0x80 mesh/core/libmesh_core_nrf51422_xxAC.a(advertiser.c.obj)
 .comment       0x0000007f       0x80 mesh/core/libmesh_core_nrf51422_xxAC.a(bearer_handler.c.obj)
 .comment       0x0000007f       0x80 mesh/core/libmesh_core_nrf51422_xxAC.a(broadcast.c.obj)
 .comment       0x0000007f       0x80 mesh/core/libmesh_core_nrf51422_xxAC.a(filter_engine.c.obj)
 .comment       0x0000007f       0x80 mesh/core/libmesh_core_nrf51422_xxAC.a(radio_config.c.obj)
 .comment       0x0000007f       0x80 mesh/core/libmesh_core_nrf51422_xxAC.a(scanner.c.obj)
 .comment       0x0000007f       0x80 mesh/core/libmesh_core_nrf51422_xxAC.a(internal_event.c.obj)
 .comment       0x0000007f       0x80 mesh/core/libmesh_core_nrf51422_xxAC.a(aes.c.obj)
 .comment       0x0000007f       0x80 mesh/core/libmesh_core_nrf51422_xxAC.a(msg_cache.c.obj)
 .comment       0x0000007f       0x80 mesh/core/libmesh_core_nrf51422_xxAC.a(transport.c.obj)
 .comment       0x0000007f       0x80 mesh/core/libmesh_core_nrf51422_xxAC.a(packet_buffer.c.obj)
 .comment       0x0000007f       0x80 mesh/core/libmesh_core_nrf51422_xxAC.a(flash_manager_defrag.c.obj)
 .comment       0x0000007f       0x80 mesh/core/libmesh_core_nrf51422_xxAC.a(packet_mgr.c.obj)
 .comment       0x0000007f       0x80 mesh/core/libmesh_core_nrf51422_xxAC.a(mesh_flash.c.obj)
 .comment       0x0000007f       0x80 mesh/core/libmesh_core_nrf51422_xxAC.a(queue.c.obj)
 .comment       0x0000007f       0x80 mesh/core/libmesh_core_nrf51422_xxAC.a(aes_cmac.c.obj)
 .comment       0x0000007f       0x80 mesh/core/libmesh_core_nrf51422_xxAC.a(msqueue.c.obj)
 .comment       0x0000007f       0x80 mesh/core/libmesh_core_nrf51422_xxAC.a(replay_cache.c.obj)
 .comment       0x0000007f       0x80 mesh/core/libmesh_core_nrf51422_xxAC.a(nrf_flash.c.obj)
 .comment       0x0000007f       0x80 external/rtt/librtt_nrf51422_xxAC.a(SEGGER_RTT.c.obj)
 .comment       0x0000007f       0x80 external/rtt/librtt_nrf51422_xxAC.a(SEGGER_RTT_printf.c.obj)
 .comment       0x0000007f       0x80 external/micro-ecc/libuECC_nrf51422_xxAC.a(uECC.c.obj)

.debug_info     0x00000000    0x77811
 .debug_info    0x00000000     0x2aa9 examples/pb_remote/server/CMakeFiles/pb_remote_server_nrf51422_xxAC_s130_2.0.1.dir/src/main.c.obj
 .debug_info    0x00002aa9     0x30bf examples/pb_remote/server/CMakeFiles/pb_remote_server_nrf51422_xxAC_s130_2.0.1.dir/__/__/nrf_mesh_sdk.c.obj
 .debug_info    0x00005b68     0x12cf examples/pb_remote/server/CMakeFiles/pb_remote_server_nrf51422_xxAC_s130_2.0.1.dir/__/__/common/src/simple_hal.c.obj
 .debug_info    0x00006e37      0x93a examples/pb_remote/server/CMakeFiles/pb_remote_server_nrf51422_xxAC_s130_2.0.1.dir/__/__/nrf_mesh_weak.c.obj
 .debug_info    0x00007771     0x26e4 examples/pb_remote/server/CMakeFiles/pb_remote_server_nrf51422_xxAC_s130_2.0.1.dir/__/__/__/mesh/prov/src/prov_provisionee.c.obj
 .debug_info    0x00009e55     0x1bc1 examples/pb_remote/server/CMakeFiles/pb_remote_server_nrf51422_xxAC_s130_2.0.1.dir/__/__/__/mesh/prov/src/nrf_mesh_prov.c.obj
 .debug_info    0x0000ba16     0x1578 examples/pb_remote/server/CMakeFiles/pb_remote_server_nrf51422_xxAC_s130_2.0.1.dir/__/__/__/mesh/prov/src/provisioning.c.obj
 .debug_info    0x0000cf8e     0x196f examples/pb_remote/server/CMakeFiles/pb_remote_server_nrf51422_xxAC_s130_2.0.1.dir/__/__/__/mesh/prov/src/prov_beacon.c.obj
 .debug_info    0x0000e8fd     0x1ff9 examples/pb_remote/server/CMakeFiles/pb_remote_server_nrf51422_xxAC_s130_2.0.1.dir/__/__/__/mesh/prov/src/prov_utils.c.obj
 .debug_info    0x000108f6     0x3928 examples/pb_remote/server/CMakeFiles/pb_remote_server_nrf51422_xxAC_s130_2.0.1.dir/__/__/__/mesh/prov/src/prov_bearer_adv.c.obj
 .debug_info    0x0001421e     0x4d14 examples/pb_remote/server/CMakeFiles/pb_remote_server_nrf51422_xxAC_s130_2.0.1.dir/__/__/__/models/pb_remote/src/pb_remote_server.c.obj
 .debug_info    0x00018f32     0x10f5 examples/pb_remote/server/CMakeFiles/pb_remote_server_nrf51422_xxAC_s130_2.0.1.dir/__/__/__/mesh/access/src/access_publish.c.obj
 .debug_info    0x0001a027     0x441b examples/pb_remote/server/CMakeFiles/pb_remote_server_nrf51422_xxAC_s130_2.0.1.dir/__/__/__/mesh/access/src/access.c.obj
 .debug_info    0x0001e442     0x150d examples/pb_remote/server/CMakeFiles/pb_remote_server_nrf51422_xxAC_s130_2.0.1.dir/__/__/__/mesh/access/src/access_reliable.c.obj
 .debug_info    0x0001f94f     0x5f13 examples/pb_remote/server/CMakeFiles/pb_remote_server_nrf51422_xxAC_s130_2.0.1.dir/__/__/__/mesh/access/src/device_state_manager.c.obj
 .debug_info    0x00025862     0x375c examples/pb_remote/server/CMakeFiles/pb_remote_server_nrf51422_xxAC_s130_2.0.1.dir/__/__/__/mesh/access/src/nrf_mesh_node_config.c.obj
 .debug_info    0x00028fbe      0xe5d examples/pb_remote/server/CMakeFiles/pb_remote_server_nrf51422_xxAC_s130_2.0.1.dir/__/__/__/models/config/src/composition_data.c.obj
 .debug_info    0x00029e1b     0x6d11 examples/pb_remote/server/CMakeFiles/pb_remote_server_nrf51422_xxAC_s130_2.0.1.dir/__/__/__/models/config/src/config_server.c.obj
 .debug_info    0x00030b2c      0x14d examples/pb_remote/server/CMakeFiles/pb_remote_server_nrf51422_xxAC_s130_2.0.1.dir/__/__/__/models/config/src/packed_index_list.c.obj
 .debug_info    0x00030c79     0x2426 examples/pb_remote/server/CMakeFiles/pb_remote_server_nrf51422_xxAC_s130_2.0.1.dir/__/__/__/models/health/src/health_server.c.obj
 .debug_info    0x0003309f      0x1e5 examples/pb_remote/server/CMakeFiles/pb_remote_server_nrf51422_xxAC_s130_2.0.1.dir/__/__/__/external/nRF5_SDK_14.2.0_17b948a/components/toolchain/system_nrf51.c.obj
 .debug_info    0x00033284      0xba2 mesh/core/libmesh_core_nrf51422_xxAC.a(nrf_mesh_configure.c.obj)
 .debug_info    0x00033e26     0x14c9 mesh/core/libmesh_core_nrf51422_xxAC.a(event.c.obj)
 .debug_info    0x000352ef      0xce0 mesh/core/libmesh_core_nrf51422_xxAC.a(fifo.c.obj)
 .debug_info    0x00035fcf     0x23be mesh/core/libmesh_core_nrf51422_xxAC.a(net_state.c.obj)
 .debug_info    0x0003838d      0xa60 mesh/core/libmesh_core_nrf51422_xxAC.a(nrf_mesh_utils.c.obj)
 .debug_info    0x00038ded     0x3341 mesh/core/libmesh_core_nrf51422_xxAC.a(nrf_mesh.c.obj)
 .debug_info    0x0003c12e      0x472 mesh/core/libmesh_core_nrf51422_xxAC.a(hal.c.obj)
 .debug_info    0x0003c5a0     0x100b mesh/core/libmesh_core_nrf51422_xxAC.a(timer_scheduler.c.obj)
 .debug_info    0x0003d5ab      0xc94 mesh/core/libmesh_core_nrf51422_xxAC.a(timer.c.obj)
 .debug_info    0x0003e23f      0x208 mesh/core/libmesh_core_nrf51422_xxAC.a(ticker.c.obj)
 .debug_info    0x0003e447      0x41e mesh/core/libmesh_core_nrf51422_xxAC.a(rand.c.obj)
 .debug_info    0x0003e865      0xb0b mesh/core/libmesh_core_nrf51422_xxAC.a(nrf_mesh_opt.c.obj)
 .debug_info    0x0003f370     0x19c1 mesh/core/libmesh_core_nrf51422_xxAC.a(timeslot.c.obj)
 .debug_info    0x00040d31     0x1817 mesh/core/libmesh_core_nrf51422_xxAC.a(bearer_event.c.obj)
 .debug_info    0x00042548     0x1702 mesh/core/libmesh_core_nrf51422_xxAC.a(enc.c.obj)
 .debug_info    0x00043c4a     0x2afd mesh/core/libmesh_core_nrf51422_xxAC.a(network.c.obj)
 .debug_info    0x00046747      0x4f2 mesh/core/libmesh_core_nrf51422_xxAC.a(nrf_mesh_keygen.c.obj)
 .debug_info    0x00046c39      0x46a mesh/core/libmesh_core_nrf51422_xxAC.a(list.c.obj)
 .debug_info    0x000470a3      0xe28 mesh/core/libmesh_core_nrf51422_xxAC.a(log.c.obj)
 .debug_info    0x00047ecb     0x3233 mesh/core/libmesh_core_nrf51422_xxAC.a(flash_manager.c.obj)
 .debug_info    0x0004b0fe     0x107b mesh/core/libmesh_core_nrf51422_xxAC.a(ccm_soft.c.obj)
 .debug_info    0x0004c179     0x1929 mesh/core/libmesh_core_nrf51422_xxAC.a(beacon.c.obj)
 .debug_info    0x0004daa2      0xb88 mesh/core/libmesh_core_nrf51422_xxAC.a(flash_manager_internal.c.obj)
 .debug_info    0x0004e62a      0xf80 mesh/core/libmesh_core_nrf51422_xxAC.a(core_tx.c.obj)
 .debug_info    0x0004f5aa     0x2156 mesh/core/libmesh_core_nrf51422_xxAC.a(heartbeat.c.obj)
 .debug_info    0x00051700     0x14bf mesh/core/libmesh_core_nrf51422_xxAC.a(net_beacon.c.obj)
 .debug_info    0x00052bbf     0x1618 mesh/core/libmesh_core_nrf51422_xxAC.a(core_tx_adv.c.obj)
 .debug_info    0x000541d7     0x10f8 mesh/core/libmesh_core_nrf51422_xxAC.a(ad_listener.c.obj)
 .debug_info    0x000552cf      0xf9e mesh/core/libmesh_core_nrf51422_xxAC.a(ad_type_filter.c.obj)
 .debug_info    0x0005626d     0x22fc mesh/core/libmesh_core_nrf51422_xxAC.a(advertiser.c.obj)
 .debug_info    0x00058569     0x1833 mesh/core/libmesh_core_nrf51422_xxAC.a(bearer_handler.c.obj)
 .debug_info    0x00059d9c     0x18f3 mesh/core/libmesh_core_nrf51422_xxAC.a(broadcast.c.obj)
 .debug_info    0x0005b68f      0xccc mesh/core/libmesh_core_nrf51422_xxAC.a(filter_engine.c.obj)
 .debug_info    0x0005c35b      0x848 mesh/core/libmesh_core_nrf51422_xxAC.a(radio_config.c.obj)
 .debug_info    0x0005cba3     0x24af mesh/core/libmesh_core_nrf51422_xxAC.a(scanner.c.obj)
 .debug_info    0x0005f052      0xc54 mesh/core/libmesh_core_nrf51422_xxAC.a(internal_event.c.obj)
 .debug_info    0x0005fca6      0xbe1 mesh/core/libmesh_core_nrf51422_xxAC.a(aes.c.obj)
 .debug_info    0x00060887      0xa70 mesh/core/libmesh_core_nrf51422_xxAC.a(msg_cache.c.obj)
 .debug_info    0x000612f7     0x54ce mesh/core/libmesh_core_nrf51422_xxAC.a(transport.c.obj)
 .debug_info    0x000667c5     0x1c1e mesh/core/libmesh_core_nrf51422_xxAC.a(packet_buffer.c.obj)
 .debug_info    0x000683e3     0x21d4 mesh/core/libmesh_core_nrf51422_xxAC.a(flash_manager_defrag.c.obj)
 .debug_info    0x0006a5b7     0x1164 mesh/core/libmesh_core_nrf51422_xxAC.a(packet_mgr.c.obj)
 .debug_info    0x0006b71b     0x1860 mesh/core/libmesh_core_nrf51422_xxAC.a(mesh_flash.c.obj)
 .debug_info    0x0006cf7b      0xacb mesh/core/libmesh_core_nrf51422_xxAC.a(queue.c.obj)
 .debug_info    0x0006da46      0xe2a mesh/core/libmesh_core_nrf51422_xxAC.a(aes_cmac.c.obj)
 .debug_info    0x0006e870      0xcdf mesh/core/libmesh_core_nrf51422_xxAC.a(msqueue.c.obj)
 .debug_info    0x0006f54f      0xae9 mesh/core/libmesh_core_nrf51422_xxAC.a(replay_cache.c.obj)
 .debug_info    0x00070038      0xac0 mesh/core/libmesh_core_nrf51422_xxAC.a(nrf_flash.c.obj)
 .debug_info    0x00070af8     0x1831 external/rtt/librtt_nrf51422_xxAC.a(SEGGER_RTT.c.obj)
 .debug_info    0x00072329      0xed0 external/rtt/librtt_nrf51422_xxAC.a(SEGGER_RTT_printf.c.obj)
 .debug_info    0x000731f9     0x4618 external/micro-ecc/libuECC_nrf51422_xxAC.a(uECC.c.obj)

.debug_abbrev   0x00000000     0xf775
 .debug_abbrev  0x00000000      0x320 examples/pb_remote/server/CMakeFiles/pb_remote_server_nrf51422_xxAC_s130_2.0.1.dir/src/main.c.obj
 .debug_abbrev  0x00000320      0x4ae examples/pb_remote/server/CMakeFiles/pb_remote_server_nrf51422_xxAC_s130_2.0.1.dir/__/__/nrf_mesh_sdk.c.obj
 .debug_abbrev  0x000007ce      0x35b examples/pb_remote/server/CMakeFiles/pb_remote_server_nrf51422_xxAC_s130_2.0.1.dir/__/__/common/src/simple_hal.c.obj
 .debug_abbrev  0x00000b29      0x1a7 examples/pb_remote/server/CMakeFiles/pb_remote_server_nrf51422_xxAC_s130_2.0.1.dir/__/__/nrf_mesh_weak.c.obj
 .debug_abbrev  0x00000cd0      0x463 examples/pb_remote/server/CMakeFiles/pb_remote_server_nrf51422_xxAC_s130_2.0.1.dir/__/__/__/mesh/prov/src/prov_provisionee.c.obj
 .debug_abbrev  0x00001133      0x30f examples/pb_remote/server/CMakeFiles/pb_remote_server_nrf51422_xxAC_s130_2.0.1.dir/__/__/__/mesh/prov/src/nrf_mesh_prov.c.obj
 .debug_abbrev  0x00001442      0x275 examples/pb_remote/server/CMakeFiles/pb_remote_server_nrf51422_xxAC_s130_2.0.1.dir/__/__/__/mesh/prov/src/provisioning.c.obj
 .debug_abbrev  0x000016b7      0x2b3 examples/pb_remote/server/CMakeFiles/pb_remote_server_nrf51422_xxAC_s130_2.0.1.dir/__/__/__/mesh/prov/src/prov_beacon.c.obj
 .debug_abbrev  0x0000196a      0x3c4 examples/pb_remote/server/CMakeFiles/pb_remote_server_nrf51422_xxAC_s130_2.0.1.dir/__/__/__/mesh/prov/src/prov_utils.c.obj
 .debug_abbrev  0x00001d2e      0x4cd examples/pb_remote/server/CMakeFiles/pb_remote_server_nrf51422_xxAC_s130_2.0.1.dir/__/__/__/mesh/prov/src/prov_bearer_adv.c.obj
 .debug_abbrev  0x000021fb      0x4ee examples/pb_remote/server/CMakeFiles/pb_remote_server_nrf51422_xxAC_s130_2.0.1.dir/__/__/__/models/pb_remote/src/pb_remote_server.c.obj
 .debug_abbrev  0x000026e9      0x422 examples/pb_remote/server/CMakeFiles/pb_remote_server_nrf51422_xxAC_s130_2.0.1.dir/__/__/__/mesh/access/src/access_publish.c.obj
 .debug_abbrev  0x00002b0b      0x663 examples/pb_remote/server/CMakeFiles/pb_remote_server_nrf51422_xxAC_s130_2.0.1.dir/__/__/__/mesh/access/src/access.c.obj
 .debug_abbrev  0x0000316e      0x412 examples/pb_remote/server/CMakeFiles/pb_remote_server_nrf51422_xxAC_s130_2.0.1.dir/__/__/__/mesh/access/src/access_reliable.c.obj
 .debug_abbrev  0x00003580      0x5fa examples/pb_remote/server/CMakeFiles/pb_remote_server_nrf51422_xxAC_s130_2.0.1.dir/__/__/__/mesh/access/src/device_state_manager.c.obj
 .debug_abbrev  0x00003b7a      0x562 examples/pb_remote/server/CMakeFiles/pb_remote_server_nrf51422_xxAC_s130_2.0.1.dir/__/__/__/mesh/access/src/nrf_mesh_node_config.c.obj
 .debug_abbrev  0x000040dc      0x2af examples/pb_remote/server/CMakeFiles/pb_remote_server_nrf51422_xxAC_s130_2.0.1.dir/__/__/__/models/config/src/composition_data.c.obj
 .debug_abbrev  0x0000438b      0x550 examples/pb_remote/server/CMakeFiles/pb_remote_server_nrf51422_xxAC_s130_2.0.1.dir/__/__/__/models/config/src/config_server.c.obj
 .debug_abbrev  0x000048db       0xaf examples/pb_remote/server/CMakeFiles/pb_remote_server_nrf51422_xxAC_s130_2.0.1.dir/__/__/__/models/config/src/packed_index_list.c.obj
 .debug_abbrev  0x0000498a      0x4f0 examples/pb_remote/server/CMakeFiles/pb_remote_server_nrf51422_xxAC_s130_2.0.1.dir/__/__/__/models/health/src/health_server.c.obj
 .debug_abbrev  0x00004e7a      0x117 examples/pb_remote/server/CMakeFiles/pb_remote_server_nrf51422_xxAC_s130_2.0.1.dir/__/__/__/external/nRF5_SDK_14.2.0_17b948a/components/toolchain/system_nrf51.c.obj
 .debug_abbrev  0x00004f91      0x242 mesh/core/libmesh_core_nrf51422_xxAC.a(nrf_mesh_configure.c.obj)
 .debug_abbrev  0x000051d3      0x283 mesh/core/libmesh_core_nrf51422_xxAC.a(event.c.obj)
 .debug_abbrev  0x00005456      0x2ec mesh/core/libmesh_core_nrf51422_xxAC.a(fifo.c.obj)
 .debug_abbrev  0x00005742      0x527 mesh/core/libmesh_core_nrf51422_xxAC.a(net_state.c.obj)
 .debug_abbrev  0x00005c69      0x253 mesh/core/libmesh_core_nrf51422_xxAC.a(nrf_mesh_utils.c.obj)
 .debug_abbrev  0x00005ebc      0x42a mesh/core/libmesh_core_nrf51422_xxAC.a(nrf_mesh.c.obj)
 .debug_abbrev  0x000062e6      0x1e4 mesh/core/libmesh_core_nrf51422_xxAC.a(hal.c.obj)
 .debug_abbrev  0x000064ca      0x3bd mesh/core/libmesh_core_nrf51422_xxAC.a(timer_scheduler.c.obj)
 .debug_abbrev  0x00006887      0x326 mesh/core/libmesh_core_nrf51422_xxAC.a(timer.c.obj)
 .debug_abbrev  0x00006bad      0x14f mesh/core/libmesh_core_nrf51422_xxAC.a(ticker.c.obj)
 .debug_abbrev  0x00006cfc      0x1ba mesh/core/libmesh_core_nrf51422_xxAC.a(rand.c.obj)
 .debug_abbrev  0x00006eb6      0x23d mesh/core/libmesh_core_nrf51422_xxAC.a(nrf_mesh_opt.c.obj)
 .debug_abbrev  0x000070f3      0x4ba mesh/core/libmesh_core_nrf51422_xxAC.a(timeslot.c.obj)
 .debug_abbrev  0x000075ad      0x493 mesh/core/libmesh_core_nrf51422_xxAC.a(bearer_event.c.obj)
 .debug_abbrev  0x00007a40      0x35c mesh/core/libmesh_core_nrf51422_xxAC.a(enc.c.obj)
 .debug_abbrev  0x00007d9c      0x513 mesh/core/libmesh_core_nrf51422_xxAC.a(network.c.obj)
 .debug_abbrev  0x000082af      0x158 mesh/core/libmesh_core_nrf51422_xxAC.a(nrf_mesh_keygen.c.obj)
 .debug_abbrev  0x00008407      0x186 mesh/core/libmesh_core_nrf51422_xxAC.a(list.c.obj)
 .debug_abbrev  0x0000858d      0x24e mesh/core/libmesh_core_nrf51422_xxAC.a(log.c.obj)
 .debug_abbrev  0x000087db      0x5a4 mesh/core/libmesh_core_nrf51422_xxAC.a(flash_manager.c.obj)
 .debug_abbrev  0x00008d7f      0x2ac mesh/core/libmesh_core_nrf51422_xxAC.a(ccm_soft.c.obj)
 .debug_abbrev  0x0000902b      0x37f mesh/core/libmesh_core_nrf51422_xxAC.a(beacon.c.obj)
 .debug_abbrev  0x000093aa      0x283 mesh/core/libmesh_core_nrf51422_xxAC.a(flash_manager_internal.c.obj)
 .debug_abbrev  0x0000962d      0x30c mesh/core/libmesh_core_nrf51422_xxAC.a(core_tx.c.obj)
 .debug_abbrev  0x00009939      0x4ad mesh/core/libmesh_core_nrf51422_xxAC.a(heartbeat.c.obj)
 .debug_abbrev  0x00009de6      0x3dc mesh/core/libmesh_core_nrf51422_xxAC.a(net_beacon.c.obj)
 .debug_abbrev  0x0000a1c2      0x321 mesh/core/libmesh_core_nrf51422_xxAC.a(core_tx_adv.c.obj)
 .debug_abbrev  0x0000a4e3      0x325 mesh/core/libmesh_core_nrf51422_xxAC.a(ad_listener.c.obj)
 .debug_abbrev  0x0000a808      0x33d mesh/core/libmesh_core_nrf51422_xxAC.a(ad_type_filter.c.obj)
 .debug_abbrev  0x0000ab45      0x4bb mesh/core/libmesh_core_nrf51422_xxAC.a(advertiser.c.obj)
 .debug_abbrev  0x0000b000      0x40b mesh/core/libmesh_core_nrf51422_xxAC.a(bearer_handler.c.obj)
 .debug_abbrev  0x0000b40b      0x3b5 mesh/core/libmesh_core_nrf51422_xxAC.a(broadcast.c.obj)
 .debug_abbrev  0x0000b7c0      0x27a mesh/core/libmesh_core_nrf51422_xxAC.a(filter_engine.c.obj)
 .debug_abbrev  0x0000ba3a      0x19f mesh/core/libmesh_core_nrf51422_xxAC.a(radio_config.c.obj)
 .debug_abbrev  0x0000bbd9      0x510 mesh/core/libmesh_core_nrf51422_xxAC.a(scanner.c.obj)
 .debug_abbrev  0x0000c0e9      0x248 mesh/core/libmesh_core_nrf51422_xxAC.a(internal_event.c.obj)
 .debug_abbrev  0x0000c331      0x25d mesh/core/libmesh_core_nrf51422_xxAC.a(aes.c.obj)
 .debug_abbrev  0x0000c58e      0x256 mesh/core/libmesh_core_nrf51422_xxAC.a(msg_cache.c.obj)
 .debug_abbrev  0x0000c7e4      0x5d9 mesh/core/libmesh_core_nrf51422_xxAC.a(transport.c.obj)
 .debug_abbrev  0x0000cdbd      0x472 mesh/core/libmesh_core_nrf51422_xxAC.a(packet_buffer.c.obj)
 .debug_abbrev  0x0000d22f      0x553 mesh/core/libmesh_core_nrf51422_xxAC.a(flash_manager_defrag.c.obj)
 .debug_abbrev  0x0000d782      0x3ca mesh/core/libmesh_core_nrf51422_xxAC.a(packet_mgr.c.obj)
 .debug_abbrev  0x0000db4c      0x45e mesh/core/libmesh_core_nrf51422_xxAC.a(mesh_flash.c.obj)
 .debug_abbrev  0x0000dfaa      0x220 mesh/core/libmesh_core_nrf51422_xxAC.a(queue.c.obj)
 .debug_abbrev  0x0000e1ca      0x31a mesh/core/libmesh_core_nrf51422_xxAC.a(aes_cmac.c.obj)
 .debug_abbrev  0x0000e4e4      0x287 mesh/core/libmesh_core_nrf51422_xxAC.a(msqueue.c.obj)
 .debug_abbrev  0x0000e76b      0x264 mesh/core/libmesh_core_nrf51422_xxAC.a(replay_cache.c.obj)
 .debug_abbrev  0x0000e9cf      0x21f mesh/core/libmesh_core_nrf51422_xxAC.a(nrf_flash.c.obj)
 .debug_abbrev  0x0000ebee      0x39c external/rtt/librtt_nrf51422_xxAC.a(SEGGER_RTT.c.obj)
 .debug_abbrev  0x0000ef8a      0x362 external/rtt/librtt_nrf51422_xxAC.a(SEGGER_RTT_printf.c.obj)
 .debug_abbrev  0x0000f2ec      0x489 external/micro-ecc/libuECC_nrf51422_xxAC.a(uECC.c.obj)

.debug_loc      0x00000000    0x25a50
 .debug_loc     0x00000000      0x113 examples/pb_remote/server/CMakeFiles/pb_remote_server_nrf51422_xxAC_s130_2.0.1.dir/src/main.c.obj
 .debug_loc     0x00000113      0x2fc examples/pb_remote/server/CMakeFiles/pb_remote_server_nrf51422_xxAC_s130_2.0.1.dir/__/__/nrf_mesh_sdk.c.obj
 .debug_loc     0x0000040f      0x242 examples/pb_remote/server/CMakeFiles/pb_remote_server_nrf51422_xxAC_s130_2.0.1.dir/__/__/common/src/simple_hal.c.obj
 .debug_loc     0x00000651      0x5e2 examples/pb_remote/server/CMakeFiles/pb_remote_server_nrf51422_xxAC_s130_2.0.1.dir/__/__/__/mesh/prov/src/prov_provisionee.c.obj
 .debug_loc     0x00000c33      0x5ac examples/pb_remote/server/CMakeFiles/pb_remote_server_nrf51422_xxAC_s130_2.0.1.dir/__/__/__/mesh/prov/src/nrf_mesh_prov.c.obj
 .debug_loc     0x000011df      0x4eb examples/pb_remote/server/CMakeFiles/pb_remote_server_nrf51422_xxAC_s130_2.0.1.dir/__/__/__/mesh/prov/src/provisioning.c.obj
 .debug_loc     0x000016ca      0x1fb examples/pb_remote/server/CMakeFiles/pb_remote_server_nrf51422_xxAC_s130_2.0.1.dir/__/__/__/mesh/prov/src/prov_beacon.c.obj
 .debug_loc     0x000018c5      0x50f examples/pb_remote/server/CMakeFiles/pb_remote_server_nrf51422_xxAC_s130_2.0.1.dir/__/__/__/mesh/prov/src/prov_utils.c.obj
 .debug_loc     0x00001dd4     0x178c examples/pb_remote/server/CMakeFiles/pb_remote_server_nrf51422_xxAC_s130_2.0.1.dir/__/__/__/mesh/prov/src/prov_bearer_adv.c.obj
 .debug_loc     0x00003560     0x18aa examples/pb_remote/server/CMakeFiles/pb_remote_server_nrf51422_xxAC_s130_2.0.1.dir/__/__/__/models/pb_remote/src/pb_remote_server.c.obj
 .debug_loc     0x00004e0a      0x55e examples/pb_remote/server/CMakeFiles/pb_remote_server_nrf51422_xxAC_s130_2.0.1.dir/__/__/__/mesh/access/src/access_publish.c.obj
 .debug_loc     0x00005368     0x1efc examples/pb_remote/server/CMakeFiles/pb_remote_server_nrf51422_xxAC_s130_2.0.1.dir/__/__/__/mesh/access/src/access.c.obj
 .debug_loc     0x00007264      0x7c5 examples/pb_remote/server/CMakeFiles/pb_remote_server_nrf51422_xxAC_s130_2.0.1.dir/__/__/__/mesh/access/src/access_reliable.c.obj
 .debug_loc     0x00007a29     0x359e examples/pb_remote/server/CMakeFiles/pb_remote_server_nrf51422_xxAC_s130_2.0.1.dir/__/__/__/mesh/access/src/device_state_manager.c.obj
 .debug_loc     0x0000afc7      0x4cb examples/pb_remote/server/CMakeFiles/pb_remote_server_nrf51422_xxAC_s130_2.0.1.dir/__/__/__/mesh/access/src/nrf_mesh_node_config.c.obj
 .debug_loc     0x0000b492      0x370 examples/pb_remote/server/CMakeFiles/pb_remote_server_nrf51422_xxAC_s130_2.0.1.dir/__/__/__/models/config/src/composition_data.c.obj
 .debug_loc     0x0000b802     0x3c1c examples/pb_remote/server/CMakeFiles/pb_remote_server_nrf51422_xxAC_s130_2.0.1.dir/__/__/__/models/config/src/config_server.c.obj
 .debug_loc     0x0000f41e       0xd6 examples/pb_remote/server/CMakeFiles/pb_remote_server_nrf51422_xxAC_s130_2.0.1.dir/__/__/__/models/config/src/packed_index_list.c.obj
 .debug_loc     0x0000f4f4     0x150b examples/pb_remote/server/CMakeFiles/pb_remote_server_nrf51422_xxAC_s130_2.0.1.dir/__/__/__/models/health/src/health_server.c.obj
 .debug_loc     0x000109ff       0x2c mesh/core/libmesh_core_nrf51422_xxAC.a(nrf_mesh_configure.c.obj)
 .debug_loc     0x00010a2b      0x134 mesh/core/libmesh_core_nrf51422_xxAC.a(event.c.obj)
 .debug_loc     0x00010b5f      0x5b7 mesh/core/libmesh_core_nrf51422_xxAC.a(fifo.c.obj)
 .debug_loc     0x00011116      0x77f mesh/core/libmesh_core_nrf51422_xxAC.a(net_state.c.obj)
 .debug_loc     0x00011895      0x103 mesh/core/libmesh_core_nrf51422_xxAC.a(nrf_mesh_utils.c.obj)
 .debug_loc     0x00011998      0x4b5 mesh/core/libmesh_core_nrf51422_xxAC.a(nrf_mesh.c.obj)
 .debug_loc     0x00011e4d       0x84 mesh/core/libmesh_core_nrf51422_xxAC.a(hal.c.obj)
 .debug_loc     0x00011ed1      0x41b mesh/core/libmesh_core_nrf51422_xxAC.a(timer_scheduler.c.obj)
 .debug_loc     0x000122ec      0x5db mesh/core/libmesh_core_nrf51422_xxAC.a(timer.c.obj)
 .debug_loc     0x000128c7      0x172 mesh/core/libmesh_core_nrf51422_xxAC.a(rand.c.obj)
 .debug_loc     0x00012a39      0x14c mesh/core/libmesh_core_nrf51422_xxAC.a(nrf_mesh_opt.c.obj)
 .debug_loc     0x00012b85      0x3ad mesh/core/libmesh_core_nrf51422_xxAC.a(timeslot.c.obj)
 .debug_loc     0x00012f32      0x7a7 mesh/core/libmesh_core_nrf51422_xxAC.a(bearer_event.c.obj)
 .debug_loc     0x000136d9      0xb0d mesh/core/libmesh_core_nrf51422_xxAC.a(enc.c.obj)
 .debug_loc     0x000141e6      0xe27 mesh/core/libmesh_core_nrf51422_xxAC.a(network.c.obj)
 .debug_loc     0x0001500d      0x197 mesh/core/libmesh_core_nrf51422_xxAC.a(nrf_mesh_keygen.c.obj)
 .debug_loc     0x000151a4      0x598 mesh/core/libmesh_core_nrf51422_xxAC.a(list.c.obj)
 .debug_loc     0x0001573c      0x2e5 mesh/core/libmesh_core_nrf51422_xxAC.a(log.c.obj)
 .debug_loc     0x00015a21     0x17c2 mesh/core/libmesh_core_nrf51422_xxAC.a(flash_manager.c.obj)
 .debug_loc     0x000171e3      0x4a0 mesh/core/libmesh_core_nrf51422_xxAC.a(ccm_soft.c.obj)
 .debug_loc     0x00017683      0x521 mesh/core/libmesh_core_nrf51422_xxAC.a(beacon.c.obj)
 .debug_loc     0x00017ba4      0x149 mesh/core/libmesh_core_nrf51422_xxAC.a(flash_manager_internal.c.obj)
 .debug_loc     0x00017ced      0x632 mesh/core/libmesh_core_nrf51422_xxAC.a(core_tx.c.obj)
 .debug_loc     0x0001831f      0x706 mesh/core/libmesh_core_nrf51422_xxAC.a(heartbeat.c.obj)
 .debug_loc     0x00018a25      0x4a3 mesh/core/libmesh_core_nrf51422_xxAC.a(net_beacon.c.obj)
 .debug_loc     0x00018ec8      0x3e4 mesh/core/libmesh_core_nrf51422_xxAC.a(core_tx_adv.c.obj)
 .debug_loc     0x000192ac      0x394 mesh/core/libmesh_core_nrf51422_xxAC.a(ad_listener.c.obj)
 .debug_loc     0x00019640      0x434 mesh/core/libmesh_core_nrf51422_xxAC.a(ad_type_filter.c.obj)
 .debug_loc     0x00019a74      0xdf8 mesh/core/libmesh_core_nrf51422_xxAC.a(advertiser.c.obj)
 .debug_loc     0x0001a86c      0x3e1 mesh/core/libmesh_core_nrf51422_xxAC.a(bearer_handler.c.obj)
 .debug_loc     0x0001ac4d      0x301 mesh/core/libmesh_core_nrf51422_xxAC.a(broadcast.c.obj)
 .debug_loc     0x0001af4e      0x14a mesh/core/libmesh_core_nrf51422_xxAC.a(filter_engine.c.obj)
 .debug_loc     0x0001b098      0x2b2 mesh/core/libmesh_core_nrf51422_xxAC.a(radio_config.c.obj)
 .debug_loc     0x0001b34a      0x57f mesh/core/libmesh_core_nrf51422_xxAC.a(scanner.c.obj)
 .debug_loc     0x0001b8c9       0xc4 mesh/core/libmesh_core_nrf51422_xxAC.a(internal_event.c.obj)
 .debug_loc     0x0001b98d       0xa5 mesh/core/libmesh_core_nrf51422_xxAC.a(aes.c.obj)
 .debug_loc     0x0001ba32       0xeb mesh/core/libmesh_core_nrf51422_xxAC.a(msg_cache.c.obj)
 .debug_loc     0x0001bb1d     0x2719 mesh/core/libmesh_core_nrf51422_xxAC.a(transport.c.obj)
 .debug_loc     0x0001e236     0x108b mesh/core/libmesh_core_nrf51422_xxAC.a(packet_buffer.c.obj)
 .debug_loc     0x0001f2c1      0x838 mesh/core/libmesh_core_nrf51422_xxAC.a(flash_manager_defrag.c.obj)
 .debug_loc     0x0001faf9      0x67d mesh/core/libmesh_core_nrf51422_xxAC.a(packet_mgr.c.obj)
 .debug_loc     0x00020176      0xa7c mesh/core/libmesh_core_nrf51422_xxAC.a(mesh_flash.c.obj)
 .debug_loc     0x00020bf2      0x1f9 mesh/core/libmesh_core_nrf51422_xxAC.a(queue.c.obj)
 .debug_loc     0x00020deb      0x339 mesh/core/libmesh_core_nrf51422_xxAC.a(aes_cmac.c.obj)
 .debug_loc     0x00021124      0x41a mesh/core/libmesh_core_nrf51422_xxAC.a(msqueue.c.obj)
 .debug_loc     0x0002153e      0x1fb mesh/core/libmesh_core_nrf51422_xxAC.a(replay_cache.c.obj)
 .debug_loc     0x00021739      0x1af mesh/core/libmesh_core_nrf51422_xxAC.a(nrf_flash.c.obj)
 .debug_loc     0x000218e8     0x135a external/rtt/librtt_nrf51422_xxAC.a(SEGGER_RTT.c.obj)
 .debug_loc     0x00022c42      0x79b external/rtt/librtt_nrf51422_xxAC.a(SEGGER_RTT_printf.c.obj)
 .debug_loc     0x000233dd     0x2673 external/micro-ecc/libuECC_nrf51422_xxAC.a(uECC.c.obj)

.debug_aranges  0x00000000     0x2298
 .debug_aranges
                0x00000000       0x38 examples/pb_remote/server/CMakeFiles/pb_remote_server_nrf51422_xxAC_s130_2.0.1.dir/src/main.c.obj
 .debug_aranges
                0x00000038       0x80 examples/pb_remote/server/CMakeFiles/pb_remote_server_nrf51422_xxAC_s130_2.0.1.dir/__/__/nrf_mesh_sdk.c.obj
 .debug_aranges
                0x000000b8       0x50 examples/pb_remote/server/CMakeFiles/pb_remote_server_nrf51422_xxAC_s130_2.0.1.dir/__/__/common/src/simple_hal.c.obj
 .debug_aranges
                0x00000108       0x28 examples/pb_remote/server/CMakeFiles/pb_remote_server_nrf51422_xxAC_s130_2.0.1.dir/__/__/nrf_mesh_weak.c.obj
 .debug_aranges
                0x00000130       0x70 examples/pb_remote/server/CMakeFiles/pb_remote_server_nrf51422_xxAC_s130_2.0.1.dir/__/__/__/mesh/prov/src/prov_provisionee.c.obj
 .debug_aranges
                0x000001a0       0x78 examples/pb_remote/server/CMakeFiles/pb_remote_server_nrf51422_xxAC_s130_2.0.1.dir/__/__/__/mesh/prov/src/nrf_mesh_prov.c.obj
 .debug_aranges
                0x00000218       0x80 examples/pb_remote/server/CMakeFiles/pb_remote_server_nrf51422_xxAC_s130_2.0.1.dir/__/__/__/mesh/prov/src/provisioning.c.obj
 .debug_aranges
                0x00000298       0x38 examples/pb_remote/server/CMakeFiles/pb_remote_server_nrf51422_xxAC_s130_2.0.1.dir/__/__/__/mesh/prov/src/prov_beacon.c.obj
 .debug_aranges
                0x000002d0       0x70 examples/pb_remote/server/CMakeFiles/pb_remote_server_nrf51422_xxAC_s130_2.0.1.dir/__/__/__/mesh/prov/src/prov_utils.c.obj
 .debug_aranges
                0x00000340       0xc8 examples/pb_remote/server/CMakeFiles/pb_remote_server_nrf51422_xxAC_s130_2.0.1.dir/__/__/__/mesh/prov/src/prov_bearer_adv.c.obj
 .debug_aranges
                0x00000408      0x120 examples/pb_remote/server/CMakeFiles/pb_remote_server_nrf51422_xxAC_s130_2.0.1.dir/__/__/__/models/pb_remote/src/pb_remote_server.c.obj
 .debug_aranges
                0x00000528       0x50 examples/pb_remote/server/CMakeFiles/pb_remote_server_nrf51422_xxAC_s130_2.0.1.dir/__/__/__/mesh/access/src/access_publish.c.obj
 .debug_aranges
                0x00000578      0x1b0 examples/pb_remote/server/CMakeFiles/pb_remote_server_nrf51422_xxAC_s130_2.0.1.dir/__/__/__/mesh/access/src/access.c.obj
 .debug_aranges
                0x00000728       0x50 examples/pb_remote/server/CMakeFiles/pb_remote_server_nrf51422_xxAC_s130_2.0.1.dir/__/__/__/mesh/access/src/access_reliable.c.obj
 .debug_aranges
                0x00000778      0x300 examples/pb_remote/server/CMakeFiles/pb_remote_server_nrf51422_xxAC_s130_2.0.1.dir/__/__/__/mesh/access/src/device_state_manager.c.obj
 .debug_aranges
                0x00000a78       0x70 examples/pb_remote/server/CMakeFiles/pb_remote_server_nrf51422_xxAC_s130_2.0.1.dir/__/__/__/mesh/access/src/nrf_mesh_node_config.c.obj
 .debug_aranges
                0x00000ae8       0x20 examples/pb_remote/server/CMakeFiles/pb_remote_server_nrf51422_xxAC_s130_2.0.1.dir/__/__/__/models/config/src/composition_data.c.obj
 .debug_aranges
                0x00000b08      0x1e0 examples/pb_remote/server/CMakeFiles/pb_remote_server_nrf51422_xxAC_s130_2.0.1.dir/__/__/__/models/config/src/config_server.c.obj
 .debug_aranges
                0x00000ce8       0x28 examples/pb_remote/server/CMakeFiles/pb_remote_server_nrf51422_xxAC_s130_2.0.1.dir/__/__/__/models/config/src/packed_index_list.c.obj
 .debug_aranges
                0x00000d10       0xc8 examples/pb_remote/server/CMakeFiles/pb_remote_server_nrf51422_xxAC_s130_2.0.1.dir/__/__/__/models/health/src/health_server.c.obj
 .debug_aranges
                0x00000dd8       0x28 examples/pb_remote/server/CMakeFiles/pb_remote_server_nrf51422_xxAC_s130_2.0.1.dir/__/__/__/external/nRF5_SDK_14.2.0_17b948a/components/toolchain/system_nrf51.c.obj
 .debug_aranges
                0x00000e00       0x30 mesh/core/libmesh_core_nrf51422_xxAC.a(nrf_mesh_configure.c.obj)
 .debug_aranges
                0x00000e30       0x30 mesh/core/libmesh_core_nrf51422_xxAC.a(event.c.obj)
 .debug_aranges
                0x00000e60       0x60 mesh/core/libmesh_core_nrf51422_xxAC.a(fifo.c.obj)
 .debug_aranges
                0x00000ec0       0xc0 mesh/core/libmesh_core_nrf51422_xxAC.a(net_state.c.obj)
 .debug_aranges
                0x00000f80       0x30 mesh/core/libmesh_core_nrf51422_xxAC.a(nrf_mesh_utils.c.obj)
 .debug_aranges
                0x00000fb0       0x88 mesh/core/libmesh_core_nrf51422_xxAC.a(nrf_mesh.c.obj)
 .debug_aranges
                0x00001038       0x38 mesh/core/libmesh_core_nrf51422_xxAC.a(hal.c.obj)
 .debug_aranges
                0x00001070       0x68 mesh/core/libmesh_core_nrf51422_xxAC.a(timer_scheduler.c.obj)
 .debug_aranges
                0x000010d8       0x60 mesh/core/libmesh_core_nrf51422_xxAC.a(timer.c.obj)
 .debug_aranges
                0x00001138       0x30 mesh/core/libmesh_core_nrf51422_xxAC.a(ticker.c.obj)
 .debug_aranges
                0x00001168       0x40 mesh/core/libmesh_core_nrf51422_xxAC.a(rand.c.obj)
 .debug_aranges
                0x000011a8       0x28 mesh/core/libmesh_core_nrf51422_xxAC.a(nrf_mesh_opt.c.obj)
 .debug_aranges
                0x000011d0       0xb8 mesh/core/libmesh_core_nrf51422_xxAC.a(timeslot.c.obj)
 .debug_aranges
                0x00001288       0x98 mesh/core/libmesh_core_nrf51422_xxAC.a(bearer_event.c.obj)
 .debug_aranges
                0x00001320       0x70 mesh/core/libmesh_core_nrf51422_xxAC.a(enc.c.obj)
 .debug_aranges
                0x00001390       0x60 mesh/core/libmesh_core_nrf51422_xxAC.a(network.c.obj)
 .debug_aranges
                0x000013f0       0x40 mesh/core/libmesh_core_nrf51422_xxAC.a(nrf_mesh_keygen.c.obj)
 .debug_aranges
                0x00001430       0x48 mesh/core/libmesh_core_nrf51422_xxAC.a(list.c.obj)
 .debug_aranges
                0x00001478       0x48 mesh/core/libmesh_core_nrf51422_xxAC.a(log.c.obj)
 .debug_aranges
                0x000014c0      0x100 mesh/core/libmesh_core_nrf51422_xxAC.a(flash_manager.c.obj)
 .debug_aranges
                0x000015c0       0x50 mesh/core/libmesh_core_nrf51422_xxAC.a(ccm_soft.c.obj)
 .debug_aranges
                0x00001610       0x38 mesh/core/libmesh_core_nrf51422_xxAC.a(beacon.c.obj)
 .debug_aranges
                0x00001648       0x20 mesh/core/libmesh_core_nrf51422_xxAC.a(flash_manager_internal.c.obj)
 .debug_aranges
                0x00001668       0x58 mesh/core/libmesh_core_nrf51422_xxAC.a(core_tx.c.obj)
 .debug_aranges
                0x000016c0       0x70 mesh/core/libmesh_core_nrf51422_xxAC.a(heartbeat.c.obj)
 .debug_aranges
                0x00001730       0x48 mesh/core/libmesh_core_nrf51422_xxAC.a(net_beacon.c.obj)
 .debug_aranges
                0x00001778       0x68 mesh/core/libmesh_core_nrf51422_xxAC.a(core_tx_adv.c.obj)
 .debug_aranges
                0x000017e0       0x30 mesh/core/libmesh_core_nrf51422_xxAC.a(ad_listener.c.obj)
 .debug_aranges
                0x00001810       0x58 mesh/core/libmesh_core_nrf51422_xxAC.a(ad_type_filter.c.obj)
 .debug_aranges
                0x00001868       0xb0 mesh/core/libmesh_core_nrf51422_xxAC.a(advertiser.c.obj)
 .debug_aranges
                0x00001918       0x70 mesh/core/libmesh_core_nrf51422_xxAC.a(bearer_handler.c.obj)
 .debug_aranges
                0x00001988       0x30 mesh/core/libmesh_core_nrf51422_xxAC.a(broadcast.c.obj)
 .debug_aranges
                0x000019b8       0x38 mesh/core/libmesh_core_nrf51422_xxAC.a(filter_engine.c.obj)
 .debug_aranges
                0x000019f0       0x40 mesh/core/libmesh_core_nrf51422_xxAC.a(radio_config.c.obj)
 .debug_aranges
                0x00001a30       0xe0 mesh/core/libmesh_core_nrf51422_xxAC.a(scanner.c.obj)
 .debug_aranges
                0x00001b10       0x30 mesh/core/libmesh_core_nrf51422_xxAC.a(internal_event.c.obj)
 .debug_aranges
                0x00001b40       0x28 mesh/core/libmesh_core_nrf51422_xxAC.a(aes.c.obj)
 .debug_aranges
                0x00001b68       0x38 mesh/core/libmesh_core_nrf51422_xxAC.a(msg_cache.c.obj)
 .debug_aranges
                0x00001ba0      0x120 mesh/core/libmesh_core_nrf51422_xxAC.a(transport.c.obj)
 .debug_aranges
                0x00001cc0       0x80 mesh/core/libmesh_core_nrf51422_xxAC.a(packet_buffer.c.obj)
 .debug_aranges
                0x00001d40       0xc8 mesh/core/libmesh_core_nrf51422_xxAC.a(flash_manager_defrag.c.obj)
 .debug_aranges
                0x00001e08       0x48 mesh/core/libmesh_core_nrf51422_xxAC.a(packet_mgr.c.obj)
 .debug_aranges
                0x00001e50       0x60 mesh/core/libmesh_core_nrf51422_xxAC.a(mesh_flash.c.obj)
 .debug_aranges
                0x00001eb0       0x38 mesh/core/libmesh_core_nrf51422_xxAC.a(queue.c.obj)
 .debug_aranges
                0x00001ee8       0x38 mesh/core/libmesh_core_nrf51422_xxAC.a(aes_cmac.c.obj)
 .debug_aranges
                0x00001f20       0x48 mesh/core/libmesh_core_nrf51422_xxAC.a(msqueue.c.obj)
 .debug_aranges
                0x00001f68       0x48 mesh/core/libmesh_core_nrf51422_xxAC.a(replay_cache.c.obj)
 .debug_aranges
                0x00001fb0       0x30 mesh/core/libmesh_core_nrf51422_xxAC.a(nrf_flash.c.obj)
 .debug_aranges
                0x00001fe0       0xd8 external/rtt/librtt_nrf51422_xxAC.a(SEGGER_RTT.c.obj)
 .debug_aranges
                0x000020b8       0x38 external/rtt/librtt_nrf51422_xxAC.a(SEGGER_RTT_printf.c.obj)
 .debug_aranges
                0x000020f0      0x1a8 external/micro-ecc/libuECC_nrf51422_xxAC.a(uECC.c.obj)

.debug_ranges   0x00000000     0x86f0
 .debug_ranges  0x00000000       0x90 examples/pb_remote/server/CMakeFiles/pb_remote_server_nrf51422_xxAC_s130_2.0.1.dir/src/main.c.obj
 .debug_ranges  0x00000090      0x1b0 examples/pb_remote/server/CMakeFiles/pb_remote_server_nrf51422_xxAC_s130_2.0.1.dir/__/__/nrf_mesh_sdk.c.obj
 .debug_ranges  0x00000240       0xf8 examples/pb_remote/server/CMakeFiles/pb_remote_server_nrf51422_xxAC_s130_2.0.1.dir/__/__/common/src/simple_hal.c.obj
 .debug_ranges  0x00000338       0x18 examples/pb_remote/server/CMakeFiles/pb_remote_server_nrf51422_xxAC_s130_2.0.1.dir/__/__/nrf_mesh_weak.c.obj
 .debug_ranges  0x00000350      0x120 examples/pb_remote/server/CMakeFiles/pb_remote_server_nrf51422_xxAC_s130_2.0.1.dir/__/__/__/mesh/prov/src/prov_provisionee.c.obj
 .debug_ranges  0x00000470       0xb0 examples/pb_remote/server/CMakeFiles/pb_remote_server_nrf51422_xxAC_s130_2.0.1.dir/__/__/__/mesh/prov/src/nrf_mesh_prov.c.obj
 .debug_ranges  0x00000520       0xa0 examples/pb_remote/server/CMakeFiles/pb_remote_server_nrf51422_xxAC_s130_2.0.1.dir/__/__/__/mesh/prov/src/provisioning.c.obj
 .debug_ranges  0x000005c0       0x88 examples/pb_remote/server/CMakeFiles/pb_remote_server_nrf51422_xxAC_s130_2.0.1.dir/__/__/__/mesh/prov/src/prov_beacon.c.obj
 .debug_ranges  0x00000648       0xd0 examples/pb_remote/server/CMakeFiles/pb_remote_server_nrf51422_xxAC_s130_2.0.1.dir/__/__/__/mesh/prov/src/prov_utils.c.obj
 .debug_ranges  0x00000718      0x5d0 examples/pb_remote/server/CMakeFiles/pb_remote_server_nrf51422_xxAC_s130_2.0.1.dir/__/__/__/mesh/prov/src/prov_bearer_adv.c.obj
 .debug_ranges  0x00000ce8      0x768 examples/pb_remote/server/CMakeFiles/pb_remote_server_nrf51422_xxAC_s130_2.0.1.dir/__/__/__/models/pb_remote/src/pb_remote_server.c.obj
 .debug_ranges  0x00001450      0x158 examples/pb_remote/server/CMakeFiles/pb_remote_server_nrf51422_xxAC_s130_2.0.1.dir/__/__/__/mesh/access/src/access_publish.c.obj
 .debug_ranges  0x000015a8      0x7e8 examples/pb_remote/server/CMakeFiles/pb_remote_server_nrf51422_xxAC_s130_2.0.1.dir/__/__/__/mesh/access/src/access.c.obj
 .debug_ranges  0x00001d90      0x220 examples/pb_remote/server/CMakeFiles/pb_remote_server_nrf51422_xxAC_s130_2.0.1.dir/__/__/__/mesh/access/src/access_reliable.c.obj
 .debug_ranges  0x00001fb0      0xad0 examples/pb_remote/server/CMakeFiles/pb_remote_server_nrf51422_xxAC_s130_2.0.1.dir/__/__/__/mesh/access/src/device_state_manager.c.obj
 .debug_ranges  0x00002a80      0x1f8 examples/pb_remote/server/CMakeFiles/pb_remote_server_nrf51422_xxAC_s130_2.0.1.dir/__/__/__/mesh/access/src/nrf_mesh_node_config.c.obj
 .debug_ranges  0x00002c78      0x178 examples/pb_remote/server/CMakeFiles/pb_remote_server_nrf51422_xxAC_s130_2.0.1.dir/__/__/__/models/config/src/composition_data.c.obj
 .debug_ranges  0x00002df0      0x758 examples/pb_remote/server/CMakeFiles/pb_remote_server_nrf51422_xxAC_s130_2.0.1.dir/__/__/__/models/config/src/config_server.c.obj
 .debug_ranges  0x00003548       0x18 examples/pb_remote/server/CMakeFiles/pb_remote_server_nrf51422_xxAC_s130_2.0.1.dir/__/__/__/models/config/src/packed_index_list.c.obj
 .debug_ranges  0x00003560      0x358 examples/pb_remote/server/CMakeFiles/pb_remote_server_nrf51422_xxAC_s130_2.0.1.dir/__/__/__/models/health/src/health_server.c.obj
 .debug_ranges  0x000038b8       0x48 examples/pb_remote/server/CMakeFiles/pb_remote_server_nrf51422_xxAC_s130_2.0.1.dir/__/__/__/external/nRF5_SDK_14.2.0_17b948a/components/toolchain/system_nrf51.c.obj
 .debug_ranges  0x00003900       0x20 mesh/core/libmesh_core_nrf51422_xxAC.a(nrf_mesh_configure.c.obj)
 .debug_ranges  0x00003920       0x68 mesh/core/libmesh_core_nrf51422_xxAC.a(event.c.obj)
 .debug_ranges  0x00003988       0xb0 mesh/core/libmesh_core_nrf51422_xxAC.a(fifo.c.obj)
 .debug_ranges  0x00003a38      0x1e8 mesh/core/libmesh_core_nrf51422_xxAC.a(net_state.c.obj)
 .debug_ranges  0x00003c20       0x38 mesh/core/libmesh_core_nrf51422_xxAC.a(nrf_mesh_utils.c.obj)
 .debug_ranges  0x00003c58       0xd8 mesh/core/libmesh_core_nrf51422_xxAC.a(nrf_mesh.c.obj)
 .debug_ranges  0x00003d30       0x28 mesh/core/libmesh_core_nrf51422_xxAC.a(hal.c.obj)
 .debug_ranges  0x00003d58      0x210 mesh/core/libmesh_core_nrf51422_xxAC.a(timer_scheduler.c.obj)
 .debug_ranges  0x00003f68      0x118 mesh/core/libmesh_core_nrf51422_xxAC.a(timer.c.obj)
 .debug_ranges  0x00004080       0x20 mesh/core/libmesh_core_nrf51422_xxAC.a(ticker.c.obj)
 .debug_ranges  0x000040a0       0x48 mesh/core/libmesh_core_nrf51422_xxAC.a(rand.c.obj)
 .debug_ranges  0x000040e8       0x18 mesh/core/libmesh_core_nrf51422_xxAC.a(nrf_mesh_opt.c.obj)
 .debug_ranges  0x00004100      0x178 mesh/core/libmesh_core_nrf51422_xxAC.a(timeslot.c.obj)
 .debug_ranges  0x00004278      0x228 mesh/core/libmesh_core_nrf51422_xxAC.a(bearer_event.c.obj)
 .debug_ranges  0x000044a0      0x170 mesh/core/libmesh_core_nrf51422_xxAC.a(enc.c.obj)
 .debug_ranges  0x00004610      0x4c8 mesh/core/libmesh_core_nrf51422_xxAC.a(network.c.obj)
 .debug_ranges  0x00004ad8       0x30 mesh/core/libmesh_core_nrf51422_xxAC.a(nrf_mesh_keygen.c.obj)
 .debug_ranges  0x00004b08      0x178 mesh/core/libmesh_core_nrf51422_xxAC.a(list.c.obj)
 .debug_ranges  0x00004c80       0x38 mesh/core/libmesh_core_nrf51422_xxAC.a(log.c.obj)
 .debug_ranges  0x00004cb8      0x740 mesh/core/libmesh_core_nrf51422_xxAC.a(flash_manager.c.obj)
 .debug_ranges  0x000053f8       0x40 mesh/core/libmesh_core_nrf51422_xxAC.a(ccm_soft.c.obj)
 .debug_ranges  0x00005438       0xd8 mesh/core/libmesh_core_nrf51422_xxAC.a(beacon.c.obj)
 .debug_ranges  0x00005510       0x58 mesh/core/libmesh_core_nrf51422_xxAC.a(flash_manager_internal.c.obj)
 .debug_ranges  0x00005568      0x288 mesh/core/libmesh_core_nrf51422_xxAC.a(core_tx.c.obj)
 .debug_ranges  0x000057f0      0x250 mesh/core/libmesh_core_nrf51422_xxAC.a(heartbeat.c.obj)
 .debug_ranges  0x00005a40       0xb8 mesh/core/libmesh_core_nrf51422_xxAC.a(net_beacon.c.obj)
 .debug_ranges  0x00005af8       0xe8 mesh/core/libmesh_core_nrf51422_xxAC.a(core_tx_adv.c.obj)
 .debug_ranges  0x00005be0       0xa0 mesh/core/libmesh_core_nrf51422_xxAC.a(ad_listener.c.obj)
 .debug_ranges  0x00005c80      0x130 mesh/core/libmesh_core_nrf51422_xxAC.a(ad_type_filter.c.obj)
 .debug_ranges  0x00005db0      0x460 mesh/core/libmesh_core_nrf51422_xxAC.a(advertiser.c.obj)
 .debug_ranges  0x00006210      0x288 mesh/core/libmesh_core_nrf51422_xxAC.a(bearer_handler.c.obj)
 .debug_ranges  0x00006498       0xf0 mesh/core/libmesh_core_nrf51422_xxAC.a(broadcast.c.obj)
 .debug_ranges  0x00006588       0x88 mesh/core/libmesh_core_nrf51422_xxAC.a(filter_engine.c.obj)
 .debug_ranges  0x00006610      0x110 mesh/core/libmesh_core_nrf51422_xxAC.a(radio_config.c.obj)
 .debug_ranges  0x00006720      0x2c8 mesh/core/libmesh_core_nrf51422_xxAC.a(scanner.c.obj)
 .debug_ranges  0x000069e8       0x20 mesh/core/libmesh_core_nrf51422_xxAC.a(internal_event.c.obj)
 .debug_ranges  0x00006a08       0x18 mesh/core/libmesh_core_nrf51422_xxAC.a(aes.c.obj)
 .debug_ranges  0x00006a20       0x48 mesh/core/libmesh_core_nrf51422_xxAC.a(msg_cache.c.obj)
 .debug_ranges  0x00006a68      0x848 mesh/core/libmesh_core_nrf51422_xxAC.a(transport.c.obj)
 .debug_ranges  0x000072b0      0x458 mesh/core/libmesh_core_nrf51422_xxAC.a(packet_buffer.c.obj)
 .debug_ranges  0x00007708      0x388 mesh/core/libmesh_core_nrf51422_xxAC.a(flash_manager_defrag.c.obj)
 .debug_ranges  0x00007a90      0x1b8 mesh/core/libmesh_core_nrf51422_xxAC.a(packet_mgr.c.obj)
 .debug_ranges  0x00007c48      0x318 mesh/core/libmesh_core_nrf51422_xxAC.a(mesh_flash.c.obj)
 .debug_ranges  0x00007f60       0xa0 mesh/core/libmesh_core_nrf51422_xxAC.a(queue.c.obj)
 .debug_ranges  0x00008000       0x78 mesh/core/libmesh_core_nrf51422_xxAC.a(aes_cmac.c.obj)
 .debug_ranges  0x00008078      0x158 mesh/core/libmesh_core_nrf51422_xxAC.a(msqueue.c.obj)
 .debug_ranges  0x000081d0       0x78 mesh/core/libmesh_core_nrf51422_xxAC.a(replay_cache.c.obj)
 .debug_ranges  0x00008248       0x38 mesh/core/libmesh_core_nrf51422_xxAC.a(nrf_flash.c.obj)
 .debug_ranges  0x00008280      0x118 external/rtt/librtt_nrf51422_xxAC.a(SEGGER_RTT.c.obj)
 .debug_ranges  0x00008398       0x50 external/rtt/librtt_nrf51422_xxAC.a(SEGGER_RTT_printf.c.obj)
 .debug_ranges  0x000083e8      0x308 external/micro-ecc/libuECC_nrf51422_xxAC.a(uECC.c.obj)

.debug_line     0x00000000    0x17c5b
 .debug_line    0x00000000      0x6fc examples/pb_remote/server/CMakeFiles/pb_remote_server_nrf51422_xxAC_s130_2.0.1.dir/src/main.c.obj
 .debug_line    0x000006fc      0x711 examples/pb_remote/server/CMakeFiles/pb_remote_server_nrf51422_xxAC_s130_2.0.1.dir/__/__/nrf_mesh_sdk.c.obj
 .debug_line    0x00000e0d      0x429 examples/pb_remote/server/CMakeFiles/pb_remote_server_nrf51422_xxAC_s130_2.0.1.dir/__/__/common/src/simple_hal.c.obj
 .debug_line    0x00001236      0x1d0 examples/pb_remote/server/CMakeFiles/pb_remote_server_nrf51422_xxAC_s130_2.0.1.dir/__/__/nrf_mesh_weak.c.obj
 .debug_line    0x00001406      0x5f7 examples/pb_remote/server/CMakeFiles/pb_remote_server_nrf51422_xxAC_s130_2.0.1.dir/__/__/__/mesh/prov/src/prov_provisionee.c.obj
 .debug_line    0x000019fd      0x492 examples/pb_remote/server/CMakeFiles/pb_remote_server_nrf51422_xxAC_s130_2.0.1.dir/__/__/__/mesh/prov/src/nrf_mesh_prov.c.obj
 .debug_line    0x00001e8f      0x3a6 examples/pb_remote/server/CMakeFiles/pb_remote_server_nrf51422_xxAC_s130_2.0.1.dir/__/__/__/mesh/prov/src/provisioning.c.obj
 .debug_line    0x00002235      0x438 examples/pb_remote/server/CMakeFiles/pb_remote_server_nrf51422_xxAC_s130_2.0.1.dir/__/__/__/mesh/prov/src/prov_beacon.c.obj
 .debug_line    0x0000266d      0x471 examples/pb_remote/server/CMakeFiles/pb_remote_server_nrf51422_xxAC_s130_2.0.1.dir/__/__/__/mesh/prov/src/prov_utils.c.obj
 .debug_line    0x00002ade      0xbef examples/pb_remote/server/CMakeFiles/pb_remote_server_nrf51422_xxAC_s130_2.0.1.dir/__/__/__/mesh/prov/src/prov_bearer_adv.c.obj
 .debug_line    0x000036cd      0xee7 examples/pb_remote/server/CMakeFiles/pb_remote_server_nrf51422_xxAC_s130_2.0.1.dir/__/__/__/models/pb_remote/src/pb_remote_server.c.obj
 .debug_line    0x000045b4      0x3fc examples/pb_remote/server/CMakeFiles/pb_remote_server_nrf51422_xxAC_s130_2.0.1.dir/__/__/__/mesh/access/src/access_publish.c.obj
 .debug_line    0x000049b0      0xeae examples/pb_remote/server/CMakeFiles/pb_remote_server_nrf51422_xxAC_s130_2.0.1.dir/__/__/__/mesh/access/src/access.c.obj
 .debug_line    0x0000585e      0x4a3 examples/pb_remote/server/CMakeFiles/pb_remote_server_nrf51422_xxAC_s130_2.0.1.dir/__/__/__/mesh/access/src/access_reliable.c.obj
 .debug_line    0x00005d01     0x147e examples/pb_remote/server/CMakeFiles/pb_remote_server_nrf51422_xxAC_s130_2.0.1.dir/__/__/__/mesh/access/src/device_state_manager.c.obj
 .debug_line    0x0000717f      0x824 examples/pb_remote/server/CMakeFiles/pb_remote_server_nrf51422_xxAC_s130_2.0.1.dir/__/__/__/mesh/access/src/nrf_mesh_node_config.c.obj
 .debug_line    0x000079a3      0x30f examples/pb_remote/server/CMakeFiles/pb_remote_server_nrf51422_xxAC_s130_2.0.1.dir/__/__/__/models/config/src/composition_data.c.obj
 .debug_line    0x00007cb2     0x1217 examples/pb_remote/server/CMakeFiles/pb_remote_server_nrf51422_xxAC_s130_2.0.1.dir/__/__/__/models/config/src/config_server.c.obj
 .debug_line    0x00008ec9       0xff examples/pb_remote/server/CMakeFiles/pb_remote_server_nrf51422_xxAC_s130_2.0.1.dir/__/__/__/models/config/src/packed_index_list.c.obj
 .debug_line    0x00008fc8      0x691 examples/pb_remote/server/CMakeFiles/pb_remote_server_nrf51422_xxAC_s130_2.0.1.dir/__/__/__/models/health/src/health_server.c.obj
 .debug_line    0x00009659      0x17b examples/pb_remote/server/CMakeFiles/pb_remote_server_nrf51422_xxAC_s130_2.0.1.dir/__/__/__/external/nRF5_SDK_14.2.0_17b948a/components/toolchain/system_nrf51.c.obj
 .debug_line    0x000097d4      0x20f mesh/core/libmesh_core_nrf51422_xxAC.a(nrf_mesh_configure.c.obj)
 .debug_line    0x000099e3      0x2ba mesh/core/libmesh_core_nrf51422_xxAC.a(event.c.obj)
 .debug_line    0x00009c9d      0x3b8 mesh/core/libmesh_core_nrf51422_xxAC.a(fifo.c.obj)
 .debug_line    0x0000a055      0x6ab mesh/core/libmesh_core_nrf51422_xxAC.a(net_state.c.obj)
 .debug_line    0x0000a700      0x217 mesh/core/libmesh_core_nrf51422_xxAC.a(nrf_mesh_utils.c.obj)
 .debug_line    0x0000a917      0x725 mesh/core/libmesh_core_nrf51422_xxAC.a(nrf_mesh.c.obj)
 .debug_line    0x0000b03c      0x24d mesh/core/libmesh_core_nrf51422_xxAC.a(hal.c.obj)
 .debug_line    0x0000b289      0x4a3 mesh/core/libmesh_core_nrf51422_xxAC.a(timer_scheduler.c.obj)
 .debug_line    0x0000b72c      0x433 mesh/core/libmesh_core_nrf51422_xxAC.a(timer.c.obj)
 .debug_line    0x0000bb5f      0x129 mesh/core/libmesh_core_nrf51422_xxAC.a(ticker.c.obj)
 .debug_line    0x0000bc88      0x243 mesh/core/libmesh_core_nrf51422_xxAC.a(rand.c.obj)
 .debug_line    0x0000becb      0x252 mesh/core/libmesh_core_nrf51422_xxAC.a(nrf_mesh_opt.c.obj)
 .debug_line    0x0000c11d      0x5fb mesh/core/libmesh_core_nrf51422_xxAC.a(timeslot.c.obj)
 .debug_line    0x0000c718      0x621 mesh/core/libmesh_core_nrf51422_xxAC.a(bearer_event.c.obj)
 .debug_line    0x0000cd39      0x44b mesh/core/libmesh_core_nrf51422_xxAC.a(enc.c.obj)
 .debug_line    0x0000d184      0x7f4 mesh/core/libmesh_core_nrf51422_xxAC.a(network.c.obj)
 .debug_line    0x0000d978      0x1e8 mesh/core/libmesh_core_nrf51422_xxAC.a(nrf_mesh_keygen.c.obj)
 .debug_line    0x0000db60      0x31b mesh/core/libmesh_core_nrf51422_xxAC.a(list.c.obj)
 .debug_line    0x0000de7b      0x233 mesh/core/libmesh_core_nrf51422_xxAC.a(log.c.obj)
 .debug_line    0x0000e0ae      0xa80 mesh/core/libmesh_core_nrf51422_xxAC.a(flash_manager.c.obj)
 .debug_line    0x0000eb2e      0x2e7 mesh/core/libmesh_core_nrf51422_xxAC.a(ccm_soft.c.obj)
 .debug_line    0x0000ee15      0x4d3 mesh/core/libmesh_core_nrf51422_xxAC.a(beacon.c.obj)
 .debug_line    0x0000f2e8      0x239 mesh/core/libmesh_core_nrf51422_xxAC.a(flash_manager_internal.c.obj)
 .debug_line    0x0000f521      0x432 mesh/core/libmesh_core_nrf51422_xxAC.a(core_tx.c.obj)
 .debug_line    0x0000f953      0x5eb mesh/core/libmesh_core_nrf51422_xxAC.a(heartbeat.c.obj)
 .debug_line    0x0000ff3e      0x400 mesh/core/libmesh_core_nrf51422_xxAC.a(net_beacon.c.obj)
 .debug_line    0x0001033e      0x440 mesh/core/libmesh_core_nrf51422_xxAC.a(core_tx_adv.c.obj)
 .debug_line    0x0001077e      0x305 mesh/core/libmesh_core_nrf51422_xxAC.a(ad_listener.c.obj)
 .debug_line    0x00010a83      0x3e9 mesh/core/libmesh_core_nrf51422_xxAC.a(ad_type_filter.c.obj)
 .debug_line    0x00010e6c      0x83d mesh/core/libmesh_core_nrf51422_xxAC.a(advertiser.c.obj)
 .debug_line    0x000116a9      0x5de mesh/core/libmesh_core_nrf51422_xxAC.a(bearer_handler.c.obj)
 .debug_line    0x00011c87      0x37c mesh/core/libmesh_core_nrf51422_xxAC.a(broadcast.c.obj)
 .debug_line    0x00012003      0x306 mesh/core/libmesh_core_nrf51422_xxAC.a(filter_engine.c.obj)
 .debug_line    0x00012309      0x303 mesh/core/libmesh_core_nrf51422_xxAC.a(radio_config.c.obj)
 .debug_line    0x0001260c      0x798 mesh/core/libmesh_core_nrf51422_xxAC.a(scanner.c.obj)
 .debug_line    0x00012da4      0x255 mesh/core/libmesh_core_nrf51422_xxAC.a(internal_event.c.obj)
 .debug_line    0x00012ff9      0x1fe mesh/core/libmesh_core_nrf51422_xxAC.a(aes.c.obj)
 .debug_line    0x000131f7      0x245 mesh/core/libmesh_core_nrf51422_xxAC.a(msg_cache.c.obj)
 .debug_line    0x0001343c     0x1040 mesh/core/libmesh_core_nrf51422_xxAC.a(transport.c.obj)
 .debug_line    0x0001447c      0x728 mesh/core/libmesh_core_nrf51422_xxAC.a(packet_buffer.c.obj)
 .debug_line    0x00014ba4      0x7e4 mesh/core/libmesh_core_nrf51422_xxAC.a(flash_manager_defrag.c.obj)
 .debug_line    0x00015388      0x477 mesh/core/libmesh_core_nrf51422_xxAC.a(packet_mgr.c.obj)
 .debug_line    0x000157ff      0x5a6 mesh/core/libmesh_core_nrf51422_xxAC.a(mesh_flash.c.obj)
 .debug_line    0x00015da5      0x2d0 mesh/core/libmesh_core_nrf51422_xxAC.a(queue.c.obj)
 .debug_line    0x00016075      0x27e mesh/core/libmesh_core_nrf51422_xxAC.a(aes_cmac.c.obj)
 .debug_line    0x000162f3      0x335 mesh/core/libmesh_core_nrf51422_xxAC.a(msqueue.c.obj)
 .debug_line    0x00016628      0x1fb mesh/core/libmesh_core_nrf51422_xxAC.a(replay_cache.c.obj)
 .debug_line    0x00016823      0x252 mesh/core/libmesh_core_nrf51422_xxAC.a(nrf_flash.c.obj)
 .debug_line    0x00016a75      0x4ea external/rtt/librtt_nrf51422_xxAC.a(SEGGER_RTT.c.obj)
 .debug_line    0x00016f5f      0x2aa external/rtt/librtt_nrf51422_xxAC.a(SEGGER_RTT_printf.c.obj)
 .debug_line    0x00017209      0xa52 external/micro-ecc/libuECC_nrf51422_xxAC.a(uECC.c.obj)

.debug_str      0x00000000    0x14236
 .debug_str     0x00000000     0x2765 examples/pb_remote/server/CMakeFiles/pb_remote_server_nrf51422_xxAC_s130_2.0.1.dir/src/main.c.obj
                               0x2c5b (size before relaxing)
 .debug_str     0x00002765     0x1257 examples/pb_remote/server/CMakeFiles/pb_remote_server_nrf51422_xxAC_s130_2.0.1.dir/__/__/nrf_mesh_sdk.c.obj
                               0x1f86 (size before relaxing)
 .debug_str     0x000039bc      0x191 examples/pb_remote/server/CMakeFiles/pb_remote_server_nrf51422_xxAC_s130_2.0.1.dir/__/__/common/src/simple_hal.c.obj
                                0xabb (size before relaxing)
 .debug_str     0x00003b4d       0x3c examples/pb_remote/server/CMakeFiles/pb_remote_server_nrf51422_xxAC_s130_2.0.1.dir/__/__/nrf_mesh_weak.c.obj
                                0x62e (size before relaxing)
 .debug_str     0x00003b89     0x1394 examples/pb_remote/server/CMakeFiles/pb_remote_server_nrf51422_xxAC_s130_2.0.1.dir/__/__/__/mesh/prov/src/prov_provisionee.c.obj
                               0x2045 (size before relaxing)
 .debug_str     0x00004f1d      0x287 examples/pb_remote/server/CMakeFiles/pb_remote_server_nrf51422_xxAC_s130_2.0.1.dir/__/__/__/mesh/prov/src/nrf_mesh_prov.c.obj
                               0x1c63 (size before relaxing)
 .debug_str     0x000051a4       0xf7 examples/pb_remote/server/CMakeFiles/pb_remote_server_nrf51422_xxAC_s130_2.0.1.dir/__/__/__/mesh/prov/src/provisioning.c.obj
                                0xf26 (size before relaxing)
 .debug_str     0x0000529b      0x113 examples/pb_remote/server/CMakeFiles/pb_remote_server_nrf51422_xxAC_s130_2.0.1.dir/__/__/__/mesh/prov/src/prov_beacon.c.obj
                               0x1843 (size before relaxing)
 .debug_str     0x000053ae      0x44e examples/pb_remote/server/CMakeFiles/pb_remote_server_nrf51422_xxAC_s130_2.0.1.dir/__/__/__/mesh/prov/src/prov_utils.c.obj
                               0x1e27 (size before relaxing)
 .debug_str     0x000057fc      0x581 examples/pb_remote/server/CMakeFiles/pb_remote_server_nrf51422_xxAC_s130_2.0.1.dir/__/__/__/mesh/prov/src/prov_bearer_adv.c.obj
                               0x1ae1 (size before relaxing)
 .debug_str     0x00005d7d     0x146e examples/pb_remote/server/CMakeFiles/pb_remote_server_nrf51422_xxAC_s130_2.0.1.dir/__/__/__/models/pb_remote/src/pb_remote_server.c.obj
                               0x33be (size before relaxing)
 .debug_str     0x000071eb      0x307 examples/pb_remote/server/CMakeFiles/pb_remote_server_nrf51422_xxAC_s130_2.0.1.dir/__/__/__/mesh/access/src/access_publish.c.obj
                                0xbb5 (size before relaxing)
 .debug_str     0x000074f2     0x19d9 examples/pb_remote/server/CMakeFiles/pb_remote_server_nrf51422_xxAC_s130_2.0.1.dir/__/__/__/mesh/access/src/access.c.obj
                               0x2b2a (size before relaxing)
 .debug_str     0x00008ecb      0x11e examples/pb_remote/server/CMakeFiles/pb_remote_server_nrf51422_xxAC_s130_2.0.1.dir/__/__/__/mesh/access/src/access_reliable.c.obj
                                0xc83 (size before relaxing)
 .debug_str     0x00008fe9     0x1174 examples/pb_remote/server/CMakeFiles/pb_remote_server_nrf51422_xxAC_s130_2.0.1.dir/__/__/__/mesh/access/src/device_state_manager.c.obj
                               0x2e3f (size before relaxing)
 .debug_str     0x0000a15d      0x20d examples/pb_remote/server/CMakeFiles/pb_remote_server_nrf51422_xxAC_s130_2.0.1.dir/__/__/__/mesh/access/src/nrf_mesh_node_config.c.obj
                               0x386c (size before relaxing)
 .debug_str     0x0000a36a      0x198 examples/pb_remote/server/CMakeFiles/pb_remote_server_nrf51422_xxAC_s130_2.0.1.dir/__/__/__/models/config/src/composition_data.c.obj
                                0x8c6 (size before relaxing)
 .debug_str     0x0000a502     0x2045 examples/pb_remote/server/CMakeFiles/pb_remote_server_nrf51422_xxAC_s130_2.0.1.dir/__/__/__/models/config/src/config_server.c.obj
                               0x3ea2 (size before relaxing)
 .debug_str     0x0000c547       0x69 examples/pb_remote/server/CMakeFiles/pb_remote_server_nrf51422_xxAC_s130_2.0.1.dir/__/__/__/models/config/src/packed_index_list.c.obj
                                0x252 (size before relaxing)
 .debug_str     0x0000c5b0      0x5c4 examples/pb_remote/server/CMakeFiles/pb_remote_server_nrf51422_xxAC_s130_2.0.1.dir/__/__/__/models/health/src/health_server.c.obj
                               0x1382 (size before relaxing)
 .debug_str     0x0000cb74      0x116 examples/pb_remote/server/CMakeFiles/pb_remote_server_nrf51422_xxAC_s130_2.0.1.dir/__/__/__/external/nRF5_SDK_14.2.0_17b948a/components/toolchain/system_nrf51.c.obj
                                0x2dc (size before relaxing)
 .debug_str     0x0000cc8a      0x103 mesh/core/libmesh_core_nrf51422_xxAC.a(nrf_mesh_configure.c.obj)
                                0x723 (size before relaxing)
 .debug_str     0x0000cd8d       0x82 mesh/core/libmesh_core_nrf51422_xxAC.a(event.c.obj)
                               0x1495 (size before relaxing)
 .debug_str     0x0000ce0f       0x5e mesh/core/libmesh_core_nrf51422_xxAC.a(fifo.c.obj)
                                0x6c4 (size before relaxing)
 .debug_str     0x0000ce6d      0x33d mesh/core/libmesh_core_nrf51422_xxAC.a(net_state.c.obj)
                               0x1e1a (size before relaxing)
 .debug_str     0x0000d1aa       0x8b mesh/core/libmesh_core_nrf51422_xxAC.a(nrf_mesh_utils.c.obj)
                                0x73a (size before relaxing)
 .debug_str     0x0000d235      0x57d mesh/core/libmesh_core_nrf51422_xxAC.a(nrf_mesh.c.obj)
                               0x298a (size before relaxing)
 .debug_str     0x0000d7b2       0xa9 mesh/core/libmesh_core_nrf51422_xxAC.a(hal.c.obj)
                                0x746 (size before relaxing)
 .debug_str     0x0000d85b      0x14a mesh/core/libmesh_core_nrf51422_xxAC.a(timer_scheduler.c.obj)
                                0x91d (size before relaxing)
 .debug_str     0x0000d9a5      0x219 mesh/core/libmesh_core_nrf51422_xxAC.a(timer.c.obj)
                                0x743 (size before relaxing)
 .debug_str     0x0000dbbe       0x3c mesh/core/libmesh_core_nrf51422_xxAC.a(ticker.c.obj)
                                0x33a (size before relaxing)
 .debug_str     0x0000dbfa       0xac mesh/core/libmesh_core_nrf51422_xxAC.a(rand.c.obj)
                                0x6f9 (size before relaxing)
 .debug_str     0x0000dca6       0x64 mesh/core/libmesh_core_nrf51422_xxAC.a(nrf_mesh_opt.c.obj)
                                0x902 (size before relaxing)
 .debug_str     0x0000dd0a      0x8ba mesh/core/libmesh_core_nrf51422_xxAC.a(timeslot.c.obj)
                               0x1716 (size before relaxing)
 .debug_str     0x0000e5c4      0x2d9 mesh/core/libmesh_core_nrf51422_xxAC.a(bearer_event.c.obj)
                                0xd62 (size before relaxing)
 .debug_str     0x0000e89d      0x1c1 mesh/core/libmesh_core_nrf51422_xxAC.a(enc.c.obj)
                                0x9a3 (size before relaxing)
 .debug_str     0x0000ea5e      0x99c mesh/core/libmesh_core_nrf51422_xxAC.a(network.c.obj)
                               0x19ab (size before relaxing)
 .debug_str     0x0000f3fa       0x57 mesh/core/libmesh_core_nrf51422_xxAC.a(nrf_mesh_keygen.c.obj)
                                0x36d (size before relaxing)
 .debug_str     0x0000f451       0x65 mesh/core/libmesh_core_nrf51422_xxAC.a(list.c.obj)
                                0x2a7 (size before relaxing)
 .debug_str     0x0000f4b6      0x182 mesh/core/libmesh_core_nrf51422_xxAC.a(log.c.obj)
                                0x7b1 (size before relaxing)
 .debug_str     0x0000f638      0x8a3 mesh/core/libmesh_core_nrf51422_xxAC.a(flash_manager.c.obj)
                               0x19c2 (size before relaxing)
 .debug_str     0x0000fedb       0x85 mesh/core/libmesh_core_nrf51422_xxAC.a(ccm_soft.c.obj)
                                0x73e (size before relaxing)
 .debug_str     0x0000ff60       0xb2 mesh/core/libmesh_core_nrf51422_xxAC.a(beacon.c.obj)
                               0x10ba (size before relaxing)
 .debug_str     0x00010012       0x38 mesh/core/libmesh_core_nrf51422_xxAC.a(flash_manager_internal.c.obj)
                                0x79f (size before relaxing)
 .debug_str     0x0001004a      0x131 mesh/core/libmesh_core_nrf51422_xxAC.a(core_tx.c.obj)
                                0x88c (size before relaxing)
 .debug_str     0x0001017b      0x613 mesh/core/libmesh_core_nrf51422_xxAC.a(heartbeat.c.obj)
                               0x200f (size before relaxing)
 .debug_str     0x0001078e      0x1a7 mesh/core/libmesh_core_nrf51422_xxAC.a(net_beacon.c.obj)
                                0xe58 (size before relaxing)
 .debug_str     0x00010935      0x102 mesh/core/libmesh_core_nrf51422_xxAC.a(core_tx_adv.c.obj)
                                0xfc2 (size before relaxing)
 .debug_str     0x00010a37      0x189 mesh/core/libmesh_core_nrf51422_xxAC.a(ad_listener.c.obj)
                                0xb53 (size before relaxing)
 .debug_str     0x00010bc0      0x14f mesh/core/libmesh_core_nrf51422_xxAC.a(ad_type_filter.c.obj)
                                0x98d (size before relaxing)
 .debug_str     0x00010d0f      0x339 mesh/core/libmesh_core_nrf51422_xxAC.a(advertiser.c.obj)
                               0x1459 (size before relaxing)
 .debug_str     0x00011048      0x371 mesh/core/libmesh_core_nrf51422_xxAC.a(bearer_handler.c.obj)
                                0xe3e (size before relaxing)
 .debug_str     0x000113b9      0x1ac mesh/core/libmesh_core_nrf51422_xxAC.a(broadcast.c.obj)
                                0xea1 (size before relaxing)
 .debug_str     0x00011565       0x72 mesh/core/libmesh_core_nrf51422_xxAC.a(filter_engine.c.obj)
                                0x7fa (size before relaxing)
 .debug_str     0x000115d7       0x79 mesh/core/libmesh_core_nrf51422_xxAC.a(radio_config.c.obj)
                                0x6f0 (size before relaxing)
 .debug_str     0x00011650      0x45d mesh/core/libmesh_core_nrf51422_xxAC.a(scanner.c.obj)
                               0x171c (size before relaxing)
 .debug_str     0x00011aad       0xc0 mesh/core/libmesh_core_nrf51422_xxAC.a(internal_event.c.obj)
                                0xa74 (size before relaxing)
 .debug_str     0x00011b6d       0xc1 mesh/core/libmesh_core_nrf51422_xxAC.a(aes.c.obj)
                                0xa8b (size before relaxing)
 .debug_str     0x00011c2e       0x71 mesh/core/libmesh_core_nrf51422_xxAC.a(msg_cache.c.obj)
                                0x6cb (size before relaxing)
 .debug_str     0x00011c9f      0xd1d mesh/core/libmesh_core_nrf51422_xxAC.a(transport.c.obj)
                               0x31ce (size before relaxing)
 .debug_str     0x000129bc      0x2cd mesh/core/libmesh_core_nrf51422_xxAC.a(packet_buffer.c.obj)
                                0xbe6 (size before relaxing)
 .debug_str     0x00012c89      0x3b3 mesh/core/libmesh_core_nrf51422_xxAC.a(flash_manager_defrag.c.obj)
                               0x14e0 (size before relaxing)
 .debug_str     0x0001303c      0x266 mesh/core/libmesh_core_nrf51422_xxAC.a(packet_mgr.c.obj)
                                0x9b0 (size before relaxing)
 .debug_str     0x000132a2      0x343 mesh/core/libmesh_core_nrf51422_xxAC.a(mesh_flash.c.obj)
                                0xcd7 (size before relaxing)
 .debug_str     0x000135e5       0x19 mesh/core/libmesh_core_nrf51422_xxAC.a(queue.c.obj)
                                0x66c (size before relaxing)
 .debug_str     0x000135fe       0xb2 mesh/core/libmesh_core_nrf51422_xxAC.a(aes_cmac.c.obj)
                                0x6f6 (size before relaxing)
 .debug_str     0x000136b0       0x43 mesh/core/libmesh_core_nrf51422_xxAC.a(msqueue.c.obj)
                                0x6a8 (size before relaxing)
 .debug_str     0x000136f3       0x9f mesh/core/libmesh_core_nrf51422_xxAC.a(replay_cache.c.obj)
                                0x69e (size before relaxing)
 .debug_str     0x00013792       0x75 mesh/core/libmesh_core_nrf51422_xxAC.a(nrf_flash.c.obj)
                                0x692 (size before relaxing)
 .debug_str     0x00013807      0x2d1 external/rtt/librtt_nrf51422_xxAC.a(SEGGER_RTT.c.obj)
                                0x910 (size before relaxing)
 .debug_str     0x00013ad8       0xdf external/rtt/librtt_nrf51422_xxAC.a(SEGGER_RTT_printf.c.obj)
                                0x780 (size before relaxing)
 .debug_str     0x00013bb7      0x67f external/micro-ecc/libuECC_nrf51422_xxAC.a(uECC.c.obj)
                                0x86e (size before relaxing)

.debug_frame    0x00000000     0x65f8
 .debug_frame   0x00000000       0x78 examples/pb_remote/server/CMakeFiles/pb_remote_server_nrf51422_xxAC_s130_2.0.1.dir/src/main.c.obj
 .debug_frame   0x00000078      0x154 examples/pb_remote/server/CMakeFiles/pb_remote_server_nrf51422_xxAC_s130_2.0.1.dir/__/__/nrf_mesh_sdk.c.obj
 .debug_frame   0x000001cc       0xa8 examples/pb_remote/server/CMakeFiles/pb_remote_server_nrf51422_xxAC_s130_2.0.1.dir/__/__/common/src/simple_hal.c.obj
 .debug_frame   0x00000274       0x30 examples/pb_remote/server/CMakeFiles/pb_remote_server_nrf51422_xxAC_s130_2.0.1.dir/__/__/nrf_mesh_weak.c.obj
 .debug_frame   0x000002a4      0x150 examples/pb_remote/server/CMakeFiles/pb_remote_server_nrf51422_xxAC_s130_2.0.1.dir/__/__/__/mesh/prov/src/prov_provisionee.c.obj
 .debug_frame   0x000003f4      0x13c examples/pb_remote/server/CMakeFiles/pb_remote_server_nrf51422_xxAC_s130_2.0.1.dir/__/__/__/mesh/prov/src/nrf_mesh_prov.c.obj
 .debug_frame   0x00000530      0x16c examples/pb_remote/server/CMakeFiles/pb_remote_server_nrf51422_xxAC_s130_2.0.1.dir/__/__/__/mesh/prov/src/provisioning.c.obj
 .debug_frame   0x0000069c       0x78 examples/pb_remote/server/CMakeFiles/pb_remote_server_nrf51422_xxAC_s130_2.0.1.dir/__/__/__/mesh/prov/src/prov_beacon.c.obj
 .debug_frame   0x00000714      0x13c examples/pb_remote/server/CMakeFiles/pb_remote_server_nrf51422_xxAC_s130_2.0.1.dir/__/__/__/mesh/prov/src/prov_utils.c.obj
 .debug_frame   0x00000850      0x298 examples/pb_remote/server/CMakeFiles/pb_remote_server_nrf51422_xxAC_s130_2.0.1.dir/__/__/__/mesh/prov/src/prov_bearer_adv.c.obj
 .debug_frame   0x00000ae8      0x3c4 examples/pb_remote/server/CMakeFiles/pb_remote_server_nrf51422_xxAC_s130_2.0.1.dir/__/__/__/models/pb_remote/src/pb_remote_server.c.obj
 .debug_frame   0x00000eac       0xd8 examples/pb_remote/server/CMakeFiles/pb_remote_server_nrf51422_xxAC_s130_2.0.1.dir/__/__/__/mesh/access/src/access_publish.c.obj
 .debug_frame   0x00000f84      0x578 examples/pb_remote/server/CMakeFiles/pb_remote_server_nrf51422_xxAC_s130_2.0.1.dir/__/__/__/mesh/access/src/access.c.obj
 .debug_frame   0x000014fc       0xdc examples/pb_remote/server/CMakeFiles/pb_remote_server_nrf51422_xxAC_s130_2.0.1.dir/__/__/__/mesh/access/src/access_reliable.c.obj
 .debug_frame   0x000015d8      0xa38 examples/pb_remote/server/CMakeFiles/pb_remote_server_nrf51422_xxAC_s130_2.0.1.dir/__/__/__/mesh/access/src/device_state_manager.c.obj
 .debug_frame   0x00002010      0x12c examples/pb_remote/server/CMakeFiles/pb_remote_server_nrf51422_xxAC_s130_2.0.1.dir/__/__/__/mesh/access/src/nrf_mesh_node_config.c.obj
 .debug_frame   0x0000213c       0x30 examples/pb_remote/server/CMakeFiles/pb_remote_server_nrf51422_xxAC_s130_2.0.1.dir/__/__/__/models/config/src/composition_data.c.obj
 .debug_frame   0x0000216c      0x6f4 examples/pb_remote/server/CMakeFiles/pb_remote_server_nrf51422_xxAC_s130_2.0.1.dir/__/__/__/models/config/src/config_server.c.obj
 .debug_frame   0x00002860       0x40 examples/pb_remote/server/CMakeFiles/pb_remote_server_nrf51422_xxAC_s130_2.0.1.dir/__/__/__/models/config/src/packed_index_list.c.obj
 .debug_frame   0x000028a0      0x25c examples/pb_remote/server/CMakeFiles/pb_remote_server_nrf51422_xxAC_s130_2.0.1.dir/__/__/__/models/health/src/health_server.c.obj
 .debug_frame   0x00002afc       0x38 examples/pb_remote/server/CMakeFiles/pb_remote_server_nrf51422_xxAC_s130_2.0.1.dir/__/__/__/external/nRF5_SDK_14.2.0_17b948a/components/toolchain/system_nrf51.c.obj
 .debug_frame   0x00002b34       0x50 mesh/core/libmesh_core_nrf51422_xxAC.a(nrf_mesh_configure.c.obj)
 .debug_frame   0x00002b84       0x5c mesh/core/libmesh_core_nrf51422_xxAC.a(event.c.obj)
 .debug_frame   0x00002be0       0xd4 mesh/core/libmesh_core_nrf51422_xxAC.a(fifo.c.obj)
 .debug_frame   0x00002cb4      0x210 mesh/core/libmesh_core_nrf51422_xxAC.a(net_state.c.obj)
 .debug_frame   0x00002ec4       0x50 mesh/core/libmesh_core_nrf51422_xxAC.a(nrf_mesh_utils.c.obj)
 .debug_frame   0x00002f14      0x164 mesh/core/libmesh_core_nrf51422_xxAC.a(nrf_mesh.c.obj)
 .debug_frame   0x00003078       0x58 mesh/core/libmesh_core_nrf51422_xxAC.a(hal.c.obj)
 .debug_frame   0x000030d0      0x124 mesh/core/libmesh_core_nrf51422_xxAC.a(timer_scheduler.c.obj)
 .debug_frame   0x000031f4      0x110 mesh/core/libmesh_core_nrf51422_xxAC.a(timer.c.obj)
 .debug_frame   0x00003304       0x48 mesh/core/libmesh_core_nrf51422_xxAC.a(ticker.c.obj)
 .debug_frame   0x0000334c       0x90 mesh/core/libmesh_core_nrf51422_xxAC.a(rand.c.obj)
 .debug_frame   0x000033dc       0x40 mesh/core/libmesh_core_nrf51422_xxAC.a(nrf_mesh_opt.c.obj)
 .debug_frame   0x0000341c      0x1b0 mesh/core/libmesh_core_nrf51422_xxAC.a(timeslot.c.obj)
 .debug_frame   0x000035cc      0x1b0 mesh/core/libmesh_core_nrf51422_xxAC.a(bearer_event.c.obj)
 .debug_frame   0x0000377c      0x14c mesh/core/libmesh_core_nrf51422_xxAC.a(enc.c.obj)
 .debug_frame   0x000038c8      0x110 mesh/core/libmesh_core_nrf51422_xxAC.a(network.c.obj)
 .debug_frame   0x000039d8       0xa4 mesh/core/libmesh_core_nrf51422_xxAC.a(nrf_mesh_keygen.c.obj)
 .debug_frame   0x00003a7c       0xb8 mesh/core/libmesh_core_nrf51422_xxAC.a(list.c.obj)
 .debug_frame   0x00003b34       0xac mesh/core/libmesh_core_nrf51422_xxAC.a(log.c.obj)
 .debug_frame   0x00003be0      0x308 mesh/core/libmesh_core_nrf51422_xxAC.a(flash_manager.c.obj)
 .debug_frame   0x00003ee8       0xec mesh/core/libmesh_core_nrf51422_xxAC.a(ccm_soft.c.obj)
 .debug_frame   0x00003fd4       0x90 mesh/core/libmesh_core_nrf51422_xxAC.a(beacon.c.obj)
 .debug_frame   0x00004064       0x34 mesh/core/libmesh_core_nrf51422_xxAC.a(flash_manager_internal.c.obj)
 .debug_frame   0x00004098       0xd8 mesh/core/libmesh_core_nrf51422_xxAC.a(core_tx.c.obj)
 .debug_frame   0x00004170      0x14c mesh/core/libmesh_core_nrf51422_xxAC.a(heartbeat.c.obj)
 .debug_frame   0x000042bc       0xb8 mesh/core/libmesh_core_nrf51422_xxAC.a(net_beacon.c.obj)
 .debug_frame   0x00004374      0x11c mesh/core/libmesh_core_nrf51422_xxAC.a(core_tx_adv.c.obj)
 .debug_frame   0x00004490       0x74 mesh/core/libmesh_core_nrf51422_xxAC.a(ad_listener.c.obj)
 .debug_frame   0x00004504       0xbc mesh/core/libmesh_core_nrf51422_xxAC.a(ad_type_filter.c.obj)
 .debug_frame   0x000045c0      0x214 mesh/core/libmesh_core_nrf51422_xxAC.a(advertiser.c.obj)
 .debug_frame   0x000047d4      0x12c mesh/core/libmesh_core_nrf51422_xxAC.a(bearer_handler.c.obj)
 .debug_frame   0x00004900       0x64 mesh/core/libmesh_core_nrf51422_xxAC.a(broadcast.c.obj)
 .debug_frame   0x00004964       0x6c mesh/core/libmesh_core_nrf51422_xxAC.a(filter_engine.c.obj)
 .debug_frame   0x000049d0       0x88 mesh/core/libmesh_core_nrf51422_xxAC.a(radio_config.c.obj)
 .debug_frame   0x00004a58      0x288 mesh/core/libmesh_core_nrf51422_xxAC.a(scanner.c.obj)
 .debug_frame   0x00004ce0       0x58 mesh/core/libmesh_core_nrf51422_xxAC.a(internal_event.c.obj)
 .debug_frame   0x00004d38       0x3c mesh/core/libmesh_core_nrf51422_xxAC.a(aes.c.obj)
 .debug_frame   0x00004d74       0x74 mesh/core/libmesh_core_nrf51422_xxAC.a(msg_cache.c.obj)
 .debug_frame   0x00004de8      0x3cc mesh/core/libmesh_core_nrf51422_xxAC.a(transport.c.obj)
 .debug_frame   0x000051b4      0x178 mesh/core/libmesh_core_nrf51422_xxAC.a(packet_buffer.c.obj)
 .debug_frame   0x0000532c      0x24c mesh/core/libmesh_core_nrf51422_xxAC.a(flash_manager_defrag.c.obj)
 .debug_frame   0x00005578       0x98 mesh/core/libmesh_core_nrf51422_xxAC.a(packet_mgr.c.obj)
 .debug_frame   0x00005610      0x11c mesh/core/libmesh_core_nrf51422_xxAC.a(mesh_flash.c.obj)
 .debug_frame   0x0000572c       0x74 mesh/core/libmesh_core_nrf51422_xxAC.a(queue.c.obj)
 .debug_frame   0x000057a0       0x84 mesh/core/libmesh_core_nrf51422_xxAC.a(aes_cmac.c.obj)
 .debug_frame   0x00005824       0xa4 mesh/core/libmesh_core_nrf51422_xxAC.a(msqueue.c.obj)
 .debug_frame   0x000058c8       0xa8 mesh/core/libmesh_core_nrf51422_xxAC.a(replay_cache.c.obj)
 .debug_frame   0x00005970       0x64 mesh/core/libmesh_core_nrf51422_xxAC.a(nrf_flash.c.obj)
 .debug_frame   0x000059d4      0x2d8 external/rtt/librtt_nrf51422_xxAC.a(SEGGER_RTT.c.obj)
 .debug_frame   0x00005cac       0x88 external/rtt/librtt_nrf51422_xxAC.a(SEGGER_RTT_printf.c.obj)
 .debug_frame   0x00005d34      0x5a0 external/micro-ecc/libuECC_nrf51422_xxAC.a(uECC.c.obj)
 .debug_frame   0x000062d4       0x20 c:/a/gcc_arm/6/bin/../lib/gcc/arm-none-eabi/6.3.1/thumb/v6-m\libgcc.a(_udivsi3.o)
 .debug_frame   0x000062f4       0x20 c:/a/gcc_arm/6/bin/../lib/gcc/arm-none-eabi/6.3.1/thumb/v6-m\libgcc.a(_divsi3.o)
 .debug_frame   0x00006314       0x34 c:/a/gcc_arm/6/bin/../lib/gcc/arm-none-eabi/6.3.1/thumb/v6-m\libgcc.a(_muldi3.o)
 .debug_frame   0x00006348       0x28 c:/a/gcc_arm/6/bin/../lib/gcc/arm-none-eabi/6.3.1/../../../../arm-none-eabi/lib/thumb/v6-m\libg_nano.a(lib_a-exit.o)
 .debug_frame   0x00006370       0x2c c:/a/gcc_arm/6/bin/../lib/gcc/arm-none-eabi/6.3.1/../../../../arm-none-eabi/lib/thumb/v6-m\libg_nano.a(lib_a-init.o)
 .debug_frame   0x0000639c       0x40 c:/a/gcc_arm/6/bin/../lib/gcc/arm-none-eabi/6.3.1/../../../../arm-none-eabi/lib/thumb/v6-m\libg_nano.a(lib_a-malloc.o)
 .debug_frame   0x000063dc       0x2c c:/a/gcc_arm/6/bin/../lib/gcc/arm-none-eabi/6.3.1/../../../../arm-none-eabi/lib/thumb/v6-m\libg_nano.a(lib_a-memcmp.o)
 .debug_frame   0x00006408       0x28 c:/a/gcc_arm/6/bin/../lib/gcc/arm-none-eabi/6.3.1/../../../../arm-none-eabi/lib/thumb/v6-m\libg_nano.a(lib_a-memcpy-stub.o)
 .debug_frame   0x00006430       0x20 c:/a/gcc_arm/6/bin/../lib/gcc/arm-none-eabi/6.3.1/../../../../arm-none-eabi/lib/thumb/v6-m\libg_nano.a(lib_a-memset.o)
 .debug_frame   0x00006450       0x2c c:/a/gcc_arm/6/bin/../lib/gcc/arm-none-eabi/6.3.1/../../../../arm-none-eabi/lib/thumb/v6-m\libg_nano.a(lib_a-nano-freer.o)
 .debug_frame   0x0000647c       0x2c c:/a/gcc_arm/6/bin/../lib/gcc/arm-none-eabi/6.3.1/../../../../arm-none-eabi/lib/thumb/v6-m\libg_nano.a(lib_a-nano-mallocr.o)
 .debug_frame   0x000064a8       0x2c c:/a/gcc_arm/6/bin/../lib/gcc/arm-none-eabi/6.3.1/../../../../arm-none-eabi/lib/thumb/v6-m\libg_nano.a(lib_a-sbrkr.o)
 .debug_frame   0x000064d4       0x20 c:/a/gcc_arm/6/bin/../lib/gcc/arm-none-eabi/6.3.1/../../../../arm-none-eabi/lib/thumb/v6-m\libg_nano.a(lib_a-strcpy.o)
 .debug_frame   0x000064f4       0x2c c:/a/gcc_arm/6/bin/../lib/gcc/arm-none-eabi/6.3.1/../../../../arm-none-eabi/lib/thumb/v6-m\libg_nano.a(lib_a-strrchr.o)
 .debug_frame   0x00006520       0x30 c:/a/gcc_arm/6/bin/../lib/gcc/arm-none-eabi/6.3.1/../../../../arm-none-eabi/lib/thumb/v6-m\libg_nano.a(lib_a-mlock.o)
 .debug_frame   0x00006550       0x48 c:/a/gcc_arm/6/bin/../lib/gcc/arm-none-eabi/6.3.1/../../../../arm-none-eabi/lib/thumb/v6-m\libg_nano.a(lib_a-reent.o)
 .debug_frame   0x00006598       0x20 c:/a/gcc_arm/6/bin/../lib/gcc/arm-none-eabi/6.3.1/../../../../arm-none-eabi/lib/thumb/v6-m\libg_nano.a(lib_a-strchr.o)
 .debug_frame   0x000065b8       0x20 c:/a/gcc_arm/6/bin/../lib/gcc/arm-none-eabi/6.3.1/../../../../arm-none-eabi/lib/thumb/v6-m\libnosys.a(sbrk.o)
 .debug_frame   0x000065d8       0x20 c:/a/gcc_arm/6/bin/../lib/gcc/arm-none-eabi/6.3.1/../../../../arm-none-eabi/lib/thumb/v6-m\libnosys.a(_exit.o)
