Archive member included to satisfy reference by file (symbol)

mesh/core/libmesh_core_nrf52832_xxAA.a(nrf_mesh_configure.c.obj)
                              examples/pb_remote/server/CMakeFiles/pb_remote_server_nrf52832_xxAA_s132_3.1.0.dir/__/__/__/mesh/prov/src/prov_beacon.c.obj (nrf_mesh_configure_device_uuid_get)
mesh/core/libmesh_core_nrf52832_xxAA.a(event.c.obj)
                              examples/pb_remote/server/CMakeFiles/pb_remote_server_nrf52832_xxAA_s132_3.1.0.dir/__/__/__/mesh/access/src/access.c.obj (event_handle)
mesh/core/libmesh_core_nrf52832_xxAA.a(fifo.c.obj)
                              examples/pb_remote/server/CMakeFiles/pb_remote_server_nrf52832_xxAA_s132_3.1.0.dir/__/__/__/models/pb_remote/src/pb_remote_server.c.obj (fifo_init)
mesh/core/libmesh_core_nrf52832_xxAA.a(net_state.c.obj)
                              examples/pb_remote/server/CMakeFiles/pb_remote_server_nrf52832_xxAA_s132_3.1.0.dir/__/__/__/mesh/access/src/nrf_mesh_node_config.c.obj (net_state_reset)
mesh/core/libmesh_core_nrf52832_xxAA.a(nrf_mesh_utils.c.obj)
                              examples/pb_remote/server/CMakeFiles/pb_remote_server_nrf52832_xxAA_s132_3.1.0.dir/__/__/__/mesh/prov/src/prov_provisionee.c.obj (nrf_mesh_address_type_get)
mesh/core/libmesh_core_nrf52832_xxAA.a(nrf_mesh.c.obj)
                              examples/pb_remote/server/CMakeFiles/pb_remote_server_nrf52832_xxAA_s132_3.1.0.dir/__/__/nrf_mesh_sdk.c.obj (nrf_mesh_init)
mesh/core/libmesh_core_nrf52832_xxAA.a(hal.c.obj)
                              examples/pb_remote/server/CMakeFiles/pb_remote_server_nrf52832_xxAA_s132_3.1.0.dir/__/__/__/mesh/access/src/nrf_mesh_node_config.c.obj (hal_device_reset)
mesh/core/libmesh_core_nrf52832_xxAA.a(timer_scheduler.c.obj)
                              mesh/core/libmesh_core_nrf52832_xxAA.a(nrf_mesh.c.obj) (timer_sch_init)
mesh/core/libmesh_core_nrf52832_xxAA.a(timer.c.obj)
                              mesh/core/libmesh_core_nrf52832_xxAA.a(timer_scheduler.c.obj) (timer_order_cb)
mesh/core/libmesh_core_nrf52832_xxAA.a(ticker.c.obj)
                              mesh/core/libmesh_core_nrf52832_xxAA.a(nrf_mesh.c.obj) (ticker_init)
mesh/core/libmesh_core_nrf52832_xxAA.a(rand.c.obj)
                              examples/pb_remote/server/CMakeFiles/pb_remote_server_nrf52832_xxAA_s132_3.1.0.dir/__/__/__/mesh/prov/src/prov_utils.c.obj (rand_hw_rng_get)
mesh/core/libmesh_core_nrf52832_xxAA.a(nrf_mesh_opt.c.obj)
                              examples/pb_remote/server/CMakeFiles/pb_remote_server_nrf52832_xxAA_s132_3.1.0.dir/__/__/__/models/config/src/config_server.c.obj (nrf_mesh_opt_set)
mesh/core/libmesh_core_nrf52832_xxAA.a(timeslot.c.obj)
                              mesh/core/libmesh_core_nrf52832_xxAA.a(nrf_mesh.c.obj) (timeslot_sd_event_handler)
mesh/core/libmesh_core_nrf52832_xxAA.a(bearer_event.c.obj)
                              mesh/core/libmesh_core_nrf52832_xxAA.a(nrf_mesh.c.obj) (bearer_event_init)
mesh/core/libmesh_core_nrf52832_xxAA.a(enc.c.obj)
                              examples/pb_remote/server/CMakeFiles/pb_remote_server_nrf52832_xxAA_s132_3.1.0.dir/__/__/__/mesh/prov/src/prov_utils.c.obj (enc_aes_cmac)
mesh/core/libmesh_core_nrf52832_xxAA.a(network.c.obj)
                              mesh/core/libmesh_core_nrf52832_xxAA.a(nrf_mesh.c.obj) (network_init)
mesh/core/libmesh_core_nrf52832_xxAA.a(nrf_mesh_keygen.c.obj)
                              examples/pb_remote/server/CMakeFiles/pb_remote_server_nrf52832_xxAA_s132_3.1.0.dir/__/__/__/mesh/access/src/device_state_manager.c.obj (nrf_mesh_keygen_aid)
mesh/core/libmesh_core_nrf52832_xxAA.a(list.c.obj)
                              mesh/core/libmesh_core_nrf52832_xxAA.a(event.c.obj) (list_add)
mesh/core/libmesh_core_nrf52832_xxAA.a(log.c.obj)
                              examples/pb_remote/server/CMakeFiles/pb_remote_server_nrf52832_xxAA_s132_3.1.0.dir/src/main.c.obj (log_callback_rtt)
mesh/core/libmesh_core_nrf52832_xxAA.a(flash_manager.c.obj)
                              mesh/core/libmesh_core_nrf52832_xxAA.a(nrf_mesh.c.obj) (flash_manager_init)
mesh/core/libmesh_core_nrf52832_xxAA.a(ccm_soft.c.obj)
                              mesh/core/libmesh_core_nrf52832_xxAA.a(enc.c.obj) (ccm_soft_encrypt)
mesh/core/libmesh_core_nrf52832_xxAA.a(beacon.c.obj)
                              mesh/core/libmesh_core_nrf52832_xxAA.a(nrf_mesh.c.obj) (beacon_init)
mesh/core/libmesh_core_nrf52832_xxAA.a(flash_manager_internal.c.obj)
                              mesh/core/libmesh_core_nrf52832_xxAA.a(flash_manager.c.obj) (entry_get)
mesh/core/libmesh_core_nrf52832_xxAA.a(core_tx.c.obj)
                              mesh/core/libmesh_core_nrf52832_xxAA.a(network.c.obj) (core_tx_packet_alloc)
mesh/core/libmesh_core_nrf52832_xxAA.a(heartbeat.c.obj)
                              mesh/core/libmesh_core_nrf52832_xxAA.a(network.c.obj) (heartbeat_on_feature_change_trigger)
mesh/core/libmesh_core_nrf52832_xxAA.a(net_beacon.c.obj)
                              mesh/core/libmesh_core_nrf52832_xxAA.a(network.c.obj) (net_beacon_init)
mesh/core/libmesh_core_nrf52832_xxAA.a(core_tx_adv.c.obj)
                              mesh/core/libmesh_core_nrf52832_xxAA.a(nrf_mesh.c.obj) (core_tx_adv_init)
mesh/core/libmesh_core_nrf52832_xxAA.a(ad_listener.c.obj)
                              mesh/core/libmesh_core_nrf52832_xxAA.a(nrf_mesh.c.obj) (ad_listener_subscribe)
mesh/core/libmesh_core_nrf52832_xxAA.a(ad_type_filter.c.obj)
                              mesh/core/libmesh_core_nrf52832_xxAA.a(ad_listener.c.obj) (bearer_adtype_filtering_set)
mesh/core/libmesh_core_nrf52832_xxAA.a(advertiser.c.obj)
                              mesh/core/libmesh_core_nrf52832_xxAA.a(nrf_mesh.c.obj) (advertiser_init)
mesh/core/libmesh_core_nrf52832_xxAA.a(bearer_handler.c.obj)
                              mesh/core/libmesh_core_nrf52832_xxAA.a(nrf_mesh.c.obj) (bearer_handler_init)
mesh/core/libmesh_core_nrf52832_xxAA.a(broadcast.c.obj)
                              mesh/core/libmesh_core_nrf52832_xxAA.a(advertiser.c.obj) (broadcast_send)
mesh/core/libmesh_core_nrf52832_xxAA.a(filter_engine.c.obj)
                              mesh/core/libmesh_core_nrf52832_xxAA.a(ad_type_filter.c.obj) (fen_filter_start)
mesh/core/libmesh_core_nrf52832_xxAA.a(radio_config.c.obj)
                              mesh/core/libmesh_core_nrf52832_xxAA.a(broadcast.c.obj) (radio_config_reset)
mesh/core/libmesh_core_nrf52832_xxAA.a(scanner.c.obj)
                              mesh/core/libmesh_core_nrf52832_xxAA.a(bearer_handler.c.obj) (scanner_radio_start)
mesh/core/libmesh_core_nrf52832_xxAA.a(internal_event.c.obj)
                              mesh/core/libmesh_core_nrf52832_xxAA.a(network.c.obj) (internal_event_push)
mesh/core/libmesh_core_nrf52832_xxAA.a(aes.c.obj)
                              mesh/core/libmesh_core_nrf52832_xxAA.a(enc.c.obj) (aes_encrypt)
mesh/core/libmesh_core_nrf52832_xxAA.a(msg_cache.c.obj)
                              mesh/core/libmesh_core_nrf52832_xxAA.a(nrf_mesh.c.obj) (msg_cache_init)
mesh/core/libmesh_core_nrf52832_xxAA.a(transport.c.obj)
                              mesh/core/libmesh_core_nrf52832_xxAA.a(nrf_mesh.c.obj) (transport_init)
mesh/core/libmesh_core_nrf52832_xxAA.a(packet_buffer.c.obj)
                              mesh/core/libmesh_core_nrf52832_xxAA.a(flash_manager.c.obj) (packet_buffer_init)
mesh/core/libmesh_core_nrf52832_xxAA.a(flash_manager_defrag.c.obj)
                              mesh/core/libmesh_core_nrf52832_xxAA.a(flash_manager.c.obj) (flash_manager_defrag_init)
mesh/core/libmesh_core_nrf52832_xxAA.a(packet_mgr.c.obj)
                              mesh/core/libmesh_core_nrf52832_xxAA.a(nrf_mesh.c.obj) (packet_mgr_init)
mesh/core/libmesh_core_nrf52832_xxAA.a(mesh_flash.c.obj)
                              mesh/core/libmesh_core_nrf52832_xxAA.a(flash_manager.c.obj) (mesh_flash_user_callback_set)
mesh/core/libmesh_core_nrf52832_xxAA.a(queue.c.obj)
                              mesh/core/libmesh_core_nrf52832_xxAA.a(bearer_event.c.obj) (queue_init)
mesh/core/libmesh_core_nrf52832_xxAA.a(aes_cmac.c.obj)
                              mesh/core/libmesh_core_nrf52832_xxAA.a(enc.c.obj) (aes_cmac)
mesh/core/libmesh_core_nrf52832_xxAA.a(msqueue.c.obj)
                              mesh/core/libmesh_core_nrf52832_xxAA.a(mesh_flash.c.obj) (msq_get)
mesh/core/libmesh_core_nrf52832_xxAA.a(replay_cache.c.obj)
                              mesh/core/libmesh_core_nrf52832_xxAA.a(transport.c.obj) (replay_cache_add)
mesh/core/libmesh_core_nrf52832_xxAA.a(nrf_flash.c.obj)
                              mesh/core/libmesh_core_nrf52832_xxAA.a(mesh_flash.c.obj) (nrf_flash_erase)
external/rtt/librtt_nrf52832_xxAA.a(SEGGER_RTT.c.obj)
                              mesh/core/libmesh_core_nrf52832_xxAA.a(log.c.obj) (SEGGER_RTT_Write)
external/rtt/librtt_nrf52832_xxAA.a(SEGGER_RTT_printf.c.obj)
                              mesh/core/libmesh_core_nrf52832_xxAA.a(log.c.obj) (SEGGER_RTT_vprintf)
external/micro-ecc/libuECC_nrf52832_xxAA.a(uECC.c.obj)
                              examples/pb_remote/server/CMakeFiles/pb_remote_server_nrf52832_xxAA_s132_3.1.0.dir/__/__/__/mesh/prov/src/prov_utils.c.obj (uECC_secp256r1)
c:/a/gcc_arm/6/bin/../lib/gcc/arm-none-eabi/6.3.1/../../../../arm-none-eabi/lib/thumb/v7e-m/fpv4-sp/hard\libg_nano.a(lib_a-exit.o)
                              c:/a/gcc_arm/6/bin/../lib/gcc/arm-none-eabi/6.3.1/../../../../arm-none-eabi/lib/thumb/v7e-m/fpv4-sp/hard/crt0.o (exit)
c:/a/gcc_arm/6/bin/../lib/gcc/arm-none-eabi/6.3.1/../../../../arm-none-eabi/lib/thumb/v7e-m/fpv4-sp/hard\libg_nano.a(lib_a-impure.o)
                              c:/a/gcc_arm/6/bin/../lib/gcc/arm-none-eabi/6.3.1/../../../../arm-none-eabi/lib/thumb/v7e-m/fpv4-sp/hard\libg_nano.a(lib_a-exit.o) (_global_impure_ptr)
c:/a/gcc_arm/6/bin/../lib/gcc/arm-none-eabi/6.3.1/../../../../arm-none-eabi/lib/thumb/v7e-m/fpv4-sp/hard\libg_nano.a(lib_a-init.o)
                              c:/a/gcc_arm/6/bin/../lib/gcc/arm-none-eabi/6.3.1/../../../../arm-none-eabi/lib/thumb/v7e-m/fpv4-sp/hard/crt0.o (__libc_init_array)
c:/a/gcc_arm/6/bin/../lib/gcc/arm-none-eabi/6.3.1/../../../../arm-none-eabi/lib/thumb/v7e-m/fpv4-sp/hard\libg_nano.a(lib_a-malloc.o)
                              mesh/core/libmesh_core_nrf52832_xxAA.a(transport.c.obj) (malloc)
c:/a/gcc_arm/6/bin/../lib/gcc/arm-none-eabi/6.3.1/../../../../arm-none-eabi/lib/thumb/v7e-m/fpv4-sp/hard\libg_nano.a(lib_a-memcmp.o)
                              examples/pb_remote/server/CMakeFiles/pb_remote_server_nrf52832_xxAA_s132_3.1.0.dir/__/__/__/mesh/prov/src/prov_utils.c.obj (memcmp)
c:/a/gcc_arm/6/bin/../lib/gcc/arm-none-eabi/6.3.1/../../../../arm-none-eabi/lib/thumb/v7e-m/fpv4-sp/hard\libg_nano.a(lib_a-memcpy-stub.o)
                              examples/pb_remote/server/CMakeFiles/pb_remote_server_nrf52832_xxAA_s132_3.1.0.dir/__/__/__/mesh/prov/src/prov_provisionee.c.obj (memcpy)
c:/a/gcc_arm/6/bin/../lib/gcc/arm-none-eabi/6.3.1/../../../../arm-none-eabi/lib/thumb/v7e-m/fpv4-sp/hard\libg_nano.a(lib_a-memset.o)
                              c:/a/gcc_arm/6/bin/../lib/gcc/arm-none-eabi/6.3.1/../../../../arm-none-eabi/lib/thumb/v7e-m/fpv4-sp/hard/crt0.o (memset)
c:/a/gcc_arm/6/bin/../lib/gcc/arm-none-eabi/6.3.1/../../../../arm-none-eabi/lib/thumb/v7e-m/fpv4-sp/hard\libg_nano.a(lib_a-nano-freer.o)
                              c:/a/gcc_arm/6/bin/../lib/gcc/arm-none-eabi/6.3.1/../../../../arm-none-eabi/lib/thumb/v7e-m/fpv4-sp/hard\libg_nano.a(lib_a-malloc.o) (_free_r)
c:/a/gcc_arm/6/bin/../lib/gcc/arm-none-eabi/6.3.1/../../../../arm-none-eabi/lib/thumb/v7e-m/fpv4-sp/hard\libg_nano.a(lib_a-nano-mallocr.o)
                              c:/a/gcc_arm/6/bin/../lib/gcc/arm-none-eabi/6.3.1/../../../../arm-none-eabi/lib/thumb/v7e-m/fpv4-sp/hard\libg_nano.a(lib_a-malloc.o) (_malloc_r)
c:/a/gcc_arm/6/bin/../lib/gcc/arm-none-eabi/6.3.1/../../../../arm-none-eabi/lib/thumb/v7e-m/fpv4-sp/hard\libg_nano.a(lib_a-sbrkr.o)
                              c:/a/gcc_arm/6/bin/../lib/gcc/arm-none-eabi/6.3.1/../../../../arm-none-eabi/lib/thumb/v7e-m/fpv4-sp/hard\libg_nano.a(lib_a-nano-mallocr.o) (_sbrk_r)
c:/a/gcc_arm/6/bin/../lib/gcc/arm-none-eabi/6.3.1/../../../../arm-none-eabi/lib/thumb/v7e-m/fpv4-sp/hard\libg_nano.a(lib_a-strcpy.o)
                              external/rtt/librtt_nrf52832_xxAA.a(SEGGER_RTT.c.obj) (strcpy)
c:/a/gcc_arm/6/bin/../lib/gcc/arm-none-eabi/6.3.1/../../../../arm-none-eabi/lib/thumb/v7e-m/fpv4-sp/hard\libg_nano.a(lib_a-strlen.o)
                              examples/pb_remote/server/CMakeFiles/pb_remote_server_nrf52832_xxAA_s132_3.1.0.dir/__/__/__/mesh/prov/src/prov_beacon.c.obj (strlen)
c:/a/gcc_arm/6/bin/../lib/gcc/arm-none-eabi/6.3.1/../../../../arm-none-eabi/lib/thumb/v7e-m/fpv4-sp/hard\libg_nano.a(lib_a-strrchr.o)
                              examples/pb_remote/server/CMakeFiles/pb_remote_server_nrf52832_xxAA_s132_3.1.0.dir/src/main.c.obj (strrchr)
c:/a/gcc_arm/6/bin/../lib/gcc/arm-none-eabi/6.3.1/../../../../arm-none-eabi/lib/thumb/v7e-m/fpv4-sp/hard\libg_nano.a(lib_a-mlock.o)
                              c:/a/gcc_arm/6/bin/../lib/gcc/arm-none-eabi/6.3.1/../../../../arm-none-eabi/lib/thumb/v7e-m/fpv4-sp/hard\libg_nano.a(lib_a-nano-freer.o) (__malloc_lock)
c:/a/gcc_arm/6/bin/../lib/gcc/arm-none-eabi/6.3.1/../../../../arm-none-eabi/lib/thumb/v7e-m/fpv4-sp/hard\libg_nano.a(lib_a-reent.o)
                              c:/a/gcc_arm/6/bin/../lib/gcc/arm-none-eabi/6.3.1/../../../../arm-none-eabi/lib/thumb/v7e-m/fpv4-sp/hard\libg_nano.a(lib_a-sbrkr.o) (errno)
c:/a/gcc_arm/6/bin/../lib/gcc/arm-none-eabi/6.3.1/../../../../arm-none-eabi/lib/thumb/v7e-m/fpv4-sp/hard\libg_nano.a(lib_a-strchr.o)
                              c:/a/gcc_arm/6/bin/../lib/gcc/arm-none-eabi/6.3.1/../../../../arm-none-eabi/lib/thumb/v7e-m/fpv4-sp/hard\libg_nano.a(lib_a-strrchr.o) (strchr)
c:/a/gcc_arm/6/bin/../lib/gcc/arm-none-eabi/6.3.1/../../../../arm-none-eabi/lib/thumb/v7e-m/fpv4-sp/hard\libnosys.a(sbrk.o)
                              c:/a/gcc_arm/6/bin/../lib/gcc/arm-none-eabi/6.3.1/../../../../arm-none-eabi/lib/thumb/v7e-m/fpv4-sp/hard\libg_nano.a(lib_a-sbrkr.o) (_sbrk)
c:/a/gcc_arm/6/bin/../lib/gcc/arm-none-eabi/6.3.1/../../../../arm-none-eabi/lib/thumb/v7e-m/fpv4-sp/hard\libnosys.a(_exit.o)
                              c:/a/gcc_arm/6/bin/../lib/gcc/arm-none-eabi/6.3.1/../../../../arm-none-eabi/lib/thumb/v7e-m/fpv4-sp/hard\libg_nano.a(lib_a-exit.o) (_exit)

Allocating common symbols
Common symbol       size              file

nrf_nvic_state      0xc               examples/pb_remote/server/CMakeFiles/pb_remote_server_nrf52832_xxAA_s132_3.1.0.dir/__/__/nrf_mesh_sdk.c.obj
errno               0x4               c:/a/gcc_arm/6/bin/../lib/gcc/arm-none-eabi/6.3.1/../../../../arm-none-eabi/lib/thumb/v7e-m/fpv4-sp/hard\libg_nano.a(lib_a-reent.o)
m_assertion_handler
                    0x4               mesh/core/libmesh_core_nrf52832_xxAA.a(nrf_mesh.c.obj)
_SEGGER_RTT         0x78              external/rtt/librtt_nrf52832_xxAA.a(SEGGER_RTT.c.obj)

Discarded input sections

 .text          0x00000000        0x0 c:/a/gcc_arm/6/bin/../lib/gcc/arm-none-eabi/6.3.1/thumb/v7e-m/fpv4-sp/hard/crti.o
 .data          0x00000000        0x0 c:/a/gcc_arm/6/bin/../lib/gcc/arm-none-eabi/6.3.1/thumb/v7e-m/fpv4-sp/hard/crti.o
 .bss           0x00000000        0x0 c:/a/gcc_arm/6/bin/../lib/gcc/arm-none-eabi/6.3.1/thumb/v7e-m/fpv4-sp/hard/crti.o
 .data          0x00000000        0x4 c:/a/gcc_arm/6/bin/../lib/gcc/arm-none-eabi/6.3.1/thumb/v7e-m/fpv4-sp/hard/crtbegin.o
 .data          0x00000000        0x0 c:/a/gcc_arm/6/bin/../lib/gcc/arm-none-eabi/6.3.1/../../../../arm-none-eabi/lib/thumb/v7e-m/fpv4-sp/hard/crt0.o
 .bss           0x00000000        0x0 c:/a/gcc_arm/6/bin/../lib/gcc/arm-none-eabi/6.3.1/../../../../arm-none-eabi/lib/thumb/v7e-m/fpv4-sp/hard/crt0.o
 .ARM.extab     0x00000000        0x0 c:/a/gcc_arm/6/bin/../lib/gcc/arm-none-eabi/6.3.1/../../../../arm-none-eabi/lib/thumb/v7e-m/fpv4-sp/hard/crt0.o
 .text          0x00000000        0x0 examples/pb_remote/server/CMakeFiles/pb_remote_server_nrf52832_xxAA_s132_3.1.0.dir/src/main.c.obj
 .data          0x00000000        0x0 examples/pb_remote/server/CMakeFiles/pb_remote_server_nrf52832_xxAA_s132_3.1.0.dir/src/main.c.obj
 .bss           0x00000000        0x0 examples/pb_remote/server/CMakeFiles/pb_remote_server_nrf52832_xxAA_s132_3.1.0.dir/src/main.c.obj
 .text          0x00000000        0x0 examples/pb_remote/server/CMakeFiles/pb_remote_server_nrf52832_xxAA_s132_3.1.0.dir/__/__/nrf_mesh_sdk.c.obj
 .data          0x00000000        0x0 examples/pb_remote/server/CMakeFiles/pb_remote_server_nrf52832_xxAA_s132_3.1.0.dir/__/__/nrf_mesh_sdk.c.obj
 .bss           0x00000000        0x0 examples/pb_remote/server/CMakeFiles/pb_remote_server_nrf52832_xxAA_s132_3.1.0.dir/__/__/nrf_mesh_sdk.c.obj
 .text.sd_softdevice_enable
                0x00000000        0x4 examples/pb_remote/server/CMakeFiles/pb_remote_server_nrf52832_xxAA_s132_3.1.0.dir/__/__/nrf_mesh_sdk.c.obj
 .text.sd_ble_enable
                0x00000000        0x4 examples/pb_remote/server/CMakeFiles/pb_remote_server_nrf52832_xxAA_s132_3.1.0.dir/__/__/nrf_mesh_sdk.c.obj
 .text.mesh_assert_handler
                0x00000000       0x70 examples/pb_remote/server/CMakeFiles/pb_remote_server_nrf52832_xxAA_s132_3.1.0.dir/__/__/nrf_mesh_sdk.c.obj
 .text.softdevice_assert_handler
                0x00000000       0x78 examples/pb_remote/server/CMakeFiles/pb_remote_server_nrf52832_xxAA_s132_3.1.0.dir/__/__/nrf_mesh_sdk.c.obj
 .text.mesh_softdevice_enable
                0x00000000      0x128 examples/pb_remote/server/CMakeFiles/pb_remote_server_nrf52832_xxAA_s132_3.1.0.dir/__/__/nrf_mesh_sdk.c.obj
 .text.mesh_softdevice_setup
                0x00000000       0x88 examples/pb_remote/server/CMakeFiles/pb_remote_server_nrf52832_xxAA_s132_3.1.0.dir/__/__/nrf_mesh_sdk.c.obj
 .text.mesh_core_setup
                0x00000000      0x15c examples/pb_remote/server/CMakeFiles/pb_remote_server_nrf52832_xxAA_s132_3.1.0.dir/__/__/nrf_mesh_sdk.c.obj
 .rodata.mesh_core_setup.str1.1
                0x00000000       0x47 examples/pb_remote/server/CMakeFiles/pb_remote_server_nrf52832_xxAA_s132_3.1.0.dir/__/__/nrf_mesh_sdk.c.obj
 .rodata.mesh_softdevice_enable.str1.1
                0x00000000       0x65 examples/pb_remote/server/CMakeFiles/pb_remote_server_nrf52832_xxAA_s132_3.1.0.dir/__/__/nrf_mesh_sdk.c.obj
 .rodata.softdevice_assert_handler.str1.1
                0x00000000       0x1d examples/pb_remote/server/CMakeFiles/pb_remote_server_nrf52832_xxAA_s132_3.1.0.dir/__/__/nrf_mesh_sdk.c.obj
 .text          0x00000000        0x0 examples/pb_remote/server/CMakeFiles/pb_remote_server_nrf52832_xxAA_s132_3.1.0.dir/__/__/common/src/simple_hal.c.obj
 .data          0x00000000        0x0 examples/pb_remote/server/CMakeFiles/pb_remote_server_nrf52832_xxAA_s132_3.1.0.dir/__/__/common/src/simple_hal.c.obj
 .bss           0x00000000        0x0 examples/pb_remote/server/CMakeFiles/pb_remote_server_nrf52832_xxAA_s132_3.1.0.dir/__/__/common/src/simple_hal.c.obj
 .text.hal_led_pin_get
                0x00000000       0x18 examples/pb_remote/server/CMakeFiles/pb_remote_server_nrf52832_xxAA_s132_3.1.0.dir/__/__/common/src/simple_hal.c.obj
 .text.hal_led_pin_set
                0x00000000       0x16 examples/pb_remote/server/CMakeFiles/pb_remote_server_nrf52832_xxAA_s132_3.1.0.dir/__/__/common/src/simple_hal.c.obj
 .text.hal_buttons_init
                0x00000000       0x50 examples/pb_remote/server/CMakeFiles/pb_remote_server_nrf52832_xxAA_s132_3.1.0.dir/__/__/common/src/simple_hal.c.obj
 .text          0x00000000        0x0 examples/pb_remote/server/CMakeFiles/pb_remote_server_nrf52832_xxAA_s132_3.1.0.dir/__/__/nrf_mesh_weak.c.obj
 .data          0x00000000        0x0 examples/pb_remote/server/CMakeFiles/pb_remote_server_nrf52832_xxAA_s132_3.1.0.dir/__/__/nrf_mesh_weak.c.obj
 .bss           0x00000000        0x0 examples/pb_remote/server/CMakeFiles/pb_remote_server_nrf52832_xxAA_s132_3.1.0.dir/__/__/nrf_mesh_weak.c.obj
 .text._weak_handler_ptr
                0x00000000        0x4 examples/pb_remote/server/CMakeFiles/pb_remote_server_nrf52832_xxAA_s132_3.1.0.dir/__/__/nrf_mesh_weak.c.obj
 .text          0x00000000        0x0 examples/pb_remote/server/CMakeFiles/pb_remote_server_nrf52832_xxAA_s132_3.1.0.dir/__/__/__/mesh/prov/src/prov_provisionee.c.obj
 .data          0x00000000        0x0 examples/pb_remote/server/CMakeFiles/pb_remote_server_nrf52832_xxAA_s132_3.1.0.dir/__/__/__/mesh/prov/src/prov_provisionee.c.obj
 .bss           0x00000000        0x0 examples/pb_remote/server/CMakeFiles/pb_remote_server_nrf52832_xxAA_s132_3.1.0.dir/__/__/__/mesh/prov/src/prov_provisionee.c.obj
 .text.prov_provisionee_shared_secret
                0x00000000       0x28 examples/pb_remote/server/CMakeFiles/pb_remote_server_nrf52832_xxAA_s132_3.1.0.dir/__/__/__/mesh/prov/src/prov_provisionee.c.obj
 .text          0x00000000        0x0 examples/pb_remote/server/CMakeFiles/pb_remote_server_nrf52832_xxAA_s132_3.1.0.dir/__/__/__/mesh/prov/src/nrf_mesh_prov.c.obj
 .data          0x00000000        0x0 examples/pb_remote/server/CMakeFiles/pb_remote_server_nrf52832_xxAA_s132_3.1.0.dir/__/__/__/mesh/prov/src/nrf_mesh_prov.c.obj
 .bss           0x00000000        0x0 examples/pb_remote/server/CMakeFiles/pb_remote_server_nrf52832_xxAA_s132_3.1.0.dir/__/__/__/mesh/prov/src/nrf_mesh_prov.c.obj
 .text.nrf_mesh_prov_provision
                0x00000000       0x4e examples/pb_remote/server/CMakeFiles/pb_remote_server_nrf52832_xxAA_s132_3.1.0.dir/__/__/__/mesh/prov/src/nrf_mesh_prov.c.obj
 .text.nrf_mesh_prov_oob_use
                0x00000000       0x18 examples/pb_remote/server/CMakeFiles/pb_remote_server_nrf52832_xxAA_s132_3.1.0.dir/__/__/__/mesh/prov/src/nrf_mesh_prov.c.obj
 .text.nrf_mesh_prov_shared_secret_provide
                0x00000000        0xe examples/pb_remote/server/CMakeFiles/pb_remote_server_nrf52832_xxAA_s132_3.1.0.dir/__/__/__/mesh/prov/src/nrf_mesh_prov.c.obj
 .text.nrf_mesh_prov_pubkey_provide
                0x00000000       0x10 examples/pb_remote/server/CMakeFiles/pb_remote_server_nrf52832_xxAA_s132_3.1.0.dir/__/__/__/mesh/prov/src/nrf_mesh_prov.c.obj
 .text          0x00000000        0x0 examples/pb_remote/server/CMakeFiles/pb_remote_server_nrf52832_xxAA_s132_3.1.0.dir/__/__/__/mesh/prov/src/provisioning.c.obj
 .data          0x00000000        0x0 examples/pb_remote/server/CMakeFiles/pb_remote_server_nrf52832_xxAA_s132_3.1.0.dir/__/__/__/mesh/prov/src/provisioning.c.obj
 .bss           0x00000000        0x0 examples/pb_remote/server/CMakeFiles/pb_remote_server_nrf52832_xxAA_s132_3.1.0.dir/__/__/__/mesh/prov/src/provisioning.c.obj
 .text.prov_tx_invite
                0x00000000       0x28 examples/pb_remote/server/CMakeFiles/pb_remote_server_nrf52832_xxAA_s132_3.1.0.dir/__/__/__/mesh/prov/src/provisioning.c.obj
 .text.prov_tx_start
                0x00000000       0x20 examples/pb_remote/server/CMakeFiles/pb_remote_server_nrf52832_xxAA_s132_3.1.0.dir/__/__/__/mesh/prov/src/provisioning.c.obj
 .text.prov_tx_data
                0x00000000        0x6 examples/pb_remote/server/CMakeFiles/pb_remote_server_nrf52832_xxAA_s132_3.1.0.dir/__/__/__/mesh/prov/src/provisioning.c.obj
 .text.prov_tx  0x00000000        0x4 examples/pb_remote/server/CMakeFiles/pb_remote_server_nrf52832_xxAA_s132_3.1.0.dir/__/__/__/mesh/prov/src/provisioning.c.obj
 .text          0x00000000        0x0 examples/pb_remote/server/CMakeFiles/pb_remote_server_nrf52832_xxAA_s132_3.1.0.dir/__/__/__/mesh/prov/src/prov_beacon.c.obj
 .data          0x00000000        0x0 examples/pb_remote/server/CMakeFiles/pb_remote_server_nrf52832_xxAA_s132_3.1.0.dir/__/__/__/mesh/prov/src/prov_beacon.c.obj
 .bss           0x00000000        0x0 examples/pb_remote/server/CMakeFiles/pb_remote_server_nrf52832_xxAA_s132_3.1.0.dir/__/__/__/mesh/prov/src/prov_beacon.c.obj
 .text          0x00000000        0x0 examples/pb_remote/server/CMakeFiles/pb_remote_server_nrf52832_xxAA_s132_3.1.0.dir/__/__/__/mesh/prov/src/prov_utils.c.obj
 .data          0x00000000        0x0 examples/pb_remote/server/CMakeFiles/pb_remote_server_nrf52832_xxAA_s132_3.1.0.dir/__/__/__/mesh/prov/src/prov_utils.c.obj
 .bss           0x00000000        0x0 examples/pb_remote/server/CMakeFiles/pb_remote_server_nrf52832_xxAA_s132_3.1.0.dir/__/__/__/mesh/prov/src/prov_utils.c.obj
 .text          0x00000000        0x0 examples/pb_remote/server/CMakeFiles/pb_remote_server_nrf52832_xxAA_s132_3.1.0.dir/__/__/__/mesh/prov/src/prov_bearer_adv.c.obj
 .data          0x00000000        0x0 examples/pb_remote/server/CMakeFiles/pb_remote_server_nrf52832_xxAA_s132_3.1.0.dir/__/__/__/mesh/prov/src/prov_bearer_adv.c.obj
 .bss           0x00000000        0x0 examples/pb_remote/server/CMakeFiles/pb_remote_server_nrf52832_xxAA_s132_3.1.0.dir/__/__/__/mesh/prov/src/prov_bearer_adv.c.obj
 .text          0x00000000        0x0 examples/pb_remote/server/CMakeFiles/pb_remote_server_nrf52832_xxAA_s132_3.1.0.dir/__/__/__/models/pb_remote/src/pb_remote_server.c.obj
 .data          0x00000000        0x0 examples/pb_remote/server/CMakeFiles/pb_remote_server_nrf52832_xxAA_s132_3.1.0.dir/__/__/__/models/pb_remote/src/pb_remote_server.c.obj
 .bss           0x00000000        0x0 examples/pb_remote/server/CMakeFiles/pb_remote_server_nrf52832_xxAA_s132_3.1.0.dir/__/__/__/models/pb_remote/src/pb_remote_server.c.obj
 .text.pb_remote_server_disable
                0x00000000        0xa examples/pb_remote/server/CMakeFiles/pb_remote_server_nrf52832_xxAA_s132_3.1.0.dir/__/__/__/models/pb_remote/src/pb_remote_server.c.obj
 .text.pb_remote_server_return_to_scan_set
                0x00000000        0xe examples/pb_remote/server/CMakeFiles/pb_remote_server_nrf52832_xxAA_s132_3.1.0.dir/__/__/__/models/pb_remote/src/pb_remote_server.c.obj
 .text          0x00000000        0x0 examples/pb_remote/server/CMakeFiles/pb_remote_server_nrf52832_xxAA_s132_3.1.0.dir/__/__/__/mesh/access/src/access_publish.c.obj
 .data          0x00000000        0x0 examples/pb_remote/server/CMakeFiles/pb_remote_server_nrf52832_xxAA_s132_3.1.0.dir/__/__/__/mesh/access/src/access_publish.c.obj
 .bss           0x00000000        0x0 examples/pb_remote/server/CMakeFiles/pb_remote_server_nrf52832_xxAA_s132_3.1.0.dir/__/__/__/mesh/access/src/access_publish.c.obj
 .text          0x00000000        0x0 examples/pb_remote/server/CMakeFiles/pb_remote_server_nrf52832_xxAA_s132_3.1.0.dir/__/__/__/mesh/access/src/access.c.obj
 .data          0x00000000        0x0 examples/pb_remote/server/CMakeFiles/pb_remote_server_nrf52832_xxAA_s132_3.1.0.dir/__/__/__/mesh/access/src/access.c.obj
 .bss           0x00000000        0x0 examples/pb_remote/server/CMakeFiles/pb_remote_server_nrf52832_xxAA_s132_3.1.0.dir/__/__/__/mesh/access/src/access.c.obj
 .text.access_model_subscription_list_alloc
                0x00000000       0x54 examples/pb_remote/server/CMakeFiles/pb_remote_server_nrf52832_xxAA_s132_3.1.0.dir/__/__/__/mesh/access/src/access.c.obj
 .text.access_model_subscription_lists_share
                0x00000000       0x4c examples/pb_remote/server/CMakeFiles/pb_remote_server_nrf52832_xxAA_s132_3.1.0.dir/__/__/__/mesh/access/src/access.c.obj
 .text.access_element_location_set
                0x00000000       0x20 examples/pb_remote/server/CMakeFiles/pb_remote_server_nrf52832_xxAA_s132_3.1.0.dir/__/__/__/mesh/access/src/access.c.obj
 .text          0x00000000        0x0 examples/pb_remote/server/CMakeFiles/pb_remote_server_nrf52832_xxAA_s132_3.1.0.dir/__/__/__/mesh/access/src/access_reliable.c.obj
 .data          0x00000000        0x0 examples/pb_remote/server/CMakeFiles/pb_remote_server_nrf52832_xxAA_s132_3.1.0.dir/__/__/__/mesh/access/src/access_reliable.c.obj
 .bss           0x00000000        0x0 examples/pb_remote/server/CMakeFiles/pb_remote_server_nrf52832_xxAA_s132_3.1.0.dir/__/__/__/mesh/access/src/access_reliable.c.obj
 .text          0x00000000        0x0 examples/pb_remote/server/CMakeFiles/pb_remote_server_nrf52832_xxAA_s132_3.1.0.dir/__/__/__/mesh/access/src/device_state_manager.c.obj
 .data          0x00000000        0x0 examples/pb_remote/server/CMakeFiles/pb_remote_server_nrf52832_xxAA_s132_3.1.0.dir/__/__/__/mesh/access/src/device_state_manager.c.obj
 .bss           0x00000000        0x0 examples/pb_remote/server/CMakeFiles/pb_remote_server_nrf52832_xxAA_s132_3.1.0.dir/__/__/__/mesh/access/src/device_state_manager.c.obj
 .text.dsm_has_unflashed_data
                0x00000000       0x24 examples/pb_remote/server/CMakeFiles/pb_remote_server_nrf52832_xxAA_s132_3.1.0.dir/__/__/__/mesh/access/src/device_state_manager.c.obj
 .text.dsm_address_publish_remove
                0x00000000       0x40 examples/pb_remote/server/CMakeFiles/pb_remote_server_nrf52832_xxAA_s132_3.1.0.dir/__/__/__/mesh/access/src/device_state_manager.c.obj
 .text.dsm_address_subscription_count_get
                0x00000000       0x58 examples/pb_remote/server/CMakeFiles/pb_remote_server_nrf52832_xxAA_s132_3.1.0.dir/__/__/__/mesh/access/src/device_state_manager.c.obj
 .text.dsm_address_get_all
                0x00000000       0x64 examples/pb_remote/server/CMakeFiles/pb_remote_server_nrf52832_xxAA_s132_3.1.0.dir/__/__/__/mesh/access/src/device_state_manager.c.obj
 .text.dsm_subnet_handle_get
                0x00000000        0xc examples/pb_remote/server/CMakeFiles/pb_remote_server_nrf52832_xxAA_s132_3.1.0.dir/__/__/__/mesh/access/src/device_state_manager.c.obj
 .text.dsm_subnet_handle_to_netkey_index
                0x00000000       0x30 examples/pb_remote/server/CMakeFiles/pb_remote_server_nrf52832_xxAA_s132_3.1.0.dir/__/__/__/mesh/access/src/device_state_manager.c.obj
 .text.dsm_devkey_handle_get
                0x00000000       0x34 examples/pb_remote/server/CMakeFiles/pb_remote_server_nrf52832_xxAA_s132_3.1.0.dir/__/__/__/mesh/access/src/device_state_manager.c.obj
 .text.dsm_beacon_secmat_get
                0x00000000       0x2c examples/pb_remote/server/CMakeFiles/pb_remote_server_nrf52832_xxAA_s132_3.1.0.dir/__/__/__/mesh/access/src/device_state_manager.c.obj
 .text.dsm_proxy_identity_get
                0x00000000        0x4 examples/pb_remote/server/CMakeFiles/pb_remote_server_nrf52832_xxAA_s132_3.1.0.dir/__/__/__/mesh/access/src/device_state_manager.c.obj
 .text          0x00000000        0x0 examples/pb_remote/server/CMakeFiles/pb_remote_server_nrf52832_xxAA_s132_3.1.0.dir/__/__/__/mesh/access/src/nrf_mesh_node_config.c.obj
 .data          0x00000000        0x0 examples/pb_remote/server/CMakeFiles/pb_remote_server_nrf52832_xxAA_s132_3.1.0.dir/__/__/__/mesh/access/src/nrf_mesh_node_config.c.obj
 .bss           0x00000000        0x0 examples/pb_remote/server/CMakeFiles/pb_remote_server_nrf52832_xxAA_s132_3.1.0.dir/__/__/__/mesh/access/src/nrf_mesh_node_config.c.obj
 .text.nrf_mesh_node_config_clear
                0x00000000       0x22 examples/pb_remote/server/CMakeFiles/pb_remote_server_nrf52832_xxAA_s132_3.1.0.dir/__/__/__/mesh/access/src/nrf_mesh_node_config.c.obj
 .text          0x00000000        0x0 examples/pb_remote/server/CMakeFiles/pb_remote_server_nrf52832_xxAA_s132_3.1.0.dir/__/__/__/models/config/src/composition_data.c.obj
 .data          0x00000000        0x0 examples/pb_remote/server/CMakeFiles/pb_remote_server_nrf52832_xxAA_s132_3.1.0.dir/__/__/__/models/config/src/composition_data.c.obj
 .bss           0x00000000        0x0 examples/pb_remote/server/CMakeFiles/pb_remote_server_nrf52832_xxAA_s132_3.1.0.dir/__/__/__/models/config/src/composition_data.c.obj
 .text          0x00000000        0x0 examples/pb_remote/server/CMakeFiles/pb_remote_server_nrf52832_xxAA_s132_3.1.0.dir/__/__/__/models/config/src/config_server.c.obj
 .data          0x00000000        0x0 examples/pb_remote/server/CMakeFiles/pb_remote_server_nrf52832_xxAA_s132_3.1.0.dir/__/__/__/models/config/src/config_server.c.obj
 .bss           0x00000000        0x0 examples/pb_remote/server/CMakeFiles/pb_remote_server_nrf52832_xxAA_s132_3.1.0.dir/__/__/__/models/config/src/config_server.c.obj
 .text          0x00000000        0x0 examples/pb_remote/server/CMakeFiles/pb_remote_server_nrf52832_xxAA_s132_3.1.0.dir/__/__/__/models/config/src/packed_index_list.c.obj
 .data          0x00000000        0x0 examples/pb_remote/server/CMakeFiles/pb_remote_server_nrf52832_xxAA_s132_3.1.0.dir/__/__/__/models/config/src/packed_index_list.c.obj
 .bss           0x00000000        0x0 examples/pb_remote/server/CMakeFiles/pb_remote_server_nrf52832_xxAA_s132_3.1.0.dir/__/__/__/models/config/src/packed_index_list.c.obj
 .text          0x00000000        0x0 examples/pb_remote/server/CMakeFiles/pb_remote_server_nrf52832_xxAA_s132_3.1.0.dir/__/__/__/models/health/src/health_server.c.obj
 .data          0x00000000        0x0 examples/pb_remote/server/CMakeFiles/pb_remote_server_nrf52832_xxAA_s132_3.1.0.dir/__/__/__/models/health/src/health_server.c.obj
 .bss           0x00000000        0x0 examples/pb_remote/server/CMakeFiles/pb_remote_server_nrf52832_xxAA_s132_3.1.0.dir/__/__/__/models/health/src/health_server.c.obj
 .text.health_server_fault_is_set
                0x00000000       0x1c examples/pb_remote/server/CMakeFiles/pb_remote_server_nrf52832_xxAA_s132_3.1.0.dir/__/__/__/models/health/src/health_server.c.obj
 .text.health_server_fault_count_get
                0x00000000        0xc examples/pb_remote/server/CMakeFiles/pb_remote_server_nrf52832_xxAA_s132_3.1.0.dir/__/__/__/models/health/src/health_server.c.obj
 .text.health_server_fault_register
                0x00000000       0xe8 examples/pb_remote/server/CMakeFiles/pb_remote_server_nrf52832_xxAA_s132_3.1.0.dir/__/__/__/models/health/src/health_server.c.obj
 .text.health_server_fault_clear
                0x00000000       0x54 examples/pb_remote/server/CMakeFiles/pb_remote_server_nrf52832_xxAA_s132_3.1.0.dir/__/__/__/models/health/src/health_server.c.obj
 .text.health_server_attention_get
                0x00000000        0x6 examples/pb_remote/server/CMakeFiles/pb_remote_server_nrf52832_xxAA_s132_3.1.0.dir/__/__/__/models/health/src/health_server.c.obj
 .text.health_server_attention_set
                0x00000000        0x4 examples/pb_remote/server/CMakeFiles/pb_remote_server_nrf52832_xxAA_s132_3.1.0.dir/__/__/__/models/health/src/health_server.c.obj
 .text          0x00000000        0x0 examples/pb_remote/server/CMakeFiles/pb_remote_server_nrf52832_xxAA_s132_3.1.0.dir/__/__/__/external/nRF5_SDK_14.2.0_17b948a/components/toolchain/system_nrf52.c.obj
 .data          0x00000000        0x0 examples/pb_remote/server/CMakeFiles/pb_remote_server_nrf52832_xxAA_s132_3.1.0.dir/__/__/__/external/nRF5_SDK_14.2.0_17b948a/components/toolchain/system_nrf52.c.obj
 .bss           0x00000000        0x0 examples/pb_remote/server/CMakeFiles/pb_remote_server_nrf52832_xxAA_s132_3.1.0.dir/__/__/__/external/nRF5_SDK_14.2.0_17b948a/components/toolchain/system_nrf52.c.obj
 .text.SystemCoreClockUpdate
                0x00000000       0x10 examples/pb_remote/server/CMakeFiles/pb_remote_server_nrf52832_xxAA_s132_3.1.0.dir/__/__/__/external/nRF5_SDK_14.2.0_17b948a/components/toolchain/system_nrf52.c.obj
 .data          0x00000000        0x0 examples/pb_remote/server/CMakeFiles/pb_remote_server_nrf52832_xxAA_s132_3.1.0.dir/__/__/__/external/nRF5_SDK_14.2.0_17b948a/components/toolchain/gcc/gcc_startup_nrf52.S.obj
 .bss           0x00000000        0x0 examples/pb_remote/server/CMakeFiles/pb_remote_server_nrf52832_xxAA_s132_3.1.0.dir/__/__/__/external/nRF5_SDK_14.2.0_17b948a/components/toolchain/gcc/gcc_startup_nrf52.S.obj
 .text          0x00000000        0x0 mesh/core/libmesh_core_nrf52832_xxAA.a(nrf_mesh_configure.c.obj)
 .data          0x00000000        0x0 mesh/core/libmesh_core_nrf52832_xxAA.a(nrf_mesh_configure.c.obj)
 .bss           0x00000000        0x0 mesh/core/libmesh_core_nrf52832_xxAA.a(nrf_mesh_configure.c.obj)
 .text.nrf_mesh_configure_device_uuid_set
                0x00000000       0x10 mesh/core/libmesh_core_nrf52832_xxAA.a(nrf_mesh_configure.c.obj)
 .text          0x00000000        0x0 mesh/core/libmesh_core_nrf52832_xxAA.a(event.c.obj)
 .data          0x00000000        0x0 mesh/core/libmesh_core_nrf52832_xxAA.a(event.c.obj)
 .bss           0x00000000        0x0 mesh/core/libmesh_core_nrf52832_xxAA.a(event.c.obj)
 .text          0x00000000        0x0 mesh/core/libmesh_core_nrf52832_xxAA.a(fifo.c.obj)
 .data          0x00000000        0x0 mesh/core/libmesh_core_nrf52832_xxAA.a(fifo.c.obj)
 .bss           0x00000000        0x0 mesh/core/libmesh_core_nrf52832_xxAA.a(fifo.c.obj)
 .text.fifo_peek_at
                0x00000000       0x50 mesh/core/libmesh_core_nrf52832_xxAA.a(fifo.c.obj)
 .text.fifo_peek
                0x00000000        0x6 mesh/core/libmesh_core_nrf52832_xxAA.a(fifo.c.obj)
 .text.fifo_is_full
                0x00000000       0x10 mesh/core/libmesh_core_nrf52832_xxAA.a(fifo.c.obj)
 .text.fifo_is_empty
                0x00000000        0xc mesh/core/libmesh_core_nrf52832_xxAA.a(fifo.c.obj)
 .text          0x00000000        0x0 mesh/core/libmesh_core_nrf52832_xxAA.a(net_state.c.obj)
 .data          0x00000000        0x0 mesh/core/libmesh_core_nrf52832_xxAA.a(net_state.c.obj)
 .bss           0x00000000        0x0 mesh/core/libmesh_core_nrf52832_xxAA.a(net_state.c.obj)
 .text.net_state_iv_update_test_mode_set
                0x00000000        0xc mesh/core/libmesh_core_nrf52832_xxAA.a(net_state.c.obj)
 .text          0x00000000        0x0 mesh/core/libmesh_core_nrf52832_xxAA.a(nrf_mesh_utils.c.obj)
 .data          0x00000000        0x0 mesh/core/libmesh_core_nrf52832_xxAA.a(nrf_mesh_utils.c.obj)
 .bss           0x00000000        0x0 mesh/core/libmesh_core_nrf52832_xxAA.a(nrf_mesh_utils.c.obj)
 .text.nrf_mesh_rand_get
                0x00000000       0x10 mesh/core/libmesh_core_nrf52832_xxAA.a(nrf_mesh_utils.c.obj)
 .text.nrf_mesh_gap_address_type_get
                0x00000000       0x3c mesh/core/libmesh_core_nrf52832_xxAA.a(nrf_mesh_utils.c.obj)
 .text          0x00000000        0x0 mesh/core/libmesh_core_nrf52832_xxAA.a(nrf_mesh.c.obj)
 .data          0x00000000        0x0 mesh/core/libmesh_core_nrf52832_xxAA.a(nrf_mesh.c.obj)
 .bss           0x00000000        0x0 mesh/core/libmesh_core_nrf52832_xxAA.a(nrf_mesh.c.obj)
 .text.nrf_mesh_disable
                0x00000000       0x28 mesh/core/libmesh_core_nrf52832_xxAA.a(nrf_mesh.c.obj)
 .text.nrf_mesh_process
                0x00000000        0x4 mesh/core/libmesh_core_nrf52832_xxAA.a(nrf_mesh.c.obj)
 .text.nrf_mesh_evt_handler_remove
                0x00000000        0x4 mesh/core/libmesh_core_nrf52832_xxAA.a(nrf_mesh.c.obj)
 .text.nrf_mesh_rx_cb_set
                0x00000000        0xc mesh/core/libmesh_core_nrf52832_xxAA.a(nrf_mesh.c.obj)
 .text.nrf_mesh_rx_cb_clear
                0x00000000        0xc mesh/core/libmesh_core_nrf52832_xxAA.a(nrf_mesh.c.obj)
 .text          0x00000000        0x0 mesh/core/libmesh_core_nrf52832_xxAA.a(hal.c.obj)
 .data          0x00000000        0x0 mesh/core/libmesh_core_nrf52832_xxAA.a(hal.c.obj)
 .bss           0x00000000        0x0 mesh/core/libmesh_core_nrf52832_xxAA.a(hal.c.obj)
 .text          0x00000000        0x0 mesh/core/libmesh_core_nrf52832_xxAA.a(timer_scheduler.c.obj)
 .data          0x00000000        0x0 mesh/core/libmesh_core_nrf52832_xxAA.a(timer_scheduler.c.obj)
 .bss           0x00000000        0x0 mesh/core/libmesh_core_nrf52832_xxAA.a(timer_scheduler.c.obj)
 .text          0x00000000        0x0 mesh/core/libmesh_core_nrf52832_xxAA.a(timer.c.obj)
 .data          0x00000000        0x0 mesh/core/libmesh_core_nrf52832_xxAA.a(timer.c.obj)
 .bss           0x00000000        0x0 mesh/core/libmesh_core_nrf52832_xxAA.a(timer.c.obj)
 .text.timer_order_cb_ppi
                0x00000000       0xc4 mesh/core/libmesh_core_nrf52832_xxAA.a(timer.c.obj)
 .text.timer_order_ppi
                0x00000000       0xc0 mesh/core/libmesh_core_nrf52832_xxAA.a(timer.c.obj)
 .text.timer_abort
                0x00000000       0x78 mesh/core/libmesh_core_nrf52832_xxAA.a(timer.c.obj)
 .text          0x00000000        0x0 mesh/core/libmesh_core_nrf52832_xxAA.a(ticker.c.obj)
 .data          0x00000000        0x0 mesh/core/libmesh_core_nrf52832_xxAA.a(ticker.c.obj)
 .bss           0x00000000        0x0 mesh/core/libmesh_core_nrf52832_xxAA.a(ticker.c.obj)
 .text.ticker_get
                0x00000000        0xc mesh/core/libmesh_core_nrf52832_xxAA.a(ticker.c.obj)
 .text          0x00000000        0x0 mesh/core/libmesh_core_nrf52832_xxAA.a(rand.c.obj)
 .data          0x00000000        0x0 mesh/core/libmesh_core_nrf52832_xxAA.a(rand.c.obj)
 .bss           0x00000000        0x0 mesh/core/libmesh_core_nrf52832_xxAA.a(rand.c.obj)
 .text          0x00000000        0x0 mesh/core/libmesh_core_nrf52832_xxAA.a(nrf_mesh_opt.c.obj)
 .data          0x00000000        0x0 mesh/core/libmesh_core_nrf52832_xxAA.a(nrf_mesh_opt.c.obj)
 .bss           0x00000000        0x0 mesh/core/libmesh_core_nrf52832_xxAA.a(nrf_mesh_opt.c.obj)
 .text          0x00000000        0x0 mesh/core/libmesh_core_nrf52832_xxAA.a(timeslot.c.obj)
 .data          0x00000000        0x0 mesh/core/libmesh_core_nrf52832_xxAA.a(timeslot.c.obj)
 .bss           0x00000000        0x0 mesh/core/libmesh_core_nrf52832_xxAA.a(timeslot.c.obj)
 .text.timeslot_end_time_get
                0x00000000       0x10 mesh/core/libmesh_core_nrf52832_xxAA.a(timeslot.c.obj)
 .text.timeslot_is_in_ts
                0x00000000        0xc mesh/core/libmesh_core_nrf52832_xxAA.a(timeslot.c.obj)
 .text.timeslot_restart
                0x00000000       0x10 mesh/core/libmesh_core_nrf52832_xxAA.a(timeslot.c.obj)
 .text          0x00000000        0x0 mesh/core/libmesh_core_nrf52832_xxAA.a(bearer_event.c.obj)
 .data          0x00000000        0x0 mesh/core/libmesh_core_nrf52832_xxAA.a(bearer_event.c.obj)
 .bss           0x00000000        0x0 mesh/core/libmesh_core_nrf52832_xxAA.a(bearer_event.c.obj)
 .text.bearer_event_generic_post
                0x00000000       0x30 mesh/core/libmesh_core_nrf52832_xxAA.a(bearer_event.c.obj)
 .text.bearer_event_timer_sch_post
                0x00000000       0x34 mesh/core/libmesh_core_nrf52832_xxAA.a(bearer_event.c.obj)
 .text.bearer_event_in_correct_irq_priority
                0x00000000       0x48 mesh/core/libmesh_core_nrf52832_xxAA.a(bearer_event.c.obj)
 .text          0x00000000        0x0 mesh/core/libmesh_core_nrf52832_xxAA.a(enc.c.obj)
 .data          0x00000000        0x0 mesh/core/libmesh_core_nrf52832_xxAA.a(enc.c.obj)
 .bss           0x00000000        0x0 mesh/core/libmesh_core_nrf52832_xxAA.a(enc.c.obj)
 .text.enc_key_generate
                0x00000000        0x6 mesh/core/libmesh_core_nrf52832_xxAA.a(enc.c.obj)
 .text          0x00000000        0x0 mesh/core/libmesh_core_nrf52832_xxAA.a(network.c.obj)
 .data          0x00000000        0x0 mesh/core/libmesh_core_nrf52832_xxAA.a(network.c.obj)
 .bss           0x00000000        0x0 mesh/core/libmesh_core_nrf52832_xxAA.a(network.c.obj)
 .text.network_packet_discard
                0x00000000       0x3c mesh/core/libmesh_core_nrf52832_xxAA.a(network.c.obj)
 .text          0x00000000        0x0 mesh/core/libmesh_core_nrf52832_xxAA.a(nrf_mesh_keygen.c.obj)
 .data          0x00000000        0x0 mesh/core/libmesh_core_nrf52832_xxAA.a(nrf_mesh_keygen.c.obj)
 .bss           0x00000000        0x0 mesh/core/libmesh_core_nrf52832_xxAA.a(nrf_mesh_keygen.c.obj)
 .text.nrf_mesh_keygen_identitykey
                0x00000000       0x4c mesh/core/libmesh_core_nrf52832_xxAA.a(nrf_mesh_keygen.c.obj)
 .text          0x00000000        0x0 mesh/core/libmesh_core_nrf52832_xxAA.a(list.c.obj)
 .data          0x00000000        0x0 mesh/core/libmesh_core_nrf52832_xxAA.a(list.c.obj)
 .bss           0x00000000        0x0 mesh/core/libmesh_core_nrf52832_xxAA.a(list.c.obj)
 .text.list_size_get
                0x00000000       0x12 mesh/core/libmesh_core_nrf52832_xxAA.a(list.c.obj)
 .text.list_sorted_add
                0x00000000       0x90 mesh/core/libmesh_core_nrf52832_xxAA.a(list.c.obj)
 .text          0x00000000        0x0 mesh/core/libmesh_core_nrf52832_xxAA.a(log.c.obj)
 .data          0x00000000        0x0 mesh/core/libmesh_core_nrf52832_xxAA.a(log.c.obj)
 .bss           0x00000000        0x0 mesh/core/libmesh_core_nrf52832_xxAA.a(log.c.obj)
 .text.log_callback_logview
                0x00000000       0x38 mesh/core/libmesh_core_nrf52832_xxAA.a(log.c.obj)
 .text.log_set_callback
                0x00000000        0xc mesh/core/libmesh_core_nrf52832_xxAA.a(log.c.obj)
 .rodata.log_callback_logview.str1.1
                0x00000000        0xf mesh/core/libmesh_core_nrf52832_xxAA.a(log.c.obj)
 .text          0x00000000        0x0 mesh/core/libmesh_core_nrf52832_xxAA.a(flash_manager.c.obj)
 .data          0x00000000        0x0 mesh/core/libmesh_core_nrf52832_xxAA.a(flash_manager.c.obj)
 .bss           0x00000000        0x0 mesh/core/libmesh_core_nrf52832_xxAA.a(flash_manager.c.obj)
 .text.flash_manager_entry_count_get
                0x00000000       0x5c mesh/core/libmesh_core_nrf52832_xxAA.a(flash_manager.c.obj)
 .text.flash_manager_entry_release
                0x00000000       0x12 mesh/core/libmesh_core_nrf52832_xxAA.a(flash_manager.c.obj)
 .text          0x00000000        0x0 mesh/core/libmesh_core_nrf52832_xxAA.a(ccm_soft.c.obj)
 .data          0x00000000        0x0 mesh/core/libmesh_core_nrf52832_xxAA.a(ccm_soft.c.obj)
 .bss           0x00000000        0x0 mesh/core/libmesh_core_nrf52832_xxAA.a(ccm_soft.c.obj)
 .text          0x00000000        0x0 mesh/core/libmesh_core_nrf52832_xxAA.a(beacon.c.obj)
 .data          0x00000000        0x0 mesh/core/libmesh_core_nrf52832_xxAA.a(beacon.c.obj)
 .bss           0x00000000        0x0 mesh/core/libmesh_core_nrf52832_xxAA.a(beacon.c.obj)
 .text          0x00000000        0x0 mesh/core/libmesh_core_nrf52832_xxAA.a(flash_manager_internal.c.obj)
 .data          0x00000000        0x0 mesh/core/libmesh_core_nrf52832_xxAA.a(flash_manager_internal.c.obj)
 .bss           0x00000000        0x0 mesh/core/libmesh_core_nrf52832_xxAA.a(flash_manager_internal.c.obj)
 .text          0x00000000        0x0 mesh/core/libmesh_core_nrf52832_xxAA.a(core_tx.c.obj)
 .data          0x00000000        0x0 mesh/core/libmesh_core_nrf52832_xxAA.a(core_tx.c.obj)
 .bss           0x00000000        0x0 mesh/core/libmesh_core_nrf52832_xxAA.a(core_tx.c.obj)
 .text          0x00000000        0x0 mesh/core/libmesh_core_nrf52832_xxAA.a(heartbeat.c.obj)
 .data          0x00000000        0x0 mesh/core/libmesh_core_nrf52832_xxAA.a(heartbeat.c.obj)
 .bss           0x00000000        0x0 mesh/core/libmesh_core_nrf52832_xxAA.a(heartbeat.c.obj)
 .text          0x00000000        0x0 mesh/core/libmesh_core_nrf52832_xxAA.a(net_beacon.c.obj)
 .data          0x00000000        0x0 mesh/core/libmesh_core_nrf52832_xxAA.a(net_beacon.c.obj)
 .bss           0x00000000        0x0 mesh/core/libmesh_core_nrf52832_xxAA.a(net_beacon.c.obj)
 .text          0x00000000        0x0 mesh/core/libmesh_core_nrf52832_xxAA.a(core_tx_adv.c.obj)
 .data          0x00000000        0x0 mesh/core/libmesh_core_nrf52832_xxAA.a(core_tx_adv.c.obj)
 .bss           0x00000000        0x0 mesh/core/libmesh_core_nrf52832_xxAA.a(core_tx_adv.c.obj)
 .text.core_tx_adv_address_set
                0x00000000       0x34 mesh/core/libmesh_core_nrf52832_xxAA.a(core_tx_adv.c.obj)
 .text          0x00000000        0x0 mesh/core/libmesh_core_nrf52832_xxAA.a(ad_listener.c.obj)
 .data          0x00000000        0x0 mesh/core/libmesh_core_nrf52832_xxAA.a(ad_listener.c.obj)
 .bss           0x00000000        0x0 mesh/core/libmesh_core_nrf52832_xxAA.a(ad_listener.c.obj)
 .text.ad_listener_unsubscribe
                0x00000000       0x6c mesh/core/libmesh_core_nrf52832_xxAA.a(ad_listener.c.obj)
 .text          0x00000000        0x0 mesh/core/libmesh_core_nrf52832_xxAA.a(ad_type_filter.c.obj)
 .data          0x00000000        0x0 mesh/core/libmesh_core_nrf52832_xxAA.a(ad_type_filter.c.obj)
 .bss           0x00000000        0x0 mesh/core/libmesh_core_nrf52832_xxAA.a(ad_type_filter.c.obj)
 .text.bearer_adtype_remove
                0x00000000       0x20 mesh/core/libmesh_core_nrf52832_xxAA.a(ad_type_filter.c.obj)
 .text.bearer_adtype_clear
                0x00000000       0x10 mesh/core/libmesh_core_nrf52832_xxAA.a(ad_type_filter.c.obj)
 .text.bearer_invalid_length_amount_get
                0x00000000        0xc mesh/core/libmesh_core_nrf52832_xxAA.a(ad_type_filter.c.obj)
 .text.bearer_adtype_filtered_amount_get
                0x00000000        0xc mesh/core/libmesh_core_nrf52832_xxAA.a(ad_type_filter.c.obj)
 .text          0x00000000        0x0 mesh/core/libmesh_core_nrf52832_xxAA.a(advertiser.c.obj)
 .data          0x00000000        0x0 mesh/core/libmesh_core_nrf52832_xxAA.a(advertiser.c.obj)
 .bss           0x00000000        0x0 mesh/core/libmesh_core_nrf52832_xxAA.a(advertiser.c.obj)
 .text.advertiser_disable
                0x00000000        0xa mesh/core/libmesh_core_nrf52832_xxAA.a(advertiser.c.obj)
 .text.advertiser_channels_set
                0x00000000       0x84 mesh/core/libmesh_core_nrf52832_xxAA.a(advertiser.c.obj)
 .text.advertiser_address_set
                0x00000000       0x50 mesh/core/libmesh_core_nrf52832_xxAA.a(advertiser.c.obj)
 .text.advertiser_config_set
                0x00000000       0x44 mesh/core/libmesh_core_nrf52832_xxAA.a(advertiser.c.obj)
 .text.advertiser_config_get
                0x00000000       0x2c mesh/core/libmesh_core_nrf52832_xxAA.a(advertiser.c.obj)
 .text          0x00000000        0x0 mesh/core/libmesh_core_nrf52832_xxAA.a(bearer_handler.c.obj)
 .data          0x00000000        0x0 mesh/core/libmesh_core_nrf52832_xxAA.a(bearer_handler.c.obj)
 .bss           0x00000000        0x0 mesh/core/libmesh_core_nrf52832_xxAA.a(bearer_handler.c.obj)
 .text.bearer_handler_stop
                0x00000000       0x20 mesh/core/libmesh_core_nrf52832_xxAA.a(bearer_handler.c.obj)
 .text.bearer_handler_action_fire
                0x00000000       0xbc mesh/core/libmesh_core_nrf52832_xxAA.a(bearer_handler.c.obj)
 .text          0x00000000        0x0 mesh/core/libmesh_core_nrf52832_xxAA.a(broadcast.c.obj)
 .data          0x00000000        0x0 mesh/core/libmesh_core_nrf52832_xxAA.a(broadcast.c.obj)
 .bss           0x00000000        0x0 mesh/core/libmesh_core_nrf52832_xxAA.a(broadcast.c.obj)
 .text          0x00000000        0x0 mesh/core/libmesh_core_nrf52832_xxAA.a(filter_engine.c.obj)
 .data          0x00000000        0x0 mesh/core/libmesh_core_nrf52832_xxAA.a(filter_engine.c.obj)
 .bss           0x00000000        0x0 mesh/core/libmesh_core_nrf52832_xxAA.a(filter_engine.c.obj)
 .text.fen_accepted_amount_get
                0x00000000        0xc mesh/core/libmesh_core_nrf52832_xxAA.a(filter_engine.c.obj)
 .text          0x00000000        0x0 mesh/core/libmesh_core_nrf52832_xxAA.a(radio_config.c.obj)
 .data          0x00000000        0x0 mesh/core/libmesh_core_nrf52832_xxAA.a(radio_config.c.obj)
 .bss           0x00000000        0x0 mesh/core/libmesh_core_nrf52832_xxAA.a(radio_config.c.obj)
 .text.radio_config_access_addr_get
                0x00000000       0x64 mesh/core/libmesh_core_nrf52832_xxAA.a(radio_config.c.obj)
 .text          0x00000000        0x0 mesh/core/libmesh_core_nrf52832_xxAA.a(scanner.c.obj)
 .data          0x00000000        0x0 mesh/core/libmesh_core_nrf52832_xxAA.a(scanner.c.obj)
 .bss           0x00000000        0x0 mesh/core/libmesh_core_nrf52832_xxAA.a(scanner.c.obj)
 .text.scanner_rx_callback_set
                0x00000000       0x2c mesh/core/libmesh_core_nrf52832_xxAA.a(scanner.c.obj)
 .text.scanner_disable
                0x00000000       0x48 mesh/core/libmesh_core_nrf52832_xxAA.a(scanner.c.obj)
 .text.scanner_is_enabled
                0x00000000       0x10 mesh/core/libmesh_core_nrf52832_xxAA.a(scanner.c.obj)
 .text.scanner_stats_get
                0x00000000        0x8 mesh/core/libmesh_core_nrf52832_xxAA.a(scanner.c.obj)
 .text.scanner_config_radio_mode_set
                0x00000000       0x10 mesh/core/libmesh_core_nrf52832_xxAA.a(scanner.c.obj)
 .text          0x00000000        0x0 mesh/core/libmesh_core_nrf52832_xxAA.a(internal_event.c.obj)
 .data          0x00000000        0x0 mesh/core/libmesh_core_nrf52832_xxAA.a(internal_event.c.obj)
 .bss           0x00000000        0x0 mesh/core/libmesh_core_nrf52832_xxAA.a(internal_event.c.obj)
 .text.internal_event_init
                0x00000000       0x40 mesh/core/libmesh_core_nrf52832_xxAA.a(internal_event.c.obj)
 .text.internal_event_pop
                0x00000000       0x1c mesh/core/libmesh_core_nrf52832_xxAA.a(internal_event.c.obj)
 .bss.m_internal_event_fifo_buffer
                0x00000000      0x100 mesh/core/libmesh_core_nrf52832_xxAA.a(internal_event.c.obj)
 .text          0x00000000        0x0 mesh/core/libmesh_core_nrf52832_xxAA.a(aes.c.obj)
 .data          0x00000000        0x0 mesh/core/libmesh_core_nrf52832_xxAA.a(aes.c.obj)
 .bss           0x00000000        0x0 mesh/core/libmesh_core_nrf52832_xxAA.a(aes.c.obj)
 .text          0x00000000        0x0 mesh/core/libmesh_core_nrf52832_xxAA.a(msg_cache.c.obj)
 .data          0x00000000        0x0 mesh/core/libmesh_core_nrf52832_xxAA.a(msg_cache.c.obj)
 .bss           0x00000000        0x0 mesh/core/libmesh_core_nrf52832_xxAA.a(msg_cache.c.obj)
 .text.msg_cache_clear
                0x00000000       0x18 mesh/core/libmesh_core_nrf52832_xxAA.a(msg_cache.c.obj)
 .text          0x00000000        0x0 mesh/core/libmesh_core_nrf52832_xxAA.a(transport.c.obj)
 .data          0x00000000        0x0 mesh/core/libmesh_core_nrf52832_xxAA.a(transport.c.obj)
 .bss           0x00000000        0x0 mesh/core/libmesh_core_nrf52832_xxAA.a(transport.c.obj)
 .text.transport_sar_mem_funcs_set
                0x00000000       0x44 mesh/core/libmesh_core_nrf52832_xxAA.a(transport.c.obj)
 .text          0x00000000        0x0 mesh/core/libmesh_core_nrf52832_xxAA.a(packet_buffer.c.obj)
 .data          0x00000000        0x0 mesh/core/libmesh_core_nrf52832_xxAA.a(packet_buffer.c.obj)
 .bss           0x00000000        0x0 mesh/core/libmesh_core_nrf52832_xxAA.a(packet_buffer.c.obj)
 .text.packet_buffer_max_packet_len_get
                0x00000000       0x34 mesh/core/libmesh_core_nrf52832_xxAA.a(packet_buffer.c.obj)
 .text          0x00000000        0x0 mesh/core/libmesh_core_nrf52832_xxAA.a(flash_manager_defrag.c.obj)
 .data          0x00000000        0x0 mesh/core/libmesh_core_nrf52832_xxAA.a(flash_manager_defrag.c.obj)
 .bss           0x00000000        0x0 mesh/core/libmesh_core_nrf52832_xxAA.a(flash_manager_defrag.c.obj)
 .text.flash_manager_defragging
                0x00000000       0x44 mesh/core/libmesh_core_nrf52832_xxAA.a(flash_manager_defrag.c.obj)
 .text          0x00000000        0x0 mesh/core/libmesh_core_nrf52832_xxAA.a(packet_mgr.c.obj)
 .data          0x00000000        0x0 mesh/core/libmesh_core_nrf52832_xxAA.a(packet_mgr.c.obj)
 .bss           0x00000000        0x0 mesh/core/libmesh_core_nrf52832_xxAA.a(packet_mgr.c.obj)
 .text.packet_mgr_alloc
                0x00000000      0x19c mesh/core/libmesh_core_nrf52832_xxAA.a(packet_mgr.c.obj)
 .text.packet_mgr_free
                0x00000000       0x6c mesh/core/libmesh_core_nrf52832_xxAA.a(packet_mgr.c.obj)
 .text.packet_mgr_get_free_space
                0x00000000       0x1c mesh/core/libmesh_core_nrf52832_xxAA.a(packet_mgr.c.obj)
 .text.packet_mgr_refcount_get
                0x00000000        0x6 mesh/core/libmesh_core_nrf52832_xxAA.a(packet_mgr.c.obj)
 .text.packet_mgr_size_get
                0x00000000        0x6 mesh/core/libmesh_core_nrf52832_xxAA.a(packet_mgr.c.obj)
 .text          0x00000000        0x0 mesh/core/libmesh_core_nrf52832_xxAA.a(mesh_flash.c.obj)
 .data          0x00000000        0x0 mesh/core/libmesh_core_nrf52832_xxAA.a(mesh_flash.c.obj)
 .bss           0x00000000        0x0 mesh/core/libmesh_core_nrf52832_xxAA.a(mesh_flash.c.obj)
 .text.mesh_flash_op_available_slots
                0x00000000       0x2c mesh/core/libmesh_core_nrf52832_xxAA.a(mesh_flash.c.obj)
 .text.mesh_flash_in_progress
                0x00000000       0x34 mesh/core/libmesh_core_nrf52832_xxAA.a(mesh_flash.c.obj)
 .text.mesh_flash_set_suspended
                0x00000000       0x80 mesh/core/libmesh_core_nrf52832_xxAA.a(mesh_flash.c.obj)
 .bss.suspend_count.9905
                0x00000000        0x4 mesh/core/libmesh_core_nrf52832_xxAA.a(mesh_flash.c.obj)
 .text          0x00000000        0x0 mesh/core/libmesh_core_nrf52832_xxAA.a(queue.c.obj)
 .data          0x00000000        0x0 mesh/core/libmesh_core_nrf52832_xxAA.a(queue.c.obj)
 .bss           0x00000000        0x0 mesh/core/libmesh_core_nrf52832_xxAA.a(queue.c.obj)
 .text          0x00000000        0x0 mesh/core/libmesh_core_nrf52832_xxAA.a(aes_cmac.c.obj)
 .data          0x00000000        0x0 mesh/core/libmesh_core_nrf52832_xxAA.a(aes_cmac.c.obj)
 .bss           0x00000000        0x0 mesh/core/libmesh_core_nrf52832_xxAA.a(aes_cmac.c.obj)
 .text          0x00000000        0x0 mesh/core/libmesh_core_nrf52832_xxAA.a(msqueue.c.obj)
 .data          0x00000000        0x0 mesh/core/libmesh_core_nrf52832_xxAA.a(msqueue.c.obj)
 .bss           0x00000000        0x0 mesh/core/libmesh_core_nrf52832_xxAA.a(msqueue.c.obj)
 .text          0x00000000        0x0 mesh/core/libmesh_core_nrf52832_xxAA.a(replay_cache.c.obj)
 .data          0x00000000        0x0 mesh/core/libmesh_core_nrf52832_xxAA.a(replay_cache.c.obj)
 .bss           0x00000000        0x0 mesh/core/libmesh_core_nrf52832_xxAA.a(replay_cache.c.obj)
 .text.replay_cache_on_iv_update
                0x00000000       0x24 mesh/core/libmesh_core_nrf52832_xxAA.a(replay_cache.c.obj)
 .text          0x00000000        0x0 mesh/core/libmesh_core_nrf52832_xxAA.a(nrf_flash.c.obj)
 .data          0x00000000        0x0 mesh/core/libmesh_core_nrf52832_xxAA.a(nrf_flash.c.obj)
 .bss           0x00000000        0x0 mesh/core/libmesh_core_nrf52832_xxAA.a(nrf_flash.c.obj)
 .text          0x00000000        0x0 external/rtt/librtt_nrf52832_xxAA.a(SEGGER_RTT.c.obj)
 .data          0x00000000        0x0 external/rtt/librtt_nrf52832_xxAA.a(SEGGER_RTT.c.obj)
 .bss           0x00000000        0x0 external/rtt/librtt_nrf52832_xxAA.a(SEGGER_RTT.c.obj)
 .text._PostTerminalSwitch.constprop.0
                0x00000000       0x28 external/rtt/librtt_nrf52832_xxAA.a(SEGGER_RTT.c.obj)
 .text.SEGGER_RTT_ReadNoLock
                0x00000000       0x88 external/rtt/librtt_nrf52832_xxAA.a(SEGGER_RTT.c.obj)
 .text.SEGGER_RTT_Read
                0x00000000       0x1c external/rtt/librtt_nrf52832_xxAA.a(SEGGER_RTT.c.obj)
 .text.SEGGER_RTT_WriteSkipNoLock
                0x00000000       0xb4 external/rtt/librtt_nrf52832_xxAA.a(SEGGER_RTT.c.obj)
 .text.SEGGER_RTT_WriteString
                0x00000000       0x1a external/rtt/librtt_nrf52832_xxAA.a(SEGGER_RTT.c.obj)
 .text.SEGGER_RTT_GetKey
                0x00000000       0x20 external/rtt/librtt_nrf52832_xxAA.a(SEGGER_RTT.c.obj)
 .text.SEGGER_RTT_WaitKey
                0x00000000        0xc external/rtt/librtt_nrf52832_xxAA.a(SEGGER_RTT.c.obj)
 .text.SEGGER_RTT_HasKey
                0x00000000       0x1c external/rtt/librtt_nrf52832_xxAA.a(SEGGER_RTT.c.obj)
 .text.SEGGER_RTT_HasData
                0x00000000       0x14 external/rtt/librtt_nrf52832_xxAA.a(SEGGER_RTT.c.obj)
 .text.SEGGER_RTT_AllocDownBuffer
                0x00000000       0x68 external/rtt/librtt_nrf52832_xxAA.a(SEGGER_RTT.c.obj)
 .text.SEGGER_RTT_AllocUpBuffer
                0x00000000       0x70 external/rtt/librtt_nrf52832_xxAA.a(SEGGER_RTT.c.obj)
 .text.SEGGER_RTT_ConfigUpBuffer
                0x00000000       0x68 external/rtt/librtt_nrf52832_xxAA.a(SEGGER_RTT.c.obj)
 .text.SEGGER_RTT_ConfigDownBuffer
                0x00000000       0x60 external/rtt/librtt_nrf52832_xxAA.a(SEGGER_RTT.c.obj)
 .text.SEGGER_RTT_SetNameUpBuffer
                0x00000000       0x3c external/rtt/librtt_nrf52832_xxAA.a(SEGGER_RTT.c.obj)
 .text.SEGGER_RTT_SetNameDownBuffer
                0x00000000       0x3c external/rtt/librtt_nrf52832_xxAA.a(SEGGER_RTT.c.obj)
 .text.SEGGER_RTT_Init
                0x00000000       0x10 external/rtt/librtt_nrf52832_xxAA.a(SEGGER_RTT.c.obj)
 .text.SEGGER_RTT_SetTerminal
                0x00000000       0x84 external/rtt/librtt_nrf52832_xxAA.a(SEGGER_RTT.c.obj)
 .text.SEGGER_RTT_TerminalOut
                0x00000000       0xa0 external/rtt/librtt_nrf52832_xxAA.a(SEGGER_RTT.c.obj)
 .bss._ActiveTerminal
                0x00000000        0x1 external/rtt/librtt_nrf52832_xxAA.a(SEGGER_RTT.c.obj)
 .rodata._aTerminalId
                0x00000000       0x10 external/rtt/librtt_nrf52832_xxAA.a(SEGGER_RTT.c.obj)
 .text          0x00000000        0x0 external/rtt/librtt_nrf52832_xxAA.a(SEGGER_RTT_printf.c.obj)
 .data          0x00000000        0x0 external/rtt/librtt_nrf52832_xxAA.a(SEGGER_RTT_printf.c.obj)
 .bss           0x00000000        0x0 external/rtt/librtt_nrf52832_xxAA.a(SEGGER_RTT_printf.c.obj)
 .text          0x00000000        0x0 external/micro-ecc/libuECC_nrf52832_xxAA.a(uECC.c.obj)
 .data          0x00000000        0x0 external/micro-ecc/libuECC_nrf52832_xxAA.a(uECC.c.obj)
 .bss           0x00000000        0x0 external/micro-ecc/libuECC_nrf52832_xxAA.a(uECC.c.obj)
 .text.uECC_vli_modMult
                0x00000000      0x148 external/micro-ecc/libuECC_nrf52832_xxAA.a(uECC.c.obj)
 .text.HMAC_init
                0x00000000       0x46 external/micro-ecc/libuECC_nrf52832_xxAA.a(uECC.c.obj)
 .text.HMAC_update
                0x00000000        0x4 external/micro-ecc/libuECC_nrf52832_xxAA.a(uECC.c.obj)
 .text.HMAC_finish
                0x00000000       0x62 external/micro-ecc/libuECC_nrf52832_xxAA.a(uECC.c.obj)
 .text.update_V
                0x00000000       0x24 external/micro-ecc/libuECC_nrf52832_xxAA.a(uECC.c.obj)
 .text.bits2int
                0x00000000       0x88 external/micro-ecc/libuECC_nrf52832_xxAA.a(uECC.c.obj)
 .text.uECC_sign_with_k
                0x00000000      0x17c external/micro-ecc/libuECC_nrf52832_xxAA.a(uECC.c.obj)
 .text.uECC_set_rng
                0x00000000        0xc external/micro-ecc/libuECC_nrf52832_xxAA.a(uECC.c.obj)
 .text.uECC_get_rng
                0x00000000        0xc external/micro-ecc/libuECC_nrf52832_xxAA.a(uECC.c.obj)
 .text.uECC_curve_private_key_size
                0x00000000        0xe external/micro-ecc/libuECC_nrf52832_xxAA.a(uECC.c.obj)
 .text.uECC_curve_public_key_size
                0x00000000        0x8 external/micro-ecc/libuECC_nrf52832_xxAA.a(uECC.c.obj)
 .text.uECC_compute_public_key
                0x00000000       0x7e external/micro-ecc/libuECC_nrf52832_xxAA.a(uECC.c.obj)
 .text.uECC_sign
                0x00000000       0x56 external/micro-ecc/libuECC_nrf52832_xxAA.a(uECC.c.obj)
 .text.uECC_sign_deterministic
                0x00000000      0x192 external/micro-ecc/libuECC_nrf52832_xxAA.a(uECC.c.obj)
 .text.uECC_verify
                0x00000000      0x2f0 external/micro-ecc/libuECC_nrf52832_xxAA.a(uECC.c.obj)
 .text          0x00000000        0x0 c:/a/gcc_arm/6/bin/../lib/gcc/arm-none-eabi/6.3.1/../../../../arm-none-eabi/lib/thumb/v7e-m/fpv4-sp/hard\libg_nano.a(lib_a-exit.o)
 .data          0x00000000        0x0 c:/a/gcc_arm/6/bin/../lib/gcc/arm-none-eabi/6.3.1/../../../../arm-none-eabi/lib/thumb/v7e-m/fpv4-sp/hard\libg_nano.a(lib_a-exit.o)
 .bss           0x00000000        0x0 c:/a/gcc_arm/6/bin/../lib/gcc/arm-none-eabi/6.3.1/../../../../arm-none-eabi/lib/thumb/v7e-m/fpv4-sp/hard\libg_nano.a(lib_a-exit.o)
 .text          0x00000000        0x0 c:/a/gcc_arm/6/bin/../lib/gcc/arm-none-eabi/6.3.1/../../../../arm-none-eabi/lib/thumb/v7e-m/fpv4-sp/hard\libg_nano.a(lib_a-impure.o)
 .data          0x00000000        0x0 c:/a/gcc_arm/6/bin/../lib/gcc/arm-none-eabi/6.3.1/../../../../arm-none-eabi/lib/thumb/v7e-m/fpv4-sp/hard\libg_nano.a(lib_a-impure.o)
 .bss           0x00000000        0x0 c:/a/gcc_arm/6/bin/../lib/gcc/arm-none-eabi/6.3.1/../../../../arm-none-eabi/lib/thumb/v7e-m/fpv4-sp/hard\libg_nano.a(lib_a-impure.o)
 .text          0x00000000        0x0 c:/a/gcc_arm/6/bin/../lib/gcc/arm-none-eabi/6.3.1/../../../../arm-none-eabi/lib/thumb/v7e-m/fpv4-sp/hard\libg_nano.a(lib_a-init.o)
 .data          0x00000000        0x0 c:/a/gcc_arm/6/bin/../lib/gcc/arm-none-eabi/6.3.1/../../../../arm-none-eabi/lib/thumb/v7e-m/fpv4-sp/hard\libg_nano.a(lib_a-init.o)
 .bss           0x00000000        0x0 c:/a/gcc_arm/6/bin/../lib/gcc/arm-none-eabi/6.3.1/../../../../arm-none-eabi/lib/thumb/v7e-m/fpv4-sp/hard\libg_nano.a(lib_a-init.o)
 .text          0x00000000        0x0 c:/a/gcc_arm/6/bin/../lib/gcc/arm-none-eabi/6.3.1/../../../../arm-none-eabi/lib/thumb/v7e-m/fpv4-sp/hard\libg_nano.a(lib_a-malloc.o)
 .data          0x00000000        0x0 c:/a/gcc_arm/6/bin/../lib/gcc/arm-none-eabi/6.3.1/../../../../arm-none-eabi/lib/thumb/v7e-m/fpv4-sp/hard\libg_nano.a(lib_a-malloc.o)
 .bss           0x00000000        0x0 c:/a/gcc_arm/6/bin/../lib/gcc/arm-none-eabi/6.3.1/../../../../arm-none-eabi/lib/thumb/v7e-m/fpv4-sp/hard\libg_nano.a(lib_a-malloc.o)
 .text          0x00000000        0x0 c:/a/gcc_arm/6/bin/../lib/gcc/arm-none-eabi/6.3.1/../../../../arm-none-eabi/lib/thumb/v7e-m/fpv4-sp/hard\libg_nano.a(lib_a-memcmp.o)
 .data          0x00000000        0x0 c:/a/gcc_arm/6/bin/../lib/gcc/arm-none-eabi/6.3.1/../../../../arm-none-eabi/lib/thumb/v7e-m/fpv4-sp/hard\libg_nano.a(lib_a-memcmp.o)
 .bss           0x00000000        0x0 c:/a/gcc_arm/6/bin/../lib/gcc/arm-none-eabi/6.3.1/../../../../arm-none-eabi/lib/thumb/v7e-m/fpv4-sp/hard\libg_nano.a(lib_a-memcmp.o)
 .text          0x00000000        0x0 c:/a/gcc_arm/6/bin/../lib/gcc/arm-none-eabi/6.3.1/../../../../arm-none-eabi/lib/thumb/v7e-m/fpv4-sp/hard\libg_nano.a(lib_a-memcpy-stub.o)
 .data          0x00000000        0x0 c:/a/gcc_arm/6/bin/../lib/gcc/arm-none-eabi/6.3.1/../../../../arm-none-eabi/lib/thumb/v7e-m/fpv4-sp/hard\libg_nano.a(lib_a-memcpy-stub.o)
 .bss           0x00000000        0x0 c:/a/gcc_arm/6/bin/../lib/gcc/arm-none-eabi/6.3.1/../../../../arm-none-eabi/lib/thumb/v7e-m/fpv4-sp/hard\libg_nano.a(lib_a-memcpy-stub.o)
 .text          0x00000000        0x0 c:/a/gcc_arm/6/bin/../lib/gcc/arm-none-eabi/6.3.1/../../../../arm-none-eabi/lib/thumb/v7e-m/fpv4-sp/hard\libg_nano.a(lib_a-memset.o)
 .data          0x00000000        0x0 c:/a/gcc_arm/6/bin/../lib/gcc/arm-none-eabi/6.3.1/../../../../arm-none-eabi/lib/thumb/v7e-m/fpv4-sp/hard\libg_nano.a(lib_a-memset.o)
 .bss           0x00000000        0x0 c:/a/gcc_arm/6/bin/../lib/gcc/arm-none-eabi/6.3.1/../../../../arm-none-eabi/lib/thumb/v7e-m/fpv4-sp/hard\libg_nano.a(lib_a-memset.o)
 .text          0x00000000        0x0 c:/a/gcc_arm/6/bin/../lib/gcc/arm-none-eabi/6.3.1/../../../../arm-none-eabi/lib/thumb/v7e-m/fpv4-sp/hard\libg_nano.a(lib_a-nano-freer.o)
 .data          0x00000000        0x0 c:/a/gcc_arm/6/bin/../lib/gcc/arm-none-eabi/6.3.1/../../../../arm-none-eabi/lib/thumb/v7e-m/fpv4-sp/hard\libg_nano.a(lib_a-nano-freer.o)
 .bss           0x00000000        0x0 c:/a/gcc_arm/6/bin/../lib/gcc/arm-none-eabi/6.3.1/../../../../arm-none-eabi/lib/thumb/v7e-m/fpv4-sp/hard\libg_nano.a(lib_a-nano-freer.o)
 .text          0x00000000        0x0 c:/a/gcc_arm/6/bin/../lib/gcc/arm-none-eabi/6.3.1/../../../../arm-none-eabi/lib/thumb/v7e-m/fpv4-sp/hard\libg_nano.a(lib_a-nano-mallocr.o)
 .data          0x00000000        0x0 c:/a/gcc_arm/6/bin/../lib/gcc/arm-none-eabi/6.3.1/../../../../arm-none-eabi/lib/thumb/v7e-m/fpv4-sp/hard\libg_nano.a(lib_a-nano-mallocr.o)
 .bss           0x00000000        0x0 c:/a/gcc_arm/6/bin/../lib/gcc/arm-none-eabi/6.3.1/../../../../arm-none-eabi/lib/thumb/v7e-m/fpv4-sp/hard\libg_nano.a(lib_a-nano-mallocr.o)
 .text          0x00000000        0x0 c:/a/gcc_arm/6/bin/../lib/gcc/arm-none-eabi/6.3.1/../../../../arm-none-eabi/lib/thumb/v7e-m/fpv4-sp/hard\libg_nano.a(lib_a-sbrkr.o)
 .data          0x00000000        0x0 c:/a/gcc_arm/6/bin/../lib/gcc/arm-none-eabi/6.3.1/../../../../arm-none-eabi/lib/thumb/v7e-m/fpv4-sp/hard\libg_nano.a(lib_a-sbrkr.o)
 .bss           0x00000000        0x0 c:/a/gcc_arm/6/bin/../lib/gcc/arm-none-eabi/6.3.1/../../../../arm-none-eabi/lib/thumb/v7e-m/fpv4-sp/hard\libg_nano.a(lib_a-sbrkr.o)
 .text          0x00000000        0x0 c:/a/gcc_arm/6/bin/../lib/gcc/arm-none-eabi/6.3.1/../../../../arm-none-eabi/lib/thumb/v7e-m/fpv4-sp/hard\libg_nano.a(lib_a-strcpy.o)
 .data          0x00000000        0x0 c:/a/gcc_arm/6/bin/../lib/gcc/arm-none-eabi/6.3.1/../../../../arm-none-eabi/lib/thumb/v7e-m/fpv4-sp/hard\libg_nano.a(lib_a-strcpy.o)
 .bss           0x00000000        0x0 c:/a/gcc_arm/6/bin/../lib/gcc/arm-none-eabi/6.3.1/../../../../arm-none-eabi/lib/thumb/v7e-m/fpv4-sp/hard\libg_nano.a(lib_a-strcpy.o)
 .data          0x00000000        0x0 c:/a/gcc_arm/6/bin/../lib/gcc/arm-none-eabi/6.3.1/../../../../arm-none-eabi/lib/thumb/v7e-m/fpv4-sp/hard\libg_nano.a(lib_a-strlen.o)
 .bss           0x00000000        0x0 c:/a/gcc_arm/6/bin/../lib/gcc/arm-none-eabi/6.3.1/../../../../arm-none-eabi/lib/thumb/v7e-m/fpv4-sp/hard\libg_nano.a(lib_a-strlen.o)
 .text          0x00000000        0x0 c:/a/gcc_arm/6/bin/../lib/gcc/arm-none-eabi/6.3.1/../../../../arm-none-eabi/lib/thumb/v7e-m/fpv4-sp/hard\libg_nano.a(lib_a-strrchr.o)
 .data          0x00000000        0x0 c:/a/gcc_arm/6/bin/../lib/gcc/arm-none-eabi/6.3.1/../../../../arm-none-eabi/lib/thumb/v7e-m/fpv4-sp/hard\libg_nano.a(lib_a-strrchr.o)
 .bss           0x00000000        0x0 c:/a/gcc_arm/6/bin/../lib/gcc/arm-none-eabi/6.3.1/../../../../arm-none-eabi/lib/thumb/v7e-m/fpv4-sp/hard\libg_nano.a(lib_a-strrchr.o)
 .text          0x00000000        0x0 c:/a/gcc_arm/6/bin/../lib/gcc/arm-none-eabi/6.3.1/../../../../arm-none-eabi/lib/thumb/v7e-m/fpv4-sp/hard\libg_nano.a(lib_a-mlock.o)
 .data          0x00000000        0x0 c:/a/gcc_arm/6/bin/../lib/gcc/arm-none-eabi/6.3.1/../../../../arm-none-eabi/lib/thumb/v7e-m/fpv4-sp/hard\libg_nano.a(lib_a-mlock.o)
 .bss           0x00000000        0x0 c:/a/gcc_arm/6/bin/../lib/gcc/arm-none-eabi/6.3.1/../../../../arm-none-eabi/lib/thumb/v7e-m/fpv4-sp/hard\libg_nano.a(lib_a-mlock.o)
 .text          0x00000000        0x0 c:/a/gcc_arm/6/bin/../lib/gcc/arm-none-eabi/6.3.1/../../../../arm-none-eabi/lib/thumb/v7e-m/fpv4-sp/hard\libg_nano.a(lib_a-reent.o)
 .data          0x00000000        0x0 c:/a/gcc_arm/6/bin/../lib/gcc/arm-none-eabi/6.3.1/../../../../arm-none-eabi/lib/thumb/v7e-m/fpv4-sp/hard\libg_nano.a(lib_a-reent.o)
 .bss           0x00000000        0x0 c:/a/gcc_arm/6/bin/../lib/gcc/arm-none-eabi/6.3.1/../../../../arm-none-eabi/lib/thumb/v7e-m/fpv4-sp/hard\libg_nano.a(lib_a-reent.o)
 .text.cleanup_glue
                0x00000000       0x1a c:/a/gcc_arm/6/bin/../lib/gcc/arm-none-eabi/6.3.1/../../../../arm-none-eabi/lib/thumb/v7e-m/fpv4-sp/hard\libg_nano.a(lib_a-reent.o)
 .text._reclaim_reent
                0x00000000       0xb8 c:/a/gcc_arm/6/bin/../lib/gcc/arm-none-eabi/6.3.1/../../../../arm-none-eabi/lib/thumb/v7e-m/fpv4-sp/hard\libg_nano.a(lib_a-reent.o)
 .text          0x00000000        0x0 c:/a/gcc_arm/6/bin/../lib/gcc/arm-none-eabi/6.3.1/../../../../arm-none-eabi/lib/thumb/v7e-m/fpv4-sp/hard\libg_nano.a(lib_a-strchr.o)
 .data          0x00000000        0x0 c:/a/gcc_arm/6/bin/../lib/gcc/arm-none-eabi/6.3.1/../../../../arm-none-eabi/lib/thumb/v7e-m/fpv4-sp/hard\libg_nano.a(lib_a-strchr.o)
 .bss           0x00000000        0x0 c:/a/gcc_arm/6/bin/../lib/gcc/arm-none-eabi/6.3.1/../../../../arm-none-eabi/lib/thumb/v7e-m/fpv4-sp/hard\libg_nano.a(lib_a-strchr.o)
 .text          0x00000000        0x0 c:/a/gcc_arm/6/bin/../lib/gcc/arm-none-eabi/6.3.1/thumb/v7e-m/fpv4-sp/hard/crtend.o
 .data          0x00000000        0x0 c:/a/gcc_arm/6/bin/../lib/gcc/arm-none-eabi/6.3.1/thumb/v7e-m/fpv4-sp/hard/crtend.o
 .bss           0x00000000        0x0 c:/a/gcc_arm/6/bin/../lib/gcc/arm-none-eabi/6.3.1/thumb/v7e-m/fpv4-sp/hard/crtend.o
 .text          0x00000000        0x0 c:/a/gcc_arm/6/bin/../lib/gcc/arm-none-eabi/6.3.1/thumb/v7e-m/fpv4-sp/hard/crtn.o
 .data          0x00000000        0x0 c:/a/gcc_arm/6/bin/../lib/gcc/arm-none-eabi/6.3.1/thumb/v7e-m/fpv4-sp/hard/crtn.o
 .bss           0x00000000        0x0 c:/a/gcc_arm/6/bin/../lib/gcc/arm-none-eabi/6.3.1/thumb/v7e-m/fpv4-sp/hard/crtn.o
 .text          0x00000000        0x0 c:/a/gcc_arm/6/bin/../lib/gcc/arm-none-eabi/6.3.1/../../../../arm-none-eabi/lib/thumb/v7e-m/fpv4-sp/hard\libnosys.a(sbrk.o)
 .data          0x00000000        0x0 c:/a/gcc_arm/6/bin/../lib/gcc/arm-none-eabi/6.3.1/../../../../arm-none-eabi/lib/thumb/v7e-m/fpv4-sp/hard\libnosys.a(sbrk.o)
 .bss           0x00000000        0x0 c:/a/gcc_arm/6/bin/../lib/gcc/arm-none-eabi/6.3.1/../../../../arm-none-eabi/lib/thumb/v7e-m/fpv4-sp/hard\libnosys.a(sbrk.o)
 .text          0x00000000        0x0 c:/a/gcc_arm/6/bin/../lib/gcc/arm-none-eabi/6.3.1/../../../../arm-none-eabi/lib/thumb/v7e-m/fpv4-sp/hard\libnosys.a(_exit.o)
 .data          0x00000000        0x0 c:/a/gcc_arm/6/bin/../lib/gcc/arm-none-eabi/6.3.1/../../../../arm-none-eabi/lib/thumb/v7e-m/fpv4-sp/hard\libnosys.a(_exit.o)
 .bss           0x00000000        0x0 c:/a/gcc_arm/6/bin/../lib/gcc/arm-none-eabi/6.3.1/../../../../arm-none-eabi/lib/thumb/v7e-m/fpv4-sp/hard\libnosys.a(_exit.o)

Memory Configuration

Name             Origin             Length             Attributes
FLASH            0x0001f000         0x00059000         xr
RAM              0x200019c0         0x0000e340         xrw
*default*        0x00000000         0xffffffff

Linker script and memory map


.text           0x0001f000    0x14ce0
 *(.isr_vector)
 .isr_vector    0x0001f000      0x200 examples/pb_remote/server/CMakeFiles/pb_remote_server_nrf52832_xxAA_s132_3.1.0.dir/__/__/__/external/nRF5_SDK_14.2.0_17b948a/components/toolchain/gcc/gcc_startup_nrf52.S.obj
                0x0001f000                __isr_vector
 *(.text*)
 .text          0x0001f200       0x6c c:/a/gcc_arm/6/bin/../lib/gcc/arm-none-eabi/6.3.1/thumb/v7e-m/fpv4-sp/hard/crtbegin.o
 .text          0x0001f26c       0x74 c:/a/gcc_arm/6/bin/../lib/gcc/arm-none-eabi/6.3.1/../../../../arm-none-eabi/lib/thumb/v7e-m/fpv4-sp/hard/crt0.o
                0x0001f26c                _start
                0x0001f26c                _mainCRTStartup
 .text.sd_app_evt_wait
                0x0001f2e0        0x4 examples/pb_remote/server/CMakeFiles/pb_remote_server_nrf52832_xxAA_s132_3.1.0.dir/src/main.c.obj
 .text.configuration_setup
                0x0001f2e4       0x84 examples/pb_remote/server/CMakeFiles/pb_remote_server_nrf52832_xxAA_s132_3.1.0.dir/src/main.c.obj
 .text.provisioning_complete
                0x0001f368      0x15c examples/pb_remote/server/CMakeFiles/pb_remote_server_nrf52832_xxAA_s132_3.1.0.dir/src/main.c.obj
 .text.startup.main
                0x0001f4c4       0xb0 examples/pb_remote/server/CMakeFiles/pb_remote_server_nrf52832_xxAA_s132_3.1.0.dir/src/main.c.obj
                0x0001f4c4                main
 .text.sd_evt_get
                0x0001f574        0x4 examples/pb_remote/server/CMakeFiles/pb_remote_server_nrf52832_xxAA_s132_3.1.0.dir/__/__/nrf_mesh_sdk.c.obj
 .text.sd_ble_evt_get
                0x0001f578        0x4 examples/pb_remote/server/CMakeFiles/pb_remote_server_nrf52832_xxAA_s132_3.1.0.dir/__/__/nrf_mesh_sdk.c.obj
 .text.sleep_forever
                0x0001f57c       0x1c examples/pb_remote/server/CMakeFiles/pb_remote_server_nrf52832_xxAA_s132_3.1.0.dir/__/__/nrf_mesh_sdk.c.obj
 .text.app_error_handler
                0x0001f598       0x78 examples/pb_remote/server/CMakeFiles/pb_remote_server_nrf52832_xxAA_s132_3.1.0.dir/__/__/nrf_mesh_sdk.c.obj
                0x0001f598                app_error_handler
 .text.HardFault_Handler
                0x0001f610       0x6c examples/pb_remote/server/CMakeFiles/pb_remote_server_nrf52832_xxAA_s132_3.1.0.dir/__/__/nrf_mesh_sdk.c.obj
                0x0001f610                HardFault_Handler
 .text.SWI2_EGU2_IRQHandler
                0x0001f67c       0x3c examples/pb_remote/server/CMakeFiles/pb_remote_server_nrf52832_xxAA_s132_3.1.0.dir/__/__/nrf_mesh_sdk.c.obj
                0x0001f67c                SWI2_EGU2_IRQHandler
 .text.hal_led_mask_set
                0x0001f6b8       0x12 examples/pb_remote/server/CMakeFiles/pb_remote_server_nrf52832_xxAA_s132_3.1.0.dir/__/__/common/src/simple_hal.c.obj
                0x0001f6b8                hal_led_mask_set
 *fill*         0x0001f6ca        0x2 
 .text.hal_led_blink_ms
                0x0001f6cc       0xb4 examples/pb_remote/server/CMakeFiles/pb_remote_server_nrf52832_xxAA_s132_3.1.0.dir/__/__/common/src/simple_hal.c.obj
                0x0001f6cc                hal_led_blink_ms
 .text.hal_leds_init
                0x0001f780       0x38 examples/pb_remote/server/CMakeFiles/pb_remote_server_nrf52832_xxAA_s132_3.1.0.dir/__/__/common/src/simple_hal.c.obj
                0x0001f780                hal_leds_init
 .text.GPIOTE_IRQHandler
                0x0001f7b8       0x60 examples/pb_remote/server/CMakeFiles/pb_remote_server_nrf52832_xxAA_s132_3.1.0.dir/__/__/common/src/simple_hal.c.obj
                0x0001f7b8                GPIOTE_IRQHandler
 .text._weak_handler
                0x0001f818        0x4 examples/pb_remote/server/CMakeFiles/pb_remote_server_nrf52832_xxAA_s132_3.1.0.dir/__/__/nrf_mesh_weak.c.obj
                0x0001f818                nrf_mesh_dfu_init
                0x0001f818                nrf_mesh_dfu_jump_to_bootloader
                0x0001f818                nrf_mesh_dfu_rx
                0x0001f818                prov_provisioner_provision
                0x0001f818                nrf_mesh_dfu_bank_info_get
                0x0001f818                prov_provisioner_oob_pubkey
                0x0001f818                nrf_mesh_dfu_request
                0x0001f818                nrf_mesh_dfu_bank_flash
                0x0001f818                _weak_handler
                0x0001f818                nrf_mesh_dfu_relay
                0x0001f818                nrf_mesh_dfu_abort
                0x0001f818                mesh_flash_op_execute
                0x0001f818                nrf_mesh_dfu_state_get
                0x0001f818                prov_provisioner_shared_secret
                0x0001f818                prov_provisioner_auth_data
                0x0001f818                prov_provisioner_oob_use
 .text.complete_provisioning
                0x0001f81c       0x52 examples/pb_remote/server/CMakeFiles/pb_remote_server_nrf52832_xxAA_s132_3.1.0.dir/__/__/__/mesh/prov/src/prov_provisionee.c.obj
 .text.prov_provisionee_cb_link_established
                0x0001f86e       0x20 examples/pb_remote/server/CMakeFiles/pb_remote_server_nrf52832_xxAA_s132_3.1.0.dir/__/__/__/mesh/prov/src/prov_provisionee.c.obj
 .text.prov_provisionee_cb_link_closed
                0x0001f88e       0x34 examples/pb_remote/server/CMakeFiles/pb_remote_server_nrf52832_xxAA_s132_3.1.0.dir/__/__/__/mesh/prov/src/prov_provisionee.c.obj
 .text.request_authentication
                0x0001f8c2       0x8a examples/pb_remote/server/CMakeFiles/pb_remote_server_nrf52832_xxAA_s132_3.1.0.dir/__/__/__/mesh/prov/src/prov_provisionee.c.obj
 .text.send_failed
                0x0001f94c       0x3a examples/pb_remote/server/CMakeFiles/pb_remote_server_nrf52832_xxAA_s132_3.1.0.dir/__/__/__/mesh/prov/src/prov_provisionee.c.obj
 .text.start_authentication
                0x0001f986       0x52 examples/pb_remote/server/CMakeFiles/pb_remote_server_nrf52832_xxAA_s132_3.1.0.dir/__/__/__/mesh/prov/src/prov_provisionee.c.obj
 .text.prov_provisionee_cb_ack_received
                0x0001f9d8       0xb8 examples/pb_remote/server/CMakeFiles/pb_remote_server_nrf52832_xxAA_s132_3.1.0.dir/__/__/__/mesh/prov/src/prov_provisionee.c.obj
 .text.prov_provisionee_pkt_in
                0x0001fa90      0x2b8 examples/pb_remote/server/CMakeFiles/pb_remote_server_nrf52832_xxAA_s132_3.1.0.dir/__/__/__/mesh/prov/src/prov_provisionee.c.obj
 .text.prov_provisionee_init
                0x0001fd48       0x38 examples/pb_remote/server/CMakeFiles/pb_remote_server_nrf52832_xxAA_s132_3.1.0.dir/__/__/__/mesh/prov/src/prov_provisionee.c.obj
                0x0001fd48                prov_provisionee_init
 .text.prov_provisionee_auth_data
                0x0001fd80       0x7a examples/pb_remote/server/CMakeFiles/pb_remote_server_nrf52832_xxAA_s132_3.1.0.dir/__/__/__/mesh/prov/src/prov_provisionee.c.obj
                0x0001fd80                prov_provisionee_auth_data
 .text.bearer_compare_callback
                0x0001fdfa        0xc examples/pb_remote/server/CMakeFiles/pb_remote_server_nrf52832_xxAA_s132_3.1.0.dir/__/__/__/mesh/prov/src/nrf_mesh_prov.c.obj
 .text.nrf_mesh_prov_init
                0x0001fe06       0x32 examples/pb_remote/server/CMakeFiles/pb_remote_server_nrf52832_xxAA_s132_3.1.0.dir/__/__/__/mesh/prov/src/nrf_mesh_prov.c.obj
                0x0001fe06                nrf_mesh_prov_init
 .text.nrf_mesh_prov_bearer_add
                0x0001fe38       0x20 examples/pb_remote/server/CMakeFiles/pb_remote_server_nrf52832_xxAA_s132_3.1.0.dir/__/__/__/mesh/prov/src/nrf_mesh_prov.c.obj
                0x0001fe38                nrf_mesh_prov_bearer_add
 .text.nrf_mesh_prov_generate_keys
                0x0001fe58        0x4 examples/pb_remote/server/CMakeFiles/pb_remote_server_nrf52832_xxAA_s132_3.1.0.dir/__/__/__/mesh/prov/src/nrf_mesh_prov.c.obj
                0x0001fe58                nrf_mesh_prov_generate_keys
 .text.nrf_mesh_prov_listen
                0x0001fe5c       0x30 examples/pb_remote/server/CMakeFiles/pb_remote_server_nrf52832_xxAA_s132_3.1.0.dir/__/__/__/mesh/prov/src/nrf_mesh_prov.c.obj
                0x0001fe5c                nrf_mesh_prov_listen
 .text.nrf_mesh_prov_auth_data_provide
                0x0001fe8c        0xe examples/pb_remote/server/CMakeFiles/pb_remote_server_nrf52832_xxAA_s132_3.1.0.dir/__/__/__/mesh/prov/src/nrf_mesh_prov.c.obj
                0x0001fe8c                nrf_mesh_prov_auth_data_provide
 .text.nrf_mesh_prov_scan_start
                0x0001fe9a       0x10 examples/pb_remote/server/CMakeFiles/pb_remote_server_nrf52832_xxAA_s132_3.1.0.dir/__/__/__/mesh/prov/src/nrf_mesh_prov.c.obj
                0x0001fe9a                nrf_mesh_prov_scan_start
 .text.nrf_mesh_prov_scan_stop
                0x0001feaa        0x4 examples/pb_remote/server/CMakeFiles/pb_remote_server_nrf52832_xxAA_s132_3.1.0.dir/__/__/__/mesh/prov/src/nrf_mesh_prov.c.obj
                0x0001feaa                nrf_mesh_prov_scan_stop
 *fill*         0x0001feae        0x2 
 .text.send_data
                0x0001feb0       0x3c examples/pb_remote/server/CMakeFiles/pb_remote_server_nrf52832_xxAA_s132_3.1.0.dir/__/__/__/mesh/prov/src/provisioning.c.obj
 .text.prov_packet_length_valid
                0x0001feec       0x1c examples/pb_remote/server/CMakeFiles/pb_remote_server_nrf52832_xxAA_s132_3.1.0.dir/__/__/__/mesh/prov/src/provisioning.c.obj
                0x0001feec                prov_packet_length_valid
 .text.prov_tx_capabilities
                0x0001ff08       0x1e examples/pb_remote/server/CMakeFiles/pb_remote_server_nrf52832_xxAA_s132_3.1.0.dir/__/__/__/mesh/prov/src/provisioning.c.obj
                0x0001ff08                prov_tx_capabilities
 .text.prov_tx_public_key
                0x0001ff26       0x26 examples/pb_remote/server/CMakeFiles/pb_remote_server_nrf52832_xxAA_s132_3.1.0.dir/__/__/__/mesh/prov/src/provisioning.c.obj
                0x0001ff26                prov_tx_public_key
 .text.prov_tx_input_complete
                0x0001ff4c       0x16 examples/pb_remote/server/CMakeFiles/pb_remote_server_nrf52832_xxAA_s132_3.1.0.dir/__/__/__/mesh/prov/src/provisioning.c.obj
                0x0001ff4c                prov_tx_input_complete
 .text.prov_tx_confirmation
                0x0001ff62       0x26 examples/pb_remote/server/CMakeFiles/pb_remote_server_nrf52832_xxAA_s132_3.1.0.dir/__/__/__/mesh/prov/src/provisioning.c.obj
                0x0001ff62                prov_tx_confirmation
 .text.prov_tx_random
                0x0001ff88       0x26 examples/pb_remote/server/CMakeFiles/pb_remote_server_nrf52832_xxAA_s132_3.1.0.dir/__/__/__/mesh/prov/src/provisioning.c.obj
                0x0001ff88                prov_tx_random
 .text.prov_tx_complete
                0x0001ffae       0x16 examples/pb_remote/server/CMakeFiles/pb_remote_server_nrf52832_xxAA_s132_3.1.0.dir/__/__/__/mesh/prov/src/provisioning.c.obj
                0x0001ffae                prov_tx_complete
 .text.prov_tx_failed
                0x0001ffc4       0x1a examples/pb_remote/server/CMakeFiles/pb_remote_server_nrf52832_xxAA_s132_3.1.0.dir/__/__/__/mesh/prov/src/provisioning.c.obj
                0x0001ffc4                prov_tx_failed
 .text.prov_beacon_unprov_build
                0x0001ffde       0x54 examples/pb_remote/server/CMakeFiles/pb_remote_server_nrf52832_xxAA_s132_3.1.0.dir/__/__/__/mesh/prov/src/prov_beacon.c.obj
                0x0001ffde                prov_beacon_unprov_build
 *fill*         0x00020032        0x2 
 .text.prov_beacon_unprov_packet_in
                0x00020034       0x9c examples/pb_remote/server/CMakeFiles/pb_remote_server_nrf52832_xxAA_s132_3.1.0.dir/__/__/__/mesh/prov/src/prov_beacon.c.obj
                0x00020034                prov_beacon_unprov_packet_in
 .text.prov_beacon_scan_start
                0x000200d0       0x24 examples/pb_remote/server/CMakeFiles/pb_remote_server_nrf52832_xxAA_s132_3.1.0.dir/__/__/__/mesh/prov/src/prov_beacon.c.obj
                0x000200d0                prov_beacon_scan_start
 .text.prov_beacon_scan_stop
                0x000200f4        0xc examples/pb_remote/server/CMakeFiles/pb_remote_server_nrf52832_xxAA_s132_3.1.0.dir/__/__/__/mesh/prov/src/prov_beacon.c.obj
                0x000200f4                prov_beacon_scan_stop
 .text.oob_gen_alphanumeric
                0x00020100       0x34 examples/pb_remote/server/CMakeFiles/pb_remote_server_nrf52832_xxAA_s132_3.1.0.dir/__/__/__/mesh/prov/src/prov_utils.c.obj
 .text.oob_gen_numeric
                0x00020134       0x3c examples/pb_remote/server/CMakeFiles/pb_remote_server_nrf52832_xxAA_s132_3.1.0.dir/__/__/__/mesh/prov/src/prov_utils.c.obj
 .text.prov_utils_opt_set
                0x00020170       0x20 examples/pb_remote/server/CMakeFiles/pb_remote_server_nrf52832_xxAA_s132_3.1.0.dir/__/__/__/mesh/prov/src/prov_utils.c.obj
                0x00020170                prov_utils_opt_set
 .text.prov_utils_opt_get
                0x00020190       0x1c examples/pb_remote/server/CMakeFiles/pb_remote_server_nrf52832_xxAA_s132_3.1.0.dir/__/__/__/mesh/prov/src/prov_utils.c.obj
                0x00020190                prov_utils_opt_get
 .text.prov_utils_use_ecdh_offloading
                0x000201ac        0xc examples/pb_remote/server/CMakeFiles/pb_remote_server_nrf52832_xxAA_s132_3.1.0.dir/__/__/__/mesh/prov/src/prov_utils.c.obj
                0x000201ac                prov_utils_use_ecdh_offloading
 .text.prov_utils_authentication_values_derive
                0x000201b8       0xa0 examples/pb_remote/server/CMakeFiles/pb_remote_server_nrf52832_xxAA_s132_3.1.0.dir/__/__/__/mesh/prov/src/prov_utils.c.obj
                0x000201b8                prov_utils_authentication_values_derive
 .text.prov_utils_keys_generate
                0x00020258       0x1e examples/pb_remote/server/CMakeFiles/pb_remote_server_nrf52832_xxAA_s132_3.1.0.dir/__/__/__/mesh/prov/src/prov_utils.c.obj
                0x00020258                prov_utils_keys_generate
 *fill*         0x00020276        0x2 
 .text.prov_utils_derive_keys
                0x00020278       0xac examples/pb_remote/server/CMakeFiles/pb_remote_server_nrf52832_xxAA_s132_3.1.0.dir/__/__/__/mesh/prov/src/prov_utils.c.obj
                0x00020278                prov_utils_derive_keys
 .text.prov_utils_calculate_shared_secret
                0x00020324       0x36 examples/pb_remote/server/CMakeFiles/pb_remote_server_nrf52832_xxAA_s132_3.1.0.dir/__/__/__/mesh/prov/src/prov_utils.c.obj
                0x00020324                prov_utils_calculate_shared_secret
 *fill*         0x0002035a        0x2 
 .text.prov_utils_generate_oob_data
                0x0002035c       0x98 examples/pb_remote/server/CMakeFiles/pb_remote_server_nrf52832_xxAA_s132_3.1.0.dir/__/__/__/mesh/prov/src/prov_utils.c.obj
                0x0002035c                prov_utils_generate_oob_data
 .text.prov_utils_confirmation_check
                0x000203f4       0x5c examples/pb_remote/server/CMakeFiles/pb_remote_server_nrf52832_xxAA_s132_3.1.0.dir/__/__/__/mesh/prov/src/prov_utils.c.obj
                0x000203f4                prov_utils_confirmation_check
 .text.link_timeout_cb
                0x00020450       0x10 examples/pb_remote/server/CMakeFiles/pb_remote_server_nrf52832_xxAA_s132_3.1.0.dir/__/__/__/mesh/prov/src/prov_bearer_adv.c.obj
 .text.remove_active_bearer
                0x00020460       0x60 examples/pb_remote/server/CMakeFiles/pb_remote_server_nrf52832_xxAA_s132_3.1.0.dir/__/__/__/mesh/prov/src/prov_bearer_adv.c.obj
 .text.close_link
                0x000204c0       0x6c examples/pb_remote/server/CMakeFiles/pb_remote_server_nrf52832_xxAA_s132_3.1.0.dir/__/__/__/mesh/prov/src/prov_bearer_adv.c.obj
 .text.prov_bearer_adv_listen_stop
                0x0002052c       0x3c examples/pb_remote/server/CMakeFiles/pb_remote_server_nrf52832_xxAA_s132_3.1.0.dir/__/__/__/mesh/prov/src/prov_bearer_adv.c.obj
 .text.send_packet
                0x00020568       0x6c examples/pb_remote/server/CMakeFiles/pb_remote_server_nrf52832_xxAA_s132_3.1.0.dir/__/__/__/mesh/prov/src/prov_bearer_adv.c.obj
 .text.prov_buffer_tx
                0x000205d4      0x158 examples/pb_remote/server/CMakeFiles/pb_remote_server_nrf52832_xxAA_s132_3.1.0.dir/__/__/__/mesh/prov/src/prov_bearer_adv.c.obj
 .text.send_link_close
                0x0002072c       0x38 examples/pb_remote/server/CMakeFiles/pb_remote_server_nrf52832_xxAA_s132_3.1.0.dir/__/__/__/mesh/prov/src/prov_bearer_adv.c.obj
 .text.prov_bearer_adv_link_close
                0x00020764       0x74 examples/pb_remote/server/CMakeFiles/pb_remote_server_nrf52832_xxAA_s132_3.1.0.dir/__/__/__/mesh/prov/src/prov_bearer_adv.c.obj
 .text.send_transaction_ack
                0x000207d8       0x24 examples/pb_remote/server/CMakeFiles/pb_remote_server_nrf52832_xxAA_s132_3.1.0.dir/__/__/__/mesh/prov/src/prov_bearer_adv.c.obj
 .text.send_link_ack
                0x000207fc       0x32 examples/pb_remote/server/CMakeFiles/pb_remote_server_nrf52832_xxAA_s132_3.1.0.dir/__/__/__/mesh/prov/src/prov_bearer_adv.c.obj
 .text.reset_timeout_timer
                0x0002082e       0x1a examples/pb_remote/server/CMakeFiles/pb_remote_server_nrf52832_xxAA_s132_3.1.0.dir/__/__/__/mesh/prov/src/prov_bearer_adv.c.obj
 .text.tx_complete_cb
                0x00020848       0x1c examples/pb_remote/server/CMakeFiles/pb_remote_server_nrf52832_xxAA_s132_3.1.0.dir/__/__/__/mesh/prov/src/prov_bearer_adv.c.obj
 .text.tx_retry_cb
                0x00020864       0xcc examples/pb_remote/server/CMakeFiles/pb_remote_server_nrf52832_xxAA_s132_3.1.0.dir/__/__/__/mesh/prov/src/prov_bearer_adv.c.obj
 .text.add_active_bearer
                0x00020930       0x80 examples/pb_remote/server/CMakeFiles/pb_remote_server_nrf52832_xxAA_s132_3.1.0.dir/__/__/__/mesh/prov/src/prov_bearer_adv.c.obj
 .text.prov_bearer_adv_link_open
                0x000209b0       0xf8 examples/pb_remote/server/CMakeFiles/pb_remote_server_nrf52832_xxAA_s132_3.1.0.dir/__/__/__/mesh/prov/src/prov_bearer_adv.c.obj
 .text.async_process
                0x00020aa8       0x50 examples/pb_remote/server/CMakeFiles/pb_remote_server_nrf52832_xxAA_s132_3.1.0.dir/__/__/__/mesh/prov/src/prov_bearer_adv.c.obj
 .text.prov_bearer_adv_listen
                0x00020af8       0xec examples/pb_remote/server/CMakeFiles/pb_remote_server_nrf52832_xxAA_s132_3.1.0.dir/__/__/__/mesh/prov/src/prov_bearer_adv.c.obj
 .text.calculate_3GPP_CRC
                0x00020be4       0x24 examples/pb_remote/server/CMakeFiles/pb_remote_server_nrf52832_xxAA_s132_3.1.0.dir/__/__/__/mesh/prov/src/prov_bearer_adv.c.obj
                0x00020be4                calculate_3GPP_CRC
 .text.prov_bearer_adv_tx
                0x00020c08       0xb4 examples/pb_remote/server/CMakeFiles/pb_remote_server_nrf52832_xxAA_s132_3.1.0.dir/__/__/__/mesh/prov/src/prov_bearer_adv.c.obj
 .text.prov_buffer_rx
                0x00020cbc       0x7c examples/pb_remote/server/CMakeFiles/pb_remote_server_nrf52832_xxAA_s132_3.1.0.dir/__/__/__/mesh/prov/src/prov_bearer_adv.c.obj
 .text.nrf_mesh_prov_bearer_adv_interface_get
                0x00020d38       0x48 examples/pb_remote/server/CMakeFiles/pb_remote_server_nrf52832_xxAA_s132_3.1.0.dir/__/__/__/mesh/prov/src/prov_bearer_adv.c.obj
                0x00020d38                nrf_mesh_prov_bearer_adv_interface_get
 .text.prov_bearer_adv_packet_in
                0x00020d80      0x80c examples/pb_remote/server/CMakeFiles/pb_remote_server_nrf52832_xxAA_s132_3.1.0.dir/__/__/__/mesh/prov/src/prov_bearer_adv.c.obj
                0x00020d80                prov_bearer_adv_packet_in
 .text.pb_remote_server_event_transfer_status_cb
                0x0002158c       0xf0 examples/pb_remote/server/CMakeFiles/pb_remote_server_nrf52832_xxAA_s132_3.1.0.dir/__/__/__/models/pb_remote/src/pb_remote_server.c.obj
 .text.pb_remote_server_event_link_status_cb
                0x0002167c      0x1cc examples/pb_remote/server/CMakeFiles/pb_remote_server_nrf52832_xxAA_s132_3.1.0.dir/__/__/__/models/pb_remote/src/pb_remote_server.c.obj
 .text.pb_remote_server_event_scan_report_status_cb
                0x00021848       0x80 examples/pb_remote/server/CMakeFiles/pb_remote_server_nrf52832_xxAA_s132_3.1.0.dir/__/__/__/models/pb_remote/src/pb_remote_server.c.obj
 .text.do_state_change
                0x000218c8       0x78 examples/pb_remote/server/CMakeFiles/pb_remote_server_nrf52832_xxAA_s132_3.1.0.dir/__/__/__/models/pb_remote/src/pb_remote_server.c.obj
 .text.pb_remote_server_process
                0x00021940      0x220 examples/pb_remote/server/CMakeFiles/pb_remote_server_nrf52832_xxAA_s132_3.1.0.dir/__/__/__/models/pb_remote/src/pb_remote_server.c.obj
 .text.server_reliable_status_cb
                0x00021b60      0x120 examples/pb_remote/server/CMakeFiles/pb_remote_server_nrf52832_xxAA_s132_3.1.0.dir/__/__/__/models/pb_remote/src/pb_remote_server.c.obj
 .text.pb_adv_link_closed_cb
                0x00021c80       0x48 examples/pb_remote/server/CMakeFiles/pb_remote_server_nrf52832_xxAA_s132_3.1.0.dir/__/__/__/models/pb_remote/src/pb_remote_server.c.obj
 .text.pb_adv_link_opened_cb
                0x00021cc8       0x40 examples/pb_remote/server/CMakeFiles/pb_remote_server_nrf52832_xxAA_s132_3.1.0.dir/__/__/__/models/pb_remote/src/pb_remote_server.c.obj
 .text.pb_adv_ack_cb
                0x00021d08       0x40 examples/pb_remote/server/CMakeFiles/pb_remote_server_nrf52832_xxAA_s132_3.1.0.dir/__/__/__/models/pb_remote/src/pb_remote_server.c.obj
 .text.pb_adv_rx_cb
                0x00021d48       0x54 examples/pb_remote/server/CMakeFiles/pb_remote_server_nrf52832_xxAA_s132_3.1.0.dir/__/__/__/models/pb_remote/src/pb_remote_server.c.obj
 .text.prov_evt_handler
                0x00021d9c       0x4c examples/pb_remote/server/CMakeFiles/pb_remote_server_nrf52832_xxAA_s132_3.1.0.dir/__/__/__/models/pb_remote/src/pb_remote_server.c.obj
 .text.pb_remote_server_event_tx_failed_cb
                0x00021de8       0x38 examples/pb_remote/server/CMakeFiles/pb_remote_server_nrf52832_xxAA_s132_3.1.0.dir/__/__/__/models/pb_remote/src/pb_remote_server.c.obj
 .text.send_reply.isra.8.part.9
                0x00021e20       0x14 examples/pb_remote/server/CMakeFiles/pb_remote_server_nrf52832_xxAA_s132_3.1.0.dir/__/__/__/models/pb_remote/src/pb_remote_server.c.obj
 .text.send_reliable_msg
                0x00021e34       0x2c examples/pb_remote/server/CMakeFiles/pb_remote_server_nrf52832_xxAA_s132_3.1.0.dir/__/__/__/models/pb_remote/src/pb_remote_server.c.obj
 .text.pb_remote_server_event_local_packet_cb
                0x00021e60      0x130 examples/pb_remote/server/CMakeFiles/pb_remote_server_nrf52832_xxAA_s132_3.1.0.dir/__/__/__/models/pb_remote/src/pb_remote_server.c.obj
 .text.pb_remote_server_event_local_ack_cb
                0x00021f90       0x8c examples/pb_remote/server/CMakeFiles/pb_remote_server_nrf52832_xxAA_s132_3.1.0.dir/__/__/__/models/pb_remote/src/pb_remote_server.c.obj
 .text.pb_remote_server_event_link_established_cb
                0x0002201c       0x94 examples/pb_remote/server/CMakeFiles/pb_remote_server_nrf52832_xxAA_s132_3.1.0.dir/__/__/__/models/pb_remote/src/pb_remote_server.c.obj
 .text.pb_remote_server_event_link_closed_cb
                0x000220b0       0xf0 examples/pb_remote/server/CMakeFiles/pb_remote_server_nrf52832_xxAA_s132_3.1.0.dir/__/__/__/models/pb_remote/src/pb_remote_server.c.obj
 .text.send_reply.isra.8
                0x000221a0       0x16 examples/pb_remote/server/CMakeFiles/pb_remote_server_nrf52832_xxAA_s132_3.1.0.dir/__/__/__/models/pb_remote/src/pb_remote_server.c.obj
 *fill*         0x000221b6        0x2 
 .text.pb_remote_server_event_link_close_cb
                0x000221b8       0xf0 examples/pb_remote/server/CMakeFiles/pb_remote_server_nrf52832_xxAA_s132_3.1.0.dir/__/__/__/models/pb_remote/src/pb_remote_server.c.obj
 .text.pb_remote_server_event_scan_start_filter_cb
                0x000222a8      0x128 examples/pb_remote/server/CMakeFiles/pb_remote_server_nrf52832_xxAA_s132_3.1.0.dir/__/__/__/models/pb_remote/src/pb_remote_server.c.obj
 .text.pb_remote_server_event_packet_transfer_cb
                0x000223d0      0x104 examples/pb_remote/server/CMakeFiles/pb_remote_server_nrf52832_xxAA_s132_3.1.0.dir/__/__/__/models/pb_remote/src/pb_remote_server.c.obj
 .text.pb_remote_server_event_scan_start_cb
                0x000224d4       0x98 examples/pb_remote/server/CMakeFiles/pb_remote_server_nrf52832_xxAA_s132_3.1.0.dir/__/__/__/models/pb_remote/src/pb_remote_server.c.obj
 .text.local_link_open.isra.14
                0x0002256c       0xf8 examples/pb_remote/server/CMakeFiles/pb_remote_server_nrf52832_xxAA_s132_3.1.0.dir/__/__/__/models/pb_remote/src/pb_remote_server.c.obj
 .text.pb_remote_server_event_link_open_cb
                0x00022664       0xb8 examples/pb_remote/server/CMakeFiles/pb_remote_server_nrf52832_xxAA_s132_3.1.0.dir/__/__/__/models/pb_remote/src/pb_remote_server.c.obj
 .text.pb_remote_server_event_scan_cancel_cb
                0x0002271c       0x64 examples/pb_remote/server/CMakeFiles/pb_remote_server_nrf52832_xxAA_s132_3.1.0.dir/__/__/__/models/pb_remote/src/pb_remote_server.c.obj
 .text.remote_server_access_rx_cb
                0x00022780      0x190 examples/pb_remote/server/CMakeFiles/pb_remote_server_nrf52832_xxAA_s132_3.1.0.dir/__/__/__/models/pb_remote/src/pb_remote_server.c.obj
 .text.pb_remote_server_event_unprov_uuid_cb
                0x00022910      0x174 examples/pb_remote/server/CMakeFiles/pb_remote_server_nrf52832_xxAA_s132_3.1.0.dir/__/__/__/models/pb_remote/src/pb_remote_server.c.obj
 .text.pb_remote_server_init
                0x00022a84       0xa8 examples/pb_remote/server/CMakeFiles/pb_remote_server_nrf52832_xxAA_s132_3.1.0.dir/__/__/__/models/pb_remote/src/pb_remote_server.c.obj
                0x00022a84                pb_remote_server_init
 .text.pb_remote_server_enable
                0x00022b2c       0x28 examples/pb_remote/server/CMakeFiles/pb_remote_server_nrf52832_xxAA_s132_3.1.0.dir/__/__/__/models/pb_remote/src/pb_remote_server.c.obj
                0x00022b2c                pb_remote_server_enable
 .text.pb_remote_server_prov_bearer_set
                0x00022b54       0x18 examples/pb_remote/server/CMakeFiles/pb_remote_server_nrf52832_xxAA_s132_3.1.0.dir/__/__/__/models/pb_remote/src/pb_remote_server.c.obj
                0x00022b54                pb_remote_server_prov_bearer_set
 .text.add_to_publication_list
                0x00022b6c       0x84 examples/pb_remote/server/CMakeFiles/pb_remote_server_nrf52832_xxAA_s132_3.1.0.dir/__/__/__/mesh/access/src/access_publish.c.obj
 .text.step_resolution_to_us
                0x00022bf0       0x44 examples/pb_remote/server/CMakeFiles/pb_remote_server_nrf52832_xxAA_s132_3.1.0.dir/__/__/__/mesh/access/src/access_publish.c.obj
 .text.schedule_publication_timer
                0x00022c34      0x184 examples/pb_remote/server/CMakeFiles/pb_remote_server_nrf52832_xxAA_s132_3.1.0.dir/__/__/__/mesh/access/src/access_publish.c.obj
 .text.publish_timer_tick
                0x00022db8       0xbc examples/pb_remote/server/CMakeFiles/pb_remote_server_nrf52832_xxAA_s132_3.1.0.dir/__/__/__/mesh/access/src/access_publish.c.obj
 .text.access_publish_init
                0x00022e74       0x38 examples/pb_remote/server/CMakeFiles/pb_remote_server_nrf52832_xxAA_s132_3.1.0.dir/__/__/__/mesh/access/src/access_publish.c.obj
                0x00022e74                access_publish_init
 .text.access_publish_period_set
                0x00022eac       0x6c examples/pb_remote/server/CMakeFiles/pb_remote_server_nrf52832_xxAA_s132_3.1.0.dir/__/__/__/mesh/access/src/access_publish.c.obj
                0x00022eac                access_publish_period_set
 .text.access_publish_period_get
                0x00022f18       0x30 examples/pb_remote/server/CMakeFiles/pb_remote_server_nrf52832_xxAA_s132_3.1.0.dir/__/__/__/mesh/access/src/access_publish.c.obj
                0x00022f18                access_publish_period_get
 .text.bitfield_get
                0x00022f48       0x1a examples/pb_remote/server/CMakeFiles/pb_remote_server_nrf52832_xxAA_s132_3.1.0.dir/__/__/__/mesh/access/src/access.c.obj
 .text.is_valid_opcode
                0x00022f62       0x42 examples/pb_remote/server/CMakeFiles/pb_remote_server_nrf52832_xxAA_s132_3.1.0.dir/__/__/__/mesh/access/src/access.c.obj
 .text.model_handle_valid_and_allocated
                0x00022fa4       0x20 examples/pb_remote/server/CMakeFiles/pb_remote_server_nrf52832_xxAA_s132_3.1.0.dir/__/__/__/mesh/access/src/access.c.obj
 .text.flash_invalidate_complete
                0x00022fc4       0x14 examples/pb_remote/server/CMakeFiles/pb_remote_server_nrf52832_xxAA_s132_3.1.0.dir/__/__/__/mesh/access/src/access.c.obj
 .text.flash_manager_mem_available
                0x00022fd8        0x2 examples/pb_remote/server/CMakeFiles/pb_remote_server_nrf52832_xxAA_s132_3.1.0.dir/__/__/__/mesh/access/src/access.c.obj
 *fill*         0x00022fda        0x2 
 .text.restore_acquired_subscription
                0x00022fdc       0x30 examples/pb_remote/server/CMakeFiles/pb_remote_server_nrf52832_xxAA_s132_3.1.0.dir/__/__/__/mesh/access/src/access.c.obj
 .text.restore_acquired_element
                0x0002300c       0x1c examples/pb_remote/server/CMakeFiles/pb_remote_server_nrf52832_xxAA_s132_3.1.0.dir/__/__/__/mesh/access/src/access.c.obj
 .text.restore_flash_data
                0x00023028       0x5c examples/pb_remote/server/CMakeFiles/pb_remote_server_nrf52832_xxAA_s132_3.1.0.dir/__/__/__/mesh/access/src/access.c.obj
 .text.access_flash_config_clear
                0x00023084       0x28 examples/pb_remote/server/CMakeFiles/pb_remote_server_nrf52832_xxAA_s132_3.1.0.dir/__/__/__/mesh/access/src/access.c.obj
 .text.access_flash_config_store
                0x000230ac      0x138 examples/pb_remote/server/CMakeFiles/pb_remote_server_nrf52832_xxAA_s132_3.1.0.dir/__/__/__/mesh/access/src/access.c.obj
                0x000230ac                access_flash_config_store
 .text.access_state_clear
                0x000231e4       0x48 examples/pb_remote/server/CMakeFiles/pb_remote_server_nrf52832_xxAA_s132_3.1.0.dir/__/__/__/mesh/access/src/access.c.obj
 .text.add_flash_manager
                0x0002322c       0x58 examples/pb_remote/server/CMakeFiles/pb_remote_server_nrf52832_xxAA_s132_3.1.0.dir/__/__/__/mesh/access/src/access.c.obj
 .text.flash_remove_complete
                0x00023284       0x58 examples/pb_remote/server/CMakeFiles/pb_remote_server_nrf52832_xxAA_s132_3.1.0.dir/__/__/__/mesh/access/src/access.c.obj
 .text.flash_write_complete
                0x000232dc       0x54 examples/pb_remote/server/CMakeFiles/pb_remote_server_nrf52832_xxAA_s132_3.1.0.dir/__/__/__/mesh/access/src/access.c.obj
 .text.unlikely.bitfield_next_get.part.0.constprop.3
                0x00023330       0x34 examples/pb_remote/server/CMakeFiles/pb_remote_server_nrf52832_xxAA_s132_3.1.0.dir/__/__/__/mesh/access/src/access.c.obj
 .text.restore_acquired_model
                0x00023364       0x94 examples/pb_remote/server/CMakeFiles/pb_remote_server_nrf52832_xxAA_s132_3.1.0.dir/__/__/__/mesh/access/src/access.c.obj
 .text.handle_incoming
                0x000233f8      0x158 examples/pb_remote/server/CMakeFiles/pb_remote_server_nrf52832_xxAA_s132_3.1.0.dir/__/__/__/mesh/access/src/access.c.obj
 .text.mesh_evt_cb
                0x00023550      0x134 examples/pb_remote/server/CMakeFiles/pb_remote_server_nrf52832_xxAA_s132_3.1.0.dir/__/__/__/mesh/access/src/access.c.obj
 .text.packet_tx
                0x00023684      0x2c4 examples/pb_remote/server/CMakeFiles/pb_remote_server_nrf52832_xxAA_s132_3.1.0.dir/__/__/__/mesh/access/src/access.c.obj
 .text.access_flash_config_load
                0x00023948      0x130 examples/pb_remote/server/CMakeFiles/pb_remote_server_nrf52832_xxAA_s132_3.1.0.dir/__/__/__/mesh/access/src/access.c.obj
                0x00023948                access_flash_config_load
 .text.access_clear
                0x00023a78       0x12 examples/pb_remote/server/CMakeFiles/pb_remote_server_nrf52832_xxAA_s132_3.1.0.dir/__/__/__/mesh/access/src/access.c.obj
                0x00023a78                access_clear
 *fill*         0x00023a8a        0x2 
 .text.access_init
                0x00023a8c       0x28 examples/pb_remote/server/CMakeFiles/pb_remote_server_nrf52832_xxAA_s132_3.1.0.dir/__/__/__/mesh/access/src/access.c.obj
                0x00023a8c                access_init
 .text.access_model_add
                0x00023ab4      0x1b8 examples/pb_remote/server/CMakeFiles/pb_remote_server_nrf52832_xxAA_s132_3.1.0.dir/__/__/__/mesh/access/src/access.c.obj
                0x00023ab4                access_model_add
 .text.access_model_publish
                0x00023c6c        0xc examples/pb_remote/server/CMakeFiles/pb_remote_server_nrf52832_xxAA_s132_3.1.0.dir/__/__/__/mesh/access/src/access.c.obj
                0x00023c6c                access_model_publish
 .text.access_model_reply
                0x00023c78       0x12 examples/pb_remote/server/CMakeFiles/pb_remote_server_nrf52832_xxAA_s132_3.1.0.dir/__/__/__/mesh/access/src/access.c.obj
                0x00023c78                access_model_reply
 *fill*         0x00023c8a        0x2 
 .text.access_model_publish_address_set
                0x00023c8c       0x3c examples/pb_remote/server/CMakeFiles/pb_remote_server_nrf52832_xxAA_s132_3.1.0.dir/__/__/__/mesh/access/src/access.c.obj
                0x00023c8c                access_model_publish_address_set
 .text.access_model_publish_address_get
                0x00023cc8       0x28 examples/pb_remote/server/CMakeFiles/pb_remote_server_nrf52832_xxAA_s132_3.1.0.dir/__/__/__/mesh/access/src/access.c.obj
                0x00023cc8                access_model_publish_address_get
 .text.access_model_publish_period_set
                0x00023cf0       0x6c examples/pb_remote/server/CMakeFiles/pb_remote_server_nrf52832_xxAA_s132_3.1.0.dir/__/__/__/mesh/access/src/access.c.obj
                0x00023cf0                access_model_publish_period_set
 .text.access_model_publish_period_get
                0x00023d5c       0x3c examples/pb_remote/server/CMakeFiles/pb_remote_server_nrf52832_xxAA_s132_3.1.0.dir/__/__/__/mesh/access/src/access.c.obj
                0x00023d5c                access_model_publish_period_get
 .text.access_model_subscription_add
                0x00023d98       0x60 examples/pb_remote/server/CMakeFiles/pb_remote_server_nrf52832_xxAA_s132_3.1.0.dir/__/__/__/mesh/access/src/access.c.obj
                0x00023d98                access_model_subscription_add
 .text.access_model_subscription_remove
                0x00023df8       0x60 examples/pb_remote/server/CMakeFiles/pb_remote_server_nrf52832_xxAA_s132_3.1.0.dir/__/__/__/mesh/access/src/access.c.obj
                0x00023df8                access_model_subscription_remove
 .text.access_model_subscriptions_get
                0x00023e58       0x80 examples/pb_remote/server/CMakeFiles/pb_remote_server_nrf52832_xxAA_s132_3.1.0.dir/__/__/__/mesh/access/src/access.c.obj
                0x00023e58                access_model_subscriptions_get
 .text.access_model_application_bind
                0x00023ed8       0x50 examples/pb_remote/server/CMakeFiles/pb_remote_server_nrf52832_xxAA_s132_3.1.0.dir/__/__/__/mesh/access/src/access.c.obj
                0x00023ed8                access_model_application_bind
 .text.access_model_application_unbind
                0x00023f28       0x50 examples/pb_remote/server/CMakeFiles/pb_remote_server_nrf52832_xxAA_s132_3.1.0.dir/__/__/__/mesh/access/src/access.c.obj
                0x00023f28                access_model_application_unbind
 .text.access_model_applications_get
                0x00023f78       0x58 examples/pb_remote/server/CMakeFiles/pb_remote_server_nrf52832_xxAA_s132_3.1.0.dir/__/__/__/mesh/access/src/access.c.obj
                0x00023f78                access_model_applications_get
 .text.access_model_publish_application_set
                0x00023fd0       0x3c examples/pb_remote/server/CMakeFiles/pb_remote_server_nrf52832_xxAA_s132_3.1.0.dir/__/__/__/mesh/access/src/access.c.obj
                0x00023fd0                access_model_publish_application_set
 .text.access_model_publish_application_get
                0x0002400c       0x28 examples/pb_remote/server/CMakeFiles/pb_remote_server_nrf52832_xxAA_s132_3.1.0.dir/__/__/__/mesh/access/src/access.c.obj
                0x0002400c                access_model_publish_application_get
 .text.access_default_ttl_set
                0x00024034       0x10 examples/pb_remote/server/CMakeFiles/pb_remote_server_nrf52832_xxAA_s132_3.1.0.dir/__/__/__/mesh/access/src/access.c.obj
                0x00024034                access_default_ttl_set
 .text.access_default_ttl_get
                0x00024044        0xc examples/pb_remote/server/CMakeFiles/pb_remote_server_nrf52832_xxAA_s132_3.1.0.dir/__/__/__/mesh/access/src/access.c.obj
                0x00024044                access_default_ttl_get
 .text.access_model_publish_ttl_set
                0x00024050       0x40 examples/pb_remote/server/CMakeFiles/pb_remote_server_nrf52832_xxAA_s132_3.1.0.dir/__/__/__/mesh/access/src/access.c.obj
                0x00024050                access_model_publish_ttl_set
 .text.access_model_publish_ttl_get
                0x00024090       0x28 examples/pb_remote/server/CMakeFiles/pb_remote_server_nrf52832_xxAA_s132_3.1.0.dir/__/__/__/mesh/access/src/access.c.obj
                0x00024090                access_model_publish_ttl_get
 .text.access_element_location_get
                0x000240b8       0x18 examples/pb_remote/server/CMakeFiles/pb_remote_server_nrf52832_xxAA_s132_3.1.0.dir/__/__/__/mesh/access/src/access.c.obj
                0x000240b8                access_element_location_get
 .text.access_element_sig_model_count_get
                0x000240d0       0x18 examples/pb_remote/server/CMakeFiles/pb_remote_server_nrf52832_xxAA_s132_3.1.0.dir/__/__/__/mesh/access/src/access.c.obj
                0x000240d0                access_element_sig_model_count_get
 .text.access_element_vendor_model_count_get
                0x000240e8       0x18 examples/pb_remote/server/CMakeFiles/pb_remote_server_nrf52832_xxAA_s132_3.1.0.dir/__/__/__/mesh/access/src/access.c.obj
                0x000240e8                access_element_vendor_model_count_get
 .text.access_model_id_get
                0x00024100       0x2c examples/pb_remote/server/CMakeFiles/pb_remote_server_nrf52832_xxAA_s132_3.1.0.dir/__/__/__/mesh/access/src/access.c.obj
                0x00024100                access_model_id_get
 .text.access_handle_get
                0x0002412c       0x4c examples/pb_remote/server/CMakeFiles/pb_remote_server_nrf52832_xxAA_s132_3.1.0.dir/__/__/__/mesh/access/src/access.c.obj
                0x0002412c                access_handle_get
 .text.access_element_models_get
                0x00024178       0x48 examples/pb_remote/server/CMakeFiles/pb_remote_server_nrf52832_xxAA_s132_3.1.0.dir/__/__/__/mesh/access/src/access.c.obj
                0x00024178                access_element_models_get
 .text.access_model_p_args_get
                0x000241c0       0x28 examples/pb_remote/server/CMakeFiles/pb_remote_server_nrf52832_xxAA_s132_3.1.0.dir/__/__/__/mesh/access/src/access.c.obj
                0x000241c0                access_model_p_args_get
 .text.remove_and_reschedule
                0x000241e8       0xd0 examples/pb_remote/server/CMakeFiles/pb_remote_server_nrf52832_xxAA_s132_3.1.0.dir/__/__/__/mesh/access/src/access_reliable.c.obj
 .text.reliable_timer_cb
                0x000242b8      0x148 examples/pb_remote/server/CMakeFiles/pb_remote_server_nrf52832_xxAA_s132_3.1.0.dir/__/__/__/mesh/access/src/access_reliable.c.obj
 .text.access_reliable_message_rx_cb
                0x00024400       0x74 examples/pb_remote/server/CMakeFiles/pb_remote_server_nrf52832_xxAA_s132_3.1.0.dir/__/__/__/mesh/access/src/access_reliable.c.obj
                0x00024400                access_reliable_message_rx_cb
 .text.access_reliable_init
                0x00024474       0x1c examples/pb_remote/server/CMakeFiles/pb_remote_server_nrf52832_xxAA_s132_3.1.0.dir/__/__/__/mesh/access/src/access_reliable.c.obj
                0x00024474                access_reliable_init
 .text.access_reliable_cancel_all
                0x00024490       0x34 examples/pb_remote/server/CMakeFiles/pb_remote_server_nrf52832_xxAA_s132_3.1.0.dir/__/__/__/mesh/access/src/access_reliable.c.obj
                0x00024490                access_reliable_cancel_all
 .text.access_model_reliable_cancel
                0x000244c4       0x44 examples/pb_remote/server/CMakeFiles/pb_remote_server_nrf52832_xxAA_s132_3.1.0.dir/__/__/__/mesh/access/src/access_reliable.c.obj
                0x000244c4                access_model_reliable_cancel
 .text.access_model_reliable_publish
                0x00024508      0x1a8 examples/pb_remote/server/CMakeFiles/pb_remote_server_nrf52832_xxAA_s132_3.1.0.dir/__/__/__/mesh/access/src/access_reliable.c.obj
                0x00024508                access_model_reliable_publish
 .text.bitfield_get
                0x000246b0       0x1a examples/pb_remote/server/CMakeFiles/pb_remote_server_nrf52832_xxAA_s132_3.1.0.dir/__/__/__/mesh/access/src/device_state_manager.c.obj
 .text.bitfield_set
                0x000246ca       0x18 examples/pb_remote/server/CMakeFiles/pb_remote_server_nrf52832_xxAA_s132_3.1.0.dir/__/__/__/mesh/access/src/device_state_manager.c.obj
 .text.bitfield_clear
                0x000246e2       0x1a examples/pb_remote/server/CMakeFiles/pb_remote_server_nrf52832_xxAA_s132_3.1.0.dir/__/__/__/mesh/access/src/device_state_manager.c.obj
 .text.bitfield_is_all_clear
                0x000246fc       0x3c examples/pb_remote/server/CMakeFiles/pb_remote_server_nrf52832_xxAA_s132_3.1.0.dir/__/__/__/mesh/access/src/device_state_manager.c.obj
 .text.address_handle_virtual_valid
                0x00024738       0x14 examples/pb_remote/server/CMakeFiles/pb_remote_server_nrf52832_xxAA_s132_3.1.0.dir/__/__/__/mesh/access/src/device_state_manager.c.obj
 .text.net_key_handle_get
                0x0002474c       0x38 examples/pb_remote/server/CMakeFiles/pb_remote_server_nrf52832_xxAA_s132_3.1.0.dir/__/__/__/mesh/access/src/device_state_manager.c.obj
 .text.dev_key_handle_get
                0x00024784       0x30 examples/pb_remote/server/CMakeFiles/pb_remote_server_nrf52832_xxAA_s132_3.1.0.dir/__/__/__/mesh/access/src/device_state_manager.c.obj
 .text.app_key_handle_get
                0x000247b4       0x38 examples/pb_remote/server/CMakeFiles/pb_remote_server_nrf52832_xxAA_s132_3.1.0.dir/__/__/__/mesh/access/src/device_state_manager.c.obj
 .text.get_subnet_handle
                0x000247ec       0x40 examples/pb_remote/server/CMakeFiles/pb_remote_server_nrf52832_xxAA_s132_3.1.0.dir/__/__/__/mesh/access/src/device_state_manager.c.obj
 .text.addr_nonvirtual_to_flash_entry
                0x0002482c       0x10 examples/pb_remote/server/CMakeFiles/pb_remote_server_nrf52832_xxAA_s132_3.1.0.dir/__/__/__/mesh/access/src/device_state_manager.c.obj
 .text.flash_mem_listener_callback
                0x0002483c       0x20 examples/pb_remote/server/CMakeFiles/pb_remote_server_nrf52832_xxAA_s132_3.1.0.dir/__/__/__/mesh/access/src/device_state_manager.c.obj
 .text.devkey_set
                0x0002485c       0x4c examples/pb_remote/server/CMakeFiles/pb_remote_server_nrf52832_xxAA_s132_3.1.0.dir/__/__/__/mesh/access/src/device_state_manager.c.obj
 .text.devkey_to_dsm_entry
                0x000248a8       0x16 examples/pb_remote/server/CMakeFiles/pb_remote_server_nrf52832_xxAA_s132_3.1.0.dir/__/__/__/mesh/access/src/device_state_manager.c.obj
 *fill*         0x000248be        0x2 
 .text.devkey_to_flash_entry
                0x000248c0       0x28 examples/pb_remote/server/CMakeFiles/pb_remote_server_nrf52832_xxAA_s132_3.1.0.dir/__/__/__/mesh/access/src/device_state_manager.c.obj
 .text.addr_virtual_to_flash_entry
                0x000248e8       0x18 examples/pb_remote/server/CMakeFiles/pb_remote_server_nrf52832_xxAA_s132_3.1.0.dir/__/__/__/mesh/access/src/device_state_manager.c.obj
 .text.addr_unicast_to_dsm_entry
                0x00024900        0xc examples/pb_remote/server/CMakeFiles/pb_remote_server_nrf52832_xxAA_s132_3.1.0.dir/__/__/__/mesh/access/src/device_state_manager.c.obj
 .text.addr_unicast_to_flash_entry
                0x0002490c       0x10 examples/pb_remote/server/CMakeFiles/pb_remote_server_nrf52832_xxAA_s132_3.1.0.dir/__/__/__/mesh/access/src/device_state_manager.c.obj
 .text.appkey_set
                0x0002491c       0x7c examples/pb_remote/server/CMakeFiles/pb_remote_server_nrf52832_xxAA_s132_3.1.0.dir/__/__/__/mesh/access/src/device_state_manager.c.obj
 .text.appkey_to_flash_entry
                0x00024998       0x54 examples/pb_remote/server/CMakeFiles/pb_remote_server_nrf52832_xxAA_s132_3.1.0.dir/__/__/__/mesh/access/src/device_state_manager.c.obj
 .text.subnet_to_flash_entry
                0x000249ec       0x60 examples/pb_remote/server/CMakeFiles/pb_remote_server_nrf52832_xxAA_s132_3.1.0.dir/__/__/__/mesh/access/src/device_state_manager.c.obj
 .text.subnet_set
                0x00024a4c       0xb4 examples/pb_remote/server/CMakeFiles/pb_remote_server_nrf52832_xxAA_s132_3.1.0.dir/__/__/__/mesh/access/src/device_state_manager.c.obj
 .text.virtual_address_set
                0x00024b00       0x54 examples/pb_remote/server/CMakeFiles/pb_remote_server_nrf52832_xxAA_s132_3.1.0.dir/__/__/__/mesh/access/src/device_state_manager.c.obj
 .text.addr_virtual_to_dsm_entry
                0x00024b54        0xc examples/pb_remote/server/CMakeFiles/pb_remote_server_nrf52832_xxAA_s132_3.1.0.dir/__/__/__/mesh/access/src/device_state_manager.c.obj
 .text.reset_flash_area
                0x00024b60       0x28 examples/pb_remote/server/CMakeFiles/pb_remote_server_nrf52832_xxAA_s132_3.1.0.dir/__/__/__/mesh/access/src/device_state_manager.c.obj
 .text.flash_save
                0x00024b88       0x88 examples/pb_remote/server/CMakeFiles/pb_remote_server_nrf52832_xxAA_s132_3.1.0.dir/__/__/__/mesh/access/src/device_state_manager.c.obj
 .text.flash_invalidate
                0x00024c10       0x70 examples/pb_remote/server/CMakeFiles/pb_remote_server_nrf52832_xxAA_s132_3.1.0.dir/__/__/__/mesh/access/src/device_state_manager.c.obj
 .text.flash_update_all
                0x00024c80       0x6c examples/pb_remote/server/CMakeFiles/pb_remote_server_nrf52832_xxAA_s132_3.1.0.dir/__/__/__/mesh/access/src/device_state_manager.c.obj
 .text.virtual_address_uuid_index_get
                0x00024cec       0x3c examples/pb_remote/server/CMakeFiles/pb_remote_server_nrf52832_xxAA_s132_3.1.0.dir/__/__/__/mesh/access/src/device_state_manager.c.obj
 .text.add_address_virtual
                0x00024d28       0x70 examples/pb_remote/server/CMakeFiles/pb_remote_server_nrf52832_xxAA_s132_3.1.0.dir/__/__/__/mesh/access/src/device_state_manager.c.obj
 .text.get_subnet_handle_by_beacon_info
                0x00024d98       0x30 examples/pb_remote/server/CMakeFiles/pb_remote_server_nrf52832_xxAA_s132_3.1.0.dir/__/__/__/mesh/access/src/device_state_manager.c.obj
 .text.get_app_handle
                0x00024dc8       0x38 examples/pb_remote/server/CMakeFiles/pb_remote_server_nrf52832_xxAA_s132_3.1.0.dir/__/__/__/mesh/access/src/device_state_manager.c.obj
 .text.appkey_to_dsm_entry
                0x00024e00       0x80 examples/pb_remote/server/CMakeFiles/pb_remote_server_nrf52832_xxAA_s132_3.1.0.dir/__/__/__/mesh/access/src/device_state_manager.c.obj
 .text.subnet_to_dsm_entry
                0x00024e80       0x7c examples/pb_remote/server/CMakeFiles/pb_remote_server_nrf52832_xxAA_s132_3.1.0.dir/__/__/__/mesh/access/src/device_state_manager.c.obj
 .text.flash_operation_complete
                0x00024efc       0x58 examples/pb_remote/server/CMakeFiles/pb_remote_server_nrf52832_xxAA_s132_3.1.0.dir/__/__/__/mesh/access/src/device_state_manager.c.obj
 .text.flash_invalidate_complete
                0x00024f54        0x8 examples/pb_remote/server/CMakeFiles/pb_remote_server_nrf52832_xxAA_s132_3.1.0.dir/__/__/__/mesh/access/src/device_state_manager.c.obj
 .text.flash_write_complete
                0x00024f5c        0x8 examples/pb_remote/server/CMakeFiles/pb_remote_server_nrf52832_xxAA_s132_3.1.0.dir/__/__/__/mesh/access/src/device_state_manager.c.obj
 .text.add_address.part.7
                0x00024f64      0x144 examples/pb_remote/server/CMakeFiles/pb_remote_server_nrf52832_xxAA_s132_3.1.0.dir/__/__/__/mesh/access/src/device_state_manager.c.obj
 .text.address_handle_valid
                0x000250a8       0x28 examples/pb_remote/server/CMakeFiles/pb_remote_server_nrf52832_xxAA_s132_3.1.0.dir/__/__/__/mesh/access/src/device_state_manager.c.obj
 .text.address_handle_nonvirtual_valid
                0x000250d0       0x14 examples/pb_remote/server/CMakeFiles/pb_remote_server_nrf52832_xxAA_s132_3.1.0.dir/__/__/__/mesh/access/src/device_state_manager.c.obj
 .text.address_delete_if_unused
                0x000250e4       0x78 examples/pb_remote/server/CMakeFiles/pb_remote_server_nrf52832_xxAA_s132_3.1.0.dir/__/__/__/mesh/access/src/device_state_manager.c.obj
 .text.addr_nonvirtual_to_dsm_entry
                0x0002515c       0x38 examples/pb_remote/server/CMakeFiles/pb_remote_server_nrf52832_xxAA_s132_3.1.0.dir/__/__/__/mesh/access/src/device_state_manager.c.obj
 .text.dsm_flash_config_load
                0x00025194      0x134 examples/pb_remote/server/CMakeFiles/pb_remote_server_nrf52832_xxAA_s132_3.1.0.dir/__/__/__/mesh/access/src/device_state_manager.c.obj
                0x00025194                dsm_flash_config_load
 .text.dsm_flash_area_get
                0x000252c8        0xc examples/pb_remote/server/CMakeFiles/pb_remote_server_nrf52832_xxAA_s132_3.1.0.dir/__/__/__/mesh/access/src/device_state_manager.c.obj
                0x000252c8                dsm_flash_area_get
 .text.build_flash_area
                0x000252d4       0x8c examples/pb_remote/server/CMakeFiles/pb_remote_server_nrf52832_xxAA_s132_3.1.0.dir/__/__/__/mesh/access/src/device_state_manager.c.obj
 .text.flash_remove_complete
                0x00025360        0x4 examples/pb_remote/server/CMakeFiles/pb_remote_server_nrf52832_xxAA_s132_3.1.0.dir/__/__/__/mesh/access/src/device_state_manager.c.obj
 .text.dsm_clear
                0x00025364       0x6c examples/pb_remote/server/CMakeFiles/pb_remote_server_nrf52832_xxAA_s132_3.1.0.dir/__/__/__/mesh/access/src/device_state_manager.c.obj
                0x00025364                dsm_clear
 .text.dsm_init
                0x000253d0       0x24 examples/pb_remote/server/CMakeFiles/pb_remote_server_nrf52832_xxAA_s132_3.1.0.dir/__/__/__/mesh/access/src/device_state_manager.c.obj
                0x000253d0                dsm_init
 .text.dsm_local_unicast_addresses_set
                0x000253f4       0x84 examples/pb_remote/server/CMakeFiles/pb_remote_server_nrf52832_xxAA_s132_3.1.0.dir/__/__/__/mesh/access/src/device_state_manager.c.obj
                0x000253f4                dsm_local_unicast_addresses_set
 .text.dsm_local_unicast_addresses_get
                0x00025478       0x2c examples/pb_remote/server/CMakeFiles/pb_remote_server_nrf52832_xxAA_s132_3.1.0.dir/__/__/__/mesh/access/src/device_state_manager.c.obj
                0x00025478                dsm_local_unicast_addresses_get
 .text.dsm_address_publish_add
                0x000254a4        0xc examples/pb_remote/server/CMakeFiles/pb_remote_server_nrf52832_xxAA_s132_3.1.0.dir/__/__/__/mesh/access/src/device_state_manager.c.obj
                0x000254a4                dsm_address_publish_add
 .text.dsm_address_publish_add_handle
                0x000254b0       0x38 examples/pb_remote/server/CMakeFiles/pb_remote_server_nrf52832_xxAA_s132_3.1.0.dir/__/__/__/mesh/access/src/device_state_manager.c.obj
                0x000254b0                dsm_address_publish_add_handle
 .text.dsm_address_publish_virtual_add
                0x000254e8        0x6 examples/pb_remote/server/CMakeFiles/pb_remote_server_nrf52832_xxAA_s132_3.1.0.dir/__/__/__/mesh/access/src/device_state_manager.c.obj
                0x000254e8                dsm_address_publish_virtual_add
 .text.dsm_address_subscription_add
                0x000254ee        0xc examples/pb_remote/server/CMakeFiles/pb_remote_server_nrf52832_xxAA_s132_3.1.0.dir/__/__/__/mesh/access/src/device_state_manager.c.obj
                0x000254ee                dsm_address_subscription_add
 .text.dsm_address_subscription_virtual_add
                0x000254fa        0x6 examples/pb_remote/server/CMakeFiles/pb_remote_server_nrf52832_xxAA_s132_3.1.0.dir/__/__/__/mesh/access/src/device_state_manager.c.obj
                0x000254fa                dsm_address_subscription_virtual_add
 .text.dsm_address_subscription_add_handle
                0x00025500       0x38 examples/pb_remote/server/CMakeFiles/pb_remote_server_nrf52832_xxAA_s132_3.1.0.dir/__/__/__/mesh/access/src/device_state_manager.c.obj
                0x00025500                dsm_address_subscription_add_handle
 .text.dsm_address_subscription_get
                0x00025538       0x34 examples/pb_remote/server/CMakeFiles/pb_remote_server_nrf52832_xxAA_s132_3.1.0.dir/__/__/__/mesh/access/src/device_state_manager.c.obj
                0x00025538                dsm_address_subscription_get
 .text.dsm_address_get
                0x0002556c       0x5c examples/pb_remote/server/CMakeFiles/pb_remote_server_nrf52832_xxAA_s132_3.1.0.dir/__/__/__/mesh/access/src/device_state_manager.c.obj
                0x0002556c                dsm_address_get
 .text.dsm_address_subscription_remove
                0x000255c8       0x58 examples/pb_remote/server/CMakeFiles/pb_remote_server_nrf52832_xxAA_s132_3.1.0.dir/__/__/__/mesh/access/src/device_state_manager.c.obj
                0x000255c8                dsm_address_subscription_remove
 .text.dsm_address_handle_get
                0x00025620       0x98 examples/pb_remote/server/CMakeFiles/pb_remote_server_nrf52832_xxAA_s132_3.1.0.dir/__/__/__/mesh/access/src/device_state_manager.c.obj
                0x00025620                dsm_address_handle_get
 .text.dsm_net_key_index_to_subnet_handle
                0x000256b8       0x1c examples/pb_remote/server/CMakeFiles/pb_remote_server_nrf52832_xxAA_s132_3.1.0.dir/__/__/__/mesh/access/src/device_state_manager.c.obj
                0x000256b8                dsm_net_key_index_to_subnet_handle
 .text.dsm_appkey_index_to_appkey_handle
                0x000256d4       0x1c examples/pb_remote/server/CMakeFiles/pb_remote_server_nrf52832_xxAA_s132_3.1.0.dir/__/__/__/mesh/access/src/device_state_manager.c.obj
                0x000256d4                dsm_appkey_index_to_appkey_handle
 .text.dsm_appkey_handle_get
                0x000256f0        0xc examples/pb_remote/server/CMakeFiles/pb_remote_server_nrf52832_xxAA_s132_3.1.0.dir/__/__/__/mesh/access/src/device_state_manager.c.obj
                0x000256f0                dsm_appkey_handle_get
 .text.dsm_appkey_handle_to_appkey_index
                0x000256fc       0x30 examples/pb_remote/server/CMakeFiles/pb_remote_server_nrf52832_xxAA_s132_3.1.0.dir/__/__/__/mesh/access/src/device_state_manager.c.obj
                0x000256fc                dsm_appkey_handle_to_appkey_index
 .text.dsm_subnet_add
                0x0002572c       0x58 examples/pb_remote/server/CMakeFiles/pb_remote_server_nrf52832_xxAA_s132_3.1.0.dir/__/__/__/mesh/access/src/device_state_manager.c.obj
                0x0002572c                dsm_subnet_add
 .text.dsm_subnet_kr_phase_get
                0x00025784       0x2c examples/pb_remote/server/CMakeFiles/pb_remote_server_nrf52832_xxAA_s132_3.1.0.dir/__/__/__/mesh/access/src/device_state_manager.c.obj
                0x00025784                dsm_subnet_kr_phase_get
 .text.dsm_subnet_update
                0x000257b0       0xa4 examples/pb_remote/server/CMakeFiles/pb_remote_server_nrf52832_xxAA_s132_3.1.0.dir/__/__/__/mesh/access/src/device_state_manager.c.obj
                0x000257b0                dsm_subnet_update
 .text.dsm_subnet_update_swap_keys
                0x00025854       0x50 examples/pb_remote/server/CMakeFiles/pb_remote_server_nrf52832_xxAA_s132_3.1.0.dir/__/__/__/mesh/access/src/device_state_manager.c.obj
                0x00025854                dsm_subnet_update_swap_keys
 .text.dsm_subnet_update_commit
                0x000258a4       0xb8 examples/pb_remote/server/CMakeFiles/pb_remote_server_nrf52832_xxAA_s132_3.1.0.dir/__/__/__/mesh/access/src/device_state_manager.c.obj
                0x000258a4                dsm_subnet_update_commit
 .text.net_beacon_callback
                0x0002595c       0x74 examples/pb_remote/server/CMakeFiles/pb_remote_server_nrf52832_xxAA_s132_3.1.0.dir/__/__/__/mesh/access/src/device_state_manager.c.obj
 .text.dsm_subnet_get_all
                0x000259d0       0x3c examples/pb_remote/server/CMakeFiles/pb_remote_server_nrf52832_xxAA_s132_3.1.0.dir/__/__/__/mesh/access/src/device_state_manager.c.obj
                0x000259d0                dsm_subnet_get_all
 .text.dsm_devkey_add
                0x00025a0c       0x78 examples/pb_remote/server/CMakeFiles/pb_remote_server_nrf52832_xxAA_s132_3.1.0.dir/__/__/__/mesh/access/src/device_state_manager.c.obj
                0x00025a0c                dsm_devkey_add
 .text.dsm_devkey_delete
                0x00025a84       0x38 examples/pb_remote/server/CMakeFiles/pb_remote_server_nrf52832_xxAA_s132_3.1.0.dir/__/__/__/mesh/access/src/device_state_manager.c.obj
                0x00025a84                dsm_devkey_delete
 .text.dsm_appkey_add
                0x00025abc       0x70 examples/pb_remote/server/CMakeFiles/pb_remote_server_nrf52832_xxAA_s132_3.1.0.dir/__/__/__/mesh/access/src/device_state_manager.c.obj
                0x00025abc                dsm_appkey_add
 .text.dsm_appkey_update
                0x00025b2c       0x8c examples/pb_remote/server/CMakeFiles/pb_remote_server_nrf52832_xxAA_s132_3.1.0.dir/__/__/__/mesh/access/src/device_state_manager.c.obj
                0x00025b2c                dsm_appkey_update
 .text.dsm_appkey_delete
                0x00025bb8       0x2c examples/pb_remote/server/CMakeFiles/pb_remote_server_nrf52832_xxAA_s132_3.1.0.dir/__/__/__/mesh/access/src/device_state_manager.c.obj
                0x00025bb8                dsm_appkey_delete
 .text.dsm_subnet_delete
                0x00025be4       0x84 examples/pb_remote/server/CMakeFiles/pb_remote_server_nrf52832_xxAA_s132_3.1.0.dir/__/__/__/mesh/access/src/device_state_manager.c.obj
                0x00025be4                dsm_subnet_delete
 .text.dsm_appkey_get_all
                0x00025c68       0x58 examples/pb_remote/server/CMakeFiles/pb_remote_server_nrf52832_xxAA_s132_3.1.0.dir/__/__/__/mesh/access/src/device_state_manager.c.obj
                0x00025c68                dsm_appkey_get_all
 .text.dsm_tx_secmat_get
                0x00025cc0       0xf0 examples/pb_remote/server/CMakeFiles/pb_remote_server_nrf52832_xxAA_s132_3.1.0.dir/__/__/__/mesh/access/src/device_state_manager.c.obj
                0x00025cc0                dsm_tx_secmat_get
 .text.dsm_net_secmat_from_keyindex_get
                0x00025db0       0x30 examples/pb_remote/server/CMakeFiles/pb_remote_server_nrf52832_xxAA_s132_3.1.0.dir/__/__/__/mesh/access/src/device_state_manager.c.obj
                0x00025db0                dsm_net_secmat_from_keyindex_get
 .text.nrf_mesh_net_secmat_next_get
                0x00025de0       0xa4 examples/pb_remote/server/CMakeFiles/pb_remote_server_nrf52832_xxAA_s132_3.1.0.dir/__/__/__/mesh/access/src/device_state_manager.c.obj
                0x00025de0                nrf_mesh_net_secmat_next_get
 .text.nrf_mesh_app_secmat_next_get
                0x00025e84       0x84 examples/pb_remote/server/CMakeFiles/pb_remote_server_nrf52832_xxAA_s132_3.1.0.dir/__/__/__/mesh/access/src/device_state_manager.c.obj
                0x00025e84                nrf_mesh_app_secmat_next_get
 .text.nrf_mesh_devkey_secmat_get
                0x00025f08       0x34 examples/pb_remote/server/CMakeFiles/pb_remote_server_nrf52832_xxAA_s132_3.1.0.dir/__/__/__/mesh/access/src/device_state_manager.c.obj
                0x00025f08                nrf_mesh_devkey_secmat_get
 .text.nrf_mesh_beacon_info_next_get
                0x00025f3c       0xc8 examples/pb_remote/server/CMakeFiles/pb_remote_server_nrf52832_xxAA_s132_3.1.0.dir/__/__/__/mesh/access/src/device_state_manager.c.obj
                0x00025f3c                nrf_mesh_beacon_info_next_get
 .text.nrf_mesh_rx_address_get
                0x00026004       0xfc examples/pb_remote/server/CMakeFiles/pb_remote_server_nrf52832_xxAA_s132_3.1.0.dir/__/__/__/mesh/access/src/device_state_manager.c.obj
                0x00026004                nrf_mesh_rx_address_get
 .text.sd_softdevice_enable
                0x00026100        0x4 examples/pb_remote/server/CMakeFiles/pb_remote_server_nrf52832_xxAA_s132_3.1.0.dir/__/__/__/mesh/access/src/nrf_mesh_node_config.c.obj
 .text.sd_softdevice_is_enabled
                0x00026104        0x4 examples/pb_remote/server/CMakeFiles/pb_remote_server_nrf52832_xxAA_s132_3.1.0.dir/__/__/__/mesh/access/src/nrf_mesh_node_config.c.obj
 .text.default_softdevice_assertion_handler
                0x00026108       0x7c examples/pb_remote/server/CMakeFiles/pb_remote_server_nrf52832_xxAA_s132_3.1.0.dir/__/__/__/mesh/access/src/nrf_mesh_node_config.c.obj
 .text.config_server_cb
                0x00026184       0x28 examples/pb_remote/server/CMakeFiles/pb_remote_server_nrf52832_xxAA_s132_3.1.0.dir/__/__/__/mesh/access/src/nrf_mesh_node_config.c.obj
 .text.flash_stable_cb
                0x000261ac       0x20 examples/pb_remote/server/CMakeFiles/pb_remote_server_nrf52832_xxAA_s132_3.1.0.dir/__/__/__/mesh/access/src/nrf_mesh_node_config.c.obj
 .text.start_provisionee
                0x000261cc       0x18 examples/pb_remote/server/CMakeFiles/pb_remote_server_nrf52832_xxAA_s132_3.1.0.dir/__/__/__/mesh/access/src/nrf_mesh_node_config.c.obj
 .text.prov_evt_handler
                0x000261e4      0x138 examples/pb_remote/server/CMakeFiles/pb_remote_server_nrf52832_xxAA_s132_3.1.0.dir/__/__/__/mesh/access/src/nrf_mesh_node_config.c.obj
 .text.default_mesh_assertion_handler
                0x0002631c       0x74 examples/pb_remote/server/CMakeFiles/pb_remote_server_nrf52832_xxAA_s132_3.1.0.dir/__/__/__/mesh/access/src/nrf_mesh_node_config.c.obj
                0x0002631c                default_mesh_assertion_handler
 .text.softdevice_setup
                0x00026390       0x54 examples/pb_remote/server/CMakeFiles/pb_remote_server_nrf52832_xxAA_s132_3.1.0.dir/__/__/__/mesh/access/src/nrf_mesh_node_config.c.obj
                0x00026390                softdevice_setup
 .text.nrf_mesh_node_config
                0x000263e4      0x13c examples/pb_remote/server/CMakeFiles/pb_remote_server_nrf52832_xxAA_s132_3.1.0.dir/__/__/__/mesh/access/src/nrf_mesh_node_config.c.obj
                0x000263e4                nrf_mesh_node_config
 .text.config_composition_data_get
                0x00026520      0x1cc examples/pb_remote/server/CMakeFiles/pb_remote_server_nrf52832_xxAA_s132_3.1.0.dir/__/__/__/models/config/src/composition_data.c.obj
                0x00026520                config_composition_data_get
 .text.app_evt_send
                0x000266ec       0x10 examples/pb_remote/server/CMakeFiles/pb_remote_server_nrf52832_xxAA_s132_3.1.0.dir/__/__/__/models/config/src/config_server.c.obj
 .text.extract_model_id
                0x000266fc       0x12 examples/pb_remote/server/CMakeFiles/pb_remote_server_nrf52832_xxAA_s132_3.1.0.dir/__/__/__/models/config/src/config_server.c.obj
 *fill*         0x0002670e        0x2 
 .text.config_server_heartbeat_publication_count_decrement
                0x00026710       0x1c examples/pb_remote/server/CMakeFiles/pb_remote_server_nrf52832_xxAA_s132_3.1.0.dir/__/__/__/models/config/src/config_server.c.obj
 .text.get_element_index
                0x0002672c       0x26 examples/pb_remote/server/CMakeFiles/pb_remote_server_nrf52832_xxAA_s132_3.1.0.dir/__/__/__/models/config/src/config_server.c.obj
 *fill*         0x00026752        0x2 
 .text.config_server_heartbeat_publication_params_get
                0x00026754       0x34 examples/pb_remote/server/CMakeFiles/pb_remote_server_nrf52832_xxAA_s132_3.1.0.dir/__/__/__/models/config/src/config_server.c.obj
 .text.send_reply
                0x00026788       0x3a examples/pb_remote/server/CMakeFiles/pb_remote_server_nrf52832_xxAA_s132_3.1.0.dir/__/__/__/models/config/src/config_server.c.obj
 *fill*         0x000267c2        0x2 
 .text.send_network_transmit_status
                0x000267c4       0x84 examples/pb_remote/server/CMakeFiles/pb_remote_server_nrf52832_xxAA_s132_3.1.0.dir/__/__/__/models/config/src/config_server.c.obj
 .text.handle_config_network_transmit_set
                0x00026848       0x98 examples/pb_remote/server/CMakeFiles/pb_remote_server_nrf52832_xxAA_s132_3.1.0.dir/__/__/__/models/config/src/config_server.c.obj
 .text.handle_config_network_transmit_get
                0x000268e0        0xa examples/pb_remote/server/CMakeFiles/pb_remote_server_nrf52832_xxAA_s132_3.1.0.dir/__/__/__/models/config/src/config_server.c.obj
 *fill*         0x000268ea        0x2 
 .text.send_relay_status
                0x000268ec       0xac examples/pb_remote/server/CMakeFiles/pb_remote_server_nrf52832_xxAA_s132_3.1.0.dir/__/__/__/models/config/src/config_server.c.obj
 .text.handle_config_relay_set
                0x00026998       0xcc examples/pb_remote/server/CMakeFiles/pb_remote_server_nrf52832_xxAA_s132_3.1.0.dir/__/__/__/models/config/src/config_server.c.obj
 .text.handle_config_relay_get
                0x00026a64        0xa examples/pb_remote/server/CMakeFiles/pb_remote_server_nrf52832_xxAA_s132_3.1.0.dir/__/__/__/models/config/src/config_server.c.obj
 .text.send_subscription_status
                0x00026a6e       0x3a examples/pb_remote/server/CMakeFiles/pb_remote_server_nrf52832_xxAA_s132_3.1.0.dir/__/__/__/models/config/src/config_server.c.obj
 .text.send_generic_error_reply
                0x00026aa8       0x42 examples/pb_remote/server/CMakeFiles/pb_remote_server_nrf52832_xxAA_s132_3.1.0.dir/__/__/__/models/config/src/config_server.c.obj
 *fill*         0x00026aea        0x2 
 .text.handle_model_app_get
                0x00026aec      0x18c examples/pb_remote/server/CMakeFiles/pb_remote_server_nrf52832_xxAA_s132_3.1.0.dir/__/__/__/models/config/src/config_server.c.obj
 .text.handle_node_reset
                0x00026c78       0x38 examples/pb_remote/server/CMakeFiles/pb_remote_server_nrf52832_xxAA_s132_3.1.0.dir/__/__/__/models/config/src/config_server.c.obj
 .text.handle_netkey_get
                0x00026cb0       0x5e examples/pb_remote/server/CMakeFiles/pb_remote_server_nrf52832_xxAA_s132_3.1.0.dir/__/__/__/models/config/src/config_server.c.obj
 .text.handle_model_app_bind_unbind
                0x00026d0e       0xfa examples/pb_remote/server/CMakeFiles/pb_remote_server_nrf52832_xxAA_s132_3.1.0.dir/__/__/__/models/config/src/config_server.c.obj
 .text.handle_config_model_subscription_virtual_address_add
                0x00026e08      0x120 examples/pb_remote/server/CMakeFiles/pb_remote_server_nrf52832_xxAA_s132_3.1.0.dir/__/__/__/models/config/src/config_server.c.obj
 .text.delete_all_subscriptions
                0x00026f28       0x84 examples/pb_remote/server/CMakeFiles/pb_remote_server_nrf52832_xxAA_s132_3.1.0.dir/__/__/__/models/config/src/config_server.c.obj
 .text.handle_config_model_subscription_virtual_address_overwrite
                0x00026fac      0x144 examples/pb_remote/server/CMakeFiles/pb_remote_server_nrf52832_xxAA_s132_3.1.0.dir/__/__/__/models/config/src/config_server.c.obj
 .text.handle_config_model_subscription_delete_all
                0x000270f0       0xb6 examples/pb_remote/server/CMakeFiles/pb_remote_server_nrf52832_xxAA_s132_3.1.0.dir/__/__/__/models/config/src/config_server.c.obj
 *fill*         0x000271a6        0x2 
 .text.handle_config_model_subscription_virtual_address_delete
                0x000271a8      0x130 examples/pb_remote/server/CMakeFiles/pb_remote_server_nrf52832_xxAA_s132_3.1.0.dir/__/__/__/models/config/src/config_server.c.obj
 .text.handle_config_model_subscription_delete
                0x000272d8      0x124 examples/pb_remote/server/CMakeFiles/pb_remote_server_nrf52832_xxAA_s132_3.1.0.dir/__/__/__/models/config/src/config_server.c.obj
 .text.handle_config_model_subscription_overwrite
                0x000273fc      0x134 examples/pb_remote/server/CMakeFiles/pb_remote_server_nrf52832_xxAA_s132_3.1.0.dir/__/__/__/models/config/src/config_server.c.obj
 .text.handle_config_model_subscription_add
                0x00027530      0x120 examples/pb_remote/server/CMakeFiles/pb_remote_server_nrf52832_xxAA_s132_3.1.0.dir/__/__/__/models/config/src/config_server.c.obj
 .text.send_publication_status
                0x00027650      0x174 examples/pb_remote/server/CMakeFiles/pb_remote_server_nrf52832_xxAA_s132_3.1.0.dir/__/__/__/models/config/src/config_server.c.obj
 .text.handle_config_model_publication_get
                0x000277c4       0x60 examples/pb_remote/server/CMakeFiles/pb_remote_server_nrf52832_xxAA_s132_3.1.0.dir/__/__/__/models/config/src/config_server.c.obj
 .text.handle_config_default_ttl_getset
                0x00027824       0x62 examples/pb_remote/server/CMakeFiles/pb_remote_server_nrf52832_xxAA_s132_3.1.0.dir/__/__/__/models/config/src/config_server.c.obj
 .text.send_net_beacon_state
                0x00027886       0x2a examples/pb_remote/server/CMakeFiles/pb_remote_server_nrf52832_xxAA_s132_3.1.0.dir/__/__/__/models/config/src/config_server.c.obj
 .text.handle_config_beacon_get
                0x000278b0        0xa examples/pb_remote/server/CMakeFiles/pb_remote_server_nrf52832_xxAA_s132_3.1.0.dir/__/__/__/models/config/src/config_server.c.obj
 .text.handle_composition_data_get
                0x000278ba       0x48 examples/pb_remote/server/CMakeFiles/pb_remote_server_nrf52832_xxAA_s132_3.1.0.dir/__/__/__/models/config/src/config_server.c.obj
 .text.handle_appkey_get
                0x00027902       0xae examples/pb_remote/server/CMakeFiles/pb_remote_server_nrf52832_xxAA_s132_3.1.0.dir/__/__/__/models/config/src/config_server.c.obj
 .text.handle_config_model_publication_set
                0x000279b0      0x1ec examples/pb_remote/server/CMakeFiles/pb_remote_server_nrf52832_xxAA_s132_3.1.0.dir/__/__/__/models/config/src/config_server.c.obj
 .text.handle_heartbeat_publication_set
                0x00027b9c      0x124 examples/pb_remote/server/CMakeFiles/pb_remote_server_nrf52832_xxAA_s132_3.1.0.dir/__/__/__/models/config/src/config_server.c.obj
 .text.heartbeat_pubsub_period_encode
                0x00027cc0       0x34 examples/pb_remote/server/CMakeFiles/pb_remote_server_nrf52832_xxAA_s132_3.1.0.dir/__/__/__/models/config/src/config_server.c.obj
 .text.handle_node_identity_set
                0x00027cf4       0x30 examples/pb_remote/server/CMakeFiles/pb_remote_server_nrf52832_xxAA_s132_3.1.0.dir/__/__/__/models/config/src/config_server.c.obj
 .text.handle_node_identity_get
                0x00027d24       0x2c examples/pb_remote/server/CMakeFiles/pb_remote_server_nrf52832_xxAA_s132_3.1.0.dir/__/__/__/models/config/src/config_server.c.obj
 .text.handle_config_gatt_proxy_set
                0x00027d50       0x1e examples/pb_remote/server/CMakeFiles/pb_remote_server_nrf52832_xxAA_s132_3.1.0.dir/__/__/__/models/config/src/config_server.c.obj
 .text.handle_config_friend_set
                0x00027d6e       0x1e examples/pb_remote/server/CMakeFiles/pb_remote_server_nrf52832_xxAA_s132_3.1.0.dir/__/__/__/models/config/src/config_server.c.obj
 .text.handle_netkey_delete
                0x00027d8c       0x78 examples/pb_remote/server/CMakeFiles/pb_remote_server_nrf52832_xxAA_s132_3.1.0.dir/__/__/__/models/config/src/config_server.c.obj
 .text.handle_config_key_refresh_phase_get
                0x00027e04       0x50 examples/pb_remote/server/CMakeFiles/pb_remote_server_nrf52832_xxAA_s132_3.1.0.dir/__/__/__/models/config/src/config_server.c.obj
 .text.handle_config_key_refresh_phase_set
                0x00027e54       0xc4 examples/pb_remote/server/CMakeFiles/pb_remote_server_nrf52832_xxAA_s132_3.1.0.dir/__/__/__/models/config/src/config_server.c.obj
 .text.handle_config_beacon_set
                0x00027f18       0x42 examples/pb_remote/server/CMakeFiles/pb_remote_server_nrf52832_xxAA_s132_3.1.0.dir/__/__/__/models/config/src/config_server.c.obj
 .text.handle_appkey_add_update
                0x00027f5a       0xd8 examples/pb_remote/server/CMakeFiles/pb_remote_server_nrf52832_xxAA_s132_3.1.0.dir/__/__/__/models/config/src/config_server.c.obj
 *fill*         0x00028032        0x2 
 .text.handle_config_vendor_model_subscription_get
                0x00028034       0xdc examples/pb_remote/server/CMakeFiles/pb_remote_server_nrf52832_xxAA_s132_3.1.0.dir/__/__/__/models/config/src/config_server.c.obj
 .text.heartbeat_pubsub_count_encode
                0x00028110       0x34 examples/pb_remote/server/CMakeFiles/pb_remote_server_nrf52832_xxAA_s132_3.1.0.dir/__/__/__/models/config/src/config_server.c.obj
 .text.handle_heartbeat_publication_get
                0x00028144       0x58 examples/pb_remote/server/CMakeFiles/pb_remote_server_nrf52832_xxAA_s132_3.1.0.dir/__/__/__/models/config/src/config_server.c.obj
 .text.handle_heartbeat_subscription_get
                0x0002819c       0x60 examples/pb_remote/server/CMakeFiles/pb_remote_server_nrf52832_xxAA_s132_3.1.0.dir/__/__/__/models/config/src/config_server.c.obj
 .text.handle_config_sig_model_subscription_get
                0x000281fc       0xd8 examples/pb_remote/server/CMakeFiles/pb_remote_server_nrf52832_xxAA_s132_3.1.0.dir/__/__/__/models/config/src/config_server.c.obj
 .text.handle_heartbeat_subscription_set
                0x000282d4       0xca examples/pb_remote/server/CMakeFiles/pb_remote_server_nrf52832_xxAA_s132_3.1.0.dir/__/__/__/models/config/src/config_server.c.obj
 .text.handle_config_friend_get
                0x0002839e       0x20 examples/pb_remote/server/CMakeFiles/pb_remote_server_nrf52832_xxAA_s132_3.1.0.dir/__/__/__/models/config/src/config_server.c.obj
 .text.handle_config_gatt_proxy_get
                0x000283be       0x20 examples/pb_remote/server/CMakeFiles/pb_remote_server_nrf52832_xxAA_s132_3.1.0.dir/__/__/__/models/config/src/config_server.c.obj
 .text.handle_appkey_delete
                0x000283de       0x84 examples/pb_remote/server/CMakeFiles/pb_remote_server_nrf52832_xxAA_s132_3.1.0.dir/__/__/__/models/config/src/config_server.c.obj
 *fill*         0x00028462        0x2 
 .text.handle_netkey_add_update
                0x00028464       0x9c examples/pb_remote/server/CMakeFiles/pb_remote_server_nrf52832_xxAA_s132_3.1.0.dir/__/__/__/models/config/src/config_server.c.obj
 .text.config_server_init
                0x00028500       0x68 examples/pb_remote/server/CMakeFiles/pb_remote_server_nrf52832_xxAA_s132_3.1.0.dir/__/__/__/models/config/src/config_server.c.obj
                0x00028500                config_server_init
 .text.config_server_bind
                0x00028568       0x10 examples/pb_remote/server/CMakeFiles/pb_remote_server_nrf52832_xxAA_s132_3.1.0.dir/__/__/__/models/config/src/config_server.c.obj
                0x00028568                config_server_bind
 .text.packed_index_list_size
                0x00028578       0x10 examples/pb_remote/server/CMakeFiles/pb_remote_server_nrf52832_xxAA_s132_3.1.0.dir/__/__/__/models/config/src/packed_index_list.c.obj
                0x00028578                packed_index_list_size
 .text.packed_index_list_create
                0x00028588       0x32 examples/pb_remote/server/CMakeFiles/pb_remote_server_nrf52832_xxAA_s132_3.1.0.dir/__/__/__/models/config/src/packed_index_list.c.obj
                0x00028588                packed_index_list_create
 *fill*         0x000285ba        0x2 
 .text.attention_timer_set
                0x000285bc       0xa4 examples/pb_remote/server/CMakeFiles/pb_remote_server_nrf52832_xxAA_s132_3.1.0.dir/__/__/__/models/health/src/health_server.c.obj
 .text.attention_timer_handler
                0x00028660       0x68 examples/pb_remote/server/CMakeFiles/pb_remote_server_nrf52832_xxAA_s132_3.1.0.dir/__/__/__/models/health/src/health_server.c.obj
 .text.send_attention_status.isra.1
                0x000286c8       0x3e examples/pb_remote/server/CMakeFiles/pb_remote_server_nrf52832_xxAA_s132_3.1.0.dir/__/__/__/models/health/src/health_server.c.obj
 .text.handle_attention_set
                0x00028706       0x32 examples/pb_remote/server/CMakeFiles/pb_remote_server_nrf52832_xxAA_s132_3.1.0.dir/__/__/__/models/health/src/health_server.c.obj
 .text.send_period_status.isra.4
                0x00028738       0x3e examples/pb_remote/server/CMakeFiles/pb_remote_server_nrf52832_xxAA_s132_3.1.0.dir/__/__/__/models/health/src/health_server.c.obj
 .text.handle_period_set
                0x00028776       0x28 examples/pb_remote/server/CMakeFiles/pb_remote_server_nrf52832_xxAA_s132_3.1.0.dir/__/__/__/models/health/src/health_server.c.obj
 *fill*         0x0002879e        0x2 
 .text.bitfield_next_get.part.0.constprop.13
                0x000287a0       0x44 examples/pb_remote/server/CMakeFiles/pb_remote_server_nrf52832_xxAA_s132_3.1.0.dir/__/__/__/models/health/src/health_server.c.obj
 .text.bitfield_popcount.constprop.11
                0x000287e4       0x28 examples/pb_remote/server/CMakeFiles/pb_remote_server_nrf52832_xxAA_s132_3.1.0.dir/__/__/__/models/health/src/health_server.c.obj
 .text.send_fault_status
                0x0002880c       0xa4 examples/pb_remote/server/CMakeFiles/pb_remote_server_nrf52832_xxAA_s132_3.1.0.dir/__/__/__/models/health/src/health_server.c.obj
 .text.health_publish_timeout_handler
                0x000288b0        0xa examples/pb_remote/server/CMakeFiles/pb_remote_server_nrf52832_xxAA_s132_3.1.0.dir/__/__/__/models/health/src/health_server.c.obj
 *fill*         0x000288ba        0x2 
 .text.handle_fault_test
                0x000288bc       0x74 examples/pb_remote/server/CMakeFiles/pb_remote_server_nrf52832_xxAA_s132_3.1.0.dir/__/__/__/models/health/src/health_server.c.obj
 .text.handle_fault_get
                0x00028930       0x40 examples/pb_remote/server/CMakeFiles/pb_remote_server_nrf52832_xxAA_s132_3.1.0.dir/__/__/__/models/health/src/health_server.c.obj
 .text.handle_fault_clear
                0x00028970       0x54 examples/pb_remote/server/CMakeFiles/pb_remote_server_nrf52832_xxAA_s132_3.1.0.dir/__/__/__/models/health/src/health_server.c.obj
 .text.handle_attention_get
                0x000289c4       0x14 examples/pb_remote/server/CMakeFiles/pb_remote_server_nrf52832_xxAA_s132_3.1.0.dir/__/__/__/models/health/src/health_server.c.obj
 .text.handle_period_get
                0x000289d8       0x12 examples/pb_remote/server/CMakeFiles/pb_remote_server_nrf52832_xxAA_s132_3.1.0.dir/__/__/__/models/health/src/health_server.c.obj
 *fill*         0x000289ea        0x2 
 .text.health_server_init
                0x000289ec       0x6c examples/pb_remote/server/CMakeFiles/pb_remote_server_nrf52832_xxAA_s132_3.1.0.dir/__/__/__/models/health/src/health_server.c.obj
                0x000289ec                health_server_init
 .text.errata_57
                0x00028a58       0x34 examples/pb_remote/server/CMakeFiles/pb_remote_server_nrf52832_xxAA_s132_3.1.0.dir/__/__/__/external/nRF5_SDK_14.2.0_17b948a/components/toolchain/system_nrf52.c.obj
 .text.errata_136
                0x00028a8c       0x40 examples/pb_remote/server/CMakeFiles/pb_remote_server_nrf52832_xxAA_s132_3.1.0.dir/__/__/__/external/nRF5_SDK_14.2.0_17b948a/components/toolchain/system_nrf52.c.obj
 .text.SystemInit
                0x00028acc      0x238 examples/pb_remote/server/CMakeFiles/pb_remote_server_nrf52832_xxAA_s132_3.1.0.dir/__/__/__/external/nRF5_SDK_14.2.0_17b948a/components/toolchain/system_nrf52.c.obj
                0x00028acc                SystemInit
 .text          0x00028d04       0x3c examples/pb_remote/server/CMakeFiles/pb_remote_server_nrf52832_xxAA_s132_3.1.0.dir/__/__/__/external/nRF5_SDK_14.2.0_17b948a/components/toolchain/gcc/gcc_startup_nrf52.S.obj
                0x00028d04                Reset_Handler
                0x00028d2c                NMI_Handler
                0x00028d30                MemoryManagement_Handler
                0x00028d32                BusFault_Handler
                0x00028d34                UsageFault_Handler
                0x00028d36                SVC_Handler
                0x00028d38                DebugMon_Handler
                0x00028d3a                PendSV_Handler
                0x00028d3c                SysTick_Handler
                0x00028d3e                RADIO_IRQHandler
                0x00028d3e                PDM_IRQHandler
                0x00028d3e                TEMP_IRQHandler
                0x00028d3e                TIMER3_IRQHandler
                0x00028d3e                FPU_IRQHandler
                0x00028d3e                RTC0_IRQHandler
                0x00028d3e                PWM1_IRQHandler
                0x00028d3e                UARTE0_UART0_IRQHandler
                0x00028d3e                POWER_CLOCK_IRQHandler
                0x00028d3e                I2S_IRQHandler
                0x00028d3e                SWI4_EGU4_IRQHandler
                0x00028d3e                TIMER0_IRQHandler
                0x00028d3e                SPIM0_SPIS0_TWIM0_TWIS0_SPI0_TWI0_IRQHandler
                0x00028d3e                TIMER1_IRQHandler
                0x00028d3e                PWM2_IRQHandler
                0x00028d3e                ECB_IRQHandler
                0x00028d3e                SPIM1_SPIS1_TWIM1_TWIS1_SPI1_TWI1_IRQHandler
                0x00028d3e                Default_Handler
                0x00028d3e                SAADC_IRQHandler
                0x00028d3e                CCM_AAR_IRQHandler
                0x00028d3e                WDT_IRQHandler
                0x00028d3e                TIMER4_IRQHandler
                0x00028d3e                SWI5_EGU5_IRQHandler
                0x00028d3e                RNG_IRQHandler
                0x00028d3e                RTC2_IRQHandler
                0x00028d3e                PWM0_IRQHandler
                0x00028d3e                SWI3_EGU3_IRQHandler
                0x00028d3e                RTC1_IRQHandler
                0x00028d3e                SWI1_EGU1_IRQHandler
                0x00028d3e                SPIM2_SPIS2_SPI2_IRQHandler
                0x00028d3e                NFCT_IRQHandler
                0x00028d3e                SWI0_EGU0_IRQHandler
                0x00028d3e                MWU_IRQHandler
                0x00028d3e                TIMER2_IRQHandler
                0x00028d3e                COMP_LPCOMP_IRQHandler
 .text.nrf_mesh_configure_device_uuid_reset
                0x00028d40       0x28 mesh/core/libmesh_core_nrf52832_xxAA.a(nrf_mesh_configure.c.obj)
                0x00028d40                nrf_mesh_configure_device_uuid_reset
 .text.nrf_mesh_configure_device_uuid_get
                0x00028d68        0x8 mesh/core/libmesh_core_nrf52832_xxAA.a(nrf_mesh_configure.c.obj)
                0x00028d68                nrf_mesh_configure_device_uuid_get
 .text.event_handle
                0x00028d70       0x30 mesh/core/libmesh_core_nrf52832_xxAA.a(event.c.obj)
                0x00028d70                event_handle
 .text.event_handler_add
                0x00028da0       0x28 mesh/core/libmesh_core_nrf52832_xxAA.a(event.c.obj)
                0x00028da0                event_handler_add
 .text.event_handler_remove
                0x00028dc8       0x28 mesh/core/libmesh_core_nrf52832_xxAA.a(event.c.obj)
                0x00028dc8                event_handler_remove
 .text.fifo_init
                0x00028df0       0x50 mesh/core/libmesh_core_nrf52832_xxAA.a(fifo.c.obj)
                0x00028df0                fifo_init
 .text.fifo_push
                0x00028e40       0x50 mesh/core/libmesh_core_nrf52832_xxAA.a(fifo.c.obj)
                0x00028e40                fifo_push
 .text.fifo_pop
                0x00028e90       0x52 mesh/core/libmesh_core_nrf52832_xxAA.a(fifo.c.obj)
                0x00028e90                fifo_pop
 .text.fifo_flush
                0x00028ee2        0x6 mesh/core/libmesh_core_nrf52832_xxAA.a(fifo.c.obj)
                0x00028ee2                fifo_flush
 .text.fifo_get_len
                0x00028ee8        0x8 mesh/core/libmesh_core_nrf52832_xxAA.a(fifo.c.obj)
                0x00028ee8                fifo_get_len
 .text.flash_mem_available
                0x00028ef0       0x20 mesh/core/libmesh_core_nrf52832_xxAA.a(net_state.c.obj)
 .text.flash_store_iv_index
                0x00028f10       0x38 mesh/core/libmesh_core_nrf52832_xxAA.a(net_state.c.obj)
 .text.seqnum_block_allocate
                0x00028f48       0x48 mesh/core/libmesh_core_nrf52832_xxAA.a(net_state.c.obj)
 .text.net_state_reset
                0x00028f90       0x3c mesh/core/libmesh_core_nrf52832_xxAA.a(net_state.c.obj)
                0x00028f90                net_state_reset
 .text.flash_write_complete
                0x00028fcc       0x78 mesh/core/libmesh_core_nrf52832_xxAA.a(net_state.c.obj)
 .text.net_state_recover_from_flash
                0x00029044       0x8c mesh/core/libmesh_core_nrf52832_xxAA.a(net_state.c.obj)
                0x00029044                net_state_recover_from_flash
 .text.net_state_flash_area_get
                0x000290d0        0xc mesh/core/libmesh_core_nrf52832_xxAA.a(net_state.c.obj)
                0x000290d0                net_state_flash_area_get
 .text.init_flash_storage
                0x000290dc       0x40 mesh/core/libmesh_core_nrf52832_xxAA.a(net_state.c.obj)
 .text.net_state_init
                0x0002911c       0x48 mesh/core/libmesh_core_nrf52832_xxAA.a(net_state.c.obj)
                0x0002911c                net_state_init
 .text.net_state_iv_update_start
                0x00029164       0x64 mesh/core/libmesh_core_nrf52832_xxAA.a(net_state.c.obj)
                0x00029164                net_state_iv_update_start
 .text.iv_update_trigger_if_pending
                0x000291c8       0x8c mesh/core/libmesh_core_nrf52832_xxAA.a(net_state.c.obj)
 .text.iv_update_timer_handler
                0x00029254       0x74 mesh/core/libmesh_core_nrf52832_xxAA.a(net_state.c.obj)
 .text.net_state_seqnum_alloc
                0x000292c8       0x68 mesh/core/libmesh_core_nrf52832_xxAA.a(net_state.c.obj)
                0x000292c8                net_state_seqnum_alloc
 .text.net_state_iv_index_lock
                0x00029330       0x48 mesh/core/libmesh_core_nrf52832_xxAA.a(net_state.c.obj)
                0x00029330                net_state_iv_index_lock
 .text.net_state_key_refresh_phase_changed
                0x00029378       0x1e mesh/core/libmesh_core_nrf52832_xxAA.a(net_state.c.obj)
                0x00029378                net_state_key_refresh_phase_changed
 *fill*         0x00029396        0x2 
 .text.net_state_beacon_received
                0x00029398       0x94 mesh/core/libmesh_core_nrf52832_xxAA.a(net_state.c.obj)
                0x00029398                net_state_beacon_received
 .text.net_state_beacon_iv_index_get
                0x0002942c        0xc mesh/core/libmesh_core_nrf52832_xxAA.a(net_state.c.obj)
                0x0002942c                net_state_beacon_iv_index_get
 .text.net_state_tx_iv_index_get
                0x00029438       0x14 mesh/core/libmesh_core_nrf52832_xxAA.a(net_state.c.obj)
                0x00029438                net_state_tx_iv_index_get
 .text.net_state_rx_iv_index_get
                0x0002944c       0x18 mesh/core/libmesh_core_nrf52832_xxAA.a(net_state.c.obj)
                0x0002944c                net_state_rx_iv_index_get
 .text.net_state_iv_update_get
                0x00029464        0xc mesh/core/libmesh_core_nrf52832_xxAA.a(net_state.c.obj)
                0x00029464                net_state_iv_update_get
 .text.net_state_iv_index_set
                0x00029470       0x28 mesh/core/libmesh_core_nrf52832_xxAA.a(net_state.c.obj)
                0x00029470                net_state_iv_index_set
 .text.nrf_mesh_address_type_get
                0x00029498       0x10 mesh/core/libmesh_core_nrf52832_xxAA.a(nrf_mesh_utils.c.obj)
                0x00029498                nrf_mesh_address_type_get
 .text.sd_softdevice_is_enabled
                0x000294a8        0x4 mesh/core/libmesh_core_nrf52832_xxAA.a(nrf_mesh.c.obj)
 .text.nrf_mesh_listen
                0x000294ac      0x138 mesh/core/libmesh_core_nrf52832_xxAA.a(nrf_mesh.c.obj)
 .text.scanner_packet_process_cb
                0x000295e4       0x8c mesh/core/libmesh_core_nrf52832_xxAA.a(nrf_mesh.c.obj)
 .text.nrf_mesh_init
                0x00029670       0xe4 mesh/core/libmesh_core_nrf52832_xxAA.a(nrf_mesh.c.obj)
                0x00029670                nrf_mesh_init
 .text.nrf_mesh_enable
                0x00029754       0x48 mesh/core/libmesh_core_nrf52832_xxAA.a(nrf_mesh.c.obj)
                0x00029754                nrf_mesh_enable
 .text.nrf_mesh_packet_send
                0x0002979c        0x4 mesh/core/libmesh_core_nrf52832_xxAA.a(nrf_mesh.c.obj)
                0x0002979c                nrf_mesh_packet_send
 .text.nrf_mesh_on_ble_evt
                0x000297a0        0x4 mesh/core/libmesh_core_nrf52832_xxAA.a(nrf_mesh.c.obj)
                0x000297a0                nrf_mesh_on_ble_evt
 .text.nrf_mesh_on_sd_evt
                0x000297a4        0xa mesh/core/libmesh_core_nrf52832_xxAA.a(nrf_mesh.c.obj)
                0x000297a4                nrf_mesh_on_sd_evt
 .text.nrf_mesh_evt_handler_add
                0x000297ae        0x4 mesh/core/libmesh_core_nrf52832_xxAA.a(nrf_mesh.c.obj)
                0x000297ae                nrf_mesh_evt_handler_add
 .text.sd_power_reset_reason_clr
                0x000297b2        0x4 mesh/core/libmesh_core_nrf52832_xxAA.a(hal.c.obj)
 .text.sd_power_gpregret_set
                0x000297b6        0x4 mesh/core/libmesh_core_nrf52832_xxAA.a(hal.c.obj)
 *fill*         0x000297ba        0x2 
 .text.hal_device_reset
                0x000297bc       0x38 mesh/core/libmesh_core_nrf52832_xxAA.a(hal.c.obj)
                0x000297bc                hal_device_reset
 .text.hal_lfclk_ppm_get
                0x000297f4       0x14 mesh/core/libmesh_core_nrf52832_xxAA.a(hal.c.obj)
                0x000297f4                hal_lfclk_ppm_get
 .text.add_to_add_list
                0x00029808       0x44 mesh/core/libmesh_core_nrf52832_xxAA.a(timer_scheduler.c.obj)
 .text.process_dirty_events
                0x0002984c       0x6c mesh/core/libmesh_core_nrf52832_xxAA.a(timer_scheduler.c.obj)
 .text.timer_cb
                0x000298b8        0xc mesh/core/libmesh_core_nrf52832_xxAA.a(timer_scheduler.c.obj)
 .text.add_evt.constprop.0
                0x000298c4       0x68 mesh/core/libmesh_core_nrf52832_xxAA.a(timer_scheduler.c.obj)
 .text.process_add_list
                0x0002992c       0x48 mesh/core/libmesh_core_nrf52832_xxAA.a(timer_scheduler.c.obj)
 .text.flag_event_cb
                0x00029974      0x100 mesh/core/libmesh_core_nrf52832_xxAA.a(timer_scheduler.c.obj)
 .text.timer_sch_init
                0x00029a74       0x24 mesh/core/libmesh_core_nrf52832_xxAA.a(timer_scheduler.c.obj)
                0x00029a74                timer_sch_init
 .text.timer_sch_schedule
                0x00029a98       0x50 mesh/core/libmesh_core_nrf52832_xxAA.a(timer_scheduler.c.obj)
                0x00029a98                timer_sch_schedule
 .text.timer_sch_abort
                0x00029ae8       0x64 mesh/core/libmesh_core_nrf52832_xxAA.a(timer_scheduler.c.obj)
                0x00029ae8                timer_sch_abort
 .text.timer_sch_reschedule
                0x00029b4c       0x70 mesh/core/libmesh_core_nrf52832_xxAA.a(timer_scheduler.c.obj)
                0x00029b4c                timer_sch_reschedule
 .text.timer_mut_unlock
                0x00029bbc       0x10 mesh/core/libmesh_core_nrf52832_xxAA.a(timer.c.obj)
 .text.timer_order_cb
                0x00029bcc       0x94 mesh/core/libmesh_core_nrf52832_xxAA.a(timer.c.obj)
                0x00029bcc                timer_order_cb
 .text.timer_now
                0x00029c60       0x48 mesh/core/libmesh_core_nrf52832_xxAA.a(timer.c.obj)
                0x00029c60                timer_now
 .text.timer_event_handler
                0x00029ca8       0x98 mesh/core/libmesh_core_nrf52832_xxAA.a(timer.c.obj)
                0x00029ca8                timer_event_handler
 .text.timer_on_ts_begin
                0x00029d40       0xfc mesh/core/libmesh_core_nrf52832_xxAA.a(timer.c.obj)
                0x00029d40                timer_on_ts_begin
 .text.timer_on_ts_end
                0x00029e3c       0x60 mesh/core/libmesh_core_nrf52832_xxAA.a(timer.c.obj)
                0x00029e3c                timer_on_ts_end
 .text.timer_cb
                0x00029e9c       0x10 mesh/core/libmesh_core_nrf52832_xxAA.a(ticker.c.obj)
 .text.ticker_init
                0x00029eac       0x3c mesh/core/libmesh_core_nrf52832_xxAA.a(ticker.c.obj)
                0x00029eac                ticker_init
 .text.sd_rand_application_bytes_available_get
                0x00029ee8        0x4 mesh/core/libmesh_core_nrf52832_xxAA.a(rand.c.obj)
 .text.sd_rand_application_vector_get
                0x00029eec        0x4 mesh/core/libmesh_core_nrf52832_xxAA.a(rand.c.obj)
 .text.rand_prng_get
                0x00029ef0       0x22 mesh/core/libmesh_core_nrf52832_xxAA.a(rand.c.obj)
                0x00029ef0                rand_prng_get
 *fill*         0x00029f12        0x2 
 .text.rand_hw_rng_get
                0x00029f14       0x50 mesh/core/libmesh_core_nrf52832_xxAA.a(rand.c.obj)
                0x00029f14                rand_hw_rng_get
 .text.rand_prng_seed
                0x00029f64       0x34 mesh/core/libmesh_core_nrf52832_xxAA.a(rand.c.obj)
                0x00029f64                rand_prng_seed
 .text.nrf_mesh_opt_set
                0x00029f98       0x26 mesh/core/libmesh_core_nrf52832_xxAA.a(nrf_mesh_opt.c.obj)
                0x00029f98                nrf_mesh_opt_set
 .text.nrf_mesh_opt_get
                0x00029fbe       0x26 mesh/core/libmesh_core_nrf52832_xxAA.a(nrf_mesh_opt.c.obj)
                0x00029fbe                nrf_mesh_opt_get
 .text.sd_radio_session_open
                0x00029fe4        0x4 mesh/core/libmesh_core_nrf52832_xxAA.a(timeslot.c.obj)
 .text.sd_radio_session_close
                0x00029fe8        0x4 mesh/core/libmesh_core_nrf52832_xxAA.a(timeslot.c.obj)
 .text.sd_radio_request
                0x00029fec        0x4 mesh/core/libmesh_core_nrf52832_xxAA.a(timeslot.c.obj)
 .text.end_timer_handler
                0x00029ff0       0x24 mesh/core/libmesh_core_nrf52832_xxAA.a(timeslot.c.obj)
 .text.get_end_time.constprop.10
                0x0002a014       0x28 mesh/core/libmesh_core_nrf52832_xxAA.a(timeslot.c.obj)
 .text.handle_extend_end.constprop.3
                0x0002a03c       0xc0 mesh/core/libmesh_core_nrf52832_xxAA.a(timeslot.c.obj)
 .text.radio_signal_callback
                0x0002a0fc      0x14c mesh/core/libmesh_core_nrf52832_xxAA.a(timeslot.c.obj)
 .text.timeslot_sd_event_handler
                0x0002a248       0x44 mesh/core/libmesh_core_nrf52832_xxAA.a(timeslot.c.obj)
                0x0002a248                timeslot_sd_event_handler
 .text.timeslot_init
                0x0002a28c       0x48 mesh/core/libmesh_core_nrf52832_xxAA.a(timeslot.c.obj)
                0x0002a28c                timeslot_init
 .text.timeslot_start
                0x0002a2d4       0x20 mesh/core/libmesh_core_nrf52832_xxAA.a(timeslot.c.obj)
                0x0002a2d4                timeslot_start
 .text.timeslot_end_is_pending
                0x0002a2f4       0x24 mesh/core/libmesh_core_nrf52832_xxAA.a(timeslot.c.obj)
                0x0002a2f4                timeslot_end_is_pending
 .text.timeslot_start_time_get
                0x0002a318        0xc mesh/core/libmesh_core_nrf52832_xxAA.a(timeslot.c.obj)
                0x0002a318                timeslot_start_time_get
 .text.timeslot_remaining_time_get
                0x0002a324       0x20 mesh/core/libmesh_core_nrf52832_xxAA.a(timeslot.c.obj)
                0x0002a324                timeslot_remaining_time_get
 .text.timeslot_is_in_cb
                0x0002a344        0xc mesh/core/libmesh_core_nrf52832_xxAA.a(timeslot.c.obj)
                0x0002a344                timeslot_is_in_cb
 .text.timeslot_trigger
                0x0002a350       0x24 mesh/core/libmesh_core_nrf52832_xxAA.a(timeslot.c.obj)
                0x0002a350                timeslot_trigger
 .text.timeslot_stop
                0x0002a374       0x10 mesh/core/libmesh_core_nrf52832_xxAA.a(timeslot.c.obj)
                0x0002a374                timeslot_stop
 .text.timeslot_state_lock
                0x0002a384       0x28 mesh/core/libmesh_core_nrf52832_xxAA.a(timeslot.c.obj)
                0x0002a384                timeslot_state_lock
 .text.trigger_event_handler
                0x0002a3ac       0x1c mesh/core/libmesh_core_nrf52832_xxAA.a(bearer_event.c.obj)
 .text.evt_push
                0x0002a3c8       0x1c mesh/core/libmesh_core_nrf52832_xxAA.a(bearer_event.c.obj)
 .text.bearer_event_init
                0x0002a3e4       0x48 mesh/core/libmesh_core_nrf52832_xxAA.a(bearer_event.c.obj)
                0x0002a3e4                bearer_event_init
 .text.bearer_event_timer_post
                0x0002a42c       0x30 mesh/core/libmesh_core_nrf52832_xxAA.a(bearer_event.c.obj)
                0x0002a42c                bearer_event_timer_post
 .text.bearer_event_critical_section_begin
                0x0002a45c       0x50 mesh/core/libmesh_core_nrf52832_xxAA.a(bearer_event.c.obj)
                0x0002a45c                bearer_event_critical_section_begin
 .text.bearer_event_critical_section_end
                0x0002a4ac       0x4c mesh/core/libmesh_core_nrf52832_xxAA.a(bearer_event.c.obj)
                0x0002a4ac                bearer_event_critical_section_end
 .text.bearer_event_flag_add
                0x0002a4f8       0x50 mesh/core/libmesh_core_nrf52832_xxAA.a(bearer_event.c.obj)
                0x0002a4f8                bearer_event_flag_add
 .text.bearer_event_flag_set
                0x0002a548       0x50 mesh/core/libmesh_core_nrf52832_xxAA.a(bearer_event.c.obj)
                0x0002a548                bearer_event_flag_set
 .text.bearer_event_sequential_add
                0x0002a598       0x44 mesh/core/libmesh_core_nrf52832_xxAA.a(bearer_event.c.obj)
                0x0002a598                bearer_event_sequential_add
 .text.bearer_event_sequential_post
                0x0002a5dc       0x58 mesh/core/libmesh_core_nrf52832_xxAA.a(bearer_event.c.obj)
                0x0002a5dc                bearer_event_sequential_post
 .text.bearer_event_sequential_pending
                0x0002a634       0x1c mesh/core/libmesh_core_nrf52832_xxAA.a(bearer_event.c.obj)
                0x0002a634                bearer_event_sequential_pending
 .text.bearer_event_handler
                0x0002a650      0x104 mesh/core/libmesh_core_nrf52832_xxAA.a(bearer_event.c.obj)
                0x0002a650                bearer_event_handler
 .text.QDEC_IRQHandler
                0x0002a754        0x4 mesh/core/libmesh_core_nrf52832_xxAA.a(bearer_event.c.obj)
                0x0002a754                QDEC_IRQHandler
 .text.enc_aes_encrypt
                0x0002a758        0x4 mesh/core/libmesh_core_nrf52832_xxAA.a(enc.c.obj)
                0x0002a758                enc_aes_encrypt
 .text.enc_aes_cmac
                0x0002a75c        0x4 mesh/core/libmesh_core_nrf52832_xxAA.a(enc.c.obj)
                0x0002a75c                enc_aes_cmac
 .text.enc_aes_ccm_encrypt
                0x0002a760        0x4 mesh/core/libmesh_core_nrf52832_xxAA.a(enc.c.obj)
                0x0002a760                enc_aes_ccm_encrypt
 .text.enc_aes_ccm_decrypt
                0x0002a764        0x4 mesh/core/libmesh_core_nrf52832_xxAA.a(enc.c.obj)
                0x0002a764                enc_aes_ccm_decrypt
 .text.enc_nonce_generate
                0x0002a768       0xb8 mesh/core/libmesh_core_nrf52832_xxAA.a(enc.c.obj)
                0x0002a768                enc_nonce_generate
 .text.enc_s1   0x0002a820       0x38 mesh/core/libmesh_core_nrf52832_xxAA.a(enc.c.obj)
                0x0002a820                enc_s1
 .text.enc_k1   0x0002a858       0x48 mesh/core/libmesh_core_nrf52832_xxAA.a(enc.c.obj)
                0x0002a858                enc_k1
 .text.enc_k2   0x0002a8a0       0xd8 mesh/core/libmesh_core_nrf52832_xxAA.a(enc.c.obj)
                0x0002a8a0                enc_k2
 .text.enc_k3   0x0002a978       0x68 mesh/core/libmesh_core_nrf52832_xxAA.a(enc.c.obj)
                0x0002a978                enc_k3
 .text.enc_k4   0x0002a9e0       0x60 mesh/core/libmesh_core_nrf52832_xxAA.a(enc.c.obj)
                0x0002a9e0                enc_k4
 .text.header_transfuscate
                0x0002aa40       0x54 mesh/core/libmesh_core_nrf52832_xxAA.a(network.c.obj)
 .text.allocate_packet
                0x0002aa94      0x14c mesh/core/libmesh_core_nrf52832_xxAA.a(network.c.obj)
 .text.network_init
                0x0002abe0       0x2c mesh/core/libmesh_core_nrf52832_xxAA.a(network.c.obj)
                0x0002abe0                network_init
 .text.network_opt_set
                0x0002ac0c       0x68 mesh/core/libmesh_core_nrf52832_xxAA.a(network.c.obj)
                0x0002ac0c                network_opt_set
 .text.network_opt_get
                0x0002ac74       0x4c mesh/core/libmesh_core_nrf52832_xxAA.a(network.c.obj)
                0x0002ac74                network_opt_get
 .text.network_packet_alloc
                0x0002acc0       0x50 mesh/core/libmesh_core_nrf52832_xxAA.a(network.c.obj)
                0x0002acc0                network_packet_alloc
 .text.network_packet_send
                0x0002ad10      0x140 mesh/core/libmesh_core_nrf52832_xxAA.a(network.c.obj)
                0x0002ad10                network_packet_send
 .text.network_packet_in
                0x0002ae50      0x460 mesh/core/libmesh_core_nrf52832_xxAA.a(network.c.obj)
                0x0002ae50                network_packet_in
 .text.nrf_mesh_keygen_aid
                0x0002b2b0       0x12 mesh/core/libmesh_core_nrf52832_xxAA.a(nrf_mesh_keygen.c.obj)
                0x0002b2b0                nrf_mesh_keygen_aid
 .text.nrf_mesh_keygen_network_secmat
                0x0002b2c2       0x20 mesh/core/libmesh_core_nrf52832_xxAA.a(nrf_mesh_keygen.c.obj)
                0x0002b2c2                nrf_mesh_keygen_network_secmat
 *fill*         0x0002b2e2        0x2 
 .text.nrf_mesh_keygen_beacon_secmat
                0x0002b2e4       0x50 mesh/core/libmesh_core_nrf52832_xxAA.a(nrf_mesh_keygen.c.obj)
                0x0002b2e4                nrf_mesh_keygen_beacon_secmat
 .text.nrf_mesh_keygen_virtual_address
                0x0002b334       0x50 mesh/core/libmesh_core_nrf52832_xxAA.a(nrf_mesh_keygen.c.obj)
                0x0002b334                nrf_mesh_keygen_virtual_address
 .text.list_insert
                0x0002b384       0x28 mesh/core/libmesh_core_nrf52832_xxAA.a(list.c.obj)
 .text.list_add
                0x0002b3ac       0x60 mesh/core/libmesh_core_nrf52832_xxAA.a(list.c.obj)
                0x0002b3ac                list_add
 .text.list_remove
                0x0002b40c       0x48 mesh/core/libmesh_core_nrf52832_xxAA.a(list.c.obj)
                0x0002b40c                list_remove
 .text.list_compare_add
                0x0002b454       0x80 mesh/core/libmesh_core_nrf52832_xxAA.a(list.c.obj)
                0x0002b454                list_compare_add
 .text.log_callback_rtt
                0x0002b4d4       0x2c mesh/core/libmesh_core_nrf52832_xxAA.a(log.c.obj)
                0x0002b4d4                log_callback_rtt
 .text.log_init
                0x0002b500       0x1c mesh/core/libmesh_core_nrf52832_xxAA.a(log.c.obj)
                0x0002b500                log_init
 .text.log_vprintf
                0x0002b51c       0x18 mesh/core/libmesh_core_nrf52832_xxAA.a(log.c.obj)
                0x0002b51c                log_vprintf
 .text.log_printf
                0x0002b534       0x18 mesh/core/libmesh_core_nrf52832_xxAA.a(log.c.obj)
                0x0002b534                log_printf
 .text.get_area_end
                0x0002b54c        0xc mesh/core/libmesh_core_nrf52832_xxAA.a(flash_manager.c.obj)
 .text.handle_matches_filter
                0x0002b558       0x26 mesh/core/libmesh_core_nrf52832_xxAA.a(flash_manager.c.obj)
 *fill*         0x0002b57e        0x2 
 .text.get_packet_buffer
                0x0002b580       0x2c mesh/core/libmesh_core_nrf52832_xxAA.a(flash_manager.c.obj)
 .text.get_entry_action
                0x0002b5ac       0x30 mesh/core/libmesh_core_nrf52832_xxAA.a(flash_manager.c.obj)
 .text.flash_area_is_blank
                0x0002b5dc       0x48 mesh/core/libmesh_core_nrf52832_xxAA.a(flash_manager.c.obj)
 .text.flash    0x0002b624       0x1c mesh/core/libmesh_core_nrf52832_xxAA.a(flash_manager.c.obj)
 .text.free_packet_buffer
                0x0002b640       0x54 mesh/core/libmesh_core_nrf52832_xxAA.a(flash_manager.c.obj)
 .text.reserve_action_buffer
                0x0002b694       0x24 mesh/core/libmesh_core_nrf52832_xxAA.a(flash_manager.c.obj)
 .text.commit_action_buffer
                0x0002b6b8       0x18 mesh/core/libmesh_core_nrf52832_xxAA.a(flash_manager.c.obj)
 .text.schedule_processing
                0x0002b6d0        0xc mesh/core/libmesh_core_nrf52832_xxAA.a(flash_manager.c.obj)
 .text.get_next_entry
                0x0002b6dc       0x40 mesh/core/libmesh_core_nrf52832_xxAA.a(flash_manager.c.obj)
 .text.get_last_entry.isra.1
                0x0002b71c       0x30 mesh/core/libmesh_core_nrf52832_xxAA.a(flash_manager.c.obj)
 .text.process_action_queue
                0x0002b74c      0x4e4 mesh/core/libmesh_core_nrf52832_xxAA.a(flash_manager.c.obj)
 .text.flash_op_ended_callback
                0x0002bc30       0x24 mesh/core/libmesh_core_nrf52832_xxAA.a(flash_manager.c.obj)
 .text.flash_manager_init
                0x0002bc54       0x68 mesh/core/libmesh_core_nrf52832_xxAA.a(flash_manager.c.obj)
                0x0002bc54                flash_manager_init
 .text.flash_manager_remove
                0x0002bcbc       0x24 mesh/core/libmesh_core_nrf52832_xxAA.a(flash_manager.c.obj)
                0x0002bcbc                flash_manager_remove
 .text.flash_manager_entry_get
                0x0002bce0       0x48 mesh/core/libmesh_core_nrf52832_xxAA.a(flash_manager.c.obj)
                0x0002bce0                flash_manager_entry_get
 .text.flash_manager_entry_next_get
                0x0002bd28       0x6c mesh/core/libmesh_core_nrf52832_xxAA.a(flash_manager.c.obj)
                0x0002bd28                flash_manager_entry_next_get
 .text.flash_manager_entry_alloc
                0x0002bd94       0x78 mesh/core/libmesh_core_nrf52832_xxAA.a(flash_manager.c.obj)
                0x0002bd94                flash_manager_entry_alloc
 .text.flash_manager_entry_commit
                0x0002be0c       0x12 mesh/core/libmesh_core_nrf52832_xxAA.a(flash_manager.c.obj)
                0x0002be0c                flash_manager_entry_commit
 *fill*         0x0002be1e        0x2 
 .text.flash_manager_entry_invalidate
                0x0002be20       0x64 mesh/core/libmesh_core_nrf52832_xxAA.a(flash_manager.c.obj)
                0x0002be20                flash_manager_entry_invalidate
 .text.flash_manager_add
                0x0002be84      0x248 mesh/core/libmesh_core_nrf52832_xxAA.a(flash_manager.c.obj)
                0x0002be84                flash_manager_add
 .text.flash_manager_mem_listener_register
                0x0002c0cc       0x44 mesh/core/libmesh_core_nrf52832_xxAA.a(flash_manager.c.obj)
                0x0002c0cc                flash_manager_mem_listener_register
 .text.flash_manager_is_stable
                0x0002c110       0x24 mesh/core/libmesh_core_nrf52832_xxAA.a(flash_manager.c.obj)
                0x0002c110                flash_manager_is_stable
 .text.flash_manager_on_defrag_end
                0x0002c134       0x58 mesh/core/libmesh_core_nrf52832_xxAA.a(flash_manager.c.obj)
                0x0002c134                flash_manager_on_defrag_end
 .text.flash_manager_recovery_page_get
                0x0002c18c        0x4 mesh/core/libmesh_core_nrf52832_xxAA.a(flash_manager.c.obj)
                0x0002c18c                flash_manager_recovery_page_get
 .text.flash_manager_action_queue_empty_cb_set
                0x0002c190       0x28 mesh/core/libmesh_core_nrf52832_xxAA.a(flash_manager.c.obj)
                0x0002c190                flash_manager_action_queue_empty_cb_set
 .text.utils_xor
                0x0002c1b8       0x14 mesh/core/libmesh_core_nrf52832_xxAA.a(ccm_soft.c.obj)
 .text.ccm_soft_authenticate_blocks
                0x0002c1cc       0x68 mesh/core/libmesh_core_nrf52832_xxAA.a(ccm_soft.c.obj)
 .text.utils_reverse_memcpy.constprop.0
                0x0002c234        0xa mesh/core/libmesh_core_nrf52832_xxAA.a(ccm_soft.c.obj)
 .text.ccm_soft_authenticate
                0x0002c23e       0xa0 mesh/core/libmesh_core_nrf52832_xxAA.a(ccm_soft.c.obj)
 .text.ccm_soft_crypt
                0x0002c2de       0x6c mesh/core/libmesh_core_nrf52832_xxAA.a(ccm_soft.c.obj)
 .text.ccm_soft_encrypt
                0x0002c34a       0x70 mesh/core/libmesh_core_nrf52832_xxAA.a(ccm_soft.c.obj)
                0x0002c34a                ccm_soft_encrypt
 .text.ccm_soft_decrypt
                0x0002c3ba       0xfe mesh/core/libmesh_core_nrf52832_xxAA.a(ccm_soft.c.obj)
                0x0002c3ba                ccm_soft_decrypt
 .text.beacon_init
                0x0002c4b8       0x48 mesh/core/libmesh_core_nrf52832_xxAA.a(beacon.c.obj)
                0x0002c4b8                beacon_init
 .text.beacon_create
                0x0002c500       0x46 mesh/core/libmesh_core_nrf52832_xxAA.a(beacon.c.obj)
                0x0002c500                beacon_create
 *fill*         0x0002c546        0x2 
 .text.beacon_tx
                0x0002c548       0x3c mesh/core/libmesh_core_nrf52832_xxAA.a(beacon.c.obj)
                0x0002c548                beacon_tx
 .text.beacon_packet_in
                0x0002c584      0x160 mesh/core/libmesh_core_nrf52832_xxAA.a(beacon.c.obj)
                0x0002c584                beacon_packet_in
 .text.entry_get
                0x0002c6e4       0x88 mesh/core/libmesh_core_nrf52832_xxAA.a(flash_manager_internal.c.obj)
                0x0002c6e4                entry_get
 .text.is_power_of_two
                0x0002c76c        0xe mesh/core/libmesh_core_nrf52832_xxAA.a(core_tx.c.obj)
 *fill*         0x0002c77a        0x2 
 .text.bearer_if_get
                0x0002c77c       0x44 mesh/core/libmesh_core_nrf52832_xxAA.a(core_tx.c.obj)
 .text.core_tx_complete_cb_set
                0x0002c7c0        0xc mesh/core/libmesh_core_nrf52832_xxAA.a(core_tx.c.obj)
                0x0002c7c0                core_tx_complete_cb_set
 .text.core_tx_packet_alloc
                0x0002c7cc       0x88 mesh/core/libmesh_core_nrf52832_xxAA.a(core_tx.c.obj)
                0x0002c7cc                core_tx_packet_alloc
 .text.core_tx_packet_send
                0x0002c854       0x80 mesh/core/libmesh_core_nrf52832_xxAA.a(core_tx.c.obj)
                0x0002c854                core_tx_packet_send
 .text.core_tx_packet_discard
                0x0002c8d4       0x80 mesh/core/libmesh_core_nrf52832_xxAA.a(core_tx.c.obj)
                0x0002c8d4                core_tx_packet_discard
 .text.core_tx_complete
                0x0002c954       0x10 mesh/core/libmesh_core_nrf52832_xxAA.a(core_tx.c.obj)
                0x0002c954                core_tx_complete
 .text.core_tx_bearer_register
                0x0002c964       0x84 mesh/core/libmesh_core_nrf52832_xxAA.a(core_tx.c.obj)
                0x0002c964                core_tx_bearer_register
 .text.heartbeat_subscription_timer_cb
                0x0002c9e8       0x1c mesh/core/libmesh_core_nrf52832_xxAA.a(heartbeat.c.obj)
 .text.heartbeat_opcode_handle
                0x0002ca04       0x78 mesh/core/libmesh_core_nrf52832_xxAA.a(heartbeat.c.obj)
 .text.heartbeat_send
                0x0002ca7c       0xd0 mesh/core/libmesh_core_nrf52832_xxAA.a(heartbeat.c.obj)
 .text.heartbeat_core_evt_cb
                0x0002cb4c       0x90 mesh/core/libmesh_core_nrf52832_xxAA.a(heartbeat.c.obj)
 .text.heartbeat_publication_timer_cb
                0x0002cbdc       0xc8 mesh/core/libmesh_core_nrf52832_xxAA.a(heartbeat.c.obj)
 .text.heartbeat_on_feature_change_trigger
                0x0002cca4       0x50 mesh/core/libmesh_core_nrf52832_xxAA.a(heartbeat.c.obj)
                0x0002cca4                heartbeat_on_feature_change_trigger
 .text.heartbeat_init
                0x0002ccf4       0x8c mesh/core/libmesh_core_nrf52832_xxAA.a(heartbeat.c.obj)
                0x0002ccf4                heartbeat_init
 .text.heartbeat_subscription_set
                0x0002cd80       0x90 mesh/core/libmesh_core_nrf52832_xxAA.a(heartbeat.c.obj)
                0x0002cd80                heartbeat_subscription_set
 .text.heartbeat_subscription_get
                0x0002ce10        0x8 mesh/core/libmesh_core_nrf52832_xxAA.a(heartbeat.c.obj)
                0x0002ce10                heartbeat_subscription_get
 .text.heartbeat_config_server_cb_set
                0x0002ce18       0x3c mesh/core/libmesh_core_nrf52832_xxAA.a(heartbeat.c.obj)
                0x0002ce18                heartbeat_config_server_cb_set
 .text.heartbeat_publication_state_updated
                0x0002ce54       0x80 mesh/core/libmesh_core_nrf52832_xxAA.a(heartbeat.c.obj)
                0x0002ce54                heartbeat_publication_state_updated
 .text.make_network_beacon_cmac
                0x0002ced4       0x22 mesh/core/libmesh_core_nrf52832_xxAA.a(net_beacon.c.obj)
 *fill*         0x0002cef6        0x2 
 .text.network_beacon_tx_cb
                0x0002cef8       0xe8 mesh/core/libmesh_core_nrf52832_xxAA.a(net_beacon.c.obj)
 .text.net_beacon_init
                0x0002cfe0       0x60 mesh/core/libmesh_core_nrf52832_xxAA.a(net_beacon.c.obj)
                0x0002cfe0                net_beacon_init
 .text.net_beacon_state_set
                0x0002d040       0x34 mesh/core/libmesh_core_nrf52832_xxAA.a(net_beacon.c.obj)
                0x0002d040                net_beacon_state_set
 .text.net_beacon_state_get
                0x0002d074        0xc mesh/core/libmesh_core_nrf52832_xxAA.a(net_beacon.c.obj)
                0x0002d074                net_beacon_state_get
 .text.net_beacon_packet_in
                0x0002d080      0x104 mesh/core/libmesh_core_nrf52832_xxAA.a(net_beacon.c.obj)
                0x0002d080                net_beacon_packet_in
 .text.packet_discard
                0x0002d184       0x14 mesh/core/libmesh_core_nrf52832_xxAA.a(core_tx_adv.c.obj)
 .text.packet_send
                0x0002d198       0x14 mesh/core/libmesh_core_nrf52832_xxAA.a(core_tx_adv.c.obj)
 .text.packet_alloc
                0x0002d1ac       0x3c mesh/core/libmesh_core_nrf52832_xxAA.a(core_tx_adv.c.obj)
 .text.adv_tx_complete_callback
                0x0002d1e8       0x30 mesh/core/libmesh_core_nrf52832_xxAA.a(core_tx_adv.c.obj)
 .text.core_tx_adv_init
                0x0002d218       0x58 mesh/core/libmesh_core_nrf52832_xxAA.a(core_tx_adv.c.obj)
                0x0002d218                core_tx_adv_init
 .text.core_tx_adv_count_set
                0x0002d270       0x38 mesh/core/libmesh_core_nrf52832_xxAA.a(core_tx_adv.c.obj)
                0x0002d270                core_tx_adv_count_set
 .text.core_tx_adv_count_get
                0x0002d2a8       0x28 mesh/core/libmesh_core_nrf52832_xxAA.a(core_tx_adv.c.obj)
                0x0002d2a8                core_tx_adv_count_get
 .text.core_tx_adv_interval_set
                0x0002d2d0       0x34 mesh/core/libmesh_core_nrf52832_xxAA.a(core_tx_adv.c.obj)
                0x0002d2d0                core_tx_adv_interval_set
 .text.core_tx_adv_interval_get
                0x0002d304       0x34 mesh/core/libmesh_core_nrf52832_xxAA.a(core_tx_adv.c.obj)
                0x0002d304                core_tx_adv_interval_get
 .text.ad_listener_subscribe
                0x0002d338       0x5c mesh/core/libmesh_core_nrf52832_xxAA.a(ad_listener.c.obj)
                0x0002d338                ad_listener_subscribe
 .text.ad_listener_process
                0x0002d394       0x64 mesh/core/libmesh_core_nrf52832_xxAA.a(ad_listener.c.obj)
                0x0002d394                ad_listener_process
 .text.adtype_filter_handle
                0x0002d3f8       0x64 mesh/core/libmesh_core_nrf52832_xxAA.a(ad_type_filter.c.obj)
 .text.bearer_adtype_filtering_set
                0x0002d45c       0x1c mesh/core/libmesh_core_nrf52832_xxAA.a(ad_type_filter.c.obj)
                0x0002d45c                bearer_adtype_filtering_set
 .text.bearer_adtype_add
                0x0002d478       0x20 mesh/core/libmesh_core_nrf52832_xxAA.a(ad_type_filter.c.obj)
                0x0002d478                bearer_adtype_add
 .text.bearer_adtype_mode_set
                0x0002d498       0x24 mesh/core/libmesh_core_nrf52832_xxAA.a(ad_type_filter.c.obj)
                0x0002d498                bearer_adtype_mode_set
 .text.set_gap_addr_type
                0x0002d4bc       0x34 mesh/core/libmesh_core_nrf52832_xxAA.a(advertiser.c.obj)
 .text.tx_complete_event_callback
                0x0002d4f0       0x3c mesh/core/libmesh_core_nrf52832_xxAA.a(advertiser.c.obj)
 .text.broadcast_complete_cb
                0x0002d52c       0x64 mesh/core/libmesh_core_nrf52832_xxAA.a(advertiser.c.obj)
 .text.schedule_first_time
                0x0002d590       0x28 mesh/core/libmesh_core_nrf52832_xxAA.a(advertiser.c.obj)
 .text.timeout_event
                0x0002d5b8      0x130 mesh/core/libmesh_core_nrf52832_xxAA.a(advertiser.c.obj)
 .text.advertiser_init
                0x0002d6e8        0xc mesh/core/libmesh_core_nrf52832_xxAA.a(advertiser.c.obj)
                0x0002d6e8                advertiser_init
 .text.advertiser_enable
                0x0002d6f4       0x2a mesh/core/libmesh_core_nrf52832_xxAA.a(advertiser.c.obj)
                0x0002d6f4                advertiser_enable
 *fill*         0x0002d71e        0x2 
 .text.advertiser_packet_alloc
                0x0002d720       0x94 mesh/core/libmesh_core_nrf52832_xxAA.a(advertiser.c.obj)
                0x0002d720                advertiser_packet_alloc
 .text.advertiser_packet_send
                0x0002d7b4       0x78 mesh/core/libmesh_core_nrf52832_xxAA.a(advertiser.c.obj)
                0x0002d7b4                advertiser_packet_send
 .text.advertiser_packet_discard
                0x0002d82c       0x2c mesh/core/libmesh_core_nrf52832_xxAA.a(advertiser.c.obj)
                0x0002d82c                advertiser_packet_discard
 .text.advertiser_interval_set
                0x0002d858       0x68 mesh/core/libmesh_core_nrf52832_xxAA.a(advertiser.c.obj)
                0x0002d858                advertiser_interval_set
 .text.advertiser_flush
                0x0002d8c0       0x1e mesh/core/libmesh_core_nrf52832_xxAA.a(advertiser.c.obj)
                0x0002d8c0                advertiser_flush
 *fill*         0x0002d8de        0x2 
 .text.advertiser_address_default_get
                0x0002d8e0       0x38 mesh/core/libmesh_core_nrf52832_xxAA.a(advertiser.c.obj)
                0x0002d8e0                advertiser_address_default_get
 .text.advertiser_instance_init
                0x0002d918       0xbc mesh/core/libmesh_core_nrf52832_xxAA.a(advertiser.c.obj)
                0x0002d918                advertiser_instance_init
 .text.action_switch
                0x0002d9d4       0xc0 mesh/core/libmesh_core_nrf52832_xxAA.a(bearer_handler.c.obj)
 .text.bearer_handler_init
                0x0002da94       0x2c mesh/core/libmesh_core_nrf52832_xxAA.a(bearer_handler.c.obj)
                0x0002da94                bearer_handler_init
 .text.bearer_handler_start
                0x0002dac0       0x1c mesh/core/libmesh_core_nrf52832_xxAA.a(bearer_handler.c.obj)
                0x0002dac0                bearer_handler_start
 .text.bearer_handler_action_enqueue
                0x0002dadc       0x94 mesh/core/libmesh_core_nrf52832_xxAA.a(bearer_handler.c.obj)
                0x0002dadc                bearer_handler_action_enqueue
 .text.bearer_handler_action_end
                0x0002db70       0x78 mesh/core/libmesh_core_nrf52832_xxAA.a(bearer_handler.c.obj)
                0x0002db70                bearer_handler_action_end
 .text.bearer_handler_radio_irq_handler
                0x0002dbe8       0x64 mesh/core/libmesh_core_nrf52832_xxAA.a(bearer_handler.c.obj)
                0x0002dbe8                bearer_handler_radio_irq_handler
 .text.bearer_handler_timer_irq_handler
                0x0002dc4c       0x30 mesh/core/libmesh_core_nrf52832_xxAA.a(bearer_handler.c.obj)
                0x0002dc4c                bearer_handler_timer_irq_handler
 .text.bearer_handler_on_ts_begin
                0x0002dc7c       0x44 mesh/core/libmesh_core_nrf52832_xxAA.a(bearer_handler.c.obj)
                0x0002dc7c                bearer_handler_on_ts_begin
 .text.bearer_handler_on_ts_end
                0x0002dcc0       0x48 mesh/core/libmesh_core_nrf52832_xxAA.a(bearer_handler.c.obj)
                0x0002dcc0                bearer_handler_on_ts_end
 .text.radio_irq_handler
                0x0002dd08       0xb0 mesh/core/libmesh_core_nrf52832_xxAA.a(broadcast.c.obj)
 .text.broadcast_start
                0x0002ddb8       0x8c mesh/core/libmesh_core_nrf52832_xxAA.a(broadcast.c.obj)
 .text.broadcast_send
                0x0002de44       0x80 mesh/core/libmesh_core_nrf52832_xxAA.a(broadcast.c.obj)
                0x0002de44                broadcast_send
 .text.fen_filter_start
                0x0002dec4       0x3c mesh/core/libmesh_core_nrf52832_xxAA.a(filter_engine.c.obj)
                0x0002dec4                fen_filter_start
 .text.fen_filter_stop
                0x0002df00       0x2c mesh/core/libmesh_core_nrf52832_xxAA.a(filter_engine.c.obj)
                0x0002df00                fen_filter_stop
 .text.fen_filters_apply
                0x0002df2c       0x34 mesh/core/libmesh_core_nrf52832_xxAA.a(filter_engine.c.obj)
                0x0002df2c                fen_filters_apply
 .text.radio_config_reset
                0x0002df60       0x34 mesh/core/libmesh_core_nrf52832_xxAA.a(radio_config.c.obj)
                0x0002df60                radio_config_reset
 .text.radio_config_channel_set
                0x0002df94       0x34 mesh/core/libmesh_core_nrf52832_xxAA.a(radio_config.c.obj)
                0x0002df94                radio_config_channel_set
 .text.radio_config_config
                0x0002dfc8       0xa4 mesh/core/libmesh_core_nrf52832_xxAA.a(radio_config.c.obj)
                0x0002dfc8                radio_config_config
 .text.radio_config_access_addr_set
                0x0002e06c       0x68 mesh/core/libmesh_core_nrf52832_xxAA.a(radio_config.c.obj)
                0x0002e06c                radio_config_access_addr_set
 .text.radio_trigger
                0x0002e0d4       0x24 mesh/core/libmesh_core_nrf52832_xxAA.a(scanner.c.obj)
 .text.scan_window_end
                0x0002e0f8       0x10 mesh/core/libmesh_core_nrf52832_xxAA.a(scanner.c.obj)
 .text.scan_window_start
                0x0002e108       0x24 mesh/core/libmesh_core_nrf52832_xxAA.a(scanner.c.obj)
 .text.radio_configure
                0x0002e12c       0x78 mesh/core/libmesh_core_nrf52832_xxAA.a(scanner.c.obj)
 .text.radio_set_packet
                0x0002e1a4       0x50 mesh/core/libmesh_core_nrf52832_xxAA.a(scanner.c.obj)
 .text.radio_start
                0x0002e1f4       0x4c mesh/core/libmesh_core_nrf52832_xxAA.a(scanner.c.obj)
 .text.radio_stop
                0x0002e240       0x30 mesh/core/libmesh_core_nrf52832_xxAA.a(scanner.c.obj)
 .text.schedule_timers
                0x0002e270       0x38 mesh/core/libmesh_core_nrf52832_xxAA.a(scanner.c.obj)
 .text.scanner_radio_start
                0x0002e2a8       0x28 mesh/core/libmesh_core_nrf52832_xxAA.a(scanner.c.obj)
                0x0002e2a8                scanner_radio_start
 .text.scanner_radio_stop
                0x0002e2d0       0x10 mesh/core/libmesh_core_nrf52832_xxAA.a(scanner.c.obj)
                0x0002e2d0                scanner_radio_stop
 .text.scanner_radio_irq_handler
                0x0002e2e0      0x13c mesh/core/libmesh_core_nrf52832_xxAA.a(scanner.c.obj)
                0x0002e2e0                scanner_radio_irq_handler
 .text.scanner_enable
                0x0002e41c       0x30 mesh/core/libmesh_core_nrf52832_xxAA.a(scanner.c.obj)
                0x0002e41c                scanner_enable
 .text.scanner_packet_release
                0x0002e44c       0x38 mesh/core/libmesh_core_nrf52832_xxAA.a(scanner.c.obj)
                0x0002e44c                scanner_packet_release
 .text.scanner_rx
                0x0002e484       0x30 mesh/core/libmesh_core_nrf52832_xxAA.a(scanner.c.obj)
                0x0002e484                scanner_rx
 .text.scanner_rx_pending
                0x0002e4b4        0xc mesh/core/libmesh_core_nrf52832_xxAA.a(scanner.c.obj)
                0x0002e4b4                scanner_rx_pending
 .text.scanner_config_scan_time_set
                0x0002e4c0       0x68 mesh/core/libmesh_core_nrf52832_xxAA.a(scanner.c.obj)
                0x0002e4c0                scanner_config_scan_time_set
 .text.scanner_config_channels_set
                0x0002e528       0x64 mesh/core/libmesh_core_nrf52832_xxAA.a(scanner.c.obj)
                0x0002e528                scanner_config_channels_set
 .text.scanner_config_access_addresses_set
                0x0002e58c       0x44 mesh/core/libmesh_core_nrf52832_xxAA.a(scanner.c.obj)
                0x0002e58c                scanner_config_access_addresses_set
 .text.scanner_config_reset
                0x0002e5d0       0x50 mesh/core/libmesh_core_nrf52832_xxAA.a(scanner.c.obj)
                0x0002e5d0                scanner_config_reset
 .text.scanner_init
                0x0002e620       0x54 mesh/core/libmesh_core_nrf52832_xxAA.a(scanner.c.obj)
                0x0002e620                scanner_init
 .text.internal_event_push
                0x0002e674       0x28 mesh/core/libmesh_core_nrf52832_xxAA.a(internal_event.c.obj)
                0x0002e674                internal_event_push
 .text.sd_ecb_block_encrypt
                0x0002e69c        0x4 mesh/core/libmesh_core_nrf52832_xxAA.a(aes.c.obj)
 .text.aes_encrypt
                0x0002e6a0       0x32 mesh/core/libmesh_core_nrf52832_xxAA.a(aes.c.obj)
                0x0002e6a0                aes_encrypt
 *fill*         0x0002e6d2        0x2 
 .text.msg_cache_init
                0x0002e6d4       0x24 mesh/core/libmesh_core_nrf52832_xxAA.a(msg_cache.c.obj)
                0x0002e6d4                msg_cache_init
 .text.msg_cache_entry_exists
                0x0002e6f8       0x3c mesh/core/libmesh_core_nrf52832_xxAA.a(msg_cache.c.obj)
                0x0002e6f8                msg_cache_entry_exists
 .text.msg_cache_entry_add
                0x0002e734       0x2c mesh/core/libmesh_core_nrf52832_xxAA.a(msg_cache.c.obj)
                0x0002e734                msg_cache_entry_add
 .text.block_ack_full
                0x0002e760       0x28 mesh/core/libmesh_core_nrf52832_xxAA.a(transport.c.obj)
 .text.seqauth_sequence_number_get
                0x0002e788       0x12 mesh/core/libmesh_core_nrf52832_xxAA.a(transport.c.obj)
 *fill*         0x0002e79a        0x2 
 .text.sar_rx_session_mark_as_handled
                0x0002e79c       0x54 mesh/core/libmesh_core_nrf52832_xxAA.a(transport.c.obj)
 .text.sar_ctx_find
                0x0002e7f0       0x3c mesh/core/libmesh_core_nrf52832_xxAA.a(transport.c.obj)
 .text.control_packet_callback_get
                0x0002e82c       0x44 mesh/core/libmesh_core_nrf52832_xxAA.a(transport.c.obj)
 .text.m_send_sar_cancel_event
                0x0002e870       0x28 mesh/core/libmesh_core_nrf52832_xxAA.a(transport.c.obj)
 .text.tx_complete
                0x0002e898       0x34 mesh/core/libmesh_core_nrf52832_xxAA.a(transport.c.obj)
 .text.upper_trs_packet_encrypt
                0x0002e8cc       0xbc mesh/core/libmesh_core_nrf52832_xxAA.a(transport.c.obj)
 .text.sar_ctx_free
                0x0002e988       0x3c mesh/core/libmesh_core_nrf52832_xxAA.a(transport.c.obj)
 .text.sar_ctx_tx_complete
                0x0002e9c4       0xb8 mesh/core/libmesh_core_nrf52832_xxAA.a(transport.c.obj)
 .text.sar_ctx_cancel
                0x0002ea7c      0x108 mesh/core/libmesh_core_nrf52832_xxAA.a(transport.c.obj)
 .text.abort_timeout
                0x0002eb84        0x8 mesh/core/libmesh_core_nrf52832_xxAA.a(transport.c.obj)
 .text.sar_ctx_alloc
                0x0002eb8c       0xbc mesh/core/libmesh_core_nrf52832_xxAA.a(transport.c.obj)
 .text.test_transport_decrypt
                0x0002ec48       0x88 mesh/core/libmesh_core_nrf52832_xxAA.a(transport.c.obj)
 .text.upper_transport_access_packet_in
                0x0002ecd0      0x28c mesh/core/libmesh_core_nrf52832_xxAA.a(transport.c.obj)
 .text.trs_packet_header_build
                0x0002ef5c       0xa6 mesh/core/libmesh_core_nrf52832_xxAA.a(transport.c.obj)
 *fill*         0x0002f002        0x2 
 .text.tx_retry_timer_reset
                0x0002f004       0x50 mesh/core/libmesh_core_nrf52832_xxAA.a(transport.c.obj)
 .text.trs_sar_packet_out
                0x0002f054       0xec mesh/core/libmesh_core_nrf52832_xxAA.a(transport.c.obj)
 .text.retry_timeout
                0x0002f140       0x54 mesh/core/libmesh_core_nrf52832_xxAA.a(transport.c.obj)
 .text.upper_transport_packet_in
                0x0002f194      0x1b0 mesh/core/libmesh_core_nrf52832_xxAA.a(transport.c.obj)
 .text.upper_transport_tx
                0x0002f344      0x230 mesh/core/libmesh_core_nrf52832_xxAA.a(transport.c.obj)
 .text.transport_sar_mem_funcs_reset
                0x0002f574       0x28 mesh/core/libmesh_core_nrf52832_xxAA.a(transport.c.obj)
                0x0002f574                transport_sar_mem_funcs_reset
 .text.transport_init
                0x0002f59c       0x7c mesh/core/libmesh_core_nrf52832_xxAA.a(transport.c.obj)
                0x0002f59c                transport_init
 .text.transport_tx
                0x0002f618       0xa4 mesh/core/libmesh_core_nrf52832_xxAA.a(transport.c.obj)
                0x0002f618                transport_tx
 .text.transport_control_tx
                0x0002f6bc       0x8e mesh/core/libmesh_core_nrf52832_xxAA.a(transport.c.obj)
                0x0002f6bc                transport_control_tx
 *fill*         0x0002f74a        0x2 
 .text.sar_ack_send
                0x0002f74c      0x124 mesh/core/libmesh_core_nrf52832_xxAA.a(transport.c.obj)
 .text.transport_sar_process
                0x0002f870       0x74 mesh/core/libmesh_core_nrf52832_xxAA.a(transport.c.obj)
 .text.transport_packet_in
                0x0002f8e4      0x524 mesh/core/libmesh_core_nrf52832_xxAA.a(transport.c.obj)
                0x0002f8e4                transport_packet_in
 .text.ack_timeout
                0x0002fe08       0x34 mesh/core/libmesh_core_nrf52832_xxAA.a(transport.c.obj)
 .text.transport_opt_set
                0x0002fe3c       0xd0 mesh/core/libmesh_core_nrf52832_xxAA.a(transport.c.obj)
                0x0002fe3c                transport_opt_set
 .text.transport_opt_get
                0x0002ff0c       0x68 mesh/core/libmesh_core_nrf52832_xxAA.a(transport.c.obj)
                0x0002ff0c                transport_opt_get
 .text.transport_control_packet_consumer_add
                0x0002ff74       0x5c mesh/core/libmesh_core_nrf52832_xxAA.a(transport.c.obj)
                0x0002ff74                transport_control_packet_consumer_add
 .text.m_adjust_desired_packet_length
                0x0002ffd0       0x34 mesh/core/libmesh_core_nrf52832_xxAA.a(packet_buffer.c.obj)
 .text.m_index_increment.part.0
                0x00030004       0x14 mesh/core/libmesh_core_nrf52832_xxAA.a(packet_buffer.c.obj)
 .text.m_free_popped_packet
                0x00030018       0x60 mesh/core/libmesh_core_nrf52832_xxAA.a(packet_buffer.c.obj)
 .text.free_skipped_packets
                0x00030078       0x1c mesh/core/libmesh_core_nrf52832_xxAA.a(packet_buffer.c.obj)
 .text.packet_buffer_init
                0x00030094       0xe0 mesh/core/libmesh_core_nrf52832_xxAA.a(packet_buffer.c.obj)
                0x00030094                packet_buffer_init
 .text.packet_buffer_flush
                0x00030174       0x5e mesh/core/libmesh_core_nrf52832_xxAA.a(packet_buffer.c.obj)
                0x00030174                packet_buffer_flush
 *fill*         0x000301d2        0x2 
 .text.packet_buffer_reserve
                0x000301d4      0x11c mesh/core/libmesh_core_nrf52832_xxAA.a(packet_buffer.c.obj)
                0x000301d4                packet_buffer_reserve
 .text.packet_buffer_commit
                0x000302f0      0x104 mesh/core/libmesh_core_nrf52832_xxAA.a(packet_buffer.c.obj)
                0x000302f0                packet_buffer_commit
 .text.packet_buffer_pop
                0x000303f4       0x58 mesh/core/libmesh_core_nrf52832_xxAA.a(packet_buffer.c.obj)
                0x000303f4                packet_buffer_pop
 .text.packet_buffer_can_pop
                0x0003044c       0x28 mesh/core/libmesh_core_nrf52832_xxAA.a(packet_buffer.c.obj)
                0x0003044c                packet_buffer_can_pop
 .text.packet_buffer_packets_ready_to_pop
                0x00030474       0x58 mesh/core/libmesh_core_nrf52832_xxAA.a(packet_buffer.c.obj)
                0x00030474                packet_buffer_packets_ready_to_pop
 .text.packet_buffer_free
                0x000304cc       0x8c mesh/core/libmesh_core_nrf52832_xxAA.a(packet_buffer.c.obj)
                0x000304cc                packet_buffer_free
 .text.get_last_page
                0x00030558       0x14 mesh/core/libmesh_core_nrf52832_xxAA.a(flash_manager_defrag.c.obj)
 .text.defrag_on_end
                0x0003056c       0x1c mesh/core/libmesh_core_nrf52832_xxAA.a(flash_manager_defrag.c.obj)
 .text.execute_procedure_step
                0x00030588       0xa0 mesh/core/libmesh_core_nrf52832_xxAA.a(flash_manager_defrag.c.obj)
 .text.get_next_entry
                0x00030628       0x40 mesh/core/libmesh_core_nrf52832_xxAA.a(flash_manager_defrag.c.obj)
 .text.get_next_data_entry
                0x00030668       0x20 mesh/core/libmesh_core_nrf52832_xxAA.a(flash_manager_defrag.c.obj)
 .text.on_flash_op_end
                0x00030688       0x30 mesh/core/libmesh_core_nrf52832_xxAA.a(flash_manager_defrag.c.obj)
 .text.check_for_invalid_entries
                0x000306b8       0x38 mesh/core/libmesh_core_nrf52832_xxAA.a(flash_manager_defrag.c.obj)
 .text.erase_recovery_area
                0x000306f0       0x34 mesh/core/libmesh_core_nrf52832_xxAA.a(flash_manager_defrag.c.obj)
 .text.flash.constprop.6
                0x00030724       0x24 mesh/core/libmesh_core_nrf52832_xxAA.a(flash_manager_defrag.c.obj)
 .text.seal_storage_page
                0x00030748       0x50 mesh/core/libmesh_core_nrf52832_xxAA.a(flash_manager_defrag.c.obj)
 .text.invalidate_duplicate_entries
                0x00030798       0x9c mesh/core/libmesh_core_nrf52832_xxAA.a(flash_manager_defrag.c.obj)
 .text.copy_metadata
                0x00030834       0x3c mesh/core/libmesh_core_nrf52832_xxAA.a(flash_manager_defrag.c.obj)
 .text.write_defrag_start_pointer
                0x00030870       0x20 mesh/core/libmesh_core_nrf52832_xxAA.a(flash_manager_defrag.c.obj)
 .text.write_back
                0x00030890       0x28 mesh/core/libmesh_core_nrf52832_xxAA.a(flash_manager_defrag.c.obj)
 .text.post_process
                0x000308b8       0x40 mesh/core/libmesh_core_nrf52832_xxAA.a(flash_manager_defrag.c.obj)
 .text.backup_entries
                0x000308f8      0x118 mesh/core/libmesh_core_nrf52832_xxAA.a(flash_manager_defrag.c.obj)
 .text.erase_source
                0x00030a10       0x34 mesh/core/libmesh_core_nrf52832_xxAA.a(flash_manager_defrag.c.obj)
 .text.flash_manager_defrag_init
                0x00030a44       0x98 mesh/core/libmesh_core_nrf52832_xxAA.a(flash_manager_defrag.c.obj)
                0x00030a44                flash_manager_defrag_init
 .text.flash_manager_defrag_is_running
                0x00030adc       0x10 mesh/core/libmesh_core_nrf52832_xxAA.a(flash_manager_defrag.c.obj)
                0x00030adc                flash_manager_defrag_is_running
 .text.flash_manager_defrag
                0x00030aec       0xd8 mesh/core/libmesh_core_nrf52832_xxAA.a(flash_manager_defrag.c.obj)
                0x00030aec                flash_manager_defrag
 .text.flash_manager_defrag_recovery_page_get
                0x00030bc4        0xc mesh/core/libmesh_core_nrf52832_xxAA.a(flash_manager_defrag.c.obj)
                0x00030bc4                flash_manager_defrag_recovery_page_get
 .text.packet_mgr_init
                0x00030bd0       0x4c mesh/core/libmesh_core_nrf52832_xxAA.a(packet_mgr.c.obj)
                0x00030bd0                packet_mgr_init
 .text.send_end_events
                0x00030c1c       0x84 mesh/core/libmesh_core_nrf52832_xxAA.a(mesh_flash.c.obj)
 .text.flash_op_schedule
                0x00030ca0       0x9c mesh/core/libmesh_core_nrf52832_xxAA.a(mesh_flash.c.obj)
 .text.flash_op_start
                0x00030d3c      0x170 mesh/core/libmesh_core_nrf52832_xxAA.a(mesh_flash.c.obj)
 .text.mesh_flash_init
                0x00030eac       0x88 mesh/core/libmesh_core_nrf52832_xxAA.a(mesh_flash.c.obj)
                0x00030eac                mesh_flash_init
 .text.mesh_flash_user_callback_set
                0x00030f34       0x2c mesh/core/libmesh_core_nrf52832_xxAA.a(mesh_flash.c.obj)
                0x00030f34                mesh_flash_user_callback_set
 .text.mesh_flash_op_push
                0x00030f60      0x128 mesh/core/libmesh_core_nrf52832_xxAA.a(mesh_flash.c.obj)
                0x00030f60                mesh_flash_op_push
 .text.queue_init
                0x00031088       0x20 mesh/core/libmesh_core_nrf52832_xxAA.a(queue.c.obj)
                0x00031088                queue_init
 .text.queue_push
                0x000310a8       0x48 mesh/core/libmesh_core_nrf52832_xxAA.a(queue.c.obj)
                0x000310a8                queue_push
 .text.queue_pop
                0x000310f0       0x34 mesh/core/libmesh_core_nrf52832_xxAA.a(queue.c.obj)
                0x000310f0                queue_pop
 .text.queue_peek
                0x00031124       0x1c mesh/core/libmesh_core_nrf52832_xxAA.a(queue.c.obj)
                0x00031124                queue_peek
 .text.my_xor.constprop.1
                0x00031140       0x20 mesh/core/libmesh_core_nrf52832_xxAA.a(aes_cmac.c.obj)
 .text.utils_lshift.constprop.2
                0x00031160       0x24 mesh/core/libmesh_core_nrf52832_xxAA.a(aes_cmac.c.obj)
 .text.aes_cmac_subkey_generate
                0x00031184       0x6c mesh/core/libmesh_core_nrf52832_xxAA.a(aes_cmac.c.obj)
                0x00031184                aes_cmac_subkey_generate
 .text.aes_cmac
                0x000311f0       0xbc mesh/core/libmesh_core_nrf52832_xxAA.a(aes_cmac.c.obj)
                0x000311f0                aes_cmac
 .text.stage_get_available
                0x000312ac       0x24 mesh/core/libmesh_core_nrf52832_xxAA.a(msqueue.c.obj)
 .text.msq_get  0x000312d0       0x4c mesh/core/libmesh_core_nrf52832_xxAA.a(msqueue.c.obj)
                0x000312d0                msq_get
 .text.msq_move
                0x0003131c       0x44 mesh/core/libmesh_core_nrf52832_xxAA.a(msqueue.c.obj)
                0x0003131c                msq_move
 .text.msq_reset
                0x00031360       0x2c mesh/core/libmesh_core_nrf52832_xxAA.a(msqueue.c.obj)
                0x00031360                msq_reset
 .text.msq_init
                0x0003138c       0x78 mesh/core/libmesh_core_nrf52832_xxAA.a(msqueue.c.obj)
                0x0003138c                msq_init
 .text.msq_available
                0x00031404       0x3c mesh/core/libmesh_core_nrf52832_xxAA.a(msqueue.c.obj)
                0x00031404                msq_available
 .text.replay_cache_add
                0x00031440       0x60 mesh/core/libmesh_core_nrf52832_xxAA.a(replay_cache.c.obj)
                0x00031440                replay_cache_add
 .text.replay_cache_has_room
                0x000314a0       0x38 mesh/core/libmesh_core_nrf52832_xxAA.a(replay_cache.c.obj)
                0x000314a0                replay_cache_has_room
 .text.replay_cache_has_elem
                0x000314d8       0x38 mesh/core/libmesh_core_nrf52832_xxAA.a(replay_cache.c.obj)
                0x000314d8                replay_cache_has_elem
 .text.replay_cache_clear
                0x00031510       0x28 mesh/core/libmesh_core_nrf52832_xxAA.a(replay_cache.c.obj)
                0x00031510                replay_cache_clear
 .text.replay_cache_init
                0x00031538        0x4 mesh/core/libmesh_core_nrf52832_xxAA.a(replay_cache.c.obj)
                0x00031538                replay_cache_init
 .text.wait_for_ready
                0x0003153c       0x10 mesh/core/libmesh_core_nrf52832_xxAA.a(nrf_flash.c.obj)
 .text.nrf_flash_erase
                0x0003154c       0x50 mesh/core/libmesh_core_nrf52832_xxAA.a(nrf_flash.c.obj)
                0x0003154c                nrf_flash_erase
 .text.nrf_flash_write
                0x0003159c       0x50 mesh/core/libmesh_core_nrf52832_xxAA.a(nrf_flash.c.obj)
                0x0003159c                nrf_flash_write
 .text._GetAvailWriteSpace
                0x000315ec       0x1c external/rtt/librtt_nrf52832_xxAA.a(SEGGER_RTT.c.obj)
 .text._WriteNoCheck
                0x00031608       0x3c external/rtt/librtt_nrf52832_xxAA.a(SEGGER_RTT.c.obj)
 .text._WriteBlocking
                0x00031644       0x52 external/rtt/librtt_nrf52832_xxAA.a(SEGGER_RTT.c.obj)
 *fill*         0x00031696        0x2 
 .text._DoInit  0x00031698       0x60 external/rtt/librtt_nrf52832_xxAA.a(SEGGER_RTT.c.obj)
 .text.SEGGER_RTT_WriteNoLock
                0x000316f8       0x68 external/rtt/librtt_nrf52832_xxAA.a(SEGGER_RTT.c.obj)
                0x000316f8                SEGGER_RTT_WriteNoLock
 .text.SEGGER_RTT_Write
                0x00031760       0x34 external/rtt/librtt_nrf52832_xxAA.a(SEGGER_RTT.c.obj)
                0x00031760                SEGGER_RTT_Write
 .text._StoreChar
                0x00031794       0x3e external/rtt/librtt_nrf52832_xxAA.a(SEGGER_RTT_printf.c.obj)
 *fill*         0x000317d2        0x2 
 .text._PrintUnsigned
                0x000317d4       0xd0 external/rtt/librtt_nrf52832_xxAA.a(SEGGER_RTT_printf.c.obj)
 .text.SEGGER_RTT_vprintf
                0x000318a4      0x246 external/rtt/librtt_nrf52832_xxAA.a(SEGGER_RTT_printf.c.obj)
                0x000318a4                SEGGER_RTT_vprintf
 .text.SEGGER_RTT_printf
                0x00031aea       0x1e external/rtt/librtt_nrf52832_xxAA.a(SEGGER_RTT_printf.c.obj)
                0x00031aea                SEGGER_RTT_printf
 .text.uECC_vli_mult
                0x00031b08       0x64 external/micro-ecc/libuECC_nrf52832_xxAA.a(uECC.c.obj)
 .text.uECC_vli_clear
                0x00031b6c       0x16 external/micro-ecc/libuECC_nrf52832_xxAA.a(uECC.c.obj)
 .text.uECC_vli_isZero
                0x00031b82       0x1e external/micro-ecc/libuECC_nrf52832_xxAA.a(uECC.c.obj)
 .text.uECC_vli_testBit
                0x00031ba0       0x14 external/micro-ecc/libuECC_nrf52832_xxAA.a(uECC.c.obj)
 .text.uECC_vli_numBits
                0x00031bb4       0x3a external/micro-ecc/libuECC_nrf52832_xxAA.a(uECC.c.obj)
 .text.uECC_vli_set
                0x00031bee       0x18 external/micro-ecc/libuECC_nrf52832_xxAA.a(uECC.c.obj)
 .text.uECC_vli_cmp_unsafe
                0x00031c06       0x28 external/micro-ecc/libuECC_nrf52832_xxAA.a(uECC.c.obj)
 .text.uECC_vli_rshift1
                0x00031c2e       0x1c external/micro-ecc/libuECC_nrf52832_xxAA.a(uECC.c.obj)
 .text.uECC_vli_modMult_fast
                0x00031c4a       0x20 external/micro-ecc/libuECC_nrf52832_xxAA.a(uECC.c.obj)
 .text.uECC_vli_modSquare_fast
                0x00031c6a        0x8 external/micro-ecc/libuECC_nrf52832_xxAA.a(uECC.c.obj)
 .text.apply_z  0x00031c72       0x3e external/micro-ecc/libuECC_nrf52832_xxAA.a(uECC.c.obj)
 .text.uECC_vli_nativeToBytes
                0x00031cb0       0x28 external/micro-ecc/libuECC_nrf52832_xxAA.a(uECC.c.obj)
 .text.uECC_vli_bytesToNative
                0x00031cd8       0x40 external/micro-ecc/libuECC_nrf52832_xxAA.a(uECC.c.obj)
 .text.default_RNG
                0x00031d18        0xc external/micro-ecc/libuECC_nrf52832_xxAA.a(uECC.c.obj)
 .text.uECC_vli_add.isra.0
                0x00031d24       0x4a external/micro-ecc/libuECC_nrf52832_xxAA.a(uECC.c.obj)
 .text.regularize_k
                0x00031d6e       0x50 external/micro-ecc/libuECC_nrf52832_xxAA.a(uECC.c.obj)
 .text.uECC_vli_sub.isra.1
                0x00031dbe       0x4e external/micro-ecc/libuECC_nrf52832_xxAA.a(uECC.c.obj)
 .text.uECC_vli_cmp
                0x00031e0c       0x30 external/micro-ecc/libuECC_nrf52832_xxAA.a(uECC.c.obj)
 .text.uECC_generate_random_int
                0x00031e3c       0x78 external/micro-ecc/libuECC_nrf52832_xxAA.a(uECC.c.obj)
 .text.uECC_vli_modAdd
                0x00031eb4       0x2e external/micro-ecc/libuECC_nrf52832_xxAA.a(uECC.c.obj)
 *fill*         0x00031ee2        0x2 
 .text.vli_mmod_fast_secp256r1
                0x00031ee4      0x194 external/micro-ecc/libuECC_nrf52832_xxAA.a(uECC.c.obj)
 .text.uECC_vli_modSub.isra.2
                0x00032078       0x1c external/micro-ecc/libuECC_nrf52832_xxAA.a(uECC.c.obj)
 .text.double_jacobian_default
                0x00032094      0x14a external/micro-ecc/libuECC_nrf52832_xxAA.a(uECC.c.obj)
 .text.x_side_default
                0x000321de       0x5a external/micro-ecc/libuECC_nrf52832_xxAA.a(uECC.c.obj)
 .text.XYcZ_add
                0x00032238       0xbc external/micro-ecc/libuECC_nrf52832_xxAA.a(uECC.c.obj)
 .text.XYcZ_addC
                0x000322f4      0x10a external/micro-ecc/libuECC_nrf52832_xxAA.a(uECC.c.obj)
 .text.vli_modInv_update
                0x000323fe       0x36 external/micro-ecc/libuECC_nrf52832_xxAA.a(uECC.c.obj)
 .text.uECC_vli_modInv
                0x00032434      0x102 external/micro-ecc/libuECC_nrf52832_xxAA.a(uECC.c.obj)
 .text.EccPoint_mult
                0x00032536      0x19e external/micro-ecc/libuECC_nrf52832_xxAA.a(uECC.c.obj)
 .text.EccPoint_compute_public_key
                0x000326d4       0x54 external/micro-ecc/libuECC_nrf52832_xxAA.a(uECC.c.obj)
 .text.uECC_secp256r1
                0x00032728        0x8 external/micro-ecc/libuECC_nrf52832_xxAA.a(uECC.c.obj)
                0x00032728                uECC_secp256r1
 .text.uECC_make_key
                0x00032730       0x7e external/micro-ecc/libuECC_nrf52832_xxAA.a(uECC.c.obj)
                0x00032730                uECC_make_key
 *fill*         0x000327ae        0x2 
 .text.uECC_shared_secret
                0x000327b0       0xbc external/micro-ecc/libuECC_nrf52832_xxAA.a(uECC.c.obj)
                0x000327b0                uECC_shared_secret
 .text.uECC_valid_point
                0x0003286c       0x86 external/micro-ecc/libuECC_nrf52832_xxAA.a(uECC.c.obj)
                0x0003286c                uECC_valid_point
 .text.uECC_valid_public_key
                0x000328f2       0x32 external/micro-ecc/libuECC_nrf52832_xxAA.a(uECC.c.obj)
                0x000328f2                uECC_valid_public_key
 .text.exit     0x00032924       0x28 c:/a/gcc_arm/6/bin/../lib/gcc/arm-none-eabi/6.3.1/../../../../arm-none-eabi/lib/thumb/v7e-m/fpv4-sp/hard\libg_nano.a(lib_a-exit.o)
                0x00032924                exit
 .text.__libc_init_array
                0x0003294c       0x48 c:/a/gcc_arm/6/bin/../lib/gcc/arm-none-eabi/6.3.1/../../../../arm-none-eabi/lib/thumb/v7e-m/fpv4-sp/hard\libg_nano.a(lib_a-init.o)
                0x0003294c                __libc_init_array
 .text.malloc   0x00032994       0x10 c:/a/gcc_arm/6/bin/../lib/gcc/arm-none-eabi/6.3.1/../../../../arm-none-eabi/lib/thumb/v7e-m/fpv4-sp/hard\libg_nano.a(lib_a-malloc.o)
                0x00032994                malloc
 .text.free     0x000329a4       0x10 c:/a/gcc_arm/6/bin/../lib/gcc/arm-none-eabi/6.3.1/../../../../arm-none-eabi/lib/thumb/v7e-m/fpv4-sp/hard\libg_nano.a(lib_a-malloc.o)
                0x000329a4                free
 .text.memcmp   0x000329b4       0x1e c:/a/gcc_arm/6/bin/../lib/gcc/arm-none-eabi/6.3.1/../../../../arm-none-eabi/lib/thumb/v7e-m/fpv4-sp/hard\libg_nano.a(lib_a-memcmp.o)
                0x000329b4                memcmp
 .text.memcpy   0x000329d2       0x16 c:/a/gcc_arm/6/bin/../lib/gcc/arm-none-eabi/6.3.1/../../../../arm-none-eabi/lib/thumb/v7e-m/fpv4-sp/hard\libg_nano.a(lib_a-memcpy-stub.o)
                0x000329d2                memcpy
 .text.memset   0x000329e8       0x10 c:/a/gcc_arm/6/bin/../lib/gcc/arm-none-eabi/6.3.1/../../../../arm-none-eabi/lib/thumb/v7e-m/fpv4-sp/hard\libg_nano.a(lib_a-memset.o)
                0x000329e8                memset
 .text._free_r  0x000329f8       0x9c c:/a/gcc_arm/6/bin/../lib/gcc/arm-none-eabi/6.3.1/../../../../arm-none-eabi/lib/thumb/v7e-m/fpv4-sp/hard\libg_nano.a(lib_a-nano-freer.o)
                0x000329f8                _free_r
 .text._malloc_r
                0x00032a94       0xbc c:/a/gcc_arm/6/bin/../lib/gcc/arm-none-eabi/6.3.1/../../../../arm-none-eabi/lib/thumb/v7e-m/fpv4-sp/hard\libg_nano.a(lib_a-nano-mallocr.o)
                0x00032a94                _malloc_r
 .text._sbrk_r  0x00032b50       0x20 c:/a/gcc_arm/6/bin/../lib/gcc/arm-none-eabi/6.3.1/../../../../arm-none-eabi/lib/thumb/v7e-m/fpv4-sp/hard\libg_nano.a(lib_a-sbrkr.o)
                0x00032b50                _sbrk_r
 .text.strcpy   0x00032b70       0x10 c:/a/gcc_arm/6/bin/../lib/gcc/arm-none-eabi/6.3.1/../../../../arm-none-eabi/lib/thumb/v7e-m/fpv4-sp/hard\libg_nano.a(lib_a-strcpy.o)
                0x00032b70                strcpy
 .text          0x00032b80       0x10 c:/a/gcc_arm/6/bin/../lib/gcc/arm-none-eabi/6.3.1/../../../../arm-none-eabi/lib/thumb/v7e-m/fpv4-sp/hard\libg_nano.a(lib_a-strlen.o)
                0x00032b80                strlen
 .text.strrchr  0x00032b90       0x26 c:/a/gcc_arm/6/bin/../lib/gcc/arm-none-eabi/6.3.1/../../../../arm-none-eabi/lib/thumb/v7e-m/fpv4-sp/hard\libg_nano.a(lib_a-strrchr.o)
                0x00032b90                strrchr
 .text.__malloc_lock
                0x00032bb6        0x2 c:/a/gcc_arm/6/bin/../lib/gcc/arm-none-eabi/6.3.1/../../../../arm-none-eabi/lib/thumb/v7e-m/fpv4-sp/hard\libg_nano.a(lib_a-mlock.o)
                0x00032bb6                __malloc_lock
 .text.__malloc_unlock
                0x00032bb8        0x2 c:/a/gcc_arm/6/bin/../lib/gcc/arm-none-eabi/6.3.1/../../../../arm-none-eabi/lib/thumb/v7e-m/fpv4-sp/hard\libg_nano.a(lib_a-mlock.o)
                0x00032bb8                __malloc_unlock
 .text.strchr   0x00032bba       0x1c c:/a/gcc_arm/6/bin/../lib/gcc/arm-none-eabi/6.3.1/../../../../arm-none-eabi/lib/thumb/v7e-m/fpv4-sp/hard\libg_nano.a(lib_a-strchr.o)
                0x00032bba                strchr
 *fill*         0x00032bd6        0x2 
 .text._sbrk    0x00032bd8       0x1c c:/a/gcc_arm/6/bin/../lib/gcc/arm-none-eabi/6.3.1/../../../../arm-none-eabi/lib/thumb/v7e-m/fpv4-sp/hard\libnosys.a(sbrk.o)
                0x00032bd8                _sbrk
 .text._exit    0x00032bf4        0x4 c:/a/gcc_arm/6/bin/../lib/gcc/arm-none-eabi/6.3.1/../../../../arm-none-eabi/lib/thumb/v7e-m/fpv4-sp/hard\libnosys.a(_exit.o)
                0x00032bf4                _exit
 *(.init)
 .init          0x00032bf8        0x4 c:/a/gcc_arm/6/bin/../lib/gcc/arm-none-eabi/6.3.1/thumb/v7e-m/fpv4-sp/hard/crti.o
                0x00032bf8                _init
 .init          0x00032bfc        0x8 c:/a/gcc_arm/6/bin/../lib/gcc/arm-none-eabi/6.3.1/thumb/v7e-m/fpv4-sp/hard/crtn.o
 *(.fini)
 .fini          0x00032c04        0x4 c:/a/gcc_arm/6/bin/../lib/gcc/arm-none-eabi/6.3.1/thumb/v7e-m/fpv4-sp/hard/crti.o
                0x00032c04                _fini
 .fini          0x00032c08        0x8 c:/a/gcc_arm/6/bin/../lib/gcc/arm-none-eabi/6.3.1/thumb/v7e-m/fpv4-sp/hard/crtn.o
 *crtbegin.o(.ctors)
 *crtbegin?.o(.ctors)
 *(EXCLUDE_FILE(*crtend.o *crtend?.o) .ctors)
 *(SORT(.ctors.*))
 *(.ctors)
 *crtbegin.o(.dtors)
 *crtbegin?.o(.dtors)
 *(EXCLUDE_FILE(*crtend.o *crtend?.o) .dtors)
 *(SORT(.dtors.*))
 *(.dtors)
 *(.rodata*)
 .rodata.configuration_setup.str1.1
                0x00032c10       0x48 examples/pb_remote/server/CMakeFiles/pb_remote_server_nrf52832_xxAA_s132_3.1.0.dir/src/main.c.obj
 .rodata.main.str1.1
                0x00032c58       0x44 examples/pb_remote/server/CMakeFiles/pb_remote_server_nrf52832_xxAA_s132_3.1.0.dir/src/main.c.obj
 .rodata.provisioning_complete.str1.1
                0x00032c9c       0x1a examples/pb_remote/server/CMakeFiles/pb_remote_server_nrf52832_xxAA_s132_3.1.0.dir/src/main.c.obj
 .rodata.static_auth_data.12627
                0x00032cb6       0x10 examples/pb_remote/server/CMakeFiles/pb_remote_server_nrf52832_xxAA_s132_3.1.0.dir/src/main.c.obj
 .rodata.HardFault_Handler.str1.1
                0x00032cc6        0xe examples/pb_remote/server/CMakeFiles/pb_remote_server_nrf52832_xxAA_s132_3.1.0.dir/__/__/nrf_mesh_sdk.c.obj
 .rodata.app_error_handler.str1.1
                0x00032cd4       0x1d examples/pb_remote/server/CMakeFiles/pb_remote_server_nrf52832_xxAA_s132_3.1.0.dir/__/__/nrf_mesh_sdk.c.obj
 .rodata.mesh_assert_handler.str1.1
                0x00032cf1       0x34 examples/pb_remote/server/CMakeFiles/pb_remote_server_nrf52832_xxAA_s132_3.1.0.dir/__/__/nrf_mesh_sdk.c.obj
 .rodata.m_buttons_list
                0x00032d25        0x4 examples/pb_remote/server/CMakeFiles/pb_remote_server_nrf52832_xxAA_s132_3.1.0.dir/__/__/common/src/simple_hal.c.obj
 *fill*         0x00032d29        0x3 
 .rodata.m_prov_callbacks
                0x00032d2c       0x10 examples/pb_remote/server/CMakeFiles/pb_remote_server_nrf52832_xxAA_s132_3.1.0.dir/__/__/__/mesh/prov/src/prov_provisionee.c.obj
 .rodata.prov_provisionee_cb_ack_received.str1.1
                0x00032d3c       0x53 examples/pb_remote/server/CMakeFiles/pb_remote_server_nrf52832_xxAA_s132_3.1.0.dir/__/__/__/mesh/prov/src/prov_provisionee.c.obj
 .rodata.pdu_sizes.10817
                0x00032d8f        0xa examples/pb_remote/server/CMakeFiles/pb_remote_server_nrf52832_xxAA_s132_3.1.0.dir/__/__/__/mesh/prov/src/provisioning.c.obj
 .rodata.alphanumeric.10922
                0x00032d99       0x25 examples/pb_remote/server/CMakeFiles/pb_remote_server_nrf52832_xxAA_s132_3.1.0.dir/__/__/__/mesh/prov/src/prov_utils.c.obj
 *fill*         0x00032dbe        0x2 
 .rodata.numeric_max.10916
                0x00032dc0       0x24 examples/pb_remote/server/CMakeFiles/pb_remote_server_nrf52832_xxAA_s132_3.1.0.dir/__/__/__/mesh/prov/src/prov_utils.c.obj
 .rodata.prov_utils_authentication_values_derive.str1.1
                0x00032de4        0x5 examples/pb_remote/server/CMakeFiles/pb_remote_server_nrf52832_xxAA_s132_3.1.0.dir/__/__/__/mesh/prov/src/prov_utils.c.obj
 .rodata.prov_utils_derive_keys.str1.1
                0x00032de9        0xf examples/pb_remote/server/CMakeFiles/pb_remote_server_nrf52832_xxAA_s132_3.1.0.dir/__/__/__/mesh/prov/src/prov_utils.c.obj
 .rodata.add_active_bearer.str1.1
                0x00032df8       0x2c examples/pb_remote/server/CMakeFiles/pb_remote_server_nrf52832_xxAA_s132_3.1.0.dir/__/__/__/mesh/prov/src/prov_bearer_adv.c.obj
 .rodata.crctable.10675
                0x00032e24      0x100 examples/pb_remote/server/CMakeFiles/pb_remote_server_nrf52832_xxAA_s132_3.1.0.dir/__/__/__/mesh/prov/src/prov_bearer_adv.c.obj
 .rodata.interface.10905
                0x00032f24       0x14 examples/pb_remote/server/CMakeFiles/pb_remote_server_nrf52832_xxAA_s132_3.1.0.dir/__/__/__/mesh/prov/src/prov_bearer_adv.c.obj
 .rodata.prov_bearer_adv_packet_in.str1.1
                0x00032f38      0x26e examples/pb_remote/server/CMakeFiles/pb_remote_server_nrf52832_xxAA_s132_3.1.0.dir/__/__/__/mesh/prov/src/prov_bearer_adv.c.obj
 .rodata.tx_retry_cb.str1.1
                0x000331a6       0x37 examples/pb_remote/server/CMakeFiles/pb_remote_server_nrf52832_xxAA_s132_3.1.0.dir/__/__/__/mesh/prov/src/prov_bearer_adv.c.obj
 *fill*         0x000331dd        0x1 
 .rodata        0x000331de       0x30 examples/pb_remote/server/CMakeFiles/pb_remote_server_nrf52832_xxAA_s132_3.1.0.dir/__/__/__/models/pb_remote/src/pb_remote_server.c.obj
 .rodata.do_state_change.str1.1
                0x0003320e       0x1e examples/pb_remote/server/CMakeFiles/pb_remote_server_nrf52832_xxAA_s132_3.1.0.dir/__/__/__/models/pb_remote/src/pb_remote_server.c.obj
 .rodata.local_link_open.isra.14.str1.1
                0x0003322c       0x27 examples/pb_remote/server/CMakeFiles/pb_remote_server_nrf52832_xxAA_s132_3.1.0.dir/__/__/__/models/pb_remote/src/pb_remote_server.c.obj
 *fill*         0x00033253        0x1 
 .rodata.m_opcode_handlers
                0x00033254       0x48 examples/pb_remote/server/CMakeFiles/pb_remote_server_nrf52832_xxAA_s132_3.1.0.dir/__/__/__/models/pb_remote/src/pb_remote_server.c.obj
 .rodata.m_pb_remote_server_event_handler_callbacks
                0x0003329c       0x3c examples/pb_remote/server/CMakeFiles/pb_remote_server_nrf52832_xxAA_s132_3.1.0.dir/__/__/__/models/pb_remote/src/pb_remote_server.c.obj
 .rodata.pb_remote_server_event_link_close_cb.str1.1
                0x000332d8       0x1d examples/pb_remote/server/CMakeFiles/pb_remote_server_nrf52832_xxAA_s132_3.1.0.dir/__/__/__/models/pb_remote/src/pb_remote_server.c.obj
 .rodata.pb_remote_server_event_link_established_cb.str1.1
                0x000332f5       0x2f examples/pb_remote/server/CMakeFiles/pb_remote_server_nrf52832_xxAA_s132_3.1.0.dir/__/__/__/models/pb_remote/src/pb_remote_server.c.obj
 .rodata.pb_remote_server_event_link_status_cb.str1.1
                0x00033324       0x8d examples/pb_remote/server/CMakeFiles/pb_remote_server_nrf52832_xxAA_s132_3.1.0.dir/__/__/__/models/pb_remote/src/pb_remote_server.c.obj
 .rodata.pb_remote_server_event_local_ack_cb.str1.1
                0x000333b1       0x16 examples/pb_remote/server/CMakeFiles/pb_remote_server_nrf52832_xxAA_s132_3.1.0.dir/__/__/__/models/pb_remote/src/pb_remote_server.c.obj
 .rodata.pb_remote_server_event_local_packet_cb.str1.1
                0x000333c7       0x2a examples/pb_remote/server/CMakeFiles/pb_remote_server_nrf52832_xxAA_s132_3.1.0.dir/__/__/__/models/pb_remote/src/pb_remote_server.c.obj
 .rodata.pb_remote_server_event_packet_transfer_cb.str1.1
                0x000333f1       0x2d examples/pb_remote/server/CMakeFiles/pb_remote_server_nrf52832_xxAA_s132_3.1.0.dir/__/__/__/models/pb_remote/src/pb_remote_server.c.obj
 .rodata.pb_remote_server_event_scan_report_status_cb.str1.1
                0x0003341e       0x1e examples/pb_remote/server/CMakeFiles/pb_remote_server_nrf52832_xxAA_s132_3.1.0.dir/__/__/__/models/pb_remote/src/pb_remote_server.c.obj
 .rodata.pb_remote_server_event_scan_start_filter_cb.str1.1
                0x0003343c       0x16 examples/pb_remote/server/CMakeFiles/pb_remote_server_nrf52832_xxAA_s132_3.1.0.dir/__/__/__/models/pb_remote/src/pb_remote_server.c.obj
 .rodata.pb_remote_server_event_transfer_status_cb.str1.1
                0x00033452       0x69 examples/pb_remote/server/CMakeFiles/pb_remote_server_nrf52832_xxAA_s132_3.1.0.dir/__/__/__/models/pb_remote/src/pb_remote_server.c.obj
 .rodata.pb_remote_server_event_unprov_uuid_cb.str1.1
                0x000334bb       0x19 examples/pb_remote/server/CMakeFiles/pb_remote_server_nrf52832_xxAA_s132_3.1.0.dir/__/__/__/models/pb_remote/src/pb_remote_server.c.obj
 .rodata.pb_remote_server_process.str1.1
                0x000334d4        0xc examples/pb_remote/server/CMakeFiles/pb_remote_server_nrf52832_xxAA_s132_3.1.0.dir/__/__/__/models/pb_remote/src/pb_remote_server.c.obj
 .rodata.prov_callbacks.11779
                0x000334e0       0x10 examples/pb_remote/server/CMakeFiles/pb_remote_server_nrf52832_xxAA_s132_3.1.0.dir/__/__/__/models/pb_remote/src/pb_remote_server.c.obj
 .rodata.server_reliable_status_cb.str1.1
                0x000334f0       0x3f examples/pb_remote/server/CMakeFiles/pb_remote_server_nrf52832_xxAA_s132_3.1.0.dir/__/__/__/models/pb_remote/src/pb_remote_server.c.obj
 .rodata.mesh_evt_cb.str1.1
                0x0003352f       0x2f examples/pb_remote/server/CMakeFiles/pb_remote_server_nrf52832_xxAA_s132_3.1.0.dir/__/__/__/mesh/access/src/access.c.obj
 .rodata.multiply_de_bruijn_bit_position.9032
                0x0003355e       0x20 examples/pb_remote/server/CMakeFiles/pb_remote_server_nrf52832_xxAA_s132_3.1.0.dir/__/__/__/mesh/access/src/access.c.obj
 .rodata.packet_tx.str1.1
                0x0003357e       0x13 examples/pb_remote/server/CMakeFiles/pb_remote_server_nrf52832_xxAA_s132_3.1.0.dir/__/__/__/mesh/access/src/access.c.obj
 *fill*         0x00033591        0x3 
 .rodata.m_flash_groups
                0x00033594       0xa8 examples/pb_remote/server/CMakeFiles/pb_remote_server_nrf52832_xxAA_s132_3.1.0.dir/__/__/__/mesh/access/src/device_state_manager.c.obj
 .rodata.default_mesh_assertion_handler.str1.1
                0x0003363c       0x19 examples/pb_remote/server/CMakeFiles/pb_remote_server_nrf52832_xxAA_s132_3.1.0.dir/__/__/__/mesh/access/src/nrf_mesh_node_config.c.obj
 .rodata.default_softdevice_assertion_handler.str1.1
                0x0003363c       0x47 examples/pb_remote/server/CMakeFiles/pb_remote_server_nrf52832_xxAA_s132_3.1.0.dir/__/__/__/mesh/access/src/nrf_mesh_node_config.c.obj
 *fill*         0x00033683        0x1 
 .rodata        0x00033684        0x8 examples/pb_remote/server/CMakeFiles/pb_remote_server_nrf52832_xxAA_s132_3.1.0.dir/__/__/__/models/config/src/config_server.c.obj
 .rodata.CSWTCH.173
                0x0003368c        0xc examples/pb_remote/server/CMakeFiles/pb_remote_server_nrf52832_xxAA_s132_3.1.0.dir/__/__/__/models/config/src/config_server.c.obj
 .rodata.CSWTCH.185
                0x00033698        0x7 examples/pb_remote/server/CMakeFiles/pb_remote_server_nrf52832_xxAA_s132_3.1.0.dir/__/__/__/models/config/src/config_server.c.obj
 *fill*         0x0003369f        0x1 
 .rodata.opcode_handlers
                0x000336a0      0x170 examples/pb_remote/server/CMakeFiles/pb_remote_server_nrf52832_xxAA_s132_3.1.0.dir/__/__/__/models/config/src/config_server.c.obj
 .rodata.m_opcode_handlers
                0x00033810       0x58 examples/pb_remote/server/CMakeFiles/pb_remote_server_nrf52832_xxAA_s132_3.1.0.dir/__/__/__/models/health/src/health_server.c.obj
 .rodata.multiply_de_bruijn_bit_position.9076
                0x00033868       0x20 examples/pb_remote/server/CMakeFiles/pb_remote_server_nrf52832_xxAA_s132_3.1.0.dir/__/__/__/models/health/src/health_server.c.obj
 .rodata.types_lookup.8837
                0x00033888        0x4 mesh/core/libmesh_core_nrf52832_xxAA.a(nrf_mesh_utils.c.obj)
 .rodata.nrf_mesh_listen.str1.1
                0x0003388c       0x70 mesh/core/libmesh_core_nrf52832_xxAA.a(nrf_mesh.c.obj)
 .rodata.CSWTCH.9
                0x000338fc       0x10 mesh/core/libmesh_core_nrf52832_xxAA.a(hal.c.obj)
 .rodata        0x0003390c       0x15 mesh/core/libmesh_core_nrf52832_xxAA.a(enc.c.obj)
 .rodata.network_packet_in.str1.1
                0x00033921       0x40 mesh/core/libmesh_core_nrf52832_xxAA.a(network.c.obj)
                                 0x48 (size before relaxing)
 .rodata.network_packet_send.str1.1
                0x00033961       0x49 mesh/core/libmesh_core_nrf52832_xxAA.a(network.c.obj)
 .rodata        0x000339aa        0x7 mesh/core/libmesh_core_nrf52832_xxAA.a(nrf_mesh_keygen.c.obj)
 .rodata.log_callback_rtt.str1.1
                0x000339b1       0x15 mesh/core/libmesh_core_nrf52832_xxAA.a(log.c.obj)
 .rodata.str1.1
                0x000339c6       0x11 mesh/core/libmesh_core_nrf52832_xxAA.a(log.c.obj)
 *fill*         0x000339d7        0x1 
 .rodata.INVALID_HEADER
                0x000339d8        0x4 mesh/core/libmesh_core_nrf52832_xxAA.a(flash_manager.c.obj)
                0x000339d8                INVALID_HEADER
 .rodata.PADDING_HEADER
                0x000339dc        0x4 mesh/core/libmesh_core_nrf52832_xxAA.a(flash_manager.c.obj)
                0x000339dc                PADDING_HEADER
 .rodata.SEAL_HEADER
                0x000339e0        0x4 mesh/core/libmesh_core_nrf52832_xxAA.a(flash_manager.c.obj)
                0x000339e0                SEAL_HEADER
 .rodata.process_action_queue.str1.1
                0x000339e4       0x21 mesh/core/libmesh_core_nrf52832_xxAA.a(flash_manager.c.obj)
                                 0x4f (size before relaxing)
 .rodata.beacon_packet_in.str1.1
                0x00033a05       0x51 mesh/core/libmesh_core_nrf52832_xxAA.a(beacon.c.obj)
                                 0x59 (size before relaxing)
 *fill*         0x00033a56        0x2 
 .rodata.cp_handler
                0x00033a58        0x8 mesh/core/libmesh_core_nrf52832_xxAA.a(heartbeat.c.obj)
 .rodata.net_beacon_init.str1.1
                0x00033a60        0x5 mesh/core/libmesh_core_nrf52832_xxAA.a(net_beacon.c.obj)
 *fill*         0x00033a65        0x3 
 .rodata.m_interface
                0x00033a68        0xc mesh/core/libmesh_core_nrf52832_xxAA.a(core_tx_adv.c.obj)
 .rodata.radio_mode_to_us_per_byte.9234
                0x00033a74        0x6 mesh/core/libmesh_core_nrf52832_xxAA.a(broadcast.c.obj)
 .rodata.channel_rf_offsets.8475
                0x00033a7a       0x28 mesh/core/libmesh_core_nrf52832_xxAA.a(radio_config.c.obj)
 .rodata        0x00033aa2        0x3 mesh/core/libmesh_core_nrf52832_xxAA.a(scanner.c.obj)
 .rodata.sar_ctx_cancel.str1.1
                0x00033aa5       0x18 mesh/core/libmesh_core_nrf52832_xxAA.a(transport.c.obj)
 .rodata.sar_ctx_tx_complete.str1.1
                0x00033abd       0x1d mesh/core/libmesh_core_nrf52832_xxAA.a(transport.c.obj)
                                 0x4b (size before relaxing)
 .rodata.test_transport_decrypt.str1.1
                0x00033ada       0x13 mesh/core/libmesh_core_nrf52832_xxAA.a(transport.c.obj)
 .rodata.transport_packet_in.str1.1
                0x00033aed       0x24 mesh/core/libmesh_core_nrf52832_xxAA.a(transport.c.obj)
 .rodata.upper_transport_access_packet_in.str1.1
                0x00033b11       0x29 mesh/core/libmesh_core_nrf52832_xxAA.a(transport.c.obj)
 .rodata.upper_transport_packet_in.str1.1
                0x00033b3a       0x2e mesh/core/libmesh_core_nrf52832_xxAA.a(transport.c.obj)
 .rodata.upper_transport_tx.str1.1
                0x00033b68       0x2c mesh/core/libmesh_core_nrf52832_xxAA.a(transport.c.obj)
                                 0x34 (size before relaxing)
 .rodata.flash_manager_defrag.str1.1
                0x00033b94       0x28 mesh/core/libmesh_core_nrf52832_xxAA.a(flash_manager_defrag.c.obj)
                                 0x56 (size before relaxing)
 .rodata.m_procedure_steps
                0x00033bbc       0x28 mesh/core/libmesh_core_nrf52832_xxAA.a(flash_manager_defrag.c.obj)
 .rodata.m_all_operations
                0x00033be4       0x10 mesh/core/libmesh_core_nrf52832_xxAA.a(mesh_flash.c.obj)
 .rodata.Rb.7348
                0x00033bf4       0x10 mesh/core/libmesh_core_nrf52832_xxAA.a(aes_cmac.c.obj)
 .rodata._DoInit.str1.1
                0x00033c04       0x14 external/rtt/librtt_nrf52832_xxAA.a(SEGGER_RTT.c.obj)
 .rodata._aV2C.5497
                0x00033c18       0x10 external/rtt/librtt_nrf52832_xxAA.a(SEGGER_RTT_printf.c.obj)
 .rodata.curve_secp256r1
                0x00033c28       0xb0 external/micro-ecc/libuECC_nrf52832_xxAA.a(uECC.c.obj)
 .rodata._global_impure_ptr
                0x00033cd8        0x4 c:/a/gcc_arm/6/bin/../lib/gcc/arm-none-eabi/6.3.1/../../../../arm-none-eabi/lib/thumb/v7e-m/fpv4-sp/hard\libg_nano.a(lib_a-impure.o)
                0x00033cd8                _global_impure_ptr
 *(.eh_frame*)
 .eh_frame      0x00033cdc        0x0 c:/a/gcc_arm/6/bin/../lib/gcc/arm-none-eabi/6.3.1/thumb/v7e-m/fpv4-sp/hard/crtbegin.o
 .eh_frame      0x00033cdc        0x4 c:/a/gcc_arm/6/bin/../lib/gcc/arm-none-eabi/6.3.1/thumb/v7e-m/fpv4-sp/hard/crtend.o

.glue_7         0x00033ce0        0x0
 .glue_7        0x00033ce0        0x0 linker stubs

.glue_7t        0x00033ce0        0x0
 .glue_7t       0x00033ce0        0x0 linker stubs

.vfp11_veneer   0x00033ce0        0x0
 .vfp11_veneer  0x00033ce0        0x0 linker stubs

.v4_bx          0x00033ce0        0x0
 .v4_bx         0x00033ce0        0x0 linker stubs

.iplt           0x00033ce0        0x0
 .iplt          0x00033ce0        0x0 c:/a/gcc_arm/6/bin/../lib/gcc/arm-none-eabi/6.3.1/thumb/v7e-m/fpv4-sp/hard/crtbegin.o

.pwr_mgmt_data  0x00033ce0        0x0
                [!provide]                PROVIDE (__start_pwr_mgmt_data, .)
 *(SORT(.pwr_mgmt_data*))
                [!provide]                PROVIDE (__stop_pwr_mgmt_data, .)

.log_const_data
                0x00033ce0        0x0
                [!provide]                PROVIDE (__start_log_const_data, .)
 *(.log_const_data)
                [!provide]                PROVIDE (__stop_log_const_data, .)

.cli_command    0x00033ce0        0x0
                [!provide]                PROVIDE (__start_cli_command, .)
 *(.cli_command)
                [!provide]                PROVIDE (__stop_cli_command, .)

.sdh_stack_observers
                0x00033ce0        0x0
                [!provide]                PROVIDE (__start_sdh_stack_observers, .)
 *(SORT(.sdh_stack_observers*))
                [!provide]                PROVIDE (__stop_sdh_stack_observers, .)

.sdh_req_observers
                0x00033ce0        0x0
                [!provide]                PROVIDE (__start_sdh_req_observers, .)
 *(SORT(.sdh_req_observers*))
                [!provide]                PROVIDE (__stop_sdh_req_observers, .)

.sdh_state_observers
                0x00033ce0        0x0
                [!provide]                PROVIDE (__start_sdh_state_observers, .)
 *(SORT(.sdh_state_observers*))
                [!provide]                PROVIDE (__stop_sdh_state_observers, .)

.sdh_ant_observers
                0x00033ce0        0x0
                [!provide]                PROVIDE (__start_sdh_ant_observers, .)
 *(SORT(.sdh_ant_observers*))
                [!provide]                PROVIDE (__stop_sdh_ant_observers, .)

.sdh_ble_observers
                0x00033ce0        0x0
                [!provide]                PROVIDE (__start_sdh_ble_observers, .)
 *(SORT(.sdh_ble_observers*))
                [!provide]                PROVIDE (__stop_sdh_ble_observers, .)

.sdh_soc_observers
                0x00033ce0        0x0
                [!provide]                PROVIDE (__start_sdh_soc_observers, .)
 *(SORT(.sdh_soc_observers*))
                [!provide]                PROVIDE (__stop_sdh_soc_observers, .)

.ARM.extab
 *(.ARM.extab* .gnu.linkonce.armextab.*)
                0x00033ce0                __exidx_start = .

.ARM.exidx      0x00033ce0        0x8
 *(.ARM.exidx* .gnu.linkonce.armexidx.*)
 .ARM.exidx     0x00033ce0        0x8 c:/a/gcc_arm/6/bin/../lib/gcc/arm-none-eabi/6.3.1/../../../../arm-none-eabi/lib/thumb/v7e-m/fpv4-sp/hard/crt0.o
                0x00033ce8                __exidx_end = .
                0x00033ce8                __etext = .

.rel.dyn        0x00033ce8        0x0
 .rel.iplt      0x00033ce8        0x0 c:/a/gcc_arm/6/bin/../lib/gcc/arm-none-eabi/6.3.1/thumb/v7e-m/fpv4-sp/hard/crtbegin.o

.data           0x200019c0      0x170 load address 0x00033ce8
                0x200019c0                __data_start__ = .
 *(vtable)
 *(.data*)
 .data.config_params.12628
                0x200019c0       0x40 examples/pb_remote/server/CMakeFiles/pb_remote_server_nrf52832_xxAA_s132_3.1.0.dir/src/main.c.obj
 .data.m_async_process_flag
                0x20001a00        0x4 examples/pb_remote/server/CMakeFiles/pb_remote_server_nrf52832_xxAA_s132_3.1.0.dir/__/__/__/mesh/prov/src/prov_bearer_adv.c.obj
 .data.flash_add_mem_available_struct.10104
                0x20001a04       0x10 examples/pb_remote/server/CMakeFiles/pb_remote_server_nrf52832_xxAA_s132_3.1.0.dir/__/__/__/mesh/access/src/access.c.obj
 .data.flash_clear_mem_available_struct.10193
                0x20001a14       0x10 examples/pb_remote/server/CMakeFiles/pb_remote_server_nrf52832_xxAA_s132_3.1.0.dir/__/__/__/mesh/access/src/access.c.obj
 .data.flash_store_mem_available_struct.10217
                0x20001a24       0x10 examples/pb_remote/server/CMakeFiles/pb_remote_server_nrf52832_xxAA_s132_3.1.0.dir/__/__/__/mesh/access/src/access.c.obj
 .data.m_default_ttl
                0x20001a34        0x1 examples/pb_remote/server/CMakeFiles/pb_remote_server_nrf52832_xxAA_s132_3.1.0.dir/__/__/__/mesh/access/src/access.c.obj
 *fill*         0x20001a35        0x3 
 .data.mem_listener.10415
                0x20001a38       0x10 examples/pb_remote/server/CMakeFiles/pb_remote_server_nrf52832_xxAA_s132_3.1.0.dir/__/__/__/mesh/access/src/device_state_manager.c.obj
 .data.mem_listener.10441
                0x20001a48       0x10 examples/pb_remote/server/CMakeFiles/pb_remote_server_nrf52832_xxAA_s132_3.1.0.dir/__/__/__/mesh/access/src/device_state_manager.c.obj
 .data.m_config_server_handle
                0x20001a58        0x2 examples/pb_remote/server/CMakeFiles/pb_remote_server_nrf52832_xxAA_s132_3.1.0.dir/__/__/__/models/config/src/config_server.c.obj
 *fill*         0x20001a5a        0x2 
 .data.SystemCoreClock
                0x20001a5c        0x4 examples/pb_remote/server/CMakeFiles/pb_remote_server_nrf52832_xxAA_s132_3.1.0.dir/__/__/__/external/nRF5_SDK_14.2.0_17b948a/components/toolchain/system_nrf52.c.obj
                0x20001a5c                SystemCoreClock
 .data.mem_listener.9561
                0x20001a60       0x10 mesh/core/libmesh_core_nrf52832_xxAA.a(net_state.c.obj)
 .data.mem_listener.9566
                0x20001a70       0x10 mesh/core/libmesh_core_nrf52832_xxAA.a(net_state.c.obj)
 .data.mem_listener.9580
                0x20001a80       0x10 mesh/core/libmesh_core_nrf52832_xxAA.a(net_state.c.obj)
 .data.mem_listener.9597
                0x20001a90       0x10 mesh/core/libmesh_core_nrf52832_xxAA.a(net_state.c.obj)
 .data.m_nrf_mesh_listener
                0x20001aa0        0xc mesh/core/libmesh_core_nrf52832_xxAA.a(nrf_mesh.c.obj)
 .data.g_log_dbg_lvl
                0x20001aac        0x4 mesh/core/libmesh_core_nrf52832_xxAA.a(log.c.obj)
                0x20001aac                g_log_dbg_lvl
 .data.g_log_dbg_msk
                0x20001ab0        0x4 mesh/core/libmesh_core_nrf52832_xxAA.a(log.c.obj)
                0x20001ab0                g_log_dbg_msk
 .data.g_log_hex_digits
                0x20001ab4        0x4 mesh/core/libmesh_core_nrf52832_xxAA.a(log.c.obj)
                0x20001ab4                g_log_hex_digits
 .data.m_log_callback
                0x20001ab8        0x4 mesh/core/libmesh_core_nrf52832_xxAA.a(log.c.obj)
                0x20001ab8                m_log_callback
 .data.g_rng_function
                0x20001abc        0x4 external/micro-ecc/libuECC_nrf52832_xxAA.a(uECC.c.obj)
 .data._impure_ptr
                0x20001ac0        0x4 c:/a/gcc_arm/6/bin/../lib/gcc/arm-none-eabi/6.3.1/../../../../arm-none-eabi/lib/thumb/v7e-m/fpv4-sp/hard\libg_nano.a(lib_a-impure.o)
                0x20001ac0                _impure_ptr
 .data.impure_data
                0x20001ac4       0x60 c:/a/gcc_arm/6/bin/../lib/gcc/arm-none-eabi/6.3.1/../../../../arm-none-eabi/lib/thumb/v7e-m/fpv4-sp/hard\libg_nano.a(lib_a-impure.o)
                0x20001b24                . = ALIGN (0x4)
                0x20001b24                PROVIDE (__preinit_array_start, .)
 *(.preinit_array)
                0x20001b24                PROVIDE (__preinit_array_end, .)
                0x20001b24                . = ALIGN (0x4)
                0x20001b24                PROVIDE (__init_array_start, .)
 *(SORT(.init_array.*))
 *(.init_array)
 .init_array    0x20001b24        0x4 c:/a/gcc_arm/6/bin/../lib/gcc/arm-none-eabi/6.3.1/thumb/v7e-m/fpv4-sp/hard/crtbegin.o
                0x20001b28                PROVIDE (__init_array_end, .)
                0x20001b28                . = ALIGN (0x4)
                [!provide]                PROVIDE (__fini_array_start, .)
 *(SORT(.fini_array.*))
 *(.fini_array)
 .fini_array    0x20001b28        0x4 c:/a/gcc_arm/6/bin/../lib/gcc/arm-none-eabi/6.3.1/thumb/v7e-m/fpv4-sp/hard/crtbegin.o
                [!provide]                PROVIDE (__fini_array_end, .)
 *(.jcr*)
 .jcr           0x20001b2c        0x0 c:/a/gcc_arm/6/bin/../lib/gcc/arm-none-eabi/6.3.1/thumb/v7e-m/fpv4-sp/hard/crtbegin.o
 .jcr           0x20001b2c        0x4 c:/a/gcc_arm/6/bin/../lib/gcc/arm-none-eabi/6.3.1/thumb/v7e-m/fpv4-sp/hard/crtend.o
                0x20001b30                . = ALIGN (0x4)
                0x20001b30                __data_end__ = .
LOAD c:/a/gcc_arm/6/bin/../lib/gcc/arm-none-eabi/6.3.1/thumb/v7e-m/fpv4-sp/hard/crti.o
LOAD c:/a/gcc_arm/6/bin/../lib/gcc/arm-none-eabi/6.3.1/thumb/v7e-m/fpv4-sp/hard/crtbegin.o
LOAD c:/a/gcc_arm/6/bin/../lib/gcc/arm-none-eabi/6.3.1/../../../../arm-none-eabi/lib/thumb/v7e-m/fpv4-sp/hard/crt0.o
LOAD examples/pb_remote/server/CMakeFiles/pb_remote_server_nrf52832_xxAA_s132_3.1.0.dir/src/main.c.obj
LOAD examples/pb_remote/server/CMakeFiles/pb_remote_server_nrf52832_xxAA_s132_3.1.0.dir/__/__/nrf_mesh_sdk.c.obj
LOAD examples/pb_remote/server/CMakeFiles/pb_remote_server_nrf52832_xxAA_s132_3.1.0.dir/__/__/common/src/simple_hal.c.obj
LOAD examples/pb_remote/server/CMakeFiles/pb_remote_server_nrf52832_xxAA_s132_3.1.0.dir/__/__/nrf_mesh_weak.c.obj
LOAD examples/pb_remote/server/CMakeFiles/pb_remote_server_nrf52832_xxAA_s132_3.1.0.dir/__/__/__/mesh/prov/src/prov_provisionee.c.obj
LOAD examples/pb_remote/server/CMakeFiles/pb_remote_server_nrf52832_xxAA_s132_3.1.0.dir/__/__/__/mesh/prov/src/nrf_mesh_prov.c.obj
LOAD examples/pb_remote/server/CMakeFiles/pb_remote_server_nrf52832_xxAA_s132_3.1.0.dir/__/__/__/mesh/prov/src/provisioning.c.obj
LOAD examples/pb_remote/server/CMakeFiles/pb_remote_server_nrf52832_xxAA_s132_3.1.0.dir/__/__/__/mesh/prov/src/prov_beacon.c.obj
LOAD examples/pb_remote/server/CMakeFiles/pb_remote_server_nrf52832_xxAA_s132_3.1.0.dir/__/__/__/mesh/prov/src/prov_utils.c.obj
LOAD examples/pb_remote/server/CMakeFiles/pb_remote_server_nrf52832_xxAA_s132_3.1.0.dir/__/__/__/mesh/prov/src/prov_bearer_adv.c.obj
LOAD examples/pb_remote/server/CMakeFiles/pb_remote_server_nrf52832_xxAA_s132_3.1.0.dir/__/__/__/models/pb_remote/src/pb_remote_server.c.obj
LOAD examples/pb_remote/server/CMakeFiles/pb_remote_server_nrf52832_xxAA_s132_3.1.0.dir/__/__/__/mesh/access/src/access_publish.c.obj
LOAD examples/pb_remote/server/CMakeFiles/pb_remote_server_nrf52832_xxAA_s132_3.1.0.dir/__/__/__/mesh/access/src/access.c.obj
LOAD examples/pb_remote/server/CMakeFiles/pb_remote_server_nrf52832_xxAA_s132_3.1.0.dir/__/__/__/mesh/access/src/access_reliable.c.obj
LOAD examples/pb_remote/server/CMakeFiles/pb_remote_server_nrf52832_xxAA_s132_3.1.0.dir/__/__/__/mesh/access/src/device_state_manager.c.obj
LOAD examples/pb_remote/server/CMakeFiles/pb_remote_server_nrf52832_xxAA_s132_3.1.0.dir/__/__/__/mesh/access/src/nrf_mesh_node_config.c.obj
LOAD examples/pb_remote/server/CMakeFiles/pb_remote_server_nrf52832_xxAA_s132_3.1.0.dir/__/__/__/models/config/src/composition_data.c.obj
LOAD examples/pb_remote/server/CMakeFiles/pb_remote_server_nrf52832_xxAA_s132_3.1.0.dir/__/__/__/models/config/src/config_server.c.obj
LOAD examples/pb_remote/server/CMakeFiles/pb_remote_server_nrf52832_xxAA_s132_3.1.0.dir/__/__/__/models/config/src/packed_index_list.c.obj
LOAD examples/pb_remote/server/CMakeFiles/pb_remote_server_nrf52832_xxAA_s132_3.1.0.dir/__/__/__/models/health/src/health_server.c.obj
LOAD examples/pb_remote/server/CMakeFiles/pb_remote_server_nrf52832_xxAA_s132_3.1.0.dir/__/__/__/external/nRF5_SDK_14.2.0_17b948a/components/toolchain/system_nrf52.c.obj
LOAD examples/pb_remote/server/CMakeFiles/pb_remote_server_nrf52832_xxAA_s132_3.1.0.dir/__/__/__/external/nRF5_SDK_14.2.0_17b948a/components/toolchain/gcc/gcc_startup_nrf52.S.obj
LOAD mesh/core/libmesh_core_nrf52832_xxAA.a
LOAD external/rtt/librtt_nrf52832_xxAA.a
LOAD external/micro-ecc/libuECC_nrf52832_xxAA.a
START GROUP
LOAD c:/a/gcc_arm/6/bin/../lib/gcc/arm-none-eabi/6.3.1/thumb/v7e-m/fpv4-sp/hard\libgcc.a
LOAD c:/a/gcc_arm/6/bin/../lib/gcc/arm-none-eabi/6.3.1/../../../../arm-none-eabi/lib/thumb/v7e-m/fpv4-sp/hard\libg_nano.a
LOAD c:/a/gcc_arm/6/bin/../lib/gcc/arm-none-eabi/6.3.1/../../../../arm-none-eabi/lib/thumb/v7e-m/fpv4-sp/hard\libc_nano.a
END GROUP
START GROUP
LOAD c:/a/gcc_arm/6/bin/../lib/gcc/arm-none-eabi/6.3.1/thumb/v7e-m/fpv4-sp/hard\libgcc.a
LOAD c:/a/gcc_arm/6/bin/../lib/gcc/arm-none-eabi/6.3.1/../../../../arm-none-eabi/lib/thumb/v7e-m/fpv4-sp/hard\libc_nano.a
END GROUP
LOAD c:/a/gcc_arm/6/bin/../lib/gcc/arm-none-eabi/6.3.1/thumb/v7e-m/fpv4-sp/hard/crtend.o
LOAD c:/a/gcc_arm/6/bin/../lib/gcc/arm-none-eabi/6.3.1/thumb/v7e-m/fpv4-sp/hard/crtn.o
START GROUP
LOAD c:/a/gcc_arm/6/bin/../lib/gcc/arm-none-eabi/6.3.1/thumb/v7e-m/fpv4-sp/hard\libgcc.a
LOAD c:/a/gcc_arm/6/bin/../lib/gcc/arm-none-eabi/6.3.1/../../../../arm-none-eabi/lib/thumb/v7e-m/fpv4-sp/hard\libc.a
LOAD c:/a/gcc_arm/6/bin/../lib/gcc/arm-none-eabi/6.3.1/../../../../arm-none-eabi/lib/thumb/v7e-m/fpv4-sp/hard\libnosys.a
END GROUP

.igot.plt       0x20001b30        0x0 load address 0x00033e58
 .igot.plt      0x20001b30        0x0 c:/a/gcc_arm/6/bin/../lib/gcc/arm-none-eabi/6.3.1/thumb/v7e-m/fpv4-sp/hard/crtbegin.o
                0x20001b30                . = ALIGN (0x4)

.svc_data       0x20001b30        0x0
                [!provide]                PROVIDE (__start_svc_data, .)
 *(.svc_data)
                [!provide]                PROVIDE (__stop_svc_data, .)

.fs_data        0x20001b30        0x0
                [!provide]                PROVIDE (__start_fs_data, .)
 *(.fs_data)
                [!provide]                PROVIDE (__stop_fs_data, .)

.log_dynamic_data
                0x20001b30        0x0
                [!provide]                PROVIDE (__start_log_dynamic_data, .)
 *(.log_dynamic_data)
                [!provide]                PROVIDE (__stop_log_dynamic_data, .)

.cli_sorted_cmd_ptrs
                0x20001b30        0x0
                [!provide]                PROVIDE (__start_cli_sorted_cmd_ptrs, .)
 *(.cli_sorted_cmd_ptrs)
                [!provide]                PROVIDE (__stop_cli_sorted_cmd_ptrs, .)

.bss            0x20001b30     0x330c load address 0x00033e58
                0x20001b30                . = ALIGN (0x4)
                0x20001b30                __bss_start__ = .
 *(.bss*)
 .bss           0x20001b30       0x1c c:/a/gcc_arm/6/bin/../lib/gcc/arm-none-eabi/6.3.1/thumb/v7e-m/fpv4-sp/hard/crtbegin.o
 .bss.m_appkey_handle
                0x20001b4c        0x2 examples/pb_remote/server/CMakeFiles/pb_remote_server_nrf52832_xxAA_s132_3.1.0.dir/src/main.c.obj
 *fill*         0x20001b4e        0x2 
 .bss.m_prov_bearer_adv
                0x20001b50      0x1c0 examples/pb_remote/server/CMakeFiles/pb_remote_server_nrf52832_xxAA_s132_3.1.0.dir/src/main.c.obj
 .bss.m_provisioner_address_handle
                0x20001d10        0x2 examples/pb_remote/server/CMakeFiles/pb_remote_server_nrf52832_xxAA_s132_3.1.0.dir/src/main.c.obj
 *fill*         0x20001d12        0x2 
 .bss.m_remote_server
                0x20001d14       0x2c examples/pb_remote/server/CMakeFiles/pb_remote_server_nrf52832_xxAA_s132_3.1.0.dir/src/main.c.obj
 .bss.m_ble_evt_buffer
                0x20001d40       0x4f examples/pb_remote/server/CMakeFiles/pb_remote_server_nrf52832_xxAA_s132_3.1.0.dir/__/__/nrf_mesh_sdk.c.obj
 *fill*         0x20001d8f        0x1 
 .bss.m_button_handler_cb
                0x20001d90        0x4 examples/pb_remote/server/CMakeFiles/pb_remote_server_nrf52832_xxAA_s132_3.1.0.dir/__/__/common/src/simple_hal.c.obj
 .bss.m_last_button_press
                0x20001d94        0x4 examples/pb_remote/server/CMakeFiles/pb_remote_server_nrf52832_xxAA_s132_3.1.0.dir/__/__/common/src/simple_hal.c.obj
 .bss.m_event_handler
                0x20001d98        0x4 examples/pb_remote/server/CMakeFiles/pb_remote_server_nrf52832_xxAA_s132_3.1.0.dir/__/__/__/mesh/prov/src/prov_beacon.c.obj
 .bss.m_offload_ecdh
                0x20001d9c        0x1 examples/pb_remote/server/CMakeFiles/pb_remote_server_nrf52832_xxAA_s132_3.1.0.dir/__/__/__/mesh/prov/src/prov_utils.c.obj
 *fill*         0x20001d9d        0x3 
 .bss.mp_bearer_head
                0x20001da0        0x4 examples/pb_remote/server/CMakeFiles/pb_remote_server_nrf52832_xxAA_s132_3.1.0.dir/__/__/__/mesh/prov/src/prov_bearer_adv.c.obj
 .bss.m_is_interrupting
                0x20001da4        0x1 examples/pb_remote/server/CMakeFiles/pb_remote_server_nrf52832_xxAA_s132_3.1.0.dir/__/__/__/models/pb_remote/src/pb_remote_server.c.obj
 .bss.m_packet  0x20001da5       0x41 examples/pb_remote/server/CMakeFiles/pb_remote_server_nrf52832_xxAA_s132_3.1.0.dir/__/__/__/models/pb_remote/src/pb_remote_server.c.obj
 *fill*         0x20001de6        0x2 
 .bss.m_pbr_server_alt_event_queue
                0x20001de8       0x14 examples/pb_remote/server/CMakeFiles/pb_remote_server_nrf52832_xxAA_s132_3.1.0.dir/__/__/__/models/pb_remote/src/pb_remote_server.c.obj
 .bss.m_pbr_server_alt_event_queue_buffer
                0x20001dfc       0x90 examples/pb_remote/server/CMakeFiles/pb_remote_server_nrf52832_xxAA_s132_3.1.0.dir/__/__/__/models/pb_remote/src/pb_remote_server.c.obj
 .bss.m_pbr_server_event_queue
                0x20001e8c       0x14 examples/pb_remote/server/CMakeFiles/pb_remote_server_nrf52832_xxAA_s132_3.1.0.dir/__/__/__/models/pb_remote/src/pb_remote_server.c.obj
 .bss.m_pbr_server_event_queue_buffer
                0x20001ea0       0x90 examples/pb_remote/server/CMakeFiles/pb_remote_server_nrf52832_xxAA_s132_3.1.0.dir/__/__/__/models/pb_remote/src/pb_remote_server.c.obj
 .bss.m_uuid_list
                0x20001f30       0x33 examples/pb_remote/server/CMakeFiles/pb_remote_server_nrf52832_xxAA_s132_3.1.0.dir/__/__/__/models/pb_remote/src/pb_remote_server.c.obj
 *fill*         0x20001f63        0x1 
 .bss.mp_pb_remote_server_model
                0x20001f64        0x4 examples/pb_remote/server/CMakeFiles/pb_remote_server_nrf52832_xxAA_s132_3.1.0.dir/__/__/__/models/pb_remote/src/pb_remote_server.c.obj
 .bss.m_publish_timer
                0x20001f68       0x18 examples/pb_remote/server/CMakeFiles/pb_remote_server_nrf52832_xxAA_s132_3.1.0.dir/__/__/__/mesh/access/src/access_publish.c.obj
 .bss.m_publish_timer_counter
                0x20001f80        0x4 examples/pb_remote/server/CMakeFiles/pb_remote_server_nrf52832_xxAA_s132_3.1.0.dir/__/__/__/mesh/access/src/access_publish.c.obj
 .bss.m_publish_timer_running
                0x20001f84        0x1 examples/pb_remote/server/CMakeFiles/pb_remote_server_nrf52832_xxAA_s132_3.1.0.dir/__/__/__/mesh/access/src/access_publish.c.obj
 .bss.m_timer_resolution
                0x20001f85        0x1 examples/pb_remote/server/CMakeFiles/pb_remote_server_nrf52832_xxAA_s132_3.1.0.dir/__/__/__/mesh/access/src/access_publish.c.obj
 *fill*         0x20001f86        0x2 
 .bss.mp_publication_list
                0x20001f88        0x4 examples/pb_remote/server/CMakeFiles/pb_remote_server_nrf52832_xxAA_s132_3.1.0.dir/__/__/__/mesh/access/src/access_publish.c.obj
 .bss.m_element_pool
                0x20001f8c        0x6 examples/pb_remote/server/CMakeFiles/pb_remote_server_nrf52832_xxAA_s132_3.1.0.dir/__/__/__/mesh/access/src/access.c.obj
 *fill*         0x20001f92        0x2 
 .bss.m_evt_handler
                0x20001f94        0x8 examples/pb_remote/server/CMakeFiles/pb_remote_server_nrf52832_xxAA_s132_3.1.0.dir/__/__/__/mesh/access/src/access.c.obj
 .bss.m_flash_manager
                0x20001f9c       0x24 examples/pb_remote/server/CMakeFiles/pb_remote_server_nrf52832_xxAA_s132_3.1.0.dir/__/__/__/mesh/access/src/access.c.obj
 .bss.m_flash_not_ready
                0x20001fc0        0x1 examples/pb_remote/server/CMakeFiles/pb_remote_server_nrf52832_xxAA_s132_3.1.0.dir/__/__/__/mesh/access/src/access.c.obj
 .bss.m_metadata_stored
                0x20001fc1        0x1 examples/pb_remote/server/CMakeFiles/pb_remote_server_nrf52832_xxAA_s132_3.1.0.dir/__/__/__/mesh/access/src/access.c.obj
 *fill*         0x20001fc2        0x2 
 .bss.m_model_pool
                0x20001fc4       0x9c examples/pb_remote/server/CMakeFiles/pb_remote_server_nrf52832_xxAA_s132_3.1.0.dir/__/__/__/mesh/access/src/access.c.obj
 .bss.m_subscription_list_pool
                0x20002060       0x18 examples/pb_remote/server/CMakeFiles/pb_remote_server_nrf52832_xxAA_s132_3.1.0.dir/__/__/__/mesh/access/src/access.c.obj
 .bss.m_reliable
                0x20002078       0xa0 examples/pb_remote/server/CMakeFiles/pb_remote_server_nrf52832_xxAA_s132_3.1.0.dir/__/__/__/mesh/access/src/access_reliable.c.obj
 .bss.m_addr_nonvirtual_allocated
                0x20002118        0x4 examples/pb_remote/server/CMakeFiles/pb_remote_server_nrf52832_xxAA_s132_3.1.0.dir/__/__/__/mesh/access/src/device_state_manager.c.obj
 .bss.m_addr_nonvirtual_needs_flashing
                0x2000211c        0x4 examples/pb_remote/server/CMakeFiles/pb_remote_server_nrf52832_xxAA_s132_3.1.0.dir/__/__/__/mesh/access/src/device_state_manager.c.obj
 .bss.m_addr_unicast_allocated
                0x20002120        0x4 examples/pb_remote/server/CMakeFiles/pb_remote_server_nrf52832_xxAA_s132_3.1.0.dir/__/__/__/mesh/access/src/device_state_manager.c.obj
 .bss.m_addr_unicast_needs_flashing
                0x20002124        0x4 examples/pb_remote/server/CMakeFiles/pb_remote_server_nrf52832_xxAA_s132_3.1.0.dir/__/__/__/mesh/access/src/device_state_manager.c.obj
 .bss.m_addr_virtual_allocated
                0x20002128        0x4 examples/pb_remote/server/CMakeFiles/pb_remote_server_nrf52832_xxAA_s132_3.1.0.dir/__/__/__/mesh/access/src/device_state_manager.c.obj
 .bss.m_addr_virtual_needs_flashing
                0x2000212c        0x4 examples/pb_remote/server/CMakeFiles/pb_remote_server_nrf52832_xxAA_s132_3.1.0.dir/__/__/__/mesh/access/src/device_state_manager.c.obj
 .bss.m_addresses
                0x20002130       0x10 examples/pb_remote/server/CMakeFiles/pb_remote_server_nrf52832_xxAA_s132_3.1.0.dir/__/__/__/mesh/access/src/device_state_manager.c.obj
 .bss.m_appkey_allocated
                0x20002140        0x4 examples/pb_remote/server/CMakeFiles/pb_remote_server_nrf52832_xxAA_s132_3.1.0.dir/__/__/__/mesh/access/src/device_state_manager.c.obj
 .bss.m_appkey_needs_flashing
                0x20002144        0x4 examples/pb_remote/server/CMakeFiles/pb_remote_server_nrf52832_xxAA_s132_3.1.0.dir/__/__/__/mesh/access/src/device_state_manager.c.obj
 .bss.m_appkeys
                0x20002148       0x2a examples/pb_remote/server/CMakeFiles/pb_remote_server_nrf52832_xxAA_s132_3.1.0.dir/__/__/__/mesh/access/src/device_state_manager.c.obj
 *fill*         0x20002172        0x2 
 .bss.m_devkey_allocated
                0x20002174        0x4 examples/pb_remote/server/CMakeFiles/pb_remote_server_nrf52832_xxAA_s132_3.1.0.dir/__/__/__/mesh/access/src/device_state_manager.c.obj
 .bss.m_devkey_needs_flashing
                0x20002178        0x4 examples/pb_remote/server/CMakeFiles/pb_remote_server_nrf52832_xxAA_s132_3.1.0.dir/__/__/__/mesh/access/src/device_state_manager.c.obj
 .bss.m_devkeys
                0x2000217c       0x16 examples/pb_remote/server/CMakeFiles/pb_remote_server_nrf52832_xxAA_s132_3.1.0.dir/__/__/__/mesh/access/src/device_state_manager.c.obj
 .bss.m_flash_is_available
                0x20002192        0x1 examples/pb_remote/server/CMakeFiles/pb_remote_server_nrf52832_xxAA_s132_3.1.0.dir/__/__/__/mesh/access/src/device_state_manager.c.obj
 *fill*         0x20002193        0x1 
 .bss.m_flash_manager
                0x20002194       0x24 examples/pb_remote/server/CMakeFiles/pb_remote_server_nrf52832_xxAA_s132_3.1.0.dir/__/__/__/mesh/access/src/device_state_manager.c.obj
 .bss.m_flash_mem_listener_update_all
                0x200021b8       0x10 examples/pb_remote/server/CMakeFiles/pb_remote_server_nrf52832_xxAA_s132_3.1.0.dir/__/__/__/mesh/access/src/device_state_manager.c.obj
 .bss.m_has_primary_subnet
                0x200021c8        0x1 examples/pb_remote/server/CMakeFiles/pb_remote_server_nrf52832_xxAA_s132_3.1.0.dir/__/__/__/mesh/access/src/device_state_manager.c.obj
 *fill*         0x200021c9        0x1 
 .bss.m_local_unicast_addr
                0x200021ca        0x4 examples/pb_remote/server/CMakeFiles/pb_remote_server_nrf52832_xxAA_s132_3.1.0.dir/__/__/__/mesh/access/src/device_state_manager.c.obj
 *fill*         0x200021ce        0x2 
 .bss.m_subnet_allocated
                0x200021d0        0x4 examples/pb_remote/server/CMakeFiles/pb_remote_server_nrf52832_xxAA_s132_3.1.0.dir/__/__/__/mesh/access/src/device_state_manager.c.obj
 .bss.m_subnet_needs_flashing
                0x200021d4        0x4 examples/pb_remote/server/CMakeFiles/pb_remote_server_nrf52832_xxAA_s132_3.1.0.dir/__/__/__/mesh/access/src/device_state_manager.c.obj
 .bss.m_subnets
                0x200021d8       0xac examples/pb_remote/server/CMakeFiles/pb_remote_server_nrf52832_xxAA_s132_3.1.0.dir/__/__/__/mesh/access/src/device_state_manager.c.obj
 .bss.m_virtual_addresses
                0x20002284       0x14 examples/pb_remote/server/CMakeFiles/pb_remote_server_nrf52832_xxAA_s132_3.1.0.dir/__/__/__/mesh/access/src/device_state_manager.c.obj
 .bss.m_health_server
                0x20002298       0x5c examples/pb_remote/server/CMakeFiles/pb_remote_server_nrf52832_xxAA_s132_3.1.0.dir/__/__/__/mesh/access/src/nrf_mesh_node_config.c.obj
 .bss.m_node_provisioned
                0x200022f4        0x1 examples/pb_remote/server/CMakeFiles/pb_remote_server_nrf52832_xxAA_s132_3.1.0.dir/__/__/__/mesh/access/src/nrf_mesh_node_config.c.obj
 .bss.m_private_key
                0x200022f5       0x20 examples/pb_remote/server/CMakeFiles/pb_remote_server_nrf52832_xxAA_s132_3.1.0.dir/__/__/__/mesh/access/src/nrf_mesh_node_config.c.obj
 *fill*         0x20002315        0x3 
 .bss.m_prov_bearer_adv
                0x20002318      0x1c0 examples/pb_remote/server/CMakeFiles/pb_remote_server_nrf52832_xxAA_s132_3.1.0.dir/__/__/__/mesh/access/src/nrf_mesh_node_config.c.obj
 .bss.m_prov_ctx
                0x200024d8      0x130 examples/pb_remote/server/CMakeFiles/pb_remote_server_nrf52832_xxAA_s132_3.1.0.dir/__/__/__/mesh/access/src/nrf_mesh_node_config.c.obj
 .bss.m_public_key
                0x20002608       0x40 examples/pb_remote/server/CMakeFiles/pb_remote_server_nrf52832_xxAA_s132_3.1.0.dir/__/__/__/mesh/access/src/nrf_mesh_node_config.c.obj
 .bss.mp_init_params
                0x20002648        0x4 examples/pb_remote/server/CMakeFiles/pb_remote_server_nrf52832_xxAA_s132_3.1.0.dir/__/__/__/mesh/access/src/nrf_mesh_node_config.c.obj
 .bss.m_evt_cb  0x2000264c        0x4 examples/pb_remote/server/CMakeFiles/pb_remote_server_nrf52832_xxAA_s132_3.1.0.dir/__/__/__/models/config/src/config_server.c.obj
 .bss.m_heartbeat_publication
                0x20002650       0x14 examples/pb_remote/server/CMakeFiles/pb_remote_server_nrf52832_xxAA_s132_3.1.0.dir/__/__/__/models/config/src/config_server.c.obj
 .bss.m_attention_timer
                0x20002664       0x18 examples/pb_remote/server/CMakeFiles/pb_remote_server_nrf52832_xxAA_s132_3.1.0.dir/__/__/__/models/health/src/health_server.c.obj
 .bss.mp_attention_list
                0x2000267c        0x4 examples/pb_remote/server/CMakeFiles/pb_remote_server_nrf52832_xxAA_s132_3.1.0.dir/__/__/__/models/health/src/health_server.c.obj
 .bss.m_uuid    0x20002680       0x10 mesh/core/libmesh_core_nrf52832_xxAA.a(nrf_mesh_configure.c.obj)
 .bss.mp_evt_handlers_head
                0x20002690        0x4 mesh/core/libmesh_core_nrf52832_xxAA.a(event.c.obj)
 .bss.iv_state_set.9648
                0x20002694        0x1 mesh/core/libmesh_core_nrf52832_xxAA.a(net_state.c.obj)
 *fill*         0x20002695        0x3 
 .bss.lock_count.9620
                0x20002698        0x4 mesh/core/libmesh_core_nrf52832_xxAA.a(net_state.c.obj)
 .bss.m_flash_manager
                0x2000269c       0x24 mesh/core/libmesh_core_nrf52832_xxAA.a(net_state.c.obj)
 .bss.m_iv_update_timer
                0x200026c0       0x18 mesh/core/libmesh_core_nrf52832_xxAA.a(net_state.c.obj)
 .bss.m_net_state
                0x200026d8       0x14 mesh/core/libmesh_core_nrf52832_xxAA.a(net_state.c.obj)
 .bss.m_seqnum_allocation_in_progress
                0x200026ec        0x1 mesh/core/libmesh_core_nrf52832_xxAA.a(net_state.c.obj)
 .bss.m_test_mode
                0x200026ed        0x1 mesh/core/libmesh_core_nrf52832_xxAA.a(net_state.c.obj)
 .bss.m_is_enabled
                0x200026ee        0x1 mesh/core/libmesh_core_nrf52832_xxAA.a(nrf_mesh.c.obj)
 .bss.m_is_initialized
                0x200026ef        0x1 mesh/core/libmesh_core_nrf52832_xxAA.a(nrf_mesh.c.obj)
 .bss.m_rx_cb   0x200026f0        0x4 mesh/core/libmesh_core_nrf52832_xxAA.a(nrf_mesh.c.obj)
 .bss.m_event_flag
                0x200026f4        0x4 mesh/core/libmesh_core_nrf52832_xxAA.a(timer_scheduler.c.obj)
 .bss.m_scheduler
                0x200026f8       0x10 mesh/core/libmesh_core_nrf52832_xxAA.a(timer_scheduler.c.obj)
 .bss.m_attributes
                0x20002708        0x3 mesh/core/libmesh_core_nrf52832_xxAA.a(timer.c.obj)
 *fill*         0x2000270b        0x1 
 .bss.m_callbacks
                0x2000270c        0xc mesh/core/libmesh_core_nrf52832_xxAA.a(timer.c.obj)
 .bss.m_is_in_ts
                0x20002718        0x1 mesh/core/libmesh_core_nrf52832_xxAA.a(timer.c.obj)
 *fill*         0x20002719        0x3 
 .bss.m_reference_time
                0x2000271c        0x4 mesh/core/libmesh_core_nrf52832_xxAA.a(timer.c.obj)
 .bss.m_timeouts
                0x20002720        0xc mesh/core/libmesh_core_nrf52832_xxAA.a(timer.c.obj)
 .bss.m_timer_mut
                0x2000272c        0x4 mesh/core/libmesh_core_nrf52832_xxAA.a(timer.c.obj)
 .bss.m_ts_end_time
                0x20002730        0x4 mesh/core/libmesh_core_nrf52832_xxAA.a(timer.c.obj)
 .bss.mp_ppi_tasks
                0x20002734        0xc mesh/core/libmesh_core_nrf52832_xxAA.a(timer.c.obj)
 .bss.m_current_time
                0x20002740        0x4 mesh/core/libmesh_core_nrf52832_xxAA.a(ticker.c.obj)
 .bss.m_timer   0x20002744       0x18 mesh/core/libmesh_core_nrf52832_xxAA.a(ticker.c.obj)
 .bss.m_current_timeslot
                0x2000275c       0x1c mesh/core/libmesh_core_nrf52832_xxAA.a(timeslot.c.obj)
 .bss.m_lfclk_ppm
                0x20002778        0x4 mesh/core/libmesh_core_nrf52832_xxAA.a(timeslot.c.obj)
 .bss.m_radio_request_earliest
                0x2000277c       0x10 mesh/core/libmesh_core_nrf52832_xxAA.a(timeslot.c.obj)
 .bss.m_state_lock
                0x2000278c        0x1 mesh/core/libmesh_core_nrf52832_xxAA.a(timeslot.c.obj)
 .bss.m_timeslot_forced_command
                0x2000278d        0x1 mesh/core/libmesh_core_nrf52832_xxAA.a(timeslot.c.obj)
 *fill*         0x2000278e        0x2 
 .bss.s_last_rtc_value.9081
                0x20002790        0x8 mesh/core/libmesh_core_nrf52832_xxAA.a(timeslot.c.obj)
 .bss.m_bearer_event_fifo
                0x20002798       0x14 mesh/core/libmesh_core_nrf52832_xxAA.a(bearer_event.c.obj)
 .bss.m_bearer_event_fifo_buffer
                0x200027ac      0x100 mesh/core/libmesh_core_nrf52832_xxAA.a(bearer_event.c.obj)
 .bss.m_critical
                0x200028ac        0x4 mesh/core/libmesh_core_nrf52832_xxAA.a(bearer_event.c.obj)
 .bss.m_flag_count
                0x200028b0        0x4 mesh/core/libmesh_core_nrf52832_xxAA.a(bearer_event.c.obj)
 .bss.m_flag_event_callbacks
                0x200028b4       0x20 mesh/core/libmesh_core_nrf52832_xxAA.a(bearer_event.c.obj)
 .bss.m_flags   0x200028d4        0x4 mesh/core/libmesh_core_nrf52832_xxAA.a(bearer_event.c.obj)
 .bss.m_irq_priority
                0x200028d8        0x1 mesh/core/libmesh_core_nrf52832_xxAA.a(bearer_event.c.obj)
 *fill*         0x200028d9        0x3 
 .bss.m_sequential_event_queue
                0x200028dc        0x8 mesh/core/libmesh_core_nrf52832_xxAA.a(bearer_event.c.obj)
 .bss.s_recursion_guard.9203
                0x200028e4        0x1 mesh/core/libmesh_core_nrf52832_xxAA.a(bearer_event.c.obj)
 *fill*         0x200028e5        0x3 
 .bss.m_relay_check_cb
                0x200028e8        0x4 mesh/core/libmesh_core_nrf52832_xxAA.a(network.c.obj)
 .bss.m_relay_enable
                0x200028ec        0x1 mesh/core/libmesh_core_nrf52832_xxAA.a(network.c.obj)
 *fill*         0x200028ed        0x3 
 .bss.m_action_queue
                0x200028f0        0xc mesh/core/libmesh_core_nrf52832_xxAA.a(flash_manager.c.obj)
 .bss.m_action_queue_buffer
                0x200028fc      0x104 mesh/core/libmesh_core_nrf52832_xxAA.a(flash_manager.c.obj)
 .bss.m_action_state
                0x20002a00        0x1 mesh/core/libmesh_core_nrf52832_xxAA.a(flash_manager.c.obj)
 *fill*         0x20002a01        0x3 
 .bss.m_memory_listener_queue
                0x20002a04        0x8 mesh/core/libmesh_core_nrf52832_xxAA.a(flash_manager.c.obj)
 .bss.m_processing_flag
                0x20002a0c        0x4 mesh/core/libmesh_core_nrf52832_xxAA.a(flash_manager.c.obj)
 .bss.m_queue_empty_cb
                0x20002a10        0x4 mesh/core/libmesh_core_nrf52832_xxAA.a(flash_manager.c.obj)
 .bss.m_state   0x20002a14        0x1 mesh/core/libmesh_core_nrf52832_xxAA.a(flash_manager.c.obj)
 *fill*         0x20002a15        0x1 
 .bss.m_token   0x20002a16        0x2 mesh/core/libmesh_core_nrf52832_xxAA.a(flash_manager.c.obj)
 .bss.p_current.10931
                0x20002a18        0x4 mesh/core/libmesh_core_nrf52832_xxAA.a(flash_manager.c.obj)
 .bss.result.10932
                0x20002a1c        0x1 mesh/core/libmesh_core_nrf52832_xxAA.a(flash_manager.c.obj)
 *fill*         0x20002a1d        0x3 
 .bss.m_adv_buffer
                0x20002a20       0x68 mesh/core/libmesh_core_nrf52832_xxAA.a(beacon.c.obj)
 .bss.m_advertiser
                0x20002a88       0x94 mesh/core/libmesh_core_nrf52832_xxAA.a(beacon.c.obj)
 .bss.m_bearers
                0x20002b1c        0x4 mesh/core/libmesh_core_nrf52832_xxAA.a(core_tx.c.obj)
 .bss.m_tx_complete_callback
                0x20002b20        0x4 mesh/core/libmesh_core_nrf52832_xxAA.a(core_tx.c.obj)
 .bss.m_hb_core_evt_handler
                0x20002b24        0x8 mesh/core/libmesh_core_nrf52832_xxAA.a(heartbeat.c.obj)
 .bss.m_hb_pending_feat_msg
                0x20002b2c        0x1 mesh/core/libmesh_core_nrf52832_xxAA.a(heartbeat.c.obj)
 .bss.m_hb_pending_pub_msg
                0x20002b2d        0x1 mesh/core/libmesh_core_nrf52832_xxAA.a(heartbeat.c.obj)
 .bss.m_heartbeat_init_done
                0x20002b2e        0x1 mesh/core/libmesh_core_nrf52832_xxAA.a(heartbeat.c.obj)
 *fill*         0x20002b2f        0x1 
 .bss.m_heartbeat_subscription
                0x20002b30       0x10 mesh/core/libmesh_core_nrf52832_xxAA.a(heartbeat.c.obj)
 .bss.m_publication_count_decrement_cb
                0x20002b40        0x4 mesh/core/libmesh_core_nrf52832_xxAA.a(heartbeat.c.obj)
 .bss.m_publication_get_cb
                0x20002b44        0x4 mesh/core/libmesh_core_nrf52832_xxAA.a(heartbeat.c.obj)
 .bss.m_publication_timer
                0x20002b48       0x1c mesh/core/libmesh_core_nrf52832_xxAA.a(heartbeat.c.obj)
 .bss.m_subscription_timer
                0x20002b64       0x18 mesh/core/libmesh_core_nrf52832_xxAA.a(heartbeat.c.obj)
 .bss.m_beacon_salt
                0x20002b7c       0x10 mesh/core/libmesh_core_nrf52832_xxAA.a(net_beacon.c.obj)
 .bss.m_enabled
                0x20002b8c        0x1 mesh/core/libmesh_core_nrf52832_xxAA.a(net_beacon.c.obj)
 *fill*         0x20002b8d        0x3 
 .bss.m_tx_event
                0x20002b90       0x18 mesh/core/libmesh_core_nrf52832_xxAA.a(net_beacon.c.obj)
 .bss.m_adv_tx_count
                0x20002ba8        0x8 mesh/core/libmesh_core_nrf52832_xxAA.a(core_tx_adv.c.obj)
 .bss.m_advertisers
                0x20002bb0      0x128 mesh/core/libmesh_core_nrf52832_xxAA.a(core_tx_adv.c.obj)
 .bss.m_originator_adv_packet_buffer
                0x20002cd8      0x100 mesh/core/libmesh_core_nrf52832_xxAA.a(core_tx_adv.c.obj)
 .bss.m_relay_adv_packet_buffer
                0x20002dd8       0x80 mesh/core/libmesh_core_nrf52832_xxAA.a(core_tx_adv.c.obj)
 .bss.m_subscribers
                0x20002e58        0x4 mesh/core/libmesh_core_nrf52832_xxAA.a(ad_listener.c.obj)
 .bss.m_adtype_filter
                0x20002e5c       0x38 mesh/core/libmesh_core_nrf52832_xxAA.a(ad_type_filter.c.obj)
 .bss.m_adv_prng
                0x20002e94       0x10 mesh/core/libmesh_core_nrf52832_xxAA.a(advertiser.c.obj)
 .bss.m_action_queue
                0x20002ea4        0x8 mesh/core/libmesh_core_nrf52832_xxAA.a(bearer_handler.c.obj)
 .bss.m_end_time
                0x20002eac        0x4 mesh/core/libmesh_core_nrf52832_xxAA.a(bearer_handler.c.obj)
 .bss.m_scanner_is_active
                0x20002eb0        0x1 mesh/core/libmesh_core_nrf52832_xxAA.a(bearer_handler.c.obj)
 .bss.m_stopped
                0x20002eb1        0x1 mesh/core/libmesh_core_nrf52832_xxAA.a(bearer_handler.c.obj)
 *fill*         0x20002eb2        0x2 
 .bss.mp_action
                0x20002eb4        0x4 mesh/core/libmesh_core_nrf52832_xxAA.a(bearer_handler.c.obj)
 .bss.m_next_channel_index
                0x20002eb8        0x1 mesh/core/libmesh_core_nrf52832_xxAA.a(broadcast.c.obj)
 *fill*         0x20002eb9        0x3 
 .bss.m_accepted_amount
                0x20002ebc        0x4 mesh/core/libmesh_core_nrf52832_xxAA.a(filter_engine.c.obj)
 .bss.m_filter_list_head
                0x20002ec0        0x4 mesh/core/libmesh_core_nrf52832_xxAA.a(filter_engine.c.obj)
 .bss.m_scanner
                0x20002ec4      0x28c mesh/core/libmesh_core_nrf52832_xxAA.a(scanner.c.obj)
 .bss.m_internal_event_fifo
                0x20003150       0x14 mesh/core/libmesh_core_nrf52832_xxAA.a(internal_event.c.obj)
 .bss.m_internal_event_initialized
                0x20003164        0x1 mesh/core/libmesh_core_nrf52832_xxAA.a(internal_event.c.obj)
 *fill*         0x20003165        0x3 
 .bss.m_report_cb
                0x20003168        0x4 mesh/core/libmesh_core_nrf52832_xxAA.a(internal_event.c.obj)
 .bss.m_msg_cache
                0x2000316c      0x100 mesh/core/libmesh_core_nrf52832_xxAA.a(msg_cache.c.obj)
 .bss.m_msg_cache_head
                0x2000326c        0x4 mesh/core/libmesh_core_nrf52832_xxAA.a(msg_cache.c.obj)
 .bss.m_control_packet_consumer_count
                0x20003270        0x4 mesh/core/libmesh_core_nrf52832_xxAA.a(transport.c.obj)
 .bss.m_control_packet_consumers
                0x20003274        0x8 mesh/core/libmesh_core_nrf52832_xxAA.a(transport.c.obj)
 .bss.m_sar_alloc
                0x2000327c        0x4 mesh/core/libmesh_core_nrf52832_xxAA.a(transport.c.obj)
 .bss.m_sar_process_flag
                0x20003280        0x4 mesh/core/libmesh_core_nrf52832_xxAA.a(transport.c.obj)
 .bss.m_sar_release
                0x20003284        0x4 mesh/core/libmesh_core_nrf52832_xxAA.a(transport.c.obj)
 .bss.m_sar_session_cache
                0x20003288       0x40 mesh/core/libmesh_core_nrf52832_xxAA.a(transport.c.obj)
 .bss.m_sar_session_cache_head
                0x200032c8        0x4 mesh/core/libmesh_core_nrf52832_xxAA.a(transport.c.obj)
 .bss.m_trs_config
                0x200032cc       0x18 mesh/core/libmesh_core_nrf52832_xxAA.a(transport.c.obj)
 .bss.m_trs_sar_sessions
                0x200032e4      0x1b0 mesh/core/libmesh_core_nrf52832_xxAA.a(transport.c.obj)
 .bss.m_defrag  0x20003494       0x1c mesh/core/libmesh_core_nrf52832_xxAA.a(flash_manager_defrag.c.obj)
 .bss.m_token   0x200034b0        0x2 mesh/core/libmesh_core_nrf52832_xxAA.a(flash_manager_defrag.c.obj)
 *fill*         0x200034b2        0x2 
 .bss.mp_recovery_area
                0x200034b4        0x4 mesh/core/libmesh_core_nrf52832_xxAA.a(flash_manager_defrag.c.obj)
 .bss.p_null_ptr.10022
                0x200034b8        0x4 mesh/core/libmesh_core_nrf52832_xxAA.a(flash_manager_defrag.c.obj)
 .bss.m_pool    0x200034bc     0x1000 mesh/core/libmesh_core_nrf52832_xxAA.a(packet_mgr.c.obj)
 .bss.mp_free_head
                0x200044bc        0x4 mesh/core/libmesh_core_nrf52832_xxAA.a(packet_mgr.c.obj)
 .bss.m_event_flag
                0x200044c0        0x4 mesh/core/libmesh_core_nrf52832_xxAA.a(mesh_flash.c.obj)
 .bss.m_suspended
                0x200044c4        0x1 mesh/core/libmesh_core_nrf52832_xxAA.a(mesh_flash.c.obj)
 *fill*         0x200044c5        0x3 
 .bss.m_users   0x200044c8      0x228 mesh/core/libmesh_core_nrf52832_xxAA.a(mesh_flash.c.obj)
 .bss.m_128buf  0x200046f0       0x10 mesh/core/libmesh_core_nrf52832_xxAA.a(aes_cmac.c.obj)
 .bss.m_subkey1
                0x20004700       0x10 mesh/core/libmesh_core_nrf52832_xxAA.a(aes_cmac.c.obj)
 .bss.m_subkey2
                0x20004710       0x10 mesh/core/libmesh_core_nrf52832_xxAA.a(aes_cmac.c.obj)
 .bss.m_cache_full
                0x20004720        0x1 mesh/core/libmesh_core_nrf52832_xxAA.a(replay_cache.c.obj)
 .bss.m_cache_index
                0x20004721        0x1 mesh/core/libmesh_core_nrf52832_xxAA.a(replay_cache.c.obj)
 *fill*         0x20004722        0x2 
 .bss.m_replay_cache
                0x20004724      0x200 mesh/core/libmesh_core_nrf52832_xxAA.a(replay_cache.c.obj)
 .bss._acDownBuffer
                0x20004924       0x80 external/rtt/librtt_nrf52832_xxAA.a(SEGGER_RTT.c.obj)
 .bss._acUpBuffer
                0x200049a4      0x400 external/rtt/librtt_nrf52832_xxAA.a(SEGGER_RTT.c.obj)
 .bss.__malloc_free_list
                0x20004da4        0x4 c:/a/gcc_arm/6/bin/../lib/gcc/arm-none-eabi/6.3.1/../../../../arm-none-eabi/lib/thumb/v7e-m/fpv4-sp/hard\libg_nano.a(lib_a-nano-mallocr.o)
                0x20004da4                __malloc_free_list
 .bss.__malloc_sbrk_start
                0x20004da8        0x4 c:/a/gcc_arm/6/bin/../lib/gcc/arm-none-eabi/6.3.1/../../../../arm-none-eabi/lib/thumb/v7e-m/fpv4-sp/hard\libg_nano.a(lib_a-nano-mallocr.o)
                0x20004da8                __malloc_sbrk_start
 .bss.heap_end.5239
                0x20004dac        0x4 c:/a/gcc_arm/6/bin/../lib/gcc/arm-none-eabi/6.3.1/../../../../arm-none-eabi/lib/thumb/v7e-m/fpv4-sp/hard\libnosys.a(sbrk.o)
 *(COMMON)
 COMMON         0x20004db0        0xc examples/pb_remote/server/CMakeFiles/pb_remote_server_nrf52832_xxAA_s132_3.1.0.dir/__/__/nrf_mesh_sdk.c.obj
                0x20004db0                nrf_nvic_state
 COMMON         0x20004dbc        0x4 mesh/core/libmesh_core_nrf52832_xxAA.a(nrf_mesh.c.obj)
                0x20004dbc                m_assertion_handler
 COMMON         0x20004dc0       0x78 external/rtt/librtt_nrf52832_xxAA.a(SEGGER_RTT.c.obj)
                0x20004dc0                _SEGGER_RTT
 COMMON         0x20004e38        0x4 c:/a/gcc_arm/6/bin/../lib/gcc/arm-none-eabi/6.3.1/../../../../arm-none-eabi/lib/thumb/v7e-m/fpv4-sp/hard\libg_nano.a(lib_a-reent.o)
                0x20004e38                errno
                0x20004e3c                . = ALIGN (0x4)
                0x20004e3c                __bss_end__ = .

.heap           0x20004e40     0x2000
                0x20004e40                __HeapBase = .
                0x20004e40                __end__ = .
                0x20004e40                PROVIDE (end, .)
 *(.heap*)
 .heap          0x20004e40     0x2000 examples/pb_remote/server/CMakeFiles/pb_remote_server_nrf52832_xxAA_s132_3.1.0.dir/__/__/__/external/nRF5_SDK_14.2.0_17b948a/components/toolchain/gcc/gcc_startup_nrf52.S.obj
                0x20006e40                __HeapLimit = .

.stack_dummy    0x20004e40     0x2000
 *(.stack*)
 .stack         0x20004e40     0x2000 examples/pb_remote/server/CMakeFiles/pb_remote_server_nrf52832_xxAA_s132_3.1.0.dir/__/__/__/external/nRF5_SDK_14.2.0_17b948a/components/toolchain/gcc/gcc_startup_nrf52.S.obj
                0x2000fd00                __StackTop = (ORIGIN (RAM) + LENGTH (RAM))
                0x2000dd00                __StackLimit = (__StackTop - SIZEOF (.stack_dummy))
                0x2000fd00                PROVIDE (__stack, __StackTop)
                0x00000001                ASSERT ((__StackLimit >= __HeapLimit), region RAM overflowed with stack)
                0x00000170                DataInitFlashUsed = (__bss_start__ - __data_start__)
                0x00014ce8                CodeFlashUsed = (__etext - ORIGIN (FLASH))
                0x00014e58                TotalFlashUsed = (CodeFlashUsed + DataInitFlashUsed)
                0x00000001                ASSERT ((TotalFlashUsed <= LENGTH (FLASH)), region FLASH overflowed with .data and user data)
OUTPUT(examples\pb_remote\server\pb_remote_server_nrf52832_xxAA_s132_3.1.0.elf elf32-littlearm)

.ARM.attributes
                0x00000000       0x30
 .ARM.attributes
                0x00000000       0x22 c:/a/gcc_arm/6/bin/../lib/gcc/arm-none-eabi/6.3.1/thumb/v7e-m/fpv4-sp/hard/crti.o
 .ARM.attributes
                0x00000022       0x34 c:/a/gcc_arm/6/bin/../lib/gcc/arm-none-eabi/6.3.1/thumb/v7e-m/fpv4-sp/hard/crtbegin.o
 .ARM.attributes
                0x00000056       0x20 c:/a/gcc_arm/6/bin/../lib/gcc/arm-none-eabi/6.3.1/../../../../arm-none-eabi/lib/thumb/v7e-m/fpv4-sp/hard/crt0.o
 .ARM.attributes
                0x00000076       0x39 examples/pb_remote/server/CMakeFiles/pb_remote_server_nrf52832_xxAA_s132_3.1.0.dir/src/main.c.obj
 .ARM.attributes
                0x000000af       0x39 examples/pb_remote/server/CMakeFiles/pb_remote_server_nrf52832_xxAA_s132_3.1.0.dir/__/__/nrf_mesh_sdk.c.obj
 .ARM.attributes
                0x000000e8       0x39 examples/pb_remote/server/CMakeFiles/pb_remote_server_nrf52832_xxAA_s132_3.1.0.dir/__/__/common/src/simple_hal.c.obj
 .ARM.attributes
                0x00000121       0x39 examples/pb_remote/server/CMakeFiles/pb_remote_server_nrf52832_xxAA_s132_3.1.0.dir/__/__/nrf_mesh_weak.c.obj
 .ARM.attributes
                0x0000015a       0x39 examples/pb_remote/server/CMakeFiles/pb_remote_server_nrf52832_xxAA_s132_3.1.0.dir/__/__/__/mesh/prov/src/prov_provisionee.c.obj
 .ARM.attributes
                0x00000193       0x39 examples/pb_remote/server/CMakeFiles/pb_remote_server_nrf52832_xxAA_s132_3.1.0.dir/__/__/__/mesh/prov/src/nrf_mesh_prov.c.obj
 .ARM.attributes
                0x000001cc       0x39 examples/pb_remote/server/CMakeFiles/pb_remote_server_nrf52832_xxAA_s132_3.1.0.dir/__/__/__/mesh/prov/src/provisioning.c.obj
 .ARM.attributes
                0x00000205       0x39 examples/pb_remote/server/CMakeFiles/pb_remote_server_nrf52832_xxAA_s132_3.1.0.dir/__/__/__/mesh/prov/src/prov_beacon.c.obj
 .ARM.attributes
                0x0000023e       0x39 examples/pb_remote/server/CMakeFiles/pb_remote_server_nrf52832_xxAA_s132_3.1.0.dir/__/__/__/mesh/prov/src/prov_utils.c.obj
 .ARM.attributes
                0x00000277       0x39 examples/pb_remote/server/CMakeFiles/pb_remote_server_nrf52832_xxAA_s132_3.1.0.dir/__/__/__/mesh/prov/src/prov_bearer_adv.c.obj
 .ARM.attributes
                0x000002b0       0x39 examples/pb_remote/server/CMakeFiles/pb_remote_server_nrf52832_xxAA_s132_3.1.0.dir/__/__/__/models/pb_remote/src/pb_remote_server.c.obj
 .ARM.attributes
                0x000002e9       0x39 examples/pb_remote/server/CMakeFiles/pb_remote_server_nrf52832_xxAA_s132_3.1.0.dir/__/__/__/mesh/access/src/access_publish.c.obj
 .ARM.attributes
                0x00000322       0x39 examples/pb_remote/server/CMakeFiles/pb_remote_server_nrf52832_xxAA_s132_3.1.0.dir/__/__/__/mesh/access/src/access.c.obj
 .ARM.attributes
                0x0000035b       0x39 examples/pb_remote/server/CMakeFiles/pb_remote_server_nrf52832_xxAA_s132_3.1.0.dir/__/__/__/mesh/access/src/access_reliable.c.obj
 .ARM.attributes
                0x00000394       0x39 examples/pb_remote/server/CMakeFiles/pb_remote_server_nrf52832_xxAA_s132_3.1.0.dir/__/__/__/mesh/access/src/device_state_manager.c.obj
 .ARM.attributes
                0x000003cd       0x39 examples/pb_remote/server/CMakeFiles/pb_remote_server_nrf52832_xxAA_s132_3.1.0.dir/__/__/__/mesh/access/src/nrf_mesh_node_config.c.obj
 .ARM.attributes
                0x00000406       0x39 examples/pb_remote/server/CMakeFiles/pb_remote_server_nrf52832_xxAA_s132_3.1.0.dir/__/__/__/models/config/src/composition_data.c.obj
 .ARM.attributes
                0x0000043f       0x39 examples/pb_remote/server/CMakeFiles/pb_remote_server_nrf52832_xxAA_s132_3.1.0.dir/__/__/__/models/config/src/config_server.c.obj
 .ARM.attributes
                0x00000478       0x39 examples/pb_remote/server/CMakeFiles/pb_remote_server_nrf52832_xxAA_s132_3.1.0.dir/__/__/__/models/config/src/packed_index_list.c.obj
 .ARM.attributes
                0x000004b1       0x39 examples/pb_remote/server/CMakeFiles/pb_remote_server_nrf52832_xxAA_s132_3.1.0.dir/__/__/__/models/health/src/health_server.c.obj
 .ARM.attributes
                0x000004ea       0x39 examples/pb_remote/server/CMakeFiles/pb_remote_server_nrf52832_xxAA_s132_3.1.0.dir/__/__/__/external/nRF5_SDK_14.2.0_17b948a/components/toolchain/system_nrf52.c.obj
 .ARM.attributes
                0x00000523       0x20 examples/pb_remote/server/CMakeFiles/pb_remote_server_nrf52832_xxAA_s132_3.1.0.dir/__/__/__/external/nRF5_SDK_14.2.0_17b948a/components/toolchain/gcc/gcc_startup_nrf52.S.obj
 .ARM.attributes
                0x00000543       0x39 mesh/core/libmesh_core_nrf52832_xxAA.a(nrf_mesh_configure.c.obj)
 .ARM.attributes
                0x0000057c       0x39 mesh/core/libmesh_core_nrf52832_xxAA.a(event.c.obj)
 .ARM.attributes
                0x000005b5       0x39 mesh/core/libmesh_core_nrf52832_xxAA.a(fifo.c.obj)
 .ARM.attributes
                0x000005ee       0x39 mesh/core/libmesh_core_nrf52832_xxAA.a(net_state.c.obj)
 .ARM.attributes
                0x00000627       0x39 mesh/core/libmesh_core_nrf52832_xxAA.a(nrf_mesh_utils.c.obj)
 .ARM.attributes
                0x00000660       0x39 mesh/core/libmesh_core_nrf52832_xxAA.a(nrf_mesh.c.obj)
 .ARM.attributes
                0x00000699       0x39 mesh/core/libmesh_core_nrf52832_xxAA.a(hal.c.obj)
 .ARM.attributes
                0x000006d2       0x39 mesh/core/libmesh_core_nrf52832_xxAA.a(timer_scheduler.c.obj)
 .ARM.attributes
                0x0000070b       0x39 mesh/core/libmesh_core_nrf52832_xxAA.a(timer.c.obj)
 .ARM.attributes
                0x00000744       0x39 mesh/core/libmesh_core_nrf52832_xxAA.a(ticker.c.obj)
 .ARM.attributes
                0x0000077d       0x39 mesh/core/libmesh_core_nrf52832_xxAA.a(rand.c.obj)
 .ARM.attributes
                0x000007b6       0x39 mesh/core/libmesh_core_nrf52832_xxAA.a(nrf_mesh_opt.c.obj)
 .ARM.attributes
                0x000007ef       0x39 mesh/core/libmesh_core_nrf52832_xxAA.a(timeslot.c.obj)
 .ARM.attributes
                0x00000828       0x39 mesh/core/libmesh_core_nrf52832_xxAA.a(bearer_event.c.obj)
 .ARM.attributes
                0x00000861       0x39 mesh/core/libmesh_core_nrf52832_xxAA.a(enc.c.obj)
 .ARM.attributes
                0x0000089a       0x39 mesh/core/libmesh_core_nrf52832_xxAA.a(network.c.obj)
 .ARM.attributes
                0x000008d3       0x39 mesh/core/libmesh_core_nrf52832_xxAA.a(nrf_mesh_keygen.c.obj)
 .ARM.attributes
                0x0000090c       0x39 mesh/core/libmesh_core_nrf52832_xxAA.a(list.c.obj)
 .ARM.attributes
                0x00000945       0x39 mesh/core/libmesh_core_nrf52832_xxAA.a(log.c.obj)
 .ARM.attributes
                0x0000097e       0x39 mesh/core/libmesh_core_nrf52832_xxAA.a(flash_manager.c.obj)
 .ARM.attributes
                0x000009b7       0x39 mesh/core/libmesh_core_nrf52832_xxAA.a(ccm_soft.c.obj)
 .ARM.attributes
                0x000009f0       0x39 mesh/core/libmesh_core_nrf52832_xxAA.a(beacon.c.obj)
 .ARM.attributes
                0x00000a29       0x39 mesh/core/libmesh_core_nrf52832_xxAA.a(flash_manager_internal.c.obj)
 .ARM.attributes
                0x00000a62       0x39 mesh/core/libmesh_core_nrf52832_xxAA.a(core_tx.c.obj)
 .ARM.attributes
                0x00000a9b       0x39 mesh/core/libmesh_core_nrf52832_xxAA.a(heartbeat.c.obj)
 .ARM.attributes
                0x00000ad4       0x39 mesh/core/libmesh_core_nrf52832_xxAA.a(net_beacon.c.obj)
 .ARM.attributes
                0x00000b0d       0x39 mesh/core/libmesh_core_nrf52832_xxAA.a(core_tx_adv.c.obj)
 .ARM.attributes
                0x00000b46       0x39 mesh/core/libmesh_core_nrf52832_xxAA.a(ad_listener.c.obj)
 .ARM.attributes
                0x00000b7f       0x39 mesh/core/libmesh_core_nrf52832_xxAA.a(ad_type_filter.c.obj)
 .ARM.attributes
                0x00000bb8       0x39 mesh/core/libmesh_core_nrf52832_xxAA.a(advertiser.c.obj)
 .ARM.attributes
                0x00000bf1       0x39 mesh/core/libmesh_core_nrf52832_xxAA.a(bearer_handler.c.obj)
 .ARM.attributes
                0x00000c2a       0x39 mesh/core/libmesh_core_nrf52832_xxAA.a(broadcast.c.obj)
 .ARM.attributes
                0x00000c63       0x39 mesh/core/libmesh_core_nrf52832_xxAA.a(filter_engine.c.obj)
 .ARM.attributes
                0x00000c9c       0x39 mesh/core/libmesh_core_nrf52832_xxAA.a(radio_config.c.obj)
 .ARM.attributes
                0x00000cd5       0x39 mesh/core/libmesh_core_nrf52832_xxAA.a(scanner.c.obj)
 .ARM.attributes
                0x00000d0e       0x39 mesh/core/libmesh_core_nrf52832_xxAA.a(internal_event.c.obj)
 .ARM.attributes
                0x00000d47       0x39 mesh/core/libmesh_core_nrf52832_xxAA.a(aes.c.obj)
 .ARM.attributes
                0x00000d80       0x39 mesh/core/libmesh_core_nrf52832_xxAA.a(msg_cache.c.obj)
 .ARM.attributes
                0x00000db9       0x39 mesh/core/libmesh_core_nrf52832_xxAA.a(transport.c.obj)
 .ARM.attributes
                0x00000df2       0x39 mesh/core/libmesh_core_nrf52832_xxAA.a(packet_buffer.c.obj)
 .ARM.attributes
                0x00000e2b       0x39 mesh/core/libmesh_core_nrf52832_xxAA.a(flash_manager_defrag.c.obj)
 .ARM.attributes
                0x00000e64       0x39 mesh/core/libmesh_core_nrf52832_xxAA.a(packet_mgr.c.obj)
 .ARM.attributes
                0x00000e9d       0x39 mesh/core/libmesh_core_nrf52832_xxAA.a(mesh_flash.c.obj)
 .ARM.attributes
                0x00000ed6       0x39 mesh/core/libmesh_core_nrf52832_xxAA.a(queue.c.obj)
 .ARM.attributes
                0x00000f0f       0x39 mesh/core/libmesh_core_nrf52832_xxAA.a(aes_cmac.c.obj)
 .ARM.attributes
                0x00000f48       0x39 mesh/core/libmesh_core_nrf52832_xxAA.a(msqueue.c.obj)
 .ARM.attributes
                0x00000f81       0x39 mesh/core/libmesh_core_nrf52832_xxAA.a(replay_cache.c.obj)
 .ARM.attributes
                0x00000fba       0x39 mesh/core/libmesh_core_nrf52832_xxAA.a(nrf_flash.c.obj)
 .ARM.attributes
                0x00000ff3       0x39 external/rtt/librtt_nrf52832_xxAA.a(SEGGER_RTT.c.obj)
 .ARM.attributes
                0x0000102c       0x39 external/rtt/librtt_nrf52832_xxAA.a(SEGGER_RTT_printf.c.obj)
 .ARM.attributes
                0x00001065       0x39 external/micro-ecc/libuECC_nrf52832_xxAA.a(uECC.c.obj)
 .ARM.attributes
                0x0000109e       0x34 c:/a/gcc_arm/6/bin/../lib/gcc/arm-none-eabi/6.3.1/../../../../arm-none-eabi/lib/thumb/v7e-m/fpv4-sp/hard\libg_nano.a(lib_a-exit.o)
 .ARM.attributes
                0x000010d2       0x34 c:/a/gcc_arm/6/bin/../lib/gcc/arm-none-eabi/6.3.1/../../../../arm-none-eabi/lib/thumb/v7e-m/fpv4-sp/hard\libg_nano.a(lib_a-impure.o)
 .ARM.attributes
                0x00001106       0x34 c:/a/gcc_arm/6/bin/../lib/gcc/arm-none-eabi/6.3.1/../../../../arm-none-eabi/lib/thumb/v7e-m/fpv4-sp/hard\libg_nano.a(lib_a-init.o)
 .ARM.attributes
                0x0000113a       0x34 c:/a/gcc_arm/6/bin/../lib/gcc/arm-none-eabi/6.3.1/../../../../arm-none-eabi/lib/thumb/v7e-m/fpv4-sp/hard\libg_nano.a(lib_a-malloc.o)
 .ARM.attributes
                0x0000116e       0x34 c:/a/gcc_arm/6/bin/../lib/gcc/arm-none-eabi/6.3.1/../../../../arm-none-eabi/lib/thumb/v7e-m/fpv4-sp/hard\libg_nano.a(lib_a-memcmp.o)
 .ARM.attributes
                0x000011a2       0x34 c:/a/gcc_arm/6/bin/../lib/gcc/arm-none-eabi/6.3.1/../../../../arm-none-eabi/lib/thumb/v7e-m/fpv4-sp/hard\libg_nano.a(lib_a-memcpy-stub.o)
 .ARM.attributes
                0x000011d6       0x34 c:/a/gcc_arm/6/bin/../lib/gcc/arm-none-eabi/6.3.1/../../../../arm-none-eabi/lib/thumb/v7e-m/fpv4-sp/hard\libg_nano.a(lib_a-memset.o)
 .ARM.attributes
                0x0000120a       0x34 c:/a/gcc_arm/6/bin/../lib/gcc/arm-none-eabi/6.3.1/../../../../arm-none-eabi/lib/thumb/v7e-m/fpv4-sp/hard\libg_nano.a(lib_a-nano-freer.o)
 .ARM.attributes
                0x0000123e       0x34 c:/a/gcc_arm/6/bin/../lib/gcc/arm-none-eabi/6.3.1/../../../../arm-none-eabi/lib/thumb/v7e-m/fpv4-sp/hard\libg_nano.a(lib_a-nano-mallocr.o)
 .ARM.attributes
                0x00001272       0x34 c:/a/gcc_arm/6/bin/../lib/gcc/arm-none-eabi/6.3.1/../../../../arm-none-eabi/lib/thumb/v7e-m/fpv4-sp/hard\libg_nano.a(lib_a-sbrkr.o)
 .ARM.attributes
                0x000012a6       0x34 c:/a/gcc_arm/6/bin/../lib/gcc/arm-none-eabi/6.3.1/../../../../arm-none-eabi/lib/thumb/v7e-m/fpv4-sp/hard\libg_nano.a(lib_a-strcpy.o)
 .ARM.attributes
                0x000012da       0x1b c:/a/gcc_arm/6/bin/../lib/gcc/arm-none-eabi/6.3.1/../../../../arm-none-eabi/lib/thumb/v7e-m/fpv4-sp/hard\libg_nano.a(lib_a-strlen.o)
 .ARM.attributes
                0x000012f5       0x34 c:/a/gcc_arm/6/bin/../lib/gcc/arm-none-eabi/6.3.1/../../../../arm-none-eabi/lib/thumb/v7e-m/fpv4-sp/hard\libg_nano.a(lib_a-strrchr.o)
 .ARM.attributes
                0x00001329       0x34 c:/a/gcc_arm/6/bin/../lib/gcc/arm-none-eabi/6.3.1/../../../../arm-none-eabi/lib/thumb/v7e-m/fpv4-sp/hard\libg_nano.a(lib_a-mlock.o)
 .ARM.attributes
                0x0000135d       0x34 c:/a/gcc_arm/6/bin/../lib/gcc/arm-none-eabi/6.3.1/../../../../arm-none-eabi/lib/thumb/v7e-m/fpv4-sp/hard\libg_nano.a(lib_a-reent.o)
 .ARM.attributes
                0x00001391       0x34 c:/a/gcc_arm/6/bin/../lib/gcc/arm-none-eabi/6.3.1/../../../../arm-none-eabi/lib/thumb/v7e-m/fpv4-sp/hard\libg_nano.a(lib_a-strchr.o)
 .ARM.attributes
                0x000013c5       0x34 c:/a/gcc_arm/6/bin/../lib/gcc/arm-none-eabi/6.3.1/thumb/v7e-m/fpv4-sp/hard/crtend.o
 .ARM.attributes
                0x000013f9       0x22 c:/a/gcc_arm/6/bin/../lib/gcc/arm-none-eabi/6.3.1/thumb/v7e-m/fpv4-sp/hard/crtn.o
 .ARM.attributes
                0x0000141b       0x34 c:/a/gcc_arm/6/bin/../lib/gcc/arm-none-eabi/6.3.1/../../../../arm-none-eabi/lib/thumb/v7e-m/fpv4-sp/hard\libnosys.a(sbrk.o)
 .ARM.attributes
                0x0000144f       0x34 c:/a/gcc_arm/6/bin/../lib/gcc/arm-none-eabi/6.3.1/../../../../arm-none-eabi/lib/thumb/v7e-m/fpv4-sp/hard\libnosys.a(_exit.o)

.comment        0x00000000       0x7f
 .comment       0x00000000       0x7f examples/pb_remote/server/CMakeFiles/pb_remote_server_nrf52832_xxAA_s132_3.1.0.dir/src/main.c.obj
                                 0x80 (size before relaxing)
 .comment       0x0000007f       0x80 examples/pb_remote/server/CMakeFiles/pb_remote_server_nrf52832_xxAA_s132_3.1.0.dir/__/__/nrf_mesh_sdk.c.obj
 .comment       0x0000007f       0x80 examples/pb_remote/server/CMakeFiles/pb_remote_server_nrf52832_xxAA_s132_3.1.0.dir/__/__/common/src/simple_hal.c.obj
 .comment       0x0000007f       0x80 examples/pb_remote/server/CMakeFiles/pb_remote_server_nrf52832_xxAA_s132_3.1.0.dir/__/__/nrf_mesh_weak.c.obj
 .comment       0x0000007f       0x80 examples/pb_remote/server/CMakeFiles/pb_remote_server_nrf52832_xxAA_s132_3.1.0.dir/__/__/__/mesh/prov/src/prov_provisionee.c.obj
 .comment       0x0000007f       0x80 examples/pb_remote/server/CMakeFiles/pb_remote_server_nrf52832_xxAA_s132_3.1.0.dir/__/__/__/mesh/prov/src/nrf_mesh_prov.c.obj
 .comment       0x0000007f       0x80 examples/pb_remote/server/CMakeFiles/pb_remote_server_nrf52832_xxAA_s132_3.1.0.dir/__/__/__/mesh/prov/src/provisioning.c.obj
 .comment       0x0000007f       0x80 examples/pb_remote/server/CMakeFiles/pb_remote_server_nrf52832_xxAA_s132_3.1.0.dir/__/__/__/mesh/prov/src/prov_beacon.c.obj
 .comment       0x0000007f       0x80 examples/pb_remote/server/CMakeFiles/pb_remote_server_nrf52832_xxAA_s132_3.1.0.dir/__/__/__/mesh/prov/src/prov_utils.c.obj
 .comment       0x0000007f       0x80 examples/pb_remote/server/CMakeFiles/pb_remote_server_nrf52832_xxAA_s132_3.1.0.dir/__/__/__/mesh/prov/src/prov_bearer_adv.c.obj
 .comment       0x0000007f       0x80 examples/pb_remote/server/CMakeFiles/pb_remote_server_nrf52832_xxAA_s132_3.1.0.dir/__/__/__/models/pb_remote/src/pb_remote_server.c.obj
 .comment       0x0000007f       0x80 examples/pb_remote/server/CMakeFiles/pb_remote_server_nrf52832_xxAA_s132_3.1.0.dir/__/__/__/mesh/access/src/access_publish.c.obj
 .comment       0x0000007f       0x80 examples/pb_remote/server/CMakeFiles/pb_remote_server_nrf52832_xxAA_s132_3.1.0.dir/__/__/__/mesh/access/src/access.c.obj
 .comment       0x0000007f       0x80 examples/pb_remote/server/CMakeFiles/pb_remote_server_nrf52832_xxAA_s132_3.1.0.dir/__/__/__/mesh/access/src/access_reliable.c.obj
 .comment       0x0000007f       0x80 examples/pb_remote/server/CMakeFiles/pb_remote_server_nrf52832_xxAA_s132_3.1.0.dir/__/__/__/mesh/access/src/device_state_manager.c.obj
 .comment       0x0000007f       0x80 examples/pb_remote/server/CMakeFiles/pb_remote_server_nrf52832_xxAA_s132_3.1.0.dir/__/__/__/mesh/access/src/nrf_mesh_node_config.c.obj
 .comment       0x0000007f       0x80 examples/pb_remote/server/CMakeFiles/pb_remote_server_nrf52832_xxAA_s132_3.1.0.dir/__/__/__/models/config/src/composition_data.c.obj
 .comment       0x0000007f       0x80 examples/pb_remote/server/CMakeFiles/pb_remote_server_nrf52832_xxAA_s132_3.1.0.dir/__/__/__/models/config/src/config_server.c.obj
 .comment       0x0000007f       0x80 examples/pb_remote/server/CMakeFiles/pb_remote_server_nrf52832_xxAA_s132_3.1.0.dir/__/__/__/models/config/src/packed_index_list.c.obj
 .comment       0x0000007f       0x80 examples/pb_remote/server/CMakeFiles/pb_remote_server_nrf52832_xxAA_s132_3.1.0.dir/__/__/__/models/health/src/health_server.c.obj
 .comment       0x0000007f       0x80 examples/pb_remote/server/CMakeFiles/pb_remote_server_nrf52832_xxAA_s132_3.1.0.dir/__/__/__/external/nRF5_SDK_14.2.0_17b948a/components/toolchain/system_nrf52.c.obj
 .comment       0x0000007f       0x80 mesh/core/libmesh_core_nrf52832_xxAA.a(nrf_mesh_configure.c.obj)
 .comment       0x0000007f       0x80 mesh/core/libmesh_core_nrf52832_xxAA.a(event.c.obj)
 .comment       0x0000007f       0x80 mesh/core/libmesh_core_nrf52832_xxAA.a(fifo.c.obj)
 .comment       0x0000007f       0x80 mesh/core/libmesh_core_nrf52832_xxAA.a(net_state.c.obj)
 .comment       0x0000007f       0x80 mesh/core/libmesh_core_nrf52832_xxAA.a(nrf_mesh_utils.c.obj)
 .comment       0x0000007f       0x80 mesh/core/libmesh_core_nrf52832_xxAA.a(nrf_mesh.c.obj)
 .comment       0x0000007f       0x80 mesh/core/libmesh_core_nrf52832_xxAA.a(hal.c.obj)
 .comment       0x0000007f       0x80 mesh/core/libmesh_core_nrf52832_xxAA.a(timer_scheduler.c.obj)
 .comment       0x0000007f       0x80 mesh/core/libmesh_core_nrf52832_xxAA.a(timer.c.obj)
 .comment       0x0000007f       0x80 mesh/core/libmesh_core_nrf52832_xxAA.a(ticker.c.obj)
 .comment       0x0000007f       0x80 mesh/core/libmesh_core_nrf52832_xxAA.a(rand.c.obj)
 .comment       0x0000007f       0x80 mesh/core/libmesh_core_nrf52832_xxAA.a(nrf_mesh_opt.c.obj)
 .comment       0x0000007f       0x80 mesh/core/libmesh_core_nrf52832_xxAA.a(timeslot.c.obj)
 .comment       0x0000007f       0x80 mesh/core/libmesh_core_nrf52832_xxAA.a(bearer_event.c.obj)
 .comment       0x0000007f       0x80 mesh/core/libmesh_core_nrf52832_xxAA.a(enc.c.obj)
 .comment       0x0000007f       0x80 mesh/core/libmesh_core_nrf52832_xxAA.a(network.c.obj)
 .comment       0x0000007f       0x80 mesh/core/libmesh_core_nrf52832_xxAA.a(nrf_mesh_keygen.c.obj)
 .comment       0x0000007f       0x80 mesh/core/libmesh_core_nrf52832_xxAA.a(list.c.obj)
 .comment       0x0000007f       0x80 mesh/core/libmesh_core_nrf52832_xxAA.a(log.c.obj)
 .comment       0x0000007f       0x80 mesh/core/libmesh_core_nrf52832_xxAA.a(flash_manager.c.obj)
 .comment       0x0000007f       0x80 mesh/core/libmesh_core_nrf52832_xxAA.a(ccm_soft.c.obj)
 .comment       0x0000007f       0x80 mesh/core/libmesh_core_nrf52832_xxAA.a(beacon.c.obj)
 .comment       0x0000007f       0x80 mesh/core/libmesh_core_nrf52832_xxAA.a(flash_manager_internal.c.obj)
 .comment       0x0000007f       0x80 mesh/core/libmesh_core_nrf52832_xxAA.a(core_tx.c.obj)
 .comment       0x0000007f       0x80 mesh/core/libmesh_core_nrf52832_xxAA.a(heartbeat.c.obj)
 .comment       0x0000007f       0x80 mesh/core/libmesh_core_nrf52832_xxAA.a(net_beacon.c.obj)
 .comment       0x0000007f       0x80 mesh/core/libmesh_core_nrf52832_xxAA.a(core_tx_adv.c.obj)
 .comment       0x0000007f       0x80 mesh/core/libmesh_core_nrf52832_xxAA.a(ad_listener.c.obj)
 .comment       0x0000007f       0x80 mesh/core/libmesh_core_nrf52832_xxAA.a(ad_type_filter.c.obj)
 .comment       0x0000007f       0x80 mesh/core/libmesh_core_nrf52832_xxAA.a(advertiser.c.obj)
 .comment       0x0000007f       0x80 mesh/core/libmesh_core_nrf52832_xxAA.a(bearer_handler.c.obj)
 .comment       0x0000007f       0x80 mesh/core/libmesh_core_nrf52832_xxAA.a(broadcast.c.obj)
 .comment       0x0000007f       0x80 mesh/core/libmesh_core_nrf52832_xxAA.a(filter_engine.c.obj)
 .comment       0x0000007f       0x80 mesh/core/libmesh_core_nrf52832_xxAA.a(radio_config.c.obj)
 .comment       0x0000007f       0x80 mesh/core/libmesh_core_nrf52832_xxAA.a(scanner.c.obj)
 .comment       0x0000007f       0x80 mesh/core/libmesh_core_nrf52832_xxAA.a(internal_event.c.obj)
 .comment       0x0000007f       0x80 mesh/core/libmesh_core_nrf52832_xxAA.a(aes.c.obj)
 .comment       0x0000007f       0x80 mesh/core/libmesh_core_nrf52832_xxAA.a(msg_cache.c.obj)
 .comment       0x0000007f       0x80 mesh/core/libmesh_core_nrf52832_xxAA.a(transport.c.obj)
 .comment       0x0000007f       0x80 mesh/core/libmesh_core_nrf52832_xxAA.a(packet_buffer.c.obj)
 .comment       0x0000007f       0x80 mesh/core/libmesh_core_nrf52832_xxAA.a(flash_manager_defrag.c.obj)
 .comment       0x0000007f       0x80 mesh/core/libmesh_core_nrf52832_xxAA.a(packet_mgr.c.obj)
 .comment       0x0000007f       0x80 mesh/core/libmesh_core_nrf52832_xxAA.a(mesh_flash.c.obj)
 .comment       0x0000007f       0x80 mesh/core/libmesh_core_nrf52832_xxAA.a(queue.c.obj)
 .comment       0x0000007f       0x80 mesh/core/libmesh_core_nrf52832_xxAA.a(aes_cmac.c.obj)
 .comment       0x0000007f       0x80 mesh/core/libmesh_core_nrf52832_xxAA.a(msqueue.c.obj)
 .comment       0x0000007f       0x80 mesh/core/libmesh_core_nrf52832_xxAA.a(replay_cache.c.obj)
 .comment       0x0000007f       0x80 mesh/core/libmesh_core_nrf52832_xxAA.a(nrf_flash.c.obj)
 .comment       0x0000007f       0x80 external/rtt/librtt_nrf52832_xxAA.a(SEGGER_RTT.c.obj)
 .comment       0x0000007f       0x80 external/rtt/librtt_nrf52832_xxAA.a(SEGGER_RTT_printf.c.obj)
 .comment       0x0000007f       0x80 external/micro-ecc/libuECC_nrf52832_xxAA.a(uECC.c.obj)

.debug_info     0x00000000    0x79ad8
 .debug_info    0x00000000     0x2a93 examples/pb_remote/server/CMakeFiles/pb_remote_server_nrf52832_xxAA_s132_3.1.0.dir/src/main.c.obj
 .debug_info    0x00002a93     0x33aa examples/pb_remote/server/CMakeFiles/pb_remote_server_nrf52832_xxAA_s132_3.1.0.dir/__/__/nrf_mesh_sdk.c.obj
 .debug_info    0x00005e3d     0x1477 examples/pb_remote/server/CMakeFiles/pb_remote_server_nrf52832_xxAA_s132_3.1.0.dir/__/__/common/src/simple_hal.c.obj
 .debug_info    0x000072b4      0x94b examples/pb_remote/server/CMakeFiles/pb_remote_server_nrf52832_xxAA_s132_3.1.0.dir/__/__/nrf_mesh_weak.c.obj
 .debug_info    0x00007bff     0x26e8 examples/pb_remote/server/CMakeFiles/pb_remote_server_nrf52832_xxAA_s132_3.1.0.dir/__/__/__/mesh/prov/src/prov_provisionee.c.obj
 .debug_info    0x0000a2e7     0x1bf0 examples/pb_remote/server/CMakeFiles/pb_remote_server_nrf52832_xxAA_s132_3.1.0.dir/__/__/__/mesh/prov/src/nrf_mesh_prov.c.obj
 .debug_info    0x0000bed7     0x1588 examples/pb_remote/server/CMakeFiles/pb_remote_server_nrf52832_xxAA_s132_3.1.0.dir/__/__/__/mesh/prov/src/provisioning.c.obj
 .debug_info    0x0000d45f     0x199b examples/pb_remote/server/CMakeFiles/pb_remote_server_nrf52832_xxAA_s132_3.1.0.dir/__/__/__/mesh/prov/src/prov_beacon.c.obj
 .debug_info    0x0000edfa     0x2021 examples/pb_remote/server/CMakeFiles/pb_remote_server_nrf52832_xxAA_s132_3.1.0.dir/__/__/__/mesh/prov/src/prov_utils.c.obj
 .debug_info    0x00010e1b     0x3963 examples/pb_remote/server/CMakeFiles/pb_remote_server_nrf52832_xxAA_s132_3.1.0.dir/__/__/__/mesh/prov/src/prov_bearer_adv.c.obj
 .debug_info    0x0001477e     0x4dc7 examples/pb_remote/server/CMakeFiles/pb_remote_server_nrf52832_xxAA_s132_3.1.0.dir/__/__/__/models/pb_remote/src/pb_remote_server.c.obj
 .debug_info    0x00019545     0x112b examples/pb_remote/server/CMakeFiles/pb_remote_server_nrf52832_xxAA_s132_3.1.0.dir/__/__/__/mesh/access/src/access_publish.c.obj
 .debug_info    0x0001a670     0x4428 examples/pb_remote/server/CMakeFiles/pb_remote_server_nrf52832_xxAA_s132_3.1.0.dir/__/__/__/mesh/access/src/access.c.obj
 .debug_info    0x0001ea98     0x153b examples/pb_remote/server/CMakeFiles/pb_remote_server_nrf52832_xxAA_s132_3.1.0.dir/__/__/__/mesh/access/src/access_reliable.c.obj
 .debug_info    0x0001ffd3     0x5f01 examples/pb_remote/server/CMakeFiles/pb_remote_server_nrf52832_xxAA_s132_3.1.0.dir/__/__/__/mesh/access/src/device_state_manager.c.obj
 .debug_info    0x00025ed4     0x39aa examples/pb_remote/server/CMakeFiles/pb_remote_server_nrf52832_xxAA_s132_3.1.0.dir/__/__/__/mesh/access/src/nrf_mesh_node_config.c.obj
 .debug_info    0x0002987e      0xe8a examples/pb_remote/server/CMakeFiles/pb_remote_server_nrf52832_xxAA_s132_3.1.0.dir/__/__/__/models/config/src/composition_data.c.obj
 .debug_info    0x0002a708     0x69bf examples/pb_remote/server/CMakeFiles/pb_remote_server_nrf52832_xxAA_s132_3.1.0.dir/__/__/__/models/config/src/config_server.c.obj
 .debug_info    0x000310c7      0x14b examples/pb_remote/server/CMakeFiles/pb_remote_server_nrf52832_xxAA_s132_3.1.0.dir/__/__/__/models/config/src/packed_index_list.c.obj
 .debug_info    0x00031212     0x241a examples/pb_remote/server/CMakeFiles/pb_remote_server_nrf52832_xxAA_s132_3.1.0.dir/__/__/__/models/health/src/health_server.c.obj
 .debug_info    0x0003362c     0x10da examples/pb_remote/server/CMakeFiles/pb_remote_server_nrf52832_xxAA_s132_3.1.0.dir/__/__/__/external/nRF5_SDK_14.2.0_17b948a/components/toolchain/system_nrf52.c.obj
 .debug_info    0x00034706      0xd04 mesh/core/libmesh_core_nrf52832_xxAA.a(nrf_mesh_configure.c.obj)
 .debug_info    0x0003540a     0x150e mesh/core/libmesh_core_nrf52832_xxAA.a(event.c.obj)
 .debug_info    0x00036918      0xd0e mesh/core/libmesh_core_nrf52832_xxAA.a(fifo.c.obj)
 .debug_info    0x00037626     0x242c mesh/core/libmesh_core_nrf52832_xxAA.a(net_state.c.obj)
 .debug_info    0x00039a52      0xa87 mesh/core/libmesh_core_nrf52832_xxAA.a(nrf_mesh_utils.c.obj)
 .debug_info    0x0003a4d9     0x33fd mesh/core/libmesh_core_nrf52832_xxAA.a(nrf_mesh.c.obj)
 .debug_info    0x0003d8d6      0x570 mesh/core/libmesh_core_nrf52832_xxAA.a(hal.c.obj)
 .debug_info    0x0003de46     0x102a mesh/core/libmesh_core_nrf52832_xxAA.a(timer_scheduler.c.obj)
 .debug_info    0x0003ee70      0xd79 mesh/core/libmesh_core_nrf52832_xxAA.a(timer.c.obj)
 .debug_info    0x0003fbe9      0x20b mesh/core/libmesh_core_nrf52832_xxAA.a(ticker.c.obj)
 .debug_info    0x0003fdf4      0x40f mesh/core/libmesh_core_nrf52832_xxAA.a(rand.c.obj)
 .debug_info    0x00040203      0xb1c mesh/core/libmesh_core_nrf52832_xxAA.a(nrf_mesh_opt.c.obj)
 .debug_info    0x00040d1f     0x19fd mesh/core/libmesh_core_nrf52832_xxAA.a(timeslot.c.obj)
 .debug_info    0x0004271c     0x19d7 mesh/core/libmesh_core_nrf52832_xxAA.a(bearer_event.c.obj)
 .debug_info    0x000440f3     0x164f mesh/core/libmesh_core_nrf52832_xxAA.a(enc.c.obj)
 .debug_info    0x00045742     0x2aee mesh/core/libmesh_core_nrf52832_xxAA.a(network.c.obj)
 .debug_info    0x00048230      0x4c8 mesh/core/libmesh_core_nrf52832_xxAA.a(nrf_mesh_keygen.c.obj)
 .debug_info    0x000486f8      0x48b mesh/core/libmesh_core_nrf52832_xxAA.a(list.c.obj)
 .debug_info    0x00048b83      0xe28 mesh/core/libmesh_core_nrf52832_xxAA.a(log.c.obj)
 .debug_info    0x000499ab     0x320c mesh/core/libmesh_core_nrf52832_xxAA.a(flash_manager.c.obj)
 .debug_info    0x0004cbb7     0x10a3 mesh/core/libmesh_core_nrf52832_xxAA.a(ccm_soft.c.obj)
 .debug_info    0x0004dc5a     0x193b mesh/core/libmesh_core_nrf52832_xxAA.a(beacon.c.obj)
 .debug_info    0x0004f595      0xb99 mesh/core/libmesh_core_nrf52832_xxAA.a(flash_manager_internal.c.obj)
 .debug_info    0x0005012e      0xfb3 mesh/core/libmesh_core_nrf52832_xxAA.a(core_tx.c.obj)
 .debug_info    0x000510e1     0x219f mesh/core/libmesh_core_nrf52832_xxAA.a(heartbeat.c.obj)
 .debug_info    0x00053280     0x1511 mesh/core/libmesh_core_nrf52832_xxAA.a(net_beacon.c.obj)
 .debug_info    0x00054791     0x160b mesh/core/libmesh_core_nrf52832_xxAA.a(core_tx_adv.c.obj)
 .debug_info    0x00055d9c     0x1118 mesh/core/libmesh_core_nrf52832_xxAA.a(ad_listener.c.obj)
 .debug_info    0x00056eb4      0xfcd mesh/core/libmesh_core_nrf52832_xxAA.a(ad_type_filter.c.obj)
 .debug_info    0x00057e81     0x2448 mesh/core/libmesh_core_nrf52832_xxAA.a(advertiser.c.obj)
 .debug_info    0x0005a2c9     0x18f8 mesh/core/libmesh_core_nrf52832_xxAA.a(bearer_handler.c.obj)
 .debug_info    0x0005bbc1     0x1963 mesh/core/libmesh_core_nrf52832_xxAA.a(broadcast.c.obj)
 .debug_info    0x0005d524      0xcf4 mesh/core/libmesh_core_nrf52832_xxAA.a(filter_engine.c.obj)
 .debug_info    0x0005e218      0x871 mesh/core/libmesh_core_nrf52832_xxAA.a(radio_config.c.obj)
 .debug_info    0x0005ea89     0x25aa mesh/core/libmesh_core_nrf52832_xxAA.a(scanner.c.obj)
 .debug_info    0x00061033      0xc4e mesh/core/libmesh_core_nrf52832_xxAA.a(internal_event.c.obj)
 .debug_info    0x00061c81      0xbcc mesh/core/libmesh_core_nrf52832_xxAA.a(aes.c.obj)
 .debug_info    0x0006284d      0xa81 mesh/core/libmesh_core_nrf52832_xxAA.a(msg_cache.c.obj)
 .debug_info    0x000632ce     0x54fa mesh/core/libmesh_core_nrf52832_xxAA.a(transport.c.obj)
 .debug_info    0x000687c8     0x1d81 mesh/core/libmesh_core_nrf52832_xxAA.a(packet_buffer.c.obj)
 .debug_info    0x0006a549     0x234f mesh/core/libmesh_core_nrf52832_xxAA.a(flash_manager_defrag.c.obj)
 .debug_info    0x0006c898     0x115b mesh/core/libmesh_core_nrf52832_xxAA.a(packet_mgr.c.obj)
 .debug_info    0x0006d9f3     0x1887 mesh/core/libmesh_core_nrf52832_xxAA.a(mesh_flash.c.obj)
 .debug_info    0x0006f27a      0xaf2 mesh/core/libmesh_core_nrf52832_xxAA.a(queue.c.obj)
 .debug_info    0x0006fd6c      0xe48 mesh/core/libmesh_core_nrf52832_xxAA.a(aes_cmac.c.obj)
 .debug_info    0x00070bb4      0xd08 mesh/core/libmesh_core_nrf52832_xxAA.a(msqueue.c.obj)
 .debug_info    0x000718bc      0xaeb mesh/core/libmesh_core_nrf52832_xxAA.a(replay_cache.c.obj)
 .debug_info    0x000723a7      0xb47 mesh/core/libmesh_core_nrf52832_xxAA.a(nrf_flash.c.obj)
 .debug_info    0x00072eee     0x1818 external/rtt/librtt_nrf52832_xxAA.a(SEGGER_RTT.c.obj)
 .debug_info    0x00074706      0xec1 external/rtt/librtt_nrf52832_xxAA.a(SEGGER_RTT_printf.c.obj)
 .debug_info    0x000755c7     0x4511 external/micro-ecc/libuECC_nrf52832_xxAA.a(uECC.c.obj)

.debug_abbrev   0x00000000     0xff29
 .debug_abbrev  0x00000000      0x333 examples/pb_remote/server/CMakeFiles/pb_remote_server_nrf52832_xxAA_s132_3.1.0.dir/src/main.c.obj
 .debug_abbrev  0x00000333      0x4aa examples/pb_remote/server/CMakeFiles/pb_remote_server_nrf52832_xxAA_s132_3.1.0.dir/__/__/nrf_mesh_sdk.c.obj
 .debug_abbrev  0x000007dd      0x364 examples/pb_remote/server/CMakeFiles/pb_remote_server_nrf52832_xxAA_s132_3.1.0.dir/__/__/common/src/simple_hal.c.obj
 .debug_abbrev  0x00000b41      0x1ae examples/pb_remote/server/CMakeFiles/pb_remote_server_nrf52832_xxAA_s132_3.1.0.dir/__/__/nrf_mesh_weak.c.obj
 .debug_abbrev  0x00000cef      0x476 examples/pb_remote/server/CMakeFiles/pb_remote_server_nrf52832_xxAA_s132_3.1.0.dir/__/__/__/mesh/prov/src/prov_provisionee.c.obj
 .debug_abbrev  0x00001165      0x335 examples/pb_remote/server/CMakeFiles/pb_remote_server_nrf52832_xxAA_s132_3.1.0.dir/__/__/__/mesh/prov/src/nrf_mesh_prov.c.obj
 .debug_abbrev  0x0000149a      0x29c examples/pb_remote/server/CMakeFiles/pb_remote_server_nrf52832_xxAA_s132_3.1.0.dir/__/__/__/mesh/prov/src/provisioning.c.obj
 .debug_abbrev  0x00001736      0x2c8 examples/pb_remote/server/CMakeFiles/pb_remote_server_nrf52832_xxAA_s132_3.1.0.dir/__/__/__/mesh/prov/src/prov_beacon.c.obj
 .debug_abbrev  0x000019fe      0x3d4 examples/pb_remote/server/CMakeFiles/pb_remote_server_nrf52832_xxAA_s132_3.1.0.dir/__/__/__/mesh/prov/src/prov_utils.c.obj
 .debug_abbrev  0x00001dd2      0x50e examples/pb_remote/server/CMakeFiles/pb_remote_server_nrf52832_xxAA_s132_3.1.0.dir/__/__/__/mesh/prov/src/prov_bearer_adv.c.obj
 .debug_abbrev  0x000022e0      0x502 examples/pb_remote/server/CMakeFiles/pb_remote_server_nrf52832_xxAA_s132_3.1.0.dir/__/__/__/models/pb_remote/src/pb_remote_server.c.obj
 .debug_abbrev  0x000027e2      0x460 examples/pb_remote/server/CMakeFiles/pb_remote_server_nrf52832_xxAA_s132_3.1.0.dir/__/__/__/mesh/access/src/access_publish.c.obj
 .debug_abbrev  0x00002c42      0x68e examples/pb_remote/server/CMakeFiles/pb_remote_server_nrf52832_xxAA_s132_3.1.0.dir/__/__/__/mesh/access/src/access.c.obj
 .debug_abbrev  0x000032d0      0x433 examples/pb_remote/server/CMakeFiles/pb_remote_server_nrf52832_xxAA_s132_3.1.0.dir/__/__/__/mesh/access/src/access_reliable.c.obj
 .debug_abbrev  0x00003703      0x647 examples/pb_remote/server/CMakeFiles/pb_remote_server_nrf52832_xxAA_s132_3.1.0.dir/__/__/__/mesh/access/src/device_state_manager.c.obj
 .debug_abbrev  0x00003d4a      0x5a5 examples/pb_remote/server/CMakeFiles/pb_remote_server_nrf52832_xxAA_s132_3.1.0.dir/__/__/__/mesh/access/src/nrf_mesh_node_config.c.obj
 .debug_abbrev  0x000042ef      0x2b6 examples/pb_remote/server/CMakeFiles/pb_remote_server_nrf52832_xxAA_s132_3.1.0.dir/__/__/__/models/config/src/composition_data.c.obj
 .debug_abbrev  0x000045a5      0x57f examples/pb_remote/server/CMakeFiles/pb_remote_server_nrf52832_xxAA_s132_3.1.0.dir/__/__/__/models/config/src/config_server.c.obj
 .debug_abbrev  0x00004b24       0xaf examples/pb_remote/server/CMakeFiles/pb_remote_server_nrf52832_xxAA_s132_3.1.0.dir/__/__/__/models/config/src/packed_index_list.c.obj
 .debug_abbrev  0x00004bd3      0x4f1 examples/pb_remote/server/CMakeFiles/pb_remote_server_nrf52832_xxAA_s132_3.1.0.dir/__/__/__/models/health/src/health_server.c.obj
 .debug_abbrev  0x000050c4      0x202 examples/pb_remote/server/CMakeFiles/pb_remote_server_nrf52832_xxAA_s132_3.1.0.dir/__/__/__/external/nRF5_SDK_14.2.0_17b948a/components/toolchain/system_nrf52.c.obj
 .debug_abbrev  0x000052c6      0x24b mesh/core/libmesh_core_nrf52832_xxAA.a(nrf_mesh_configure.c.obj)
 .debug_abbrev  0x00005511      0x2a2 mesh/core/libmesh_core_nrf52832_xxAA.a(event.c.obj)
 .debug_abbrev  0x000057b3      0x301 mesh/core/libmesh_core_nrf52832_xxAA.a(fifo.c.obj)
 .debug_abbrev  0x00005ab4      0x53b mesh/core/libmesh_core_nrf52832_xxAA.a(net_state.c.obj)
 .debug_abbrev  0x00005fef      0x25a mesh/core/libmesh_core_nrf52832_xxAA.a(nrf_mesh_utils.c.obj)
 .debug_abbrev  0x00006249      0x467 mesh/core/libmesh_core_nrf52832_xxAA.a(nrf_mesh.c.obj)
 .debug_abbrev  0x000066b0      0x204 mesh/core/libmesh_core_nrf52832_xxAA.a(hal.c.obj)
 .debug_abbrev  0x000068b4      0x3bf mesh/core/libmesh_core_nrf52832_xxAA.a(timer_scheduler.c.obj)
 .debug_abbrev  0x00006c73      0x346 mesh/core/libmesh_core_nrf52832_xxAA.a(timer.c.obj)
 .debug_abbrev  0x00006fb9      0x152 mesh/core/libmesh_core_nrf52832_xxAA.a(ticker.c.obj)
 .debug_abbrev  0x0000710b      0x1d2 mesh/core/libmesh_core_nrf52832_xxAA.a(rand.c.obj)
 .debug_abbrev  0x000072dd      0x24a mesh/core/libmesh_core_nrf52832_xxAA.a(nrf_mesh_opt.c.obj)
 .debug_abbrev  0x00007527      0x4db mesh/core/libmesh_core_nrf52832_xxAA.a(timeslot.c.obj)
 .debug_abbrev  0x00007a02      0x4b3 mesh/core/libmesh_core_nrf52832_xxAA.a(bearer_event.c.obj)
 .debug_abbrev  0x00007eb5      0x37e mesh/core/libmesh_core_nrf52832_xxAA.a(enc.c.obj)
 .debug_abbrev  0x00008233      0x52c mesh/core/libmesh_core_nrf52832_xxAA.a(network.c.obj)
 .debug_abbrev  0x0000875f      0x163 mesh/core/libmesh_core_nrf52832_xxAA.a(nrf_mesh_keygen.c.obj)
 .debug_abbrev  0x000088c2      0x18e mesh/core/libmesh_core_nrf52832_xxAA.a(list.c.obj)
 .debug_abbrev  0x00008a50      0x24e mesh/core/libmesh_core_nrf52832_xxAA.a(log.c.obj)
 .debug_abbrev  0x00008c9e      0x5c2 mesh/core/libmesh_core_nrf52832_xxAA.a(flash_manager.c.obj)
 .debug_abbrev  0x00009260      0x2b3 mesh/core/libmesh_core_nrf52832_xxAA.a(ccm_soft.c.obj)
 .debug_abbrev  0x00009513      0x38c mesh/core/libmesh_core_nrf52832_xxAA.a(beacon.c.obj)
 .debug_abbrev  0x0000989f      0x28a mesh/core/libmesh_core_nrf52832_xxAA.a(flash_manager_internal.c.obj)
 .debug_abbrev  0x00009b29      0x32c mesh/core/libmesh_core_nrf52832_xxAA.a(core_tx.c.obj)
 .debug_abbrev  0x00009e55      0x4c9 mesh/core/libmesh_core_nrf52832_xxAA.a(heartbeat.c.obj)
 .debug_abbrev  0x0000a31e      0x3cc mesh/core/libmesh_core_nrf52832_xxAA.a(net_beacon.c.obj)
 .debug_abbrev  0x0000a6ea      0x32c mesh/core/libmesh_core_nrf52832_xxAA.a(core_tx_adv.c.obj)
 .debug_abbrev  0x0000aa16      0x341 mesh/core/libmesh_core_nrf52832_xxAA.a(ad_listener.c.obj)
 .debug_abbrev  0x0000ad57      0x377 mesh/core/libmesh_core_nrf52832_xxAA.a(ad_type_filter.c.obj)
 .debug_abbrev  0x0000b0ce      0x4fe mesh/core/libmesh_core_nrf52832_xxAA.a(advertiser.c.obj)
 .debug_abbrev  0x0000b5cc      0x40d mesh/core/libmesh_core_nrf52832_xxAA.a(bearer_handler.c.obj)
 .debug_abbrev  0x0000b9d9      0x3b4 mesh/core/libmesh_core_nrf52832_xxAA.a(broadcast.c.obj)
 .debug_abbrev  0x0000bd8d      0x299 mesh/core/libmesh_core_nrf52832_xxAA.a(filter_engine.c.obj)
 .debug_abbrev  0x0000c026      0x1d9 mesh/core/libmesh_core_nrf52832_xxAA.a(radio_config.c.obj)
 .debug_abbrev  0x0000c1ff      0x582 mesh/core/libmesh_core_nrf52832_xxAA.a(scanner.c.obj)
 .debug_abbrev  0x0000c781      0x26d mesh/core/libmesh_core_nrf52832_xxAA.a(internal_event.c.obj)
 .debug_abbrev  0x0000c9ee      0x264 mesh/core/libmesh_core_nrf52832_xxAA.a(aes.c.obj)
 .debug_abbrev  0x0000cc52      0x25d mesh/core/libmesh_core_nrf52832_xxAA.a(msg_cache.c.obj)
 .debug_abbrev  0x0000ceaf      0x629 mesh/core/libmesh_core_nrf52832_xxAA.a(transport.c.obj)
 .debug_abbrev  0x0000d4d8      0x49a mesh/core/libmesh_core_nrf52832_xxAA.a(packet_buffer.c.obj)
 .debug_abbrev  0x0000d972      0x558 mesh/core/libmesh_core_nrf52832_xxAA.a(flash_manager_defrag.c.obj)
 .debug_abbrev  0x0000deca      0x3d1 mesh/core/libmesh_core_nrf52832_xxAA.a(packet_mgr.c.obj)
 .debug_abbrev  0x0000e29b      0x478 mesh/core/libmesh_core_nrf52832_xxAA.a(mesh_flash.c.obj)
 .debug_abbrev  0x0000e713      0x227 mesh/core/libmesh_core_nrf52832_xxAA.a(queue.c.obj)
 .debug_abbrev  0x0000e93a      0x332 mesh/core/libmesh_core_nrf52832_xxAA.a(aes_cmac.c.obj)
 .debug_abbrev  0x0000ec6c      0x29c mesh/core/libmesh_core_nrf52832_xxAA.a(msqueue.c.obj)
 .debug_abbrev  0x0000ef08      0x277 mesh/core/libmesh_core_nrf52832_xxAA.a(replay_cache.c.obj)
 .debug_abbrev  0x0000f17f      0x21f mesh/core/libmesh_core_nrf52832_xxAA.a(nrf_flash.c.obj)
 .debug_abbrev  0x0000f39e      0x3a9 external/rtt/librtt_nrf52832_xxAA.a(SEGGER_RTT.c.obj)
 .debug_abbrev  0x0000f747      0x32e external/rtt/librtt_nrf52832_xxAA.a(SEGGER_RTT_printf.c.obj)
 .debug_abbrev  0x0000fa75      0x4b4 external/micro-ecc/libuECC_nrf52832_xxAA.a(uECC.c.obj)

.debug_loc      0x00000000    0x255dc
 .debug_loc     0x00000000      0x113 examples/pb_remote/server/CMakeFiles/pb_remote_server_nrf52832_xxAA_s132_3.1.0.dir/src/main.c.obj
 .debug_loc     0x00000113      0x351 examples/pb_remote/server/CMakeFiles/pb_remote_server_nrf52832_xxAA_s132_3.1.0.dir/__/__/nrf_mesh_sdk.c.obj
 .debug_loc     0x00000464      0x1ee examples/pb_remote/server/CMakeFiles/pb_remote_server_nrf52832_xxAA_s132_3.1.0.dir/__/__/common/src/simple_hal.c.obj
 .debug_loc     0x00000652      0x6ba examples/pb_remote/server/CMakeFiles/pb_remote_server_nrf52832_xxAA_s132_3.1.0.dir/__/__/__/mesh/prov/src/prov_provisionee.c.obj
 .debug_loc     0x00000d0c      0x7ec examples/pb_remote/server/CMakeFiles/pb_remote_server_nrf52832_xxAA_s132_3.1.0.dir/__/__/__/mesh/prov/src/nrf_mesh_prov.c.obj
 .debug_loc     0x000014f8      0x4e0 examples/pb_remote/server/CMakeFiles/pb_remote_server_nrf52832_xxAA_s132_3.1.0.dir/__/__/__/mesh/prov/src/provisioning.c.obj
 .debug_loc     0x000019d8      0x1cd examples/pb_remote/server/CMakeFiles/pb_remote_server_nrf52832_xxAA_s132_3.1.0.dir/__/__/__/mesh/prov/src/prov_beacon.c.obj
 .debug_loc     0x00001ba5      0x42c examples/pb_remote/server/CMakeFiles/pb_remote_server_nrf52832_xxAA_s132_3.1.0.dir/__/__/__/mesh/prov/src/prov_utils.c.obj
 .debug_loc     0x00001fd1     0x175a examples/pb_remote/server/CMakeFiles/pb_remote_server_nrf52832_xxAA_s132_3.1.0.dir/__/__/__/mesh/prov/src/prov_bearer_adv.c.obj
 .debug_loc     0x0000372b     0x174d examples/pb_remote/server/CMakeFiles/pb_remote_server_nrf52832_xxAA_s132_3.1.0.dir/__/__/__/models/pb_remote/src/pb_remote_server.c.obj
 .debug_loc     0x00004e78      0x577 examples/pb_remote/server/CMakeFiles/pb_remote_server_nrf52832_xxAA_s132_3.1.0.dir/__/__/__/mesh/access/src/access_publish.c.obj
 .debug_loc     0x000053ef     0x226d examples/pb_remote/server/CMakeFiles/pb_remote_server_nrf52832_xxAA_s132_3.1.0.dir/__/__/__/mesh/access/src/access.c.obj
 .debug_loc     0x0000765c      0x7f6 examples/pb_remote/server/CMakeFiles/pb_remote_server_nrf52832_xxAA_s132_3.1.0.dir/__/__/__/mesh/access/src/access_reliable.c.obj
 .debug_loc     0x00007e52     0x3b6a examples/pb_remote/server/CMakeFiles/pb_remote_server_nrf52832_xxAA_s132_3.1.0.dir/__/__/__/mesh/access/src/device_state_manager.c.obj
 .debug_loc     0x0000b9bc      0x49d examples/pb_remote/server/CMakeFiles/pb_remote_server_nrf52832_xxAA_s132_3.1.0.dir/__/__/__/mesh/access/src/nrf_mesh_node_config.c.obj
 .debug_loc     0x0000be59      0x322 examples/pb_remote/server/CMakeFiles/pb_remote_server_nrf52832_xxAA_s132_3.1.0.dir/__/__/__/models/config/src/composition_data.c.obj
 .debug_loc     0x0000c17b     0x31cc examples/pb_remote/server/CMakeFiles/pb_remote_server_nrf52832_xxAA_s132_3.1.0.dir/__/__/__/models/config/src/config_server.c.obj
 .debug_loc     0x0000f347       0xaa examples/pb_remote/server/CMakeFiles/pb_remote_server_nrf52832_xxAA_s132_3.1.0.dir/__/__/__/models/config/src/packed_index_list.c.obj
 .debug_loc     0x0000f3f1     0x161b examples/pb_remote/server/CMakeFiles/pb_remote_server_nrf52832_xxAA_s132_3.1.0.dir/__/__/__/models/health/src/health_server.c.obj
 .debug_loc     0x00010a0c       0x2c mesh/core/libmesh_core_nrf52832_xxAA.a(nrf_mesh_configure.c.obj)
 .debug_loc     0x00010a38      0x136 mesh/core/libmesh_core_nrf52832_xxAA.a(event.c.obj)
 .debug_loc     0x00010b6e      0x517 mesh/core/libmesh_core_nrf52832_xxAA.a(fifo.c.obj)
 .debug_loc     0x00011085      0x7be mesh/core/libmesh_core_nrf52832_xxAA.a(net_state.c.obj)
 .debug_loc     0x00011843      0x11c mesh/core/libmesh_core_nrf52832_xxAA.a(nrf_mesh_utils.c.obj)
 .debug_loc     0x0001195f      0x4d3 mesh/core/libmesh_core_nrf52832_xxAA.a(nrf_mesh.c.obj)
 .debug_loc     0x00011e32       0x84 mesh/core/libmesh_core_nrf52832_xxAA.a(hal.c.obj)
 .debug_loc     0x00011eb6      0x3b9 mesh/core/libmesh_core_nrf52832_xxAA.a(timer_scheduler.c.obj)
 .debug_loc     0x0001226f      0x60f mesh/core/libmesh_core_nrf52832_xxAA.a(timer.c.obj)
 .debug_loc     0x0001287e      0x190 mesh/core/libmesh_core_nrf52832_xxAA.a(rand.c.obj)
 .debug_loc     0x00012a0e      0x194 mesh/core/libmesh_core_nrf52832_xxAA.a(nrf_mesh_opt.c.obj)
 .debug_loc     0x00012ba2      0x370 mesh/core/libmesh_core_nrf52832_xxAA.a(timeslot.c.obj)
 .debug_loc     0x00012f12      0x647 mesh/core/libmesh_core_nrf52832_xxAA.a(bearer_event.c.obj)
 .debug_loc     0x00013559      0x960 mesh/core/libmesh_core_nrf52832_xxAA.a(enc.c.obj)
 .debug_loc     0x00013eb9     0x10e7 mesh/core/libmesh_core_nrf52832_xxAA.a(network.c.obj)
 .debug_loc     0x00014fa0      0x1ee mesh/core/libmesh_core_nrf52832_xxAA.a(nrf_mesh_keygen.c.obj)
 .debug_loc     0x0001518e      0x541 mesh/core/libmesh_core_nrf52832_xxAA.a(list.c.obj)
 .debug_loc     0x000156cf      0x348 mesh/core/libmesh_core_nrf52832_xxAA.a(log.c.obj)
 .debug_loc     0x00015a17     0x1791 mesh/core/libmesh_core_nrf52832_xxAA.a(flash_manager.c.obj)
 .debug_loc     0x000171a8      0x371 mesh/core/libmesh_core_nrf52832_xxAA.a(ccm_soft.c.obj)
 .debug_loc     0x00017519      0x527 mesh/core/libmesh_core_nrf52832_xxAA.a(beacon.c.obj)
 .debug_loc     0x00017a40      0x130 mesh/core/libmesh_core_nrf52832_xxAA.a(flash_manager_internal.c.obj)
 .debug_loc     0x00017b70      0x639 mesh/core/libmesh_core_nrf52832_xxAA.a(core_tx.c.obj)
 .debug_loc     0x000181a9      0x644 mesh/core/libmesh_core_nrf52832_xxAA.a(heartbeat.c.obj)
 .debug_loc     0x000187ed      0x3fe mesh/core/libmesh_core_nrf52832_xxAA.a(net_beacon.c.obj)
 .debug_loc     0x00018beb      0x3fa mesh/core/libmesh_core_nrf52832_xxAA.a(core_tx_adv.c.obj)
 .debug_loc     0x00018fe5      0x42e mesh/core/libmesh_core_nrf52832_xxAA.a(ad_listener.c.obj)
 .debug_loc     0x00019413      0x3b9 mesh/core/libmesh_core_nrf52832_xxAA.a(ad_type_filter.c.obj)
 .debug_loc     0x000197cc      0xedd mesh/core/libmesh_core_nrf52832_xxAA.a(advertiser.c.obj)
 .debug_loc     0x0001a6a9      0x42d mesh/core/libmesh_core_nrf52832_xxAA.a(bearer_handler.c.obj)
 .debug_loc     0x0001aad6      0x377 mesh/core/libmesh_core_nrf52832_xxAA.a(broadcast.c.obj)
 .debug_loc     0x0001ae4d      0x115 mesh/core/libmesh_core_nrf52832_xxAA.a(filter_engine.c.obj)
 .debug_loc     0x0001af62      0x28c mesh/core/libmesh_core_nrf52832_xxAA.a(radio_config.c.obj)
 .debug_loc     0x0001b1ee      0x4f6 mesh/core/libmesh_core_nrf52832_xxAA.a(scanner.c.obj)
 .debug_loc     0x0001b6e4       0xc9 mesh/core/libmesh_core_nrf52832_xxAA.a(internal_event.c.obj)
 .debug_loc     0x0001b7ad       0x89 mesh/core/libmesh_core_nrf52832_xxAA.a(aes.c.obj)
 .debug_loc     0x0001b836      0x10d mesh/core/libmesh_core_nrf52832_xxAA.a(msg_cache.c.obj)
 .debug_loc     0x0001b943     0x28ef mesh/core/libmesh_core_nrf52832_xxAA.a(transport.c.obj)
 .debug_loc     0x0001e232      0xf93 mesh/core/libmesh_core_nrf52832_xxAA.a(packet_buffer.c.obj)
 .debug_loc     0x0001f1c5      0x8ee mesh/core/libmesh_core_nrf52832_xxAA.a(flash_manager_defrag.c.obj)
 .debug_loc     0x0001fab3      0x6d7 mesh/core/libmesh_core_nrf52832_xxAA.a(packet_mgr.c.obj)
 .debug_loc     0x0002018a      0xa35 mesh/core/libmesh_core_nrf52832_xxAA.a(mesh_flash.c.obj)
 .debug_loc     0x00020bbf      0x186 mesh/core/libmesh_core_nrf52832_xxAA.a(queue.c.obj)
 .debug_loc     0x00020d45      0x3f8 mesh/core/libmesh_core_nrf52832_xxAA.a(aes_cmac.c.obj)
 .debug_loc     0x0002113d      0x3e5 mesh/core/libmesh_core_nrf52832_xxAA.a(msqueue.c.obj)
 .debug_loc     0x00021522      0x1c6 mesh/core/libmesh_core_nrf52832_xxAA.a(replay_cache.c.obj)
 .debug_loc     0x000216e8      0x17a mesh/core/libmesh_core_nrf52832_xxAA.a(nrf_flash.c.obj)
 .debug_loc     0x00021862     0x1222 external/rtt/librtt_nrf52832_xxAA.a(SEGGER_RTT.c.obj)
 .debug_loc     0x00022a84      0x70f external/rtt/librtt_nrf52832_xxAA.a(SEGGER_RTT_printf.c.obj)
 .debug_loc     0x00023193     0x2449 external/micro-ecc/libuECC_nrf52832_xxAA.a(uECC.c.obj)

.debug_aranges  0x00000000     0x22b0
 .debug_aranges
                0x00000000       0x38 examples/pb_remote/server/CMakeFiles/pb_remote_server_nrf52832_xxAA_s132_3.1.0.dir/src/main.c.obj
 .debug_aranges
                0x00000038       0x80 examples/pb_remote/server/CMakeFiles/pb_remote_server_nrf52832_xxAA_s132_3.1.0.dir/__/__/nrf_mesh_sdk.c.obj
 .debug_aranges
                0x000000b8       0x50 examples/pb_remote/server/CMakeFiles/pb_remote_server_nrf52832_xxAA_s132_3.1.0.dir/__/__/common/src/simple_hal.c.obj
 .debug_aranges
                0x00000108       0x28 examples/pb_remote/server/CMakeFiles/pb_remote_server_nrf52832_xxAA_s132_3.1.0.dir/__/__/nrf_mesh_weak.c.obj
 .debug_aranges
                0x00000130       0x70 examples/pb_remote/server/CMakeFiles/pb_remote_server_nrf52832_xxAA_s132_3.1.0.dir/__/__/__/mesh/prov/src/prov_provisionee.c.obj
 .debug_aranges
                0x000001a0       0x78 examples/pb_remote/server/CMakeFiles/pb_remote_server_nrf52832_xxAA_s132_3.1.0.dir/__/__/__/mesh/prov/src/nrf_mesh_prov.c.obj
 .debug_aranges
                0x00000218       0x80 examples/pb_remote/server/CMakeFiles/pb_remote_server_nrf52832_xxAA_s132_3.1.0.dir/__/__/__/mesh/prov/src/provisioning.c.obj
 .debug_aranges
                0x00000298       0x38 examples/pb_remote/server/CMakeFiles/pb_remote_server_nrf52832_xxAA_s132_3.1.0.dir/__/__/__/mesh/prov/src/prov_beacon.c.obj
 .debug_aranges
                0x000002d0       0x70 examples/pb_remote/server/CMakeFiles/pb_remote_server_nrf52832_xxAA_s132_3.1.0.dir/__/__/__/mesh/prov/src/prov_utils.c.obj
 .debug_aranges
                0x00000340       0xc8 examples/pb_remote/server/CMakeFiles/pb_remote_server_nrf52832_xxAA_s132_3.1.0.dir/__/__/__/mesh/prov/src/prov_bearer_adv.c.obj
 .debug_aranges
                0x00000408      0x120 examples/pb_remote/server/CMakeFiles/pb_remote_server_nrf52832_xxAA_s132_3.1.0.dir/__/__/__/models/pb_remote/src/pb_remote_server.c.obj
 .debug_aranges
                0x00000528       0x50 examples/pb_remote/server/CMakeFiles/pb_remote_server_nrf52832_xxAA_s132_3.1.0.dir/__/__/__/mesh/access/src/access_publish.c.obj
 .debug_aranges
                0x00000578      0x1b0 examples/pb_remote/server/CMakeFiles/pb_remote_server_nrf52832_xxAA_s132_3.1.0.dir/__/__/__/mesh/access/src/access.c.obj
 .debug_aranges
                0x00000728       0x50 examples/pb_remote/server/CMakeFiles/pb_remote_server_nrf52832_xxAA_s132_3.1.0.dir/__/__/__/mesh/access/src/access_reliable.c.obj
 .debug_aranges
                0x00000778      0x300 examples/pb_remote/server/CMakeFiles/pb_remote_server_nrf52832_xxAA_s132_3.1.0.dir/__/__/__/mesh/access/src/device_state_manager.c.obj
 .debug_aranges
                0x00000a78       0x70 examples/pb_remote/server/CMakeFiles/pb_remote_server_nrf52832_xxAA_s132_3.1.0.dir/__/__/__/mesh/access/src/nrf_mesh_node_config.c.obj
 .debug_aranges
                0x00000ae8       0x20 examples/pb_remote/server/CMakeFiles/pb_remote_server_nrf52832_xxAA_s132_3.1.0.dir/__/__/__/models/config/src/composition_data.c.obj
 .debug_aranges
                0x00000b08      0x1e0 examples/pb_remote/server/CMakeFiles/pb_remote_server_nrf52832_xxAA_s132_3.1.0.dir/__/__/__/models/config/src/config_server.c.obj
 .debug_aranges
                0x00000ce8       0x28 examples/pb_remote/server/CMakeFiles/pb_remote_server_nrf52832_xxAA_s132_3.1.0.dir/__/__/__/models/config/src/packed_index_list.c.obj
 .debug_aranges
                0x00000d10       0xc8 examples/pb_remote/server/CMakeFiles/pb_remote_server_nrf52832_xxAA_s132_3.1.0.dir/__/__/__/models/health/src/health_server.c.obj
 .debug_aranges
                0x00000dd8       0x38 examples/pb_remote/server/CMakeFiles/pb_remote_server_nrf52832_xxAA_s132_3.1.0.dir/__/__/__/external/nRF5_SDK_14.2.0_17b948a/components/toolchain/system_nrf52.c.obj
 .debug_aranges
                0x00000e10       0x30 mesh/core/libmesh_core_nrf52832_xxAA.a(nrf_mesh_configure.c.obj)
 .debug_aranges
                0x00000e40       0x30 mesh/core/libmesh_core_nrf52832_xxAA.a(event.c.obj)
 .debug_aranges
                0x00000e70       0x60 mesh/core/libmesh_core_nrf52832_xxAA.a(fifo.c.obj)
 .debug_aranges
                0x00000ed0       0xc8 mesh/core/libmesh_core_nrf52832_xxAA.a(net_state.c.obj)
 .debug_aranges
                0x00000f98       0x30 mesh/core/libmesh_core_nrf52832_xxAA.a(nrf_mesh_utils.c.obj)
 .debug_aranges
                0x00000fc8       0x88 mesh/core/libmesh_core_nrf52832_xxAA.a(nrf_mesh.c.obj)
 .debug_aranges
                0x00001050       0x38 mesh/core/libmesh_core_nrf52832_xxAA.a(hal.c.obj)
 .debug_aranges
                0x00001088       0x68 mesh/core/libmesh_core_nrf52832_xxAA.a(timer_scheduler.c.obj)
 .debug_aranges
                0x000010f0       0x60 mesh/core/libmesh_core_nrf52832_xxAA.a(timer.c.obj)
 .debug_aranges
                0x00001150       0x30 mesh/core/libmesh_core_nrf52832_xxAA.a(ticker.c.obj)
 .debug_aranges
                0x00001180       0x40 mesh/core/libmesh_core_nrf52832_xxAA.a(rand.c.obj)
 .debug_aranges
                0x000011c0       0x28 mesh/core/libmesh_core_nrf52832_xxAA.a(nrf_mesh_opt.c.obj)
 .debug_aranges
                0x000011e8       0xb8 mesh/core/libmesh_core_nrf52832_xxAA.a(timeslot.c.obj)
 .debug_aranges
                0x000012a0       0x98 mesh/core/libmesh_core_nrf52832_xxAA.a(bearer_event.c.obj)
 .debug_aranges
                0x00001338       0x70 mesh/core/libmesh_core_nrf52832_xxAA.a(enc.c.obj)
 .debug_aranges
                0x000013a8       0x60 mesh/core/libmesh_core_nrf52832_xxAA.a(network.c.obj)
 .debug_aranges
                0x00001408       0x40 mesh/core/libmesh_core_nrf52832_xxAA.a(nrf_mesh_keygen.c.obj)
 .debug_aranges
                0x00001448       0x48 mesh/core/libmesh_core_nrf52832_xxAA.a(list.c.obj)
 .debug_aranges
                0x00001490       0x48 mesh/core/libmesh_core_nrf52832_xxAA.a(log.c.obj)
 .debug_aranges
                0x000014d8      0x100 mesh/core/libmesh_core_nrf52832_xxAA.a(flash_manager.c.obj)
 .debug_aranges
                0x000015d8       0x50 mesh/core/libmesh_core_nrf52832_xxAA.a(ccm_soft.c.obj)
 .debug_aranges
                0x00001628       0x38 mesh/core/libmesh_core_nrf52832_xxAA.a(beacon.c.obj)
 .debug_aranges
                0x00001660       0x20 mesh/core/libmesh_core_nrf52832_xxAA.a(flash_manager_internal.c.obj)
 .debug_aranges
                0x00001680       0x58 mesh/core/libmesh_core_nrf52832_xxAA.a(core_tx.c.obj)
 .debug_aranges
                0x000016d8       0x70 mesh/core/libmesh_core_nrf52832_xxAA.a(heartbeat.c.obj)
 .debug_aranges
                0x00001748       0x48 mesh/core/libmesh_core_nrf52832_xxAA.a(net_beacon.c.obj)
 .debug_aranges
                0x00001790       0x68 mesh/core/libmesh_core_nrf52832_xxAA.a(core_tx_adv.c.obj)
 .debug_aranges
                0x000017f8       0x30 mesh/core/libmesh_core_nrf52832_xxAA.a(ad_listener.c.obj)
 .debug_aranges
                0x00001828       0x58 mesh/core/libmesh_core_nrf52832_xxAA.a(ad_type_filter.c.obj)
 .debug_aranges
                0x00001880       0xb0 mesh/core/libmesh_core_nrf52832_xxAA.a(advertiser.c.obj)
 .debug_aranges
                0x00001930       0x70 mesh/core/libmesh_core_nrf52832_xxAA.a(bearer_handler.c.obj)
 .debug_aranges
                0x000019a0       0x30 mesh/core/libmesh_core_nrf52832_xxAA.a(broadcast.c.obj)
 .debug_aranges
                0x000019d0       0x38 mesh/core/libmesh_core_nrf52832_xxAA.a(filter_engine.c.obj)
 .debug_aranges
                0x00001a08       0x40 mesh/core/libmesh_core_nrf52832_xxAA.a(radio_config.c.obj)
 .debug_aranges
                0x00001a48       0xe0 mesh/core/libmesh_core_nrf52832_xxAA.a(scanner.c.obj)
 .debug_aranges
                0x00001b28       0x30 mesh/core/libmesh_core_nrf52832_xxAA.a(internal_event.c.obj)
 .debug_aranges
                0x00001b58       0x28 mesh/core/libmesh_core_nrf52832_xxAA.a(aes.c.obj)
 .debug_aranges
                0x00001b80       0x38 mesh/core/libmesh_core_nrf52832_xxAA.a(msg_cache.c.obj)
 .debug_aranges
                0x00001bb8      0x120 mesh/core/libmesh_core_nrf52832_xxAA.a(transport.c.obj)
 .debug_aranges
                0x00001cd8       0x80 mesh/core/libmesh_core_nrf52832_xxAA.a(packet_buffer.c.obj)
 .debug_aranges
                0x00001d58       0xc8 mesh/core/libmesh_core_nrf52832_xxAA.a(flash_manager_defrag.c.obj)
 .debug_aranges
                0x00001e20       0x48 mesh/core/libmesh_core_nrf52832_xxAA.a(packet_mgr.c.obj)
 .debug_aranges
                0x00001e68       0x60 mesh/core/libmesh_core_nrf52832_xxAA.a(mesh_flash.c.obj)
 .debug_aranges
                0x00001ec8       0x38 mesh/core/libmesh_core_nrf52832_xxAA.a(queue.c.obj)
 .debug_aranges
                0x00001f00       0x38 mesh/core/libmesh_core_nrf52832_xxAA.a(aes_cmac.c.obj)
 .debug_aranges
                0x00001f38       0x48 mesh/core/libmesh_core_nrf52832_xxAA.a(msqueue.c.obj)
 .debug_aranges
                0x00001f80       0x48 mesh/core/libmesh_core_nrf52832_xxAA.a(replay_cache.c.obj)
 .debug_aranges
                0x00001fc8       0x30 mesh/core/libmesh_core_nrf52832_xxAA.a(nrf_flash.c.obj)
 .debug_aranges
                0x00001ff8       0xd8 external/rtt/librtt_nrf52832_xxAA.a(SEGGER_RTT.c.obj)
 .debug_aranges
                0x000020d0       0x38 external/rtt/librtt_nrf52832_xxAA.a(SEGGER_RTT_printf.c.obj)
 .debug_aranges
                0x00002108      0x1a8 external/micro-ecc/libuECC_nrf52832_xxAA.a(uECC.c.obj)

.debug_ranges   0x00000000     0x8a28
 .debug_ranges  0x00000000       0x70 examples/pb_remote/server/CMakeFiles/pb_remote_server_nrf52832_xxAA_s132_3.1.0.dir/src/main.c.obj
 .debug_ranges  0x00000070      0x1a8 examples/pb_remote/server/CMakeFiles/pb_remote_server_nrf52832_xxAA_s132_3.1.0.dir/__/__/nrf_mesh_sdk.c.obj
 .debug_ranges  0x00000218       0xc8 examples/pb_remote/server/CMakeFiles/pb_remote_server_nrf52832_xxAA_s132_3.1.0.dir/__/__/common/src/simple_hal.c.obj
 .debug_ranges  0x000002e0       0x18 examples/pb_remote/server/CMakeFiles/pb_remote_server_nrf52832_xxAA_s132_3.1.0.dir/__/__/nrf_mesh_weak.c.obj
 .debug_ranges  0x000002f8      0x158 examples/pb_remote/server/CMakeFiles/pb_remote_server_nrf52832_xxAA_s132_3.1.0.dir/__/__/__/mesh/prov/src/prov_provisionee.c.obj
 .debug_ranges  0x00000450       0xb0 examples/pb_remote/server/CMakeFiles/pb_remote_server_nrf52832_xxAA_s132_3.1.0.dir/__/__/__/mesh/prov/src/nrf_mesh_prov.c.obj
 .debug_ranges  0x00000500       0xa0 examples/pb_remote/server/CMakeFiles/pb_remote_server_nrf52832_xxAA_s132_3.1.0.dir/__/__/__/mesh/prov/src/provisioning.c.obj
 .debug_ranges  0x000005a0       0x88 examples/pb_remote/server/CMakeFiles/pb_remote_server_nrf52832_xxAA_s132_3.1.0.dir/__/__/__/mesh/prov/src/prov_beacon.c.obj
 .debug_ranges  0x00000628       0xb8 examples/pb_remote/server/CMakeFiles/pb_remote_server_nrf52832_xxAA_s132_3.1.0.dir/__/__/__/mesh/prov/src/prov_utils.c.obj
 .debug_ranges  0x000006e0      0x6c8 examples/pb_remote/server/CMakeFiles/pb_remote_server_nrf52832_xxAA_s132_3.1.0.dir/__/__/__/mesh/prov/src/prov_bearer_adv.c.obj
 .debug_ranges  0x00000da8      0x800 examples/pb_remote/server/CMakeFiles/pb_remote_server_nrf52832_xxAA_s132_3.1.0.dir/__/__/__/models/pb_remote/src/pb_remote_server.c.obj
 .debug_ranges  0x000015a8      0x178 examples/pb_remote/server/CMakeFiles/pb_remote_server_nrf52832_xxAA_s132_3.1.0.dir/__/__/__/mesh/access/src/access_publish.c.obj
 .debug_ranges  0x00001720      0x828 examples/pb_remote/server/CMakeFiles/pb_remote_server_nrf52832_xxAA_s132_3.1.0.dir/__/__/__/mesh/access/src/access.c.obj
 .debug_ranges  0x00001f48      0x260 examples/pb_remote/server/CMakeFiles/pb_remote_server_nrf52832_xxAA_s132_3.1.0.dir/__/__/__/mesh/access/src/access_reliable.c.obj
 .debug_ranges  0x000021a8      0xa88 examples/pb_remote/server/CMakeFiles/pb_remote_server_nrf52832_xxAA_s132_3.1.0.dir/__/__/__/mesh/access/src/device_state_manager.c.obj
 .debug_ranges  0x00002c30      0x228 examples/pb_remote/server/CMakeFiles/pb_remote_server_nrf52832_xxAA_s132_3.1.0.dir/__/__/__/mesh/access/src/nrf_mesh_node_config.c.obj
 .debug_ranges  0x00002e58      0x170 examples/pb_remote/server/CMakeFiles/pb_remote_server_nrf52832_xxAA_s132_3.1.0.dir/__/__/__/models/config/src/composition_data.c.obj
 .debug_ranges  0x00002fc8      0x710 examples/pb_remote/server/CMakeFiles/pb_remote_server_nrf52832_xxAA_s132_3.1.0.dir/__/__/__/models/config/src/config_server.c.obj
 .debug_ranges  0x000036d8       0x18 examples/pb_remote/server/CMakeFiles/pb_remote_server_nrf52832_xxAA_s132_3.1.0.dir/__/__/__/models/config/src/packed_index_list.c.obj
 .debug_ranges  0x000036f0      0x350 examples/pb_remote/server/CMakeFiles/pb_remote_server_nrf52832_xxAA_s132_3.1.0.dir/__/__/__/models/health/src/health_server.c.obj
 .debug_ranges  0x00003a40       0x28 examples/pb_remote/server/CMakeFiles/pb_remote_server_nrf52832_xxAA_s132_3.1.0.dir/__/__/__/external/nRF5_SDK_14.2.0_17b948a/components/toolchain/system_nrf52.c.obj
 .debug_ranges  0x00003a68       0x20 mesh/core/libmesh_core_nrf52832_xxAA.a(nrf_mesh_configure.c.obj)
 .debug_ranges  0x00003a88       0x68 mesh/core/libmesh_core_nrf52832_xxAA.a(event.c.obj)
 .debug_ranges  0x00003af0       0xb0 mesh/core/libmesh_core_nrf52832_xxAA.a(fifo.c.obj)
 .debug_ranges  0x00003ba0      0x238 mesh/core/libmesh_core_nrf52832_xxAA.a(net_state.c.obj)
 .debug_ranges  0x00003dd8       0x38 mesh/core/libmesh_core_nrf52832_xxAA.a(nrf_mesh_utils.c.obj)
 .debug_ranges  0x00003e10       0xf0 mesh/core/libmesh_core_nrf52832_xxAA.a(nrf_mesh.c.obj)
 .debug_ranges  0x00003f00       0x28 mesh/core/libmesh_core_nrf52832_xxAA.a(hal.c.obj)
 .debug_ranges  0x00003f28      0x260 mesh/core/libmesh_core_nrf52832_xxAA.a(timer_scheduler.c.obj)
 .debug_ranges  0x00004188      0x108 mesh/core/libmesh_core_nrf52832_xxAA.a(timer.c.obj)
 .debug_ranges  0x00004290       0x20 mesh/core/libmesh_core_nrf52832_xxAA.a(ticker.c.obj)
 .debug_ranges  0x000042b0       0x48 mesh/core/libmesh_core_nrf52832_xxAA.a(rand.c.obj)
 .debug_ranges  0x000042f8       0x18 mesh/core/libmesh_core_nrf52832_xxAA.a(nrf_mesh_opt.c.obj)
 .debug_ranges  0x00004310      0x188 mesh/core/libmesh_core_nrf52832_xxAA.a(timeslot.c.obj)
 .debug_ranges  0x00004498      0x250 mesh/core/libmesh_core_nrf52832_xxAA.a(bearer_event.c.obj)
 .debug_ranges  0x000046e8      0x120 mesh/core/libmesh_core_nrf52832_xxAA.a(enc.c.obj)
 .debug_ranges  0x00004808      0x518 mesh/core/libmesh_core_nrf52832_xxAA.a(network.c.obj)
 .debug_ranges  0x00004d20       0x30 mesh/core/libmesh_core_nrf52832_xxAA.a(nrf_mesh_keygen.c.obj)
 .debug_ranges  0x00004d50      0x1b0 mesh/core/libmesh_core_nrf52832_xxAA.a(list.c.obj)
 .debug_ranges  0x00004f00       0x38 mesh/core/libmesh_core_nrf52832_xxAA.a(log.c.obj)
 .debug_ranges  0x00004f38      0x748 mesh/core/libmesh_core_nrf52832_xxAA.a(flash_manager.c.obj)
 .debug_ranges  0x00005680       0x40 mesh/core/libmesh_core_nrf52832_xxAA.a(ccm_soft.c.obj)
 .debug_ranges  0x000056c0       0xd0 mesh/core/libmesh_core_nrf52832_xxAA.a(beacon.c.obj)
 .debug_ranges  0x00005790       0x68 mesh/core/libmesh_core_nrf52832_xxAA.a(flash_manager_internal.c.obj)
 .debug_ranges  0x000057f8      0x270 mesh/core/libmesh_core_nrf52832_xxAA.a(core_tx.c.obj)
 .debug_ranges  0x00005a68      0x240 mesh/core/libmesh_core_nrf52832_xxAA.a(heartbeat.c.obj)
 .debug_ranges  0x00005ca8       0xf0 mesh/core/libmesh_core_nrf52832_xxAA.a(net_beacon.c.obj)
 .debug_ranges  0x00005d98       0xe8 mesh/core/libmesh_core_nrf52832_xxAA.a(core_tx_adv.c.obj)
 .debug_ranges  0x00005e80       0xf8 mesh/core/libmesh_core_nrf52832_xxAA.a(ad_listener.c.obj)
 .debug_ranges  0x00005f78       0xe8 mesh/core/libmesh_core_nrf52832_xxAA.a(ad_type_filter.c.obj)
 .debug_ranges  0x00006060      0x4a8 mesh/core/libmesh_core_nrf52832_xxAA.a(advertiser.c.obj)
 .debug_ranges  0x00006508      0x290 mesh/core/libmesh_core_nrf52832_xxAA.a(bearer_handler.c.obj)
 .debug_ranges  0x00006798      0x130 mesh/core/libmesh_core_nrf52832_xxAA.a(broadcast.c.obj)
 .debug_ranges  0x000068c8       0x90 mesh/core/libmesh_core_nrf52832_xxAA.a(filter_engine.c.obj)
 .debug_ranges  0x00006958      0x100 mesh/core/libmesh_core_nrf52832_xxAA.a(radio_config.c.obj)
 .debug_ranges  0x00006a58      0x2c0 mesh/core/libmesh_core_nrf52832_xxAA.a(scanner.c.obj)
 .debug_ranges  0x00006d18       0x20 mesh/core/libmesh_core_nrf52832_xxAA.a(internal_event.c.obj)
 .debug_ranges  0x00006d38       0x18 mesh/core/libmesh_core_nrf52832_xxAA.a(aes.c.obj)
 .debug_ranges  0x00006d50       0x48 mesh/core/libmesh_core_nrf52832_xxAA.a(msg_cache.c.obj)
 .debug_ranges  0x00006d98      0x918 mesh/core/libmesh_core_nrf52832_xxAA.a(transport.c.obj)
 .debug_ranges  0x000076b0      0x3b8 mesh/core/libmesh_core_nrf52832_xxAA.a(packet_buffer.c.obj)
 .debug_ranges  0x00007a68      0x368 mesh/core/libmesh_core_nrf52832_xxAA.a(flash_manager_defrag.c.obj)
 .debug_ranges  0x00007dd0      0x160 mesh/core/libmesh_core_nrf52832_xxAA.a(packet_mgr.c.obj)
 .debug_ranges  0x00007f30      0x368 mesh/core/libmesh_core_nrf52832_xxAA.a(mesh_flash.c.obj)
 .debug_ranges  0x00008298       0xa0 mesh/core/libmesh_core_nrf52832_xxAA.a(queue.c.obj)
 .debug_ranges  0x00008338       0x98 mesh/core/libmesh_core_nrf52832_xxAA.a(aes_cmac.c.obj)
 .debug_ranges  0x000083d0      0x158 mesh/core/libmesh_core_nrf52832_xxAA.a(msqueue.c.obj)
 .debug_ranges  0x00008528       0x68 mesh/core/libmesh_core_nrf52832_xxAA.a(replay_cache.c.obj)
 .debug_ranges  0x00008590       0x38 mesh/core/libmesh_core_nrf52832_xxAA.a(nrf_flash.c.obj)
 .debug_ranges  0x000085c8      0x130 external/rtt/librtt_nrf52832_xxAA.a(SEGGER_RTT.c.obj)
 .debug_ranges  0x000086f8       0x48 external/rtt/librtt_nrf52832_xxAA.a(SEGGER_RTT_printf.c.obj)
 .debug_ranges  0x00008740      0x2e8 external/micro-ecc/libuECC_nrf52832_xxAA.a(uECC.c.obj)

.debug_line     0x00000000    0x186dc
 .debug_line    0x00000000      0x77b examples/pb_remote/server/CMakeFiles/pb_remote_server_nrf52832_xxAA_s132_3.1.0.dir/src/main.c.obj
 .debug_line    0x0000077b      0x780 examples/pb_remote/server/CMakeFiles/pb_remote_server_nrf52832_xxAA_s132_3.1.0.dir/__/__/nrf_mesh_sdk.c.obj
 .debug_line    0x00000efb      0x41b examples/pb_remote/server/CMakeFiles/pb_remote_server_nrf52832_xxAA_s132_3.1.0.dir/__/__/common/src/simple_hal.c.obj
 .debug_line    0x00001316      0x225 examples/pb_remote/server/CMakeFiles/pb_remote_server_nrf52832_xxAA_s132_3.1.0.dir/__/__/nrf_mesh_weak.c.obj
 .debug_line    0x0000153b      0x636 examples/pb_remote/server/CMakeFiles/pb_remote_server_nrf52832_xxAA_s132_3.1.0.dir/__/__/__/mesh/prov/src/prov_provisionee.c.obj
 .debug_line    0x00001b71      0x4e6 examples/pb_remote/server/CMakeFiles/pb_remote_server_nrf52832_xxAA_s132_3.1.0.dir/__/__/__/mesh/prov/src/nrf_mesh_prov.c.obj
 .debug_line    0x00002057      0x3de examples/pb_remote/server/CMakeFiles/pb_remote_server_nrf52832_xxAA_s132_3.1.0.dir/__/__/__/mesh/prov/src/provisioning.c.obj
 .debug_line    0x00002435      0x48d examples/pb_remote/server/CMakeFiles/pb_remote_server_nrf52832_xxAA_s132_3.1.0.dir/__/__/__/mesh/prov/src/prov_beacon.c.obj
 .debug_line    0x000028c2      0x4a2 examples/pb_remote/server/CMakeFiles/pb_remote_server_nrf52832_xxAA_s132_3.1.0.dir/__/__/__/mesh/prov/src/prov_utils.c.obj
 .debug_line    0x00002d64      0xc24 examples/pb_remote/server/CMakeFiles/pb_remote_server_nrf52832_xxAA_s132_3.1.0.dir/__/__/__/mesh/prov/src/prov_bearer_adv.c.obj
 .debug_line    0x00003988      0xffa examples/pb_remote/server/CMakeFiles/pb_remote_server_nrf52832_xxAA_s132_3.1.0.dir/__/__/__/models/pb_remote/src/pb_remote_server.c.obj
 .debug_line    0x00004982      0x449 examples/pb_remote/server/CMakeFiles/pb_remote_server_nrf52832_xxAA_s132_3.1.0.dir/__/__/__/mesh/access/src/access_publish.c.obj
 .debug_line    0x00004dcb      0xe8f examples/pb_remote/server/CMakeFiles/pb_remote_server_nrf52832_xxAA_s132_3.1.0.dir/__/__/__/mesh/access/src/access.c.obj
 .debug_line    0x00005c5a      0x50d examples/pb_remote/server/CMakeFiles/pb_remote_server_nrf52832_xxAA_s132_3.1.0.dir/__/__/__/mesh/access/src/access_reliable.c.obj
 .debug_line    0x00006167     0x140b examples/pb_remote/server/CMakeFiles/pb_remote_server_nrf52832_xxAA_s132_3.1.0.dir/__/__/__/mesh/access/src/device_state_manager.c.obj
 .debug_line    0x00007572      0x870 examples/pb_remote/server/CMakeFiles/pb_remote_server_nrf52832_xxAA_s132_3.1.0.dir/__/__/__/mesh/access/src/nrf_mesh_node_config.c.obj
 .debug_line    0x00007de2      0x35e examples/pb_remote/server/CMakeFiles/pb_remote_server_nrf52832_xxAA_s132_3.1.0.dir/__/__/__/models/config/src/composition_data.c.obj
 .debug_line    0x00008140     0x10ca examples/pb_remote/server/CMakeFiles/pb_remote_server_nrf52832_xxAA_s132_3.1.0.dir/__/__/__/models/config/src/config_server.c.obj
 .debug_line    0x0000920a       0xff examples/pb_remote/server/CMakeFiles/pb_remote_server_nrf52832_xxAA_s132_3.1.0.dir/__/__/__/models/config/src/packed_index_list.c.obj
 .debug_line    0x00009309      0x681 examples/pb_remote/server/CMakeFiles/pb_remote_server_nrf52832_xxAA_s132_3.1.0.dir/__/__/__/models/health/src/health_server.c.obj
 .debug_line    0x0000998a      0x27e examples/pb_remote/server/CMakeFiles/pb_remote_server_nrf52832_xxAA_s132_3.1.0.dir/__/__/__/external/nRF5_SDK_14.2.0_17b948a/components/toolchain/system_nrf52.c.obj
 .debug_line    0x00009c08      0x263 mesh/core/libmesh_core_nrf52832_xxAA.a(nrf_mesh_configure.c.obj)
 .debug_line    0x00009e6b      0x30b mesh/core/libmesh_core_nrf52832_xxAA.a(event.c.obj)
 .debug_line    0x0000a176      0x3a6 mesh/core/libmesh_core_nrf52832_xxAA.a(fifo.c.obj)
 .debug_line    0x0000a51c      0x6c0 mesh/core/libmesh_core_nrf52832_xxAA.a(net_state.c.obj)
 .debug_line    0x0000abdc      0x262 mesh/core/libmesh_core_nrf52832_xxAA.a(nrf_mesh_utils.c.obj)
 .debug_line    0x0000ae3e      0x7b0 mesh/core/libmesh_core_nrf52832_xxAA.a(nrf_mesh.c.obj)
 .debug_line    0x0000b5ee      0x250 mesh/core/libmesh_core_nrf52832_xxAA.a(hal.c.obj)
 .debug_line    0x0000b83e      0x4a3 mesh/core/libmesh_core_nrf52832_xxAA.a(timer_scheduler.c.obj)
 .debug_line    0x0000bce1      0x415 mesh/core/libmesh_core_nrf52832_xxAA.a(timer.c.obj)
 .debug_line    0x0000c0f6      0x122 mesh/core/libmesh_core_nrf52832_xxAA.a(ticker.c.obj)
 .debug_line    0x0000c218      0x28d mesh/core/libmesh_core_nrf52832_xxAA.a(rand.c.obj)
 .debug_line    0x0000c4a5      0x291 mesh/core/libmesh_core_nrf52832_xxAA.a(nrf_mesh_opt.c.obj)
 .debug_line    0x0000c736      0x5b6 mesh/core/libmesh_core_nrf52832_xxAA.a(timeslot.c.obj)
 .debug_line    0x0000ccec      0x608 mesh/core/libmesh_core_nrf52832_xxAA.a(bearer_event.c.obj)
 .debug_line    0x0000d2f4      0x45a mesh/core/libmesh_core_nrf52832_xxAA.a(enc.c.obj)
 .debug_line    0x0000d74e      0x836 mesh/core/libmesh_core_nrf52832_xxAA.a(network.c.obj)
 .debug_line    0x0000df84      0x236 mesh/core/libmesh_core_nrf52832_xxAA.a(nrf_mesh_keygen.c.obj)
 .debug_line    0x0000e1ba      0x373 mesh/core/libmesh_core_nrf52832_xxAA.a(list.c.obj)
 .debug_line    0x0000e52d      0x284 mesh/core/libmesh_core_nrf52832_xxAA.a(log.c.obj)
 .debug_line    0x0000e7b1      0xa9a mesh/core/libmesh_core_nrf52832_xxAA.a(flash_manager.c.obj)
 .debug_line    0x0000f24b      0x34b mesh/core/libmesh_core_nrf52832_xxAA.a(ccm_soft.c.obj)
 .debug_line    0x0000f596      0x52d mesh/core/libmesh_core_nrf52832_xxAA.a(beacon.c.obj)
 .debug_line    0x0000fac3      0x299 mesh/core/libmesh_core_nrf52832_xxAA.a(flash_manager_internal.c.obj)
 .debug_line    0x0000fd5c      0x471 mesh/core/libmesh_core_nrf52832_xxAA.a(core_tx.c.obj)
 .debug_line    0x000101cd      0x61c mesh/core/libmesh_core_nrf52832_xxAA.a(heartbeat.c.obj)
 .debug_line    0x000107e9      0x42b mesh/core/libmesh_core_nrf52832_xxAA.a(net_beacon.c.obj)
 .debug_line    0x00010c14      0x489 mesh/core/libmesh_core_nrf52832_xxAA.a(core_tx_adv.c.obj)
 .debug_line    0x0001109d      0x352 mesh/core/libmesh_core_nrf52832_xxAA.a(ad_listener.c.obj)
 .debug_line    0x000113ef      0x403 mesh/core/libmesh_core_nrf52832_xxAA.a(ad_type_filter.c.obj)
 .debug_line    0x000117f2      0x81c mesh/core/libmesh_core_nrf52832_xxAA.a(advertiser.c.obj)
 .debug_line    0x0001200e      0x5c1 mesh/core/libmesh_core_nrf52832_xxAA.a(bearer_handler.c.obj)
 .debug_line    0x000125cf      0x3c8 mesh/core/libmesh_core_nrf52832_xxAA.a(broadcast.c.obj)
 .debug_line    0x00012997      0x356 mesh/core/libmesh_core_nrf52832_xxAA.a(filter_engine.c.obj)
 .debug_line    0x00012ced      0x320 mesh/core/libmesh_core_nrf52832_xxAA.a(radio_config.c.obj)
 .debug_line    0x0001300d      0x751 mesh/core/libmesh_core_nrf52832_xxAA.a(scanner.c.obj)
 .debug_line    0x0001375e      0x2a2 mesh/core/libmesh_core_nrf52832_xxAA.a(internal_event.c.obj)
 .debug_line    0x00013a00      0x254 mesh/core/libmesh_core_nrf52832_xxAA.a(aes.c.obj)
 .debug_line    0x00013c54      0x298 mesh/core/libmesh_core_nrf52832_xxAA.a(msg_cache.c.obj)
 .debug_line    0x00013eec     0x1029 mesh/core/libmesh_core_nrf52832_xxAA.a(transport.c.obj)
 .debug_line    0x00014f15      0x6ed mesh/core/libmesh_core_nrf52832_xxAA.a(packet_buffer.c.obj)
 .debug_line    0x00015602      0x7e7 mesh/core/libmesh_core_nrf52832_xxAA.a(flash_manager_defrag.c.obj)
 .debug_line    0x00015de9      0x445 mesh/core/libmesh_core_nrf52832_xxAA.a(packet_mgr.c.obj)
 .debug_line    0x0001622e      0x5a9 mesh/core/libmesh_core_nrf52832_xxAA.a(mesh_flash.c.obj)
 .debug_line    0x000167d7      0x2d2 mesh/core/libmesh_core_nrf52832_xxAA.a(queue.c.obj)
 .debug_line    0x00016aa9      0x2d4 mesh/core/libmesh_core_nrf52832_xxAA.a(aes_cmac.c.obj)
 .debug_line    0x00016d7d      0x388 mesh/core/libmesh_core_nrf52832_xxAA.a(msqueue.c.obj)
 .debug_line    0x00017105      0x1f1 mesh/core/libmesh_core_nrf52832_xxAA.a(replay_cache.c.obj)
 .debug_line    0x000172f6      0x2a9 mesh/core/libmesh_core_nrf52832_xxAA.a(nrf_flash.c.obj)
 .debug_line    0x0001759f      0x4c0 external/rtt/librtt_nrf52832_xxAA.a(SEGGER_RTT.c.obj)
 .debug_line    0x00017a5f      0x282 external/rtt/librtt_nrf52832_xxAA.a(SEGGER_RTT_printf.c.obj)
 .debug_line    0x00017ce1      0x9fb external/micro-ecc/libuECC_nrf52832_xxAA.a(uECC.c.obj)

.debug_str      0x00000000    0x14772
 .debug_str     0x00000000     0x2789 examples/pb_remote/server/CMakeFiles/pb_remote_server_nrf52832_xxAA_s132_3.1.0.dir/src/main.c.obj
                               0x2c79 (size before relaxing)
 .debug_str     0x00002789     0x151e examples/pb_remote/server/CMakeFiles/pb_remote_server_nrf52832_xxAA_s132_3.1.0.dir/__/__/nrf_mesh_sdk.c.obj
                               0x220e (size before relaxing)
 .debug_str     0x00003ca7      0x19e examples/pb_remote/server/CMakeFiles/pb_remote_server_nrf52832_xxAA_s132_3.1.0.dir/__/__/common/src/simple_hal.c.obj
                                0xc41 (size before relaxing)
 .debug_str     0x00003e45       0x3c examples/pb_remote/server/CMakeFiles/pb_remote_server_nrf52832_xxAA_s132_3.1.0.dir/__/__/nrf_mesh_weak.c.obj
                                0x64d (size before relaxing)
 .debug_str     0x00003e81     0x1353 examples/pb_remote/server/CMakeFiles/pb_remote_server_nrf52832_xxAA_s132_3.1.0.dir/__/__/__/mesh/prov/src/prov_provisionee.c.obj
                               0x2020 (size before relaxing)
 .debug_str     0x000051d4      0x287 examples/pb_remote/server/CMakeFiles/pb_remote_server_nrf52832_xxAA_s132_3.1.0.dir/__/__/__/mesh/prov/src/nrf_mesh_prov.c.obj
                               0x1c4e (size before relaxing)
 .debug_str     0x0000545b       0xf7 examples/pb_remote/server/CMakeFiles/pb_remote_server_nrf52832_xxAA_s132_3.1.0.dir/__/__/__/mesh/prov/src/provisioning.c.obj
                                0xf45 (size before relaxing)
 .debug_str     0x00005552      0x113 examples/pb_remote/server/CMakeFiles/pb_remote_server_nrf52832_xxAA_s132_3.1.0.dir/__/__/__/mesh/prov/src/prov_beacon.c.obj
                               0x188b (size before relaxing)
 .debug_str     0x00005665      0x44e examples/pb_remote/server/CMakeFiles/pb_remote_server_nrf52832_xxAA_s132_3.1.0.dir/__/__/__/mesh/prov/src/prov_utils.c.obj
                               0x1e12 (size before relaxing)
 .debug_str     0x00005ab3      0x581 examples/pb_remote/server/CMakeFiles/pb_remote_server_nrf52832_xxAA_s132_3.1.0.dir/__/__/__/mesh/prov/src/prov_bearer_adv.c.obj
                               0x1b5a (size before relaxing)
 .debug_str     0x00006034     0x146e examples/pb_remote/server/CMakeFiles/pb_remote_server_nrf52832_xxAA_s132_3.1.0.dir/__/__/__/models/pb_remote/src/pb_remote_server.c.obj
                               0x3399 (size before relaxing)
 .debug_str     0x000074a2      0x307 examples/pb_remote/server/CMakeFiles/pb_remote_server_nrf52832_xxAA_s132_3.1.0.dir/__/__/__/mesh/access/src/access_publish.c.obj
                                0xbe6 (size before relaxing)
 .debug_str     0x000077a9     0x19d9 examples/pb_remote/server/CMakeFiles/pb_remote_server_nrf52832_xxAA_s132_3.1.0.dir/__/__/__/mesh/access/src/access.c.obj
                               0x2b46 (size before relaxing)
 .debug_str     0x00009182      0x11e examples/pb_remote/server/CMakeFiles/pb_remote_server_nrf52832_xxAA_s132_3.1.0.dir/__/__/__/mesh/access/src/access_reliable.c.obj
                                0xcb4 (size before relaxing)
 .debug_str     0x000092a0     0x1174 examples/pb_remote/server/CMakeFiles/pb_remote_server_nrf52832_xxAA_s132_3.1.0.dir/__/__/__/mesh/access/src/device_state_manager.c.obj
                               0x2e6b (size before relaxing)
 .debug_str     0x0000a414      0x20a examples/pb_remote/server/CMakeFiles/pb_remote_server_nrf52832_xxAA_s132_3.1.0.dir/__/__/__/mesh/access/src/nrf_mesh_node_config.c.obj
                               0x3a21 (size before relaxing)
 .debug_str     0x0000a61e      0x198 examples/pb_remote/server/CMakeFiles/pb_remote_server_nrf52832_xxAA_s132_3.1.0.dir/__/__/__/models/config/src/composition_data.c.obj
                                0x8f7 (size before relaxing)
 .debug_str     0x0000a7b6     0x2045 examples/pb_remote/server/CMakeFiles/pb_remote_server_nrf52832_xxAA_s132_3.1.0.dir/__/__/__/models/config/src/config_server.c.obj
                               0x3ec1 (size before relaxing)
 .debug_str     0x0000c7fb       0x69 examples/pb_remote/server/CMakeFiles/pb_remote_server_nrf52832_xxAA_s132_3.1.0.dir/__/__/__/models/config/src/packed_index_list.c.obj
                                0x264 (size before relaxing)
 .debug_str     0x0000c864      0x5c4 examples/pb_remote/server/CMakeFiles/pb_remote_server_nrf52832_xxAA_s132_3.1.0.dir/__/__/__/models/health/src/health_server.c.obj
                               0x13b3 (size before relaxing)
 .debug_str     0x0000ce28      0x4ad examples/pb_remote/server/CMakeFiles/pb_remote_server_nrf52832_xxAA_s132_3.1.0.dir/__/__/__/external/nRF5_SDK_14.2.0_17b948a/components/toolchain/system_nrf52.c.obj
                                0x779 (size before relaxing)
 .debug_str     0x0000d2d5       0x75 mesh/core/libmesh_core_nrf52832_xxAA.a(nrf_mesh_configure.c.obj)
                                0x77e (size before relaxing)
 .debug_str     0x0000d34a       0x82 mesh/core/libmesh_core_nrf52832_xxAA.a(event.c.obj)
                               0x14d3 (size before relaxing)
 .debug_str     0x0000d3cc       0x5e mesh/core/libmesh_core_nrf52832_xxAA.a(fifo.c.obj)
                                0x6f5 (size before relaxing)
 .debug_str     0x0000d42a      0x364 mesh/core/libmesh_core_nrf52832_xxAA.a(net_state.c.obj)
                               0x1e6a (size before relaxing)
 .debug_str     0x0000d78e       0x8b mesh/core/libmesh_core_nrf52832_xxAA.a(nrf_mesh_utils.c.obj)
                                0x76b (size before relaxing)
 .debug_str     0x0000d819      0x57d mesh/core/libmesh_core_nrf52832_xxAA.a(nrf_mesh.c.obj)
                               0x2a81 (size before relaxing)
 .debug_str     0x0000dd96       0x98 mesh/core/libmesh_core_nrf52832_xxAA.a(hal.c.obj)
                                0x752 (size before relaxing)
 .debug_str     0x0000de2e      0x14a mesh/core/libmesh_core_nrf52832_xxAA.a(timer_scheduler.c.obj)
                                0x94e (size before relaxing)
 .debug_str     0x0000df78      0x222 mesh/core/libmesh_core_nrf52832_xxAA.a(timer.c.obj)
                                0x883 (size before relaxing)
 .debug_str     0x0000e19a       0x3c mesh/core/libmesh_core_nrf52832_xxAA.a(ticker.c.obj)
                                0x34c (size before relaxing)
 .debug_str     0x0000e1d6       0xac mesh/core/libmesh_core_nrf52832_xxAA.a(rand.c.obj)
                                0x6cf (size before relaxing)
 .debug_str     0x0000e282       0x64 mesh/core/libmesh_core_nrf52832_xxAA.a(nrf_mesh_opt.c.obj)
                                0x921 (size before relaxing)
 .debug_str     0x0000e2e6      0x8ba mesh/core/libmesh_core_nrf52832_xxAA.a(timeslot.c.obj)
                               0x17e8 (size before relaxing)
 .debug_str     0x0000eba0      0x2d9 mesh/core/libmesh_core_nrf52832_xxAA.a(bearer_event.c.obj)
                                0xed3 (size before relaxing)
 .debug_str     0x0000ee79      0x1c1 mesh/core/libmesh_core_nrf52832_xxAA.a(enc.c.obj)
                                0x9d4 (size before relaxing)
 .debug_str     0x0000f03a      0x99c mesh/core/libmesh_core_nrf52832_xxAA.a(network.c.obj)
                               0x19c7 (size before relaxing)
 .debug_str     0x0000f9d6       0x57 mesh/core/libmesh_core_nrf52832_xxAA.a(nrf_mesh_keygen.c.obj)
                                0x397 (size before relaxing)
 .debug_str     0x0000fa2d       0x65 mesh/core/libmesh_core_nrf52832_xxAA.a(list.c.obj)
                                0x2d8 (size before relaxing)
 .debug_str     0x0000fa92      0x182 mesh/core/libmesh_core_nrf52832_xxAA.a(log.c.obj)
                                0x7d0 (size before relaxing)
 .debug_str     0x0000fc14      0x8a3 mesh/core/libmesh_core_nrf52832_xxAA.a(flash_manager.c.obj)
                               0x19d1 (size before relaxing)
 .debug_str     0x000104b7       0x85 mesh/core/libmesh_core_nrf52832_xxAA.a(ccm_soft.c.obj)
                                0x75d (size before relaxing)
 .debug_str     0x0001053c       0xb2 mesh/core/libmesh_core_nrf52832_xxAA.a(beacon.c.obj)
                               0x1133 (size before relaxing)
 .debug_str     0x000105ee       0x38 mesh/core/libmesh_core_nrf52832_xxAA.a(flash_manager_internal.c.obj)
                                0x7be (size before relaxing)
 .debug_str     0x00010626      0x131 mesh/core/libmesh_core_nrf52832_xxAA.a(core_tx.c.obj)
                                0x8bd (size before relaxing)
 .debug_str     0x00010757      0x613 mesh/core/libmesh_core_nrf52832_xxAA.a(heartbeat.c.obj)
                               0x203b (size before relaxing)
 .debug_str     0x00010d6a      0x1a7 mesh/core/libmesh_core_nrf52832_xxAA.a(net_beacon.c.obj)
                                0xe84 (size before relaxing)
 .debug_str     0x00010f11      0x102 mesh/core/libmesh_core_nrf52832_xxAA.a(core_tx_adv.c.obj)
                               0x104b (size before relaxing)
 .debug_str     0x00011013      0x189 mesh/core/libmesh_core_nrf52832_xxAA.a(ad_listener.c.obj)
                                0xb7f (size before relaxing)
 .debug_str     0x0001119c      0x14f mesh/core/libmesh_core_nrf52832_xxAA.a(ad_type_filter.c.obj)
                                0x9b9 (size before relaxing)
 .debug_str     0x000112eb      0x339 mesh/core/libmesh_core_nrf52832_xxAA.a(advertiser.c.obj)
                               0x150c (size before relaxing)
 .debug_str     0x00011624      0x346 mesh/core/libmesh_core_nrf52832_xxAA.a(bearer_handler.c.obj)
                                0xf8f (size before relaxing)
 .debug_str     0x0001196a      0x1ac mesh/core/libmesh_core_nrf52832_xxAA.a(broadcast.c.obj)
                                0xf32 (size before relaxing)
 .debug_str     0x00011b16       0x72 mesh/core/libmesh_core_nrf52832_xxAA.a(filter_engine.c.obj)
                                0x826 (size before relaxing)
 .debug_str     0x00011b88       0x79 mesh/core/libmesh_core_nrf52832_xxAA.a(radio_config.c.obj)
                                0x780 (size before relaxing)
 .debug_str     0x00011c01      0x45d mesh/core/libmesh_core_nrf52832_xxAA.a(scanner.c.obj)
                               0x18d8 (size before relaxing)
 .debug_str     0x0001205e       0xc0 mesh/core/libmesh_core_nrf52832_xxAA.a(internal_event.c.obj)
                                0xa93 (size before relaxing)
 .debug_str     0x0001211e       0xc1 mesh/core/libmesh_core_nrf52832_xxAA.a(aes.c.obj)
                                0xa61 (size before relaxing)
 .debug_str     0x000121df       0x71 mesh/core/libmesh_core_nrf52832_xxAA.a(msg_cache.c.obj)
                                0x6ea (size before relaxing)
 .debug_str     0x00012250      0xd1d mesh/core/libmesh_core_nrf52832_xxAA.a(transport.c.obj)
                               0x31ea (size before relaxing)
 .debug_str     0x00012f6d      0x2cd mesh/core/libmesh_core_nrf52832_xxAA.a(packet_buffer.c.obj)
                                0xc2f (size before relaxing)
 .debug_str     0x0001323a      0x36b mesh/core/libmesh_core_nrf52832_xxAA.a(flash_manager_defrag.c.obj)
                               0x1528 (size before relaxing)
 .debug_str     0x000135a5      0x266 mesh/core/libmesh_core_nrf52832_xxAA.a(packet_mgr.c.obj)
                                0x9cf (size before relaxing)
 .debug_str     0x0001380b      0x343 mesh/core/libmesh_core_nrf52832_xxAA.a(mesh_flash.c.obj)
                                0xcf6 (size before relaxing)
 .debug_str     0x00013b4e       0x19 mesh/core/libmesh_core_nrf52832_xxAA.a(queue.c.obj)
                                0x69d (size before relaxing)
 .debug_str     0x00013b67       0xb2 mesh/core/libmesh_core_nrf52832_xxAA.a(aes_cmac.c.obj)
                                0x715 (size before relaxing)
 .debug_str     0x00013c19       0x43 mesh/core/libmesh_core_nrf52832_xxAA.a(msqueue.c.obj)
                                0x6d9 (size before relaxing)
 .debug_str     0x00013c5c       0x9f mesh/core/libmesh_core_nrf52832_xxAA.a(replay_cache.c.obj)
                                0x6b0 (size before relaxing)
 .debug_str     0x00013cfb       0x36 mesh/core/libmesh_core_nrf52832_xxAA.a(nrf_flash.c.obj)
                                0x6ec (size before relaxing)
 .debug_str     0x00013d31      0x2d1 external/rtt/librtt_nrf52832_xxAA.a(SEGGER_RTT.c.obj)
                                0x922 (size before relaxing)
 .debug_str     0x00014002       0xdf external/rtt/librtt_nrf52832_xxAA.a(SEGGER_RTT_printf.c.obj)
                                0x792 (size before relaxing)
 .debug_str     0x000140e1      0x691 external/micro-ecc/libuECC_nrf52832_xxAA.a(uECC.c.obj)
                                0x880 (size before relaxing)

.debug_frame    0x00000000     0x6d4c
 .debug_frame   0x00000000       0x7c examples/pb_remote/server/CMakeFiles/pb_remote_server_nrf52832_xxAA_s132_3.1.0.dir/src/main.c.obj
 .debug_frame   0x0000007c      0x180 examples/pb_remote/server/CMakeFiles/pb_remote_server_nrf52832_xxAA_s132_3.1.0.dir/__/__/nrf_mesh_sdk.c.obj
 .debug_frame   0x000001fc       0x9c examples/pb_remote/server/CMakeFiles/pb_remote_server_nrf52832_xxAA_s132_3.1.0.dir/__/__/common/src/simple_hal.c.obj
 .debug_frame   0x00000298       0x30 examples/pb_remote/server/CMakeFiles/pb_remote_server_nrf52832_xxAA_s132_3.1.0.dir/__/__/nrf_mesh_weak.c.obj
 .debug_frame   0x000002c8      0x180 examples/pb_remote/server/CMakeFiles/pb_remote_server_nrf52832_xxAA_s132_3.1.0.dir/__/__/__/mesh/prov/src/prov_provisionee.c.obj
 .debug_frame   0x00000448      0x134 examples/pb_remote/server/CMakeFiles/pb_remote_server_nrf52832_xxAA_s132_3.1.0.dir/__/__/__/mesh/prov/src/nrf_mesh_prov.c.obj
 .debug_frame   0x0000057c      0x174 examples/pb_remote/server/CMakeFiles/pb_remote_server_nrf52832_xxAA_s132_3.1.0.dir/__/__/__/mesh/prov/src/provisioning.c.obj
 .debug_frame   0x000006f0       0x84 examples/pb_remote/server/CMakeFiles/pb_remote_server_nrf52832_xxAA_s132_3.1.0.dir/__/__/__/mesh/prov/src/prov_beacon.c.obj
 .debug_frame   0x00000774      0x150 examples/pb_remote/server/CMakeFiles/pb_remote_server_nrf52832_xxAA_s132_3.1.0.dir/__/__/__/mesh/prov/src/prov_utils.c.obj
 .debug_frame   0x000008c4      0x328 examples/pb_remote/server/CMakeFiles/pb_remote_server_nrf52832_xxAA_s132_3.1.0.dir/__/__/__/mesh/prov/src/prov_bearer_adv.c.obj
 .debug_frame   0x00000bec      0x448 examples/pb_remote/server/CMakeFiles/pb_remote_server_nrf52832_xxAA_s132_3.1.0.dir/__/__/__/models/pb_remote/src/pb_remote_server.c.obj
 .debug_frame   0x00001034      0x114 examples/pb_remote/server/CMakeFiles/pb_remote_server_nrf52832_xxAA_s132_3.1.0.dir/__/__/__/mesh/access/src/access_publish.c.obj
 .debug_frame   0x00001148      0x548 examples/pb_remote/server/CMakeFiles/pb_remote_server_nrf52832_xxAA_s132_3.1.0.dir/__/__/__/mesh/access/src/access.c.obj
 .debug_frame   0x00001690      0x110 examples/pb_remote/server/CMakeFiles/pb_remote_server_nrf52832_xxAA_s132_3.1.0.dir/__/__/__/mesh/access/src/access_reliable.c.obj
 .debug_frame   0x000017a0      0xa78 examples/pb_remote/server/CMakeFiles/pb_remote_server_nrf52832_xxAA_s132_3.1.0.dir/__/__/__/mesh/access/src/device_state_manager.c.obj
 .debug_frame   0x00002218      0x140 examples/pb_remote/server/CMakeFiles/pb_remote_server_nrf52832_xxAA_s132_3.1.0.dir/__/__/__/mesh/access/src/nrf_mesh_node_config.c.obj
 .debug_frame   0x00002358       0x40 examples/pb_remote/server/CMakeFiles/pb_remote_server_nrf52832_xxAA_s132_3.1.0.dir/__/__/__/models/config/src/composition_data.c.obj
 .debug_frame   0x00002398      0x7f0 examples/pb_remote/server/CMakeFiles/pb_remote_server_nrf52832_xxAA_s132_3.1.0.dir/__/__/__/models/config/src/config_server.c.obj
 .debug_frame   0x00002b88       0x3c examples/pb_remote/server/CMakeFiles/pb_remote_server_nrf52832_xxAA_s132_3.1.0.dir/__/__/__/models/config/src/packed_index_list.c.obj
 .debug_frame   0x00002bc4      0x2a4 examples/pb_remote/server/CMakeFiles/pb_remote_server_nrf52832_xxAA_s132_3.1.0.dir/__/__/__/models/health/src/health_server.c.obj
 .debug_frame   0x00002e68       0x58 examples/pb_remote/server/CMakeFiles/pb_remote_server_nrf52832_xxAA_s132_3.1.0.dir/__/__/__/external/nRF5_SDK_14.2.0_17b948a/components/toolchain/system_nrf52.c.obj
 .debug_frame   0x00002ec0       0x4c mesh/core/libmesh_core_nrf52832_xxAA.a(nrf_mesh_configure.c.obj)
 .debug_frame   0x00002f0c       0x6c mesh/core/libmesh_core_nrf52832_xxAA.a(event.c.obj)
 .debug_frame   0x00002f78       0xd0 mesh/core/libmesh_core_nrf52832_xxAA.a(fifo.c.obj)
 .debug_frame   0x00003048      0x278 mesh/core/libmesh_core_nrf52832_xxAA.a(net_state.c.obj)
 .debug_frame   0x000032c0       0x50 mesh/core/libmesh_core_nrf52832_xxAA.a(nrf_mesh_utils.c.obj)
 .debug_frame   0x00003310      0x15c mesh/core/libmesh_core_nrf52832_xxAA.a(nrf_mesh.c.obj)
 .debug_frame   0x0000346c       0x58 mesh/core/libmesh_core_nrf52832_xxAA.a(hal.c.obj)
 .debug_frame   0x000034c4      0x13c mesh/core/libmesh_core_nrf52832_xxAA.a(timer_scheduler.c.obj)
 .debug_frame   0x00003600      0x10c mesh/core/libmesh_core_nrf52832_xxAA.a(timer.c.obj)
 .debug_frame   0x0000370c       0x4c mesh/core/libmesh_core_nrf52832_xxAA.a(ticker.c.obj)
 .debug_frame   0x00003758       0x84 mesh/core/libmesh_core_nrf52832_xxAA.a(rand.c.obj)
 .debug_frame   0x000037dc       0x30 mesh/core/libmesh_core_nrf52832_xxAA.a(nrf_mesh_opt.c.obj)
 .debug_frame   0x0000380c      0x1a0 mesh/core/libmesh_core_nrf52832_xxAA.a(timeslot.c.obj)
 .debug_frame   0x000039ac      0x1c8 mesh/core/libmesh_core_nrf52832_xxAA.a(bearer_event.c.obj)
 .debug_frame   0x00003b74      0x150 mesh/core/libmesh_core_nrf52832_xxAA.a(enc.c.obj)
 .debug_frame   0x00003cc4      0x14c mesh/core/libmesh_core_nrf52832_xxAA.a(network.c.obj)
 .debug_frame   0x00003e10       0xb4 mesh/core/libmesh_core_nrf52832_xxAA.a(nrf_mesh_keygen.c.obj)
 .debug_frame   0x00003ec4       0xd4 mesh/core/libmesh_core_nrf52832_xxAA.a(list.c.obj)
 .debug_frame   0x00003f98       0xb0 mesh/core/libmesh_core_nrf52832_xxAA.a(log.c.obj)
 .debug_frame   0x00004048      0x33c mesh/core/libmesh_core_nrf52832_xxAA.a(flash_manager.c.obj)
 .debug_frame   0x00004384      0x10c mesh/core/libmesh_core_nrf52832_xxAA.a(ccm_soft.c.obj)
 .debug_frame   0x00004490       0x98 mesh/core/libmesh_core_nrf52832_xxAA.a(beacon.c.obj)
 .debug_frame   0x00004528       0x34 mesh/core/libmesh_core_nrf52832_xxAA.a(flash_manager_internal.c.obj)
 .debug_frame   0x0000455c       0xe8 mesh/core/libmesh_core_nrf52832_xxAA.a(core_tx.c.obj)
 .debug_frame   0x00004644      0x164 mesh/core/libmesh_core_nrf52832_xxAA.a(heartbeat.c.obj)
 .debug_frame   0x000047a8       0xd0 mesh/core/libmesh_core_nrf52832_xxAA.a(net_beacon.c.obj)
 .debug_frame   0x00004878      0x128 mesh/core/libmesh_core_nrf52832_xxAA.a(core_tx_adv.c.obj)
 .debug_frame   0x000049a0       0x6c mesh/core/libmesh_core_nrf52832_xxAA.a(ad_listener.c.obj)
 .debug_frame   0x00004a0c       0xa8 mesh/core/libmesh_core_nrf52832_xxAA.a(ad_type_filter.c.obj)
 .debug_frame   0x00004ab4      0x284 mesh/core/libmesh_core_nrf52832_xxAA.a(advertiser.c.obj)
 .debug_frame   0x00004d38      0x160 mesh/core/libmesh_core_nrf52832_xxAA.a(bearer_handler.c.obj)
 .debug_frame   0x00004e98       0x70 mesh/core/libmesh_core_nrf52832_xxAA.a(broadcast.c.obj)
 .debug_frame   0x00004f08       0x7c mesh/core/libmesh_core_nrf52832_xxAA.a(filter_engine.c.obj)
 .debug_frame   0x00004f84       0x90 mesh/core/libmesh_core_nrf52832_xxAA.a(radio_config.c.obj)
 .debug_frame   0x00005014      0x2a4 mesh/core/libmesh_core_nrf52832_xxAA.a(scanner.c.obj)
 .debug_frame   0x000052b8       0x48 mesh/core/libmesh_core_nrf52832_xxAA.a(internal_event.c.obj)
 .debug_frame   0x00005300       0x40 mesh/core/libmesh_core_nrf52832_xxAA.a(aes.c.obj)
 .debug_frame   0x00005340       0x6c mesh/core/libmesh_core_nrf52832_xxAA.a(msg_cache.c.obj)
 .debug_frame   0x000053ac      0x44c mesh/core/libmesh_core_nrf52832_xxAA.a(transport.c.obj)
 .debug_frame   0x000057f8      0x184 mesh/core/libmesh_core_nrf52832_xxAA.a(packet_buffer.c.obj)
 .debug_frame   0x0000597c      0x250 mesh/core/libmesh_core_nrf52832_xxAA.a(flash_manager_defrag.c.obj)
 .debug_frame   0x00005bcc       0xa0 mesh/core/libmesh_core_nrf52832_xxAA.a(packet_mgr.c.obj)
 .debug_frame   0x00005c6c      0x150 mesh/core/libmesh_core_nrf52832_xxAA.a(mesh_flash.c.obj)
 .debug_frame   0x00005dbc       0x74 mesh/core/libmesh_core_nrf52832_xxAA.a(queue.c.obj)
 .debug_frame   0x00005e30       0xa4 mesh/core/libmesh_core_nrf52832_xxAA.a(aes_cmac.c.obj)
 .debug_frame   0x00005ed4       0xb8 mesh/core/libmesh_core_nrf52832_xxAA.a(msqueue.c.obj)
 .debug_frame   0x00005f8c       0xa0 mesh/core/libmesh_core_nrf52832_xxAA.a(replay_cache.c.obj)
 .debug_frame   0x0000602c       0x54 mesh/core/libmesh_core_nrf52832_xxAA.a(nrf_flash.c.obj)
 .debug_frame   0x00006080      0x2d8 external/rtt/librtt_nrf52832_xxAA.a(SEGGER_RTT.c.obj)
 .debug_frame   0x00006358       0xac external/rtt/librtt_nrf52832_xxAA.a(SEGGER_RTT_printf.c.obj)
 .debug_frame   0x00006404      0x684 external/micro-ecc/libuECC_nrf52832_xxAA.a(uECC.c.obj)
 .debug_frame   0x00006a88       0x28 c:/a/gcc_arm/6/bin/../lib/gcc/arm-none-eabi/6.3.1/../../../../arm-none-eabi/lib/thumb/v7e-m/fpv4-sp/hard\libg_nano.a(lib_a-exit.o)
 .debug_frame   0x00006ab0       0x2c c:/a/gcc_arm/6/bin/../lib/gcc/arm-none-eabi/6.3.1/../../../../arm-none-eabi/lib/thumb/v7e-m/fpv4-sp/hard\libg_nano.a(lib_a-init.o)
 .debug_frame   0x00006adc       0x30 c:/a/gcc_arm/6/bin/../lib/gcc/arm-none-eabi/6.3.1/../../../../arm-none-eabi/lib/thumb/v7e-m/fpv4-sp/hard\libg_nano.a(lib_a-malloc.o)
 .debug_frame   0x00006b0c       0x28 c:/a/gcc_arm/6/bin/../lib/gcc/arm-none-eabi/6.3.1/../../../../arm-none-eabi/lib/thumb/v7e-m/fpv4-sp/hard\libg_nano.a(lib_a-memcmp.o)
 .debug_frame   0x00006b34       0x28 c:/a/gcc_arm/6/bin/../lib/gcc/arm-none-eabi/6.3.1/../../../../arm-none-eabi/lib/thumb/v7e-m/fpv4-sp/hard\libg_nano.a(lib_a-memcpy-stub.o)
 .debug_frame   0x00006b5c       0x20 c:/a/gcc_arm/6/bin/../lib/gcc/arm-none-eabi/6.3.1/../../../../arm-none-eabi/lib/thumb/v7e-m/fpv4-sp/hard\libg_nano.a(lib_a-memset.o)
 .debug_frame   0x00006b7c       0x38 c:/a/gcc_arm/6/bin/../lib/gcc/arm-none-eabi/6.3.1/../../../../arm-none-eabi/lib/thumb/v7e-m/fpv4-sp/hard\libg_nano.a(lib_a-nano-freer.o)
 .debug_frame   0x00006bb4       0x2c c:/a/gcc_arm/6/bin/../lib/gcc/arm-none-eabi/6.3.1/../../../../arm-none-eabi/lib/thumb/v7e-m/fpv4-sp/hard\libg_nano.a(lib_a-nano-mallocr.o)
 .debug_frame   0x00006be0       0x2c c:/a/gcc_arm/6/bin/../lib/gcc/arm-none-eabi/6.3.1/../../../../arm-none-eabi/lib/thumb/v7e-m/fpv4-sp/hard\libg_nano.a(lib_a-sbrkr.o)
 .debug_frame   0x00006c0c       0x20 c:/a/gcc_arm/6/bin/../lib/gcc/arm-none-eabi/6.3.1/../../../../arm-none-eabi/lib/thumb/v7e-m/fpv4-sp/hard\libg_nano.a(lib_a-strcpy.o)
 .debug_frame   0x00006c2c       0x34 c:/a/gcc_arm/6/bin/../lib/gcc/arm-none-eabi/6.3.1/../../../../arm-none-eabi/lib/thumb/v7e-m/fpv4-sp/hard\libg_nano.a(lib_a-strrchr.o)
 .debug_frame   0x00006c60       0x30 c:/a/gcc_arm/6/bin/../lib/gcc/arm-none-eabi/6.3.1/../../../../arm-none-eabi/lib/thumb/v7e-m/fpv4-sp/hard\libg_nano.a(lib_a-mlock.o)
 .debug_frame   0x00006c90       0x5c c:/a/gcc_arm/6/bin/../lib/gcc/arm-none-eabi/6.3.1/../../../../arm-none-eabi/lib/thumb/v7e-m/fpv4-sp/hard\libg_nano.a(lib_a-reent.o)
 .debug_frame   0x00006cec       0x20 c:/a/gcc_arm/6/bin/../lib/gcc/arm-none-eabi/6.3.1/../../../../arm-none-eabi/lib/thumb/v7e-m/fpv4-sp/hard\libg_nano.a(lib_a-strchr.o)
 .debug_frame   0x00006d0c       0x20 c:/a/gcc_arm/6/bin/../lib/gcc/arm-none-eabi/6.3.1/../../../../arm-none-eabi/lib/thumb/v7e-m/fpv4-sp/hard\libnosys.a(sbrk.o)
 .debug_frame   0x00006d2c       0x20 c:/a/gcc_arm/6/bin/../lib/gcc/arm-none-eabi/6.3.1/../../../../arm-none-eabi/lib/thumb/v7e-m/fpv4-sp/hard\libnosys.a(_exit.o)
