Archive member included to satisfy reference by file (symbol)

mesh/core/libmesh_core_nrf52832_xxAA.a(nrf_mesh_configure.c.obj)
                              examples/pb_remote/server/CMakeFiles/pb_remote_server_nrf52832_xxAA_s132_3.1.0.dir/__/__/__/mesh/prov/src/prov_beacon.c.obj (nrf_mesh_configure_device_uuid_get)
mesh/core/libmesh_core_nrf52832_xxAA.a(event.c.obj)
                              examples/pb_remote/server/CMakeFiles/pb_remote_server_nrf52832_xxAA_s132_3.1.0.dir/__/__/__/mesh/access/src/access.c.obj (event_handle)
mesh/core/libmesh_core_nrf52832_xxAA.a(fifo.c.obj)
                              examples/pb_remote/server/CMakeFiles/pb_remote_server_nrf52832_xxAA_s132_3.1.0.dir/__/__/__/models/pb_remote/src/pb_remote_server.c.obj (fifo_init)
mesh/core/libmesh_core_nrf52832_xxAA.a(net_state.c.obj)
                              examples/pb_remote/server/CMakeFiles/pb_remote_server_nrf52832_xxAA_s132_3.1.0.dir/__/__/__/mesh/access/src/nrf_mesh_node_config.c.obj (net_state_reset)
mesh/core/libmesh_core_nrf52832_xxAA.a(nrf_mesh_utils.c.obj)
                              examples/pb_remote/server/CMakeFiles/pb_remote_server_nrf52832_xxAA_s132_3.1.0.dir/__/__/__/mesh/prov/src/prov_provisionee.c.obj (nrf_mesh_address_type_get)
mesh/core/libmesh_core_nrf52832_xxAA.a(nrf_mesh.c.obj)
                              examples/pb_remote/server/CMakeFiles/pb_remote_server_nrf52832_xxAA_s132_3.1.0.dir/__/__/nrf_mesh_sdk.c.obj (nrf_mesh_init)
mesh/core/libmesh_core_nrf52832_xxAA.a(hal.c.obj)
                              examples/pb_remote/server/CMakeFiles/pb_remote_server_nrf52832_xxAA_s132_3.1.0.dir/__/__/__/mesh/access/src/nrf_mesh_node_config.c.obj (hal_device_reset)
mesh/core/libmesh_core_nrf52832_xxAA.a(timer_scheduler.c.obj)
                              mesh/core/libmesh_core_nrf52832_xxAA.a(nrf_mesh.c.obj) (timer_sch_init)
mesh/core/libmesh_core_nrf52832_xxAA.a(timer.c.obj)
                              mesh/core/libmesh_core_nrf52832_xxAA.a(timer_scheduler.c.obj) (timer_order_cb)
mesh/core/libmesh_core_nrf52832_xxAA.a(ticker.c.obj)
                              mesh/core/libmesh_core_nrf52832_xxAA.a(nrf_mesh.c.obj) (ticker_init)
mesh/core/libmesh_core_nrf52832_xxAA.a(rand.c.obj)
                              examples/pb_remote/server/CMakeFiles/pb_remote_server_nrf52832_xxAA_s132_3.1.0.dir/__/__/__/mesh/prov/src/prov_utils.c.obj (rand_hw_rng_get)
mesh/core/libmesh_core_nrf52832_xxAA.a(nrf_mesh_opt.c.obj)
                              examples/pb_remote/server/CMakeFiles/pb_remote_server_nrf52832_xxAA_s132_3.1.0.dir/__/__/__/models/config/src/config_server.c.obj (nrf_mesh_opt_set)
mesh/core/libmesh_core_nrf52832_xxAA.a(timeslot.c.obj)
                              mesh/core/libmesh_core_nrf52832_xxAA.a(nrf_mesh.c.obj) (timeslot_sd_event_handler)
mesh/core/libmesh_core_nrf52832_xxAA.a(bearer_event.c.obj)
                              mesh/core/libmesh_core_nrf52832_xxAA.a(nrf_mesh.c.obj) (bearer_event_init)
mesh/core/libmesh_core_nrf52832_xxAA.a(enc.c.obj)
                              examples/pb_remote/server/CMakeFiles/pb_remote_server_nrf52832_xxAA_s132_3.1.0.dir/__/__/__/mesh/prov/src/prov_utils.c.obj (enc_aes_cmac)
mesh/core/libmesh_core_nrf52832_xxAA.a(network.c.obj)
                              mesh/core/libmesh_core_nrf52832_xxAA.a(nrf_mesh.c.obj) (network_init)
mesh/core/libmesh_core_nrf52832_xxAA.a(nrf_mesh_keygen.c.obj)
                              examples/pb_remote/server/CMakeFiles/pb_remote_server_nrf52832_xxAA_s132_3.1.0.dir/__/__/__/mesh/access/src/device_state_manager.c.obj (nrf_mesh_keygen_aid)
mesh/core/libmesh_core_nrf52832_xxAA.a(list.c.obj)
                              mesh/core/libmesh_core_nrf52832_xxAA.a(event.c.obj) (list_add)
mesh/core/libmesh_core_nrf52832_xxAA.a(log.c.obj)
                              examples/pb_remote/server/CMakeFiles/pb_remote_server_nrf52832_xxAA_s132_3.1.0.dir/src/main.c.obj (log_callback_rtt)
mesh/core/libmesh_core_nrf52832_xxAA.a(flash_manager.c.obj)
                              mesh/core/libmesh_core_nrf52832_xxAA.a(nrf_mesh.c.obj) (flash_manager_init)
mesh/core/libmesh_core_nrf52832_xxAA.a(ccm_soft.c.obj)
                              mesh/core/libmesh_core_nrf52832_xxAA.a(enc.c.obj) (ccm_soft_encrypt)
mesh/core/libmesh_core_nrf52832_xxAA.a(beacon.c.obj)
                              mesh/core/libmesh_core_nrf52832_xxAA.a(nrf_mesh.c.obj) (beacon_init)
mesh/core/libmesh_core_nrf52832_xxAA.a(flash_manager_internal.c.obj)
                              mesh/core/libmesh_core_nrf52832_xxAA.a(flash_manager.c.obj) (entry_get)
mesh/core/libmesh_core_nrf52832_xxAA.a(core_tx.c.obj)
                              mesh/core/libmesh_core_nrf52832_xxAA.a(network.c.obj) (core_tx_packet_alloc)
mesh/core/libmesh_core_nrf52832_xxAA.a(heartbeat.c.obj)
                              mesh/core/libmesh_core_nrf52832_xxAA.a(network.c.obj) (heartbeat_on_feature_change_trigger)
mesh/core/libmesh_core_nrf52832_xxAA.a(net_beacon.c.obj)
                              mesh/core/libmesh_core_nrf52832_xxAA.a(network.c.obj) (net_beacon_init)
mesh/core/libmesh_core_nrf52832_xxAA.a(core_tx_adv.c.obj)
                              mesh/core/libmesh_core_nrf52832_xxAA.a(nrf_mesh.c.obj) (core_tx_adv_init)
mesh/core/libmesh_core_nrf52832_xxAA.a(ad_listener.c.obj)
                              mesh/core/libmesh_core_nrf52832_xxAA.a(nrf_mesh.c.obj) (ad_listener_subscribe)
mesh/core/libmesh_core_nrf52832_xxAA.a(ad_type_filter.c.obj)
                              mesh/core/libmesh_core_nrf52832_xxAA.a(ad_listener.c.obj) (bearer_adtype_filtering_set)
mesh/core/libmesh_core_nrf52832_xxAA.a(advertiser.c.obj)
                              mesh/core/libmesh_core_nrf52832_xxAA.a(nrf_mesh.c.obj) (advertiser_init)
mesh/core/libmesh_core_nrf52832_xxAA.a(bearer_handler.c.obj)
                              mesh/core/libmesh_core_nrf52832_xxAA.a(nrf_mesh.c.obj) (bearer_handler_init)
mesh/core/libmesh_core_nrf52832_xxAA.a(broadcast.c.obj)
                              mesh/core/libmesh_core_nrf52832_xxAA.a(advertiser.c.obj) (broadcast_send)
mesh/core/libmesh_core_nrf52832_xxAA.a(filter_engine.c.obj)
                              mesh/core/libmesh_core_nrf52832_xxAA.a(ad_type_filter.c.obj) (fen_filter_start)
mesh/core/libmesh_core_nrf52832_xxAA.a(radio_config.c.obj)
                              mesh/core/libmesh_core_nrf52832_xxAA.a(broadcast.c.obj) (radio_config_reset)
mesh/core/libmesh_core_nrf52832_xxAA.a(scanner.c.obj)
                              mesh/core/libmesh_core_nrf52832_xxAA.a(bearer_handler.c.obj) (scanner_radio_start)
mesh/core/libmesh_core_nrf52832_xxAA.a(internal_event.c.obj)
                              mesh/core/libmesh_core_nrf52832_xxAA.a(network.c.obj) (internal_event_push)
mesh/core/libmesh_core_nrf52832_xxAA.a(aes.c.obj)
                              mesh/core/libmesh_core_nrf52832_xxAA.a(enc.c.obj) (aes_encrypt)
mesh/core/libmesh_core_nrf52832_xxAA.a(msg_cache.c.obj)
                              mesh/core/libmesh_core_nrf52832_xxAA.a(nrf_mesh.c.obj) (msg_cache_init)
mesh/core/libmesh_core_nrf52832_xxAA.a(transport.c.obj)
                              mesh/core/libmesh_core_nrf52832_xxAA.a(nrf_mesh.c.obj) (transport_init)
mesh/core/libmesh_core_nrf52832_xxAA.a(packet_buffer.c.obj)
                              mesh/core/libmesh_core_nrf52832_xxAA.a(flash_manager.c.obj) (packet_buffer_init)
mesh/core/libmesh_core_nrf52832_xxAA.a(flash_manager_defrag.c.obj)
                              mesh/core/libmesh_core_nrf52832_xxAA.a(flash_manager.c.obj) (flash_manager_defrag_init)
mesh/core/libmesh_core_nrf52832_xxAA.a(packet_mgr.c.obj)
                              mesh/core/libmesh_core_nrf52832_xxAA.a(nrf_mesh.c.obj) (packet_mgr_init)
mesh/core/libmesh_core_nrf52832_xxAA.a(mesh_flash.c.obj)
                              mesh/core/libmesh_core_nrf52832_xxAA.a(flash_manager.c.obj) (mesh_flash_user_callback_set)
mesh/core/libmesh_core_nrf52832_xxAA.a(queue.c.obj)
                              mesh/core/libmesh_core_nrf52832_xxAA.a(bearer_event.c.obj) (queue_init)
mesh/core/libmesh_core_nrf52832_xxAA.a(aes_cmac.c.obj)
                              mesh/core/libmesh_core_nrf52832_xxAA.a(enc.c.obj) (aes_cmac)
mesh/core/libmesh_core_nrf52832_xxAA.a(msqueue.c.obj)
                              mesh/core/libmesh_core_nrf52832_xxAA.a(mesh_flash.c.obj) (msq_get)
mesh/core/libmesh_core_nrf52832_xxAA.a(replay_cache.c.obj)
                              mesh/core/libmesh_core_nrf52832_xxAA.a(transport.c.obj) (replay_cache_add)
mesh/core/libmesh_core_nrf52832_xxAA.a(nrf_flash.c.obj)
                              mesh/core/libmesh_core_nrf52832_xxAA.a(mesh_flash.c.obj) (nrf_flash_erase)
external/rtt/librtt_nrf52832_xxAA.a(SEGGER_RTT.c.obj)
                              mesh/core/libmesh_core_nrf52832_xxAA.a(log.c.obj) (SEGGER_RTT_Write)
external/rtt/librtt_nrf52832_xxAA.a(SEGGER_RTT_printf.c.obj)
                              mesh/core/libmesh_core_nrf52832_xxAA.a(log.c.obj) (SEGGER_RTT_vprintf)
external/micro-ecc/libuECC_nrf52832_xxAA.a(uECC.c.obj)
                              examples/pb_remote/server/CMakeFiles/pb_remote_server_nrf52832_xxAA_s132_3.1.0.dir/__/__/__/mesh/prov/src/prov_utils.c.obj (uECC_secp256r1)
c:/a/gcc_arm/6/bin/../lib/gcc/arm-none-eabi/6.3.1/../../../../arm-none-eabi/lib/thumb/v7e-m/fpv4-sp/hard\libg_nano.a(lib_a-exit.o)
                              c:/a/gcc_arm/6/bin/../lib/gcc/arm-none-eabi/6.3.1/../../../../arm-none-eabi/lib/thumb/v7e-m/fpv4-sp/hard/crt0.o (exit)
c:/a/gcc_arm/6/bin/../lib/gcc/arm-none-eabi/6.3.1/../../../../arm-none-eabi/lib/thumb/v7e-m/fpv4-sp/hard\libg_nano.a(lib_a-impure.o)
                              c:/a/gcc_arm/6/bin/../lib/gcc/arm-none-eabi/6.3.1/../../../../arm-none-eabi/lib/thumb/v7e-m/fpv4-sp/hard\libg_nano.a(lib_a-exit.o) (_global_impure_ptr)
c:/a/gcc_arm/6/bin/../lib/gcc/arm-none-eabi/6.3.1/../../../../arm-none-eabi/lib/thumb/v7e-m/fpv4-sp/hard\libg_nano.a(lib_a-init.o)
                              c:/a/gcc_arm/6/bin/../lib/gcc/arm-none-eabi/6.3.1/../../../../arm-none-eabi/lib/thumb/v7e-m/fpv4-sp/hard/crt0.o (__libc_init_array)
c:/a/gcc_arm/6/bin/../lib/gcc/arm-none-eabi/6.3.1/../../../../arm-none-eabi/lib/thumb/v7e-m/fpv4-sp/hard\libg_nano.a(lib_a-malloc.o)
                              mesh/core/libmesh_core_nrf52832_xxAA.a(transport.c.obj) (malloc)
c:/a/gcc_arm/6/bin/../lib/gcc/arm-none-eabi/6.3.1/../../../../arm-none-eabi/lib/thumb/v7e-m/fpv4-sp/hard\libg_nano.a(lib_a-memcmp.o)
                              examples/pb_remote/server/CMakeFiles/pb_remote_server_nrf52832_xxAA_s132_3.1.0.dir/__/__/__/mesh/prov/src/prov_utils.c.obj (memcmp)
c:/a/gcc_arm/6/bin/../lib/gcc/arm-none-eabi/6.3.1/../../../../arm-none-eabi/lib/thumb/v7e-m/fpv4-sp/hard\libg_nano.a(lib_a-memcpy-stub.o)
                              examples/pb_remote/server/CMakeFiles/pb_remote_server_nrf52832_xxAA_s132_3.1.0.dir/__/__/__/mesh/prov/src/prov_provisionee.c.obj (memcpy)
c:/a/gcc_arm/6/bin/../lib/gcc/arm-none-eabi/6.3.1/../../../../arm-none-eabi/lib/thumb/v7e-m/fpv4-sp/hard\libg_nano.a(lib_a-memset.o)
                              c:/a/gcc_arm/6/bin/../lib/gcc/arm-none-eabi/6.3.1/../../../../arm-none-eabi/lib/thumb/v7e-m/fpv4-sp/hard/crt0.o (memset)
c:/a/gcc_arm/6/bin/../lib/gcc/arm-none-eabi/6.3.1/../../../../arm-none-eabi/lib/thumb/v7e-m/fpv4-sp/hard\libg_nano.a(lib_a-nano-freer.o)
                              c:/a/gcc_arm/6/bin/../lib/gcc/arm-none-eabi/6.3.1/../../../../arm-none-eabi/lib/thumb/v7e-m/fpv4-sp/hard\libg_nano.a(lib_a-malloc.o) (_free_r)
c:/a/gcc_arm/6/bin/../lib/gcc/arm-none-eabi/6.3.1/../../../../arm-none-eabi/lib/thumb/v7e-m/fpv4-sp/hard\libg_nano.a(lib_a-nano-mallocr.o)
                              c:/a/gcc_arm/6/bin/../lib/gcc/arm-none-eabi/6.3.1/../../../../arm-none-eabi/lib/thumb/v7e-m/fpv4-sp/hard\libg_nano.a(lib_a-malloc.o) (_malloc_r)
c:/a/gcc_arm/6/bin/../lib/gcc/arm-none-eabi/6.3.1/../../../../arm-none-eabi/lib/thumb/v7e-m/fpv4-sp/hard\libg_nano.a(lib_a-sbrkr.o)
                              c:/a/gcc_arm/6/bin/../lib/gcc/arm-none-eabi/6.3.1/../../../../arm-none-eabi/lib/thumb/v7e-m/fpv4-sp/hard\libg_nano.a(lib_a-nano-mallocr.o) (_sbrk_r)
c:/a/gcc_arm/6/bin/../lib/gcc/arm-none-eabi/6.3.1/../../../../arm-none-eabi/lib/thumb/v7e-m/fpv4-sp/hard\libg_nano.a(lib_a-strcpy.o)
                              external/rtt/librtt_nrf52832_xxAA.a(SEGGER_RTT.c.obj) (strcpy)
c:/a/gcc_arm/6/bin/../lib/gcc/arm-none-eabi/6.3.1/../../../../arm-none-eabi/lib/thumb/v7e-m/fpv4-sp/hard\libg_nano.a(lib_a-strlen.o)
                              examples/pb_remote/server/CMakeFiles/pb_remote_server_nrf52832_xxAA_s132_3.1.0.dir/__/__/__/mesh/prov/src/prov_beacon.c.obj (strlen)
c:/a/gcc_arm/6/bin/../lib/gcc/arm-none-eabi/6.3.1/../../../../arm-none-eabi/lib/thumb/v7e-m/fpv4-sp/hard\libg_nano.a(lib_a-strrchr.o)
                              examples/pb_remote/server/CMakeFiles/pb_remote_server_nrf52832_xxAA_s132_3.1.0.dir/src/main.c.obj (strrchr)
c:/a/gcc_arm/6/bin/../lib/gcc/arm-none-eabi/6.3.1/../../../../arm-none-eabi/lib/thumb/v7e-m/fpv4-sp/hard\libg_nano.a(lib_a-mlock.o)
                              c:/a/gcc_arm/6/bin/../lib/gcc/arm-none-eabi/6.3.1/../../../../arm-none-eabi/lib/thumb/v7e-m/fpv4-sp/hard\libg_nano.a(lib_a-nano-freer.o) (__malloc_lock)
c:/a/gcc_arm/6/bin/../lib/gcc/arm-none-eabi/6.3.1/../../../../arm-none-eabi/lib/thumb/v7e-m/fpv4-sp/hard\libg_nano.a(lib_a-reent.o)
                              c:/a/gcc_arm/6/bin/../lib/gcc/arm-none-eabi/6.3.1/../../../../arm-none-eabi/lib/thumb/v7e-m/fpv4-sp/hard\libg_nano.a(lib_a-sbrkr.o) (errno)
c:/a/gcc_arm/6/bin/../lib/gcc/arm-none-eabi/6.3.1/../../../../arm-none-eabi/lib/thumb/v7e-m/fpv4-sp/hard\libg_nano.a(lib_a-strchr.o)
                              c:/a/gcc_arm/6/bin/../lib/gcc/arm-none-eabi/6.3.1/../../../../arm-none-eabi/lib/thumb/v7e-m/fpv4-sp/hard\libg_nano.a(lib_a-strrchr.o) (strchr)
c:/a/gcc_arm/6/bin/../lib/gcc/arm-none-eabi/6.3.1/../../../../arm-none-eabi/lib/thumb/v7e-m/fpv4-sp/hard\libnosys.a(sbrk.o)
                              c:/a/gcc_arm/6/bin/../lib/gcc/arm-none-eabi/6.3.1/../../../../arm-none-eabi/lib/thumb/v7e-m/fpv4-sp/hard\libg_nano.a(lib_a-sbrkr.o) (_sbrk)
c:/a/gcc_arm/6/bin/../lib/gcc/arm-none-eabi/6.3.1/../../../../arm-none-eabi/lib/thumb/v7e-m/fpv4-sp/hard\libnosys.a(_exit.o)
                              c:/a/gcc_arm/6/bin/../lib/gcc/arm-none-eabi/6.3.1/../../../../arm-none-eabi/lib/thumb/v7e-m/fpv4-sp/hard\libg_nano.a(lib_a-exit.o) (_exit)

Allocating common symbols
Common symbol       size              file

nrf_nvic_state      0xc               examples/pb_remote/server/CMakeFiles/pb_remote_server_nrf52832_xxAA_s132_3.1.0.dir/__/__/nrf_mesh_sdk.c.obj
errno               0x4               c:/a/gcc_arm/6/bin/../lib/gcc/arm-none-eabi/6.3.1/../../../../arm-none-eabi/lib/thumb/v7e-m/fpv4-sp/hard\libg_nano.a(lib_a-reent.o)
m_assertion_handler
                    0x4               mesh/core/libmesh_core_nrf52832_xxAA.a(nrf_mesh.c.obj)
_SEGGER_RTT         0x78              external/rtt/librtt_nrf52832_xxAA.a(SEGGER_RTT.c.obj)

Discarded input sections

 .text          0x00000000        0x0 c:/a/gcc_arm/6/bin/../lib/gcc/arm-none-eabi/6.3.1/thumb/v7e-m/fpv4-sp/hard/crti.o
 .data          0x00000000        0x0 c:/a/gcc_arm/6/bin/../lib/gcc/arm-none-eabi/6.3.1/thumb/v7e-m/fpv4-sp/hard/crti.o
 .bss           0x00000000        0x0 c:/a/gcc_arm/6/bin/../lib/gcc/arm-none-eabi/6.3.1/thumb/v7e-m/fpv4-sp/hard/crti.o
 .data          0x00000000        0x4 c:/a/gcc_arm/6/bin/../lib/gcc/arm-none-eabi/6.3.1/thumb/v7e-m/fpv4-sp/hard/crtbegin.o
 .data          0x00000000        0x0 c:/a/gcc_arm/6/bin/../lib/gcc/arm-none-eabi/6.3.1/../../../../arm-none-eabi/lib/thumb/v7e-m/fpv4-sp/hard/crt0.o
 .bss           0x00000000        0x0 c:/a/gcc_arm/6/bin/../lib/gcc/arm-none-eabi/6.3.1/../../../../arm-none-eabi/lib/thumb/v7e-m/fpv4-sp/hard/crt0.o
 .ARM.extab     0x00000000        0x0 c:/a/gcc_arm/6/bin/../lib/gcc/arm-none-eabi/6.3.1/../../../../arm-none-eabi/lib/thumb/v7e-m/fpv4-sp/hard/crt0.o
 .text          0x00000000        0x0 examples/pb_remote/server/CMakeFiles/pb_remote_server_nrf52832_xxAA_s132_3.1.0.dir/src/main.c.obj
 .data          0x00000000        0x0 examples/pb_remote/server/CMakeFiles/pb_remote_server_nrf52832_xxAA_s132_3.1.0.dir/src/main.c.obj
 .bss           0x00000000        0x0 examples/pb_remote/server/CMakeFiles/pb_remote_server_nrf52832_xxAA_s132_3.1.0.dir/src/main.c.obj
 .text          0x00000000        0x0 examples/pb_remote/server/CMakeFiles/pb_remote_server_nrf52832_xxAA_s132_3.1.0.dir/__/__/nrf_mesh_sdk.c.obj
 .data          0x00000000        0x0 examples/pb_remote/server/CMakeFiles/pb_remote_server_nrf52832_xxAA_s132_3.1.0.dir/__/__/nrf_mesh_sdk.c.obj
 .bss           0x00000000        0x0 examples/pb_remote/server/CMakeFiles/pb_remote_server_nrf52832_xxAA_s132_3.1.0.dir/__/__/nrf_mesh_sdk.c.obj
 .text.sd_softdevice_enable
                0x00000000        0x4 examples/pb_remote/server/CMakeFiles/pb_remote_server_nrf52832_xxAA_s132_3.1.0.dir/__/__/nrf_mesh_sdk.c.obj
 .text.sd_ble_enable
                0x00000000        0x4 examples/pb_remote/server/CMakeFiles/pb_remote_server_nrf52832_xxAA_s132_3.1.0.dir/__/__/nrf_mesh_sdk.c.obj
 .text.mesh_assert_handler
                0x00000000       0x70 examples/pb_remote/server/CMakeFiles/pb_remote_server_nrf52832_xxAA_s132_3.1.0.dir/__/__/nrf_mesh_sdk.c.obj
 .text.softdevice_assert_handler
                0x00000000       0x78 examples/pb_remote/server/CMakeFiles/pb_remote_server_nrf52832_xxAA_s132_3.1.0.dir/__/__/nrf_mesh_sdk.c.obj
 .text.mesh_softdevice_enable
                0x00000000      0x128 examples/pb_remote/server/CMakeFiles/pb_remote_server_nrf52832_xxAA_s132_3.1.0.dir/__/__/nrf_mesh_sdk.c.obj
 .text.mesh_softdevice_setup
                0x00000000       0x88 examples/pb_remote/server/CMakeFiles/pb_remote_server_nrf52832_xxAA_s132_3.1.0.dir/__/__/nrf_mesh_sdk.c.obj
 .text.mesh_core_setup
                0x00000000      0x15c examples/pb_remote/server/CMakeFiles/pb_remote_server_nrf52832_xxAA_s132_3.1.0.dir/__/__/nrf_mesh_sdk.c.obj
 .rodata.mesh_core_setup.str1.1
                0x00000000       0x47 examples/pb_remote/server/CMakeFiles/pb_remote_server_nrf52832_xxAA_s132_3.1.0.dir/__/__/nrf_mesh_sdk.c.obj
 .rodata.mesh_softdevice_enable.str1.1
                0x00000000       0x65 examples/pb_remote/server/CMakeFiles/pb_remote_server_nrf52832_xxAA_s132_3.1.0.dir/__/__/nrf_mesh_sdk.c.obj
 .rodata.softdevice_assert_handler.str1.1
                0x00000000       0x1d examples/pb_remote/server/CMakeFiles/pb_remote_server_nrf52832_xxAA_s132_3.1.0.dir/__/__/nrf_mesh_sdk.c.obj
 .text          0x00000000        0x0 examples/pb_remote/server/CMakeFiles/pb_remote_server_nrf52832_xxAA_s132_3.1.0.dir/__/__/common/src/simple_hal.c.obj
 .data          0x00000000        0x0 examples/pb_remote/server/CMakeFiles/pb_remote_server_nrf52832_xxAA_s132_3.1.0.dir/__/__/common/src/simple_hal.c.obj
 .bss           0x00000000        0x0 examples/pb_remote/server/CMakeFiles/pb_remote_server_nrf52832_xxAA_s132_3.1.0.dir/__/__/common/src/simple_hal.c.obj
 .text.hal_led_pin_get
                0x00000000       0x18 examples/pb_remote/server/CMakeFiles/pb_remote_server_nrf52832_xxAA_s132_3.1.0.dir/__/__/common/src/simple_hal.c.obj
 .text.hal_led_pin_set
                0x00000000       0x16 examples/pb_remote/server/CMakeFiles/pb_remote_server_nrf52832_xxAA_s132_3.1.0.dir/__/__/common/src/simple_hal.c.obj
 .text.hal_buttons_init
                0x00000000       0x50 examples/pb_remote/server/CMakeFiles/pb_remote_server_nrf52832_xxAA_s132_3.1.0.dir/__/__/common/src/simple_hal.c.obj
 .text          0x00000000        0x0 examples/pb_remote/server/CMakeFiles/pb_remote_server_nrf52832_xxAA_s132_3.1.0.dir/__/__/nrf_mesh_weak.c.obj
 .data          0x00000000        0x0 examples/pb_remote/server/CMakeFiles/pb_remote_server_nrf52832_xxAA_s132_3.1.0.dir/__/__/nrf_mesh_weak.c.obj
 .bss           0x00000000        0x0 examples/pb_remote/server/CMakeFiles/pb_remote_server_nrf52832_xxAA_s132_3.1.0.dir/__/__/nrf_mesh_weak.c.obj
 .text._weak_handler_ptr
                0x00000000        0x4 examples/pb_remote/server/CMakeFiles/pb_remote_server_nrf52832_xxAA_s132_3.1.0.dir/__/__/nrf_mesh_weak.c.obj
 .text          0x00000000        0x0 examples/pb_remote/server/CMakeFiles/pb_remote_server_nrf52832_xxAA_s132_3.1.0.dir/__/__/__/mesh/prov/src/prov_provisionee.c.obj
 .data          0x00000000        0x0 examples/pb_remote/server/CMakeFiles/pb_remote_server_nrf52832_xxAA_s132_3.1.0.dir/__/__/__/mesh/prov/src/prov_provisionee.c.obj
 .bss           0x00000000        0x0 examples/pb_remote/server/CMakeFiles/pb_remote_server_nrf52832_xxAA_s132_3.1.0.dir/__/__/__/mesh/prov/src/prov_provisionee.c.obj
 .text.prov_provisionee_shared_secret
                0x00000000       0x28 examples/pb_remote/server/CMakeFiles/pb_remote_server_nrf52832_xxAA_s132_3.1.0.dir/__/__/__/mesh/prov/src/prov_provisionee.c.obj
 .text          0x00000000        0x0 examples/pb_remote/server/CMakeFiles/pb_remote_server_nrf52832_xxAA_s132_3.1.0.dir/__/__/__/mesh/prov/src/nrf_mesh_prov.c.obj
 .data          0x00000000        0x0 examples/pb_remote/server/CMakeFiles/pb_remote_server_nrf52832_xxAA_s132_3.1.0.dir/__/__/__/mesh/prov/src/nrf_mesh_prov.c.obj
 .bss           0x00000000        0x0 examples/pb_remote/server/CMakeFiles/pb_remote_server_nrf52832_xxAA_s132_3.1.0.dir/__/__/__/mesh/prov/src/nrf_mesh_prov.c.obj
 .text.nrf_mesh_prov_provision
                0x00000000       0x4e examples/pb_remote/server/CMakeFiles/pb_remote_server_nrf52832_xxAA_s132_3.1.0.dir/__/__/__/mesh/prov/src/nrf_mesh_prov.c.obj
 .text.nrf_mesh_prov_oob_use
                0x00000000        0xe examples/pb_remote/server/CMakeFiles/pb_remote_server_nrf52832_xxAA_s132_3.1.0.dir/__/__/__/mesh/prov/src/nrf_mesh_prov.c.obj
 .text.nrf_mesh_prov_shared_secret_provide
                0x00000000        0xe examples/pb_remote/server/CMakeFiles/pb_remote_server_nrf52832_xxAA_s132_3.1.0.dir/__/__/__/mesh/prov/src/nrf_mesh_prov.c.obj
 .text.nrf_mesh_prov_pubkey_provide
                0x00000000       0x10 examples/pb_remote/server/CMakeFiles/pb_remote_server_nrf52832_xxAA_s132_3.1.0.dir/__/__/__/mesh/prov/src/nrf_mesh_prov.c.obj
 .text          0x00000000        0x0 examples/pb_remote/server/CMakeFiles/pb_remote_server_nrf52832_xxAA_s132_3.1.0.dir/__/__/__/mesh/prov/src/provisioning.c.obj
 .data          0x00000000        0x0 examples/pb_remote/server/CMakeFiles/pb_remote_server_nrf52832_xxAA_s132_3.1.0.dir/__/__/__/mesh/prov/src/provisioning.c.obj
 .bss           0x00000000        0x0 examples/pb_remote/server/CMakeFiles/pb_remote_server_nrf52832_xxAA_s132_3.1.0.dir/__/__/__/mesh/prov/src/provisioning.c.obj
 .text.prov_tx_invite
                0x00000000       0x28 examples/pb_remote/server/CMakeFiles/pb_remote_server_nrf52832_xxAA_s132_3.1.0.dir/__/__/__/mesh/prov/src/provisioning.c.obj
 .text.prov_tx_start
                0x00000000       0x20 examples/pb_remote/server/CMakeFiles/pb_remote_server_nrf52832_xxAA_s132_3.1.0.dir/__/__/__/mesh/prov/src/provisioning.c.obj
 .text.prov_tx_data
                0x00000000        0x6 examples/pb_remote/server/CMakeFiles/pb_remote_server_nrf52832_xxAA_s132_3.1.0.dir/__/__/__/mesh/prov/src/provisioning.c.obj
 .text.prov_tx  0x00000000        0x4 examples/pb_remote/server/CMakeFiles/pb_remote_server_nrf52832_xxAA_s132_3.1.0.dir/__/__/__/mesh/prov/src/provisioning.c.obj
 .text          0x00000000        0x0 examples/pb_remote/server/CMakeFiles/pb_remote_server_nrf52832_xxAA_s132_3.1.0.dir/__/__/__/mesh/prov/src/prov_beacon.c.obj
 .data          0x00000000        0x0 examples/pb_remote/server/CMakeFiles/pb_remote_server_nrf52832_xxAA_s132_3.1.0.dir/__/__/__/mesh/prov/src/prov_beacon.c.obj
 .bss           0x00000000        0x0 examples/pb_remote/server/CMakeFiles/pb_remote_server_nrf52832_xxAA_s132_3.1.0.dir/__/__/__/mesh/prov/src/prov_beacon.c.obj
 .text          0x00000000        0x0 examples/pb_remote/server/CMakeFiles/pb_remote_server_nrf52832_xxAA_s132_3.1.0.dir/__/__/__/mesh/prov/src/prov_utils.c.obj
 .data          0x00000000        0x0 examples/pb_remote/server/CMakeFiles/pb_remote_server_nrf52832_xxAA_s132_3.1.0.dir/__/__/__/mesh/prov/src/prov_utils.c.obj
 .bss           0x00000000        0x0 examples/pb_remote/server/CMakeFiles/pb_remote_server_nrf52832_xxAA_s132_3.1.0.dir/__/__/__/mesh/prov/src/prov_utils.c.obj
 .text          0x00000000        0x0 examples/pb_remote/server/CMakeFiles/pb_remote_server_nrf52832_xxAA_s132_3.1.0.dir/__/__/__/mesh/prov/src/prov_bearer_adv.c.obj
 .data          0x00000000        0x0 examples/pb_remote/server/CMakeFiles/pb_remote_server_nrf52832_xxAA_s132_3.1.0.dir/__/__/__/mesh/prov/src/prov_bearer_adv.c.obj
 .bss           0x00000000        0x0 examples/pb_remote/server/CMakeFiles/pb_remote_server_nrf52832_xxAA_s132_3.1.0.dir/__/__/__/mesh/prov/src/prov_bearer_adv.c.obj
 .text          0x00000000        0x0 examples/pb_remote/server/CMakeFiles/pb_remote_server_nrf52832_xxAA_s132_3.1.0.dir/__/__/__/models/pb_remote/src/pb_remote_server.c.obj
 .data          0x00000000        0x0 examples/pb_remote/server/CMakeFiles/pb_remote_server_nrf52832_xxAA_s132_3.1.0.dir/__/__/__/models/pb_remote/src/pb_remote_server.c.obj
 .bss           0x00000000        0x0 examples/pb_remote/server/CMakeFiles/pb_remote_server_nrf52832_xxAA_s132_3.1.0.dir/__/__/__/models/pb_remote/src/pb_remote_server.c.obj
 .text.pb_remote_server_disable
                0x00000000        0xa examples/pb_remote/server/CMakeFiles/pb_remote_server_nrf52832_xxAA_s132_3.1.0.dir/__/__/__/models/pb_remote/src/pb_remote_server.c.obj
 .text.pb_remote_server_return_to_scan_set
                0x00000000        0xe examples/pb_remote/server/CMakeFiles/pb_remote_server_nrf52832_xxAA_s132_3.1.0.dir/__/__/__/models/pb_remote/src/pb_remote_server.c.obj
 .text          0x00000000        0x0 examples/pb_remote/server/CMakeFiles/pb_remote_server_nrf52832_xxAA_s132_3.1.0.dir/__/__/__/mesh/access/src/access_publish.c.obj
 .data          0x00000000        0x0 examples/pb_remote/server/CMakeFiles/pb_remote_server_nrf52832_xxAA_s132_3.1.0.dir/__/__/__/mesh/access/src/access_publish.c.obj
 .bss           0x00000000        0x0 examples/pb_remote/server/CMakeFiles/pb_remote_server_nrf52832_xxAA_s132_3.1.0.dir/__/__/__/mesh/access/src/access_publish.c.obj
 .text          0x00000000        0x0 examples/pb_remote/server/CMakeFiles/pb_remote_server_nrf52832_xxAA_s132_3.1.0.dir/__/__/__/mesh/access/src/access.c.obj
 .data          0x00000000        0x0 examples/pb_remote/server/CMakeFiles/pb_remote_server_nrf52832_xxAA_s132_3.1.0.dir/__/__/__/mesh/access/src/access.c.obj
 .bss           0x00000000        0x0 examples/pb_remote/server/CMakeFiles/pb_remote_server_nrf52832_xxAA_s132_3.1.0.dir/__/__/__/mesh/access/src/access.c.obj
 .text.access_model_subscription_list_alloc
                0x00000000       0x54 examples/pb_remote/server/CMakeFiles/pb_remote_server_nrf52832_xxAA_s132_3.1.0.dir/__/__/__/mesh/access/src/access.c.obj
 .text.access_model_subscription_lists_share
                0x00000000       0x4c examples/pb_remote/server/CMakeFiles/pb_remote_server_nrf52832_xxAA_s132_3.1.0.dir/__/__/__/mesh/access/src/access.c.obj
 .text.access_element_location_set
                0x00000000       0x20 examples/pb_remote/server/CMakeFiles/pb_remote_server_nrf52832_xxAA_s132_3.1.0.dir/__/__/__/mesh/access/src/access.c.obj
 .text          0x00000000        0x0 examples/pb_remote/server/CMakeFiles/pb_remote_server_nrf52832_xxAA_s132_3.1.0.dir/__/__/__/mesh/access/src/access_reliable.c.obj
 .data          0x00000000        0x0 examples/pb_remote/server/CMakeFiles/pb_remote_server_nrf52832_xxAA_s132_3.1.0.dir/__/__/__/mesh/access/src/access_reliable.c.obj
 .bss           0x00000000        0x0 examples/pb_remote/server/CMakeFiles/pb_remote_server_nrf52832_xxAA_s132_3.1.0.dir/__/__/__/mesh/access/src/access_reliable.c.obj
 .text          0x00000000        0x0 examples/pb_remote/server/CMakeFiles/pb_remote_server_nrf52832_xxAA_s132_3.1.0.dir/__/__/__/mesh/access/src/device_state_manager.c.obj
 .data          0x00000000        0x0 examples/pb_remote/server/CMakeFiles/pb_remote_server_nrf52832_xxAA_s132_3.1.0.dir/__/__/__/mesh/access/src/device_state_manager.c.obj
 .bss           0x00000000        0x0 examples/pb_remote/server/CMakeFiles/pb_remote_server_nrf52832_xxAA_s132_3.1.0.dir/__/__/__/mesh/access/src/device_state_manager.c.obj
 .text.dsm_has_unflashed_data
                0x00000000       0x24 examples/pb_remote/server/CMakeFiles/pb_remote_server_nrf52832_xxAA_s132_3.1.0.dir/__/__/__/mesh/access/src/device_state_manager.c.obj
 .text.dsm_address_publish_remove
                0x00000000       0x40 examples/pb_remote/server/CMakeFiles/pb_remote_server_nrf52832_xxAA_s132_3.1.0.dir/__/__/__/mesh/access/src/device_state_manager.c.obj
 .text.dsm_address_subscription_count_get
                0x00000000       0x58 examples/pb_remote/server/CMakeFiles/pb_remote_server_nrf52832_xxAA_s132_3.1.0.dir/__/__/__/mesh/access/src/device_state_manager.c.obj
 .text.dsm_address_get_all
                0x00000000       0x64 examples/pb_remote/server/CMakeFiles/pb_remote_server_nrf52832_xxAA_s132_3.1.0.dir/__/__/__/mesh/access/src/device_state_manager.c.obj
 .text.dsm_subnet_handle_get
                0x00000000        0xc examples/pb_remote/server/CMakeFiles/pb_remote_server_nrf52832_xxAA_s132_3.1.0.dir/__/__/__/mesh/access/src/device_state_manager.c.obj
 .text.dsm_subnet_handle_to_netkey_index
                0x00000000       0x30 examples/pb_remote/server/CMakeFiles/pb_remote_server_nrf52832_xxAA_s132_3.1.0.dir/__/__/__/mesh/access/src/device_state_manager.c.obj
 .text.dsm_devkey_handle_get
                0x00000000       0x34 examples/pb_remote/server/CMakeFiles/pb_remote_server_nrf52832_xxAA_s132_3.1.0.dir/__/__/__/mesh/access/src/device_state_manager.c.obj
 .text.dsm_beacon_secmat_get
                0x00000000       0x2c examples/pb_remote/server/CMakeFiles/pb_remote_server_nrf52832_xxAA_s132_3.1.0.dir/__/__/__/mesh/access/src/device_state_manager.c.obj
 .text.dsm_proxy_identity_get
                0x00000000        0x4 examples/pb_remote/server/CMakeFiles/pb_remote_server_nrf52832_xxAA_s132_3.1.0.dir/__/__/__/mesh/access/src/device_state_manager.c.obj
 .text          0x00000000        0x0 examples/pb_remote/server/CMakeFiles/pb_remote_server_nrf52832_xxAA_s132_3.1.0.dir/__/__/__/mesh/access/src/nrf_mesh_node_config.c.obj
 .data          0x00000000        0x0 examples/pb_remote/server/CMakeFiles/pb_remote_server_nrf52832_xxAA_s132_3.1.0.dir/__/__/__/mesh/access/src/nrf_mesh_node_config.c.obj
 .bss           0x00000000        0x0 examples/pb_remote/server/CMakeFiles/pb_remote_server_nrf52832_xxAA_s132_3.1.0.dir/__/__/__/mesh/access/src/nrf_mesh_node_config.c.obj
 .text.nrf_mesh_node_config_clear
                0x00000000       0x22 examples/pb_remote/server/CMakeFiles/pb_remote_server_nrf52832_xxAA_s132_3.1.0.dir/__/__/__/mesh/access/src/nrf_mesh_node_config.c.obj
 .text          0x00000000        0x0 examples/pb_remote/server/CMakeFiles/pb_remote_server_nrf52832_xxAA_s132_3.1.0.dir/__/__/__/models/config/src/composition_data.c.obj
 .data          0x00000000        0x0 examples/pb_remote/server/CMakeFiles/pb_remote_server_nrf52832_xxAA_s132_3.1.0.dir/__/__/__/models/config/src/composition_data.c.obj
 .bss           0x00000000        0x0 examples/pb_remote/server/CMakeFiles/pb_remote_server_nrf52832_xxAA_s132_3.1.0.dir/__/__/__/models/config/src/composition_data.c.obj
 .text          0x00000000        0x0 examples/pb_remote/server/CMakeFiles/pb_remote_server_nrf52832_xxAA_s132_3.1.0.dir/__/__/__/models/config/src/config_server.c.obj
 .data          0x00000000        0x0 examples/pb_remote/server/CMakeFiles/pb_remote_server_nrf52832_xxAA_s132_3.1.0.dir/__/__/__/models/config/src/config_server.c.obj
 .bss           0x00000000        0x0 examples/pb_remote/server/CMakeFiles/pb_remote_server_nrf52832_xxAA_s132_3.1.0.dir/__/__/__/models/config/src/config_server.c.obj
 .text          0x00000000        0x0 examples/pb_remote/server/CMakeFiles/pb_remote_server_nrf52832_xxAA_s132_3.1.0.dir/__/__/__/models/config/src/packed_index_list.c.obj
 .data          0x00000000        0x0 examples/pb_remote/server/CMakeFiles/pb_remote_server_nrf52832_xxAA_s132_3.1.0.dir/__/__/__/models/config/src/packed_index_list.c.obj
 .bss           0x00000000        0x0 examples/pb_remote/server/CMakeFiles/pb_remote_server_nrf52832_xxAA_s132_3.1.0.dir/__/__/__/models/config/src/packed_index_list.c.obj
 .text          0x00000000        0x0 examples/pb_remote/server/CMakeFiles/pb_remote_server_nrf52832_xxAA_s132_3.1.0.dir/__/__/__/models/health/src/health_server.c.obj
 .data          0x00000000        0x0 examples/pb_remote/server/CMakeFiles/pb_remote_server_nrf52832_xxAA_s132_3.1.0.dir/__/__/__/models/health/src/health_server.c.obj
 .bss           0x00000000        0x0 examples/pb_remote/server/CMakeFiles/pb_remote_server_nrf52832_xxAA_s132_3.1.0.dir/__/__/__/models/health/src/health_server.c.obj
 .text.health_server_fault_is_set
                0x00000000       0x1c examples/pb_remote/server/CMakeFiles/pb_remote_server_nrf52832_xxAA_s132_3.1.0.dir/__/__/__/models/health/src/health_server.c.obj
 .text.health_server_fault_count_get
                0x00000000        0xc examples/pb_remote/server/CMakeFiles/pb_remote_server_nrf52832_xxAA_s132_3.1.0.dir/__/__/__/models/health/src/health_server.c.obj
 .text.health_server_fault_register
                0x00000000       0xe8 examples/pb_remote/server/CMakeFiles/pb_remote_server_nrf52832_xxAA_s132_3.1.0.dir/__/__/__/models/health/src/health_server.c.obj
 .text.health_server_fault_clear
                0x00000000       0x54 examples/pb_remote/server/CMakeFiles/pb_remote_server_nrf52832_xxAA_s132_3.1.0.dir/__/__/__/models/health/src/health_server.c.obj
 .text.health_server_attention_get
                0x00000000        0x6 examples/pb_remote/server/CMakeFiles/pb_remote_server_nrf52832_xxAA_s132_3.1.0.dir/__/__/__/models/health/src/health_server.c.obj
 .text.health_server_attention_set
                0x00000000        0x4 examples/pb_remote/server/CMakeFiles/pb_remote_server_nrf52832_xxAA_s132_3.1.0.dir/__/__/__/models/health/src/health_server.c.obj
 .text          0x00000000        0x0 examples/pb_remote/server/CMakeFiles/pb_remote_server_nrf52832_xxAA_s132_3.1.0.dir/__/__/__/external/nRF5_SDK_14.2.0_17b948a/components/toolchain/system_nrf52.c.obj
 .data          0x00000000        0x0 examples/pb_remote/server/CMakeFiles/pb_remote_server_nrf52832_xxAA_s132_3.1.0.dir/__/__/__/external/nRF5_SDK_14.2.0_17b948a/components/toolchain/system_nrf52.c.obj
 .bss           0x00000000        0x0 examples/pb_remote/server/CMakeFiles/pb_remote_server_nrf52832_xxAA_s132_3.1.0.dir/__/__/__/external/nRF5_SDK_14.2.0_17b948a/components/toolchain/system_nrf52.c.obj
 .text.SystemCoreClockUpdate
                0x00000000       0x10 examples/pb_remote/server/CMakeFiles/pb_remote_server_nrf52832_xxAA_s132_3.1.0.dir/__/__/__/external/nRF5_SDK_14.2.0_17b948a/components/toolchain/system_nrf52.c.obj
 .data          0x00000000        0x0 examples/pb_remote/server/CMakeFiles/pb_remote_server_nrf52832_xxAA_s132_3.1.0.dir/__/__/__/external/nRF5_SDK_14.2.0_17b948a/components/toolchain/gcc/gcc_startup_nrf52.S.obj
 .bss           0x00000000        0x0 examples/pb_remote/server/CMakeFiles/pb_remote_server_nrf52832_xxAA_s132_3.1.0.dir/__/__/__/external/nRF5_SDK_14.2.0_17b948a/components/toolchain/gcc/gcc_startup_nrf52.S.obj
 .text          0x00000000        0x0 mesh/core/libmesh_core_nrf52832_xxAA.a(nrf_mesh_configure.c.obj)
 .data          0x00000000        0x0 mesh/core/libmesh_core_nrf52832_xxAA.a(nrf_mesh_configure.c.obj)
 .bss           0x00000000        0x0 mesh/core/libmesh_core_nrf52832_xxAA.a(nrf_mesh_configure.c.obj)
 .text.nrf_mesh_configure_device_uuid_set
                0x00000000       0x10 mesh/core/libmesh_core_nrf52832_xxAA.a(nrf_mesh_configure.c.obj)
 .text          0x00000000        0x0 mesh/core/libmesh_core_nrf52832_xxAA.a(event.c.obj)
 .data          0x00000000        0x0 mesh/core/libmesh_core_nrf52832_xxAA.a(event.c.obj)
 .bss           0x00000000        0x0 mesh/core/libmesh_core_nrf52832_xxAA.a(event.c.obj)
 .text          0x00000000        0x0 mesh/core/libmesh_core_nrf52832_xxAA.a(fifo.c.obj)
 .data          0x00000000        0x0 mesh/core/libmesh_core_nrf52832_xxAA.a(fifo.c.obj)
 .bss           0x00000000        0x0 mesh/core/libmesh_core_nrf52832_xxAA.a(fifo.c.obj)
 .text.fifo_peek_at
                0x00000000       0x50 mesh/core/libmesh_core_nrf52832_xxAA.a(fifo.c.obj)
 .text.fifo_peek
                0x00000000        0x6 mesh/core/libmesh_core_nrf52832_xxAA.a(fifo.c.obj)
 .text.fifo_is_full
                0x00000000       0x10 mesh/core/libmesh_core_nrf52832_xxAA.a(fifo.c.obj)
 .text.fifo_is_empty
                0x00000000        0xc mesh/core/libmesh_core_nrf52832_xxAA.a(fifo.c.obj)
 .text          0x00000000        0x0 mesh/core/libmesh_core_nrf52832_xxAA.a(net_state.c.obj)
 .data          0x00000000        0x0 mesh/core/libmesh_core_nrf52832_xxAA.a(net_state.c.obj)
 .bss           0x00000000        0x0 mesh/core/libmesh_core_nrf52832_xxAA.a(net_state.c.obj)
 .text.net_state_iv_update_test_mode_set
                0x00000000        0xc mesh/core/libmesh_core_nrf52832_xxAA.a(net_state.c.obj)
 .text          0x00000000        0x0 mesh/core/libmesh_core_nrf52832_xxAA.a(nrf_mesh_utils.c.obj)
 .data          0x00000000        0x0 mesh/core/libmesh_core_nrf52832_xxAA.a(nrf_mesh_utils.c.obj)
 .bss           0x00000000        0x0 mesh/core/libmesh_core_nrf52832_xxAA.a(nrf_mesh_utils.c.obj)
 .text.nrf_mesh_rand_get
                0x00000000       0x10 mesh/core/libmesh_core_nrf52832_xxAA.a(nrf_mesh_utils.c.obj)
 .text.nrf_mesh_gap_address_type_get
                0x00000000       0x3c mesh/core/libmesh_core_nrf52832_xxAA.a(nrf_mesh_utils.c.obj)
 .text          0x00000000        0x0 mesh/core/libmesh_core_nrf52832_xxAA.a(nrf_mesh.c.obj)
 .data          0x00000000        0x0 mesh/core/libmesh_core_nrf52832_xxAA.a(nrf_mesh.c.obj)
 .bss           0x00000000        0x0 mesh/core/libmesh_core_nrf52832_xxAA.a(nrf_mesh.c.obj)
 .text.nrf_mesh_disable
                0x00000000       0x28 mesh/core/libmesh_core_nrf52832_xxAA.a(nrf_mesh.c.obj)
 .text.nrf_mesh_process
                0x00000000        0x4 mesh/core/libmesh_core_nrf52832_xxAA.a(nrf_mesh.c.obj)
 .text.nrf_mesh_evt_handler_remove
                0x00000000        0x4 mesh/core/libmesh_core_nrf52832_xxAA.a(nrf_mesh.c.obj)
 .text.nrf_mesh_rx_cb_set
                0x00000000        0xc mesh/core/libmesh_core_nrf52832_xxAA.a(nrf_mesh.c.obj)
 .text.nrf_mesh_rx_cb_clear
                0x00000000        0xc mesh/core/libmesh_core_nrf52832_xxAA.a(nrf_mesh.c.obj)
 .text          0x00000000        0x0 mesh/core/libmesh_core_nrf52832_xxAA.a(hal.c.obj)
 .data          0x00000000        0x0 mesh/core/libmesh_core_nrf52832_xxAA.a(hal.c.obj)
 .bss           0x00000000        0x0 mesh/core/libmesh_core_nrf52832_xxAA.a(hal.c.obj)
 .text          0x00000000        0x0 mesh/core/libmesh_core_nrf52832_xxAA.a(timer_scheduler.c.obj)
 .data          0x00000000        0x0 mesh/core/libmesh_core_nrf52832_xxAA.a(timer_scheduler.c.obj)
 .bss           0x00000000        0x0 mesh/core/libmesh_core_nrf52832_xxAA.a(timer_scheduler.c.obj)
 .text          0x00000000        0x0 mesh/core/libmesh_core_nrf52832_xxAA.a(timer.c.obj)
 .data          0x00000000        0x0 mesh/core/libmesh_core_nrf52832_xxAA.a(timer.c.obj)
 .bss           0x00000000        0x0 mesh/core/libmesh_core_nrf52832_xxAA.a(timer.c.obj)
 .text.timer_order_cb_ppi
                0x00000000       0xc4 mesh/core/libmesh_core_nrf52832_xxAA.a(timer.c.obj)
 .text.timer_order_ppi
                0x00000000       0xc0 mesh/core/libmesh_core_nrf52832_xxAA.a(timer.c.obj)
 .text.timer_abort
                0x00000000       0x78 mesh/core/libmesh_core_nrf52832_xxAA.a(timer.c.obj)
 .text          0x00000000        0x0 mesh/core/libmesh_core_nrf52832_xxAA.a(ticker.c.obj)
 .data          0x00000000        0x0 mesh/core/libmesh_core_nrf52832_xxAA.a(ticker.c.obj)
 .bss           0x00000000        0x0 mesh/core/libmesh_core_nrf52832_xxAA.a(ticker.c.obj)
 .text.ticker_get
                0x00000000        0xc mesh/core/libmesh_core_nrf52832_xxAA.a(ticker.c.obj)
 .text          0x00000000        0x0 mesh/core/libmesh_core_nrf52832_xxAA.a(rand.c.obj)
 .data          0x00000000        0x0 mesh/core/libmesh_core_nrf52832_xxAA.a(rand.c.obj)
 .bss           0x00000000        0x0 mesh/core/libmesh_core_nrf52832_xxAA.a(rand.c.obj)
 .text          0x00000000        0x0 mesh/core/libmesh_core_nrf52832_xxAA.a(nrf_mesh_opt.c.obj)
 .data          0x00000000        0x0 mesh/core/libmesh_core_nrf52832_xxAA.a(nrf_mesh_opt.c.obj)
 .bss           0x00000000        0x0 mesh/core/libmesh_core_nrf52832_xxAA.a(nrf_mesh_opt.c.obj)
 .text          0x00000000        0x0 mesh/core/libmesh_core_nrf52832_xxAA.a(timeslot.c.obj)
 .data          0x00000000        0x0 mesh/core/libmesh_core_nrf52832_xxAA.a(timeslot.c.obj)
 .bss           0x00000000        0x0 mesh/core/libmesh_core_nrf52832_xxAA.a(timeslot.c.obj)
 .text.timeslot_end_time_get
                0x00000000       0x10 mesh/core/libmesh_core_nrf52832_xxAA.a(timeslot.c.obj)
 .text.timeslot_is_in_ts
                0x00000000        0xc mesh/core/libmesh_core_nrf52832_xxAA.a(timeslot.c.obj)
 .text.timeslot_restart
                0x00000000       0x10 mesh/core/libmesh_core_nrf52832_xxAA.a(timeslot.c.obj)
 .text          0x00000000        0x0 mesh/core/libmesh_core_nrf52832_xxAA.a(bearer_event.c.obj)
 .data          0x00000000        0x0 mesh/core/libmesh_core_nrf52832_xxAA.a(bearer_event.c.obj)
 .bss           0x00000000        0x0 mesh/core/libmesh_core_nrf52832_xxAA.a(bearer_event.c.obj)
 .text.bearer_event_generic_post
                0x00000000       0x30 mesh/core/libmesh_core_nrf52832_xxAA.a(bearer_event.c.obj)
 .text.bearer_event_timer_sch_post
                0x00000000       0x34 mesh/core/libmesh_core_nrf52832_xxAA.a(bearer_event.c.obj)
 .text.bearer_event_in_correct_irq_priority
                0x00000000       0x48 mesh/core/libmesh_core_nrf52832_xxAA.a(bearer_event.c.obj)
 .text          0x00000000        0x0 mesh/core/libmesh_core_nrf52832_xxAA.a(enc.c.obj)
 .data          0x00000000        0x0 mesh/core/libmesh_core_nrf52832_xxAA.a(enc.c.obj)
 .bss           0x00000000        0x0 mesh/core/libmesh_core_nrf52832_xxAA.a(enc.c.obj)
 .text.enc_key_generate
                0x00000000        0x6 mesh/core/libmesh_core_nrf52832_xxAA.a(enc.c.obj)
 .text          0x00000000        0x0 mesh/core/libmesh_core_nrf52832_xxAA.a(network.c.obj)
 .data          0x00000000        0x0 mesh/core/libmesh_core_nrf52832_xxAA.a(network.c.obj)
 .bss           0x00000000        0x0 mesh/core/libmesh_core_nrf52832_xxAA.a(network.c.obj)
 .text.network_packet_discard
                0x00000000       0x3c mesh/core/libmesh_core_nrf52832_xxAA.a(network.c.obj)
 .text          0x00000000        0x0 mesh/core/libmesh_core_nrf52832_xxAA.a(nrf_mesh_keygen.c.obj)
 .data          0x00000000        0x0 mesh/core/libmesh_core_nrf52832_xxAA.a(nrf_mesh_keygen.c.obj)
 .bss           0x00000000        0x0 mesh/core/libmesh_core_nrf52832_xxAA.a(nrf_mesh_keygen.c.obj)
 .text.nrf_mesh_keygen_identitykey
                0x00000000       0x4c mesh/core/libmesh_core_nrf52832_xxAA.a(nrf_mesh_keygen.c.obj)
 .text          0x00000000        0x0 mesh/core/libmesh_core_nrf52832_xxAA.a(list.c.obj)
 .data          0x00000000        0x0 mesh/core/libmesh_core_nrf52832_xxAA.a(list.c.obj)
 .bss           0x00000000        0x0 mesh/core/libmesh_core_nrf52832_xxAA.a(list.c.obj)
 .text.list_size_get
                0x00000000       0x12 mesh/core/libmesh_core_nrf52832_xxAA.a(list.c.obj)
 .text.list_sorted_add
                0x00000000       0x90 mesh/core/libmesh_core_nrf52832_xxAA.a(list.c.obj)
 .text          0x00000000        0x0 mesh/core/libmesh_core_nrf52832_xxAA.a(log.c.obj)
 .data          0x00000000        0x0 mesh/core/libmesh_core_nrf52832_xxAA.a(log.c.obj)
 .bss           0x00000000        0x0 mesh/core/libmesh_core_nrf52832_xxAA.a(log.c.obj)
 .text.log_callback_logview
                0x00000000       0x38 mesh/core/libmesh_core_nrf52832_xxAA.a(log.c.obj)
 .text.log_set_callback
                0x00000000        0xc mesh/core/libmesh_core_nrf52832_xxAA.a(log.c.obj)
 .rodata.log_callback_logview.str1.1
                0x00000000        0xf mesh/core/libmesh_core_nrf52832_xxAA.a(log.c.obj)
 .text          0x00000000        0x0 mesh/core/libmesh_core_nrf52832_xxAA.a(flash_manager.c.obj)
 .data          0x00000000        0x0 mesh/core/libmesh_core_nrf52832_xxAA.a(flash_manager.c.obj)
 .bss           0x00000000        0x0 mesh/core/libmesh_core_nrf52832_xxAA.a(flash_manager.c.obj)
 .text.flash_manager_entry_count_get
                0x00000000       0x5c mesh/core/libmesh_core_nrf52832_xxAA.a(flash_manager.c.obj)
 .text.flash_manager_entry_release
                0x00000000       0x12 mesh/core/libmesh_core_nrf52832_xxAA.a(flash_manager.c.obj)
 .text          0x00000000        0x0 mesh/core/libmesh_core_nrf52832_xxAA.a(ccm_soft.c.obj)
 .data          0x00000000        0x0 mesh/core/libmesh_core_nrf52832_xxAA.a(ccm_soft.c.obj)
 .bss           0x00000000        0x0 mesh/core/libmesh_core_nrf52832_xxAA.a(ccm_soft.c.obj)
 .text          0x00000000        0x0 mesh/core/libmesh_core_nrf52832_xxAA.a(beacon.c.obj)
 .data          0x00000000        0x0 mesh/core/libmesh_core_nrf52832_xxAA.a(beacon.c.obj)
 .bss           0x00000000        0x0 mesh/core/libmesh_core_nrf52832_xxAA.a(beacon.c.obj)
 .text          0x00000000        0x0 mesh/core/libmesh_core_nrf52832_xxAA.a(flash_manager_internal.c.obj)
 .data          0x00000000        0x0 mesh/core/libmesh_core_nrf52832_xxAA.a(flash_manager_internal.c.obj)
 .bss           0x00000000        0x0 mesh/core/libmesh_core_nrf52832_xxAA.a(flash_manager_internal.c.obj)
 .text          0x00000000        0x0 mesh/core/libmesh_core_nrf52832_xxAA.a(core_tx.c.obj)
 .data          0x00000000        0x0 mesh/core/libmesh_core_nrf52832_xxAA.a(core_tx.c.obj)
 .bss           0x00000000        0x0 mesh/core/libmesh_core_nrf52832_xxAA.a(core_tx.c.obj)
 .text          0x00000000        0x0 mesh/core/libmesh_core_nrf52832_xxAA.a(heartbeat.c.obj)
 .data          0x00000000        0x0 mesh/core/libmesh_core_nrf52832_xxAA.a(heartbeat.c.obj)
 .bss           0x00000000        0x0 mesh/core/libmesh_core_nrf52832_xxAA.a(heartbeat.c.obj)
 .text          0x00000000        0x0 mesh/core/libmesh_core_nrf52832_xxAA.a(net_beacon.c.obj)
 .data          0x00000000        0x0 mesh/core/libmesh_core_nrf52832_xxAA.a(net_beacon.c.obj)
 .bss           0x00000000        0x0 mesh/core/libmesh_core_nrf52832_xxAA.a(net_beacon.c.obj)
 .text          0x00000000        0x0 mesh/core/libmesh_core_nrf52832_xxAA.a(core_tx_adv.c.obj)
 .data          0x00000000        0x0 mesh/core/libmesh_core_nrf52832_xxAA.a(core_tx_adv.c.obj)
 .bss           0x00000000        0x0 mesh/core/libmesh_core_nrf52832_xxAA.a(core_tx_adv.c.obj)
 .text.core_tx_adv_address_set
                0x00000000       0x34 mesh/core/libmesh_core_nrf52832_xxAA.a(core_tx_adv.c.obj)
 .text          0x00000000        0x0 mesh/core/libmesh_core_nrf52832_xxAA.a(ad_listener.c.obj)
 .data          0x00000000        0x0 mesh/core/libmesh_core_nrf52832_xxAA.a(ad_listener.c.obj)
 .bss           0x00000000        0x0 mesh/core/libmesh_core_nrf52832_xxAA.a(ad_listener.c.obj)
 .text.ad_listener_unsubscribe
                0x00000000       0x6c mesh/core/libmesh_core_nrf52832_xxAA.a(ad_listener.c.obj)
 .text          0x00000000        0x0 mesh/core/libmesh_core_nrf52832_xxAA.a(ad_type_filter.c.obj)
 .data          0x00000000        0x0 mesh/core/libmesh_core_nrf52832_xxAA.a(ad_type_filter.c.obj)
 .bss           0x00000000        0x0 mesh/core/libmesh_core_nrf52832_xxAA.a(ad_type_filter.c.obj)
 .text.bearer_adtype_remove
                0x00000000       0x20 mesh/core/libmesh_core_nrf52832_xxAA.a(ad_type_filter.c.obj)
 .text.bearer_adtype_clear
                0x00000000       0x10 mesh/core/libmesh_core_nrf52832_xxAA.a(ad_type_filter.c.obj)
 .text.bearer_invalid_length_amount_get
                0x00000000        0xc mesh/core/libmesh_core_nrf52832_xxAA.a(ad_type_filter.c.obj)
 .text.bearer_adtype_filtered_amount_get
                0x00000000        0xc mesh/core/libmesh_core_nrf52832_xxAA.a(ad_type_filter.c.obj)
 .text          0x00000000        0x0 mesh/core/libmesh_core_nrf52832_xxAA.a(advertiser.c.obj)
 .data          0x00000000        0x0 mesh/core/libmesh_core_nrf52832_xxAA.a(advertiser.c.obj)
 .bss           0x00000000        0x0 mesh/core/libmesh_core_nrf52832_xxAA.a(advertiser.c.obj)
 .text.advertiser_disable
                0x00000000        0xa mesh/core/libmesh_core_nrf52832_xxAA.a(advertiser.c.obj)
 .text.advertiser_channels_set
                0x00000000       0x84 mesh/core/libmesh_core_nrf52832_xxAA.a(advertiser.c.obj)
 .text.advertiser_address_set
                0x00000000       0x50 mesh/core/libmesh_core_nrf52832_xxAA.a(advertiser.c.obj)
 .text.advertiser_config_set
                0x00000000       0x44 mesh/core/libmesh_core_nrf52832_xxAA.a(advertiser.c.obj)
 .text.advertiser_config_get
                0x00000000       0x2c mesh/core/libmesh_core_nrf52832_xxAA.a(advertiser.c.obj)
 .text          0x00000000        0x0 mesh/core/libmesh_core_nrf52832_xxAA.a(bearer_handler.c.obj)
 .data          0x00000000        0x0 mesh/core/libmesh_core_nrf52832_xxAA.a(bearer_handler.c.obj)
 .bss           0x00000000        0x0 mesh/core/libmesh_core_nrf52832_xxAA.a(bearer_handler.c.obj)
 .text.bearer_handler_stop
                0x00000000       0x20 mesh/core/libmesh_core_nrf52832_xxAA.a(bearer_handler.c.obj)
 .text.bearer_handler_action_fire
                0x00000000       0xbc mesh/core/libmesh_core_nrf52832_xxAA.a(bearer_handler.c.obj)
 .text          0x00000000        0x0 mesh/core/libmesh_core_nrf52832_xxAA.a(broadcast.c.obj)
 .data          0x00000000        0x0 mesh/core/libmesh_core_nrf52832_xxAA.a(broadcast.c.obj)
 .bss           0x00000000        0x0 mesh/core/libmesh_core_nrf52832_xxAA.a(broadcast.c.obj)
 .text          0x00000000        0x0 mesh/core/libmesh_core_nrf52832_xxAA.a(filter_engine.c.obj)
 .data          0x00000000        0x0 mesh/core/libmesh_core_nrf52832_xxAA.a(filter_engine.c.obj)
 .bss           0x00000000        0x0 mesh/core/libmesh_core_nrf52832_xxAA.a(filter_engine.c.obj)
 .text.fen_accepted_amount_get
                0x00000000        0xc mesh/core/libmesh_core_nrf52832_xxAA.a(filter_engine.c.obj)
 .text          0x00000000        0x0 mesh/core/libmesh_core_nrf52832_xxAA.a(radio_config.c.obj)
 .data          0x00000000        0x0 mesh/core/libmesh_core_nrf52832_xxAA.a(radio_config.c.obj)
 .bss           0x00000000        0x0 mesh/core/libmesh_core_nrf52832_xxAA.a(radio_config.c.obj)
 .text.radio_config_access_addr_get
                0x00000000       0x64 mesh/core/libmesh_core_nrf52832_xxAA.a(radio_config.c.obj)
 .text          0x00000000        0x0 mesh/core/libmesh_core_nrf52832_xxAA.a(scanner.c.obj)
 .data          0x00000000        0x0 mesh/core/libmesh_core_nrf52832_xxAA.a(scanner.c.obj)
 .bss           0x00000000        0x0 mesh/core/libmesh_core_nrf52832_xxAA.a(scanner.c.obj)
 .text.scanner_rx_callback_set
                0x00000000       0x2c mesh/core/libmesh_core_nrf52832_xxAA.a(scanner.c.obj)
 .text.scanner_disable
                0x00000000       0x48 mesh/core/libmesh_core_nrf52832_xxAA.a(scanner.c.obj)
 .text.scanner_is_enabled
                0x00000000       0x10 mesh/core/libmesh_core_nrf52832_xxAA.a(scanner.c.obj)
 .text.scanner_stats_get
                0x00000000        0x8 mesh/core/libmesh_core_nrf52832_xxAA.a(scanner.c.obj)
 .text.scanner_config_radio_mode_set
                0x00000000       0x10 mesh/core/libmesh_core_nrf52832_xxAA.a(scanner.c.obj)
 .text          0x00000000        0x0 mesh/core/libmesh_core_nrf52832_xxAA.a(internal_event.c.obj)
 .data          0x00000000        0x0 mesh/core/libmesh_core_nrf52832_xxAA.a(internal_event.c.obj)
 .bss           0x00000000        0x0 mesh/core/libmesh_core_nrf52832_xxAA.a(internal_event.c.obj)
 .text.internal_event_init
                0x00000000       0x40 mesh/core/libmesh_core_nrf52832_xxAA.a(internal_event.c.obj)
 .text.internal_event_pop
                0x00000000       0x1c mesh/core/libmesh_core_nrf52832_xxAA.a(internal_event.c.obj)
 .bss.m_internal_event_fifo_buffer
                0x00000000      0x100 mesh/core/libmesh_core_nrf52832_xxAA.a(internal_event.c.obj)
 .text          0x00000000        0x0 mesh/core/libmesh_core_nrf52832_xxAA.a(aes.c.obj)
 .data          0x00000000        0x0 mesh/core/libmesh_core_nrf52832_xxAA.a(aes.c.obj)
 .bss           0x00000000        0x0 mesh/core/libmesh_core_nrf52832_xxAA.a(aes.c.obj)
 .text          0x00000000        0x0 mesh/core/libmesh_core_nrf52832_xxAA.a(msg_cache.c.obj)
 .data          0x00000000        0x0 mesh/core/libmesh_core_nrf52832_xxAA.a(msg_cache.c.obj)
 .bss           0x00000000        0x0 mesh/core/libmesh_core_nrf52832_xxAA.a(msg_cache.c.obj)
 .text.msg_cache_clear
                0x00000000       0x18 mesh/core/libmesh_core_nrf52832_xxAA.a(msg_cache.c.obj)
 .text          0x00000000        0x0 mesh/core/libmesh_core_nrf52832_xxAA.a(transport.c.obj)
 .data          0x00000000        0x0 mesh/core/libmesh_core_nrf52832_xxAA.a(transport.c.obj)
 .bss           0x00000000        0x0 mesh/core/libmesh_core_nrf52832_xxAA.a(transport.c.obj)
 .text.transport_sar_mem_funcs_set
                0x00000000       0x44 mesh/core/libmesh_core_nrf52832_xxAA.a(transport.c.obj)
 .text          0x00000000        0x0 mesh/core/libmesh_core_nrf52832_xxAA.a(packet_buffer.c.obj)
 .data          0x00000000        0x0 mesh/core/libmesh_core_nrf52832_xxAA.a(packet_buffer.c.obj)
 .bss           0x00000000        0x0 mesh/core/libmesh_core_nrf52832_xxAA.a(packet_buffer.c.obj)
 .text.packet_buffer_max_packet_len_get
                0x00000000       0x34 mesh/core/libmesh_core_nrf52832_xxAA.a(packet_buffer.c.obj)
 .text          0x00000000        0x0 mesh/core/libmesh_core_nrf52832_xxAA.a(flash_manager_defrag.c.obj)
 .data          0x00000000        0x0 mesh/core/libmesh_core_nrf52832_xxAA.a(flash_manager_defrag.c.obj)
 .bss           0x00000000        0x0 mesh/core/libmesh_core_nrf52832_xxAA.a(flash_manager_defrag.c.obj)
 .text.flash_manager_defragging
                0x00000000       0x44 mesh/core/libmesh_core_nrf52832_xxAA.a(flash_manager_defrag.c.obj)
 .text          0x00000000        0x0 mesh/core/libmesh_core_nrf52832_xxAA.a(packet_mgr.c.obj)
 .data          0x00000000        0x0 mesh/core/libmesh_core_nrf52832_xxAA.a(packet_mgr.c.obj)
 .bss           0x00000000        0x0 mesh/core/libmesh_core_nrf52832_xxAA.a(packet_mgr.c.obj)
 .text.packet_mgr_alloc
                0x00000000      0x19c mesh/core/libmesh_core_nrf52832_xxAA.a(packet_mgr.c.obj)
 .text.packet_mgr_free
                0x00000000       0x6c mesh/core/libmesh_core_nrf52832_xxAA.a(packet_mgr.c.obj)
 .text.packet_mgr_get_free_space
                0x00000000       0x1c mesh/core/libmesh_core_nrf52832_xxAA.a(packet_mgr.c.obj)
 .text.packet_mgr_refcount_get
                0x00000000        0x6 mesh/core/libmesh_core_nrf52832_xxAA.a(packet_mgr.c.obj)
 .text.packet_mgr_size_get
                0x00000000        0x6 mesh/core/libmesh_core_nrf52832_xxAA.a(packet_mgr.c.obj)
 .text          0x00000000        0x0 mesh/core/libmesh_core_nrf52832_xxAA.a(mesh_flash.c.obj)
 .data          0x00000000        0x0 mesh/core/libmesh_core_nrf52832_xxAA.a(mesh_flash.c.obj)
 .bss           0x00000000        0x0 mesh/core/libmesh_core_nrf52832_xxAA.a(mesh_flash.c.obj)
 .text.mesh_flash_op_available_slots
                0x00000000       0x2c mesh/core/libmesh_core_nrf52832_xxAA.a(mesh_flash.c.obj)
 .text.mesh_flash_in_progress
                0x00000000       0x34 mesh/core/libmesh_core_nrf52832_xxAA.a(mesh_flash.c.obj)
 .text.mesh_flash_set_suspended
                0x00000000       0x80 mesh/core/libmesh_core_nrf52832_xxAA.a(mesh_flash.c.obj)
 .bss.suspend_count.9905
                0x00000000        0x4 mesh/core/libmesh_core_nrf52832_xxAA.a(mesh_flash.c.obj)
 .text          0x00000000        0x0 mesh/core/libmesh_core_nrf52832_xxAA.a(queue.c.obj)
 .data          0x00000000        0x0 mesh/core/libmesh_core_nrf52832_xxAA.a(queue.c.obj)
 .bss           0x00000000        0x0 mesh/core/libmesh_core_nrf52832_xxAA.a(queue.c.obj)
 .text          0x00000000        0x0 mesh/core/libmesh_core_nrf52832_xxAA.a(aes_cmac.c.obj)
 .data          0x00000000        0x0 mesh/core/libmesh_core_nrf52832_xxAA.a(aes_cmac.c.obj)
 .bss           0x00000000        0x0 mesh/core/libmesh_core_nrf52832_xxAA.a(aes_cmac.c.obj)
 .text          0x00000000        0x0 mesh/core/libmesh_core_nrf52832_xxAA.a(msqueue.c.obj)
 .data          0x00000000        0x0 mesh/core/libmesh_core_nrf52832_xxAA.a(msqueue.c.obj)
 .bss           0x00000000        0x0 mesh/core/libmesh_core_nrf52832_xxAA.a(msqueue.c.obj)
 .text          0x00000000        0x0 mesh/core/libmesh_core_nrf52832_xxAA.a(replay_cache.c.obj)
 .data          0x00000000        0x0 mesh/core/libmesh_core_nrf52832_xxAA.a(replay_cache.c.obj)
 .bss           0x00000000        0x0 mesh/core/libmesh_core_nrf52832_xxAA.a(replay_cache.c.obj)
 .text.replay_cache_on_iv_update
                0x00000000       0x24 mesh/core/libmesh_core_nrf52832_xxAA.a(replay_cache.c.obj)
 .text          0x00000000        0x0 mesh/core/libmesh_core_nrf52832_xxAA.a(nrf_flash.c.obj)
 .data          0x00000000        0x0 mesh/core/libmesh_core_nrf52832_xxAA.a(nrf_flash.c.obj)
 .bss           0x00000000        0x0 mesh/core/libmesh_core_nrf52832_xxAA.a(nrf_flash.c.obj)
 .text          0x00000000        0x0 external/rtt/librtt_nrf52832_xxAA.a(SEGGER_RTT.c.obj)
 .data          0x00000000        0x0 external/rtt/librtt_nrf52832_xxAA.a(SEGGER_RTT.c.obj)
 .bss           0x00000000        0x0 external/rtt/librtt_nrf52832_xxAA.a(SEGGER_RTT.c.obj)
 .text._PostTerminalSwitch.constprop.0
                0x00000000       0x28 external/rtt/librtt_nrf52832_xxAA.a(SEGGER_RTT.c.obj)
 .text.SEGGER_RTT_ReadNoLock
                0x00000000       0x88 external/rtt/librtt_nrf52832_xxAA.a(SEGGER_RTT.c.obj)
 .text.SEGGER_RTT_Read
                0x00000000       0x1c external/rtt/librtt_nrf52832_xxAA.a(SEGGER_RTT.c.obj)
 .text.SEGGER_RTT_WriteSkipNoLock
                0x00000000       0xb4 external/rtt/librtt_nrf52832_xxAA.a(SEGGER_RTT.c.obj)
 .text.SEGGER_RTT_WriteString
                0x00000000       0x1a external/rtt/librtt_nrf52832_xxAA.a(SEGGER_RTT.c.obj)
 .text.SEGGER_RTT_GetKey
                0x00000000       0x20 external/rtt/librtt_nrf52832_xxAA.a(SEGGER_RTT.c.obj)
 .text.SEGGER_RTT_WaitKey
                0x00000000        0xc external/rtt/librtt_nrf52832_xxAA.a(SEGGER_RTT.c.obj)
 .text.SEGGER_RTT_HasKey
                0x00000000       0x1c external/rtt/librtt_nrf52832_xxAA.a(SEGGER_RTT.c.obj)
 .text.SEGGER_RTT_HasData
                0x00000000       0x14 external/rtt/librtt_nrf52832_xxAA.a(SEGGER_RTT.c.obj)
 .text.SEGGER_RTT_AllocDownBuffer
                0x00000000       0x68 external/rtt/librtt_nrf52832_xxAA.a(SEGGER_RTT.c.obj)
 .text.SEGGER_RTT_AllocUpBuffer
                0x00000000       0x70 external/rtt/librtt_nrf52832_xxAA.a(SEGGER_RTT.c.obj)
 .text.SEGGER_RTT_ConfigUpBuffer
                0x00000000       0x68 external/rtt/librtt_nrf52832_xxAA.a(SEGGER_RTT.c.obj)
 .text.SEGGER_RTT_ConfigDownBuffer
                0x00000000       0x60 external/rtt/librtt_nrf52832_xxAA.a(SEGGER_RTT.c.obj)
 .text.SEGGER_RTT_SetNameUpBuffer
                0x00000000       0x3c external/rtt/librtt_nrf52832_xxAA.a(SEGGER_RTT.c.obj)
 .text.SEGGER_RTT_SetNameDownBuffer
                0x00000000       0x3c external/rtt/librtt_nrf52832_xxAA.a(SEGGER_RTT.c.obj)
 .text.SEGGER_RTT_Init
                0x00000000       0x10 external/rtt/librtt_nrf52832_xxAA.a(SEGGER_RTT.c.obj)
 .text.SEGGER_RTT_SetTerminal
                0x00000000       0x84 external/rtt/librtt_nrf52832_xxAA.a(SEGGER_RTT.c.obj)
 .text.SEGGER_RTT_TerminalOut
                0x00000000       0xa0 external/rtt/librtt_nrf52832_xxAA.a(SEGGER_RTT.c.obj)
 .bss._ActiveTerminal
                0x00000000        0x1 external/rtt/librtt_nrf52832_xxAA.a(SEGGER_RTT.c.obj)
 .rodata._aTerminalId
                0x00000000       0x10 external/rtt/librtt_nrf52832_xxAA.a(SEGGER_RTT.c.obj)
 .text          0x00000000        0x0 external/rtt/librtt_nrf52832_xxAA.a(SEGGER_RTT_printf.c.obj)
 .data          0x00000000        0x0 external/rtt/librtt_nrf52832_xxAA.a(SEGGER_RTT_printf.c.obj)
 .bss           0x00000000        0x0 external/rtt/librtt_nrf52832_xxAA.a(SEGGER_RTT_printf.c.obj)
 .text          0x00000000        0x0 external/micro-ecc/libuECC_nrf52832_xxAA.a(uECC.c.obj)
 .data          0x00000000        0x0 external/micro-ecc/libuECC_nrf52832_xxAA.a(uECC.c.obj)
 .bss           0x00000000        0x0 external/micro-ecc/libuECC_nrf52832_xxAA.a(uECC.c.obj)
 .text.uECC_vli_modMult
                0x00000000      0x148 external/micro-ecc/libuECC_nrf52832_xxAA.a(uECC.c.obj)
 .text.HMAC_init
                0x00000000       0x46 external/micro-ecc/libuECC_nrf52832_xxAA.a(uECC.c.obj)
 .text.HMAC_update
                0x00000000        0x4 external/micro-ecc/libuECC_nrf52832_xxAA.a(uECC.c.obj)
 .text.HMAC_finish
                0x00000000       0x62 external/micro-ecc/libuECC_nrf52832_xxAA.a(uECC.c.obj)
 .text.update_V
                0x00000000       0x24 external/micro-ecc/libuECC_nrf52832_xxAA.a(uECC.c.obj)
 .text.bits2int
                0x00000000       0x88 external/micro-ecc/libuECC_nrf52832_xxAA.a(uECC.c.obj)
 .text.uECC_sign_with_k
                0x00000000      0x17c external/micro-ecc/libuECC_nrf52832_xxAA.a(uECC.c.obj)
 .text.uECC_set_rng
                0x00000000        0xc external/micro-ecc/libuECC_nrf52832_xxAA.a(uECC.c.obj)
 .text.uECC_get_rng
                0x00000000        0xc external/micro-ecc/libuECC_nrf52832_xxAA.a(uECC.c.obj)
 .text.uECC_curve_private_key_size
                0x00000000        0xe external/micro-ecc/libuECC_nrf52832_xxAA.a(uECC.c.obj)
 .text.uECC_curve_public_key_size
                0x00000000        0x8 external/micro-ecc/libuECC_nrf52832_xxAA.a(uECC.c.obj)
 .text.uECC_compute_public_key
                0x00000000       0x7e external/micro-ecc/libuECC_nrf52832_xxAA.a(uECC.c.obj)
 .text.uECC_sign
                0x00000000       0x56 external/micro-ecc/libuECC_nrf52832_xxAA.a(uECC.c.obj)
 .text.uECC_sign_deterministic
                0x00000000      0x192 external/micro-ecc/libuECC_nrf52832_xxAA.a(uECC.c.obj)
 .text.uECC_verify
                0x00000000      0x2f0 external/micro-ecc/libuECC_nrf52832_xxAA.a(uECC.c.obj)
 .text          0x00000000        0x0 c:/a/gcc_arm/6/bin/../lib/gcc/arm-none-eabi/6.3.1/../../../../arm-none-eabi/lib/thumb/v7e-m/fpv4-sp/hard\libg_nano.a(lib_a-exit.o)
 .data          0x00000000        0x0 c:/a/gcc_arm/6/bin/../lib/gcc/arm-none-eabi/6.3.1/../../../../arm-none-eabi/lib/thumb/v7e-m/fpv4-sp/hard\libg_nano.a(lib_a-exit.o)
 .bss           0x00000000        0x0 c:/a/gcc_arm/6/bin/../lib/gcc/arm-none-eabi/6.3.1/../../../../arm-none-eabi/lib/thumb/v7e-m/fpv4-sp/hard\libg_nano.a(lib_a-exit.o)
 .text          0x00000000        0x0 c:/a/gcc_arm/6/bin/../lib/gcc/arm-none-eabi/6.3.1/../../../../arm-none-eabi/lib/thumb/v7e-m/fpv4-sp/hard\libg_nano.a(lib_a-impure.o)
 .data          0x00000000        0x0 c:/a/gcc_arm/6/bin/../lib/gcc/arm-none-eabi/6.3.1/../../../../arm-none-eabi/lib/thumb/v7e-m/fpv4-sp/hard\libg_nano.a(lib_a-impure.o)
 .bss           0x00000000        0x0 c:/a/gcc_arm/6/bin/../lib/gcc/arm-none-eabi/6.3.1/../../../../arm-none-eabi/lib/thumb/v7e-m/fpv4-sp/hard\libg_nano.a(lib_a-impure.o)
 .text          0x00000000        0x0 c:/a/gcc_arm/6/bin/../lib/gcc/arm-none-eabi/6.3.1/../../../../arm-none-eabi/lib/thumb/v7e-m/fpv4-sp/hard\libg_nano.a(lib_a-init.o)
 .data          0x00000000        0x0 c:/a/gcc_arm/6/bin/../lib/gcc/arm-none-eabi/6.3.1/../../../../arm-none-eabi/lib/thumb/v7e-m/fpv4-sp/hard\libg_nano.a(lib_a-init.o)
 .bss           0x00000000        0x0 c:/a/gcc_arm/6/bin/../lib/gcc/arm-none-eabi/6.3.1/../../../../arm-none-eabi/lib/thumb/v7e-m/fpv4-sp/hard\libg_nano.a(lib_a-init.o)
 .text          0x00000000        0x0 c:/a/gcc_arm/6/bin/../lib/gcc/arm-none-eabi/6.3.1/../../../../arm-none-eabi/lib/thumb/v7e-m/fpv4-sp/hard\libg_nano.a(lib_a-malloc.o)
 .data          0x00000000        0x0 c:/a/gcc_arm/6/bin/../lib/gcc/arm-none-eabi/6.3.1/../../../../arm-none-eabi/lib/thumb/v7e-m/fpv4-sp/hard\libg_nano.a(lib_a-malloc.o)
 .bss           0x00000000        0x0 c:/a/gcc_arm/6/bin/../lib/gcc/arm-none-eabi/6.3.1/../../../../arm-none-eabi/lib/thumb/v7e-m/fpv4-sp/hard\libg_nano.a(lib_a-malloc.o)
 .text          0x00000000        0x0 c:/a/gcc_arm/6/bin/../lib/gcc/arm-none-eabi/6.3.1/../../../../arm-none-eabi/lib/thumb/v7e-m/fpv4-sp/hard\libg_nano.a(lib_a-memcmp.o)
 .data          0x00000000        0x0 c:/a/gcc_arm/6/bin/../lib/gcc/arm-none-eabi/6.3.1/../../../../arm-none-eabi/lib/thumb/v7e-m/fpv4-sp/hard\libg_nano.a(lib_a-memcmp.o)
 .bss           0x00000000        0x0 c:/a/gcc_arm/6/bin/../lib/gcc/arm-none-eabi/6.3.1/../../../../arm-none-eabi/lib/thumb/v7e-m/fpv4-sp/hard\libg_nano.a(lib_a-memcmp.o)
 .text          0x00000000        0x0 c:/a/gcc_arm/6/bin/../lib/gcc/arm-none-eabi/6.3.1/../../../../arm-none-eabi/lib/thumb/v7e-m/fpv4-sp/hard\libg_nano.a(lib_a-memcpy-stub.o)
 .data          0x00000000        0x0 c:/a/gcc_arm/6/bin/../lib/gcc/arm-none-eabi/6.3.1/../../../../arm-none-eabi/lib/thumb/v7e-m/fpv4-sp/hard\libg_nano.a(lib_a-memcpy-stub.o)
 .bss           0x00000000        0x0 c:/a/gcc_arm/6/bin/../lib/gcc/arm-none-eabi/6.3.1/../../../../arm-none-eabi/lib/thumb/v7e-m/fpv4-sp/hard\libg_nano.a(lib_a-memcpy-stub.o)
 .text          0x00000000        0x0 c:/a/gcc_arm/6/bin/../lib/gcc/arm-none-eabi/6.3.1/../../../../arm-none-eabi/lib/thumb/v7e-m/fpv4-sp/hard\libg_nano.a(lib_a-memset.o)
 .data          0x00000000        0x0 c:/a/gcc_arm/6/bin/../lib/gcc/arm-none-eabi/6.3.1/../../../../arm-none-eabi/lib/thumb/v7e-m/fpv4-sp/hard\libg_nano.a(lib_a-memset.o)
 .bss           0x00000000        0x0 c:/a/gcc_arm/6/bin/../lib/gcc/arm-none-eabi/6.3.1/../../../../arm-none-eabi/lib/thumb/v7e-m/fpv4-sp/hard\libg_nano.a(lib_a-memset.o)
 .text          0x00000000        0x0 c:/a/gcc_arm/6/bin/../lib/gcc/arm-none-eabi/6.3.1/../../../../arm-none-eabi/lib/thumb/v7e-m/fpv4-sp/hard\libg_nano.a(lib_a-nano-freer.o)
 .data          0x00000000        0x0 c:/a/gcc_arm/6/bin/../lib/gcc/arm-none-eabi/6.3.1/../../../../arm-none-eabi/lib/thumb/v7e-m/fpv4-sp/hard\libg_nano.a(lib_a-nano-freer.o)
 .bss           0x00000000        0x0 c:/a/gcc_arm/6/bin/../lib/gcc/arm-none-eabi/6.3.1/../../../../arm-none-eabi/lib/thumb/v7e-m/fpv4-sp/hard\libg_nano.a(lib_a-nano-freer.o)
 .text          0x00000000        0x0 c:/a/gcc_arm/6/bin/../lib/gcc/arm-none-eabi/6.3.1/../../../../arm-none-eabi/lib/thumb/v7e-m/fpv4-sp/hard\libg_nano.a(lib_a-nano-mallocr.o)
 .data          0x00000000        0x0 c:/a/gcc_arm/6/bin/../lib/gcc/arm-none-eabi/6.3.1/../../../../arm-none-eabi/lib/thumb/v7e-m/fpv4-sp/hard\libg_nano.a(lib_a-nano-mallocr.o)
 .bss           0x00000000        0x0 c:/a/gcc_arm/6/bin/../lib/gcc/arm-none-eabi/6.3.1/../../../../arm-none-eabi/lib/thumb/v7e-m/fpv4-sp/hard\libg_nano.a(lib_a-nano-mallocr.o)
 .text          0x00000000        0x0 c:/a/gcc_arm/6/bin/../lib/gcc/arm-none-eabi/6.3.1/../../../../arm-none-eabi/lib/thumb/v7e-m/fpv4-sp/hard\libg_nano.a(lib_a-sbrkr.o)
 .data          0x00000000        0x0 c:/a/gcc_arm/6/bin/../lib/gcc/arm-none-eabi/6.3.1/../../../../arm-none-eabi/lib/thumb/v7e-m/fpv4-sp/hard\libg_nano.a(lib_a-sbrkr.o)
 .bss           0x00000000        0x0 c:/a/gcc_arm/6/bin/../lib/gcc/arm-none-eabi/6.3.1/../../../../arm-none-eabi/lib/thumb/v7e-m/fpv4-sp/hard\libg_nano.a(lib_a-sbrkr.o)
 .text          0x00000000        0x0 c:/a/gcc_arm/6/bin/../lib/gcc/arm-none-eabi/6.3.1/../../../../arm-none-eabi/lib/thumb/v7e-m/fpv4-sp/hard\libg_nano.a(lib_a-strcpy.o)
 .data          0x00000000        0x0 c:/a/gcc_arm/6/bin/../lib/gcc/arm-none-eabi/6.3.1/../../../../arm-none-eabi/lib/thumb/v7e-m/fpv4-sp/hard\libg_nano.a(lib_a-strcpy.o)
 .bss           0x00000000        0x0 c:/a/gcc_arm/6/bin/../lib/gcc/arm-none-eabi/6.3.1/../../../../arm-none-eabi/lib/thumb/v7e-m/fpv4-sp/hard\libg_nano.a(lib_a-strcpy.o)
 .data          0x00000000        0x0 c:/a/gcc_arm/6/bin/../lib/gcc/arm-none-eabi/6.3.1/../../../../arm-none-eabi/lib/thumb/v7e-m/fpv4-sp/hard\libg_nano.a(lib_a-strlen.o)
 .bss           0x00000000        0x0 c:/a/gcc_arm/6/bin/../lib/gcc/arm-none-eabi/6.3.1/../../../../arm-none-eabi/lib/thumb/v7e-m/fpv4-sp/hard\libg_nano.a(lib_a-strlen.o)
 .text          0x00000000        0x0 c:/a/gcc_arm/6/bin/../lib/gcc/arm-none-eabi/6.3.1/../../../../arm-none-eabi/lib/thumb/v7e-m/fpv4-sp/hard\libg_nano.a(lib_a-strrchr.o)
 .data          0x00000000        0x0 c:/a/gcc_arm/6/bin/../lib/gcc/arm-none-eabi/6.3.1/../../../../arm-none-eabi/lib/thumb/v7e-m/fpv4-sp/hard\libg_nano.a(lib_a-strrchr.o)
 .bss           0x00000000        0x0 c:/a/gcc_arm/6/bin/../lib/gcc/arm-none-eabi/6.3.1/../../../../arm-none-eabi/lib/thumb/v7e-m/fpv4-sp/hard\libg_nano.a(lib_a-strrchr.o)
 .text          0x00000000        0x0 c:/a/gcc_arm/6/bin/../lib/gcc/arm-none-eabi/6.3.1/../../../../arm-none-eabi/lib/thumb/v7e-m/fpv4-sp/hard\libg_nano.a(lib_a-mlock.o)
 .data          0x00000000        0x0 c:/a/gcc_arm/6/bin/../lib/gcc/arm-none-eabi/6.3.1/../../../../arm-none-eabi/lib/thumb/v7e-m/fpv4-sp/hard\libg_nano.a(lib_a-mlock.o)
 .bss           0x00000000        0x0 c:/a/gcc_arm/6/bin/../lib/gcc/arm-none-eabi/6.3.1/../../../../arm-none-eabi/lib/thumb/v7e-m/fpv4-sp/hard\libg_nano.a(lib_a-mlock.o)
 .text          0x00000000        0x0 c:/a/gcc_arm/6/bin/../lib/gcc/arm-none-eabi/6.3.1/../../../../arm-none-eabi/lib/thumb/v7e-m/fpv4-sp/hard\libg_nano.a(lib_a-reent.o)
 .data          0x00000000        0x0 c:/a/gcc_arm/6/bin/../lib/gcc/arm-none-eabi/6.3.1/../../../../arm-none-eabi/lib/thumb/v7e-m/fpv4-sp/hard\libg_nano.a(lib_a-reent.o)
 .bss           0x00000000        0x0 c:/a/gcc_arm/6/bin/../lib/gcc/arm-none-eabi/6.3.1/../../../../arm-none-eabi/lib/thumb/v7e-m/fpv4-sp/hard\libg_nano.a(lib_a-reent.o)
 .text.cleanup_glue
                0x00000000       0x1a c:/a/gcc_arm/6/bin/../lib/gcc/arm-none-eabi/6.3.1/../../../../arm-none-eabi/lib/thumb/v7e-m/fpv4-sp/hard\libg_nano.a(lib_a-reent.o)
 .text._reclaim_reent
                0x00000000       0xb8 c:/a/gcc_arm/6/bin/../lib/gcc/arm-none-eabi/6.3.1/../../../../arm-none-eabi/lib/thumb/v7e-m/fpv4-sp/hard\libg_nano.a(lib_a-reent.o)
 .text          0x00000000        0x0 c:/a/gcc_arm/6/bin/../lib/gcc/arm-none-eabi/6.3.1/../../../../arm-none-eabi/lib/thumb/v7e-m/fpv4-sp/hard\libg_nano.a(lib_a-strchr.o)
 .data          0x00000000        0x0 c:/a/gcc_arm/6/bin/../lib/gcc/arm-none-eabi/6.3.1/../../../../arm-none-eabi/lib/thumb/v7e-m/fpv4-sp/hard\libg_nano.a(lib_a-strchr.o)
 .bss           0x00000000        0x0 c:/a/gcc_arm/6/bin/../lib/gcc/arm-none-eabi/6.3.1/../../../../arm-none-eabi/lib/thumb/v7e-m/fpv4-sp/hard\libg_nano.a(lib_a-strchr.o)
 .text          0x00000000        0x0 c:/a/gcc_arm/6/bin/../lib/gcc/arm-none-eabi/6.3.1/thumb/v7e-m/fpv4-sp/hard/crtend.o
 .data          0x00000000        0x0 c:/a/gcc_arm/6/bin/../lib/gcc/arm-none-eabi/6.3.1/thumb/v7e-m/fpv4-sp/hard/crtend.o
 .bss           0x00000000        0x0 c:/a/gcc_arm/6/bin/../lib/gcc/arm-none-eabi/6.3.1/thumb/v7e-m/fpv4-sp/hard/crtend.o
 .text          0x00000000        0x0 c:/a/gcc_arm/6/bin/../lib/gcc/arm-none-eabi/6.3.1/thumb/v7e-m/fpv4-sp/hard/crtn.o
 .data          0x00000000        0x0 c:/a/gcc_arm/6/bin/../lib/gcc/arm-none-eabi/6.3.1/thumb/v7e-m/fpv4-sp/hard/crtn.o
 .bss           0x00000000        0x0 c:/a/gcc_arm/6/bin/../lib/gcc/arm-none-eabi/6.3.1/thumb/v7e-m/fpv4-sp/hard/crtn.o
 .text          0x00000000        0x0 c:/a/gcc_arm/6/bin/../lib/gcc/arm-none-eabi/6.3.1/../../../../arm-none-eabi/lib/thumb/v7e-m/fpv4-sp/hard\libnosys.a(sbrk.o)
 .data          0x00000000        0x0 c:/a/gcc_arm/6/bin/../lib/gcc/arm-none-eabi/6.3.1/../../../../arm-none-eabi/lib/thumb/v7e-m/fpv4-sp/hard\libnosys.a(sbrk.o)
 .bss           0x00000000        0x0 c:/a/gcc_arm/6/bin/../lib/gcc/arm-none-eabi/6.3.1/../../../../arm-none-eabi/lib/thumb/v7e-m/fpv4-sp/hard\libnosys.a(sbrk.o)
 .text          0x00000000        0x0 c:/a/gcc_arm/6/bin/../lib/gcc/arm-none-eabi/6.3.1/../../../../arm-none-eabi/lib/thumb/v7e-m/fpv4-sp/hard\libnosys.a(_exit.o)
 .data          0x00000000        0x0 c:/a/gcc_arm/6/bin/../lib/gcc/arm-none-eabi/6.3.1/../../../../arm-none-eabi/lib/thumb/v7e-m/fpv4-sp/hard\libnosys.a(_exit.o)
 .bss           0x00000000        0x0 c:/a/gcc_arm/6/bin/../lib/gcc/arm-none-eabi/6.3.1/../../../../arm-none-eabi/lib/thumb/v7e-m/fpv4-sp/hard\libnosys.a(_exit.o)

Memory Configuration

Name             Origin             Length             Attributes
FLASH            0x0001f000         0x00059000         xr
RAM              0x200019c0         0x0000e340         xrw
*default*        0x00000000         0xffffffff

Linker script and memory map


.text           0x0001f000    0x14c58
 *(.isr_vector)
 .isr_vector    0x0001f000      0x200 examples/pb_remote/server/CMakeFiles/pb_remote_server_nrf52832_xxAA_s132_3.1.0.dir/__/__/__/external/nRF5_SDK_14.2.0_17b948a/components/toolchain/gcc/gcc_startup_nrf52.S.obj
                0x0001f000                __isr_vector
 *(.text*)
 .text          0x0001f200       0x6c c:/a/gcc_arm/6/bin/../lib/gcc/arm-none-eabi/6.3.1/thumb/v7e-m/fpv4-sp/hard/crtbegin.o
 .text          0x0001f26c       0x74 c:/a/gcc_arm/6/bin/../lib/gcc/arm-none-eabi/6.3.1/../../../../arm-none-eabi/lib/thumb/v7e-m/fpv4-sp/hard/crt0.o
                0x0001f26c                _start
                0x0001f26c                _mainCRTStartup
 .text.sd_app_evt_wait
                0x0001f2e0        0x4 examples/pb_remote/server/CMakeFiles/pb_remote_server_nrf52832_xxAA_s132_3.1.0.dir/src/main.c.obj
 .text.configuration_setup
                0x0001f2e4       0x84 examples/pb_remote/server/CMakeFiles/pb_remote_server_nrf52832_xxAA_s132_3.1.0.dir/src/main.c.obj
 .text.provisioning_complete
                0x0001f368      0x15c examples/pb_remote/server/CMakeFiles/pb_remote_server_nrf52832_xxAA_s132_3.1.0.dir/src/main.c.obj
 .text.startup.main
                0x0001f4c4       0xb0 examples/pb_remote/server/CMakeFiles/pb_remote_server_nrf52832_xxAA_s132_3.1.0.dir/src/main.c.obj
                0x0001f4c4                main
 .text.sd_evt_get
                0x0001f574        0x4 examples/pb_remote/server/CMakeFiles/pb_remote_server_nrf52832_xxAA_s132_3.1.0.dir/__/__/nrf_mesh_sdk.c.obj
 .text.sd_ble_evt_get
                0x0001f578        0x4 examples/pb_remote/server/CMakeFiles/pb_remote_server_nrf52832_xxAA_s132_3.1.0.dir/__/__/nrf_mesh_sdk.c.obj
 .text.sleep_forever
                0x0001f57c       0x1c examples/pb_remote/server/CMakeFiles/pb_remote_server_nrf52832_xxAA_s132_3.1.0.dir/__/__/nrf_mesh_sdk.c.obj
 .text.app_error_handler
                0x0001f598       0x78 examples/pb_remote/server/CMakeFiles/pb_remote_server_nrf52832_xxAA_s132_3.1.0.dir/__/__/nrf_mesh_sdk.c.obj
                0x0001f598                app_error_handler
 .text.HardFault_Handler
                0x0001f610       0x6c examples/pb_remote/server/CMakeFiles/pb_remote_server_nrf52832_xxAA_s132_3.1.0.dir/__/__/nrf_mesh_sdk.c.obj
                0x0001f610                HardFault_Handler
 .text.SWI2_EGU2_IRQHandler
                0x0001f67c       0x3c examples/pb_remote/server/CMakeFiles/pb_remote_server_nrf52832_xxAA_s132_3.1.0.dir/__/__/nrf_mesh_sdk.c.obj
                0x0001f67c                SWI2_EGU2_IRQHandler
 .text.hal_led_mask_set
                0x0001f6b8       0x12 examples/pb_remote/server/CMakeFiles/pb_remote_server_nrf52832_xxAA_s132_3.1.0.dir/__/__/common/src/simple_hal.c.obj
                0x0001f6b8                hal_led_mask_set
 *fill*         0x0001f6ca        0x2 
 .text.hal_led_blink_ms
                0x0001f6cc       0xb4 examples/pb_remote/server/CMakeFiles/pb_remote_server_nrf52832_xxAA_s132_3.1.0.dir/__/__/common/src/simple_hal.c.obj
                0x0001f6cc                hal_led_blink_ms
 .text.hal_leds_init
                0x0001f780       0x38 examples/pb_remote/server/CMakeFiles/pb_remote_server_nrf52832_xxAA_s132_3.1.0.dir/__/__/common/src/simple_hal.c.obj
                0x0001f780                hal_leds_init
 .text.GPIOTE_IRQHandler
                0x0001f7b8       0x60 examples/pb_remote/server/CMakeFiles/pb_remote_server_nrf52832_xxAA_s132_3.1.0.dir/__/__/common/src/simple_hal.c.obj
                0x0001f7b8                GPIOTE_IRQHandler
 .text._weak_handler
                0x0001f818        0x4 examples/pb_remote/server/CMakeFiles/pb_remote_server_nrf52832_xxAA_s132_3.1.0.dir/__/__/nrf_mesh_weak.c.obj
                0x0001f818                nrf_mesh_dfu_init
                0x0001f818                nrf_mesh_dfu_jump_to_bootloader
                0x0001f818                nrf_mesh_dfu_rx
                0x0001f818                prov_provisioner_provision
                0x0001f818                nrf_mesh_dfu_bank_info_get
                0x0001f818                prov_provisioner_oob_pubkey
                0x0001f818                nrf_mesh_dfu_request
                0x0001f818                nrf_mesh_dfu_bank_flash
                0x0001f818                _weak_handler
                0x0001f818                nrf_mesh_dfu_relay
                0x0001f818                nrf_mesh_dfu_abort
                0x0001f818                mesh_flash_op_execute
                0x0001f818                nrf_mesh_dfu_state_get
                0x0001f818                prov_provisioner_shared_secret
                0x0001f818                prov_provisioner_auth_data
                0x0001f818                prov_provisioner_oob_use
 .text.complete_provisioning
                0x0001f81c       0x52 examples/pb_remote/server/CMakeFiles/pb_remote_server_nrf52832_xxAA_s132_3.1.0.dir/__/__/__/mesh/prov/src/prov_provisionee.c.obj
 .text.prov_provisionee_cb_link_established
                0x0001f86e       0x20 examples/pb_remote/server/CMakeFiles/pb_remote_server_nrf52832_xxAA_s132_3.1.0.dir/__/__/__/mesh/prov/src/prov_provisionee.c.obj
 .text.prov_provisionee_cb_link_closed
                0x0001f88e       0x34 examples/pb_remote/server/CMakeFiles/pb_remote_server_nrf52832_xxAA_s132_3.1.0.dir/__/__/__/mesh/prov/src/prov_provisionee.c.obj
 .text.request_authentication
                0x0001f8c2       0x8a examples/pb_remote/server/CMakeFiles/pb_remote_server_nrf52832_xxAA_s132_3.1.0.dir/__/__/__/mesh/prov/src/prov_provisionee.c.obj
 .text.send_failed
                0x0001f94c       0x3a examples/pb_remote/server/CMakeFiles/pb_remote_server_nrf52832_xxAA_s132_3.1.0.dir/__/__/__/mesh/prov/src/prov_provisionee.c.obj
 .text.start_authentication
                0x0001f986       0x52 examples/pb_remote/server/CMakeFiles/pb_remote_server_nrf52832_xxAA_s132_3.1.0.dir/__/__/__/mesh/prov/src/prov_provisionee.c.obj
 .text.prov_provisionee_cb_ack_received
                0x0001f9d8       0xb8 examples/pb_remote/server/CMakeFiles/pb_remote_server_nrf52832_xxAA_s132_3.1.0.dir/__/__/__/mesh/prov/src/prov_provisionee.c.obj
 .text.prov_provisionee_pkt_in
                0x0001fa90      0x2a0 examples/pb_remote/server/CMakeFiles/pb_remote_server_nrf52832_xxAA_s132_3.1.0.dir/__/__/__/mesh/prov/src/prov_provisionee.c.obj
 .text.prov_provisionee_init
                0x0001fd30       0x38 examples/pb_remote/server/CMakeFiles/pb_remote_server_nrf52832_xxAA_s132_3.1.0.dir/__/__/__/mesh/prov/src/prov_provisionee.c.obj
                0x0001fd30                prov_provisionee_init
 .text.prov_provisionee_auth_data
                0x0001fd68       0x7a examples/pb_remote/server/CMakeFiles/pb_remote_server_nrf52832_xxAA_s132_3.1.0.dir/__/__/__/mesh/prov/src/prov_provisionee.c.obj
                0x0001fd68                prov_provisionee_auth_data
 .text.bearer_compare_callback
                0x0001fde2        0xc examples/pb_remote/server/CMakeFiles/pb_remote_server_nrf52832_xxAA_s132_3.1.0.dir/__/__/__/mesh/prov/src/nrf_mesh_prov.c.obj
 .text.nrf_mesh_prov_init
                0x0001fdee       0x32 examples/pb_remote/server/CMakeFiles/pb_remote_server_nrf52832_xxAA_s132_3.1.0.dir/__/__/__/mesh/prov/src/nrf_mesh_prov.c.obj
                0x0001fdee                nrf_mesh_prov_init
 .text.nrf_mesh_prov_bearer_add
                0x0001fe20       0x20 examples/pb_remote/server/CMakeFiles/pb_remote_server_nrf52832_xxAA_s132_3.1.0.dir/__/__/__/mesh/prov/src/nrf_mesh_prov.c.obj
                0x0001fe20                nrf_mesh_prov_bearer_add
 .text.nrf_mesh_prov_generate_keys
                0x0001fe40        0x4 examples/pb_remote/server/CMakeFiles/pb_remote_server_nrf52832_xxAA_s132_3.1.0.dir/__/__/__/mesh/prov/src/nrf_mesh_prov.c.obj
                0x0001fe40                nrf_mesh_prov_generate_keys
 .text.nrf_mesh_prov_listen
                0x0001fe44       0x30 examples/pb_remote/server/CMakeFiles/pb_remote_server_nrf52832_xxAA_s132_3.1.0.dir/__/__/__/mesh/prov/src/nrf_mesh_prov.c.obj
                0x0001fe44                nrf_mesh_prov_listen
 .text.nrf_mesh_prov_auth_data_provide
                0x0001fe74        0xe examples/pb_remote/server/CMakeFiles/pb_remote_server_nrf52832_xxAA_s132_3.1.0.dir/__/__/__/mesh/prov/src/nrf_mesh_prov.c.obj
                0x0001fe74                nrf_mesh_prov_auth_data_provide
 .text.nrf_mesh_prov_scan_start
                0x0001fe82       0x10 examples/pb_remote/server/CMakeFiles/pb_remote_server_nrf52832_xxAA_s132_3.1.0.dir/__/__/__/mesh/prov/src/nrf_mesh_prov.c.obj
                0x0001fe82                nrf_mesh_prov_scan_start
 .text.nrf_mesh_prov_scan_stop
                0x0001fe92        0x4 examples/pb_remote/server/CMakeFiles/pb_remote_server_nrf52832_xxAA_s132_3.1.0.dir/__/__/__/mesh/prov/src/nrf_mesh_prov.c.obj
                0x0001fe92                nrf_mesh_prov_scan_stop
 *fill*         0x0001fe96        0x2 
 .text.send_data
                0x0001fe98       0x3c examples/pb_remote/server/CMakeFiles/pb_remote_server_nrf52832_xxAA_s132_3.1.0.dir/__/__/__/mesh/prov/src/provisioning.c.obj
 .text.prov_packet_length_valid
                0x0001fed4       0x1c examples/pb_remote/server/CMakeFiles/pb_remote_server_nrf52832_xxAA_s132_3.1.0.dir/__/__/__/mesh/prov/src/provisioning.c.obj
                0x0001fed4                prov_packet_length_valid
 .text.prov_tx_capabilities
                0x0001fef0       0x1e examples/pb_remote/server/CMakeFiles/pb_remote_server_nrf52832_xxAA_s132_3.1.0.dir/__/__/__/mesh/prov/src/provisioning.c.obj
                0x0001fef0                prov_tx_capabilities
 .text.prov_tx_public_key
                0x0001ff0e       0x26 examples/pb_remote/server/CMakeFiles/pb_remote_server_nrf52832_xxAA_s132_3.1.0.dir/__/__/__/mesh/prov/src/provisioning.c.obj
                0x0001ff0e                prov_tx_public_key
 .text.prov_tx_input_complete
                0x0001ff34       0x16 examples/pb_remote/server/CMakeFiles/pb_remote_server_nrf52832_xxAA_s132_3.1.0.dir/__/__/__/mesh/prov/src/provisioning.c.obj
                0x0001ff34                prov_tx_input_complete
 .text.prov_tx_confirmation
                0x0001ff4a       0x26 examples/pb_remote/server/CMakeFiles/pb_remote_server_nrf52832_xxAA_s132_3.1.0.dir/__/__/__/mesh/prov/src/provisioning.c.obj
                0x0001ff4a                prov_tx_confirmation
 .text.prov_tx_random
                0x0001ff70       0x26 examples/pb_remote/server/CMakeFiles/pb_remote_server_nrf52832_xxAA_s132_3.1.0.dir/__/__/__/mesh/prov/src/provisioning.c.obj
                0x0001ff70                prov_tx_random
 .text.prov_tx_complete
                0x0001ff96       0x16 examples/pb_remote/server/CMakeFiles/pb_remote_server_nrf52832_xxAA_s132_3.1.0.dir/__/__/__/mesh/prov/src/provisioning.c.obj
                0x0001ff96                prov_tx_complete
 .text.prov_tx_failed
                0x0001ffac       0x1a examples/pb_remote/server/CMakeFiles/pb_remote_server_nrf52832_xxAA_s132_3.1.0.dir/__/__/__/mesh/prov/src/provisioning.c.obj
                0x0001ffac                prov_tx_failed
 .text.prov_beacon_unprov_build
                0x0001ffc6       0x54 examples/pb_remote/server/CMakeFiles/pb_remote_server_nrf52832_xxAA_s132_3.1.0.dir/__/__/__/mesh/prov/src/prov_beacon.c.obj
                0x0001ffc6                prov_beacon_unprov_build
 *fill*         0x0002001a        0x2 
 .text.prov_beacon_unprov_packet_in
                0x0002001c       0x9c examples/pb_remote/server/CMakeFiles/pb_remote_server_nrf52832_xxAA_s132_3.1.0.dir/__/__/__/mesh/prov/src/prov_beacon.c.obj
                0x0002001c                prov_beacon_unprov_packet_in
 .text.prov_beacon_scan_start
                0x000200b8       0x24 examples/pb_remote/server/CMakeFiles/pb_remote_server_nrf52832_xxAA_s132_3.1.0.dir/__/__/__/mesh/prov/src/prov_beacon.c.obj
                0x000200b8                prov_beacon_scan_start
 .text.prov_beacon_scan_stop
                0x000200dc        0xc examples/pb_remote/server/CMakeFiles/pb_remote_server_nrf52832_xxAA_s132_3.1.0.dir/__/__/__/mesh/prov/src/prov_beacon.c.obj
                0x000200dc                prov_beacon_scan_stop
 .text.oob_gen_alphanumeric
                0x000200e8       0x34 examples/pb_remote/server/CMakeFiles/pb_remote_server_nrf52832_xxAA_s132_3.1.0.dir/__/__/__/mesh/prov/src/prov_utils.c.obj
 .text.oob_gen_numeric
                0x0002011c       0x3c examples/pb_remote/server/CMakeFiles/pb_remote_server_nrf52832_xxAA_s132_3.1.0.dir/__/__/__/mesh/prov/src/prov_utils.c.obj
 .text.prov_utils_opt_set
                0x00020158       0x20 examples/pb_remote/server/CMakeFiles/pb_remote_server_nrf52832_xxAA_s132_3.1.0.dir/__/__/__/mesh/prov/src/prov_utils.c.obj
                0x00020158                prov_utils_opt_set
 .text.prov_utils_opt_get
                0x00020178       0x1c examples/pb_remote/server/CMakeFiles/pb_remote_server_nrf52832_xxAA_s132_3.1.0.dir/__/__/__/mesh/prov/src/prov_utils.c.obj
                0x00020178                prov_utils_opt_get
 .text.prov_utils_use_ecdh_offloading
                0x00020194        0xc examples/pb_remote/server/CMakeFiles/pb_remote_server_nrf52832_xxAA_s132_3.1.0.dir/__/__/__/mesh/prov/src/prov_utils.c.obj
                0x00020194                prov_utils_use_ecdh_offloading
 .text.prov_utils_authentication_values_derive
                0x000201a0       0xa0 examples/pb_remote/server/CMakeFiles/pb_remote_server_nrf52832_xxAA_s132_3.1.0.dir/__/__/__/mesh/prov/src/prov_utils.c.obj
                0x000201a0                prov_utils_authentication_values_derive
 .text.prov_utils_keys_generate
                0x00020240       0x1e examples/pb_remote/server/CMakeFiles/pb_remote_server_nrf52832_xxAA_s132_3.1.0.dir/__/__/__/mesh/prov/src/prov_utils.c.obj
                0x00020240                prov_utils_keys_generate
 *fill*         0x0002025e        0x2 
 .text.prov_utils_derive_keys
                0x00020260       0xac examples/pb_remote/server/CMakeFiles/pb_remote_server_nrf52832_xxAA_s132_3.1.0.dir/__/__/__/mesh/prov/src/prov_utils.c.obj
                0x00020260                prov_utils_derive_keys
 .text.prov_utils_calculate_shared_secret
                0x0002030c       0x36 examples/pb_remote/server/CMakeFiles/pb_remote_server_nrf52832_xxAA_s132_3.1.0.dir/__/__/__/mesh/prov/src/prov_utils.c.obj
                0x0002030c                prov_utils_calculate_shared_secret
 *fill*         0x00020342        0x2 
 .text.prov_utils_generate_oob_data
                0x00020344       0x9c examples/pb_remote/server/CMakeFiles/pb_remote_server_nrf52832_xxAA_s132_3.1.0.dir/__/__/__/mesh/prov/src/prov_utils.c.obj
                0x00020344                prov_utils_generate_oob_data
 .text.prov_utils_confirmation_check
                0x000203e0       0x5c examples/pb_remote/server/CMakeFiles/pb_remote_server_nrf52832_xxAA_s132_3.1.0.dir/__/__/__/mesh/prov/src/prov_utils.c.obj
                0x000203e0                prov_utils_confirmation_check
 .text.link_timeout_cb
                0x0002043c       0x10 examples/pb_remote/server/CMakeFiles/pb_remote_server_nrf52832_xxAA_s132_3.1.0.dir/__/__/__/mesh/prov/src/prov_bearer_adv.c.obj
 .text.remove_active_bearer
                0x0002044c       0x60 examples/pb_remote/server/CMakeFiles/pb_remote_server_nrf52832_xxAA_s132_3.1.0.dir/__/__/__/mesh/prov/src/prov_bearer_adv.c.obj
 .text.close_link
                0x000204ac       0x6c examples/pb_remote/server/CMakeFiles/pb_remote_server_nrf52832_xxAA_s132_3.1.0.dir/__/__/__/mesh/prov/src/prov_bearer_adv.c.obj
 .text.prov_bearer_adv_listen_stop
                0x00020518       0x3c examples/pb_remote/server/CMakeFiles/pb_remote_server_nrf52832_xxAA_s132_3.1.0.dir/__/__/__/mesh/prov/src/prov_bearer_adv.c.obj
 .text.send_packet
                0x00020554       0x6c examples/pb_remote/server/CMakeFiles/pb_remote_server_nrf52832_xxAA_s132_3.1.0.dir/__/__/__/mesh/prov/src/prov_bearer_adv.c.obj
 .text.prov_buffer_tx
                0x000205c0      0x158 examples/pb_remote/server/CMakeFiles/pb_remote_server_nrf52832_xxAA_s132_3.1.0.dir/__/__/__/mesh/prov/src/prov_bearer_adv.c.obj
 .text.send_link_close
                0x00020718       0x38 examples/pb_remote/server/CMakeFiles/pb_remote_server_nrf52832_xxAA_s132_3.1.0.dir/__/__/__/mesh/prov/src/prov_bearer_adv.c.obj
 .text.prov_bearer_adv_link_close
                0x00020750       0x74 examples/pb_remote/server/CMakeFiles/pb_remote_server_nrf52832_xxAA_s132_3.1.0.dir/__/__/__/mesh/prov/src/prov_bearer_adv.c.obj
 .text.send_transaction_ack
                0x000207c4       0x24 examples/pb_remote/server/CMakeFiles/pb_remote_server_nrf52832_xxAA_s132_3.1.0.dir/__/__/__/mesh/prov/src/prov_bearer_adv.c.obj
 .text.send_link_ack
                0x000207e8       0x32 examples/pb_remote/server/CMakeFiles/pb_remote_server_nrf52832_xxAA_s132_3.1.0.dir/__/__/__/mesh/prov/src/prov_bearer_adv.c.obj
 .text.reset_timeout_timer
                0x0002081a       0x1a examples/pb_remote/server/CMakeFiles/pb_remote_server_nrf52832_xxAA_s132_3.1.0.dir/__/__/__/mesh/prov/src/prov_bearer_adv.c.obj
 .text.tx_complete_cb
                0x00020834       0x1c examples/pb_remote/server/CMakeFiles/pb_remote_server_nrf52832_xxAA_s132_3.1.0.dir/__/__/__/mesh/prov/src/prov_bearer_adv.c.obj
 .text.tx_retry_cb
                0x00020850       0xcc examples/pb_remote/server/CMakeFiles/pb_remote_server_nrf52832_xxAA_s132_3.1.0.dir/__/__/__/mesh/prov/src/prov_bearer_adv.c.obj
 .text.add_active_bearer
                0x0002091c       0x80 examples/pb_remote/server/CMakeFiles/pb_remote_server_nrf52832_xxAA_s132_3.1.0.dir/__/__/__/mesh/prov/src/prov_bearer_adv.c.obj
 .text.prov_bearer_adv_link_open
                0x0002099c       0xf8 examples/pb_remote/server/CMakeFiles/pb_remote_server_nrf52832_xxAA_s132_3.1.0.dir/__/__/__/mesh/prov/src/prov_bearer_adv.c.obj
 .text.async_process
                0x00020a94       0x50 examples/pb_remote/server/CMakeFiles/pb_remote_server_nrf52832_xxAA_s132_3.1.0.dir/__/__/__/mesh/prov/src/prov_bearer_adv.c.obj
 .text.prov_bearer_adv_listen
                0x00020ae4       0xec examples/pb_remote/server/CMakeFiles/pb_remote_server_nrf52832_xxAA_s132_3.1.0.dir/__/__/__/mesh/prov/src/prov_bearer_adv.c.obj
 .text.calculate_3GPP_CRC
                0x00020bd0       0x24 examples/pb_remote/server/CMakeFiles/pb_remote_server_nrf52832_xxAA_s132_3.1.0.dir/__/__/__/mesh/prov/src/prov_bearer_adv.c.obj
                0x00020bd0                calculate_3GPP_CRC
 .text.prov_bearer_adv_tx
                0x00020bf4       0xb4 examples/pb_remote/server/CMakeFiles/pb_remote_server_nrf52832_xxAA_s132_3.1.0.dir/__/__/__/mesh/prov/src/prov_bearer_adv.c.obj
 .text.prov_buffer_rx
                0x00020ca8       0x7c examples/pb_remote/server/CMakeFiles/pb_remote_server_nrf52832_xxAA_s132_3.1.0.dir/__/__/__/mesh/prov/src/prov_bearer_adv.c.obj
 .text.nrf_mesh_prov_bearer_adv_interface_get
                0x00020d24       0x48 examples/pb_remote/server/CMakeFiles/pb_remote_server_nrf52832_xxAA_s132_3.1.0.dir/__/__/__/mesh/prov/src/prov_bearer_adv.c.obj
                0x00020d24                nrf_mesh_prov_bearer_adv_interface_get
 .text.prov_bearer_adv_packet_in
                0x00020d6c      0x80c examples/pb_remote/server/CMakeFiles/pb_remote_server_nrf52832_xxAA_s132_3.1.0.dir/__/__/__/mesh/prov/src/prov_bearer_adv.c.obj
                0x00020d6c                prov_bearer_adv_packet_in
 .text.pb_remote_server_event_transfer_status_cb
                0x00021578       0xf0 examples/pb_remote/server/CMakeFiles/pb_remote_server_nrf52832_xxAA_s132_3.1.0.dir/__/__/__/models/pb_remote/src/pb_remote_server.c.obj
 .text.pb_remote_server_event_link_status_cb
                0x00021668      0x1cc examples/pb_remote/server/CMakeFiles/pb_remote_server_nrf52832_xxAA_s132_3.1.0.dir/__/__/__/models/pb_remote/src/pb_remote_server.c.obj
 .text.pb_remote_server_event_scan_report_status_cb
                0x00021834       0x80 examples/pb_remote/server/CMakeFiles/pb_remote_server_nrf52832_xxAA_s132_3.1.0.dir/__/__/__/models/pb_remote/src/pb_remote_server.c.obj
 .text.do_state_change
                0x000218b4       0x78 examples/pb_remote/server/CMakeFiles/pb_remote_server_nrf52832_xxAA_s132_3.1.0.dir/__/__/__/models/pb_remote/src/pb_remote_server.c.obj
 .text.pb_remote_server_process
                0x0002192c      0x220 examples/pb_remote/server/CMakeFiles/pb_remote_server_nrf52832_xxAA_s132_3.1.0.dir/__/__/__/models/pb_remote/src/pb_remote_server.c.obj
 .text.server_reliable_status_cb
                0x00021b4c      0x120 examples/pb_remote/server/CMakeFiles/pb_remote_server_nrf52832_xxAA_s132_3.1.0.dir/__/__/__/models/pb_remote/src/pb_remote_server.c.obj
 .text.pb_adv_link_closed_cb
                0x00021c6c       0x48 examples/pb_remote/server/CMakeFiles/pb_remote_server_nrf52832_xxAA_s132_3.1.0.dir/__/__/__/models/pb_remote/src/pb_remote_server.c.obj
 .text.pb_adv_link_opened_cb
                0x00021cb4       0x40 examples/pb_remote/server/CMakeFiles/pb_remote_server_nrf52832_xxAA_s132_3.1.0.dir/__/__/__/models/pb_remote/src/pb_remote_server.c.obj
 .text.pb_adv_ack_cb
                0x00021cf4       0x40 examples/pb_remote/server/CMakeFiles/pb_remote_server_nrf52832_xxAA_s132_3.1.0.dir/__/__/__/models/pb_remote/src/pb_remote_server.c.obj
 .text.pb_adv_rx_cb
                0x00021d34       0x54 examples/pb_remote/server/CMakeFiles/pb_remote_server_nrf52832_xxAA_s132_3.1.0.dir/__/__/__/models/pb_remote/src/pb_remote_server.c.obj
 .text.prov_evt_handler
                0x00021d88       0x4c examples/pb_remote/server/CMakeFiles/pb_remote_server_nrf52832_xxAA_s132_3.1.0.dir/__/__/__/models/pb_remote/src/pb_remote_server.c.obj
 .text.pb_remote_server_event_tx_failed_cb
                0x00021dd4       0x38 examples/pb_remote/server/CMakeFiles/pb_remote_server_nrf52832_xxAA_s132_3.1.0.dir/__/__/__/models/pb_remote/src/pb_remote_server.c.obj
 .text.send_reply.isra.8.part.9
                0x00021e0c       0x14 examples/pb_remote/server/CMakeFiles/pb_remote_server_nrf52832_xxAA_s132_3.1.0.dir/__/__/__/models/pb_remote/src/pb_remote_server.c.obj
 .text.send_reliable_msg
                0x00021e20       0x2c examples/pb_remote/server/CMakeFiles/pb_remote_server_nrf52832_xxAA_s132_3.1.0.dir/__/__/__/models/pb_remote/src/pb_remote_server.c.obj
 .text.pb_remote_server_event_local_packet_cb
                0x00021e4c      0x130 examples/pb_remote/server/CMakeFiles/pb_remote_server_nrf52832_xxAA_s132_3.1.0.dir/__/__/__/models/pb_remote/src/pb_remote_server.c.obj
 .text.pb_remote_server_event_local_ack_cb
                0x00021f7c       0x8c examples/pb_remote/server/CMakeFiles/pb_remote_server_nrf52832_xxAA_s132_3.1.0.dir/__/__/__/models/pb_remote/src/pb_remote_server.c.obj
 .text.pb_remote_server_event_link_established_cb
                0x00022008       0x94 examples/pb_remote/server/CMakeFiles/pb_remote_server_nrf52832_xxAA_s132_3.1.0.dir/__/__/__/models/pb_remote/src/pb_remote_server.c.obj
 .text.pb_remote_server_event_link_closed_cb
                0x0002209c       0xf0 examples/pb_remote/server/CMakeFiles/pb_remote_server_nrf52832_xxAA_s132_3.1.0.dir/__/__/__/models/pb_remote/src/pb_remote_server.c.obj
 .text.send_reply.isra.8
                0x0002218c       0x16 examples/pb_remote/server/CMakeFiles/pb_remote_server_nrf52832_xxAA_s132_3.1.0.dir/__/__/__/models/pb_remote/src/pb_remote_server.c.obj
 *fill*         0x000221a2        0x2 
 .text.pb_remote_server_event_link_close_cb
                0x000221a4       0xf0 examples/pb_remote/server/CMakeFiles/pb_remote_server_nrf52832_xxAA_s132_3.1.0.dir/__/__/__/models/pb_remote/src/pb_remote_server.c.obj
 .text.pb_remote_server_event_scan_start_filter_cb
                0x00022294      0x128 examples/pb_remote/server/CMakeFiles/pb_remote_server_nrf52832_xxAA_s132_3.1.0.dir/__/__/__/models/pb_remote/src/pb_remote_server.c.obj
 .text.pb_remote_server_event_packet_transfer_cb
                0x000223bc      0x104 examples/pb_remote/server/CMakeFiles/pb_remote_server_nrf52832_xxAA_s132_3.1.0.dir/__/__/__/models/pb_remote/src/pb_remote_server.c.obj
 .text.pb_remote_server_event_scan_start_cb
                0x000224c0       0x98 examples/pb_remote/server/CMakeFiles/pb_remote_server_nrf52832_xxAA_s132_3.1.0.dir/__/__/__/models/pb_remote/src/pb_remote_server.c.obj
 .text.local_link_open.isra.14
                0x00022558       0xf8 examples/pb_remote/server/CMakeFiles/pb_remote_server_nrf52832_xxAA_s132_3.1.0.dir/__/__/__/models/pb_remote/src/pb_remote_server.c.obj
 .text.pb_remote_server_event_link_open_cb
                0x00022650       0xb8 examples/pb_remote/server/CMakeFiles/pb_remote_server_nrf52832_xxAA_s132_3.1.0.dir/__/__/__/models/pb_remote/src/pb_remote_server.c.obj
 .text.pb_remote_server_event_scan_cancel_cb
                0x00022708       0x64 examples/pb_remote/server/CMakeFiles/pb_remote_server_nrf52832_xxAA_s132_3.1.0.dir/__/__/__/models/pb_remote/src/pb_remote_server.c.obj
 .text.remote_server_access_rx_cb
                0x0002276c      0x190 examples/pb_remote/server/CMakeFiles/pb_remote_server_nrf52832_xxAA_s132_3.1.0.dir/__/__/__/models/pb_remote/src/pb_remote_server.c.obj
 .text.pb_remote_server_event_unprov_uuid_cb
                0x000228fc      0x174 examples/pb_remote/server/CMakeFiles/pb_remote_server_nrf52832_xxAA_s132_3.1.0.dir/__/__/__/models/pb_remote/src/pb_remote_server.c.obj
 .text.pb_remote_server_init
                0x00022a70       0xa8 examples/pb_remote/server/CMakeFiles/pb_remote_server_nrf52832_xxAA_s132_3.1.0.dir/__/__/__/models/pb_remote/src/pb_remote_server.c.obj
                0x00022a70                pb_remote_server_init
 .text.pb_remote_server_enable
                0x00022b18       0x28 examples/pb_remote/server/CMakeFiles/pb_remote_server_nrf52832_xxAA_s132_3.1.0.dir/__/__/__/models/pb_remote/src/pb_remote_server.c.obj
                0x00022b18                pb_remote_server_enable
 .text.pb_remote_server_prov_bearer_set
                0x00022b40       0x18 examples/pb_remote/server/CMakeFiles/pb_remote_server_nrf52832_xxAA_s132_3.1.0.dir/__/__/__/models/pb_remote/src/pb_remote_server.c.obj
                0x00022b40                pb_remote_server_prov_bearer_set
 .text.add_to_publication_list
                0x00022b58       0x84 examples/pb_remote/server/CMakeFiles/pb_remote_server_nrf52832_xxAA_s132_3.1.0.dir/__/__/__/mesh/access/src/access_publish.c.obj
 .text.step_resolution_to_us
                0x00022bdc       0x44 examples/pb_remote/server/CMakeFiles/pb_remote_server_nrf52832_xxAA_s132_3.1.0.dir/__/__/__/mesh/access/src/access_publish.c.obj
 .text.schedule_publication_timer
                0x00022c20      0x184 examples/pb_remote/server/CMakeFiles/pb_remote_server_nrf52832_xxAA_s132_3.1.0.dir/__/__/__/mesh/access/src/access_publish.c.obj
 .text.publish_timer_tick
                0x00022da4       0xbc examples/pb_remote/server/CMakeFiles/pb_remote_server_nrf52832_xxAA_s132_3.1.0.dir/__/__/__/mesh/access/src/access_publish.c.obj
 .text.access_publish_init
                0x00022e60       0x38 examples/pb_remote/server/CMakeFiles/pb_remote_server_nrf52832_xxAA_s132_3.1.0.dir/__/__/__/mesh/access/src/access_publish.c.obj
                0x00022e60                access_publish_init
 .text.access_publish_period_set
                0x00022e98       0x6c examples/pb_remote/server/CMakeFiles/pb_remote_server_nrf52832_xxAA_s132_3.1.0.dir/__/__/__/mesh/access/src/access_publish.c.obj
                0x00022e98                access_publish_period_set
 .text.access_publish_period_get
                0x00022f04       0x30 examples/pb_remote/server/CMakeFiles/pb_remote_server_nrf52832_xxAA_s132_3.1.0.dir/__/__/__/mesh/access/src/access_publish.c.obj
                0x00022f04                access_publish_period_get
 .text.bitfield_get
                0x00022f34       0x1a examples/pb_remote/server/CMakeFiles/pb_remote_server_nrf52832_xxAA_s132_3.1.0.dir/__/__/__/mesh/access/src/access.c.obj
 .text.is_valid_opcode
                0x00022f4e       0x42 examples/pb_remote/server/CMakeFiles/pb_remote_server_nrf52832_xxAA_s132_3.1.0.dir/__/__/__/mesh/access/src/access.c.obj
 .text.model_handle_valid_and_allocated
                0x00022f90       0x20 examples/pb_remote/server/CMakeFiles/pb_remote_server_nrf52832_xxAA_s132_3.1.0.dir/__/__/__/mesh/access/src/access.c.obj
 .text.flash_invalidate_complete
                0x00022fb0       0x14 examples/pb_remote/server/CMakeFiles/pb_remote_server_nrf52832_xxAA_s132_3.1.0.dir/__/__/__/mesh/access/src/access.c.obj
 .text.flash_manager_mem_available
                0x00022fc4        0x2 examples/pb_remote/server/CMakeFiles/pb_remote_server_nrf52832_xxAA_s132_3.1.0.dir/__/__/__/mesh/access/src/access.c.obj
 *fill*         0x00022fc6        0x2 
 .text.restore_acquired_subscription
                0x00022fc8       0x30 examples/pb_remote/server/CMakeFiles/pb_remote_server_nrf52832_xxAA_s132_3.1.0.dir/__/__/__/mesh/access/src/access.c.obj
 .text.restore_acquired_element
                0x00022ff8       0x1c examples/pb_remote/server/CMakeFiles/pb_remote_server_nrf52832_xxAA_s132_3.1.0.dir/__/__/__/mesh/access/src/access.c.obj
 .text.restore_flash_data
                0x00023014       0x5c examples/pb_remote/server/CMakeFiles/pb_remote_server_nrf52832_xxAA_s132_3.1.0.dir/__/__/__/mesh/access/src/access.c.obj
 .text.access_flash_config_clear
                0x00023070       0x28 examples/pb_remote/server/CMakeFiles/pb_remote_server_nrf52832_xxAA_s132_3.1.0.dir/__/__/__/mesh/access/src/access.c.obj
 .text.access_flash_config_store
                0x00023098      0x138 examples/pb_remote/server/CMakeFiles/pb_remote_server_nrf52832_xxAA_s132_3.1.0.dir/__/__/__/mesh/access/src/access.c.obj
                0x00023098                access_flash_config_store
 .text.access_state_clear
                0x000231d0       0x48 examples/pb_remote/server/CMakeFiles/pb_remote_server_nrf52832_xxAA_s132_3.1.0.dir/__/__/__/mesh/access/src/access.c.obj
 .text.add_flash_manager
                0x00023218       0x58 examples/pb_remote/server/CMakeFiles/pb_remote_server_nrf52832_xxAA_s132_3.1.0.dir/__/__/__/mesh/access/src/access.c.obj
 .text.flash_remove_complete
                0x00023270       0x58 examples/pb_remote/server/CMakeFiles/pb_remote_server_nrf52832_xxAA_s132_3.1.0.dir/__/__/__/mesh/access/src/access.c.obj
 .text.flash_write_complete
                0x000232c8       0x54 examples/pb_remote/server/CMakeFiles/pb_remote_server_nrf52832_xxAA_s132_3.1.0.dir/__/__/__/mesh/access/src/access.c.obj
 .text.unlikely.bitfield_next_get.part.0.constprop.3
                0x0002331c       0x34 examples/pb_remote/server/CMakeFiles/pb_remote_server_nrf52832_xxAA_s132_3.1.0.dir/__/__/__/mesh/access/src/access.c.obj
 .text.restore_acquired_model
                0x00023350       0x94 examples/pb_remote/server/CMakeFiles/pb_remote_server_nrf52832_xxAA_s132_3.1.0.dir/__/__/__/mesh/access/src/access.c.obj
 .text.handle_incoming
                0x000233e4      0x158 examples/pb_remote/server/CMakeFiles/pb_remote_server_nrf52832_xxAA_s132_3.1.0.dir/__/__/__/mesh/access/src/access.c.obj
 .text.mesh_evt_cb
                0x0002353c      0x134 examples/pb_remote/server/CMakeFiles/pb_remote_server_nrf52832_xxAA_s132_3.1.0.dir/__/__/__/mesh/access/src/access.c.obj
 .text.packet_tx
                0x00023670      0x2c4 examples/pb_remote/server/CMakeFiles/pb_remote_server_nrf52832_xxAA_s132_3.1.0.dir/__/__/__/mesh/access/src/access.c.obj
 .text.access_flash_config_load
                0x00023934      0x130 examples/pb_remote/server/CMakeFiles/pb_remote_server_nrf52832_xxAA_s132_3.1.0.dir/__/__/__/mesh/access/src/access.c.obj
                0x00023934                access_flash_config_load
 .text.access_clear
                0x00023a64       0x12 examples/pb_remote/server/CMakeFiles/pb_remote_server_nrf52832_xxAA_s132_3.1.0.dir/__/__/__/mesh/access/src/access.c.obj
                0x00023a64                access_clear
 *fill*         0x00023a76        0x2 
 .text.access_init
                0x00023a78       0x28 examples/pb_remote/server/CMakeFiles/pb_remote_server_nrf52832_xxAA_s132_3.1.0.dir/__/__/__/mesh/access/src/access.c.obj
                0x00023a78                access_init
 .text.access_model_add
                0x00023aa0      0x1b8 examples/pb_remote/server/CMakeFiles/pb_remote_server_nrf52832_xxAA_s132_3.1.0.dir/__/__/__/mesh/access/src/access.c.obj
                0x00023aa0                access_model_add
 .text.access_model_publish
                0x00023c58        0xc examples/pb_remote/server/CMakeFiles/pb_remote_server_nrf52832_xxAA_s132_3.1.0.dir/__/__/__/mesh/access/src/access.c.obj
                0x00023c58                access_model_publish
 .text.access_model_reply
                0x00023c64       0x12 examples/pb_remote/server/CMakeFiles/pb_remote_server_nrf52832_xxAA_s132_3.1.0.dir/__/__/__/mesh/access/src/access.c.obj
                0x00023c64                access_model_reply
 *fill*         0x00023c76        0x2 
 .text.access_model_publish_address_set
                0x00023c78       0x3c examples/pb_remote/server/CMakeFiles/pb_remote_server_nrf52832_xxAA_s132_3.1.0.dir/__/__/__/mesh/access/src/access.c.obj
                0x00023c78                access_model_publish_address_set
 .text.access_model_publish_address_get
                0x00023cb4       0x28 examples/pb_remote/server/CMakeFiles/pb_remote_server_nrf52832_xxAA_s132_3.1.0.dir/__/__/__/mesh/access/src/access.c.obj
                0x00023cb4                access_model_publish_address_get
 .text.access_model_publish_period_set
                0x00023cdc       0x6c examples/pb_remote/server/CMakeFiles/pb_remote_server_nrf52832_xxAA_s132_3.1.0.dir/__/__/__/mesh/access/src/access.c.obj
                0x00023cdc                access_model_publish_period_set
 .text.access_model_publish_period_get
                0x00023d48       0x3c examples/pb_remote/server/CMakeFiles/pb_remote_server_nrf52832_xxAA_s132_3.1.0.dir/__/__/__/mesh/access/src/access.c.obj
                0x00023d48                access_model_publish_period_get
 .text.access_model_subscription_add
                0x00023d84       0x60 examples/pb_remote/server/CMakeFiles/pb_remote_server_nrf52832_xxAA_s132_3.1.0.dir/__/__/__/mesh/access/src/access.c.obj
                0x00023d84                access_model_subscription_add
 .text.access_model_subscription_remove
                0x00023de4       0x60 examples/pb_remote/server/CMakeFiles/pb_remote_server_nrf52832_xxAA_s132_3.1.0.dir/__/__/__/mesh/access/src/access.c.obj
                0x00023de4                access_model_subscription_remove
 .text.access_model_subscriptions_get
                0x00023e44       0x80 examples/pb_remote/server/CMakeFiles/pb_remote_server_nrf52832_xxAA_s132_3.1.0.dir/__/__/__/mesh/access/src/access.c.obj
                0x00023e44                access_model_subscriptions_get
 .text.access_model_application_bind
                0x00023ec4       0x50 examples/pb_remote/server/CMakeFiles/pb_remote_server_nrf52832_xxAA_s132_3.1.0.dir/__/__/__/mesh/access/src/access.c.obj
                0x00023ec4                access_model_application_bind
 .text.access_model_application_unbind
                0x00023f14       0x50 examples/pb_remote/server/CMakeFiles/pb_remote_server_nrf52832_xxAA_s132_3.1.0.dir/__/__/__/mesh/access/src/access.c.obj
                0x00023f14                access_model_application_unbind
 .text.access_model_applications_get
                0x00023f64       0x58 examples/pb_remote/server/CMakeFiles/pb_remote_server_nrf52832_xxAA_s132_3.1.0.dir/__/__/__/mesh/access/src/access.c.obj
                0x00023f64                access_model_applications_get
 .text.access_model_publish_application_set
                0x00023fbc       0x3c examples/pb_remote/server/CMakeFiles/pb_remote_server_nrf52832_xxAA_s132_3.1.0.dir/__/__/__/mesh/access/src/access.c.obj
                0x00023fbc                access_model_publish_application_set
 .text.access_model_publish_application_get
                0x00023ff8       0x28 examples/pb_remote/server/CMakeFiles/pb_remote_server_nrf52832_xxAA_s132_3.1.0.dir/__/__/__/mesh/access/src/access.c.obj
                0x00023ff8                access_model_publish_application_get
 .text.access_default_ttl_set
                0x00024020       0x10 examples/pb_remote/server/CMakeFiles/pb_remote_server_nrf52832_xxAA_s132_3.1.0.dir/__/__/__/mesh/access/src/access.c.obj
                0x00024020                access_default_ttl_set
 .text.access_default_ttl_get
                0x00024030        0xc examples/pb_remote/server/CMakeFiles/pb_remote_server_nrf52832_xxAA_s132_3.1.0.dir/__/__/__/mesh/access/src/access.c.obj
                0x00024030                access_default_ttl_get
 .text.access_model_publish_ttl_set
                0x0002403c       0x40 examples/pb_remote/server/CMakeFiles/pb_remote_server_nrf52832_xxAA_s132_3.1.0.dir/__/__/__/mesh/access/src/access.c.obj
                0x0002403c                access_model_publish_ttl_set
 .text.access_model_publish_ttl_get
                0x0002407c       0x28 examples/pb_remote/server/CMakeFiles/pb_remote_server_nrf52832_xxAA_s132_3.1.0.dir/__/__/__/mesh/access/src/access.c.obj
                0x0002407c                access_model_publish_ttl_get
 .text.access_element_location_get
                0x000240a4       0x18 examples/pb_remote/server/CMakeFiles/pb_remote_server_nrf52832_xxAA_s132_3.1.0.dir/__/__/__/mesh/access/src/access.c.obj
                0x000240a4                access_element_location_get
 .text.access_element_sig_model_count_get
                0x000240bc       0x18 examples/pb_remote/server/CMakeFiles/pb_remote_server_nrf52832_xxAA_s132_3.1.0.dir/__/__/__/mesh/access/src/access.c.obj
                0x000240bc                access_element_sig_model_count_get
 .text.access_element_vendor_model_count_get
                0x000240d4       0x18 examples/pb_remote/server/CMakeFiles/pb_remote_server_nrf52832_xxAA_s132_3.1.0.dir/__/__/__/mesh/access/src/access.c.obj
                0x000240d4                access_element_vendor_model_count_get
 .text.access_model_id_get
                0x000240ec       0x2c examples/pb_remote/server/CMakeFiles/pb_remote_server_nrf52832_xxAA_s132_3.1.0.dir/__/__/__/mesh/access/src/access.c.obj
                0x000240ec                access_model_id_get
 .text.access_handle_get
                0x00024118       0x4c examples/pb_remote/server/CMakeFiles/pb_remote_server_nrf52832_xxAA_s132_3.1.0.dir/__/__/__/mesh/access/src/access.c.obj
                0x00024118                access_handle_get
 .text.access_element_models_get
                0x00024164       0x48 examples/pb_remote/server/CMakeFiles/pb_remote_server_nrf52832_xxAA_s132_3.1.0.dir/__/__/__/mesh/access/src/access.c.obj
                0x00024164                access_element_models_get
 .text.access_model_p_args_get
                0x000241ac       0x28 examples/pb_remote/server/CMakeFiles/pb_remote_server_nrf52832_xxAA_s132_3.1.0.dir/__/__/__/mesh/access/src/access.c.obj
                0x000241ac                access_model_p_args_get
 .text.remove_and_reschedule
                0x000241d4       0xd0 examples/pb_remote/server/CMakeFiles/pb_remote_server_nrf52832_xxAA_s132_3.1.0.dir/__/__/__/mesh/access/src/access_reliable.c.obj
 .text.reliable_timer_cb
                0x000242a4      0x148 examples/pb_remote/server/CMakeFiles/pb_remote_server_nrf52832_xxAA_s132_3.1.0.dir/__/__/__/mesh/access/src/access_reliable.c.obj
 .text.access_reliable_message_rx_cb
                0x000243ec       0x74 examples/pb_remote/server/CMakeFiles/pb_remote_server_nrf52832_xxAA_s132_3.1.0.dir/__/__/__/mesh/access/src/access_reliable.c.obj
                0x000243ec                access_reliable_message_rx_cb
 .text.access_reliable_init
                0x00024460       0x1c examples/pb_remote/server/CMakeFiles/pb_remote_server_nrf52832_xxAA_s132_3.1.0.dir/__/__/__/mesh/access/src/access_reliable.c.obj
                0x00024460                access_reliable_init
 .text.access_reliable_cancel_all
                0x0002447c       0x34 examples/pb_remote/server/CMakeFiles/pb_remote_server_nrf52832_xxAA_s132_3.1.0.dir/__/__/__/mesh/access/src/access_reliable.c.obj
                0x0002447c                access_reliable_cancel_all
 .text.access_model_reliable_cancel
                0x000244b0       0x44 examples/pb_remote/server/CMakeFiles/pb_remote_server_nrf52832_xxAA_s132_3.1.0.dir/__/__/__/mesh/access/src/access_reliable.c.obj
                0x000244b0                access_model_reliable_cancel
 .text.access_model_reliable_publish
                0x000244f4      0x1a8 examples/pb_remote/server/CMakeFiles/pb_remote_server_nrf52832_xxAA_s132_3.1.0.dir/__/__/__/mesh/access/src/access_reliable.c.obj
                0x000244f4                access_model_reliable_publish
 .text.bitfield_get
                0x0002469c       0x1a examples/pb_remote/server/CMakeFiles/pb_remote_server_nrf52832_xxAA_s132_3.1.0.dir/__/__/__/mesh/access/src/device_state_manager.c.obj
 .text.bitfield_set
                0x000246b6       0x18 examples/pb_remote/server/CMakeFiles/pb_remote_server_nrf52832_xxAA_s132_3.1.0.dir/__/__/__/mesh/access/src/device_state_manager.c.obj
 .text.bitfield_clear
                0x000246ce       0x1a examples/pb_remote/server/CMakeFiles/pb_remote_server_nrf52832_xxAA_s132_3.1.0.dir/__/__/__/mesh/access/src/device_state_manager.c.obj
 .text.bitfield_is_all_clear
                0x000246e8       0x3c examples/pb_remote/server/CMakeFiles/pb_remote_server_nrf52832_xxAA_s132_3.1.0.dir/__/__/__/mesh/access/src/device_state_manager.c.obj
 .text.address_handle_virtual_valid
                0x00024724       0x14 examples/pb_remote/server/CMakeFiles/pb_remote_server_nrf52832_xxAA_s132_3.1.0.dir/__/__/__/mesh/access/src/device_state_manager.c.obj
 .text.net_key_handle_get
                0x00024738       0x38 examples/pb_remote/server/CMakeFiles/pb_remote_server_nrf52832_xxAA_s132_3.1.0.dir/__/__/__/mesh/access/src/device_state_manager.c.obj
 .text.dev_key_handle_get
                0x00024770       0x30 examples/pb_remote/server/CMakeFiles/pb_remote_server_nrf52832_xxAA_s132_3.1.0.dir/__/__/__/mesh/access/src/device_state_manager.c.obj
 .text.app_key_handle_get
                0x000247a0       0x38 examples/pb_remote/server/CMakeFiles/pb_remote_server_nrf52832_xxAA_s132_3.1.0.dir/__/__/__/mesh/access/src/device_state_manager.c.obj
 .text.get_subnet_handle
                0x000247d8       0x40 examples/pb_remote/server/CMakeFiles/pb_remote_server_nrf52832_xxAA_s132_3.1.0.dir/__/__/__/mesh/access/src/device_state_manager.c.obj
 .text.addr_nonvirtual_to_flash_entry
                0x00024818       0x10 examples/pb_remote/server/CMakeFiles/pb_remote_server_nrf52832_xxAA_s132_3.1.0.dir/__/__/__/mesh/access/src/device_state_manager.c.obj
 .text.flash_mem_listener_callback
                0x00024828       0x20 examples/pb_remote/server/CMakeFiles/pb_remote_server_nrf52832_xxAA_s132_3.1.0.dir/__/__/__/mesh/access/src/device_state_manager.c.obj
 .text.devkey_set
                0x00024848       0x4c examples/pb_remote/server/CMakeFiles/pb_remote_server_nrf52832_xxAA_s132_3.1.0.dir/__/__/__/mesh/access/src/device_state_manager.c.obj
 .text.devkey_to_dsm_entry
                0x00024894       0x16 examples/pb_remote/server/CMakeFiles/pb_remote_server_nrf52832_xxAA_s132_3.1.0.dir/__/__/__/mesh/access/src/device_state_manager.c.obj
 *fill*         0x000248aa        0x2 
 .text.devkey_to_flash_entry
                0x000248ac       0x28 examples/pb_remote/server/CMakeFiles/pb_remote_server_nrf52832_xxAA_s132_3.1.0.dir/__/__/__/mesh/access/src/device_state_manager.c.obj
 .text.addr_virtual_to_flash_entry
                0x000248d4       0x18 examples/pb_remote/server/CMakeFiles/pb_remote_server_nrf52832_xxAA_s132_3.1.0.dir/__/__/__/mesh/access/src/device_state_manager.c.obj
 .text.addr_unicast_to_dsm_entry
                0x000248ec        0xc examples/pb_remote/server/CMakeFiles/pb_remote_server_nrf52832_xxAA_s132_3.1.0.dir/__/__/__/mesh/access/src/device_state_manager.c.obj
 .text.addr_unicast_to_flash_entry
                0x000248f8       0x10 examples/pb_remote/server/CMakeFiles/pb_remote_server_nrf52832_xxAA_s132_3.1.0.dir/__/__/__/mesh/access/src/device_state_manager.c.obj
 .text.appkey_set
                0x00024908       0x7c examples/pb_remote/server/CMakeFiles/pb_remote_server_nrf52832_xxAA_s132_3.1.0.dir/__/__/__/mesh/access/src/device_state_manager.c.obj
 .text.appkey_to_flash_entry
                0x00024984       0x54 examples/pb_remote/server/CMakeFiles/pb_remote_server_nrf52832_xxAA_s132_3.1.0.dir/__/__/__/mesh/access/src/device_state_manager.c.obj
 .text.subnet_to_flash_entry
                0x000249d8       0x60 examples/pb_remote/server/CMakeFiles/pb_remote_server_nrf52832_xxAA_s132_3.1.0.dir/__/__/__/mesh/access/src/device_state_manager.c.obj
 .text.subnet_set
                0x00024a38       0xb4 examples/pb_remote/server/CMakeFiles/pb_remote_server_nrf52832_xxAA_s132_3.1.0.dir/__/__/__/mesh/access/src/device_state_manager.c.obj
 .text.virtual_address_set
                0x00024aec       0x54 examples/pb_remote/server/CMakeFiles/pb_remote_server_nrf52832_xxAA_s132_3.1.0.dir/__/__/__/mesh/access/src/device_state_manager.c.obj
 .text.addr_virtual_to_dsm_entry
                0x00024b40        0xc examples/pb_remote/server/CMakeFiles/pb_remote_server_nrf52832_xxAA_s132_3.1.0.dir/__/__/__/mesh/access/src/device_state_manager.c.obj
 .text.reset_flash_area
                0x00024b4c       0x28 examples/pb_remote/server/CMakeFiles/pb_remote_server_nrf52832_xxAA_s132_3.1.0.dir/__/__/__/mesh/access/src/device_state_manager.c.obj
 .text.flash_save
                0x00024b74       0x88 examples/pb_remote/server/CMakeFiles/pb_remote_server_nrf52832_xxAA_s132_3.1.0.dir/__/__/__/mesh/access/src/device_state_manager.c.obj
 .text.flash_invalidate
                0x00024bfc       0x70 examples/pb_remote/server/CMakeFiles/pb_remote_server_nrf52832_xxAA_s132_3.1.0.dir/__/__/__/mesh/access/src/device_state_manager.c.obj
 .text.flash_update_all
                0x00024c6c       0x6c examples/pb_remote/server/CMakeFiles/pb_remote_server_nrf52832_xxAA_s132_3.1.0.dir/__/__/__/mesh/access/src/device_state_manager.c.obj
 .text.virtual_address_uuid_index_get
                0x00024cd8       0x3c examples/pb_remote/server/CMakeFiles/pb_remote_server_nrf52832_xxAA_s132_3.1.0.dir/__/__/__/mesh/access/src/device_state_manager.c.obj
 .text.add_address_virtual
                0x00024d14       0x70 examples/pb_remote/server/CMakeFiles/pb_remote_server_nrf52832_xxAA_s132_3.1.0.dir/__/__/__/mesh/access/src/device_state_manager.c.obj
 .text.get_subnet_handle_by_beacon_info
                0x00024d84       0x30 examples/pb_remote/server/CMakeFiles/pb_remote_server_nrf52832_xxAA_s132_3.1.0.dir/__/__/__/mesh/access/src/device_state_manager.c.obj
 .text.get_app_handle
                0x00024db4       0x38 examples/pb_remote/server/CMakeFiles/pb_remote_server_nrf52832_xxAA_s132_3.1.0.dir/__/__/__/mesh/access/src/device_state_manager.c.obj
 .text.appkey_to_dsm_entry
                0x00024dec       0x80 examples/pb_remote/server/CMakeFiles/pb_remote_server_nrf52832_xxAA_s132_3.1.0.dir/__/__/__/mesh/access/src/device_state_manager.c.obj
 .text.subnet_to_dsm_entry
                0x00024e6c       0x7c examples/pb_remote/server/CMakeFiles/pb_remote_server_nrf52832_xxAA_s132_3.1.0.dir/__/__/__/mesh/access/src/device_state_manager.c.obj
 .text.flash_operation_complete
                0x00024ee8       0x58 examples/pb_remote/server/CMakeFiles/pb_remote_server_nrf52832_xxAA_s132_3.1.0.dir/__/__/__/mesh/access/src/device_state_manager.c.obj
 .text.flash_invalidate_complete
                0x00024f40        0x8 examples/pb_remote/server/CMakeFiles/pb_remote_server_nrf52832_xxAA_s132_3.1.0.dir/__/__/__/mesh/access/src/device_state_manager.c.obj
 .text.flash_write_complete
                0x00024f48        0x8 examples/pb_remote/server/CMakeFiles/pb_remote_server_nrf52832_xxAA_s132_3.1.0.dir/__/__/__/mesh/access/src/device_state_manager.c.obj
 .text.add_address.part.7
                0x00024f50      0x144 examples/pb_remote/server/CMakeFiles/pb_remote_server_nrf52832_xxAA_s132_3.1.0.dir/__/__/__/mesh/access/src/device_state_manager.c.obj
 .text.address_handle_valid
                0x00025094       0x28 examples/pb_remote/server/CMakeFiles/pb_remote_server_nrf52832_xxAA_s132_3.1.0.dir/__/__/__/mesh/access/src/device_state_manager.c.obj
 .text.address_handle_nonvirtual_valid
                0x000250bc       0x14 examples/pb_remote/server/CMakeFiles/pb_remote_server_nrf52832_xxAA_s132_3.1.0.dir/__/__/__/mesh/access/src/device_state_manager.c.obj
 .text.address_delete_if_unused
                0x000250d0       0x78 examples/pb_remote/server/CMakeFiles/pb_remote_server_nrf52832_xxAA_s132_3.1.0.dir/__/__/__/mesh/access/src/device_state_manager.c.obj
 .text.addr_nonvirtual_to_dsm_entry
                0x00025148       0x38 examples/pb_remote/server/CMakeFiles/pb_remote_server_nrf52832_xxAA_s132_3.1.0.dir/__/__/__/mesh/access/src/device_state_manager.c.obj
 .text.dsm_flash_config_load
                0x00025180      0x134 examples/pb_remote/server/CMakeFiles/pb_remote_server_nrf52832_xxAA_s132_3.1.0.dir/__/__/__/mesh/access/src/device_state_manager.c.obj
                0x00025180                dsm_flash_config_load
 .text.dsm_flash_area_get
                0x000252b4        0xc examples/pb_remote/server/CMakeFiles/pb_remote_server_nrf52832_xxAA_s132_3.1.0.dir/__/__/__/mesh/access/src/device_state_manager.c.obj
                0x000252b4                dsm_flash_area_get
 .text.build_flash_area
                0x000252c0       0x8c examples/pb_remote/server/CMakeFiles/pb_remote_server_nrf52832_xxAA_s132_3.1.0.dir/__/__/__/mesh/access/src/device_state_manager.c.obj
 .text.flash_remove_complete
                0x0002534c        0x4 examples/pb_remote/server/CMakeFiles/pb_remote_server_nrf52832_xxAA_s132_3.1.0.dir/__/__/__/mesh/access/src/device_state_manager.c.obj
 .text.dsm_clear
                0x00025350       0x6c examples/pb_remote/server/CMakeFiles/pb_remote_server_nrf52832_xxAA_s132_3.1.0.dir/__/__/__/mesh/access/src/device_state_manager.c.obj
                0x00025350                dsm_clear
 .text.dsm_init
                0x000253bc       0x24 examples/pb_remote/server/CMakeFiles/pb_remote_server_nrf52832_xxAA_s132_3.1.0.dir/__/__/__/mesh/access/src/device_state_manager.c.obj
                0x000253bc                dsm_init
 .text.dsm_local_unicast_addresses_set
                0x000253e0       0x84 examples/pb_remote/server/CMakeFiles/pb_remote_server_nrf52832_xxAA_s132_3.1.0.dir/__/__/__/mesh/access/src/device_state_manager.c.obj
                0x000253e0                dsm_local_unicast_addresses_set
 .text.dsm_local_unicast_addresses_get
                0x00025464       0x2c examples/pb_remote/server/CMakeFiles/pb_remote_server_nrf52832_xxAA_s132_3.1.0.dir/__/__/__/mesh/access/src/device_state_manager.c.obj
                0x00025464                dsm_local_unicast_addresses_get
 .text.dsm_address_publish_add
                0x00025490        0xc examples/pb_remote/server/CMakeFiles/pb_remote_server_nrf52832_xxAA_s132_3.1.0.dir/__/__/__/mesh/access/src/device_state_manager.c.obj
                0x00025490                dsm_address_publish_add
 .text.dsm_address_publish_add_handle
                0x0002549c       0x38 examples/pb_remote/server/CMakeFiles/pb_remote_server_nrf52832_xxAA_s132_3.1.0.dir/__/__/__/mesh/access/src/device_state_manager.c.obj
                0x0002549c                dsm_address_publish_add_handle
 .text.dsm_address_publish_virtual_add
                0x000254d4        0x6 examples/pb_remote/server/CMakeFiles/pb_remote_server_nrf52832_xxAA_s132_3.1.0.dir/__/__/__/mesh/access/src/device_state_manager.c.obj
                0x000254d4                dsm_address_publish_virtual_add
 .text.dsm_address_subscription_add
                0x000254da        0xc examples/pb_remote/server/CMakeFiles/pb_remote_server_nrf52832_xxAA_s132_3.1.0.dir/__/__/__/mesh/access/src/device_state_manager.c.obj
                0x000254da                dsm_address_subscription_add
 .text.dsm_address_subscription_virtual_add
                0x000254e6        0x6 examples/pb_remote/server/CMakeFiles/pb_remote_server_nrf52832_xxAA_s132_3.1.0.dir/__/__/__/mesh/access/src/device_state_manager.c.obj
                0x000254e6                dsm_address_subscription_virtual_add
 .text.dsm_address_subscription_add_handle
                0x000254ec       0x38 examples/pb_remote/server/CMakeFiles/pb_remote_server_nrf52832_xxAA_s132_3.1.0.dir/__/__/__/mesh/access/src/device_state_manager.c.obj
                0x000254ec                dsm_address_subscription_add_handle
 .text.dsm_address_subscription_get
                0x00025524       0x34 examples/pb_remote/server/CMakeFiles/pb_remote_server_nrf52832_xxAA_s132_3.1.0.dir/__/__/__/mesh/access/src/device_state_manager.c.obj
                0x00025524                dsm_address_subscription_get
 .text.dsm_address_get
                0x00025558       0x5c examples/pb_remote/server/CMakeFiles/pb_remote_server_nrf52832_xxAA_s132_3.1.0.dir/__/__/__/mesh/access/src/device_state_manager.c.obj
                0x00025558                dsm_address_get
 .text.dsm_address_subscription_remove
                0x000255b4       0x58 examples/pb_remote/server/CMakeFiles/pb_remote_server_nrf52832_xxAA_s132_3.1.0.dir/__/__/__/mesh/access/src/device_state_manager.c.obj
                0x000255b4                dsm_address_subscription_remove
 .text.dsm_address_handle_get
                0x0002560c       0x98 examples/pb_remote/server/CMakeFiles/pb_remote_server_nrf52832_xxAA_s132_3.1.0.dir/__/__/__/mesh/access/src/device_state_manager.c.obj
                0x0002560c                dsm_address_handle_get
 .text.dsm_net_key_index_to_subnet_handle
                0x000256a4       0x1c examples/pb_remote/server/CMakeFiles/pb_remote_server_nrf52832_xxAA_s132_3.1.0.dir/__/__/__/mesh/access/src/device_state_manager.c.obj
                0x000256a4                dsm_net_key_index_to_subnet_handle
 .text.dsm_appkey_index_to_appkey_handle
                0x000256c0       0x1c examples/pb_remote/server/CMakeFiles/pb_remote_server_nrf52832_xxAA_s132_3.1.0.dir/__/__/__/mesh/access/src/device_state_manager.c.obj
                0x000256c0                dsm_appkey_index_to_appkey_handle
 .text.dsm_appkey_handle_get
                0x000256dc        0xc examples/pb_remote/server/CMakeFiles/pb_remote_server_nrf52832_xxAA_s132_3.1.0.dir/__/__/__/mesh/access/src/device_state_manager.c.obj
                0x000256dc                dsm_appkey_handle_get
 .text.dsm_appkey_handle_to_appkey_index
                0x000256e8       0x30 examples/pb_remote/server/CMakeFiles/pb_remote_server_nrf52832_xxAA_s132_3.1.0.dir/__/__/__/mesh/access/src/device_state_manager.c.obj
                0x000256e8                dsm_appkey_handle_to_appkey_index
 .text.dsm_subnet_add
                0x00025718       0x58 examples/pb_remote/server/CMakeFiles/pb_remote_server_nrf52832_xxAA_s132_3.1.0.dir/__/__/__/mesh/access/src/device_state_manager.c.obj
                0x00025718                dsm_subnet_add
 .text.dsm_subnet_kr_phase_get
                0x00025770       0x2c examples/pb_remote/server/CMakeFiles/pb_remote_server_nrf52832_xxAA_s132_3.1.0.dir/__/__/__/mesh/access/src/device_state_manager.c.obj
                0x00025770                dsm_subnet_kr_phase_get
 .text.dsm_subnet_update
                0x0002579c       0xa4 examples/pb_remote/server/CMakeFiles/pb_remote_server_nrf52832_xxAA_s132_3.1.0.dir/__/__/__/mesh/access/src/device_state_manager.c.obj
                0x0002579c                dsm_subnet_update
 .text.dsm_subnet_update_swap_keys
                0x00025840       0x50 examples/pb_remote/server/CMakeFiles/pb_remote_server_nrf52832_xxAA_s132_3.1.0.dir/__/__/__/mesh/access/src/device_state_manager.c.obj
                0x00025840                dsm_subnet_update_swap_keys
 .text.dsm_subnet_update_commit
                0x00025890       0xb8 examples/pb_remote/server/CMakeFiles/pb_remote_server_nrf52832_xxAA_s132_3.1.0.dir/__/__/__/mesh/access/src/device_state_manager.c.obj
                0x00025890                dsm_subnet_update_commit
 .text.net_beacon_callback
                0x00025948       0x74 examples/pb_remote/server/CMakeFiles/pb_remote_server_nrf52832_xxAA_s132_3.1.0.dir/__/__/__/mesh/access/src/device_state_manager.c.obj
 .text.dsm_subnet_get_all
                0x000259bc       0x3c examples/pb_remote/server/CMakeFiles/pb_remote_server_nrf52832_xxAA_s132_3.1.0.dir/__/__/__/mesh/access/src/device_state_manager.c.obj
                0x000259bc                dsm_subnet_get_all
 .text.dsm_devkey_add
                0x000259f8       0x78 examples/pb_remote/server/CMakeFiles/pb_remote_server_nrf52832_xxAA_s132_3.1.0.dir/__/__/__/mesh/access/src/device_state_manager.c.obj
                0x000259f8                dsm_devkey_add
 .text.dsm_devkey_delete
                0x00025a70       0x38 examples/pb_remote/server/CMakeFiles/pb_remote_server_nrf52832_xxAA_s132_3.1.0.dir/__/__/__/mesh/access/src/device_state_manager.c.obj
                0x00025a70                dsm_devkey_delete
 .text.dsm_appkey_add
                0x00025aa8       0x70 examples/pb_remote/server/CMakeFiles/pb_remote_server_nrf52832_xxAA_s132_3.1.0.dir/__/__/__/mesh/access/src/device_state_manager.c.obj
                0x00025aa8                dsm_appkey_add
 .text.dsm_appkey_update
                0x00025b18       0x8c examples/pb_remote/server/CMakeFiles/pb_remote_server_nrf52832_xxAA_s132_3.1.0.dir/__/__/__/mesh/access/src/device_state_manager.c.obj
                0x00025b18                dsm_appkey_update
 .text.dsm_appkey_delete
                0x00025ba4       0x2c examples/pb_remote/server/CMakeFiles/pb_remote_server_nrf52832_xxAA_s132_3.1.0.dir/__/__/__/mesh/access/src/device_state_manager.c.obj
                0x00025ba4                dsm_appkey_delete
 .text.dsm_subnet_delete
                0x00025bd0       0x84 examples/pb_remote/server/CMakeFiles/pb_remote_server_nrf52832_xxAA_s132_3.1.0.dir/__/__/__/mesh/access/src/device_state_manager.c.obj
                0x00025bd0                dsm_subnet_delete
 .text.dsm_appkey_get_all
                0x00025c54       0x58 examples/pb_remote/server/CMakeFiles/pb_remote_server_nrf52832_xxAA_s132_3.1.0.dir/__/__/__/mesh/access/src/device_state_manager.c.obj
                0x00025c54                dsm_appkey_get_all
 .text.dsm_tx_secmat_get
                0x00025cac       0xf0 examples/pb_remote/server/CMakeFiles/pb_remote_server_nrf52832_xxAA_s132_3.1.0.dir/__/__/__/mesh/access/src/device_state_manager.c.obj
                0x00025cac                dsm_tx_secmat_get
 .text.dsm_net_secmat_from_keyindex_get
                0x00025d9c       0x30 examples/pb_remote/server/CMakeFiles/pb_remote_server_nrf52832_xxAA_s132_3.1.0.dir/__/__/__/mesh/access/src/device_state_manager.c.obj
                0x00025d9c                dsm_net_secmat_from_keyindex_get
 .text.nrf_mesh_net_secmat_next_get
                0x00025dcc       0xa4 examples/pb_remote/server/CMakeFiles/pb_remote_server_nrf52832_xxAA_s132_3.1.0.dir/__/__/__/mesh/access/src/device_state_manager.c.obj
                0x00025dcc                nrf_mesh_net_secmat_next_get
 .text.nrf_mesh_app_secmat_next_get
                0x00025e70       0x84 examples/pb_remote/server/CMakeFiles/pb_remote_server_nrf52832_xxAA_s132_3.1.0.dir/__/__/__/mesh/access/src/device_state_manager.c.obj
                0x00025e70                nrf_mesh_app_secmat_next_get
 .text.nrf_mesh_devkey_secmat_get
                0x00025ef4       0x34 examples/pb_remote/server/CMakeFiles/pb_remote_server_nrf52832_xxAA_s132_3.1.0.dir/__/__/__/mesh/access/src/device_state_manager.c.obj
                0x00025ef4                nrf_mesh_devkey_secmat_get
 .text.nrf_mesh_beacon_info_next_get
                0x00025f28       0xc8 examples/pb_remote/server/CMakeFiles/pb_remote_server_nrf52832_xxAA_s132_3.1.0.dir/__/__/__/mesh/access/src/device_state_manager.c.obj
                0x00025f28                nrf_mesh_beacon_info_next_get
 .text.nrf_mesh_rx_address_get
                0x00025ff0       0xfc examples/pb_remote/server/CMakeFiles/pb_remote_server_nrf52832_xxAA_s132_3.1.0.dir/__/__/__/mesh/access/src/device_state_manager.c.obj
                0x00025ff0                nrf_mesh_rx_address_get
 .text.sd_softdevice_enable
                0x000260ec        0x4 examples/pb_remote/server/CMakeFiles/pb_remote_server_nrf52832_xxAA_s132_3.1.0.dir/__/__/__/mesh/access/src/nrf_mesh_node_config.c.obj
 .text.sd_softdevice_is_enabled
                0x000260f0        0x4 examples/pb_remote/server/CMakeFiles/pb_remote_server_nrf52832_xxAA_s132_3.1.0.dir/__/__/__/mesh/access/src/nrf_mesh_node_config.c.obj
 .text.default_softdevice_assertion_handler
                0x000260f4       0x7c examples/pb_remote/server/CMakeFiles/pb_remote_server_nrf52832_xxAA_s132_3.1.0.dir/__/__/__/mesh/access/src/nrf_mesh_node_config.c.obj
 .text.config_server_cb
                0x00026170       0x28 examples/pb_remote/server/CMakeFiles/pb_remote_server_nrf52832_xxAA_s132_3.1.0.dir/__/__/__/mesh/access/src/nrf_mesh_node_config.c.obj
 .text.flash_stable_cb
                0x00026198       0x20 examples/pb_remote/server/CMakeFiles/pb_remote_server_nrf52832_xxAA_s132_3.1.0.dir/__/__/__/mesh/access/src/nrf_mesh_node_config.c.obj
 .text.start_provisionee
                0x000261b8       0x18 examples/pb_remote/server/CMakeFiles/pb_remote_server_nrf52832_xxAA_s132_3.1.0.dir/__/__/__/mesh/access/src/nrf_mesh_node_config.c.obj
 .text.prov_evt_handler
                0x000261d0       0xf0 examples/pb_remote/server/CMakeFiles/pb_remote_server_nrf52832_xxAA_s132_3.1.0.dir/__/__/__/mesh/access/src/nrf_mesh_node_config.c.obj
 .text.default_mesh_assertion_handler
                0x000262c0       0x74 examples/pb_remote/server/CMakeFiles/pb_remote_server_nrf52832_xxAA_s132_3.1.0.dir/__/__/__/mesh/access/src/nrf_mesh_node_config.c.obj
                0x000262c0                default_mesh_assertion_handler
 .text.softdevice_setup
                0x00026334       0x54 examples/pb_remote/server/CMakeFiles/pb_remote_server_nrf52832_xxAA_s132_3.1.0.dir/__/__/__/mesh/access/src/nrf_mesh_node_config.c.obj
                0x00026334                softdevice_setup
 .text.nrf_mesh_node_config
                0x00026388      0x13c examples/pb_remote/server/CMakeFiles/pb_remote_server_nrf52832_xxAA_s132_3.1.0.dir/__/__/__/mesh/access/src/nrf_mesh_node_config.c.obj
                0x00026388                nrf_mesh_node_config
 .text.config_composition_data_get
                0x000264c4      0x1cc examples/pb_remote/server/CMakeFiles/pb_remote_server_nrf52832_xxAA_s132_3.1.0.dir/__/__/__/models/config/src/composition_data.c.obj
                0x000264c4                config_composition_data_get
 .text.app_evt_send
                0x00026690       0x10 examples/pb_remote/server/CMakeFiles/pb_remote_server_nrf52832_xxAA_s132_3.1.0.dir/__/__/__/models/config/src/config_server.c.obj
 .text.extract_model_id
                0x000266a0       0x12 examples/pb_remote/server/CMakeFiles/pb_remote_server_nrf52832_xxAA_s132_3.1.0.dir/__/__/__/models/config/src/config_server.c.obj
 *fill*         0x000266b2        0x2 
 .text.config_server_heartbeat_publication_count_decrement
                0x000266b4       0x1c examples/pb_remote/server/CMakeFiles/pb_remote_server_nrf52832_xxAA_s132_3.1.0.dir/__/__/__/models/config/src/config_server.c.obj
 .text.get_element_index
                0x000266d0       0x26 examples/pb_remote/server/CMakeFiles/pb_remote_server_nrf52832_xxAA_s132_3.1.0.dir/__/__/__/models/config/src/config_server.c.obj
 *fill*         0x000266f6        0x2 
 .text.config_server_heartbeat_publication_params_get
                0x000266f8       0x34 examples/pb_remote/server/CMakeFiles/pb_remote_server_nrf52832_xxAA_s132_3.1.0.dir/__/__/__/models/config/src/config_server.c.obj
 .text.send_reply
                0x0002672c       0x3a examples/pb_remote/server/CMakeFiles/pb_remote_server_nrf52832_xxAA_s132_3.1.0.dir/__/__/__/models/config/src/config_server.c.obj
 *fill*         0x00026766        0x2 
 .text.send_network_transmit_status
                0x00026768       0x84 examples/pb_remote/server/CMakeFiles/pb_remote_server_nrf52832_xxAA_s132_3.1.0.dir/__/__/__/models/config/src/config_server.c.obj
 .text.handle_config_network_transmit_set
                0x000267ec       0x98 examples/pb_remote/server/CMakeFiles/pb_remote_server_nrf52832_xxAA_s132_3.1.0.dir/__/__/__/models/config/src/config_server.c.obj
 .text.handle_config_network_transmit_get
                0x00026884        0xa examples/pb_remote/server/CMakeFiles/pb_remote_server_nrf52832_xxAA_s132_3.1.0.dir/__/__/__/models/config/src/config_server.c.obj
 *fill*         0x0002688e        0x2 
 .text.send_relay_status
                0x00026890       0xac examples/pb_remote/server/CMakeFiles/pb_remote_server_nrf52832_xxAA_s132_3.1.0.dir/__/__/__/models/config/src/config_server.c.obj
 .text.handle_config_relay_set
                0x0002693c       0xcc examples/pb_remote/server/CMakeFiles/pb_remote_server_nrf52832_xxAA_s132_3.1.0.dir/__/__/__/models/config/src/config_server.c.obj
 .text.handle_config_relay_get
                0x00026a08        0xa examples/pb_remote/server/CMakeFiles/pb_remote_server_nrf52832_xxAA_s132_3.1.0.dir/__/__/__/models/config/src/config_server.c.obj
 .text.send_subscription_status
                0x00026a12       0x3a examples/pb_remote/server/CMakeFiles/pb_remote_server_nrf52832_xxAA_s132_3.1.0.dir/__/__/__/models/config/src/config_server.c.obj
 .text.send_generic_error_reply
                0x00026a4c       0x42 examples/pb_remote/server/CMakeFiles/pb_remote_server_nrf52832_xxAA_s132_3.1.0.dir/__/__/__/models/config/src/config_server.c.obj
 *fill*         0x00026a8e        0x2 
 .text.handle_model_app_get
                0x00026a90      0x18c examples/pb_remote/server/CMakeFiles/pb_remote_server_nrf52832_xxAA_s132_3.1.0.dir/__/__/__/models/config/src/config_server.c.obj
 .text.handle_node_reset
                0x00026c1c       0x38 examples/pb_remote/server/CMakeFiles/pb_remote_server_nrf52832_xxAA_s132_3.1.0.dir/__/__/__/models/config/src/config_server.c.obj
 .text.handle_netkey_get
                0x00026c54       0x5e examples/pb_remote/server/CMakeFiles/pb_remote_server_nrf52832_xxAA_s132_3.1.0.dir/__/__/__/models/config/src/config_server.c.obj
 .text.handle_model_app_bind_unbind
                0x00026cb2       0xfa examples/pb_remote/server/CMakeFiles/pb_remote_server_nrf52832_xxAA_s132_3.1.0.dir/__/__/__/models/config/src/config_server.c.obj
 .text.handle_config_model_subscription_virtual_address_add
                0x00026dac      0x120 examples/pb_remote/server/CMakeFiles/pb_remote_server_nrf52832_xxAA_s132_3.1.0.dir/__/__/__/models/config/src/config_server.c.obj
 .text.delete_all_subscriptions
                0x00026ecc       0x84 examples/pb_remote/server/CMakeFiles/pb_remote_server_nrf52832_xxAA_s132_3.1.0.dir/__/__/__/models/config/src/config_server.c.obj
 .text.handle_config_model_subscription_virtual_address_overwrite
                0x00026f50      0x144 examples/pb_remote/server/CMakeFiles/pb_remote_server_nrf52832_xxAA_s132_3.1.0.dir/__/__/__/models/config/src/config_server.c.obj
 .text.handle_config_model_subscription_delete_all
                0x00027094       0xb6 examples/pb_remote/server/CMakeFiles/pb_remote_server_nrf52832_xxAA_s132_3.1.0.dir/__/__/__/models/config/src/config_server.c.obj
 *fill*         0x0002714a        0x2 
 .text.handle_config_model_subscription_virtual_address_delete
                0x0002714c      0x130 examples/pb_remote/server/CMakeFiles/pb_remote_server_nrf52832_xxAA_s132_3.1.0.dir/__/__/__/models/config/src/config_server.c.obj
 .text.handle_config_model_subscription_delete
                0x0002727c      0x124 examples/pb_remote/server/CMakeFiles/pb_remote_server_nrf52832_xxAA_s132_3.1.0.dir/__/__/__/models/config/src/config_server.c.obj
 .text.handle_config_model_subscription_overwrite
                0x000273a0      0x134 examples/pb_remote/server/CMakeFiles/pb_remote_server_nrf52832_xxAA_s132_3.1.0.dir/__/__/__/models/config/src/config_server.c.obj
 .text.handle_config_model_subscription_add
                0x000274d4      0x120 examples/pb_remote/server/CMakeFiles/pb_remote_server_nrf52832_xxAA_s132_3.1.0.dir/__/__/__/models/config/src/config_server.c.obj
 .text.send_publication_status
                0x000275f4      0x174 examples/pb_remote/server/CMakeFiles/pb_remote_server_nrf52832_xxAA_s132_3.1.0.dir/__/__/__/models/config/src/config_server.c.obj
 .text.handle_config_model_publication_get
                0x00027768       0x60 examples/pb_remote/server/CMakeFiles/pb_remote_server_nrf52832_xxAA_s132_3.1.0.dir/__/__/__/models/config/src/config_server.c.obj
 .text.handle_config_default_ttl_getset
                0x000277c8       0x62 examples/pb_remote/server/CMakeFiles/pb_remote_server_nrf52832_xxAA_s132_3.1.0.dir/__/__/__/models/config/src/config_server.c.obj
 .text.send_net_beacon_state
                0x0002782a       0x2a examples/pb_remote/server/CMakeFiles/pb_remote_server_nrf52832_xxAA_s132_3.1.0.dir/__/__/__/models/config/src/config_server.c.obj
 .text.handle_config_beacon_get
                0x00027854        0xa examples/pb_remote/server/CMakeFiles/pb_remote_server_nrf52832_xxAA_s132_3.1.0.dir/__/__/__/models/config/src/config_server.c.obj
 .text.handle_composition_data_get
                0x0002785e       0x42 examples/pb_remote/server/CMakeFiles/pb_remote_server_nrf52832_xxAA_s132_3.1.0.dir/__/__/__/models/config/src/config_server.c.obj
 .text.handle_appkey_get
                0x000278a0       0xae examples/pb_remote/server/CMakeFiles/pb_remote_server_nrf52832_xxAA_s132_3.1.0.dir/__/__/__/models/config/src/config_server.c.obj
 *fill*         0x0002794e        0x2 
 .text.handle_config_model_publication_set
                0x00027950      0x1ec examples/pb_remote/server/CMakeFiles/pb_remote_server_nrf52832_xxAA_s132_3.1.0.dir/__/__/__/models/config/src/config_server.c.obj
 .text.handle_heartbeat_publication_set
                0x00027b3c      0x124 examples/pb_remote/server/CMakeFiles/pb_remote_server_nrf52832_xxAA_s132_3.1.0.dir/__/__/__/models/config/src/config_server.c.obj
 .text.heartbeat_pubsub_period_encode
                0x00027c60       0x34 examples/pb_remote/server/CMakeFiles/pb_remote_server_nrf52832_xxAA_s132_3.1.0.dir/__/__/__/models/config/src/config_server.c.obj
 .text.handle_node_identity_set
                0x00027c94       0x30 examples/pb_remote/server/CMakeFiles/pb_remote_server_nrf52832_xxAA_s132_3.1.0.dir/__/__/__/models/config/src/config_server.c.obj
 .text.handle_node_identity_get
                0x00027cc4       0x2c examples/pb_remote/server/CMakeFiles/pb_remote_server_nrf52832_xxAA_s132_3.1.0.dir/__/__/__/models/config/src/config_server.c.obj
 .text.handle_config_gatt_proxy_set
                0x00027cf0       0x1e examples/pb_remote/server/CMakeFiles/pb_remote_server_nrf52832_xxAA_s132_3.1.0.dir/__/__/__/models/config/src/config_server.c.obj
 .text.handle_config_friend_set
                0x00027d0e       0x1e examples/pb_remote/server/CMakeFiles/pb_remote_server_nrf52832_xxAA_s132_3.1.0.dir/__/__/__/models/config/src/config_server.c.obj
 .text.handle_netkey_delete
                0x00027d2c       0x78 examples/pb_remote/server/CMakeFiles/pb_remote_server_nrf52832_xxAA_s132_3.1.0.dir/__/__/__/models/config/src/config_server.c.obj
 .text.handle_config_key_refresh_phase_get
                0x00027da4       0x50 examples/pb_remote/server/CMakeFiles/pb_remote_server_nrf52832_xxAA_s132_3.1.0.dir/__/__/__/models/config/src/config_server.c.obj
 .text.handle_config_key_refresh_phase_set
                0x00027df4       0xc4 examples/pb_remote/server/CMakeFiles/pb_remote_server_nrf52832_xxAA_s132_3.1.0.dir/__/__/__/models/config/src/config_server.c.obj
 .text.handle_config_beacon_set
                0x00027eb8       0x42 examples/pb_remote/server/CMakeFiles/pb_remote_server_nrf52832_xxAA_s132_3.1.0.dir/__/__/__/models/config/src/config_server.c.obj
 .text.handle_appkey_add_update
                0x00027efa       0xd8 examples/pb_remote/server/CMakeFiles/pb_remote_server_nrf52832_xxAA_s132_3.1.0.dir/__/__/__/models/config/src/config_server.c.obj
 *fill*         0x00027fd2        0x2 
 .text.handle_config_vendor_model_subscription_get
                0x00027fd4       0xdc examples/pb_remote/server/CMakeFiles/pb_remote_server_nrf52832_xxAA_s132_3.1.0.dir/__/__/__/models/config/src/config_server.c.obj
 .text.heartbeat_pubsub_count_encode
                0x000280b0       0x34 examples/pb_remote/server/CMakeFiles/pb_remote_server_nrf52832_xxAA_s132_3.1.0.dir/__/__/__/models/config/src/config_server.c.obj
 .text.handle_heartbeat_publication_get
                0x000280e4       0x58 examples/pb_remote/server/CMakeFiles/pb_remote_server_nrf52832_xxAA_s132_3.1.0.dir/__/__/__/models/config/src/config_server.c.obj
 .text.handle_heartbeat_subscription_get
                0x0002813c       0x60 examples/pb_remote/server/CMakeFiles/pb_remote_server_nrf52832_xxAA_s132_3.1.0.dir/__/__/__/models/config/src/config_server.c.obj
 .text.handle_config_sig_model_subscription_get
                0x0002819c       0xd8 examples/pb_remote/server/CMakeFiles/pb_remote_server_nrf52832_xxAA_s132_3.1.0.dir/__/__/__/models/config/src/config_server.c.obj
 .text.handle_heartbeat_subscription_set
                0x00028274       0xca examples/pb_remote/server/CMakeFiles/pb_remote_server_nrf52832_xxAA_s132_3.1.0.dir/__/__/__/models/config/src/config_server.c.obj
 .text.handle_config_friend_get
                0x0002833e       0x20 examples/pb_remote/server/CMakeFiles/pb_remote_server_nrf52832_xxAA_s132_3.1.0.dir/__/__/__/models/config/src/config_server.c.obj
 .text.handle_config_gatt_proxy_get
                0x0002835e       0x20 examples/pb_remote/server/CMakeFiles/pb_remote_server_nrf52832_xxAA_s132_3.1.0.dir/__/__/__/models/config/src/config_server.c.obj
 .text.handle_appkey_delete
                0x0002837e       0x84 examples/pb_remote/server/CMakeFiles/pb_remote_server_nrf52832_xxAA_s132_3.1.0.dir/__/__/__/models/config/src/config_server.c.obj
 *fill*         0x00028402        0x2 
 .text.handle_netkey_add_update
                0x00028404       0x9c examples/pb_remote/server/CMakeFiles/pb_remote_server_nrf52832_xxAA_s132_3.1.0.dir/__/__/__/models/config/src/config_server.c.obj
 .text.config_server_init
                0x000284a0       0x68 examples/pb_remote/server/CMakeFiles/pb_remote_server_nrf52832_xxAA_s132_3.1.0.dir/__/__/__/models/config/src/config_server.c.obj
                0x000284a0                config_server_init
 .text.config_server_bind
                0x00028508       0x10 examples/pb_remote/server/CMakeFiles/pb_remote_server_nrf52832_xxAA_s132_3.1.0.dir/__/__/__/models/config/src/config_server.c.obj
                0x00028508                config_server_bind
 .text.packed_index_list_size
                0x00028518       0x10 examples/pb_remote/server/CMakeFiles/pb_remote_server_nrf52832_xxAA_s132_3.1.0.dir/__/__/__/models/config/src/packed_index_list.c.obj
                0x00028518                packed_index_list_size
 .text.packed_index_list_create
                0x00028528       0x32 examples/pb_remote/server/CMakeFiles/pb_remote_server_nrf52832_xxAA_s132_3.1.0.dir/__/__/__/models/config/src/packed_index_list.c.obj
                0x00028528                packed_index_list_create
 *fill*         0x0002855a        0x2 
 .text.attention_timer_set
                0x0002855c       0xa4 examples/pb_remote/server/CMakeFiles/pb_remote_server_nrf52832_xxAA_s132_3.1.0.dir/__/__/__/models/health/src/health_server.c.obj
 .text.attention_timer_handler
                0x00028600       0x68 examples/pb_remote/server/CMakeFiles/pb_remote_server_nrf52832_xxAA_s132_3.1.0.dir/__/__/__/models/health/src/health_server.c.obj
 .text.send_attention_status.isra.1
                0x00028668       0x3e examples/pb_remote/server/CMakeFiles/pb_remote_server_nrf52832_xxAA_s132_3.1.0.dir/__/__/__/models/health/src/health_server.c.obj
 .text.handle_attention_set
                0x000286a6       0x32 examples/pb_remote/server/CMakeFiles/pb_remote_server_nrf52832_xxAA_s132_3.1.0.dir/__/__/__/models/health/src/health_server.c.obj
 .text.send_period_status.isra.4
                0x000286d8       0x3e examples/pb_remote/server/CMakeFiles/pb_remote_server_nrf52832_xxAA_s132_3.1.0.dir/__/__/__/models/health/src/health_server.c.obj
 .text.handle_period_set
                0x00028716       0x28 examples/pb_remote/server/CMakeFiles/pb_remote_server_nrf52832_xxAA_s132_3.1.0.dir/__/__/__/models/health/src/health_server.c.obj
 *fill*         0x0002873e        0x2 
 .text.bitfield_next_get.part.0.constprop.13
                0x00028740       0x44 examples/pb_remote/server/CMakeFiles/pb_remote_server_nrf52832_xxAA_s132_3.1.0.dir/__/__/__/models/health/src/health_server.c.obj
 .text.bitfield_popcount.constprop.11
                0x00028784       0x28 examples/pb_remote/server/CMakeFiles/pb_remote_server_nrf52832_xxAA_s132_3.1.0.dir/__/__/__/models/health/src/health_server.c.obj
 .text.send_fault_status
                0x000287ac       0xa4 examples/pb_remote/server/CMakeFiles/pb_remote_server_nrf52832_xxAA_s132_3.1.0.dir/__/__/__/models/health/src/health_server.c.obj
 .text.health_publish_timeout_handler
                0x00028850        0xa examples/pb_remote/server/CMakeFiles/pb_remote_server_nrf52832_xxAA_s132_3.1.0.dir/__/__/__/models/health/src/health_server.c.obj
 *fill*         0x0002885a        0x2 
 .text.handle_fault_test
                0x0002885c       0x74 examples/pb_remote/server/CMakeFiles/pb_remote_server_nrf52832_xxAA_s132_3.1.0.dir/__/__/__/models/health/src/health_server.c.obj
 .text.handle_fault_get
                0x000288d0       0x40 examples/pb_remote/server/CMakeFiles/pb_remote_server_nrf52832_xxAA_s132_3.1.0.dir/__/__/__/models/health/src/health_server.c.obj
 .text.handle_fault_clear
                0x00028910       0x54 examples/pb_remote/server/CMakeFiles/pb_remote_server_nrf52832_xxAA_s132_3.1.0.dir/__/__/__/models/health/src/health_server.c.obj
 .text.handle_attention_get
                0x00028964       0x14 examples/pb_remote/server/CMakeFiles/pb_remote_server_nrf52832_xxAA_s132_3.1.0.dir/__/__/__/models/health/src/health_server.c.obj
 .text.handle_period_get
                0x00028978       0x12 examples/pb_remote/server/CMakeFiles/pb_remote_server_nrf52832_xxAA_s132_3.1.0.dir/__/__/__/models/health/src/health_server.c.obj
 *fill*         0x0002898a        0x2 
 .text.health_server_init
                0x0002898c       0x6c examples/pb_remote/server/CMakeFiles/pb_remote_server_nrf52832_xxAA_s132_3.1.0.dir/__/__/__/models/health/src/health_server.c.obj
                0x0002898c                health_server_init
 .text.errata_57
                0x000289f8       0x34 examples/pb_remote/server/CMakeFiles/pb_remote_server_nrf52832_xxAA_s132_3.1.0.dir/__/__/__/external/nRF5_SDK_14.2.0_17b948a/components/toolchain/system_nrf52.c.obj
 .text.errata_136
                0x00028a2c       0x40 examples/pb_remote/server/CMakeFiles/pb_remote_server_nrf52832_xxAA_s132_3.1.0.dir/__/__/__/external/nRF5_SDK_14.2.0_17b948a/components/toolchain/system_nrf52.c.obj
 .text.SystemInit
                0x00028a6c      0x238 examples/pb_remote/server/CMakeFiles/pb_remote_server_nrf52832_xxAA_s132_3.1.0.dir/__/__/__/external/nRF5_SDK_14.2.0_17b948a/components/toolchain/system_nrf52.c.obj
                0x00028a6c                SystemInit
 .text          0x00028ca4       0x3c examples/pb_remote/server/CMakeFiles/pb_remote_server_nrf52832_xxAA_s132_3.1.0.dir/__/__/__/external/nRF5_SDK_14.2.0_17b948a/components/toolchain/gcc/gcc_startup_nrf52.S.obj
                0x00028ca4                Reset_Handler
                0x00028ccc                NMI_Handler
                0x00028cd0                MemoryManagement_Handler
                0x00028cd2                BusFault_Handler
                0x00028cd4                UsageFault_Handler
                0x00028cd6                SVC_Handler
                0x00028cd8                DebugMon_Handler
                0x00028cda                PendSV_Handler
                0x00028cdc                SysTick_Handler
                0x00028cde                RADIO_IRQHandler
                0x00028cde                PDM_IRQHandler
                0x00028cde                TEMP_IRQHandler
                0x00028cde                TIMER3_IRQHandler
                0x00028cde                FPU_IRQHandler
                0x00028cde                RTC0_IRQHandler
                0x00028cde                PWM1_IRQHandler
                0x00028cde                UARTE0_UART0_IRQHandler
                0x00028cde                POWER_CLOCK_IRQHandler
                0x00028cde                I2S_IRQHandler
                0x00028cde                SWI4_EGU4_IRQHandler
                0x00028cde                TIMER0_IRQHandler
                0x00028cde                SPIM0_SPIS0_TWIM0_TWIS0_SPI0_TWI0_IRQHandler
                0x00028cde                TIMER1_IRQHandler
                0x00028cde                PWM2_IRQHandler
                0x00028cde                ECB_IRQHandler
                0x00028cde                SPIM1_SPIS1_TWIM1_TWIS1_SPI1_TWI1_IRQHandler
                0x00028cde                Default_Handler
                0x00028cde                SAADC_IRQHandler
                0x00028cde                CCM_AAR_IRQHandler
                0x00028cde                WDT_IRQHandler
                0x00028cde                TIMER4_IRQHandler
                0x00028cde                SWI5_EGU5_IRQHandler
                0x00028cde                RNG_IRQHandler
                0x00028cde                RTC2_IRQHandler
                0x00028cde                PWM0_IRQHandler
                0x00028cde                SWI3_EGU3_IRQHandler
                0x00028cde                RTC1_IRQHandler
                0x00028cde                SWI1_EGU1_IRQHandler
                0x00028cde                SPIM2_SPIS2_SPI2_IRQHandler
                0x00028cde                NFCT_IRQHandler
                0x00028cde                SWI0_EGU0_IRQHandler
                0x00028cde                MWU_IRQHandler
                0x00028cde                TIMER2_IRQHandler
                0x00028cde                COMP_LPCOMP_IRQHandler
 .text.nrf_mesh_configure_device_uuid_reset
                0x00028ce0       0x28 mesh/core/libmesh_core_nrf52832_xxAA.a(nrf_mesh_configure.c.obj)
                0x00028ce0                nrf_mesh_configure_device_uuid_reset
 .text.nrf_mesh_configure_device_uuid_get
                0x00028d08        0x8 mesh/core/libmesh_core_nrf52832_xxAA.a(nrf_mesh_configure.c.obj)
                0x00028d08                nrf_mesh_configure_device_uuid_get
 .text.event_handle
                0x00028d10       0x30 mesh/core/libmesh_core_nrf52832_xxAA.a(event.c.obj)
                0x00028d10                event_handle
 .text.event_handler_add
                0x00028d40       0x28 mesh/core/libmesh_core_nrf52832_xxAA.a(event.c.obj)
                0x00028d40                event_handler_add
 .text.event_handler_remove
                0x00028d68       0x28 mesh/core/libmesh_core_nrf52832_xxAA.a(event.c.obj)
                0x00028d68                event_handler_remove
 .text.fifo_init
                0x00028d90       0x50 mesh/core/libmesh_core_nrf52832_xxAA.a(fifo.c.obj)
                0x00028d90                fifo_init
 .text.fifo_push
                0x00028de0       0x50 mesh/core/libmesh_core_nrf52832_xxAA.a(fifo.c.obj)
                0x00028de0                fifo_push
 .text.fifo_pop
                0x00028e30       0x52 mesh/core/libmesh_core_nrf52832_xxAA.a(fifo.c.obj)
                0x00028e30                fifo_pop
 .text.fifo_flush
                0x00028e82        0x6 mesh/core/libmesh_core_nrf52832_xxAA.a(fifo.c.obj)
                0x00028e82                fifo_flush
 .text.fifo_get_len
                0x00028e88        0x8 mesh/core/libmesh_core_nrf52832_xxAA.a(fifo.c.obj)
                0x00028e88                fifo_get_len
 .text.flash_mem_available
                0x00028e90       0x20 mesh/core/libmesh_core_nrf52832_xxAA.a(net_state.c.obj)
 .text.flash_store_iv_index
                0x00028eb0       0x38 mesh/core/libmesh_core_nrf52832_xxAA.a(net_state.c.obj)
 .text.seqnum_block_allocate
                0x00028ee8       0x48 mesh/core/libmesh_core_nrf52832_xxAA.a(net_state.c.obj)
 .text.net_state_reset
                0x00028f30       0x3c mesh/core/libmesh_core_nrf52832_xxAA.a(net_state.c.obj)
                0x00028f30                net_state_reset
 .text.flash_write_complete
                0x00028f6c       0x78 mesh/core/libmesh_core_nrf52832_xxAA.a(net_state.c.obj)
 .text.net_state_recover_from_flash
                0x00028fe4       0x8c mesh/core/libmesh_core_nrf52832_xxAA.a(net_state.c.obj)
                0x00028fe4                net_state_recover_from_flash
 .text.net_state_flash_area_get
                0x00029070        0xc mesh/core/libmesh_core_nrf52832_xxAA.a(net_state.c.obj)
                0x00029070                net_state_flash_area_get
 .text.init_flash_storage
                0x0002907c       0x40 mesh/core/libmesh_core_nrf52832_xxAA.a(net_state.c.obj)
 .text.net_state_init
                0x000290bc       0x48 mesh/core/libmesh_core_nrf52832_xxAA.a(net_state.c.obj)
                0x000290bc                net_state_init
 .text.net_state_iv_update_start
                0x00029104       0x64 mesh/core/libmesh_core_nrf52832_xxAA.a(net_state.c.obj)
                0x00029104                net_state_iv_update_start
 .text.iv_update_trigger_if_pending
                0x00029168       0x8c mesh/core/libmesh_core_nrf52832_xxAA.a(net_state.c.obj)
 .text.iv_update_timer_handler
                0x000291f4       0x74 mesh/core/libmesh_core_nrf52832_xxAA.a(net_state.c.obj)
 .text.net_state_seqnum_alloc
                0x00029268       0x68 mesh/core/libmesh_core_nrf52832_xxAA.a(net_state.c.obj)
                0x00029268                net_state_seqnum_alloc
 .text.net_state_iv_index_lock
                0x000292d0       0x48 mesh/core/libmesh_core_nrf52832_xxAA.a(net_state.c.obj)
                0x000292d0                net_state_iv_index_lock
 .text.net_state_key_refresh_phase_changed
                0x00029318       0x1e mesh/core/libmesh_core_nrf52832_xxAA.a(net_state.c.obj)
                0x00029318                net_state_key_refresh_phase_changed
 *fill*         0x00029336        0x2 
 .text.net_state_beacon_received
                0x00029338       0x94 mesh/core/libmesh_core_nrf52832_xxAA.a(net_state.c.obj)
                0x00029338                net_state_beacon_received
 .text.net_state_beacon_iv_index_get
                0x000293cc        0xc mesh/core/libmesh_core_nrf52832_xxAA.a(net_state.c.obj)
                0x000293cc                net_state_beacon_iv_index_get
 .text.net_state_tx_iv_index_get
                0x000293d8       0x14 mesh/core/libmesh_core_nrf52832_xxAA.a(net_state.c.obj)
                0x000293d8                net_state_tx_iv_index_get
 .text.net_state_rx_iv_index_get
                0x000293ec       0x18 mesh/core/libmesh_core_nrf52832_xxAA.a(net_state.c.obj)
                0x000293ec                net_state_rx_iv_index_get
 .text.net_state_iv_update_get
                0x00029404        0xc mesh/core/libmesh_core_nrf52832_xxAA.a(net_state.c.obj)
                0x00029404                net_state_iv_update_get
 .text.nrf_mesh_address_type_get
                0x00029410       0x10 mesh/core/libmesh_core_nrf52832_xxAA.a(nrf_mesh_utils.c.obj)
                0x00029410                nrf_mesh_address_type_get
 .text.sd_softdevice_is_enabled
                0x00029420        0x4 mesh/core/libmesh_core_nrf52832_xxAA.a(nrf_mesh.c.obj)
 .text.nrf_mesh_listen
                0x00029424      0x138 mesh/core/libmesh_core_nrf52832_xxAA.a(nrf_mesh.c.obj)
 .text.scanner_packet_process_cb
                0x0002955c       0x8c mesh/core/libmesh_core_nrf52832_xxAA.a(nrf_mesh.c.obj)
 .text.nrf_mesh_init
                0x000295e8       0xe4 mesh/core/libmesh_core_nrf52832_xxAA.a(nrf_mesh.c.obj)
                0x000295e8                nrf_mesh_init
 .text.nrf_mesh_enable
                0x000296cc       0x48 mesh/core/libmesh_core_nrf52832_xxAA.a(nrf_mesh.c.obj)
                0x000296cc                nrf_mesh_enable
 .text.nrf_mesh_packet_send
                0x00029714        0x4 mesh/core/libmesh_core_nrf52832_xxAA.a(nrf_mesh.c.obj)
                0x00029714                nrf_mesh_packet_send
 .text.nrf_mesh_on_ble_evt
                0x00029718        0x4 mesh/core/libmesh_core_nrf52832_xxAA.a(nrf_mesh.c.obj)
                0x00029718                nrf_mesh_on_ble_evt
 .text.nrf_mesh_on_sd_evt
                0x0002971c        0xa mesh/core/libmesh_core_nrf52832_xxAA.a(nrf_mesh.c.obj)
                0x0002971c                nrf_mesh_on_sd_evt
 .text.nrf_mesh_evt_handler_add
                0x00029726        0x4 mesh/core/libmesh_core_nrf52832_xxAA.a(nrf_mesh.c.obj)
                0x00029726                nrf_mesh_evt_handler_add
 .text.sd_power_reset_reason_clr
                0x0002972a        0x4 mesh/core/libmesh_core_nrf52832_xxAA.a(hal.c.obj)
 .text.sd_power_gpregret_set
                0x0002972e        0x4 mesh/core/libmesh_core_nrf52832_xxAA.a(hal.c.obj)
 *fill*         0x00029732        0x2 
 .text.hal_device_reset
                0x00029734       0x38 mesh/core/libmesh_core_nrf52832_xxAA.a(hal.c.obj)
                0x00029734                hal_device_reset
 .text.hal_lfclk_ppm_get
                0x0002976c       0x14 mesh/core/libmesh_core_nrf52832_xxAA.a(hal.c.obj)
                0x0002976c                hal_lfclk_ppm_get
 .text.add_to_add_list
                0x00029780       0x44 mesh/core/libmesh_core_nrf52832_xxAA.a(timer_scheduler.c.obj)
 .text.process_dirty_events
                0x000297c4       0x6c mesh/core/libmesh_core_nrf52832_xxAA.a(timer_scheduler.c.obj)
 .text.timer_cb
                0x00029830        0xc mesh/core/libmesh_core_nrf52832_xxAA.a(timer_scheduler.c.obj)
 .text.add_evt.constprop.0
                0x0002983c       0x68 mesh/core/libmesh_core_nrf52832_xxAA.a(timer_scheduler.c.obj)
 .text.process_add_list
                0x000298a4       0x48 mesh/core/libmesh_core_nrf52832_xxAA.a(timer_scheduler.c.obj)
 .text.flag_event_cb
                0x000298ec      0x100 mesh/core/libmesh_core_nrf52832_xxAA.a(timer_scheduler.c.obj)
 .text.timer_sch_init
                0x000299ec       0x24 mesh/core/libmesh_core_nrf52832_xxAA.a(timer_scheduler.c.obj)
                0x000299ec                timer_sch_init
 .text.timer_sch_schedule
                0x00029a10       0x50 mesh/core/libmesh_core_nrf52832_xxAA.a(timer_scheduler.c.obj)
                0x00029a10                timer_sch_schedule
 .text.timer_sch_abort
                0x00029a60       0x64 mesh/core/libmesh_core_nrf52832_xxAA.a(timer_scheduler.c.obj)
                0x00029a60                timer_sch_abort
 .text.timer_sch_reschedule
                0x00029ac4       0x70 mesh/core/libmesh_core_nrf52832_xxAA.a(timer_scheduler.c.obj)
                0x00029ac4                timer_sch_reschedule
 .text.timer_mut_unlock
                0x00029b34       0x10 mesh/core/libmesh_core_nrf52832_xxAA.a(timer.c.obj)
 .text.timer_order_cb
                0x00029b44       0x94 mesh/core/libmesh_core_nrf52832_xxAA.a(timer.c.obj)
                0x00029b44                timer_order_cb
 .text.timer_now
                0x00029bd8       0x48 mesh/core/libmesh_core_nrf52832_xxAA.a(timer.c.obj)
                0x00029bd8                timer_now
 .text.timer_event_handler
                0x00029c20       0x98 mesh/core/libmesh_core_nrf52832_xxAA.a(timer.c.obj)
                0x00029c20                timer_event_handler
 .text.timer_on_ts_begin
                0x00029cb8       0xfc mesh/core/libmesh_core_nrf52832_xxAA.a(timer.c.obj)
                0x00029cb8                timer_on_ts_begin
 .text.timer_on_ts_end
                0x00029db4       0x60 mesh/core/libmesh_core_nrf52832_xxAA.a(timer.c.obj)
                0x00029db4                timer_on_ts_end
 .text.timer_cb
                0x00029e14       0x10 mesh/core/libmesh_core_nrf52832_xxAA.a(ticker.c.obj)
 .text.ticker_init
                0x00029e24       0x3c mesh/core/libmesh_core_nrf52832_xxAA.a(ticker.c.obj)
                0x00029e24                ticker_init
 .text.sd_rand_application_bytes_available_get
                0x00029e60        0x4 mesh/core/libmesh_core_nrf52832_xxAA.a(rand.c.obj)
 .text.sd_rand_application_vector_get
                0x00029e64        0x4 mesh/core/libmesh_core_nrf52832_xxAA.a(rand.c.obj)
 .text.rand_prng_get
                0x00029e68       0x22 mesh/core/libmesh_core_nrf52832_xxAA.a(rand.c.obj)
                0x00029e68                rand_prng_get
 *fill*         0x00029e8a        0x2 
 .text.rand_hw_rng_get
                0x00029e8c       0x50 mesh/core/libmesh_core_nrf52832_xxAA.a(rand.c.obj)
                0x00029e8c                rand_hw_rng_get
 .text.rand_prng_seed
                0x00029edc       0x34 mesh/core/libmesh_core_nrf52832_xxAA.a(rand.c.obj)
                0x00029edc                rand_prng_seed
 .text.nrf_mesh_opt_set
                0x00029f10       0x26 mesh/core/libmesh_core_nrf52832_xxAA.a(nrf_mesh_opt.c.obj)
                0x00029f10                nrf_mesh_opt_set
 .text.nrf_mesh_opt_get
                0x00029f36       0x26 mesh/core/libmesh_core_nrf52832_xxAA.a(nrf_mesh_opt.c.obj)
                0x00029f36                nrf_mesh_opt_get
 .text.sd_radio_session_open
                0x00029f5c        0x4 mesh/core/libmesh_core_nrf52832_xxAA.a(timeslot.c.obj)
 .text.sd_radio_session_close
                0x00029f60        0x4 mesh/core/libmesh_core_nrf52832_xxAA.a(timeslot.c.obj)
 .text.sd_radio_request
                0x00029f64        0x4 mesh/core/libmesh_core_nrf52832_xxAA.a(timeslot.c.obj)
 .text.end_timer_handler
                0x00029f68       0x24 mesh/core/libmesh_core_nrf52832_xxAA.a(timeslot.c.obj)
 .text.get_end_time.constprop.10
                0x00029f8c       0x28 mesh/core/libmesh_core_nrf52832_xxAA.a(timeslot.c.obj)
 .text.handle_extend_end.constprop.3
                0x00029fb4       0xc0 mesh/core/libmesh_core_nrf52832_xxAA.a(timeslot.c.obj)
 .text.radio_signal_callback
                0x0002a074      0x14c mesh/core/libmesh_core_nrf52832_xxAA.a(timeslot.c.obj)
 .text.timeslot_sd_event_handler
                0x0002a1c0       0x44 mesh/core/libmesh_core_nrf52832_xxAA.a(timeslot.c.obj)
                0x0002a1c0                timeslot_sd_event_handler
 .text.timeslot_init
                0x0002a204       0x48 mesh/core/libmesh_core_nrf52832_xxAA.a(timeslot.c.obj)
                0x0002a204                timeslot_init
 .text.timeslot_start
                0x0002a24c       0x20 mesh/core/libmesh_core_nrf52832_xxAA.a(timeslot.c.obj)
                0x0002a24c                timeslot_start
 .text.timeslot_end_is_pending
                0x0002a26c       0x24 mesh/core/libmesh_core_nrf52832_xxAA.a(timeslot.c.obj)
                0x0002a26c                timeslot_end_is_pending
 .text.timeslot_start_time_get
                0x0002a290        0xc mesh/core/libmesh_core_nrf52832_xxAA.a(timeslot.c.obj)
                0x0002a290                timeslot_start_time_get
 .text.timeslot_remaining_time_get
                0x0002a29c       0x20 mesh/core/libmesh_core_nrf52832_xxAA.a(timeslot.c.obj)
                0x0002a29c                timeslot_remaining_time_get
 .text.timeslot_is_in_cb
                0x0002a2bc        0xc mesh/core/libmesh_core_nrf52832_xxAA.a(timeslot.c.obj)
                0x0002a2bc                timeslot_is_in_cb
 .text.timeslot_trigger
                0x0002a2c8       0x24 mesh/core/libmesh_core_nrf52832_xxAA.a(timeslot.c.obj)
                0x0002a2c8                timeslot_trigger
 .text.timeslot_stop
                0x0002a2ec       0x10 mesh/core/libmesh_core_nrf52832_xxAA.a(timeslot.c.obj)
                0x0002a2ec                timeslot_stop
 .text.timeslot_state_lock
                0x0002a2fc       0x28 mesh/core/libmesh_core_nrf52832_xxAA.a(timeslot.c.obj)
                0x0002a2fc                timeslot_state_lock
 .text.trigger_event_handler
                0x0002a324       0x1c mesh/core/libmesh_core_nrf52832_xxAA.a(bearer_event.c.obj)
 .text.evt_push
                0x0002a340       0x1c mesh/core/libmesh_core_nrf52832_xxAA.a(bearer_event.c.obj)
 .text.bearer_event_init
                0x0002a35c       0x48 mesh/core/libmesh_core_nrf52832_xxAA.a(bearer_event.c.obj)
                0x0002a35c                bearer_event_init
 .text.bearer_event_timer_post
                0x0002a3a4       0x30 mesh/core/libmesh_core_nrf52832_xxAA.a(bearer_event.c.obj)
                0x0002a3a4                bearer_event_timer_post
 .text.bearer_event_critical_section_begin
                0x0002a3d4       0x50 mesh/core/libmesh_core_nrf52832_xxAA.a(bearer_event.c.obj)
                0x0002a3d4                bearer_event_critical_section_begin
 .text.bearer_event_critical_section_end
                0x0002a424       0x4c mesh/core/libmesh_core_nrf52832_xxAA.a(bearer_event.c.obj)
                0x0002a424                bearer_event_critical_section_end
 .text.bearer_event_flag_add
                0x0002a470       0x50 mesh/core/libmesh_core_nrf52832_xxAA.a(bearer_event.c.obj)
                0x0002a470                bearer_event_flag_add
 .text.bearer_event_flag_set
                0x0002a4c0       0x50 mesh/core/libmesh_core_nrf52832_xxAA.a(bearer_event.c.obj)
                0x0002a4c0                bearer_event_flag_set
 .text.bearer_event_sequential_add
                0x0002a510       0x44 mesh/core/libmesh_core_nrf52832_xxAA.a(bearer_event.c.obj)
                0x0002a510                bearer_event_sequential_add
 .text.bearer_event_sequential_post
                0x0002a554       0x58 mesh/core/libmesh_core_nrf52832_xxAA.a(bearer_event.c.obj)
                0x0002a554                bearer_event_sequential_post
 .text.bearer_event_sequential_pending
                0x0002a5ac       0x1c mesh/core/libmesh_core_nrf52832_xxAA.a(bearer_event.c.obj)
                0x0002a5ac                bearer_event_sequential_pending
 .text.bearer_event_handler
                0x0002a5c8      0x104 mesh/core/libmesh_core_nrf52832_xxAA.a(bearer_event.c.obj)
                0x0002a5c8                bearer_event_handler
 .text.QDEC_IRQHandler
                0x0002a6cc        0x4 mesh/core/libmesh_core_nrf52832_xxAA.a(bearer_event.c.obj)
                0x0002a6cc                QDEC_IRQHandler
 .text.enc_aes_encrypt
                0x0002a6d0        0x4 mesh/core/libmesh_core_nrf52832_xxAA.a(enc.c.obj)
                0x0002a6d0                enc_aes_encrypt
 .text.enc_aes_cmac
                0x0002a6d4        0x4 mesh/core/libmesh_core_nrf52832_xxAA.a(enc.c.obj)
                0x0002a6d4                enc_aes_cmac
 .text.enc_aes_ccm_encrypt
                0x0002a6d8        0x4 mesh/core/libmesh_core_nrf52832_xxAA.a(enc.c.obj)
                0x0002a6d8                enc_aes_ccm_encrypt
 .text.enc_aes_ccm_decrypt
                0x0002a6dc        0x4 mesh/core/libmesh_core_nrf52832_xxAA.a(enc.c.obj)
                0x0002a6dc                enc_aes_ccm_decrypt
 .text.enc_nonce_generate
                0x0002a6e0       0xb8 mesh/core/libmesh_core_nrf52832_xxAA.a(enc.c.obj)
                0x0002a6e0                enc_nonce_generate
 .text.enc_s1   0x0002a798       0x38 mesh/core/libmesh_core_nrf52832_xxAA.a(enc.c.obj)
                0x0002a798                enc_s1
 .text.enc_k1   0x0002a7d0       0x48 mesh/core/libmesh_core_nrf52832_xxAA.a(enc.c.obj)
                0x0002a7d0                enc_k1
 .text.enc_k2   0x0002a818       0xd8 mesh/core/libmesh_core_nrf52832_xxAA.a(enc.c.obj)
                0x0002a818                enc_k2
 .text.enc_k3   0x0002a8f0       0x68 mesh/core/libmesh_core_nrf52832_xxAA.a(enc.c.obj)
                0x0002a8f0                enc_k3
 .text.enc_k4   0x0002a958       0x60 mesh/core/libmesh_core_nrf52832_xxAA.a(enc.c.obj)
                0x0002a958                enc_k4
 .text.header_transfuscate
                0x0002a9b8       0x54 mesh/core/libmesh_core_nrf52832_xxAA.a(network.c.obj)
 .text.allocate_packet
                0x0002aa0c      0x14c mesh/core/libmesh_core_nrf52832_xxAA.a(network.c.obj)
 .text.network_init
                0x0002ab58       0x2c mesh/core/libmesh_core_nrf52832_xxAA.a(network.c.obj)
                0x0002ab58                network_init
 .text.network_opt_set
                0x0002ab84       0x68 mesh/core/libmesh_core_nrf52832_xxAA.a(network.c.obj)
                0x0002ab84                network_opt_set
 .text.network_opt_get
                0x0002abec       0x4c mesh/core/libmesh_core_nrf52832_xxAA.a(network.c.obj)
                0x0002abec                network_opt_get
 .text.network_packet_alloc
                0x0002ac38       0x50 mesh/core/libmesh_core_nrf52832_xxAA.a(network.c.obj)
                0x0002ac38                network_packet_alloc
 .text.network_packet_send
                0x0002ac88      0x140 mesh/core/libmesh_core_nrf52832_xxAA.a(network.c.obj)
                0x0002ac88                network_packet_send
 .text.network_packet_in
                0x0002adc8      0x460 mesh/core/libmesh_core_nrf52832_xxAA.a(network.c.obj)
                0x0002adc8                network_packet_in
 .text.nrf_mesh_keygen_aid
                0x0002b228       0x12 mesh/core/libmesh_core_nrf52832_xxAA.a(nrf_mesh_keygen.c.obj)
                0x0002b228                nrf_mesh_keygen_aid
 .text.nrf_mesh_keygen_network_secmat
                0x0002b23a       0x20 mesh/core/libmesh_core_nrf52832_xxAA.a(nrf_mesh_keygen.c.obj)
                0x0002b23a                nrf_mesh_keygen_network_secmat
 *fill*         0x0002b25a        0x2 
 .text.nrf_mesh_keygen_beacon_secmat
                0x0002b25c       0x50 mesh/core/libmesh_core_nrf52832_xxAA.a(nrf_mesh_keygen.c.obj)
                0x0002b25c                nrf_mesh_keygen_beacon_secmat
 .text.nrf_mesh_keygen_virtual_address
                0x0002b2ac       0x50 mesh/core/libmesh_core_nrf52832_xxAA.a(nrf_mesh_keygen.c.obj)
                0x0002b2ac                nrf_mesh_keygen_virtual_address
 .text.list_insert
                0x0002b2fc       0x28 mesh/core/libmesh_core_nrf52832_xxAA.a(list.c.obj)
 .text.list_add
                0x0002b324       0x60 mesh/core/libmesh_core_nrf52832_xxAA.a(list.c.obj)
                0x0002b324                list_add
 .text.list_remove
                0x0002b384       0x48 mesh/core/libmesh_core_nrf52832_xxAA.a(list.c.obj)
                0x0002b384                list_remove
 .text.list_compare_add
                0x0002b3cc       0x80 mesh/core/libmesh_core_nrf52832_xxAA.a(list.c.obj)
                0x0002b3cc                list_compare_add
 .text.log_callback_rtt
                0x0002b44c       0x2c mesh/core/libmesh_core_nrf52832_xxAA.a(log.c.obj)
                0x0002b44c                log_callback_rtt
 .text.log_init
                0x0002b478       0x1c mesh/core/libmesh_core_nrf52832_xxAA.a(log.c.obj)
                0x0002b478                log_init
 .text.log_vprintf
                0x0002b494       0x18 mesh/core/libmesh_core_nrf52832_xxAA.a(log.c.obj)
                0x0002b494                log_vprintf
 .text.log_printf
                0x0002b4ac       0x18 mesh/core/libmesh_core_nrf52832_xxAA.a(log.c.obj)
                0x0002b4ac                log_printf
 .text.get_area_end
                0x0002b4c4        0xc mesh/core/libmesh_core_nrf52832_xxAA.a(flash_manager.c.obj)
 .text.handle_matches_filter
                0x0002b4d0       0x26 mesh/core/libmesh_core_nrf52832_xxAA.a(flash_manager.c.obj)
 *fill*         0x0002b4f6        0x2 
 .text.get_packet_buffer
                0x0002b4f8       0x2c mesh/core/libmesh_core_nrf52832_xxAA.a(flash_manager.c.obj)
 .text.get_entry_action
                0x0002b524       0x30 mesh/core/libmesh_core_nrf52832_xxAA.a(flash_manager.c.obj)
 .text.flash_area_is_blank
                0x0002b554       0x48 mesh/core/libmesh_core_nrf52832_xxAA.a(flash_manager.c.obj)
 .text.flash    0x0002b59c       0x1c mesh/core/libmesh_core_nrf52832_xxAA.a(flash_manager.c.obj)
 .text.free_packet_buffer
                0x0002b5b8       0x54 mesh/core/libmesh_core_nrf52832_xxAA.a(flash_manager.c.obj)
 .text.reserve_action_buffer
                0x0002b60c       0x24 mesh/core/libmesh_core_nrf52832_xxAA.a(flash_manager.c.obj)
 .text.commit_action_buffer
                0x0002b630       0x18 mesh/core/libmesh_core_nrf52832_xxAA.a(flash_manager.c.obj)
 .text.schedule_processing
                0x0002b648        0xc mesh/core/libmesh_core_nrf52832_xxAA.a(flash_manager.c.obj)
 .text.get_next_entry
                0x0002b654       0x40 mesh/core/libmesh_core_nrf52832_xxAA.a(flash_manager.c.obj)
 .text.get_last_entry.isra.1
                0x0002b694       0x30 mesh/core/libmesh_core_nrf52832_xxAA.a(flash_manager.c.obj)
 .text.process_action_queue
                0x0002b6c4      0x4e4 mesh/core/libmesh_core_nrf52832_xxAA.a(flash_manager.c.obj)
 .text.flash_op_ended_callback
                0x0002bba8       0x24 mesh/core/libmesh_core_nrf52832_xxAA.a(flash_manager.c.obj)
 .text.flash_manager_init
                0x0002bbcc       0x68 mesh/core/libmesh_core_nrf52832_xxAA.a(flash_manager.c.obj)
                0x0002bbcc                flash_manager_init
 .text.flash_manager_remove
                0x0002bc34       0x24 mesh/core/libmesh_core_nrf52832_xxAA.a(flash_manager.c.obj)
                0x0002bc34                flash_manager_remove
 .text.flash_manager_entry_get
                0x0002bc58       0x48 mesh/core/libmesh_core_nrf52832_xxAA.a(flash_manager.c.obj)
                0x0002bc58                flash_manager_entry_get
 .text.flash_manager_entry_next_get
                0x0002bca0       0x6c mesh/core/libmesh_core_nrf52832_xxAA.a(flash_manager.c.obj)
                0x0002bca0                flash_manager_entry_next_get
 .text.flash_manager_entry_alloc
                0x0002bd0c       0x78 mesh/core/libmesh_core_nrf52832_xxAA.a(flash_manager.c.obj)
                0x0002bd0c                flash_manager_entry_alloc
 .text.flash_manager_entry_commit
                0x0002bd84       0x12 mesh/core/libmesh_core_nrf52832_xxAA.a(flash_manager.c.obj)
                0x0002bd84                flash_manager_entry_commit
 *fill*         0x0002bd96        0x2 
 .text.flash_manager_entry_invalidate
                0x0002bd98       0x64 mesh/core/libmesh_core_nrf52832_xxAA.a(flash_manager.c.obj)
                0x0002bd98                flash_manager_entry_invalidate
 .text.flash_manager_add
                0x0002bdfc      0x248 mesh/core/libmesh_core_nrf52832_xxAA.a(flash_manager.c.obj)
                0x0002bdfc                flash_manager_add
 .text.flash_manager_mem_listener_register
                0x0002c044       0x44 mesh/core/libmesh_core_nrf52832_xxAA.a(flash_manager.c.obj)
                0x0002c044                flash_manager_mem_listener_register
 .text.flash_manager_is_stable
                0x0002c088       0x24 mesh/core/libmesh_core_nrf52832_xxAA.a(flash_manager.c.obj)
                0x0002c088                flash_manager_is_stable
 .text.flash_manager_on_defrag_end
                0x0002c0ac       0x58 mesh/core/libmesh_core_nrf52832_xxAA.a(flash_manager.c.obj)
                0x0002c0ac                flash_manager_on_defrag_end
 .text.flash_manager_recovery_page_get
                0x0002c104        0x4 mesh/core/libmesh_core_nrf52832_xxAA.a(flash_manager.c.obj)
                0x0002c104                flash_manager_recovery_page_get
 .text.flash_manager_action_queue_empty_cb_set
                0x0002c108       0x28 mesh/core/libmesh_core_nrf52832_xxAA.a(flash_manager.c.obj)
                0x0002c108                flash_manager_action_queue_empty_cb_set
 .text.utils_xor
                0x0002c130       0x14 mesh/core/libmesh_core_nrf52832_xxAA.a(ccm_soft.c.obj)
 .text.ccm_soft_authenticate_blocks
                0x0002c144       0x68 mesh/core/libmesh_core_nrf52832_xxAA.a(ccm_soft.c.obj)
 .text.utils_reverse_memcpy.constprop.0
                0x0002c1ac        0xa mesh/core/libmesh_core_nrf52832_xxAA.a(ccm_soft.c.obj)
 .text.ccm_soft_authenticate
                0x0002c1b6       0xa0 mesh/core/libmesh_core_nrf52832_xxAA.a(ccm_soft.c.obj)
 .text.ccm_soft_crypt
                0x0002c256       0x6c mesh/core/libmesh_core_nrf52832_xxAA.a(ccm_soft.c.obj)
 .text.ccm_soft_encrypt
                0x0002c2c2       0x70 mesh/core/libmesh_core_nrf52832_xxAA.a(ccm_soft.c.obj)
                0x0002c2c2                ccm_soft_encrypt
 .text.ccm_soft_decrypt
                0x0002c332       0xfe mesh/core/libmesh_core_nrf52832_xxAA.a(ccm_soft.c.obj)
                0x0002c332                ccm_soft_decrypt
 .text.beacon_init
                0x0002c430       0x48 mesh/core/libmesh_core_nrf52832_xxAA.a(beacon.c.obj)
                0x0002c430                beacon_init
 .text.beacon_create
                0x0002c478       0x46 mesh/core/libmesh_core_nrf52832_xxAA.a(beacon.c.obj)
                0x0002c478                beacon_create
 *fill*         0x0002c4be        0x2 
 .text.beacon_tx
                0x0002c4c0       0x3c mesh/core/libmesh_core_nrf52832_xxAA.a(beacon.c.obj)
                0x0002c4c0                beacon_tx
 .text.beacon_packet_in
                0x0002c4fc      0x160 mesh/core/libmesh_core_nrf52832_xxAA.a(beacon.c.obj)
                0x0002c4fc                beacon_packet_in
 .text.entry_get
                0x0002c65c       0x88 mesh/core/libmesh_core_nrf52832_xxAA.a(flash_manager_internal.c.obj)
                0x0002c65c                entry_get
 .text.is_power_of_two
                0x0002c6e4        0xe mesh/core/libmesh_core_nrf52832_xxAA.a(core_tx.c.obj)
 *fill*         0x0002c6f2        0x2 
 .text.bearer_if_get
                0x0002c6f4       0x44 mesh/core/libmesh_core_nrf52832_xxAA.a(core_tx.c.obj)
 .text.core_tx_complete_cb_set
                0x0002c738        0xc mesh/core/libmesh_core_nrf52832_xxAA.a(core_tx.c.obj)
                0x0002c738                core_tx_complete_cb_set
 .text.core_tx_packet_alloc
                0x0002c744       0x88 mesh/core/libmesh_core_nrf52832_xxAA.a(core_tx.c.obj)
                0x0002c744                core_tx_packet_alloc
 .text.core_tx_packet_send
                0x0002c7cc       0x80 mesh/core/libmesh_core_nrf52832_xxAA.a(core_tx.c.obj)
                0x0002c7cc                core_tx_packet_send
 .text.core_tx_packet_discard
                0x0002c84c       0x80 mesh/core/libmesh_core_nrf52832_xxAA.a(core_tx.c.obj)
                0x0002c84c                core_tx_packet_discard
 .text.core_tx_complete
                0x0002c8cc       0x10 mesh/core/libmesh_core_nrf52832_xxAA.a(core_tx.c.obj)
                0x0002c8cc                core_tx_complete
 .text.core_tx_bearer_register
                0x0002c8dc       0x84 mesh/core/libmesh_core_nrf52832_xxAA.a(core_tx.c.obj)
                0x0002c8dc                core_tx_bearer_register
 .text.heartbeat_subscription_timer_cb
                0x0002c960       0x1c mesh/core/libmesh_core_nrf52832_xxAA.a(heartbeat.c.obj)
 .text.heartbeat_opcode_handle
                0x0002c97c       0x78 mesh/core/libmesh_core_nrf52832_xxAA.a(heartbeat.c.obj)
 .text.heartbeat_send
                0x0002c9f4       0xd0 mesh/core/libmesh_core_nrf52832_xxAA.a(heartbeat.c.obj)
 .text.heartbeat_core_evt_cb
                0x0002cac4       0x90 mesh/core/libmesh_core_nrf52832_xxAA.a(heartbeat.c.obj)
 .text.heartbeat_publication_timer_cb
                0x0002cb54       0xc8 mesh/core/libmesh_core_nrf52832_xxAA.a(heartbeat.c.obj)
 .text.heartbeat_on_feature_change_trigger
                0x0002cc1c       0x50 mesh/core/libmesh_core_nrf52832_xxAA.a(heartbeat.c.obj)
                0x0002cc1c                heartbeat_on_feature_change_trigger
 .text.heartbeat_init
                0x0002cc6c       0x8c mesh/core/libmesh_core_nrf52832_xxAA.a(heartbeat.c.obj)
                0x0002cc6c                heartbeat_init
 .text.heartbeat_subscription_set
                0x0002ccf8       0x90 mesh/core/libmesh_core_nrf52832_xxAA.a(heartbeat.c.obj)
                0x0002ccf8                heartbeat_subscription_set
 .text.heartbeat_subscription_get
                0x0002cd88        0x8 mesh/core/libmesh_core_nrf52832_xxAA.a(heartbeat.c.obj)
                0x0002cd88                heartbeat_subscription_get
 .text.heartbeat_config_server_cb_set
                0x0002cd90       0x3c mesh/core/libmesh_core_nrf52832_xxAA.a(heartbeat.c.obj)
                0x0002cd90                heartbeat_config_server_cb_set
 .text.heartbeat_publication_state_updated
                0x0002cdcc       0x80 mesh/core/libmesh_core_nrf52832_xxAA.a(heartbeat.c.obj)
                0x0002cdcc                heartbeat_publication_state_updated
 .text.make_network_beacon_cmac
                0x0002ce4c       0x22 mesh/core/libmesh_core_nrf52832_xxAA.a(net_beacon.c.obj)
 *fill*         0x0002ce6e        0x2 
 .text.network_beacon_tx_cb
                0x0002ce70       0xe8 mesh/core/libmesh_core_nrf52832_xxAA.a(net_beacon.c.obj)
 .text.net_beacon_init
                0x0002cf58       0x60 mesh/core/libmesh_core_nrf52832_xxAA.a(net_beacon.c.obj)
                0x0002cf58                net_beacon_init
 .text.net_beacon_state_set
                0x0002cfb8       0x34 mesh/core/libmesh_core_nrf52832_xxAA.a(net_beacon.c.obj)
                0x0002cfb8                net_beacon_state_set
 .text.net_beacon_state_get
                0x0002cfec        0xc mesh/core/libmesh_core_nrf52832_xxAA.a(net_beacon.c.obj)
                0x0002cfec                net_beacon_state_get
 .text.net_beacon_packet_in
                0x0002cff8      0x104 mesh/core/libmesh_core_nrf52832_xxAA.a(net_beacon.c.obj)
                0x0002cff8                net_beacon_packet_in
 .text.packet_discard
                0x0002d0fc       0x14 mesh/core/libmesh_core_nrf52832_xxAA.a(core_tx_adv.c.obj)
 .text.packet_send
                0x0002d110       0x14 mesh/core/libmesh_core_nrf52832_xxAA.a(core_tx_adv.c.obj)
 .text.packet_alloc
                0x0002d124       0x3c mesh/core/libmesh_core_nrf52832_xxAA.a(core_tx_adv.c.obj)
 .text.adv_tx_complete_callback
                0x0002d160       0x30 mesh/core/libmesh_core_nrf52832_xxAA.a(core_tx_adv.c.obj)
 .text.core_tx_adv_init
                0x0002d190       0x58 mesh/core/libmesh_core_nrf52832_xxAA.a(core_tx_adv.c.obj)
                0x0002d190                core_tx_adv_init
 .text.core_tx_adv_count_set
                0x0002d1e8       0x38 mesh/core/libmesh_core_nrf52832_xxAA.a(core_tx_adv.c.obj)
                0x0002d1e8                core_tx_adv_count_set
 .text.core_tx_adv_count_get
                0x0002d220       0x28 mesh/core/libmesh_core_nrf52832_xxAA.a(core_tx_adv.c.obj)
                0x0002d220                core_tx_adv_count_get
 .text.core_tx_adv_interval_set
                0x0002d248       0x34 mesh/core/libmesh_core_nrf52832_xxAA.a(core_tx_adv.c.obj)
                0x0002d248                core_tx_adv_interval_set
 .text.core_tx_adv_interval_get
                0x0002d27c       0x34 mesh/core/libmesh_core_nrf52832_xxAA.a(core_tx_adv.c.obj)
                0x0002d27c                core_tx_adv_interval_get
 .text.ad_listener_subscribe
                0x0002d2b0       0x5c mesh/core/libmesh_core_nrf52832_xxAA.a(ad_listener.c.obj)
                0x0002d2b0                ad_listener_subscribe
 .text.ad_listener_process
                0x0002d30c       0x64 mesh/core/libmesh_core_nrf52832_xxAA.a(ad_listener.c.obj)
                0x0002d30c                ad_listener_process
 .text.adtype_filter_handle
                0x0002d370       0x64 mesh/core/libmesh_core_nrf52832_xxAA.a(ad_type_filter.c.obj)
 .text.bearer_adtype_filtering_set
                0x0002d3d4       0x1c mesh/core/libmesh_core_nrf52832_xxAA.a(ad_type_filter.c.obj)
                0x0002d3d4                bearer_adtype_filtering_set
 .text.bearer_adtype_add
                0x0002d3f0       0x20 mesh/core/libmesh_core_nrf52832_xxAA.a(ad_type_filter.c.obj)
                0x0002d3f0                bearer_adtype_add
 .text.bearer_adtype_mode_set
                0x0002d410       0x24 mesh/core/libmesh_core_nrf52832_xxAA.a(ad_type_filter.c.obj)
                0x0002d410                bearer_adtype_mode_set
 .text.set_gap_addr_type
                0x0002d434       0x34 mesh/core/libmesh_core_nrf52832_xxAA.a(advertiser.c.obj)
 .text.tx_complete_event_callback
                0x0002d468       0x3c mesh/core/libmesh_core_nrf52832_xxAA.a(advertiser.c.obj)
 .text.broadcast_complete_cb
                0x0002d4a4       0x64 mesh/core/libmesh_core_nrf52832_xxAA.a(advertiser.c.obj)
 .text.schedule_first_time
                0x0002d508       0x28 mesh/core/libmesh_core_nrf52832_xxAA.a(advertiser.c.obj)
 .text.timeout_event
                0x0002d530      0x130 mesh/core/libmesh_core_nrf52832_xxAA.a(advertiser.c.obj)
 .text.advertiser_init
                0x0002d660        0xc mesh/core/libmesh_core_nrf52832_xxAA.a(advertiser.c.obj)
                0x0002d660                advertiser_init
 .text.advertiser_enable
                0x0002d66c       0x2a mesh/core/libmesh_core_nrf52832_xxAA.a(advertiser.c.obj)
                0x0002d66c                advertiser_enable
 *fill*         0x0002d696        0x2 
 .text.advertiser_packet_alloc
                0x0002d698       0x94 mesh/core/libmesh_core_nrf52832_xxAA.a(advertiser.c.obj)
                0x0002d698                advertiser_packet_alloc
 .text.advertiser_packet_send
                0x0002d72c       0x78 mesh/core/libmesh_core_nrf52832_xxAA.a(advertiser.c.obj)
                0x0002d72c                advertiser_packet_send
 .text.advertiser_packet_discard
                0x0002d7a4       0x2c mesh/core/libmesh_core_nrf52832_xxAA.a(advertiser.c.obj)
                0x0002d7a4                advertiser_packet_discard
 .text.advertiser_interval_set
                0x0002d7d0       0x68 mesh/core/libmesh_core_nrf52832_xxAA.a(advertiser.c.obj)
                0x0002d7d0                advertiser_interval_set
 .text.advertiser_flush
                0x0002d838       0x1e mesh/core/libmesh_core_nrf52832_xxAA.a(advertiser.c.obj)
                0x0002d838                advertiser_flush
 *fill*         0x0002d856        0x2 
 .text.advertiser_address_default_get
                0x0002d858       0x38 mesh/core/libmesh_core_nrf52832_xxAA.a(advertiser.c.obj)
                0x0002d858                advertiser_address_default_get
 .text.advertiser_instance_init
                0x0002d890       0xbc mesh/core/libmesh_core_nrf52832_xxAA.a(advertiser.c.obj)
                0x0002d890                advertiser_instance_init
 .text.action_switch
                0x0002d94c       0xc0 mesh/core/libmesh_core_nrf52832_xxAA.a(bearer_handler.c.obj)
 .text.bearer_handler_init
                0x0002da0c       0x2c mesh/core/libmesh_core_nrf52832_xxAA.a(bearer_handler.c.obj)
                0x0002da0c                bearer_handler_init
 .text.bearer_handler_start
                0x0002da38       0x1c mesh/core/libmesh_core_nrf52832_xxAA.a(bearer_handler.c.obj)
                0x0002da38                bearer_handler_start
 .text.bearer_handler_action_enqueue
                0x0002da54       0x94 mesh/core/libmesh_core_nrf52832_xxAA.a(bearer_handler.c.obj)
                0x0002da54                bearer_handler_action_enqueue
 .text.bearer_handler_action_end
                0x0002dae8       0x78 mesh/core/libmesh_core_nrf52832_xxAA.a(bearer_handler.c.obj)
                0x0002dae8                bearer_handler_action_end
 .text.bearer_handler_radio_irq_handler
                0x0002db60       0x64 mesh/core/libmesh_core_nrf52832_xxAA.a(bearer_handler.c.obj)
                0x0002db60                bearer_handler_radio_irq_handler
 .text.bearer_handler_timer_irq_handler
                0x0002dbc4       0x30 mesh/core/libmesh_core_nrf52832_xxAA.a(bearer_handler.c.obj)
                0x0002dbc4                bearer_handler_timer_irq_handler
 .text.bearer_handler_on_ts_begin
                0x0002dbf4       0x44 mesh/core/libmesh_core_nrf52832_xxAA.a(bearer_handler.c.obj)
                0x0002dbf4                bearer_handler_on_ts_begin
 .text.bearer_handler_on_ts_end
                0x0002dc38       0x48 mesh/core/libmesh_core_nrf52832_xxAA.a(bearer_handler.c.obj)
                0x0002dc38                bearer_handler_on_ts_end
 .text.radio_irq_handler
                0x0002dc80       0xb0 mesh/core/libmesh_core_nrf52832_xxAA.a(broadcast.c.obj)
 .text.broadcast_start
                0x0002dd30       0x8c mesh/core/libmesh_core_nrf52832_xxAA.a(broadcast.c.obj)
 .text.broadcast_send
                0x0002ddbc       0x80 mesh/core/libmesh_core_nrf52832_xxAA.a(broadcast.c.obj)
                0x0002ddbc                broadcast_send
 .text.fen_filter_start
                0x0002de3c       0x3c mesh/core/libmesh_core_nrf52832_xxAA.a(filter_engine.c.obj)
                0x0002de3c                fen_filter_start
 .text.fen_filter_stop
                0x0002de78       0x2c mesh/core/libmesh_core_nrf52832_xxAA.a(filter_engine.c.obj)
                0x0002de78                fen_filter_stop
 .text.fen_filters_apply
                0x0002dea4       0x34 mesh/core/libmesh_core_nrf52832_xxAA.a(filter_engine.c.obj)
                0x0002dea4                fen_filters_apply
 .text.radio_config_reset
                0x0002ded8       0x34 mesh/core/libmesh_core_nrf52832_xxAA.a(radio_config.c.obj)
                0x0002ded8                radio_config_reset
 .text.radio_config_channel_set
                0x0002df0c       0x34 mesh/core/libmesh_core_nrf52832_xxAA.a(radio_config.c.obj)
                0x0002df0c                radio_config_channel_set
 .text.radio_config_config
                0x0002df40       0xa4 mesh/core/libmesh_core_nrf52832_xxAA.a(radio_config.c.obj)
                0x0002df40                radio_config_config
 .text.radio_config_access_addr_set
                0x0002dfe4       0x68 mesh/core/libmesh_core_nrf52832_xxAA.a(radio_config.c.obj)
                0x0002dfe4                radio_config_access_addr_set
 .text.radio_trigger
                0x0002e04c       0x24 mesh/core/libmesh_core_nrf52832_xxAA.a(scanner.c.obj)
 .text.scan_window_end
                0x0002e070       0x10 mesh/core/libmesh_core_nrf52832_xxAA.a(scanner.c.obj)
 .text.scan_window_start
                0x0002e080       0x24 mesh/core/libmesh_core_nrf52832_xxAA.a(scanner.c.obj)
 .text.radio_configure
                0x0002e0a4       0x78 mesh/core/libmesh_core_nrf52832_xxAA.a(scanner.c.obj)
 .text.radio_set_packet
                0x0002e11c       0x50 mesh/core/libmesh_core_nrf52832_xxAA.a(scanner.c.obj)
 .text.radio_start
                0x0002e16c       0x4c mesh/core/libmesh_core_nrf52832_xxAA.a(scanner.c.obj)
 .text.radio_stop
                0x0002e1b8       0x30 mesh/core/libmesh_core_nrf52832_xxAA.a(scanner.c.obj)
 .text.schedule_timers
                0x0002e1e8       0x38 mesh/core/libmesh_core_nrf52832_xxAA.a(scanner.c.obj)
 .text.scanner_radio_start
                0x0002e220       0x28 mesh/core/libmesh_core_nrf52832_xxAA.a(scanner.c.obj)
                0x0002e220                scanner_radio_start
 .text.scanner_radio_stop
                0x0002e248       0x10 mesh/core/libmesh_core_nrf52832_xxAA.a(scanner.c.obj)
                0x0002e248                scanner_radio_stop
 .text.scanner_radio_irq_handler
                0x0002e258      0x13c mesh/core/libmesh_core_nrf52832_xxAA.a(scanner.c.obj)
                0x0002e258                scanner_radio_irq_handler
 .text.scanner_enable
                0x0002e394       0x30 mesh/core/libmesh_core_nrf52832_xxAA.a(scanner.c.obj)
                0x0002e394                scanner_enable
 .text.scanner_packet_release
                0x0002e3c4       0x38 mesh/core/libmesh_core_nrf52832_xxAA.a(scanner.c.obj)
                0x0002e3c4                scanner_packet_release
 .text.scanner_rx
                0x0002e3fc       0x30 mesh/core/libmesh_core_nrf52832_xxAA.a(scanner.c.obj)
                0x0002e3fc                scanner_rx
 .text.scanner_rx_pending
                0x0002e42c        0xc mesh/core/libmesh_core_nrf52832_xxAA.a(scanner.c.obj)
                0x0002e42c                scanner_rx_pending
 .text.scanner_config_scan_time_set
                0x0002e438       0x68 mesh/core/libmesh_core_nrf52832_xxAA.a(scanner.c.obj)
                0x0002e438                scanner_config_scan_time_set
 .text.scanner_config_channels_set
                0x0002e4a0       0x64 mesh/core/libmesh_core_nrf52832_xxAA.a(scanner.c.obj)
                0x0002e4a0                scanner_config_channels_set
 .text.scanner_config_access_addresses_set
                0x0002e504       0x44 mesh/core/libmesh_core_nrf52832_xxAA.a(scanner.c.obj)
                0x0002e504                scanner_config_access_addresses_set
 .text.scanner_config_reset
                0x0002e548       0x50 mesh/core/libmesh_core_nrf52832_xxAA.a(scanner.c.obj)
                0x0002e548                scanner_config_reset
 .text.scanner_init
                0x0002e598       0x54 mesh/core/libmesh_core_nrf52832_xxAA.a(scanner.c.obj)
                0x0002e598                scanner_init
 .text.internal_event_push
                0x0002e5ec       0x28 mesh/core/libmesh_core_nrf52832_xxAA.a(internal_event.c.obj)
                0x0002e5ec                internal_event_push
 .text.sd_ecb_block_encrypt
                0x0002e614        0x4 mesh/core/libmesh_core_nrf52832_xxAA.a(aes.c.obj)
 .text.aes_encrypt
                0x0002e618       0x32 mesh/core/libmesh_core_nrf52832_xxAA.a(aes.c.obj)
                0x0002e618                aes_encrypt
 *fill*         0x0002e64a        0x2 
 .text.msg_cache_init
                0x0002e64c       0x24 mesh/core/libmesh_core_nrf52832_xxAA.a(msg_cache.c.obj)
                0x0002e64c                msg_cache_init
 .text.msg_cache_entry_exists
                0x0002e670       0x3c mesh/core/libmesh_core_nrf52832_xxAA.a(msg_cache.c.obj)
                0x0002e670                msg_cache_entry_exists
 .text.msg_cache_entry_add
                0x0002e6ac       0x2c mesh/core/libmesh_core_nrf52832_xxAA.a(msg_cache.c.obj)
                0x0002e6ac                msg_cache_entry_add
 .text.block_ack_full
                0x0002e6d8       0x28 mesh/core/libmesh_core_nrf52832_xxAA.a(transport.c.obj)
 .text.seqauth_sequence_number_get
                0x0002e700       0x12 mesh/core/libmesh_core_nrf52832_xxAA.a(transport.c.obj)
 *fill*         0x0002e712        0x2 
 .text.sar_rx_session_mark_as_handled
                0x0002e714       0x54 mesh/core/libmesh_core_nrf52832_xxAA.a(transport.c.obj)
 .text.sar_ctx_find
                0x0002e768       0x3c mesh/core/libmesh_core_nrf52832_xxAA.a(transport.c.obj)
 .text.control_packet_callback_get
                0x0002e7a4       0x44 mesh/core/libmesh_core_nrf52832_xxAA.a(transport.c.obj)
 .text.m_send_sar_cancel_event
                0x0002e7e8       0x28 mesh/core/libmesh_core_nrf52832_xxAA.a(transport.c.obj)
 .text.tx_complete
                0x0002e810       0x34 mesh/core/libmesh_core_nrf52832_xxAA.a(transport.c.obj)
 .text.upper_trs_packet_encrypt
                0x0002e844       0xbc mesh/core/libmesh_core_nrf52832_xxAA.a(transport.c.obj)
 .text.sar_ctx_free
                0x0002e900       0x3c mesh/core/libmesh_core_nrf52832_xxAA.a(transport.c.obj)
 .text.sar_ctx_tx_complete
                0x0002e93c       0xb8 mesh/core/libmesh_core_nrf52832_xxAA.a(transport.c.obj)
 .text.sar_ctx_cancel
                0x0002e9f4      0x108 mesh/core/libmesh_core_nrf52832_xxAA.a(transport.c.obj)
 .text.abort_timeout
                0x0002eafc        0x8 mesh/core/libmesh_core_nrf52832_xxAA.a(transport.c.obj)
 .text.sar_ctx_alloc
                0x0002eb04       0xbc mesh/core/libmesh_core_nrf52832_xxAA.a(transport.c.obj)
 .text.test_transport_decrypt
                0x0002ebc0       0x88 mesh/core/libmesh_core_nrf52832_xxAA.a(transport.c.obj)
 .text.upper_transport_access_packet_in
                0x0002ec48      0x28c mesh/core/libmesh_core_nrf52832_xxAA.a(transport.c.obj)
 .text.trs_packet_header_build
                0x0002eed4       0xa6 mesh/core/libmesh_core_nrf52832_xxAA.a(transport.c.obj)
 *fill*         0x0002ef7a        0x2 
 .text.tx_retry_timer_reset
                0x0002ef7c       0x50 mesh/core/libmesh_core_nrf52832_xxAA.a(transport.c.obj)
 .text.trs_sar_packet_out
                0x0002efcc       0xec mesh/core/libmesh_core_nrf52832_xxAA.a(transport.c.obj)
 .text.retry_timeout
                0x0002f0b8       0x54 mesh/core/libmesh_core_nrf52832_xxAA.a(transport.c.obj)
 .text.upper_transport_packet_in
                0x0002f10c      0x1b0 mesh/core/libmesh_core_nrf52832_xxAA.a(transport.c.obj)
 .text.upper_transport_tx
                0x0002f2bc      0x230 mesh/core/libmesh_core_nrf52832_xxAA.a(transport.c.obj)
 .text.transport_sar_mem_funcs_reset
                0x0002f4ec       0x28 mesh/core/libmesh_core_nrf52832_xxAA.a(transport.c.obj)
                0x0002f4ec                transport_sar_mem_funcs_reset
 .text.transport_init
                0x0002f514       0x7c mesh/core/libmesh_core_nrf52832_xxAA.a(transport.c.obj)
                0x0002f514                transport_init
 .text.transport_tx
                0x0002f590       0xa4 mesh/core/libmesh_core_nrf52832_xxAA.a(transport.c.obj)
                0x0002f590                transport_tx
 .text.transport_control_tx
                0x0002f634       0x8e mesh/core/libmesh_core_nrf52832_xxAA.a(transport.c.obj)
                0x0002f634                transport_control_tx
 *fill*         0x0002f6c2        0x2 
 .text.sar_ack_send
                0x0002f6c4      0x124 mesh/core/libmesh_core_nrf52832_xxAA.a(transport.c.obj)
 .text.transport_sar_process
                0x0002f7e8       0x74 mesh/core/libmesh_core_nrf52832_xxAA.a(transport.c.obj)
 .text.transport_packet_in
                0x0002f85c      0x524 mesh/core/libmesh_core_nrf52832_xxAA.a(transport.c.obj)
                0x0002f85c                transport_packet_in
 .text.ack_timeout
                0x0002fd80       0x34 mesh/core/libmesh_core_nrf52832_xxAA.a(transport.c.obj)
 .text.transport_opt_set
                0x0002fdb4       0xd0 mesh/core/libmesh_core_nrf52832_xxAA.a(transport.c.obj)
                0x0002fdb4                transport_opt_set
 .text.transport_opt_get
                0x0002fe84       0x68 mesh/core/libmesh_core_nrf52832_xxAA.a(transport.c.obj)
                0x0002fe84                transport_opt_get
 .text.transport_control_packet_consumer_add
                0x0002feec       0x5c mesh/core/libmesh_core_nrf52832_xxAA.a(transport.c.obj)
                0x0002feec                transport_control_packet_consumer_add
 .text.m_adjust_desired_packet_length
                0x0002ff48       0x34 mesh/core/libmesh_core_nrf52832_xxAA.a(packet_buffer.c.obj)
 .text.m_index_increment.part.0
                0x0002ff7c       0x14 mesh/core/libmesh_core_nrf52832_xxAA.a(packet_buffer.c.obj)
 .text.m_free_popped_packet
                0x0002ff90       0x60 mesh/core/libmesh_core_nrf52832_xxAA.a(packet_buffer.c.obj)
 .text.free_skipped_packets
                0x0002fff0       0x1c mesh/core/libmesh_core_nrf52832_xxAA.a(packet_buffer.c.obj)
 .text.packet_buffer_init
                0x0003000c       0xe0 mesh/core/libmesh_core_nrf52832_xxAA.a(packet_buffer.c.obj)
                0x0003000c                packet_buffer_init
 .text.packet_buffer_flush
                0x000300ec       0x5e mesh/core/libmesh_core_nrf52832_xxAA.a(packet_buffer.c.obj)
                0x000300ec                packet_buffer_flush
 *fill*         0x0003014a        0x2 
 .text.packet_buffer_reserve
                0x0003014c      0x11c mesh/core/libmesh_core_nrf52832_xxAA.a(packet_buffer.c.obj)
                0x0003014c                packet_buffer_reserve
 .text.packet_buffer_commit
                0x00030268      0x104 mesh/core/libmesh_core_nrf52832_xxAA.a(packet_buffer.c.obj)
                0x00030268                packet_buffer_commit
 .text.packet_buffer_pop
                0x0003036c       0x58 mesh/core/libmesh_core_nrf52832_xxAA.a(packet_buffer.c.obj)
                0x0003036c                packet_buffer_pop
 .text.packet_buffer_can_pop
                0x000303c4       0x28 mesh/core/libmesh_core_nrf52832_xxAA.a(packet_buffer.c.obj)
                0x000303c4                packet_buffer_can_pop
 .text.packet_buffer_packets_ready_to_pop
                0x000303ec       0x58 mesh/core/libmesh_core_nrf52832_xxAA.a(packet_buffer.c.obj)
                0x000303ec                packet_buffer_packets_ready_to_pop
 .text.packet_buffer_free
                0x00030444       0x8c mesh/core/libmesh_core_nrf52832_xxAA.a(packet_buffer.c.obj)
                0x00030444                packet_buffer_free
 .text.get_last_page
                0x000304d0       0x14 mesh/core/libmesh_core_nrf52832_xxAA.a(flash_manager_defrag.c.obj)
 .text.defrag_on_end
                0x000304e4       0x1c mesh/core/libmesh_core_nrf52832_xxAA.a(flash_manager_defrag.c.obj)
 .text.execute_procedure_step
                0x00030500       0xa0 mesh/core/libmesh_core_nrf52832_xxAA.a(flash_manager_defrag.c.obj)
 .text.get_next_entry
                0x000305a0       0x40 mesh/core/libmesh_core_nrf52832_xxAA.a(flash_manager_defrag.c.obj)
 .text.get_next_data_entry
                0x000305e0       0x20 mesh/core/libmesh_core_nrf52832_xxAA.a(flash_manager_defrag.c.obj)
 .text.on_flash_op_end
                0x00030600       0x30 mesh/core/libmesh_core_nrf52832_xxAA.a(flash_manager_defrag.c.obj)
 .text.check_for_invalid_entries
                0x00030630       0x38 mesh/core/libmesh_core_nrf52832_xxAA.a(flash_manager_defrag.c.obj)
 .text.erase_recovery_area
                0x00030668       0x34 mesh/core/libmesh_core_nrf52832_xxAA.a(flash_manager_defrag.c.obj)
 .text.flash.constprop.6
                0x0003069c       0x24 mesh/core/libmesh_core_nrf52832_xxAA.a(flash_manager_defrag.c.obj)
 .text.seal_storage_page
                0x000306c0       0x50 mesh/core/libmesh_core_nrf52832_xxAA.a(flash_manager_defrag.c.obj)
 .text.invalidate_duplicate_entries
                0x00030710       0x9c mesh/core/libmesh_core_nrf52832_xxAA.a(flash_manager_defrag.c.obj)
 .text.copy_metadata
                0x000307ac       0x3c mesh/core/libmesh_core_nrf52832_xxAA.a(flash_manager_defrag.c.obj)
 .text.write_defrag_start_pointer
                0x000307e8       0x20 mesh/core/libmesh_core_nrf52832_xxAA.a(flash_manager_defrag.c.obj)
 .text.write_back
                0x00030808       0x28 mesh/core/libmesh_core_nrf52832_xxAA.a(flash_manager_defrag.c.obj)
 .text.post_process
                0x00030830       0x40 mesh/core/libmesh_core_nrf52832_xxAA.a(flash_manager_defrag.c.obj)
 .text.backup_entries
                0x00030870      0x118 mesh/core/libmesh_core_nrf52832_xxAA.a(flash_manager_defrag.c.obj)
 .text.erase_source
                0x00030988       0x34 mesh/core/libmesh_core_nrf52832_xxAA.a(flash_manager_defrag.c.obj)
 .text.flash_manager_defrag_init
                0x000309bc       0x98 mesh/core/libmesh_core_nrf52832_xxAA.a(flash_manager_defrag.c.obj)
                0x000309bc                flash_manager_defrag_init
 .text.flash_manager_defrag_is_running
                0x00030a54       0x10 mesh/core/libmesh_core_nrf52832_xxAA.a(flash_manager_defrag.c.obj)
                0x00030a54                flash_manager_defrag_is_running
 .text.flash_manager_defrag
                0x00030a64       0xd8 mesh/core/libmesh_core_nrf52832_xxAA.a(flash_manager_defrag.c.obj)
                0x00030a64                flash_manager_defrag
 .text.flash_manager_defrag_recovery_page_get
                0x00030b3c        0xc mesh/core/libmesh_core_nrf52832_xxAA.a(flash_manager_defrag.c.obj)
                0x00030b3c                flash_manager_defrag_recovery_page_get
 .text.packet_mgr_init
                0x00030b48       0x4c mesh/core/libmesh_core_nrf52832_xxAA.a(packet_mgr.c.obj)
                0x00030b48                packet_mgr_init
 .text.send_end_events
                0x00030b94       0x84 mesh/core/libmesh_core_nrf52832_xxAA.a(mesh_flash.c.obj)
 .text.flash_op_schedule
                0x00030c18       0x9c mesh/core/libmesh_core_nrf52832_xxAA.a(mesh_flash.c.obj)
 .text.flash_op_start
                0x00030cb4      0x170 mesh/core/libmesh_core_nrf52832_xxAA.a(mesh_flash.c.obj)
 .text.mesh_flash_init
                0x00030e24       0x88 mesh/core/libmesh_core_nrf52832_xxAA.a(mesh_flash.c.obj)
                0x00030e24                mesh_flash_init
 .text.mesh_flash_user_callback_set
                0x00030eac       0x2c mesh/core/libmesh_core_nrf52832_xxAA.a(mesh_flash.c.obj)
                0x00030eac                mesh_flash_user_callback_set
 .text.mesh_flash_op_push
                0x00030ed8      0x128 mesh/core/libmesh_core_nrf52832_xxAA.a(mesh_flash.c.obj)
                0x00030ed8                mesh_flash_op_push
 .text.queue_init
                0x00031000       0x20 mesh/core/libmesh_core_nrf52832_xxAA.a(queue.c.obj)
                0x00031000                queue_init
 .text.queue_push
                0x00031020       0x48 mesh/core/libmesh_core_nrf52832_xxAA.a(queue.c.obj)
                0x00031020                queue_push
 .text.queue_pop
                0x00031068       0x34 mesh/core/libmesh_core_nrf52832_xxAA.a(queue.c.obj)
                0x00031068                queue_pop
 .text.queue_peek
                0x0003109c       0x1c mesh/core/libmesh_core_nrf52832_xxAA.a(queue.c.obj)
                0x0003109c                queue_peek
 .text.my_xor.constprop.1
                0x000310b8       0x20 mesh/core/libmesh_core_nrf52832_xxAA.a(aes_cmac.c.obj)
 .text.utils_lshift.constprop.2
                0x000310d8       0x24 mesh/core/libmesh_core_nrf52832_xxAA.a(aes_cmac.c.obj)
 .text.aes_cmac_subkey_generate
                0x000310fc       0x6c mesh/core/libmesh_core_nrf52832_xxAA.a(aes_cmac.c.obj)
                0x000310fc                aes_cmac_subkey_generate
 .text.aes_cmac
                0x00031168       0xbc mesh/core/libmesh_core_nrf52832_xxAA.a(aes_cmac.c.obj)
                0x00031168                aes_cmac
 .text.stage_get_available
                0x00031224       0x24 mesh/core/libmesh_core_nrf52832_xxAA.a(msqueue.c.obj)
 .text.msq_get  0x00031248       0x4c mesh/core/libmesh_core_nrf52832_xxAA.a(msqueue.c.obj)
                0x00031248                msq_get
 .text.msq_move
                0x00031294       0x44 mesh/core/libmesh_core_nrf52832_xxAA.a(msqueue.c.obj)
                0x00031294                msq_move
 .text.msq_reset
                0x000312d8       0x2c mesh/core/libmesh_core_nrf52832_xxAA.a(msqueue.c.obj)
                0x000312d8                msq_reset
 .text.msq_init
                0x00031304       0x78 mesh/core/libmesh_core_nrf52832_xxAA.a(msqueue.c.obj)
                0x00031304                msq_init
 .text.msq_available
                0x0003137c       0x3c mesh/core/libmesh_core_nrf52832_xxAA.a(msqueue.c.obj)
                0x0003137c                msq_available
 .text.replay_cache_add
                0x000313b8       0x60 mesh/core/libmesh_core_nrf52832_xxAA.a(replay_cache.c.obj)
                0x000313b8                replay_cache_add
 .text.replay_cache_has_room
                0x00031418       0x38 mesh/core/libmesh_core_nrf52832_xxAA.a(replay_cache.c.obj)
                0x00031418                replay_cache_has_room
 .text.replay_cache_has_elem
                0x00031450       0x38 mesh/core/libmesh_core_nrf52832_xxAA.a(replay_cache.c.obj)
                0x00031450                replay_cache_has_elem
 .text.replay_cache_clear
                0x00031488       0x28 mesh/core/libmesh_core_nrf52832_xxAA.a(replay_cache.c.obj)
                0x00031488                replay_cache_clear
 .text.replay_cache_init
                0x000314b0        0x4 mesh/core/libmesh_core_nrf52832_xxAA.a(replay_cache.c.obj)
                0x000314b0                replay_cache_init
 .text.wait_for_ready
                0x000314b4       0x10 mesh/core/libmesh_core_nrf52832_xxAA.a(nrf_flash.c.obj)
 .text.nrf_flash_erase
                0x000314c4       0x50 mesh/core/libmesh_core_nrf52832_xxAA.a(nrf_flash.c.obj)
                0x000314c4                nrf_flash_erase
 .text.nrf_flash_write
                0x00031514       0x50 mesh/core/libmesh_core_nrf52832_xxAA.a(nrf_flash.c.obj)
                0x00031514                nrf_flash_write
 .text._GetAvailWriteSpace
                0x00031564       0x1c external/rtt/librtt_nrf52832_xxAA.a(SEGGER_RTT.c.obj)
 .text._WriteNoCheck
                0x00031580       0x3c external/rtt/librtt_nrf52832_xxAA.a(SEGGER_RTT.c.obj)
 .text._WriteBlocking
                0x000315bc       0x52 external/rtt/librtt_nrf52832_xxAA.a(SEGGER_RTT.c.obj)
 *fill*         0x0003160e        0x2 
 .text._DoInit  0x00031610       0x60 external/rtt/librtt_nrf52832_xxAA.a(SEGGER_RTT.c.obj)
 .text.SEGGER_RTT_WriteNoLock
                0x00031670       0x68 external/rtt/librtt_nrf52832_xxAA.a(SEGGER_RTT.c.obj)
                0x00031670                SEGGER_RTT_WriteNoLock
 .text.SEGGER_RTT_Write
                0x000316d8       0x34 external/rtt/librtt_nrf52832_xxAA.a(SEGGER_RTT.c.obj)
                0x000316d8                SEGGER_RTT_Write
 .text._StoreChar
                0x0003170c       0x3e external/rtt/librtt_nrf52832_xxAA.a(SEGGER_RTT_printf.c.obj)
 *fill*         0x0003174a        0x2 
 .text._PrintUnsigned
                0x0003174c       0xd0 external/rtt/librtt_nrf52832_xxAA.a(SEGGER_RTT_printf.c.obj)
 .text.SEGGER_RTT_vprintf
                0x0003181c      0x246 external/rtt/librtt_nrf52832_xxAA.a(SEGGER_RTT_printf.c.obj)
                0x0003181c                SEGGER_RTT_vprintf
 .text.SEGGER_RTT_printf
                0x00031a62       0x1e external/rtt/librtt_nrf52832_xxAA.a(SEGGER_RTT_printf.c.obj)
                0x00031a62                SEGGER_RTT_printf
 .text.uECC_vli_mult
                0x00031a80       0x64 external/micro-ecc/libuECC_nrf52832_xxAA.a(uECC.c.obj)
 .text.uECC_vli_clear
                0x00031ae4       0x16 external/micro-ecc/libuECC_nrf52832_xxAA.a(uECC.c.obj)
 .text.uECC_vli_isZero
                0x00031afa       0x1e external/micro-ecc/libuECC_nrf52832_xxAA.a(uECC.c.obj)
 .text.uECC_vli_testBit
                0x00031b18       0x14 external/micro-ecc/libuECC_nrf52832_xxAA.a(uECC.c.obj)
 .text.uECC_vli_numBits
                0x00031b2c       0x3a external/micro-ecc/libuECC_nrf52832_xxAA.a(uECC.c.obj)
 .text.uECC_vli_set
                0x00031b66       0x18 external/micro-ecc/libuECC_nrf52832_xxAA.a(uECC.c.obj)
 .text.uECC_vli_cmp_unsafe
                0x00031b7e       0x28 external/micro-ecc/libuECC_nrf52832_xxAA.a(uECC.c.obj)
 .text.uECC_vli_rshift1
                0x00031ba6       0x1c external/micro-ecc/libuECC_nrf52832_xxAA.a(uECC.c.obj)
 .text.uECC_vli_modMult_fast
                0x00031bc2       0x20 external/micro-ecc/libuECC_nrf52832_xxAA.a(uECC.c.obj)
 .text.uECC_vli_modSquare_fast
                0x00031be2        0x8 external/micro-ecc/libuECC_nrf52832_xxAA.a(uECC.c.obj)
 .text.apply_z  0x00031bea       0x3e external/micro-ecc/libuECC_nrf52832_xxAA.a(uECC.c.obj)
 .text.uECC_vli_nativeToBytes
                0x00031c28       0x28 external/micro-ecc/libuECC_nrf52832_xxAA.a(uECC.c.obj)
 .text.uECC_vli_bytesToNative
                0x00031c50       0x40 external/micro-ecc/libuECC_nrf52832_xxAA.a(uECC.c.obj)
 .text.default_RNG
                0x00031c90        0xc external/micro-ecc/libuECC_nrf52832_xxAA.a(uECC.c.obj)
 .text.uECC_vli_add.isra.0
                0x00031c9c       0x4a external/micro-ecc/libuECC_nrf52832_xxAA.a(uECC.c.obj)
 .text.regularize_k
                0x00031ce6       0x50 external/micro-ecc/libuECC_nrf52832_xxAA.a(uECC.c.obj)
 .text.uECC_vli_sub.isra.1
                0x00031d36       0x4e external/micro-ecc/libuECC_nrf52832_xxAA.a(uECC.c.obj)
 .text.uECC_vli_cmp
                0x00031d84       0x30 external/micro-ecc/libuECC_nrf52832_xxAA.a(uECC.c.obj)
 .text.uECC_generate_random_int
                0x00031db4       0x78 external/micro-ecc/libuECC_nrf52832_xxAA.a(uECC.c.obj)
 .text.uECC_vli_modAdd
                0x00031e2c       0x2e external/micro-ecc/libuECC_nrf52832_xxAA.a(uECC.c.obj)
 *fill*         0x00031e5a        0x2 
 .text.vli_mmod_fast_secp256r1
                0x00031e5c      0x194 external/micro-ecc/libuECC_nrf52832_xxAA.a(uECC.c.obj)
 .text.uECC_vli_modSub.isra.2
                0x00031ff0       0x1c external/micro-ecc/libuECC_nrf52832_xxAA.a(uECC.c.obj)
 .text.double_jacobian_default
                0x0003200c      0x14a external/micro-ecc/libuECC_nrf52832_xxAA.a(uECC.c.obj)
 .text.x_side_default
                0x00032156       0x5a external/micro-ecc/libuECC_nrf52832_xxAA.a(uECC.c.obj)
 .text.XYcZ_add
                0x000321b0       0xbc external/micro-ecc/libuECC_nrf52832_xxAA.a(uECC.c.obj)
 .text.XYcZ_addC
                0x0003226c      0x10a external/micro-ecc/libuECC_nrf52832_xxAA.a(uECC.c.obj)
 .text.vli_modInv_update
                0x00032376       0x36 external/micro-ecc/libuECC_nrf52832_xxAA.a(uECC.c.obj)
 .text.uECC_vli_modInv
                0x000323ac      0x102 external/micro-ecc/libuECC_nrf52832_xxAA.a(uECC.c.obj)
 .text.EccPoint_mult
                0x000324ae      0x19e external/micro-ecc/libuECC_nrf52832_xxAA.a(uECC.c.obj)
 .text.EccPoint_compute_public_key
                0x0003264c       0x54 external/micro-ecc/libuECC_nrf52832_xxAA.a(uECC.c.obj)
 .text.uECC_secp256r1
                0x000326a0        0x8 external/micro-ecc/libuECC_nrf52832_xxAA.a(uECC.c.obj)
                0x000326a0                uECC_secp256r1
 .text.uECC_make_key
                0x000326a8       0x7e external/micro-ecc/libuECC_nrf52832_xxAA.a(uECC.c.obj)
                0x000326a8                uECC_make_key
 *fill*         0x00032726        0x2 
 .text.uECC_shared_secret
                0x00032728       0xbc external/micro-ecc/libuECC_nrf52832_xxAA.a(uECC.c.obj)
                0x00032728                uECC_shared_secret
 .text.uECC_valid_point
                0x000327e4       0x86 external/micro-ecc/libuECC_nrf52832_xxAA.a(uECC.c.obj)
                0x000327e4                uECC_valid_point
 .text.uECC_valid_public_key
                0x0003286a       0x32 external/micro-ecc/libuECC_nrf52832_xxAA.a(uECC.c.obj)
                0x0003286a                uECC_valid_public_key
 .text.exit     0x0003289c       0x28 c:/a/gcc_arm/6/bin/../lib/gcc/arm-none-eabi/6.3.1/../../../../arm-none-eabi/lib/thumb/v7e-m/fpv4-sp/hard\libg_nano.a(lib_a-exit.o)
                0x0003289c                exit
 .text.__libc_init_array
                0x000328c4       0x48 c:/a/gcc_arm/6/bin/../lib/gcc/arm-none-eabi/6.3.1/../../../../arm-none-eabi/lib/thumb/v7e-m/fpv4-sp/hard\libg_nano.a(lib_a-init.o)
                0x000328c4                __libc_init_array
 .text.malloc   0x0003290c       0x10 c:/a/gcc_arm/6/bin/../lib/gcc/arm-none-eabi/6.3.1/../../../../arm-none-eabi/lib/thumb/v7e-m/fpv4-sp/hard\libg_nano.a(lib_a-malloc.o)
                0x0003290c                malloc
 .text.free     0x0003291c       0x10 c:/a/gcc_arm/6/bin/../lib/gcc/arm-none-eabi/6.3.1/../../../../arm-none-eabi/lib/thumb/v7e-m/fpv4-sp/hard\libg_nano.a(lib_a-malloc.o)
                0x0003291c                free
 .text.memcmp   0x0003292c       0x1e c:/a/gcc_arm/6/bin/../lib/gcc/arm-none-eabi/6.3.1/../../../../arm-none-eabi/lib/thumb/v7e-m/fpv4-sp/hard\libg_nano.a(lib_a-memcmp.o)
                0x0003292c                memcmp
 .text.memcpy   0x0003294a       0x16 c:/a/gcc_arm/6/bin/../lib/gcc/arm-none-eabi/6.3.1/../../../../arm-none-eabi/lib/thumb/v7e-m/fpv4-sp/hard\libg_nano.a(lib_a-memcpy-stub.o)
                0x0003294a                memcpy
 .text.memset   0x00032960       0x10 c:/a/gcc_arm/6/bin/../lib/gcc/arm-none-eabi/6.3.1/../../../../arm-none-eabi/lib/thumb/v7e-m/fpv4-sp/hard\libg_nano.a(lib_a-memset.o)
                0x00032960                memset
 .text._free_r  0x00032970       0x9c c:/a/gcc_arm/6/bin/../lib/gcc/arm-none-eabi/6.3.1/../../../../arm-none-eabi/lib/thumb/v7e-m/fpv4-sp/hard\libg_nano.a(lib_a-nano-freer.o)
                0x00032970                _free_r
 .text._malloc_r
                0x00032a0c       0xbc c:/a/gcc_arm/6/bin/../lib/gcc/arm-none-eabi/6.3.1/../../../../arm-none-eabi/lib/thumb/v7e-m/fpv4-sp/hard\libg_nano.a(lib_a-nano-mallocr.o)
                0x00032a0c                _malloc_r
 .text._sbrk_r  0x00032ac8       0x20 c:/a/gcc_arm/6/bin/../lib/gcc/arm-none-eabi/6.3.1/../../../../arm-none-eabi/lib/thumb/v7e-m/fpv4-sp/hard\libg_nano.a(lib_a-sbrkr.o)
                0x00032ac8                _sbrk_r
 .text.strcpy   0x00032ae8       0x10 c:/a/gcc_arm/6/bin/../lib/gcc/arm-none-eabi/6.3.1/../../../../arm-none-eabi/lib/thumb/v7e-m/fpv4-sp/hard\libg_nano.a(lib_a-strcpy.o)
                0x00032ae8                strcpy
 .text          0x00032af8       0x10 c:/a/gcc_arm/6/bin/../lib/gcc/arm-none-eabi/6.3.1/../../../../arm-none-eabi/lib/thumb/v7e-m/fpv4-sp/hard\libg_nano.a(lib_a-strlen.o)
                0x00032af8                strlen
 .text.strrchr  0x00032b08       0x26 c:/a/gcc_arm/6/bin/../lib/gcc/arm-none-eabi/6.3.1/../../../../arm-none-eabi/lib/thumb/v7e-m/fpv4-sp/hard\libg_nano.a(lib_a-strrchr.o)
                0x00032b08                strrchr
 .text.__malloc_lock
                0x00032b2e        0x2 c:/a/gcc_arm/6/bin/../lib/gcc/arm-none-eabi/6.3.1/../../../../arm-none-eabi/lib/thumb/v7e-m/fpv4-sp/hard\libg_nano.a(lib_a-mlock.o)
                0x00032b2e                __malloc_lock
 .text.__malloc_unlock
                0x00032b30        0x2 c:/a/gcc_arm/6/bin/../lib/gcc/arm-none-eabi/6.3.1/../../../../arm-none-eabi/lib/thumb/v7e-m/fpv4-sp/hard\libg_nano.a(lib_a-mlock.o)
                0x00032b30                __malloc_unlock
 .text.strchr   0x00032b32       0x1c c:/a/gcc_arm/6/bin/../lib/gcc/arm-none-eabi/6.3.1/../../../../arm-none-eabi/lib/thumb/v7e-m/fpv4-sp/hard\libg_nano.a(lib_a-strchr.o)
                0x00032b32                strchr
 *fill*         0x00032b4e        0x2 
 .text._sbrk    0x00032b50       0x1c c:/a/gcc_arm/6/bin/../lib/gcc/arm-none-eabi/6.3.1/../../../../arm-none-eabi/lib/thumb/v7e-m/fpv4-sp/hard\libnosys.a(sbrk.o)
                0x00032b50                _sbrk
 .text._exit    0x00032b6c        0x4 c:/a/gcc_arm/6/bin/../lib/gcc/arm-none-eabi/6.3.1/../../../../arm-none-eabi/lib/thumb/v7e-m/fpv4-sp/hard\libnosys.a(_exit.o)
                0x00032b6c                _exit
 *(.init)
 .init          0x00032b70        0x4 c:/a/gcc_arm/6/bin/../lib/gcc/arm-none-eabi/6.3.1/thumb/v7e-m/fpv4-sp/hard/crti.o
                0x00032b70                _init
 .init          0x00032b74        0x8 c:/a/gcc_arm/6/bin/../lib/gcc/arm-none-eabi/6.3.1/thumb/v7e-m/fpv4-sp/hard/crtn.o
 *(.fini)
 .fini          0x00032b7c        0x4 c:/a/gcc_arm/6/bin/../lib/gcc/arm-none-eabi/6.3.1/thumb/v7e-m/fpv4-sp/hard/crti.o
                0x00032b7c                _fini
 .fini          0x00032b80        0x8 c:/a/gcc_arm/6/bin/../lib/gcc/arm-none-eabi/6.3.1/thumb/v7e-m/fpv4-sp/hard/crtn.o
 *crtbegin.o(.ctors)
 *crtbegin?.o(.ctors)
 *(EXCLUDE_FILE(*crtend.o *crtend?.o) .ctors)
 *(SORT(.ctors.*))
 *(.ctors)
 *crtbegin.o(.dtors)
 *crtbegin?.o(.dtors)
 *(EXCLUDE_FILE(*crtend.o *crtend?.o) .dtors)
 *(SORT(.dtors.*))
 *(.dtors)
 *(.rodata*)
 .rodata.configuration_setup.str1.1
                0x00032b88       0x48 examples/pb_remote/server/CMakeFiles/pb_remote_server_nrf52832_xxAA_s132_3.1.0.dir/src/main.c.obj
 .rodata.main.str1.1
                0x00032bd0       0x44 examples/pb_remote/server/CMakeFiles/pb_remote_server_nrf52832_xxAA_s132_3.1.0.dir/src/main.c.obj
 .rodata.provisioning_complete.str1.1
                0x00032c14       0x1a examples/pb_remote/server/CMakeFiles/pb_remote_server_nrf52832_xxAA_s132_3.1.0.dir/src/main.c.obj
 .rodata.static_auth_data.12628
                0x00032c2e       0x10 examples/pb_remote/server/CMakeFiles/pb_remote_server_nrf52832_xxAA_s132_3.1.0.dir/src/main.c.obj
 .rodata.HardFault_Handler.str1.1
                0x00032c3e        0xe examples/pb_remote/server/CMakeFiles/pb_remote_server_nrf52832_xxAA_s132_3.1.0.dir/__/__/nrf_mesh_sdk.c.obj
 .rodata.app_error_handler.str1.1
                0x00032c4c       0x1d examples/pb_remote/server/CMakeFiles/pb_remote_server_nrf52832_xxAA_s132_3.1.0.dir/__/__/nrf_mesh_sdk.c.obj
 .rodata.mesh_assert_handler.str1.1
                0x00032c69       0x34 examples/pb_remote/server/CMakeFiles/pb_remote_server_nrf52832_xxAA_s132_3.1.0.dir/__/__/nrf_mesh_sdk.c.obj
 .rodata.m_buttons_list
                0x00032c9d        0x4 examples/pb_remote/server/CMakeFiles/pb_remote_server_nrf52832_xxAA_s132_3.1.0.dir/__/__/common/src/simple_hal.c.obj
 *fill*         0x00032ca1        0x3 
 .rodata.m_prov_callbacks
                0x00032ca4       0x10 examples/pb_remote/server/CMakeFiles/pb_remote_server_nrf52832_xxAA_s132_3.1.0.dir/__/__/__/mesh/prov/src/prov_provisionee.c.obj
 .rodata.prov_provisionee_cb_ack_received.str1.1
                0x00032cb4       0x53 examples/pb_remote/server/CMakeFiles/pb_remote_server_nrf52832_xxAA_s132_3.1.0.dir/__/__/__/mesh/prov/src/prov_provisionee.c.obj
 .rodata.pdu_sizes.10818
                0x00032d07        0xa examples/pb_remote/server/CMakeFiles/pb_remote_server_nrf52832_xxAA_s132_3.1.0.dir/__/__/__/mesh/prov/src/provisioning.c.obj
 .rodata.alphanumeric.10923
                0x00032d11       0x25 examples/pb_remote/server/CMakeFiles/pb_remote_server_nrf52832_xxAA_s132_3.1.0.dir/__/__/__/mesh/prov/src/prov_utils.c.obj
 *fill*         0x00032d36        0x2 
 .rodata.numeric_max.10917
                0x00032d38       0x24 examples/pb_remote/server/CMakeFiles/pb_remote_server_nrf52832_xxAA_s132_3.1.0.dir/__/__/__/mesh/prov/src/prov_utils.c.obj
 .rodata.prov_utils_authentication_values_derive.str1.1
                0x00032d5c        0x5 examples/pb_remote/server/CMakeFiles/pb_remote_server_nrf52832_xxAA_s132_3.1.0.dir/__/__/__/mesh/prov/src/prov_utils.c.obj
 .rodata.prov_utils_derive_keys.str1.1
                0x00032d61        0xf examples/pb_remote/server/CMakeFiles/pb_remote_server_nrf52832_xxAA_s132_3.1.0.dir/__/__/__/mesh/prov/src/prov_utils.c.obj
 .rodata.add_active_bearer.str1.1
                0x00032d70       0x2c examples/pb_remote/server/CMakeFiles/pb_remote_server_nrf52832_xxAA_s132_3.1.0.dir/__/__/__/mesh/prov/src/prov_bearer_adv.c.obj
 .rodata.crctable.10676
                0x00032d9c      0x100 examples/pb_remote/server/CMakeFiles/pb_remote_server_nrf52832_xxAA_s132_3.1.0.dir/__/__/__/mesh/prov/src/prov_bearer_adv.c.obj
 .rodata.interface.10906
                0x00032e9c       0x14 examples/pb_remote/server/CMakeFiles/pb_remote_server_nrf52832_xxAA_s132_3.1.0.dir/__/__/__/mesh/prov/src/prov_bearer_adv.c.obj
 .rodata.prov_bearer_adv_packet_in.str1.1
                0x00032eb0      0x26e examples/pb_remote/server/CMakeFiles/pb_remote_server_nrf52832_xxAA_s132_3.1.0.dir/__/__/__/mesh/prov/src/prov_bearer_adv.c.obj
 .rodata.tx_retry_cb.str1.1
                0x0003311e       0x37 examples/pb_remote/server/CMakeFiles/pb_remote_server_nrf52832_xxAA_s132_3.1.0.dir/__/__/__/mesh/prov/src/prov_bearer_adv.c.obj
 *fill*         0x00033155        0x1 
 .rodata        0x00033156       0x30 examples/pb_remote/server/CMakeFiles/pb_remote_server_nrf52832_xxAA_s132_3.1.0.dir/__/__/__/models/pb_remote/src/pb_remote_server.c.obj
 .rodata.do_state_change.str1.1
                0x00033186       0x1e examples/pb_remote/server/CMakeFiles/pb_remote_server_nrf52832_xxAA_s132_3.1.0.dir/__/__/__/models/pb_remote/src/pb_remote_server.c.obj
 .rodata.local_link_open.isra.14.str1.1
                0x000331a4       0x27 examples/pb_remote/server/CMakeFiles/pb_remote_server_nrf52832_xxAA_s132_3.1.0.dir/__/__/__/models/pb_remote/src/pb_remote_server.c.obj
 *fill*         0x000331cb        0x1 
 .rodata.m_opcode_handlers
                0x000331cc       0x48 examples/pb_remote/server/CMakeFiles/pb_remote_server_nrf52832_xxAA_s132_3.1.0.dir/__/__/__/models/pb_remote/src/pb_remote_server.c.obj
 .rodata.m_pb_remote_server_event_handler_callbacks
                0x00033214       0x3c examples/pb_remote/server/CMakeFiles/pb_remote_server_nrf52832_xxAA_s132_3.1.0.dir/__/__/__/models/pb_remote/src/pb_remote_server.c.obj
 .rodata.pb_remote_server_event_link_close_cb.str1.1
                0x00033250       0x1d examples/pb_remote/server/CMakeFiles/pb_remote_server_nrf52832_xxAA_s132_3.1.0.dir/__/__/__/models/pb_remote/src/pb_remote_server.c.obj
 .rodata.pb_remote_server_event_link_established_cb.str1.1
                0x0003326d       0x2f examples/pb_remote/server/CMakeFiles/pb_remote_server_nrf52832_xxAA_s132_3.1.0.dir/__/__/__/models/pb_remote/src/pb_remote_server.c.obj
 .rodata.pb_remote_server_event_link_status_cb.str1.1
                0x0003329c       0x8d examples/pb_remote/server/CMakeFiles/pb_remote_server_nrf52832_xxAA_s132_3.1.0.dir/__/__/__/models/pb_remote/src/pb_remote_server.c.obj
 .rodata.pb_remote_server_event_local_ack_cb.str1.1
                0x00033329       0x16 examples/pb_remote/server/CMakeFiles/pb_remote_server_nrf52832_xxAA_s132_3.1.0.dir/__/__/__/models/pb_remote/src/pb_remote_server.c.obj
 .rodata.pb_remote_server_event_local_packet_cb.str1.1
                0x0003333f       0x2a examples/pb_remote/server/CMakeFiles/pb_remote_server_nrf52832_xxAA_s132_3.1.0.dir/__/__/__/models/pb_remote/src/pb_remote_server.c.obj
 .rodata.pb_remote_server_event_packet_transfer_cb.str1.1
                0x00033369       0x2d examples/pb_remote/server/CMakeFiles/pb_remote_server_nrf52832_xxAA_s132_3.1.0.dir/__/__/__/models/pb_remote/src/pb_remote_server.c.obj
 .rodata.pb_remote_server_event_scan_report_status_cb.str1.1
                0x00033396       0x1e examples/pb_remote/server/CMakeFiles/pb_remote_server_nrf52832_xxAA_s132_3.1.0.dir/__/__/__/models/pb_remote/src/pb_remote_server.c.obj
 .rodata.pb_remote_server_event_scan_start_filter_cb.str1.1
                0x000333b4       0x16 examples/pb_remote/server/CMakeFiles/pb_remote_server_nrf52832_xxAA_s132_3.1.0.dir/__/__/__/models/pb_remote/src/pb_remote_server.c.obj
 .rodata.pb_remote_server_event_transfer_status_cb.str1.1
                0x000333ca       0x69 examples/pb_remote/server/CMakeFiles/pb_remote_server_nrf52832_xxAA_s132_3.1.0.dir/__/__/__/models/pb_remote/src/pb_remote_server.c.obj
 .rodata.pb_remote_server_event_unprov_uuid_cb.str1.1
                0x00033433       0x19 examples/pb_remote/server/CMakeFiles/pb_remote_server_nrf52832_xxAA_s132_3.1.0.dir/__/__/__/models/pb_remote/src/pb_remote_server.c.obj
 .rodata.pb_remote_server_process.str1.1
                0x0003344c        0xc examples/pb_remote/server/CMakeFiles/pb_remote_server_nrf52832_xxAA_s132_3.1.0.dir/__/__/__/models/pb_remote/src/pb_remote_server.c.obj
 .rodata.prov_callbacks.11780
                0x00033458       0x10 examples/pb_remote/server/CMakeFiles/pb_remote_server_nrf52832_xxAA_s132_3.1.0.dir/__/__/__/models/pb_remote/src/pb_remote_server.c.obj
 .rodata.server_reliable_status_cb.str1.1
                0x00033468       0x3f examples/pb_remote/server/CMakeFiles/pb_remote_server_nrf52832_xxAA_s132_3.1.0.dir/__/__/__/models/pb_remote/src/pb_remote_server.c.obj
 .rodata.mesh_evt_cb.str1.1
                0x000334a7       0x2f examples/pb_remote/server/CMakeFiles/pb_remote_server_nrf52832_xxAA_s132_3.1.0.dir/__/__/__/mesh/access/src/access.c.obj
 .rodata.multiply_de_bruijn_bit_position.9032
                0x000334d6       0x20 examples/pb_remote/server/CMakeFiles/pb_remote_server_nrf52832_xxAA_s132_3.1.0.dir/__/__/__/mesh/access/src/access.c.obj
 .rodata.packet_tx.str1.1
                0x000334f6       0x13 examples/pb_remote/server/CMakeFiles/pb_remote_server_nrf52832_xxAA_s132_3.1.0.dir/__/__/__/mesh/access/src/access.c.obj
 *fill*         0x00033509        0x3 
 .rodata.m_flash_groups
                0x0003350c       0xa8 examples/pb_remote/server/CMakeFiles/pb_remote_server_nrf52832_xxAA_s132_3.1.0.dir/__/__/__/mesh/access/src/device_state_manager.c.obj
 .rodata.default_mesh_assertion_handler.str1.1
                0x000335b4       0x19 examples/pb_remote/server/CMakeFiles/pb_remote_server_nrf52832_xxAA_s132_3.1.0.dir/__/__/__/mesh/access/src/nrf_mesh_node_config.c.obj
 .rodata.default_softdevice_assertion_handler.str1.1
                0x000335b4       0x47 examples/pb_remote/server/CMakeFiles/pb_remote_server_nrf52832_xxAA_s132_3.1.0.dir/__/__/__/mesh/access/src/nrf_mesh_node_config.c.obj
 *fill*         0x000335fb        0x1 
 .rodata        0x000335fc        0x8 examples/pb_remote/server/CMakeFiles/pb_remote_server_nrf52832_xxAA_s132_3.1.0.dir/__/__/__/models/config/src/config_server.c.obj
 .rodata.CSWTCH.173
                0x00033604        0xc examples/pb_remote/server/CMakeFiles/pb_remote_server_nrf52832_xxAA_s132_3.1.0.dir/__/__/__/models/config/src/config_server.c.obj
 .rodata.CSWTCH.185
                0x00033610        0x7 examples/pb_remote/server/CMakeFiles/pb_remote_server_nrf52832_xxAA_s132_3.1.0.dir/__/__/__/models/config/src/config_server.c.obj
 *fill*         0x00033617        0x1 
 .rodata.opcode_handlers
                0x00033618      0x170 examples/pb_remote/server/CMakeFiles/pb_remote_server_nrf52832_xxAA_s132_3.1.0.dir/__/__/__/models/config/src/config_server.c.obj
 .rodata.m_opcode_handlers
                0x00033788       0x58 examples/pb_remote/server/CMakeFiles/pb_remote_server_nrf52832_xxAA_s132_3.1.0.dir/__/__/__/models/health/src/health_server.c.obj
 .rodata.multiply_de_bruijn_bit_position.9076
                0x000337e0       0x20 examples/pb_remote/server/CMakeFiles/pb_remote_server_nrf52832_xxAA_s132_3.1.0.dir/__/__/__/models/health/src/health_server.c.obj
 .rodata.types_lookup.8837
                0x00033800        0x4 mesh/core/libmesh_core_nrf52832_xxAA.a(nrf_mesh_utils.c.obj)
 .rodata.nrf_mesh_listen.str1.1
                0x00033804       0x70 mesh/core/libmesh_core_nrf52832_xxAA.a(nrf_mesh.c.obj)
 .rodata.CSWTCH.9
                0x00033874       0x10 mesh/core/libmesh_core_nrf52832_xxAA.a(hal.c.obj)
 .rodata        0x00033884       0x15 mesh/core/libmesh_core_nrf52832_xxAA.a(enc.c.obj)
 .rodata.network_packet_in.str1.1
                0x00033899       0x40 mesh/core/libmesh_core_nrf52832_xxAA.a(network.c.obj)
                                 0x48 (size before relaxing)
 .rodata.network_packet_send.str1.1
                0x000338d9       0x49 mesh/core/libmesh_core_nrf52832_xxAA.a(network.c.obj)
 .rodata        0x00033922        0x7 mesh/core/libmesh_core_nrf52832_xxAA.a(nrf_mesh_keygen.c.obj)
 .rodata.log_callback_rtt.str1.1
                0x00033929       0x15 mesh/core/libmesh_core_nrf52832_xxAA.a(log.c.obj)
 .rodata.str1.1
                0x0003393e       0x11 mesh/core/libmesh_core_nrf52832_xxAA.a(log.c.obj)
 *fill*         0x0003394f        0x1 
 .rodata.INVALID_HEADER
                0x00033950        0x4 mesh/core/libmesh_core_nrf52832_xxAA.a(flash_manager.c.obj)
                0x00033950                INVALID_HEADER
 .rodata.PADDING_HEADER
                0x00033954        0x4 mesh/core/libmesh_core_nrf52832_xxAA.a(flash_manager.c.obj)
                0x00033954                PADDING_HEADER
 .rodata.SEAL_HEADER
                0x00033958        0x4 mesh/core/libmesh_core_nrf52832_xxAA.a(flash_manager.c.obj)
                0x00033958                SEAL_HEADER
 .rodata.process_action_queue.str1.1
                0x0003395c       0x21 mesh/core/libmesh_core_nrf52832_xxAA.a(flash_manager.c.obj)
                                 0x4f (size before relaxing)
 .rodata.beacon_packet_in.str1.1
                0x0003397d       0x51 mesh/core/libmesh_core_nrf52832_xxAA.a(beacon.c.obj)
                                 0x59 (size before relaxing)
 *fill*         0x000339ce        0x2 
 .rodata.cp_handler
                0x000339d0        0x8 mesh/core/libmesh_core_nrf52832_xxAA.a(heartbeat.c.obj)
 .rodata.net_beacon_init.str1.1
                0x000339d8        0x5 mesh/core/libmesh_core_nrf52832_xxAA.a(net_beacon.c.obj)
 *fill*         0x000339dd        0x3 
 .rodata.m_interface
                0x000339e0        0xc mesh/core/libmesh_core_nrf52832_xxAA.a(core_tx_adv.c.obj)
 .rodata.radio_mode_to_us_per_byte.9234
                0x000339ec        0x6 mesh/core/libmesh_core_nrf52832_xxAA.a(broadcast.c.obj)
 .rodata.channel_rf_offsets.8475
                0x000339f2       0x28 mesh/core/libmesh_core_nrf52832_xxAA.a(radio_config.c.obj)
 .rodata        0x00033a1a        0x3 mesh/core/libmesh_core_nrf52832_xxAA.a(scanner.c.obj)
 .rodata.sar_ctx_cancel.str1.1
                0x00033a1d       0x18 mesh/core/libmesh_core_nrf52832_xxAA.a(transport.c.obj)
 .rodata.sar_ctx_tx_complete.str1.1
                0x00033a35       0x1d mesh/core/libmesh_core_nrf52832_xxAA.a(transport.c.obj)
                                 0x4b (size before relaxing)
 .rodata.test_transport_decrypt.str1.1
                0x00033a52       0x13 mesh/core/libmesh_core_nrf52832_xxAA.a(transport.c.obj)
 .rodata.transport_packet_in.str1.1
                0x00033a65       0x24 mesh/core/libmesh_core_nrf52832_xxAA.a(transport.c.obj)
 .rodata.upper_transport_access_packet_in.str1.1
                0x00033a89       0x29 mesh/core/libmesh_core_nrf52832_xxAA.a(transport.c.obj)
 .rodata.upper_transport_packet_in.str1.1
                0x00033ab2       0x2e mesh/core/libmesh_core_nrf52832_xxAA.a(transport.c.obj)
 .rodata.upper_transport_tx.str1.1
                0x00033ae0       0x2c mesh/core/libmesh_core_nrf52832_xxAA.a(transport.c.obj)
                                 0x34 (size before relaxing)
 .rodata.flash_manager_defrag.str1.1
                0x00033b0c       0x28 mesh/core/libmesh_core_nrf52832_xxAA.a(flash_manager_defrag.c.obj)
                                 0x56 (size before relaxing)
 .rodata.m_procedure_steps
                0x00033b34       0x28 mesh/core/libmesh_core_nrf52832_xxAA.a(flash_manager_defrag.c.obj)
 .rodata.m_all_operations
                0x00033b5c       0x10 mesh/core/libmesh_core_nrf52832_xxAA.a(mesh_flash.c.obj)
 .rodata.Rb.7348
                0x00033b6c       0x10 mesh/core/libmesh_core_nrf52832_xxAA.a(aes_cmac.c.obj)
 .rodata._DoInit.str1.1
                0x00033b7c       0x14 external/rtt/librtt_nrf52832_xxAA.a(SEGGER_RTT.c.obj)
 .rodata._aV2C.5497
                0x00033b90       0x10 external/rtt/librtt_nrf52832_xxAA.a(SEGGER_RTT_printf.c.obj)
 .rodata.curve_secp256r1
                0x00033ba0       0xb0 external/micro-ecc/libuECC_nrf52832_xxAA.a(uECC.c.obj)
 .rodata._global_impure_ptr
                0x00033c50        0x4 c:/a/gcc_arm/6/bin/../lib/gcc/arm-none-eabi/6.3.1/../../../../arm-none-eabi/lib/thumb/v7e-m/fpv4-sp/hard\libg_nano.a(lib_a-impure.o)
                0x00033c50                _global_impure_ptr
 *(.eh_frame*)
 .eh_frame      0x00033c54        0x0 c:/a/gcc_arm/6/bin/../lib/gcc/arm-none-eabi/6.3.1/thumb/v7e-m/fpv4-sp/hard/crtbegin.o
 .eh_frame      0x00033c54        0x4 c:/a/gcc_arm/6/bin/../lib/gcc/arm-none-eabi/6.3.1/thumb/v7e-m/fpv4-sp/hard/crtend.o

.glue_7         0x00033c58        0x0
 .glue_7        0x00033c58        0x0 linker stubs

.glue_7t        0x00033c58        0x0
 .glue_7t       0x00033c58        0x0 linker stubs

.vfp11_veneer   0x00033c58        0x0
 .vfp11_veneer  0x00033c58        0x0 linker stubs

.v4_bx          0x00033c58        0x0
 .v4_bx         0x00033c58        0x0 linker stubs

.iplt           0x00033c58        0x0
 .iplt          0x00033c58        0x0 c:/a/gcc_arm/6/bin/../lib/gcc/arm-none-eabi/6.3.1/thumb/v7e-m/fpv4-sp/hard/crtbegin.o

.pwr_mgmt_data  0x00033c58        0x0
                [!provide]                PROVIDE (__start_pwr_mgmt_data, .)
 *(SORT(.pwr_mgmt_data*))
                [!provide]                PROVIDE (__stop_pwr_mgmt_data, .)

.log_const_data
                0x00033c58        0x0
                [!provide]                PROVIDE (__start_log_const_data, .)
 *(.log_const_data)
                [!provide]                PROVIDE (__stop_log_const_data, .)

.cli_command    0x00033c58        0x0
                [!provide]                PROVIDE (__start_cli_command, .)
 *(.cli_command)
                [!provide]                PROVIDE (__stop_cli_command, .)

.sdh_stack_observers
                0x00033c58        0x0
                [!provide]                PROVIDE (__start_sdh_stack_observers, .)
 *(SORT(.sdh_stack_observers*))
                [!provide]                PROVIDE (__stop_sdh_stack_observers, .)

.sdh_req_observers
                0x00033c58        0x0
                [!provide]                PROVIDE (__start_sdh_req_observers, .)
 *(SORT(.sdh_req_observers*))
                [!provide]                PROVIDE (__stop_sdh_req_observers, .)

.sdh_state_observers
                0x00033c58        0x0
                [!provide]                PROVIDE (__start_sdh_state_observers, .)
 *(SORT(.sdh_state_observers*))
                [!provide]                PROVIDE (__stop_sdh_state_observers, .)

.sdh_ant_observers
                0x00033c58        0x0
                [!provide]                PROVIDE (__start_sdh_ant_observers, .)
 *(SORT(.sdh_ant_observers*))
                [!provide]                PROVIDE (__stop_sdh_ant_observers, .)

.sdh_ble_observers
                0x00033c58        0x0
                [!provide]                PROVIDE (__start_sdh_ble_observers, .)
 *(SORT(.sdh_ble_observers*))
                [!provide]                PROVIDE (__stop_sdh_ble_observers, .)

.sdh_soc_observers
                0x00033c58        0x0
                [!provide]                PROVIDE (__start_sdh_soc_observers, .)
 *(SORT(.sdh_soc_observers*))
                [!provide]                PROVIDE (__stop_sdh_soc_observers, .)

.ARM.extab
 *(.ARM.extab* .gnu.linkonce.armextab.*)
                0x00033c58                __exidx_start = .

.ARM.exidx      0x00033c58        0x8
 *(.ARM.exidx* .gnu.linkonce.armexidx.*)
 .ARM.exidx     0x00033c58        0x8 c:/a/gcc_arm/6/bin/../lib/gcc/arm-none-eabi/6.3.1/../../../../arm-none-eabi/lib/thumb/v7e-m/fpv4-sp/hard/crt0.o
                0x00033c60                __exidx_end = .
                0x00033c60                __etext = .

.rel.dyn        0x00033c60        0x0
 .rel.iplt      0x00033c60        0x0 c:/a/gcc_arm/6/bin/../lib/gcc/arm-none-eabi/6.3.1/thumb/v7e-m/fpv4-sp/hard/crtbegin.o

.data           0x200019c0      0x170 load address 0x00033c60
                0x200019c0                __data_start__ = .
 *(vtable)
 *(.data*)
 .data.config_params.12629
                0x200019c0       0x40 examples/pb_remote/server/CMakeFiles/pb_remote_server_nrf52832_xxAA_s132_3.1.0.dir/src/main.c.obj
 .data.m_async_process_flag
                0x20001a00        0x4 examples/pb_remote/server/CMakeFiles/pb_remote_server_nrf52832_xxAA_s132_3.1.0.dir/__/__/__/mesh/prov/src/prov_bearer_adv.c.obj
 .data.flash_add_mem_available_struct.10104
                0x20001a04       0x10 examples/pb_remote/server/CMakeFiles/pb_remote_server_nrf52832_xxAA_s132_3.1.0.dir/__/__/__/mesh/access/src/access.c.obj
 .data.flash_clear_mem_available_struct.10193
                0x20001a14       0x10 examples/pb_remote/server/CMakeFiles/pb_remote_server_nrf52832_xxAA_s132_3.1.0.dir/__/__/__/mesh/access/src/access.c.obj
 .data.flash_store_mem_available_struct.10217
                0x20001a24       0x10 examples/pb_remote/server/CMakeFiles/pb_remote_server_nrf52832_xxAA_s132_3.1.0.dir/__/__/__/mesh/access/src/access.c.obj
 .data.m_default_ttl
                0x20001a34        0x1 examples/pb_remote/server/CMakeFiles/pb_remote_server_nrf52832_xxAA_s132_3.1.0.dir/__/__/__/mesh/access/src/access.c.obj
 *fill*         0x20001a35        0x3 
 .data.mem_listener.10412
                0x20001a38       0x10 examples/pb_remote/server/CMakeFiles/pb_remote_server_nrf52832_xxAA_s132_3.1.0.dir/__/__/__/mesh/access/src/device_state_manager.c.obj
 .data.mem_listener.10438
                0x20001a48       0x10 examples/pb_remote/server/CMakeFiles/pb_remote_server_nrf52832_xxAA_s132_3.1.0.dir/__/__/__/mesh/access/src/device_state_manager.c.obj
 .data.m_config_server_handle
                0x20001a58        0x2 examples/pb_remote/server/CMakeFiles/pb_remote_server_nrf52832_xxAA_s132_3.1.0.dir/__/__/__/models/config/src/config_server.c.obj
 *fill*         0x20001a5a        0x2 
 .data.SystemCoreClock
                0x20001a5c        0x4 examples/pb_remote/server/CMakeFiles/pb_remote_server_nrf52832_xxAA_s132_3.1.0.dir/__/__/__/external/nRF5_SDK_14.2.0_17b948a/components/toolchain/system_nrf52.c.obj
                0x20001a5c                SystemCoreClock
 .data.mem_listener.9558
                0x20001a60       0x10 mesh/core/libmesh_core_nrf52832_xxAA.a(net_state.c.obj)
 .data.mem_listener.9563
                0x20001a70       0x10 mesh/core/libmesh_core_nrf52832_xxAA.a(net_state.c.obj)
 .data.mem_listener.9577
                0x20001a80       0x10 mesh/core/libmesh_core_nrf52832_xxAA.a(net_state.c.obj)
 .data.mem_listener.9594
                0x20001a90       0x10 mesh/core/libmesh_core_nrf52832_xxAA.a(net_state.c.obj)
 .data.m_nrf_mesh_listener
                0x20001aa0        0xc mesh/core/libmesh_core_nrf52832_xxAA.a(nrf_mesh.c.obj)
 .data.g_log_dbg_lvl
                0x20001aac        0x4 mesh/core/libmesh_core_nrf52832_xxAA.a(log.c.obj)
                0x20001aac                g_log_dbg_lvl
 .data.g_log_dbg_msk
                0x20001ab0        0x4 mesh/core/libmesh_core_nrf52832_xxAA.a(log.c.obj)
                0x20001ab0                g_log_dbg_msk
 .data.g_log_hex_digits
                0x20001ab4        0x4 mesh/core/libmesh_core_nrf52832_xxAA.a(log.c.obj)
                0x20001ab4                g_log_hex_digits
 .data.m_log_callback
                0x20001ab8        0x4 mesh/core/libmesh_core_nrf52832_xxAA.a(log.c.obj)
                0x20001ab8                m_log_callback
 .data.g_rng_function
                0x20001abc        0x4 external/micro-ecc/libuECC_nrf52832_xxAA.a(uECC.c.obj)
 .data._impure_ptr
                0x20001ac0        0x4 c:/a/gcc_arm/6/bin/../lib/gcc/arm-none-eabi/6.3.1/../../../../arm-none-eabi/lib/thumb/v7e-m/fpv4-sp/hard\libg_nano.a(lib_a-impure.o)
                0x20001ac0                _impure_ptr
 .data.impure_data
                0x20001ac4       0x60 c:/a/gcc_arm/6/bin/../lib/gcc/arm-none-eabi/6.3.1/../../../../arm-none-eabi/lib/thumb/v7e-m/fpv4-sp/hard\libg_nano.a(lib_a-impure.o)
                0x20001b24                . = ALIGN (0x4)
                0x20001b24                PROVIDE (__preinit_array_start, .)
 *(.preinit_array)
                0x20001b24                PROVIDE (__preinit_array_end, .)
                0x20001b24                . = ALIGN (0x4)
                0x20001b24                PROVIDE (__init_array_start, .)
 *(SORT(.init_array.*))
 *(.init_array)
 .init_array    0x20001b24        0x4 c:/a/gcc_arm/6/bin/../lib/gcc/arm-none-eabi/6.3.1/thumb/v7e-m/fpv4-sp/hard/crtbegin.o
                0x20001b28                PROVIDE (__init_array_end, .)
                0x20001b28                . = ALIGN (0x4)
                [!provide]                PROVIDE (__fini_array_start, .)
 *(SORT(.fini_array.*))
 *(.fini_array)
 .fini_array    0x20001b28        0x4 c:/a/gcc_arm/6/bin/../lib/gcc/arm-none-eabi/6.3.1/thumb/v7e-m/fpv4-sp/hard/crtbegin.o
                [!provide]                PROVIDE (__fini_array_end, .)
 *(.jcr*)
 .jcr           0x20001b2c        0x0 c:/a/gcc_arm/6/bin/../lib/gcc/arm-none-eabi/6.3.1/thumb/v7e-m/fpv4-sp/hard/crtbegin.o
 .jcr           0x20001b2c        0x4 c:/a/gcc_arm/6/bin/../lib/gcc/arm-none-eabi/6.3.1/thumb/v7e-m/fpv4-sp/hard/crtend.o
                0x20001b30                . = ALIGN (0x4)
                0x20001b30                __data_end__ = .
LOAD c:/a/gcc_arm/6/bin/../lib/gcc/arm-none-eabi/6.3.1/thumb/v7e-m/fpv4-sp/hard/crti.o
LOAD c:/a/gcc_arm/6/bin/../lib/gcc/arm-none-eabi/6.3.1/thumb/v7e-m/fpv4-sp/hard/crtbegin.o
LOAD c:/a/gcc_arm/6/bin/../lib/gcc/arm-none-eabi/6.3.1/../../../../arm-none-eabi/lib/thumb/v7e-m/fpv4-sp/hard/crt0.o
LOAD examples/pb_remote/server/CMakeFiles/pb_remote_server_nrf52832_xxAA_s132_3.1.0.dir/src/main.c.obj
LOAD examples/pb_remote/server/CMakeFiles/pb_remote_server_nrf52832_xxAA_s132_3.1.0.dir/__/__/nrf_mesh_sdk.c.obj
LOAD examples/pb_remote/server/CMakeFiles/pb_remote_server_nrf52832_xxAA_s132_3.1.0.dir/__/__/common/src/simple_hal.c.obj
LOAD examples/pb_remote/server/CMakeFiles/pb_remote_server_nrf52832_xxAA_s132_3.1.0.dir/__/__/nrf_mesh_weak.c.obj
LOAD examples/pb_remote/server/CMakeFiles/pb_remote_server_nrf52832_xxAA_s132_3.1.0.dir/__/__/__/mesh/prov/src/prov_provisionee.c.obj
LOAD examples/pb_remote/server/CMakeFiles/pb_remote_server_nrf52832_xxAA_s132_3.1.0.dir/__/__/__/mesh/prov/src/nrf_mesh_prov.c.obj
LOAD examples/pb_remote/server/CMakeFiles/pb_remote_server_nrf52832_xxAA_s132_3.1.0.dir/__/__/__/mesh/prov/src/provisioning.c.obj
LOAD examples/pb_remote/server/CMakeFiles/pb_remote_server_nrf52832_xxAA_s132_3.1.0.dir/__/__/__/mesh/prov/src/prov_beacon.c.obj
LOAD examples/pb_remote/server/CMakeFiles/pb_remote_server_nrf52832_xxAA_s132_3.1.0.dir/__/__/__/mesh/prov/src/prov_utils.c.obj
LOAD examples/pb_remote/server/CMakeFiles/pb_remote_server_nrf52832_xxAA_s132_3.1.0.dir/__/__/__/mesh/prov/src/prov_bearer_adv.c.obj
LOAD examples/pb_remote/server/CMakeFiles/pb_remote_server_nrf52832_xxAA_s132_3.1.0.dir/__/__/__/models/pb_remote/src/pb_remote_server.c.obj
LOAD examples/pb_remote/server/CMakeFiles/pb_remote_server_nrf52832_xxAA_s132_3.1.0.dir/__/__/__/mesh/access/src/access_publish.c.obj
LOAD examples/pb_remote/server/CMakeFiles/pb_remote_server_nrf52832_xxAA_s132_3.1.0.dir/__/__/__/mesh/access/src/access.c.obj
LOAD examples/pb_remote/server/CMakeFiles/pb_remote_server_nrf52832_xxAA_s132_3.1.0.dir/__/__/__/mesh/access/src/access_reliable.c.obj
LOAD examples/pb_remote/server/CMakeFiles/pb_remote_server_nrf52832_xxAA_s132_3.1.0.dir/__/__/__/mesh/access/src/device_state_manager.c.obj
LOAD examples/pb_remote/server/CMakeFiles/pb_remote_server_nrf52832_xxAA_s132_3.1.0.dir/__/__/__/mesh/access/src/nrf_mesh_node_config.c.obj
LOAD examples/pb_remote/server/CMakeFiles/pb_remote_server_nrf52832_xxAA_s132_3.1.0.dir/__/__/__/models/config/src/composition_data.c.obj
LOAD examples/pb_remote/server/CMakeFiles/pb_remote_server_nrf52832_xxAA_s132_3.1.0.dir/__/__/__/models/config/src/config_server.c.obj
LOAD examples/pb_remote/server/CMakeFiles/pb_remote_server_nrf52832_xxAA_s132_3.1.0.dir/__/__/__/models/config/src/packed_index_list.c.obj
LOAD examples/pb_remote/server/CMakeFiles/pb_remote_server_nrf52832_xxAA_s132_3.1.0.dir/__/__/__/models/health/src/health_server.c.obj
LOAD examples/pb_remote/server/CMakeFiles/pb_remote_server_nrf52832_xxAA_s132_3.1.0.dir/__/__/__/external/nRF5_SDK_14.2.0_17b948a/components/toolchain/system_nrf52.c.obj
LOAD examples/pb_remote/server/CMakeFiles/pb_remote_server_nrf52832_xxAA_s132_3.1.0.dir/__/__/__/external/nRF5_SDK_14.2.0_17b948a/components/toolchain/gcc/gcc_startup_nrf52.S.obj
LOAD mesh/core/libmesh_core_nrf52832_xxAA.a
LOAD external/rtt/librtt_nrf52832_xxAA.a
LOAD external/micro-ecc/libuECC_nrf52832_xxAA.a
START GROUP
LOAD c:/a/gcc_arm/6/bin/../lib/gcc/arm-none-eabi/6.3.1/thumb/v7e-m/fpv4-sp/hard\libgcc.a
LOAD c:/a/gcc_arm/6/bin/../lib/gcc/arm-none-eabi/6.3.1/../../../../arm-none-eabi/lib/thumb/v7e-m/fpv4-sp/hard\libg_nano.a
LOAD c:/a/gcc_arm/6/bin/../lib/gcc/arm-none-eabi/6.3.1/../../../../arm-none-eabi/lib/thumb/v7e-m/fpv4-sp/hard\libc_nano.a
END GROUP
START GROUP
LOAD c:/a/gcc_arm/6/bin/../lib/gcc/arm-none-eabi/6.3.1/thumb/v7e-m/fpv4-sp/hard\libgcc.a
LOAD c:/a/gcc_arm/6/bin/../lib/gcc/arm-none-eabi/6.3.1/../../../../arm-none-eabi/lib/thumb/v7e-m/fpv4-sp/hard\libc_nano.a
END GROUP
LOAD c:/a/gcc_arm/6/bin/../lib/gcc/arm-none-eabi/6.3.1/thumb/v7e-m/fpv4-sp/hard/crtend.o
LOAD c:/a/gcc_arm/6/bin/../lib/gcc/arm-none-eabi/6.3.1/thumb/v7e-m/fpv4-sp/hard/crtn.o
START GROUP
LOAD c:/a/gcc_arm/6/bin/../lib/gcc/arm-none-eabi/6.3.1/thumb/v7e-m/fpv4-sp/hard\libgcc.a
LOAD c:/a/gcc_arm/6/bin/../lib/gcc/arm-none-eabi/6.3.1/../../../../arm-none-eabi/lib/thumb/v7e-m/fpv4-sp/hard\libc.a
LOAD c:/a/gcc_arm/6/bin/../lib/gcc/arm-none-eabi/6.3.1/../../../../arm-none-eabi/lib/thumb/v7e-m/fpv4-sp/hard\libnosys.a
END GROUP

.igot.plt       0x20001b30        0x0 load address 0x00033dd0
 .igot.plt      0x20001b30        0x0 c:/a/gcc_arm/6/bin/../lib/gcc/arm-none-eabi/6.3.1/thumb/v7e-m/fpv4-sp/hard/crtbegin.o
                0x20001b30                . = ALIGN (0x4)

.svc_data       0x20001b30        0x0
                [!provide]                PROVIDE (__start_svc_data, .)
 *(.svc_data)
                [!provide]                PROVIDE (__stop_svc_data, .)

.fs_data        0x20001b30        0x0
                [!provide]                PROVIDE (__start_fs_data, .)
 *(.fs_data)
                [!provide]                PROVIDE (__stop_fs_data, .)

.log_dynamic_data
                0x20001b30        0x0
                [!provide]                PROVIDE (__start_log_dynamic_data, .)
 *(.log_dynamic_data)
                [!provide]                PROVIDE (__stop_log_dynamic_data, .)

.cli_sorted_cmd_ptrs
                0x20001b30        0x0
                [!provide]                PROVIDE (__start_cli_sorted_cmd_ptrs, .)
 *(.cli_sorted_cmd_ptrs)
                [!provide]                PROVIDE (__stop_cli_sorted_cmd_ptrs, .)

.bss            0x20001b30     0x330c load address 0x00033dd0
                0x20001b30                . = ALIGN (0x4)
                0x20001b30                __bss_start__ = .
 *(.bss*)
 .bss           0x20001b30       0x1c c:/a/gcc_arm/6/bin/../lib/gcc/arm-none-eabi/6.3.1/thumb/v7e-m/fpv4-sp/hard/crtbegin.o
 .bss.m_appkey_handle
                0x20001b4c        0x2 examples/pb_remote/server/CMakeFiles/pb_remote_server_nrf52832_xxAA_s132_3.1.0.dir/src/main.c.obj
 *fill*         0x20001b4e        0x2 
 .bss.m_prov_bearer_adv
                0x20001b50      0x1c0 examples/pb_remote/server/CMakeFiles/pb_remote_server_nrf52832_xxAA_s132_3.1.0.dir/src/main.c.obj
 .bss.m_provisioner_address_handle
                0x20001d10        0x2 examples/pb_remote/server/CMakeFiles/pb_remote_server_nrf52832_xxAA_s132_3.1.0.dir/src/main.c.obj
 *fill*         0x20001d12        0x2 
 .bss.m_remote_server
                0x20001d14       0x2c examples/pb_remote/server/CMakeFiles/pb_remote_server_nrf52832_xxAA_s132_3.1.0.dir/src/main.c.obj
 .bss.m_ble_evt_buffer
                0x20001d40       0x4f examples/pb_remote/server/CMakeFiles/pb_remote_server_nrf52832_xxAA_s132_3.1.0.dir/__/__/nrf_mesh_sdk.c.obj
 *fill*         0x20001d8f        0x1 
 .bss.m_button_handler_cb
                0x20001d90        0x4 examples/pb_remote/server/CMakeFiles/pb_remote_server_nrf52832_xxAA_s132_3.1.0.dir/__/__/common/src/simple_hal.c.obj
 .bss.m_last_button_press
                0x20001d94        0x4 examples/pb_remote/server/CMakeFiles/pb_remote_server_nrf52832_xxAA_s132_3.1.0.dir/__/__/common/src/simple_hal.c.obj
 .bss.m_event_handler
                0x20001d98        0x4 examples/pb_remote/server/CMakeFiles/pb_remote_server_nrf52832_xxAA_s132_3.1.0.dir/__/__/__/mesh/prov/src/prov_beacon.c.obj
 .bss.m_offload_ecdh
                0x20001d9c        0x1 examples/pb_remote/server/CMakeFiles/pb_remote_server_nrf52832_xxAA_s132_3.1.0.dir/__/__/__/mesh/prov/src/prov_utils.c.obj
 *fill*         0x20001d9d        0x3 
 .bss.mp_bearer_head
                0x20001da0        0x4 examples/pb_remote/server/CMakeFiles/pb_remote_server_nrf52832_xxAA_s132_3.1.0.dir/__/__/__/mesh/prov/src/prov_bearer_adv.c.obj
 .bss.m_is_interrupting
                0x20001da4        0x1 examples/pb_remote/server/CMakeFiles/pb_remote_server_nrf52832_xxAA_s132_3.1.0.dir/__/__/__/models/pb_remote/src/pb_remote_server.c.obj
 .bss.m_packet  0x20001da5       0x41 examples/pb_remote/server/CMakeFiles/pb_remote_server_nrf52832_xxAA_s132_3.1.0.dir/__/__/__/models/pb_remote/src/pb_remote_server.c.obj
 *fill*         0x20001de6        0x2 
 .bss.m_pbr_server_alt_event_queue
                0x20001de8       0x14 examples/pb_remote/server/CMakeFiles/pb_remote_server_nrf52832_xxAA_s132_3.1.0.dir/__/__/__/models/pb_remote/src/pb_remote_server.c.obj
 .bss.m_pbr_server_alt_event_queue_buffer
                0x20001dfc       0x90 examples/pb_remote/server/CMakeFiles/pb_remote_server_nrf52832_xxAA_s132_3.1.0.dir/__/__/__/models/pb_remote/src/pb_remote_server.c.obj
 .bss.m_pbr_server_event_queue
                0x20001e8c       0x14 examples/pb_remote/server/CMakeFiles/pb_remote_server_nrf52832_xxAA_s132_3.1.0.dir/__/__/__/models/pb_remote/src/pb_remote_server.c.obj
 .bss.m_pbr_server_event_queue_buffer
                0x20001ea0       0x90 examples/pb_remote/server/CMakeFiles/pb_remote_server_nrf52832_xxAA_s132_3.1.0.dir/__/__/__/models/pb_remote/src/pb_remote_server.c.obj
 .bss.m_uuid_list
                0x20001f30       0x33 examples/pb_remote/server/CMakeFiles/pb_remote_server_nrf52832_xxAA_s132_3.1.0.dir/__/__/__/models/pb_remote/src/pb_remote_server.c.obj
 *fill*         0x20001f63        0x1 
 .bss.mp_pb_remote_server_model
                0x20001f64        0x4 examples/pb_remote/server/CMakeFiles/pb_remote_server_nrf52832_xxAA_s132_3.1.0.dir/__/__/__/models/pb_remote/src/pb_remote_server.c.obj
 .bss.m_publish_timer
                0x20001f68       0x18 examples/pb_remote/server/CMakeFiles/pb_remote_server_nrf52832_xxAA_s132_3.1.0.dir/__/__/__/mesh/access/src/access_publish.c.obj
 .bss.m_publish_timer_counter
                0x20001f80        0x4 examples/pb_remote/server/CMakeFiles/pb_remote_server_nrf52832_xxAA_s132_3.1.0.dir/__/__/__/mesh/access/src/access_publish.c.obj
 .bss.m_publish_timer_running
                0x20001f84        0x1 examples/pb_remote/server/CMakeFiles/pb_remote_server_nrf52832_xxAA_s132_3.1.0.dir/__/__/__/mesh/access/src/access_publish.c.obj
 .bss.m_timer_resolution
                0x20001f85        0x1 examples/pb_remote/server/CMakeFiles/pb_remote_server_nrf52832_xxAA_s132_3.1.0.dir/__/__/__/mesh/access/src/access_publish.c.obj
 *fill*         0x20001f86        0x2 
 .bss.mp_publication_list
                0x20001f88        0x4 examples/pb_remote/server/CMakeFiles/pb_remote_server_nrf52832_xxAA_s132_3.1.0.dir/__/__/__/mesh/access/src/access_publish.c.obj
 .bss.m_element_pool
                0x20001f8c        0x6 examples/pb_remote/server/CMakeFiles/pb_remote_server_nrf52832_xxAA_s132_3.1.0.dir/__/__/__/mesh/access/src/access.c.obj
 *fill*         0x20001f92        0x2 
 .bss.m_evt_handler
                0x20001f94        0x8 examples/pb_remote/server/CMakeFiles/pb_remote_server_nrf52832_xxAA_s132_3.1.0.dir/__/__/__/mesh/access/src/access.c.obj
 .bss.m_flash_manager
                0x20001f9c       0x24 examples/pb_remote/server/CMakeFiles/pb_remote_server_nrf52832_xxAA_s132_3.1.0.dir/__/__/__/mesh/access/src/access.c.obj
 .bss.m_flash_not_ready
                0x20001fc0        0x1 examples/pb_remote/server/CMakeFiles/pb_remote_server_nrf52832_xxAA_s132_3.1.0.dir/__/__/__/mesh/access/src/access.c.obj
 .bss.m_metadata_stored
                0x20001fc1        0x1 examples/pb_remote/server/CMakeFiles/pb_remote_server_nrf52832_xxAA_s132_3.1.0.dir/__/__/__/mesh/access/src/access.c.obj
 *fill*         0x20001fc2        0x2 
 .bss.m_model_pool
                0x20001fc4       0x9c examples/pb_remote/server/CMakeFiles/pb_remote_server_nrf52832_xxAA_s132_3.1.0.dir/__/__/__/mesh/access/src/access.c.obj
 .bss.m_subscription_list_pool
                0x20002060       0x18 examples/pb_remote/server/CMakeFiles/pb_remote_server_nrf52832_xxAA_s132_3.1.0.dir/__/__/__/mesh/access/src/access.c.obj
 .bss.m_reliable
                0x20002078       0xa0 examples/pb_remote/server/CMakeFiles/pb_remote_server_nrf52832_xxAA_s132_3.1.0.dir/__/__/__/mesh/access/src/access_reliable.c.obj
 .bss.m_addr_nonvirtual_allocated
                0x20002118        0x4 examples/pb_remote/server/CMakeFiles/pb_remote_server_nrf52832_xxAA_s132_3.1.0.dir/__/__/__/mesh/access/src/device_state_manager.c.obj
 .bss.m_addr_nonvirtual_needs_flashing
                0x2000211c        0x4 examples/pb_remote/server/CMakeFiles/pb_remote_server_nrf52832_xxAA_s132_3.1.0.dir/__/__/__/mesh/access/src/device_state_manager.c.obj
 .bss.m_addr_unicast_allocated
                0x20002120        0x4 examples/pb_remote/server/CMakeFiles/pb_remote_server_nrf52832_xxAA_s132_3.1.0.dir/__/__/__/mesh/access/src/device_state_manager.c.obj
 .bss.m_addr_unicast_needs_flashing
                0x20002124        0x4 examples/pb_remote/server/CMakeFiles/pb_remote_server_nrf52832_xxAA_s132_3.1.0.dir/__/__/__/mesh/access/src/device_state_manager.c.obj
 .bss.m_addr_virtual_allocated
                0x20002128        0x4 examples/pb_remote/server/CMakeFiles/pb_remote_server_nrf52832_xxAA_s132_3.1.0.dir/__/__/__/mesh/access/src/device_state_manager.c.obj
 .bss.m_addr_virtual_needs_flashing
                0x2000212c        0x4 examples/pb_remote/server/CMakeFiles/pb_remote_server_nrf52832_xxAA_s132_3.1.0.dir/__/__/__/mesh/access/src/device_state_manager.c.obj
 .bss.m_addresses
                0x20002130       0x10 examples/pb_remote/server/CMakeFiles/pb_remote_server_nrf52832_xxAA_s132_3.1.0.dir/__/__/__/mesh/access/src/device_state_manager.c.obj
 .bss.m_appkey_allocated
                0x20002140        0x4 examples/pb_remote/server/CMakeFiles/pb_remote_server_nrf52832_xxAA_s132_3.1.0.dir/__/__/__/mesh/access/src/device_state_manager.c.obj
 .bss.m_appkey_needs_flashing
                0x20002144        0x4 examples/pb_remote/server/CMakeFiles/pb_remote_server_nrf52832_xxAA_s132_3.1.0.dir/__/__/__/mesh/access/src/device_state_manager.c.obj
 .bss.m_appkeys
                0x20002148       0x2a examples/pb_remote/server/CMakeFiles/pb_remote_server_nrf52832_xxAA_s132_3.1.0.dir/__/__/__/mesh/access/src/device_state_manager.c.obj
 *fill*         0x20002172        0x2 
 .bss.m_devkey_allocated
                0x20002174        0x4 examples/pb_remote/server/CMakeFiles/pb_remote_server_nrf52832_xxAA_s132_3.1.0.dir/__/__/__/mesh/access/src/device_state_manager.c.obj
 .bss.m_devkey_needs_flashing
                0x20002178        0x4 examples/pb_remote/server/CMakeFiles/pb_remote_server_nrf52832_xxAA_s132_3.1.0.dir/__/__/__/mesh/access/src/device_state_manager.c.obj
 .bss.m_devkeys
                0x2000217c       0x16 examples/pb_remote/server/CMakeFiles/pb_remote_server_nrf52832_xxAA_s132_3.1.0.dir/__/__/__/mesh/access/src/device_state_manager.c.obj
 .bss.m_flash_is_available
                0x20002192        0x1 examples/pb_remote/server/CMakeFiles/pb_remote_server_nrf52832_xxAA_s132_3.1.0.dir/__/__/__/mesh/access/src/device_state_manager.c.obj
 *fill*         0x20002193        0x1 
 .bss.m_flash_manager
                0x20002194       0x24 examples/pb_remote/server/CMakeFiles/pb_remote_server_nrf52832_xxAA_s132_3.1.0.dir/__/__/__/mesh/access/src/device_state_manager.c.obj
 .bss.m_flash_mem_listener_update_all
                0x200021b8       0x10 examples/pb_remote/server/CMakeFiles/pb_remote_server_nrf52832_xxAA_s132_3.1.0.dir/__/__/__/mesh/access/src/device_state_manager.c.obj
 .bss.m_has_primary_subnet
                0x200021c8        0x1 examples/pb_remote/server/CMakeFiles/pb_remote_server_nrf52832_xxAA_s132_3.1.0.dir/__/__/__/mesh/access/src/device_state_manager.c.obj
 *fill*         0x200021c9        0x1 
 .bss.m_local_unicast_addr
                0x200021ca        0x4 examples/pb_remote/server/CMakeFiles/pb_remote_server_nrf52832_xxAA_s132_3.1.0.dir/__/__/__/mesh/access/src/device_state_manager.c.obj
 *fill*         0x200021ce        0x2 
 .bss.m_subnet_allocated
                0x200021d0        0x4 examples/pb_remote/server/CMakeFiles/pb_remote_server_nrf52832_xxAA_s132_3.1.0.dir/__/__/__/mesh/access/src/device_state_manager.c.obj
 .bss.m_subnet_needs_flashing
                0x200021d4        0x4 examples/pb_remote/server/CMakeFiles/pb_remote_server_nrf52832_xxAA_s132_3.1.0.dir/__/__/__/mesh/access/src/device_state_manager.c.obj
 .bss.m_subnets
                0x200021d8       0xac examples/pb_remote/server/CMakeFiles/pb_remote_server_nrf52832_xxAA_s132_3.1.0.dir/__/__/__/mesh/access/src/device_state_manager.c.obj
 .bss.m_virtual_addresses
                0x20002284       0x14 examples/pb_remote/server/CMakeFiles/pb_remote_server_nrf52832_xxAA_s132_3.1.0.dir/__/__/__/mesh/access/src/device_state_manager.c.obj
 .bss.m_health_server
                0x20002298       0x5c examples/pb_remote/server/CMakeFiles/pb_remote_server_nrf52832_xxAA_s132_3.1.0.dir/__/__/__/mesh/access/src/nrf_mesh_node_config.c.obj
 .bss.m_node_provisioned
                0x200022f4        0x1 examples/pb_remote/server/CMakeFiles/pb_remote_server_nrf52832_xxAA_s132_3.1.0.dir/__/__/__/mesh/access/src/nrf_mesh_node_config.c.obj
 .bss.m_private_key
                0x200022f5       0x20 examples/pb_remote/server/CMakeFiles/pb_remote_server_nrf52832_xxAA_s132_3.1.0.dir/__/__/__/mesh/access/src/nrf_mesh_node_config.c.obj
 *fill*         0x20002315        0x3 
 .bss.m_prov_bearer_adv
                0x20002318      0x1c0 examples/pb_remote/server/CMakeFiles/pb_remote_server_nrf52832_xxAA_s132_3.1.0.dir/__/__/__/mesh/access/src/nrf_mesh_node_config.c.obj
 .bss.m_prov_ctx
                0x200024d8      0x130 examples/pb_remote/server/CMakeFiles/pb_remote_server_nrf52832_xxAA_s132_3.1.0.dir/__/__/__/mesh/access/src/nrf_mesh_node_config.c.obj
 .bss.m_public_key
                0x20002608       0x40 examples/pb_remote/server/CMakeFiles/pb_remote_server_nrf52832_xxAA_s132_3.1.0.dir/__/__/__/mesh/access/src/nrf_mesh_node_config.c.obj
 .bss.mp_init_params
                0x20002648        0x4 examples/pb_remote/server/CMakeFiles/pb_remote_server_nrf52832_xxAA_s132_3.1.0.dir/__/__/__/mesh/access/src/nrf_mesh_node_config.c.obj
 .bss.m_evt_cb  0x2000264c        0x4 examples/pb_remote/server/CMakeFiles/pb_remote_server_nrf52832_xxAA_s132_3.1.0.dir/__/__/__/models/config/src/config_server.c.obj
 .bss.m_heartbeat_publication
                0x20002650       0x14 examples/pb_remote/server/CMakeFiles/pb_remote_server_nrf52832_xxAA_s132_3.1.0.dir/__/__/__/models/config/src/config_server.c.obj
 .bss.m_attention_timer
                0x20002664       0x18 examples/pb_remote/server/CMakeFiles/pb_remote_server_nrf52832_xxAA_s132_3.1.0.dir/__/__/__/models/health/src/health_server.c.obj
 .bss.mp_attention_list
                0x2000267c        0x4 examples/pb_remote/server/CMakeFiles/pb_remote_server_nrf52832_xxAA_s132_3.1.0.dir/__/__/__/models/health/src/health_server.c.obj
 .bss.m_uuid    0x20002680       0x10 mesh/core/libmesh_core_nrf52832_xxAA.a(nrf_mesh_configure.c.obj)
 .bss.mp_evt_handlers_head
                0x20002690        0x4 mesh/core/libmesh_core_nrf52832_xxAA.a(event.c.obj)
 .bss.lock_count.9617
                0x20002694        0x4 mesh/core/libmesh_core_nrf52832_xxAA.a(net_state.c.obj)
 .bss.m_flash_manager
                0x20002698       0x24 mesh/core/libmesh_core_nrf52832_xxAA.a(net_state.c.obj)
 .bss.m_iv_update_timer
                0x200026bc       0x18 mesh/core/libmesh_core_nrf52832_xxAA.a(net_state.c.obj)
 .bss.m_net_state
                0x200026d4       0x14 mesh/core/libmesh_core_nrf52832_xxAA.a(net_state.c.obj)
 .bss.m_seqnum_allocation_in_progress
                0x200026e8        0x1 mesh/core/libmesh_core_nrf52832_xxAA.a(net_state.c.obj)
 .bss.m_test_mode
                0x200026e9        0x1 mesh/core/libmesh_core_nrf52832_xxAA.a(net_state.c.obj)
 .bss.m_is_enabled
                0x200026ea        0x1 mesh/core/libmesh_core_nrf52832_xxAA.a(nrf_mesh.c.obj)
 .bss.m_is_initialized
                0x200026eb        0x1 mesh/core/libmesh_core_nrf52832_xxAA.a(nrf_mesh.c.obj)
 .bss.m_rx_cb   0x200026ec        0x4 mesh/core/libmesh_core_nrf52832_xxAA.a(nrf_mesh.c.obj)
 .bss.m_event_flag
                0x200026f0        0x4 mesh/core/libmesh_core_nrf52832_xxAA.a(timer_scheduler.c.obj)
 .bss.m_scheduler
                0x200026f4       0x10 mesh/core/libmesh_core_nrf52832_xxAA.a(timer_scheduler.c.obj)
 .bss.m_attributes
                0x20002704        0x3 mesh/core/libmesh_core_nrf52832_xxAA.a(timer.c.obj)
 *fill*         0x20002707        0x1 
 .bss.m_callbacks
                0x20002708        0xc mesh/core/libmesh_core_nrf52832_xxAA.a(timer.c.obj)
 .bss.m_is_in_ts
                0x20002714        0x1 mesh/core/libmesh_core_nrf52832_xxAA.a(timer.c.obj)
 *fill*         0x20002715        0x3 
 .bss.m_reference_time
                0x20002718        0x4 mesh/core/libmesh_core_nrf52832_xxAA.a(timer.c.obj)
 .bss.m_timeouts
                0x2000271c        0xc mesh/core/libmesh_core_nrf52832_xxAA.a(timer.c.obj)
 .bss.m_timer_mut
                0x20002728        0x4 mesh/core/libmesh_core_nrf52832_xxAA.a(timer.c.obj)
 .bss.m_ts_end_time
                0x2000272c        0x4 mesh/core/libmesh_core_nrf52832_xxAA.a(timer.c.obj)
 .bss.mp_ppi_tasks
                0x20002730        0xc mesh/core/libmesh_core_nrf52832_xxAA.a(timer.c.obj)
 .bss.m_current_time
                0x2000273c        0x4 mesh/core/libmesh_core_nrf52832_xxAA.a(ticker.c.obj)
 .bss.m_timer   0x20002740       0x18 mesh/core/libmesh_core_nrf52832_xxAA.a(ticker.c.obj)
 .bss.m_current_timeslot
                0x20002758       0x1c mesh/core/libmesh_core_nrf52832_xxAA.a(timeslot.c.obj)
 .bss.m_lfclk_ppm
                0x20002774        0x4 mesh/core/libmesh_core_nrf52832_xxAA.a(timeslot.c.obj)
 .bss.m_radio_request_earliest
                0x20002778       0x10 mesh/core/libmesh_core_nrf52832_xxAA.a(timeslot.c.obj)
 .bss.m_state_lock
                0x20002788        0x1 mesh/core/libmesh_core_nrf52832_xxAA.a(timeslot.c.obj)
 .bss.m_timeslot_forced_command
                0x20002789        0x1 mesh/core/libmesh_core_nrf52832_xxAA.a(timeslot.c.obj)
 *fill*         0x2000278a        0x6 
 .bss.s_last_rtc_value.9081
                0x20002790        0x8 mesh/core/libmesh_core_nrf52832_xxAA.a(timeslot.c.obj)
 .bss.m_bearer_event_fifo
                0x20002798       0x14 mesh/core/libmesh_core_nrf52832_xxAA.a(bearer_event.c.obj)
 .bss.m_bearer_event_fifo_buffer
                0x200027ac      0x100 mesh/core/libmesh_core_nrf52832_xxAA.a(bearer_event.c.obj)
 .bss.m_critical
                0x200028ac        0x4 mesh/core/libmesh_core_nrf52832_xxAA.a(bearer_event.c.obj)
 .bss.m_flag_count
                0x200028b0        0x4 mesh/core/libmesh_core_nrf52832_xxAA.a(bearer_event.c.obj)
 .bss.m_flag_event_callbacks
                0x200028b4       0x20 mesh/core/libmesh_core_nrf52832_xxAA.a(bearer_event.c.obj)
 .bss.m_flags   0x200028d4        0x4 mesh/core/libmesh_core_nrf52832_xxAA.a(bearer_event.c.obj)
 .bss.m_irq_priority
                0x200028d8        0x1 mesh/core/libmesh_core_nrf52832_xxAA.a(bearer_event.c.obj)
 *fill*         0x200028d9        0x3 
 .bss.m_sequential_event_queue
                0x200028dc        0x8 mesh/core/libmesh_core_nrf52832_xxAA.a(bearer_event.c.obj)
 .bss.s_recursion_guard.9203
                0x200028e4        0x1 mesh/core/libmesh_core_nrf52832_xxAA.a(bearer_event.c.obj)
 *fill*         0x200028e5        0x3 
 .bss.m_relay_check_cb
                0x200028e8        0x4 mesh/core/libmesh_core_nrf52832_xxAA.a(network.c.obj)
 .bss.m_relay_enable
                0x200028ec        0x1 mesh/core/libmesh_core_nrf52832_xxAA.a(network.c.obj)
 *fill*         0x200028ed        0x3 
 .bss.m_action_queue
                0x200028f0        0xc mesh/core/libmesh_core_nrf52832_xxAA.a(flash_manager.c.obj)
 .bss.m_action_queue_buffer
                0x200028fc      0x104 mesh/core/libmesh_core_nrf52832_xxAA.a(flash_manager.c.obj)
 .bss.m_action_state
                0x20002a00        0x1 mesh/core/libmesh_core_nrf52832_xxAA.a(flash_manager.c.obj)
 *fill*         0x20002a01        0x3 
 .bss.m_memory_listener_queue
                0x20002a04        0x8 mesh/core/libmesh_core_nrf52832_xxAA.a(flash_manager.c.obj)
 .bss.m_processing_flag
                0x20002a0c        0x4 mesh/core/libmesh_core_nrf52832_xxAA.a(flash_manager.c.obj)
 .bss.m_queue_empty_cb
                0x20002a10        0x4 mesh/core/libmesh_core_nrf52832_xxAA.a(flash_manager.c.obj)
 .bss.m_state   0x20002a14        0x1 mesh/core/libmesh_core_nrf52832_xxAA.a(flash_manager.c.obj)
 *fill*         0x20002a15        0x1 
 .bss.m_token   0x20002a16        0x2 mesh/core/libmesh_core_nrf52832_xxAA.a(flash_manager.c.obj)
 .bss.p_current.10931
                0x20002a18        0x4 mesh/core/libmesh_core_nrf52832_xxAA.a(flash_manager.c.obj)
 .bss.result.10932
                0x20002a1c        0x1 mesh/core/libmesh_core_nrf52832_xxAA.a(flash_manager.c.obj)
 *fill*         0x20002a1d        0x3 
 .bss.m_adv_buffer
                0x20002a20       0x68 mesh/core/libmesh_core_nrf52832_xxAA.a(beacon.c.obj)
 .bss.m_advertiser
                0x20002a88       0x94 mesh/core/libmesh_core_nrf52832_xxAA.a(beacon.c.obj)
 .bss.m_bearers
                0x20002b1c        0x4 mesh/core/libmesh_core_nrf52832_xxAA.a(core_tx.c.obj)
 .bss.m_tx_complete_callback
                0x20002b20        0x4 mesh/core/libmesh_core_nrf52832_xxAA.a(core_tx.c.obj)
 .bss.m_hb_core_evt_handler
                0x20002b24        0x8 mesh/core/libmesh_core_nrf52832_xxAA.a(heartbeat.c.obj)
 .bss.m_hb_pending_feat_msg
                0x20002b2c        0x1 mesh/core/libmesh_core_nrf52832_xxAA.a(heartbeat.c.obj)
 .bss.m_hb_pending_pub_msg
                0x20002b2d        0x1 mesh/core/libmesh_core_nrf52832_xxAA.a(heartbeat.c.obj)
 .bss.m_heartbeat_init_done
                0x20002b2e        0x1 mesh/core/libmesh_core_nrf52832_xxAA.a(heartbeat.c.obj)
 *fill*         0x20002b2f        0x1 
 .bss.m_heartbeat_subscription
                0x20002b30       0x10 mesh/core/libmesh_core_nrf52832_xxAA.a(heartbeat.c.obj)
 .bss.m_publication_count_decrement_cb
                0x20002b40        0x4 mesh/core/libmesh_core_nrf52832_xxAA.a(heartbeat.c.obj)
 .bss.m_publication_get_cb
                0x20002b44        0x4 mesh/core/libmesh_core_nrf52832_xxAA.a(heartbeat.c.obj)
 .bss.m_publication_timer
                0x20002b48       0x1c mesh/core/libmesh_core_nrf52832_xxAA.a(heartbeat.c.obj)
 .bss.m_subscription_timer
                0x20002b64       0x18 mesh/core/libmesh_core_nrf52832_xxAA.a(heartbeat.c.obj)
 .bss.m_beacon_salt
                0x20002b7c       0x10 mesh/core/libmesh_core_nrf52832_xxAA.a(net_beacon.c.obj)
 .bss.m_enabled
                0x20002b8c        0x1 mesh/core/libmesh_core_nrf52832_xxAA.a(net_beacon.c.obj)
 *fill*         0x20002b8d        0x3 
 .bss.m_tx_event
                0x20002b90       0x18 mesh/core/libmesh_core_nrf52832_xxAA.a(net_beacon.c.obj)
 .bss.m_adv_tx_count
                0x20002ba8        0x8 mesh/core/libmesh_core_nrf52832_xxAA.a(core_tx_adv.c.obj)
 .bss.m_advertisers
                0x20002bb0      0x128 mesh/core/libmesh_core_nrf52832_xxAA.a(core_tx_adv.c.obj)
 .bss.m_originator_adv_packet_buffer
                0x20002cd8      0x100 mesh/core/libmesh_core_nrf52832_xxAA.a(core_tx_adv.c.obj)
 .bss.m_relay_adv_packet_buffer
                0x20002dd8       0x80 mesh/core/libmesh_core_nrf52832_xxAA.a(core_tx_adv.c.obj)
 .bss.m_subscribers
                0x20002e58        0x4 mesh/core/libmesh_core_nrf52832_xxAA.a(ad_listener.c.obj)
 .bss.m_adtype_filter
                0x20002e5c       0x38 mesh/core/libmesh_core_nrf52832_xxAA.a(ad_type_filter.c.obj)
 .bss.m_adv_prng
                0x20002e94       0x10 mesh/core/libmesh_core_nrf52832_xxAA.a(advertiser.c.obj)
 .bss.m_action_queue
                0x20002ea4        0x8 mesh/core/libmesh_core_nrf52832_xxAA.a(bearer_handler.c.obj)
 .bss.m_end_time
                0x20002eac        0x4 mesh/core/libmesh_core_nrf52832_xxAA.a(bearer_handler.c.obj)
 .bss.m_scanner_is_active
                0x20002eb0        0x1 mesh/core/libmesh_core_nrf52832_xxAA.a(bearer_handler.c.obj)
 .bss.m_stopped
                0x20002eb1        0x1 mesh/core/libmesh_core_nrf52832_xxAA.a(bearer_handler.c.obj)
 *fill*         0x20002eb2        0x2 
 .bss.mp_action
                0x20002eb4        0x4 mesh/core/libmesh_core_nrf52832_xxAA.a(bearer_handler.c.obj)
 .bss.m_next_channel_index
                0x20002eb8        0x1 mesh/core/libmesh_core_nrf52832_xxAA.a(broadcast.c.obj)
 *fill*         0x20002eb9        0x3 
 .bss.m_accepted_amount
                0x20002ebc        0x4 mesh/core/libmesh_core_nrf52832_xxAA.a(filter_engine.c.obj)
 .bss.m_filter_list_head
                0x20002ec0        0x4 mesh/core/libmesh_core_nrf52832_xxAA.a(filter_engine.c.obj)
 .bss.m_scanner
                0x20002ec4      0x28c mesh/core/libmesh_core_nrf52832_xxAA.a(scanner.c.obj)
 .bss.m_internal_event_fifo
                0x20003150       0x14 mesh/core/libmesh_core_nrf52832_xxAA.a(internal_event.c.obj)
 .bss.m_internal_event_initialized
                0x20003164        0x1 mesh/core/libmesh_core_nrf52832_xxAA.a(internal_event.c.obj)
 *fill*         0x20003165        0x3 
 .bss.m_report_cb
                0x20003168        0x4 mesh/core/libmesh_core_nrf52832_xxAA.a(internal_event.c.obj)
 .bss.m_msg_cache
                0x2000316c      0x100 mesh/core/libmesh_core_nrf52832_xxAA.a(msg_cache.c.obj)
 .bss.m_msg_cache_head
                0x2000326c        0x4 mesh/core/libmesh_core_nrf52832_xxAA.a(msg_cache.c.obj)
 .bss.m_control_packet_consumer_count
                0x20003270        0x4 mesh/core/libmesh_core_nrf52832_xxAA.a(transport.c.obj)
 .bss.m_control_packet_consumers
                0x20003274        0x8 mesh/core/libmesh_core_nrf52832_xxAA.a(transport.c.obj)
 .bss.m_sar_alloc
                0x2000327c        0x4 mesh/core/libmesh_core_nrf52832_xxAA.a(transport.c.obj)
 .bss.m_sar_process_flag
                0x20003280        0x4 mesh/core/libmesh_core_nrf52832_xxAA.a(transport.c.obj)
 .bss.m_sar_release
                0x20003284        0x4 mesh/core/libmesh_core_nrf52832_xxAA.a(transport.c.obj)
 .bss.m_sar_session_cache
                0x20003288       0x40 mesh/core/libmesh_core_nrf52832_xxAA.a(transport.c.obj)
 .bss.m_sar_session_cache_head
                0x200032c8        0x4 mesh/core/libmesh_core_nrf52832_xxAA.a(transport.c.obj)
 .bss.m_trs_config
                0x200032cc       0x18 mesh/core/libmesh_core_nrf52832_xxAA.a(transport.c.obj)
 .bss.m_trs_sar_sessions
                0x200032e4      0x1b0 mesh/core/libmesh_core_nrf52832_xxAA.a(transport.c.obj)
 .bss.m_defrag  0x20003494       0x1c mesh/core/libmesh_core_nrf52832_xxAA.a(flash_manager_defrag.c.obj)
 .bss.m_token   0x200034b0        0x2 mesh/core/libmesh_core_nrf52832_xxAA.a(flash_manager_defrag.c.obj)
 *fill*         0x200034b2        0x2 
 .bss.mp_recovery_area
                0x200034b4        0x4 mesh/core/libmesh_core_nrf52832_xxAA.a(flash_manager_defrag.c.obj)
 .bss.p_null_ptr.10022
                0x200034b8        0x4 mesh/core/libmesh_core_nrf52832_xxAA.a(flash_manager_defrag.c.obj)
 .bss.m_pool    0x200034bc     0x1000 mesh/core/libmesh_core_nrf52832_xxAA.a(packet_mgr.c.obj)
 .bss.mp_free_head
                0x200044bc        0x4 mesh/core/libmesh_core_nrf52832_xxAA.a(packet_mgr.c.obj)
 .bss.m_event_flag
                0x200044c0        0x4 mesh/core/libmesh_core_nrf52832_xxAA.a(mesh_flash.c.obj)
 .bss.m_suspended
                0x200044c4        0x1 mesh/core/libmesh_core_nrf52832_xxAA.a(mesh_flash.c.obj)
 *fill*         0x200044c5        0x3 
 .bss.m_users   0x200044c8      0x228 mesh/core/libmesh_core_nrf52832_xxAA.a(mesh_flash.c.obj)
 .bss.m_128buf  0x200046f0       0x10 mesh/core/libmesh_core_nrf52832_xxAA.a(aes_cmac.c.obj)
 .bss.m_subkey1
                0x20004700       0x10 mesh/core/libmesh_core_nrf52832_xxAA.a(aes_cmac.c.obj)
 .bss.m_subkey2
                0x20004710       0x10 mesh/core/libmesh_core_nrf52832_xxAA.a(aes_cmac.c.obj)
 .bss.m_cache_full
                0x20004720        0x1 mesh/core/libmesh_core_nrf52832_xxAA.a(replay_cache.c.obj)
 .bss.m_cache_index
                0x20004721        0x1 mesh/core/libmesh_core_nrf52832_xxAA.a(replay_cache.c.obj)
 *fill*         0x20004722        0x2 
 .bss.m_replay_cache
                0x20004724      0x200 mesh/core/libmesh_core_nrf52832_xxAA.a(replay_cache.c.obj)
 .bss._acDownBuffer
                0x20004924       0x80 external/rtt/librtt_nrf52832_xxAA.a(SEGGER_RTT.c.obj)
 .bss._acUpBuffer
                0x200049a4      0x400 external/rtt/librtt_nrf52832_xxAA.a(SEGGER_RTT.c.obj)
 .bss.__malloc_free_list
                0x20004da4        0x4 c:/a/gcc_arm/6/bin/../lib/gcc/arm-none-eabi/6.3.1/../../../../arm-none-eabi/lib/thumb/v7e-m/fpv4-sp/hard\libg_nano.a(lib_a-nano-mallocr.o)
                0x20004da4                __malloc_free_list
 .bss.__malloc_sbrk_start
                0x20004da8        0x4 c:/a/gcc_arm/6/bin/../lib/gcc/arm-none-eabi/6.3.1/../../../../arm-none-eabi/lib/thumb/v7e-m/fpv4-sp/hard\libg_nano.a(lib_a-nano-mallocr.o)
                0x20004da8                __malloc_sbrk_start
 .bss.heap_end.5239
                0x20004dac        0x4 c:/a/gcc_arm/6/bin/../lib/gcc/arm-none-eabi/6.3.1/../../../../arm-none-eabi/lib/thumb/v7e-m/fpv4-sp/hard\libnosys.a(sbrk.o)
 *(COMMON)
 COMMON         0x20004db0        0xc examples/pb_remote/server/CMakeFiles/pb_remote_server_nrf52832_xxAA_s132_3.1.0.dir/__/__/nrf_mesh_sdk.c.obj
                0x20004db0                nrf_nvic_state
 COMMON         0x20004dbc        0x4 mesh/core/libmesh_core_nrf52832_xxAA.a(nrf_mesh.c.obj)
                0x20004dbc                m_assertion_handler
 COMMON         0x20004dc0       0x78 external/rtt/librtt_nrf52832_xxAA.a(SEGGER_RTT.c.obj)
                0x20004dc0                _SEGGER_RTT
 COMMON         0x20004e38        0x4 c:/a/gcc_arm/6/bin/../lib/gcc/arm-none-eabi/6.3.1/../../../../arm-none-eabi/lib/thumb/v7e-m/fpv4-sp/hard\libg_nano.a(lib_a-reent.o)
                0x20004e38                errno
                0x20004e3c                . = ALIGN (0x4)
                0x20004e3c                __bss_end__ = .

.heap           0x20004e40     0x2000
                0x20004e40                __HeapBase = .
                0x20004e40                __end__ = .
                0x20004e40                PROVIDE (end, .)
 *(.heap*)
 .heap          0x20004e40     0x2000 examples/pb_remote/server/CMakeFiles/pb_remote_server_nrf52832_xxAA_s132_3.1.0.dir/__/__/__/external/nRF5_SDK_14.2.0_17b948a/components/toolchain/gcc/gcc_startup_nrf52.S.obj
                0x20006e40                __HeapLimit = .

.stack_dummy    0x20004e40     0x2000
 *(.stack*)
 .stack         0x20004e40     0x2000 examples/pb_remote/server/CMakeFiles/pb_remote_server_nrf52832_xxAA_s132_3.1.0.dir/__/__/__/external/nRF5_SDK_14.2.0_17b948a/components/toolchain/gcc/gcc_startup_nrf52.S.obj
                0x2000fd00                __StackTop = (ORIGIN (RAM) + LENGTH (RAM))
                0x2000dd00                __StackLimit = (__StackTop - SIZEOF (.stack_dummy))
                0x2000fd00                PROVIDE (__stack, __StackTop)
                0x00000001                ASSERT ((__StackLimit >= __HeapLimit), region RAM overflowed with stack)
                0x00000170                DataInitFlashUsed = (__bss_start__ - __data_start__)
                0x00014c60                CodeFlashUsed = (__etext - ORIGIN (FLASH))
                0x00014dd0                TotalFlashUsed = (CodeFlashUsed + DataInitFlashUsed)
                0x00000001                ASSERT ((TotalFlashUsed <= LENGTH (FLASH)), region FLASH overflowed with .data and user data)
OUTPUT(examples\pb_remote\server\pb_remote_server_nrf52832_xxAA_s132_3.1.0.elf elf32-littlearm)

.ARM.attributes
                0x00000000       0x30
 .ARM.attributes
                0x00000000       0x22 c:/a/gcc_arm/6/bin/../lib/gcc/arm-none-eabi/6.3.1/thumb/v7e-m/fpv4-sp/hard/crti.o
 .ARM.attributes
                0x00000022       0x34 c:/a/gcc_arm/6/bin/../lib/gcc/arm-none-eabi/6.3.1/thumb/v7e-m/fpv4-sp/hard/crtbegin.o
 .ARM.attributes
                0x00000056       0x20 c:/a/gcc_arm/6/bin/../lib/gcc/arm-none-eabi/6.3.1/../../../../arm-none-eabi/lib/thumb/v7e-m/fpv4-sp/hard/crt0.o
 .ARM.attributes
                0x00000076       0x39 examples/pb_remote/server/CMakeFiles/pb_remote_server_nrf52832_xxAA_s132_3.1.0.dir/src/main.c.obj
 .ARM.attributes
                0x000000af       0x39 examples/pb_remote/server/CMakeFiles/pb_remote_server_nrf52832_xxAA_s132_3.1.0.dir/__/__/nrf_mesh_sdk.c.obj
 .ARM.attributes
                0x000000e8       0x39 examples/pb_remote/server/CMakeFiles/pb_remote_server_nrf52832_xxAA_s132_3.1.0.dir/__/__/common/src/simple_hal.c.obj
 .ARM.attributes
                0x00000121       0x39 examples/pb_remote/server/CMakeFiles/pb_remote_server_nrf52832_xxAA_s132_3.1.0.dir/__/__/nrf_mesh_weak.c.obj
 .ARM.attributes
                0x0000015a       0x39 examples/pb_remote/server/CMakeFiles/pb_remote_server_nrf52832_xxAA_s132_3.1.0.dir/__/__/__/mesh/prov/src/prov_provisionee.c.obj
 .ARM.attributes
                0x00000193       0x39 examples/pb_remote/server/CMakeFiles/pb_remote_server_nrf52832_xxAA_s132_3.1.0.dir/__/__/__/mesh/prov/src/nrf_mesh_prov.c.obj
 .ARM.attributes
                0x000001cc       0x39 examples/pb_remote/server/CMakeFiles/pb_remote_server_nrf52832_xxAA_s132_3.1.0.dir/__/__/__/mesh/prov/src/provisioning.c.obj
 .ARM.attributes
                0x00000205       0x39 examples/pb_remote/server/CMakeFiles/pb_remote_server_nrf52832_xxAA_s132_3.1.0.dir/__/__/__/mesh/prov/src/prov_beacon.c.obj
 .ARM.attributes
                0x0000023e       0x39 examples/pb_remote/server/CMakeFiles/pb_remote_server_nrf52832_xxAA_s132_3.1.0.dir/__/__/__/mesh/prov/src/prov_utils.c.obj
 .ARM.attributes
                0x00000277       0x39 examples/pb_remote/server/CMakeFiles/pb_remote_server_nrf52832_xxAA_s132_3.1.0.dir/__/__/__/mesh/prov/src/prov_bearer_adv.c.obj
 .ARM.attributes
                0x000002b0       0x39 examples/pb_remote/server/CMakeFiles/pb_remote_server_nrf52832_xxAA_s132_3.1.0.dir/__/__/__/models/pb_remote/src/pb_remote_server.c.obj
 .ARM.attributes
                0x000002e9       0x39 examples/pb_remote/server/CMakeFiles/pb_remote_server_nrf52832_xxAA_s132_3.1.0.dir/__/__/__/mesh/access/src/access_publish.c.obj
 .ARM.attributes
                0x00000322       0x39 examples/pb_remote/server/CMakeFiles/pb_remote_server_nrf52832_xxAA_s132_3.1.0.dir/__/__/__/mesh/access/src/access.c.obj
 .ARM.attributes
                0x0000035b       0x39 examples/pb_remote/server/CMakeFiles/pb_remote_server_nrf52832_xxAA_s132_3.1.0.dir/__/__/__/mesh/access/src/access_reliable.c.obj
 .ARM.attributes
                0x00000394       0x39 examples/pb_remote/server/CMakeFiles/pb_remote_server_nrf52832_xxAA_s132_3.1.0.dir/__/__/__/mesh/access/src/device_state_manager.c.obj
 .ARM.attributes
                0x000003cd       0x39 examples/pb_remote/server/CMakeFiles/pb_remote_server_nrf52832_xxAA_s132_3.1.0.dir/__/__/__/mesh/access/src/nrf_mesh_node_config.c.obj
 .ARM.attributes
                0x00000406       0x39 examples/pb_remote/server/CMakeFiles/pb_remote_server_nrf52832_xxAA_s132_3.1.0.dir/__/__/__/models/config/src/composition_data.c.obj
 .ARM.attributes
                0x0000043f       0x39 examples/pb_remote/server/CMakeFiles/pb_remote_server_nrf52832_xxAA_s132_3.1.0.dir/__/__/__/models/config/src/config_server.c.obj
 .ARM.attributes
                0x00000478       0x39 examples/pb_remote/server/CMakeFiles/pb_remote_server_nrf52832_xxAA_s132_3.1.0.dir/__/__/__/models/config/src/packed_index_list.c.obj
 .ARM.attributes
                0x000004b1       0x39 examples/pb_remote/server/CMakeFiles/pb_remote_server_nrf52832_xxAA_s132_3.1.0.dir/__/__/__/models/health/src/health_server.c.obj
 .ARM.attributes
                0x000004ea       0x39 examples/pb_remote/server/CMakeFiles/pb_remote_server_nrf52832_xxAA_s132_3.1.0.dir/__/__/__/external/nRF5_SDK_14.2.0_17b948a/components/toolchain/system_nrf52.c.obj
 .ARM.attributes
                0x00000523       0x20 examples/pb_remote/server/CMakeFiles/pb_remote_server_nrf52832_xxAA_s132_3.1.0.dir/__/__/__/external/nRF5_SDK_14.2.0_17b948a/components/toolchain/gcc/gcc_startup_nrf52.S.obj
 .ARM.attributes
                0x00000543       0x39 mesh/core/libmesh_core_nrf52832_xxAA.a(nrf_mesh_configure.c.obj)
 .ARM.attributes
                0x0000057c       0x39 mesh/core/libmesh_core_nrf52832_xxAA.a(event.c.obj)
 .ARM.attributes
                0x000005b5       0x39 mesh/core/libmesh_core_nrf52832_xxAA.a(fifo.c.obj)
 .ARM.attributes
                0x000005ee       0x39 mesh/core/libmesh_core_nrf52832_xxAA.a(net_state.c.obj)
 .ARM.attributes
                0x00000627       0x39 mesh/core/libmesh_core_nrf52832_xxAA.a(nrf_mesh_utils.c.obj)
 .ARM.attributes
                0x00000660       0x39 mesh/core/libmesh_core_nrf52832_xxAA.a(nrf_mesh.c.obj)
 .ARM.attributes
                0x00000699       0x39 mesh/core/libmesh_core_nrf52832_xxAA.a(hal.c.obj)
 .ARM.attributes
                0x000006d2       0x39 mesh/core/libmesh_core_nrf52832_xxAA.a(timer_scheduler.c.obj)
 .ARM.attributes
                0x0000070b       0x39 mesh/core/libmesh_core_nrf52832_xxAA.a(timer.c.obj)
 .ARM.attributes
                0x00000744       0x39 mesh/core/libmesh_core_nrf52832_xxAA.a(ticker.c.obj)
 .ARM.attributes
                0x0000077d       0x39 mesh/core/libmesh_core_nrf52832_xxAA.a(rand.c.obj)
 .ARM.attributes
                0x000007b6       0x39 mesh/core/libmesh_core_nrf52832_xxAA.a(nrf_mesh_opt.c.obj)
 .ARM.attributes
                0x000007ef       0x39 mesh/core/libmesh_core_nrf52832_xxAA.a(timeslot.c.obj)
 .ARM.attributes
                0x00000828       0x39 mesh/core/libmesh_core_nrf52832_xxAA.a(bearer_event.c.obj)
 .ARM.attributes
                0x00000861       0x39 mesh/core/libmesh_core_nrf52832_xxAA.a(enc.c.obj)
 .ARM.attributes
                0x0000089a       0x39 mesh/core/libmesh_core_nrf52832_xxAA.a(network.c.obj)
 .ARM.attributes
                0x000008d3       0x39 mesh/core/libmesh_core_nrf52832_xxAA.a(nrf_mesh_keygen.c.obj)
 .ARM.attributes
                0x0000090c       0x39 mesh/core/libmesh_core_nrf52832_xxAA.a(list.c.obj)
 .ARM.attributes
                0x00000945       0x39 mesh/core/libmesh_core_nrf52832_xxAA.a(log.c.obj)
 .ARM.attributes
                0x0000097e       0x39 mesh/core/libmesh_core_nrf52832_xxAA.a(flash_manager.c.obj)
 .ARM.attributes
                0x000009b7       0x39 mesh/core/libmesh_core_nrf52832_xxAA.a(ccm_soft.c.obj)
 .ARM.attributes
                0x000009f0       0x39 mesh/core/libmesh_core_nrf52832_xxAA.a(beacon.c.obj)
 .ARM.attributes
                0x00000a29       0x39 mesh/core/libmesh_core_nrf52832_xxAA.a(flash_manager_internal.c.obj)
 .ARM.attributes
                0x00000a62       0x39 mesh/core/libmesh_core_nrf52832_xxAA.a(core_tx.c.obj)
 .ARM.attributes
                0x00000a9b       0x39 mesh/core/libmesh_core_nrf52832_xxAA.a(heartbeat.c.obj)
 .ARM.attributes
                0x00000ad4       0x39 mesh/core/libmesh_core_nrf52832_xxAA.a(net_beacon.c.obj)
 .ARM.attributes
                0x00000b0d       0x39 mesh/core/libmesh_core_nrf52832_xxAA.a(core_tx_adv.c.obj)
 .ARM.attributes
                0x00000b46       0x39 mesh/core/libmesh_core_nrf52832_xxAA.a(ad_listener.c.obj)
 .ARM.attributes
                0x00000b7f       0x39 mesh/core/libmesh_core_nrf52832_xxAA.a(ad_type_filter.c.obj)
 .ARM.attributes
                0x00000bb8       0x39 mesh/core/libmesh_core_nrf52832_xxAA.a(advertiser.c.obj)
 .ARM.attributes
                0x00000bf1       0x39 mesh/core/libmesh_core_nrf52832_xxAA.a(bearer_handler.c.obj)
 .ARM.attributes
                0x00000c2a       0x39 mesh/core/libmesh_core_nrf52832_xxAA.a(broadcast.c.obj)
 .ARM.attributes
                0x00000c63       0x39 mesh/core/libmesh_core_nrf52832_xxAA.a(filter_engine.c.obj)
 .ARM.attributes
                0x00000c9c       0x39 mesh/core/libmesh_core_nrf52832_xxAA.a(radio_config.c.obj)
 .ARM.attributes
                0x00000cd5       0x39 mesh/core/libmesh_core_nrf52832_xxAA.a(scanner.c.obj)
 .ARM.attributes
                0x00000d0e       0x39 mesh/core/libmesh_core_nrf52832_xxAA.a(internal_event.c.obj)
 .ARM.attributes
                0x00000d47       0x39 mesh/core/libmesh_core_nrf52832_xxAA.a(aes.c.obj)
 .ARM.attributes
                0x00000d80       0x39 mesh/core/libmesh_core_nrf52832_xxAA.a(msg_cache.c.obj)
 .ARM.attributes
                0x00000db9       0x39 mesh/core/libmesh_core_nrf52832_xxAA.a(transport.c.obj)
 .ARM.attributes
                0x00000df2       0x39 mesh/core/libmesh_core_nrf52832_xxAA.a(packet_buffer.c.obj)
 .ARM.attributes
                0x00000e2b       0x39 mesh/core/libmesh_core_nrf52832_xxAA.a(flash_manager_defrag.c.obj)
 .ARM.attributes
                0x00000e64       0x39 mesh/core/libmesh_core_nrf52832_xxAA.a(packet_mgr.c.obj)
 .ARM.attributes
                0x00000e9d       0x39 mesh/core/libmesh_core_nrf52832_xxAA.a(mesh_flash.c.obj)
 .ARM.attributes
                0x00000ed6       0x39 mesh/core/libmesh_core_nrf52832_xxAA.a(queue.c.obj)
 .ARM.attributes
                0x00000f0f       0x39 mesh/core/libmesh_core_nrf52832_xxAA.a(aes_cmac.c.obj)
 .ARM.attributes
                0x00000f48       0x39 mesh/core/libmesh_core_nrf52832_xxAA.a(msqueue.c.obj)
 .ARM.attributes
                0x00000f81       0x39 mesh/core/libmesh_core_nrf52832_xxAA.a(replay_cache.c.obj)
 .ARM.attributes
                0x00000fba       0x39 mesh/core/libmesh_core_nrf52832_xxAA.a(nrf_flash.c.obj)
 .ARM.attributes
                0x00000ff3       0x39 external/rtt/librtt_nrf52832_xxAA.a(SEGGER_RTT.c.obj)
 .ARM.attributes
                0x0000102c       0x39 external/rtt/librtt_nrf52832_xxAA.a(SEGGER_RTT_printf.c.obj)
 .ARM.attributes
                0x00001065       0x39 external/micro-ecc/libuECC_nrf52832_xxAA.a(uECC.c.obj)
 .ARM.attributes
                0x0000109e       0x34 c:/a/gcc_arm/6/bin/../lib/gcc/arm-none-eabi/6.3.1/../../../../arm-none-eabi/lib/thumb/v7e-m/fpv4-sp/hard\libg_nano.a(lib_a-exit.o)
 .ARM.attributes
                0x000010d2       0x34 c:/a/gcc_arm/6/bin/../lib/gcc/arm-none-eabi/6.3.1/../../../../arm-none-eabi/lib/thumb/v7e-m/fpv4-sp/hard\libg_nano.a(lib_a-impure.o)
 .ARM.attributes
                0x00001106       0x34 c:/a/gcc_arm/6/bin/../lib/gcc/arm-none-eabi/6.3.1/../../../../arm-none-eabi/lib/thumb/v7e-m/fpv4-sp/hard\libg_nano.a(lib_a-init.o)
 .ARM.attributes
                0x0000113a       0x34 c:/a/gcc_arm/6/bin/../lib/gcc/arm-none-eabi/6.3.1/../../../../arm-none-eabi/lib/thumb/v7e-m/fpv4-sp/hard\libg_nano.a(lib_a-malloc.o)
 .ARM.attributes
                0x0000116e       0x34 c:/a/gcc_arm/6/bin/../lib/gcc/arm-none-eabi/6.3.1/../../../../arm-none-eabi/lib/thumb/v7e-m/fpv4-sp/hard\libg_nano.a(lib_a-memcmp.o)
 .ARM.attributes
                0x000011a2       0x34 c:/a/gcc_arm/6/bin/../lib/gcc/arm-none-eabi/6.3.1/../../../../arm-none-eabi/lib/thumb/v7e-m/fpv4-sp/hard\libg_nano.a(lib_a-memcpy-stub.o)
 .ARM.attributes
                0x000011d6       0x34 c:/a/gcc_arm/6/bin/../lib/gcc/arm-none-eabi/6.3.1/../../../../arm-none-eabi/lib/thumb/v7e-m/fpv4-sp/hard\libg_nano.a(lib_a-memset.o)
 .ARM.attributes
                0x0000120a       0x34 c:/a/gcc_arm/6/bin/../lib/gcc/arm-none-eabi/6.3.1/../../../../arm-none-eabi/lib/thumb/v7e-m/fpv4-sp/hard\libg_nano.a(lib_a-nano-freer.o)
 .ARM.attributes
                0x0000123e       0x34 c:/a/gcc_arm/6/bin/../lib/gcc/arm-none-eabi/6.3.1/../../../../arm-none-eabi/lib/thumb/v7e-m/fpv4-sp/hard\libg_nano.a(lib_a-nano-mallocr.o)
 .ARM.attributes
                0x00001272       0x34 c:/a/gcc_arm/6/bin/../lib/gcc/arm-none-eabi/6.3.1/../../../../arm-none-eabi/lib/thumb/v7e-m/fpv4-sp/hard\libg_nano.a(lib_a-sbrkr.o)
 .ARM.attributes
                0x000012a6       0x34 c:/a/gcc_arm/6/bin/../lib/gcc/arm-none-eabi/6.3.1/../../../../arm-none-eabi/lib/thumb/v7e-m/fpv4-sp/hard\libg_nano.a(lib_a-strcpy.o)
 .ARM.attributes
                0x000012da       0x1b c:/a/gcc_arm/6/bin/../lib/gcc/arm-none-eabi/6.3.1/../../../../arm-none-eabi/lib/thumb/v7e-m/fpv4-sp/hard\libg_nano.a(lib_a-strlen.o)
 .ARM.attributes
                0x000012f5       0x34 c:/a/gcc_arm/6/bin/../lib/gcc/arm-none-eabi/6.3.1/../../../../arm-none-eabi/lib/thumb/v7e-m/fpv4-sp/hard\libg_nano.a(lib_a-strrchr.o)
 .ARM.attributes
                0x00001329       0x34 c:/a/gcc_arm/6/bin/../lib/gcc/arm-none-eabi/6.3.1/../../../../arm-none-eabi/lib/thumb/v7e-m/fpv4-sp/hard\libg_nano.a(lib_a-mlock.o)
 .ARM.attributes
                0x0000135d       0x34 c:/a/gcc_arm/6/bin/../lib/gcc/arm-none-eabi/6.3.1/../../../../arm-none-eabi/lib/thumb/v7e-m/fpv4-sp/hard\libg_nano.a(lib_a-reent.o)
 .ARM.attributes
                0x00001391       0x34 c:/a/gcc_arm/6/bin/../lib/gcc/arm-none-eabi/6.3.1/../../../../arm-none-eabi/lib/thumb/v7e-m/fpv4-sp/hard\libg_nano.a(lib_a-strchr.o)
 .ARM.attributes
                0x000013c5       0x34 c:/a/gcc_arm/6/bin/../lib/gcc/arm-none-eabi/6.3.1/thumb/v7e-m/fpv4-sp/hard/crtend.o
 .ARM.attributes
                0x000013f9       0x22 c:/a/gcc_arm/6/bin/../lib/gcc/arm-none-eabi/6.3.1/thumb/v7e-m/fpv4-sp/hard/crtn.o
 .ARM.attributes
                0x0000141b       0x34 c:/a/gcc_arm/6/bin/../lib/gcc/arm-none-eabi/6.3.1/../../../../arm-none-eabi/lib/thumb/v7e-m/fpv4-sp/hard\libnosys.a(sbrk.o)
 .ARM.attributes
                0x0000144f       0x34 c:/a/gcc_arm/6/bin/../lib/gcc/arm-none-eabi/6.3.1/../../../../arm-none-eabi/lib/thumb/v7e-m/fpv4-sp/hard\libnosys.a(_exit.o)

.comment        0x00000000       0x7f
 .comment       0x00000000       0x7f examples/pb_remote/server/CMakeFiles/pb_remote_server_nrf52832_xxAA_s132_3.1.0.dir/src/main.c.obj
                                 0x80 (size before relaxing)
 .comment       0x0000007f       0x80 examples/pb_remote/server/CMakeFiles/pb_remote_server_nrf52832_xxAA_s132_3.1.0.dir/__/__/nrf_mesh_sdk.c.obj
 .comment       0x0000007f       0x80 examples/pb_remote/server/CMakeFiles/pb_remote_server_nrf52832_xxAA_s132_3.1.0.dir/__/__/common/src/simple_hal.c.obj
 .comment       0x0000007f       0x80 examples/pb_remote/server/CMakeFiles/pb_remote_server_nrf52832_xxAA_s132_3.1.0.dir/__/__/nrf_mesh_weak.c.obj
 .comment       0x0000007f       0x80 examples/pb_remote/server/CMakeFiles/pb_remote_server_nrf52832_xxAA_s132_3.1.0.dir/__/__/__/mesh/prov/src/prov_provisionee.c.obj
 .comment       0x0000007f       0x80 examples/pb_remote/server/CMakeFiles/pb_remote_server_nrf52832_xxAA_s132_3.1.0.dir/__/__/__/mesh/prov/src/nrf_mesh_prov.c.obj
 .comment       0x0000007f       0x80 examples/pb_remote/server/CMakeFiles/pb_remote_server_nrf52832_xxAA_s132_3.1.0.dir/__/__/__/mesh/prov/src/provisioning.c.obj
 .comment       0x0000007f       0x80 examples/pb_remote/server/CMakeFiles/pb_remote_server_nrf52832_xxAA_s132_3.1.0.dir/__/__/__/mesh/prov/src/prov_beacon.c.obj
 .comment       0x0000007f       0x80 examples/pb_remote/server/CMakeFiles/pb_remote_server_nrf52832_xxAA_s132_3.1.0.dir/__/__/__/mesh/prov/src/prov_utils.c.obj
 .comment       0x0000007f       0x80 examples/pb_remote/server/CMakeFiles/pb_remote_server_nrf52832_xxAA_s132_3.1.0.dir/__/__/__/mesh/prov/src/prov_bearer_adv.c.obj
 .comment       0x0000007f       0x80 examples/pb_remote/server/CMakeFiles/pb_remote_server_nrf52832_xxAA_s132_3.1.0.dir/__/__/__/models/pb_remote/src/pb_remote_server.c.obj
 .comment       0x0000007f       0x80 examples/pb_remote/server/CMakeFiles/pb_remote_server_nrf52832_xxAA_s132_3.1.0.dir/__/__/__/mesh/access/src/access_publish.c.obj
 .comment       0x0000007f       0x80 examples/pb_remote/server/CMakeFiles/pb_remote_server_nrf52832_xxAA_s132_3.1.0.dir/__/__/__/mesh/access/src/access.c.obj
 .comment       0x0000007f       0x80 examples/pb_remote/server/CMakeFiles/pb_remote_server_nrf52832_xxAA_s132_3.1.0.dir/__/__/__/mesh/access/src/access_reliable.c.obj
 .comment       0x0000007f       0x80 examples/pb_remote/server/CMakeFiles/pb_remote_server_nrf52832_xxAA_s132_3.1.0.dir/__/__/__/mesh/access/src/device_state_manager.c.obj
 .comment       0x0000007f       0x80 examples/pb_remote/server/CMakeFiles/pb_remote_server_nrf52832_xxAA_s132_3.1.0.dir/__/__/__/mesh/access/src/nrf_mesh_node_config.c.obj
 .comment       0x0000007f       0x80 examples/pb_remote/server/CMakeFiles/pb_remote_server_nrf52832_xxAA_s132_3.1.0.dir/__/__/__/models/config/src/composition_data.c.obj
 .comment       0x0000007f       0x80 examples/pb_remote/server/CMakeFiles/pb_remote_server_nrf52832_xxAA_s132_3.1.0.dir/__/__/__/models/config/src/config_server.c.obj
 .comment       0x0000007f       0x80 examples/pb_remote/server/CMakeFiles/pb_remote_server_nrf52832_xxAA_s132_3.1.0.dir/__/__/__/models/config/src/packed_index_list.c.obj
 .comment       0x0000007f       0x80 examples/pb_remote/server/CMakeFiles/pb_remote_server_nrf52832_xxAA_s132_3.1.0.dir/__/__/__/models/health/src/health_server.c.obj
 .comment       0x0000007f       0x80 examples/pb_remote/server/CMakeFiles/pb_remote_server_nrf52832_xxAA_s132_3.1.0.dir/__/__/__/external/nRF5_SDK_14.2.0_17b948a/components/toolchain/system_nrf52.c.obj
 .comment       0x0000007f       0x80 mesh/core/libmesh_core_nrf52832_xxAA.a(nrf_mesh_configure.c.obj)
 .comment       0x0000007f       0x80 mesh/core/libmesh_core_nrf52832_xxAA.a(event.c.obj)
 .comment       0x0000007f       0x80 mesh/core/libmesh_core_nrf52832_xxAA.a(fifo.c.obj)
 .comment       0x0000007f       0x80 mesh/core/libmesh_core_nrf52832_xxAA.a(net_state.c.obj)
 .comment       0x0000007f       0x80 mesh/core/libmesh_core_nrf52832_xxAA.a(nrf_mesh_utils.c.obj)
 .comment       0x0000007f       0x80 mesh/core/libmesh_core_nrf52832_xxAA.a(nrf_mesh.c.obj)
 .comment       0x0000007f       0x80 mesh/core/libmesh_core_nrf52832_xxAA.a(hal.c.obj)
 .comment       0x0000007f       0x80 mesh/core/libmesh_core_nrf52832_xxAA.a(timer_scheduler.c.obj)
 .comment       0x0000007f       0x80 mesh/core/libmesh_core_nrf52832_xxAA.a(timer.c.obj)
 .comment       0x0000007f       0x80 mesh/core/libmesh_core_nrf52832_xxAA.a(ticker.c.obj)
 .comment       0x0000007f       0x80 mesh/core/libmesh_core_nrf52832_xxAA.a(rand.c.obj)
 .comment       0x0000007f       0x80 mesh/core/libmesh_core_nrf52832_xxAA.a(nrf_mesh_opt.c.obj)
 .comment       0x0000007f       0x80 mesh/core/libmesh_core_nrf52832_xxAA.a(timeslot.c.obj)
 .comment       0x0000007f       0x80 mesh/core/libmesh_core_nrf52832_xxAA.a(bearer_event.c.obj)
 .comment       0x0000007f       0x80 mesh/core/libmesh_core_nrf52832_xxAA.a(enc.c.obj)
 .comment       0x0000007f       0x80 mesh/core/libmesh_core_nrf52832_xxAA.a(network.c.obj)
 .comment       0x0000007f       0x80 mesh/core/libmesh_core_nrf52832_xxAA.a(nrf_mesh_keygen.c.obj)
 .comment       0x0000007f       0x80 mesh/core/libmesh_core_nrf52832_xxAA.a(list.c.obj)
 .comment       0x0000007f       0x80 mesh/core/libmesh_core_nrf52832_xxAA.a(log.c.obj)
 .comment       0x0000007f       0x80 mesh/core/libmesh_core_nrf52832_xxAA.a(flash_manager.c.obj)
 .comment       0x0000007f       0x80 mesh/core/libmesh_core_nrf52832_xxAA.a(ccm_soft.c.obj)
 .comment       0x0000007f       0x80 mesh/core/libmesh_core_nrf52832_xxAA.a(beacon.c.obj)
 .comment       0x0000007f       0x80 mesh/core/libmesh_core_nrf52832_xxAA.a(flash_manager_internal.c.obj)
 .comment       0x0000007f       0x80 mesh/core/libmesh_core_nrf52832_xxAA.a(core_tx.c.obj)
 .comment       0x0000007f       0x80 mesh/core/libmesh_core_nrf52832_xxAA.a(heartbeat.c.obj)
 .comment       0x0000007f       0x80 mesh/core/libmesh_core_nrf52832_xxAA.a(net_beacon.c.obj)
 .comment       0x0000007f       0x80 mesh/core/libmesh_core_nrf52832_xxAA.a(core_tx_adv.c.obj)
 .comment       0x0000007f       0x80 mesh/core/libmesh_core_nrf52832_xxAA.a(ad_listener.c.obj)
 .comment       0x0000007f       0x80 mesh/core/libmesh_core_nrf52832_xxAA.a(ad_type_filter.c.obj)
 .comment       0x0000007f       0x80 mesh/core/libmesh_core_nrf52832_xxAA.a(advertiser.c.obj)
 .comment       0x0000007f       0x80 mesh/core/libmesh_core_nrf52832_xxAA.a(bearer_handler.c.obj)
 .comment       0x0000007f       0x80 mesh/core/libmesh_core_nrf52832_xxAA.a(broadcast.c.obj)
 .comment       0x0000007f       0x80 mesh/core/libmesh_core_nrf52832_xxAA.a(filter_engine.c.obj)
 .comment       0x0000007f       0x80 mesh/core/libmesh_core_nrf52832_xxAA.a(radio_config.c.obj)
 .comment       0x0000007f       0x80 mesh/core/libmesh_core_nrf52832_xxAA.a(scanner.c.obj)
 .comment       0x0000007f       0x80 mesh/core/libmesh_core_nrf52832_xxAA.a(internal_event.c.obj)
 .comment       0x0000007f       0x80 mesh/core/libmesh_core_nrf52832_xxAA.a(aes.c.obj)
 .comment       0x0000007f       0x80 mesh/core/libmesh_core_nrf52832_xxAA.a(msg_cache.c.obj)
 .comment       0x0000007f       0x80 mesh/core/libmesh_core_nrf52832_xxAA.a(transport.c.obj)
 .comment       0x0000007f       0x80 mesh/core/libmesh_core_nrf52832_xxAA.a(packet_buffer.c.obj)
 .comment       0x0000007f       0x80 mesh/core/libmesh_core_nrf52832_xxAA.a(flash_manager_defrag.c.obj)
 .comment       0x0000007f       0x80 mesh/core/libmesh_core_nrf52832_xxAA.a(packet_mgr.c.obj)
 .comment       0x0000007f       0x80 mesh/core/libmesh_core_nrf52832_xxAA.a(mesh_flash.c.obj)
 .comment       0x0000007f       0x80 mesh/core/libmesh_core_nrf52832_xxAA.a(queue.c.obj)
 .comment       0x0000007f       0x80 mesh/core/libmesh_core_nrf52832_xxAA.a(aes_cmac.c.obj)
 .comment       0x0000007f       0x80 mesh/core/libmesh_core_nrf52832_xxAA.a(msqueue.c.obj)
 .comment       0x0000007f       0x80 mesh/core/libmesh_core_nrf52832_xxAA.a(replay_cache.c.obj)
 .comment       0x0000007f       0x80 mesh/core/libmesh_core_nrf52832_xxAA.a(nrf_flash.c.obj)
 .comment       0x0000007f       0x80 external/rtt/librtt_nrf52832_xxAA.a(SEGGER_RTT.c.obj)
 .comment       0x0000007f       0x80 external/rtt/librtt_nrf52832_xxAA.a(SEGGER_RTT_printf.c.obj)
 .comment       0x0000007f       0x80 external/micro-ecc/libuECC_nrf52832_xxAA.a(uECC.c.obj)

.debug_info     0x00000000    0x799ee
 .debug_info    0x00000000     0x2a93 examples/pb_remote/server/CMakeFiles/pb_remote_server_nrf52832_xxAA_s132_3.1.0.dir/src/main.c.obj
 .debug_info    0x00002a93     0x33aa examples/pb_remote/server/CMakeFiles/pb_remote_server_nrf52832_xxAA_s132_3.1.0.dir/__/__/nrf_mesh_sdk.c.obj
 .debug_info    0x00005e3d     0x1477 examples/pb_remote/server/CMakeFiles/pb_remote_server_nrf52832_xxAA_s132_3.1.0.dir/__/__/common/src/simple_hal.c.obj
 .debug_info    0x000072b4      0x94b examples/pb_remote/server/CMakeFiles/pb_remote_server_nrf52832_xxAA_s132_3.1.0.dir/__/__/nrf_mesh_weak.c.obj
 .debug_info    0x00007bff     0x26c7 examples/pb_remote/server/CMakeFiles/pb_remote_server_nrf52832_xxAA_s132_3.1.0.dir/__/__/__/mesh/prov/src/prov_provisionee.c.obj
 .debug_info    0x0000a2c6     0x1be9 examples/pb_remote/server/CMakeFiles/pb_remote_server_nrf52832_xxAA_s132_3.1.0.dir/__/__/__/mesh/prov/src/nrf_mesh_prov.c.obj
 .debug_info    0x0000beaf     0x1588 examples/pb_remote/server/CMakeFiles/pb_remote_server_nrf52832_xxAA_s132_3.1.0.dir/__/__/__/mesh/prov/src/provisioning.c.obj
 .debug_info    0x0000d437     0x19a2 examples/pb_remote/server/CMakeFiles/pb_remote_server_nrf52832_xxAA_s132_3.1.0.dir/__/__/__/mesh/prov/src/prov_beacon.c.obj
 .debug_info    0x0000edd9     0x2029 examples/pb_remote/server/CMakeFiles/pb_remote_server_nrf52832_xxAA_s132_3.1.0.dir/__/__/__/mesh/prov/src/prov_utils.c.obj
 .debug_info    0x00010e02     0x3963 examples/pb_remote/server/CMakeFiles/pb_remote_server_nrf52832_xxAA_s132_3.1.0.dir/__/__/__/mesh/prov/src/prov_bearer_adv.c.obj
 .debug_info    0x00014765     0x4dcf examples/pb_remote/server/CMakeFiles/pb_remote_server_nrf52832_xxAA_s132_3.1.0.dir/__/__/__/models/pb_remote/src/pb_remote_server.c.obj
 .debug_info    0x00019534     0x112b examples/pb_remote/server/CMakeFiles/pb_remote_server_nrf52832_xxAA_s132_3.1.0.dir/__/__/__/mesh/access/src/access_publish.c.obj
 .debug_info    0x0001a65f     0x441e examples/pb_remote/server/CMakeFiles/pb_remote_server_nrf52832_xxAA_s132_3.1.0.dir/__/__/__/mesh/access/src/access.c.obj
 .debug_info    0x0001ea7d     0x153b examples/pb_remote/server/CMakeFiles/pb_remote_server_nrf52832_xxAA_s132_3.1.0.dir/__/__/__/mesh/access/src/access_reliable.c.obj
 .debug_info    0x0001ffb8     0x5f01 examples/pb_remote/server/CMakeFiles/pb_remote_server_nrf52832_xxAA_s132_3.1.0.dir/__/__/__/mesh/access/src/device_state_manager.c.obj
 .debug_info    0x00025eb9     0x393f examples/pb_remote/server/CMakeFiles/pb_remote_server_nrf52832_xxAA_s132_3.1.0.dir/__/__/__/mesh/access/src/nrf_mesh_node_config.c.obj
 .debug_info    0x000297f8      0xe8a examples/pb_remote/server/CMakeFiles/pb_remote_server_nrf52832_xxAA_s132_3.1.0.dir/__/__/__/models/config/src/composition_data.c.obj
 .debug_info    0x0002a682     0x69bf examples/pb_remote/server/CMakeFiles/pb_remote_server_nrf52832_xxAA_s132_3.1.0.dir/__/__/__/models/config/src/config_server.c.obj
 .debug_info    0x00031041      0x14b examples/pb_remote/server/CMakeFiles/pb_remote_server_nrf52832_xxAA_s132_3.1.0.dir/__/__/__/models/config/src/packed_index_list.c.obj
 .debug_info    0x0003118c     0x241a examples/pb_remote/server/CMakeFiles/pb_remote_server_nrf52832_xxAA_s132_3.1.0.dir/__/__/__/models/health/src/health_server.c.obj
 .debug_info    0x000335a6     0x10da examples/pb_remote/server/CMakeFiles/pb_remote_server_nrf52832_xxAA_s132_3.1.0.dir/__/__/__/external/nRF5_SDK_14.2.0_17b948a/components/toolchain/system_nrf52.c.obj
 .debug_info    0x00034680      0xd04 mesh/core/libmesh_core_nrf52832_xxAA.a(nrf_mesh_configure.c.obj)
 .debug_info    0x00035384     0x1509 mesh/core/libmesh_core_nrf52832_xxAA.a(event.c.obj)
 .debug_info    0x0003688d      0xd0e mesh/core/libmesh_core_nrf52832_xxAA.a(fifo.c.obj)
 .debug_info    0x0003759b     0x23d7 mesh/core/libmesh_core_nrf52832_xxAA.a(net_state.c.obj)
 .debug_info    0x00039972      0xa87 mesh/core/libmesh_core_nrf52832_xxAA.a(nrf_mesh_utils.c.obj)
 .debug_info    0x0003a3f9     0x33f8 mesh/core/libmesh_core_nrf52832_xxAA.a(nrf_mesh.c.obj)
 .debug_info    0x0003d7f1      0x570 mesh/core/libmesh_core_nrf52832_xxAA.a(hal.c.obj)
 .debug_info    0x0003dd61     0x102a mesh/core/libmesh_core_nrf52832_xxAA.a(timer_scheduler.c.obj)
 .debug_info    0x0003ed8b      0xd79 mesh/core/libmesh_core_nrf52832_xxAA.a(timer.c.obj)
 .debug_info    0x0003fb04      0x20b mesh/core/libmesh_core_nrf52832_xxAA.a(ticker.c.obj)
 .debug_info    0x0003fd0f      0x40f mesh/core/libmesh_core_nrf52832_xxAA.a(rand.c.obj)
 .debug_info    0x0004011e      0xb1c mesh/core/libmesh_core_nrf52832_xxAA.a(nrf_mesh_opt.c.obj)
 .debug_info    0x00040c3a     0x19fd mesh/core/libmesh_core_nrf52832_xxAA.a(timeslot.c.obj)
 .debug_info    0x00042637     0x19d7 mesh/core/libmesh_core_nrf52832_xxAA.a(bearer_event.c.obj)
 .debug_info    0x0004400e     0x164f mesh/core/libmesh_core_nrf52832_xxAA.a(enc.c.obj)
 .debug_info    0x0004565d     0x2aee mesh/core/libmesh_core_nrf52832_xxAA.a(network.c.obj)
 .debug_info    0x0004814b      0x4c8 mesh/core/libmesh_core_nrf52832_xxAA.a(nrf_mesh_keygen.c.obj)
 .debug_info    0x00048613      0x48b mesh/core/libmesh_core_nrf52832_xxAA.a(list.c.obj)
 .debug_info    0x00048a9e      0xe28 mesh/core/libmesh_core_nrf52832_xxAA.a(log.c.obj)
 .debug_info    0x000498c6     0x320c mesh/core/libmesh_core_nrf52832_xxAA.a(flash_manager.c.obj)
 .debug_info    0x0004cad2     0x10a3 mesh/core/libmesh_core_nrf52832_xxAA.a(ccm_soft.c.obj)
 .debug_info    0x0004db75     0x193b mesh/core/libmesh_core_nrf52832_xxAA.a(beacon.c.obj)
 .debug_info    0x0004f4b0      0xb99 mesh/core/libmesh_core_nrf52832_xxAA.a(flash_manager_internal.c.obj)
 .debug_info    0x00050049      0xfb3 mesh/core/libmesh_core_nrf52832_xxAA.a(core_tx.c.obj)
 .debug_info    0x00050ffc     0x219a mesh/core/libmesh_core_nrf52832_xxAA.a(heartbeat.c.obj)
 .debug_info    0x00053196     0x1511 mesh/core/libmesh_core_nrf52832_xxAA.a(net_beacon.c.obj)
 .debug_info    0x000546a7     0x160b mesh/core/libmesh_core_nrf52832_xxAA.a(core_tx_adv.c.obj)
 .debug_info    0x00055cb2     0x1118 mesh/core/libmesh_core_nrf52832_xxAA.a(ad_listener.c.obj)
 .debug_info    0x00056dca      0xfcd mesh/core/libmesh_core_nrf52832_xxAA.a(ad_type_filter.c.obj)
 .debug_info    0x00057d97     0x2448 mesh/core/libmesh_core_nrf52832_xxAA.a(advertiser.c.obj)
 .debug_info    0x0005a1df     0x18f8 mesh/core/libmesh_core_nrf52832_xxAA.a(bearer_handler.c.obj)
 .debug_info    0x0005bad7     0x1963 mesh/core/libmesh_core_nrf52832_xxAA.a(broadcast.c.obj)
 .debug_info    0x0005d43a      0xcf4 mesh/core/libmesh_core_nrf52832_xxAA.a(filter_engine.c.obj)
 .debug_info    0x0005e12e      0x871 mesh/core/libmesh_core_nrf52832_xxAA.a(radio_config.c.obj)
 .debug_info    0x0005e99f     0x25aa mesh/core/libmesh_core_nrf52832_xxAA.a(scanner.c.obj)
 .debug_info    0x00060f49      0xc4e mesh/core/libmesh_core_nrf52832_xxAA.a(internal_event.c.obj)
 .debug_info    0x00061b97      0xbcc mesh/core/libmesh_core_nrf52832_xxAA.a(aes.c.obj)
 .debug_info    0x00062763      0xa81 mesh/core/libmesh_core_nrf52832_xxAA.a(msg_cache.c.obj)
 .debug_info    0x000631e4     0x54fa mesh/core/libmesh_core_nrf52832_xxAA.a(transport.c.obj)
 .debug_info    0x000686de     0x1d81 mesh/core/libmesh_core_nrf52832_xxAA.a(packet_buffer.c.obj)
 .debug_info    0x0006a45f     0x234f mesh/core/libmesh_core_nrf52832_xxAA.a(flash_manager_defrag.c.obj)
 .debug_info    0x0006c7ae     0x115b mesh/core/libmesh_core_nrf52832_xxAA.a(packet_mgr.c.obj)
 .debug_info    0x0006d909     0x1887 mesh/core/libmesh_core_nrf52832_xxAA.a(mesh_flash.c.obj)
 .debug_info    0x0006f190      0xaf2 mesh/core/libmesh_core_nrf52832_xxAA.a(queue.c.obj)
 .debug_info    0x0006fc82      0xe48 mesh/core/libmesh_core_nrf52832_xxAA.a(aes_cmac.c.obj)
 .debug_info    0x00070aca      0xd08 mesh/core/libmesh_core_nrf52832_xxAA.a(msqueue.c.obj)
 .debug_info    0x000717d2      0xaeb mesh/core/libmesh_core_nrf52832_xxAA.a(replay_cache.c.obj)
 .debug_info    0x000722bd      0xb47 mesh/core/libmesh_core_nrf52832_xxAA.a(nrf_flash.c.obj)
 .debug_info    0x00072e04     0x1818 external/rtt/librtt_nrf52832_xxAA.a(SEGGER_RTT.c.obj)
 .debug_info    0x0007461c      0xec1 external/rtt/librtt_nrf52832_xxAA.a(SEGGER_RTT_printf.c.obj)
 .debug_info    0x000754dd     0x4511 external/micro-ecc/libuECC_nrf52832_xxAA.a(uECC.c.obj)

.debug_abbrev   0x00000000     0xff3a
 .debug_abbrev  0x00000000      0x333 examples/pb_remote/server/CMakeFiles/pb_remote_server_nrf52832_xxAA_s132_3.1.0.dir/src/main.c.obj
 .debug_abbrev  0x00000333      0x4aa examples/pb_remote/server/CMakeFiles/pb_remote_server_nrf52832_xxAA_s132_3.1.0.dir/__/__/nrf_mesh_sdk.c.obj
 .debug_abbrev  0x000007dd      0x364 examples/pb_remote/server/CMakeFiles/pb_remote_server_nrf52832_xxAA_s132_3.1.0.dir/__/__/common/src/simple_hal.c.obj
 .debug_abbrev  0x00000b41      0x1ae examples/pb_remote/server/CMakeFiles/pb_remote_server_nrf52832_xxAA_s132_3.1.0.dir/__/__/nrf_mesh_weak.c.obj
 .debug_abbrev  0x00000cef      0x476 examples/pb_remote/server/CMakeFiles/pb_remote_server_nrf52832_xxAA_s132_3.1.0.dir/__/__/__/mesh/prov/src/prov_provisionee.c.obj
 .debug_abbrev  0x00001165      0x335 examples/pb_remote/server/CMakeFiles/pb_remote_server_nrf52832_xxAA_s132_3.1.0.dir/__/__/__/mesh/prov/src/nrf_mesh_prov.c.obj
 .debug_abbrev  0x0000149a      0x29c examples/pb_remote/server/CMakeFiles/pb_remote_server_nrf52832_xxAA_s132_3.1.0.dir/__/__/__/mesh/prov/src/provisioning.c.obj
 .debug_abbrev  0x00001736      0x2c8 examples/pb_remote/server/CMakeFiles/pb_remote_server_nrf52832_xxAA_s132_3.1.0.dir/__/__/__/mesh/prov/src/prov_beacon.c.obj
 .debug_abbrev  0x000019fe      0x3d4 examples/pb_remote/server/CMakeFiles/pb_remote_server_nrf52832_xxAA_s132_3.1.0.dir/__/__/__/mesh/prov/src/prov_utils.c.obj
 .debug_abbrev  0x00001dd2      0x50e examples/pb_remote/server/CMakeFiles/pb_remote_server_nrf52832_xxAA_s132_3.1.0.dir/__/__/__/mesh/prov/src/prov_bearer_adv.c.obj
 .debug_abbrev  0x000022e0      0x502 examples/pb_remote/server/CMakeFiles/pb_remote_server_nrf52832_xxAA_s132_3.1.0.dir/__/__/__/models/pb_remote/src/pb_remote_server.c.obj
 .debug_abbrev  0x000027e2      0x460 examples/pb_remote/server/CMakeFiles/pb_remote_server_nrf52832_xxAA_s132_3.1.0.dir/__/__/__/mesh/access/src/access_publish.c.obj
 .debug_abbrev  0x00002c42      0x68e examples/pb_remote/server/CMakeFiles/pb_remote_server_nrf52832_xxAA_s132_3.1.0.dir/__/__/__/mesh/access/src/access.c.obj
 .debug_abbrev  0x000032d0      0x433 examples/pb_remote/server/CMakeFiles/pb_remote_server_nrf52832_xxAA_s132_3.1.0.dir/__/__/__/mesh/access/src/access_reliable.c.obj
 .debug_abbrev  0x00003703      0x647 examples/pb_remote/server/CMakeFiles/pb_remote_server_nrf52832_xxAA_s132_3.1.0.dir/__/__/__/mesh/access/src/device_state_manager.c.obj
 .debug_abbrev  0x00003d4a      0x596 examples/pb_remote/server/CMakeFiles/pb_remote_server_nrf52832_xxAA_s132_3.1.0.dir/__/__/__/mesh/access/src/nrf_mesh_node_config.c.obj
 .debug_abbrev  0x000042e0      0x2b6 examples/pb_remote/server/CMakeFiles/pb_remote_server_nrf52832_xxAA_s132_3.1.0.dir/__/__/__/models/config/src/composition_data.c.obj
 .debug_abbrev  0x00004596      0x57f examples/pb_remote/server/CMakeFiles/pb_remote_server_nrf52832_xxAA_s132_3.1.0.dir/__/__/__/models/config/src/config_server.c.obj
 .debug_abbrev  0x00004b15       0xaf examples/pb_remote/server/CMakeFiles/pb_remote_server_nrf52832_xxAA_s132_3.1.0.dir/__/__/__/models/config/src/packed_index_list.c.obj
 .debug_abbrev  0x00004bc4      0x4f1 examples/pb_remote/server/CMakeFiles/pb_remote_server_nrf52832_xxAA_s132_3.1.0.dir/__/__/__/models/health/src/health_server.c.obj
 .debug_abbrev  0x000050b5      0x202 examples/pb_remote/server/CMakeFiles/pb_remote_server_nrf52832_xxAA_s132_3.1.0.dir/__/__/__/external/nRF5_SDK_14.2.0_17b948a/components/toolchain/system_nrf52.c.obj
 .debug_abbrev  0x000052b7      0x24b mesh/core/libmesh_core_nrf52832_xxAA.a(nrf_mesh_configure.c.obj)
 .debug_abbrev  0x00005502      0x2a2 mesh/core/libmesh_core_nrf52832_xxAA.a(event.c.obj)
 .debug_abbrev  0x000057a4      0x301 mesh/core/libmesh_core_nrf52832_xxAA.a(fifo.c.obj)
 .debug_abbrev  0x00005aa5      0x55b mesh/core/libmesh_core_nrf52832_xxAA.a(net_state.c.obj)
 .debug_abbrev  0x00006000      0x25a mesh/core/libmesh_core_nrf52832_xxAA.a(nrf_mesh_utils.c.obj)
 .debug_abbrev  0x0000625a      0x467 mesh/core/libmesh_core_nrf52832_xxAA.a(nrf_mesh.c.obj)
 .debug_abbrev  0x000066c1      0x204 mesh/core/libmesh_core_nrf52832_xxAA.a(hal.c.obj)
 .debug_abbrev  0x000068c5      0x3bf mesh/core/libmesh_core_nrf52832_xxAA.a(timer_scheduler.c.obj)
 .debug_abbrev  0x00006c84      0x346 mesh/core/libmesh_core_nrf52832_xxAA.a(timer.c.obj)
 .debug_abbrev  0x00006fca      0x152 mesh/core/libmesh_core_nrf52832_xxAA.a(ticker.c.obj)
 .debug_abbrev  0x0000711c      0x1d2 mesh/core/libmesh_core_nrf52832_xxAA.a(rand.c.obj)
 .debug_abbrev  0x000072ee      0x24a mesh/core/libmesh_core_nrf52832_xxAA.a(nrf_mesh_opt.c.obj)
 .debug_abbrev  0x00007538      0x4db mesh/core/libmesh_core_nrf52832_xxAA.a(timeslot.c.obj)
 .debug_abbrev  0x00007a13      0x4b3 mesh/core/libmesh_core_nrf52832_xxAA.a(bearer_event.c.obj)
 .debug_abbrev  0x00007ec6      0x37e mesh/core/libmesh_core_nrf52832_xxAA.a(enc.c.obj)
 .debug_abbrev  0x00008244      0x52c mesh/core/libmesh_core_nrf52832_xxAA.a(network.c.obj)
 .debug_abbrev  0x00008770      0x163 mesh/core/libmesh_core_nrf52832_xxAA.a(nrf_mesh_keygen.c.obj)
 .debug_abbrev  0x000088d3      0x18e mesh/core/libmesh_core_nrf52832_xxAA.a(list.c.obj)
 .debug_abbrev  0x00008a61      0x24e mesh/core/libmesh_core_nrf52832_xxAA.a(log.c.obj)
 .debug_abbrev  0x00008caf      0x5c2 mesh/core/libmesh_core_nrf52832_xxAA.a(flash_manager.c.obj)
 .debug_abbrev  0x00009271      0x2b3 mesh/core/libmesh_core_nrf52832_xxAA.a(ccm_soft.c.obj)
 .debug_abbrev  0x00009524      0x38c mesh/core/libmesh_core_nrf52832_xxAA.a(beacon.c.obj)
 .debug_abbrev  0x000098b0      0x28a mesh/core/libmesh_core_nrf52832_xxAA.a(flash_manager_internal.c.obj)
 .debug_abbrev  0x00009b3a      0x32c mesh/core/libmesh_core_nrf52832_xxAA.a(core_tx.c.obj)
 .debug_abbrev  0x00009e66      0x4c9 mesh/core/libmesh_core_nrf52832_xxAA.a(heartbeat.c.obj)
 .debug_abbrev  0x0000a32f      0x3cc mesh/core/libmesh_core_nrf52832_xxAA.a(net_beacon.c.obj)
 .debug_abbrev  0x0000a6fb      0x32c mesh/core/libmesh_core_nrf52832_xxAA.a(core_tx_adv.c.obj)
 .debug_abbrev  0x0000aa27      0x341 mesh/core/libmesh_core_nrf52832_xxAA.a(ad_listener.c.obj)
 .debug_abbrev  0x0000ad68      0x377 mesh/core/libmesh_core_nrf52832_xxAA.a(ad_type_filter.c.obj)
 .debug_abbrev  0x0000b0df      0x4fe mesh/core/libmesh_core_nrf52832_xxAA.a(advertiser.c.obj)
 .debug_abbrev  0x0000b5dd      0x40d mesh/core/libmesh_core_nrf52832_xxAA.a(bearer_handler.c.obj)
 .debug_abbrev  0x0000b9ea      0x3b4 mesh/core/libmesh_core_nrf52832_xxAA.a(broadcast.c.obj)
 .debug_abbrev  0x0000bd9e      0x299 mesh/core/libmesh_core_nrf52832_xxAA.a(filter_engine.c.obj)
 .debug_abbrev  0x0000c037      0x1d9 mesh/core/libmesh_core_nrf52832_xxAA.a(radio_config.c.obj)
 .debug_abbrev  0x0000c210      0x582 mesh/core/libmesh_core_nrf52832_xxAA.a(scanner.c.obj)
 .debug_abbrev  0x0000c792      0x26d mesh/core/libmesh_core_nrf52832_xxAA.a(internal_event.c.obj)
 .debug_abbrev  0x0000c9ff      0x264 mesh/core/libmesh_core_nrf52832_xxAA.a(aes.c.obj)
 .debug_abbrev  0x0000cc63      0x25d mesh/core/libmesh_core_nrf52832_xxAA.a(msg_cache.c.obj)
 .debug_abbrev  0x0000cec0      0x629 mesh/core/libmesh_core_nrf52832_xxAA.a(transport.c.obj)
 .debug_abbrev  0x0000d4e9      0x49a mesh/core/libmesh_core_nrf52832_xxAA.a(packet_buffer.c.obj)
 .debug_abbrev  0x0000d983      0x558 mesh/core/libmesh_core_nrf52832_xxAA.a(flash_manager_defrag.c.obj)
 .debug_abbrev  0x0000dedb      0x3d1 mesh/core/libmesh_core_nrf52832_xxAA.a(packet_mgr.c.obj)
 .debug_abbrev  0x0000e2ac      0x478 mesh/core/libmesh_core_nrf52832_xxAA.a(mesh_flash.c.obj)
 .debug_abbrev  0x0000e724      0x227 mesh/core/libmesh_core_nrf52832_xxAA.a(queue.c.obj)
 .debug_abbrev  0x0000e94b      0x332 mesh/core/libmesh_core_nrf52832_xxAA.a(aes_cmac.c.obj)
 .debug_abbrev  0x0000ec7d      0x29c mesh/core/libmesh_core_nrf52832_xxAA.a(msqueue.c.obj)
 .debug_abbrev  0x0000ef19      0x277 mesh/core/libmesh_core_nrf52832_xxAA.a(replay_cache.c.obj)
 .debug_abbrev  0x0000f190      0x21f mesh/core/libmesh_core_nrf52832_xxAA.a(nrf_flash.c.obj)
 .debug_abbrev  0x0000f3af      0x3a9 external/rtt/librtt_nrf52832_xxAA.a(SEGGER_RTT.c.obj)
 .debug_abbrev  0x0000f758      0x32e external/rtt/librtt_nrf52832_xxAA.a(SEGGER_RTT_printf.c.obj)
 .debug_abbrev  0x0000fa86      0x4b4 external/micro-ecc/libuECC_nrf52832_xxAA.a(uECC.c.obj)

.debug_loc      0x00000000    0x254e3
 .debug_loc     0x00000000      0x113 examples/pb_remote/server/CMakeFiles/pb_remote_server_nrf52832_xxAA_s132_3.1.0.dir/src/main.c.obj
 .debug_loc     0x00000113      0x351 examples/pb_remote/server/CMakeFiles/pb_remote_server_nrf52832_xxAA_s132_3.1.0.dir/__/__/nrf_mesh_sdk.c.obj
 .debug_loc     0x00000464      0x1ee examples/pb_remote/server/CMakeFiles/pb_remote_server_nrf52832_xxAA_s132_3.1.0.dir/__/__/common/src/simple_hal.c.obj
 .debug_loc     0x00000652      0x6ad examples/pb_remote/server/CMakeFiles/pb_remote_server_nrf52832_xxAA_s132_3.1.0.dir/__/__/__/mesh/prov/src/prov_provisionee.c.obj
 .debug_loc     0x00000cff      0x7c0 examples/pb_remote/server/CMakeFiles/pb_remote_server_nrf52832_xxAA_s132_3.1.0.dir/__/__/__/mesh/prov/src/nrf_mesh_prov.c.obj
 .debug_loc     0x000014bf      0x4e0 examples/pb_remote/server/CMakeFiles/pb_remote_server_nrf52832_xxAA_s132_3.1.0.dir/__/__/__/mesh/prov/src/provisioning.c.obj
 .debug_loc     0x0000199f      0x1cd examples/pb_remote/server/CMakeFiles/pb_remote_server_nrf52832_xxAA_s132_3.1.0.dir/__/__/__/mesh/prov/src/prov_beacon.c.obj
 .debug_loc     0x00001b6c      0x42c examples/pb_remote/server/CMakeFiles/pb_remote_server_nrf52832_xxAA_s132_3.1.0.dir/__/__/__/mesh/prov/src/prov_utils.c.obj
 .debug_loc     0x00001f98     0x175a examples/pb_remote/server/CMakeFiles/pb_remote_server_nrf52832_xxAA_s132_3.1.0.dir/__/__/__/mesh/prov/src/prov_bearer_adv.c.obj
 .debug_loc     0x000036f2     0x174d examples/pb_remote/server/CMakeFiles/pb_remote_server_nrf52832_xxAA_s132_3.1.0.dir/__/__/__/models/pb_remote/src/pb_remote_server.c.obj
 .debug_loc     0x00004e3f      0x577 examples/pb_remote/server/CMakeFiles/pb_remote_server_nrf52832_xxAA_s132_3.1.0.dir/__/__/__/mesh/access/src/access_publish.c.obj
 .debug_loc     0x000053b6     0x226d examples/pb_remote/server/CMakeFiles/pb_remote_server_nrf52832_xxAA_s132_3.1.0.dir/__/__/__/mesh/access/src/access.c.obj
 .debug_loc     0x00007623      0x7f6 examples/pb_remote/server/CMakeFiles/pb_remote_server_nrf52832_xxAA_s132_3.1.0.dir/__/__/__/mesh/access/src/access_reliable.c.obj
 .debug_loc     0x00007e19     0x3b6a examples/pb_remote/server/CMakeFiles/pb_remote_server_nrf52832_xxAA_s132_3.1.0.dir/__/__/__/mesh/access/src/device_state_manager.c.obj
 .debug_loc     0x0000b983      0x443 examples/pb_remote/server/CMakeFiles/pb_remote_server_nrf52832_xxAA_s132_3.1.0.dir/__/__/__/mesh/access/src/nrf_mesh_node_config.c.obj
 .debug_loc     0x0000bdc6      0x322 examples/pb_remote/server/CMakeFiles/pb_remote_server_nrf52832_xxAA_s132_3.1.0.dir/__/__/__/models/config/src/composition_data.c.obj
 .debug_loc     0x0000c0e8     0x31cc examples/pb_remote/server/CMakeFiles/pb_remote_server_nrf52832_xxAA_s132_3.1.0.dir/__/__/__/models/config/src/config_server.c.obj
 .debug_loc     0x0000f2b4       0xaa examples/pb_remote/server/CMakeFiles/pb_remote_server_nrf52832_xxAA_s132_3.1.0.dir/__/__/__/models/config/src/packed_index_list.c.obj
 .debug_loc     0x0000f35e     0x161b examples/pb_remote/server/CMakeFiles/pb_remote_server_nrf52832_xxAA_s132_3.1.0.dir/__/__/__/models/health/src/health_server.c.obj
 .debug_loc     0x00010979       0x2c mesh/core/libmesh_core_nrf52832_xxAA.a(nrf_mesh_configure.c.obj)
 .debug_loc     0x000109a5      0x136 mesh/core/libmesh_core_nrf52832_xxAA.a(event.c.obj)
 .debug_loc     0x00010adb      0x517 mesh/core/libmesh_core_nrf52832_xxAA.a(fifo.c.obj)
 .debug_loc     0x00010ff2      0x758 mesh/core/libmesh_core_nrf52832_xxAA.a(net_state.c.obj)
 .debug_loc     0x0001174a      0x11c mesh/core/libmesh_core_nrf52832_xxAA.a(nrf_mesh_utils.c.obj)
 .debug_loc     0x00011866      0x4d3 mesh/core/libmesh_core_nrf52832_xxAA.a(nrf_mesh.c.obj)
 .debug_loc     0x00011d39       0x84 mesh/core/libmesh_core_nrf52832_xxAA.a(hal.c.obj)
 .debug_loc     0x00011dbd      0x3b9 mesh/core/libmesh_core_nrf52832_xxAA.a(timer_scheduler.c.obj)
 .debug_loc     0x00012176      0x60f mesh/core/libmesh_core_nrf52832_xxAA.a(timer.c.obj)
 .debug_loc     0x00012785      0x190 mesh/core/libmesh_core_nrf52832_xxAA.a(rand.c.obj)
 .debug_loc     0x00012915      0x194 mesh/core/libmesh_core_nrf52832_xxAA.a(nrf_mesh_opt.c.obj)
 .debug_loc     0x00012aa9      0x370 mesh/core/libmesh_core_nrf52832_xxAA.a(timeslot.c.obj)
 .debug_loc     0x00012e19      0x647 mesh/core/libmesh_core_nrf52832_xxAA.a(bearer_event.c.obj)
 .debug_loc     0x00013460      0x960 mesh/core/libmesh_core_nrf52832_xxAA.a(enc.c.obj)
 .debug_loc     0x00013dc0     0x10e7 mesh/core/libmesh_core_nrf52832_xxAA.a(network.c.obj)
 .debug_loc     0x00014ea7      0x1ee mesh/core/libmesh_core_nrf52832_xxAA.a(nrf_mesh_keygen.c.obj)
 .debug_loc     0x00015095      0x541 mesh/core/libmesh_core_nrf52832_xxAA.a(list.c.obj)
 .debug_loc     0x000155d6      0x348 mesh/core/libmesh_core_nrf52832_xxAA.a(log.c.obj)
 .debug_loc     0x0001591e     0x1791 mesh/core/libmesh_core_nrf52832_xxAA.a(flash_manager.c.obj)
 .debug_loc     0x000170af      0x371 mesh/core/libmesh_core_nrf52832_xxAA.a(ccm_soft.c.obj)
 .debug_loc     0x00017420      0x527 mesh/core/libmesh_core_nrf52832_xxAA.a(beacon.c.obj)
 .debug_loc     0x00017947      0x130 mesh/core/libmesh_core_nrf52832_xxAA.a(flash_manager_internal.c.obj)
 .debug_loc     0x00017a77      0x639 mesh/core/libmesh_core_nrf52832_xxAA.a(core_tx.c.obj)
 .debug_loc     0x000180b0      0x644 mesh/core/libmesh_core_nrf52832_xxAA.a(heartbeat.c.obj)
 .debug_loc     0x000186f4      0x3fe mesh/core/libmesh_core_nrf52832_xxAA.a(net_beacon.c.obj)
 .debug_loc     0x00018af2      0x3fa mesh/core/libmesh_core_nrf52832_xxAA.a(core_tx_adv.c.obj)
 .debug_loc     0x00018eec      0x42e mesh/core/libmesh_core_nrf52832_xxAA.a(ad_listener.c.obj)
 .debug_loc     0x0001931a      0x3b9 mesh/core/libmesh_core_nrf52832_xxAA.a(ad_type_filter.c.obj)
 .debug_loc     0x000196d3      0xedd mesh/core/libmesh_core_nrf52832_xxAA.a(advertiser.c.obj)
 .debug_loc     0x0001a5b0      0x42d mesh/core/libmesh_core_nrf52832_xxAA.a(bearer_handler.c.obj)
 .debug_loc     0x0001a9dd      0x377 mesh/core/libmesh_core_nrf52832_xxAA.a(broadcast.c.obj)
 .debug_loc     0x0001ad54      0x115 mesh/core/libmesh_core_nrf52832_xxAA.a(filter_engine.c.obj)
 .debug_loc     0x0001ae69      0x28c mesh/core/libmesh_core_nrf52832_xxAA.a(radio_config.c.obj)
 .debug_loc     0x0001b0f5      0x4f6 mesh/core/libmesh_core_nrf52832_xxAA.a(scanner.c.obj)
 .debug_loc     0x0001b5eb       0xc9 mesh/core/libmesh_core_nrf52832_xxAA.a(internal_event.c.obj)
 .debug_loc     0x0001b6b4       0x89 mesh/core/libmesh_core_nrf52832_xxAA.a(aes.c.obj)
 .debug_loc     0x0001b73d      0x10d mesh/core/libmesh_core_nrf52832_xxAA.a(msg_cache.c.obj)
 .debug_loc     0x0001b84a     0x28ef mesh/core/libmesh_core_nrf52832_xxAA.a(transport.c.obj)
 .debug_loc     0x0001e139      0xf93 mesh/core/libmesh_core_nrf52832_xxAA.a(packet_buffer.c.obj)
 .debug_loc     0x0001f0cc      0x8ee mesh/core/libmesh_core_nrf52832_xxAA.a(flash_manager_defrag.c.obj)
 .debug_loc     0x0001f9ba      0x6d7 mesh/core/libmesh_core_nrf52832_xxAA.a(packet_mgr.c.obj)
 .debug_loc     0x00020091      0xa35 mesh/core/libmesh_core_nrf52832_xxAA.a(mesh_flash.c.obj)
 .debug_loc     0x00020ac6      0x186 mesh/core/libmesh_core_nrf52832_xxAA.a(queue.c.obj)
 .debug_loc     0x00020c4c      0x3f8 mesh/core/libmesh_core_nrf52832_xxAA.a(aes_cmac.c.obj)
 .debug_loc     0x00021044      0x3e5 mesh/core/libmesh_core_nrf52832_xxAA.a(msqueue.c.obj)
 .debug_loc     0x00021429      0x1c6 mesh/core/libmesh_core_nrf52832_xxAA.a(replay_cache.c.obj)
 .debug_loc     0x000215ef      0x17a mesh/core/libmesh_core_nrf52832_xxAA.a(nrf_flash.c.obj)
 .debug_loc     0x00021769     0x1222 external/rtt/librtt_nrf52832_xxAA.a(SEGGER_RTT.c.obj)
 .debug_loc     0x0002298b      0x70f external/rtt/librtt_nrf52832_xxAA.a(SEGGER_RTT_printf.c.obj)
 .debug_loc     0x0002309a     0x2449 external/micro-ecc/libuECC_nrf52832_xxAA.a(uECC.c.obj)

.debug_aranges  0x00000000     0x22a8
 .debug_aranges
                0x00000000       0x38 examples/pb_remote/server/CMakeFiles/pb_remote_server_nrf52832_xxAA_s132_3.1.0.dir/src/main.c.obj
 .debug_aranges
                0x00000038       0x80 examples/pb_remote/server/CMakeFiles/pb_remote_server_nrf52832_xxAA_s132_3.1.0.dir/__/__/nrf_mesh_sdk.c.obj
 .debug_aranges
                0x000000b8       0x50 examples/pb_remote/server/CMakeFiles/pb_remote_server_nrf52832_xxAA_s132_3.1.0.dir/__/__/common/src/simple_hal.c.obj
 .debug_aranges
                0x00000108       0x28 examples/pb_remote/server/CMakeFiles/pb_remote_server_nrf52832_xxAA_s132_3.1.0.dir/__/__/nrf_mesh_weak.c.obj
 .debug_aranges
                0x00000130       0x70 examples/pb_remote/server/CMakeFiles/pb_remote_server_nrf52832_xxAA_s132_3.1.0.dir/__/__/__/mesh/prov/src/prov_provisionee.c.obj
 .debug_aranges
                0x000001a0       0x78 examples/pb_remote/server/CMakeFiles/pb_remote_server_nrf52832_xxAA_s132_3.1.0.dir/__/__/__/mesh/prov/src/nrf_mesh_prov.c.obj
 .debug_aranges
                0x00000218       0x80 examples/pb_remote/server/CMakeFiles/pb_remote_server_nrf52832_xxAA_s132_3.1.0.dir/__/__/__/mesh/prov/src/provisioning.c.obj
 .debug_aranges
                0x00000298       0x38 examples/pb_remote/server/CMakeFiles/pb_remote_server_nrf52832_xxAA_s132_3.1.0.dir/__/__/__/mesh/prov/src/prov_beacon.c.obj
 .debug_aranges
                0x000002d0       0x70 examples/pb_remote/server/CMakeFiles/pb_remote_server_nrf52832_xxAA_s132_3.1.0.dir/__/__/__/mesh/prov/src/prov_utils.c.obj
 .debug_aranges
                0x00000340       0xc8 examples/pb_remote/server/CMakeFiles/pb_remote_server_nrf52832_xxAA_s132_3.1.0.dir/__/__/__/mesh/prov/src/prov_bearer_adv.c.obj
 .debug_aranges
                0x00000408      0x120 examples/pb_remote/server/CMakeFiles/pb_remote_server_nrf52832_xxAA_s132_3.1.0.dir/__/__/__/models/pb_remote/src/pb_remote_server.c.obj
 .debug_aranges
                0x00000528       0x50 examples/pb_remote/server/CMakeFiles/pb_remote_server_nrf52832_xxAA_s132_3.1.0.dir/__/__/__/mesh/access/src/access_publish.c.obj
 .debug_aranges
                0x00000578      0x1b0 examples/pb_remote/server/CMakeFiles/pb_remote_server_nrf52832_xxAA_s132_3.1.0.dir/__/__/__/mesh/access/src/access.c.obj
 .debug_aranges
                0x00000728       0x50 examples/pb_remote/server/CMakeFiles/pb_remote_server_nrf52832_xxAA_s132_3.1.0.dir/__/__/__/mesh/access/src/access_reliable.c.obj
 .debug_aranges
                0x00000778      0x300 examples/pb_remote/server/CMakeFiles/pb_remote_server_nrf52832_xxAA_s132_3.1.0.dir/__/__/__/mesh/access/src/device_state_manager.c.obj
 .debug_aranges
                0x00000a78       0x70 examples/pb_remote/server/CMakeFiles/pb_remote_server_nrf52832_xxAA_s132_3.1.0.dir/__/__/__/mesh/access/src/nrf_mesh_node_config.c.obj
 .debug_aranges
                0x00000ae8       0x20 examples/pb_remote/server/CMakeFiles/pb_remote_server_nrf52832_xxAA_s132_3.1.0.dir/__/__/__/models/config/src/composition_data.c.obj
 .debug_aranges
                0x00000b08      0x1e0 examples/pb_remote/server/CMakeFiles/pb_remote_server_nrf52832_xxAA_s132_3.1.0.dir/__/__/__/models/config/src/config_server.c.obj
 .debug_aranges
                0x00000ce8       0x28 examples/pb_remote/server/CMakeFiles/pb_remote_server_nrf52832_xxAA_s132_3.1.0.dir/__/__/__/models/config/src/packed_index_list.c.obj
 .debug_aranges
                0x00000d10       0xc8 examples/pb_remote/server/CMakeFiles/pb_remote_server_nrf52832_xxAA_s132_3.1.0.dir/__/__/__/models/health/src/health_server.c.obj
 .debug_aranges
                0x00000dd8       0x38 examples/pb_remote/server/CMakeFiles/pb_remote_server_nrf52832_xxAA_s132_3.1.0.dir/__/__/__/external/nRF5_SDK_14.2.0_17b948a/components/toolchain/system_nrf52.c.obj
 .debug_aranges
                0x00000e10       0x30 mesh/core/libmesh_core_nrf52832_xxAA.a(nrf_mesh_configure.c.obj)
 .debug_aranges
                0x00000e40       0x30 mesh/core/libmesh_core_nrf52832_xxAA.a(event.c.obj)
 .debug_aranges
                0x00000e70       0x60 mesh/core/libmesh_core_nrf52832_xxAA.a(fifo.c.obj)
 .debug_aranges
                0x00000ed0       0xc0 mesh/core/libmesh_core_nrf52832_xxAA.a(net_state.c.obj)
 .debug_aranges
                0x00000f90       0x30 mesh/core/libmesh_core_nrf52832_xxAA.a(nrf_mesh_utils.c.obj)
 .debug_aranges
                0x00000fc0       0x88 mesh/core/libmesh_core_nrf52832_xxAA.a(nrf_mesh.c.obj)
 .debug_aranges
                0x00001048       0x38 mesh/core/libmesh_core_nrf52832_xxAA.a(hal.c.obj)
 .debug_aranges
                0x00001080       0x68 mesh/core/libmesh_core_nrf52832_xxAA.a(timer_scheduler.c.obj)
 .debug_aranges
                0x000010e8       0x60 mesh/core/libmesh_core_nrf52832_xxAA.a(timer.c.obj)
 .debug_aranges
                0x00001148       0x30 mesh/core/libmesh_core_nrf52832_xxAA.a(ticker.c.obj)
 .debug_aranges
                0x00001178       0x40 mesh/core/libmesh_core_nrf52832_xxAA.a(rand.c.obj)
 .debug_aranges
                0x000011b8       0x28 mesh/core/libmesh_core_nrf52832_xxAA.a(nrf_mesh_opt.c.obj)
 .debug_aranges
                0x000011e0       0xb8 mesh/core/libmesh_core_nrf52832_xxAA.a(timeslot.c.obj)
 .debug_aranges
                0x00001298       0x98 mesh/core/libmesh_core_nrf52832_xxAA.a(bearer_event.c.obj)
 .debug_aranges
                0x00001330       0x70 mesh/core/libmesh_core_nrf52832_xxAA.a(enc.c.obj)
 .debug_aranges
                0x000013a0       0x60 mesh/core/libmesh_core_nrf52832_xxAA.a(network.c.obj)
 .debug_aranges
                0x00001400       0x40 mesh/core/libmesh_core_nrf52832_xxAA.a(nrf_mesh_keygen.c.obj)
 .debug_aranges
                0x00001440       0x48 mesh/core/libmesh_core_nrf52832_xxAA.a(list.c.obj)
 .debug_aranges
                0x00001488       0x48 mesh/core/libmesh_core_nrf52832_xxAA.a(log.c.obj)
 .debug_aranges
                0x000014d0      0x100 mesh/core/libmesh_core_nrf52832_xxAA.a(flash_manager.c.obj)
 .debug_aranges
                0x000015d0       0x50 mesh/core/libmesh_core_nrf52832_xxAA.a(ccm_soft.c.obj)
 .debug_aranges
                0x00001620       0x38 mesh/core/libmesh_core_nrf52832_xxAA.a(beacon.c.obj)
 .debug_aranges
                0x00001658       0x20 mesh/core/libmesh_core_nrf52832_xxAA.a(flash_manager_internal.c.obj)
 .debug_aranges
                0x00001678       0x58 mesh/core/libmesh_core_nrf52832_xxAA.a(core_tx.c.obj)
 .debug_aranges
                0x000016d0       0x70 mesh/core/libmesh_core_nrf52832_xxAA.a(heartbeat.c.obj)
 .debug_aranges
                0x00001740       0x48 mesh/core/libmesh_core_nrf52832_xxAA.a(net_beacon.c.obj)
 .debug_aranges
                0x00001788       0x68 mesh/core/libmesh_core_nrf52832_xxAA.a(core_tx_adv.c.obj)
 .debug_aranges
                0x000017f0       0x30 mesh/core/libmesh_core_nrf52832_xxAA.a(ad_listener.c.obj)
 .debug_aranges
                0x00001820       0x58 mesh/core/libmesh_core_nrf52832_xxAA.a(ad_type_filter.c.obj)
 .debug_aranges
                0x00001878       0xb0 mesh/core/libmesh_core_nrf52832_xxAA.a(advertiser.c.obj)
 .debug_aranges
                0x00001928       0x70 mesh/core/libmesh_core_nrf52832_xxAA.a(bearer_handler.c.obj)
 .debug_aranges
                0x00001998       0x30 mesh/core/libmesh_core_nrf52832_xxAA.a(broadcast.c.obj)
 .debug_aranges
                0x000019c8       0x38 mesh/core/libmesh_core_nrf52832_xxAA.a(filter_engine.c.obj)
 .debug_aranges
                0x00001a00       0x40 mesh/core/libmesh_core_nrf52832_xxAA.a(radio_config.c.obj)
 .debug_aranges
                0x00001a40       0xe0 mesh/core/libmesh_core_nrf52832_xxAA.a(scanner.c.obj)
 .debug_aranges
                0x00001b20       0x30 mesh/core/libmesh_core_nrf52832_xxAA.a(internal_event.c.obj)
 .debug_aranges
                0x00001b50       0x28 mesh/core/libmesh_core_nrf52832_xxAA.a(aes.c.obj)
 .debug_aranges
                0x00001b78       0x38 mesh/core/libmesh_core_nrf52832_xxAA.a(msg_cache.c.obj)
 .debug_aranges
                0x00001bb0      0x120 mesh/core/libmesh_core_nrf52832_xxAA.a(transport.c.obj)
 .debug_aranges
                0x00001cd0       0x80 mesh/core/libmesh_core_nrf52832_xxAA.a(packet_buffer.c.obj)
 .debug_aranges
                0x00001d50       0xc8 mesh/core/libmesh_core_nrf52832_xxAA.a(flash_manager_defrag.c.obj)
 .debug_aranges
                0x00001e18       0x48 mesh/core/libmesh_core_nrf52832_xxAA.a(packet_mgr.c.obj)
 .debug_aranges
                0x00001e60       0x60 mesh/core/libmesh_core_nrf52832_xxAA.a(mesh_flash.c.obj)
 .debug_aranges
                0x00001ec0       0x38 mesh/core/libmesh_core_nrf52832_xxAA.a(queue.c.obj)
 .debug_aranges
                0x00001ef8       0x38 mesh/core/libmesh_core_nrf52832_xxAA.a(aes_cmac.c.obj)
 .debug_aranges
                0x00001f30       0x48 mesh/core/libmesh_core_nrf52832_xxAA.a(msqueue.c.obj)
 .debug_aranges
                0x00001f78       0x48 mesh/core/libmesh_core_nrf52832_xxAA.a(replay_cache.c.obj)
 .debug_aranges
                0x00001fc0       0x30 mesh/core/libmesh_core_nrf52832_xxAA.a(nrf_flash.c.obj)
 .debug_aranges
                0x00001ff0       0xd8 external/rtt/librtt_nrf52832_xxAA.a(SEGGER_RTT.c.obj)
 .debug_aranges
                0x000020c8       0x38 external/rtt/librtt_nrf52832_xxAA.a(SEGGER_RTT_printf.c.obj)
 .debug_aranges
                0x00002100      0x1a8 external/micro-ecc/libuECC_nrf52832_xxAA.a(uECC.c.obj)

.debug_ranges   0x00000000     0x89f0
 .debug_ranges  0x00000000       0x70 examples/pb_remote/server/CMakeFiles/pb_remote_server_nrf52832_xxAA_s132_3.1.0.dir/src/main.c.obj
 .debug_ranges  0x00000070      0x1a8 examples/pb_remote/server/CMakeFiles/pb_remote_server_nrf52832_xxAA_s132_3.1.0.dir/__/__/nrf_mesh_sdk.c.obj
 .debug_ranges  0x00000218       0xc8 examples/pb_remote/server/CMakeFiles/pb_remote_server_nrf52832_xxAA_s132_3.1.0.dir/__/__/common/src/simple_hal.c.obj
 .debug_ranges  0x000002e0       0x18 examples/pb_remote/server/CMakeFiles/pb_remote_server_nrf52832_xxAA_s132_3.1.0.dir/__/__/nrf_mesh_weak.c.obj
 .debug_ranges  0x000002f8      0x158 examples/pb_remote/server/CMakeFiles/pb_remote_server_nrf52832_xxAA_s132_3.1.0.dir/__/__/__/mesh/prov/src/prov_provisionee.c.obj
 .debug_ranges  0x00000450       0xb0 examples/pb_remote/server/CMakeFiles/pb_remote_server_nrf52832_xxAA_s132_3.1.0.dir/__/__/__/mesh/prov/src/nrf_mesh_prov.c.obj
 .debug_ranges  0x00000500       0xa0 examples/pb_remote/server/CMakeFiles/pb_remote_server_nrf52832_xxAA_s132_3.1.0.dir/__/__/__/mesh/prov/src/provisioning.c.obj
 .debug_ranges  0x000005a0       0x88 examples/pb_remote/server/CMakeFiles/pb_remote_server_nrf52832_xxAA_s132_3.1.0.dir/__/__/__/mesh/prov/src/prov_beacon.c.obj
 .debug_ranges  0x00000628       0xb8 examples/pb_remote/server/CMakeFiles/pb_remote_server_nrf52832_xxAA_s132_3.1.0.dir/__/__/__/mesh/prov/src/prov_utils.c.obj
 .debug_ranges  0x000006e0      0x6c8 examples/pb_remote/server/CMakeFiles/pb_remote_server_nrf52832_xxAA_s132_3.1.0.dir/__/__/__/mesh/prov/src/prov_bearer_adv.c.obj
 .debug_ranges  0x00000da8      0x800 examples/pb_remote/server/CMakeFiles/pb_remote_server_nrf52832_xxAA_s132_3.1.0.dir/__/__/__/models/pb_remote/src/pb_remote_server.c.obj
 .debug_ranges  0x000015a8      0x178 examples/pb_remote/server/CMakeFiles/pb_remote_server_nrf52832_xxAA_s132_3.1.0.dir/__/__/__/mesh/access/src/access_publish.c.obj
 .debug_ranges  0x00001720      0x828 examples/pb_remote/server/CMakeFiles/pb_remote_server_nrf52832_xxAA_s132_3.1.0.dir/__/__/__/mesh/access/src/access.c.obj
 .debug_ranges  0x00001f48      0x260 examples/pb_remote/server/CMakeFiles/pb_remote_server_nrf52832_xxAA_s132_3.1.0.dir/__/__/__/mesh/access/src/access_reliable.c.obj
 .debug_ranges  0x000021a8      0xa88 examples/pb_remote/server/CMakeFiles/pb_remote_server_nrf52832_xxAA_s132_3.1.0.dir/__/__/__/mesh/access/src/device_state_manager.c.obj
 .debug_ranges  0x00002c30      0x1e0 examples/pb_remote/server/CMakeFiles/pb_remote_server_nrf52832_xxAA_s132_3.1.0.dir/__/__/__/mesh/access/src/nrf_mesh_node_config.c.obj
 .debug_ranges  0x00002e10      0x170 examples/pb_remote/server/CMakeFiles/pb_remote_server_nrf52832_xxAA_s132_3.1.0.dir/__/__/__/models/config/src/composition_data.c.obj
 .debug_ranges  0x00002f80      0x710 examples/pb_remote/server/CMakeFiles/pb_remote_server_nrf52832_xxAA_s132_3.1.0.dir/__/__/__/models/config/src/config_server.c.obj
 .debug_ranges  0x00003690       0x18 examples/pb_remote/server/CMakeFiles/pb_remote_server_nrf52832_xxAA_s132_3.1.0.dir/__/__/__/models/config/src/packed_index_list.c.obj
 .debug_ranges  0x000036a8      0x350 examples/pb_remote/server/CMakeFiles/pb_remote_server_nrf52832_xxAA_s132_3.1.0.dir/__/__/__/models/health/src/health_server.c.obj
 .debug_ranges  0x000039f8       0x28 examples/pb_remote/server/CMakeFiles/pb_remote_server_nrf52832_xxAA_s132_3.1.0.dir/__/__/__/external/nRF5_SDK_14.2.0_17b948a/components/toolchain/system_nrf52.c.obj
 .debug_ranges  0x00003a20       0x20 mesh/core/libmesh_core_nrf52832_xxAA.a(nrf_mesh_configure.c.obj)
 .debug_ranges  0x00003a40       0x68 mesh/core/libmesh_core_nrf52832_xxAA.a(event.c.obj)
 .debug_ranges  0x00003aa8       0xb0 mesh/core/libmesh_core_nrf52832_xxAA.a(fifo.c.obj)
 .debug_ranges  0x00003b58      0x248 mesh/core/libmesh_core_nrf52832_xxAA.a(net_state.c.obj)
 .debug_ranges  0x00003da0       0x38 mesh/core/libmesh_core_nrf52832_xxAA.a(nrf_mesh_utils.c.obj)
 .debug_ranges  0x00003dd8       0xf0 mesh/core/libmesh_core_nrf52832_xxAA.a(nrf_mesh.c.obj)
 .debug_ranges  0x00003ec8       0x28 mesh/core/libmesh_core_nrf52832_xxAA.a(hal.c.obj)
 .debug_ranges  0x00003ef0      0x260 mesh/core/libmesh_core_nrf52832_xxAA.a(timer_scheduler.c.obj)
 .debug_ranges  0x00004150      0x108 mesh/core/libmesh_core_nrf52832_xxAA.a(timer.c.obj)
 .debug_ranges  0x00004258       0x20 mesh/core/libmesh_core_nrf52832_xxAA.a(ticker.c.obj)
 .debug_ranges  0x00004278       0x48 mesh/core/libmesh_core_nrf52832_xxAA.a(rand.c.obj)
 .debug_ranges  0x000042c0       0x18 mesh/core/libmesh_core_nrf52832_xxAA.a(nrf_mesh_opt.c.obj)
 .debug_ranges  0x000042d8      0x188 mesh/core/libmesh_core_nrf52832_xxAA.a(timeslot.c.obj)
 .debug_ranges  0x00004460      0x250 mesh/core/libmesh_core_nrf52832_xxAA.a(bearer_event.c.obj)
 .debug_ranges  0x000046b0      0x120 mesh/core/libmesh_core_nrf52832_xxAA.a(enc.c.obj)
 .debug_ranges  0x000047d0      0x518 mesh/core/libmesh_core_nrf52832_xxAA.a(network.c.obj)
 .debug_ranges  0x00004ce8       0x30 mesh/core/libmesh_core_nrf52832_xxAA.a(nrf_mesh_keygen.c.obj)
 .debug_ranges  0x00004d18      0x1b0 mesh/core/libmesh_core_nrf52832_xxAA.a(list.c.obj)
 .debug_ranges  0x00004ec8       0x38 mesh/core/libmesh_core_nrf52832_xxAA.a(log.c.obj)
 .debug_ranges  0x00004f00      0x748 mesh/core/libmesh_core_nrf52832_xxAA.a(flash_manager.c.obj)
 .debug_ranges  0x00005648       0x40 mesh/core/libmesh_core_nrf52832_xxAA.a(ccm_soft.c.obj)
 .debug_ranges  0x00005688       0xd0 mesh/core/libmesh_core_nrf52832_xxAA.a(beacon.c.obj)
 .debug_ranges  0x00005758       0x68 mesh/core/libmesh_core_nrf52832_xxAA.a(flash_manager_internal.c.obj)
 .debug_ranges  0x000057c0      0x270 mesh/core/libmesh_core_nrf52832_xxAA.a(core_tx.c.obj)
 .debug_ranges  0x00005a30      0x240 mesh/core/libmesh_core_nrf52832_xxAA.a(heartbeat.c.obj)
 .debug_ranges  0x00005c70       0xf0 mesh/core/libmesh_core_nrf52832_xxAA.a(net_beacon.c.obj)
 .debug_ranges  0x00005d60       0xe8 mesh/core/libmesh_core_nrf52832_xxAA.a(core_tx_adv.c.obj)
 .debug_ranges  0x00005e48       0xf8 mesh/core/libmesh_core_nrf52832_xxAA.a(ad_listener.c.obj)
 .debug_ranges  0x00005f40       0xe8 mesh/core/libmesh_core_nrf52832_xxAA.a(ad_type_filter.c.obj)
 .debug_ranges  0x00006028      0x4a8 mesh/core/libmesh_core_nrf52832_xxAA.a(advertiser.c.obj)
 .debug_ranges  0x000064d0      0x290 mesh/core/libmesh_core_nrf52832_xxAA.a(bearer_handler.c.obj)
 .debug_ranges  0x00006760      0x130 mesh/core/libmesh_core_nrf52832_xxAA.a(broadcast.c.obj)
 .debug_ranges  0x00006890       0x90 mesh/core/libmesh_core_nrf52832_xxAA.a(filter_engine.c.obj)
 .debug_ranges  0x00006920      0x100 mesh/core/libmesh_core_nrf52832_xxAA.a(radio_config.c.obj)
 .debug_ranges  0x00006a20      0x2c0 mesh/core/libmesh_core_nrf52832_xxAA.a(scanner.c.obj)
 .debug_ranges  0x00006ce0       0x20 mesh/core/libmesh_core_nrf52832_xxAA.a(internal_event.c.obj)
 .debug_ranges  0x00006d00       0x18 mesh/core/libmesh_core_nrf52832_xxAA.a(aes.c.obj)
 .debug_ranges  0x00006d18       0x48 mesh/core/libmesh_core_nrf52832_xxAA.a(msg_cache.c.obj)
 .debug_ranges  0x00006d60      0x918 mesh/core/libmesh_core_nrf52832_xxAA.a(transport.c.obj)
 .debug_ranges  0x00007678      0x3b8 mesh/core/libmesh_core_nrf52832_xxAA.a(packet_buffer.c.obj)
 .debug_ranges  0x00007a30      0x368 mesh/core/libmesh_core_nrf52832_xxAA.a(flash_manager_defrag.c.obj)
 .debug_ranges  0x00007d98      0x160 mesh/core/libmesh_core_nrf52832_xxAA.a(packet_mgr.c.obj)
 .debug_ranges  0x00007ef8      0x368 mesh/core/libmesh_core_nrf52832_xxAA.a(mesh_flash.c.obj)
 .debug_ranges  0x00008260       0xa0 mesh/core/libmesh_core_nrf52832_xxAA.a(queue.c.obj)
 .debug_ranges  0x00008300       0x98 mesh/core/libmesh_core_nrf52832_xxAA.a(aes_cmac.c.obj)
 .debug_ranges  0x00008398      0x158 mesh/core/libmesh_core_nrf52832_xxAA.a(msqueue.c.obj)
 .debug_ranges  0x000084f0       0x68 mesh/core/libmesh_core_nrf52832_xxAA.a(replay_cache.c.obj)
 .debug_ranges  0x00008558       0x38 mesh/core/libmesh_core_nrf52832_xxAA.a(nrf_flash.c.obj)
 .debug_ranges  0x00008590      0x130 external/rtt/librtt_nrf52832_xxAA.a(SEGGER_RTT.c.obj)
 .debug_ranges  0x000086c0       0x48 external/rtt/librtt_nrf52832_xxAA.a(SEGGER_RTT_printf.c.obj)
 .debug_ranges  0x00008708      0x2e8 external/micro-ecc/libuECC_nrf52832_xxAA.a(uECC.c.obj)

.debug_line     0x00000000    0x1868c
 .debug_line    0x00000000      0x77b examples/pb_remote/server/CMakeFiles/pb_remote_server_nrf52832_xxAA_s132_3.1.0.dir/src/main.c.obj
 .debug_line    0x0000077b      0x780 examples/pb_remote/server/CMakeFiles/pb_remote_server_nrf52832_xxAA_s132_3.1.0.dir/__/__/nrf_mesh_sdk.c.obj
 .debug_line    0x00000efb      0x41b examples/pb_remote/server/CMakeFiles/pb_remote_server_nrf52832_xxAA_s132_3.1.0.dir/__/__/common/src/simple_hal.c.obj
 .debug_line    0x00001316      0x225 examples/pb_remote/server/CMakeFiles/pb_remote_server_nrf52832_xxAA_s132_3.1.0.dir/__/__/nrf_mesh_weak.c.obj
 .debug_line    0x0000153b      0x634 examples/pb_remote/server/CMakeFiles/pb_remote_server_nrf52832_xxAA_s132_3.1.0.dir/__/__/__/mesh/prov/src/prov_provisionee.c.obj
 .debug_line    0x00001b6f      0x4e3 examples/pb_remote/server/CMakeFiles/pb_remote_server_nrf52832_xxAA_s132_3.1.0.dir/__/__/__/mesh/prov/src/nrf_mesh_prov.c.obj
 .debug_line    0x00002052      0x3de examples/pb_remote/server/CMakeFiles/pb_remote_server_nrf52832_xxAA_s132_3.1.0.dir/__/__/__/mesh/prov/src/provisioning.c.obj
 .debug_line    0x00002430      0x48d examples/pb_remote/server/CMakeFiles/pb_remote_server_nrf52832_xxAA_s132_3.1.0.dir/__/__/__/mesh/prov/src/prov_beacon.c.obj
 .debug_line    0x000028bd      0x4a2 examples/pb_remote/server/CMakeFiles/pb_remote_server_nrf52832_xxAA_s132_3.1.0.dir/__/__/__/mesh/prov/src/prov_utils.c.obj
 .debug_line    0x00002d5f      0xc24 examples/pb_remote/server/CMakeFiles/pb_remote_server_nrf52832_xxAA_s132_3.1.0.dir/__/__/__/mesh/prov/src/prov_bearer_adv.c.obj
 .debug_line    0x00003983      0xffa examples/pb_remote/server/CMakeFiles/pb_remote_server_nrf52832_xxAA_s132_3.1.0.dir/__/__/__/models/pb_remote/src/pb_remote_server.c.obj
 .debug_line    0x0000497d      0x449 examples/pb_remote/server/CMakeFiles/pb_remote_server_nrf52832_xxAA_s132_3.1.0.dir/__/__/__/mesh/access/src/access_publish.c.obj
 .debug_line    0x00004dc6      0xe8f examples/pb_remote/server/CMakeFiles/pb_remote_server_nrf52832_xxAA_s132_3.1.0.dir/__/__/__/mesh/access/src/access.c.obj
 .debug_line    0x00005c55      0x50d examples/pb_remote/server/CMakeFiles/pb_remote_server_nrf52832_xxAA_s132_3.1.0.dir/__/__/__/mesh/access/src/access_reliable.c.obj
 .debug_line    0x00006162     0x140b examples/pb_remote/server/CMakeFiles/pb_remote_server_nrf52832_xxAA_s132_3.1.0.dir/__/__/__/mesh/access/src/device_state_manager.c.obj
 .debug_line    0x0000756d      0x83d examples/pb_remote/server/CMakeFiles/pb_remote_server_nrf52832_xxAA_s132_3.1.0.dir/__/__/__/mesh/access/src/nrf_mesh_node_config.c.obj
 .debug_line    0x00007daa      0x35e examples/pb_remote/server/CMakeFiles/pb_remote_server_nrf52832_xxAA_s132_3.1.0.dir/__/__/__/models/config/src/composition_data.c.obj
 .debug_line    0x00008108     0x10ca examples/pb_remote/server/CMakeFiles/pb_remote_server_nrf52832_xxAA_s132_3.1.0.dir/__/__/__/models/config/src/config_server.c.obj
 .debug_line    0x000091d2       0xff examples/pb_remote/server/CMakeFiles/pb_remote_server_nrf52832_xxAA_s132_3.1.0.dir/__/__/__/models/config/src/packed_index_list.c.obj
 .debug_line    0x000092d1      0x681 examples/pb_remote/server/CMakeFiles/pb_remote_server_nrf52832_xxAA_s132_3.1.0.dir/__/__/__/models/health/src/health_server.c.obj
 .debug_line    0x00009952      0x27e examples/pb_remote/server/CMakeFiles/pb_remote_server_nrf52832_xxAA_s132_3.1.0.dir/__/__/__/external/nRF5_SDK_14.2.0_17b948a/components/toolchain/system_nrf52.c.obj
 .debug_line    0x00009bd0      0x263 mesh/core/libmesh_core_nrf52832_xxAA.a(nrf_mesh_configure.c.obj)
 .debug_line    0x00009e33      0x30b mesh/core/libmesh_core_nrf52832_xxAA.a(event.c.obj)
 .debug_line    0x0000a13e      0x3a6 mesh/core/libmesh_core_nrf52832_xxAA.a(fifo.c.obj)
 .debug_line    0x0000a4e4      0x6a8 mesh/core/libmesh_core_nrf52832_xxAA.a(net_state.c.obj)
 .debug_line    0x0000ab8c      0x262 mesh/core/libmesh_core_nrf52832_xxAA.a(nrf_mesh_utils.c.obj)
 .debug_line    0x0000adee      0x7b0 mesh/core/libmesh_core_nrf52832_xxAA.a(nrf_mesh.c.obj)
 .debug_line    0x0000b59e      0x250 mesh/core/libmesh_core_nrf52832_xxAA.a(hal.c.obj)
 .debug_line    0x0000b7ee      0x4a3 mesh/core/libmesh_core_nrf52832_xxAA.a(timer_scheduler.c.obj)
 .debug_line    0x0000bc91      0x415 mesh/core/libmesh_core_nrf52832_xxAA.a(timer.c.obj)
 .debug_line    0x0000c0a6      0x122 mesh/core/libmesh_core_nrf52832_xxAA.a(ticker.c.obj)
 .debug_line    0x0000c1c8      0x28d mesh/core/libmesh_core_nrf52832_xxAA.a(rand.c.obj)
 .debug_line    0x0000c455      0x291 mesh/core/libmesh_core_nrf52832_xxAA.a(nrf_mesh_opt.c.obj)
 .debug_line    0x0000c6e6      0x5b6 mesh/core/libmesh_core_nrf52832_xxAA.a(timeslot.c.obj)
 .debug_line    0x0000cc9c      0x608 mesh/core/libmesh_core_nrf52832_xxAA.a(bearer_event.c.obj)
 .debug_line    0x0000d2a4      0x45a mesh/core/libmesh_core_nrf52832_xxAA.a(enc.c.obj)
 .debug_line    0x0000d6fe      0x836 mesh/core/libmesh_core_nrf52832_xxAA.a(network.c.obj)
 .debug_line    0x0000df34      0x236 mesh/core/libmesh_core_nrf52832_xxAA.a(nrf_mesh_keygen.c.obj)
 .debug_line    0x0000e16a      0x373 mesh/core/libmesh_core_nrf52832_xxAA.a(list.c.obj)
 .debug_line    0x0000e4dd      0x284 mesh/core/libmesh_core_nrf52832_xxAA.a(log.c.obj)
 .debug_line    0x0000e761      0xa9a mesh/core/libmesh_core_nrf52832_xxAA.a(flash_manager.c.obj)
 .debug_line    0x0000f1fb      0x34b mesh/core/libmesh_core_nrf52832_xxAA.a(ccm_soft.c.obj)
 .debug_line    0x0000f546      0x52d mesh/core/libmesh_core_nrf52832_xxAA.a(beacon.c.obj)
 .debug_line    0x0000fa73      0x299 mesh/core/libmesh_core_nrf52832_xxAA.a(flash_manager_internal.c.obj)
 .debug_line    0x0000fd0c      0x471 mesh/core/libmesh_core_nrf52832_xxAA.a(core_tx.c.obj)
 .debug_line    0x0001017d      0x61c mesh/core/libmesh_core_nrf52832_xxAA.a(heartbeat.c.obj)
 .debug_line    0x00010799      0x42b mesh/core/libmesh_core_nrf52832_xxAA.a(net_beacon.c.obj)
 .debug_line    0x00010bc4      0x489 mesh/core/libmesh_core_nrf52832_xxAA.a(core_tx_adv.c.obj)
 .debug_line    0x0001104d      0x352 mesh/core/libmesh_core_nrf52832_xxAA.a(ad_listener.c.obj)
 .debug_line    0x0001139f      0x403 mesh/core/libmesh_core_nrf52832_xxAA.a(ad_type_filter.c.obj)
 .debug_line    0x000117a2      0x81c mesh/core/libmesh_core_nrf52832_xxAA.a(advertiser.c.obj)
 .debug_line    0x00011fbe      0x5c1 mesh/core/libmesh_core_nrf52832_xxAA.a(bearer_handler.c.obj)
 .debug_line    0x0001257f      0x3c8 mesh/core/libmesh_core_nrf52832_xxAA.a(broadcast.c.obj)
 .debug_line    0x00012947      0x356 mesh/core/libmesh_core_nrf52832_xxAA.a(filter_engine.c.obj)
 .debug_line    0x00012c9d      0x320 mesh/core/libmesh_core_nrf52832_xxAA.a(radio_config.c.obj)
 .debug_line    0x00012fbd      0x751 mesh/core/libmesh_core_nrf52832_xxAA.a(scanner.c.obj)
 .debug_line    0x0001370e      0x2a2 mesh/core/libmesh_core_nrf52832_xxAA.a(internal_event.c.obj)
 .debug_line    0x000139b0      0x254 mesh/core/libmesh_core_nrf52832_xxAA.a(aes.c.obj)
 .debug_line    0x00013c04      0x298 mesh/core/libmesh_core_nrf52832_xxAA.a(msg_cache.c.obj)
 .debug_line    0x00013e9c     0x1029 mesh/core/libmesh_core_nrf52832_xxAA.a(transport.c.obj)
 .debug_line    0x00014ec5      0x6ed mesh/core/libmesh_core_nrf52832_xxAA.a(packet_buffer.c.obj)
 .debug_line    0x000155b2      0x7e7 mesh/core/libmesh_core_nrf52832_xxAA.a(flash_manager_defrag.c.obj)
 .debug_line    0x00015d99      0x445 mesh/core/libmesh_core_nrf52832_xxAA.a(packet_mgr.c.obj)
 .debug_line    0x000161de      0x5a9 mesh/core/libmesh_core_nrf52832_xxAA.a(mesh_flash.c.obj)
 .debug_line    0x00016787      0x2d2 mesh/core/libmesh_core_nrf52832_xxAA.a(queue.c.obj)
 .debug_line    0x00016a59      0x2d4 mesh/core/libmesh_core_nrf52832_xxAA.a(aes_cmac.c.obj)
 .debug_line    0x00016d2d      0x388 mesh/core/libmesh_core_nrf52832_xxAA.a(msqueue.c.obj)
 .debug_line    0x000170b5      0x1f1 mesh/core/libmesh_core_nrf52832_xxAA.a(replay_cache.c.obj)
 .debug_line    0x000172a6      0x2a9 mesh/core/libmesh_core_nrf52832_xxAA.a(nrf_flash.c.obj)
 .debug_line    0x0001754f      0x4c0 external/rtt/librtt_nrf52832_xxAA.a(SEGGER_RTT.c.obj)
 .debug_line    0x00017a0f      0x282 external/rtt/librtt_nrf52832_xxAA.a(SEGGER_RTT_printf.c.obj)
 .debug_line    0x00017c91      0x9fb external/micro-ecc/libuECC_nrf52832_xxAA.a(uECC.c.obj)

.debug_str      0x00000000    0x1478f
 .debug_str     0x00000000     0x2789 examples/pb_remote/server/CMakeFiles/pb_remote_server_nrf52832_xxAA_s132_3.1.0.dir/src/main.c.obj
                               0x2c79 (size before relaxing)
 .debug_str     0x00002789     0x151e examples/pb_remote/server/CMakeFiles/pb_remote_server_nrf52832_xxAA_s132_3.1.0.dir/__/__/nrf_mesh_sdk.c.obj
                               0x220e (size before relaxing)
 .debug_str     0x00003ca7      0x19e examples/pb_remote/server/CMakeFiles/pb_remote_server_nrf52832_xxAA_s132_3.1.0.dir/__/__/common/src/simple_hal.c.obj
                                0xc41 (size before relaxing)
 .debug_str     0x00003e45       0x3c examples/pb_remote/server/CMakeFiles/pb_remote_server_nrf52832_xxAA_s132_3.1.0.dir/__/__/nrf_mesh_weak.c.obj
                                0x64d (size before relaxing)
 .debug_str     0x00003e81     0x1394 examples/pb_remote/server/CMakeFiles/pb_remote_server_nrf52832_xxAA_s132_3.1.0.dir/__/__/__/mesh/prov/src/prov_provisionee.c.obj
                               0x2061 (size before relaxing)
 .debug_str     0x00005215      0x287 examples/pb_remote/server/CMakeFiles/pb_remote_server_nrf52832_xxAA_s132_3.1.0.dir/__/__/__/mesh/prov/src/nrf_mesh_prov.c.obj
                               0x1c8f (size before relaxing)
 .debug_str     0x0000549c       0xf7 examples/pb_remote/server/CMakeFiles/pb_remote_server_nrf52832_xxAA_s132_3.1.0.dir/__/__/__/mesh/prov/src/provisioning.c.obj
                                0xf45 (size before relaxing)
 .debug_str     0x00005593      0x113 examples/pb_remote/server/CMakeFiles/pb_remote_server_nrf52832_xxAA_s132_3.1.0.dir/__/__/__/mesh/prov/src/prov_beacon.c.obj
                               0x18cc (size before relaxing)
 .debug_str     0x000056a6      0x44e examples/pb_remote/server/CMakeFiles/pb_remote_server_nrf52832_xxAA_s132_3.1.0.dir/__/__/__/mesh/prov/src/prov_utils.c.obj
                               0x1e53 (size before relaxing)
 .debug_str     0x00005af4      0x581 examples/pb_remote/server/CMakeFiles/pb_remote_server_nrf52832_xxAA_s132_3.1.0.dir/__/__/__/mesh/prov/src/prov_bearer_adv.c.obj
                               0x1b5a (size before relaxing)
 .debug_str     0x00006075     0x146e examples/pb_remote/server/CMakeFiles/pb_remote_server_nrf52832_xxAA_s132_3.1.0.dir/__/__/__/models/pb_remote/src/pb_remote_server.c.obj
                               0x33da (size before relaxing)
 .debug_str     0x000074e3      0x307 examples/pb_remote/server/CMakeFiles/pb_remote_server_nrf52832_xxAA_s132_3.1.0.dir/__/__/__/mesh/access/src/access_publish.c.obj
                                0xbe6 (size before relaxing)
 .debug_str     0x000077ea     0x19d9 examples/pb_remote/server/CMakeFiles/pb_remote_server_nrf52832_xxAA_s132_3.1.0.dir/__/__/__/mesh/access/src/access.c.obj
                               0x2b46 (size before relaxing)
 .debug_str     0x000091c3      0x11e examples/pb_remote/server/CMakeFiles/pb_remote_server_nrf52832_xxAA_s132_3.1.0.dir/__/__/__/mesh/access/src/access_reliable.c.obj
                                0xcb4 (size before relaxing)
 .debug_str     0x000092e1     0x1174 examples/pb_remote/server/CMakeFiles/pb_remote_server_nrf52832_xxAA_s132_3.1.0.dir/__/__/__/mesh/access/src/device_state_manager.c.obj
                               0x2e6b (size before relaxing)
 .debug_str     0x0000a455      0x20d examples/pb_remote/server/CMakeFiles/pb_remote_server_nrf52832_xxAA_s132_3.1.0.dir/__/__/__/mesh/access/src/nrf_mesh_node_config.c.obj
                               0x3a37 (size before relaxing)
 .debug_str     0x0000a662      0x198 examples/pb_remote/server/CMakeFiles/pb_remote_server_nrf52832_xxAA_s132_3.1.0.dir/__/__/__/models/config/src/composition_data.c.obj
                                0x8f7 (size before relaxing)
 .debug_str     0x0000a7fa     0x2045 examples/pb_remote/server/CMakeFiles/pb_remote_server_nrf52832_xxAA_s132_3.1.0.dir/__/__/__/models/config/src/config_server.c.obj
                               0x3ec1 (size before relaxing)
 .debug_str     0x0000c83f       0x69 examples/pb_remote/server/CMakeFiles/pb_remote_server_nrf52832_xxAA_s132_3.1.0.dir/__/__/__/models/config/src/packed_index_list.c.obj
                                0x264 (size before relaxing)
 .debug_str     0x0000c8a8      0x5c4 examples/pb_remote/server/CMakeFiles/pb_remote_server_nrf52832_xxAA_s132_3.1.0.dir/__/__/__/models/health/src/health_server.c.obj
                               0x13b3 (size before relaxing)
 .debug_str     0x0000ce6c      0x4ad examples/pb_remote/server/CMakeFiles/pb_remote_server_nrf52832_xxAA_s132_3.1.0.dir/__/__/__/external/nRF5_SDK_14.2.0_17b948a/components/toolchain/system_nrf52.c.obj
                                0x779 (size before relaxing)
 .debug_str     0x0000d319       0x75 mesh/core/libmesh_core_nrf52832_xxAA.a(nrf_mesh_configure.c.obj)
                                0x77e (size before relaxing)
 .debug_str     0x0000d38e       0x82 mesh/core/libmesh_core_nrf52832_xxAA.a(event.c.obj)
                               0x14d3 (size before relaxing)
 .debug_str     0x0000d410       0x5e mesh/core/libmesh_core_nrf52832_xxAA.a(fifo.c.obj)
                                0x6f5 (size before relaxing)
 .debug_str     0x0000d46e      0x33d mesh/core/libmesh_core_nrf52832_xxAA.a(net_state.c.obj)
                               0x1e46 (size before relaxing)
 .debug_str     0x0000d7ab       0x8b mesh/core/libmesh_core_nrf52832_xxAA.a(nrf_mesh_utils.c.obj)
                                0x76b (size before relaxing)
 .debug_str     0x0000d836      0x57d mesh/core/libmesh_core_nrf52832_xxAA.a(nrf_mesh.c.obj)
                               0x2a81 (size before relaxing)
 .debug_str     0x0000ddb3       0x98 mesh/core/libmesh_core_nrf52832_xxAA.a(hal.c.obj)
                                0x752 (size before relaxing)
 .debug_str     0x0000de4b      0x14a mesh/core/libmesh_core_nrf52832_xxAA.a(timer_scheduler.c.obj)
                                0x94e (size before relaxing)
 .debug_str     0x0000df95      0x222 mesh/core/libmesh_core_nrf52832_xxAA.a(timer.c.obj)
                                0x883 (size before relaxing)
 .debug_str     0x0000e1b7       0x3c mesh/core/libmesh_core_nrf52832_xxAA.a(ticker.c.obj)
                                0x34c (size before relaxing)
 .debug_str     0x0000e1f3       0xac mesh/core/libmesh_core_nrf52832_xxAA.a(rand.c.obj)
                                0x6cf (size before relaxing)
 .debug_str     0x0000e29f       0x64 mesh/core/libmesh_core_nrf52832_xxAA.a(nrf_mesh_opt.c.obj)
                                0x921 (size before relaxing)
 .debug_str     0x0000e303      0x8ba mesh/core/libmesh_core_nrf52832_xxAA.a(timeslot.c.obj)
                               0x17e8 (size before relaxing)
 .debug_str     0x0000ebbd      0x2d9 mesh/core/libmesh_core_nrf52832_xxAA.a(bearer_event.c.obj)
                                0xed3 (size before relaxing)
 .debug_str     0x0000ee96      0x1c1 mesh/core/libmesh_core_nrf52832_xxAA.a(enc.c.obj)
                                0x9d4 (size before relaxing)
 .debug_str     0x0000f057      0x99c mesh/core/libmesh_core_nrf52832_xxAA.a(network.c.obj)
                               0x19c7 (size before relaxing)
 .debug_str     0x0000f9f3       0x57 mesh/core/libmesh_core_nrf52832_xxAA.a(nrf_mesh_keygen.c.obj)
                                0x397 (size before relaxing)
 .debug_str     0x0000fa4a       0x65 mesh/core/libmesh_core_nrf52832_xxAA.a(list.c.obj)
                                0x2d8 (size before relaxing)
 .debug_str     0x0000faaf      0x182 mesh/core/libmesh_core_nrf52832_xxAA.a(log.c.obj)
                                0x7d0 (size before relaxing)
 .debug_str     0x0000fc31      0x8a3 mesh/core/libmesh_core_nrf52832_xxAA.a(flash_manager.c.obj)
                               0x19d1 (size before relaxing)
 .debug_str     0x000104d4       0x85 mesh/core/libmesh_core_nrf52832_xxAA.a(ccm_soft.c.obj)
                                0x75d (size before relaxing)
 .debug_str     0x00010559       0xb2 mesh/core/libmesh_core_nrf52832_xxAA.a(beacon.c.obj)
                               0x1133 (size before relaxing)
 .debug_str     0x0001060b       0x38 mesh/core/libmesh_core_nrf52832_xxAA.a(flash_manager_internal.c.obj)
                                0x7be (size before relaxing)
 .debug_str     0x00010643      0x131 mesh/core/libmesh_core_nrf52832_xxAA.a(core_tx.c.obj)
                                0x8bd (size before relaxing)
 .debug_str     0x00010774      0x613 mesh/core/libmesh_core_nrf52832_xxAA.a(heartbeat.c.obj)
                               0x203b (size before relaxing)
 .debug_str     0x00010d87      0x1a7 mesh/core/libmesh_core_nrf52832_xxAA.a(net_beacon.c.obj)
                                0xe84 (size before relaxing)
 .debug_str     0x00010f2e      0x102 mesh/core/libmesh_core_nrf52832_xxAA.a(core_tx_adv.c.obj)
                               0x104b (size before relaxing)
 .debug_str     0x00011030      0x189 mesh/core/libmesh_core_nrf52832_xxAA.a(ad_listener.c.obj)
                                0xb7f (size before relaxing)
 .debug_str     0x000111b9      0x14f mesh/core/libmesh_core_nrf52832_xxAA.a(ad_type_filter.c.obj)
                                0x9b9 (size before relaxing)
 .debug_str     0x00011308      0x339 mesh/core/libmesh_core_nrf52832_xxAA.a(advertiser.c.obj)
                               0x150c (size before relaxing)
 .debug_str     0x00011641      0x346 mesh/core/libmesh_core_nrf52832_xxAA.a(bearer_handler.c.obj)
                                0xf8f (size before relaxing)
 .debug_str     0x00011987      0x1ac mesh/core/libmesh_core_nrf52832_xxAA.a(broadcast.c.obj)
                                0xf32 (size before relaxing)
 .debug_str     0x00011b33       0x72 mesh/core/libmesh_core_nrf52832_xxAA.a(filter_engine.c.obj)
                                0x826 (size before relaxing)
 .debug_str     0x00011ba5       0x79 mesh/core/libmesh_core_nrf52832_xxAA.a(radio_config.c.obj)
                                0x780 (size before relaxing)
 .debug_str     0x00011c1e      0x45d mesh/core/libmesh_core_nrf52832_xxAA.a(scanner.c.obj)
                               0x18d8 (size before relaxing)
 .debug_str     0x0001207b       0xc0 mesh/core/libmesh_core_nrf52832_xxAA.a(internal_event.c.obj)
                                0xa93 (size before relaxing)
 .debug_str     0x0001213b       0xc1 mesh/core/libmesh_core_nrf52832_xxAA.a(aes.c.obj)
                                0xa61 (size before relaxing)
 .debug_str     0x000121fc       0x71 mesh/core/libmesh_core_nrf52832_xxAA.a(msg_cache.c.obj)
                                0x6ea (size before relaxing)
 .debug_str     0x0001226d      0xd1d mesh/core/libmesh_core_nrf52832_xxAA.a(transport.c.obj)
                               0x31ea (size before relaxing)
 .debug_str     0x00012f8a      0x2cd mesh/core/libmesh_core_nrf52832_xxAA.a(packet_buffer.c.obj)
                                0xc2f (size before relaxing)
 .debug_str     0x00013257      0x36b mesh/core/libmesh_core_nrf52832_xxAA.a(flash_manager_defrag.c.obj)
                               0x1528 (size before relaxing)
 .debug_str     0x000135c2      0x266 mesh/core/libmesh_core_nrf52832_xxAA.a(packet_mgr.c.obj)
                                0x9cf (size before relaxing)
 .debug_str     0x00013828      0x343 mesh/core/libmesh_core_nrf52832_xxAA.a(mesh_flash.c.obj)
                                0xcf6 (size before relaxing)
 .debug_str     0x00013b6b       0x19 mesh/core/libmesh_core_nrf52832_xxAA.a(queue.c.obj)
                                0x69d (size before relaxing)
 .debug_str     0x00013b84       0xb2 mesh/core/libmesh_core_nrf52832_xxAA.a(aes_cmac.c.obj)
                                0x715 (size before relaxing)
 .debug_str     0x00013c36       0x43 mesh/core/libmesh_core_nrf52832_xxAA.a(msqueue.c.obj)
                                0x6d9 (size before relaxing)
 .debug_str     0x00013c79       0x9f mesh/core/libmesh_core_nrf52832_xxAA.a(replay_cache.c.obj)
                                0x6b0 (size before relaxing)
 .debug_str     0x00013d18       0x36 mesh/core/libmesh_core_nrf52832_xxAA.a(nrf_flash.c.obj)
                                0x6ec (size before relaxing)
 .debug_str     0x00013d4e      0x2d1 external/rtt/librtt_nrf52832_xxAA.a(SEGGER_RTT.c.obj)
                                0x922 (size before relaxing)
 .debug_str     0x0001401f       0xdf external/rtt/librtt_nrf52832_xxAA.a(SEGGER_RTT_printf.c.obj)
                                0x792 (size before relaxing)
 .debug_str     0x000140fe      0x691 external/micro-ecc/libuECC_nrf52832_xxAA.a(uECC.c.obj)
                                0x880 (size before relaxing)

.debug_frame    0x00000000     0x6d28
 .debug_frame   0x00000000       0x7c examples/pb_remote/server/CMakeFiles/pb_remote_server_nrf52832_xxAA_s132_3.1.0.dir/src/main.c.obj
 .debug_frame   0x0000007c      0x180 examples/pb_remote/server/CMakeFiles/pb_remote_server_nrf52832_xxAA_s132_3.1.0.dir/__/__/nrf_mesh_sdk.c.obj
 .debug_frame   0x000001fc       0x9c examples/pb_remote/server/CMakeFiles/pb_remote_server_nrf52832_xxAA_s132_3.1.0.dir/__/__/common/src/simple_hal.c.obj
 .debug_frame   0x00000298       0x30 examples/pb_remote/server/CMakeFiles/pb_remote_server_nrf52832_xxAA_s132_3.1.0.dir/__/__/nrf_mesh_weak.c.obj
 .debug_frame   0x000002c8      0x180 examples/pb_remote/server/CMakeFiles/pb_remote_server_nrf52832_xxAA_s132_3.1.0.dir/__/__/__/mesh/prov/src/prov_provisionee.c.obj
 .debug_frame   0x00000448      0x124 examples/pb_remote/server/CMakeFiles/pb_remote_server_nrf52832_xxAA_s132_3.1.0.dir/__/__/__/mesh/prov/src/nrf_mesh_prov.c.obj
 .debug_frame   0x0000056c      0x174 examples/pb_remote/server/CMakeFiles/pb_remote_server_nrf52832_xxAA_s132_3.1.0.dir/__/__/__/mesh/prov/src/provisioning.c.obj
 .debug_frame   0x000006e0       0x84 examples/pb_remote/server/CMakeFiles/pb_remote_server_nrf52832_xxAA_s132_3.1.0.dir/__/__/__/mesh/prov/src/prov_beacon.c.obj
 .debug_frame   0x00000764      0x150 examples/pb_remote/server/CMakeFiles/pb_remote_server_nrf52832_xxAA_s132_3.1.0.dir/__/__/__/mesh/prov/src/prov_utils.c.obj
 .debug_frame   0x000008b4      0x328 examples/pb_remote/server/CMakeFiles/pb_remote_server_nrf52832_xxAA_s132_3.1.0.dir/__/__/__/mesh/prov/src/prov_bearer_adv.c.obj
 .debug_frame   0x00000bdc      0x448 examples/pb_remote/server/CMakeFiles/pb_remote_server_nrf52832_xxAA_s132_3.1.0.dir/__/__/__/models/pb_remote/src/pb_remote_server.c.obj
 .debug_frame   0x00001024      0x114 examples/pb_remote/server/CMakeFiles/pb_remote_server_nrf52832_xxAA_s132_3.1.0.dir/__/__/__/mesh/access/src/access_publish.c.obj
 .debug_frame   0x00001138      0x548 examples/pb_remote/server/CMakeFiles/pb_remote_server_nrf52832_xxAA_s132_3.1.0.dir/__/__/__/mesh/access/src/access.c.obj
 .debug_frame   0x00001680      0x110 examples/pb_remote/server/CMakeFiles/pb_remote_server_nrf52832_xxAA_s132_3.1.0.dir/__/__/__/mesh/access/src/access_reliable.c.obj
 .debug_frame   0x00001790      0xa78 examples/pb_remote/server/CMakeFiles/pb_remote_server_nrf52832_xxAA_s132_3.1.0.dir/__/__/__/mesh/access/src/device_state_manager.c.obj
 .debug_frame   0x00002208      0x140 examples/pb_remote/server/CMakeFiles/pb_remote_server_nrf52832_xxAA_s132_3.1.0.dir/__/__/__/mesh/access/src/nrf_mesh_node_config.c.obj
 .debug_frame   0x00002348       0x40 examples/pb_remote/server/CMakeFiles/pb_remote_server_nrf52832_xxAA_s132_3.1.0.dir/__/__/__/models/config/src/composition_data.c.obj
 .debug_frame   0x00002388      0x7f0 examples/pb_remote/server/CMakeFiles/pb_remote_server_nrf52832_xxAA_s132_3.1.0.dir/__/__/__/models/config/src/config_server.c.obj
 .debug_frame   0x00002b78       0x3c examples/pb_remote/server/CMakeFiles/pb_remote_server_nrf52832_xxAA_s132_3.1.0.dir/__/__/__/models/config/src/packed_index_list.c.obj
 .debug_frame   0x00002bb4      0x2a4 examples/pb_remote/server/CMakeFiles/pb_remote_server_nrf52832_xxAA_s132_3.1.0.dir/__/__/__/models/health/src/health_server.c.obj
 .debug_frame   0x00002e58       0x58 examples/pb_remote/server/CMakeFiles/pb_remote_server_nrf52832_xxAA_s132_3.1.0.dir/__/__/__/external/nRF5_SDK_14.2.0_17b948a/components/toolchain/system_nrf52.c.obj
 .debug_frame   0x00002eb0       0x4c mesh/core/libmesh_core_nrf52832_xxAA.a(nrf_mesh_configure.c.obj)
 .debug_frame   0x00002efc       0x6c mesh/core/libmesh_core_nrf52832_xxAA.a(event.c.obj)
 .debug_frame   0x00002f68       0xd0 mesh/core/libmesh_core_nrf52832_xxAA.a(fifo.c.obj)
 .debug_frame   0x00003038      0x264 mesh/core/libmesh_core_nrf52832_xxAA.a(net_state.c.obj)
 .debug_frame   0x0000329c       0x50 mesh/core/libmesh_core_nrf52832_xxAA.a(nrf_mesh_utils.c.obj)
 .debug_frame   0x000032ec      0x15c mesh/core/libmesh_core_nrf52832_xxAA.a(nrf_mesh.c.obj)
 .debug_frame   0x00003448       0x58 mesh/core/libmesh_core_nrf52832_xxAA.a(hal.c.obj)
 .debug_frame   0x000034a0      0x13c mesh/core/libmesh_core_nrf52832_xxAA.a(timer_scheduler.c.obj)
 .debug_frame   0x000035dc      0x10c mesh/core/libmesh_core_nrf52832_xxAA.a(timer.c.obj)
 .debug_frame   0x000036e8       0x4c mesh/core/libmesh_core_nrf52832_xxAA.a(ticker.c.obj)
 .debug_frame   0x00003734       0x84 mesh/core/libmesh_core_nrf52832_xxAA.a(rand.c.obj)
 .debug_frame   0x000037b8       0x30 mesh/core/libmesh_core_nrf52832_xxAA.a(nrf_mesh_opt.c.obj)
 .debug_frame   0x000037e8      0x1a0 mesh/core/libmesh_core_nrf52832_xxAA.a(timeslot.c.obj)
 .debug_frame   0x00003988      0x1c8 mesh/core/libmesh_core_nrf52832_xxAA.a(bearer_event.c.obj)
 .debug_frame   0x00003b50      0x150 mesh/core/libmesh_core_nrf52832_xxAA.a(enc.c.obj)
 .debug_frame   0x00003ca0      0x14c mesh/core/libmesh_core_nrf52832_xxAA.a(network.c.obj)
 .debug_frame   0x00003dec       0xb4 mesh/core/libmesh_core_nrf52832_xxAA.a(nrf_mesh_keygen.c.obj)
 .debug_frame   0x00003ea0       0xd4 mesh/core/libmesh_core_nrf52832_xxAA.a(list.c.obj)
 .debug_frame   0x00003f74       0xb0 mesh/core/libmesh_core_nrf52832_xxAA.a(log.c.obj)
 .debug_frame   0x00004024      0x33c mesh/core/libmesh_core_nrf52832_xxAA.a(flash_manager.c.obj)
 .debug_frame   0x00004360      0x10c mesh/core/libmesh_core_nrf52832_xxAA.a(ccm_soft.c.obj)
 .debug_frame   0x0000446c       0x98 mesh/core/libmesh_core_nrf52832_xxAA.a(beacon.c.obj)
 .debug_frame   0x00004504       0x34 mesh/core/libmesh_core_nrf52832_xxAA.a(flash_manager_internal.c.obj)
 .debug_frame   0x00004538       0xe8 mesh/core/libmesh_core_nrf52832_xxAA.a(core_tx.c.obj)
 .debug_frame   0x00004620      0x164 mesh/core/libmesh_core_nrf52832_xxAA.a(heartbeat.c.obj)
 .debug_frame   0x00004784       0xd0 mesh/core/libmesh_core_nrf52832_xxAA.a(net_beacon.c.obj)
 .debug_frame   0x00004854      0x128 mesh/core/libmesh_core_nrf52832_xxAA.a(core_tx_adv.c.obj)
 .debug_frame   0x0000497c       0x6c mesh/core/libmesh_core_nrf52832_xxAA.a(ad_listener.c.obj)
 .debug_frame   0x000049e8       0xa8 mesh/core/libmesh_core_nrf52832_xxAA.a(ad_type_filter.c.obj)
 .debug_frame   0x00004a90      0x284 mesh/core/libmesh_core_nrf52832_xxAA.a(advertiser.c.obj)
 .debug_frame   0x00004d14      0x160 mesh/core/libmesh_core_nrf52832_xxAA.a(bearer_handler.c.obj)
 .debug_frame   0x00004e74       0x70 mesh/core/libmesh_core_nrf52832_xxAA.a(broadcast.c.obj)
 .debug_frame   0x00004ee4       0x7c mesh/core/libmesh_core_nrf52832_xxAA.a(filter_engine.c.obj)
 .debug_frame   0x00004f60       0x90 mesh/core/libmesh_core_nrf52832_xxAA.a(radio_config.c.obj)
 .debug_frame   0x00004ff0      0x2a4 mesh/core/libmesh_core_nrf52832_xxAA.a(scanner.c.obj)
 .debug_frame   0x00005294       0x48 mesh/core/libmesh_core_nrf52832_xxAA.a(internal_event.c.obj)
 .debug_frame   0x000052dc       0x40 mesh/core/libmesh_core_nrf52832_xxAA.a(aes.c.obj)
 .debug_frame   0x0000531c       0x6c mesh/core/libmesh_core_nrf52832_xxAA.a(msg_cache.c.obj)
 .debug_frame   0x00005388      0x44c mesh/core/libmesh_core_nrf52832_xxAA.a(transport.c.obj)
 .debug_frame   0x000057d4      0x184 mesh/core/libmesh_core_nrf52832_xxAA.a(packet_buffer.c.obj)
 .debug_frame   0x00005958      0x250 mesh/core/libmesh_core_nrf52832_xxAA.a(flash_manager_defrag.c.obj)
 .debug_frame   0x00005ba8       0xa0 mesh/core/libmesh_core_nrf52832_xxAA.a(packet_mgr.c.obj)
 .debug_frame   0x00005c48      0x150 mesh/core/libmesh_core_nrf52832_xxAA.a(mesh_flash.c.obj)
 .debug_frame   0x00005d98       0x74 mesh/core/libmesh_core_nrf52832_xxAA.a(queue.c.obj)
 .debug_frame   0x00005e0c       0xa4 mesh/core/libmesh_core_nrf52832_xxAA.a(aes_cmac.c.obj)
 .debug_frame   0x00005eb0       0xb8 mesh/core/libmesh_core_nrf52832_xxAA.a(msqueue.c.obj)
 .debug_frame   0x00005f68       0xa0 mesh/core/libmesh_core_nrf52832_xxAA.a(replay_cache.c.obj)
 .debug_frame   0x00006008       0x54 mesh/core/libmesh_core_nrf52832_xxAA.a(nrf_flash.c.obj)
 .debug_frame   0x0000605c      0x2d8 external/rtt/librtt_nrf52832_xxAA.a(SEGGER_RTT.c.obj)
 .debug_frame   0x00006334       0xac external/rtt/librtt_nrf52832_xxAA.a(SEGGER_RTT_printf.c.obj)
 .debug_frame   0x000063e0      0x684 external/micro-ecc/libuECC_nrf52832_xxAA.a(uECC.c.obj)
 .debug_frame   0x00006a64       0x28 c:/a/gcc_arm/6/bin/../lib/gcc/arm-none-eabi/6.3.1/../../../../arm-none-eabi/lib/thumb/v7e-m/fpv4-sp/hard\libg_nano.a(lib_a-exit.o)
 .debug_frame   0x00006a8c       0x2c c:/a/gcc_arm/6/bin/../lib/gcc/arm-none-eabi/6.3.1/../../../../arm-none-eabi/lib/thumb/v7e-m/fpv4-sp/hard\libg_nano.a(lib_a-init.o)
 .debug_frame   0x00006ab8       0x30 c:/a/gcc_arm/6/bin/../lib/gcc/arm-none-eabi/6.3.1/../../../../arm-none-eabi/lib/thumb/v7e-m/fpv4-sp/hard\libg_nano.a(lib_a-malloc.o)
 .debug_frame   0x00006ae8       0x28 c:/a/gcc_arm/6/bin/../lib/gcc/arm-none-eabi/6.3.1/../../../../arm-none-eabi/lib/thumb/v7e-m/fpv4-sp/hard\libg_nano.a(lib_a-memcmp.o)
 .debug_frame   0x00006b10       0x28 c:/a/gcc_arm/6/bin/../lib/gcc/arm-none-eabi/6.3.1/../../../../arm-none-eabi/lib/thumb/v7e-m/fpv4-sp/hard\libg_nano.a(lib_a-memcpy-stub.o)
 .debug_frame   0x00006b38       0x20 c:/a/gcc_arm/6/bin/../lib/gcc/arm-none-eabi/6.3.1/../../../../arm-none-eabi/lib/thumb/v7e-m/fpv4-sp/hard\libg_nano.a(lib_a-memset.o)
 .debug_frame   0x00006b58       0x38 c:/a/gcc_arm/6/bin/../lib/gcc/arm-none-eabi/6.3.1/../../../../arm-none-eabi/lib/thumb/v7e-m/fpv4-sp/hard\libg_nano.a(lib_a-nano-freer.o)
 .debug_frame   0x00006b90       0x2c c:/a/gcc_arm/6/bin/../lib/gcc/arm-none-eabi/6.3.1/../../../../arm-none-eabi/lib/thumb/v7e-m/fpv4-sp/hard\libg_nano.a(lib_a-nano-mallocr.o)
 .debug_frame   0x00006bbc       0x2c c:/a/gcc_arm/6/bin/../lib/gcc/arm-none-eabi/6.3.1/../../../../arm-none-eabi/lib/thumb/v7e-m/fpv4-sp/hard\libg_nano.a(lib_a-sbrkr.o)
 .debug_frame   0x00006be8       0x20 c:/a/gcc_arm/6/bin/../lib/gcc/arm-none-eabi/6.3.1/../../../../arm-none-eabi/lib/thumb/v7e-m/fpv4-sp/hard\libg_nano.a(lib_a-strcpy.o)
 .debug_frame   0x00006c08       0x34 c:/a/gcc_arm/6/bin/../lib/gcc/arm-none-eabi/6.3.1/../../../../arm-none-eabi/lib/thumb/v7e-m/fpv4-sp/hard\libg_nano.a(lib_a-strrchr.o)
 .debug_frame   0x00006c3c       0x30 c:/a/gcc_arm/6/bin/../lib/gcc/arm-none-eabi/6.3.1/../../../../arm-none-eabi/lib/thumb/v7e-m/fpv4-sp/hard\libg_nano.a(lib_a-mlock.o)
 .debug_frame   0x00006c6c       0x5c c:/a/gcc_arm/6/bin/../lib/gcc/arm-none-eabi/6.3.1/../../../../arm-none-eabi/lib/thumb/v7e-m/fpv4-sp/hard\libg_nano.a(lib_a-reent.o)
 .debug_frame   0x00006cc8       0x20 c:/a/gcc_arm/6/bin/../lib/gcc/arm-none-eabi/6.3.1/../../../../arm-none-eabi/lib/thumb/v7e-m/fpv4-sp/hard\libg_nano.a(lib_a-strchr.o)
 .debug_frame   0x00006ce8       0x20 c:/a/gcc_arm/6/bin/../lib/gcc/arm-none-eabi/6.3.1/../../../../arm-none-eabi/lib/thumb/v7e-m/fpv4-sp/hard\libnosys.a(sbrk.o)
 .debug_frame   0x00006d08       0x20 c:/a/gcc_arm/6/bin/../lib/gcc/arm-none-eabi/6.3.1/../../../../arm-none-eabi/lib/thumb/v7e-m/fpv4-sp/hard\libnosys.a(_exit.o)
