Archive member included to satisfy reference by file (symbol)

mesh/core/libmesh_core_nrf52832_xxAA.a(nrf_mesh_configure.c.obj)
                              examples/pb_remote/client/CMakeFiles/pb_remote_client_nrf52832_xxAA_s132_5.0.0.dir/__/__/__/mesh/prov/src/prov_beacon.c.obj (nrf_mesh_configure_device_uuid_get)
mesh/core/libmesh_core_nrf52832_xxAA.a(event.c.obj)
                              examples/pb_remote/client/CMakeFiles/pb_remote_client_nrf52832_xxAA_s132_5.0.0.dir/__/__/__/mesh/access/src/access.c.obj (event_handle)
mesh/core/libmesh_core_nrf52832_xxAA.a(fifo.c.obj)
                              examples/pb_remote/client/CMakeFiles/pb_remote_client_nrf52832_xxAA_s132_5.0.0.dir/__/__/__/models/pb_remote/src/pb_remote_client.c.obj (fifo_init)
mesh/core/libmesh_core_nrf52832_xxAA.a(net_state.c.obj)
                              examples/pb_remote/client/CMakeFiles/pb_remote_client_nrf52832_xxAA_s132_5.0.0.dir/__/__/__/mesh/access/src/device_state_manager.c.obj (net_state_flash_area_get)
mesh/core/libmesh_core_nrf52832_xxAA.a(nrf_mesh_utils.c.obj)
                              examples/pb_remote/client/CMakeFiles/pb_remote_client_nrf52832_xxAA_s132_5.0.0.dir/__/__/__/mesh/prov/src/nrf_mesh_prov.c.obj (nrf_mesh_address_type_get)
mesh/core/libmesh_core_nrf52832_xxAA.a(nrf_mesh.c.obj)
                              examples/pb_remote/client/CMakeFiles/pb_remote_client_nrf52832_xxAA_s132_5.0.0.dir/__/__/nrf_mesh_sdk.c.obj (nrf_mesh_init)
mesh/core/libmesh_core_nrf52832_xxAA.a(hal.c.obj)
                              mesh/core/libmesh_core_nrf52832_xxAA.a(nrf_mesh.c.obj) (hal_lfclk_ppm_get)
mesh/core/libmesh_core_nrf52832_xxAA.a(timer_scheduler.c.obj)
                              mesh/core/libmesh_core_nrf52832_xxAA.a(nrf_mesh.c.obj) (timer_sch_init)
mesh/core/libmesh_core_nrf52832_xxAA.a(timer.c.obj)
                              mesh/core/libmesh_core_nrf52832_xxAA.a(timer_scheduler.c.obj) (timer_order_cb)
mesh/core/libmesh_core_nrf52832_xxAA.a(ticker.c.obj)
                              mesh/core/libmesh_core_nrf52832_xxAA.a(nrf_mesh.c.obj) (ticker_init)
mesh/core/libmesh_core_nrf52832_xxAA.a(rand.c.obj)
                              examples/pb_remote/client/CMakeFiles/pb_remote_client_nrf52832_xxAA_s132_5.0.0.dir/__/__/__/mesh/prov/src/prov_utils.c.obj (rand_hw_rng_get)
mesh/core/libmesh_core_nrf52832_xxAA.a(timeslot.c.obj)
                              mesh/core/libmesh_core_nrf52832_xxAA.a(nrf_mesh.c.obj) (timeslot_sd_event_handler)
mesh/core/libmesh_core_nrf52832_xxAA.a(bearer_event.c.obj)
                              mesh/core/libmesh_core_nrf52832_xxAA.a(nrf_mesh.c.obj) (bearer_event_init)
mesh/core/libmesh_core_nrf52832_xxAA.a(enc.c.obj)
                              examples/pb_remote/client/CMakeFiles/pb_remote_client_nrf52832_xxAA_s132_5.0.0.dir/__/__/__/mesh/prov/src/prov_utils.c.obj (enc_aes_cmac)
mesh/core/libmesh_core_nrf52832_xxAA.a(network.c.obj)
                              mesh/core/libmesh_core_nrf52832_xxAA.a(nrf_mesh.c.obj) (network_init)
mesh/core/libmesh_core_nrf52832_xxAA.a(nrf_mesh_keygen.c.obj)
                              examples/pb_remote/client/CMakeFiles/pb_remote_client_nrf52832_xxAA_s132_5.0.0.dir/__/__/__/mesh/access/src/device_state_manager.c.obj (nrf_mesh_keygen_aid)
mesh/core/libmesh_core_nrf52832_xxAA.a(list.c.obj)
                              mesh/core/libmesh_core_nrf52832_xxAA.a(event.c.obj) (list_add)
mesh/core/libmesh_core_nrf52832_xxAA.a(log.c.obj)
                              examples/pb_remote/client/CMakeFiles/pb_remote_client_nrf52832_xxAA_s132_5.0.0.dir/src/main.c.obj (log_callback_rtt)
mesh/core/libmesh_core_nrf52832_xxAA.a(flash_manager.c.obj)
                              mesh/core/libmesh_core_nrf52832_xxAA.a(nrf_mesh.c.obj) (flash_manager_init)
mesh/core/libmesh_core_nrf52832_xxAA.a(ccm_soft.c.obj)
                              mesh/core/libmesh_core_nrf52832_xxAA.a(enc.c.obj) (ccm_soft_encrypt)
mesh/core/libmesh_core_nrf52832_xxAA.a(beacon.c.obj)
                              mesh/core/libmesh_core_nrf52832_xxAA.a(nrf_mesh.c.obj) (beacon_init)
mesh/core/libmesh_core_nrf52832_xxAA.a(flash_manager_internal.c.obj)
                              mesh/core/libmesh_core_nrf52832_xxAA.a(flash_manager.c.obj) (entry_get)
mesh/core/libmesh_core_nrf52832_xxAA.a(core_tx.c.obj)
                              mesh/core/libmesh_core_nrf52832_xxAA.a(network.c.obj) (core_tx_packet_alloc)
mesh/core/libmesh_core_nrf52832_xxAA.a(heartbeat.c.obj)
                              mesh/core/libmesh_core_nrf52832_xxAA.a(network.c.obj) (heartbeat_on_feature_change_trigger)
mesh/core/libmesh_core_nrf52832_xxAA.a(net_beacon.c.obj)
                              mesh/core/libmesh_core_nrf52832_xxAA.a(network.c.obj) (net_beacon_init)
mesh/core/libmesh_core_nrf52832_xxAA.a(core_tx_adv.c.obj)
                              mesh/core/libmesh_core_nrf52832_xxAA.a(nrf_mesh.c.obj) (core_tx_adv_init)
mesh/core/libmesh_core_nrf52832_xxAA.a(ad_listener.c.obj)
                              mesh/core/libmesh_core_nrf52832_xxAA.a(nrf_mesh.c.obj) (ad_listener_subscribe)
mesh/core/libmesh_core_nrf52832_xxAA.a(ad_type_filter.c.obj)
                              mesh/core/libmesh_core_nrf52832_xxAA.a(ad_listener.c.obj) (bearer_adtype_filtering_set)
mesh/core/libmesh_core_nrf52832_xxAA.a(advertiser.c.obj)
                              mesh/core/libmesh_core_nrf52832_xxAA.a(nrf_mesh.c.obj) (advertiser_init)
mesh/core/libmesh_core_nrf52832_xxAA.a(bearer_handler.c.obj)
                              mesh/core/libmesh_core_nrf52832_xxAA.a(nrf_mesh.c.obj) (bearer_handler_init)
mesh/core/libmesh_core_nrf52832_xxAA.a(broadcast.c.obj)
                              mesh/core/libmesh_core_nrf52832_xxAA.a(advertiser.c.obj) (broadcast_send)
mesh/core/libmesh_core_nrf52832_xxAA.a(filter_engine.c.obj)
                              mesh/core/libmesh_core_nrf52832_xxAA.a(ad_type_filter.c.obj) (fen_filter_start)
mesh/core/libmesh_core_nrf52832_xxAA.a(radio_config.c.obj)
                              mesh/core/libmesh_core_nrf52832_xxAA.a(broadcast.c.obj) (radio_config_reset)
mesh/core/libmesh_core_nrf52832_xxAA.a(scanner.c.obj)
                              mesh/core/libmesh_core_nrf52832_xxAA.a(bearer_handler.c.obj) (scanner_radio_start)
mesh/core/libmesh_core_nrf52832_xxAA.a(internal_event.c.obj)
                              mesh/core/libmesh_core_nrf52832_xxAA.a(network.c.obj) (internal_event_push)
mesh/core/libmesh_core_nrf52832_xxAA.a(aes.c.obj)
                              mesh/core/libmesh_core_nrf52832_xxAA.a(enc.c.obj) (aes_encrypt)
mesh/core/libmesh_core_nrf52832_xxAA.a(msg_cache.c.obj)
                              mesh/core/libmesh_core_nrf52832_xxAA.a(nrf_mesh.c.obj) (msg_cache_init)
mesh/core/libmesh_core_nrf52832_xxAA.a(transport.c.obj)
                              mesh/core/libmesh_core_nrf52832_xxAA.a(nrf_mesh.c.obj) (transport_init)
mesh/core/libmesh_core_nrf52832_xxAA.a(packet_buffer.c.obj)
                              mesh/core/libmesh_core_nrf52832_xxAA.a(flash_manager.c.obj) (packet_buffer_init)
mesh/core/libmesh_core_nrf52832_xxAA.a(flash_manager_defrag.c.obj)
                              mesh/core/libmesh_core_nrf52832_xxAA.a(flash_manager.c.obj) (flash_manager_defrag_init)
mesh/core/libmesh_core_nrf52832_xxAA.a(packet_mgr.c.obj)
                              mesh/core/libmesh_core_nrf52832_xxAA.a(nrf_mesh.c.obj) (packet_mgr_init)
mesh/core/libmesh_core_nrf52832_xxAA.a(mesh_flash.c.obj)
                              mesh/core/libmesh_core_nrf52832_xxAA.a(flash_manager.c.obj) (mesh_flash_user_callback_set)
mesh/core/libmesh_core_nrf52832_xxAA.a(queue.c.obj)
                              mesh/core/libmesh_core_nrf52832_xxAA.a(bearer_event.c.obj) (queue_init)
mesh/core/libmesh_core_nrf52832_xxAA.a(aes_cmac.c.obj)
                              mesh/core/libmesh_core_nrf52832_xxAA.a(enc.c.obj) (aes_cmac)
mesh/core/libmesh_core_nrf52832_xxAA.a(nrf_mesh_opt.c.obj)
                              mesh/core/libmesh_core_nrf52832_xxAA.a(heartbeat.c.obj) (nrf_mesh_opt_get)
mesh/core/libmesh_core_nrf52832_xxAA.a(msqueue.c.obj)
                              mesh/core/libmesh_core_nrf52832_xxAA.a(mesh_flash.c.obj) (msq_get)
mesh/core/libmesh_core_nrf52832_xxAA.a(replay_cache.c.obj)
                              mesh/core/libmesh_core_nrf52832_xxAA.a(transport.c.obj) (replay_cache_add)
mesh/core/libmesh_core_nrf52832_xxAA.a(nrf_flash.c.obj)
                              mesh/core/libmesh_core_nrf52832_xxAA.a(mesh_flash.c.obj) (nrf_flash_erase)
external/rtt/librtt_nrf52832_xxAA.a(SEGGER_RTT.c.obj)
                              mesh/core/libmesh_core_nrf52832_xxAA.a(log.c.obj) (SEGGER_RTT_Write)
external/rtt/librtt_nrf52832_xxAA.a(SEGGER_RTT_printf.c.obj)
                              mesh/core/libmesh_core_nrf52832_xxAA.a(log.c.obj) (SEGGER_RTT_vprintf)
external/micro-ecc/libuECC_nrf52832_xxAA.a(uECC.c.obj)
                              examples/pb_remote/client/CMakeFiles/pb_remote_client_nrf52832_xxAA_s132_5.0.0.dir/__/__/__/mesh/prov/src/prov_utils.c.obj (uECC_secp256r1)
c:/a/gcc_arm/6/bin/../lib/gcc/arm-none-eabi/6.3.1/thumb/v7e-m/fpv4-sp/hard\libgcc.a(_aeabi_uldivmod.o)
                              examples/pb_remote/client/CMakeFiles/pb_remote_client_nrf52832_xxAA_s132_5.0.0.dir/__/__/common/src/rtt_input.c.obj (__aeabi_uldivmod)
c:/a/gcc_arm/6/bin/../lib/gcc/arm-none-eabi/6.3.1/thumb/v7e-m/fpv4-sp/hard\libgcc.a(_udivmoddi4.o)
                              c:/a/gcc_arm/6/bin/../lib/gcc/arm-none-eabi/6.3.1/thumb/v7e-m/fpv4-sp/hard\libgcc.a(_aeabi_uldivmod.o) (__udivmoddi4)
c:/a/gcc_arm/6/bin/../lib/gcc/arm-none-eabi/6.3.1/thumb/v7e-m/fpv4-sp/hard\libgcc.a(_dvmd_tls.o)
                              c:/a/gcc_arm/6/bin/../lib/gcc/arm-none-eabi/6.3.1/thumb/v7e-m/fpv4-sp/hard\libgcc.a(_aeabi_uldivmod.o) (__aeabi_ldiv0)
c:/a/gcc_arm/6/bin/../lib/gcc/arm-none-eabi/6.3.1/../../../../arm-none-eabi/lib/thumb/v7e-m/fpv4-sp/hard\libg_nano.a(lib_a-exit.o)
                              c:/a/gcc_arm/6/bin/../lib/gcc/arm-none-eabi/6.3.1/../../../../arm-none-eabi/lib/thumb/v7e-m/fpv4-sp/hard/crt0.o (exit)
c:/a/gcc_arm/6/bin/../lib/gcc/arm-none-eabi/6.3.1/../../../../arm-none-eabi/lib/thumb/v7e-m/fpv4-sp/hard\libg_nano.a(lib_a-impure.o)
                              c:/a/gcc_arm/6/bin/../lib/gcc/arm-none-eabi/6.3.1/../../../../arm-none-eabi/lib/thumb/v7e-m/fpv4-sp/hard\libg_nano.a(lib_a-exit.o) (_global_impure_ptr)
c:/a/gcc_arm/6/bin/../lib/gcc/arm-none-eabi/6.3.1/../../../../arm-none-eabi/lib/thumb/v7e-m/fpv4-sp/hard\libg_nano.a(lib_a-init.o)
                              c:/a/gcc_arm/6/bin/../lib/gcc/arm-none-eabi/6.3.1/../../../../arm-none-eabi/lib/thumb/v7e-m/fpv4-sp/hard/crt0.o (__libc_init_array)
c:/a/gcc_arm/6/bin/../lib/gcc/arm-none-eabi/6.3.1/../../../../arm-none-eabi/lib/thumb/v7e-m/fpv4-sp/hard\libg_nano.a(lib_a-malloc.o)
                              mesh/core/libmesh_core_nrf52832_xxAA.a(transport.c.obj) (malloc)
c:/a/gcc_arm/6/bin/../lib/gcc/arm-none-eabi/6.3.1/../../../../arm-none-eabi/lib/thumb/v7e-m/fpv4-sp/hard\libg_nano.a(lib_a-memcmp.o)
                              examples/pb_remote/client/CMakeFiles/pb_remote_client_nrf52832_xxAA_s132_5.0.0.dir/__/__/__/mesh/prov/src/prov_utils.c.obj (memcmp)
c:/a/gcc_arm/6/bin/../lib/gcc/arm-none-eabi/6.3.1/../../../../arm-none-eabi/lib/thumb/v7e-m/fpv4-sp/hard\libg_nano.a(lib_a-memcpy-stub.o)
                              examples/pb_remote/client/CMakeFiles/pb_remote_client_nrf52832_xxAA_s132_5.0.0.dir/src/main.c.obj (memcpy)
c:/a/gcc_arm/6/bin/../lib/gcc/arm-none-eabi/6.3.1/../../../../arm-none-eabi/lib/thumb/v7e-m/fpv4-sp/hard\libg_nano.a(lib_a-memset.o)
                              c:/a/gcc_arm/6/bin/../lib/gcc/arm-none-eabi/6.3.1/../../../../arm-none-eabi/lib/thumb/v7e-m/fpv4-sp/hard/crt0.o (memset)
c:/a/gcc_arm/6/bin/../lib/gcc/arm-none-eabi/6.3.1/../../../../arm-none-eabi/lib/thumb/v7e-m/fpv4-sp/hard\libg_nano.a(lib_a-nano-freer.o)
                              c:/a/gcc_arm/6/bin/../lib/gcc/arm-none-eabi/6.3.1/../../../../arm-none-eabi/lib/thumb/v7e-m/fpv4-sp/hard\libg_nano.a(lib_a-malloc.o) (_free_r)
c:/a/gcc_arm/6/bin/../lib/gcc/arm-none-eabi/6.3.1/../../../../arm-none-eabi/lib/thumb/v7e-m/fpv4-sp/hard\libg_nano.a(lib_a-nano-mallocr.o)
                              c:/a/gcc_arm/6/bin/../lib/gcc/arm-none-eabi/6.3.1/../../../../arm-none-eabi/lib/thumb/v7e-m/fpv4-sp/hard\libg_nano.a(lib_a-malloc.o) (_malloc_r)
c:/a/gcc_arm/6/bin/../lib/gcc/arm-none-eabi/6.3.1/../../../../arm-none-eabi/lib/thumb/v7e-m/fpv4-sp/hard\libg_nano.a(lib_a-sbrkr.o)
                              c:/a/gcc_arm/6/bin/../lib/gcc/arm-none-eabi/6.3.1/../../../../arm-none-eabi/lib/thumb/v7e-m/fpv4-sp/hard\libg_nano.a(lib_a-nano-mallocr.o) (_sbrk_r)
c:/a/gcc_arm/6/bin/../lib/gcc/arm-none-eabi/6.3.1/../../../../arm-none-eabi/lib/thumb/v7e-m/fpv4-sp/hard\libg_nano.a(lib_a-strcpy.o)
                              external/rtt/librtt_nrf52832_xxAA.a(SEGGER_RTT.c.obj) (strcpy)
c:/a/gcc_arm/6/bin/../lib/gcc/arm-none-eabi/6.3.1/../../../../arm-none-eabi/lib/thumb/v7e-m/fpv4-sp/hard\libg_nano.a(lib_a-strlen.o)
                              examples/pb_remote/client/CMakeFiles/pb_remote_client_nrf52832_xxAA_s132_5.0.0.dir/__/__/__/mesh/prov/src/prov_beacon.c.obj (strlen)
c:/a/gcc_arm/6/bin/../lib/gcc/arm-none-eabi/6.3.1/../../../../arm-none-eabi/lib/thumb/v7e-m/fpv4-sp/hard\libg_nano.a(lib_a-strrchr.o)
                              examples/pb_remote/client/CMakeFiles/pb_remote_client_nrf52832_xxAA_s132_5.0.0.dir/src/main.c.obj (strrchr)
c:/a/gcc_arm/6/bin/../lib/gcc/arm-none-eabi/6.3.1/../../../../arm-none-eabi/lib/thumb/v7e-m/fpv4-sp/hard\libg_nano.a(lib_a-mlock.o)
                              c:/a/gcc_arm/6/bin/../lib/gcc/arm-none-eabi/6.3.1/../../../../arm-none-eabi/lib/thumb/v7e-m/fpv4-sp/hard\libg_nano.a(lib_a-nano-freer.o) (__malloc_lock)
c:/a/gcc_arm/6/bin/../lib/gcc/arm-none-eabi/6.3.1/../../../../arm-none-eabi/lib/thumb/v7e-m/fpv4-sp/hard\libg_nano.a(lib_a-reent.o)
                              c:/a/gcc_arm/6/bin/../lib/gcc/arm-none-eabi/6.3.1/../../../../arm-none-eabi/lib/thumb/v7e-m/fpv4-sp/hard\libg_nano.a(lib_a-sbrkr.o) (errno)
c:/a/gcc_arm/6/bin/../lib/gcc/arm-none-eabi/6.3.1/../../../../arm-none-eabi/lib/thumb/v7e-m/fpv4-sp/hard\libg_nano.a(lib_a-strchr.o)
                              c:/a/gcc_arm/6/bin/../lib/gcc/arm-none-eabi/6.3.1/../../../../arm-none-eabi/lib/thumb/v7e-m/fpv4-sp/hard\libg_nano.a(lib_a-strrchr.o) (strchr)
c:/a/gcc_arm/6/bin/../lib/gcc/arm-none-eabi/6.3.1/../../../../arm-none-eabi/lib/thumb/v7e-m/fpv4-sp/hard\libnosys.a(sbrk.o)
                              c:/a/gcc_arm/6/bin/../lib/gcc/arm-none-eabi/6.3.1/../../../../arm-none-eabi/lib/thumb/v7e-m/fpv4-sp/hard\libg_nano.a(lib_a-sbrkr.o) (_sbrk)
c:/a/gcc_arm/6/bin/../lib/gcc/arm-none-eabi/6.3.1/../../../../arm-none-eabi/lib/thumb/v7e-m/fpv4-sp/hard\libnosys.a(_exit.o)
                              c:/a/gcc_arm/6/bin/../lib/gcc/arm-none-eabi/6.3.1/../../../../arm-none-eabi/lib/thumb/v7e-m/fpv4-sp/hard\libg_nano.a(lib_a-exit.o) (_exit)

Allocating common symbols
Common symbol       size              file

nrf_nvic_state      0xc               examples/pb_remote/client/CMakeFiles/pb_remote_client_nrf52832_xxAA_s132_5.0.0.dir/__/__/nrf_mesh_sdk.c.obj
errno               0x4               c:/a/gcc_arm/6/bin/../lib/gcc/arm-none-eabi/6.3.1/../../../../arm-none-eabi/lib/thumb/v7e-m/fpv4-sp/hard\libg_nano.a(lib_a-reent.o)
m_assertion_handler
                    0x4               mesh/core/libmesh_core_nrf52832_xxAA.a(nrf_mesh.c.obj)
_SEGGER_RTT         0x78              external/rtt/librtt_nrf52832_xxAA.a(SEGGER_RTT.c.obj)

Discarded input sections

 .text          0x00000000        0x0 c:/a/gcc_arm/6/bin/../lib/gcc/arm-none-eabi/6.3.1/thumb/v7e-m/fpv4-sp/hard/crti.o
 .data          0x00000000        0x0 c:/a/gcc_arm/6/bin/../lib/gcc/arm-none-eabi/6.3.1/thumb/v7e-m/fpv4-sp/hard/crti.o
 .bss           0x00000000        0x0 c:/a/gcc_arm/6/bin/../lib/gcc/arm-none-eabi/6.3.1/thumb/v7e-m/fpv4-sp/hard/crti.o
 .data          0x00000000        0x4 c:/a/gcc_arm/6/bin/../lib/gcc/arm-none-eabi/6.3.1/thumb/v7e-m/fpv4-sp/hard/crtbegin.o
 .data          0x00000000        0x0 c:/a/gcc_arm/6/bin/../lib/gcc/arm-none-eabi/6.3.1/../../../../arm-none-eabi/lib/thumb/v7e-m/fpv4-sp/hard/crt0.o
 .bss           0x00000000        0x0 c:/a/gcc_arm/6/bin/../lib/gcc/arm-none-eabi/6.3.1/../../../../arm-none-eabi/lib/thumb/v7e-m/fpv4-sp/hard/crt0.o
 .ARM.extab     0x00000000        0x0 c:/a/gcc_arm/6/bin/../lib/gcc/arm-none-eabi/6.3.1/../../../../arm-none-eabi/lib/thumb/v7e-m/fpv4-sp/hard/crt0.o
 .text          0x00000000        0x0 examples/pb_remote/client/CMakeFiles/pb_remote_client_nrf52832_xxAA_s132_5.0.0.dir/src/main.c.obj
 .data          0x00000000        0x0 examples/pb_remote/client/CMakeFiles/pb_remote_client_nrf52832_xxAA_s132_5.0.0.dir/src/main.c.obj
 .bss           0x00000000        0x0 examples/pb_remote/client/CMakeFiles/pb_remote_client_nrf52832_xxAA_s132_5.0.0.dir/src/main.c.obj
 .text          0x00000000        0x0 examples/pb_remote/client/CMakeFiles/pb_remote_client_nrf52832_xxAA_s132_5.0.0.dir/__/__/nrf_mesh_sdk.c.obj
 .data          0x00000000        0x0 examples/pb_remote/client/CMakeFiles/pb_remote_client_nrf52832_xxAA_s132_5.0.0.dir/__/__/nrf_mesh_sdk.c.obj
 .bss           0x00000000        0x0 examples/pb_remote/client/CMakeFiles/pb_remote_client_nrf52832_xxAA_s132_5.0.0.dir/__/__/nrf_mesh_sdk.c.obj
 .text          0x00000000        0x0 examples/pb_remote/client/CMakeFiles/pb_remote_client_nrf52832_xxAA_s132_5.0.0.dir/__/__/common/src/rtt_input.c.obj
 .data          0x00000000        0x0 examples/pb_remote/client/CMakeFiles/pb_remote_client_nrf52832_xxAA_s132_5.0.0.dir/__/__/common/src/rtt_input.c.obj
 .bss           0x00000000        0x0 examples/pb_remote/client/CMakeFiles/pb_remote_client_nrf52832_xxAA_s132_5.0.0.dir/__/__/common/src/rtt_input.c.obj
 .text.rtt_input_disable
                0x00000000       0x24 examples/pb_remote/client/CMakeFiles/pb_remote_client_nrf52832_xxAA_s132_5.0.0.dir/__/__/common/src/rtt_input.c.obj
 .text          0x00000000        0x0 examples/pb_remote/client/CMakeFiles/pb_remote_client_nrf52832_xxAA_s132_5.0.0.dir/__/__/__/models/pb_remote/src/pb_remote_client.c.obj
 .data          0x00000000        0x0 examples/pb_remote/client/CMakeFiles/pb_remote_client_nrf52832_xxAA_s132_5.0.0.dir/__/__/__/models/pb_remote/src/pb_remote_client.c.obj
 .bss           0x00000000        0x0 examples/pb_remote/client/CMakeFiles/pb_remote_client_nrf52832_xxAA_s132_5.0.0.dir/__/__/__/models/pb_remote/src/pb_remote_client.c.obj
 .text          0x00000000        0x0 examples/pb_remote/client/CMakeFiles/pb_remote_client_nrf52832_xxAA_s132_5.0.0.dir/__/__/__/mesh/prov/src/prov_provisioner.c.obj
 .data          0x00000000        0x0 examples/pb_remote/client/CMakeFiles/pb_remote_client_nrf52832_xxAA_s132_5.0.0.dir/__/__/__/mesh/prov/src/prov_provisioner.c.obj
 .bss           0x00000000        0x0 examples/pb_remote/client/CMakeFiles/pb_remote_client_nrf52832_xxAA_s132_5.0.0.dir/__/__/__/mesh/prov/src/prov_provisioner.c.obj
 .text.prov_provisioner_shared_secret
                0x00000000       0x28 examples/pb_remote/client/CMakeFiles/pb_remote_client_nrf52832_xxAA_s132_5.0.0.dir/__/__/__/mesh/prov/src/prov_provisioner.c.obj
 .text.prov_provisioner_oob_pubkey
                0x00000000       0x30 examples/pb_remote/client/CMakeFiles/pb_remote_client_nrf52832_xxAA_s132_5.0.0.dir/__/__/__/mesh/prov/src/prov_provisioner.c.obj
 .text          0x00000000        0x0 examples/pb_remote/client/CMakeFiles/pb_remote_client_nrf52832_xxAA_s132_5.0.0.dir/__/__/__/mesh/prov/src/nrf_mesh_prov.c.obj
 .data          0x00000000        0x0 examples/pb_remote/client/CMakeFiles/pb_remote_client_nrf52832_xxAA_s132_5.0.0.dir/__/__/__/mesh/prov/src/nrf_mesh_prov.c.obj
 .bss           0x00000000        0x0 examples/pb_remote/client/CMakeFiles/pb_remote_client_nrf52832_xxAA_s132_5.0.0.dir/__/__/__/mesh/prov/src/nrf_mesh_prov.c.obj
 .text.nrf_mesh_prov_listen
                0x00000000       0x30 examples/pb_remote/client/CMakeFiles/pb_remote_client_nrf52832_xxAA_s132_5.0.0.dir/__/__/__/mesh/prov/src/nrf_mesh_prov.c.obj
 .text.nrf_mesh_prov_shared_secret_provide
                0x00000000        0xe examples/pb_remote/client/CMakeFiles/pb_remote_client_nrf52832_xxAA_s132_5.0.0.dir/__/__/__/mesh/prov/src/nrf_mesh_prov.c.obj
 .text.nrf_mesh_prov_pubkey_provide
                0x00000000       0x10 examples/pb_remote/client/CMakeFiles/pb_remote_client_nrf52832_xxAA_s132_5.0.0.dir/__/__/__/mesh/prov/src/nrf_mesh_prov.c.obj
 .text.nrf_mesh_prov_scan_stop
                0x00000000        0x4 examples/pb_remote/client/CMakeFiles/pb_remote_client_nrf52832_xxAA_s132_5.0.0.dir/__/__/__/mesh/prov/src/nrf_mesh_prov.c.obj
 .text          0x00000000        0x0 examples/pb_remote/client/CMakeFiles/pb_remote_client_nrf52832_xxAA_s132_5.0.0.dir/__/__/__/mesh/prov/src/provisioning.c.obj
 .data          0x00000000        0x0 examples/pb_remote/client/CMakeFiles/pb_remote_client_nrf52832_xxAA_s132_5.0.0.dir/__/__/__/mesh/prov/src/provisioning.c.obj
 .bss           0x00000000        0x0 examples/pb_remote/client/CMakeFiles/pb_remote_client_nrf52832_xxAA_s132_5.0.0.dir/__/__/__/mesh/prov/src/provisioning.c.obj
 .text.prov_tx_capabilities
                0x00000000       0x1e examples/pb_remote/client/CMakeFiles/pb_remote_client_nrf52832_xxAA_s132_5.0.0.dir/__/__/__/mesh/prov/src/provisioning.c.obj
 .text.prov_tx_input_complete
                0x00000000       0x16 examples/pb_remote/client/CMakeFiles/pb_remote_client_nrf52832_xxAA_s132_5.0.0.dir/__/__/__/mesh/prov/src/provisioning.c.obj
 .text.prov_tx_complete
                0x00000000       0x16 examples/pb_remote/client/CMakeFiles/pb_remote_client_nrf52832_xxAA_s132_5.0.0.dir/__/__/__/mesh/prov/src/provisioning.c.obj
 .text.prov_tx_failed
                0x00000000       0x1a examples/pb_remote/client/CMakeFiles/pb_remote_client_nrf52832_xxAA_s132_5.0.0.dir/__/__/__/mesh/prov/src/provisioning.c.obj
 .text.prov_tx  0x00000000        0x4 examples/pb_remote/client/CMakeFiles/pb_remote_client_nrf52832_xxAA_s132_5.0.0.dir/__/__/__/mesh/prov/src/provisioning.c.obj
 .text          0x00000000        0x0 examples/pb_remote/client/CMakeFiles/pb_remote_client_nrf52832_xxAA_s132_5.0.0.dir/__/__/__/mesh/prov/src/prov_beacon.c.obj
 .data          0x00000000        0x0 examples/pb_remote/client/CMakeFiles/pb_remote_client_nrf52832_xxAA_s132_5.0.0.dir/__/__/__/mesh/prov/src/prov_beacon.c.obj
 .bss           0x00000000        0x0 examples/pb_remote/client/CMakeFiles/pb_remote_client_nrf52832_xxAA_s132_5.0.0.dir/__/__/__/mesh/prov/src/prov_beacon.c.obj
 .text.prov_beacon_scan_stop
                0x00000000        0xc examples/pb_remote/client/CMakeFiles/pb_remote_client_nrf52832_xxAA_s132_5.0.0.dir/__/__/__/mesh/prov/src/prov_beacon.c.obj
 .text          0x00000000        0x0 examples/pb_remote/client/CMakeFiles/pb_remote_client_nrf52832_xxAA_s132_5.0.0.dir/__/__/__/mesh/prov/src/prov_utils.c.obj
 .data          0x00000000        0x0 examples/pb_remote/client/CMakeFiles/pb_remote_client_nrf52832_xxAA_s132_5.0.0.dir/__/__/__/mesh/prov/src/prov_utils.c.obj
 .bss           0x00000000        0x0 examples/pb_remote/client/CMakeFiles/pb_remote_client_nrf52832_xxAA_s132_5.0.0.dir/__/__/__/mesh/prov/src/prov_utils.c.obj
 .text.prov_utils_opt_set
                0x00000000       0x20 examples/pb_remote/client/CMakeFiles/pb_remote_client_nrf52832_xxAA_s132_5.0.0.dir/__/__/__/mesh/prov/src/prov_utils.c.obj
 .text          0x00000000        0x0 examples/pb_remote/client/CMakeFiles/pb_remote_client_nrf52832_xxAA_s132_5.0.0.dir/__/__/__/mesh/prov/src/prov_bearer_adv.c.obj
 .data          0x00000000        0x0 examples/pb_remote/client/CMakeFiles/pb_remote_client_nrf52832_xxAA_s132_5.0.0.dir/__/__/__/mesh/prov/src/prov_bearer_adv.c.obj
 .bss           0x00000000        0x0 examples/pb_remote/client/CMakeFiles/pb_remote_client_nrf52832_xxAA_s132_5.0.0.dir/__/__/__/mesh/prov/src/prov_bearer_adv.c.obj
 .text          0x00000000        0x0 examples/pb_remote/client/CMakeFiles/pb_remote_client_nrf52832_xxAA_s132_5.0.0.dir/__/__/__/mesh/access/src/access_publish.c.obj
 .data          0x00000000        0x0 examples/pb_remote/client/CMakeFiles/pb_remote_client_nrf52832_xxAA_s132_5.0.0.dir/__/__/__/mesh/access/src/access_publish.c.obj
 .bss           0x00000000        0x0 examples/pb_remote/client/CMakeFiles/pb_remote_client_nrf52832_xxAA_s132_5.0.0.dir/__/__/__/mesh/access/src/access_publish.c.obj
 .text.access_publish_period_set
                0x00000000       0x6c examples/pb_remote/client/CMakeFiles/pb_remote_client_nrf52832_xxAA_s132_5.0.0.dir/__/__/__/mesh/access/src/access_publish.c.obj
 .text.access_publish_period_get
                0x00000000       0x30 examples/pb_remote/client/CMakeFiles/pb_remote_client_nrf52832_xxAA_s132_5.0.0.dir/__/__/__/mesh/access/src/access_publish.c.obj
 .text          0x00000000        0x0 examples/pb_remote/client/CMakeFiles/pb_remote_client_nrf52832_xxAA_s132_5.0.0.dir/__/__/__/mesh/access/src/access.c.obj
 .data          0x00000000        0x0 examples/pb_remote/client/CMakeFiles/pb_remote_client_nrf52832_xxAA_s132_5.0.0.dir/__/__/__/mesh/access/src/access.c.obj
 .bss           0x00000000        0x0 examples/pb_remote/client/CMakeFiles/pb_remote_client_nrf52832_xxAA_s132_5.0.0.dir/__/__/__/mesh/access/src/access.c.obj
 .text.restore_acquired_subscription
                0x00000000       0x30 examples/pb_remote/client/CMakeFiles/pb_remote_client_nrf52832_xxAA_s132_5.0.0.dir/__/__/__/mesh/access/src/access.c.obj
 .text.restore_acquired_element
                0x00000000       0x1c examples/pb_remote/client/CMakeFiles/pb_remote_client_nrf52832_xxAA_s132_5.0.0.dir/__/__/__/mesh/access/src/access.c.obj
 .text.restore_flash_data
                0x00000000       0x5c examples/pb_remote/client/CMakeFiles/pb_remote_client_nrf52832_xxAA_s132_5.0.0.dir/__/__/__/mesh/access/src/access.c.obj
 .text.access_flash_config_clear
                0x00000000       0x28 examples/pb_remote/client/CMakeFiles/pb_remote_client_nrf52832_xxAA_s132_5.0.0.dir/__/__/__/mesh/access/src/access.c.obj
 .text.access_flash_config_store
                0x00000000      0x14c examples/pb_remote/client/CMakeFiles/pb_remote_client_nrf52832_xxAA_s132_5.0.0.dir/__/__/__/mesh/access/src/access.c.obj
 .text.unlikely.bitfield_next_get.part.0.constprop.3
                0x00000000       0x34 examples/pb_remote/client/CMakeFiles/pb_remote_client_nrf52832_xxAA_s132_5.0.0.dir/__/__/__/mesh/access/src/access.c.obj
 .text.restore_acquired_model
                0x00000000       0x94 examples/pb_remote/client/CMakeFiles/pb_remote_client_nrf52832_xxAA_s132_5.0.0.dir/__/__/__/mesh/access/src/access.c.obj
 .text.access_flash_config_load
                0x00000000      0x130 examples/pb_remote/client/CMakeFiles/pb_remote_client_nrf52832_xxAA_s132_5.0.0.dir/__/__/__/mesh/access/src/access.c.obj
 .text.access_clear
                0x00000000       0x12 examples/pb_remote/client/CMakeFiles/pb_remote_client_nrf52832_xxAA_s132_5.0.0.dir/__/__/__/mesh/access/src/access.c.obj
 .text.access_model_publish_period_set
                0x00000000       0x6c examples/pb_remote/client/CMakeFiles/pb_remote_client_nrf52832_xxAA_s132_5.0.0.dir/__/__/__/mesh/access/src/access.c.obj
 .text.access_model_publish_period_get
                0x00000000       0x3c examples/pb_remote/client/CMakeFiles/pb_remote_client_nrf52832_xxAA_s132_5.0.0.dir/__/__/__/mesh/access/src/access.c.obj
 .text.access_model_subscription_list_alloc
                0x00000000       0x50 examples/pb_remote/client/CMakeFiles/pb_remote_client_nrf52832_xxAA_s132_5.0.0.dir/__/__/__/mesh/access/src/access.c.obj
 .text.access_model_subscription_lists_share
                0x00000000       0x4c examples/pb_remote/client/CMakeFiles/pb_remote_client_nrf52832_xxAA_s132_5.0.0.dir/__/__/__/mesh/access/src/access.c.obj
 .text.access_model_subscription_add
                0x00000000       0x60 examples/pb_remote/client/CMakeFiles/pb_remote_client_nrf52832_xxAA_s132_5.0.0.dir/__/__/__/mesh/access/src/access.c.obj
 .text.access_model_subscription_remove
                0x00000000       0x60 examples/pb_remote/client/CMakeFiles/pb_remote_client_nrf52832_xxAA_s132_5.0.0.dir/__/__/__/mesh/access/src/access.c.obj
 .text.access_model_subscriptions_get
                0x00000000       0x80 examples/pb_remote/client/CMakeFiles/pb_remote_client_nrf52832_xxAA_s132_5.0.0.dir/__/__/__/mesh/access/src/access.c.obj
 .text.access_model_application_unbind
                0x00000000       0x50 examples/pb_remote/client/CMakeFiles/pb_remote_client_nrf52832_xxAA_s132_5.0.0.dir/__/__/__/mesh/access/src/access.c.obj
 .text.access_model_applications_get
                0x00000000       0x58 examples/pb_remote/client/CMakeFiles/pb_remote_client_nrf52832_xxAA_s132_5.0.0.dir/__/__/__/mesh/access/src/access.c.obj
 .text.access_model_publish_application_get
                0x00000000       0x28 examples/pb_remote/client/CMakeFiles/pb_remote_client_nrf52832_xxAA_s132_5.0.0.dir/__/__/__/mesh/access/src/access.c.obj
 .text.access_default_ttl_set
                0x00000000       0x10 examples/pb_remote/client/CMakeFiles/pb_remote_client_nrf52832_xxAA_s132_5.0.0.dir/__/__/__/mesh/access/src/access.c.obj
 .text.access_default_ttl_get
                0x00000000        0xc examples/pb_remote/client/CMakeFiles/pb_remote_client_nrf52832_xxAA_s132_5.0.0.dir/__/__/__/mesh/access/src/access.c.obj
 .text.access_element_location_set
                0x00000000       0x20 examples/pb_remote/client/CMakeFiles/pb_remote_client_nrf52832_xxAA_s132_5.0.0.dir/__/__/__/mesh/access/src/access.c.obj
 .text.access_element_location_get
                0x00000000       0x18 examples/pb_remote/client/CMakeFiles/pb_remote_client_nrf52832_xxAA_s132_5.0.0.dir/__/__/__/mesh/access/src/access.c.obj
 .text.access_element_sig_model_count_get
                0x00000000       0x18 examples/pb_remote/client/CMakeFiles/pb_remote_client_nrf52832_xxAA_s132_5.0.0.dir/__/__/__/mesh/access/src/access.c.obj
 .text.access_element_vendor_model_count_get
                0x00000000       0x18 examples/pb_remote/client/CMakeFiles/pb_remote_client_nrf52832_xxAA_s132_5.0.0.dir/__/__/__/mesh/access/src/access.c.obj
 .text.access_model_id_get
                0x00000000       0x2c examples/pb_remote/client/CMakeFiles/pb_remote_client_nrf52832_xxAA_s132_5.0.0.dir/__/__/__/mesh/access/src/access.c.obj
 .text.access_handle_get
                0x00000000       0x54 examples/pb_remote/client/CMakeFiles/pb_remote_client_nrf52832_xxAA_s132_5.0.0.dir/__/__/__/mesh/access/src/access.c.obj
 .text.access_element_models_get
                0x00000000       0x48 examples/pb_remote/client/CMakeFiles/pb_remote_client_nrf52832_xxAA_s132_5.0.0.dir/__/__/__/mesh/access/src/access.c.obj
 .bss.m_metadata_stored
                0x00000000        0x1 examples/pb_remote/client/CMakeFiles/pb_remote_client_nrf52832_xxAA_s132_5.0.0.dir/__/__/__/mesh/access/src/access.c.obj
 .data.flash_clear_mem_available_struct.10335
                0x00000000       0x10 examples/pb_remote/client/CMakeFiles/pb_remote_client_nrf52832_xxAA_s132_5.0.0.dir/__/__/__/mesh/access/src/access.c.obj
 .data.flash_store_mem_available_struct.10359
                0x00000000       0x10 examples/pb_remote/client/CMakeFiles/pb_remote_client_nrf52832_xxAA_s132_5.0.0.dir/__/__/__/mesh/access/src/access.c.obj
 .rodata.multiply_de_bruijn_bit_position.9174
                0x00000000       0x20 examples/pb_remote/client/CMakeFiles/pb_remote_client_nrf52832_xxAA_s132_5.0.0.dir/__/__/__/mesh/access/src/access.c.obj
 .text          0x00000000        0x0 examples/pb_remote/client/CMakeFiles/pb_remote_client_nrf52832_xxAA_s132_5.0.0.dir/__/__/__/mesh/access/src/access_reliable.c.obj
 .data          0x00000000        0x0 examples/pb_remote/client/CMakeFiles/pb_remote_client_nrf52832_xxAA_s132_5.0.0.dir/__/__/__/mesh/access/src/access_reliable.c.obj
 .bss           0x00000000        0x0 examples/pb_remote/client/CMakeFiles/pb_remote_client_nrf52832_xxAA_s132_5.0.0.dir/__/__/__/mesh/access/src/access_reliable.c.obj
 .text.access_reliable_cancel_all
                0x00000000       0x34 examples/pb_remote/client/CMakeFiles/pb_remote_client_nrf52832_xxAA_s132_5.0.0.dir/__/__/__/mesh/access/src/access_reliable.c.obj
 .text          0x00000000        0x0 examples/pb_remote/client/CMakeFiles/pb_remote_client_nrf52832_xxAA_s132_5.0.0.dir/__/__/__/mesh/access/src/device_state_manager.c.obj
 .data          0x00000000        0x0 examples/pb_remote/client/CMakeFiles/pb_remote_client_nrf52832_xxAA_s132_5.0.0.dir/__/__/__/mesh/access/src/device_state_manager.c.obj
 .bss           0x00000000        0x0 examples/pb_remote/client/CMakeFiles/pb_remote_client_nrf52832_xxAA_s132_5.0.0.dir/__/__/__/mesh/access/src/device_state_manager.c.obj
 .text.reset_flash_area
                0x00000000       0x28 examples/pb_remote/client/CMakeFiles/pb_remote_client_nrf52832_xxAA_s132_5.0.0.dir/__/__/__/mesh/access/src/device_state_manager.c.obj
 .text.add_address_virtual
                0x00000000       0x70 examples/pb_remote/client/CMakeFiles/pb_remote_client_nrf52832_xxAA_s132_5.0.0.dir/__/__/__/mesh/access/src/device_state_manager.c.obj
 .text.address_delete_if_unused
                0x00000000       0x78 examples/pb_remote/client/CMakeFiles/pb_remote_client_nrf52832_xxAA_s132_5.0.0.dir/__/__/__/mesh/access/src/device_state_manager.c.obj
 .text.dsm_flash_config_load
                0x00000000      0x134 examples/pb_remote/client/CMakeFiles/pb_remote_client_nrf52832_xxAA_s132_5.0.0.dir/__/__/__/mesh/access/src/device_state_manager.c.obj
 .text.dsm_has_unflashed_data
                0x00000000       0x24 examples/pb_remote/client/CMakeFiles/pb_remote_client_nrf52832_xxAA_s132_5.0.0.dir/__/__/__/mesh/access/src/device_state_manager.c.obj
 .text.dsm_clear
                0x00000000       0x6c examples/pb_remote/client/CMakeFiles/pb_remote_client_nrf52832_xxAA_s132_5.0.0.dir/__/__/__/mesh/access/src/device_state_manager.c.obj
 .text.dsm_address_publish_add_handle
                0x00000000       0x38 examples/pb_remote/client/CMakeFiles/pb_remote_client_nrf52832_xxAA_s132_5.0.0.dir/__/__/__/mesh/access/src/device_state_manager.c.obj
 .text.dsm_address_publish_virtual_add
                0x00000000        0x6 examples/pb_remote/client/CMakeFiles/pb_remote_client_nrf52832_xxAA_s132_5.0.0.dir/__/__/__/mesh/access/src/device_state_manager.c.obj
 .text.dsm_address_publish_remove
                0x00000000       0x40 examples/pb_remote/client/CMakeFiles/pb_remote_client_nrf52832_xxAA_s132_5.0.0.dir/__/__/__/mesh/access/src/device_state_manager.c.obj
 .text.dsm_address_subscription_add
                0x00000000        0xc examples/pb_remote/client/CMakeFiles/pb_remote_client_nrf52832_xxAA_s132_5.0.0.dir/__/__/__/mesh/access/src/device_state_manager.c.obj
 .text.dsm_address_subscription_virtual_add
                0x00000000        0x6 examples/pb_remote/client/CMakeFiles/pb_remote_client_nrf52832_xxAA_s132_5.0.0.dir/__/__/__/mesh/access/src/device_state_manager.c.obj
 .text.dsm_address_subscription_add_handle
                0x00000000       0x38 examples/pb_remote/client/CMakeFiles/pb_remote_client_nrf52832_xxAA_s132_5.0.0.dir/__/__/__/mesh/access/src/device_state_manager.c.obj
 .text.dsm_address_subscription_count_get
                0x00000000       0x58 examples/pb_remote/client/CMakeFiles/pb_remote_client_nrf52832_xxAA_s132_5.0.0.dir/__/__/__/mesh/access/src/device_state_manager.c.obj
 .text.dsm_address_subscription_remove
                0x00000000       0x58 examples/pb_remote/client/CMakeFiles/pb_remote_client_nrf52832_xxAA_s132_5.0.0.dir/__/__/__/mesh/access/src/device_state_manager.c.obj
 .text.dsm_address_get_all
                0x00000000       0x64 examples/pb_remote/client/CMakeFiles/pb_remote_client_nrf52832_xxAA_s132_5.0.0.dir/__/__/__/mesh/access/src/device_state_manager.c.obj
 .text.dsm_net_key_index_to_subnet_handle
                0x00000000       0x1c examples/pb_remote/client/CMakeFiles/pb_remote_client_nrf52832_xxAA_s132_5.0.0.dir/__/__/__/mesh/access/src/device_state_manager.c.obj
 .text.dsm_subnet_handle_get
                0x00000000        0xc examples/pb_remote/client/CMakeFiles/pb_remote_client_nrf52832_xxAA_s132_5.0.0.dir/__/__/__/mesh/access/src/device_state_manager.c.obj
 .text.dsm_subnet_handle_to_netkey_index
                0x00000000       0x30 examples/pb_remote/client/CMakeFiles/pb_remote_client_nrf52832_xxAA_s132_5.0.0.dir/__/__/__/mesh/access/src/device_state_manager.c.obj
 .text.dsm_appkey_index_to_appkey_handle
                0x00000000       0x1c examples/pb_remote/client/CMakeFiles/pb_remote_client_nrf52832_xxAA_s132_5.0.0.dir/__/__/__/mesh/access/src/device_state_manager.c.obj
 .text.dsm_appkey_handle_to_appkey_index
                0x00000000       0x30 examples/pb_remote/client/CMakeFiles/pb_remote_client_nrf52832_xxAA_s132_5.0.0.dir/__/__/__/mesh/access/src/device_state_manager.c.obj
 .text.dsm_subnet_kr_phase_get
                0x00000000       0x2c examples/pb_remote/client/CMakeFiles/pb_remote_client_nrf52832_xxAA_s132_5.0.0.dir/__/__/__/mesh/access/src/device_state_manager.c.obj
 .text.dsm_subnet_update
                0x00000000       0xa4 examples/pb_remote/client/CMakeFiles/pb_remote_client_nrf52832_xxAA_s132_5.0.0.dir/__/__/__/mesh/access/src/device_state_manager.c.obj
 .text.dsm_subnet_get_all
                0x00000000       0x3c examples/pb_remote/client/CMakeFiles/pb_remote_client_nrf52832_xxAA_s132_5.0.0.dir/__/__/__/mesh/access/src/device_state_manager.c.obj
 .text.dsm_devkey_delete
                0x00000000       0x40 examples/pb_remote/client/CMakeFiles/pb_remote_client_nrf52832_xxAA_s132_5.0.0.dir/__/__/__/mesh/access/src/device_state_manager.c.obj
 .text.dsm_devkey_handle_get
                0x00000000       0x34 examples/pb_remote/client/CMakeFiles/pb_remote_client_nrf52832_xxAA_s132_5.0.0.dir/__/__/__/mesh/access/src/device_state_manager.c.obj
 .text.dsm_appkey_update
                0x00000000       0x8c examples/pb_remote/client/CMakeFiles/pb_remote_client_nrf52832_xxAA_s132_5.0.0.dir/__/__/__/mesh/access/src/device_state_manager.c.obj
 .text.dsm_appkey_delete
                0x00000000       0x2c examples/pb_remote/client/CMakeFiles/pb_remote_client_nrf52832_xxAA_s132_5.0.0.dir/__/__/__/mesh/access/src/device_state_manager.c.obj
 .text.dsm_subnet_delete
                0x00000000       0x94 examples/pb_remote/client/CMakeFiles/pb_remote_client_nrf52832_xxAA_s132_5.0.0.dir/__/__/__/mesh/access/src/device_state_manager.c.obj
 .text.dsm_appkey_get_all
                0x00000000       0x58 examples/pb_remote/client/CMakeFiles/pb_remote_client_nrf52832_xxAA_s132_5.0.0.dir/__/__/__/mesh/access/src/device_state_manager.c.obj
 .text.dsm_beacon_secmat_get
                0x00000000       0x2c examples/pb_remote/client/CMakeFiles/pb_remote_client_nrf52832_xxAA_s132_5.0.0.dir/__/__/__/mesh/access/src/device_state_manager.c.obj
 .text.dsm_net_secmat_from_keyindex_get
                0x00000000       0x30 examples/pb_remote/client/CMakeFiles/pb_remote_client_nrf52832_xxAA_s132_5.0.0.dir/__/__/__/mesh/access/src/device_state_manager.c.obj
 .text.dsm_proxy_identity_get
                0x00000000        0x4 examples/pb_remote/client/CMakeFiles/pb_remote_client_nrf52832_xxAA_s132_5.0.0.dir/__/__/__/mesh/access/src/device_state_manager.c.obj
 .data.mem_listener.10554
                0x00000000       0x10 examples/pb_remote/client/CMakeFiles/pb_remote_client_nrf52832_xxAA_s132_5.0.0.dir/__/__/__/mesh/access/src/device_state_manager.c.obj
 .text          0x00000000        0x0 examples/pb_remote/client/CMakeFiles/pb_remote_client_nrf52832_xxAA_s132_5.0.0.dir/__/__/nrf_mesh_weak.c.obj
 .data          0x00000000        0x0 examples/pb_remote/client/CMakeFiles/pb_remote_client_nrf52832_xxAA_s132_5.0.0.dir/__/__/nrf_mesh_weak.c.obj
 .bss           0x00000000        0x0 examples/pb_remote/client/CMakeFiles/pb_remote_client_nrf52832_xxAA_s132_5.0.0.dir/__/__/nrf_mesh_weak.c.obj
 .text._weak_handler_ptr
                0x00000000        0x4 examples/pb_remote/client/CMakeFiles/pb_remote_client_nrf52832_xxAA_s132_5.0.0.dir/__/__/nrf_mesh_weak.c.obj
 .text          0x00000000        0x0 examples/pb_remote/client/CMakeFiles/pb_remote_client_nrf52832_xxAA_s132_5.0.0.dir/__/__/__/external/nRF5_SDK_14.2.0_17b948a/components/toolchain/system_nrf52.c.obj
 .data          0x00000000        0x0 examples/pb_remote/client/CMakeFiles/pb_remote_client_nrf52832_xxAA_s132_5.0.0.dir/__/__/__/external/nRF5_SDK_14.2.0_17b948a/components/toolchain/system_nrf52.c.obj
 .bss           0x00000000        0x0 examples/pb_remote/client/CMakeFiles/pb_remote_client_nrf52832_xxAA_s132_5.0.0.dir/__/__/__/external/nRF5_SDK_14.2.0_17b948a/components/toolchain/system_nrf52.c.obj
 .text.SystemCoreClockUpdate
                0x00000000       0x10 examples/pb_remote/client/CMakeFiles/pb_remote_client_nrf52832_xxAA_s132_5.0.0.dir/__/__/__/external/nRF5_SDK_14.2.0_17b948a/components/toolchain/system_nrf52.c.obj
 .data          0x00000000        0x0 examples/pb_remote/client/CMakeFiles/pb_remote_client_nrf52832_xxAA_s132_5.0.0.dir/__/__/__/external/nRF5_SDK_14.2.0_17b948a/components/toolchain/gcc/gcc_startup_nrf52.S.obj
 .bss           0x00000000        0x0 examples/pb_remote/client/CMakeFiles/pb_remote_client_nrf52832_xxAA_s132_5.0.0.dir/__/__/__/external/nRF5_SDK_14.2.0_17b948a/components/toolchain/gcc/gcc_startup_nrf52.S.obj
 .text          0x00000000        0x0 mesh/core/libmesh_core_nrf52832_xxAA.a(nrf_mesh_configure.c.obj)
 .data          0x00000000        0x0 mesh/core/libmesh_core_nrf52832_xxAA.a(nrf_mesh_configure.c.obj)
 .bss           0x00000000        0x0 mesh/core/libmesh_core_nrf52832_xxAA.a(nrf_mesh_configure.c.obj)
 .text.nrf_mesh_configure_device_uuid_set
                0x00000000       0x10 mesh/core/libmesh_core_nrf52832_xxAA.a(nrf_mesh_configure.c.obj)
 .text          0x00000000        0x0 mesh/core/libmesh_core_nrf52832_xxAA.a(event.c.obj)
 .data          0x00000000        0x0 mesh/core/libmesh_core_nrf52832_xxAA.a(event.c.obj)
 .bss           0x00000000        0x0 mesh/core/libmesh_core_nrf52832_xxAA.a(event.c.obj)
 .text          0x00000000        0x0 mesh/core/libmesh_core_nrf52832_xxAA.a(fifo.c.obj)
 .data          0x00000000        0x0 mesh/core/libmesh_core_nrf52832_xxAA.a(fifo.c.obj)
 .bss           0x00000000        0x0 mesh/core/libmesh_core_nrf52832_xxAA.a(fifo.c.obj)
 .text.fifo_peek_at
                0x00000000       0x50 mesh/core/libmesh_core_nrf52832_xxAA.a(fifo.c.obj)
 .text.fifo_peek
                0x00000000        0x6 mesh/core/libmesh_core_nrf52832_xxAA.a(fifo.c.obj)
 .text.fifo_flush
                0x00000000        0x6 mesh/core/libmesh_core_nrf52832_xxAA.a(fifo.c.obj)
 .text.fifo_get_len
                0x00000000        0x8 mesh/core/libmesh_core_nrf52832_xxAA.a(fifo.c.obj)
 .text.fifo_is_full
                0x00000000       0x10 mesh/core/libmesh_core_nrf52832_xxAA.a(fifo.c.obj)
 .text.fifo_is_empty
                0x00000000        0xc mesh/core/libmesh_core_nrf52832_xxAA.a(fifo.c.obj)
 .text          0x00000000        0x0 mesh/core/libmesh_core_nrf52832_xxAA.a(net_state.c.obj)
 .data          0x00000000        0x0 mesh/core/libmesh_core_nrf52832_xxAA.a(net_state.c.obj)
 .bss           0x00000000        0x0 mesh/core/libmesh_core_nrf52832_xxAA.a(net_state.c.obj)
 .text.net_state_reset
                0x00000000       0x3c mesh/core/libmesh_core_nrf52832_xxAA.a(net_state.c.obj)
 .text.net_state_iv_update_test_mode_set
                0x00000000        0xc mesh/core/libmesh_core_nrf52832_xxAA.a(net_state.c.obj)
 .data.mem_listener.9736
                0x00000000       0x10 mesh/core/libmesh_core_nrf52832_xxAA.a(net_state.c.obj)
 .text          0x00000000        0x0 mesh/core/libmesh_core_nrf52832_xxAA.a(nrf_mesh_utils.c.obj)
 .data          0x00000000        0x0 mesh/core/libmesh_core_nrf52832_xxAA.a(nrf_mesh_utils.c.obj)
 .bss           0x00000000        0x0 mesh/core/libmesh_core_nrf52832_xxAA.a(nrf_mesh_utils.c.obj)
 .text.nrf_mesh_rand_get
                0x00000000       0x10 mesh/core/libmesh_core_nrf52832_xxAA.a(nrf_mesh_utils.c.obj)
 .text.nrf_mesh_gap_address_type_get
                0x00000000       0x3c mesh/core/libmesh_core_nrf52832_xxAA.a(nrf_mesh_utils.c.obj)
 .text          0x00000000        0x0 mesh/core/libmesh_core_nrf52832_xxAA.a(nrf_mesh.c.obj)
 .data          0x00000000        0x0 mesh/core/libmesh_core_nrf52832_xxAA.a(nrf_mesh.c.obj)
 .bss           0x00000000        0x0 mesh/core/libmesh_core_nrf52832_xxAA.a(nrf_mesh.c.obj)
 .text.nrf_mesh_disable
                0x00000000       0x28 mesh/core/libmesh_core_nrf52832_xxAA.a(nrf_mesh.c.obj)
 .text.nrf_mesh_process
                0x00000000        0x4 mesh/core/libmesh_core_nrf52832_xxAA.a(nrf_mesh.c.obj)
 .text.nrf_mesh_evt_handler_remove
                0x00000000        0x4 mesh/core/libmesh_core_nrf52832_xxAA.a(nrf_mesh.c.obj)
 .text.nrf_mesh_rx_cb_set
                0x00000000        0xc mesh/core/libmesh_core_nrf52832_xxAA.a(nrf_mesh.c.obj)
 .text.nrf_mesh_rx_cb_clear
                0x00000000        0xc mesh/core/libmesh_core_nrf52832_xxAA.a(nrf_mesh.c.obj)
 .text          0x00000000        0x0 mesh/core/libmesh_core_nrf52832_xxAA.a(hal.c.obj)
 .data          0x00000000        0x0 mesh/core/libmesh_core_nrf52832_xxAA.a(hal.c.obj)
 .bss           0x00000000        0x0 mesh/core/libmesh_core_nrf52832_xxAA.a(hal.c.obj)
 .text.sd_power_reset_reason_clr
                0x00000000        0x4 mesh/core/libmesh_core_nrf52832_xxAA.a(hal.c.obj)
 .text.sd_power_gpregret_set
                0x00000000        0x4 mesh/core/libmesh_core_nrf52832_xxAA.a(hal.c.obj)
 .text.hal_device_reset
                0x00000000       0x38 mesh/core/libmesh_core_nrf52832_xxAA.a(hal.c.obj)
 .text          0x00000000        0x0 mesh/core/libmesh_core_nrf52832_xxAA.a(timer_scheduler.c.obj)
 .data          0x00000000        0x0 mesh/core/libmesh_core_nrf52832_xxAA.a(timer_scheduler.c.obj)
 .bss           0x00000000        0x0 mesh/core/libmesh_core_nrf52832_xxAA.a(timer_scheduler.c.obj)
 .text          0x00000000        0x0 mesh/core/libmesh_core_nrf52832_xxAA.a(timer.c.obj)
 .data          0x00000000        0x0 mesh/core/libmesh_core_nrf52832_xxAA.a(timer.c.obj)
 .bss           0x00000000        0x0 mesh/core/libmesh_core_nrf52832_xxAA.a(timer.c.obj)
 .text.timer_order_cb_ppi
                0x00000000       0xc4 mesh/core/libmesh_core_nrf52832_xxAA.a(timer.c.obj)
 .text.timer_order_ppi
                0x00000000       0xc0 mesh/core/libmesh_core_nrf52832_xxAA.a(timer.c.obj)
 .text.timer_abort
                0x00000000       0x78 mesh/core/libmesh_core_nrf52832_xxAA.a(timer.c.obj)
 .text          0x00000000        0x0 mesh/core/libmesh_core_nrf52832_xxAA.a(ticker.c.obj)
 .data          0x00000000        0x0 mesh/core/libmesh_core_nrf52832_xxAA.a(ticker.c.obj)
 .bss           0x00000000        0x0 mesh/core/libmesh_core_nrf52832_xxAA.a(ticker.c.obj)
 .text.ticker_get
                0x00000000        0xc mesh/core/libmesh_core_nrf52832_xxAA.a(ticker.c.obj)
 .text          0x00000000        0x0 mesh/core/libmesh_core_nrf52832_xxAA.a(rand.c.obj)
 .data          0x00000000        0x0 mesh/core/libmesh_core_nrf52832_xxAA.a(rand.c.obj)
 .bss           0x00000000        0x0 mesh/core/libmesh_core_nrf52832_xxAA.a(rand.c.obj)
 .text          0x00000000        0x0 mesh/core/libmesh_core_nrf52832_xxAA.a(timeslot.c.obj)
 .data          0x00000000        0x0 mesh/core/libmesh_core_nrf52832_xxAA.a(timeslot.c.obj)
 .bss           0x00000000        0x0 mesh/core/libmesh_core_nrf52832_xxAA.a(timeslot.c.obj)
 .text.timeslot_end_time_get
                0x00000000       0x10 mesh/core/libmesh_core_nrf52832_xxAA.a(timeslot.c.obj)
 .text.timeslot_is_in_ts
                0x00000000        0xc mesh/core/libmesh_core_nrf52832_xxAA.a(timeslot.c.obj)
 .text.timeslot_restart
                0x00000000       0x10 mesh/core/libmesh_core_nrf52832_xxAA.a(timeslot.c.obj)
 .text          0x00000000        0x0 mesh/core/libmesh_core_nrf52832_xxAA.a(bearer_event.c.obj)
 .data          0x00000000        0x0 mesh/core/libmesh_core_nrf52832_xxAA.a(bearer_event.c.obj)
 .bss           0x00000000        0x0 mesh/core/libmesh_core_nrf52832_xxAA.a(bearer_event.c.obj)
 .text.bearer_event_generic_post
                0x00000000       0x30 mesh/core/libmesh_core_nrf52832_xxAA.a(bearer_event.c.obj)
 .text.bearer_event_timer_sch_post
                0x00000000       0x34 mesh/core/libmesh_core_nrf52832_xxAA.a(bearer_event.c.obj)
 .text.bearer_event_in_correct_irq_priority
                0x00000000       0x48 mesh/core/libmesh_core_nrf52832_xxAA.a(bearer_event.c.obj)
 .text          0x00000000        0x0 mesh/core/libmesh_core_nrf52832_xxAA.a(enc.c.obj)
 .data          0x00000000        0x0 mesh/core/libmesh_core_nrf52832_xxAA.a(enc.c.obj)
 .bss           0x00000000        0x0 mesh/core/libmesh_core_nrf52832_xxAA.a(enc.c.obj)
 .text.enc_key_generate
                0x00000000        0x6 mesh/core/libmesh_core_nrf52832_xxAA.a(enc.c.obj)
 .text          0x00000000        0x0 mesh/core/libmesh_core_nrf52832_xxAA.a(network.c.obj)
 .data          0x00000000        0x0 mesh/core/libmesh_core_nrf52832_xxAA.a(network.c.obj)
 .bss           0x00000000        0x0 mesh/core/libmesh_core_nrf52832_xxAA.a(network.c.obj)
 .text.network_opt_set
                0x00000000       0x68 mesh/core/libmesh_core_nrf52832_xxAA.a(network.c.obj)
 .text.network_packet_discard
                0x00000000       0x3c mesh/core/libmesh_core_nrf52832_xxAA.a(network.c.obj)
 .text          0x00000000        0x0 mesh/core/libmesh_core_nrf52832_xxAA.a(nrf_mesh_keygen.c.obj)
 .data          0x00000000        0x0 mesh/core/libmesh_core_nrf52832_xxAA.a(nrf_mesh_keygen.c.obj)
 .bss           0x00000000        0x0 mesh/core/libmesh_core_nrf52832_xxAA.a(nrf_mesh_keygen.c.obj)
 .text.nrf_mesh_keygen_identitykey
                0x00000000       0x4c mesh/core/libmesh_core_nrf52832_xxAA.a(nrf_mesh_keygen.c.obj)
 .text          0x00000000        0x0 mesh/core/libmesh_core_nrf52832_xxAA.a(list.c.obj)
 .data          0x00000000        0x0 mesh/core/libmesh_core_nrf52832_xxAA.a(list.c.obj)
 .bss           0x00000000        0x0 mesh/core/libmesh_core_nrf52832_xxAA.a(list.c.obj)
 .text.list_size_get
                0x00000000       0x12 mesh/core/libmesh_core_nrf52832_xxAA.a(list.c.obj)
 .text.list_sorted_add
                0x00000000       0x90 mesh/core/libmesh_core_nrf52832_xxAA.a(list.c.obj)
 .text          0x00000000        0x0 mesh/core/libmesh_core_nrf52832_xxAA.a(log.c.obj)
 .data          0x00000000        0x0 mesh/core/libmesh_core_nrf52832_xxAA.a(log.c.obj)
 .bss           0x00000000        0x0 mesh/core/libmesh_core_nrf52832_xxAA.a(log.c.obj)
 .text.log_callback_logview
                0x00000000       0x38 mesh/core/libmesh_core_nrf52832_xxAA.a(log.c.obj)
 .text.log_set_callback
                0x00000000        0xc mesh/core/libmesh_core_nrf52832_xxAA.a(log.c.obj)
 .rodata.log_callback_logview.str1.1
                0x00000000        0xf mesh/core/libmesh_core_nrf52832_xxAA.a(log.c.obj)
 .text          0x00000000        0x0 mesh/core/libmesh_core_nrf52832_xxAA.a(flash_manager.c.obj)
 .data          0x00000000        0x0 mesh/core/libmesh_core_nrf52832_xxAA.a(flash_manager.c.obj)
 .bss           0x00000000        0x0 mesh/core/libmesh_core_nrf52832_xxAA.a(flash_manager.c.obj)
 .text.flash_manager_remove
                0x00000000       0x24 mesh/core/libmesh_core_nrf52832_xxAA.a(flash_manager.c.obj)
 .text.flash_manager_entry_get
                0x00000000       0x48 mesh/core/libmesh_core_nrf52832_xxAA.a(flash_manager.c.obj)
 .text.flash_manager_entry_count_get
                0x00000000       0x5c mesh/core/libmesh_core_nrf52832_xxAA.a(flash_manager.c.obj)
 .text.flash_manager_entry_release
                0x00000000       0x12 mesh/core/libmesh_core_nrf52832_xxAA.a(flash_manager.c.obj)
 .text.flash_manager_action_queue_empty_cb_set
                0x00000000       0x28 mesh/core/libmesh_core_nrf52832_xxAA.a(flash_manager.c.obj)
 .text          0x00000000        0x0 mesh/core/libmesh_core_nrf52832_xxAA.a(ccm_soft.c.obj)
 .data          0x00000000        0x0 mesh/core/libmesh_core_nrf52832_xxAA.a(ccm_soft.c.obj)
 .bss           0x00000000        0x0 mesh/core/libmesh_core_nrf52832_xxAA.a(ccm_soft.c.obj)
 .text          0x00000000        0x0 mesh/core/libmesh_core_nrf52832_xxAA.a(beacon.c.obj)
 .data          0x00000000        0x0 mesh/core/libmesh_core_nrf52832_xxAA.a(beacon.c.obj)
 .bss           0x00000000        0x0 mesh/core/libmesh_core_nrf52832_xxAA.a(beacon.c.obj)
 .text          0x00000000        0x0 mesh/core/libmesh_core_nrf52832_xxAA.a(flash_manager_internal.c.obj)
 .data          0x00000000        0x0 mesh/core/libmesh_core_nrf52832_xxAA.a(flash_manager_internal.c.obj)
 .bss           0x00000000        0x0 mesh/core/libmesh_core_nrf52832_xxAA.a(flash_manager_internal.c.obj)
 .text          0x00000000        0x0 mesh/core/libmesh_core_nrf52832_xxAA.a(core_tx.c.obj)
 .data          0x00000000        0x0 mesh/core/libmesh_core_nrf52832_xxAA.a(core_tx.c.obj)
 .bss           0x00000000        0x0 mesh/core/libmesh_core_nrf52832_xxAA.a(core_tx.c.obj)
 .text          0x00000000        0x0 mesh/core/libmesh_core_nrf52832_xxAA.a(heartbeat.c.obj)
 .data          0x00000000        0x0 mesh/core/libmesh_core_nrf52832_xxAA.a(heartbeat.c.obj)
 .bss           0x00000000        0x0 mesh/core/libmesh_core_nrf52832_xxAA.a(heartbeat.c.obj)
 .text.heartbeat_on_feature_change_trigger
                0x00000000       0x50 mesh/core/libmesh_core_nrf52832_xxAA.a(heartbeat.c.obj)
 .text.heartbeat_subscription_set
                0x00000000       0x90 mesh/core/libmesh_core_nrf52832_xxAA.a(heartbeat.c.obj)
 .text.heartbeat_subscription_get
                0x00000000        0x8 mesh/core/libmesh_core_nrf52832_xxAA.a(heartbeat.c.obj)
 .text.heartbeat_config_server_cb_set
                0x00000000       0x3c mesh/core/libmesh_core_nrf52832_xxAA.a(heartbeat.c.obj)
 .text.heartbeat_publication_state_updated
                0x00000000       0x80 mesh/core/libmesh_core_nrf52832_xxAA.a(heartbeat.c.obj)
 .text          0x00000000        0x0 mesh/core/libmesh_core_nrf52832_xxAA.a(net_beacon.c.obj)
 .data          0x00000000        0x0 mesh/core/libmesh_core_nrf52832_xxAA.a(net_beacon.c.obj)
 .bss           0x00000000        0x0 mesh/core/libmesh_core_nrf52832_xxAA.a(net_beacon.c.obj)
 .text.net_beacon_state_set
                0x00000000       0x34 mesh/core/libmesh_core_nrf52832_xxAA.a(net_beacon.c.obj)
 .text.net_beacon_state_get
                0x00000000        0xc mesh/core/libmesh_core_nrf52832_xxAA.a(net_beacon.c.obj)
 .text          0x00000000        0x0 mesh/core/libmesh_core_nrf52832_xxAA.a(core_tx_adv.c.obj)
 .data          0x00000000        0x0 mesh/core/libmesh_core_nrf52832_xxAA.a(core_tx_adv.c.obj)
 .bss           0x00000000        0x0 mesh/core/libmesh_core_nrf52832_xxAA.a(core_tx_adv.c.obj)
 .text.core_tx_adv_count_set
                0x00000000       0x38 mesh/core/libmesh_core_nrf52832_xxAA.a(core_tx_adv.c.obj)
 .text.core_tx_adv_interval_set
                0x00000000       0x34 mesh/core/libmesh_core_nrf52832_xxAA.a(core_tx_adv.c.obj)
 .text.core_tx_adv_address_set
                0x00000000       0x34 mesh/core/libmesh_core_nrf52832_xxAA.a(core_tx_adv.c.obj)
 .text          0x00000000        0x0 mesh/core/libmesh_core_nrf52832_xxAA.a(ad_listener.c.obj)
 .data          0x00000000        0x0 mesh/core/libmesh_core_nrf52832_xxAA.a(ad_listener.c.obj)
 .bss           0x00000000        0x0 mesh/core/libmesh_core_nrf52832_xxAA.a(ad_listener.c.obj)
 .text.ad_listener_unsubscribe
                0x00000000       0x6c mesh/core/libmesh_core_nrf52832_xxAA.a(ad_listener.c.obj)
 .text          0x00000000        0x0 mesh/core/libmesh_core_nrf52832_xxAA.a(ad_type_filter.c.obj)
 .data          0x00000000        0x0 mesh/core/libmesh_core_nrf52832_xxAA.a(ad_type_filter.c.obj)
 .bss           0x00000000        0x0 mesh/core/libmesh_core_nrf52832_xxAA.a(ad_type_filter.c.obj)
 .text.bearer_adtype_remove
                0x00000000       0x20 mesh/core/libmesh_core_nrf52832_xxAA.a(ad_type_filter.c.obj)
 .text.bearer_adtype_clear
                0x00000000       0x10 mesh/core/libmesh_core_nrf52832_xxAA.a(ad_type_filter.c.obj)
 .text.bearer_invalid_length_amount_get
                0x00000000        0xc mesh/core/libmesh_core_nrf52832_xxAA.a(ad_type_filter.c.obj)
 .text.bearer_adtype_filtered_amount_get
                0x00000000        0xc mesh/core/libmesh_core_nrf52832_xxAA.a(ad_type_filter.c.obj)
 .text          0x00000000        0x0 mesh/core/libmesh_core_nrf52832_xxAA.a(advertiser.c.obj)
 .data          0x00000000        0x0 mesh/core/libmesh_core_nrf52832_xxAA.a(advertiser.c.obj)
 .bss           0x00000000        0x0 mesh/core/libmesh_core_nrf52832_xxAA.a(advertiser.c.obj)
 .text.advertiser_disable
                0x00000000        0xa mesh/core/libmesh_core_nrf52832_xxAA.a(advertiser.c.obj)
 .text.advertiser_channels_set
                0x00000000       0x84 mesh/core/libmesh_core_nrf52832_xxAA.a(advertiser.c.obj)
 .text.advertiser_address_set
                0x00000000       0x50 mesh/core/libmesh_core_nrf52832_xxAA.a(advertiser.c.obj)
 .text.advertiser_config_set
                0x00000000       0x44 mesh/core/libmesh_core_nrf52832_xxAA.a(advertiser.c.obj)
 .text.advertiser_config_get
                0x00000000       0x2c mesh/core/libmesh_core_nrf52832_xxAA.a(advertiser.c.obj)
 .text          0x00000000        0x0 mesh/core/libmesh_core_nrf52832_xxAA.a(bearer_handler.c.obj)
 .data          0x00000000        0x0 mesh/core/libmesh_core_nrf52832_xxAA.a(bearer_handler.c.obj)
 .bss           0x00000000        0x0 mesh/core/libmesh_core_nrf52832_xxAA.a(bearer_handler.c.obj)
 .text.bearer_handler_stop
                0x00000000       0x20 mesh/core/libmesh_core_nrf52832_xxAA.a(bearer_handler.c.obj)
 .text.bearer_handler_action_fire
                0x00000000       0xbc mesh/core/libmesh_core_nrf52832_xxAA.a(bearer_handler.c.obj)
 .text          0x00000000        0x0 mesh/core/libmesh_core_nrf52832_xxAA.a(broadcast.c.obj)
 .data          0x00000000        0x0 mesh/core/libmesh_core_nrf52832_xxAA.a(broadcast.c.obj)
 .bss           0x00000000        0x0 mesh/core/libmesh_core_nrf52832_xxAA.a(broadcast.c.obj)
 .text          0x00000000        0x0 mesh/core/libmesh_core_nrf52832_xxAA.a(filter_engine.c.obj)
 .data          0x00000000        0x0 mesh/core/libmesh_core_nrf52832_xxAA.a(filter_engine.c.obj)
 .bss           0x00000000        0x0 mesh/core/libmesh_core_nrf52832_xxAA.a(filter_engine.c.obj)
 .text.fen_accepted_amount_get
                0x00000000        0xc mesh/core/libmesh_core_nrf52832_xxAA.a(filter_engine.c.obj)
 .text          0x00000000        0x0 mesh/core/libmesh_core_nrf52832_xxAA.a(radio_config.c.obj)
 .data          0x00000000        0x0 mesh/core/libmesh_core_nrf52832_xxAA.a(radio_config.c.obj)
 .bss           0x00000000        0x0 mesh/core/libmesh_core_nrf52832_xxAA.a(radio_config.c.obj)
 .text.radio_config_access_addr_get
                0x00000000       0x64 mesh/core/libmesh_core_nrf52832_xxAA.a(radio_config.c.obj)
 .text          0x00000000        0x0 mesh/core/libmesh_core_nrf52832_xxAA.a(scanner.c.obj)
 .data          0x00000000        0x0 mesh/core/libmesh_core_nrf52832_xxAA.a(scanner.c.obj)
 .bss           0x00000000        0x0 mesh/core/libmesh_core_nrf52832_xxAA.a(scanner.c.obj)
 .text.scanner_rx_callback_set
                0x00000000       0x2c mesh/core/libmesh_core_nrf52832_xxAA.a(scanner.c.obj)
 .text.scanner_disable
                0x00000000       0x48 mesh/core/libmesh_core_nrf52832_xxAA.a(scanner.c.obj)
 .text.scanner_is_enabled
                0x00000000       0x10 mesh/core/libmesh_core_nrf52832_xxAA.a(scanner.c.obj)
 .text.scanner_stats_get
                0x00000000        0x8 mesh/core/libmesh_core_nrf52832_xxAA.a(scanner.c.obj)
 .text.scanner_config_radio_mode_set
                0x00000000       0x10 mesh/core/libmesh_core_nrf52832_xxAA.a(scanner.c.obj)
 .text          0x00000000        0x0 mesh/core/libmesh_core_nrf52832_xxAA.a(internal_event.c.obj)
 .data          0x00000000        0x0 mesh/core/libmesh_core_nrf52832_xxAA.a(internal_event.c.obj)
 .bss           0x00000000        0x0 mesh/core/libmesh_core_nrf52832_xxAA.a(internal_event.c.obj)
 .text.internal_event_init
                0x00000000       0x40 mesh/core/libmesh_core_nrf52832_xxAA.a(internal_event.c.obj)
 .text.internal_event_pop
                0x00000000       0x1c mesh/core/libmesh_core_nrf52832_xxAA.a(internal_event.c.obj)
 .bss.m_internal_event_fifo_buffer
                0x00000000      0x100 mesh/core/libmesh_core_nrf52832_xxAA.a(internal_event.c.obj)
 .text          0x00000000        0x0 mesh/core/libmesh_core_nrf52832_xxAA.a(aes.c.obj)
 .data          0x00000000        0x0 mesh/core/libmesh_core_nrf52832_xxAA.a(aes.c.obj)
 .bss           0x00000000        0x0 mesh/core/libmesh_core_nrf52832_xxAA.a(aes.c.obj)
 .text          0x00000000        0x0 mesh/core/libmesh_core_nrf52832_xxAA.a(msg_cache.c.obj)
 .data          0x00000000        0x0 mesh/core/libmesh_core_nrf52832_xxAA.a(msg_cache.c.obj)
 .bss           0x00000000        0x0 mesh/core/libmesh_core_nrf52832_xxAA.a(msg_cache.c.obj)
 .text.msg_cache_clear
                0x00000000       0x18 mesh/core/libmesh_core_nrf52832_xxAA.a(msg_cache.c.obj)
 .text          0x00000000        0x0 mesh/core/libmesh_core_nrf52832_xxAA.a(transport.c.obj)
 .data          0x00000000        0x0 mesh/core/libmesh_core_nrf52832_xxAA.a(transport.c.obj)
 .bss           0x00000000        0x0 mesh/core/libmesh_core_nrf52832_xxAA.a(transport.c.obj)
 .text.transport_sar_mem_funcs_set
                0x00000000       0x44 mesh/core/libmesh_core_nrf52832_xxAA.a(transport.c.obj)
 .text.transport_opt_set
                0x00000000       0xd0 mesh/core/libmesh_core_nrf52832_xxAA.a(transport.c.obj)
 .text          0x00000000        0x0 mesh/core/libmesh_core_nrf52832_xxAA.a(packet_buffer.c.obj)
 .data          0x00000000        0x0 mesh/core/libmesh_core_nrf52832_xxAA.a(packet_buffer.c.obj)
 .bss           0x00000000        0x0 mesh/core/libmesh_core_nrf52832_xxAA.a(packet_buffer.c.obj)
 .text.packet_buffer_max_packet_len_get
                0x00000000       0x34 mesh/core/libmesh_core_nrf52832_xxAA.a(packet_buffer.c.obj)
 .text          0x00000000        0x0 mesh/core/libmesh_core_nrf52832_xxAA.a(flash_manager_defrag.c.obj)
 .data          0x00000000        0x0 mesh/core/libmesh_core_nrf52832_xxAA.a(flash_manager_defrag.c.obj)
 .bss           0x00000000        0x0 mesh/core/libmesh_core_nrf52832_xxAA.a(flash_manager_defrag.c.obj)
 .text.flash_manager_defragging
                0x00000000       0x44 mesh/core/libmesh_core_nrf52832_xxAA.a(flash_manager_defrag.c.obj)
 .text          0x00000000        0x0 mesh/core/libmesh_core_nrf52832_xxAA.a(packet_mgr.c.obj)
 .data          0x00000000        0x0 mesh/core/libmesh_core_nrf52832_xxAA.a(packet_mgr.c.obj)
 .bss           0x00000000        0x0 mesh/core/libmesh_core_nrf52832_xxAA.a(packet_mgr.c.obj)
 .text.packet_mgr_alloc
                0x00000000      0x19c mesh/core/libmesh_core_nrf52832_xxAA.a(packet_mgr.c.obj)
 .text.packet_mgr_free
                0x00000000       0x6c mesh/core/libmesh_core_nrf52832_xxAA.a(packet_mgr.c.obj)
 .text.packet_mgr_get_free_space
                0x00000000       0x1c mesh/core/libmesh_core_nrf52832_xxAA.a(packet_mgr.c.obj)
 .text.packet_mgr_refcount_get
                0x00000000        0x6 mesh/core/libmesh_core_nrf52832_xxAA.a(packet_mgr.c.obj)
 .text.packet_mgr_size_get
                0x00000000        0x6 mesh/core/libmesh_core_nrf52832_xxAA.a(packet_mgr.c.obj)
 .text          0x00000000        0x0 mesh/core/libmesh_core_nrf52832_xxAA.a(mesh_flash.c.obj)
 .data          0x00000000        0x0 mesh/core/libmesh_core_nrf52832_xxAA.a(mesh_flash.c.obj)
 .bss           0x00000000        0x0 mesh/core/libmesh_core_nrf52832_xxAA.a(mesh_flash.c.obj)
 .text.mesh_flash_op_available_slots
                0x00000000       0x2c mesh/core/libmesh_core_nrf52832_xxAA.a(mesh_flash.c.obj)
 .text.mesh_flash_in_progress
                0x00000000       0x34 mesh/core/libmesh_core_nrf52832_xxAA.a(mesh_flash.c.obj)
 .text.mesh_flash_set_suspended
                0x00000000       0x80 mesh/core/libmesh_core_nrf52832_xxAA.a(mesh_flash.c.obj)
 .bss.suspend_count.10047
                0x00000000        0x4 mesh/core/libmesh_core_nrf52832_xxAA.a(mesh_flash.c.obj)
 .text          0x00000000        0x0 mesh/core/libmesh_core_nrf52832_xxAA.a(queue.c.obj)
 .data          0x00000000        0x0 mesh/core/libmesh_core_nrf52832_xxAA.a(queue.c.obj)
 .bss           0x00000000        0x0 mesh/core/libmesh_core_nrf52832_xxAA.a(queue.c.obj)
 .text          0x00000000        0x0 mesh/core/libmesh_core_nrf52832_xxAA.a(aes_cmac.c.obj)
 .data          0x00000000        0x0 mesh/core/libmesh_core_nrf52832_xxAA.a(aes_cmac.c.obj)
 .bss           0x00000000        0x0 mesh/core/libmesh_core_nrf52832_xxAA.a(aes_cmac.c.obj)
 .text          0x00000000        0x0 mesh/core/libmesh_core_nrf52832_xxAA.a(nrf_mesh_opt.c.obj)
 .data          0x00000000        0x0 mesh/core/libmesh_core_nrf52832_xxAA.a(nrf_mesh_opt.c.obj)
 .bss           0x00000000        0x0 mesh/core/libmesh_core_nrf52832_xxAA.a(nrf_mesh_opt.c.obj)
 .text.nrf_mesh_opt_set
                0x00000000       0x26 mesh/core/libmesh_core_nrf52832_xxAA.a(nrf_mesh_opt.c.obj)
 .text          0x00000000        0x0 mesh/core/libmesh_core_nrf52832_xxAA.a(msqueue.c.obj)
 .data          0x00000000        0x0 mesh/core/libmesh_core_nrf52832_xxAA.a(msqueue.c.obj)
 .bss           0x00000000        0x0 mesh/core/libmesh_core_nrf52832_xxAA.a(msqueue.c.obj)
 .text          0x00000000        0x0 mesh/core/libmesh_core_nrf52832_xxAA.a(replay_cache.c.obj)
 .data          0x00000000        0x0 mesh/core/libmesh_core_nrf52832_xxAA.a(replay_cache.c.obj)
 .bss           0x00000000        0x0 mesh/core/libmesh_core_nrf52832_xxAA.a(replay_cache.c.obj)
 .text.replay_cache_on_iv_update
                0x00000000       0x24 mesh/core/libmesh_core_nrf52832_xxAA.a(replay_cache.c.obj)
 .text          0x00000000        0x0 mesh/core/libmesh_core_nrf52832_xxAA.a(nrf_flash.c.obj)
 .data          0x00000000        0x0 mesh/core/libmesh_core_nrf52832_xxAA.a(nrf_flash.c.obj)
 .bss           0x00000000        0x0 mesh/core/libmesh_core_nrf52832_xxAA.a(nrf_flash.c.obj)
 .text          0x00000000        0x0 external/rtt/librtt_nrf52832_xxAA.a(SEGGER_RTT.c.obj)
 .data          0x00000000        0x0 external/rtt/librtt_nrf52832_xxAA.a(SEGGER_RTT.c.obj)
 .bss           0x00000000        0x0 external/rtt/librtt_nrf52832_xxAA.a(SEGGER_RTT.c.obj)
 .text._PostTerminalSwitch.constprop.0
                0x00000000       0x28 external/rtt/librtt_nrf52832_xxAA.a(SEGGER_RTT.c.obj)
 .text.SEGGER_RTT_WriteSkipNoLock
                0x00000000       0xb4 external/rtt/librtt_nrf52832_xxAA.a(SEGGER_RTT.c.obj)
 .text.SEGGER_RTT_WriteString
                0x00000000       0x1a external/rtt/librtt_nrf52832_xxAA.a(SEGGER_RTT.c.obj)
 .text.SEGGER_RTT_WaitKey
                0x00000000        0xc external/rtt/librtt_nrf52832_xxAA.a(SEGGER_RTT.c.obj)
 .text.SEGGER_RTT_HasKey
                0x00000000       0x1c external/rtt/librtt_nrf52832_xxAA.a(SEGGER_RTT.c.obj)
 .text.SEGGER_RTT_HasData
                0x00000000       0x14 external/rtt/librtt_nrf52832_xxAA.a(SEGGER_RTT.c.obj)
 .text.SEGGER_RTT_AllocDownBuffer
                0x00000000       0x68 external/rtt/librtt_nrf52832_xxAA.a(SEGGER_RTT.c.obj)
 .text.SEGGER_RTT_AllocUpBuffer
                0x00000000       0x70 external/rtt/librtt_nrf52832_xxAA.a(SEGGER_RTT.c.obj)
 .text.SEGGER_RTT_ConfigUpBuffer
                0x00000000       0x68 external/rtt/librtt_nrf52832_xxAA.a(SEGGER_RTT.c.obj)
 .text.SEGGER_RTT_ConfigDownBuffer
                0x00000000       0x60 external/rtt/librtt_nrf52832_xxAA.a(SEGGER_RTT.c.obj)
 .text.SEGGER_RTT_SetNameUpBuffer
                0x00000000       0x3c external/rtt/librtt_nrf52832_xxAA.a(SEGGER_RTT.c.obj)
 .text.SEGGER_RTT_SetNameDownBuffer
                0x00000000       0x3c external/rtt/librtt_nrf52832_xxAA.a(SEGGER_RTT.c.obj)
 .text.SEGGER_RTT_Init
                0x00000000       0x10 external/rtt/librtt_nrf52832_xxAA.a(SEGGER_RTT.c.obj)
 .text.SEGGER_RTT_SetTerminal
                0x00000000       0x84 external/rtt/librtt_nrf52832_xxAA.a(SEGGER_RTT.c.obj)
 .text.SEGGER_RTT_TerminalOut
                0x00000000       0xa0 external/rtt/librtt_nrf52832_xxAA.a(SEGGER_RTT.c.obj)
 .bss._ActiveTerminal
                0x00000000        0x1 external/rtt/librtt_nrf52832_xxAA.a(SEGGER_RTT.c.obj)
 .rodata._aTerminalId
                0x00000000       0x10 external/rtt/librtt_nrf52832_xxAA.a(SEGGER_RTT.c.obj)
 .text          0x00000000        0x0 external/rtt/librtt_nrf52832_xxAA.a(SEGGER_RTT_printf.c.obj)
 .data          0x00000000        0x0 external/rtt/librtt_nrf52832_xxAA.a(SEGGER_RTT_printf.c.obj)
 .bss           0x00000000        0x0 external/rtt/librtt_nrf52832_xxAA.a(SEGGER_RTT_printf.c.obj)
 .text          0x00000000        0x0 external/micro-ecc/libuECC_nrf52832_xxAA.a(uECC.c.obj)
 .data          0x00000000        0x0 external/micro-ecc/libuECC_nrf52832_xxAA.a(uECC.c.obj)
 .bss           0x00000000        0x0 external/micro-ecc/libuECC_nrf52832_xxAA.a(uECC.c.obj)
 .text.uECC_vli_modMult
                0x00000000      0x148 external/micro-ecc/libuECC_nrf52832_xxAA.a(uECC.c.obj)
 .text.HMAC_init
                0x00000000       0x46 external/micro-ecc/libuECC_nrf52832_xxAA.a(uECC.c.obj)
 .text.HMAC_update
                0x00000000        0x4 external/micro-ecc/libuECC_nrf52832_xxAA.a(uECC.c.obj)
 .text.HMAC_finish
                0x00000000       0x62 external/micro-ecc/libuECC_nrf52832_xxAA.a(uECC.c.obj)
 .text.update_V
                0x00000000       0x24 external/micro-ecc/libuECC_nrf52832_xxAA.a(uECC.c.obj)
 .text.bits2int
                0x00000000       0x88 external/micro-ecc/libuECC_nrf52832_xxAA.a(uECC.c.obj)
 .text.uECC_sign_with_k
                0x00000000      0x17c external/micro-ecc/libuECC_nrf52832_xxAA.a(uECC.c.obj)
 .text.uECC_set_rng
                0x00000000        0xc external/micro-ecc/libuECC_nrf52832_xxAA.a(uECC.c.obj)
 .text.uECC_get_rng
                0x00000000        0xc external/micro-ecc/libuECC_nrf52832_xxAA.a(uECC.c.obj)
 .text.uECC_curve_private_key_size
                0x00000000        0xe external/micro-ecc/libuECC_nrf52832_xxAA.a(uECC.c.obj)
 .text.uECC_curve_public_key_size
                0x00000000        0x8 external/micro-ecc/libuECC_nrf52832_xxAA.a(uECC.c.obj)
 .text.uECC_compute_public_key
                0x00000000       0x7e external/micro-ecc/libuECC_nrf52832_xxAA.a(uECC.c.obj)
 .text.uECC_sign
                0x00000000       0x56 external/micro-ecc/libuECC_nrf52832_xxAA.a(uECC.c.obj)
 .text.uECC_sign_deterministic
                0x00000000      0x192 external/micro-ecc/libuECC_nrf52832_xxAA.a(uECC.c.obj)
 .text.uECC_verify
                0x00000000      0x2f0 external/micro-ecc/libuECC_nrf52832_xxAA.a(uECC.c.obj)
 .data          0x00000000        0x0 c:/a/gcc_arm/6/bin/../lib/gcc/arm-none-eabi/6.3.1/thumb/v7e-m/fpv4-sp/hard\libgcc.a(_aeabi_uldivmod.o)
 .bss           0x00000000        0x0 c:/a/gcc_arm/6/bin/../lib/gcc/arm-none-eabi/6.3.1/thumb/v7e-m/fpv4-sp/hard\libgcc.a(_aeabi_uldivmod.o)
 .data          0x00000000        0x0 c:/a/gcc_arm/6/bin/../lib/gcc/arm-none-eabi/6.3.1/thumb/v7e-m/fpv4-sp/hard\libgcc.a(_udivmoddi4.o)
 .bss           0x00000000        0x0 c:/a/gcc_arm/6/bin/../lib/gcc/arm-none-eabi/6.3.1/thumb/v7e-m/fpv4-sp/hard\libgcc.a(_udivmoddi4.o)
 .ARM.extab     0x00000000        0x0 c:/a/gcc_arm/6/bin/../lib/gcc/arm-none-eabi/6.3.1/thumb/v7e-m/fpv4-sp/hard\libgcc.a(_udivmoddi4.o)
 .data          0x00000000        0x0 c:/a/gcc_arm/6/bin/../lib/gcc/arm-none-eabi/6.3.1/thumb/v7e-m/fpv4-sp/hard\libgcc.a(_dvmd_tls.o)
 .bss           0x00000000        0x0 c:/a/gcc_arm/6/bin/../lib/gcc/arm-none-eabi/6.3.1/thumb/v7e-m/fpv4-sp/hard\libgcc.a(_dvmd_tls.o)
 .text          0x00000000        0x0 c:/a/gcc_arm/6/bin/../lib/gcc/arm-none-eabi/6.3.1/../../../../arm-none-eabi/lib/thumb/v7e-m/fpv4-sp/hard\libg_nano.a(lib_a-exit.o)
 .data          0x00000000        0x0 c:/a/gcc_arm/6/bin/../lib/gcc/arm-none-eabi/6.3.1/../../../../arm-none-eabi/lib/thumb/v7e-m/fpv4-sp/hard\libg_nano.a(lib_a-exit.o)
 .bss           0x00000000        0x0 c:/a/gcc_arm/6/bin/../lib/gcc/arm-none-eabi/6.3.1/../../../../arm-none-eabi/lib/thumb/v7e-m/fpv4-sp/hard\libg_nano.a(lib_a-exit.o)
 .text          0x00000000        0x0 c:/a/gcc_arm/6/bin/../lib/gcc/arm-none-eabi/6.3.1/../../../../arm-none-eabi/lib/thumb/v7e-m/fpv4-sp/hard\libg_nano.a(lib_a-impure.o)
 .data          0x00000000        0x0 c:/a/gcc_arm/6/bin/../lib/gcc/arm-none-eabi/6.3.1/../../../../arm-none-eabi/lib/thumb/v7e-m/fpv4-sp/hard\libg_nano.a(lib_a-impure.o)
 .bss           0x00000000        0x0 c:/a/gcc_arm/6/bin/../lib/gcc/arm-none-eabi/6.3.1/../../../../arm-none-eabi/lib/thumb/v7e-m/fpv4-sp/hard\libg_nano.a(lib_a-impure.o)
 .text          0x00000000        0x0 c:/a/gcc_arm/6/bin/../lib/gcc/arm-none-eabi/6.3.1/../../../../arm-none-eabi/lib/thumb/v7e-m/fpv4-sp/hard\libg_nano.a(lib_a-init.o)
 .data          0x00000000        0x0 c:/a/gcc_arm/6/bin/../lib/gcc/arm-none-eabi/6.3.1/../../../../arm-none-eabi/lib/thumb/v7e-m/fpv4-sp/hard\libg_nano.a(lib_a-init.o)
 .bss           0x00000000        0x0 c:/a/gcc_arm/6/bin/../lib/gcc/arm-none-eabi/6.3.1/../../../../arm-none-eabi/lib/thumb/v7e-m/fpv4-sp/hard\libg_nano.a(lib_a-init.o)
 .text          0x00000000        0x0 c:/a/gcc_arm/6/bin/../lib/gcc/arm-none-eabi/6.3.1/../../../../arm-none-eabi/lib/thumb/v7e-m/fpv4-sp/hard\libg_nano.a(lib_a-malloc.o)
 .data          0x00000000        0x0 c:/a/gcc_arm/6/bin/../lib/gcc/arm-none-eabi/6.3.1/../../../../arm-none-eabi/lib/thumb/v7e-m/fpv4-sp/hard\libg_nano.a(lib_a-malloc.o)
 .bss           0x00000000        0x0 c:/a/gcc_arm/6/bin/../lib/gcc/arm-none-eabi/6.3.1/../../../../arm-none-eabi/lib/thumb/v7e-m/fpv4-sp/hard\libg_nano.a(lib_a-malloc.o)
 .text          0x00000000        0x0 c:/a/gcc_arm/6/bin/../lib/gcc/arm-none-eabi/6.3.1/../../../../arm-none-eabi/lib/thumb/v7e-m/fpv4-sp/hard\libg_nano.a(lib_a-memcmp.o)
 .data          0x00000000        0x0 c:/a/gcc_arm/6/bin/../lib/gcc/arm-none-eabi/6.3.1/../../../../arm-none-eabi/lib/thumb/v7e-m/fpv4-sp/hard\libg_nano.a(lib_a-memcmp.o)
 .bss           0x00000000        0x0 c:/a/gcc_arm/6/bin/../lib/gcc/arm-none-eabi/6.3.1/../../../../arm-none-eabi/lib/thumb/v7e-m/fpv4-sp/hard\libg_nano.a(lib_a-memcmp.o)
 .text          0x00000000        0x0 c:/a/gcc_arm/6/bin/../lib/gcc/arm-none-eabi/6.3.1/../../../../arm-none-eabi/lib/thumb/v7e-m/fpv4-sp/hard\libg_nano.a(lib_a-memcpy-stub.o)
 .data          0x00000000        0x0 c:/a/gcc_arm/6/bin/../lib/gcc/arm-none-eabi/6.3.1/../../../../arm-none-eabi/lib/thumb/v7e-m/fpv4-sp/hard\libg_nano.a(lib_a-memcpy-stub.o)
 .bss           0x00000000        0x0 c:/a/gcc_arm/6/bin/../lib/gcc/arm-none-eabi/6.3.1/../../../../arm-none-eabi/lib/thumb/v7e-m/fpv4-sp/hard\libg_nano.a(lib_a-memcpy-stub.o)
 .text          0x00000000        0x0 c:/a/gcc_arm/6/bin/../lib/gcc/arm-none-eabi/6.3.1/../../../../arm-none-eabi/lib/thumb/v7e-m/fpv4-sp/hard\libg_nano.a(lib_a-memset.o)
 .data          0x00000000        0x0 c:/a/gcc_arm/6/bin/../lib/gcc/arm-none-eabi/6.3.1/../../../../arm-none-eabi/lib/thumb/v7e-m/fpv4-sp/hard\libg_nano.a(lib_a-memset.o)
 .bss           0x00000000        0x0 c:/a/gcc_arm/6/bin/../lib/gcc/arm-none-eabi/6.3.1/../../../../arm-none-eabi/lib/thumb/v7e-m/fpv4-sp/hard\libg_nano.a(lib_a-memset.o)
 .text          0x00000000        0x0 c:/a/gcc_arm/6/bin/../lib/gcc/arm-none-eabi/6.3.1/../../../../arm-none-eabi/lib/thumb/v7e-m/fpv4-sp/hard\libg_nano.a(lib_a-nano-freer.o)
 .data          0x00000000        0x0 c:/a/gcc_arm/6/bin/../lib/gcc/arm-none-eabi/6.3.1/../../../../arm-none-eabi/lib/thumb/v7e-m/fpv4-sp/hard\libg_nano.a(lib_a-nano-freer.o)
 .bss           0x00000000        0x0 c:/a/gcc_arm/6/bin/../lib/gcc/arm-none-eabi/6.3.1/../../../../arm-none-eabi/lib/thumb/v7e-m/fpv4-sp/hard\libg_nano.a(lib_a-nano-freer.o)
 .text          0x00000000        0x0 c:/a/gcc_arm/6/bin/../lib/gcc/arm-none-eabi/6.3.1/../../../../arm-none-eabi/lib/thumb/v7e-m/fpv4-sp/hard\libg_nano.a(lib_a-nano-mallocr.o)
 .data          0x00000000        0x0 c:/a/gcc_arm/6/bin/../lib/gcc/arm-none-eabi/6.3.1/../../../../arm-none-eabi/lib/thumb/v7e-m/fpv4-sp/hard\libg_nano.a(lib_a-nano-mallocr.o)
 .bss           0x00000000        0x0 c:/a/gcc_arm/6/bin/../lib/gcc/arm-none-eabi/6.3.1/../../../../arm-none-eabi/lib/thumb/v7e-m/fpv4-sp/hard\libg_nano.a(lib_a-nano-mallocr.o)
 .text          0x00000000        0x0 c:/a/gcc_arm/6/bin/../lib/gcc/arm-none-eabi/6.3.1/../../../../arm-none-eabi/lib/thumb/v7e-m/fpv4-sp/hard\libg_nano.a(lib_a-sbrkr.o)
 .data          0x00000000        0x0 c:/a/gcc_arm/6/bin/../lib/gcc/arm-none-eabi/6.3.1/../../../../arm-none-eabi/lib/thumb/v7e-m/fpv4-sp/hard\libg_nano.a(lib_a-sbrkr.o)
 .bss           0x00000000        0x0 c:/a/gcc_arm/6/bin/../lib/gcc/arm-none-eabi/6.3.1/../../../../arm-none-eabi/lib/thumb/v7e-m/fpv4-sp/hard\libg_nano.a(lib_a-sbrkr.o)
 .text          0x00000000        0x0 c:/a/gcc_arm/6/bin/../lib/gcc/arm-none-eabi/6.3.1/../../../../arm-none-eabi/lib/thumb/v7e-m/fpv4-sp/hard\libg_nano.a(lib_a-strcpy.o)
 .data          0x00000000        0x0 c:/a/gcc_arm/6/bin/../lib/gcc/arm-none-eabi/6.3.1/../../../../arm-none-eabi/lib/thumb/v7e-m/fpv4-sp/hard\libg_nano.a(lib_a-strcpy.o)
 .bss           0x00000000        0x0 c:/a/gcc_arm/6/bin/../lib/gcc/arm-none-eabi/6.3.1/../../../../arm-none-eabi/lib/thumb/v7e-m/fpv4-sp/hard\libg_nano.a(lib_a-strcpy.o)
 .data          0x00000000        0x0 c:/a/gcc_arm/6/bin/../lib/gcc/arm-none-eabi/6.3.1/../../../../arm-none-eabi/lib/thumb/v7e-m/fpv4-sp/hard\libg_nano.a(lib_a-strlen.o)
 .bss           0x00000000        0x0 c:/a/gcc_arm/6/bin/../lib/gcc/arm-none-eabi/6.3.1/../../../../arm-none-eabi/lib/thumb/v7e-m/fpv4-sp/hard\libg_nano.a(lib_a-strlen.o)
 .text          0x00000000        0x0 c:/a/gcc_arm/6/bin/../lib/gcc/arm-none-eabi/6.3.1/../../../../arm-none-eabi/lib/thumb/v7e-m/fpv4-sp/hard\libg_nano.a(lib_a-strrchr.o)
 .data          0x00000000        0x0 c:/a/gcc_arm/6/bin/../lib/gcc/arm-none-eabi/6.3.1/../../../../arm-none-eabi/lib/thumb/v7e-m/fpv4-sp/hard\libg_nano.a(lib_a-strrchr.o)
 .bss           0x00000000        0x0 c:/a/gcc_arm/6/bin/../lib/gcc/arm-none-eabi/6.3.1/../../../../arm-none-eabi/lib/thumb/v7e-m/fpv4-sp/hard\libg_nano.a(lib_a-strrchr.o)
 .text          0x00000000        0x0 c:/a/gcc_arm/6/bin/../lib/gcc/arm-none-eabi/6.3.1/../../../../arm-none-eabi/lib/thumb/v7e-m/fpv4-sp/hard\libg_nano.a(lib_a-mlock.o)
 .data          0x00000000        0x0 c:/a/gcc_arm/6/bin/../lib/gcc/arm-none-eabi/6.3.1/../../../../arm-none-eabi/lib/thumb/v7e-m/fpv4-sp/hard\libg_nano.a(lib_a-mlock.o)
 .bss           0x00000000        0x0 c:/a/gcc_arm/6/bin/../lib/gcc/arm-none-eabi/6.3.1/../../../../arm-none-eabi/lib/thumb/v7e-m/fpv4-sp/hard\libg_nano.a(lib_a-mlock.o)
 .text          0x00000000        0x0 c:/a/gcc_arm/6/bin/../lib/gcc/arm-none-eabi/6.3.1/../../../../arm-none-eabi/lib/thumb/v7e-m/fpv4-sp/hard\libg_nano.a(lib_a-reent.o)
 .data          0x00000000        0x0 c:/a/gcc_arm/6/bin/../lib/gcc/arm-none-eabi/6.3.1/../../../../arm-none-eabi/lib/thumb/v7e-m/fpv4-sp/hard\libg_nano.a(lib_a-reent.o)
 .bss           0x00000000        0x0 c:/a/gcc_arm/6/bin/../lib/gcc/arm-none-eabi/6.3.1/../../../../arm-none-eabi/lib/thumb/v7e-m/fpv4-sp/hard\libg_nano.a(lib_a-reent.o)
 .text.cleanup_glue
                0x00000000       0x1a c:/a/gcc_arm/6/bin/../lib/gcc/arm-none-eabi/6.3.1/../../../../arm-none-eabi/lib/thumb/v7e-m/fpv4-sp/hard\libg_nano.a(lib_a-reent.o)
 .text._reclaim_reent
                0x00000000       0xb8 c:/a/gcc_arm/6/bin/../lib/gcc/arm-none-eabi/6.3.1/../../../../arm-none-eabi/lib/thumb/v7e-m/fpv4-sp/hard\libg_nano.a(lib_a-reent.o)
 .text          0x00000000        0x0 c:/a/gcc_arm/6/bin/../lib/gcc/arm-none-eabi/6.3.1/../../../../arm-none-eabi/lib/thumb/v7e-m/fpv4-sp/hard\libg_nano.a(lib_a-strchr.o)
 .data          0x00000000        0x0 c:/a/gcc_arm/6/bin/../lib/gcc/arm-none-eabi/6.3.1/../../../../arm-none-eabi/lib/thumb/v7e-m/fpv4-sp/hard\libg_nano.a(lib_a-strchr.o)
 .bss           0x00000000        0x0 c:/a/gcc_arm/6/bin/../lib/gcc/arm-none-eabi/6.3.1/../../../../arm-none-eabi/lib/thumb/v7e-m/fpv4-sp/hard\libg_nano.a(lib_a-strchr.o)
 .text          0x00000000        0x0 c:/a/gcc_arm/6/bin/../lib/gcc/arm-none-eabi/6.3.1/thumb/v7e-m/fpv4-sp/hard/crtend.o
 .data          0x00000000        0x0 c:/a/gcc_arm/6/bin/../lib/gcc/arm-none-eabi/6.3.1/thumb/v7e-m/fpv4-sp/hard/crtend.o
 .bss           0x00000000        0x0 c:/a/gcc_arm/6/bin/../lib/gcc/arm-none-eabi/6.3.1/thumb/v7e-m/fpv4-sp/hard/crtend.o
 .text          0x00000000        0x0 c:/a/gcc_arm/6/bin/../lib/gcc/arm-none-eabi/6.3.1/thumb/v7e-m/fpv4-sp/hard/crtn.o
 .data          0x00000000        0x0 c:/a/gcc_arm/6/bin/../lib/gcc/arm-none-eabi/6.3.1/thumb/v7e-m/fpv4-sp/hard/crtn.o
 .bss           0x00000000        0x0 c:/a/gcc_arm/6/bin/../lib/gcc/arm-none-eabi/6.3.1/thumb/v7e-m/fpv4-sp/hard/crtn.o
 .text          0x00000000        0x0 c:/a/gcc_arm/6/bin/../lib/gcc/arm-none-eabi/6.3.1/../../../../arm-none-eabi/lib/thumb/v7e-m/fpv4-sp/hard\libnosys.a(sbrk.o)
 .data          0x00000000        0x0 c:/a/gcc_arm/6/bin/../lib/gcc/arm-none-eabi/6.3.1/../../../../arm-none-eabi/lib/thumb/v7e-m/fpv4-sp/hard\libnosys.a(sbrk.o)
 .bss           0x00000000        0x0 c:/a/gcc_arm/6/bin/../lib/gcc/arm-none-eabi/6.3.1/../../../../arm-none-eabi/lib/thumb/v7e-m/fpv4-sp/hard\libnosys.a(sbrk.o)
 .text          0x00000000        0x0 c:/a/gcc_arm/6/bin/../lib/gcc/arm-none-eabi/6.3.1/../../../../arm-none-eabi/lib/thumb/v7e-m/fpv4-sp/hard\libnosys.a(_exit.o)
 .data          0x00000000        0x0 c:/a/gcc_arm/6/bin/../lib/gcc/arm-none-eabi/6.3.1/../../../../arm-none-eabi/lib/thumb/v7e-m/fpv4-sp/hard\libnosys.a(_exit.o)
 .bss           0x00000000        0x0 c:/a/gcc_arm/6/bin/../lib/gcc/arm-none-eabi/6.3.1/../../../../arm-none-eabi/lib/thumb/v7e-m/fpv4-sp/hard\libnosys.a(_exit.o)

Memory Configuration

Name             Origin             Length             Attributes
FLASH            0x00023000         0x00055000         xr
RAM              0x200031b0         0x0000cb50         xrw
*default*        0x00000000         0xffffffff

Linker script and memory map


.text           0x00023000    0x11afc
 *(.isr_vector)
 .isr_vector    0x00023000      0x200 examples/pb_remote/client/CMakeFiles/pb_remote_client_nrf52832_xxAA_s132_5.0.0.dir/__/__/__/external/nRF5_SDK_14.2.0_17b948a/components/toolchain/gcc/gcc_startup_nrf52.S.obj
                0x00023000                __isr_vector
 *(.text*)
 .text          0x00023200       0x6c c:/a/gcc_arm/6/bin/../lib/gcc/arm-none-eabi/6.3.1/thumb/v7e-m/fpv4-sp/hard/crtbegin.o
 .text          0x0002326c       0x74 c:/a/gcc_arm/6/bin/../lib/gcc/arm-none-eabi/6.3.1/../../../../arm-none-eabi/lib/thumb/v7e-m/fpv4-sp/hard/crt0.o
                0x0002326c                _start
                0x0002326c                _mainCRTStartup
 .text.sd_app_evt_wait
                0x000232e0        0x4 examples/pb_remote/client/CMakeFiles/pb_remote_client_nrf52832_xxAA_s132_5.0.0.dir/src/main.c.obj
 .text.start_provisioning
                0x000232e4       0xa8 examples/pb_remote/client/CMakeFiles/pb_remote_client_nrf52832_xxAA_s132_5.0.0.dir/src/main.c.obj
 .text.user_input_handler
                0x0002338c      0x314 examples/pb_remote/client/CMakeFiles/pb_remote_client_nrf52832_xxAA_s132_5.0.0.dir/src/main.c.obj
 .text.remote_client_event_cb
                0x000236a0      0x20c examples/pb_remote/client/CMakeFiles/pb_remote_client_nrf52832_xxAA_s132_5.0.0.dir/src/main.c.obj
 .text.prov_evt_handler
                0x000238ac      0x2d4 examples/pb_remote/client/CMakeFiles/pb_remote_client_nrf52832_xxAA_s132_5.0.0.dir/src/main.c.obj
 .text.startup.main
                0x00023b80      0x250 examples/pb_remote/client/CMakeFiles/pb_remote_client_nrf52832_xxAA_s132_5.0.0.dir/src/main.c.obj
                0x00023b80                main
 .text.sd_evt_get
                0x00023dd0        0x4 examples/pb_remote/client/CMakeFiles/pb_remote_client_nrf52832_xxAA_s132_5.0.0.dir/__/__/nrf_mesh_sdk.c.obj
 .text.sd_softdevice_enable
                0x00023dd4        0x4 examples/pb_remote/client/CMakeFiles/pb_remote_client_nrf52832_xxAA_s132_5.0.0.dir/__/__/nrf_mesh_sdk.c.obj
 .text.sd_ble_enable
                0x00023dd8        0x4 examples/pb_remote/client/CMakeFiles/pb_remote_client_nrf52832_xxAA_s132_5.0.0.dir/__/__/nrf_mesh_sdk.c.obj
 .text.sd_ble_evt_get
                0x00023ddc        0x4 examples/pb_remote/client/CMakeFiles/pb_remote_client_nrf52832_xxAA_s132_5.0.0.dir/__/__/nrf_mesh_sdk.c.obj
 .text.sleep_forever
                0x00023de0       0x1c examples/pb_remote/client/CMakeFiles/pb_remote_client_nrf52832_xxAA_s132_5.0.0.dir/__/__/nrf_mesh_sdk.c.obj
 .text.mesh_assert_handler
                0x00023dfc       0x70 examples/pb_remote/client/CMakeFiles/pb_remote_client_nrf52832_xxAA_s132_5.0.0.dir/__/__/nrf_mesh_sdk.c.obj
                0x00023dfc                mesh_assert_handler
 .text.softdevice_assert_handler
                0x00023e6c       0x78 examples/pb_remote/client/CMakeFiles/pb_remote_client_nrf52832_xxAA_s132_5.0.0.dir/__/__/nrf_mesh_sdk.c.obj
                0x00023e6c                softdevice_assert_handler
 .text.app_error_handler
                0x00023ee4       0x78 examples/pb_remote/client/CMakeFiles/pb_remote_client_nrf52832_xxAA_s132_5.0.0.dir/__/__/nrf_mesh_sdk.c.obj
                0x00023ee4                app_error_handler
 .text.HardFault_Handler
                0x00023f5c       0x6c examples/pb_remote/client/CMakeFiles/pb_remote_client_nrf52832_xxAA_s132_5.0.0.dir/__/__/nrf_mesh_sdk.c.obj
                0x00023f5c                HardFault_Handler
 .text.SWI2_EGU2_IRQHandler
                0x00023fc8       0x3c examples/pb_remote/client/CMakeFiles/pb_remote_client_nrf52832_xxAA_s132_5.0.0.dir/__/__/nrf_mesh_sdk.c.obj
                0x00023fc8                SWI2_EGU2_IRQHandler
 .text.mesh_softdevice_enable
                0x00024004      0x124 examples/pb_remote/client/CMakeFiles/pb_remote_client_nrf52832_xxAA_s132_5.0.0.dir/__/__/nrf_mesh_sdk.c.obj
                0x00024004                mesh_softdevice_enable
 .text.mesh_softdevice_setup
                0x00024128       0x7c examples/pb_remote/client/CMakeFiles/pb_remote_client_nrf52832_xxAA_s132_5.0.0.dir/__/__/nrf_mesh_sdk.c.obj
                0x00024128                mesh_softdevice_setup
 .text.mesh_core_setup
                0x000241a4      0x15c examples/pb_remote/client/CMakeFiles/pb_remote_client_nrf52832_xxAA_s132_5.0.0.dir/__/__/nrf_mesh_sdk.c.obj
                0x000241a4                mesh_core_setup
 .text.TIMER2_IRQHandler
                0x00024300       0x30 examples/pb_remote/client/CMakeFiles/pb_remote_client_nrf52832_xxAA_s132_5.0.0.dir/__/__/common/src/rtt_input.c.obj
                0x00024300                TIMER2_IRQHandler
 .text.rtt_input_enable
                0x00024330       0x5c examples/pb_remote/client/CMakeFiles/pb_remote_client_nrf52832_xxAA_s132_5.0.0.dir/__/__/common/src/rtt_input.c.obj
                0x00024330                rtt_input_enable
 .text.pb_remote_client_event_unprov_number_cb
                0x0002438c       0x6c examples/pb_remote/client/CMakeFiles/pb_remote_client_nrf52832_xxAA_s132_5.0.0.dir/__/__/__/models/pb_remote/src/pb_remote_client.c.obj
 .text.status_event_push.isra.0
                0x000243f8       0x1a examples/pb_remote/client/CMakeFiles/pb_remote_client_nrf52832_xxAA_s132_5.0.0.dir/__/__/__/models/pb_remote/src/pb_remote_client.c.obj
 *fill*         0x00024412        0x2 
 .text.pb_remote_client_event_transfer_status_cb
                0x00024414       0x9c examples/pb_remote/client/CMakeFiles/pb_remote_client_nrf52832_xxAA_s132_5.0.0.dir/__/__/__/models/pb_remote/src/pb_remote_client.c.obj
 .text.pb_remote_client_event_link_status_cb
                0x000244b0      0x210 examples/pb_remote/client/CMakeFiles/pb_remote_client_nrf52832_xxAA_s132_5.0.0.dir/__/__/__/models/pb_remote/src/pb_remote_client.c.obj
 .text.pb_remote_client_event_scan_status_cb
                0x000246c0      0x138 examples/pb_remote/client/CMakeFiles/pb_remote_client_nrf52832_xxAA_s132_5.0.0.dir/__/__/__/models/pb_remote/src/pb_remote_client.c.obj
 .text.pb_remote_client_event_tx_failed_cb
                0x000247f8       0x44 examples/pb_remote/client/CMakeFiles/pb_remote_client_nrf52832_xxAA_s132_5.0.0.dir/__/__/__/models/pb_remote/src/pb_remote_client.c.obj
 .text.send_reply.isra.8.part.9
                0x0002483c       0x14 examples/pb_remote/client/CMakeFiles/pb_remote_client_nrf52832_xxAA_s132_5.0.0.dir/__/__/__/models/pb_remote/src/pb_remote_client.c.obj
 .text.send_reliable_msg
                0x00024850       0x2c examples/pb_remote/client/CMakeFiles/pb_remote_client_nrf52832_xxAA_s132_5.0.0.dir/__/__/__/models/pb_remote/src/pb_remote_client.c.obj
 .text.pb_remote_client_event_local_packet_cb
                0x0002487c       0xac examples/pb_remote/client/CMakeFiles/pb_remote_client_nrf52832_xxAA_s132_5.0.0.dir/__/__/__/models/pb_remote/src/pb_remote_client.c.obj
 .text.pb_remote_client_event_prov_start_cb
                0x00024928       0x44 examples/pb_remote/client/CMakeFiles/pb_remote_client_nrf52832_xxAA_s132_5.0.0.dir/__/__/__/models/pb_remote/src/pb_remote_client.c.obj
 .text.pb_remote_client_event_link_close_cb
                0x0002496c       0x90 examples/pb_remote/client/CMakeFiles/pb_remote_client_nrf52832_xxAA_s132_5.0.0.dir/__/__/__/models/pb_remote/src/pb_remote_client.c.obj
 .text.pb_remote_client_event_scan_cancel_cb
                0x000249fc       0x84 examples/pb_remote/client/CMakeFiles/pb_remote_client_nrf52832_xxAA_s132_5.0.0.dir/__/__/__/models/pb_remote/src/pb_remote_client.c.obj
 .text.pb_remote_client_event_scan_start_cb
                0x00024a80       0x84 examples/pb_remote/client/CMakeFiles/pb_remote_client_nrf52832_xxAA_s132_5.0.0.dir/__/__/__/models/pb_remote/src/pb_remote_client.c.obj
 .text.send_reply.isra.8
                0x00024b04       0x16 examples/pb_remote/client/CMakeFiles/pb_remote_client_nrf52832_xxAA_s132_5.0.0.dir/__/__/__/models/pb_remote/src/pb_remote_client.c.obj
 *fill*         0x00024b1a        0x2 
 .text.pb_remote_client_event_transfer_status_report_cb
                0x00024b1c      0x13c examples/pb_remote/client/CMakeFiles/pb_remote_client_nrf52832_xxAA_s132_5.0.0.dir/__/__/__/models/pb_remote/src/pb_remote_client.c.obj
 .text.pb_remote_client_event_packet_transfer_cb
                0x00024c58       0xd8 examples/pb_remote/client/CMakeFiles/pb_remote_client_nrf52832_xxAA_s132_5.0.0.dir/__/__/__/models/pb_remote/src/pb_remote_client.c.obj
 .text.pb_remote_client_event_link_status_report_cb
                0x00024d30      0x17c examples/pb_remote/client/CMakeFiles/pb_remote_client_nrf52832_xxAA_s132_5.0.0.dir/__/__/__/models/pb_remote/src/pb_remote_client.c.obj
 .text.pb_remote_client_event_unprov_uuid_cb
                0x00024eac       0xd4 examples/pb_remote/client/CMakeFiles/pb_remote_client_nrf52832_xxAA_s132_5.0.0.dir/__/__/__/models/pb_remote/src/pb_remote_client.c.obj
 .text.pb_remote_client_process
                0x00024f80      0x10c examples/pb_remote/client/CMakeFiles/pb_remote_client_nrf52832_xxAA_s132_5.0.0.dir/__/__/__/models/pb_remote/src/pb_remote_client.c.obj
 .text.client_reliable_status_cb
                0x0002508c      0x11c examples/pb_remote/client/CMakeFiles/pb_remote_client_nrf52832_xxAA_s132_5.0.0.dir/__/__/__/models/pb_remote/src/pb_remote_client.c.obj
 .text.pb_if_link_close_cb
                0x000251a8       0x48 examples/pb_remote/client/CMakeFiles/pb_remote_client_nrf52832_xxAA_s132_5.0.0.dir/__/__/__/models/pb_remote/src/pb_remote_client.c.obj
 .text.pb_if_link_open_cb
                0x000251f0       0x58 examples/pb_remote/client/CMakeFiles/pb_remote_client_nrf52832_xxAA_s132_5.0.0.dir/__/__/__/models/pb_remote/src/pb_remote_client.c.obj
 .text.pb_if_tx_cb
                0x00025248       0x40 examples/pb_remote/client/CMakeFiles/pb_remote_client_nrf52832_xxAA_s132_5.0.0.dir/__/__/__/models/pb_remote/src/pb_remote_client.c.obj
 .text.remote_client_access_rx_cb
                0x00025288      0x170 examples/pb_remote/client/CMakeFiles/pb_remote_client_nrf52832_xxAA_s132_5.0.0.dir/__/__/__/models/pb_remote/src/pb_remote_client.c.obj
 .text.pb_remote_client_init
                0x000253f8       0x8c examples/pb_remote/client/CMakeFiles/pb_remote_client_nrf52832_xxAA_s132_5.0.0.dir/__/__/__/models/pb_remote/src/pb_remote_client.c.obj
                0x000253f8                pb_remote_client_init
 .text.pb_remote_client_remote_scan_start
                0x00025484       0x44 examples/pb_remote/client/CMakeFiles/pb_remote_client_nrf52832_xxAA_s132_5.0.0.dir/__/__/__/models/pb_remote/src/pb_remote_client.c.obj
                0x00025484                pb_remote_client_remote_scan_start
 .text.pb_remote_client_remote_scan_cancel
                0x000254c8       0x44 examples/pb_remote/client/CMakeFiles/pb_remote_client_nrf52832_xxAA_s132_5.0.0.dir/__/__/__/models/pb_remote/src/pb_remote_client.c.obj
                0x000254c8                pb_remote_client_remote_scan_cancel
 .text.pb_remote_client_bearer_interface_get
                0x0002550c       0x28 examples/pb_remote/client/CMakeFiles/pb_remote_client_nrf52832_xxAA_s132_5.0.0.dir/__/__/__/models/pb_remote/src/pb_remote_client.c.obj
                0x0002550c                pb_remote_client_bearer_interface_get
 .text.prov_provisioner_cb_link_closed
                0x00025534       0x2a examples/pb_remote/client/CMakeFiles/pb_remote_client_nrf52832_xxAA_s132_5.0.0.dir/__/__/__/mesh/prov/src/prov_provisioner.c.obj
 .text.prov_provisioner_cb_link_established
                0x0002555e       0x3e examples/pb_remote/client/CMakeFiles/pb_remote_client_nrf52832_xxAA_s132_5.0.0.dir/__/__/__/mesh/prov/src/prov_provisioner.c.obj
 .text.prov_provisioner_cb_ack_received
                0x0002559c       0x48 examples/pb_remote/client/CMakeFiles/pb_remote_client_nrf52832_xxAA_s132_5.0.0.dir/__/__/__/mesh/prov/src/prov_provisioner.c.obj
 .text.send_confirmation
                0x000255e4       0x26 examples/pb_remote/client/CMakeFiles/pb_remote_client_nrf52832_xxAA_s132_5.0.0.dir/__/__/__/mesh/prov/src/prov_provisioner.c.obj
 .text.request_authentication
                0x0002560a       0x8a examples/pb_remote/client/CMakeFiles/pb_remote_client_nrf52832_xxAA_s132_5.0.0.dir/__/__/__/mesh/prov/src/prov_provisioner.c.obj
 .text.prov_provisioner_pkt_in
                0x00025694      0x2a4 examples/pb_remote/client/CMakeFiles/pb_remote_client_nrf52832_xxAA_s132_5.0.0.dir/__/__/__/mesh/prov/src/prov_provisioner.c.obj
 .text.prov_provisioner_provision
                0x00025938       0x44 examples/pb_remote/client/CMakeFiles/pb_remote_client_nrf52832_xxAA_s132_5.0.0.dir/__/__/__/mesh/prov/src/prov_provisioner.c.obj
                0x00025938                prov_provisioner_provision
 .text.prov_provisioner_oob_use
                0x0002597c       0x7a examples/pb_remote/client/CMakeFiles/pb_remote_client_nrf52832_xxAA_s132_5.0.0.dir/__/__/__/mesh/prov/src/prov_provisioner.c.obj
                0x0002597c                prov_provisioner_oob_use
 .text.prov_provisioner_auth_data
                0x000259f6       0x44 examples/pb_remote/client/CMakeFiles/pb_remote_client_nrf52832_xxAA_s132_5.0.0.dir/__/__/__/mesh/prov/src/prov_provisioner.c.obj
                0x000259f6                prov_provisioner_auth_data
 .text.bearer_compare_callback
                0x00025a3a        0xc examples/pb_remote/client/CMakeFiles/pb_remote_client_nrf52832_xxAA_s132_5.0.0.dir/__/__/__/mesh/prov/src/nrf_mesh_prov.c.obj
 .text.nrf_mesh_prov_init
                0x00025a46       0x32 examples/pb_remote/client/CMakeFiles/pb_remote_client_nrf52832_xxAA_s132_5.0.0.dir/__/__/__/mesh/prov/src/nrf_mesh_prov.c.obj
                0x00025a46                nrf_mesh_prov_init
 .text.nrf_mesh_prov_bearer_add
                0x00025a78       0x20 examples/pb_remote/client/CMakeFiles/pb_remote_client_nrf52832_xxAA_s132_5.0.0.dir/__/__/__/mesh/prov/src/nrf_mesh_prov.c.obj
                0x00025a78                nrf_mesh_prov_bearer_add
 .text.nrf_mesh_prov_generate_keys
                0x00025a98        0x4 examples/pb_remote/client/CMakeFiles/pb_remote_client_nrf52832_xxAA_s132_5.0.0.dir/__/__/__/mesh/prov/src/nrf_mesh_prov.c.obj
                0x00025a98                nrf_mesh_prov_generate_keys
 .text.nrf_mesh_prov_provision
                0x00025a9c       0x4e examples/pb_remote/client/CMakeFiles/pb_remote_client_nrf52832_xxAA_s132_5.0.0.dir/__/__/__/mesh/prov/src/nrf_mesh_prov.c.obj
                0x00025a9c                nrf_mesh_prov_provision
 .text.nrf_mesh_prov_oob_use
                0x00025aea        0xe examples/pb_remote/client/CMakeFiles/pb_remote_client_nrf52832_xxAA_s132_5.0.0.dir/__/__/__/mesh/prov/src/nrf_mesh_prov.c.obj
                0x00025aea                nrf_mesh_prov_oob_use
 .text.nrf_mesh_prov_auth_data_provide
                0x00025af8        0xe examples/pb_remote/client/CMakeFiles/pb_remote_client_nrf52832_xxAA_s132_5.0.0.dir/__/__/__/mesh/prov/src/nrf_mesh_prov.c.obj
                0x00025af8                nrf_mesh_prov_auth_data_provide
 .text.nrf_mesh_prov_scan_start
                0x00025b06       0x10 examples/pb_remote/client/CMakeFiles/pb_remote_client_nrf52832_xxAA_s132_5.0.0.dir/__/__/__/mesh/prov/src/nrf_mesh_prov.c.obj
                0x00025b06                nrf_mesh_prov_scan_start
 *fill*         0x00025b16        0x2 
 .text.send_data
                0x00025b18       0x3c examples/pb_remote/client/CMakeFiles/pb_remote_client_nrf52832_xxAA_s132_5.0.0.dir/__/__/__/mesh/prov/src/provisioning.c.obj
 .text.prov_packet_length_valid
                0x00025b54       0x1c examples/pb_remote/client/CMakeFiles/pb_remote_client_nrf52832_xxAA_s132_5.0.0.dir/__/__/__/mesh/prov/src/provisioning.c.obj
                0x00025b54                prov_packet_length_valid
 .text.prov_tx_invite
                0x00025b70       0x28 examples/pb_remote/client/CMakeFiles/pb_remote_client_nrf52832_xxAA_s132_5.0.0.dir/__/__/__/mesh/prov/src/provisioning.c.obj
                0x00025b70                prov_tx_invite
 .text.prov_tx_start
                0x00025b98       0x20 examples/pb_remote/client/CMakeFiles/pb_remote_client_nrf52832_xxAA_s132_5.0.0.dir/__/__/__/mesh/prov/src/provisioning.c.obj
                0x00025b98                prov_tx_start
 .text.prov_tx_public_key
                0x00025bb8       0x26 examples/pb_remote/client/CMakeFiles/pb_remote_client_nrf52832_xxAA_s132_5.0.0.dir/__/__/__/mesh/prov/src/provisioning.c.obj
                0x00025bb8                prov_tx_public_key
 .text.prov_tx_confirmation
                0x00025bde       0x26 examples/pb_remote/client/CMakeFiles/pb_remote_client_nrf52832_xxAA_s132_5.0.0.dir/__/__/__/mesh/prov/src/provisioning.c.obj
                0x00025bde                prov_tx_confirmation
 .text.prov_tx_random
                0x00025c04       0x26 examples/pb_remote/client/CMakeFiles/pb_remote_client_nrf52832_xxAA_s132_5.0.0.dir/__/__/__/mesh/prov/src/provisioning.c.obj
                0x00025c04                prov_tx_random
 .text.prov_tx_data
                0x00025c2a        0x6 examples/pb_remote/client/CMakeFiles/pb_remote_client_nrf52832_xxAA_s132_5.0.0.dir/__/__/__/mesh/prov/src/provisioning.c.obj
                0x00025c2a                prov_tx_data
 .text.prov_beacon_unprov_build
                0x00025c30       0x54 examples/pb_remote/client/CMakeFiles/pb_remote_client_nrf52832_xxAA_s132_5.0.0.dir/__/__/__/mesh/prov/src/prov_beacon.c.obj
                0x00025c30                prov_beacon_unprov_build
 .text.prov_beacon_unprov_packet_in
                0x00025c84       0x9c examples/pb_remote/client/CMakeFiles/pb_remote_client_nrf52832_xxAA_s132_5.0.0.dir/__/__/__/mesh/prov/src/prov_beacon.c.obj
                0x00025c84                prov_beacon_unprov_packet_in
 .text.prov_beacon_scan_start
                0x00025d20       0x24 examples/pb_remote/client/CMakeFiles/pb_remote_client_nrf52832_xxAA_s132_5.0.0.dir/__/__/__/mesh/prov/src/prov_beacon.c.obj
                0x00025d20                prov_beacon_scan_start
 .text.oob_gen_alphanumeric
                0x00025d44       0x34 examples/pb_remote/client/CMakeFiles/pb_remote_client_nrf52832_xxAA_s132_5.0.0.dir/__/__/__/mesh/prov/src/prov_utils.c.obj
 .text.oob_gen_numeric
                0x00025d78       0x3c examples/pb_remote/client/CMakeFiles/pb_remote_client_nrf52832_xxAA_s132_5.0.0.dir/__/__/__/mesh/prov/src/prov_utils.c.obj
 .text.prov_utils_opt_get
                0x00025db4       0x1c examples/pb_remote/client/CMakeFiles/pb_remote_client_nrf52832_xxAA_s132_5.0.0.dir/__/__/__/mesh/prov/src/prov_utils.c.obj
                0x00025db4                prov_utils_opt_get
 .text.prov_utils_use_ecdh_offloading
                0x00025dd0        0xc examples/pb_remote/client/CMakeFiles/pb_remote_client_nrf52832_xxAA_s132_5.0.0.dir/__/__/__/mesh/prov/src/prov_utils.c.obj
                0x00025dd0                prov_utils_use_ecdh_offloading
 .text.prov_utils_authentication_values_derive
                0x00025ddc       0xa0 examples/pb_remote/client/CMakeFiles/pb_remote_client_nrf52832_xxAA_s132_5.0.0.dir/__/__/__/mesh/prov/src/prov_utils.c.obj
                0x00025ddc                prov_utils_authentication_values_derive
 .text.prov_utils_keys_generate
                0x00025e7c       0x1e examples/pb_remote/client/CMakeFiles/pb_remote_client_nrf52832_xxAA_s132_5.0.0.dir/__/__/__/mesh/prov/src/prov_utils.c.obj
                0x00025e7c                prov_utils_keys_generate
 *fill*         0x00025e9a        0x2 
 .text.prov_utils_derive_keys
                0x00025e9c       0xac examples/pb_remote/client/CMakeFiles/pb_remote_client_nrf52832_xxAA_s132_5.0.0.dir/__/__/__/mesh/prov/src/prov_utils.c.obj
                0x00025e9c                prov_utils_derive_keys
 .text.prov_utils_calculate_shared_secret
                0x00025f48       0x36 examples/pb_remote/client/CMakeFiles/pb_remote_client_nrf52832_xxAA_s132_5.0.0.dir/__/__/__/mesh/prov/src/prov_utils.c.obj
                0x00025f48                prov_utils_calculate_shared_secret
 *fill*         0x00025f7e        0x2 
 .text.prov_utils_generate_oob_data
                0x00025f80       0x9c examples/pb_remote/client/CMakeFiles/pb_remote_client_nrf52832_xxAA_s132_5.0.0.dir/__/__/__/mesh/prov/src/prov_utils.c.obj
                0x00025f80                prov_utils_generate_oob_data
 .text.prov_utils_confirmation_check
                0x0002601c       0x5c examples/pb_remote/client/CMakeFiles/pb_remote_client_nrf52832_xxAA_s132_5.0.0.dir/__/__/__/mesh/prov/src/prov_utils.c.obj
                0x0002601c                prov_utils_confirmation_check
 .text.link_timeout_cb
                0x00026078       0x10 examples/pb_remote/client/CMakeFiles/pb_remote_client_nrf52832_xxAA_s132_5.0.0.dir/__/__/__/mesh/prov/src/prov_bearer_adv.c.obj
 .text.remove_active_bearer
                0x00026088       0x60 examples/pb_remote/client/CMakeFiles/pb_remote_client_nrf52832_xxAA_s132_5.0.0.dir/__/__/__/mesh/prov/src/prov_bearer_adv.c.obj
 .text.close_link
                0x000260e8       0x6c examples/pb_remote/client/CMakeFiles/pb_remote_client_nrf52832_xxAA_s132_5.0.0.dir/__/__/__/mesh/prov/src/prov_bearer_adv.c.obj
 .text.prov_bearer_adv_listen_stop
                0x00026154       0x3c examples/pb_remote/client/CMakeFiles/pb_remote_client_nrf52832_xxAA_s132_5.0.0.dir/__/__/__/mesh/prov/src/prov_bearer_adv.c.obj
 .text.send_packet
                0x00026190       0x6c examples/pb_remote/client/CMakeFiles/pb_remote_client_nrf52832_xxAA_s132_5.0.0.dir/__/__/__/mesh/prov/src/prov_bearer_adv.c.obj
 .text.prov_buffer_tx
                0x000261fc      0x158 examples/pb_remote/client/CMakeFiles/pb_remote_client_nrf52832_xxAA_s132_5.0.0.dir/__/__/__/mesh/prov/src/prov_bearer_adv.c.obj
 .text.send_link_close
                0x00026354       0x38 examples/pb_remote/client/CMakeFiles/pb_remote_client_nrf52832_xxAA_s132_5.0.0.dir/__/__/__/mesh/prov/src/prov_bearer_adv.c.obj
 .text.prov_bearer_adv_link_close
                0x0002638c       0x74 examples/pb_remote/client/CMakeFiles/pb_remote_client_nrf52832_xxAA_s132_5.0.0.dir/__/__/__/mesh/prov/src/prov_bearer_adv.c.obj
 .text.send_transaction_ack
                0x00026400       0x24 examples/pb_remote/client/CMakeFiles/pb_remote_client_nrf52832_xxAA_s132_5.0.0.dir/__/__/__/mesh/prov/src/prov_bearer_adv.c.obj
 .text.send_link_ack
                0x00026424       0x32 examples/pb_remote/client/CMakeFiles/pb_remote_client_nrf52832_xxAA_s132_5.0.0.dir/__/__/__/mesh/prov/src/prov_bearer_adv.c.obj
 .text.reset_timeout_timer
                0x00026456       0x1a examples/pb_remote/client/CMakeFiles/pb_remote_client_nrf52832_xxAA_s132_5.0.0.dir/__/__/__/mesh/prov/src/prov_bearer_adv.c.obj
 .text.tx_complete_cb
                0x00026470       0x1c examples/pb_remote/client/CMakeFiles/pb_remote_client_nrf52832_xxAA_s132_5.0.0.dir/__/__/__/mesh/prov/src/prov_bearer_adv.c.obj
 .text.tx_retry_cb
                0x0002648c       0xcc examples/pb_remote/client/CMakeFiles/pb_remote_client_nrf52832_xxAA_s132_5.0.0.dir/__/__/__/mesh/prov/src/prov_bearer_adv.c.obj
 .text.add_active_bearer
                0x00026558       0x80 examples/pb_remote/client/CMakeFiles/pb_remote_client_nrf52832_xxAA_s132_5.0.0.dir/__/__/__/mesh/prov/src/prov_bearer_adv.c.obj
 .text.prov_bearer_adv_link_open
                0x000265d8       0xf8 examples/pb_remote/client/CMakeFiles/pb_remote_client_nrf52832_xxAA_s132_5.0.0.dir/__/__/__/mesh/prov/src/prov_bearer_adv.c.obj
 .text.async_process
                0x000266d0       0x50 examples/pb_remote/client/CMakeFiles/pb_remote_client_nrf52832_xxAA_s132_5.0.0.dir/__/__/__/mesh/prov/src/prov_bearer_adv.c.obj
 .text.prov_bearer_adv_listen
                0x00026720       0xec examples/pb_remote/client/CMakeFiles/pb_remote_client_nrf52832_xxAA_s132_5.0.0.dir/__/__/__/mesh/prov/src/prov_bearer_adv.c.obj
 .text.calculate_3GPP_CRC
                0x0002680c       0x24 examples/pb_remote/client/CMakeFiles/pb_remote_client_nrf52832_xxAA_s132_5.0.0.dir/__/__/__/mesh/prov/src/prov_bearer_adv.c.obj
                0x0002680c                calculate_3GPP_CRC
 .text.prov_bearer_adv_tx
                0x00026830       0xb4 examples/pb_remote/client/CMakeFiles/pb_remote_client_nrf52832_xxAA_s132_5.0.0.dir/__/__/__/mesh/prov/src/prov_bearer_adv.c.obj
 .text.prov_buffer_rx
                0x000268e4       0x7c examples/pb_remote/client/CMakeFiles/pb_remote_client_nrf52832_xxAA_s132_5.0.0.dir/__/__/__/mesh/prov/src/prov_bearer_adv.c.obj
 .text.nrf_mesh_prov_bearer_adv_interface_get
                0x00026960       0x48 examples/pb_remote/client/CMakeFiles/pb_remote_client_nrf52832_xxAA_s132_5.0.0.dir/__/__/__/mesh/prov/src/prov_bearer_adv.c.obj
                0x00026960                nrf_mesh_prov_bearer_adv_interface_get
 .text.prov_bearer_adv_packet_in
                0x000269a8      0x80c examples/pb_remote/client/CMakeFiles/pb_remote_client_nrf52832_xxAA_s132_5.0.0.dir/__/__/__/mesh/prov/src/prov_bearer_adv.c.obj
                0x000269a8                prov_bearer_adv_packet_in
 .text.add_to_publication_list
                0x000271b4       0x84 examples/pb_remote/client/CMakeFiles/pb_remote_client_nrf52832_xxAA_s132_5.0.0.dir/__/__/__/mesh/access/src/access_publish.c.obj
 .text.step_resolution_to_us
                0x00027238       0x44 examples/pb_remote/client/CMakeFiles/pb_remote_client_nrf52832_xxAA_s132_5.0.0.dir/__/__/__/mesh/access/src/access_publish.c.obj
 .text.schedule_publication_timer
                0x0002727c      0x184 examples/pb_remote/client/CMakeFiles/pb_remote_client_nrf52832_xxAA_s132_5.0.0.dir/__/__/__/mesh/access/src/access_publish.c.obj
 .text.publish_timer_tick
                0x00027400       0xbc examples/pb_remote/client/CMakeFiles/pb_remote_client_nrf52832_xxAA_s132_5.0.0.dir/__/__/__/mesh/access/src/access_publish.c.obj
 .text.access_publish_init
                0x000274bc       0x38 examples/pb_remote/client/CMakeFiles/pb_remote_client_nrf52832_xxAA_s132_5.0.0.dir/__/__/__/mesh/access/src/access_publish.c.obj
                0x000274bc                access_publish_init
 .text.bitfield_get
                0x000274f4       0x1a examples/pb_remote/client/CMakeFiles/pb_remote_client_nrf52832_xxAA_s132_5.0.0.dir/__/__/__/mesh/access/src/access.c.obj
 .text.is_valid_opcode
                0x0002750e       0x42 examples/pb_remote/client/CMakeFiles/pb_remote_client_nrf52832_xxAA_s132_5.0.0.dir/__/__/__/mesh/access/src/access.c.obj
 .text.model_handle_valid_and_allocated
                0x00027550       0x20 examples/pb_remote/client/CMakeFiles/pb_remote_client_nrf52832_xxAA_s132_5.0.0.dir/__/__/__/mesh/access/src/access.c.obj
 .text.flash_invalidate_complete
                0x00027570       0x14 examples/pb_remote/client/CMakeFiles/pb_remote_client_nrf52832_xxAA_s132_5.0.0.dir/__/__/__/mesh/access/src/access.c.obj
 .text.flash_manager_mem_available
                0x00027584        0x2 examples/pb_remote/client/CMakeFiles/pb_remote_client_nrf52832_xxAA_s132_5.0.0.dir/__/__/__/mesh/access/src/access.c.obj
 *fill*         0x00027586        0x2 
 .text.access_state_clear
                0x00027588       0x4c examples/pb_remote/client/CMakeFiles/pb_remote_client_nrf52832_xxAA_s132_5.0.0.dir/__/__/__/mesh/access/src/access.c.obj
 .text.add_flash_manager
                0x000275d4       0x58 examples/pb_remote/client/CMakeFiles/pb_remote_client_nrf52832_xxAA_s132_5.0.0.dir/__/__/__/mesh/access/src/access.c.obj
 .text.flash_remove_complete
                0x0002762c       0x5c examples/pb_remote/client/CMakeFiles/pb_remote_client_nrf52832_xxAA_s132_5.0.0.dir/__/__/__/mesh/access/src/access.c.obj
 .text.flash_write_complete
                0x00027688       0x54 examples/pb_remote/client/CMakeFiles/pb_remote_client_nrf52832_xxAA_s132_5.0.0.dir/__/__/__/mesh/access/src/access.c.obj
 .text.handle_incoming
                0x000276dc      0x158 examples/pb_remote/client/CMakeFiles/pb_remote_client_nrf52832_xxAA_s132_5.0.0.dir/__/__/__/mesh/access/src/access.c.obj
 .text.mesh_evt_cb
                0x00027834      0x134 examples/pb_remote/client/CMakeFiles/pb_remote_client_nrf52832_xxAA_s132_5.0.0.dir/__/__/__/mesh/access/src/access.c.obj
 .text.packet_tx
                0x00027968      0x2c4 examples/pb_remote/client/CMakeFiles/pb_remote_client_nrf52832_xxAA_s132_5.0.0.dir/__/__/__/mesh/access/src/access.c.obj
 .text.access_init
                0x00027c2c       0x28 examples/pb_remote/client/CMakeFiles/pb_remote_client_nrf52832_xxAA_s132_5.0.0.dir/__/__/__/mesh/access/src/access.c.obj
                0x00027c2c                access_init
 .text.access_model_add
                0x00027c54      0x1b4 examples/pb_remote/client/CMakeFiles/pb_remote_client_nrf52832_xxAA_s132_5.0.0.dir/__/__/__/mesh/access/src/access.c.obj
                0x00027c54                access_model_add
 .text.access_model_publish
                0x00027e08        0xc examples/pb_remote/client/CMakeFiles/pb_remote_client_nrf52832_xxAA_s132_5.0.0.dir/__/__/__/mesh/access/src/access.c.obj
                0x00027e08                access_model_publish
 .text.access_model_reply
                0x00027e14       0x12 examples/pb_remote/client/CMakeFiles/pb_remote_client_nrf52832_xxAA_s132_5.0.0.dir/__/__/__/mesh/access/src/access.c.obj
                0x00027e14                access_model_reply
 *fill*         0x00027e26        0x2 
 .text.access_model_publish_address_set
                0x00027e28       0x3c examples/pb_remote/client/CMakeFiles/pb_remote_client_nrf52832_xxAA_s132_5.0.0.dir/__/__/__/mesh/access/src/access.c.obj
                0x00027e28                access_model_publish_address_set
 .text.access_model_publish_address_get
                0x00027e64       0x28 examples/pb_remote/client/CMakeFiles/pb_remote_client_nrf52832_xxAA_s132_5.0.0.dir/__/__/__/mesh/access/src/access.c.obj
                0x00027e64                access_model_publish_address_get
 .text.access_model_application_bind
                0x00027e8c       0x50 examples/pb_remote/client/CMakeFiles/pb_remote_client_nrf52832_xxAA_s132_5.0.0.dir/__/__/__/mesh/access/src/access.c.obj
                0x00027e8c                access_model_application_bind
 .text.access_model_publish_application_set
                0x00027edc       0x3c examples/pb_remote/client/CMakeFiles/pb_remote_client_nrf52832_xxAA_s132_5.0.0.dir/__/__/__/mesh/access/src/access.c.obj
                0x00027edc                access_model_publish_application_set
 .text.access_model_publish_ttl_set
                0x00027f18       0x40 examples/pb_remote/client/CMakeFiles/pb_remote_client_nrf52832_xxAA_s132_5.0.0.dir/__/__/__/mesh/access/src/access.c.obj
                0x00027f18                access_model_publish_ttl_set
 .text.access_model_publish_ttl_get
                0x00027f58       0x28 examples/pb_remote/client/CMakeFiles/pb_remote_client_nrf52832_xxAA_s132_5.0.0.dir/__/__/__/mesh/access/src/access.c.obj
                0x00027f58                access_model_publish_ttl_get
 .text.access_model_p_args_get
                0x00027f80       0x28 examples/pb_remote/client/CMakeFiles/pb_remote_client_nrf52832_xxAA_s132_5.0.0.dir/__/__/__/mesh/access/src/access.c.obj
                0x00027f80                access_model_p_args_get
 .text.remove_and_reschedule
                0x00027fa8       0xd8 examples/pb_remote/client/CMakeFiles/pb_remote_client_nrf52832_xxAA_s132_5.0.0.dir/__/__/__/mesh/access/src/access_reliable.c.obj
 .text.reliable_timer_cb
                0x00028080      0x148 examples/pb_remote/client/CMakeFiles/pb_remote_client_nrf52832_xxAA_s132_5.0.0.dir/__/__/__/mesh/access/src/access_reliable.c.obj
 .text.access_reliable_message_rx_cb
                0x000281c8       0x74 examples/pb_remote/client/CMakeFiles/pb_remote_client_nrf52832_xxAA_s132_5.0.0.dir/__/__/__/mesh/access/src/access_reliable.c.obj
                0x000281c8                access_reliable_message_rx_cb
 .text.access_reliable_init
                0x0002823c       0x1c examples/pb_remote/client/CMakeFiles/pb_remote_client_nrf52832_xxAA_s132_5.0.0.dir/__/__/__/mesh/access/src/access_reliable.c.obj
                0x0002823c                access_reliable_init
 .text.access_model_reliable_cancel
                0x00028258       0x4c examples/pb_remote/client/CMakeFiles/pb_remote_client_nrf52832_xxAA_s132_5.0.0.dir/__/__/__/mesh/access/src/access_reliable.c.obj
                0x00028258                access_model_reliable_cancel
 .text.access_model_reliable_publish
                0x000282a4      0x1ac examples/pb_remote/client/CMakeFiles/pb_remote_client_nrf52832_xxAA_s132_5.0.0.dir/__/__/__/mesh/access/src/access_reliable.c.obj
                0x000282a4                access_model_reliable_publish
 .text.bitfield_get
                0x00028450       0x1a examples/pb_remote/client/CMakeFiles/pb_remote_client_nrf52832_xxAA_s132_5.0.0.dir/__/__/__/mesh/access/src/device_state_manager.c.obj
 .text.bitfield_set
                0x0002846a       0x18 examples/pb_remote/client/CMakeFiles/pb_remote_client_nrf52832_xxAA_s132_5.0.0.dir/__/__/__/mesh/access/src/device_state_manager.c.obj
 .text.bitfield_clear
                0x00028482       0x1a examples/pb_remote/client/CMakeFiles/pb_remote_client_nrf52832_xxAA_s132_5.0.0.dir/__/__/__/mesh/access/src/device_state_manager.c.obj
 .text.bitfield_is_all_clear
                0x0002849c       0x3c examples/pb_remote/client/CMakeFiles/pb_remote_client_nrf52832_xxAA_s132_5.0.0.dir/__/__/__/mesh/access/src/device_state_manager.c.obj
 .text.address_handle_virtual_valid
                0x000284d8       0x14 examples/pb_remote/client/CMakeFiles/pb_remote_client_nrf52832_xxAA_s132_5.0.0.dir/__/__/__/mesh/access/src/device_state_manager.c.obj
 .text.net_key_handle_get
                0x000284ec       0x38 examples/pb_remote/client/CMakeFiles/pb_remote_client_nrf52832_xxAA_s132_5.0.0.dir/__/__/__/mesh/access/src/device_state_manager.c.obj
 .text.dev_key_handle_get
                0x00028524       0x58 examples/pb_remote/client/CMakeFiles/pb_remote_client_nrf52832_xxAA_s132_5.0.0.dir/__/__/__/mesh/access/src/device_state_manager.c.obj
 .text.app_key_handle_get
                0x0002857c       0x38 examples/pb_remote/client/CMakeFiles/pb_remote_client_nrf52832_xxAA_s132_5.0.0.dir/__/__/__/mesh/access/src/device_state_manager.c.obj
 .text.get_subnet_handle
                0x000285b4       0x40 examples/pb_remote/client/CMakeFiles/pb_remote_client_nrf52832_xxAA_s132_5.0.0.dir/__/__/__/mesh/access/src/device_state_manager.c.obj
 .text.addr_nonvirtual_to_flash_entry
                0x000285f4       0x10 examples/pb_remote/client/CMakeFiles/pb_remote_client_nrf52832_xxAA_s132_5.0.0.dir/__/__/__/mesh/access/src/device_state_manager.c.obj
 .text.flash_mem_listener_callback
                0x00028604       0x20 examples/pb_remote/client/CMakeFiles/pb_remote_client_nrf52832_xxAA_s132_5.0.0.dir/__/__/__/mesh/access/src/device_state_manager.c.obj
 .text.devkey_set
                0x00028624       0x4c examples/pb_remote/client/CMakeFiles/pb_remote_client_nrf52832_xxAA_s132_5.0.0.dir/__/__/__/mesh/access/src/device_state_manager.c.obj
 .text.devkey_to_dsm_entry
                0x00028670       0x16 examples/pb_remote/client/CMakeFiles/pb_remote_client_nrf52832_xxAA_s132_5.0.0.dir/__/__/__/mesh/access/src/device_state_manager.c.obj
 *fill*         0x00028686        0x2 
 .text.devkey_to_flash_entry
                0x00028688       0x28 examples/pb_remote/client/CMakeFiles/pb_remote_client_nrf52832_xxAA_s132_5.0.0.dir/__/__/__/mesh/access/src/device_state_manager.c.obj
 .text.addr_virtual_to_flash_entry
                0x000286b0       0x18 examples/pb_remote/client/CMakeFiles/pb_remote_client_nrf52832_xxAA_s132_5.0.0.dir/__/__/__/mesh/access/src/device_state_manager.c.obj
 .text.addr_unicast_to_dsm_entry
                0x000286c8        0xc examples/pb_remote/client/CMakeFiles/pb_remote_client_nrf52832_xxAA_s132_5.0.0.dir/__/__/__/mesh/access/src/device_state_manager.c.obj
 .text.addr_unicast_to_flash_entry
                0x000286d4       0x10 examples/pb_remote/client/CMakeFiles/pb_remote_client_nrf52832_xxAA_s132_5.0.0.dir/__/__/__/mesh/access/src/device_state_manager.c.obj
 .text.appkey_set
                0x000286e4       0x7c examples/pb_remote/client/CMakeFiles/pb_remote_client_nrf52832_xxAA_s132_5.0.0.dir/__/__/__/mesh/access/src/device_state_manager.c.obj
 .text.appkey_to_flash_entry
                0x00028760       0x54 examples/pb_remote/client/CMakeFiles/pb_remote_client_nrf52832_xxAA_s132_5.0.0.dir/__/__/__/mesh/access/src/device_state_manager.c.obj
 .text.subnet_to_flash_entry
                0x000287b4       0x60 examples/pb_remote/client/CMakeFiles/pb_remote_client_nrf52832_xxAA_s132_5.0.0.dir/__/__/__/mesh/access/src/device_state_manager.c.obj
 .text.subnet_set
                0x00028814       0xb4 examples/pb_remote/client/CMakeFiles/pb_remote_client_nrf52832_xxAA_s132_5.0.0.dir/__/__/__/mesh/access/src/device_state_manager.c.obj
 .text.virtual_address_set
                0x000288c8       0x54 examples/pb_remote/client/CMakeFiles/pb_remote_client_nrf52832_xxAA_s132_5.0.0.dir/__/__/__/mesh/access/src/device_state_manager.c.obj
 .text.addr_virtual_to_dsm_entry
                0x0002891c        0xc examples/pb_remote/client/CMakeFiles/pb_remote_client_nrf52832_xxAA_s132_5.0.0.dir/__/__/__/mesh/access/src/device_state_manager.c.obj
 .text.flash_save
                0x00028928       0x88 examples/pb_remote/client/CMakeFiles/pb_remote_client_nrf52832_xxAA_s132_5.0.0.dir/__/__/__/mesh/access/src/device_state_manager.c.obj
 .text.flash_invalidate
                0x000289b0       0x70 examples/pb_remote/client/CMakeFiles/pb_remote_client_nrf52832_xxAA_s132_5.0.0.dir/__/__/__/mesh/access/src/device_state_manager.c.obj
 .text.flash_update_all
                0x00028a20       0x6c examples/pb_remote/client/CMakeFiles/pb_remote_client_nrf52832_xxAA_s132_5.0.0.dir/__/__/__/mesh/access/src/device_state_manager.c.obj
 .text.virtual_address_uuid_index_get
                0x00028a8c       0x3c examples/pb_remote/client/CMakeFiles/pb_remote_client_nrf52832_xxAA_s132_5.0.0.dir/__/__/__/mesh/access/src/device_state_manager.c.obj
 .text.get_subnet_handle_by_beacon_info
                0x00028ac8       0x30 examples/pb_remote/client/CMakeFiles/pb_remote_client_nrf52832_xxAA_s132_5.0.0.dir/__/__/__/mesh/access/src/device_state_manager.c.obj
 .text.get_app_handle
                0x00028af8       0x4c examples/pb_remote/client/CMakeFiles/pb_remote_client_nrf52832_xxAA_s132_5.0.0.dir/__/__/__/mesh/access/src/device_state_manager.c.obj
 .text.appkey_to_dsm_entry
                0x00028b44       0x80 examples/pb_remote/client/CMakeFiles/pb_remote_client_nrf52832_xxAA_s132_5.0.0.dir/__/__/__/mesh/access/src/device_state_manager.c.obj
 .text.subnet_to_dsm_entry
                0x00028bc4       0x7c examples/pb_remote/client/CMakeFiles/pb_remote_client_nrf52832_xxAA_s132_5.0.0.dir/__/__/__/mesh/access/src/device_state_manager.c.obj
 .text.flash_operation_complete
                0x00028c40       0x58 examples/pb_remote/client/CMakeFiles/pb_remote_client_nrf52832_xxAA_s132_5.0.0.dir/__/__/__/mesh/access/src/device_state_manager.c.obj
 .text.flash_invalidate_complete
                0x00028c98        0x8 examples/pb_remote/client/CMakeFiles/pb_remote_client_nrf52832_xxAA_s132_5.0.0.dir/__/__/__/mesh/access/src/device_state_manager.c.obj
 .text.flash_write_complete
                0x00028ca0        0x8 examples/pb_remote/client/CMakeFiles/pb_remote_client_nrf52832_xxAA_s132_5.0.0.dir/__/__/__/mesh/access/src/device_state_manager.c.obj
 .text.add_address.part.7
                0x00028ca8      0x144 examples/pb_remote/client/CMakeFiles/pb_remote_client_nrf52832_xxAA_s132_5.0.0.dir/__/__/__/mesh/access/src/device_state_manager.c.obj
 .text.address_handle_valid
                0x00028dec       0x28 examples/pb_remote/client/CMakeFiles/pb_remote_client_nrf52832_xxAA_s132_5.0.0.dir/__/__/__/mesh/access/src/device_state_manager.c.obj
 .text.address_handle_nonvirtual_valid
                0x00028e14       0x14 examples/pb_remote/client/CMakeFiles/pb_remote_client_nrf52832_xxAA_s132_5.0.0.dir/__/__/__/mesh/access/src/device_state_manager.c.obj
 .text.addr_nonvirtual_to_dsm_entry
                0x00028e28       0x38 examples/pb_remote/client/CMakeFiles/pb_remote_client_nrf52832_xxAA_s132_5.0.0.dir/__/__/__/mesh/access/src/device_state_manager.c.obj
 .text.dsm_flash_area_get
                0x00028e60        0xc examples/pb_remote/client/CMakeFiles/pb_remote_client_nrf52832_xxAA_s132_5.0.0.dir/__/__/__/mesh/access/src/device_state_manager.c.obj
                0x00028e60                dsm_flash_area_get
 .text.build_flash_area
                0x00028e6c       0x8c examples/pb_remote/client/CMakeFiles/pb_remote_client_nrf52832_xxAA_s132_5.0.0.dir/__/__/__/mesh/access/src/device_state_manager.c.obj
 .text.flash_remove_complete
                0x00028ef8        0x4 examples/pb_remote/client/CMakeFiles/pb_remote_client_nrf52832_xxAA_s132_5.0.0.dir/__/__/__/mesh/access/src/device_state_manager.c.obj
 .text.dsm_init
                0x00028efc       0x24 examples/pb_remote/client/CMakeFiles/pb_remote_client_nrf52832_xxAA_s132_5.0.0.dir/__/__/__/mesh/access/src/device_state_manager.c.obj
                0x00028efc                dsm_init
 .text.dsm_local_unicast_addresses_set
                0x00028f20       0x84 examples/pb_remote/client/CMakeFiles/pb_remote_client_nrf52832_xxAA_s132_5.0.0.dir/__/__/__/mesh/access/src/device_state_manager.c.obj
                0x00028f20                dsm_local_unicast_addresses_set
 .text.dsm_local_unicast_addresses_get
                0x00028fa4       0x2c examples/pb_remote/client/CMakeFiles/pb_remote_client_nrf52832_xxAA_s132_5.0.0.dir/__/__/__/mesh/access/src/device_state_manager.c.obj
                0x00028fa4                dsm_local_unicast_addresses_get
 .text.dsm_address_publish_add
                0x00028fd0        0xc examples/pb_remote/client/CMakeFiles/pb_remote_client_nrf52832_xxAA_s132_5.0.0.dir/__/__/__/mesh/access/src/device_state_manager.c.obj
                0x00028fd0                dsm_address_publish_add
 .text.dsm_address_subscription_get
                0x00028fdc       0x34 examples/pb_remote/client/CMakeFiles/pb_remote_client_nrf52832_xxAA_s132_5.0.0.dir/__/__/__/mesh/access/src/device_state_manager.c.obj
                0x00028fdc                dsm_address_subscription_get
 .text.dsm_address_get
                0x00029010       0x5c examples/pb_remote/client/CMakeFiles/pb_remote_client_nrf52832_xxAA_s132_5.0.0.dir/__/__/__/mesh/access/src/device_state_manager.c.obj
                0x00029010                dsm_address_get
 .text.dsm_address_handle_get
                0x0002906c       0x98 examples/pb_remote/client/CMakeFiles/pb_remote_client_nrf52832_xxAA_s132_5.0.0.dir/__/__/__/mesh/access/src/device_state_manager.c.obj
                0x0002906c                dsm_address_handle_get
 .text.dsm_appkey_handle_get
                0x00029104        0xc examples/pb_remote/client/CMakeFiles/pb_remote_client_nrf52832_xxAA_s132_5.0.0.dir/__/__/__/mesh/access/src/device_state_manager.c.obj
                0x00029104                dsm_appkey_handle_get
 .text.dsm_subnet_add
                0x00029110       0x58 examples/pb_remote/client/CMakeFiles/pb_remote_client_nrf52832_xxAA_s132_5.0.0.dir/__/__/__/mesh/access/src/device_state_manager.c.obj
                0x00029110                dsm_subnet_add
 .text.dsm_subnet_update_swap_keys
                0x00029168       0x50 examples/pb_remote/client/CMakeFiles/pb_remote_client_nrf52832_xxAA_s132_5.0.0.dir/__/__/__/mesh/access/src/device_state_manager.c.obj
                0x00029168                dsm_subnet_update_swap_keys
 .text.dsm_subnet_update_commit
                0x000291b8       0xb8 examples/pb_remote/client/CMakeFiles/pb_remote_client_nrf52832_xxAA_s132_5.0.0.dir/__/__/__/mesh/access/src/device_state_manager.c.obj
                0x000291b8                dsm_subnet_update_commit
 .text.net_beacon_callback
                0x00029270       0x74 examples/pb_remote/client/CMakeFiles/pb_remote_client_nrf52832_xxAA_s132_5.0.0.dir/__/__/__/mesh/access/src/device_state_manager.c.obj
 .text.dsm_devkey_add
                0x000292e4       0x78 examples/pb_remote/client/CMakeFiles/pb_remote_client_nrf52832_xxAA_s132_5.0.0.dir/__/__/__/mesh/access/src/device_state_manager.c.obj
                0x000292e4                dsm_devkey_add
 .text.dsm_appkey_add
                0x0002935c       0x70 examples/pb_remote/client/CMakeFiles/pb_remote_client_nrf52832_xxAA_s132_5.0.0.dir/__/__/__/mesh/access/src/device_state_manager.c.obj
                0x0002935c                dsm_appkey_add
 .text.dsm_tx_secmat_get
                0x000293cc      0x104 examples/pb_remote/client/CMakeFiles/pb_remote_client_nrf52832_xxAA_s132_5.0.0.dir/__/__/__/mesh/access/src/device_state_manager.c.obj
                0x000293cc                dsm_tx_secmat_get
 .text.nrf_mesh_net_secmat_next_get
                0x000294d0       0xa4 examples/pb_remote/client/CMakeFiles/pb_remote_client_nrf52832_xxAA_s132_5.0.0.dir/__/__/__/mesh/access/src/device_state_manager.c.obj
                0x000294d0                nrf_mesh_net_secmat_next_get
 .text.nrf_mesh_app_secmat_next_get
                0x00029574       0x84 examples/pb_remote/client/CMakeFiles/pb_remote_client_nrf52832_xxAA_s132_5.0.0.dir/__/__/__/mesh/access/src/device_state_manager.c.obj
                0x00029574                nrf_mesh_app_secmat_next_get
 .text.nrf_mesh_devkey_secmat_get
                0x000295f8       0x44 examples/pb_remote/client/CMakeFiles/pb_remote_client_nrf52832_xxAA_s132_5.0.0.dir/__/__/__/mesh/access/src/device_state_manager.c.obj
                0x000295f8                nrf_mesh_devkey_secmat_get
 .text.nrf_mesh_beacon_info_next_get
                0x0002963c       0xc8 examples/pb_remote/client/CMakeFiles/pb_remote_client_nrf52832_xxAA_s132_5.0.0.dir/__/__/__/mesh/access/src/device_state_manager.c.obj
                0x0002963c                nrf_mesh_beacon_info_next_get
 .text.nrf_mesh_rx_address_get
                0x00029704       0xfc examples/pb_remote/client/CMakeFiles/pb_remote_client_nrf52832_xxAA_s132_5.0.0.dir/__/__/__/mesh/access/src/device_state_manager.c.obj
                0x00029704                nrf_mesh_rx_address_get
 .text._weak_handler
                0x00029800        0x4 examples/pb_remote/client/CMakeFiles/pb_remote_client_nrf52832_xxAA_s132_5.0.0.dir/__/__/nrf_mesh_weak.c.obj
                0x00029800                nrf_mesh_dfu_init
                0x00029800                nrf_mesh_dfu_jump_to_bootloader
                0x00029800                nrf_mesh_dfu_rx
                0x00029800                nrf_mesh_dfu_bank_info_get
                0x00029800                nrf_mesh_dfu_request
                0x00029800                nrf_mesh_dfu_bank_flash
                0x00029800                _weak_handler
                0x00029800                prov_provisionee_auth_data
                0x00029800                nrf_mesh_dfu_relay
                0x00029800                prov_provisionee_shared_secret
                0x00029800                nrf_mesh_dfu_abort
                0x00029800                mesh_flash_op_execute
                0x00029800                prov_provisionee_init
                0x00029800                nrf_mesh_dfu_state_get
 .text.errata_57
                0x00029804       0x34 examples/pb_remote/client/CMakeFiles/pb_remote_client_nrf52832_xxAA_s132_5.0.0.dir/__/__/__/external/nRF5_SDK_14.2.0_17b948a/components/toolchain/system_nrf52.c.obj
 .text.errata_136
                0x00029838       0x40 examples/pb_remote/client/CMakeFiles/pb_remote_client_nrf52832_xxAA_s132_5.0.0.dir/__/__/__/external/nRF5_SDK_14.2.0_17b948a/components/toolchain/system_nrf52.c.obj
 .text.SystemInit
                0x00029878      0x238 examples/pb_remote/client/CMakeFiles/pb_remote_client_nrf52832_xxAA_s132_5.0.0.dir/__/__/__/external/nRF5_SDK_14.2.0_17b948a/components/toolchain/system_nrf52.c.obj
                0x00029878                SystemInit
 .text          0x00029ab0       0x3c examples/pb_remote/client/CMakeFiles/pb_remote_client_nrf52832_xxAA_s132_5.0.0.dir/__/__/__/external/nRF5_SDK_14.2.0_17b948a/components/toolchain/gcc/gcc_startup_nrf52.S.obj
                0x00029ab0                Reset_Handler
                0x00029ad8                NMI_Handler
                0x00029adc                MemoryManagement_Handler
                0x00029ade                BusFault_Handler
                0x00029ae0                UsageFault_Handler
                0x00029ae2                SVC_Handler
                0x00029ae4                DebugMon_Handler
                0x00029ae6                PendSV_Handler
                0x00029ae8                SysTick_Handler
                0x00029aea                RADIO_IRQHandler
                0x00029aea                PDM_IRQHandler
                0x00029aea                TEMP_IRQHandler
                0x00029aea                TIMER3_IRQHandler
                0x00029aea                FPU_IRQHandler
                0x00029aea                SPIM0_SPIS0_TWIM0_TWIS0_SPI0_TWI0_IRQHandler
                0x00029aea                POWER_CLOCK_IRQHandler
                0x00029aea                UARTE0_UART0_IRQHandler
                0x00029aea                TIMER4_IRQHandler
                0x00029aea                I2S_IRQHandler
                0x00029aea                SWI4_EGU4_IRQHandler
                0x00029aea                TIMER0_IRQHandler
                0x00029aea                RTC0_IRQHandler
                0x00029aea                TIMER1_IRQHandler
                0x00029aea                SWI0_EGU0_IRQHandler
                0x00029aea                ECB_IRQHandler
                0x00029aea                SPIM1_SPIS1_TWIM1_TWIS1_SPI1_TWI1_IRQHandler
                0x00029aea                Default_Handler
                0x00029aea                SAADC_IRQHandler
                0x00029aea                CCM_AAR_IRQHandler
                0x00029aea                WDT_IRQHandler
                0x00029aea                PWM1_IRQHandler
                0x00029aea                SWI5_EGU5_IRQHandler
                0x00029aea                RNG_IRQHandler
                0x00029aea                RTC2_IRQHandler
                0x00029aea                PWM0_IRQHandler
                0x00029aea                SWI3_EGU3_IRQHandler
                0x00029aea                RTC1_IRQHandler
                0x00029aea                SWI1_EGU1_IRQHandler
                0x00029aea                SPIM2_SPIS2_SPI2_IRQHandler
                0x00029aea                NFCT_IRQHandler
                0x00029aea                GPIOTE_IRQHandler
                0x00029aea                MWU_IRQHandler
                0x00029aea                PWM2_IRQHandler
                0x00029aea                COMP_LPCOMP_IRQHandler
 .text.nrf_mesh_configure_device_uuid_reset
                0x00029aec       0x28 mesh/core/libmesh_core_nrf52832_xxAA.a(nrf_mesh_configure.c.obj)
                0x00029aec                nrf_mesh_configure_device_uuid_reset
 .text.nrf_mesh_configure_device_uuid_get
                0x00029b14        0x8 mesh/core/libmesh_core_nrf52832_xxAA.a(nrf_mesh_configure.c.obj)
                0x00029b14                nrf_mesh_configure_device_uuid_get
 .text.event_handle
                0x00029b1c       0x30 mesh/core/libmesh_core_nrf52832_xxAA.a(event.c.obj)
                0x00029b1c                event_handle
 .text.event_handler_add
                0x00029b4c       0x28 mesh/core/libmesh_core_nrf52832_xxAA.a(event.c.obj)
                0x00029b4c                event_handler_add
 .text.event_handler_remove
                0x00029b74       0x28 mesh/core/libmesh_core_nrf52832_xxAA.a(event.c.obj)
                0x00029b74                event_handler_remove
 .text.fifo_init
                0x00029b9c       0x50 mesh/core/libmesh_core_nrf52832_xxAA.a(fifo.c.obj)
                0x00029b9c                fifo_init
 .text.fifo_push
                0x00029bec       0x50 mesh/core/libmesh_core_nrf52832_xxAA.a(fifo.c.obj)
                0x00029bec                fifo_push
 .text.fifo_pop
                0x00029c3c       0x52 mesh/core/libmesh_core_nrf52832_xxAA.a(fifo.c.obj)
                0x00029c3c                fifo_pop
 *fill*         0x00029c8e        0x2 
 .text.flash_mem_available
                0x00029c90       0x20 mesh/core/libmesh_core_nrf52832_xxAA.a(net_state.c.obj)
 .text.flash_store_iv_index
                0x00029cb0       0x38 mesh/core/libmesh_core_nrf52832_xxAA.a(net_state.c.obj)
 .text.seqnum_block_allocate
                0x00029ce8       0x48 mesh/core/libmesh_core_nrf52832_xxAA.a(net_state.c.obj)
 .text.flash_write_complete
                0x00029d30       0x78 mesh/core/libmesh_core_nrf52832_xxAA.a(net_state.c.obj)
 .text.net_state_recover_from_flash
                0x00029da8       0x8c mesh/core/libmesh_core_nrf52832_xxAA.a(net_state.c.obj)
                0x00029da8                net_state_recover_from_flash
 .text.net_state_flash_area_get
                0x00029e34        0xc mesh/core/libmesh_core_nrf52832_xxAA.a(net_state.c.obj)
                0x00029e34                net_state_flash_area_get
 .text.init_flash_storage
                0x00029e40       0x40 mesh/core/libmesh_core_nrf52832_xxAA.a(net_state.c.obj)
 .text.net_state_init
                0x00029e80       0x48 mesh/core/libmesh_core_nrf52832_xxAA.a(net_state.c.obj)
                0x00029e80                net_state_init
 .text.net_state_iv_update_start
                0x00029ec8       0x64 mesh/core/libmesh_core_nrf52832_xxAA.a(net_state.c.obj)
                0x00029ec8                net_state_iv_update_start
 .text.iv_update_trigger_if_pending
                0x00029f2c       0x8c mesh/core/libmesh_core_nrf52832_xxAA.a(net_state.c.obj)
 .text.iv_update_timer_handler
                0x00029fb8       0x74 mesh/core/libmesh_core_nrf52832_xxAA.a(net_state.c.obj)
 .text.net_state_seqnum_alloc
                0x0002a02c       0x68 mesh/core/libmesh_core_nrf52832_xxAA.a(net_state.c.obj)
                0x0002a02c                net_state_seqnum_alloc
 .text.net_state_iv_index_lock
                0x0002a094       0x48 mesh/core/libmesh_core_nrf52832_xxAA.a(net_state.c.obj)
                0x0002a094                net_state_iv_index_lock
 .text.net_state_key_refresh_phase_changed
                0x0002a0dc       0x1e mesh/core/libmesh_core_nrf52832_xxAA.a(net_state.c.obj)
                0x0002a0dc                net_state_key_refresh_phase_changed
 *fill*         0x0002a0fa        0x2 
 .text.net_state_beacon_received
                0x0002a0fc       0x94 mesh/core/libmesh_core_nrf52832_xxAA.a(net_state.c.obj)
                0x0002a0fc                net_state_beacon_received
 .text.net_state_beacon_iv_index_get
                0x0002a190        0xc mesh/core/libmesh_core_nrf52832_xxAA.a(net_state.c.obj)
                0x0002a190                net_state_beacon_iv_index_get
 .text.net_state_tx_iv_index_get
                0x0002a19c       0x14 mesh/core/libmesh_core_nrf52832_xxAA.a(net_state.c.obj)
                0x0002a19c                net_state_tx_iv_index_get
 .text.net_state_rx_iv_index_get
                0x0002a1b0       0x18 mesh/core/libmesh_core_nrf52832_xxAA.a(net_state.c.obj)
                0x0002a1b0                net_state_rx_iv_index_get
 .text.net_state_iv_update_get
                0x0002a1c8        0xc mesh/core/libmesh_core_nrf52832_xxAA.a(net_state.c.obj)
                0x0002a1c8                net_state_iv_update_get
 .text.nrf_mesh_address_type_get
                0x0002a1d4       0x10 mesh/core/libmesh_core_nrf52832_xxAA.a(nrf_mesh_utils.c.obj)
                0x0002a1d4                nrf_mesh_address_type_get
 .text.sd_softdevice_is_enabled
                0x0002a1e4        0x4 mesh/core/libmesh_core_nrf52832_xxAA.a(nrf_mesh.c.obj)
 .text.nrf_mesh_listen
                0x0002a1e8      0x138 mesh/core/libmesh_core_nrf52832_xxAA.a(nrf_mesh.c.obj)
 .text.scanner_packet_process_cb
                0x0002a320       0x8c mesh/core/libmesh_core_nrf52832_xxAA.a(nrf_mesh.c.obj)
 .text.nrf_mesh_init
                0x0002a3ac       0xd8 mesh/core/libmesh_core_nrf52832_xxAA.a(nrf_mesh.c.obj)
                0x0002a3ac                nrf_mesh_init
 .text.nrf_mesh_enable
                0x0002a484       0x48 mesh/core/libmesh_core_nrf52832_xxAA.a(nrf_mesh.c.obj)
                0x0002a484                nrf_mesh_enable
 .text.nrf_mesh_packet_send
                0x0002a4cc        0x4 mesh/core/libmesh_core_nrf52832_xxAA.a(nrf_mesh.c.obj)
                0x0002a4cc                nrf_mesh_packet_send
 .text.nrf_mesh_on_ble_evt
                0x0002a4d0        0x4 mesh/core/libmesh_core_nrf52832_xxAA.a(nrf_mesh.c.obj)
                0x0002a4d0                nrf_mesh_on_ble_evt
 .text.nrf_mesh_on_sd_evt
                0x0002a4d4        0xa mesh/core/libmesh_core_nrf52832_xxAA.a(nrf_mesh.c.obj)
                0x0002a4d4                nrf_mesh_on_sd_evt
 .text.nrf_mesh_evt_handler_add
                0x0002a4de        0x4 mesh/core/libmesh_core_nrf52832_xxAA.a(nrf_mesh.c.obj)
                0x0002a4de                nrf_mesh_evt_handler_add
 *fill*         0x0002a4e2        0x2 
 .text.hal_lfclk_ppm_get
                0x0002a4e4       0x14 mesh/core/libmesh_core_nrf52832_xxAA.a(hal.c.obj)
                0x0002a4e4                hal_lfclk_ppm_get
 .text.add_to_add_list
                0x0002a4f8       0x44 mesh/core/libmesh_core_nrf52832_xxAA.a(timer_scheduler.c.obj)
 .text.process_dirty_events
                0x0002a53c       0x6c mesh/core/libmesh_core_nrf52832_xxAA.a(timer_scheduler.c.obj)
 .text.timer_cb
                0x0002a5a8        0xc mesh/core/libmesh_core_nrf52832_xxAA.a(timer_scheduler.c.obj)
 .text.add_evt.constprop.0
                0x0002a5b4       0x68 mesh/core/libmesh_core_nrf52832_xxAA.a(timer_scheduler.c.obj)
 .text.process_add_list
                0x0002a61c       0x48 mesh/core/libmesh_core_nrf52832_xxAA.a(timer_scheduler.c.obj)
 .text.flag_event_cb
                0x0002a664      0x100 mesh/core/libmesh_core_nrf52832_xxAA.a(timer_scheduler.c.obj)
 .text.timer_sch_init
                0x0002a764       0x24 mesh/core/libmesh_core_nrf52832_xxAA.a(timer_scheduler.c.obj)
                0x0002a764                timer_sch_init
 .text.timer_sch_schedule
                0x0002a788       0x50 mesh/core/libmesh_core_nrf52832_xxAA.a(timer_scheduler.c.obj)
                0x0002a788                timer_sch_schedule
 .text.timer_sch_abort
                0x0002a7d8       0x64 mesh/core/libmesh_core_nrf52832_xxAA.a(timer_scheduler.c.obj)
                0x0002a7d8                timer_sch_abort
 .text.timer_sch_reschedule
                0x0002a83c       0x70 mesh/core/libmesh_core_nrf52832_xxAA.a(timer_scheduler.c.obj)
                0x0002a83c                timer_sch_reschedule
 .text.timer_mut_unlock
                0x0002a8ac       0x10 mesh/core/libmesh_core_nrf52832_xxAA.a(timer.c.obj)
 .text.timer_order_cb
                0x0002a8bc       0x94 mesh/core/libmesh_core_nrf52832_xxAA.a(timer.c.obj)
                0x0002a8bc                timer_order_cb
 .text.timer_now
                0x0002a950       0x48 mesh/core/libmesh_core_nrf52832_xxAA.a(timer.c.obj)
                0x0002a950                timer_now
 .text.timer_event_handler
                0x0002a998       0x98 mesh/core/libmesh_core_nrf52832_xxAA.a(timer.c.obj)
                0x0002a998                timer_event_handler
 .text.timer_on_ts_begin
                0x0002aa30       0xfc mesh/core/libmesh_core_nrf52832_xxAA.a(timer.c.obj)
                0x0002aa30                timer_on_ts_begin
 .text.timer_on_ts_end
                0x0002ab2c       0x60 mesh/core/libmesh_core_nrf52832_xxAA.a(timer.c.obj)
                0x0002ab2c                timer_on_ts_end
 .text.timer_cb
                0x0002ab8c       0x10 mesh/core/libmesh_core_nrf52832_xxAA.a(ticker.c.obj)
 .text.ticker_init
                0x0002ab9c       0x3c mesh/core/libmesh_core_nrf52832_xxAA.a(ticker.c.obj)
                0x0002ab9c                ticker_init
 .text.sd_rand_application_bytes_available_get
                0x0002abd8        0x4 mesh/core/libmesh_core_nrf52832_xxAA.a(rand.c.obj)
 .text.sd_rand_application_vector_get
                0x0002abdc        0x4 mesh/core/libmesh_core_nrf52832_xxAA.a(rand.c.obj)
 .text.rand_prng_get
                0x0002abe0       0x22 mesh/core/libmesh_core_nrf52832_xxAA.a(rand.c.obj)
                0x0002abe0                rand_prng_get
 *fill*         0x0002ac02        0x2 
 .text.rand_hw_rng_get
                0x0002ac04       0x50 mesh/core/libmesh_core_nrf52832_xxAA.a(rand.c.obj)
                0x0002ac04                rand_hw_rng_get
 .text.rand_prng_seed
                0x0002ac54       0x34 mesh/core/libmesh_core_nrf52832_xxAA.a(rand.c.obj)
                0x0002ac54                rand_prng_seed
 .text.sd_radio_session_open
                0x0002ac88        0x4 mesh/core/libmesh_core_nrf52832_xxAA.a(timeslot.c.obj)
 .text.sd_radio_session_close
                0x0002ac8c        0x4 mesh/core/libmesh_core_nrf52832_xxAA.a(timeslot.c.obj)
 .text.sd_radio_request
                0x0002ac90        0x4 mesh/core/libmesh_core_nrf52832_xxAA.a(timeslot.c.obj)
 .text.end_timer_handler
                0x0002ac94       0x24 mesh/core/libmesh_core_nrf52832_xxAA.a(timeslot.c.obj)
 .text.get_end_time.constprop.10
                0x0002acb8       0x28 mesh/core/libmesh_core_nrf52832_xxAA.a(timeslot.c.obj)
 .text.handle_extend_end.constprop.3
                0x0002ace0       0xc0 mesh/core/libmesh_core_nrf52832_xxAA.a(timeslot.c.obj)
 .text.radio_signal_callback
                0x0002ada0      0x14c mesh/core/libmesh_core_nrf52832_xxAA.a(timeslot.c.obj)
 .text.timeslot_sd_event_handler
                0x0002aeec       0x44 mesh/core/libmesh_core_nrf52832_xxAA.a(timeslot.c.obj)
                0x0002aeec                timeslot_sd_event_handler
 .text.timeslot_init
                0x0002af30       0x48 mesh/core/libmesh_core_nrf52832_xxAA.a(timeslot.c.obj)
                0x0002af30                timeslot_init
 .text.timeslot_start
                0x0002af78       0x20 mesh/core/libmesh_core_nrf52832_xxAA.a(timeslot.c.obj)
                0x0002af78                timeslot_start
 .text.timeslot_end_is_pending
                0x0002af98       0x24 mesh/core/libmesh_core_nrf52832_xxAA.a(timeslot.c.obj)
                0x0002af98                timeslot_end_is_pending
 .text.timeslot_start_time_get
                0x0002afbc        0xc mesh/core/libmesh_core_nrf52832_xxAA.a(timeslot.c.obj)
                0x0002afbc                timeslot_start_time_get
 .text.timeslot_remaining_time_get
                0x0002afc8       0x20 mesh/core/libmesh_core_nrf52832_xxAA.a(timeslot.c.obj)
                0x0002afc8                timeslot_remaining_time_get
 .text.timeslot_is_in_cb
                0x0002afe8        0xc mesh/core/libmesh_core_nrf52832_xxAA.a(timeslot.c.obj)
                0x0002afe8                timeslot_is_in_cb
 .text.timeslot_trigger
                0x0002aff4       0x24 mesh/core/libmesh_core_nrf52832_xxAA.a(timeslot.c.obj)
                0x0002aff4                timeslot_trigger
 .text.timeslot_stop
                0x0002b018       0x10 mesh/core/libmesh_core_nrf52832_xxAA.a(timeslot.c.obj)
                0x0002b018                timeslot_stop
 .text.timeslot_state_lock
                0x0002b028       0x28 mesh/core/libmesh_core_nrf52832_xxAA.a(timeslot.c.obj)
                0x0002b028                timeslot_state_lock
 .text.trigger_event_handler
                0x0002b050       0x1c mesh/core/libmesh_core_nrf52832_xxAA.a(bearer_event.c.obj)
 .text.evt_push
                0x0002b06c       0x1c mesh/core/libmesh_core_nrf52832_xxAA.a(bearer_event.c.obj)
 .text.bearer_event_init
                0x0002b088       0x48 mesh/core/libmesh_core_nrf52832_xxAA.a(bearer_event.c.obj)
                0x0002b088                bearer_event_init
 .text.bearer_event_timer_post
                0x0002b0d0       0x30 mesh/core/libmesh_core_nrf52832_xxAA.a(bearer_event.c.obj)
                0x0002b0d0                bearer_event_timer_post
 .text.bearer_event_critical_section_begin
                0x0002b100       0x50 mesh/core/libmesh_core_nrf52832_xxAA.a(bearer_event.c.obj)
                0x0002b100                bearer_event_critical_section_begin
 .text.bearer_event_critical_section_end
                0x0002b150       0x4c mesh/core/libmesh_core_nrf52832_xxAA.a(bearer_event.c.obj)
                0x0002b150                bearer_event_critical_section_end
 .text.bearer_event_flag_add
                0x0002b19c       0x50 mesh/core/libmesh_core_nrf52832_xxAA.a(bearer_event.c.obj)
                0x0002b19c                bearer_event_flag_add
 .text.bearer_event_flag_set
                0x0002b1ec       0x50 mesh/core/libmesh_core_nrf52832_xxAA.a(bearer_event.c.obj)
                0x0002b1ec                bearer_event_flag_set
 .text.bearer_event_sequential_add
                0x0002b23c       0x44 mesh/core/libmesh_core_nrf52832_xxAA.a(bearer_event.c.obj)
                0x0002b23c                bearer_event_sequential_add
 .text.bearer_event_sequential_post
                0x0002b280       0x58 mesh/core/libmesh_core_nrf52832_xxAA.a(bearer_event.c.obj)
                0x0002b280                bearer_event_sequential_post
 .text.bearer_event_sequential_pending
                0x0002b2d8       0x1c mesh/core/libmesh_core_nrf52832_xxAA.a(bearer_event.c.obj)
                0x0002b2d8                bearer_event_sequential_pending
 .text.bearer_event_handler
                0x0002b2f4      0x104 mesh/core/libmesh_core_nrf52832_xxAA.a(bearer_event.c.obj)
                0x0002b2f4                bearer_event_handler
 .text.QDEC_IRQHandler
                0x0002b3f8        0x4 mesh/core/libmesh_core_nrf52832_xxAA.a(bearer_event.c.obj)
                0x0002b3f8                QDEC_IRQHandler
 .text.enc_aes_encrypt
                0x0002b3fc        0x4 mesh/core/libmesh_core_nrf52832_xxAA.a(enc.c.obj)
                0x0002b3fc                enc_aes_encrypt
 .text.enc_aes_cmac
                0x0002b400        0x4 mesh/core/libmesh_core_nrf52832_xxAA.a(enc.c.obj)
                0x0002b400                enc_aes_cmac
 .text.enc_aes_ccm_encrypt
                0x0002b404        0x4 mesh/core/libmesh_core_nrf52832_xxAA.a(enc.c.obj)
                0x0002b404                enc_aes_ccm_encrypt
 .text.enc_aes_ccm_decrypt
                0x0002b408        0x4 mesh/core/libmesh_core_nrf52832_xxAA.a(enc.c.obj)
                0x0002b408                enc_aes_ccm_decrypt
 .text.enc_nonce_generate
                0x0002b40c       0xb8 mesh/core/libmesh_core_nrf52832_xxAA.a(enc.c.obj)
                0x0002b40c                enc_nonce_generate
 .text.enc_s1   0x0002b4c4       0x38 mesh/core/libmesh_core_nrf52832_xxAA.a(enc.c.obj)
                0x0002b4c4                enc_s1
 .text.enc_k1   0x0002b4fc       0x48 mesh/core/libmesh_core_nrf52832_xxAA.a(enc.c.obj)
                0x0002b4fc                enc_k1
 .text.enc_k2   0x0002b544       0xd8 mesh/core/libmesh_core_nrf52832_xxAA.a(enc.c.obj)
                0x0002b544                enc_k2
 .text.enc_k3   0x0002b61c       0x68 mesh/core/libmesh_core_nrf52832_xxAA.a(enc.c.obj)
                0x0002b61c                enc_k3
 .text.enc_k4   0x0002b684       0x60 mesh/core/libmesh_core_nrf52832_xxAA.a(enc.c.obj)
                0x0002b684                enc_k4
 .text.header_transfuscate
                0x0002b6e4       0x54 mesh/core/libmesh_core_nrf52832_xxAA.a(network.c.obj)
 .text.allocate_packet
                0x0002b738      0x14c mesh/core/libmesh_core_nrf52832_xxAA.a(network.c.obj)
 .text.network_init
                0x0002b884       0x2c mesh/core/libmesh_core_nrf52832_xxAA.a(network.c.obj)
                0x0002b884                network_init
 .text.network_opt_get
                0x0002b8b0       0x4c mesh/core/libmesh_core_nrf52832_xxAA.a(network.c.obj)
                0x0002b8b0                network_opt_get
 .text.network_packet_alloc
                0x0002b8fc       0x50 mesh/core/libmesh_core_nrf52832_xxAA.a(network.c.obj)
                0x0002b8fc                network_packet_alloc
 .text.network_packet_send
                0x0002b94c      0x140 mesh/core/libmesh_core_nrf52832_xxAA.a(network.c.obj)
                0x0002b94c                network_packet_send
 .text.network_packet_in
                0x0002ba8c      0x460 mesh/core/libmesh_core_nrf52832_xxAA.a(network.c.obj)
                0x0002ba8c                network_packet_in
 .text.nrf_mesh_keygen_aid
                0x0002beec       0x12 mesh/core/libmesh_core_nrf52832_xxAA.a(nrf_mesh_keygen.c.obj)
                0x0002beec                nrf_mesh_keygen_aid
 .text.nrf_mesh_keygen_network_secmat
                0x0002befe       0x20 mesh/core/libmesh_core_nrf52832_xxAA.a(nrf_mesh_keygen.c.obj)
                0x0002befe                nrf_mesh_keygen_network_secmat
 *fill*         0x0002bf1e        0x2 
 .text.nrf_mesh_keygen_beacon_secmat
                0x0002bf20       0x50 mesh/core/libmesh_core_nrf52832_xxAA.a(nrf_mesh_keygen.c.obj)
                0x0002bf20                nrf_mesh_keygen_beacon_secmat
 .text.nrf_mesh_keygen_virtual_address
                0x0002bf70       0x50 mesh/core/libmesh_core_nrf52832_xxAA.a(nrf_mesh_keygen.c.obj)
                0x0002bf70                nrf_mesh_keygen_virtual_address
 .text.list_insert
                0x0002bfc0       0x28 mesh/core/libmesh_core_nrf52832_xxAA.a(list.c.obj)
 .text.list_add
                0x0002bfe8       0x60 mesh/core/libmesh_core_nrf52832_xxAA.a(list.c.obj)
                0x0002bfe8                list_add
 .text.list_remove
                0x0002c048       0x48 mesh/core/libmesh_core_nrf52832_xxAA.a(list.c.obj)
                0x0002c048                list_remove
 .text.list_compare_add
                0x0002c090       0x80 mesh/core/libmesh_core_nrf52832_xxAA.a(list.c.obj)
                0x0002c090                list_compare_add
 .text.log_callback_rtt
                0x0002c110       0x2c mesh/core/libmesh_core_nrf52832_xxAA.a(log.c.obj)
                0x0002c110                log_callback_rtt
 .text.log_init
                0x0002c13c       0x1c mesh/core/libmesh_core_nrf52832_xxAA.a(log.c.obj)
                0x0002c13c                log_init
 .text.log_vprintf
                0x0002c158       0x18 mesh/core/libmesh_core_nrf52832_xxAA.a(log.c.obj)
                0x0002c158                log_vprintf
 .text.log_printf
                0x0002c170       0x18 mesh/core/libmesh_core_nrf52832_xxAA.a(log.c.obj)
                0x0002c170                log_printf
 .text.get_area_end
                0x0002c188        0xc mesh/core/libmesh_core_nrf52832_xxAA.a(flash_manager.c.obj)
 .text.handle_matches_filter
                0x0002c194       0x26 mesh/core/libmesh_core_nrf52832_xxAA.a(flash_manager.c.obj)
 *fill*         0x0002c1ba        0x2 
 .text.get_packet_buffer
                0x0002c1bc       0x2c mesh/core/libmesh_core_nrf52832_xxAA.a(flash_manager.c.obj)
 .text.get_entry_action
                0x0002c1e8       0x30 mesh/core/libmesh_core_nrf52832_xxAA.a(flash_manager.c.obj)
 .text.flash_area_is_blank
                0x0002c218       0x48 mesh/core/libmesh_core_nrf52832_xxAA.a(flash_manager.c.obj)
 .text.flash    0x0002c260       0x1c mesh/core/libmesh_core_nrf52832_xxAA.a(flash_manager.c.obj)
 .text.free_packet_buffer
                0x0002c27c       0x54 mesh/core/libmesh_core_nrf52832_xxAA.a(flash_manager.c.obj)
 .text.reserve_action_buffer
                0x0002c2d0       0x24 mesh/core/libmesh_core_nrf52832_xxAA.a(flash_manager.c.obj)
 .text.commit_action_buffer
                0x0002c2f4       0x18 mesh/core/libmesh_core_nrf52832_xxAA.a(flash_manager.c.obj)
 .text.schedule_processing
                0x0002c30c        0xc mesh/core/libmesh_core_nrf52832_xxAA.a(flash_manager.c.obj)
 .text.get_next_entry
                0x0002c318       0x40 mesh/core/libmesh_core_nrf52832_xxAA.a(flash_manager.c.obj)
 .text.get_last_entry.isra.1
                0x0002c358       0x30 mesh/core/libmesh_core_nrf52832_xxAA.a(flash_manager.c.obj)
 .text.process_action_queue
                0x0002c388      0x4e4 mesh/core/libmesh_core_nrf52832_xxAA.a(flash_manager.c.obj)
 .text.flash_op_ended_callback
                0x0002c86c       0x24 mesh/core/libmesh_core_nrf52832_xxAA.a(flash_manager.c.obj)
 .text.flash_manager_init
                0x0002c890       0x68 mesh/core/libmesh_core_nrf52832_xxAA.a(flash_manager.c.obj)
                0x0002c890                flash_manager_init
 .text.flash_manager_entry_next_get
                0x0002c8f8       0x6c mesh/core/libmesh_core_nrf52832_xxAA.a(flash_manager.c.obj)
                0x0002c8f8                flash_manager_entry_next_get
 .text.flash_manager_entry_alloc
                0x0002c964       0x78 mesh/core/libmesh_core_nrf52832_xxAA.a(flash_manager.c.obj)
                0x0002c964                flash_manager_entry_alloc
 .text.flash_manager_entry_commit
                0x0002c9dc       0x12 mesh/core/libmesh_core_nrf52832_xxAA.a(flash_manager.c.obj)
                0x0002c9dc                flash_manager_entry_commit
 *fill*         0x0002c9ee        0x2 
 .text.flash_manager_entry_invalidate
                0x0002c9f0       0x64 mesh/core/libmesh_core_nrf52832_xxAA.a(flash_manager.c.obj)
                0x0002c9f0                flash_manager_entry_invalidate
 .text.flash_manager_add
                0x0002ca54      0x248 mesh/core/libmesh_core_nrf52832_xxAA.a(flash_manager.c.obj)
                0x0002ca54                flash_manager_add
 .text.flash_manager_mem_listener_register
                0x0002cc9c       0x44 mesh/core/libmesh_core_nrf52832_xxAA.a(flash_manager.c.obj)
                0x0002cc9c                flash_manager_mem_listener_register
 .text.flash_manager_is_stable
                0x0002cce0       0x24 mesh/core/libmesh_core_nrf52832_xxAA.a(flash_manager.c.obj)
                0x0002cce0                flash_manager_is_stable
 .text.flash_manager_on_defrag_end
                0x0002cd04       0x58 mesh/core/libmesh_core_nrf52832_xxAA.a(flash_manager.c.obj)
                0x0002cd04                flash_manager_on_defrag_end
 .text.flash_manager_recovery_page_get
                0x0002cd5c        0x4 mesh/core/libmesh_core_nrf52832_xxAA.a(flash_manager.c.obj)
                0x0002cd5c                flash_manager_recovery_page_get
 .text.utils_xor
                0x0002cd60       0x14 mesh/core/libmesh_core_nrf52832_xxAA.a(ccm_soft.c.obj)
 .text.ccm_soft_authenticate_blocks
                0x0002cd74       0x68 mesh/core/libmesh_core_nrf52832_xxAA.a(ccm_soft.c.obj)
 .text.utils_reverse_memcpy.constprop.0
                0x0002cddc        0xa mesh/core/libmesh_core_nrf52832_xxAA.a(ccm_soft.c.obj)
 .text.ccm_soft_authenticate
                0x0002cde6       0xa0 mesh/core/libmesh_core_nrf52832_xxAA.a(ccm_soft.c.obj)
 .text.ccm_soft_crypt
                0x0002ce86       0x6c mesh/core/libmesh_core_nrf52832_xxAA.a(ccm_soft.c.obj)
 .text.ccm_soft_encrypt
                0x0002cef2       0x70 mesh/core/libmesh_core_nrf52832_xxAA.a(ccm_soft.c.obj)
                0x0002cef2                ccm_soft_encrypt
 .text.ccm_soft_decrypt
                0x0002cf62       0xfe mesh/core/libmesh_core_nrf52832_xxAA.a(ccm_soft.c.obj)
                0x0002cf62                ccm_soft_decrypt
 .text.beacon_init
                0x0002d060       0x48 mesh/core/libmesh_core_nrf52832_xxAA.a(beacon.c.obj)
                0x0002d060                beacon_init
 .text.beacon_create
                0x0002d0a8       0x46 mesh/core/libmesh_core_nrf52832_xxAA.a(beacon.c.obj)
                0x0002d0a8                beacon_create
 *fill*         0x0002d0ee        0x2 
 .text.beacon_tx
                0x0002d0f0       0x3c mesh/core/libmesh_core_nrf52832_xxAA.a(beacon.c.obj)
                0x0002d0f0                beacon_tx
 .text.beacon_packet_in
                0x0002d12c      0x160 mesh/core/libmesh_core_nrf52832_xxAA.a(beacon.c.obj)
                0x0002d12c                beacon_packet_in
 .text.entry_get
                0x0002d28c       0x88 mesh/core/libmesh_core_nrf52832_xxAA.a(flash_manager_internal.c.obj)
                0x0002d28c                entry_get
 .text.is_power_of_two
                0x0002d314        0xe mesh/core/libmesh_core_nrf52832_xxAA.a(core_tx.c.obj)
 *fill*         0x0002d322        0x2 
 .text.bearer_if_get
                0x0002d324       0x44 mesh/core/libmesh_core_nrf52832_xxAA.a(core_tx.c.obj)
 .text.core_tx_complete_cb_set
                0x0002d368        0xc mesh/core/libmesh_core_nrf52832_xxAA.a(core_tx.c.obj)
                0x0002d368                core_tx_complete_cb_set
 .text.core_tx_packet_alloc
                0x0002d374       0x88 mesh/core/libmesh_core_nrf52832_xxAA.a(core_tx.c.obj)
                0x0002d374                core_tx_packet_alloc
 .text.core_tx_packet_send
                0x0002d3fc       0x80 mesh/core/libmesh_core_nrf52832_xxAA.a(core_tx.c.obj)
                0x0002d3fc                core_tx_packet_send
 .text.core_tx_packet_discard
                0x0002d47c       0x80 mesh/core/libmesh_core_nrf52832_xxAA.a(core_tx.c.obj)
                0x0002d47c                core_tx_packet_discard
 .text.core_tx_complete
                0x0002d4fc       0x10 mesh/core/libmesh_core_nrf52832_xxAA.a(core_tx.c.obj)
                0x0002d4fc                core_tx_complete
 .text.core_tx_bearer_register
                0x0002d50c       0x84 mesh/core/libmesh_core_nrf52832_xxAA.a(core_tx.c.obj)
                0x0002d50c                core_tx_bearer_register
 .text.heartbeat_subscription_timer_cb
                0x0002d590       0x1c mesh/core/libmesh_core_nrf52832_xxAA.a(heartbeat.c.obj)
 .text.heartbeat_opcode_handle
                0x0002d5ac       0x78 mesh/core/libmesh_core_nrf52832_xxAA.a(heartbeat.c.obj)
 .text.heartbeat_send
                0x0002d624       0xd0 mesh/core/libmesh_core_nrf52832_xxAA.a(heartbeat.c.obj)
 .text.heartbeat_core_evt_cb
                0x0002d6f4       0x90 mesh/core/libmesh_core_nrf52832_xxAA.a(heartbeat.c.obj)
 .text.heartbeat_publication_timer_cb
                0x0002d784       0xc8 mesh/core/libmesh_core_nrf52832_xxAA.a(heartbeat.c.obj)
 .text.heartbeat_init
                0x0002d84c       0x8c mesh/core/libmesh_core_nrf52832_xxAA.a(heartbeat.c.obj)
                0x0002d84c                heartbeat_init
 .text.make_network_beacon_cmac
                0x0002d8d8       0x22 mesh/core/libmesh_core_nrf52832_xxAA.a(net_beacon.c.obj)
 *fill*         0x0002d8fa        0x2 
 .text.network_beacon_tx_cb
                0x0002d8fc       0xe8 mesh/core/libmesh_core_nrf52832_xxAA.a(net_beacon.c.obj)
 .text.net_beacon_init
                0x0002d9e4       0x60 mesh/core/libmesh_core_nrf52832_xxAA.a(net_beacon.c.obj)
                0x0002d9e4                net_beacon_init
 .text.net_beacon_packet_in
                0x0002da44      0x104 mesh/core/libmesh_core_nrf52832_xxAA.a(net_beacon.c.obj)
                0x0002da44                net_beacon_packet_in
 .text.packet_discard
                0x0002db48       0x14 mesh/core/libmesh_core_nrf52832_xxAA.a(core_tx_adv.c.obj)
 .text.packet_send
                0x0002db5c       0x14 mesh/core/libmesh_core_nrf52832_xxAA.a(core_tx_adv.c.obj)
 .text.packet_alloc
                0x0002db70       0x3c mesh/core/libmesh_core_nrf52832_xxAA.a(core_tx_adv.c.obj)
 .text.adv_tx_complete_callback
                0x0002dbac       0x30 mesh/core/libmesh_core_nrf52832_xxAA.a(core_tx_adv.c.obj)
 .text.core_tx_adv_init
                0x0002dbdc       0x58 mesh/core/libmesh_core_nrf52832_xxAA.a(core_tx_adv.c.obj)
                0x0002dbdc                core_tx_adv_init
 .text.core_tx_adv_count_get
                0x0002dc34       0x28 mesh/core/libmesh_core_nrf52832_xxAA.a(core_tx_adv.c.obj)
                0x0002dc34                core_tx_adv_count_get
 .text.core_tx_adv_interval_get
                0x0002dc5c       0x34 mesh/core/libmesh_core_nrf52832_xxAA.a(core_tx_adv.c.obj)
                0x0002dc5c                core_tx_adv_interval_get
 .text.ad_listener_subscribe
                0x0002dc90       0x5c mesh/core/libmesh_core_nrf52832_xxAA.a(ad_listener.c.obj)
                0x0002dc90                ad_listener_subscribe
 .text.ad_listener_process
                0x0002dcec       0x64 mesh/core/libmesh_core_nrf52832_xxAA.a(ad_listener.c.obj)
                0x0002dcec                ad_listener_process
 .text.adtype_filter_handle
                0x0002dd50       0x64 mesh/core/libmesh_core_nrf52832_xxAA.a(ad_type_filter.c.obj)
 .text.bearer_adtype_filtering_set
                0x0002ddb4       0x1c mesh/core/libmesh_core_nrf52832_xxAA.a(ad_type_filter.c.obj)
                0x0002ddb4                bearer_adtype_filtering_set
 .text.bearer_adtype_add
                0x0002ddd0       0x20 mesh/core/libmesh_core_nrf52832_xxAA.a(ad_type_filter.c.obj)
                0x0002ddd0                bearer_adtype_add
 .text.bearer_adtype_mode_set
                0x0002ddf0       0x24 mesh/core/libmesh_core_nrf52832_xxAA.a(ad_type_filter.c.obj)
                0x0002ddf0                bearer_adtype_mode_set
 .text.set_gap_addr_type
                0x0002de14       0x34 mesh/core/libmesh_core_nrf52832_xxAA.a(advertiser.c.obj)
 .text.tx_complete_event_callback
                0x0002de48       0x3c mesh/core/libmesh_core_nrf52832_xxAA.a(advertiser.c.obj)
 .text.broadcast_complete_cb
                0x0002de84       0x64 mesh/core/libmesh_core_nrf52832_xxAA.a(advertiser.c.obj)
 .text.schedule_first_time
                0x0002dee8       0x28 mesh/core/libmesh_core_nrf52832_xxAA.a(advertiser.c.obj)
 .text.timeout_event
                0x0002df10      0x130 mesh/core/libmesh_core_nrf52832_xxAA.a(advertiser.c.obj)
 .text.advertiser_init
                0x0002e040        0xc mesh/core/libmesh_core_nrf52832_xxAA.a(advertiser.c.obj)
                0x0002e040                advertiser_init
 .text.advertiser_enable
                0x0002e04c       0x2a mesh/core/libmesh_core_nrf52832_xxAA.a(advertiser.c.obj)
                0x0002e04c                advertiser_enable
 *fill*         0x0002e076        0x2 
 .text.advertiser_packet_alloc
                0x0002e078       0x94 mesh/core/libmesh_core_nrf52832_xxAA.a(advertiser.c.obj)
                0x0002e078                advertiser_packet_alloc
 .text.advertiser_packet_send
                0x0002e10c       0x78 mesh/core/libmesh_core_nrf52832_xxAA.a(advertiser.c.obj)
                0x0002e10c                advertiser_packet_send
 .text.advertiser_packet_discard
                0x0002e184       0x2c mesh/core/libmesh_core_nrf52832_xxAA.a(advertiser.c.obj)
                0x0002e184                advertiser_packet_discard
 .text.advertiser_interval_set
                0x0002e1b0       0x68 mesh/core/libmesh_core_nrf52832_xxAA.a(advertiser.c.obj)
                0x0002e1b0                advertiser_interval_set
 .text.advertiser_flush
                0x0002e218       0x1e mesh/core/libmesh_core_nrf52832_xxAA.a(advertiser.c.obj)
                0x0002e218                advertiser_flush
 *fill*         0x0002e236        0x2 
 .text.advertiser_address_default_get
                0x0002e238       0x38 mesh/core/libmesh_core_nrf52832_xxAA.a(advertiser.c.obj)
                0x0002e238                advertiser_address_default_get
 .text.advertiser_instance_init
                0x0002e270       0xbc mesh/core/libmesh_core_nrf52832_xxAA.a(advertiser.c.obj)
                0x0002e270                advertiser_instance_init
 .text.action_switch
                0x0002e32c       0xc0 mesh/core/libmesh_core_nrf52832_xxAA.a(bearer_handler.c.obj)
 .text.bearer_handler_init
                0x0002e3ec       0x2c mesh/core/libmesh_core_nrf52832_xxAA.a(bearer_handler.c.obj)
                0x0002e3ec                bearer_handler_init
 .text.bearer_handler_start
                0x0002e418       0x1c mesh/core/libmesh_core_nrf52832_xxAA.a(bearer_handler.c.obj)
                0x0002e418                bearer_handler_start
 .text.bearer_handler_action_enqueue
                0x0002e434       0x94 mesh/core/libmesh_core_nrf52832_xxAA.a(bearer_handler.c.obj)
                0x0002e434                bearer_handler_action_enqueue
 .text.bearer_handler_action_end
                0x0002e4c8       0x78 mesh/core/libmesh_core_nrf52832_xxAA.a(bearer_handler.c.obj)
                0x0002e4c8                bearer_handler_action_end
 .text.bearer_handler_radio_irq_handler
                0x0002e540       0x64 mesh/core/libmesh_core_nrf52832_xxAA.a(bearer_handler.c.obj)
                0x0002e540                bearer_handler_radio_irq_handler
 .text.bearer_handler_timer_irq_handler
                0x0002e5a4       0x30 mesh/core/libmesh_core_nrf52832_xxAA.a(bearer_handler.c.obj)
                0x0002e5a4                bearer_handler_timer_irq_handler
 .text.bearer_handler_on_ts_begin
                0x0002e5d4       0x44 mesh/core/libmesh_core_nrf52832_xxAA.a(bearer_handler.c.obj)
                0x0002e5d4                bearer_handler_on_ts_begin
 .text.bearer_handler_on_ts_end
                0x0002e618       0x48 mesh/core/libmesh_core_nrf52832_xxAA.a(bearer_handler.c.obj)
                0x0002e618                bearer_handler_on_ts_end
 .text.radio_irq_handler
                0x0002e660       0xb0 mesh/core/libmesh_core_nrf52832_xxAA.a(broadcast.c.obj)
 .text.broadcast_start
                0x0002e710       0x8c mesh/core/libmesh_core_nrf52832_xxAA.a(broadcast.c.obj)
 .text.broadcast_send
                0x0002e79c       0x80 mesh/core/libmesh_core_nrf52832_xxAA.a(broadcast.c.obj)
                0x0002e79c                broadcast_send
 .text.fen_filter_start
                0x0002e81c       0x3c mesh/core/libmesh_core_nrf52832_xxAA.a(filter_engine.c.obj)
                0x0002e81c                fen_filter_start
 .text.fen_filter_stop
                0x0002e858       0x2c mesh/core/libmesh_core_nrf52832_xxAA.a(filter_engine.c.obj)
                0x0002e858                fen_filter_stop
 .text.fen_filters_apply
                0x0002e884       0x34 mesh/core/libmesh_core_nrf52832_xxAA.a(filter_engine.c.obj)
                0x0002e884                fen_filters_apply
 .text.radio_config_reset
                0x0002e8b8       0x34 mesh/core/libmesh_core_nrf52832_xxAA.a(radio_config.c.obj)
                0x0002e8b8                radio_config_reset
 .text.radio_config_channel_set
                0x0002e8ec       0x34 mesh/core/libmesh_core_nrf52832_xxAA.a(radio_config.c.obj)
                0x0002e8ec                radio_config_channel_set
 .text.radio_config_config
                0x0002e920       0xa4 mesh/core/libmesh_core_nrf52832_xxAA.a(radio_config.c.obj)
                0x0002e920                radio_config_config
 .text.radio_config_access_addr_set
                0x0002e9c4       0x68 mesh/core/libmesh_core_nrf52832_xxAA.a(radio_config.c.obj)
                0x0002e9c4                radio_config_access_addr_set
 .text.radio_trigger
                0x0002ea2c       0x24 mesh/core/libmesh_core_nrf52832_xxAA.a(scanner.c.obj)
 .text.scan_window_end
                0x0002ea50       0x10 mesh/core/libmesh_core_nrf52832_xxAA.a(scanner.c.obj)
 .text.scan_window_start
                0x0002ea60       0x24 mesh/core/libmesh_core_nrf52832_xxAA.a(scanner.c.obj)
 .text.radio_configure
                0x0002ea84       0x78 mesh/core/libmesh_core_nrf52832_xxAA.a(scanner.c.obj)
 .text.radio_set_packet
                0x0002eafc       0x50 mesh/core/libmesh_core_nrf52832_xxAA.a(scanner.c.obj)
 .text.radio_start
                0x0002eb4c       0x4c mesh/core/libmesh_core_nrf52832_xxAA.a(scanner.c.obj)
 .text.radio_stop
                0x0002eb98       0x30 mesh/core/libmesh_core_nrf52832_xxAA.a(scanner.c.obj)
 .text.schedule_timers
                0x0002ebc8       0x38 mesh/core/libmesh_core_nrf52832_xxAA.a(scanner.c.obj)
 .text.scanner_radio_start
                0x0002ec00       0x28 mesh/core/libmesh_core_nrf52832_xxAA.a(scanner.c.obj)
                0x0002ec00                scanner_radio_start
 .text.scanner_radio_stop
                0x0002ec28       0x10 mesh/core/libmesh_core_nrf52832_xxAA.a(scanner.c.obj)
                0x0002ec28                scanner_radio_stop
 .text.scanner_radio_irq_handler
                0x0002ec38      0x13c mesh/core/libmesh_core_nrf52832_xxAA.a(scanner.c.obj)
                0x0002ec38                scanner_radio_irq_handler
 .text.scanner_enable
                0x0002ed74       0x30 mesh/core/libmesh_core_nrf52832_xxAA.a(scanner.c.obj)
                0x0002ed74                scanner_enable
 .text.scanner_packet_release
                0x0002eda4       0x38 mesh/core/libmesh_core_nrf52832_xxAA.a(scanner.c.obj)
                0x0002eda4                scanner_packet_release
 .text.scanner_rx
                0x0002eddc       0x30 mesh/core/libmesh_core_nrf52832_xxAA.a(scanner.c.obj)
                0x0002eddc                scanner_rx
 .text.scanner_rx_pending
                0x0002ee0c        0xc mesh/core/libmesh_core_nrf52832_xxAA.a(scanner.c.obj)
                0x0002ee0c                scanner_rx_pending
 .text.scanner_config_scan_time_set
                0x0002ee18       0x68 mesh/core/libmesh_core_nrf52832_xxAA.a(scanner.c.obj)
                0x0002ee18                scanner_config_scan_time_set
 .text.scanner_config_channels_set
                0x0002ee80       0x64 mesh/core/libmesh_core_nrf52832_xxAA.a(scanner.c.obj)
                0x0002ee80                scanner_config_channels_set
 .text.scanner_config_access_addresses_set
                0x0002eee4       0x44 mesh/core/libmesh_core_nrf52832_xxAA.a(scanner.c.obj)
                0x0002eee4                scanner_config_access_addresses_set
 .text.scanner_config_reset
                0x0002ef28       0x50 mesh/core/libmesh_core_nrf52832_xxAA.a(scanner.c.obj)
                0x0002ef28                scanner_config_reset
 .text.scanner_init
                0x0002ef78       0x54 mesh/core/libmesh_core_nrf52832_xxAA.a(scanner.c.obj)
                0x0002ef78                scanner_init
 .text.internal_event_push
                0x0002efcc       0x28 mesh/core/libmesh_core_nrf52832_xxAA.a(internal_event.c.obj)
                0x0002efcc                internal_event_push
 .text.sd_ecb_block_encrypt
                0x0002eff4        0x4 mesh/core/libmesh_core_nrf52832_xxAA.a(aes.c.obj)
 .text.aes_encrypt
                0x0002eff8       0x32 mesh/core/libmesh_core_nrf52832_xxAA.a(aes.c.obj)
                0x0002eff8                aes_encrypt
 *fill*         0x0002f02a        0x2 
 .text.msg_cache_init
                0x0002f02c       0x24 mesh/core/libmesh_core_nrf52832_xxAA.a(msg_cache.c.obj)
                0x0002f02c                msg_cache_init
 .text.msg_cache_entry_exists
                0x0002f050       0x3c mesh/core/libmesh_core_nrf52832_xxAA.a(msg_cache.c.obj)
                0x0002f050                msg_cache_entry_exists
 .text.msg_cache_entry_add
                0x0002f08c       0x2c mesh/core/libmesh_core_nrf52832_xxAA.a(msg_cache.c.obj)
                0x0002f08c                msg_cache_entry_add
 .text.block_ack_full
                0x0002f0b8       0x28 mesh/core/libmesh_core_nrf52832_xxAA.a(transport.c.obj)
 .text.seqauth_sequence_number_get
                0x0002f0e0       0x12 mesh/core/libmesh_core_nrf52832_xxAA.a(transport.c.obj)
 *fill*         0x0002f0f2        0x2 
 .text.sar_rx_session_mark_as_handled
                0x0002f0f4       0x54 mesh/core/libmesh_core_nrf52832_xxAA.a(transport.c.obj)
 .text.sar_ctx_find
                0x0002f148       0x3c mesh/core/libmesh_core_nrf52832_xxAA.a(transport.c.obj)
 .text.control_packet_callback_get
                0x0002f184       0x44 mesh/core/libmesh_core_nrf52832_xxAA.a(transport.c.obj)
 .text.m_send_sar_cancel_event
                0x0002f1c8       0x28 mesh/core/libmesh_core_nrf52832_xxAA.a(transport.c.obj)
 .text.tx_complete
                0x0002f1f0       0x34 mesh/core/libmesh_core_nrf52832_xxAA.a(transport.c.obj)
 .text.upper_trs_packet_encrypt
                0x0002f224       0xbc mesh/core/libmesh_core_nrf52832_xxAA.a(transport.c.obj)
 .text.sar_ctx_free
                0x0002f2e0       0x3c mesh/core/libmesh_core_nrf52832_xxAA.a(transport.c.obj)
 .text.sar_ctx_tx_complete
                0x0002f31c       0xb8 mesh/core/libmesh_core_nrf52832_xxAA.a(transport.c.obj)
 .text.sar_ctx_cancel
                0x0002f3d4      0x108 mesh/core/libmesh_core_nrf52832_xxAA.a(transport.c.obj)
 .text.abort_timeout
                0x0002f4dc        0x8 mesh/core/libmesh_core_nrf52832_xxAA.a(transport.c.obj)
 .text.sar_ctx_alloc
                0x0002f4e4       0xbc mesh/core/libmesh_core_nrf52832_xxAA.a(transport.c.obj)
 .text.test_transport_decrypt
                0x0002f5a0       0x88 mesh/core/libmesh_core_nrf52832_xxAA.a(transport.c.obj)
 .text.upper_transport_access_packet_in
                0x0002f628      0x28c mesh/core/libmesh_core_nrf52832_xxAA.a(transport.c.obj)
 .text.trs_packet_header_build
                0x0002f8b4       0xa6 mesh/core/libmesh_core_nrf52832_xxAA.a(transport.c.obj)
 *fill*         0x0002f95a        0x2 
 .text.tx_retry_timer_reset
                0x0002f95c       0x50 mesh/core/libmesh_core_nrf52832_xxAA.a(transport.c.obj)
 .text.trs_sar_packet_out
                0x0002f9ac       0xec mesh/core/libmesh_core_nrf52832_xxAA.a(transport.c.obj)
 .text.retry_timeout
                0x0002fa98       0x54 mesh/core/libmesh_core_nrf52832_xxAA.a(transport.c.obj)
 .text.upper_transport_packet_in
                0x0002faec      0x1b0 mesh/core/libmesh_core_nrf52832_xxAA.a(transport.c.obj)
 .text.upper_transport_tx
                0x0002fc9c      0x230 mesh/core/libmesh_core_nrf52832_xxAA.a(transport.c.obj)
 .text.transport_sar_mem_funcs_reset
                0x0002fecc       0x28 mesh/core/libmesh_core_nrf52832_xxAA.a(transport.c.obj)
                0x0002fecc                transport_sar_mem_funcs_reset
 .text.transport_init
                0x0002fef4       0x7c mesh/core/libmesh_core_nrf52832_xxAA.a(transport.c.obj)
                0x0002fef4                transport_init
 .text.transport_tx
                0x0002ff70       0xa4 mesh/core/libmesh_core_nrf52832_xxAA.a(transport.c.obj)
                0x0002ff70                transport_tx
 .text.transport_control_tx
                0x00030014       0x8e mesh/core/libmesh_core_nrf52832_xxAA.a(transport.c.obj)
                0x00030014                transport_control_tx
 *fill*         0x000300a2        0x2 
 .text.sar_ack_send
                0x000300a4      0x124 mesh/core/libmesh_core_nrf52832_xxAA.a(transport.c.obj)
 .text.transport_sar_process
                0x000301c8       0x74 mesh/core/libmesh_core_nrf52832_xxAA.a(transport.c.obj)
 .text.transport_packet_in
                0x0003023c      0x524 mesh/core/libmesh_core_nrf52832_xxAA.a(transport.c.obj)
                0x0003023c                transport_packet_in
 .text.ack_timeout
                0x00030760       0x34 mesh/core/libmesh_core_nrf52832_xxAA.a(transport.c.obj)
 .text.transport_opt_get
                0x00030794       0x68 mesh/core/libmesh_core_nrf52832_xxAA.a(transport.c.obj)
                0x00030794                transport_opt_get
 .text.transport_control_packet_consumer_add
                0x000307fc       0x5c mesh/core/libmesh_core_nrf52832_xxAA.a(transport.c.obj)
                0x000307fc                transport_control_packet_consumer_add
 .text.m_adjust_desired_packet_length
                0x00030858       0x34 mesh/core/libmesh_core_nrf52832_xxAA.a(packet_buffer.c.obj)
 .text.m_index_increment.part.0
                0x0003088c       0x14 mesh/core/libmesh_core_nrf52832_xxAA.a(packet_buffer.c.obj)
 .text.m_free_popped_packet
                0x000308a0       0x60 mesh/core/libmesh_core_nrf52832_xxAA.a(packet_buffer.c.obj)
 .text.free_skipped_packets
                0x00030900       0x1c mesh/core/libmesh_core_nrf52832_xxAA.a(packet_buffer.c.obj)
 .text.packet_buffer_init
                0x0003091c       0xe0 mesh/core/libmesh_core_nrf52832_xxAA.a(packet_buffer.c.obj)
                0x0003091c                packet_buffer_init
 .text.packet_buffer_flush
                0x000309fc       0x5e mesh/core/libmesh_core_nrf52832_xxAA.a(packet_buffer.c.obj)
                0x000309fc                packet_buffer_flush
 *fill*         0x00030a5a        0x2 
 .text.packet_buffer_reserve
                0x00030a5c      0x11c mesh/core/libmesh_core_nrf52832_xxAA.a(packet_buffer.c.obj)
                0x00030a5c                packet_buffer_reserve
 .text.packet_buffer_commit
                0x00030b78      0x104 mesh/core/libmesh_core_nrf52832_xxAA.a(packet_buffer.c.obj)
                0x00030b78                packet_buffer_commit
 .text.packet_buffer_pop
                0x00030c7c       0x58 mesh/core/libmesh_core_nrf52832_xxAA.a(packet_buffer.c.obj)
                0x00030c7c                packet_buffer_pop
 .text.packet_buffer_can_pop
                0x00030cd4       0x28 mesh/core/libmesh_core_nrf52832_xxAA.a(packet_buffer.c.obj)
                0x00030cd4                packet_buffer_can_pop
 .text.packet_buffer_packets_ready_to_pop
                0x00030cfc       0x58 mesh/core/libmesh_core_nrf52832_xxAA.a(packet_buffer.c.obj)
                0x00030cfc                packet_buffer_packets_ready_to_pop
 .text.packet_buffer_free
                0x00030d54       0x8c mesh/core/libmesh_core_nrf52832_xxAA.a(packet_buffer.c.obj)
                0x00030d54                packet_buffer_free
 .text.get_last_page
                0x00030de0       0x14 mesh/core/libmesh_core_nrf52832_xxAA.a(flash_manager_defrag.c.obj)
 .text.defrag_on_end
                0x00030df4       0x1c mesh/core/libmesh_core_nrf52832_xxAA.a(flash_manager_defrag.c.obj)
 .text.execute_procedure_step
                0x00030e10       0xa0 mesh/core/libmesh_core_nrf52832_xxAA.a(flash_manager_defrag.c.obj)
 .text.get_next_entry
                0x00030eb0       0x40 mesh/core/libmesh_core_nrf52832_xxAA.a(flash_manager_defrag.c.obj)
 .text.get_next_data_entry
                0x00030ef0       0x20 mesh/core/libmesh_core_nrf52832_xxAA.a(flash_manager_defrag.c.obj)
 .text.on_flash_op_end
                0x00030f10       0x30 mesh/core/libmesh_core_nrf52832_xxAA.a(flash_manager_defrag.c.obj)
 .text.check_for_invalid_entries
                0x00030f40       0x38 mesh/core/libmesh_core_nrf52832_xxAA.a(flash_manager_defrag.c.obj)
 .text.erase_recovery_area
                0x00030f78       0x34 mesh/core/libmesh_core_nrf52832_xxAA.a(flash_manager_defrag.c.obj)
 .text.flash.constprop.6
                0x00030fac       0x24 mesh/core/libmesh_core_nrf52832_xxAA.a(flash_manager_defrag.c.obj)
 .text.seal_storage_page
                0x00030fd0       0x50 mesh/core/libmesh_core_nrf52832_xxAA.a(flash_manager_defrag.c.obj)
 .text.invalidate_duplicate_entries
                0x00031020       0x9c mesh/core/libmesh_core_nrf52832_xxAA.a(flash_manager_defrag.c.obj)
 .text.copy_metadata
                0x000310bc       0x3c mesh/core/libmesh_core_nrf52832_xxAA.a(flash_manager_defrag.c.obj)
 .text.write_defrag_start_pointer
                0x000310f8       0x20 mesh/core/libmesh_core_nrf52832_xxAA.a(flash_manager_defrag.c.obj)
 .text.write_back
                0x00031118       0x28 mesh/core/libmesh_core_nrf52832_xxAA.a(flash_manager_defrag.c.obj)
 .text.post_process
                0x00031140       0x40 mesh/core/libmesh_core_nrf52832_xxAA.a(flash_manager_defrag.c.obj)
 .text.backup_entries
                0x00031180      0x118 mesh/core/libmesh_core_nrf52832_xxAA.a(flash_manager_defrag.c.obj)
 .text.erase_source
                0x00031298       0x34 mesh/core/libmesh_core_nrf52832_xxAA.a(flash_manager_defrag.c.obj)
 .text.flash_manager_defrag_init
                0x000312cc       0x98 mesh/core/libmesh_core_nrf52832_xxAA.a(flash_manager_defrag.c.obj)
                0x000312cc                flash_manager_defrag_init
 .text.flash_manager_defrag_is_running
                0x00031364       0x10 mesh/core/libmesh_core_nrf52832_xxAA.a(flash_manager_defrag.c.obj)
                0x00031364                flash_manager_defrag_is_running
 .text.flash_manager_defrag
                0x00031374       0xd8 mesh/core/libmesh_core_nrf52832_xxAA.a(flash_manager_defrag.c.obj)
                0x00031374                flash_manager_defrag
 .text.flash_manager_defrag_recovery_page_get
                0x0003144c        0xc mesh/core/libmesh_core_nrf52832_xxAA.a(flash_manager_defrag.c.obj)
                0x0003144c                flash_manager_defrag_recovery_page_get
 .text.packet_mgr_init
                0x00031458       0x4c mesh/core/libmesh_core_nrf52832_xxAA.a(packet_mgr.c.obj)
                0x00031458                packet_mgr_init
 .text.send_end_events
                0x000314a4       0x84 mesh/core/libmesh_core_nrf52832_xxAA.a(mesh_flash.c.obj)
 .text.flash_op_schedule
                0x00031528       0x9c mesh/core/libmesh_core_nrf52832_xxAA.a(mesh_flash.c.obj)
 .text.flash_op_start
                0x000315c4      0x170 mesh/core/libmesh_core_nrf52832_xxAA.a(mesh_flash.c.obj)
 .text.mesh_flash_init
                0x00031734       0x88 mesh/core/libmesh_core_nrf52832_xxAA.a(mesh_flash.c.obj)
                0x00031734                mesh_flash_init
 .text.mesh_flash_user_callback_set
                0x000317bc       0x2c mesh/core/libmesh_core_nrf52832_xxAA.a(mesh_flash.c.obj)
                0x000317bc                mesh_flash_user_callback_set
 .text.mesh_flash_op_push
                0x000317e8      0x128 mesh/core/libmesh_core_nrf52832_xxAA.a(mesh_flash.c.obj)
                0x000317e8                mesh_flash_op_push
 .text.queue_init
                0x00031910       0x20 mesh/core/libmesh_core_nrf52832_xxAA.a(queue.c.obj)
                0x00031910                queue_init
 .text.queue_push
                0x00031930       0x48 mesh/core/libmesh_core_nrf52832_xxAA.a(queue.c.obj)
                0x00031930                queue_push
 .text.queue_pop
                0x00031978       0x34 mesh/core/libmesh_core_nrf52832_xxAA.a(queue.c.obj)
                0x00031978                queue_pop
 .text.queue_peek
                0x000319ac       0x1c mesh/core/libmesh_core_nrf52832_xxAA.a(queue.c.obj)
                0x000319ac                queue_peek
 .text.my_xor.constprop.1
                0x000319c8       0x20 mesh/core/libmesh_core_nrf52832_xxAA.a(aes_cmac.c.obj)
 .text.utils_lshift.constprop.2
                0x000319e8       0x24 mesh/core/libmesh_core_nrf52832_xxAA.a(aes_cmac.c.obj)
 .text.aes_cmac_subkey_generate
                0x00031a0c       0x6c mesh/core/libmesh_core_nrf52832_xxAA.a(aes_cmac.c.obj)
                0x00031a0c                aes_cmac_subkey_generate
 .text.aes_cmac
                0x00031a78       0xbc mesh/core/libmesh_core_nrf52832_xxAA.a(aes_cmac.c.obj)
                0x00031a78                aes_cmac
 .text.nrf_mesh_opt_get
                0x00031b34       0x26 mesh/core/libmesh_core_nrf52832_xxAA.a(nrf_mesh_opt.c.obj)
                0x00031b34                nrf_mesh_opt_get
 .text.stage_get_available
                0x00031b5a       0x24 mesh/core/libmesh_core_nrf52832_xxAA.a(msqueue.c.obj)
 *fill*         0x00031b7e        0x2 
 .text.msq_get  0x00031b80       0x4c mesh/core/libmesh_core_nrf52832_xxAA.a(msqueue.c.obj)
                0x00031b80                msq_get
 .text.msq_move
                0x00031bcc       0x44 mesh/core/libmesh_core_nrf52832_xxAA.a(msqueue.c.obj)
                0x00031bcc                msq_move
 .text.msq_reset
                0x00031c10       0x2c mesh/core/libmesh_core_nrf52832_xxAA.a(msqueue.c.obj)
                0x00031c10                msq_reset
 .text.msq_init
                0x00031c3c       0x78 mesh/core/libmesh_core_nrf52832_xxAA.a(msqueue.c.obj)
                0x00031c3c                msq_init
 .text.msq_available
                0x00031cb4       0x3c mesh/core/libmesh_core_nrf52832_xxAA.a(msqueue.c.obj)
                0x00031cb4                msq_available
 .text.replay_cache_add
                0x00031cf0       0x60 mesh/core/libmesh_core_nrf52832_xxAA.a(replay_cache.c.obj)
                0x00031cf0                replay_cache_add
 .text.replay_cache_has_room
                0x00031d50       0x38 mesh/core/libmesh_core_nrf52832_xxAA.a(replay_cache.c.obj)
                0x00031d50                replay_cache_has_room
 .text.replay_cache_has_elem
                0x00031d88       0x38 mesh/core/libmesh_core_nrf52832_xxAA.a(replay_cache.c.obj)
                0x00031d88                replay_cache_has_elem
 .text.replay_cache_clear
                0x00031dc0       0x28 mesh/core/libmesh_core_nrf52832_xxAA.a(replay_cache.c.obj)
                0x00031dc0                replay_cache_clear
 .text.replay_cache_init
                0x00031de8        0x4 mesh/core/libmesh_core_nrf52832_xxAA.a(replay_cache.c.obj)
                0x00031de8                replay_cache_init
 .text.wait_for_ready
                0x00031dec       0x10 mesh/core/libmesh_core_nrf52832_xxAA.a(nrf_flash.c.obj)
 .text.nrf_flash_erase
                0x00031dfc       0x50 mesh/core/libmesh_core_nrf52832_xxAA.a(nrf_flash.c.obj)
                0x00031dfc                nrf_flash_erase
 .text.nrf_flash_write
                0x00031e4c       0x50 mesh/core/libmesh_core_nrf52832_xxAA.a(nrf_flash.c.obj)
                0x00031e4c                nrf_flash_write
 .text._GetAvailWriteSpace
                0x00031e9c       0x1c external/rtt/librtt_nrf52832_xxAA.a(SEGGER_RTT.c.obj)
 .text._WriteNoCheck
                0x00031eb8       0x3c external/rtt/librtt_nrf52832_xxAA.a(SEGGER_RTT.c.obj)
 .text._WriteBlocking
                0x00031ef4       0x52 external/rtt/librtt_nrf52832_xxAA.a(SEGGER_RTT.c.obj)
 *fill*         0x00031f46        0x2 
 .text._DoInit  0x00031f48       0x60 external/rtt/librtt_nrf52832_xxAA.a(SEGGER_RTT.c.obj)
 .text.SEGGER_RTT_ReadNoLock
                0x00031fa8       0x88 external/rtt/librtt_nrf52832_xxAA.a(SEGGER_RTT.c.obj)
                0x00031fa8                SEGGER_RTT_ReadNoLock
 .text.SEGGER_RTT_Read
                0x00032030       0x1c external/rtt/librtt_nrf52832_xxAA.a(SEGGER_RTT.c.obj)
                0x00032030                SEGGER_RTT_Read
 .text.SEGGER_RTT_WriteNoLock
                0x0003204c       0x68 external/rtt/librtt_nrf52832_xxAA.a(SEGGER_RTT.c.obj)
                0x0003204c                SEGGER_RTT_WriteNoLock
 .text.SEGGER_RTT_Write
                0x000320b4       0x34 external/rtt/librtt_nrf52832_xxAA.a(SEGGER_RTT.c.obj)
                0x000320b4                SEGGER_RTT_Write
 .text.SEGGER_RTT_GetKey
                0x000320e8       0x20 external/rtt/librtt_nrf52832_xxAA.a(SEGGER_RTT.c.obj)
                0x000320e8                SEGGER_RTT_GetKey
 .text._StoreChar
                0x00032108       0x3e external/rtt/librtt_nrf52832_xxAA.a(SEGGER_RTT_printf.c.obj)
 *fill*         0x00032146        0x2 
 .text._PrintUnsigned
                0x00032148       0xd0 external/rtt/librtt_nrf52832_xxAA.a(SEGGER_RTT_printf.c.obj)
 .text.SEGGER_RTT_vprintf
                0x00032218      0x246 external/rtt/librtt_nrf52832_xxAA.a(SEGGER_RTT_printf.c.obj)
                0x00032218                SEGGER_RTT_vprintf
 .text.SEGGER_RTT_printf
                0x0003245e       0x1e external/rtt/librtt_nrf52832_xxAA.a(SEGGER_RTT_printf.c.obj)
                0x0003245e                SEGGER_RTT_printf
 .text.uECC_vli_mult
                0x0003247c       0x64 external/micro-ecc/libuECC_nrf52832_xxAA.a(uECC.c.obj)
 .text.uECC_vli_clear
                0x000324e0       0x16 external/micro-ecc/libuECC_nrf52832_xxAA.a(uECC.c.obj)
 .text.uECC_vli_isZero
                0x000324f6       0x1e external/micro-ecc/libuECC_nrf52832_xxAA.a(uECC.c.obj)
 .text.uECC_vli_testBit
                0x00032514       0x14 external/micro-ecc/libuECC_nrf52832_xxAA.a(uECC.c.obj)
 .text.uECC_vli_numBits
                0x00032528       0x3a external/micro-ecc/libuECC_nrf52832_xxAA.a(uECC.c.obj)
 .text.uECC_vli_set
                0x00032562       0x18 external/micro-ecc/libuECC_nrf52832_xxAA.a(uECC.c.obj)
 .text.uECC_vli_cmp_unsafe
                0x0003257a       0x28 external/micro-ecc/libuECC_nrf52832_xxAA.a(uECC.c.obj)
 .text.uECC_vli_rshift1
                0x000325a2       0x1c external/micro-ecc/libuECC_nrf52832_xxAA.a(uECC.c.obj)
 .text.uECC_vli_modMult_fast
                0x000325be       0x20 external/micro-ecc/libuECC_nrf52832_xxAA.a(uECC.c.obj)
 .text.uECC_vli_modSquare_fast
                0x000325de        0x8 external/micro-ecc/libuECC_nrf52832_xxAA.a(uECC.c.obj)
 .text.apply_z  0x000325e6       0x3e external/micro-ecc/libuECC_nrf52832_xxAA.a(uECC.c.obj)
 .text.uECC_vli_nativeToBytes
                0x00032624       0x28 external/micro-ecc/libuECC_nrf52832_xxAA.a(uECC.c.obj)
 .text.uECC_vli_bytesToNative
                0x0003264c       0x40 external/micro-ecc/libuECC_nrf52832_xxAA.a(uECC.c.obj)
 .text.default_RNG
                0x0003268c        0xc external/micro-ecc/libuECC_nrf52832_xxAA.a(uECC.c.obj)
 .text.uECC_vli_add.isra.0
                0x00032698       0x4a external/micro-ecc/libuECC_nrf52832_xxAA.a(uECC.c.obj)
 .text.regularize_k
                0x000326e2       0x50 external/micro-ecc/libuECC_nrf52832_xxAA.a(uECC.c.obj)
 .text.uECC_vli_sub.isra.1
                0x00032732       0x4e external/micro-ecc/libuECC_nrf52832_xxAA.a(uECC.c.obj)
 .text.uECC_vli_cmp
                0x00032780       0x30 external/micro-ecc/libuECC_nrf52832_xxAA.a(uECC.c.obj)
 .text.uECC_generate_random_int
                0x000327b0       0x78 external/micro-ecc/libuECC_nrf52832_xxAA.a(uECC.c.obj)
 .text.uECC_vli_modAdd
                0x00032828       0x2e external/micro-ecc/libuECC_nrf52832_xxAA.a(uECC.c.obj)
 *fill*         0x00032856        0x2 
 .text.vli_mmod_fast_secp256r1
                0x00032858      0x194 external/micro-ecc/libuECC_nrf52832_xxAA.a(uECC.c.obj)
 .text.uECC_vli_modSub.isra.2
                0x000329ec       0x1c external/micro-ecc/libuECC_nrf52832_xxAA.a(uECC.c.obj)
 .text.double_jacobian_default
                0x00032a08      0x14a external/micro-ecc/libuECC_nrf52832_xxAA.a(uECC.c.obj)
 .text.x_side_default
                0x00032b52       0x5a external/micro-ecc/libuECC_nrf52832_xxAA.a(uECC.c.obj)
 .text.XYcZ_add
                0x00032bac       0xbc external/micro-ecc/libuECC_nrf52832_xxAA.a(uECC.c.obj)
 .text.XYcZ_addC
                0x00032c68      0x10a external/micro-ecc/libuECC_nrf52832_xxAA.a(uECC.c.obj)
 .text.vli_modInv_update
                0x00032d72       0x36 external/micro-ecc/libuECC_nrf52832_xxAA.a(uECC.c.obj)
 .text.uECC_vli_modInv
                0x00032da8      0x102 external/micro-ecc/libuECC_nrf52832_xxAA.a(uECC.c.obj)
 .text.EccPoint_mult
                0x00032eaa      0x19e external/micro-ecc/libuECC_nrf52832_xxAA.a(uECC.c.obj)
 .text.EccPoint_compute_public_key
                0x00033048       0x54 external/micro-ecc/libuECC_nrf52832_xxAA.a(uECC.c.obj)
 .text.uECC_secp256r1
                0x0003309c        0x8 external/micro-ecc/libuECC_nrf52832_xxAA.a(uECC.c.obj)
                0x0003309c                uECC_secp256r1
 .text.uECC_make_key
                0x000330a4       0x7e external/micro-ecc/libuECC_nrf52832_xxAA.a(uECC.c.obj)
                0x000330a4                uECC_make_key
 *fill*         0x00033122        0x2 
 .text.uECC_shared_secret
                0x00033124       0xbc external/micro-ecc/libuECC_nrf52832_xxAA.a(uECC.c.obj)
                0x00033124                uECC_shared_secret
 .text.uECC_valid_point
                0x000331e0       0x86 external/micro-ecc/libuECC_nrf52832_xxAA.a(uECC.c.obj)
                0x000331e0                uECC_valid_point
 .text.uECC_valid_public_key
                0x00033266       0x32 external/micro-ecc/libuECC_nrf52832_xxAA.a(uECC.c.obj)
                0x00033266                uECC_valid_public_key
 .text          0x00033298       0x30 c:/a/gcc_arm/6/bin/../lib/gcc/arm-none-eabi/6.3.1/thumb/v7e-m/fpv4-sp/hard\libgcc.a(_aeabi_uldivmod.o)
                0x00033298                __aeabi_uldivmod
 .text          0x000332c8      0x2dc c:/a/gcc_arm/6/bin/../lib/gcc/arm-none-eabi/6.3.1/thumb/v7e-m/fpv4-sp/hard\libgcc.a(_udivmoddi4.o)
                0x000332c8                __udivmoddi4
 .text          0x000335a4        0x4 c:/a/gcc_arm/6/bin/../lib/gcc/arm-none-eabi/6.3.1/thumb/v7e-m/fpv4-sp/hard\libgcc.a(_dvmd_tls.o)
                0x000335a4                __aeabi_idiv0
                0x000335a4                __aeabi_ldiv0
 .text.exit     0x000335a8       0x28 c:/a/gcc_arm/6/bin/../lib/gcc/arm-none-eabi/6.3.1/../../../../arm-none-eabi/lib/thumb/v7e-m/fpv4-sp/hard\libg_nano.a(lib_a-exit.o)
                0x000335a8                exit
 .text.__libc_init_array
                0x000335d0       0x48 c:/a/gcc_arm/6/bin/../lib/gcc/arm-none-eabi/6.3.1/../../../../arm-none-eabi/lib/thumb/v7e-m/fpv4-sp/hard\libg_nano.a(lib_a-init.o)
                0x000335d0                __libc_init_array
 .text.malloc   0x00033618       0x10 c:/a/gcc_arm/6/bin/../lib/gcc/arm-none-eabi/6.3.1/../../../../arm-none-eabi/lib/thumb/v7e-m/fpv4-sp/hard\libg_nano.a(lib_a-malloc.o)
                0x00033618                malloc
 .text.free     0x00033628       0x10 c:/a/gcc_arm/6/bin/../lib/gcc/arm-none-eabi/6.3.1/../../../../arm-none-eabi/lib/thumb/v7e-m/fpv4-sp/hard\libg_nano.a(lib_a-malloc.o)
                0x00033628                free
 .text.memcmp   0x00033638       0x1e c:/a/gcc_arm/6/bin/../lib/gcc/arm-none-eabi/6.3.1/../../../../arm-none-eabi/lib/thumb/v7e-m/fpv4-sp/hard\libg_nano.a(lib_a-memcmp.o)
                0x00033638                memcmp
 .text.memcpy   0x00033656       0x16 c:/a/gcc_arm/6/bin/../lib/gcc/arm-none-eabi/6.3.1/../../../../arm-none-eabi/lib/thumb/v7e-m/fpv4-sp/hard\libg_nano.a(lib_a-memcpy-stub.o)
                0x00033656                memcpy
 .text.memset   0x0003366c       0x10 c:/a/gcc_arm/6/bin/../lib/gcc/arm-none-eabi/6.3.1/../../../../arm-none-eabi/lib/thumb/v7e-m/fpv4-sp/hard\libg_nano.a(lib_a-memset.o)
                0x0003366c                memset
 .text._free_r  0x0003367c       0x9c c:/a/gcc_arm/6/bin/../lib/gcc/arm-none-eabi/6.3.1/../../../../arm-none-eabi/lib/thumb/v7e-m/fpv4-sp/hard\libg_nano.a(lib_a-nano-freer.o)
                0x0003367c                _free_r
 .text._malloc_r
                0x00033718       0xbc c:/a/gcc_arm/6/bin/../lib/gcc/arm-none-eabi/6.3.1/../../../../arm-none-eabi/lib/thumb/v7e-m/fpv4-sp/hard\libg_nano.a(lib_a-nano-mallocr.o)
                0x00033718                _malloc_r
 .text._sbrk_r  0x000337d4       0x20 c:/a/gcc_arm/6/bin/../lib/gcc/arm-none-eabi/6.3.1/../../../../arm-none-eabi/lib/thumb/v7e-m/fpv4-sp/hard\libg_nano.a(lib_a-sbrkr.o)
                0x000337d4                _sbrk_r
 .text.strcpy   0x000337f4       0x10 c:/a/gcc_arm/6/bin/../lib/gcc/arm-none-eabi/6.3.1/../../../../arm-none-eabi/lib/thumb/v7e-m/fpv4-sp/hard\libg_nano.a(lib_a-strcpy.o)
                0x000337f4                strcpy
 .text          0x00033804       0x10 c:/a/gcc_arm/6/bin/../lib/gcc/arm-none-eabi/6.3.1/../../../../arm-none-eabi/lib/thumb/v7e-m/fpv4-sp/hard\libg_nano.a(lib_a-strlen.o)
                0x00033804                strlen
 .text.strrchr  0x00033814       0x26 c:/a/gcc_arm/6/bin/../lib/gcc/arm-none-eabi/6.3.1/../../../../arm-none-eabi/lib/thumb/v7e-m/fpv4-sp/hard\libg_nano.a(lib_a-strrchr.o)
                0x00033814                strrchr
 .text.__malloc_lock
                0x0003383a        0x2 c:/a/gcc_arm/6/bin/../lib/gcc/arm-none-eabi/6.3.1/../../../../arm-none-eabi/lib/thumb/v7e-m/fpv4-sp/hard\libg_nano.a(lib_a-mlock.o)
                0x0003383a                __malloc_lock
 .text.__malloc_unlock
                0x0003383c        0x2 c:/a/gcc_arm/6/bin/../lib/gcc/arm-none-eabi/6.3.1/../../../../arm-none-eabi/lib/thumb/v7e-m/fpv4-sp/hard\libg_nano.a(lib_a-mlock.o)
                0x0003383c                __malloc_unlock
 .text.strchr   0x0003383e       0x1c c:/a/gcc_arm/6/bin/../lib/gcc/arm-none-eabi/6.3.1/../../../../arm-none-eabi/lib/thumb/v7e-m/fpv4-sp/hard\libg_nano.a(lib_a-strchr.o)
                0x0003383e                strchr
 *fill*         0x0003385a        0x2 
 .text._sbrk    0x0003385c       0x1c c:/a/gcc_arm/6/bin/../lib/gcc/arm-none-eabi/6.3.1/../../../../arm-none-eabi/lib/thumb/v7e-m/fpv4-sp/hard\libnosys.a(sbrk.o)
                0x0003385c                _sbrk
 .text._exit    0x00033878        0x4 c:/a/gcc_arm/6/bin/../lib/gcc/arm-none-eabi/6.3.1/../../../../arm-none-eabi/lib/thumb/v7e-m/fpv4-sp/hard\libnosys.a(_exit.o)
                0x00033878                _exit
 *(.init)
 .init          0x0003387c        0x4 c:/a/gcc_arm/6/bin/../lib/gcc/arm-none-eabi/6.3.1/thumb/v7e-m/fpv4-sp/hard/crti.o
                0x0003387c                _init
 .init          0x00033880        0x8 c:/a/gcc_arm/6/bin/../lib/gcc/arm-none-eabi/6.3.1/thumb/v7e-m/fpv4-sp/hard/crtn.o
 *(.fini)
 .fini          0x00033888        0x4 c:/a/gcc_arm/6/bin/../lib/gcc/arm-none-eabi/6.3.1/thumb/v7e-m/fpv4-sp/hard/crti.o
                0x00033888                _fini
 .fini          0x0003388c        0x8 c:/a/gcc_arm/6/bin/../lib/gcc/arm-none-eabi/6.3.1/thumb/v7e-m/fpv4-sp/hard/crtn.o
 *crtbegin.o(.ctors)
 *crtbegin?.o(.ctors)
 *(EXCLUDE_FILE(*crtend.o *crtend?.o) .ctors)
 *(SORT(.ctors.*))
 *(.ctors)
 *crtbegin.o(.dtors)
 *crtbegin?.o(.dtors)
 *(EXCLUDE_FILE(*crtend.o *crtend?.o) .dtors)
 *(SORT(.dtors.*))
 *(.dtors)
 *(.rodata*)
 .rodata        0x00033894       0x1f examples/pb_remote/client/CMakeFiles/pb_remote_client_nrf52832_xxAA_s132_5.0.0.dir/src/main.c.obj
 .rodata.USAGE_STRING
                0x000338b3      0x11b examples/pb_remote/client/CMakeFiles/pb_remote_client_nrf52832_xxAA_s132_5.0.0.dir/src/main.c.obj
                0x000338b3                USAGE_STRING
 .rodata.m_netkey
                0x000339ce       0x10 examples/pb_remote/client/CMakeFiles/pb_remote_client_nrf52832_xxAA_s132_5.0.0.dir/src/main.c.obj
 .rodata.main.str1.1
                0x000339de       0x44 examples/pb_remote/client/CMakeFiles/pb_remote_client_nrf52832_xxAA_s132_5.0.0.dir/src/main.c.obj
 .rodata.prov_evt_handler.str1.1
                0x00033a22       0xeb examples/pb_remote/client/CMakeFiles/pb_remote_client_nrf52832_xxAA_s132_5.0.0.dir/src/main.c.obj
 .rodata.remote_client_event_cb.str1.1
                0x00033b0d       0x73 examples/pb_remote/client/CMakeFiles/pb_remote_client_nrf52832_xxAA_s132_5.0.0.dir/src/main.c.obj
 .rodata.start_provisioning.str1.1
                0x00033b80       0x28 examples/pb_remote/client/CMakeFiles/pb_remote_client_nrf52832_xxAA_s132_5.0.0.dir/src/main.c.obj
 .rodata.user_input_handler.str1.1
                0x00033ba8       0xda examples/pb_remote/client/CMakeFiles/pb_remote_client_nrf52832_xxAA_s132_5.0.0.dir/src/main.c.obj
 .rodata.HardFault_Handler.str1.1
                0x00033c82        0xe examples/pb_remote/client/CMakeFiles/pb_remote_client_nrf52832_xxAA_s132_5.0.0.dir/__/__/nrf_mesh_sdk.c.obj
 .rodata.app_error_handler.str1.1
                0x00033c90       0x1d examples/pb_remote/client/CMakeFiles/pb_remote_client_nrf52832_xxAA_s132_5.0.0.dir/__/__/nrf_mesh_sdk.c.obj
 .rodata.mesh_assert_handler.str1.1
                0x00033cad       0x34 examples/pb_remote/client/CMakeFiles/pb_remote_client_nrf52832_xxAA_s132_5.0.0.dir/__/__/nrf_mesh_sdk.c.obj
 .rodata.mesh_core_setup.str1.1
                0x00033ce1       0x47 examples/pb_remote/client/CMakeFiles/pb_remote_client_nrf52832_xxAA_s132_5.0.0.dir/__/__/nrf_mesh_sdk.c.obj
 .rodata.mesh_softdevice_enable.str1.1
                0x00033d28       0x65 examples/pb_remote/client/CMakeFiles/pb_remote_client_nrf52832_xxAA_s132_5.0.0.dir/__/__/nrf_mesh_sdk.c.obj
 .rodata.softdevice_assert_handler.str1.1
                0x00033d8d       0x1d examples/pb_remote/client/CMakeFiles/pb_remote_client_nrf52832_xxAA_s132_5.0.0.dir/__/__/nrf_mesh_sdk.c.obj
 .rodata        0x00033daa       0x2a examples/pb_remote/client/CMakeFiles/pb_remote_client_nrf52832_xxAA_s132_5.0.0.dir/__/__/__/models/pb_remote/src/pb_remote_client.c.obj
 .rodata.client_reliable_status_cb.str1.1
                0x00033dd4       0x3f examples/pb_remote/client/CMakeFiles/pb_remote_client_nrf52832_xxAA_s132_5.0.0.dir/__/__/__/models/pb_remote/src/pb_remote_client.c.obj
 *fill*         0x00033e13        0x1 
 .rodata.interface.11676
                0x00033e14       0x14 examples/pb_remote/client/CMakeFiles/pb_remote_client_nrf52832_xxAA_s132_5.0.0.dir/__/__/__/models/pb_remote/src/pb_remote_client.c.obj
 .rodata.m_opcode_handlers
                0x00033e28       0x38 examples/pb_remote/client/CMakeFiles/pb_remote_client_nrf52832_xxAA_s132_5.0.0.dir/__/__/__/models/pb_remote/src/pb_remote_client.c.obj
 .rodata.m_pb_remote_client_event_handler_callbacks
                0x00033e60       0x38 examples/pb_remote/client/CMakeFiles/pb_remote_client_nrf52832_xxAA_s132_5.0.0.dir/__/__/__/models/pb_remote/src/pb_remote_client.c.obj
                0x00033e60                m_pb_remote_client_event_handler_callbacks
 .rodata.pb_remote_client_event_link_close_cb.str1.1
                0x00033e98       0x2a examples/pb_remote/client/CMakeFiles/pb_remote_client_nrf52832_xxAA_s132_5.0.0.dir/__/__/__/models/pb_remote/src/pb_remote_client.c.obj
 .rodata.pb_remote_client_event_link_status_cb.str1.1
                0x00033ec2       0x62 examples/pb_remote/client/CMakeFiles/pb_remote_client_nrf52832_xxAA_s132_5.0.0.dir/__/__/__/models/pb_remote/src/pb_remote_client.c.obj
 .rodata.pb_remote_client_event_link_status_report_cb.str1.1
                0x00033f24       0x4f examples/pb_remote/client/CMakeFiles/pb_remote_client_nrf52832_xxAA_s132_5.0.0.dir/__/__/__/models/pb_remote/src/pb_remote_client.c.obj
 .rodata.pb_remote_client_event_local_packet_cb.str1.1
                0x00033f73       0x1c examples/pb_remote/client/CMakeFiles/pb_remote_client_nrf52832_xxAA_s132_5.0.0.dir/__/__/__/models/pb_remote/src/pb_remote_client.c.obj
 .rodata.pb_remote_client_event_packet_transfer_cb.str1.1
                0x00033f8f       0x2d examples/pb_remote/client/CMakeFiles/pb_remote_client_nrf52832_xxAA_s132_5.0.0.dir/__/__/__/models/pb_remote/src/pb_remote_client.c.obj
 .rodata.pb_remote_client_event_scan_cancel_cb.str1.1
                0x00033fbc       0x1e examples/pb_remote/client/CMakeFiles/pb_remote_client_nrf52832_xxAA_s132_5.0.0.dir/__/__/__/models/pb_remote/src/pb_remote_client.c.obj
 .rodata.pb_remote_client_event_scan_start_cb.str1.1
                0x00033fda       0x1d examples/pb_remote/client/CMakeFiles/pb_remote_client_nrf52832_xxAA_s132_5.0.0.dir/__/__/__/models/pb_remote/src/pb_remote_client.c.obj
 .rodata.pb_remote_client_event_scan_status_cb.str1.1
                0x00033ff7       0x62 examples/pb_remote/client/CMakeFiles/pb_remote_client_nrf52832_xxAA_s132_5.0.0.dir/__/__/__/models/pb_remote/src/pb_remote_client.c.obj
 .rodata.pb_remote_client_event_transfer_status_cb.str1.1
                0x00034059       0x25 examples/pb_remote/client/CMakeFiles/pb_remote_client_nrf52832_xxAA_s132_5.0.0.dir/__/__/__/models/pb_remote/src/pb_remote_client.c.obj
 .rodata.pb_remote_client_event_transfer_status_report_cb.str1.1
                0x0003407e       0x41 examples/pb_remote/client/CMakeFiles/pb_remote_client_nrf52832_xxAA_s132_5.0.0.dir/__/__/__/models/pb_remote/src/pb_remote_client.c.obj
 .rodata.pb_remote_client_event_unprov_number_cb.str1.1
                0x000340bf       0x56 examples/pb_remote/client/CMakeFiles/pb_remote_client_nrf52832_xxAA_s132_5.0.0.dir/__/__/__/models/pb_remote/src/pb_remote_client.c.obj
 .rodata.pb_remote_client_event_unprov_uuid_cb.str1.1
                0x00034115       0x24 examples/pb_remote/client/CMakeFiles/pb_remote_client_nrf52832_xxAA_s132_5.0.0.dir/__/__/__/models/pb_remote/src/pb_remote_client.c.obj
 .rodata.pb_remote_client_process.str1.1
                0x00034139       0x23 examples/pb_remote/client/CMakeFiles/pb_remote_client_nrf52832_xxAA_s132_5.0.0.dir/__/__/__/models/pb_remote/src/pb_remote_client.c.obj
 .rodata.m_prov_callbacks
                0x0003415c       0x10 examples/pb_remote/client/CMakeFiles/pb_remote_client_nrf52832_xxAA_s132_5.0.0.dir/__/__/__/mesh/prov/src/prov_provisioner.c.obj
 .rodata.pdu_sizes.10960
                0x0003416c        0xa examples/pb_remote/client/CMakeFiles/pb_remote_client_nrf52832_xxAA_s132_5.0.0.dir/__/__/__/mesh/prov/src/provisioning.c.obj
 .rodata.alphanumeric.11065
                0x00034176       0x25 examples/pb_remote/client/CMakeFiles/pb_remote_client_nrf52832_xxAA_s132_5.0.0.dir/__/__/__/mesh/prov/src/prov_utils.c.obj
 *fill*         0x0003419b        0x1 
 .rodata.numeric_max.11059
                0x0003419c       0x24 examples/pb_remote/client/CMakeFiles/pb_remote_client_nrf52832_xxAA_s132_5.0.0.dir/__/__/__/mesh/prov/src/prov_utils.c.obj
 .rodata.prov_utils_authentication_values_derive.str1.1
                0x000341c0        0x5 examples/pb_remote/client/CMakeFiles/pb_remote_client_nrf52832_xxAA_s132_5.0.0.dir/__/__/__/mesh/prov/src/prov_utils.c.obj
 .rodata.prov_utils_derive_keys.str1.1
                0x000341c5        0xf examples/pb_remote/client/CMakeFiles/pb_remote_client_nrf52832_xxAA_s132_5.0.0.dir/__/__/__/mesh/prov/src/prov_utils.c.obj
 .rodata.add_active_bearer.str1.1
                0x000341d4       0x2c examples/pb_remote/client/CMakeFiles/pb_remote_client_nrf52832_xxAA_s132_5.0.0.dir/__/__/__/mesh/prov/src/prov_bearer_adv.c.obj
 .rodata.crctable.10818
                0x00034200      0x100 examples/pb_remote/client/CMakeFiles/pb_remote_client_nrf52832_xxAA_s132_5.0.0.dir/__/__/__/mesh/prov/src/prov_bearer_adv.c.obj
 .rodata.interface.11048
                0x00034300       0x14 examples/pb_remote/client/CMakeFiles/pb_remote_client_nrf52832_xxAA_s132_5.0.0.dir/__/__/__/mesh/prov/src/prov_bearer_adv.c.obj
 .rodata.prov_bearer_adv_packet_in.str1.1
                0x00034314      0x26e examples/pb_remote/client/CMakeFiles/pb_remote_client_nrf52832_xxAA_s132_5.0.0.dir/__/__/__/mesh/prov/src/prov_bearer_adv.c.obj
 .rodata.tx_retry_cb.str1.1
                0x00034582       0x37 examples/pb_remote/client/CMakeFiles/pb_remote_client_nrf52832_xxAA_s132_5.0.0.dir/__/__/__/mesh/prov/src/prov_bearer_adv.c.obj
 .rodata.mesh_evt_cb.str1.1
                0x000345b9       0x2f examples/pb_remote/client/CMakeFiles/pb_remote_client_nrf52832_xxAA_s132_5.0.0.dir/__/__/__/mesh/access/src/access.c.obj
 .rodata.packet_tx.str1.1
                0x000345e8       0x13 examples/pb_remote/client/CMakeFiles/pb_remote_client_nrf52832_xxAA_s132_5.0.0.dir/__/__/__/mesh/access/src/access.c.obj
 *fill*         0x000345fb        0x1 
 .rodata.m_flash_groups
                0x000345fc       0xa8 examples/pb_remote/client/CMakeFiles/pb_remote_client_nrf52832_xxAA_s132_5.0.0.dir/__/__/__/mesh/access/src/device_state_manager.c.obj
 .rodata.types_lookup.8979
                0x000346a4        0x4 mesh/core/libmesh_core_nrf52832_xxAA.a(nrf_mesh_utils.c.obj)
 .rodata.nrf_mesh_listen.str1.1
                0x000346a8       0x70 mesh/core/libmesh_core_nrf52832_xxAA.a(nrf_mesh.c.obj)
 .rodata.CSWTCH.9
                0x00034718       0x10 mesh/core/libmesh_core_nrf52832_xxAA.a(hal.c.obj)
 .rodata        0x00034728       0x15 mesh/core/libmesh_core_nrf52832_xxAA.a(enc.c.obj)
 .rodata.network_packet_in.str1.1
                0x0003473d       0x40 mesh/core/libmesh_core_nrf52832_xxAA.a(network.c.obj)
                                 0x48 (size before relaxing)
 .rodata.network_packet_send.str1.1
                0x0003477d       0x49 mesh/core/libmesh_core_nrf52832_xxAA.a(network.c.obj)
 .rodata        0x000347c6        0x7 mesh/core/libmesh_core_nrf52832_xxAA.a(nrf_mesh_keygen.c.obj)
 .rodata.log_callback_rtt.str1.1
                0x000347cd       0x15 mesh/core/libmesh_core_nrf52832_xxAA.a(log.c.obj)
 .rodata.str1.1
                0x000347e2       0x11 mesh/core/libmesh_core_nrf52832_xxAA.a(log.c.obj)
 *fill*         0x000347f3        0x1 
 .rodata.INVALID_HEADER
                0x000347f4        0x4 mesh/core/libmesh_core_nrf52832_xxAA.a(flash_manager.c.obj)
                0x000347f4                INVALID_HEADER
 .rodata.PADDING_HEADER
                0x000347f8        0x4 mesh/core/libmesh_core_nrf52832_xxAA.a(flash_manager.c.obj)
                0x000347f8                PADDING_HEADER
 .rodata.SEAL_HEADER
                0x000347fc        0x4 mesh/core/libmesh_core_nrf52832_xxAA.a(flash_manager.c.obj)
                0x000347fc                SEAL_HEADER
 .rodata.process_action_queue.str1.1
                0x00034800       0x21 mesh/core/libmesh_core_nrf52832_xxAA.a(flash_manager.c.obj)
                                 0x4f (size before relaxing)
 .rodata.beacon_packet_in.str1.1
                0x00034821       0x51 mesh/core/libmesh_core_nrf52832_xxAA.a(beacon.c.obj)
                                 0x59 (size before relaxing)
 *fill*         0x00034872        0x2 
 .rodata.cp_handler
                0x00034874        0x8 mesh/core/libmesh_core_nrf52832_xxAA.a(heartbeat.c.obj)
 .rodata.net_beacon_init.str1.1
                0x0003487c        0x5 mesh/core/libmesh_core_nrf52832_xxAA.a(net_beacon.c.obj)
 *fill*         0x00034881        0x3 
 .rodata.m_interface
                0x00034884        0xc mesh/core/libmesh_core_nrf52832_xxAA.a(core_tx_adv.c.obj)
 .rodata.radio_mode_to_us_per_byte.9376
                0x00034890        0x6 mesh/core/libmesh_core_nrf52832_xxAA.a(broadcast.c.obj)
 .rodata.channel_rf_offsets.8617
                0x00034896       0x28 mesh/core/libmesh_core_nrf52832_xxAA.a(radio_config.c.obj)
 .rodata        0x000348be        0x3 mesh/core/libmesh_core_nrf52832_xxAA.a(scanner.c.obj)
 .rodata.sar_ctx_cancel.str1.1
                0x000348c1       0x18 mesh/core/libmesh_core_nrf52832_xxAA.a(transport.c.obj)
 .rodata.sar_ctx_tx_complete.str1.1
                0x000348d9       0x1d mesh/core/libmesh_core_nrf52832_xxAA.a(transport.c.obj)
                                 0x4b (size before relaxing)
 .rodata.test_transport_decrypt.str1.1
                0x000348f6       0x13 mesh/core/libmesh_core_nrf52832_xxAA.a(transport.c.obj)
 .rodata.transport_packet_in.str1.1
                0x00034909       0x24 mesh/core/libmesh_core_nrf52832_xxAA.a(transport.c.obj)
 .rodata.upper_transport_access_packet_in.str1.1
                0x0003492d       0x29 mesh/core/libmesh_core_nrf52832_xxAA.a(transport.c.obj)
 .rodata.upper_transport_packet_in.str1.1
                0x00034956       0x2e mesh/core/libmesh_core_nrf52832_xxAA.a(transport.c.obj)
 .rodata.upper_transport_tx.str1.1
                0x00034984       0x2c mesh/core/libmesh_core_nrf52832_xxAA.a(transport.c.obj)
                                 0x34 (size before relaxing)
 .rodata.flash_manager_defrag.str1.1
                0x000349b0       0x28 mesh/core/libmesh_core_nrf52832_xxAA.a(flash_manager_defrag.c.obj)
                                 0x56 (size before relaxing)
 .rodata.m_procedure_steps
                0x000349d8       0x28 mesh/core/libmesh_core_nrf52832_xxAA.a(flash_manager_defrag.c.obj)
 .rodata.m_all_operations
                0x00034a00       0x10 mesh/core/libmesh_core_nrf52832_xxAA.a(mesh_flash.c.obj)
 .rodata.Rb.7348
                0x00034a10       0x10 mesh/core/libmesh_core_nrf52832_xxAA.a(aes_cmac.c.obj)
 .rodata._DoInit.str1.1
                0x00034a20       0x14 external/rtt/librtt_nrf52832_xxAA.a(SEGGER_RTT.c.obj)
 .rodata._aV2C.5497
                0x00034a34       0x10 external/rtt/librtt_nrf52832_xxAA.a(SEGGER_RTT_printf.c.obj)
 .rodata.curve_secp256r1
                0x00034a44       0xb0 external/micro-ecc/libuECC_nrf52832_xxAA.a(uECC.c.obj)
 .rodata._global_impure_ptr
                0x00034af4        0x4 c:/a/gcc_arm/6/bin/../lib/gcc/arm-none-eabi/6.3.1/../../../../arm-none-eabi/lib/thumb/v7e-m/fpv4-sp/hard\libg_nano.a(lib_a-impure.o)
                0x00034af4                _global_impure_ptr
 *(.eh_frame*)
 .eh_frame      0x00034af8        0x0 c:/a/gcc_arm/6/bin/../lib/gcc/arm-none-eabi/6.3.1/thumb/v7e-m/fpv4-sp/hard/crtbegin.o
 .eh_frame      0x00034af8        0x4 c:/a/gcc_arm/6/bin/../lib/gcc/arm-none-eabi/6.3.1/thumb/v7e-m/fpv4-sp/hard/crtend.o

.glue_7         0x00034afc        0x0
 .glue_7        0x00034afc        0x0 linker stubs

.glue_7t        0x00034afc        0x0
 .glue_7t       0x00034afc        0x0 linker stubs

.vfp11_veneer   0x00034afc        0x0
 .vfp11_veneer  0x00034afc        0x0 linker stubs

.v4_bx          0x00034afc        0x0
 .v4_bx         0x00034afc        0x0 linker stubs

.iplt           0x00034afc        0x0
 .iplt          0x00034afc        0x0 c:/a/gcc_arm/6/bin/../lib/gcc/arm-none-eabi/6.3.1/thumb/v7e-m/fpv4-sp/hard/crtbegin.o

.pwr_mgmt_data  0x00034afc        0x0
                [!provide]                PROVIDE (__start_pwr_mgmt_data, .)
 *(SORT(.pwr_mgmt_data*))
                [!provide]                PROVIDE (__stop_pwr_mgmt_data, .)

.log_const_data
                0x00034afc        0x0
                [!provide]                PROVIDE (__start_log_const_data, .)
 *(.log_const_data)
                [!provide]                PROVIDE (__stop_log_const_data, .)

.cli_command    0x00034afc        0x0
                [!provide]                PROVIDE (__start_cli_command, .)
 *(.cli_command)
                [!provide]                PROVIDE (__stop_cli_command, .)

.sdh_stack_observers
                0x00034afc        0x0
                [!provide]                PROVIDE (__start_sdh_stack_observers, .)
 *(SORT(.sdh_stack_observers*))
                [!provide]                PROVIDE (__stop_sdh_stack_observers, .)

.sdh_req_observers
                0x00034afc        0x0
                [!provide]                PROVIDE (__start_sdh_req_observers, .)
 *(SORT(.sdh_req_observers*))
                [!provide]                PROVIDE (__stop_sdh_req_observers, .)

.sdh_state_observers
                0x00034afc        0x0
                [!provide]                PROVIDE (__start_sdh_state_observers, .)
 *(SORT(.sdh_state_observers*))
                [!provide]                PROVIDE (__stop_sdh_state_observers, .)

.sdh_ant_observers
                0x00034afc        0x0
                [!provide]                PROVIDE (__start_sdh_ant_observers, .)
 *(SORT(.sdh_ant_observers*))
                [!provide]                PROVIDE (__stop_sdh_ant_observers, .)

.sdh_ble_observers
                0x00034afc        0x0
                [!provide]                PROVIDE (__start_sdh_ble_observers, .)
 *(SORT(.sdh_ble_observers*))
                [!provide]                PROVIDE (__stop_sdh_ble_observers, .)

.sdh_soc_observers
                0x00034afc        0x0
                [!provide]                PROVIDE (__start_sdh_soc_observers, .)
 *(SORT(.sdh_soc_observers*))
                [!provide]                PROVIDE (__stop_sdh_soc_observers, .)

.ARM.extab
 *(.ARM.extab* .gnu.linkonce.armextab.*)
                0x00034afc                __exidx_start = .

.ARM.exidx      0x00034afc        0x8
 *(.ARM.exidx* .gnu.linkonce.armexidx.*)
 .ARM.exidx     0x00034afc        0x8 c:/a/gcc_arm/6/bin/../lib/gcc/arm-none-eabi/6.3.1/../../../../arm-none-eabi/lib/thumb/v7e-m/fpv4-sp/hard/crt0.o
 .ARM.exidx     0x00034b04        0x0 c:/a/gcc_arm/6/bin/../lib/gcc/arm-none-eabi/6.3.1/thumb/v7e-m/fpv4-sp/hard\libgcc.a(_udivmoddi4.o)
                                  0x8 (size before relaxing)
                0x00034b04                __exidx_end = .
                0x00034b04                __etext = .

.rel.dyn        0x00034b04        0x0
 .rel.iplt      0x00034b04        0x0 c:/a/gcc_arm/6/bin/../lib/gcc/arm-none-eabi/6.3.1/thumb/v7e-m/fpv4-sp/hard/crtbegin.o

.data           0x200031b0       0xf0 load address 0x00034b04
                0x200031b0                __data_start__ = .
 *(vtable)
 *(.data*)
 .data.m_next_unprov_address
                0x200031b0        0x2 examples/pb_remote/client/CMakeFiles/pb_remote_client_nrf52832_xxAA_s132_5.0.0.dir/src/main.c.obj
 *fill*         0x200031b2        0x2 
 .data.m_async_process_flag
                0x200031b4        0x4 examples/pb_remote/client/CMakeFiles/pb_remote_client_nrf52832_xxAA_s132_5.0.0.dir/__/__/__/mesh/prov/src/prov_bearer_adv.c.obj
 .data.flash_add_mem_available_struct.10246
                0x200031b8       0x10 examples/pb_remote/client/CMakeFiles/pb_remote_client_nrf52832_xxAA_s132_5.0.0.dir/__/__/__/mesh/access/src/access.c.obj
 .data.m_default_ttl
                0x200031c8        0x1 examples/pb_remote/client/CMakeFiles/pb_remote_client_nrf52832_xxAA_s132_5.0.0.dir/__/__/__/mesh/access/src/access.c.obj
 *fill*         0x200031c9        0x3 
 .data.mem_listener.10580
                0x200031cc       0x10 examples/pb_remote/client/CMakeFiles/pb_remote_client_nrf52832_xxAA_s132_5.0.0.dir/__/__/__/mesh/access/src/device_state_manager.c.obj
 .data.SystemCoreClock
                0x200031dc        0x4 examples/pb_remote/client/CMakeFiles/pb_remote_client_nrf52832_xxAA_s132_5.0.0.dir/__/__/__/external/nRF5_SDK_14.2.0_17b948a/components/toolchain/system_nrf52.c.obj
                0x200031dc                SystemCoreClock
 .data.mem_listener.9700
                0x200031e0       0x10 mesh/core/libmesh_core_nrf52832_xxAA.a(net_state.c.obj)
 .data.mem_listener.9705
                0x200031f0       0x10 mesh/core/libmesh_core_nrf52832_xxAA.a(net_state.c.obj)
 .data.mem_listener.9719
                0x20003200       0x10 mesh/core/libmesh_core_nrf52832_xxAA.a(net_state.c.obj)
 .data.m_nrf_mesh_listener
                0x20003210        0xc mesh/core/libmesh_core_nrf52832_xxAA.a(nrf_mesh.c.obj)
 .data.g_log_dbg_lvl
                0x2000321c        0x4 mesh/core/libmesh_core_nrf52832_xxAA.a(log.c.obj)
                0x2000321c                g_log_dbg_lvl
 .data.g_log_dbg_msk
                0x20003220        0x4 mesh/core/libmesh_core_nrf52832_xxAA.a(log.c.obj)
                0x20003220                g_log_dbg_msk
 .data.g_log_hex_digits
                0x20003224        0x4 mesh/core/libmesh_core_nrf52832_xxAA.a(log.c.obj)
                0x20003224                g_log_hex_digits
 .data.m_log_callback
                0x20003228        0x4 mesh/core/libmesh_core_nrf52832_xxAA.a(log.c.obj)
                0x20003228                m_log_callback
 .data.g_rng_function
                0x2000322c        0x4 external/micro-ecc/libuECC_nrf52832_xxAA.a(uECC.c.obj)
 .data._impure_ptr
                0x20003230        0x4 c:/a/gcc_arm/6/bin/../lib/gcc/arm-none-eabi/6.3.1/../../../../arm-none-eabi/lib/thumb/v7e-m/fpv4-sp/hard\libg_nano.a(lib_a-impure.o)
                0x20003230                _impure_ptr
 .data.impure_data
                0x20003234       0x60 c:/a/gcc_arm/6/bin/../lib/gcc/arm-none-eabi/6.3.1/../../../../arm-none-eabi/lib/thumb/v7e-m/fpv4-sp/hard\libg_nano.a(lib_a-impure.o)
                0x20003294                . = ALIGN (0x4)
                0x20003294                PROVIDE (__preinit_array_start, .)
 *(.preinit_array)
                0x20003294                PROVIDE (__preinit_array_end, .)
                0x20003294                . = ALIGN (0x4)
                0x20003294                PROVIDE (__init_array_start, .)
 *(SORT(.init_array.*))
 *(.init_array)
 .init_array    0x20003294        0x4 c:/a/gcc_arm/6/bin/../lib/gcc/arm-none-eabi/6.3.1/thumb/v7e-m/fpv4-sp/hard/crtbegin.o
                0x20003298                PROVIDE (__init_array_end, .)
                0x20003298                . = ALIGN (0x4)
                [!provide]                PROVIDE (__fini_array_start, .)
 *(SORT(.fini_array.*))
 *(.fini_array)
 .fini_array    0x20003298        0x4 c:/a/gcc_arm/6/bin/../lib/gcc/arm-none-eabi/6.3.1/thumb/v7e-m/fpv4-sp/hard/crtbegin.o
                [!provide]                PROVIDE (__fini_array_end, .)
 *(.jcr*)
 .jcr           0x2000329c        0x0 c:/a/gcc_arm/6/bin/../lib/gcc/arm-none-eabi/6.3.1/thumb/v7e-m/fpv4-sp/hard/crtbegin.o
 .jcr           0x2000329c        0x4 c:/a/gcc_arm/6/bin/../lib/gcc/arm-none-eabi/6.3.1/thumb/v7e-m/fpv4-sp/hard/crtend.o
                0x200032a0                . = ALIGN (0x4)
                0x200032a0                __data_end__ = .
LOAD c:/a/gcc_arm/6/bin/../lib/gcc/arm-none-eabi/6.3.1/thumb/v7e-m/fpv4-sp/hard/crti.o
LOAD c:/a/gcc_arm/6/bin/../lib/gcc/arm-none-eabi/6.3.1/thumb/v7e-m/fpv4-sp/hard/crtbegin.o
LOAD c:/a/gcc_arm/6/bin/../lib/gcc/arm-none-eabi/6.3.1/../../../../arm-none-eabi/lib/thumb/v7e-m/fpv4-sp/hard/crt0.o
LOAD examples/pb_remote/client/CMakeFiles/pb_remote_client_nrf52832_xxAA_s132_5.0.0.dir/src/main.c.obj
LOAD examples/pb_remote/client/CMakeFiles/pb_remote_client_nrf52832_xxAA_s132_5.0.0.dir/__/__/nrf_mesh_sdk.c.obj
LOAD examples/pb_remote/client/CMakeFiles/pb_remote_client_nrf52832_xxAA_s132_5.0.0.dir/__/__/common/src/rtt_input.c.obj
LOAD examples/pb_remote/client/CMakeFiles/pb_remote_client_nrf52832_xxAA_s132_5.0.0.dir/__/__/__/models/pb_remote/src/pb_remote_client.c.obj
LOAD examples/pb_remote/client/CMakeFiles/pb_remote_client_nrf52832_xxAA_s132_5.0.0.dir/__/__/__/mesh/prov/src/prov_provisioner.c.obj
LOAD examples/pb_remote/client/CMakeFiles/pb_remote_client_nrf52832_xxAA_s132_5.0.0.dir/__/__/__/mesh/prov/src/nrf_mesh_prov.c.obj
LOAD examples/pb_remote/client/CMakeFiles/pb_remote_client_nrf52832_xxAA_s132_5.0.0.dir/__/__/__/mesh/prov/src/provisioning.c.obj
LOAD examples/pb_remote/client/CMakeFiles/pb_remote_client_nrf52832_xxAA_s132_5.0.0.dir/__/__/__/mesh/prov/src/prov_beacon.c.obj
LOAD examples/pb_remote/client/CMakeFiles/pb_remote_client_nrf52832_xxAA_s132_5.0.0.dir/__/__/__/mesh/prov/src/prov_utils.c.obj
LOAD examples/pb_remote/client/CMakeFiles/pb_remote_client_nrf52832_xxAA_s132_5.0.0.dir/__/__/__/mesh/prov/src/prov_bearer_adv.c.obj
LOAD examples/pb_remote/client/CMakeFiles/pb_remote_client_nrf52832_xxAA_s132_5.0.0.dir/__/__/__/mesh/access/src/access_publish.c.obj
LOAD examples/pb_remote/client/CMakeFiles/pb_remote_client_nrf52832_xxAA_s132_5.0.0.dir/__/__/__/mesh/access/src/access.c.obj
LOAD examples/pb_remote/client/CMakeFiles/pb_remote_client_nrf52832_xxAA_s132_5.0.0.dir/__/__/__/mesh/access/src/access_reliable.c.obj
LOAD examples/pb_remote/client/CMakeFiles/pb_remote_client_nrf52832_xxAA_s132_5.0.0.dir/__/__/__/mesh/access/src/device_state_manager.c.obj
LOAD examples/pb_remote/client/CMakeFiles/pb_remote_client_nrf52832_xxAA_s132_5.0.0.dir/__/__/nrf_mesh_weak.c.obj
LOAD examples/pb_remote/client/CMakeFiles/pb_remote_client_nrf52832_xxAA_s132_5.0.0.dir/__/__/__/external/nRF5_SDK_14.2.0_17b948a/components/toolchain/system_nrf52.c.obj
LOAD examples/pb_remote/client/CMakeFiles/pb_remote_client_nrf52832_xxAA_s132_5.0.0.dir/__/__/__/external/nRF5_SDK_14.2.0_17b948a/components/toolchain/gcc/gcc_startup_nrf52.S.obj
LOAD mesh/core/libmesh_core_nrf52832_xxAA.a
LOAD external/rtt/librtt_nrf52832_xxAA.a
LOAD external/micro-ecc/libuECC_nrf52832_xxAA.a
START GROUP
LOAD c:/a/gcc_arm/6/bin/../lib/gcc/arm-none-eabi/6.3.1/thumb/v7e-m/fpv4-sp/hard\libgcc.a
LOAD c:/a/gcc_arm/6/bin/../lib/gcc/arm-none-eabi/6.3.1/../../../../arm-none-eabi/lib/thumb/v7e-m/fpv4-sp/hard\libg_nano.a
LOAD c:/a/gcc_arm/6/bin/../lib/gcc/arm-none-eabi/6.3.1/../../../../arm-none-eabi/lib/thumb/v7e-m/fpv4-sp/hard\libc_nano.a
END GROUP
START GROUP
LOAD c:/a/gcc_arm/6/bin/../lib/gcc/arm-none-eabi/6.3.1/thumb/v7e-m/fpv4-sp/hard\libgcc.a
LOAD c:/a/gcc_arm/6/bin/../lib/gcc/arm-none-eabi/6.3.1/../../../../arm-none-eabi/lib/thumb/v7e-m/fpv4-sp/hard\libc_nano.a
END GROUP
LOAD c:/a/gcc_arm/6/bin/../lib/gcc/arm-none-eabi/6.3.1/thumb/v7e-m/fpv4-sp/hard/crtend.o
LOAD c:/a/gcc_arm/6/bin/../lib/gcc/arm-none-eabi/6.3.1/thumb/v7e-m/fpv4-sp/hard/crtn.o
START GROUP
LOAD c:/a/gcc_arm/6/bin/../lib/gcc/arm-none-eabi/6.3.1/thumb/v7e-m/fpv4-sp/hard\libgcc.a
LOAD c:/a/gcc_arm/6/bin/../lib/gcc/arm-none-eabi/6.3.1/../../../../arm-none-eabi/lib/thumb/v7e-m/fpv4-sp/hard\libc.a
LOAD c:/a/gcc_arm/6/bin/../lib/gcc/arm-none-eabi/6.3.1/../../../../arm-none-eabi/lib/thumb/v7e-m/fpv4-sp/hard\libnosys.a
END GROUP

.igot.plt       0x200032a0        0x0 load address 0x00034bf4
 .igot.plt      0x200032a0        0x0 c:/a/gcc_arm/6/bin/../lib/gcc/arm-none-eabi/6.3.1/thumb/v7e-m/fpv4-sp/hard/crtbegin.o
                0x200032a0                . = ALIGN (0x4)

.svc_data       0x200032a0        0x0
                [!provide]                PROVIDE (__start_svc_data, .)
 *(.svc_data)
                [!provide]                PROVIDE (__stop_svc_data, .)

.fs_data        0x200032a0        0x0
                [!provide]                PROVIDE (__start_fs_data, .)
 *(.fs_data)
                [!provide]                PROVIDE (__stop_fs_data, .)

.log_dynamic_data
                0x200032a0        0x0
                [!provide]                PROVIDE (__start_log_dynamic_data, .)
 *(.log_dynamic_data)
                [!provide]                PROVIDE (__stop_log_dynamic_data, .)

.cli_sorted_cmd_ptrs
                0x200032a0        0x0
                [!provide]                PROVIDE (__start_cli_sorted_cmd_ptrs, .)
 *(.cli_sorted_cmd_ptrs)
                [!provide]                PROVIDE (__stop_cli_sorted_cmd_ptrs, .)

.bss            0x200032a0     0x301c load address 0x00034bf8
                0x200032a0                . = ALIGN (0x4)
                0x200032a0                __bss_start__ = .
 *(.bss*)
 .bss           0x200032a0       0x1c c:/a/gcc_arm/6/bin/../lib/gcc/arm-none-eabi/6.3.1/thumb/v7e-m/fpv4-sp/hard/crtbegin.o
 .bss.m_appkey_handles
                0x200032bc        0x2 examples/pb_remote/client/CMakeFiles/pb_remote_client_nrf52832_xxAA_s132_5.0.0.dir/src/main.c.obj
 .bss.m_device_address_handles
                0x200032be        0x8 examples/pb_remote/client/CMakeFiles/pb_remote_client_nrf52832_xxAA_s132_5.0.0.dir/src/main.c.obj
 .bss.m_device_state
                0x200032c6        0x1 examples/pb_remote/client/CMakeFiles/pb_remote_client_nrf52832_xxAA_s132_5.0.0.dir/src/main.c.obj
 *fill*         0x200032c7        0x1 
 .bss.m_devkey_handles
                0x200032c8        0xa examples/pb_remote/client/CMakeFiles/pb_remote_client_nrf52832_xxAA_s132_5.0.0.dir/src/main.c.obj
 .bss.m_netkey_handles
                0x200032d2        0x2 examples/pb_remote/client/CMakeFiles/pb_remote_client_nrf52832_xxAA_s132_5.0.0.dir/src/main.c.obj
 .bss.m_next_unprov_index
                0x200032d4        0x1 examples/pb_remote/client/CMakeFiles/pb_remote_client_nrf52832_xxAA_s132_5.0.0.dir/src/main.c.obj
 *fill*         0x200032d5        0x1 
 .bss.m_num_elements_of_last_guy
                0x200032d6        0x2 examples/pb_remote/client/CMakeFiles/pb_remote_client_nrf52832_xxAA_s132_5.0.0.dir/src/main.c.obj
 .bss.m_private_key
                0x200032d8       0x20 examples/pb_remote/client/CMakeFiles/pb_remote_client_nrf52832_xxAA_s132_5.0.0.dir/src/main.c.obj
 .bss.m_prov_bearer_adv
                0x200032f8      0x1c0 examples/pb_remote/client/CMakeFiles/pb_remote_client_nrf52832_xxAA_s132_5.0.0.dir/src/main.c.obj
 .bss.m_prov_ctx
                0x200034b8      0x130 examples/pb_remote/client/CMakeFiles/pb_remote_client_nrf52832_xxAA_s132_5.0.0.dir/src/main.c.obj
 .bss.m_public_key
                0x200035e8       0x40 examples/pb_remote/client/CMakeFiles/pb_remote_client_nrf52832_xxAA_s132_5.0.0.dir/src/main.c.obj
 .bss.m_remote_client
                0x20003628       0x40 examples/pb_remote/client/CMakeFiles/pb_remote_client_nrf52832_xxAA_s132_5.0.0.dir/src/main.c.obj
 .bss.m_uuid_list
                0x20003668       0x30 examples/pb_remote/client/CMakeFiles/pb_remote_client_nrf52832_xxAA_s132_5.0.0.dir/src/main.c.obj
 .bss.s_state.12348
                0x20003698        0x1 examples/pb_remote/client/CMakeFiles/pb_remote_client_nrf52832_xxAA_s132_5.0.0.dir/src/main.c.obj
 .bss.m_ble_evt_buffer
                0x20003699       0x4f examples/pb_remote/client/CMakeFiles/pb_remote_client_nrf52832_xxAA_s132_5.0.0.dir/__/__/nrf_mesh_sdk.c.obj
 .bss.m_rtt_input_handler
                0x200036e8        0x4 examples/pb_remote/client/CMakeFiles/pb_remote_client_nrf52832_xxAA_s132_5.0.0.dir/__/__/common/src/rtt_input.c.obj
 .bss.m_is_interrupting
                0x200036ec        0x1 examples/pb_remote/client/CMakeFiles/pb_remote_client_nrf52832_xxAA_s132_5.0.0.dir/__/__/__/models/pb_remote/src/pb_remote_client.c.obj
 .bss.m_packet  0x200036ed       0x41 examples/pb_remote/client/CMakeFiles/pb_remote_client_nrf52832_xxAA_s132_5.0.0.dir/__/__/__/models/pb_remote/src/pb_remote_client.c.obj
 *fill*         0x2000372e        0x2 
 .bss.m_pbr_client_event_queue
                0x20003730       0x14 examples/pb_remote/client/CMakeFiles/pb_remote_client_nrf52832_xxAA_s132_5.0.0.dir/__/__/__/models/pb_remote/src/pb_remote_client.c.obj
 .bss.m_pbr_client_event_queue_buffer
                0x20003744       0x90 examples/pb_remote/client/CMakeFiles/pb_remote_client_nrf52832_xxAA_s132_5.0.0.dir/__/__/__/models/pb_remote/src/pb_remote_client.c.obj
 .bss.mp_pb_remote_client_model
                0x200037d4        0x4 examples/pb_remote/client/CMakeFiles/pb_remote_client_nrf52832_xxAA_s132_5.0.0.dir/__/__/__/models/pb_remote/src/pb_remote_client.c.obj
 .bss.m_event_handler
                0x200037d8        0x4 examples/pb_remote/client/CMakeFiles/pb_remote_client_nrf52832_xxAA_s132_5.0.0.dir/__/__/__/mesh/prov/src/prov_beacon.c.obj
 .bss.m_offload_ecdh
                0x200037dc        0x1 examples/pb_remote/client/CMakeFiles/pb_remote_client_nrf52832_xxAA_s132_5.0.0.dir/__/__/__/mesh/prov/src/prov_utils.c.obj
 *fill*         0x200037dd        0x3 
 .bss.mp_bearer_head
                0x200037e0        0x4 examples/pb_remote/client/CMakeFiles/pb_remote_client_nrf52832_xxAA_s132_5.0.0.dir/__/__/__/mesh/prov/src/prov_bearer_adv.c.obj
 .bss.m_publish_timer
                0x200037e4       0x18 examples/pb_remote/client/CMakeFiles/pb_remote_client_nrf52832_xxAA_s132_5.0.0.dir/__/__/__/mesh/access/src/access_publish.c.obj
 .bss.m_publish_timer_counter
                0x200037fc        0x4 examples/pb_remote/client/CMakeFiles/pb_remote_client_nrf52832_xxAA_s132_5.0.0.dir/__/__/__/mesh/access/src/access_publish.c.obj
 .bss.m_publish_timer_running
                0x20003800        0x1 examples/pb_remote/client/CMakeFiles/pb_remote_client_nrf52832_xxAA_s132_5.0.0.dir/__/__/__/mesh/access/src/access_publish.c.obj
 .bss.m_timer_resolution
                0x20003801        0x1 examples/pb_remote/client/CMakeFiles/pb_remote_client_nrf52832_xxAA_s132_5.0.0.dir/__/__/__/mesh/access/src/access_publish.c.obj
 *fill*         0x20003802        0x2 
 .bss.mp_publication_list
                0x20003804        0x4 examples/pb_remote/client/CMakeFiles/pb_remote_client_nrf52832_xxAA_s132_5.0.0.dir/__/__/__/mesh/access/src/access_publish.c.obj
 .bss.m_element_pool
                0x20003808        0x6 examples/pb_remote/client/CMakeFiles/pb_remote_client_nrf52832_xxAA_s132_5.0.0.dir/__/__/__/mesh/access/src/access.c.obj
 *fill*         0x2000380e        0x2 
 .bss.m_evt_handler
                0x20003810        0x8 examples/pb_remote/client/CMakeFiles/pb_remote_client_nrf52832_xxAA_s132_5.0.0.dir/__/__/__/mesh/access/src/access.c.obj
 .bss.m_flash_manager
                0x20003818       0x24 examples/pb_remote/client/CMakeFiles/pb_remote_client_nrf52832_xxAA_s132_5.0.0.dir/__/__/__/mesh/access/src/access.c.obj
 .bss.m_flash_not_ready
                0x2000383c        0x1 examples/pb_remote/client/CMakeFiles/pb_remote_client_nrf52832_xxAA_s132_5.0.0.dir/__/__/__/mesh/access/src/access.c.obj
 *fill*         0x2000383d        0x3 
 .bss.m_model_pool
                0x20003840       0x68 examples/pb_remote/client/CMakeFiles/pb_remote_client_nrf52832_xxAA_s132_5.0.0.dir/__/__/__/mesh/access/src/access.c.obj
 .bss.m_subscription_list_pool
                0x200038a8       0x10 examples/pb_remote/client/CMakeFiles/pb_remote_client_nrf52832_xxAA_s132_5.0.0.dir/__/__/__/mesh/access/src/access.c.obj
 .bss.m_reliable
                0x200038b8       0x74 examples/pb_remote/client/CMakeFiles/pb_remote_client_nrf52832_xxAA_s132_5.0.0.dir/__/__/__/mesh/access/src/access_reliable.c.obj
 .bss.m_addr_nonvirtual_allocated
                0x2000392c        0x4 examples/pb_remote/client/CMakeFiles/pb_remote_client_nrf52832_xxAA_s132_5.0.0.dir/__/__/__/mesh/access/src/device_state_manager.c.obj
 .bss.m_addr_nonvirtual_needs_flashing
                0x20003930        0x4 examples/pb_remote/client/CMakeFiles/pb_remote_client_nrf52832_xxAA_s132_5.0.0.dir/__/__/__/mesh/access/src/device_state_manager.c.obj
 .bss.m_addr_unicast_allocated
                0x20003934        0x4 examples/pb_remote/client/CMakeFiles/pb_remote_client_nrf52832_xxAA_s132_5.0.0.dir/__/__/__/mesh/access/src/device_state_manager.c.obj
 .bss.m_addr_unicast_needs_flashing
                0x20003938        0x4 examples/pb_remote/client/CMakeFiles/pb_remote_client_nrf52832_xxAA_s132_5.0.0.dir/__/__/__/mesh/access/src/device_state_manager.c.obj
 .bss.m_addr_virtual_allocated
                0x2000393c        0x4 examples/pb_remote/client/CMakeFiles/pb_remote_client_nrf52832_xxAA_s132_5.0.0.dir/__/__/__/mesh/access/src/device_state_manager.c.obj
 .bss.m_addr_virtual_needs_flashing
                0x20003940        0x4 examples/pb_remote/client/CMakeFiles/pb_remote_client_nrf52832_xxAA_s132_5.0.0.dir/__/__/__/mesh/access/src/device_state_manager.c.obj
 .bss.m_addresses
                0x20003944       0x10 examples/pb_remote/client/CMakeFiles/pb_remote_client_nrf52832_xxAA_s132_5.0.0.dir/__/__/__/mesh/access/src/device_state_manager.c.obj
 .bss.m_appkey_allocated
                0x20003954        0x4 examples/pb_remote/client/CMakeFiles/pb_remote_client_nrf52832_xxAA_s132_5.0.0.dir/__/__/__/mesh/access/src/device_state_manager.c.obj
 .bss.m_appkey_needs_flashing
                0x20003958        0x4 examples/pb_remote/client/CMakeFiles/pb_remote_client_nrf52832_xxAA_s132_5.0.0.dir/__/__/__/mesh/access/src/device_state_manager.c.obj
 .bss.m_appkeys
                0x2000395c       0x2a examples/pb_remote/client/CMakeFiles/pb_remote_client_nrf52832_xxAA_s132_5.0.0.dir/__/__/__/mesh/access/src/device_state_manager.c.obj
 *fill*         0x20003986        0x2 
 .bss.m_devkey_allocated
                0x20003988        0x4 examples/pb_remote/client/CMakeFiles/pb_remote_client_nrf52832_xxAA_s132_5.0.0.dir/__/__/__/mesh/access/src/device_state_manager.c.obj
 .bss.m_devkey_needs_flashing
                0x2000398c        0x4 examples/pb_remote/client/CMakeFiles/pb_remote_client_nrf52832_xxAA_s132_5.0.0.dir/__/__/__/mesh/access/src/device_state_manager.c.obj
 .bss.m_devkeys
                0x20003990       0x6e examples/pb_remote/client/CMakeFiles/pb_remote_client_nrf52832_xxAA_s132_5.0.0.dir/__/__/__/mesh/access/src/device_state_manager.c.obj
 .bss.m_flash_is_available
                0x200039fe        0x1 examples/pb_remote/client/CMakeFiles/pb_remote_client_nrf52832_xxAA_s132_5.0.0.dir/__/__/__/mesh/access/src/device_state_manager.c.obj
 *fill*         0x200039ff        0x1 
 .bss.m_flash_manager
                0x20003a00       0x24 examples/pb_remote/client/CMakeFiles/pb_remote_client_nrf52832_xxAA_s132_5.0.0.dir/__/__/__/mesh/access/src/device_state_manager.c.obj
 .bss.m_flash_mem_listener_update_all
                0x20003a24       0x10 examples/pb_remote/client/CMakeFiles/pb_remote_client_nrf52832_xxAA_s132_5.0.0.dir/__/__/__/mesh/access/src/device_state_manager.c.obj
 .bss.m_has_primary_subnet
                0x20003a34        0x1 examples/pb_remote/client/CMakeFiles/pb_remote_client_nrf52832_xxAA_s132_5.0.0.dir/__/__/__/mesh/access/src/device_state_manager.c.obj
 *fill*         0x20003a35        0x1 
 .bss.m_local_unicast_addr
                0x20003a36        0x4 examples/pb_remote/client/CMakeFiles/pb_remote_client_nrf52832_xxAA_s132_5.0.0.dir/__/__/__/mesh/access/src/device_state_manager.c.obj
 *fill*         0x20003a3a        0x2 
 .bss.m_subnet_allocated
                0x20003a3c        0x4 examples/pb_remote/client/CMakeFiles/pb_remote_client_nrf52832_xxAA_s132_5.0.0.dir/__/__/__/mesh/access/src/device_state_manager.c.obj
 .bss.m_subnet_needs_flashing
                0x20003a40        0x4 examples/pb_remote/client/CMakeFiles/pb_remote_client_nrf52832_xxAA_s132_5.0.0.dir/__/__/__/mesh/access/src/device_state_manager.c.obj
 .bss.m_subnets
                0x20003a44       0xac examples/pb_remote/client/CMakeFiles/pb_remote_client_nrf52832_xxAA_s132_5.0.0.dir/__/__/__/mesh/access/src/device_state_manager.c.obj
 .bss.m_virtual_addresses
                0x20003af0       0x14 examples/pb_remote/client/CMakeFiles/pb_remote_client_nrf52832_xxAA_s132_5.0.0.dir/__/__/__/mesh/access/src/device_state_manager.c.obj
 .bss.m_uuid    0x20003b04       0x10 mesh/core/libmesh_core_nrf52832_xxAA.a(nrf_mesh_configure.c.obj)
 .bss.mp_evt_handlers_head
                0x20003b14        0x4 mesh/core/libmesh_core_nrf52832_xxAA.a(event.c.obj)
 .bss.lock_count.9759
                0x20003b18        0x4 mesh/core/libmesh_core_nrf52832_xxAA.a(net_state.c.obj)
 .bss.m_flash_manager
                0x20003b1c       0x24 mesh/core/libmesh_core_nrf52832_xxAA.a(net_state.c.obj)
 .bss.m_iv_update_timer
                0x20003b40       0x18 mesh/core/libmesh_core_nrf52832_xxAA.a(net_state.c.obj)
 .bss.m_net_state
                0x20003b58       0x14 mesh/core/libmesh_core_nrf52832_xxAA.a(net_state.c.obj)
 .bss.m_seqnum_allocation_in_progress
                0x20003b6c        0x1 mesh/core/libmesh_core_nrf52832_xxAA.a(net_state.c.obj)
 .bss.m_test_mode
                0x20003b6d        0x1 mesh/core/libmesh_core_nrf52832_xxAA.a(net_state.c.obj)
 .bss.m_is_enabled
                0x20003b6e        0x1 mesh/core/libmesh_core_nrf52832_xxAA.a(nrf_mesh.c.obj)
 .bss.m_is_initialized
                0x20003b6f        0x1 mesh/core/libmesh_core_nrf52832_xxAA.a(nrf_mesh.c.obj)
 .bss.m_rx_cb   0x20003b70        0x4 mesh/core/libmesh_core_nrf52832_xxAA.a(nrf_mesh.c.obj)
 .bss.m_event_flag
                0x20003b74        0x4 mesh/core/libmesh_core_nrf52832_xxAA.a(timer_scheduler.c.obj)
 .bss.m_scheduler
                0x20003b78       0x10 mesh/core/libmesh_core_nrf52832_xxAA.a(timer_scheduler.c.obj)
 .bss.m_attributes
                0x20003b88        0x3 mesh/core/libmesh_core_nrf52832_xxAA.a(timer.c.obj)
 *fill*         0x20003b8b        0x1 
 .bss.m_callbacks
                0x20003b8c        0xc mesh/core/libmesh_core_nrf52832_xxAA.a(timer.c.obj)
 .bss.m_is_in_ts
                0x20003b98        0x1 mesh/core/libmesh_core_nrf52832_xxAA.a(timer.c.obj)
 *fill*         0x20003b99        0x3 
 .bss.m_reference_time
                0x20003b9c        0x4 mesh/core/libmesh_core_nrf52832_xxAA.a(timer.c.obj)
 .bss.m_timeouts
                0x20003ba0        0xc mesh/core/libmesh_core_nrf52832_xxAA.a(timer.c.obj)
 .bss.m_timer_mut
                0x20003bac        0x4 mesh/core/libmesh_core_nrf52832_xxAA.a(timer.c.obj)
 .bss.m_ts_end_time
                0x20003bb0        0x4 mesh/core/libmesh_core_nrf52832_xxAA.a(timer.c.obj)
 .bss.mp_ppi_tasks
                0x20003bb4        0xc mesh/core/libmesh_core_nrf52832_xxAA.a(timer.c.obj)
 .bss.m_current_time
                0x20003bc0        0x4 mesh/core/libmesh_core_nrf52832_xxAA.a(ticker.c.obj)
 .bss.m_timer   0x20003bc4       0x18 mesh/core/libmesh_core_nrf52832_xxAA.a(ticker.c.obj)
 .bss.m_current_timeslot
                0x20003bdc       0x1c mesh/core/libmesh_core_nrf52832_xxAA.a(timeslot.c.obj)
 .bss.m_lfclk_ppm
                0x20003bf8        0x4 mesh/core/libmesh_core_nrf52832_xxAA.a(timeslot.c.obj)
 .bss.m_radio_request_earliest
                0x20003bfc       0x10 mesh/core/libmesh_core_nrf52832_xxAA.a(timeslot.c.obj)
 .bss.m_state_lock
                0x20003c0c        0x1 mesh/core/libmesh_core_nrf52832_xxAA.a(timeslot.c.obj)
 .bss.m_timeslot_forced_command
                0x20003c0d        0x1 mesh/core/libmesh_core_nrf52832_xxAA.a(timeslot.c.obj)
 *fill*         0x20003c0e        0x2 
 .bss.s_last_rtc_value.9223
                0x20003c10        0x8 mesh/core/libmesh_core_nrf52832_xxAA.a(timeslot.c.obj)
 .bss.m_bearer_event_fifo
                0x20003c18       0x14 mesh/core/libmesh_core_nrf52832_xxAA.a(bearer_event.c.obj)
 .bss.m_bearer_event_fifo_buffer
                0x20003c2c      0x100 mesh/core/libmesh_core_nrf52832_xxAA.a(bearer_event.c.obj)
 .bss.m_critical
                0x20003d2c        0x4 mesh/core/libmesh_core_nrf52832_xxAA.a(bearer_event.c.obj)
 .bss.m_flag_count
                0x20003d30        0x4 mesh/core/libmesh_core_nrf52832_xxAA.a(bearer_event.c.obj)
 .bss.m_flag_event_callbacks
                0x20003d34       0x20 mesh/core/libmesh_core_nrf52832_xxAA.a(bearer_event.c.obj)
 .bss.m_flags   0x20003d54        0x4 mesh/core/libmesh_core_nrf52832_xxAA.a(bearer_event.c.obj)
 .bss.m_irq_priority
                0x20003d58        0x1 mesh/core/libmesh_core_nrf52832_xxAA.a(bearer_event.c.obj)
 *fill*         0x20003d59        0x3 
 .bss.m_sequential_event_queue
                0x20003d5c        0x8 mesh/core/libmesh_core_nrf52832_xxAA.a(bearer_event.c.obj)
 .bss.s_recursion_guard.9345
                0x20003d64        0x1 mesh/core/libmesh_core_nrf52832_xxAA.a(bearer_event.c.obj)
 *fill*         0x20003d65        0x3 
 .bss.m_relay_check_cb
                0x20003d68        0x4 mesh/core/libmesh_core_nrf52832_xxAA.a(network.c.obj)
 .bss.m_relay_enable
                0x20003d6c        0x1 mesh/core/libmesh_core_nrf52832_xxAA.a(network.c.obj)
 *fill*         0x20003d6d        0x3 
 .bss.m_action_queue
                0x20003d70        0xc mesh/core/libmesh_core_nrf52832_xxAA.a(flash_manager.c.obj)
 .bss.m_action_queue_buffer
                0x20003d7c      0x104 mesh/core/libmesh_core_nrf52832_xxAA.a(flash_manager.c.obj)
 .bss.m_action_state
                0x20003e80        0x1 mesh/core/libmesh_core_nrf52832_xxAA.a(flash_manager.c.obj)
 *fill*         0x20003e81        0x3 
 .bss.m_memory_listener_queue
                0x20003e84        0x8 mesh/core/libmesh_core_nrf52832_xxAA.a(flash_manager.c.obj)
 .bss.m_processing_flag
                0x20003e8c        0x4 mesh/core/libmesh_core_nrf52832_xxAA.a(flash_manager.c.obj)
 .bss.m_queue_empty_cb
                0x20003e90        0x4 mesh/core/libmesh_core_nrf52832_xxAA.a(flash_manager.c.obj)
 .bss.m_state   0x20003e94        0x1 mesh/core/libmesh_core_nrf52832_xxAA.a(flash_manager.c.obj)
 *fill*         0x20003e95        0x1 
 .bss.m_token   0x20003e96        0x2 mesh/core/libmesh_core_nrf52832_xxAA.a(flash_manager.c.obj)
 .bss.p_current.11073
                0x20003e98        0x4 mesh/core/libmesh_core_nrf52832_xxAA.a(flash_manager.c.obj)
 .bss.result.11074
                0x20003e9c        0x1 mesh/core/libmesh_core_nrf52832_xxAA.a(flash_manager.c.obj)
 *fill*         0x20003e9d        0x3 
 .bss.m_adv_buffer
                0x20003ea0       0x68 mesh/core/libmesh_core_nrf52832_xxAA.a(beacon.c.obj)
 .bss.m_advertiser
                0x20003f08       0x94 mesh/core/libmesh_core_nrf52832_xxAA.a(beacon.c.obj)
 .bss.m_bearers
                0x20003f9c        0x4 mesh/core/libmesh_core_nrf52832_xxAA.a(core_tx.c.obj)
 .bss.m_tx_complete_callback
                0x20003fa0        0x4 mesh/core/libmesh_core_nrf52832_xxAA.a(core_tx.c.obj)
 .bss.m_hb_core_evt_handler
                0x20003fa4        0x8 mesh/core/libmesh_core_nrf52832_xxAA.a(heartbeat.c.obj)
 .bss.m_hb_pending_feat_msg
                0x20003fac        0x1 mesh/core/libmesh_core_nrf52832_xxAA.a(heartbeat.c.obj)
 .bss.m_hb_pending_pub_msg
                0x20003fad        0x1 mesh/core/libmesh_core_nrf52832_xxAA.a(heartbeat.c.obj)
 .bss.m_heartbeat_init_done
                0x20003fae        0x1 mesh/core/libmesh_core_nrf52832_xxAA.a(heartbeat.c.obj)
 *fill*         0x20003faf        0x1 
 .bss.m_heartbeat_subscription
                0x20003fb0       0x10 mesh/core/libmesh_core_nrf52832_xxAA.a(heartbeat.c.obj)
 .bss.m_publication_count_decrement_cb
                0x20003fc0        0x4 mesh/core/libmesh_core_nrf52832_xxAA.a(heartbeat.c.obj)
 .bss.m_publication_get_cb
                0x20003fc4        0x4 mesh/core/libmesh_core_nrf52832_xxAA.a(heartbeat.c.obj)
 .bss.m_publication_timer
                0x20003fc8       0x1c mesh/core/libmesh_core_nrf52832_xxAA.a(heartbeat.c.obj)
 .bss.m_subscription_timer
                0x20003fe4       0x18 mesh/core/libmesh_core_nrf52832_xxAA.a(heartbeat.c.obj)
 .bss.m_beacon_salt
                0x20003ffc       0x10 mesh/core/libmesh_core_nrf52832_xxAA.a(net_beacon.c.obj)
 .bss.m_enabled
                0x2000400c        0x1 mesh/core/libmesh_core_nrf52832_xxAA.a(net_beacon.c.obj)
 *fill*         0x2000400d        0x3 
 .bss.m_tx_event
                0x20004010       0x18 mesh/core/libmesh_core_nrf52832_xxAA.a(net_beacon.c.obj)
 .bss.m_adv_tx_count
                0x20004028        0x8 mesh/core/libmesh_core_nrf52832_xxAA.a(core_tx_adv.c.obj)
 .bss.m_advertisers
                0x20004030      0x128 mesh/core/libmesh_core_nrf52832_xxAA.a(core_tx_adv.c.obj)
 .bss.m_originator_adv_packet_buffer
                0x20004158      0x100 mesh/core/libmesh_core_nrf52832_xxAA.a(core_tx_adv.c.obj)
 .bss.m_relay_adv_packet_buffer
                0x20004258       0x80 mesh/core/libmesh_core_nrf52832_xxAA.a(core_tx_adv.c.obj)
 .bss.m_subscribers
                0x200042d8        0x4 mesh/core/libmesh_core_nrf52832_xxAA.a(ad_listener.c.obj)
 .bss.m_adtype_filter
                0x200042dc       0x38 mesh/core/libmesh_core_nrf52832_xxAA.a(ad_type_filter.c.obj)
 .bss.m_adv_prng
                0x20004314       0x10 mesh/core/libmesh_core_nrf52832_xxAA.a(advertiser.c.obj)
 .bss.m_action_queue
                0x20004324        0x8 mesh/core/libmesh_core_nrf52832_xxAA.a(bearer_handler.c.obj)
 .bss.m_end_time
                0x2000432c        0x4 mesh/core/libmesh_core_nrf52832_xxAA.a(bearer_handler.c.obj)
 .bss.m_scanner_is_active
                0x20004330        0x1 mesh/core/libmesh_core_nrf52832_xxAA.a(bearer_handler.c.obj)
 .bss.m_stopped
                0x20004331        0x1 mesh/core/libmesh_core_nrf52832_xxAA.a(bearer_handler.c.obj)
 *fill*         0x20004332        0x2 
 .bss.mp_action
                0x20004334        0x4 mesh/core/libmesh_core_nrf52832_xxAA.a(bearer_handler.c.obj)
 .bss.m_next_channel_index
                0x20004338        0x1 mesh/core/libmesh_core_nrf52832_xxAA.a(broadcast.c.obj)
 *fill*         0x20004339        0x3 
 .bss.m_accepted_amount
                0x2000433c        0x4 mesh/core/libmesh_core_nrf52832_xxAA.a(filter_engine.c.obj)
 .bss.m_filter_list_head
                0x20004340        0x4 mesh/core/libmesh_core_nrf52832_xxAA.a(filter_engine.c.obj)
 .bss.m_scanner
                0x20004344      0x28c mesh/core/libmesh_core_nrf52832_xxAA.a(scanner.c.obj)
 .bss.m_internal_event_fifo
                0x200045d0       0x14 mesh/core/libmesh_core_nrf52832_xxAA.a(internal_event.c.obj)
 .bss.m_internal_event_initialized
                0x200045e4        0x1 mesh/core/libmesh_core_nrf52832_xxAA.a(internal_event.c.obj)
 *fill*         0x200045e5        0x3 
 .bss.m_report_cb
                0x200045e8        0x4 mesh/core/libmesh_core_nrf52832_xxAA.a(internal_event.c.obj)
 .bss.m_msg_cache
                0x200045ec      0x100 mesh/core/libmesh_core_nrf52832_xxAA.a(msg_cache.c.obj)
 .bss.m_msg_cache_head
                0x200046ec        0x4 mesh/core/libmesh_core_nrf52832_xxAA.a(msg_cache.c.obj)
 .bss.m_control_packet_consumer_count
                0x200046f0        0x4 mesh/core/libmesh_core_nrf52832_xxAA.a(transport.c.obj)
 .bss.m_control_packet_consumers
                0x200046f4        0x8 mesh/core/libmesh_core_nrf52832_xxAA.a(transport.c.obj)
 .bss.m_sar_alloc
                0x200046fc        0x4 mesh/core/libmesh_core_nrf52832_xxAA.a(transport.c.obj)
 .bss.m_sar_process_flag
                0x20004700        0x4 mesh/core/libmesh_core_nrf52832_xxAA.a(transport.c.obj)
 .bss.m_sar_release
                0x20004704        0x4 mesh/core/libmesh_core_nrf52832_xxAA.a(transport.c.obj)
 .bss.m_sar_session_cache
                0x20004708       0x40 mesh/core/libmesh_core_nrf52832_xxAA.a(transport.c.obj)
 .bss.m_sar_session_cache_head
                0x20004748        0x4 mesh/core/libmesh_core_nrf52832_xxAA.a(transport.c.obj)
 .bss.m_trs_config
                0x2000474c       0x18 mesh/core/libmesh_core_nrf52832_xxAA.a(transport.c.obj)
 .bss.m_trs_sar_sessions
                0x20004764      0x1b0 mesh/core/libmesh_core_nrf52832_xxAA.a(transport.c.obj)
 .bss.m_defrag  0x20004914       0x1c mesh/core/libmesh_core_nrf52832_xxAA.a(flash_manager_defrag.c.obj)
 .bss.m_token   0x20004930        0x2 mesh/core/libmesh_core_nrf52832_xxAA.a(flash_manager_defrag.c.obj)
 *fill*         0x20004932        0x2 
 .bss.mp_recovery_area
                0x20004934        0x4 mesh/core/libmesh_core_nrf52832_xxAA.a(flash_manager_defrag.c.obj)
 .bss.p_null_ptr.10164
                0x20004938        0x4 mesh/core/libmesh_core_nrf52832_xxAA.a(flash_manager_defrag.c.obj)
 .bss.m_pool    0x2000493c     0x1000 mesh/core/libmesh_core_nrf52832_xxAA.a(packet_mgr.c.obj)
 .bss.mp_free_head
                0x2000593c        0x4 mesh/core/libmesh_core_nrf52832_xxAA.a(packet_mgr.c.obj)
 .bss.m_event_flag
                0x20005940        0x4 mesh/core/libmesh_core_nrf52832_xxAA.a(mesh_flash.c.obj)
 .bss.m_suspended
                0x20005944        0x1 mesh/core/libmesh_core_nrf52832_xxAA.a(mesh_flash.c.obj)
 *fill*         0x20005945        0x3 
 .bss.m_users   0x20005948      0x228 mesh/core/libmesh_core_nrf52832_xxAA.a(mesh_flash.c.obj)
 .bss.m_128buf  0x20005b70       0x10 mesh/core/libmesh_core_nrf52832_xxAA.a(aes_cmac.c.obj)
 .bss.m_subkey1
                0x20005b80       0x10 mesh/core/libmesh_core_nrf52832_xxAA.a(aes_cmac.c.obj)
 .bss.m_subkey2
                0x20005b90       0x10 mesh/core/libmesh_core_nrf52832_xxAA.a(aes_cmac.c.obj)
 .bss.m_cache_full
                0x20005ba0        0x1 mesh/core/libmesh_core_nrf52832_xxAA.a(replay_cache.c.obj)
 .bss.m_cache_index
                0x20005ba1        0x1 mesh/core/libmesh_core_nrf52832_xxAA.a(replay_cache.c.obj)
 *fill*         0x20005ba2        0x2 
 .bss.m_replay_cache
                0x20005ba4      0x200 mesh/core/libmesh_core_nrf52832_xxAA.a(replay_cache.c.obj)
 .bss._acDownBuffer
                0x20005da4       0x80 external/rtt/librtt_nrf52832_xxAA.a(SEGGER_RTT.c.obj)
 .bss._acUpBuffer
                0x20005e24      0x400 external/rtt/librtt_nrf52832_xxAA.a(SEGGER_RTT.c.obj)
 .bss.__malloc_free_list
                0x20006224        0x4 c:/a/gcc_arm/6/bin/../lib/gcc/arm-none-eabi/6.3.1/../../../../arm-none-eabi/lib/thumb/v7e-m/fpv4-sp/hard\libg_nano.a(lib_a-nano-mallocr.o)
                0x20006224                __malloc_free_list
 .bss.__malloc_sbrk_start
                0x20006228        0x4 c:/a/gcc_arm/6/bin/../lib/gcc/arm-none-eabi/6.3.1/../../../../arm-none-eabi/lib/thumb/v7e-m/fpv4-sp/hard\libg_nano.a(lib_a-nano-mallocr.o)
                0x20006228                __malloc_sbrk_start
 .bss.heap_end.5239
                0x2000622c        0x4 c:/a/gcc_arm/6/bin/../lib/gcc/arm-none-eabi/6.3.1/../../../../arm-none-eabi/lib/thumb/v7e-m/fpv4-sp/hard\libnosys.a(sbrk.o)
 *(COMMON)
 COMMON         0x20006230        0xc examples/pb_remote/client/CMakeFiles/pb_remote_client_nrf52832_xxAA_s132_5.0.0.dir/__/__/nrf_mesh_sdk.c.obj
                0x20006230                nrf_nvic_state
 COMMON         0x2000623c        0x4 mesh/core/libmesh_core_nrf52832_xxAA.a(nrf_mesh.c.obj)
                0x2000623c                m_assertion_handler
 COMMON         0x20006240       0x78 external/rtt/librtt_nrf52832_xxAA.a(SEGGER_RTT.c.obj)
                0x20006240                _SEGGER_RTT
 COMMON         0x200062b8        0x4 c:/a/gcc_arm/6/bin/../lib/gcc/arm-none-eabi/6.3.1/../../../../arm-none-eabi/lib/thumb/v7e-m/fpv4-sp/hard\libg_nano.a(lib_a-reent.o)
                0x200062b8                errno
                0x200062bc                . = ALIGN (0x4)
                0x200062bc                __bss_end__ = .

.heap           0x200062c0     0x2000
                0x200062c0                __HeapBase = .
                0x200062c0                __end__ = .
                0x200062c0                PROVIDE (end, .)
 *(.heap*)
 .heap          0x200062c0     0x2000 examples/pb_remote/client/CMakeFiles/pb_remote_client_nrf52832_xxAA_s132_5.0.0.dir/__/__/__/external/nRF5_SDK_14.2.0_17b948a/components/toolchain/gcc/gcc_startup_nrf52.S.obj
                0x200082c0                __HeapLimit = .

.stack_dummy    0x200062c0     0x2000
 *(.stack*)
 .stack         0x200062c0     0x2000 examples/pb_remote/client/CMakeFiles/pb_remote_client_nrf52832_xxAA_s132_5.0.0.dir/__/__/__/external/nRF5_SDK_14.2.0_17b948a/components/toolchain/gcc/gcc_startup_nrf52.S.obj
                0x2000fd00                __StackTop = (ORIGIN (RAM) + LENGTH (RAM))
                0x2000dd00                __StackLimit = (__StackTop - SIZEOF (.stack_dummy))
                0x2000fd00                PROVIDE (__stack, __StackTop)
                0x00000001                ASSERT ((__StackLimit >= __HeapLimit), region RAM overflowed with stack)
                0x000000f0                DataInitFlashUsed = (__bss_start__ - __data_start__)
                0x00011b04                CodeFlashUsed = (__etext - ORIGIN (FLASH))
                0x00011bf4                TotalFlashUsed = (CodeFlashUsed + DataInitFlashUsed)
                0x00000001                ASSERT ((TotalFlashUsed <= LENGTH (FLASH)), region FLASH overflowed with .data and user data)
OUTPUT(examples\pb_remote\client\pb_remote_client_nrf52832_xxAA_s132_5.0.0.elf elf32-littlearm)

.ARM.attributes
                0x00000000       0x30
 .ARM.attributes
                0x00000000       0x22 c:/a/gcc_arm/6/bin/../lib/gcc/arm-none-eabi/6.3.1/thumb/v7e-m/fpv4-sp/hard/crti.o
 .ARM.attributes
                0x00000022       0x34 c:/a/gcc_arm/6/bin/../lib/gcc/arm-none-eabi/6.3.1/thumb/v7e-m/fpv4-sp/hard/crtbegin.o
 .ARM.attributes
                0x00000056       0x20 c:/a/gcc_arm/6/bin/../lib/gcc/arm-none-eabi/6.3.1/../../../../arm-none-eabi/lib/thumb/v7e-m/fpv4-sp/hard/crt0.o
 .ARM.attributes
                0x00000076       0x39 examples/pb_remote/client/CMakeFiles/pb_remote_client_nrf52832_xxAA_s132_5.0.0.dir/src/main.c.obj
 .ARM.attributes
                0x000000af       0x39 examples/pb_remote/client/CMakeFiles/pb_remote_client_nrf52832_xxAA_s132_5.0.0.dir/__/__/nrf_mesh_sdk.c.obj
 .ARM.attributes
                0x000000e8       0x39 examples/pb_remote/client/CMakeFiles/pb_remote_client_nrf52832_xxAA_s132_5.0.0.dir/__/__/common/src/rtt_input.c.obj
 .ARM.attributes
                0x00000121       0x39 examples/pb_remote/client/CMakeFiles/pb_remote_client_nrf52832_xxAA_s132_5.0.0.dir/__/__/__/models/pb_remote/src/pb_remote_client.c.obj
 .ARM.attributes
                0x0000015a       0x39 examples/pb_remote/client/CMakeFiles/pb_remote_client_nrf52832_xxAA_s132_5.0.0.dir/__/__/__/mesh/prov/src/prov_provisioner.c.obj
 .ARM.attributes
                0x00000193       0x39 examples/pb_remote/client/CMakeFiles/pb_remote_client_nrf52832_xxAA_s132_5.0.0.dir/__/__/__/mesh/prov/src/nrf_mesh_prov.c.obj
 .ARM.attributes
                0x000001cc       0x39 examples/pb_remote/client/CMakeFiles/pb_remote_client_nrf52832_xxAA_s132_5.0.0.dir/__/__/__/mesh/prov/src/provisioning.c.obj
 .ARM.attributes
                0x00000205       0x39 examples/pb_remote/client/CMakeFiles/pb_remote_client_nrf52832_xxAA_s132_5.0.0.dir/__/__/__/mesh/prov/src/prov_beacon.c.obj
 .ARM.attributes
                0x0000023e       0x39 examples/pb_remote/client/CMakeFiles/pb_remote_client_nrf52832_xxAA_s132_5.0.0.dir/__/__/__/mesh/prov/src/prov_utils.c.obj
 .ARM.attributes
                0x00000277       0x39 examples/pb_remote/client/CMakeFiles/pb_remote_client_nrf52832_xxAA_s132_5.0.0.dir/__/__/__/mesh/prov/src/prov_bearer_adv.c.obj
 .ARM.attributes
                0x000002b0       0x39 examples/pb_remote/client/CMakeFiles/pb_remote_client_nrf52832_xxAA_s132_5.0.0.dir/__/__/__/mesh/access/src/access_publish.c.obj
 .ARM.attributes
                0x000002e9       0x39 examples/pb_remote/client/CMakeFiles/pb_remote_client_nrf52832_xxAA_s132_5.0.0.dir/__/__/__/mesh/access/src/access.c.obj
 .ARM.attributes
                0x00000322       0x39 examples/pb_remote/client/CMakeFiles/pb_remote_client_nrf52832_xxAA_s132_5.0.0.dir/__/__/__/mesh/access/src/access_reliable.c.obj
 .ARM.attributes
                0x0000035b       0x39 examples/pb_remote/client/CMakeFiles/pb_remote_client_nrf52832_xxAA_s132_5.0.0.dir/__/__/__/mesh/access/src/device_state_manager.c.obj
 .ARM.attributes
                0x00000394       0x39 examples/pb_remote/client/CMakeFiles/pb_remote_client_nrf52832_xxAA_s132_5.0.0.dir/__/__/nrf_mesh_weak.c.obj
 .ARM.attributes
                0x000003cd       0x39 examples/pb_remote/client/CMakeFiles/pb_remote_client_nrf52832_xxAA_s132_5.0.0.dir/__/__/__/external/nRF5_SDK_14.2.0_17b948a/components/toolchain/system_nrf52.c.obj
 .ARM.attributes
                0x00000406       0x20 examples/pb_remote/client/CMakeFiles/pb_remote_client_nrf52832_xxAA_s132_5.0.0.dir/__/__/__/external/nRF5_SDK_14.2.0_17b948a/components/toolchain/gcc/gcc_startup_nrf52.S.obj
 .ARM.attributes
                0x00000426       0x39 mesh/core/libmesh_core_nrf52832_xxAA.a(nrf_mesh_configure.c.obj)
 .ARM.attributes
                0x0000045f       0x39 mesh/core/libmesh_core_nrf52832_xxAA.a(event.c.obj)
 .ARM.attributes
                0x00000498       0x39 mesh/core/libmesh_core_nrf52832_xxAA.a(fifo.c.obj)
 .ARM.attributes
                0x000004d1       0x39 mesh/core/libmesh_core_nrf52832_xxAA.a(net_state.c.obj)
 .ARM.attributes
                0x0000050a       0x39 mesh/core/libmesh_core_nrf52832_xxAA.a(nrf_mesh_utils.c.obj)
 .ARM.attributes
                0x00000543       0x39 mesh/core/libmesh_core_nrf52832_xxAA.a(nrf_mesh.c.obj)
 .ARM.attributes
                0x0000057c       0x39 mesh/core/libmesh_core_nrf52832_xxAA.a(hal.c.obj)
 .ARM.attributes
                0x000005b5       0x39 mesh/core/libmesh_core_nrf52832_xxAA.a(timer_scheduler.c.obj)
 .ARM.attributes
                0x000005ee       0x39 mesh/core/libmesh_core_nrf52832_xxAA.a(timer.c.obj)
 .ARM.attributes
                0x00000627       0x39 mesh/core/libmesh_core_nrf52832_xxAA.a(ticker.c.obj)
 .ARM.attributes
                0x00000660       0x39 mesh/core/libmesh_core_nrf52832_xxAA.a(rand.c.obj)
 .ARM.attributes
                0x00000699       0x39 mesh/core/libmesh_core_nrf52832_xxAA.a(timeslot.c.obj)
 .ARM.attributes
                0x000006d2       0x39 mesh/core/libmesh_core_nrf52832_xxAA.a(bearer_event.c.obj)
 .ARM.attributes
                0x0000070b       0x39 mesh/core/libmesh_core_nrf52832_xxAA.a(enc.c.obj)
 .ARM.attributes
                0x00000744       0x39 mesh/core/libmesh_core_nrf52832_xxAA.a(network.c.obj)
 .ARM.attributes
                0x0000077d       0x39 mesh/core/libmesh_core_nrf52832_xxAA.a(nrf_mesh_keygen.c.obj)
 .ARM.attributes
                0x000007b6       0x39 mesh/core/libmesh_core_nrf52832_xxAA.a(list.c.obj)
 .ARM.attributes
                0x000007ef       0x39 mesh/core/libmesh_core_nrf52832_xxAA.a(log.c.obj)
 .ARM.attributes
                0x00000828       0x39 mesh/core/libmesh_core_nrf52832_xxAA.a(flash_manager.c.obj)
 .ARM.attributes
                0x00000861       0x39 mesh/core/libmesh_core_nrf52832_xxAA.a(ccm_soft.c.obj)
 .ARM.attributes
                0x0000089a       0x39 mesh/core/libmesh_core_nrf52832_xxAA.a(beacon.c.obj)
 .ARM.attributes
                0x000008d3       0x39 mesh/core/libmesh_core_nrf52832_xxAA.a(flash_manager_internal.c.obj)
 .ARM.attributes
                0x0000090c       0x39 mesh/core/libmesh_core_nrf52832_xxAA.a(core_tx.c.obj)
 .ARM.attributes
                0x00000945       0x39 mesh/core/libmesh_core_nrf52832_xxAA.a(heartbeat.c.obj)
 .ARM.attributes
                0x0000097e       0x39 mesh/core/libmesh_core_nrf52832_xxAA.a(net_beacon.c.obj)
 .ARM.attributes
                0x000009b7       0x39 mesh/core/libmesh_core_nrf52832_xxAA.a(core_tx_adv.c.obj)
 .ARM.attributes
                0x000009f0       0x39 mesh/core/libmesh_core_nrf52832_xxAA.a(ad_listener.c.obj)
 .ARM.attributes
                0x00000a29       0x39 mesh/core/libmesh_core_nrf52832_xxAA.a(ad_type_filter.c.obj)
 .ARM.attributes
                0x00000a62       0x39 mesh/core/libmesh_core_nrf52832_xxAA.a(advertiser.c.obj)
 .ARM.attributes
                0x00000a9b       0x39 mesh/core/libmesh_core_nrf52832_xxAA.a(bearer_handler.c.obj)
 .ARM.attributes
                0x00000ad4       0x39 mesh/core/libmesh_core_nrf52832_xxAA.a(broadcast.c.obj)
 .ARM.attributes
                0x00000b0d       0x39 mesh/core/libmesh_core_nrf52832_xxAA.a(filter_engine.c.obj)
 .ARM.attributes
                0x00000b46       0x39 mesh/core/libmesh_core_nrf52832_xxAA.a(radio_config.c.obj)
 .ARM.attributes
                0x00000b7f       0x39 mesh/core/libmesh_core_nrf52832_xxAA.a(scanner.c.obj)
 .ARM.attributes
                0x00000bb8       0x39 mesh/core/libmesh_core_nrf52832_xxAA.a(internal_event.c.obj)
 .ARM.attributes
                0x00000bf1       0x39 mesh/core/libmesh_core_nrf52832_xxAA.a(aes.c.obj)
 .ARM.attributes
                0x00000c2a       0x39 mesh/core/libmesh_core_nrf52832_xxAA.a(msg_cache.c.obj)
 .ARM.attributes
                0x00000c63       0x39 mesh/core/libmesh_core_nrf52832_xxAA.a(transport.c.obj)
 .ARM.attributes
                0x00000c9c       0x39 mesh/core/libmesh_core_nrf52832_xxAA.a(packet_buffer.c.obj)
 .ARM.attributes
                0x00000cd5       0x39 mesh/core/libmesh_core_nrf52832_xxAA.a(flash_manager_defrag.c.obj)
 .ARM.attributes
                0x00000d0e       0x39 mesh/core/libmesh_core_nrf52832_xxAA.a(packet_mgr.c.obj)
 .ARM.attributes
                0x00000d47       0x39 mesh/core/libmesh_core_nrf52832_xxAA.a(mesh_flash.c.obj)
 .ARM.attributes
                0x00000d80       0x39 mesh/core/libmesh_core_nrf52832_xxAA.a(queue.c.obj)
 .ARM.attributes
                0x00000db9       0x39 mesh/core/libmesh_core_nrf52832_xxAA.a(aes_cmac.c.obj)
 .ARM.attributes
                0x00000df2       0x39 mesh/core/libmesh_core_nrf52832_xxAA.a(nrf_mesh_opt.c.obj)
 .ARM.attributes
                0x00000e2b       0x39 mesh/core/libmesh_core_nrf52832_xxAA.a(msqueue.c.obj)
 .ARM.attributes
                0x00000e64       0x39 mesh/core/libmesh_core_nrf52832_xxAA.a(replay_cache.c.obj)
 .ARM.attributes
                0x00000e9d       0x39 mesh/core/libmesh_core_nrf52832_xxAA.a(nrf_flash.c.obj)
 .ARM.attributes
                0x00000ed6       0x39 external/rtt/librtt_nrf52832_xxAA.a(SEGGER_RTT.c.obj)
 .ARM.attributes
                0x00000f0f       0x39 external/rtt/librtt_nrf52832_xxAA.a(SEGGER_RTT_printf.c.obj)
 .ARM.attributes
                0x00000f48       0x39 external/micro-ecc/libuECC_nrf52832_xxAA.a(uECC.c.obj)
 .ARM.attributes
                0x00000f81       0x22 c:/a/gcc_arm/6/bin/../lib/gcc/arm-none-eabi/6.3.1/thumb/v7e-m/fpv4-sp/hard\libgcc.a(_aeabi_uldivmod.o)
 .ARM.attributes
                0x00000fa3       0x34 c:/a/gcc_arm/6/bin/../lib/gcc/arm-none-eabi/6.3.1/thumb/v7e-m/fpv4-sp/hard\libgcc.a(_udivmoddi4.o)
 .ARM.attributes
                0x00000fd7       0x22 c:/a/gcc_arm/6/bin/../lib/gcc/arm-none-eabi/6.3.1/thumb/v7e-m/fpv4-sp/hard\libgcc.a(_dvmd_tls.o)
 .ARM.attributes
                0x00000ff9       0x34 c:/a/gcc_arm/6/bin/../lib/gcc/arm-none-eabi/6.3.1/../../../../arm-none-eabi/lib/thumb/v7e-m/fpv4-sp/hard\libg_nano.a(lib_a-exit.o)
 .ARM.attributes
                0x0000102d       0x34 c:/a/gcc_arm/6/bin/../lib/gcc/arm-none-eabi/6.3.1/../../../../arm-none-eabi/lib/thumb/v7e-m/fpv4-sp/hard\libg_nano.a(lib_a-impure.o)
 .ARM.attributes
                0x00001061       0x34 c:/a/gcc_arm/6/bin/../lib/gcc/arm-none-eabi/6.3.1/../../../../arm-none-eabi/lib/thumb/v7e-m/fpv4-sp/hard\libg_nano.a(lib_a-init.o)
 .ARM.attributes
                0x00001095       0x34 c:/a/gcc_arm/6/bin/../lib/gcc/arm-none-eabi/6.3.1/../../../../arm-none-eabi/lib/thumb/v7e-m/fpv4-sp/hard\libg_nano.a(lib_a-malloc.o)
 .ARM.attributes
                0x000010c9       0x34 c:/a/gcc_arm/6/bin/../lib/gcc/arm-none-eabi/6.3.1/../../../../arm-none-eabi/lib/thumb/v7e-m/fpv4-sp/hard\libg_nano.a(lib_a-memcmp.o)
 .ARM.attributes
                0x000010fd       0x34 c:/a/gcc_arm/6/bin/../lib/gcc/arm-none-eabi/6.3.1/../../../../arm-none-eabi/lib/thumb/v7e-m/fpv4-sp/hard\libg_nano.a(lib_a-memcpy-stub.o)
 .ARM.attributes
                0x00001131       0x34 c:/a/gcc_arm/6/bin/../lib/gcc/arm-none-eabi/6.3.1/../../../../arm-none-eabi/lib/thumb/v7e-m/fpv4-sp/hard\libg_nano.a(lib_a-memset.o)
 .ARM.attributes
                0x00001165       0x34 c:/a/gcc_arm/6/bin/../lib/gcc/arm-none-eabi/6.3.1/../../../../arm-none-eabi/lib/thumb/v7e-m/fpv4-sp/hard\libg_nano.a(lib_a-nano-freer.o)
 .ARM.attributes
                0x00001199       0x34 c:/a/gcc_arm/6/bin/../lib/gcc/arm-none-eabi/6.3.1/../../../../arm-none-eabi/lib/thumb/v7e-m/fpv4-sp/hard\libg_nano.a(lib_a-nano-mallocr.o)
 .ARM.attributes
                0x000011cd       0x34 c:/a/gcc_arm/6/bin/../lib/gcc/arm-none-eabi/6.3.1/../../../../arm-none-eabi/lib/thumb/v7e-m/fpv4-sp/hard\libg_nano.a(lib_a-sbrkr.o)
 .ARM.attributes
                0x00001201       0x34 c:/a/gcc_arm/6/bin/../lib/gcc/arm-none-eabi/6.3.1/../../../../arm-none-eabi/lib/thumb/v7e-m/fpv4-sp/hard\libg_nano.a(lib_a-strcpy.o)
 .ARM.attributes
                0x00001235       0x1b c:/a/gcc_arm/6/bin/../lib/gcc/arm-none-eabi/6.3.1/../../../../arm-none-eabi/lib/thumb/v7e-m/fpv4-sp/hard\libg_nano.a(lib_a-strlen.o)
 .ARM.attributes
                0x00001250       0x34 c:/a/gcc_arm/6/bin/../lib/gcc/arm-none-eabi/6.3.1/../../../../arm-none-eabi/lib/thumb/v7e-m/fpv4-sp/hard\libg_nano.a(lib_a-strrchr.o)
 .ARM.attributes
                0x00001284       0x34 c:/a/gcc_arm/6/bin/../lib/gcc/arm-none-eabi/6.3.1/../../../../arm-none-eabi/lib/thumb/v7e-m/fpv4-sp/hard\libg_nano.a(lib_a-mlock.o)
 .ARM.attributes
                0x000012b8       0x34 c:/a/gcc_arm/6/bin/../lib/gcc/arm-none-eabi/6.3.1/../../../../arm-none-eabi/lib/thumb/v7e-m/fpv4-sp/hard\libg_nano.a(lib_a-reent.o)
 .ARM.attributes
                0x000012ec       0x34 c:/a/gcc_arm/6/bin/../lib/gcc/arm-none-eabi/6.3.1/../../../../arm-none-eabi/lib/thumb/v7e-m/fpv4-sp/hard\libg_nano.a(lib_a-strchr.o)
 .ARM.attributes
                0x00001320       0x34 c:/a/gcc_arm/6/bin/../lib/gcc/arm-none-eabi/6.3.1/thumb/v7e-m/fpv4-sp/hard/crtend.o
 .ARM.attributes
                0x00001354       0x22 c:/a/gcc_arm/6/bin/../lib/gcc/arm-none-eabi/6.3.1/thumb/v7e-m/fpv4-sp/hard/crtn.o
 .ARM.attributes
                0x00001376       0x34 c:/a/gcc_arm/6/bin/../lib/gcc/arm-none-eabi/6.3.1/../../../../arm-none-eabi/lib/thumb/v7e-m/fpv4-sp/hard\libnosys.a(sbrk.o)
 .ARM.attributes
                0x000013aa       0x34 c:/a/gcc_arm/6/bin/../lib/gcc/arm-none-eabi/6.3.1/../../../../arm-none-eabi/lib/thumb/v7e-m/fpv4-sp/hard\libnosys.a(_exit.o)

.comment        0x00000000       0x7f
 .comment       0x00000000       0x7f examples/pb_remote/client/CMakeFiles/pb_remote_client_nrf52832_xxAA_s132_5.0.0.dir/src/main.c.obj
                                 0x80 (size before relaxing)
 .comment       0x0000007f       0x80 examples/pb_remote/client/CMakeFiles/pb_remote_client_nrf52832_xxAA_s132_5.0.0.dir/__/__/nrf_mesh_sdk.c.obj
 .comment       0x0000007f       0x80 examples/pb_remote/client/CMakeFiles/pb_remote_client_nrf52832_xxAA_s132_5.0.0.dir/__/__/common/src/rtt_input.c.obj
 .comment       0x0000007f       0x80 examples/pb_remote/client/CMakeFiles/pb_remote_client_nrf52832_xxAA_s132_5.0.0.dir/__/__/__/models/pb_remote/src/pb_remote_client.c.obj
 .comment       0x0000007f       0x80 examples/pb_remote/client/CMakeFiles/pb_remote_client_nrf52832_xxAA_s132_5.0.0.dir/__/__/__/mesh/prov/src/prov_provisioner.c.obj
 .comment       0x0000007f       0x80 examples/pb_remote/client/CMakeFiles/pb_remote_client_nrf52832_xxAA_s132_5.0.0.dir/__/__/__/mesh/prov/src/nrf_mesh_prov.c.obj
 .comment       0x0000007f       0x80 examples/pb_remote/client/CMakeFiles/pb_remote_client_nrf52832_xxAA_s132_5.0.0.dir/__/__/__/mesh/prov/src/provisioning.c.obj
 .comment       0x0000007f       0x80 examples/pb_remote/client/CMakeFiles/pb_remote_client_nrf52832_xxAA_s132_5.0.0.dir/__/__/__/mesh/prov/src/prov_beacon.c.obj
 .comment       0x0000007f       0x80 examples/pb_remote/client/CMakeFiles/pb_remote_client_nrf52832_xxAA_s132_5.0.0.dir/__/__/__/mesh/prov/src/prov_utils.c.obj
 .comment       0x0000007f       0x80 examples/pb_remote/client/CMakeFiles/pb_remote_client_nrf52832_xxAA_s132_5.0.0.dir/__/__/__/mesh/prov/src/prov_bearer_adv.c.obj
 .comment       0x0000007f       0x80 examples/pb_remote/client/CMakeFiles/pb_remote_client_nrf52832_xxAA_s132_5.0.0.dir/__/__/__/mesh/access/src/access_publish.c.obj
 .comment       0x0000007f       0x80 examples/pb_remote/client/CMakeFiles/pb_remote_client_nrf52832_xxAA_s132_5.0.0.dir/__/__/__/mesh/access/src/access.c.obj
 .comment       0x0000007f       0x80 examples/pb_remote/client/CMakeFiles/pb_remote_client_nrf52832_xxAA_s132_5.0.0.dir/__/__/__/mesh/access/src/access_reliable.c.obj
 .comment       0x0000007f       0x80 examples/pb_remote/client/CMakeFiles/pb_remote_client_nrf52832_xxAA_s132_5.0.0.dir/__/__/__/mesh/access/src/device_state_manager.c.obj
 .comment       0x0000007f       0x80 examples/pb_remote/client/CMakeFiles/pb_remote_client_nrf52832_xxAA_s132_5.0.0.dir/__/__/nrf_mesh_weak.c.obj
 .comment       0x0000007f       0x80 examples/pb_remote/client/CMakeFiles/pb_remote_client_nrf52832_xxAA_s132_5.0.0.dir/__/__/__/external/nRF5_SDK_14.2.0_17b948a/components/toolchain/system_nrf52.c.obj
 .comment       0x0000007f       0x80 mesh/core/libmesh_core_nrf52832_xxAA.a(nrf_mesh_configure.c.obj)
 .comment       0x0000007f       0x80 mesh/core/libmesh_core_nrf52832_xxAA.a(event.c.obj)
 .comment       0x0000007f       0x80 mesh/core/libmesh_core_nrf52832_xxAA.a(fifo.c.obj)
 .comment       0x0000007f       0x80 mesh/core/libmesh_core_nrf52832_xxAA.a(net_state.c.obj)
 .comment       0x0000007f       0x80 mesh/core/libmesh_core_nrf52832_xxAA.a(nrf_mesh_utils.c.obj)
 .comment       0x0000007f       0x80 mesh/core/libmesh_core_nrf52832_xxAA.a(nrf_mesh.c.obj)
 .comment       0x0000007f       0x80 mesh/core/libmesh_core_nrf52832_xxAA.a(hal.c.obj)
 .comment       0x0000007f       0x80 mesh/core/libmesh_core_nrf52832_xxAA.a(timer_scheduler.c.obj)
 .comment       0x0000007f       0x80 mesh/core/libmesh_core_nrf52832_xxAA.a(timer.c.obj)
 .comment       0x0000007f       0x80 mesh/core/libmesh_core_nrf52832_xxAA.a(ticker.c.obj)
 .comment       0x0000007f       0x80 mesh/core/libmesh_core_nrf52832_xxAA.a(rand.c.obj)
 .comment       0x0000007f       0x80 mesh/core/libmesh_core_nrf52832_xxAA.a(timeslot.c.obj)
 .comment       0x0000007f       0x80 mesh/core/libmesh_core_nrf52832_xxAA.a(bearer_event.c.obj)
 .comment       0x0000007f       0x80 mesh/core/libmesh_core_nrf52832_xxAA.a(enc.c.obj)
 .comment       0x0000007f       0x80 mesh/core/libmesh_core_nrf52832_xxAA.a(network.c.obj)
 .comment       0x0000007f       0x80 mesh/core/libmesh_core_nrf52832_xxAA.a(nrf_mesh_keygen.c.obj)
 .comment       0x0000007f       0x80 mesh/core/libmesh_core_nrf52832_xxAA.a(list.c.obj)
 .comment       0x0000007f       0x80 mesh/core/libmesh_core_nrf52832_xxAA.a(log.c.obj)
 .comment       0x0000007f       0x80 mesh/core/libmesh_core_nrf52832_xxAA.a(flash_manager.c.obj)
 .comment       0x0000007f       0x80 mesh/core/libmesh_core_nrf52832_xxAA.a(ccm_soft.c.obj)
 .comment       0x0000007f       0x80 mesh/core/libmesh_core_nrf52832_xxAA.a(beacon.c.obj)
 .comment       0x0000007f       0x80 mesh/core/libmesh_core_nrf52832_xxAA.a(flash_manager_internal.c.obj)
 .comment       0x0000007f       0x80 mesh/core/libmesh_core_nrf52832_xxAA.a(core_tx.c.obj)
 .comment       0x0000007f       0x80 mesh/core/libmesh_core_nrf52832_xxAA.a(heartbeat.c.obj)
 .comment       0x0000007f       0x80 mesh/core/libmesh_core_nrf52832_xxAA.a(net_beacon.c.obj)
 .comment       0x0000007f       0x80 mesh/core/libmesh_core_nrf52832_xxAA.a(core_tx_adv.c.obj)
 .comment       0x0000007f       0x80 mesh/core/libmesh_core_nrf52832_xxAA.a(ad_listener.c.obj)
 .comment       0x0000007f       0x80 mesh/core/libmesh_core_nrf52832_xxAA.a(ad_type_filter.c.obj)
 .comment       0x0000007f       0x80 mesh/core/libmesh_core_nrf52832_xxAA.a(advertiser.c.obj)
 .comment       0x0000007f       0x80 mesh/core/libmesh_core_nrf52832_xxAA.a(bearer_handler.c.obj)
 .comment       0x0000007f       0x80 mesh/core/libmesh_core_nrf52832_xxAA.a(broadcast.c.obj)
 .comment       0x0000007f       0x80 mesh/core/libmesh_core_nrf52832_xxAA.a(filter_engine.c.obj)
 .comment       0x0000007f       0x80 mesh/core/libmesh_core_nrf52832_xxAA.a(radio_config.c.obj)
 .comment       0x0000007f       0x80 mesh/core/libmesh_core_nrf52832_xxAA.a(scanner.c.obj)
 .comment       0x0000007f       0x80 mesh/core/libmesh_core_nrf52832_xxAA.a(internal_event.c.obj)
 .comment       0x0000007f       0x80 mesh/core/libmesh_core_nrf52832_xxAA.a(aes.c.obj)
 .comment       0x0000007f       0x80 mesh/core/libmesh_core_nrf52832_xxAA.a(msg_cache.c.obj)
 .comment       0x0000007f       0x80 mesh/core/libmesh_core_nrf52832_xxAA.a(transport.c.obj)
 .comment       0x0000007f       0x80 mesh/core/libmesh_core_nrf52832_xxAA.a(packet_buffer.c.obj)
 .comment       0x0000007f       0x80 mesh/core/libmesh_core_nrf52832_xxAA.a(flash_manager_defrag.c.obj)
 .comment       0x0000007f       0x80 mesh/core/libmesh_core_nrf52832_xxAA.a(packet_mgr.c.obj)
 .comment       0x0000007f       0x80 mesh/core/libmesh_core_nrf52832_xxAA.a(mesh_flash.c.obj)
 .comment       0x0000007f       0x80 mesh/core/libmesh_core_nrf52832_xxAA.a(queue.c.obj)
 .comment       0x0000007f       0x80 mesh/core/libmesh_core_nrf52832_xxAA.a(aes_cmac.c.obj)
 .comment       0x0000007f       0x80 mesh/core/libmesh_core_nrf52832_xxAA.a(nrf_mesh_opt.c.obj)
 .comment       0x0000007f       0x80 mesh/core/libmesh_core_nrf52832_xxAA.a(msqueue.c.obj)
 .comment       0x0000007f       0x80 mesh/core/libmesh_core_nrf52832_xxAA.a(replay_cache.c.obj)
 .comment       0x0000007f       0x80 mesh/core/libmesh_core_nrf52832_xxAA.a(nrf_flash.c.obj)
 .comment       0x0000007f       0x80 external/rtt/librtt_nrf52832_xxAA.a(SEGGER_RTT.c.obj)
 .comment       0x0000007f       0x80 external/rtt/librtt_nrf52832_xxAA.a(SEGGER_RTT_printf.c.obj)
 .comment       0x0000007f       0x80 external/micro-ecc/libuECC_nrf52832_xxAA.a(uECC.c.obj)

.debug_info     0x00000000    0x6c259
 .debug_info    0x00000000     0x3e18 examples/pb_remote/client/CMakeFiles/pb_remote_client_nrf52832_xxAA_s132_5.0.0.dir/src/main.c.obj
 .debug_info    0x00003e18     0x344f examples/pb_remote/client/CMakeFiles/pb_remote_client_nrf52832_xxAA_s132_5.0.0.dir/__/__/nrf_mesh_sdk.c.obj
 .debug_info    0x00007267     0x116f examples/pb_remote/client/CMakeFiles/pb_remote_client_nrf52832_xxAA_s132_5.0.0.dir/__/__/common/src/rtt_input.c.obj
 .debug_info    0x000083d6     0x3c47 examples/pb_remote/client/CMakeFiles/pb_remote_client_nrf52832_xxAA_s132_5.0.0.dir/__/__/__/models/pb_remote/src/pb_remote_client.c.obj
 .debug_info    0x0000c01d     0x2348 examples/pb_remote/client/CMakeFiles/pb_remote_client_nrf52832_xxAA_s132_5.0.0.dir/__/__/__/mesh/prov/src/prov_provisioner.c.obj
 .debug_info    0x0000e365     0x1be9 examples/pb_remote/client/CMakeFiles/pb_remote_client_nrf52832_xxAA_s132_5.0.0.dir/__/__/__/mesh/prov/src/nrf_mesh_prov.c.obj
 .debug_info    0x0000ff4e     0x1588 examples/pb_remote/client/CMakeFiles/pb_remote_client_nrf52832_xxAA_s132_5.0.0.dir/__/__/__/mesh/prov/src/provisioning.c.obj
 .debug_info    0x000114d6     0x19a2 examples/pb_remote/client/CMakeFiles/pb_remote_client_nrf52832_xxAA_s132_5.0.0.dir/__/__/__/mesh/prov/src/prov_beacon.c.obj
 .debug_info    0x00012e78     0x2029 examples/pb_remote/client/CMakeFiles/pb_remote_client_nrf52832_xxAA_s132_5.0.0.dir/__/__/__/mesh/prov/src/prov_utils.c.obj
 .debug_info    0x00014ea1     0x3963 examples/pb_remote/client/CMakeFiles/pb_remote_client_nrf52832_xxAA_s132_5.0.0.dir/__/__/__/mesh/prov/src/prov_bearer_adv.c.obj
 .debug_info    0x00018804     0x112b examples/pb_remote/client/CMakeFiles/pb_remote_client_nrf52832_xxAA_s132_5.0.0.dir/__/__/__/mesh/access/src/access_publish.c.obj
 .debug_info    0x0001992f     0x447d examples/pb_remote/client/CMakeFiles/pb_remote_client_nrf52832_xxAA_s132_5.0.0.dir/__/__/__/mesh/access/src/access.c.obj
 .debug_info    0x0001ddac     0x1537 examples/pb_remote/client/CMakeFiles/pb_remote_client_nrf52832_xxAA_s132_5.0.0.dir/__/__/__/mesh/access/src/access_reliable.c.obj
 .debug_info    0x0001f2e3     0x5f01 examples/pb_remote/client/CMakeFiles/pb_remote_client_nrf52832_xxAA_s132_5.0.0.dir/__/__/__/mesh/access/src/device_state_manager.c.obj
 .debug_info    0x000251e4      0x94b examples/pb_remote/client/CMakeFiles/pb_remote_client_nrf52832_xxAA_s132_5.0.0.dir/__/__/nrf_mesh_weak.c.obj
 .debug_info    0x00025b2f     0x10da examples/pb_remote/client/CMakeFiles/pb_remote_client_nrf52832_xxAA_s132_5.0.0.dir/__/__/__/external/nRF5_SDK_14.2.0_17b948a/components/toolchain/system_nrf52.c.obj
 .debug_info    0x00026c09      0xd04 mesh/core/libmesh_core_nrf52832_xxAA.a(nrf_mesh_configure.c.obj)
 .debug_info    0x0002790d     0x1509 mesh/core/libmesh_core_nrf52832_xxAA.a(event.c.obj)
 .debug_info    0x00028e16      0xd0e mesh/core/libmesh_core_nrf52832_xxAA.a(fifo.c.obj)
 .debug_info    0x00029b24     0x23d7 mesh/core/libmesh_core_nrf52832_xxAA.a(net_state.c.obj)
 .debug_info    0x0002befb      0xa87 mesh/core/libmesh_core_nrf52832_xxAA.a(nrf_mesh_utils.c.obj)
 .debug_info    0x0002c982     0x36ca mesh/core/libmesh_core_nrf52832_xxAA.a(nrf_mesh.c.obj)
 .debug_info    0x0003004c      0x570 mesh/core/libmesh_core_nrf52832_xxAA.a(hal.c.obj)
 .debug_info    0x000305bc     0x102a mesh/core/libmesh_core_nrf52832_xxAA.a(timer_scheduler.c.obj)
 .debug_info    0x000315e6      0xd79 mesh/core/libmesh_core_nrf52832_xxAA.a(timer.c.obj)
 .debug_info    0x0003235f      0x20b mesh/core/libmesh_core_nrf52832_xxAA.a(ticker.c.obj)
 .debug_info    0x0003256a      0x40f mesh/core/libmesh_core_nrf52832_xxAA.a(rand.c.obj)
 .debug_info    0x00032979     0x1a0a mesh/core/libmesh_core_nrf52832_xxAA.a(timeslot.c.obj)
 .debug_info    0x00034383     0x19d7 mesh/core/libmesh_core_nrf52832_xxAA.a(bearer_event.c.obj)
 .debug_info    0x00035d5a     0x164f mesh/core/libmesh_core_nrf52832_xxAA.a(enc.c.obj)
 .debug_info    0x000373a9     0x2aef mesh/core/libmesh_core_nrf52832_xxAA.a(network.c.obj)
 .debug_info    0x00039e98      0x4c8 mesh/core/libmesh_core_nrf52832_xxAA.a(nrf_mesh_keygen.c.obj)
 .debug_info    0x0003a360      0x48b mesh/core/libmesh_core_nrf52832_xxAA.a(list.c.obj)
 .debug_info    0x0003a7eb      0xe28 mesh/core/libmesh_core_nrf52832_xxAA.a(log.c.obj)
 .debug_info    0x0003b613     0x320c mesh/core/libmesh_core_nrf52832_xxAA.a(flash_manager.c.obj)
 .debug_info    0x0003e81f     0x10a3 mesh/core/libmesh_core_nrf52832_xxAA.a(ccm_soft.c.obj)
 .debug_info    0x0003f8c2     0x193b mesh/core/libmesh_core_nrf52832_xxAA.a(beacon.c.obj)
 .debug_info    0x000411fd      0xb99 mesh/core/libmesh_core_nrf52832_xxAA.a(flash_manager_internal.c.obj)
 .debug_info    0x00041d96      0xfb3 mesh/core/libmesh_core_nrf52832_xxAA.a(core_tx.c.obj)
 .debug_info    0x00042d49     0x219a mesh/core/libmesh_core_nrf52832_xxAA.a(heartbeat.c.obj)
 .debug_info    0x00044ee3     0x1511 mesh/core/libmesh_core_nrf52832_xxAA.a(net_beacon.c.obj)
 .debug_info    0x000463f4     0x160b mesh/core/libmesh_core_nrf52832_xxAA.a(core_tx_adv.c.obj)
 .debug_info    0x000479ff     0x1118 mesh/core/libmesh_core_nrf52832_xxAA.a(ad_listener.c.obj)
 .debug_info    0x00048b17      0xfcd mesh/core/libmesh_core_nrf52832_xxAA.a(ad_type_filter.c.obj)
 .debug_info    0x00049ae4     0x2448 mesh/core/libmesh_core_nrf52832_xxAA.a(advertiser.c.obj)
 .debug_info    0x0004bf2c     0x18f8 mesh/core/libmesh_core_nrf52832_xxAA.a(bearer_handler.c.obj)
 .debug_info    0x0004d824     0x1963 mesh/core/libmesh_core_nrf52832_xxAA.a(broadcast.c.obj)
 .debug_info    0x0004f187      0xcf4 mesh/core/libmesh_core_nrf52832_xxAA.a(filter_engine.c.obj)
 .debug_info    0x0004fe7b      0x871 mesh/core/libmesh_core_nrf52832_xxAA.a(radio_config.c.obj)
 .debug_info    0x000506ec     0x25aa mesh/core/libmesh_core_nrf52832_xxAA.a(scanner.c.obj)
 .debug_info    0x00052c96      0xc4e mesh/core/libmesh_core_nrf52832_xxAA.a(internal_event.c.obj)
 .debug_info    0x000538e4      0xbcc mesh/core/libmesh_core_nrf52832_xxAA.a(aes.c.obj)
 .debug_info    0x000544b0      0xa81 mesh/core/libmesh_core_nrf52832_xxAA.a(msg_cache.c.obj)
 .debug_info    0x00054f31     0x54fb mesh/core/libmesh_core_nrf52832_xxAA.a(transport.c.obj)
 .debug_info    0x0005a42c     0x1d81 mesh/core/libmesh_core_nrf52832_xxAA.a(packet_buffer.c.obj)
 .debug_info    0x0005c1ad     0x234f mesh/core/libmesh_core_nrf52832_xxAA.a(flash_manager_defrag.c.obj)
 .debug_info    0x0005e4fc     0x115c mesh/core/libmesh_core_nrf52832_xxAA.a(packet_mgr.c.obj)
 .debug_info    0x0005f658     0x1887 mesh/core/libmesh_core_nrf52832_xxAA.a(mesh_flash.c.obj)
 .debug_info    0x00060edf      0xaf2 mesh/core/libmesh_core_nrf52832_xxAA.a(queue.c.obj)
 .debug_info    0x000619d1      0xe48 mesh/core/libmesh_core_nrf52832_xxAA.a(aes_cmac.c.obj)
 .debug_info    0x00062819      0xb1c mesh/core/libmesh_core_nrf52832_xxAA.a(nrf_mesh_opt.c.obj)
 .debug_info    0x00063335      0xd08 mesh/core/libmesh_core_nrf52832_xxAA.a(msqueue.c.obj)
 .debug_info    0x0006403d      0xaeb mesh/core/libmesh_core_nrf52832_xxAA.a(replay_cache.c.obj)
 .debug_info    0x00064b28      0xb47 mesh/core/libmesh_core_nrf52832_xxAA.a(nrf_flash.c.obj)
 .debug_info    0x0006566f     0x1818 external/rtt/librtt_nrf52832_xxAA.a(SEGGER_RTT.c.obj)
 .debug_info    0x00066e87      0xec1 external/rtt/librtt_nrf52832_xxAA.a(SEGGER_RTT_printf.c.obj)
 .debug_info    0x00067d48     0x4511 external/micro-ecc/libuECC_nrf52832_xxAA.a(uECC.c.obj)

.debug_abbrev   0x00000000     0xebe2
 .debug_abbrev  0x00000000      0x483 examples/pb_remote/client/CMakeFiles/pb_remote_client_nrf52832_xxAA_s132_5.0.0.dir/src/main.c.obj
 .debug_abbrev  0x00000483      0x486 examples/pb_remote/client/CMakeFiles/pb_remote_client_nrf52832_xxAA_s132_5.0.0.dir/__/__/nrf_mesh_sdk.c.obj
 .debug_abbrev  0x00000909      0x2b8 examples/pb_remote/client/CMakeFiles/pb_remote_client_nrf52832_xxAA_s132_5.0.0.dir/__/__/common/src/rtt_input.c.obj
 .debug_abbrev  0x00000bc1      0x52e examples/pb_remote/client/CMakeFiles/pb_remote_client_nrf52832_xxAA_s132_5.0.0.dir/__/__/__/models/pb_remote/src/pb_remote_client.c.obj
 .debug_abbrev  0x000010ef      0x3dd examples/pb_remote/client/CMakeFiles/pb_remote_client_nrf52832_xxAA_s132_5.0.0.dir/__/__/__/mesh/prov/src/prov_provisioner.c.obj
 .debug_abbrev  0x000014cc      0x335 examples/pb_remote/client/CMakeFiles/pb_remote_client_nrf52832_xxAA_s132_5.0.0.dir/__/__/__/mesh/prov/src/nrf_mesh_prov.c.obj
 .debug_abbrev  0x00001801      0x29c examples/pb_remote/client/CMakeFiles/pb_remote_client_nrf52832_xxAA_s132_5.0.0.dir/__/__/__/mesh/prov/src/provisioning.c.obj
 .debug_abbrev  0x00001a9d      0x2c8 examples/pb_remote/client/CMakeFiles/pb_remote_client_nrf52832_xxAA_s132_5.0.0.dir/__/__/__/mesh/prov/src/prov_beacon.c.obj
 .debug_abbrev  0x00001d65      0x3d4 examples/pb_remote/client/CMakeFiles/pb_remote_client_nrf52832_xxAA_s132_5.0.0.dir/__/__/__/mesh/prov/src/prov_utils.c.obj
 .debug_abbrev  0x00002139      0x50e examples/pb_remote/client/CMakeFiles/pb_remote_client_nrf52832_xxAA_s132_5.0.0.dir/__/__/__/mesh/prov/src/prov_bearer_adv.c.obj
 .debug_abbrev  0x00002647      0x460 examples/pb_remote/client/CMakeFiles/pb_remote_client_nrf52832_xxAA_s132_5.0.0.dir/__/__/__/mesh/access/src/access_publish.c.obj
 .debug_abbrev  0x00002aa7      0x68e examples/pb_remote/client/CMakeFiles/pb_remote_client_nrf52832_xxAA_s132_5.0.0.dir/__/__/__/mesh/access/src/access.c.obj
 .debug_abbrev  0x00003135      0x433 examples/pb_remote/client/CMakeFiles/pb_remote_client_nrf52832_xxAA_s132_5.0.0.dir/__/__/__/mesh/access/src/access_reliable.c.obj
 .debug_abbrev  0x00003568      0x647 examples/pb_remote/client/CMakeFiles/pb_remote_client_nrf52832_xxAA_s132_5.0.0.dir/__/__/__/mesh/access/src/device_state_manager.c.obj
 .debug_abbrev  0x00003baf      0x1ae examples/pb_remote/client/CMakeFiles/pb_remote_client_nrf52832_xxAA_s132_5.0.0.dir/__/__/nrf_mesh_weak.c.obj
 .debug_abbrev  0x00003d5d      0x202 examples/pb_remote/client/CMakeFiles/pb_remote_client_nrf52832_xxAA_s132_5.0.0.dir/__/__/__/external/nRF5_SDK_14.2.0_17b948a/components/toolchain/system_nrf52.c.obj
 .debug_abbrev  0x00003f5f      0x24b mesh/core/libmesh_core_nrf52832_xxAA.a(nrf_mesh_configure.c.obj)
 .debug_abbrev  0x000041aa      0x2a2 mesh/core/libmesh_core_nrf52832_xxAA.a(event.c.obj)
 .debug_abbrev  0x0000444c      0x301 mesh/core/libmesh_core_nrf52832_xxAA.a(fifo.c.obj)
 .debug_abbrev  0x0000474d      0x55b mesh/core/libmesh_core_nrf52832_xxAA.a(net_state.c.obj)
 .debug_abbrev  0x00004ca8      0x25a mesh/core/libmesh_core_nrf52832_xxAA.a(nrf_mesh_utils.c.obj)
 .debug_abbrev  0x00004f02      0x467 mesh/core/libmesh_core_nrf52832_xxAA.a(nrf_mesh.c.obj)
 .debug_abbrev  0x00005369      0x204 mesh/core/libmesh_core_nrf52832_xxAA.a(hal.c.obj)
 .debug_abbrev  0x0000556d      0x3bf mesh/core/libmesh_core_nrf52832_xxAA.a(timer_scheduler.c.obj)
 .debug_abbrev  0x0000592c      0x346 mesh/core/libmesh_core_nrf52832_xxAA.a(timer.c.obj)
 .debug_abbrev  0x00005c72      0x152 mesh/core/libmesh_core_nrf52832_xxAA.a(ticker.c.obj)
 .debug_abbrev  0x00005dc4      0x1d2 mesh/core/libmesh_core_nrf52832_xxAA.a(rand.c.obj)
 .debug_abbrev  0x00005f96      0x4db mesh/core/libmesh_core_nrf52832_xxAA.a(timeslot.c.obj)
 .debug_abbrev  0x00006471      0x4b3 mesh/core/libmesh_core_nrf52832_xxAA.a(bearer_event.c.obj)
 .debug_abbrev  0x00006924      0x37e mesh/core/libmesh_core_nrf52832_xxAA.a(enc.c.obj)
 .debug_abbrev  0x00006ca2      0x52c mesh/core/libmesh_core_nrf52832_xxAA.a(network.c.obj)
 .debug_abbrev  0x000071ce      0x163 mesh/core/libmesh_core_nrf52832_xxAA.a(nrf_mesh_keygen.c.obj)
 .debug_abbrev  0x00007331      0x18e mesh/core/libmesh_core_nrf52832_xxAA.a(list.c.obj)
 .debug_abbrev  0x000074bf      0x24e mesh/core/libmesh_core_nrf52832_xxAA.a(log.c.obj)
 .debug_abbrev  0x0000770d      0x5c2 mesh/core/libmesh_core_nrf52832_xxAA.a(flash_manager.c.obj)
 .debug_abbrev  0x00007ccf      0x2b3 mesh/core/libmesh_core_nrf52832_xxAA.a(ccm_soft.c.obj)
 .debug_abbrev  0x00007f82      0x38c mesh/core/libmesh_core_nrf52832_xxAA.a(beacon.c.obj)
 .debug_abbrev  0x0000830e      0x28a mesh/core/libmesh_core_nrf52832_xxAA.a(flash_manager_internal.c.obj)
 .debug_abbrev  0x00008598      0x32c mesh/core/libmesh_core_nrf52832_xxAA.a(core_tx.c.obj)
 .debug_abbrev  0x000088c4      0x4c9 mesh/core/libmesh_core_nrf52832_xxAA.a(heartbeat.c.obj)
 .debug_abbrev  0x00008d8d      0x3cc mesh/core/libmesh_core_nrf52832_xxAA.a(net_beacon.c.obj)
 .debug_abbrev  0x00009159      0x32c mesh/core/libmesh_core_nrf52832_xxAA.a(core_tx_adv.c.obj)
 .debug_abbrev  0x00009485      0x341 mesh/core/libmesh_core_nrf52832_xxAA.a(ad_listener.c.obj)
 .debug_abbrev  0x000097c6      0x377 mesh/core/libmesh_core_nrf52832_xxAA.a(ad_type_filter.c.obj)
 .debug_abbrev  0x00009b3d      0x4fe mesh/core/libmesh_core_nrf52832_xxAA.a(advertiser.c.obj)
 .debug_abbrev  0x0000a03b      0x40d mesh/core/libmesh_core_nrf52832_xxAA.a(bearer_handler.c.obj)
 .debug_abbrev  0x0000a448      0x3b4 mesh/core/libmesh_core_nrf52832_xxAA.a(broadcast.c.obj)
 .debug_abbrev  0x0000a7fc      0x299 mesh/core/libmesh_core_nrf52832_xxAA.a(filter_engine.c.obj)
 .debug_abbrev  0x0000aa95      0x1d9 mesh/core/libmesh_core_nrf52832_xxAA.a(radio_config.c.obj)
 .debug_abbrev  0x0000ac6e      0x582 mesh/core/libmesh_core_nrf52832_xxAA.a(scanner.c.obj)
 .debug_abbrev  0x0000b1f0      0x26d mesh/core/libmesh_core_nrf52832_xxAA.a(internal_event.c.obj)
 .debug_abbrev  0x0000b45d      0x264 mesh/core/libmesh_core_nrf52832_xxAA.a(aes.c.obj)
 .debug_abbrev  0x0000b6c1      0x25d mesh/core/libmesh_core_nrf52832_xxAA.a(msg_cache.c.obj)
 .debug_abbrev  0x0000b91e      0x629 mesh/core/libmesh_core_nrf52832_xxAA.a(transport.c.obj)
 .debug_abbrev  0x0000bf47      0x49a mesh/core/libmesh_core_nrf52832_xxAA.a(packet_buffer.c.obj)
 .debug_abbrev  0x0000c3e1      0x558 mesh/core/libmesh_core_nrf52832_xxAA.a(flash_manager_defrag.c.obj)
 .debug_abbrev  0x0000c939      0x3d1 mesh/core/libmesh_core_nrf52832_xxAA.a(packet_mgr.c.obj)
 .debug_abbrev  0x0000cd0a      0x478 mesh/core/libmesh_core_nrf52832_xxAA.a(mesh_flash.c.obj)
 .debug_abbrev  0x0000d182      0x227 mesh/core/libmesh_core_nrf52832_xxAA.a(queue.c.obj)
 .debug_abbrev  0x0000d3a9      0x332 mesh/core/libmesh_core_nrf52832_xxAA.a(aes_cmac.c.obj)
 .debug_abbrev  0x0000d6db      0x24a mesh/core/libmesh_core_nrf52832_xxAA.a(nrf_mesh_opt.c.obj)
 .debug_abbrev  0x0000d925      0x29c mesh/core/libmesh_core_nrf52832_xxAA.a(msqueue.c.obj)
 .debug_abbrev  0x0000dbc1      0x277 mesh/core/libmesh_core_nrf52832_xxAA.a(replay_cache.c.obj)
 .debug_abbrev  0x0000de38      0x21f mesh/core/libmesh_core_nrf52832_xxAA.a(nrf_flash.c.obj)
 .debug_abbrev  0x0000e057      0x3a9 external/rtt/librtt_nrf52832_xxAA.a(SEGGER_RTT.c.obj)
 .debug_abbrev  0x0000e400      0x32e external/rtt/librtt_nrf52832_xxAA.a(SEGGER_RTT_printf.c.obj)
 .debug_abbrev  0x0000e72e      0x4b4 external/micro-ecc/libuECC_nrf52832_xxAA.a(uECC.c.obj)

.debug_loc      0x00000000    0x204fe
 .debug_loc     0x00000000      0x5cb examples/pb_remote/client/CMakeFiles/pb_remote_client_nrf52832_xxAA_s132_5.0.0.dir/src/main.c.obj
 .debug_loc     0x000005cb      0x340 examples/pb_remote/client/CMakeFiles/pb_remote_client_nrf52832_xxAA_s132_5.0.0.dir/__/__/nrf_mesh_sdk.c.obj
 .debug_loc     0x0000090b       0xa5 examples/pb_remote/client/CMakeFiles/pb_remote_client_nrf52832_xxAA_s132_5.0.0.dir/__/__/common/src/rtt_input.c.obj
 .debug_loc     0x000009b0     0x1313 examples/pb_remote/client/CMakeFiles/pb_remote_client_nrf52832_xxAA_s132_5.0.0.dir/__/__/__/models/pb_remote/src/pb_remote_client.c.obj
 .debug_loc     0x00001cc3      0x6a4 examples/pb_remote/client/CMakeFiles/pb_remote_client_nrf52832_xxAA_s132_5.0.0.dir/__/__/__/mesh/prov/src/prov_provisioner.c.obj
 .debug_loc     0x00002367      0x7c0 examples/pb_remote/client/CMakeFiles/pb_remote_client_nrf52832_xxAA_s132_5.0.0.dir/__/__/__/mesh/prov/src/nrf_mesh_prov.c.obj
 .debug_loc     0x00002b27      0x4e0 examples/pb_remote/client/CMakeFiles/pb_remote_client_nrf52832_xxAA_s132_5.0.0.dir/__/__/__/mesh/prov/src/provisioning.c.obj
 .debug_loc     0x00003007      0x1cd examples/pb_remote/client/CMakeFiles/pb_remote_client_nrf52832_xxAA_s132_5.0.0.dir/__/__/__/mesh/prov/src/prov_beacon.c.obj
 .debug_loc     0x000031d4      0x42c examples/pb_remote/client/CMakeFiles/pb_remote_client_nrf52832_xxAA_s132_5.0.0.dir/__/__/__/mesh/prov/src/prov_utils.c.obj
 .debug_loc     0x00003600     0x175a examples/pb_remote/client/CMakeFiles/pb_remote_client_nrf52832_xxAA_s132_5.0.0.dir/__/__/__/mesh/prov/src/prov_bearer_adv.c.obj
 .debug_loc     0x00004d5a      0x577 examples/pb_remote/client/CMakeFiles/pb_remote_client_nrf52832_xxAA_s132_5.0.0.dir/__/__/__/mesh/access/src/access_publish.c.obj
 .debug_loc     0x000052d1     0x220f examples/pb_remote/client/CMakeFiles/pb_remote_client_nrf52832_xxAA_s132_5.0.0.dir/__/__/__/mesh/access/src/access.c.obj
 .debug_loc     0x000074e0      0x8c4 examples/pb_remote/client/CMakeFiles/pb_remote_client_nrf52832_xxAA_s132_5.0.0.dir/__/__/__/mesh/access/src/access_reliable.c.obj
 .debug_loc     0x00007da4     0x3bec examples/pb_remote/client/CMakeFiles/pb_remote_client_nrf52832_xxAA_s132_5.0.0.dir/__/__/__/mesh/access/src/device_state_manager.c.obj
 .debug_loc     0x0000b990       0x2c mesh/core/libmesh_core_nrf52832_xxAA.a(nrf_mesh_configure.c.obj)
 .debug_loc     0x0000b9bc      0x136 mesh/core/libmesh_core_nrf52832_xxAA.a(event.c.obj)
 .debug_loc     0x0000baf2      0x517 mesh/core/libmesh_core_nrf52832_xxAA.a(fifo.c.obj)
 .debug_loc     0x0000c009      0x758 mesh/core/libmesh_core_nrf52832_xxAA.a(net_state.c.obj)
 .debug_loc     0x0000c761      0x11c mesh/core/libmesh_core_nrf52832_xxAA.a(nrf_mesh_utils.c.obj)
 .debug_loc     0x0000c87d      0x4d7 mesh/core/libmesh_core_nrf52832_xxAA.a(nrf_mesh.c.obj)
 .debug_loc     0x0000cd54       0x84 mesh/core/libmesh_core_nrf52832_xxAA.a(hal.c.obj)
 .debug_loc     0x0000cdd8      0x3b9 mesh/core/libmesh_core_nrf52832_xxAA.a(timer_scheduler.c.obj)
 .debug_loc     0x0000d191      0x60f mesh/core/libmesh_core_nrf52832_xxAA.a(timer.c.obj)
 .debug_loc     0x0000d7a0      0x190 mesh/core/libmesh_core_nrf52832_xxAA.a(rand.c.obj)
 .debug_loc     0x0000d930      0x370 mesh/core/libmesh_core_nrf52832_xxAA.a(timeslot.c.obj)
 .debug_loc     0x0000dca0      0x647 mesh/core/libmesh_core_nrf52832_xxAA.a(bearer_event.c.obj)
 .debug_loc     0x0000e2e7      0x960 mesh/core/libmesh_core_nrf52832_xxAA.a(enc.c.obj)
 .debug_loc     0x0000ec47     0x10e7 mesh/core/libmesh_core_nrf52832_xxAA.a(network.c.obj)
 .debug_loc     0x0000fd2e      0x1ee mesh/core/libmesh_core_nrf52832_xxAA.a(nrf_mesh_keygen.c.obj)
 .debug_loc     0x0000ff1c      0x541 mesh/core/libmesh_core_nrf52832_xxAA.a(list.c.obj)
 .debug_loc     0x0001045d      0x348 mesh/core/libmesh_core_nrf52832_xxAA.a(log.c.obj)
 .debug_loc     0x000107a5     0x1791 mesh/core/libmesh_core_nrf52832_xxAA.a(flash_manager.c.obj)
 .debug_loc     0x00011f36      0x371 mesh/core/libmesh_core_nrf52832_xxAA.a(ccm_soft.c.obj)
 .debug_loc     0x000122a7      0x527 mesh/core/libmesh_core_nrf52832_xxAA.a(beacon.c.obj)
 .debug_loc     0x000127ce      0x130 mesh/core/libmesh_core_nrf52832_xxAA.a(flash_manager_internal.c.obj)
 .debug_loc     0x000128fe      0x639 mesh/core/libmesh_core_nrf52832_xxAA.a(core_tx.c.obj)
 .debug_loc     0x00012f37      0x644 mesh/core/libmesh_core_nrf52832_xxAA.a(heartbeat.c.obj)
 .debug_loc     0x0001357b      0x3fe mesh/core/libmesh_core_nrf52832_xxAA.a(net_beacon.c.obj)
 .debug_loc     0x00013979      0x3fa mesh/core/libmesh_core_nrf52832_xxAA.a(core_tx_adv.c.obj)
 .debug_loc     0x00013d73      0x42e mesh/core/libmesh_core_nrf52832_xxAA.a(ad_listener.c.obj)
 .debug_loc     0x000141a1      0x3b9 mesh/core/libmesh_core_nrf52832_xxAA.a(ad_type_filter.c.obj)
 .debug_loc     0x0001455a      0xedd mesh/core/libmesh_core_nrf52832_xxAA.a(advertiser.c.obj)
 .debug_loc     0x00015437      0x42d mesh/core/libmesh_core_nrf52832_xxAA.a(bearer_handler.c.obj)
 .debug_loc     0x00015864      0x377 mesh/core/libmesh_core_nrf52832_xxAA.a(broadcast.c.obj)
 .debug_loc     0x00015bdb      0x115 mesh/core/libmesh_core_nrf52832_xxAA.a(filter_engine.c.obj)
 .debug_loc     0x00015cf0      0x28c mesh/core/libmesh_core_nrf52832_xxAA.a(radio_config.c.obj)
 .debug_loc     0x00015f7c      0x4f6 mesh/core/libmesh_core_nrf52832_xxAA.a(scanner.c.obj)
 .debug_loc     0x00016472       0xc9 mesh/core/libmesh_core_nrf52832_xxAA.a(internal_event.c.obj)
 .debug_loc     0x0001653b       0x89 mesh/core/libmesh_core_nrf52832_xxAA.a(aes.c.obj)
 .debug_loc     0x000165c4      0x10d mesh/core/libmesh_core_nrf52832_xxAA.a(msg_cache.c.obj)
 .debug_loc     0x000166d1     0x28ef mesh/core/libmesh_core_nrf52832_xxAA.a(transport.c.obj)
 .debug_loc     0x00018fc0      0xf93 mesh/core/libmesh_core_nrf52832_xxAA.a(packet_buffer.c.obj)
 .debug_loc     0x00019f53      0x8ee mesh/core/libmesh_core_nrf52832_xxAA.a(flash_manager_defrag.c.obj)
 .debug_loc     0x0001a841      0x6d7 mesh/core/libmesh_core_nrf52832_xxAA.a(packet_mgr.c.obj)
 .debug_loc     0x0001af18      0xa35 mesh/core/libmesh_core_nrf52832_xxAA.a(mesh_flash.c.obj)
 .debug_loc     0x0001b94d      0x186 mesh/core/libmesh_core_nrf52832_xxAA.a(queue.c.obj)
 .debug_loc     0x0001bad3      0x3f8 mesh/core/libmesh_core_nrf52832_xxAA.a(aes_cmac.c.obj)
 .debug_loc     0x0001becb      0x194 mesh/core/libmesh_core_nrf52832_xxAA.a(nrf_mesh_opt.c.obj)
 .debug_loc     0x0001c05f      0x3e5 mesh/core/libmesh_core_nrf52832_xxAA.a(msqueue.c.obj)
 .debug_loc     0x0001c444      0x1c6 mesh/core/libmesh_core_nrf52832_xxAA.a(replay_cache.c.obj)
 .debug_loc     0x0001c60a      0x17a mesh/core/libmesh_core_nrf52832_xxAA.a(nrf_flash.c.obj)
 .debug_loc     0x0001c784     0x1222 external/rtt/librtt_nrf52832_xxAA.a(SEGGER_RTT.c.obj)
 .debug_loc     0x0001d9a6      0x70f external/rtt/librtt_nrf52832_xxAA.a(SEGGER_RTT_printf.c.obj)
 .debug_loc     0x0001e0b5     0x2449 external/micro-ecc/libuECC_nrf52832_xxAA.a(uECC.c.obj)

.debug_aranges  0x00000000     0x1f10
 .debug_aranges
                0x00000000       0x48 examples/pb_remote/client/CMakeFiles/pb_remote_client_nrf52832_xxAA_s132_5.0.0.dir/src/main.c.obj
 .debug_aranges
                0x00000048       0x80 examples/pb_remote/client/CMakeFiles/pb_remote_client_nrf52832_xxAA_s132_5.0.0.dir/__/__/nrf_mesh_sdk.c.obj
 .debug_aranges
                0x000000c8       0x30 examples/pb_remote/client/CMakeFiles/pb_remote_client_nrf52832_xxAA_s132_5.0.0.dir/__/__/common/src/rtt_input.c.obj
 .debug_aranges
                0x000000f8       0xf8 examples/pb_remote/client/CMakeFiles/pb_remote_client_nrf52832_xxAA_s132_5.0.0.dir/__/__/__/models/pb_remote/src/pb_remote_client.c.obj
 .debug_aranges
                0x000001f0       0x70 examples/pb_remote/client/CMakeFiles/pb_remote_client_nrf52832_xxAA_s132_5.0.0.dir/__/__/__/mesh/prov/src/prov_provisioner.c.obj
 .debug_aranges
                0x00000260       0x78 examples/pb_remote/client/CMakeFiles/pb_remote_client_nrf52832_xxAA_s132_5.0.0.dir/__/__/__/mesh/prov/src/nrf_mesh_prov.c.obj
 .debug_aranges
                0x000002d8       0x80 examples/pb_remote/client/CMakeFiles/pb_remote_client_nrf52832_xxAA_s132_5.0.0.dir/__/__/__/mesh/prov/src/provisioning.c.obj
 .debug_aranges
                0x00000358       0x38 examples/pb_remote/client/CMakeFiles/pb_remote_client_nrf52832_xxAA_s132_5.0.0.dir/__/__/__/mesh/prov/src/prov_beacon.c.obj
 .debug_aranges
                0x00000390       0x70 examples/pb_remote/client/CMakeFiles/pb_remote_client_nrf52832_xxAA_s132_5.0.0.dir/__/__/__/mesh/prov/src/prov_utils.c.obj
 .debug_aranges
                0x00000400       0xc8 examples/pb_remote/client/CMakeFiles/pb_remote_client_nrf52832_xxAA_s132_5.0.0.dir/__/__/__/mesh/prov/src/prov_bearer_adv.c.obj
 .debug_aranges
                0x000004c8       0x50 examples/pb_remote/client/CMakeFiles/pb_remote_client_nrf52832_xxAA_s132_5.0.0.dir/__/__/__/mesh/access/src/access_publish.c.obj
 .debug_aranges
                0x00000518      0x1b0 examples/pb_remote/client/CMakeFiles/pb_remote_client_nrf52832_xxAA_s132_5.0.0.dir/__/__/__/mesh/access/src/access.c.obj
 .debug_aranges
                0x000006c8       0x50 examples/pb_remote/client/CMakeFiles/pb_remote_client_nrf52832_xxAA_s132_5.0.0.dir/__/__/__/mesh/access/src/access_reliable.c.obj
 .debug_aranges
                0x00000718      0x300 examples/pb_remote/client/CMakeFiles/pb_remote_client_nrf52832_xxAA_s132_5.0.0.dir/__/__/__/mesh/access/src/device_state_manager.c.obj
 .debug_aranges
                0x00000a18       0x28 examples/pb_remote/client/CMakeFiles/pb_remote_client_nrf52832_xxAA_s132_5.0.0.dir/__/__/nrf_mesh_weak.c.obj
 .debug_aranges
                0x00000a40       0x38 examples/pb_remote/client/CMakeFiles/pb_remote_client_nrf52832_xxAA_s132_5.0.0.dir/__/__/__/external/nRF5_SDK_14.2.0_17b948a/components/toolchain/system_nrf52.c.obj
 .debug_aranges
                0x00000a78       0x30 mesh/core/libmesh_core_nrf52832_xxAA.a(nrf_mesh_configure.c.obj)
 .debug_aranges
                0x00000aa8       0x30 mesh/core/libmesh_core_nrf52832_xxAA.a(event.c.obj)
 .debug_aranges
                0x00000ad8       0x60 mesh/core/libmesh_core_nrf52832_xxAA.a(fifo.c.obj)
 .debug_aranges
                0x00000b38       0xc0 mesh/core/libmesh_core_nrf52832_xxAA.a(net_state.c.obj)
 .debug_aranges
                0x00000bf8       0x30 mesh/core/libmesh_core_nrf52832_xxAA.a(nrf_mesh_utils.c.obj)
 .debug_aranges
                0x00000c28       0x88 mesh/core/libmesh_core_nrf52832_xxAA.a(nrf_mesh.c.obj)
 .debug_aranges
                0x00000cb0       0x38 mesh/core/libmesh_core_nrf52832_xxAA.a(hal.c.obj)
 .debug_aranges
                0x00000ce8       0x68 mesh/core/libmesh_core_nrf52832_xxAA.a(timer_scheduler.c.obj)
 .debug_aranges
                0x00000d50       0x60 mesh/core/libmesh_core_nrf52832_xxAA.a(timer.c.obj)
 .debug_aranges
                0x00000db0       0x30 mesh/core/libmesh_core_nrf52832_xxAA.a(ticker.c.obj)
 .debug_aranges
                0x00000de0       0x40 mesh/core/libmesh_core_nrf52832_xxAA.a(rand.c.obj)
 .debug_aranges
                0x00000e20       0xb8 mesh/core/libmesh_core_nrf52832_xxAA.a(timeslot.c.obj)
 .debug_aranges
                0x00000ed8       0x98 mesh/core/libmesh_core_nrf52832_xxAA.a(bearer_event.c.obj)
 .debug_aranges
                0x00000f70       0x70 mesh/core/libmesh_core_nrf52832_xxAA.a(enc.c.obj)
 .debug_aranges
                0x00000fe0       0x60 mesh/core/libmesh_core_nrf52832_xxAA.a(network.c.obj)
 .debug_aranges
                0x00001040       0x40 mesh/core/libmesh_core_nrf52832_xxAA.a(nrf_mesh_keygen.c.obj)
 .debug_aranges
                0x00001080       0x48 mesh/core/libmesh_core_nrf52832_xxAA.a(list.c.obj)
 .debug_aranges
                0x000010c8       0x48 mesh/core/libmesh_core_nrf52832_xxAA.a(log.c.obj)
 .debug_aranges
                0x00001110      0x100 mesh/core/libmesh_core_nrf52832_xxAA.a(flash_manager.c.obj)
 .debug_aranges
                0x00001210       0x50 mesh/core/libmesh_core_nrf52832_xxAA.a(ccm_soft.c.obj)
 .debug_aranges
                0x00001260       0x38 mesh/core/libmesh_core_nrf52832_xxAA.a(beacon.c.obj)
 .debug_aranges
                0x00001298       0x20 mesh/core/libmesh_core_nrf52832_xxAA.a(flash_manager_internal.c.obj)
 .debug_aranges
                0x000012b8       0x58 mesh/core/libmesh_core_nrf52832_xxAA.a(core_tx.c.obj)
 .debug_aranges
                0x00001310       0x70 mesh/core/libmesh_core_nrf52832_xxAA.a(heartbeat.c.obj)
 .debug_aranges
                0x00001380       0x48 mesh/core/libmesh_core_nrf52832_xxAA.a(net_beacon.c.obj)
 .debug_aranges
                0x000013c8       0x68 mesh/core/libmesh_core_nrf52832_xxAA.a(core_tx_adv.c.obj)
 .debug_aranges
                0x00001430       0x30 mesh/core/libmesh_core_nrf52832_xxAA.a(ad_listener.c.obj)
 .debug_aranges
                0x00001460       0x58 mesh/core/libmesh_core_nrf52832_xxAA.a(ad_type_filter.c.obj)
 .debug_aranges
                0x000014b8       0xb0 mesh/core/libmesh_core_nrf52832_xxAA.a(advertiser.c.obj)
 .debug_aranges
                0x00001568       0x70 mesh/core/libmesh_core_nrf52832_xxAA.a(bearer_handler.c.obj)
 .debug_aranges
                0x000015d8       0x30 mesh/core/libmesh_core_nrf52832_xxAA.a(broadcast.c.obj)
 .debug_aranges
                0x00001608       0x38 mesh/core/libmesh_core_nrf52832_xxAA.a(filter_engine.c.obj)
 .debug_aranges
                0x00001640       0x40 mesh/core/libmesh_core_nrf52832_xxAA.a(radio_config.c.obj)
 .debug_aranges
                0x00001680       0xe0 mesh/core/libmesh_core_nrf52832_xxAA.a(scanner.c.obj)
 .debug_aranges
                0x00001760       0x30 mesh/core/libmesh_core_nrf52832_xxAA.a(internal_event.c.obj)
 .debug_aranges
                0x00001790       0x28 mesh/core/libmesh_core_nrf52832_xxAA.a(aes.c.obj)
 .debug_aranges
                0x000017b8       0x38 mesh/core/libmesh_core_nrf52832_xxAA.a(msg_cache.c.obj)
 .debug_aranges
                0x000017f0      0x120 mesh/core/libmesh_core_nrf52832_xxAA.a(transport.c.obj)
 .debug_aranges
                0x00001910       0x80 mesh/core/libmesh_core_nrf52832_xxAA.a(packet_buffer.c.obj)
 .debug_aranges
                0x00001990       0xc8 mesh/core/libmesh_core_nrf52832_xxAA.a(flash_manager_defrag.c.obj)
 .debug_aranges
                0x00001a58       0x48 mesh/core/libmesh_core_nrf52832_xxAA.a(packet_mgr.c.obj)
 .debug_aranges
                0x00001aa0       0x60 mesh/core/libmesh_core_nrf52832_xxAA.a(mesh_flash.c.obj)
 .debug_aranges
                0x00001b00       0x38 mesh/core/libmesh_core_nrf52832_xxAA.a(queue.c.obj)
 .debug_aranges
                0x00001b38       0x38 mesh/core/libmesh_core_nrf52832_xxAA.a(aes_cmac.c.obj)
 .debug_aranges
                0x00001b70       0x28 mesh/core/libmesh_core_nrf52832_xxAA.a(nrf_mesh_opt.c.obj)
 .debug_aranges
                0x00001b98       0x48 mesh/core/libmesh_core_nrf52832_xxAA.a(msqueue.c.obj)
 .debug_aranges
                0x00001be0       0x48 mesh/core/libmesh_core_nrf52832_xxAA.a(replay_cache.c.obj)
 .debug_aranges
                0x00001c28       0x30 mesh/core/libmesh_core_nrf52832_xxAA.a(nrf_flash.c.obj)
 .debug_aranges
                0x00001c58       0xd8 external/rtt/librtt_nrf52832_xxAA.a(SEGGER_RTT.c.obj)
 .debug_aranges
                0x00001d30       0x38 external/rtt/librtt_nrf52832_xxAA.a(SEGGER_RTT_printf.c.obj)
 .debug_aranges
                0x00001d68      0x1a8 external/micro-ecc/libuECC_nrf52832_xxAA.a(uECC.c.obj)

.debug_ranges   0x00000000     0x7ae8
 .debug_ranges  0x00000000      0x320 examples/pb_remote/client/CMakeFiles/pb_remote_client_nrf52832_xxAA_s132_5.0.0.dir/src/main.c.obj
 .debug_ranges  0x00000320      0x1b0 examples/pb_remote/client/CMakeFiles/pb_remote_client_nrf52832_xxAA_s132_5.0.0.dir/__/__/nrf_mesh_sdk.c.obj
 .debug_ranges  0x000004d0       0x20 examples/pb_remote/client/CMakeFiles/pb_remote_client_nrf52832_xxAA_s132_5.0.0.dir/__/__/common/src/rtt_input.c.obj
 .debug_ranges  0x000004f0      0x530 examples/pb_remote/client/CMakeFiles/pb_remote_client_nrf52832_xxAA_s132_5.0.0.dir/__/__/__/models/pb_remote/src/pb_remote_client.c.obj
 .debug_ranges  0x00000a20      0x128 examples/pb_remote/client/CMakeFiles/pb_remote_client_nrf52832_xxAA_s132_5.0.0.dir/__/__/__/mesh/prov/src/prov_provisioner.c.obj
 .debug_ranges  0x00000b48       0xb0 examples/pb_remote/client/CMakeFiles/pb_remote_client_nrf52832_xxAA_s132_5.0.0.dir/__/__/__/mesh/prov/src/nrf_mesh_prov.c.obj
 .debug_ranges  0x00000bf8       0xa0 examples/pb_remote/client/CMakeFiles/pb_remote_client_nrf52832_xxAA_s132_5.0.0.dir/__/__/__/mesh/prov/src/provisioning.c.obj
 .debug_ranges  0x00000c98       0x88 examples/pb_remote/client/CMakeFiles/pb_remote_client_nrf52832_xxAA_s132_5.0.0.dir/__/__/__/mesh/prov/src/prov_beacon.c.obj
 .debug_ranges  0x00000d20       0xb8 examples/pb_remote/client/CMakeFiles/pb_remote_client_nrf52832_xxAA_s132_5.0.0.dir/__/__/__/mesh/prov/src/prov_utils.c.obj
 .debug_ranges  0x00000dd8      0x6c8 examples/pb_remote/client/CMakeFiles/pb_remote_client_nrf52832_xxAA_s132_5.0.0.dir/__/__/__/mesh/prov/src/prov_bearer_adv.c.obj
 .debug_ranges  0x000014a0      0x178 examples/pb_remote/client/CMakeFiles/pb_remote_client_nrf52832_xxAA_s132_5.0.0.dir/__/__/__/mesh/access/src/access_publish.c.obj
 .debug_ranges  0x00001618      0x778 examples/pb_remote/client/CMakeFiles/pb_remote_client_nrf52832_xxAA_s132_5.0.0.dir/__/__/__/mesh/access/src/access.c.obj
 .debug_ranges  0x00001d90      0x278 examples/pb_remote/client/CMakeFiles/pb_remote_client_nrf52832_xxAA_s132_5.0.0.dir/__/__/__/mesh/access/src/access_reliable.c.obj
 .debug_ranges  0x00002008      0xad0 examples/pb_remote/client/CMakeFiles/pb_remote_client_nrf52832_xxAA_s132_5.0.0.dir/__/__/__/mesh/access/src/device_state_manager.c.obj
 .debug_ranges  0x00002ad8       0x18 examples/pb_remote/client/CMakeFiles/pb_remote_client_nrf52832_xxAA_s132_5.0.0.dir/__/__/nrf_mesh_weak.c.obj
 .debug_ranges  0x00002af0       0x28 examples/pb_remote/client/CMakeFiles/pb_remote_client_nrf52832_xxAA_s132_5.0.0.dir/__/__/__/external/nRF5_SDK_14.2.0_17b948a/components/toolchain/system_nrf52.c.obj
 .debug_ranges  0x00002b18       0x20 mesh/core/libmesh_core_nrf52832_xxAA.a(nrf_mesh_configure.c.obj)
 .debug_ranges  0x00002b38       0x68 mesh/core/libmesh_core_nrf52832_xxAA.a(event.c.obj)
 .debug_ranges  0x00002ba0       0xb0 mesh/core/libmesh_core_nrf52832_xxAA.a(fifo.c.obj)
 .debug_ranges  0x00002c50      0x248 mesh/core/libmesh_core_nrf52832_xxAA.a(net_state.c.obj)
 .debug_ranges  0x00002e98       0x38 mesh/core/libmesh_core_nrf52832_xxAA.a(nrf_mesh_utils.c.obj)
 .debug_ranges  0x00002ed0       0xf0 mesh/core/libmesh_core_nrf52832_xxAA.a(nrf_mesh.c.obj)
 .debug_ranges  0x00002fc0       0x28 mesh/core/libmesh_core_nrf52832_xxAA.a(hal.c.obj)
 .debug_ranges  0x00002fe8      0x260 mesh/core/libmesh_core_nrf52832_xxAA.a(timer_scheduler.c.obj)
 .debug_ranges  0x00003248      0x108 mesh/core/libmesh_core_nrf52832_xxAA.a(timer.c.obj)
 .debug_ranges  0x00003350       0x20 mesh/core/libmesh_core_nrf52832_xxAA.a(ticker.c.obj)
 .debug_ranges  0x00003370       0x48 mesh/core/libmesh_core_nrf52832_xxAA.a(rand.c.obj)
 .debug_ranges  0x000033b8      0x188 mesh/core/libmesh_core_nrf52832_xxAA.a(timeslot.c.obj)
 .debug_ranges  0x00003540      0x250 mesh/core/libmesh_core_nrf52832_xxAA.a(bearer_event.c.obj)
 .debug_ranges  0x00003790      0x120 mesh/core/libmesh_core_nrf52832_xxAA.a(enc.c.obj)
 .debug_ranges  0x000038b0      0x518 mesh/core/libmesh_core_nrf52832_xxAA.a(network.c.obj)
 .debug_ranges  0x00003dc8       0x30 mesh/core/libmesh_core_nrf52832_xxAA.a(nrf_mesh_keygen.c.obj)
 .debug_ranges  0x00003df8      0x1b0 mesh/core/libmesh_core_nrf52832_xxAA.a(list.c.obj)
 .debug_ranges  0x00003fa8       0x38 mesh/core/libmesh_core_nrf52832_xxAA.a(log.c.obj)
 .debug_ranges  0x00003fe0      0x748 mesh/core/libmesh_core_nrf52832_xxAA.a(flash_manager.c.obj)
 .debug_ranges  0x00004728       0x40 mesh/core/libmesh_core_nrf52832_xxAA.a(ccm_soft.c.obj)
 .debug_ranges  0x00004768       0xd0 mesh/core/libmesh_core_nrf52832_xxAA.a(beacon.c.obj)
 .debug_ranges  0x00004838       0x68 mesh/core/libmesh_core_nrf52832_xxAA.a(flash_manager_internal.c.obj)
 .debug_ranges  0x000048a0      0x270 mesh/core/libmesh_core_nrf52832_xxAA.a(core_tx.c.obj)
 .debug_ranges  0x00004b10      0x240 mesh/core/libmesh_core_nrf52832_xxAA.a(heartbeat.c.obj)
 .debug_ranges  0x00004d50       0xf0 mesh/core/libmesh_core_nrf52832_xxAA.a(net_beacon.c.obj)
 .debug_ranges  0x00004e40       0xe8 mesh/core/libmesh_core_nrf52832_xxAA.a(core_tx_adv.c.obj)
 .debug_ranges  0x00004f28       0xf8 mesh/core/libmesh_core_nrf52832_xxAA.a(ad_listener.c.obj)
 .debug_ranges  0x00005020       0xe8 mesh/core/libmesh_core_nrf52832_xxAA.a(ad_type_filter.c.obj)
 .debug_ranges  0x00005108      0x4a8 mesh/core/libmesh_core_nrf52832_xxAA.a(advertiser.c.obj)
 .debug_ranges  0x000055b0      0x290 mesh/core/libmesh_core_nrf52832_xxAA.a(bearer_handler.c.obj)
 .debug_ranges  0x00005840      0x130 mesh/core/libmesh_core_nrf52832_xxAA.a(broadcast.c.obj)
 .debug_ranges  0x00005970       0x90 mesh/core/libmesh_core_nrf52832_xxAA.a(filter_engine.c.obj)
 .debug_ranges  0x00005a00      0x100 mesh/core/libmesh_core_nrf52832_xxAA.a(radio_config.c.obj)
 .debug_ranges  0x00005b00      0x2c0 mesh/core/libmesh_core_nrf52832_xxAA.a(scanner.c.obj)
 .debug_ranges  0x00005dc0       0x20 mesh/core/libmesh_core_nrf52832_xxAA.a(internal_event.c.obj)
 .debug_ranges  0x00005de0       0x18 mesh/core/libmesh_core_nrf52832_xxAA.a(aes.c.obj)
 .debug_ranges  0x00005df8       0x48 mesh/core/libmesh_core_nrf52832_xxAA.a(msg_cache.c.obj)
 .debug_ranges  0x00005e40      0x918 mesh/core/libmesh_core_nrf52832_xxAA.a(transport.c.obj)
 .debug_ranges  0x00006758      0x3b8 mesh/core/libmesh_core_nrf52832_xxAA.a(packet_buffer.c.obj)
 .debug_ranges  0x00006b10      0x368 mesh/core/libmesh_core_nrf52832_xxAA.a(flash_manager_defrag.c.obj)
 .debug_ranges  0x00006e78      0x160 mesh/core/libmesh_core_nrf52832_xxAA.a(packet_mgr.c.obj)
 .debug_ranges  0x00006fd8      0x368 mesh/core/libmesh_core_nrf52832_xxAA.a(mesh_flash.c.obj)
 .debug_ranges  0x00007340       0xa0 mesh/core/libmesh_core_nrf52832_xxAA.a(queue.c.obj)
 .debug_ranges  0x000073e0       0x98 mesh/core/libmesh_core_nrf52832_xxAA.a(aes_cmac.c.obj)
 .debug_ranges  0x00007478       0x18 mesh/core/libmesh_core_nrf52832_xxAA.a(nrf_mesh_opt.c.obj)
 .debug_ranges  0x00007490      0x158 mesh/core/libmesh_core_nrf52832_xxAA.a(msqueue.c.obj)
 .debug_ranges  0x000075e8       0x68 mesh/core/libmesh_core_nrf52832_xxAA.a(replay_cache.c.obj)
 .debug_ranges  0x00007650       0x38 mesh/core/libmesh_core_nrf52832_xxAA.a(nrf_flash.c.obj)
 .debug_ranges  0x00007688      0x130 external/rtt/librtt_nrf52832_xxAA.a(SEGGER_RTT.c.obj)
 .debug_ranges  0x000077b8       0x48 external/rtt/librtt_nrf52832_xxAA.a(SEGGER_RTT_printf.c.obj)
 .debug_ranges  0x00007800      0x2e8 external/micro-ecc/libuECC_nrf52832_xxAA.a(uECC.c.obj)

.debug_line     0x00000000    0x16463
 .debug_line    0x00000000      0xd33 examples/pb_remote/client/CMakeFiles/pb_remote_client_nrf52832_xxAA_s132_5.0.0.dir/src/main.c.obj
 .debug_line    0x00000d33      0x787 examples/pb_remote/client/CMakeFiles/pb_remote_client_nrf52832_xxAA_s132_5.0.0.dir/__/__/nrf_mesh_sdk.c.obj
 .debug_line    0x000014ba      0x2de examples/pb_remote/client/CMakeFiles/pb_remote_client_nrf52832_xxAA_s132_5.0.0.dir/__/__/common/src/rtt_input.c.obj
 .debug_line    0x00001798      0xe25 examples/pb_remote/client/CMakeFiles/pb_remote_client_nrf52832_xxAA_s132_5.0.0.dir/__/__/__/models/pb_remote/src/pb_remote_client.c.obj
 .debug_line    0x000025bd      0x573 examples/pb_remote/client/CMakeFiles/pb_remote_client_nrf52832_xxAA_s132_5.0.0.dir/__/__/__/mesh/prov/src/prov_provisioner.c.obj
 .debug_line    0x00002b30      0x4e3 examples/pb_remote/client/CMakeFiles/pb_remote_client_nrf52832_xxAA_s132_5.0.0.dir/__/__/__/mesh/prov/src/nrf_mesh_prov.c.obj
 .debug_line    0x00003013      0x3de examples/pb_remote/client/CMakeFiles/pb_remote_client_nrf52832_xxAA_s132_5.0.0.dir/__/__/__/mesh/prov/src/provisioning.c.obj
 .debug_line    0x000033f1      0x48d examples/pb_remote/client/CMakeFiles/pb_remote_client_nrf52832_xxAA_s132_5.0.0.dir/__/__/__/mesh/prov/src/prov_beacon.c.obj
 .debug_line    0x0000387e      0x4a2 examples/pb_remote/client/CMakeFiles/pb_remote_client_nrf52832_xxAA_s132_5.0.0.dir/__/__/__/mesh/prov/src/prov_utils.c.obj
 .debug_line    0x00003d20      0xc24 examples/pb_remote/client/CMakeFiles/pb_remote_client_nrf52832_xxAA_s132_5.0.0.dir/__/__/__/mesh/prov/src/prov_bearer_adv.c.obj
 .debug_line    0x00004944      0x449 examples/pb_remote/client/CMakeFiles/pb_remote_client_nrf52832_xxAA_s132_5.0.0.dir/__/__/__/mesh/access/src/access_publish.c.obj
 .debug_line    0x00004d8d      0xe4c examples/pb_remote/client/CMakeFiles/pb_remote_client_nrf52832_xxAA_s132_5.0.0.dir/__/__/__/mesh/access/src/access.c.obj
 .debug_line    0x00005bd9      0x508 examples/pb_remote/client/CMakeFiles/pb_remote_client_nrf52832_xxAA_s132_5.0.0.dir/__/__/__/mesh/access/src/access_reliable.c.obj
 .debug_line    0x000060e1     0x142c examples/pb_remote/client/CMakeFiles/pb_remote_client_nrf52832_xxAA_s132_5.0.0.dir/__/__/__/mesh/access/src/device_state_manager.c.obj
 .debug_line    0x0000750d      0x225 examples/pb_remote/client/CMakeFiles/pb_remote_client_nrf52832_xxAA_s132_5.0.0.dir/__/__/nrf_mesh_weak.c.obj
 .debug_line    0x00007732      0x27e examples/pb_remote/client/CMakeFiles/pb_remote_client_nrf52832_xxAA_s132_5.0.0.dir/__/__/__/external/nRF5_SDK_14.2.0_17b948a/components/toolchain/system_nrf52.c.obj
 .debug_line    0x000079b0      0x263 mesh/core/libmesh_core_nrf52832_xxAA.a(nrf_mesh_configure.c.obj)
 .debug_line    0x00007c13      0x30b mesh/core/libmesh_core_nrf52832_xxAA.a(event.c.obj)
 .debug_line    0x00007f1e      0x3a6 mesh/core/libmesh_core_nrf52832_xxAA.a(fifo.c.obj)
 .debug_line    0x000082c4      0x6a8 mesh/core/libmesh_core_nrf52832_xxAA.a(net_state.c.obj)
 .debug_line    0x0000896c      0x262 mesh/core/libmesh_core_nrf52832_xxAA.a(nrf_mesh_utils.c.obj)
 .debug_line    0x00008bce      0x7a7 mesh/core/libmesh_core_nrf52832_xxAA.a(nrf_mesh.c.obj)
 .debug_line    0x00009375      0x250 mesh/core/libmesh_core_nrf52832_xxAA.a(hal.c.obj)
 .debug_line    0x000095c5      0x4a3 mesh/core/libmesh_core_nrf52832_xxAA.a(timer_scheduler.c.obj)
 .debug_line    0x00009a68      0x415 mesh/core/libmesh_core_nrf52832_xxAA.a(timer.c.obj)
 .debug_line    0x00009e7d      0x122 mesh/core/libmesh_core_nrf52832_xxAA.a(ticker.c.obj)
 .debug_line    0x00009f9f      0x28d mesh/core/libmesh_core_nrf52832_xxAA.a(rand.c.obj)
 .debug_line    0x0000a22c      0x5b6 mesh/core/libmesh_core_nrf52832_xxAA.a(timeslot.c.obj)
 .debug_line    0x0000a7e2      0x608 mesh/core/libmesh_core_nrf52832_xxAA.a(bearer_event.c.obj)
 .debug_line    0x0000adea      0x45a mesh/core/libmesh_core_nrf52832_xxAA.a(enc.c.obj)
 .debug_line    0x0000b244      0x836 mesh/core/libmesh_core_nrf52832_xxAA.a(network.c.obj)
 .debug_line    0x0000ba7a      0x236 mesh/core/libmesh_core_nrf52832_xxAA.a(nrf_mesh_keygen.c.obj)
 .debug_line    0x0000bcb0      0x373 mesh/core/libmesh_core_nrf52832_xxAA.a(list.c.obj)
 .debug_line    0x0000c023      0x284 mesh/core/libmesh_core_nrf52832_xxAA.a(log.c.obj)
 .debug_line    0x0000c2a7      0xa9a mesh/core/libmesh_core_nrf52832_xxAA.a(flash_manager.c.obj)
 .debug_line    0x0000cd41      0x34b mesh/core/libmesh_core_nrf52832_xxAA.a(ccm_soft.c.obj)
 .debug_line    0x0000d08c      0x52d mesh/core/libmesh_core_nrf52832_xxAA.a(beacon.c.obj)
 .debug_line    0x0000d5b9      0x299 mesh/core/libmesh_core_nrf52832_xxAA.a(flash_manager_internal.c.obj)
 .debug_line    0x0000d852      0x471 mesh/core/libmesh_core_nrf52832_xxAA.a(core_tx.c.obj)
 .debug_line    0x0000dcc3      0x61c mesh/core/libmesh_core_nrf52832_xxAA.a(heartbeat.c.obj)
 .debug_line    0x0000e2df      0x42b mesh/core/libmesh_core_nrf52832_xxAA.a(net_beacon.c.obj)
 .debug_line    0x0000e70a      0x489 mesh/core/libmesh_core_nrf52832_xxAA.a(core_tx_adv.c.obj)
 .debug_line    0x0000eb93      0x352 mesh/core/libmesh_core_nrf52832_xxAA.a(ad_listener.c.obj)
 .debug_line    0x0000eee5      0x403 mesh/core/libmesh_core_nrf52832_xxAA.a(ad_type_filter.c.obj)
 .debug_line    0x0000f2e8      0x81c mesh/core/libmesh_core_nrf52832_xxAA.a(advertiser.c.obj)
 .debug_line    0x0000fb04      0x5c1 mesh/core/libmesh_core_nrf52832_xxAA.a(bearer_handler.c.obj)
 .debug_line    0x000100c5      0x3c8 mesh/core/libmesh_core_nrf52832_xxAA.a(broadcast.c.obj)
 .debug_line    0x0001048d      0x356 mesh/core/libmesh_core_nrf52832_xxAA.a(filter_engine.c.obj)
 .debug_line    0x000107e3      0x320 mesh/core/libmesh_core_nrf52832_xxAA.a(radio_config.c.obj)
 .debug_line    0x00010b03      0x751 mesh/core/libmesh_core_nrf52832_xxAA.a(scanner.c.obj)
 .debug_line    0x00011254      0x2a2 mesh/core/libmesh_core_nrf52832_xxAA.a(internal_event.c.obj)
 .debug_line    0x000114f6      0x254 mesh/core/libmesh_core_nrf52832_xxAA.a(aes.c.obj)
 .debug_line    0x0001174a      0x298 mesh/core/libmesh_core_nrf52832_xxAA.a(msg_cache.c.obj)
 .debug_line    0x000119e2     0x1029 mesh/core/libmesh_core_nrf52832_xxAA.a(transport.c.obj)
 .debug_line    0x00012a0b      0x6ed mesh/core/libmesh_core_nrf52832_xxAA.a(packet_buffer.c.obj)
 .debug_line    0x000130f8      0x7e7 mesh/core/libmesh_core_nrf52832_xxAA.a(flash_manager_defrag.c.obj)
 .debug_line    0x000138df      0x445 mesh/core/libmesh_core_nrf52832_xxAA.a(packet_mgr.c.obj)
 .debug_line    0x00013d24      0x5a9 mesh/core/libmesh_core_nrf52832_xxAA.a(mesh_flash.c.obj)
 .debug_line    0x000142cd      0x2d2 mesh/core/libmesh_core_nrf52832_xxAA.a(queue.c.obj)
 .debug_line    0x0001459f      0x2d4 mesh/core/libmesh_core_nrf52832_xxAA.a(aes_cmac.c.obj)
 .debug_line    0x00014873      0x291 mesh/core/libmesh_core_nrf52832_xxAA.a(nrf_mesh_opt.c.obj)
 .debug_line    0x00014b04      0x388 mesh/core/libmesh_core_nrf52832_xxAA.a(msqueue.c.obj)
 .debug_line    0x00014e8c      0x1f1 mesh/core/libmesh_core_nrf52832_xxAA.a(replay_cache.c.obj)
 .debug_line    0x0001507d      0x2a9 mesh/core/libmesh_core_nrf52832_xxAA.a(nrf_flash.c.obj)
 .debug_line    0x00015326      0x4c0 external/rtt/librtt_nrf52832_xxAA.a(SEGGER_RTT.c.obj)
 .debug_line    0x000157e6      0x282 external/rtt/librtt_nrf52832_xxAA.a(SEGGER_RTT_printf.c.obj)
 .debug_line    0x00015a68      0x9fb external/micro-ecc/libuECC_nrf52832_xxAA.a(uECC.c.obj)

.debug_str      0x00000000    0x117d1
 .debug_str     0x00000000     0x2f21 examples/pb_remote/client/CMakeFiles/pb_remote_client_nrf52832_xxAA_s132_5.0.0.dir/src/main.c.obj
                               0x3336 (size before relaxing)
 .debug_str     0x00002f21     0x1596 examples/pb_remote/client/CMakeFiles/pb_remote_client_nrf52832_xxAA_s132_5.0.0.dir/__/__/nrf_mesh_sdk.c.obj
                               0x22b1 (size before relaxing)
 .debug_str     0x000044b7       0xf1 examples/pb_remote/client/CMakeFiles/pb_remote_client_nrf52832_xxAA_s132_5.0.0.dir/__/__/common/src/rtt_input.c.obj
                                0xb69 (size before relaxing)
 .debug_str     0x000045a8     0x13a4 examples/pb_remote/client/CMakeFiles/pb_remote_client_nrf52832_xxAA_s132_5.0.0.dir/__/__/__/models/pb_remote/src/pb_remote_client.c.obj
                               0x2408 (size before relaxing)
 .debug_str     0x0000594c      0x550 examples/pb_remote/client/CMakeFiles/pb_remote_client_nrf52832_xxAA_s132_5.0.0.dir/__/__/__/mesh/prov/src/prov_provisioner.c.obj
                               0x1eb9 (size before relaxing)
 .debug_str     0x00005e9c      0x1ea examples/pb_remote/client/CMakeFiles/pb_remote_client_nrf52832_xxAA_s132_5.0.0.dir/__/__/__/mesh/prov/src/nrf_mesh_prov.c.obj
                               0x1c8f (size before relaxing)
 .debug_str     0x00006086      0x10f examples/pb_remote/client/CMakeFiles/pb_remote_client_nrf52832_xxAA_s132_5.0.0.dir/__/__/__/mesh/prov/src/provisioning.c.obj
                                0xf45 (size before relaxing)
 .debug_str     0x00006195      0x113 examples/pb_remote/client/CMakeFiles/pb_remote_client_nrf52832_xxAA_s132_5.0.0.dir/__/__/__/mesh/prov/src/prov_beacon.c.obj
                               0x18cc (size before relaxing)
 .debug_str     0x000062a8      0x438 examples/pb_remote/client/CMakeFiles/pb_remote_client_nrf52832_xxAA_s132_5.0.0.dir/__/__/__/mesh/prov/src/prov_utils.c.obj
                               0x1e53 (size before relaxing)
 .debug_str     0x000066e0      0x566 examples/pb_remote/client/CMakeFiles/pb_remote_client_nrf52832_xxAA_s132_5.0.0.dir/__/__/__/mesh/prov/src/prov_bearer_adv.c.obj
                               0x1b5a (size before relaxing)
 .debug_str     0x00006c46      0x3bc examples/pb_remote/client/CMakeFiles/pb_remote_client_nrf52832_xxAA_s132_5.0.0.dir/__/__/__/mesh/access/src/access_publish.c.obj
                                0xbe6 (size before relaxing)
 .debug_str     0x00007002     0x1a70 examples/pb_remote/client/CMakeFiles/pb_remote_client_nrf52832_xxAA_s132_5.0.0.dir/__/__/__/mesh/access/src/access.c.obj
                               0x2b46 (size before relaxing)
 .debug_str     0x00008a72      0x135 examples/pb_remote/client/CMakeFiles/pb_remote_client_nrf52832_xxAA_s132_5.0.0.dir/__/__/__/mesh/access/src/access_reliable.c.obj
                                0xcb4 (size before relaxing)
 .debug_str     0x00008ba7     0x118c examples/pb_remote/client/CMakeFiles/pb_remote_client_nrf52832_xxAA_s132_5.0.0.dir/__/__/__/mesh/access/src/device_state_manager.c.obj
                               0x2e6b (size before relaxing)
 .debug_str     0x00009d33       0x3c examples/pb_remote/client/CMakeFiles/pb_remote_client_nrf52832_xxAA_s132_5.0.0.dir/__/__/nrf_mesh_weak.c.obj
                                0x64d (size before relaxing)
 .debug_str     0x00009d6f      0x4a3 examples/pb_remote/client/CMakeFiles/pb_remote_client_nrf52832_xxAA_s132_5.0.0.dir/__/__/__/external/nRF5_SDK_14.2.0_17b948a/components/toolchain/system_nrf52.c.obj
                                0x779 (size before relaxing)
 .debug_str     0x0000a212       0x75 mesh/core/libmesh_core_nrf52832_xxAA.a(nrf_mesh_configure.c.obj)
                                0x77e (size before relaxing)
 .debug_str     0x0000a287       0x82 mesh/core/libmesh_core_nrf52832_xxAA.a(event.c.obj)
                               0x14d3 (size before relaxing)
 .debug_str     0x0000a309       0x76 mesh/core/libmesh_core_nrf52832_xxAA.a(fifo.c.obj)
                                0x6f5 (size before relaxing)
 .debug_str     0x0000a37f      0x367 mesh/core/libmesh_core_nrf52832_xxAA.a(net_state.c.obj)
                               0x1e46 (size before relaxing)
 .debug_str     0x0000a6e6       0x8b mesh/core/libmesh_core_nrf52832_xxAA.a(nrf_mesh_utils.c.obj)
                                0x76b (size before relaxing)
 .debug_str     0x0000a771      0x5c2 mesh/core/libmesh_core_nrf52832_xxAA.a(nrf_mesh.c.obj)
                               0x2d38 (size before relaxing)
 .debug_str     0x0000ad33       0xa9 mesh/core/libmesh_core_nrf52832_xxAA.a(hal.c.obj)
                                0x75e (size before relaxing)
 .debug_str     0x0000addc      0x14a mesh/core/libmesh_core_nrf52832_xxAA.a(timer_scheduler.c.obj)
                                0x94e (size before relaxing)
 .debug_str     0x0000af26      0x1e5 mesh/core/libmesh_core_nrf52832_xxAA.a(timer.c.obj)
                                0x883 (size before relaxing)
 .debug_str     0x0000b10b       0x3c mesh/core/libmesh_core_nrf52832_xxAA.a(ticker.c.obj)
                                0x34c (size before relaxing)
 .debug_str     0x0000b147       0xac mesh/core/libmesh_core_nrf52832_xxAA.a(rand.c.obj)
                                0x6db (size before relaxing)
 .debug_str     0x0000b1f3      0x8b0 mesh/core/libmesh_core_nrf52832_xxAA.a(timeslot.c.obj)
                               0x17f4 (size before relaxing)
 .debug_str     0x0000baa3      0x2c9 mesh/core/libmesh_core_nrf52832_xxAA.a(bearer_event.c.obj)
                                0xed3 (size before relaxing)
 .debug_str     0x0000bd6c      0x1c1 mesh/core/libmesh_core_nrf52832_xxAA.a(enc.c.obj)
                                0x9d4 (size before relaxing)
 .debug_str     0x0000bf2d      0x9b6 mesh/core/libmesh_core_nrf52832_xxAA.a(network.c.obj)
                               0x19c2 (size before relaxing)
 .debug_str     0x0000c8e3       0x57 mesh/core/libmesh_core_nrf52832_xxAA.a(nrf_mesh_keygen.c.obj)
                                0x397 (size before relaxing)
 .debug_str     0x0000c93a       0x65 mesh/core/libmesh_core_nrf52832_xxAA.a(list.c.obj)
                                0x2d8 (size before relaxing)
 .debug_str     0x0000c99f       0xf0 mesh/core/libmesh_core_nrf52832_xxAA.a(log.c.obj)
                                0x7d0 (size before relaxing)
 .debug_str     0x0000ca8f      0x8cb mesh/core/libmesh_core_nrf52832_xxAA.a(flash_manager.c.obj)
                               0x19d1 (size before relaxing)
 .debug_str     0x0000d35a       0x85 mesh/core/libmesh_core_nrf52832_xxAA.a(ccm_soft.c.obj)
                                0x75d (size before relaxing)
 .debug_str     0x0000d3df       0xb2 mesh/core/libmesh_core_nrf52832_xxAA.a(beacon.c.obj)
                               0x1133 (size before relaxing)
 .debug_str     0x0000d491       0x38 mesh/core/libmesh_core_nrf52832_xxAA.a(flash_manager_internal.c.obj)
                                0x7be (size before relaxing)
 .debug_str     0x0000d4c9      0x142 mesh/core/libmesh_core_nrf52832_xxAA.a(core_tx.c.obj)
                                0x8bd (size before relaxing)
 .debug_str     0x0000d60b      0x74b mesh/core/libmesh_core_nrf52832_xxAA.a(heartbeat.c.obj)
                               0x203b (size before relaxing)
 .debug_str     0x0000dd56      0x1d1 mesh/core/libmesh_core_nrf52832_xxAA.a(net_beacon.c.obj)
                                0xe84 (size before relaxing)
 .debug_str     0x0000df27      0x102 mesh/core/libmesh_core_nrf52832_xxAA.a(core_tx_adv.c.obj)
                               0x104b (size before relaxing)
 .debug_str     0x0000e029      0x189 mesh/core/libmesh_core_nrf52832_xxAA.a(ad_listener.c.obj)
                                0xb7f (size before relaxing)
 .debug_str     0x0000e1b2      0x14f mesh/core/libmesh_core_nrf52832_xxAA.a(ad_type_filter.c.obj)
                                0x9b9 (size before relaxing)
 .debug_str     0x0000e301      0x339 mesh/core/libmesh_core_nrf52832_xxAA.a(advertiser.c.obj)
                               0x150c (size before relaxing)
 .debug_str     0x0000e63a      0x34c mesh/core/libmesh_core_nrf52832_xxAA.a(bearer_handler.c.obj)
                                0xf8f (size before relaxing)
 .debug_str     0x0000e986      0x1ac mesh/core/libmesh_core_nrf52832_xxAA.a(broadcast.c.obj)
                                0xf32 (size before relaxing)
 .debug_str     0x0000eb32       0x72 mesh/core/libmesh_core_nrf52832_xxAA.a(filter_engine.c.obj)
                                0x826 (size before relaxing)
 .debug_str     0x0000eba4       0x79 mesh/core/libmesh_core_nrf52832_xxAA.a(radio_config.c.obj)
                                0x780 (size before relaxing)
 .debug_str     0x0000ec1d      0x45d mesh/core/libmesh_core_nrf52832_xxAA.a(scanner.c.obj)
                               0x18d8 (size before relaxing)
 .debug_str     0x0000f07a       0xc0 mesh/core/libmesh_core_nrf52832_xxAA.a(internal_event.c.obj)
                                0xa93 (size before relaxing)
 .debug_str     0x0000f13a       0xc1 mesh/core/libmesh_core_nrf52832_xxAA.a(aes.c.obj)
                                0xa6d (size before relaxing)
 .debug_str     0x0000f1fb       0x71 mesh/core/libmesh_core_nrf52832_xxAA.a(msg_cache.c.obj)
                                0x6ea (size before relaxing)
 .debug_str     0x0000f26c      0xd41 mesh/core/libmesh_core_nrf52832_xxAA.a(transport.c.obj)
                               0x31e5 (size before relaxing)
 .debug_str     0x0000ffad      0x2cd mesh/core/libmesh_core_nrf52832_xxAA.a(packet_buffer.c.obj)
                                0xc2f (size before relaxing)
 .debug_str     0x0001027a      0x36b mesh/core/libmesh_core_nrf52832_xxAA.a(flash_manager_defrag.c.obj)
                               0x1528 (size before relaxing)
 .debug_str     0x000105e5      0x266 mesh/core/libmesh_core_nrf52832_xxAA.a(packet_mgr.c.obj)
                                0x9ca (size before relaxing)
 .debug_str     0x0001084b      0x343 mesh/core/libmesh_core_nrf52832_xxAA.a(mesh_flash.c.obj)
                                0xcf6 (size before relaxing)
 .debug_str     0x00010b8e       0x19 mesh/core/libmesh_core_nrf52832_xxAA.a(queue.c.obj)
                                0x69d (size before relaxing)
 .debug_str     0x00010ba7       0xb2 mesh/core/libmesh_core_nrf52832_xxAA.a(aes_cmac.c.obj)
                                0x715 (size before relaxing)
 .debug_str     0x00010c59       0x31 mesh/core/libmesh_core_nrf52832_xxAA.a(nrf_mesh_opt.c.obj)
                                0x921 (size before relaxing)
 .debug_str     0x00010c8a       0x43 mesh/core/libmesh_core_nrf52832_xxAA.a(msqueue.c.obj)
                                0x6d9 (size before relaxing)
 .debug_str     0x00010ccd       0x9f mesh/core/libmesh_core_nrf52832_xxAA.a(replay_cache.c.obj)
                                0x6b0 (size before relaxing)
 .debug_str     0x00010d6c       0x36 mesh/core/libmesh_core_nrf52832_xxAA.a(nrf_flash.c.obj)
                                0x6ec (size before relaxing)
 .debug_str     0x00010da2      0x2bf external/rtt/librtt_nrf52832_xxAA.a(SEGGER_RTT.c.obj)
                                0x922 (size before relaxing)
 .debug_str     0x00011061       0xdf external/rtt/librtt_nrf52832_xxAA.a(SEGGER_RTT_printf.c.obj)
                                0x792 (size before relaxing)
 .debug_str     0x00011140      0x691 external/micro-ecc/libuECC_nrf52832_xxAA.a(uECC.c.obj)
                                0x880 (size before relaxing)

.debug_frame    0x00000000     0x60a4
 .debug_frame   0x00000000       0xe0 examples/pb_remote/client/CMakeFiles/pb_remote_client_nrf52832_xxAA_s132_5.0.0.dir/src/main.c.obj
 .debug_frame   0x000000e0      0x17c examples/pb_remote/client/CMakeFiles/pb_remote_client_nrf52832_xxAA_s132_5.0.0.dir/__/__/nrf_mesh_sdk.c.obj
 .debug_frame   0x0000025c       0x54 examples/pb_remote/client/CMakeFiles/pb_remote_client_nrf52832_xxAA_s132_5.0.0.dir/__/__/common/src/rtt_input.c.obj
 .debug_frame   0x000002b0      0x3a4 examples/pb_remote/client/CMakeFiles/pb_remote_client_nrf52832_xxAA_s132_5.0.0.dir/__/__/__/models/pb_remote/src/pb_remote_client.c.obj
 .debug_frame   0x00000654      0x170 examples/pb_remote/client/CMakeFiles/pb_remote_client_nrf52832_xxAA_s132_5.0.0.dir/__/__/__/mesh/prov/src/prov_provisioner.c.obj
 .debug_frame   0x000007c4      0x124 examples/pb_remote/client/CMakeFiles/pb_remote_client_nrf52832_xxAA_s132_5.0.0.dir/__/__/__/mesh/prov/src/nrf_mesh_prov.c.obj
 .debug_frame   0x000008e8      0x174 examples/pb_remote/client/CMakeFiles/pb_remote_client_nrf52832_xxAA_s132_5.0.0.dir/__/__/__/mesh/prov/src/provisioning.c.obj
 .debug_frame   0x00000a5c       0x84 examples/pb_remote/client/CMakeFiles/pb_remote_client_nrf52832_xxAA_s132_5.0.0.dir/__/__/__/mesh/prov/src/prov_beacon.c.obj
 .debug_frame   0x00000ae0      0x150 examples/pb_remote/client/CMakeFiles/pb_remote_client_nrf52832_xxAA_s132_5.0.0.dir/__/__/__/mesh/prov/src/prov_utils.c.obj
 .debug_frame   0x00000c30      0x328 examples/pb_remote/client/CMakeFiles/pb_remote_client_nrf52832_xxAA_s132_5.0.0.dir/__/__/__/mesh/prov/src/prov_bearer_adv.c.obj
 .debug_frame   0x00000f58      0x114 examples/pb_remote/client/CMakeFiles/pb_remote_client_nrf52832_xxAA_s132_5.0.0.dir/__/__/__/mesh/access/src/access_publish.c.obj
 .debug_frame   0x0000106c      0x544 examples/pb_remote/client/CMakeFiles/pb_remote_client_nrf52832_xxAA_s132_5.0.0.dir/__/__/__/mesh/access/src/access.c.obj
 .debug_frame   0x000015b0      0x10c examples/pb_remote/client/CMakeFiles/pb_remote_client_nrf52832_xxAA_s132_5.0.0.dir/__/__/__/mesh/access/src/access_reliable.c.obj
 .debug_frame   0x000016bc      0xa88 examples/pb_remote/client/CMakeFiles/pb_remote_client_nrf52832_xxAA_s132_5.0.0.dir/__/__/__/mesh/access/src/device_state_manager.c.obj
 .debug_frame   0x00002144       0x30 examples/pb_remote/client/CMakeFiles/pb_remote_client_nrf52832_xxAA_s132_5.0.0.dir/__/__/nrf_mesh_weak.c.obj
 .debug_frame   0x00002174       0x58 examples/pb_remote/client/CMakeFiles/pb_remote_client_nrf52832_xxAA_s132_5.0.0.dir/__/__/__/external/nRF5_SDK_14.2.0_17b948a/components/toolchain/system_nrf52.c.obj
 .debug_frame   0x000021cc       0x4c mesh/core/libmesh_core_nrf52832_xxAA.a(nrf_mesh_configure.c.obj)
 .debug_frame   0x00002218       0x6c mesh/core/libmesh_core_nrf52832_xxAA.a(event.c.obj)
 .debug_frame   0x00002284       0xd0 mesh/core/libmesh_core_nrf52832_xxAA.a(fifo.c.obj)
 .debug_frame   0x00002354      0x264 mesh/core/libmesh_core_nrf52832_xxAA.a(net_state.c.obj)
 .debug_frame   0x000025b8       0x50 mesh/core/libmesh_core_nrf52832_xxAA.a(nrf_mesh_utils.c.obj)
 .debug_frame   0x00002608      0x15c mesh/core/libmesh_core_nrf52832_xxAA.a(nrf_mesh.c.obj)
 .debug_frame   0x00002764       0x58 mesh/core/libmesh_core_nrf52832_xxAA.a(hal.c.obj)
 .debug_frame   0x000027bc      0x13c mesh/core/libmesh_core_nrf52832_xxAA.a(timer_scheduler.c.obj)
 .debug_frame   0x000028f8      0x10c mesh/core/libmesh_core_nrf52832_xxAA.a(timer.c.obj)
 .debug_frame   0x00002a04       0x4c mesh/core/libmesh_core_nrf52832_xxAA.a(ticker.c.obj)
 .debug_frame   0x00002a50       0x84 mesh/core/libmesh_core_nrf52832_xxAA.a(rand.c.obj)
 .debug_frame   0x00002ad4      0x1a0 mesh/core/libmesh_core_nrf52832_xxAA.a(timeslot.c.obj)
 .debug_frame   0x00002c74      0x1c8 mesh/core/libmesh_core_nrf52832_xxAA.a(bearer_event.c.obj)
 .debug_frame   0x00002e3c      0x150 mesh/core/libmesh_core_nrf52832_xxAA.a(enc.c.obj)
 .debug_frame   0x00002f8c      0x14c mesh/core/libmesh_core_nrf52832_xxAA.a(network.c.obj)
 .debug_frame   0x000030d8       0xb4 mesh/core/libmesh_core_nrf52832_xxAA.a(nrf_mesh_keygen.c.obj)
 .debug_frame   0x0000318c       0xd4 mesh/core/libmesh_core_nrf52832_xxAA.a(list.c.obj)
 .debug_frame   0x00003260       0xb0 mesh/core/libmesh_core_nrf52832_xxAA.a(log.c.obj)
 .debug_frame   0x00003310      0x33c mesh/core/libmesh_core_nrf52832_xxAA.a(flash_manager.c.obj)
 .debug_frame   0x0000364c      0x10c mesh/core/libmesh_core_nrf52832_xxAA.a(ccm_soft.c.obj)
 .debug_frame   0x00003758       0x98 mesh/core/libmesh_core_nrf52832_xxAA.a(beacon.c.obj)
 .debug_frame   0x000037f0       0x34 mesh/core/libmesh_core_nrf52832_xxAA.a(flash_manager_internal.c.obj)
 .debug_frame   0x00003824       0xe8 mesh/core/libmesh_core_nrf52832_xxAA.a(core_tx.c.obj)
 .debug_frame   0x0000390c      0x164 mesh/core/libmesh_core_nrf52832_xxAA.a(heartbeat.c.obj)
 .debug_frame   0x00003a70       0xd0 mesh/core/libmesh_core_nrf52832_xxAA.a(net_beacon.c.obj)
 .debug_frame   0x00003b40      0x128 mesh/core/libmesh_core_nrf52832_xxAA.a(core_tx_adv.c.obj)
 .debug_frame   0x00003c68       0x6c mesh/core/libmesh_core_nrf52832_xxAA.a(ad_listener.c.obj)
 .debug_frame   0x00003cd4       0xa8 mesh/core/libmesh_core_nrf52832_xxAA.a(ad_type_filter.c.obj)
 .debug_frame   0x00003d7c      0x284 mesh/core/libmesh_core_nrf52832_xxAA.a(advertiser.c.obj)
 .debug_frame   0x00004000      0x160 mesh/core/libmesh_core_nrf52832_xxAA.a(bearer_handler.c.obj)
 .debug_frame   0x00004160       0x70 mesh/core/libmesh_core_nrf52832_xxAA.a(broadcast.c.obj)
 .debug_frame   0x000041d0       0x7c mesh/core/libmesh_core_nrf52832_xxAA.a(filter_engine.c.obj)
 .debug_frame   0x0000424c       0x90 mesh/core/libmesh_core_nrf52832_xxAA.a(radio_config.c.obj)
 .debug_frame   0x000042dc      0x2a4 mesh/core/libmesh_core_nrf52832_xxAA.a(scanner.c.obj)
 .debug_frame   0x00004580       0x48 mesh/core/libmesh_core_nrf52832_xxAA.a(internal_event.c.obj)
 .debug_frame   0x000045c8       0x40 mesh/core/libmesh_core_nrf52832_xxAA.a(aes.c.obj)
 .debug_frame   0x00004608       0x6c mesh/core/libmesh_core_nrf52832_xxAA.a(msg_cache.c.obj)
 .debug_frame   0x00004674      0x44c mesh/core/libmesh_core_nrf52832_xxAA.a(transport.c.obj)
 .debug_frame   0x00004ac0      0x184 mesh/core/libmesh_core_nrf52832_xxAA.a(packet_buffer.c.obj)
 .debug_frame   0x00004c44      0x250 mesh/core/libmesh_core_nrf52832_xxAA.a(flash_manager_defrag.c.obj)
 .debug_frame   0x00004e94       0xa0 mesh/core/libmesh_core_nrf52832_xxAA.a(packet_mgr.c.obj)
 .debug_frame   0x00004f34      0x150 mesh/core/libmesh_core_nrf52832_xxAA.a(mesh_flash.c.obj)
 .debug_frame   0x00005084       0x74 mesh/core/libmesh_core_nrf52832_xxAA.a(queue.c.obj)
 .debug_frame   0x000050f8       0xa4 mesh/core/libmesh_core_nrf52832_xxAA.a(aes_cmac.c.obj)
 .debug_frame   0x0000519c       0x30 mesh/core/libmesh_core_nrf52832_xxAA.a(nrf_mesh_opt.c.obj)
 .debug_frame   0x000051cc       0xb8 mesh/core/libmesh_core_nrf52832_xxAA.a(msqueue.c.obj)
 .debug_frame   0x00005284       0xa0 mesh/core/libmesh_core_nrf52832_xxAA.a(replay_cache.c.obj)
 .debug_frame   0x00005324       0x54 mesh/core/libmesh_core_nrf52832_xxAA.a(nrf_flash.c.obj)
 .debug_frame   0x00005378      0x2d8 external/rtt/librtt_nrf52832_xxAA.a(SEGGER_RTT.c.obj)
 .debug_frame   0x00005650       0xac external/rtt/librtt_nrf52832_xxAA.a(SEGGER_RTT_printf.c.obj)
 .debug_frame   0x000056fc      0x684 external/micro-ecc/libuECC_nrf52832_xxAA.a(uECC.c.obj)
 .debug_frame   0x00005d80       0x2c c:/a/gcc_arm/6/bin/../lib/gcc/arm-none-eabi/6.3.1/thumb/v7e-m/fpv4-sp/hard\libgcc.a(_aeabi_uldivmod.o)
 .debug_frame   0x00005dac       0x34 c:/a/gcc_arm/6/bin/../lib/gcc/arm-none-eabi/6.3.1/thumb/v7e-m/fpv4-sp/hard\libgcc.a(_udivmoddi4.o)
 .debug_frame   0x00005de0       0x28 c:/a/gcc_arm/6/bin/../lib/gcc/arm-none-eabi/6.3.1/../../../../arm-none-eabi/lib/thumb/v7e-m/fpv4-sp/hard\libg_nano.a(lib_a-exit.o)
 .debug_frame   0x00005e08       0x2c c:/a/gcc_arm/6/bin/../lib/gcc/arm-none-eabi/6.3.1/../../../../arm-none-eabi/lib/thumb/v7e-m/fpv4-sp/hard\libg_nano.a(lib_a-init.o)
 .debug_frame   0x00005e34       0x30 c:/a/gcc_arm/6/bin/../lib/gcc/arm-none-eabi/6.3.1/../../../../arm-none-eabi/lib/thumb/v7e-m/fpv4-sp/hard\libg_nano.a(lib_a-malloc.o)
 .debug_frame   0x00005e64       0x28 c:/a/gcc_arm/6/bin/../lib/gcc/arm-none-eabi/6.3.1/../../../../arm-none-eabi/lib/thumb/v7e-m/fpv4-sp/hard\libg_nano.a(lib_a-memcmp.o)
 .debug_frame   0x00005e8c       0x28 c:/a/gcc_arm/6/bin/../lib/gcc/arm-none-eabi/6.3.1/../../../../arm-none-eabi/lib/thumb/v7e-m/fpv4-sp/hard\libg_nano.a(lib_a-memcpy-stub.o)
 .debug_frame   0x00005eb4       0x20 c:/a/gcc_arm/6/bin/../lib/gcc/arm-none-eabi/6.3.1/../../../../arm-none-eabi/lib/thumb/v7e-m/fpv4-sp/hard\libg_nano.a(lib_a-memset.o)
 .debug_frame   0x00005ed4       0x38 c:/a/gcc_arm/6/bin/../lib/gcc/arm-none-eabi/6.3.1/../../../../arm-none-eabi/lib/thumb/v7e-m/fpv4-sp/hard\libg_nano.a(lib_a-nano-freer.o)
 .debug_frame   0x00005f0c       0x2c c:/a/gcc_arm/6/bin/../lib/gcc/arm-none-eabi/6.3.1/../../../../arm-none-eabi/lib/thumb/v7e-m/fpv4-sp/hard\libg_nano.a(lib_a-nano-mallocr.o)
 .debug_frame   0x00005f38       0x2c c:/a/gcc_arm/6/bin/../lib/gcc/arm-none-eabi/6.3.1/../../../../arm-none-eabi/lib/thumb/v7e-m/fpv4-sp/hard\libg_nano.a(lib_a-sbrkr.o)
 .debug_frame   0x00005f64       0x20 c:/a/gcc_arm/6/bin/../lib/gcc/arm-none-eabi/6.3.1/../../../../arm-none-eabi/lib/thumb/v7e-m/fpv4-sp/hard\libg_nano.a(lib_a-strcpy.o)
 .debug_frame   0x00005f84       0x34 c:/a/gcc_arm/6/bin/../lib/gcc/arm-none-eabi/6.3.1/../../../../arm-none-eabi/lib/thumb/v7e-m/fpv4-sp/hard\libg_nano.a(lib_a-strrchr.o)
 .debug_frame   0x00005fb8       0x30 c:/a/gcc_arm/6/bin/../lib/gcc/arm-none-eabi/6.3.1/../../../../arm-none-eabi/lib/thumb/v7e-m/fpv4-sp/hard\libg_nano.a(lib_a-mlock.o)
 .debug_frame   0x00005fe8       0x5c c:/a/gcc_arm/6/bin/../lib/gcc/arm-none-eabi/6.3.1/../../../../arm-none-eabi/lib/thumb/v7e-m/fpv4-sp/hard\libg_nano.a(lib_a-reent.o)
 .debug_frame   0x00006044       0x20 c:/a/gcc_arm/6/bin/../lib/gcc/arm-none-eabi/6.3.1/../../../../arm-none-eabi/lib/thumb/v7e-m/fpv4-sp/hard\libg_nano.a(lib_a-strchr.o)
 .debug_frame   0x00006064       0x20 c:/a/gcc_arm/6/bin/../lib/gcc/arm-none-eabi/6.3.1/../../../../arm-none-eabi/lib/thumb/v7e-m/fpv4-sp/hard\libnosys.a(sbrk.o)
 .debug_frame   0x00006084       0x20 c:/a/gcc_arm/6/bin/../lib/gcc/arm-none-eabi/6.3.1/../../../../arm-none-eabi/lib/thumb/v7e-m/fpv4-sp/hard\libnosys.a(_exit.o)
