Archive member included to satisfy reference by file (symbol)

external/micro-ecc/libuECC_nrf52840_xxAA.a(uECC.c.obj)
                              examples/serial/CMakeFiles/serial_nrf52840_xxAA_s140_6.0.0.dir/__/__/mesh/prov/src/prov_utils.c.obj (uECC_secp256r1)
external/rtt/librtt_nrf52840_xxAA.a(SEGGER_RTT.c.obj)
                              examples/serial/CMakeFiles/serial_nrf52840_xxAA_s140_6.0.0.dir/__/__/mesh/core/src/log.c.obj (SEGGER_RTT_Write)
external/rtt/librtt_nrf52840_xxAA.a(SEGGER_RTT_printf.c.obj)
                              examples/serial/CMakeFiles/serial_nrf52840_xxAA_s140_6.0.0.dir/__/__/mesh/core/src/log.c.obj (SEGGER_RTT_vprintf)
c:/mesh/arm_gcc/bin/../lib/gcc/arm-none-eabi/6.3.1/../../../../arm-none-eabi/lib/thumb/v7e-m/fpv4-sp/hard\libc_nano.a(lib_a-exit.o)
                              c:/mesh/arm_gcc/bin/../lib/gcc/arm-none-eabi/6.3.1/../../../../arm-none-eabi/lib/thumb/v7e-m/fpv4-sp/hard/crt0.o (exit)
c:/mesh/arm_gcc/bin/../lib/gcc/arm-none-eabi/6.3.1/../../../../arm-none-eabi/lib/thumb/v7e-m/fpv4-sp/hard\libc_nano.a(lib_a-impure.o)
                              c:/mesh/arm_gcc/bin/../lib/gcc/arm-none-eabi/6.3.1/../../../../arm-none-eabi/lib/thumb/v7e-m/fpv4-sp/hard\libc_nano.a(lib_a-exit.o) (_global_impure_ptr)
c:/mesh/arm_gcc/bin/../lib/gcc/arm-none-eabi/6.3.1/../../../../arm-none-eabi/lib/thumb/v7e-m/fpv4-sp/hard\libc_nano.a(lib_a-init.o)
                              c:/mesh/arm_gcc/bin/../lib/gcc/arm-none-eabi/6.3.1/../../../../arm-none-eabi/lib/thumb/v7e-m/fpv4-sp/hard/crt0.o (__libc_init_array)
c:/mesh/arm_gcc/bin/../lib/gcc/arm-none-eabi/6.3.1/../../../../arm-none-eabi/lib/thumb/v7e-m/fpv4-sp/hard\libc_nano.a(lib_a-malloc.o)
                              examples/serial/CMakeFiles/serial_nrf52840_xxAA_s140_6.0.0.dir/__/__/mesh/core/src/transport.c.obj (malloc)
c:/mesh/arm_gcc/bin/../lib/gcc/arm-none-eabi/6.3.1/../../../../arm-none-eabi/lib/thumb/v7e-m/fpv4-sp/hard\libc_nano.a(lib_a-memcmp.o)
                              examples/serial/CMakeFiles/serial_nrf52840_xxAA_s140_6.0.0.dir/__/__/mesh/prov/src/prov_utils.c.obj (memcmp)
c:/mesh/arm_gcc/bin/../lib/gcc/arm-none-eabi/6.3.1/../../../../arm-none-eabi/lib/thumb/v7e-m/fpv4-sp/hard\libc_nano.a(lib_a-memcpy-stub.o)
                              examples/serial/CMakeFiles/serial_nrf52840_xxAA_s140_6.0.0.dir/__/__/mesh/prov/src/prov_provisioner.c.obj (memcpy)
c:/mesh/arm_gcc/bin/../lib/gcc/arm-none-eabi/6.3.1/../../../../arm-none-eabi/lib/thumb/v7e-m/fpv4-sp/hard\libc_nano.a(lib_a-memset.o)
                              c:/mesh/arm_gcc/bin/../lib/gcc/arm-none-eabi/6.3.1/../../../../arm-none-eabi/lib/thumb/v7e-m/fpv4-sp/hard/crt0.o (memset)
c:/mesh/arm_gcc/bin/../lib/gcc/arm-none-eabi/6.3.1/../../../../arm-none-eabi/lib/thumb/v7e-m/fpv4-sp/hard\libc_nano.a(lib_a-nano-freer.o)
                              c:/mesh/arm_gcc/bin/../lib/gcc/arm-none-eabi/6.3.1/../../../../arm-none-eabi/lib/thumb/v7e-m/fpv4-sp/hard\libc_nano.a(lib_a-malloc.o) (_free_r)
c:/mesh/arm_gcc/bin/../lib/gcc/arm-none-eabi/6.3.1/../../../../arm-none-eabi/lib/thumb/v7e-m/fpv4-sp/hard\libc_nano.a(lib_a-nano-mallocr.o)
                              c:/mesh/arm_gcc/bin/../lib/gcc/arm-none-eabi/6.3.1/../../../../arm-none-eabi/lib/thumb/v7e-m/fpv4-sp/hard\libc_nano.a(lib_a-malloc.o) (_malloc_r)
c:/mesh/arm_gcc/bin/../lib/gcc/arm-none-eabi/6.3.1/../../../../arm-none-eabi/lib/thumb/v7e-m/fpv4-sp/hard\libc_nano.a(lib_a-sbrkr.o)
                              c:/mesh/arm_gcc/bin/../lib/gcc/arm-none-eabi/6.3.1/../../../../arm-none-eabi/lib/thumb/v7e-m/fpv4-sp/hard\libc_nano.a(lib_a-nano-mallocr.o) (_sbrk_r)
c:/mesh/arm_gcc/bin/../lib/gcc/arm-none-eabi/6.3.1/../../../../arm-none-eabi/lib/thumb/v7e-m/fpv4-sp/hard\libc_nano.a(lib_a-strcpy.o)
                              external/rtt/librtt_nrf52840_xxAA.a(SEGGER_RTT.c.obj) (strcpy)
c:/mesh/arm_gcc/bin/../lib/gcc/arm-none-eabi/6.3.1/../../../../arm-none-eabi/lib/thumb/v7e-m/fpv4-sp/hard\libc_nano.a(lib_a-strlen.o)
                              examples/serial/CMakeFiles/serial_nrf52840_xxAA_s140_6.0.0.dir/__/__/mesh/prov/src/prov_beacon.c.obj (strlen)
c:/mesh/arm_gcc/bin/../lib/gcc/arm-none-eabi/6.3.1/../../../../arm-none-eabi/lib/thumb/v7e-m/fpv4-sp/hard\libc_nano.a(lib_a-strrchr.o)
                              examples/serial/CMakeFiles/serial_nrf52840_xxAA_s140_6.0.0.dir/src/main.c.obj (strrchr)
c:/mesh/arm_gcc/bin/../lib/gcc/arm-none-eabi/6.3.1/../../../../arm-none-eabi/lib/thumb/v7e-m/fpv4-sp/hard\libc_nano.a(lib_a-mlock.o)
                              c:/mesh/arm_gcc/bin/../lib/gcc/arm-none-eabi/6.3.1/../../../../arm-none-eabi/lib/thumb/v7e-m/fpv4-sp/hard\libc_nano.a(lib_a-nano-freer.o) (__malloc_lock)
c:/mesh/arm_gcc/bin/../lib/gcc/arm-none-eabi/6.3.1/../../../../arm-none-eabi/lib/thumb/v7e-m/fpv4-sp/hard\libc_nano.a(lib_a-reent.o)
                              c:/mesh/arm_gcc/bin/../lib/gcc/arm-none-eabi/6.3.1/../../../../arm-none-eabi/lib/thumb/v7e-m/fpv4-sp/hard\libc_nano.a(lib_a-sbrkr.o) (errno)
c:/mesh/arm_gcc/bin/../lib/gcc/arm-none-eabi/6.3.1/../../../../arm-none-eabi/lib/thumb/v7e-m/fpv4-sp/hard\libc_nano.a(lib_a-strchr.o)
                              c:/mesh/arm_gcc/bin/../lib/gcc/arm-none-eabi/6.3.1/../../../../arm-none-eabi/lib/thumb/v7e-m/fpv4-sp/hard\libc_nano.a(lib_a-strrchr.o) (strchr)
c:/mesh/arm_gcc/bin/../lib/gcc/arm-none-eabi/6.3.1/../../../../arm-none-eabi/lib/thumb/v7e-m/fpv4-sp/hard\libnosys.a(sbrk.o)
                              c:/mesh/arm_gcc/bin/../lib/gcc/arm-none-eabi/6.3.1/../../../../arm-none-eabi/lib/thumb/v7e-m/fpv4-sp/hard\libc_nano.a(lib_a-sbrkr.o) (_sbrk)
c:/mesh/arm_gcc/bin/../lib/gcc/arm-none-eabi/6.3.1/../../../../arm-none-eabi/lib/thumb/v7e-m/fpv4-sp/hard\libnosys.a(_exit.o)
                              c:/mesh/arm_gcc/bin/../lib/gcc/arm-none-eabi/6.3.1/../../../../arm-none-eabi/lib/thumb/v7e-m/fpv4-sp/hard\libc_nano.a(lib_a-exit.o) (_exit)

Allocating common symbols
Common symbol       size              file

nrf_nvic_state      0xc               examples/serial/CMakeFiles/serial_nrf52840_xxAA_s140_6.0.0.dir/__/common/src/mesh_softdevice_init.c.obj
m_packet            0x24              examples/serial/CMakeFiles/serial_nrf52840_xxAA_s140_6.0.0.dir/__/__/mesh/core/src/core_tx.c.obj
errno               0x4               c:/mesh/arm_gcc/bin/../lib/gcc/arm-none-eabi/6.3.1/../../../../arm-none-eabi/lib/thumb/v7e-m/fpv4-sp/hard\libc_nano.a(lib_a-reent.o)
_SEGGER_RTT         0x78              external/rtt/librtt_nrf52840_xxAA.a(SEGGER_RTT.c.obj)

Discarded input sections

 .text          0x00000000        0x0 c:/mesh/arm_gcc/bin/../lib/gcc/arm-none-eabi/6.3.1/thumb/v7e-m/fpv4-sp/hard/crti.o
 .data          0x00000000        0x0 c:/mesh/arm_gcc/bin/../lib/gcc/arm-none-eabi/6.3.1/thumb/v7e-m/fpv4-sp/hard/crti.o
 .bss           0x00000000        0x0 c:/mesh/arm_gcc/bin/../lib/gcc/arm-none-eabi/6.3.1/thumb/v7e-m/fpv4-sp/hard/crti.o
 .data          0x00000000        0x4 c:/mesh/arm_gcc/bin/../lib/gcc/arm-none-eabi/6.3.1/thumb/v7e-m/fpv4-sp/hard/crtbegin.o
 .data          0x00000000        0x0 c:/mesh/arm_gcc/bin/../lib/gcc/arm-none-eabi/6.3.1/../../../../arm-none-eabi/lib/thumb/v7e-m/fpv4-sp/hard/crt0.o
 .bss           0x00000000        0x0 c:/mesh/arm_gcc/bin/../lib/gcc/arm-none-eabi/6.3.1/../../../../arm-none-eabi/lib/thumb/v7e-m/fpv4-sp/hard/crt0.o
 .ARM.extab     0x00000000        0x0 c:/mesh/arm_gcc/bin/../lib/gcc/arm-none-eabi/6.3.1/../../../../arm-none-eabi/lib/thumb/v7e-m/fpv4-sp/hard/crt0.o
 .text          0x00000000        0x0 examples/serial/CMakeFiles/serial_nrf52840_xxAA_s140_6.0.0.dir/src/main.c.obj
 .data          0x00000000        0x0 examples/serial/CMakeFiles/serial_nrf52840_xxAA_s140_6.0.0.dir/src/main.c.obj
 .bss           0x00000000        0x0 examples/serial/CMakeFiles/serial_nrf52840_xxAA_s140_6.0.0.dir/src/main.c.obj
 .text          0x00000000        0x0 examples/serial/CMakeFiles/serial_nrf52840_xxAA_s140_6.0.0.dir/__/__/mesh/stack/src/mesh_stack.c.obj
 .data          0x00000000        0x0 examples/serial/CMakeFiles/serial_nrf52840_xxAA_s140_6.0.0.dir/__/__/mesh/stack/src/mesh_stack.c.obj
 .bss           0x00000000        0x0 examples/serial/CMakeFiles/serial_nrf52840_xxAA_s140_6.0.0.dir/__/__/mesh/stack/src/mesh_stack.c.obj
 .text.mesh_stack_is_device_provisioned
                0x00000000       0x1c examples/serial/CMakeFiles/serial_nrf52840_xxAA_s140_6.0.0.dir/__/__/mesh/stack/src/mesh_stack.c.obj
 .text.mesh_stack_device_reset
                0x00000000        0x8 examples/serial/CMakeFiles/serial_nrf52840_xxAA_s140_6.0.0.dir/__/__/mesh/stack/src/mesh_stack.c.obj
 .text          0x00000000        0x0 examples/serial/CMakeFiles/serial_nrf52840_xxAA_s140_6.0.0.dir/__/common/src/mesh_softdevice_init.c.obj
 .data          0x00000000        0x0 examples/serial/CMakeFiles/serial_nrf52840_xxAA_s140_6.0.0.dir/__/common/src/mesh_softdevice_init.c.obj
 .bss           0x00000000        0x0 examples/serial/CMakeFiles/serial_nrf52840_xxAA_s140_6.0.0.dir/__/common/src/mesh_softdevice_init.c.obj
 .text          0x00000000        0x0 examples/serial/CMakeFiles/serial_nrf52840_xxAA_s140_6.0.0.dir/__/common/src/mesh_provisionee.c.obj
 .data          0x00000000        0x0 examples/serial/CMakeFiles/serial_nrf52840_xxAA_s140_6.0.0.dir/__/common/src/mesh_provisionee.c.obj
 .bss           0x00000000        0x0 examples/serial/CMakeFiles/serial_nrf52840_xxAA_s140_6.0.0.dir/__/common/src/mesh_provisionee.c.obj
 .text          0x00000000        0x0 examples/serial/CMakeFiles/serial_nrf52840_xxAA_s140_6.0.0.dir/__/common/src/simple_hal.c.obj
 .data          0x00000000        0x0 examples/serial/CMakeFiles/serial_nrf52840_xxAA_s140_6.0.0.dir/__/common/src/simple_hal.c.obj
 .bss           0x00000000        0x0 examples/serial/CMakeFiles/serial_nrf52840_xxAA_s140_6.0.0.dir/__/common/src/simple_hal.c.obj
 .text.hal_led_pin_get
                0x00000000       0x18 examples/serial/CMakeFiles/serial_nrf52840_xxAA_s140_6.0.0.dir/__/common/src/simple_hal.c.obj
 .text.hal_led_pin_set
                0x00000000       0x18 examples/serial/CMakeFiles/serial_nrf52840_xxAA_s140_6.0.0.dir/__/common/src/simple_hal.c.obj
 .text.hal_buttons_init
                0x00000000       0x54 examples/serial/CMakeFiles/serial_nrf52840_xxAA_s140_6.0.0.dir/__/common/src/simple_hal.c.obj
 .text          0x00000000        0x0 examples/serial/CMakeFiles/serial_nrf52840_xxAA_s140_6.0.0.dir/__/__/mesh/prov/src/prov_provisioner.c.obj
 .data          0x00000000        0x0 examples/serial/CMakeFiles/serial_nrf52840_xxAA_s140_6.0.0.dir/__/__/mesh/prov/src/prov_provisioner.c.obj
 .bss           0x00000000        0x0 examples/serial/CMakeFiles/serial_nrf52840_xxAA_s140_6.0.0.dir/__/__/mesh/prov/src/prov_provisioner.c.obj
 .text.prov_provisioner_oob_pubkey
                0x00000000       0x34 examples/serial/CMakeFiles/serial_nrf52840_xxAA_s140_6.0.0.dir/__/__/mesh/prov/src/prov_provisioner.c.obj
 .text          0x00000000        0x0 examples/serial/CMakeFiles/serial_nrf52840_xxAA_s140_6.0.0.dir/__/__/mesh/prov/src/prov_provisionee.c.obj
 .data          0x00000000        0x0 examples/serial/CMakeFiles/serial_nrf52840_xxAA_s140_6.0.0.dir/__/__/mesh/prov/src/prov_provisionee.c.obj
 .bss           0x00000000        0x0 examples/serial/CMakeFiles/serial_nrf52840_xxAA_s140_6.0.0.dir/__/__/mesh/prov/src/prov_provisionee.c.obj
 .text          0x00000000        0x0 examples/serial/CMakeFiles/serial_nrf52840_xxAA_s140_6.0.0.dir/__/__/mesh/prov/src/nrf_mesh_prov.c.obj
 .data          0x00000000        0x0 examples/serial/CMakeFiles/serial_nrf52840_xxAA_s140_6.0.0.dir/__/__/mesh/prov/src/nrf_mesh_prov.c.obj
 .bss           0x00000000        0x0 examples/serial/CMakeFiles/serial_nrf52840_xxAA_s140_6.0.0.dir/__/__/mesh/prov/src/nrf_mesh_prov.c.obj
 .text.nrf_mesh_prov_listen_stop
                0x00000000       0x30 examples/serial/CMakeFiles/serial_nrf52840_xxAA_s140_6.0.0.dir/__/__/mesh/prov/src/nrf_mesh_prov.c.obj
 .text.nrf_mesh_prov_pubkey_provide
                0x00000000       0x10 examples/serial/CMakeFiles/serial_nrf52840_xxAA_s140_6.0.0.dir/__/__/mesh/prov/src/nrf_mesh_prov.c.obj
 .text          0x00000000        0x0 examples/serial/CMakeFiles/serial_nrf52840_xxAA_s140_6.0.0.dir/__/__/mesh/prov/src/provisioning.c.obj
 .data          0x00000000        0x0 examples/serial/CMakeFiles/serial_nrf52840_xxAA_s140_6.0.0.dir/__/__/mesh/prov/src/provisioning.c.obj
 .bss           0x00000000        0x0 examples/serial/CMakeFiles/serial_nrf52840_xxAA_s140_6.0.0.dir/__/__/mesh/prov/src/provisioning.c.obj
 .text.prov_tx  0x00000000       0x3c examples/serial/CMakeFiles/serial_nrf52840_xxAA_s140_6.0.0.dir/__/__/mesh/prov/src/provisioning.c.obj
 .text          0x00000000        0x0 examples/serial/CMakeFiles/serial_nrf52840_xxAA_s140_6.0.0.dir/__/__/mesh/prov/src/prov_beacon.c.obj
 .data          0x00000000        0x0 examples/serial/CMakeFiles/serial_nrf52840_xxAA_s140_6.0.0.dir/__/__/mesh/prov/src/prov_beacon.c.obj
 .bss           0x00000000        0x0 examples/serial/CMakeFiles/serial_nrf52840_xxAA_s140_6.0.0.dir/__/__/mesh/prov/src/prov_beacon.c.obj
 .text          0x00000000        0x0 examples/serial/CMakeFiles/serial_nrf52840_xxAA_s140_6.0.0.dir/__/__/mesh/prov/src/prov_utils.c.obj
 .data          0x00000000        0x0 examples/serial/CMakeFiles/serial_nrf52840_xxAA_s140_6.0.0.dir/__/__/mesh/prov/src/prov_utils.c.obj
 .bss           0x00000000        0x0 examples/serial/CMakeFiles/serial_nrf52840_xxAA_s140_6.0.0.dir/__/__/mesh/prov/src/prov_utils.c.obj
 .text          0x00000000        0x0 examples/serial/CMakeFiles/serial_nrf52840_xxAA_s140_6.0.0.dir/__/__/mesh/prov/src/prov_bearer_adv.c.obj
 .data          0x00000000        0x0 examples/serial/CMakeFiles/serial_nrf52840_xxAA_s140_6.0.0.dir/__/__/mesh/prov/src/prov_bearer_adv.c.obj
 .bss           0x00000000        0x0 examples/serial/CMakeFiles/serial_nrf52840_xxAA_s140_6.0.0.dir/__/__/mesh/prov/src/prov_bearer_adv.c.obj
 .text.calculate_3GPP_CRC
                0x00000000       0x28 examples/serial/CMakeFiles/serial_nrf52840_xxAA_s140_6.0.0.dir/__/__/mesh/prov/src/prov_bearer_adv.c.obj
 .text          0x00000000        0x0 examples/serial/CMakeFiles/serial_nrf52840_xxAA_s140_6.0.0.dir/__/__/mesh/access/src/access_publish.c.obj
 .data          0x00000000        0x0 examples/serial/CMakeFiles/serial_nrf52840_xxAA_s140_6.0.0.dir/__/__/mesh/access/src/access_publish.c.obj
 .bss           0x00000000        0x0 examples/serial/CMakeFiles/serial_nrf52840_xxAA_s140_6.0.0.dir/__/__/mesh/access/src/access_publish.c.obj
 .text          0x00000000        0x0 examples/serial/CMakeFiles/serial_nrf52840_xxAA_s140_6.0.0.dir/__/__/mesh/access/src/access.c.obj
 .data          0x00000000        0x0 examples/serial/CMakeFiles/serial_nrf52840_xxAA_s140_6.0.0.dir/__/__/mesh/access/src/access.c.obj
 .bss           0x00000000        0x0 examples/serial/CMakeFiles/serial_nrf52840_xxAA_s140_6.0.0.dir/__/__/mesh/access/src/access.c.obj
 .text.access_model_subscription_list_alloc
                0x00000000       0x64 examples/serial/CMakeFiles/serial_nrf52840_xxAA_s140_6.0.0.dir/__/__/mesh/access/src/access.c.obj
 .text.access_model_subscription_lists_share
                0x00000000       0x60 examples/serial/CMakeFiles/serial_nrf52840_xxAA_s140_6.0.0.dir/__/__/mesh/access/src/access.c.obj
 .text          0x00000000        0x0 examples/serial/CMakeFiles/serial_nrf52840_xxAA_s140_6.0.0.dir/__/__/mesh/access/src/access_reliable.c.obj
 .data          0x00000000        0x0 examples/serial/CMakeFiles/serial_nrf52840_xxAA_s140_6.0.0.dir/__/__/mesh/access/src/access_reliable.c.obj
 .bss           0x00000000        0x0 examples/serial/CMakeFiles/serial_nrf52840_xxAA_s140_6.0.0.dir/__/__/mesh/access/src/access_reliable.c.obj
 .text.access_model_reliable_publish
                0x00000000      0x1cc examples/serial/CMakeFiles/serial_nrf52840_xxAA_s140_6.0.0.dir/__/__/mesh/access/src/access_reliable.c.obj
 .text          0x00000000        0x0 examples/serial/CMakeFiles/serial_nrf52840_xxAA_s140_6.0.0.dir/__/__/mesh/access/src/device_state_manager.c.obj
 .data          0x00000000        0x0 examples/serial/CMakeFiles/serial_nrf52840_xxAA_s140_6.0.0.dir/__/__/mesh/access/src/device_state_manager.c.obj
 .bss           0x00000000        0x0 examples/serial/CMakeFiles/serial_nrf52840_xxAA_s140_6.0.0.dir/__/__/mesh/access/src/device_state_manager.c.obj
 .text.dsm_has_unflashed_data
                0x00000000        0x4 examples/serial/CMakeFiles/serial_nrf52840_xxAA_s140_6.0.0.dir/__/__/mesh/access/src/device_state_manager.c.obj
 .text.dsm_address_publish_add_handle
                0x00000000       0x54 examples/serial/CMakeFiles/serial_nrf52840_xxAA_s140_6.0.0.dir/__/__/mesh/access/src/device_state_manager.c.obj
 .text.dsm_address_subscription_add_handle
                0x00000000       0x54 examples/serial/CMakeFiles/serial_nrf52840_xxAA_s140_6.0.0.dir/__/__/mesh/access/src/device_state_manager.c.obj
 .text.dsm_address_subscription_count_get
                0x00000000       0x80 examples/serial/CMakeFiles/serial_nrf52840_xxAA_s140_6.0.0.dir/__/__/mesh/access/src/device_state_manager.c.obj
 .text.dsm_subnet_handle_to_netkey_index
                0x00000000       0x34 examples/serial/CMakeFiles/serial_nrf52840_xxAA_s140_6.0.0.dir/__/__/mesh/access/src/device_state_manager.c.obj
 .text.dsm_devkey_handle_get
                0x00000000      0x110 examples/serial/CMakeFiles/serial_nrf52840_xxAA_s140_6.0.0.dir/__/__/mesh/access/src/device_state_manager.c.obj
 .text.dsm_beacon_info_get
                0x00000000       0x34 examples/serial/CMakeFiles/serial_nrf52840_xxAA_s140_6.0.0.dir/__/__/mesh/access/src/device_state_manager.c.obj
 .text          0x00000000        0x0 examples/serial/CMakeFiles/serial_nrf52840_xxAA_s140_6.0.0.dir/__/__/models/config/src/composition_data.c.obj
 .data          0x00000000        0x0 examples/serial/CMakeFiles/serial_nrf52840_xxAA_s140_6.0.0.dir/__/__/models/config/src/composition_data.c.obj
 .bss           0x00000000        0x0 examples/serial/CMakeFiles/serial_nrf52840_xxAA_s140_6.0.0.dir/__/__/models/config/src/composition_data.c.obj
 .text          0x00000000        0x0 examples/serial/CMakeFiles/serial_nrf52840_xxAA_s140_6.0.0.dir/__/__/models/config/src/config_server.c.obj
 .data          0x00000000        0x0 examples/serial/CMakeFiles/serial_nrf52840_xxAA_s140_6.0.0.dir/__/__/models/config/src/config_server.c.obj
 .bss           0x00000000        0x0 examples/serial/CMakeFiles/serial_nrf52840_xxAA_s140_6.0.0.dir/__/__/models/config/src/config_server.c.obj
 .text          0x00000000        0x0 examples/serial/CMakeFiles/serial_nrf52840_xxAA_s140_6.0.0.dir/__/__/models/config/src/packed_index_list.c.obj
 .data          0x00000000        0x0 examples/serial/CMakeFiles/serial_nrf52840_xxAA_s140_6.0.0.dir/__/__/models/config/src/packed_index_list.c.obj
 .bss           0x00000000        0x0 examples/serial/CMakeFiles/serial_nrf52840_xxAA_s140_6.0.0.dir/__/__/models/config/src/packed_index_list.c.obj
 .text          0x00000000        0x0 examples/serial/CMakeFiles/serial_nrf52840_xxAA_s140_6.0.0.dir/__/__/models/health/src/health_server.c.obj
 .data          0x00000000        0x0 examples/serial/CMakeFiles/serial_nrf52840_xxAA_s140_6.0.0.dir/__/__/models/health/src/health_server.c.obj
 .bss           0x00000000        0x0 examples/serial/CMakeFiles/serial_nrf52840_xxAA_s140_6.0.0.dir/__/__/models/health/src/health_server.c.obj
 .text.health_server_fault_register
                0x00000000      0x238 examples/serial/CMakeFiles/serial_nrf52840_xxAA_s140_6.0.0.dir/__/__/models/health/src/health_server.c.obj
 .text.health_server_fault_clear
                0x00000000      0x2f4 examples/serial/CMakeFiles/serial_nrf52840_xxAA_s140_6.0.0.dir/__/__/models/health/src/health_server.c.obj
 .text.health_server_fault_is_set
                0x00000000       0x1c examples/serial/CMakeFiles/serial_nrf52840_xxAA_s140_6.0.0.dir/__/__/models/health/src/health_server.c.obj
 .text.health_server_fault_count_get
                0x00000000      0x154 examples/serial/CMakeFiles/serial_nrf52840_xxAA_s140_6.0.0.dir/__/__/models/health/src/health_server.c.obj
 .text.health_server_attention_get
                0x00000000        0x8 examples/serial/CMakeFiles/serial_nrf52840_xxAA_s140_6.0.0.dir/__/__/models/health/src/health_server.c.obj
 .text.health_server_attention_set
                0x00000000       0x98 examples/serial/CMakeFiles/serial_nrf52840_xxAA_s140_6.0.0.dir/__/__/models/health/src/health_server.c.obj
 .text          0x00000000        0x0 examples/serial/CMakeFiles/serial_nrf52840_xxAA_s140_6.0.0.dir/__/__/mesh/serial/src/serial_uart.c.obj
 .data          0x00000000        0x0 examples/serial/CMakeFiles/serial_nrf52840_xxAA_s140_6.0.0.dir/__/__/mesh/serial/src/serial_uart.c.obj
 .bss           0x00000000        0x0 examples/serial/CMakeFiles/serial_nrf52840_xxAA_s140_6.0.0.dir/__/__/mesh/serial/src/serial_uart.c.obj
 .text          0x00000000        0x0 examples/serial/CMakeFiles/serial_nrf52840_xxAA_s140_6.0.0.dir/__/__/mesh/serial/src/serial_bearer.c.obj
 .data          0x00000000        0x0 examples/serial/CMakeFiles/serial_nrf52840_xxAA_s140_6.0.0.dir/__/__/mesh/serial/src/serial_bearer.c.obj
 .bss           0x00000000        0x0 examples/serial/CMakeFiles/serial_nrf52840_xxAA_s140_6.0.0.dir/__/__/mesh/serial/src/serial_bearer.c.obj
 .text.serial_bearer_packet_buffer_get
                0x00000000       0x28 examples/serial/CMakeFiles/serial_nrf52840_xxAA_s140_6.0.0.dir/__/__/mesh/serial/src/serial_bearer.c.obj
 .text.serial_bearer_rx_pending
                0x00000000        0xc examples/serial/CMakeFiles/serial_nrf52840_xxAA_s140_6.0.0.dir/__/__/mesh/serial/src/serial_bearer.c.obj
 .text          0x00000000        0x0 examples/serial/CMakeFiles/serial_nrf52840_xxAA_s140_6.0.0.dir/__/__/mesh/serial/src/serial_handler_common.c.obj
 .data          0x00000000        0x0 examples/serial/CMakeFiles/serial_nrf52840_xxAA_s140_6.0.0.dir/__/__/mesh/serial/src/serial_handler_common.c.obj
 .bss           0x00000000        0x0 examples/serial/CMakeFiles/serial_nrf52840_xxAA_s140_6.0.0.dir/__/__/mesh/serial/src/serial_handler_common.c.obj
 .text          0x00000000        0x0 examples/serial/CMakeFiles/serial_nrf52840_xxAA_s140_6.0.0.dir/__/__/mesh/serial/src/serial_handler_access.c.obj
 .data          0x00000000        0x0 examples/serial/CMakeFiles/serial_nrf52840_xxAA_s140_6.0.0.dir/__/__/mesh/serial/src/serial_handler_access.c.obj
 .bss           0x00000000        0x0 examples/serial/CMakeFiles/serial_nrf52840_xxAA_s140_6.0.0.dir/__/__/mesh/serial/src/serial_handler_access.c.obj
 .text          0x00000000        0x0 examples/serial/CMakeFiles/serial_nrf52840_xxAA_s140_6.0.0.dir/__/__/mesh/serial/src/serial_handler_config.c.obj
 .data          0x00000000        0x0 examples/serial/CMakeFiles/serial_nrf52840_xxAA_s140_6.0.0.dir/__/__/mesh/serial/src/serial_handler_config.c.obj
 .bss           0x00000000        0x0 examples/serial/CMakeFiles/serial_nrf52840_xxAA_s140_6.0.0.dir/__/__/mesh/serial/src/serial_handler_config.c.obj
 .text          0x00000000        0x0 examples/serial/CMakeFiles/serial_nrf52840_xxAA_s140_6.0.0.dir/__/__/mesh/serial/src/serial_handler_openmesh.c.obj
 .data          0x00000000        0x0 examples/serial/CMakeFiles/serial_nrf52840_xxAA_s140_6.0.0.dir/__/__/mesh/serial/src/serial_handler_openmesh.c.obj
 .bss           0x00000000        0x0 examples/serial/CMakeFiles/serial_nrf52840_xxAA_s140_6.0.0.dir/__/__/mesh/serial/src/serial_handler_openmesh.c.obj
 .text          0x00000000        0x0 examples/serial/CMakeFiles/serial_nrf52840_xxAA_s140_6.0.0.dir/__/__/mesh/serial/src/serial.c.obj
 .data          0x00000000        0x0 examples/serial/CMakeFiles/serial_nrf52840_xxAA_s140_6.0.0.dir/__/__/mesh/serial/src/serial.c.obj
 .bss           0x00000000        0x0 examples/serial/CMakeFiles/serial_nrf52840_xxAA_s140_6.0.0.dir/__/__/mesh/serial/src/serial.c.obj
 .text          0x00000000        0x0 examples/serial/CMakeFiles/serial_nrf52840_xxAA_s140_6.0.0.dir/__/__/mesh/serial/src/serial_handler_prov.c.obj
 .data          0x00000000        0x0 examples/serial/CMakeFiles/serial_nrf52840_xxAA_s140_6.0.0.dir/__/__/mesh/serial/src/serial_handler_prov.c.obj
 .bss           0x00000000        0x0 examples/serial/CMakeFiles/serial_nrf52840_xxAA_s140_6.0.0.dir/__/__/mesh/serial/src/serial_handler_prov.c.obj
 .text.serial_handler_prov_context_get
                0x00000000       0x1c examples/serial/CMakeFiles/serial_nrf52840_xxAA_s140_6.0.0.dir/__/__/mesh/serial/src/serial_handler_prov.c.obj
 .text.serial_handler_prov_keys_get
                0x00000000       0x14 examples/serial/CMakeFiles/serial_nrf52840_xxAA_s140_6.0.0.dir/__/__/mesh/serial/src/serial_handler_prov.c.obj
 .text.serial_handler_prov_oob_caps_get
                0x00000000        0xc examples/serial/CMakeFiles/serial_nrf52840_xxAA_s140_6.0.0.dir/__/__/mesh/serial/src/serial_handler_prov.c.obj
 .text          0x00000000        0x0 examples/serial/CMakeFiles/serial_nrf52840_xxAA_s140_6.0.0.dir/__/__/mesh/serial/src/serial_handler_dfu.c.obj
 .data          0x00000000        0x0 examples/serial/CMakeFiles/serial_nrf52840_xxAA_s140_6.0.0.dir/__/__/mesh/serial/src/serial_handler_dfu.c.obj
 .bss           0x00000000        0x0 examples/serial/CMakeFiles/serial_nrf52840_xxAA_s140_6.0.0.dir/__/__/mesh/serial/src/serial_handler_dfu.c.obj
 .text          0x00000000        0x0 examples/serial/CMakeFiles/serial_nrf52840_xxAA_s140_6.0.0.dir/__/__/mesh/serial/src/serial_handler_mesh.c.obj
 .data          0x00000000        0x0 examples/serial/CMakeFiles/serial_nrf52840_xxAA_s140_6.0.0.dir/__/__/mesh/serial/src/serial_handler_mesh.c.obj
 .bss           0x00000000        0x0 examples/serial/CMakeFiles/serial_nrf52840_xxAA_s140_6.0.0.dir/__/__/mesh/serial/src/serial_handler_mesh.c.obj
 .text          0x00000000        0x0 examples/serial/CMakeFiles/serial_nrf52840_xxAA_s140_6.0.0.dir/__/__/mesh/serial/src/serial_handler_models.c.obj
 .data          0x00000000        0x0 examples/serial/CMakeFiles/serial_nrf52840_xxAA_s140_6.0.0.dir/__/__/mesh/serial/src/serial_handler_models.c.obj
 .bss           0x00000000        0x0 examples/serial/CMakeFiles/serial_nrf52840_xxAA_s140_6.0.0.dir/__/__/mesh/serial/src/serial_handler_models.c.obj
 .text.serial_handler_models_register
                0x00000000       0x38 examples/serial/CMakeFiles/serial_nrf52840_xxAA_s140_6.0.0.dir/__/__/mesh/serial/src/serial_handler_models.c.obj
 .text          0x00000000        0x0 examples/serial/CMakeFiles/serial_nrf52840_xxAA_s140_6.0.0.dir/__/__/mesh/serial/src/serial_handler_device.c.obj
 .data          0x00000000        0x0 examples/serial/CMakeFiles/serial_nrf52840_xxAA_s140_6.0.0.dir/__/__/mesh/serial/src/serial_handler_device.c.obj
 .bss           0x00000000        0x0 examples/serial/CMakeFiles/serial_nrf52840_xxAA_s140_6.0.0.dir/__/__/mesh/serial/src/serial_handler_device.c.obj
 .text          0x00000000        0x0 examples/serial/CMakeFiles/serial_nrf52840_xxAA_s140_6.0.0.dir/__/__/mesh/serial/src/nrf_mesh_serial.c.obj
 .data          0x00000000        0x0 examples/serial/CMakeFiles/serial_nrf52840_xxAA_s140_6.0.0.dir/__/__/mesh/serial/src/nrf_mesh_serial.c.obj
 .bss           0x00000000        0x0 examples/serial/CMakeFiles/serial_nrf52840_xxAA_s140_6.0.0.dir/__/__/mesh/serial/src/nrf_mesh_serial.c.obj
 .text.nrf_mesh_serial_state_get
                0x00000000        0x4 examples/serial/CMakeFiles/serial_nrf52840_xxAA_s140_6.0.0.dir/__/__/mesh/serial/src/nrf_mesh_serial.c.obj
 .text.nrf_mesh_serial_tx
                0x00000000       0x58 examples/serial/CMakeFiles/serial_nrf52840_xxAA_s140_6.0.0.dir/__/__/mesh/serial/src/nrf_mesh_serial.c.obj
 .text          0x00000000        0x0 examples/serial/CMakeFiles/serial_nrf52840_xxAA_s140_6.0.0.dir/__/__/mesh/serial/src/serial_handler_app.c.obj
 .data          0x00000000        0x0 examples/serial/CMakeFiles/serial_nrf52840_xxAA_s140_6.0.0.dir/__/__/mesh/serial/src/serial_handler_app.c.obj
 .bss           0x00000000        0x0 examples/serial/CMakeFiles/serial_nrf52840_xxAA_s140_6.0.0.dir/__/__/mesh/serial/src/serial_handler_app.c.obj
 .text          0x00000000        0x0 examples/serial/CMakeFiles/serial_nrf52840_xxAA_s140_6.0.0.dir/__/nrf_mesh_weak.c.obj
 .data          0x00000000        0x0 examples/serial/CMakeFiles/serial_nrf52840_xxAA_s140_6.0.0.dir/__/nrf_mesh_weak.c.obj
 .bss           0x00000000        0x0 examples/serial/CMakeFiles/serial_nrf52840_xxAA_s140_6.0.0.dir/__/nrf_mesh_weak.c.obj
 .text._weak_handler_ptr
                0x00000000        0x4 examples/serial/CMakeFiles/serial_nrf52840_xxAA_s140_6.0.0.dir/__/nrf_mesh_weak.c.obj
 .text          0x00000000        0x0 examples/serial/CMakeFiles/serial_nrf52840_xxAA_s140_6.0.0.dir/__/common/src/app_error_weak.c.obj
 .data          0x00000000        0x0 examples/serial/CMakeFiles/serial_nrf52840_xxAA_s140_6.0.0.dir/__/common/src/app_error_weak.c.obj
 .bss           0x00000000        0x0 examples/serial/CMakeFiles/serial_nrf52840_xxAA_s140_6.0.0.dir/__/common/src/app_error_weak.c.obj
 .text          0x00000000        0x0 examples/serial/CMakeFiles/serial_nrf52840_xxAA_s140_6.0.0.dir/__/common/src/assertion_handler_weak.c.obj
 .data          0x00000000        0x0 examples/serial/CMakeFiles/serial_nrf52840_xxAA_s140_6.0.0.dir/__/common/src/assertion_handler_weak.c.obj
 .bss           0x00000000        0x0 examples/serial/CMakeFiles/serial_nrf52840_xxAA_s140_6.0.0.dir/__/common/src/assertion_handler_weak.c.obj
 .text          0x00000000        0x0 examples/serial/CMakeFiles/serial_nrf52840_xxAA_s140_6.0.0.dir/__/__/mesh/core/src/internal_event.c.obj
 .data          0x00000000        0x0 examples/serial/CMakeFiles/serial_nrf52840_xxAA_s140_6.0.0.dir/__/__/mesh/core/src/internal_event.c.obj
 .bss           0x00000000        0x0 examples/serial/CMakeFiles/serial_nrf52840_xxAA_s140_6.0.0.dir/__/__/mesh/core/src/internal_event.c.obj
 .comment       0x00000000       0x80 examples/serial/CMakeFiles/serial_nrf52840_xxAA_s140_6.0.0.dir/__/__/mesh/core/src/internal_event.c.obj
 .ARM.attributes
                0x00000000       0x39 examples/serial/CMakeFiles/serial_nrf52840_xxAA_s140_6.0.0.dir/__/__/mesh/core/src/internal_event.c.obj
 .text          0x00000000        0x0 examples/serial/CMakeFiles/serial_nrf52840_xxAA_s140_6.0.0.dir/__/__/mesh/core/src/nrf_mesh_configure.c.obj
 .data          0x00000000        0x0 examples/serial/CMakeFiles/serial_nrf52840_xxAA_s140_6.0.0.dir/__/__/mesh/core/src/nrf_mesh_configure.c.obj
 .bss           0x00000000        0x0 examples/serial/CMakeFiles/serial_nrf52840_xxAA_s140_6.0.0.dir/__/__/mesh/core/src/nrf_mesh_configure.c.obj
 .text          0x00000000        0x0 examples/serial/CMakeFiles/serial_nrf52840_xxAA_s140_6.0.0.dir/__/__/mesh/core/src/aes.c.obj
 .data          0x00000000        0x0 examples/serial/CMakeFiles/serial_nrf52840_xxAA_s140_6.0.0.dir/__/__/mesh/core/src/aes.c.obj
 .bss           0x00000000        0x0 examples/serial/CMakeFiles/serial_nrf52840_xxAA_s140_6.0.0.dir/__/__/mesh/core/src/aes.c.obj
 .text          0x00000000        0x0 examples/serial/CMakeFiles/serial_nrf52840_xxAA_s140_6.0.0.dir/__/__/mesh/core/src/msg_cache.c.obj
 .data          0x00000000        0x0 examples/serial/CMakeFiles/serial_nrf52840_xxAA_s140_6.0.0.dir/__/__/mesh/core/src/msg_cache.c.obj
 .bss           0x00000000        0x0 examples/serial/CMakeFiles/serial_nrf52840_xxAA_s140_6.0.0.dir/__/__/mesh/core/src/msg_cache.c.obj
 .text.msg_cache_clear
                0x00000000       0x18 examples/serial/CMakeFiles/serial_nrf52840_xxAA_s140_6.0.0.dir/__/__/mesh/core/src/msg_cache.c.obj
 .text          0x00000000        0x0 examples/serial/CMakeFiles/serial_nrf52840_xxAA_s140_6.0.0.dir/__/__/mesh/core/src/transport.c.obj
 .data          0x00000000        0x0 examples/serial/CMakeFiles/serial_nrf52840_xxAA_s140_6.0.0.dir/__/__/mesh/core/src/transport.c.obj
 .bss           0x00000000        0x0 examples/serial/CMakeFiles/serial_nrf52840_xxAA_s140_6.0.0.dir/__/__/mesh/core/src/transport.c.obj
 .text.transport_sar_mem_funcs_reset
                0x00000000       0x30 examples/serial/CMakeFiles/serial_nrf52840_xxAA_s140_6.0.0.dir/__/__/mesh/core/src/transport.c.obj
 .text.transport_sar_mem_funcs_set
                0x00000000       0x48 examples/serial/CMakeFiles/serial_nrf52840_xxAA_s140_6.0.0.dir/__/__/mesh/core/src/transport.c.obj
 .text          0x00000000        0x0 examples/serial/CMakeFiles/serial_nrf52840_xxAA_s140_6.0.0.dir/__/__/mesh/core/src/event.c.obj
 .data          0x00000000        0x0 examples/serial/CMakeFiles/serial_nrf52840_xxAA_s140_6.0.0.dir/__/__/mesh/core/src/event.c.obj
 .bss           0x00000000        0x0 examples/serial/CMakeFiles/serial_nrf52840_xxAA_s140_6.0.0.dir/__/__/mesh/core/src/event.c.obj
 .text          0x00000000        0x0 examples/serial/CMakeFiles/serial_nrf52840_xxAA_s140_6.0.0.dir/__/__/mesh/core/src/packet_buffer.c.obj
 .data          0x00000000        0x0 examples/serial/CMakeFiles/serial_nrf52840_xxAA_s140_6.0.0.dir/__/__/mesh/core/src/packet_buffer.c.obj
 .bss           0x00000000        0x0 examples/serial/CMakeFiles/serial_nrf52840_xxAA_s140_6.0.0.dir/__/__/mesh/core/src/packet_buffer.c.obj
 .text          0x00000000        0x0 examples/serial/CMakeFiles/serial_nrf52840_xxAA_s140_6.0.0.dir/__/__/mesh/core/src/flash_manager_defrag.c.obj
 .data          0x00000000        0x0 examples/serial/CMakeFiles/serial_nrf52840_xxAA_s140_6.0.0.dir/__/__/mesh/core/src/flash_manager_defrag.c.obj
 .bss           0x00000000        0x0 examples/serial/CMakeFiles/serial_nrf52840_xxAA_s140_6.0.0.dir/__/__/mesh/core/src/flash_manager_defrag.c.obj
 .text.erase_source
                0x00000000       0x34 examples/serial/CMakeFiles/serial_nrf52840_xxAA_s140_6.0.0.dir/__/__/mesh/core/src/flash_manager_defrag.c.obj
 .text.erase_recovery_area
                0x00000000       0x34 examples/serial/CMakeFiles/serial_nrf52840_xxAA_s140_6.0.0.dir/__/__/mesh/core/src/flash_manager_defrag.c.obj
 .text.write_back
                0x00000000       0x44 examples/serial/CMakeFiles/serial_nrf52840_xxAA_s140_6.0.0.dir/__/__/mesh/core/src/flash_manager_defrag.c.obj
 .text.write_defrag_start_pointer
                0x00000000       0x38 examples/serial/CMakeFiles/serial_nrf52840_xxAA_s140_6.0.0.dir/__/__/mesh/core/src/flash_manager_defrag.c.obj
 .text.copy_metadata
                0x00000000       0x58 examples/serial/CMakeFiles/serial_nrf52840_xxAA_s140_6.0.0.dir/__/__/mesh/core/src/flash_manager_defrag.c.obj
 .text.seal_storage_page
                0x00000000       0x70 examples/serial/CMakeFiles/serial_nrf52840_xxAA_s140_6.0.0.dir/__/__/mesh/core/src/flash_manager_defrag.c.obj
 .text.post_process
                0x00000000       0x64 examples/serial/CMakeFiles/serial_nrf52840_xxAA_s140_6.0.0.dir/__/__/mesh/core/src/flash_manager_defrag.c.obj
 .text.check_for_invalid_entries
                0x00000000       0x40 examples/serial/CMakeFiles/serial_nrf52840_xxAA_s140_6.0.0.dir/__/__/mesh/core/src/flash_manager_defrag.c.obj
 .text.execute_procedure_step
                0x00000000       0xa0 examples/serial/CMakeFiles/serial_nrf52840_xxAA_s140_6.0.0.dir/__/__/mesh/core/src/flash_manager_defrag.c.obj
 .text.on_flash_op_end
                0x00000000       0x4c examples/serial/CMakeFiles/serial_nrf52840_xxAA_s140_6.0.0.dir/__/__/mesh/core/src/flash_manager_defrag.c.obj
 .text.invalidate_duplicate_entries
                0x00000000      0x158 examples/serial/CMakeFiles/serial_nrf52840_xxAA_s140_6.0.0.dir/__/__/mesh/core/src/flash_manager_defrag.c.obj
 .text.backup_entries
                0x00000000      0x1c4 examples/serial/CMakeFiles/serial_nrf52840_xxAA_s140_6.0.0.dir/__/__/mesh/core/src/flash_manager_defrag.c.obj
 .text.flash_manager_defrag_init
                0x00000000       0x6c examples/serial/CMakeFiles/serial_nrf52840_xxAA_s140_6.0.0.dir/__/__/mesh/core/src/flash_manager_defrag.c.obj
 .text.flash_manager_defragging
                0x00000000       0x44 examples/serial/CMakeFiles/serial_nrf52840_xxAA_s140_6.0.0.dir/__/__/mesh/core/src/flash_manager_defrag.c.obj
 .text.flash_manager_defrag
                0x00000000       0x48 examples/serial/CMakeFiles/serial_nrf52840_xxAA_s140_6.0.0.dir/__/__/mesh/core/src/flash_manager_defrag.c.obj
 .text.flash_manager_defrag_recovery_page_get
                0x00000000        0xc examples/serial/CMakeFiles/serial_nrf52840_xxAA_s140_6.0.0.dir/__/__/mesh/core/src/flash_manager_defrag.c.obj
 .bss.m_token   0x00000000        0x2 examples/serial/CMakeFiles/serial_nrf52840_xxAA_s140_6.0.0.dir/__/__/mesh/core/src/flash_manager_defrag.c.obj
 .bss.mp_recovery_area
                0x00000000        0x4 examples/serial/CMakeFiles/serial_nrf52840_xxAA_s140_6.0.0.dir/__/__/mesh/core/src/flash_manager_defrag.c.obj
 .bss.p_null_ptr.10534
                0x00000000        0x4 examples/serial/CMakeFiles/serial_nrf52840_xxAA_s140_6.0.0.dir/__/__/mesh/core/src/flash_manager_defrag.c.obj
 .rodata.m_procedure_steps
                0x00000000       0x28 examples/serial/CMakeFiles/serial_nrf52840_xxAA_s140_6.0.0.dir/__/__/mesh/core/src/flash_manager_defrag.c.obj
 .text          0x00000000        0x0 examples/serial/CMakeFiles/serial_nrf52840_xxAA_s140_6.0.0.dir/__/__/mesh/core/src/fifo.c.obj
 .data          0x00000000        0x0 examples/serial/CMakeFiles/serial_nrf52840_xxAA_s140_6.0.0.dir/__/__/mesh/core/src/fifo.c.obj
 .bss           0x00000000        0x0 examples/serial/CMakeFiles/serial_nrf52840_xxAA_s140_6.0.0.dir/__/__/mesh/core/src/fifo.c.obj
 .text.fifo_peek_at
                0x00000000       0x54 examples/serial/CMakeFiles/serial_nrf52840_xxAA_s140_6.0.0.dir/__/__/mesh/core/src/fifo.c.obj
 .text.fifo_peek
                0x00000000       0x50 examples/serial/CMakeFiles/serial_nrf52840_xxAA_s140_6.0.0.dir/__/__/mesh/core/src/fifo.c.obj
 .text.fifo_flush
                0x00000000        0x8 examples/serial/CMakeFiles/serial_nrf52840_xxAA_s140_6.0.0.dir/__/__/mesh/core/src/fifo.c.obj
 .text.fifo_get_len
                0x00000000        0x8 examples/serial/CMakeFiles/serial_nrf52840_xxAA_s140_6.0.0.dir/__/__/mesh/core/src/fifo.c.obj
 .text.fifo_is_full
                0x00000000       0x14 examples/serial/CMakeFiles/serial_nrf52840_xxAA_s140_6.0.0.dir/__/__/mesh/core/src/fifo.c.obj
 .text.fifo_is_empty
                0x00000000       0x10 examples/serial/CMakeFiles/serial_nrf52840_xxAA_s140_6.0.0.dir/__/__/mesh/core/src/fifo.c.obj
 .text          0x00000000        0x0 examples/serial/CMakeFiles/serial_nrf52840_xxAA_s140_6.0.0.dir/__/__/mesh/core/src/nrf_flash.c.obj
 .data          0x00000000        0x0 examples/serial/CMakeFiles/serial_nrf52840_xxAA_s140_6.0.0.dir/__/__/mesh/core/src/nrf_flash.c.obj
 .bss           0x00000000        0x0 examples/serial/CMakeFiles/serial_nrf52840_xxAA_s140_6.0.0.dir/__/__/mesh/core/src/nrf_flash.c.obj
 .text.nrf_flash_erase
                0x00000000       0x5c examples/serial/CMakeFiles/serial_nrf52840_xxAA_s140_6.0.0.dir/__/__/mesh/core/src/nrf_flash.c.obj
 .text.nrf_flash_write
                0x00000000       0x6c examples/serial/CMakeFiles/serial_nrf52840_xxAA_s140_6.0.0.dir/__/__/mesh/core/src/nrf_flash.c.obj
 .comment       0x00000000       0x80 examples/serial/CMakeFiles/serial_nrf52840_xxAA_s140_6.0.0.dir/__/__/mesh/core/src/nrf_flash.c.obj
 .ARM.attributes
                0x00000000       0x39 examples/serial/CMakeFiles/serial_nrf52840_xxAA_s140_6.0.0.dir/__/__/mesh/core/src/nrf_flash.c.obj
 .text          0x00000000        0x0 examples/serial/CMakeFiles/serial_nrf52840_xxAA_s140_6.0.0.dir/__/__/mesh/core/src/packet_mgr.c.obj
 .data          0x00000000        0x0 examples/serial/CMakeFiles/serial_nrf52840_xxAA_s140_6.0.0.dir/__/__/mesh/core/src/packet_mgr.c.obj
 .bss           0x00000000        0x0 examples/serial/CMakeFiles/serial_nrf52840_xxAA_s140_6.0.0.dir/__/__/mesh/core/src/packet_mgr.c.obj
 .text.packet_mgr_alloc
                0x00000000      0x1a0 examples/serial/CMakeFiles/serial_nrf52840_xxAA_s140_6.0.0.dir/__/__/mesh/core/src/packet_mgr.c.obj
 .text.packet_mgr_free
                0x00000000       0x5c examples/serial/CMakeFiles/serial_nrf52840_xxAA_s140_6.0.0.dir/__/__/mesh/core/src/packet_mgr.c.obj
 .text.packet_mgr_get_free_space
                0x00000000       0x1c examples/serial/CMakeFiles/serial_nrf52840_xxAA_s140_6.0.0.dir/__/__/mesh/core/src/packet_mgr.c.obj
 .text.packet_mgr_refcount_get
                0x00000000        0x8 examples/serial/CMakeFiles/serial_nrf52840_xxAA_s140_6.0.0.dir/__/__/mesh/core/src/packet_mgr.c.obj
 .text.packet_mgr_size_get
                0x00000000        0x8 examples/serial/CMakeFiles/serial_nrf52840_xxAA_s140_6.0.0.dir/__/__/mesh/core/src/packet_mgr.c.obj
 .text          0x00000000        0x0 examples/serial/CMakeFiles/serial_nrf52840_xxAA_s140_6.0.0.dir/__/__/mesh/core/src/net_state.c.obj
 .data          0x00000000        0x0 examples/serial/CMakeFiles/serial_nrf52840_xxAA_s140_6.0.0.dir/__/__/mesh/core/src/net_state.c.obj
 .bss           0x00000000        0x0 examples/serial/CMakeFiles/serial_nrf52840_xxAA_s140_6.0.0.dir/__/__/mesh/core/src/net_state.c.obj
 .text.net_state_flash_area_get
                0x00000000        0x4 examples/serial/CMakeFiles/serial_nrf52840_xxAA_s140_6.0.0.dir/__/__/mesh/core/src/net_state.c.obj
 .text.net_state_iv_update_start
                0x00000000       0x60 examples/serial/CMakeFiles/serial_nrf52840_xxAA_s140_6.0.0.dir/__/__/mesh/core/src/net_state.c.obj
 .text.net_state_iv_update_test_mode_set
                0x00000000        0xc examples/serial/CMakeFiles/serial_nrf52840_xxAA_s140_6.0.0.dir/__/__/mesh/core/src/net_state.c.obj
 .text.net_state_test_mode_transition_run
                0x00000000       0xe0 examples/serial/CMakeFiles/serial_nrf52840_xxAA_s140_6.0.0.dir/__/__/mesh/core/src/net_state.c.obj
 .text          0x00000000        0x0 examples/serial/CMakeFiles/serial_nrf52840_xxAA_s140_6.0.0.dir/__/__/mesh/core/src/mesh_flash.c.obj
 .data          0x00000000        0x0 examples/serial/CMakeFiles/serial_nrf52840_xxAA_s140_6.0.0.dir/__/__/mesh/core/src/mesh_flash.c.obj
 .bss           0x00000000        0x0 examples/serial/CMakeFiles/serial_nrf52840_xxAA_s140_6.0.0.dir/__/__/mesh/core/src/mesh_flash.c.obj
 .text.flash_op_start
                0x00000000      0x224 examples/serial/CMakeFiles/serial_nrf52840_xxAA_s140_6.0.0.dir/__/__/mesh/core/src/mesh_flash.c.obj
 .text.mesh_flash_user_callback_set
                0x00000000       0x20 examples/serial/CMakeFiles/serial_nrf52840_xxAA_s140_6.0.0.dir/__/__/mesh/core/src/mesh_flash.c.obj
 .text.mesh_flash_op_push
                0x00000000      0x1a0 examples/serial/CMakeFiles/serial_nrf52840_xxAA_s140_6.0.0.dir/__/__/mesh/core/src/mesh_flash.c.obj
 .text.mesh_flash_op_available_slots
                0x00000000       0x2c examples/serial/CMakeFiles/serial_nrf52840_xxAA_s140_6.0.0.dir/__/__/mesh/core/src/mesh_flash.c.obj
 .text.mesh_flash_in_progress
                0x00000000       0x34 examples/serial/CMakeFiles/serial_nrf52840_xxAA_s140_6.0.0.dir/__/__/mesh/core/src/mesh_flash.c.obj
 .text.mesh_flash_set_suspended
                0x00000000      0x228 examples/serial/CMakeFiles/serial_nrf52840_xxAA_s140_6.0.0.dir/__/__/mesh/core/src/mesh_flash.c.obj
 .bss.m_suspended
                0x00000000        0x1 examples/serial/CMakeFiles/serial_nrf52840_xxAA_s140_6.0.0.dir/__/__/mesh/core/src/mesh_flash.c.obj
 .bss.suspend_count.10416
                0x00000000        0x4 examples/serial/CMakeFiles/serial_nrf52840_xxAA_s140_6.0.0.dir/__/__/mesh/core/src/mesh_flash.c.obj
 .text          0x00000000        0x0 examples/serial/CMakeFiles/serial_nrf52840_xxAA_s140_6.0.0.dir/__/__/mesh/core/src/nrf_mesh_utils.c.obj
 .data          0x00000000        0x0 examples/serial/CMakeFiles/serial_nrf52840_xxAA_s140_6.0.0.dir/__/__/mesh/core/src/nrf_mesh_utils.c.obj
 .bss           0x00000000        0x0 examples/serial/CMakeFiles/serial_nrf52840_xxAA_s140_6.0.0.dir/__/__/mesh/core/src/nrf_mesh_utils.c.obj
 .text.nrf_mesh_rand_get
                0x00000000       0x10 examples/serial/CMakeFiles/serial_nrf52840_xxAA_s140_6.0.0.dir/__/__/mesh/core/src/nrf_mesh_utils.c.obj
 .text.nrf_mesh_gap_address_type_get
                0x00000000       0x34 examples/serial/CMakeFiles/serial_nrf52840_xxAA_s140_6.0.0.dir/__/__/mesh/core/src/nrf_mesh_utils.c.obj
 .text          0x00000000        0x0 examples/serial/CMakeFiles/serial_nrf52840_xxAA_s140_6.0.0.dir/__/__/mesh/core/src/nrf_mesh.c.obj
 .data          0x00000000        0x0 examples/serial/CMakeFiles/serial_nrf52840_xxAA_s140_6.0.0.dir/__/__/mesh/core/src/nrf_mesh.c.obj
 .bss           0x00000000        0x0 examples/serial/CMakeFiles/serial_nrf52840_xxAA_s140_6.0.0.dir/__/__/mesh/core/src/nrf_mesh.c.obj
 .text.nrf_mesh_process
                0x00000000        0x4 examples/serial/CMakeFiles/serial_nrf52840_xxAA_s140_6.0.0.dir/__/__/mesh/core/src/nrf_mesh.c.obj
 .text.nrf_mesh_evt_handler_remove
                0x00000000        0x4 examples/serial/CMakeFiles/serial_nrf52840_xxAA_s140_6.0.0.dir/__/__/mesh/core/src/nrf_mesh.c.obj
 .text.nrf_mesh_rx_cb_set
                0x00000000        0xc examples/serial/CMakeFiles/serial_nrf52840_xxAA_s140_6.0.0.dir/__/__/mesh/core/src/nrf_mesh.c.obj
 .text.nrf_mesh_rx_cb_clear
                0x00000000        0xc examples/serial/CMakeFiles/serial_nrf52840_xxAA_s140_6.0.0.dir/__/__/mesh/core/src/nrf_mesh.c.obj
 .text          0x00000000        0x0 examples/serial/CMakeFiles/serial_nrf52840_xxAA_s140_6.0.0.dir/__/__/mesh/core/src/queue.c.obj
 .data          0x00000000        0x0 examples/serial/CMakeFiles/serial_nrf52840_xxAA_s140_6.0.0.dir/__/__/mesh/core/src/queue.c.obj
 .bss           0x00000000        0x0 examples/serial/CMakeFiles/serial_nrf52840_xxAA_s140_6.0.0.dir/__/__/mesh/core/src/queue.c.obj
 .text          0x00000000        0x0 examples/serial/CMakeFiles/serial_nrf52840_xxAA_s140_6.0.0.dir/__/__/mesh/core/src/hal.c.obj
 .data          0x00000000        0x0 examples/serial/CMakeFiles/serial_nrf52840_xxAA_s140_6.0.0.dir/__/__/mesh/core/src/hal.c.obj
 .bss           0x00000000        0x0 examples/serial/CMakeFiles/serial_nrf52840_xxAA_s140_6.0.0.dir/__/__/mesh/core/src/hal.c.obj
 .text          0x00000000        0x0 examples/serial/CMakeFiles/serial_nrf52840_xxAA_s140_6.0.0.dir/__/__/mesh/core/src/aes_cmac.c.obj
 .data          0x00000000        0x0 examples/serial/CMakeFiles/serial_nrf52840_xxAA_s140_6.0.0.dir/__/__/mesh/core/src/aes_cmac.c.obj
 .bss           0x00000000        0x0 examples/serial/CMakeFiles/serial_nrf52840_xxAA_s140_6.0.0.dir/__/__/mesh/core/src/aes_cmac.c.obj
 .text          0x00000000        0x0 examples/serial/CMakeFiles/serial_nrf52840_xxAA_s140_6.0.0.dir/__/__/mesh/core/src/timer_scheduler.c.obj
 .data          0x00000000        0x0 examples/serial/CMakeFiles/serial_nrf52840_xxAA_s140_6.0.0.dir/__/__/mesh/core/src/timer_scheduler.c.obj
 .bss           0x00000000        0x0 examples/serial/CMakeFiles/serial_nrf52840_xxAA_s140_6.0.0.dir/__/__/mesh/core/src/timer_scheduler.c.obj
 .text          0x00000000        0x0 examples/serial/CMakeFiles/serial_nrf52840_xxAA_s140_6.0.0.dir/__/__/mesh/core/src/timer.c.obj
 .data          0x00000000        0x0 examples/serial/CMakeFiles/serial_nrf52840_xxAA_s140_6.0.0.dir/__/__/mesh/core/src/timer.c.obj
 .bss           0x00000000        0x0 examples/serial/CMakeFiles/serial_nrf52840_xxAA_s140_6.0.0.dir/__/__/mesh/core/src/timer.c.obj
 .text.timer_order_cb_ppi
                0x00000000       0xd8 examples/serial/CMakeFiles/serial_nrf52840_xxAA_s140_6.0.0.dir/__/__/mesh/core/src/timer.c.obj
 .text.timer_order_ppi
                0x00000000       0xc8 examples/serial/CMakeFiles/serial_nrf52840_xxAA_s140_6.0.0.dir/__/__/mesh/core/src/timer.c.obj
 .text.timer_abort
                0x00000000       0x84 examples/serial/CMakeFiles/serial_nrf52840_xxAA_s140_6.0.0.dir/__/__/mesh/core/src/timer.c.obj
 .text          0x00000000        0x0 examples/serial/CMakeFiles/serial_nrf52840_xxAA_s140_6.0.0.dir/__/__/mesh/core/src/ticker.c.obj
 .data          0x00000000        0x0 examples/serial/CMakeFiles/serial_nrf52840_xxAA_s140_6.0.0.dir/__/__/mesh/core/src/ticker.c.obj
 .bss           0x00000000        0x0 examples/serial/CMakeFiles/serial_nrf52840_xxAA_s140_6.0.0.dir/__/__/mesh/core/src/ticker.c.obj
 .text.ticker_get
                0x00000000        0xc examples/serial/CMakeFiles/serial_nrf52840_xxAA_s140_6.0.0.dir/__/__/mesh/core/src/ticker.c.obj
 .text          0x00000000        0x0 examples/serial/CMakeFiles/serial_nrf52840_xxAA_s140_6.0.0.dir/__/__/mesh/core/src/rand.c.obj
 .data          0x00000000        0x0 examples/serial/CMakeFiles/serial_nrf52840_xxAA_s140_6.0.0.dir/__/__/mesh/core/src/rand.c.obj
 .bss           0x00000000        0x0 examples/serial/CMakeFiles/serial_nrf52840_xxAA_s140_6.0.0.dir/__/__/mesh/core/src/rand.c.obj
 .text          0x00000000        0x0 examples/serial/CMakeFiles/serial_nrf52840_xxAA_s140_6.0.0.dir/__/__/mesh/core/src/nrf_mesh_opt.c.obj
 .data          0x00000000        0x0 examples/serial/CMakeFiles/serial_nrf52840_xxAA_s140_6.0.0.dir/__/__/mesh/core/src/nrf_mesh_opt.c.obj
 .bss           0x00000000        0x0 examples/serial/CMakeFiles/serial_nrf52840_xxAA_s140_6.0.0.dir/__/__/mesh/core/src/nrf_mesh_opt.c.obj
 .text          0x00000000        0x0 examples/serial/CMakeFiles/serial_nrf52840_xxAA_s140_6.0.0.dir/__/__/mesh/core/src/timeslot.c.obj
 .data          0x00000000        0x0 examples/serial/CMakeFiles/serial_nrf52840_xxAA_s140_6.0.0.dir/__/__/mesh/core/src/timeslot.c.obj
 .bss           0x00000000        0x0 examples/serial/CMakeFiles/serial_nrf52840_xxAA_s140_6.0.0.dir/__/__/mesh/core/src/timeslot.c.obj
 .text.timeslot_restart
                0x00000000       0x30 examples/serial/CMakeFiles/serial_nrf52840_xxAA_s140_6.0.0.dir/__/__/mesh/core/src/timeslot.c.obj
 .text.timeslot_end_time_get
                0x00000000       0x30 examples/serial/CMakeFiles/serial_nrf52840_xxAA_s140_6.0.0.dir/__/__/mesh/core/src/timeslot.c.obj
 .text.timeslot_is_in_ts
                0x00000000        0xc examples/serial/CMakeFiles/serial_nrf52840_xxAA_s140_6.0.0.dir/__/__/mesh/core/src/timeslot.c.obj
 .text          0x00000000        0x0 examples/serial/CMakeFiles/serial_nrf52840_xxAA_s140_6.0.0.dir/__/__/mesh/core/src/bearer_event.c.obj
 .data          0x00000000        0x0 examples/serial/CMakeFiles/serial_nrf52840_xxAA_s140_6.0.0.dir/__/__/mesh/core/src/bearer_event.c.obj
 .bss           0x00000000        0x0 examples/serial/CMakeFiles/serial_nrf52840_xxAA_s140_6.0.0.dir/__/__/mesh/core/src/bearer_event.c.obj
 .text.bearer_event_timer_sch_post
                0x00000000       0x54 examples/serial/CMakeFiles/serial_nrf52840_xxAA_s140_6.0.0.dir/__/__/mesh/core/src/bearer_event.c.obj
 .text.bearer_event_in_correct_irq_priority
                0x00000000       0x54 examples/serial/CMakeFiles/serial_nrf52840_xxAA_s140_6.0.0.dir/__/__/mesh/core/src/bearer_event.c.obj
 .text          0x00000000        0x0 examples/serial/CMakeFiles/serial_nrf52840_xxAA_s140_6.0.0.dir/__/__/mesh/core/src/enc.c.obj
 .data          0x00000000        0x0 examples/serial/CMakeFiles/serial_nrf52840_xxAA_s140_6.0.0.dir/__/__/mesh/core/src/enc.c.obj
 .bss           0x00000000        0x0 examples/serial/CMakeFiles/serial_nrf52840_xxAA_s140_6.0.0.dir/__/__/mesh/core/src/enc.c.obj
 .text.enc_key_generate
                0x00000000        0x8 examples/serial/CMakeFiles/serial_nrf52840_xxAA_s140_6.0.0.dir/__/__/mesh/core/src/enc.c.obj
 .text          0x00000000        0x0 examples/serial/CMakeFiles/serial_nrf52840_xxAA_s140_6.0.0.dir/__/__/mesh/core/src/network.c.obj
 .data          0x00000000        0x0 examples/serial/CMakeFiles/serial_nrf52840_xxAA_s140_6.0.0.dir/__/__/mesh/core/src/network.c.obj
 .bss           0x00000000        0x0 examples/serial/CMakeFiles/serial_nrf52840_xxAA_s140_6.0.0.dir/__/__/mesh/core/src/network.c.obj
 .text.network_packet_discard
                0x00000000       0x28 examples/serial/CMakeFiles/serial_nrf52840_xxAA_s140_6.0.0.dir/__/__/mesh/core/src/network.c.obj
 .text          0x00000000        0x0 examples/serial/CMakeFiles/serial_nrf52840_xxAA_s140_6.0.0.dir/__/__/mesh/core/src/net_packet.c.obj
 .data          0x00000000        0x0 examples/serial/CMakeFiles/serial_nrf52840_xxAA_s140_6.0.0.dir/__/__/mesh/core/src/net_packet.c.obj
 .bss           0x00000000        0x0 examples/serial/CMakeFiles/serial_nrf52840_xxAA_s140_6.0.0.dir/__/__/mesh/core/src/net_packet.c.obj
 .text.net_packet_enc_start_get
                0x00000000        0x4 examples/serial/CMakeFiles/serial_nrf52840_xxAA_s140_6.0.0.dir/__/__/mesh/core/src/net_packet.c.obj
 .text.net_packet_payload_get
                0x00000000        0x4 examples/serial/CMakeFiles/serial_nrf52840_xxAA_s140_6.0.0.dir/__/__/mesh/core/src/net_packet.c.obj
 .text          0x00000000        0x0 examples/serial/CMakeFiles/serial_nrf52840_xxAA_s140_6.0.0.dir/__/__/mesh/core/src/msqueue.c.obj
 .data          0x00000000        0x0 examples/serial/CMakeFiles/serial_nrf52840_xxAA_s140_6.0.0.dir/__/__/mesh/core/src/msqueue.c.obj
 .bss           0x00000000        0x0 examples/serial/CMakeFiles/serial_nrf52840_xxAA_s140_6.0.0.dir/__/__/mesh/core/src/msqueue.c.obj
 .text.msq_reset
                0x00000000       0x24 examples/serial/CMakeFiles/serial_nrf52840_xxAA_s140_6.0.0.dir/__/__/mesh/core/src/msqueue.c.obj
 .text          0x00000000        0x0 examples/serial/CMakeFiles/serial_nrf52840_xxAA_s140_6.0.0.dir/__/__/mesh/core/src/nrf_mesh_keygen.c.obj
 .data          0x00000000        0x0 examples/serial/CMakeFiles/serial_nrf52840_xxAA_s140_6.0.0.dir/__/__/mesh/core/src/nrf_mesh_keygen.c.obj
 .bss           0x00000000        0x0 examples/serial/CMakeFiles/serial_nrf52840_xxAA_s140_6.0.0.dir/__/__/mesh/core/src/nrf_mesh_keygen.c.obj
 .text.nrf_mesh_keygen_identitykey
                0x00000000       0x4c examples/serial/CMakeFiles/serial_nrf52840_xxAA_s140_6.0.0.dir/__/__/mesh/core/src/nrf_mesh_keygen.c.obj
 .text          0x00000000        0x0 examples/serial/CMakeFiles/serial_nrf52840_xxAA_s140_6.0.0.dir/__/__/mesh/core/src/cache.c.obj
 .data          0x00000000        0x0 examples/serial/CMakeFiles/serial_nrf52840_xxAA_s140_6.0.0.dir/__/__/mesh/core/src/cache.c.obj
 .bss           0x00000000        0x0 examples/serial/CMakeFiles/serial_nrf52840_xxAA_s140_6.0.0.dir/__/__/mesh/core/src/cache.c.obj
 .text.cache_init
                0x00000000       0x44 examples/serial/CMakeFiles/serial_nrf52840_xxAA_s140_6.0.0.dir/__/__/mesh/core/src/cache.c.obj
 .text.cache_has_elem
                0x00000000       0x5c examples/serial/CMakeFiles/serial_nrf52840_xxAA_s140_6.0.0.dir/__/__/mesh/core/src/cache.c.obj
 .text.cache_put
                0x00000000       0x2c examples/serial/CMakeFiles/serial_nrf52840_xxAA_s140_6.0.0.dir/__/__/mesh/core/src/cache.c.obj
 .text.cache_erase_elem
                0x00000000       0x80 examples/serial/CMakeFiles/serial_nrf52840_xxAA_s140_6.0.0.dir/__/__/mesh/core/src/cache.c.obj
 .comment       0x00000000       0x80 examples/serial/CMakeFiles/serial_nrf52840_xxAA_s140_6.0.0.dir/__/__/mesh/core/src/cache.c.obj
 .ARM.attributes
                0x00000000       0x39 examples/serial/CMakeFiles/serial_nrf52840_xxAA_s140_6.0.0.dir/__/__/mesh/core/src/cache.c.obj
 .text          0x00000000        0x0 examples/serial/CMakeFiles/serial_nrf52840_xxAA_s140_6.0.0.dir/__/__/mesh/core/src/uri.c.obj
 .data          0x00000000        0x0 examples/serial/CMakeFiles/serial_nrf52840_xxAA_s140_6.0.0.dir/__/__/mesh/core/src/uri.c.obj
 .bss           0x00000000        0x0 examples/serial/CMakeFiles/serial_nrf52840_xxAA_s140_6.0.0.dir/__/__/mesh/core/src/uri.c.obj
 .text.uri_data_generate
                0x00000000       0x88 examples/serial/CMakeFiles/serial_nrf52840_xxAA_s140_6.0.0.dir/__/__/mesh/core/src/uri.c.obj
 .text.uri_data_parse
                0x00000000       0x80 examples/serial/CMakeFiles/serial_nrf52840_xxAA_s140_6.0.0.dir/__/__/mesh/core/src/uri.c.obj
 .text.uri_scheme_name_code_point
                0x00000000       0x5c examples/serial/CMakeFiles/serial_nrf52840_xxAA_s140_6.0.0.dir/__/__/mesh/core/src/uri.c.obj
 .text.uri_scheme_name_string
                0x00000000       0x14 examples/serial/CMakeFiles/serial_nrf52840_xxAA_s140_6.0.0.dir/__/__/mesh/core/src/uri.c.obj
 .rodata.m_code_point_strings
                0x00000000      0x2ec examples/serial/CMakeFiles/serial_nrf52840_xxAA_s140_6.0.0.dir/__/__/mesh/core/src/uri.c.obj
 .rodata.str1.4
                0x00000000      0x6ba examples/serial/CMakeFiles/serial_nrf52840_xxAA_s140_6.0.0.dir/__/__/mesh/core/src/uri.c.obj
 .comment       0x00000000       0x80 examples/serial/CMakeFiles/serial_nrf52840_xxAA_s140_6.0.0.dir/__/__/mesh/core/src/uri.c.obj
 .ARM.attributes
                0x00000000       0x39 examples/serial/CMakeFiles/serial_nrf52840_xxAA_s140_6.0.0.dir/__/__/mesh/core/src/uri.c.obj
 .text          0x00000000        0x0 examples/serial/CMakeFiles/serial_nrf52840_xxAA_s140_6.0.0.dir/__/__/mesh/core/src/list.c.obj
 .data          0x00000000        0x0 examples/serial/CMakeFiles/serial_nrf52840_xxAA_s140_6.0.0.dir/__/__/mesh/core/src/list.c.obj
 .bss           0x00000000        0x0 examples/serial/CMakeFiles/serial_nrf52840_xxAA_s140_6.0.0.dir/__/__/mesh/core/src/list.c.obj
 .text.list_size_get
                0x00000000       0x14 examples/serial/CMakeFiles/serial_nrf52840_xxAA_s140_6.0.0.dir/__/__/mesh/core/src/list.c.obj
 .text.list_sorted_add
                0x00000000       0x8c examples/serial/CMakeFiles/serial_nrf52840_xxAA_s140_6.0.0.dir/__/__/mesh/core/src/list.c.obj
 .text          0x00000000        0x0 examples/serial/CMakeFiles/serial_nrf52840_xxAA_s140_6.0.0.dir/__/__/mesh/core/src/log.c.obj
 .data          0x00000000        0x0 examples/serial/CMakeFiles/serial_nrf52840_xxAA_s140_6.0.0.dir/__/__/mesh/core/src/log.c.obj
 .bss           0x00000000        0x0 examples/serial/CMakeFiles/serial_nrf52840_xxAA_s140_6.0.0.dir/__/__/mesh/core/src/log.c.obj
 .text.log_callback_logview
                0x00000000       0x38 examples/serial/CMakeFiles/serial_nrf52840_xxAA_s140_6.0.0.dir/__/__/mesh/core/src/log.c.obj
 .text.log_set_callback
                0x00000000        0xc examples/serial/CMakeFiles/serial_nrf52840_xxAA_s140_6.0.0.dir/__/__/mesh/core/src/log.c.obj
 .text.log_vprintf
                0x00000000       0x18 examples/serial/CMakeFiles/serial_nrf52840_xxAA_s140_6.0.0.dir/__/__/mesh/core/src/log.c.obj
 .rodata.log_callback_logview.str1.4
                0x00000000       0x12 examples/serial/CMakeFiles/serial_nrf52840_xxAA_s140_6.0.0.dir/__/__/mesh/core/src/log.c.obj
 .text          0x00000000        0x0 examples/serial/CMakeFiles/serial_nrf52840_xxAA_s140_6.0.0.dir/__/__/mesh/core/src/flash_manager.c.obj
 .data          0x00000000        0x0 examples/serial/CMakeFiles/serial_nrf52840_xxAA_s140_6.0.0.dir/__/__/mesh/core/src/flash_manager.c.obj
 .bss           0x00000000        0x0 examples/serial/CMakeFiles/serial_nrf52840_xxAA_s140_6.0.0.dir/__/__/mesh/core/src/flash_manager.c.obj
 .text.process_action_queue
                0x00000000      0x644 examples/serial/CMakeFiles/serial_nrf52840_xxAA_s140_6.0.0.dir/__/__/mesh/core/src/flash_manager.c.obj
 .text.flash_op_ended_callback
                0x00000000       0x24 examples/serial/CMakeFiles/serial_nrf52840_xxAA_s140_6.0.0.dir/__/__/mesh/core/src/flash_manager.c.obj
 .text.flash_manager_init
                0x00000000       0x68 examples/serial/CMakeFiles/serial_nrf52840_xxAA_s140_6.0.0.dir/__/__/mesh/core/src/flash_manager.c.obj
 .text.flash_manager_remove
                0x00000000       0x6c examples/serial/CMakeFiles/serial_nrf52840_xxAA_s140_6.0.0.dir/__/__/mesh/core/src/flash_manager.c.obj
 .text.flash_manager_entry_get
                0x00000000       0x48 examples/serial/CMakeFiles/serial_nrf52840_xxAA_s140_6.0.0.dir/__/__/mesh/core/src/flash_manager.c.obj
 .text.flash_manager_entry_next_get
                0x00000000      0x148 examples/serial/CMakeFiles/serial_nrf52840_xxAA_s140_6.0.0.dir/__/__/mesh/core/src/flash_manager.c.obj
 .text.flash_manager_entry_count_get
                0x00000000       0xf4 examples/serial/CMakeFiles/serial_nrf52840_xxAA_s140_6.0.0.dir/__/__/mesh/core/src/flash_manager.c.obj
 .text.flash_manager_entry_alloc
                0x00000000       0x88 examples/serial/CMakeFiles/serial_nrf52840_xxAA_s140_6.0.0.dir/__/__/mesh/core/src/flash_manager.c.obj
 .text.flash_manager_entry_commit
                0x00000000       0x58 examples/serial/CMakeFiles/serial_nrf52840_xxAA_s140_6.0.0.dir/__/__/mesh/core/src/flash_manager.c.obj
 .text.flash_manager_entry_invalidate
                0x00000000       0x98 examples/serial/CMakeFiles/serial_nrf52840_xxAA_s140_6.0.0.dir/__/__/mesh/core/src/flash_manager.c.obj
 .text.flash_manager_add
                0x00000000      0x410 examples/serial/CMakeFiles/serial_nrf52840_xxAA_s140_6.0.0.dir/__/__/mesh/core/src/flash_manager.c.obj
 .text.flash_manager_entry_release
                0x00000000       0x74 examples/serial/CMakeFiles/serial_nrf52840_xxAA_s140_6.0.0.dir/__/__/mesh/core/src/flash_manager.c.obj
 .text.flash_manager_mem_listener_register
                0x00000000       0x34 examples/serial/CMakeFiles/serial_nrf52840_xxAA_s140_6.0.0.dir/__/__/mesh/core/src/flash_manager.c.obj
 .text.flash_manager_on_defrag_end
                0x00000000       0x58 examples/serial/CMakeFiles/serial_nrf52840_xxAA_s140_6.0.0.dir/__/__/mesh/core/src/flash_manager.c.obj
 .text.flash_manager_recovery_page_get
                0x00000000        0x4 examples/serial/CMakeFiles/serial_nrf52840_xxAA_s140_6.0.0.dir/__/__/mesh/core/src/flash_manager.c.obj
 .text.flash_manager_action_queue_empty_cb_set
                0x00000000       0x20 examples/serial/CMakeFiles/serial_nrf52840_xxAA_s140_6.0.0.dir/__/__/mesh/core/src/flash_manager.c.obj
 .bss.m_action_queue_buffer
                0x00000000      0x104 examples/serial/CMakeFiles/serial_nrf52840_xxAA_s140_6.0.0.dir/__/__/mesh/core/src/flash_manager.c.obj
 .bss.m_action_state
                0x00000000        0x1 examples/serial/CMakeFiles/serial_nrf52840_xxAA_s140_6.0.0.dir/__/__/mesh/core/src/flash_manager.c.obj
 .bss.m_memory_listener_queue
                0x00000000        0x8 examples/serial/CMakeFiles/serial_nrf52840_xxAA_s140_6.0.0.dir/__/__/mesh/core/src/flash_manager.c.obj
 .bss.m_processing_flag
                0x00000000        0x4 examples/serial/CMakeFiles/serial_nrf52840_xxAA_s140_6.0.0.dir/__/__/mesh/core/src/flash_manager.c.obj
 .bss.m_queue_empty_cb
                0x00000000        0x4 examples/serial/CMakeFiles/serial_nrf52840_xxAA_s140_6.0.0.dir/__/__/mesh/core/src/flash_manager.c.obj
 .bss.m_state   0x00000000        0x1 examples/serial/CMakeFiles/serial_nrf52840_xxAA_s140_6.0.0.dir/__/__/mesh/core/src/flash_manager.c.obj
 .bss.m_token   0x00000000        0x2 examples/serial/CMakeFiles/serial_nrf52840_xxAA_s140_6.0.0.dir/__/__/mesh/core/src/flash_manager.c.obj
 .bss.p_current.11442
                0x00000000        0x4 examples/serial/CMakeFiles/serial_nrf52840_xxAA_s140_6.0.0.dir/__/__/mesh/core/src/flash_manager.c.obj
 .bss.result.11443
                0x00000000        0x1 examples/serial/CMakeFiles/serial_nrf52840_xxAA_s140_6.0.0.dir/__/__/mesh/core/src/flash_manager.c.obj
 .rodata.INVALID_HEADER
                0x00000000        0x4 examples/serial/CMakeFiles/serial_nrf52840_xxAA_s140_6.0.0.dir/__/__/mesh/core/src/flash_manager.c.obj
 .rodata.PADDING_HEADER
                0x00000000        0x4 examples/serial/CMakeFiles/serial_nrf52840_xxAA_s140_6.0.0.dir/__/__/mesh/core/src/flash_manager.c.obj
 .rodata.SEAL_HEADER
                0x00000000        0x4 examples/serial/CMakeFiles/serial_nrf52840_xxAA_s140_6.0.0.dir/__/__/mesh/core/src/flash_manager.c.obj
 .text          0x00000000        0x0 examples/serial/CMakeFiles/serial_nrf52840_xxAA_s140_6.0.0.dir/__/__/mesh/core/src/ccm_soft.c.obj
 .data          0x00000000        0x0 examples/serial/CMakeFiles/serial_nrf52840_xxAA_s140_6.0.0.dir/__/__/mesh/core/src/ccm_soft.c.obj
 .bss           0x00000000        0x0 examples/serial/CMakeFiles/serial_nrf52840_xxAA_s140_6.0.0.dir/__/__/mesh/core/src/ccm_soft.c.obj
 .text          0x00000000        0x0 examples/serial/CMakeFiles/serial_nrf52840_xxAA_s140_6.0.0.dir/__/__/mesh/core/src/toolchain.c.obj
 .data          0x00000000        0x0 examples/serial/CMakeFiles/serial_nrf52840_xxAA_s140_6.0.0.dir/__/__/mesh/core/src/toolchain.c.obj
 .bss           0x00000000        0x0 examples/serial/CMakeFiles/serial_nrf52840_xxAA_s140_6.0.0.dir/__/__/mesh/core/src/toolchain.c.obj
 .comment       0x00000000       0x80 examples/serial/CMakeFiles/serial_nrf52840_xxAA_s140_6.0.0.dir/__/__/mesh/core/src/toolchain.c.obj
 .ARM.attributes
                0x00000000       0x39 examples/serial/CMakeFiles/serial_nrf52840_xxAA_s140_6.0.0.dir/__/__/mesh/core/src/toolchain.c.obj
 .text          0x00000000        0x0 examples/serial/CMakeFiles/serial_nrf52840_xxAA_s140_6.0.0.dir/__/__/mesh/core/src/replay_cache.c.obj
 .data          0x00000000        0x0 examples/serial/CMakeFiles/serial_nrf52840_xxAA_s140_6.0.0.dir/__/__/mesh/core/src/replay_cache.c.obj
 .bss           0x00000000        0x0 examples/serial/CMakeFiles/serial_nrf52840_xxAA_s140_6.0.0.dir/__/__/mesh/core/src/replay_cache.c.obj
 .text.replay_cache_on_iv_update
                0x00000000       0x2c examples/serial/CMakeFiles/serial_nrf52840_xxAA_s140_6.0.0.dir/__/__/mesh/core/src/replay_cache.c.obj
 .text.replay_cache_clear
                0x00000000       0x20 examples/serial/CMakeFiles/serial_nrf52840_xxAA_s140_6.0.0.dir/__/__/mesh/core/src/replay_cache.c.obj
 .text          0x00000000        0x0 examples/serial/CMakeFiles/serial_nrf52840_xxAA_s140_6.0.0.dir/__/__/mesh/core/src/beacon.c.obj
 .data          0x00000000        0x0 examples/serial/CMakeFiles/serial_nrf52840_xxAA_s140_6.0.0.dir/__/__/mesh/core/src/beacon.c.obj
 .bss           0x00000000        0x0 examples/serial/CMakeFiles/serial_nrf52840_xxAA_s140_6.0.0.dir/__/__/mesh/core/src/beacon.c.obj
 .text          0x00000000        0x0 examples/serial/CMakeFiles/serial_nrf52840_xxAA_s140_6.0.0.dir/__/__/mesh/core/src/flash_manager_internal.c.obj
 .data          0x00000000        0x0 examples/serial/CMakeFiles/serial_nrf52840_xxAA_s140_6.0.0.dir/__/__/mesh/core/src/flash_manager_internal.c.obj
 .bss           0x00000000        0x0 examples/serial/CMakeFiles/serial_nrf52840_xxAA_s140_6.0.0.dir/__/__/mesh/core/src/flash_manager_internal.c.obj
 .text.entry_get
                0x00000000       0x80 examples/serial/CMakeFiles/serial_nrf52840_xxAA_s140_6.0.0.dir/__/__/mesh/core/src/flash_manager_internal.c.obj
 .comment       0x00000000       0x80 examples/serial/CMakeFiles/serial_nrf52840_xxAA_s140_6.0.0.dir/__/__/mesh/core/src/flash_manager_internal.c.obj
 .ARM.attributes
                0x00000000       0x39 examples/serial/CMakeFiles/serial_nrf52840_xxAA_s140_6.0.0.dir/__/__/mesh/core/src/flash_manager_internal.c.obj
 .text          0x00000000        0x0 examples/serial/CMakeFiles/serial_nrf52840_xxAA_s140_6.0.0.dir/__/__/mesh/core/src/core_tx.c.obj
 .data          0x00000000        0x0 examples/serial/CMakeFiles/serial_nrf52840_xxAA_s140_6.0.0.dir/__/__/mesh/core/src/core_tx.c.obj
 .bss           0x00000000        0x0 examples/serial/CMakeFiles/serial_nrf52840_xxAA_s140_6.0.0.dir/__/__/mesh/core/src/core_tx.c.obj
 .text.core_tx_bearer_type_get
                0x00000000       0x2c examples/serial/CMakeFiles/serial_nrf52840_xxAA_s140_6.0.0.dir/__/__/mesh/core/src/core_tx.c.obj
 .text.core_tx_bearer_count_get
                0x00000000        0xc examples/serial/CMakeFiles/serial_nrf52840_xxAA_s140_6.0.0.dir/__/__/mesh/core/src/core_tx.c.obj
 .text          0x00000000        0x0 examples/serial/CMakeFiles/serial_nrf52840_xxAA_s140_6.0.0.dir/__/__/mesh/core/src/heartbeat.c.obj
 .data          0x00000000        0x0 examples/serial/CMakeFiles/serial_nrf52840_xxAA_s140_6.0.0.dir/__/__/mesh/core/src/heartbeat.c.obj
 .bss           0x00000000        0x0 examples/serial/CMakeFiles/serial_nrf52840_xxAA_s140_6.0.0.dir/__/__/mesh/core/src/heartbeat.c.obj
 .text          0x00000000        0x0 examples/serial/CMakeFiles/serial_nrf52840_xxAA_s140_6.0.0.dir/__/__/mesh/core/src/net_beacon.c.obj
 .data          0x00000000        0x0 examples/serial/CMakeFiles/serial_nrf52840_xxAA_s140_6.0.0.dir/__/__/mesh/core/src/net_beacon.c.obj
 .bss           0x00000000        0x0 examples/serial/CMakeFiles/serial_nrf52840_xxAA_s140_6.0.0.dir/__/__/mesh/core/src/net_beacon.c.obj
 .text.net_beacon_build
                0x00000000       0x68 examples/serial/CMakeFiles/serial_nrf52840_xxAA_s140_6.0.0.dir/__/__/mesh/core/src/net_beacon.c.obj
 .text          0x00000000        0x0 examples/serial/CMakeFiles/serial_nrf52840_xxAA_s140_6.0.0.dir/__/__/mesh/core/src/fsm.c.obj
 .data          0x00000000        0x0 examples/serial/CMakeFiles/serial_nrf52840_xxAA_s140_6.0.0.dir/__/__/mesh/core/src/fsm.c.obj
 .bss           0x00000000        0x0 examples/serial/CMakeFiles/serial_nrf52840_xxAA_s140_6.0.0.dir/__/__/mesh/core/src/fsm.c.obj
 .text.fsm_event_post_try
                0x00000000      0x238 examples/serial/CMakeFiles/serial_nrf52840_xxAA_s140_6.0.0.dir/__/__/mesh/core/src/fsm.c.obj
 .text.fsm_init
                0x00000000      0x100 examples/serial/CMakeFiles/serial_nrf52840_xxAA_s140_6.0.0.dir/__/__/mesh/core/src/fsm.c.obj
 .text.fsm_event_post
                0x00000000       0xbc examples/serial/CMakeFiles/serial_nrf52840_xxAA_s140_6.0.0.dir/__/__/mesh/core/src/fsm.c.obj
 .text.fsm_is_processing
                0x00000000        0xc examples/serial/CMakeFiles/serial_nrf52840_xxAA_s140_6.0.0.dir/__/__/mesh/core/src/fsm.c.obj
 .rodata.fsm_event_post.str1.4
                0x00000000        0xb examples/serial/CMakeFiles/serial_nrf52840_xxAA_s140_6.0.0.dir/__/__/mesh/core/src/fsm.c.obj
 .rodata.fsm_event_post_try.str1.4
                0x00000000       0x44 examples/serial/CMakeFiles/serial_nrf52840_xxAA_s140_6.0.0.dir/__/__/mesh/core/src/fsm.c.obj
 .rodata.fsm_init.str1.4
                0x00000000        0xa examples/serial/CMakeFiles/serial_nrf52840_xxAA_s140_6.0.0.dir/__/__/mesh/core/src/fsm.c.obj
 .comment       0x00000000       0x80 examples/serial/CMakeFiles/serial_nrf52840_xxAA_s140_6.0.0.dir/__/__/mesh/core/src/fsm.c.obj
 .ARM.attributes
                0x00000000       0x39 examples/serial/CMakeFiles/serial_nrf52840_xxAA_s140_6.0.0.dir/__/__/mesh/core/src/fsm.c.obj
 .text          0x00000000        0x0 examples/serial/CMakeFiles/serial_nrf52840_xxAA_s140_6.0.0.dir/__/__/mesh/core/src/core_tx_adv.c.obj
 .data          0x00000000        0x0 examples/serial/CMakeFiles/serial_nrf52840_xxAA_s140_6.0.0.dir/__/__/mesh/core/src/core_tx_adv.c.obj
 .bss           0x00000000        0x0 examples/serial/CMakeFiles/serial_nrf52840_xxAA_s140_6.0.0.dir/__/__/mesh/core/src/core_tx_adv.c.obj
 .text.core_tx_adv_address_set
                0x00000000       0x28 examples/serial/CMakeFiles/serial_nrf52840_xxAA_s140_6.0.0.dir/__/__/mesh/core/src/core_tx_adv.c.obj
 .text          0x00000000        0x0 examples/serial/CMakeFiles/serial_nrf52840_xxAA_s140_6.0.0.dir/__/__/mesh/bearer/src/ad_listener.c.obj
 .data          0x00000000        0x0 examples/serial/CMakeFiles/serial_nrf52840_xxAA_s140_6.0.0.dir/__/__/mesh/bearer/src/ad_listener.c.obj
 .bss           0x00000000        0x0 examples/serial/CMakeFiles/serial_nrf52840_xxAA_s140_6.0.0.dir/__/__/mesh/bearer/src/ad_listener.c.obj
 .text.ad_listener_unsubscribe
                0x00000000       0x7c examples/serial/CMakeFiles/serial_nrf52840_xxAA_s140_6.0.0.dir/__/__/mesh/bearer/src/ad_listener.c.obj
 .text          0x00000000        0x0 examples/serial/CMakeFiles/serial_nrf52840_xxAA_s140_6.0.0.dir/__/__/mesh/bearer/src/ad_type_filter.c.obj
 .data          0x00000000        0x0 examples/serial/CMakeFiles/serial_nrf52840_xxAA_s140_6.0.0.dir/__/__/mesh/bearer/src/ad_type_filter.c.obj
 .bss           0x00000000        0x0 examples/serial/CMakeFiles/serial_nrf52840_xxAA_s140_6.0.0.dir/__/__/mesh/bearer/src/ad_type_filter.c.obj
 .text.bearer_adtype_remove
                0x00000000       0x28 examples/serial/CMakeFiles/serial_nrf52840_xxAA_s140_6.0.0.dir/__/__/mesh/bearer/src/ad_type_filter.c.obj
 .text.bearer_adtype_clear
                0x00000000       0x10 examples/serial/CMakeFiles/serial_nrf52840_xxAA_s140_6.0.0.dir/__/__/mesh/bearer/src/ad_type_filter.c.obj
 .text.bearer_invalid_length_amount_get
                0x00000000        0xc examples/serial/CMakeFiles/serial_nrf52840_xxAA_s140_6.0.0.dir/__/__/mesh/bearer/src/ad_type_filter.c.obj
 .text.bearer_adtype_filtered_amount_get
                0x00000000        0xc examples/serial/CMakeFiles/serial_nrf52840_xxAA_s140_6.0.0.dir/__/__/mesh/bearer/src/ad_type_filter.c.obj
 .text          0x00000000        0x0 examples/serial/CMakeFiles/serial_nrf52840_xxAA_s140_6.0.0.dir/__/__/mesh/bearer/src/adv_packet_filter.c.obj
 .data          0x00000000        0x0 examples/serial/CMakeFiles/serial_nrf52840_xxAA_s140_6.0.0.dir/__/__/mesh/bearer/src/adv_packet_filter.c.obj
 .bss           0x00000000        0x0 examples/serial/CMakeFiles/serial_nrf52840_xxAA_s140_6.0.0.dir/__/__/mesh/bearer/src/adv_packet_filter.c.obj
 .text.adv_filter_handle
                0x00000000       0x40 examples/serial/CMakeFiles/serial_nrf52840_xxAA_s140_6.0.0.dir/__/__/mesh/bearer/src/adv_packet_filter.c.obj
 .text.bearer_adv_packet_filtering_set
                0x00000000       0x1c examples/serial/CMakeFiles/serial_nrf52840_xxAA_s140_6.0.0.dir/__/__/mesh/bearer/src/adv_packet_filter.c.obj
 .text.bearer_adv_packet_remove
                0x00000000       0x18 examples/serial/CMakeFiles/serial_nrf52840_xxAA_s140_6.0.0.dir/__/__/mesh/bearer/src/adv_packet_filter.c.obj
 .text.bearer_adv_packet_add
                0x00000000       0x14 examples/serial/CMakeFiles/serial_nrf52840_xxAA_s140_6.0.0.dir/__/__/mesh/bearer/src/adv_packet_filter.c.obj
 .text.bearer_adv_packet_clear
                0x00000000        0xc examples/serial/CMakeFiles/serial_nrf52840_xxAA_s140_6.0.0.dir/__/__/mesh/bearer/src/adv_packet_filter.c.obj
 .text.bearer_adv_packet_filter_mode_set
                0x00000000       0x18 examples/serial/CMakeFiles/serial_nrf52840_xxAA_s140_6.0.0.dir/__/__/mesh/bearer/src/adv_packet_filter.c.obj
 .text.bearer_adv_packet_filtered_amount_get
                0x00000000        0xc examples/serial/CMakeFiles/serial_nrf52840_xxAA_s140_6.0.0.dir/__/__/mesh/bearer/src/adv_packet_filter.c.obj
 .bss.m_adv_packet_filter
                0x00000000       0x14 examples/serial/CMakeFiles/serial_nrf52840_xxAA_s140_6.0.0.dir/__/__/mesh/bearer/src/adv_packet_filter.c.obj
 .comment       0x00000000       0x80 examples/serial/CMakeFiles/serial_nrf52840_xxAA_s140_6.0.0.dir/__/__/mesh/bearer/src/adv_packet_filter.c.obj
 .ARM.attributes
                0x00000000       0x39 examples/serial/CMakeFiles/serial_nrf52840_xxAA_s140_6.0.0.dir/__/__/mesh/bearer/src/adv_packet_filter.c.obj
 .text          0x00000000        0x0 examples/serial/CMakeFiles/serial_nrf52840_xxAA_s140_6.0.0.dir/__/__/mesh/bearer/src/advertiser.c.obj
 .data          0x00000000        0x0 examples/serial/CMakeFiles/serial_nrf52840_xxAA_s140_6.0.0.dir/__/__/mesh/bearer/src/advertiser.c.obj
 .bss           0x00000000        0x0 examples/serial/CMakeFiles/serial_nrf52840_xxAA_s140_6.0.0.dir/__/__/mesh/bearer/src/advertiser.c.obj
 .text.advertiser_disable
                0x00000000        0xc examples/serial/CMakeFiles/serial_nrf52840_xxAA_s140_6.0.0.dir/__/__/mesh/bearer/src/advertiser.c.obj
 .text.advertiser_config_set
                0x00000000      0x180 examples/serial/CMakeFiles/serial_nrf52840_xxAA_s140_6.0.0.dir/__/__/mesh/bearer/src/advertiser.c.obj
 .text.advertiser_address_set
                0x00000000       0x64 examples/serial/CMakeFiles/serial_nrf52840_xxAA_s140_6.0.0.dir/__/__/mesh/bearer/src/advertiser.c.obj
 .text.advertiser_config_get
                0x00000000       0x24 examples/serial/CMakeFiles/serial_nrf52840_xxAA_s140_6.0.0.dir/__/__/mesh/bearer/src/advertiser.c.obj
 .text          0x00000000        0x0 examples/serial/CMakeFiles/serial_nrf52840_xxAA_s140_6.0.0.dir/__/__/mesh/bearer/src/bearer_handler.c.obj
 .data          0x00000000        0x0 examples/serial/CMakeFiles/serial_nrf52840_xxAA_s140_6.0.0.dir/__/__/mesh/bearer/src/bearer_handler.c.obj
 .bss           0x00000000        0x0 examples/serial/CMakeFiles/serial_nrf52840_xxAA_s140_6.0.0.dir/__/__/mesh/bearer/src/bearer_handler.c.obj
 .text.bearer_handler_action_fire
                0x00000000       0x9c examples/serial/CMakeFiles/serial_nrf52840_xxAA_s140_6.0.0.dir/__/__/mesh/bearer/src/bearer_handler.c.obj
 .text          0x00000000        0x0 examples/serial/CMakeFiles/serial_nrf52840_xxAA_s140_6.0.0.dir/__/__/mesh/bearer/src/broadcast.c.obj
 .data          0x00000000        0x0 examples/serial/CMakeFiles/serial_nrf52840_xxAA_s140_6.0.0.dir/__/__/mesh/bearer/src/broadcast.c.obj
 .bss           0x00000000        0x0 examples/serial/CMakeFiles/serial_nrf52840_xxAA_s140_6.0.0.dir/__/__/mesh/bearer/src/broadcast.c.obj
 .text          0x00000000        0x0 examples/serial/CMakeFiles/serial_nrf52840_xxAA_s140_6.0.0.dir/__/__/mesh/bearer/src/filter_engine.c.obj
 .data          0x00000000        0x0 examples/serial/CMakeFiles/serial_nrf52840_xxAA_s140_6.0.0.dir/__/__/mesh/bearer/src/filter_engine.c.obj
 .bss           0x00000000        0x0 examples/serial/CMakeFiles/serial_nrf52840_xxAA_s140_6.0.0.dir/__/__/mesh/bearer/src/filter_engine.c.obj
 .text.fen_accepted_amount_get
                0x00000000        0xc examples/serial/CMakeFiles/serial_nrf52840_xxAA_s140_6.0.0.dir/__/__/mesh/bearer/src/filter_engine.c.obj
 .text          0x00000000        0x0 examples/serial/CMakeFiles/serial_nrf52840_xxAA_s140_6.0.0.dir/__/__/mesh/bearer/src/gap_address_filter.c.obj
 .data          0x00000000        0x0 examples/serial/CMakeFiles/serial_nrf52840_xxAA_s140_6.0.0.dir/__/__/mesh/bearer/src/gap_address_filter.c.obj
 .bss           0x00000000        0x0 examples/serial/CMakeFiles/serial_nrf52840_xxAA_s140_6.0.0.dir/__/__/mesh/bearer/src/gap_address_filter.c.obj
 .text.gap_address_filter_handle
                0x00000000       0xb4 examples/serial/CMakeFiles/serial_nrf52840_xxAA_s140_6.0.0.dir/__/__/mesh/bearer/src/gap_address_filter.c.obj
 .text.bearer_filter_gap_addr_whitelist_set
                0x00000000       0x48 examples/serial/CMakeFiles/serial_nrf52840_xxAA_s140_6.0.0.dir/__/__/mesh/bearer/src/gap_address_filter.c.obj
 .text.bearer_filter_gap_addr_blacklist_set
                0x00000000       0x4c examples/serial/CMakeFiles/serial_nrf52840_xxAA_s140_6.0.0.dir/__/__/mesh/bearer/src/gap_address_filter.c.obj
 .text.bearer_filter_gap_addr_range_set
                0x00000000       0x64 examples/serial/CMakeFiles/serial_nrf52840_xxAA_s140_6.0.0.dir/__/__/mesh/bearer/src/gap_address_filter.c.obj
 .text.bearer_filter_gap_addr_clear
                0x00000000       0x24 examples/serial/CMakeFiles/serial_nrf52840_xxAA_s140_6.0.0.dir/__/__/mesh/bearer/src/gap_address_filter.c.obj
 .text.bearer_gap_addr_filtered_amount_get
                0x00000000        0xc examples/serial/CMakeFiles/serial_nrf52840_xxAA_s140_6.0.0.dir/__/__/mesh/bearer/src/gap_address_filter.c.obj
 .bss.m_addr_filter
                0x00000000       0x18 examples/serial/CMakeFiles/serial_nrf52840_xxAA_s140_6.0.0.dir/__/__/mesh/bearer/src/gap_address_filter.c.obj
 .comment       0x00000000       0x80 examples/serial/CMakeFiles/serial_nrf52840_xxAA_s140_6.0.0.dir/__/__/mesh/bearer/src/gap_address_filter.c.obj
 .ARM.attributes
                0x00000000       0x39 examples/serial/CMakeFiles/serial_nrf52840_xxAA_s140_6.0.0.dir/__/__/mesh/bearer/src/gap_address_filter.c.obj
 .text          0x00000000        0x0 examples/serial/CMakeFiles/serial_nrf52840_xxAA_s140_6.0.0.dir/__/__/mesh/bearer/src/radio_config.c.obj
 .data          0x00000000        0x0 examples/serial/CMakeFiles/serial_nrf52840_xxAA_s140_6.0.0.dir/__/__/mesh/bearer/src/radio_config.c.obj
 .bss           0x00000000        0x0 examples/serial/CMakeFiles/serial_nrf52840_xxAA_s140_6.0.0.dir/__/__/mesh/bearer/src/radio_config.c.obj
 .text.radio_config_access_addr_get
                0x00000000       0x54 examples/serial/CMakeFiles/serial_nrf52840_xxAA_s140_6.0.0.dir/__/__/mesh/bearer/src/radio_config.c.obj
 .text          0x00000000        0x0 examples/serial/CMakeFiles/serial_nrf52840_xxAA_s140_6.0.0.dir/__/__/mesh/bearer/src/rssi_filter.c.obj
 .data          0x00000000        0x0 examples/serial/CMakeFiles/serial_nrf52840_xxAA_s140_6.0.0.dir/__/__/mesh/bearer/src/rssi_filter.c.obj
 .bss           0x00000000        0x0 examples/serial/CMakeFiles/serial_nrf52840_xxAA_s140_6.0.0.dir/__/__/mesh/bearer/src/rssi_filter.c.obj
 .text.rssi_filter_handle
                0x00000000       0x20 examples/serial/CMakeFiles/serial_nrf52840_xxAA_s140_6.0.0.dir/__/__/mesh/bearer/src/rssi_filter.c.obj
 .text.bearer_rssi_filtering_set
                0x00000000       0x34 examples/serial/CMakeFiles/serial_nrf52840_xxAA_s140_6.0.0.dir/__/__/mesh/bearer/src/rssi_filter.c.obj
 .text.bearer_rssi_filtered_amount_get
                0x00000000        0xc examples/serial/CMakeFiles/serial_nrf52840_xxAA_s140_6.0.0.dir/__/__/mesh/bearer/src/rssi_filter.c.obj
 .bss.m_rssi_filter
                0x00000000       0x18 examples/serial/CMakeFiles/serial_nrf52840_xxAA_s140_6.0.0.dir/__/__/mesh/bearer/src/rssi_filter.c.obj
 .comment       0x00000000       0x80 examples/serial/CMakeFiles/serial_nrf52840_xxAA_s140_6.0.0.dir/__/__/mesh/bearer/src/rssi_filter.c.obj
 .ARM.attributes
                0x00000000       0x39 examples/serial/CMakeFiles/serial_nrf52840_xxAA_s140_6.0.0.dir/__/__/mesh/bearer/src/rssi_filter.c.obj
 .text          0x00000000        0x0 examples/serial/CMakeFiles/serial_nrf52840_xxAA_s140_6.0.0.dir/__/__/mesh/bearer/src/scanner.c.obj
 .data          0x00000000        0x0 examples/serial/CMakeFiles/serial_nrf52840_xxAA_s140_6.0.0.dir/__/__/mesh/bearer/src/scanner.c.obj
 .bss           0x00000000        0x0 examples/serial/CMakeFiles/serial_nrf52840_xxAA_s140_6.0.0.dir/__/__/mesh/bearer/src/scanner.c.obj
 .text.scanner_rx_callback_set
                0x00000000       0x20 examples/serial/CMakeFiles/serial_nrf52840_xxAA_s140_6.0.0.dir/__/__/mesh/bearer/src/scanner.c.obj
 .text.scanner_is_enabled
                0x00000000       0x14 examples/serial/CMakeFiles/serial_nrf52840_xxAA_s140_6.0.0.dir/__/__/mesh/bearer/src/scanner.c.obj
 .text.scanner_stats_get
                0x00000000        0x8 examples/serial/CMakeFiles/serial_nrf52840_xxAA_s140_6.0.0.dir/__/__/mesh/bearer/src/scanner.c.obj
 .text.scanner_config_radio_mode_set
                0x00000000       0x10 examples/serial/CMakeFiles/serial_nrf52840_xxAA_s140_6.0.0.dir/__/__/mesh/bearer/src/scanner.c.obj
 .text.scanner_config_scan_time_set
                0x00000000       0x88 examples/serial/CMakeFiles/serial_nrf52840_xxAA_s140_6.0.0.dir/__/__/mesh/bearer/src/scanner.c.obj
 .text.scanner_config_channels_set
                0x00000000       0x50 examples/serial/CMakeFiles/serial_nrf52840_xxAA_s140_6.0.0.dir/__/__/mesh/bearer/src/scanner.c.obj
 .text.scanner_config_access_addresses_set
                0x00000000       0x38 examples/serial/CMakeFiles/serial_nrf52840_xxAA_s140_6.0.0.dir/__/__/mesh/bearer/src/scanner.c.obj
 .text          0x00000000        0x0 examples/serial/CMakeFiles/serial_nrf52840_xxAA_s140_6.0.0.dir/C_/ver/mod/nRF5_SDK_15.0.0_a53641a/modules/nrfx/mdk/system_nrf52840.c.obj
 .data          0x00000000        0x0 examples/serial/CMakeFiles/serial_nrf52840_xxAA_s140_6.0.0.dir/C_/ver/mod/nRF5_SDK_15.0.0_a53641a/modules/nrfx/mdk/system_nrf52840.c.obj
 .bss           0x00000000        0x0 examples/serial/CMakeFiles/serial_nrf52840_xxAA_s140_6.0.0.dir/C_/ver/mod/nRF5_SDK_15.0.0_a53641a/modules/nrfx/mdk/system_nrf52840.c.obj
 .text.SystemCoreClockUpdate
                0x00000000       0x10 examples/serial/CMakeFiles/serial_nrf52840_xxAA_s140_6.0.0.dir/C_/ver/mod/nRF5_SDK_15.0.0_a53641a/modules/nrfx/mdk/system_nrf52840.c.obj
 .data          0x00000000        0x0 examples/serial/CMakeFiles/serial_nrf52840_xxAA_s140_6.0.0.dir/C_/ver/mod/nRF5_SDK_15.0.0_a53641a/modules/nrfx/mdk/gcc_startup_nrf52840.S.obj
 .bss           0x00000000        0x0 examples/serial/CMakeFiles/serial_nrf52840_xxAA_s140_6.0.0.dir/C_/ver/mod/nRF5_SDK_15.0.0_a53641a/modules/nrfx/mdk/gcc_startup_nrf52840.S.obj
 .text          0x00000000        0x0 examples/serial/CMakeFiles/serial_nrf52840_xxAA_s140_6.0.0.dir/C_/ver/mod/nRF5_SDK_15.0.0_a53641a/components/libraries/util/app_error.c.obj
 .data          0x00000000        0x0 examples/serial/CMakeFiles/serial_nrf52840_xxAA_s140_6.0.0.dir/C_/ver/mod/nRF5_SDK_15.0.0_a53641a/components/libraries/util/app_error.c.obj
 .bss           0x00000000        0x0 examples/serial/CMakeFiles/serial_nrf52840_xxAA_s140_6.0.0.dir/C_/ver/mod/nRF5_SDK_15.0.0_a53641a/components/libraries/util/app_error.c.obj
 .text.app_error_save_and_stop
                0x00000000       0x64 examples/serial/CMakeFiles/serial_nrf52840_xxAA_s140_6.0.0.dir/C_/ver/mod/nRF5_SDK_15.0.0_a53641a/components/libraries/util/app_error.c.obj
 .bss.m_error_data.8119
                0x00000000       0x20 examples/serial/CMakeFiles/serial_nrf52840_xxAA_s140_6.0.0.dir/C_/ver/mod/nRF5_SDK_15.0.0_a53641a/components/libraries/util/app_error.c.obj
 .text          0x00000000        0x0 examples/serial/CMakeFiles/serial_nrf52840_xxAA_s140_6.0.0.dir/C_/ver/mod/nRF5_SDK_15.0.0_a53641a/components/libraries/util/app_error_handler_gcc.c.obj
 .data          0x00000000        0x0 examples/serial/CMakeFiles/serial_nrf52840_xxAA_s140_6.0.0.dir/C_/ver/mod/nRF5_SDK_15.0.0_a53641a/components/libraries/util/app_error_handler_gcc.c.obj
 .bss           0x00000000        0x0 examples/serial/CMakeFiles/serial_nrf52840_xxAA_s140_6.0.0.dir/C_/ver/mod/nRF5_SDK_15.0.0_a53641a/components/libraries/util/app_error_handler_gcc.c.obj
 .text          0x00000000        0x0 external/micro-ecc/libuECC_nrf52840_xxAA.a(uECC.c.obj)
 .data          0x00000000        0x0 external/micro-ecc/libuECC_nrf52840_xxAA.a(uECC.c.obj)
 .bss           0x00000000        0x0 external/micro-ecc/libuECC_nrf52840_xxAA.a(uECC.c.obj)
 .text.HMAC_finish
                0x00000000       0x70 external/micro-ecc/libuECC_nrf52840_xxAA.a(uECC.c.obj)
 .text.uECC_vli_mmod
                0x00000000      0x3c8 external/micro-ecc/libuECC_nrf52840_xxAA.a(uECC.c.obj)
 .text.uECC_vli_modSub.isra.2
                0x00000000       0x98 external/micro-ecc/libuECC_nrf52840_xxAA.a(uECC.c.obj)
 .text.bits2int
                0x00000000      0x14c external/micro-ecc/libuECC_nrf52840_xxAA.a(uECC.c.obj)
 .text.uECC_sign_with_k
                0x00000000      0x60c external/micro-ecc/libuECC_nrf52840_xxAA.a(uECC.c.obj)
 .text.uECC_set_rng
                0x00000000        0xc external/micro-ecc/libuECC_nrf52840_xxAA.a(uECC.c.obj)
 .text.uECC_get_rng
                0x00000000        0xc external/micro-ecc/libuECC_nrf52840_xxAA.a(uECC.c.obj)
 .text.uECC_curve_private_key_size
                0x00000000       0x10 external/micro-ecc/libuECC_nrf52840_xxAA.a(uECC.c.obj)
 .text.uECC_curve_public_key_size
                0x00000000        0x8 external/micro-ecc/libuECC_nrf52840_xxAA.a(uECC.c.obj)
 .text.uECC_compute_public_key
                0x00000000      0x2e4 external/micro-ecc/libuECC_nrf52840_xxAA.a(uECC.c.obj)
 .text.uECC_sign
                0x00000000       0x60 external/micro-ecc/libuECC_nrf52840_xxAA.a(uECC.c.obj)
 .text.uECC_sign_deterministic
                0x00000000      0x400 external/micro-ecc/libuECC_nrf52840_xxAA.a(uECC.c.obj)
 .text.uECC_verify
                0x00000000      0x95c external/micro-ecc/libuECC_nrf52840_xxAA.a(uECC.c.obj)
 .text          0x00000000        0x0 external/rtt/librtt_nrf52840_xxAA.a(SEGGER_RTT.c.obj)
 .data          0x00000000        0x0 external/rtt/librtt_nrf52840_xxAA.a(SEGGER_RTT.c.obj)
 .bss           0x00000000        0x0 external/rtt/librtt_nrf52840_xxAA.a(SEGGER_RTT.c.obj)
 .text.SEGGER_RTT_ReadNoLock
                0x00000000      0x100 external/rtt/librtt_nrf52840_xxAA.a(SEGGER_RTT.c.obj)
 .text.SEGGER_RTT_Read
                0x00000000      0x114 external/rtt/librtt_nrf52840_xxAA.a(SEGGER_RTT.c.obj)
 .text.SEGGER_RTT_WriteSkipNoLock
                0x00000000      0x184 external/rtt/librtt_nrf52840_xxAA.a(SEGGER_RTT.c.obj)
 .text.SEGGER_RTT_WriteNoLock
                0x00000000      0x188 external/rtt/librtt_nrf52840_xxAA.a(SEGGER_RTT.c.obj)
 .text.SEGGER_RTT_WriteString
                0x00000000      0x20c external/rtt/librtt_nrf52840_xxAA.a(SEGGER_RTT.c.obj)
 .text.SEGGER_RTT_GetKey
                0x00000000       0xec external/rtt/librtt_nrf52840_xxAA.a(SEGGER_RTT.c.obj)
 .text.SEGGER_RTT_WaitKey
                0x00000000      0x114 external/rtt/librtt_nrf52840_xxAA.a(SEGGER_RTT.c.obj)
 .text.SEGGER_RTT_HasKey
                0x00000000       0x6c external/rtt/librtt_nrf52840_xxAA.a(SEGGER_RTT.c.obj)
 .text.SEGGER_RTT_HasData
                0x00000000       0x18 external/rtt/librtt_nrf52840_xxAA.a(SEGGER_RTT.c.obj)
 .text.SEGGER_RTT_AllocDownBuffer
                0x00000000       0xbc external/rtt/librtt_nrf52840_xxAA.a(SEGGER_RTT.c.obj)
 .text.SEGGER_RTT_AllocUpBuffer
                0x00000000       0xd8 external/rtt/librtt_nrf52840_xxAA.a(SEGGER_RTT.c.obj)
 .text.SEGGER_RTT_ConfigUpBuffer
                0x00000000       0xd0 external/rtt/librtt_nrf52840_xxAA.a(SEGGER_RTT.c.obj)
 .text.SEGGER_RTT_ConfigDownBuffer
                0x00000000       0xb8 external/rtt/librtt_nrf52840_xxAA.a(SEGGER_RTT.c.obj)
 .text.SEGGER_RTT_SetNameUpBuffer
                0x00000000       0x90 external/rtt/librtt_nrf52840_xxAA.a(SEGGER_RTT.c.obj)
 .text.SEGGER_RTT_SetNameDownBuffer
                0x00000000       0x90 external/rtt/librtt_nrf52840_xxAA.a(SEGGER_RTT.c.obj)
 .text.SEGGER_RTT_Init
                0x00000000       0x60 external/rtt/librtt_nrf52840_xxAA.a(SEGGER_RTT.c.obj)
 .text.SEGGER_RTT_SetTerminal
                0x00000000      0x15c external/rtt/librtt_nrf52840_xxAA.a(SEGGER_RTT.c.obj)
 .text.SEGGER_RTT_TerminalOut
                0x00000000      0x40c external/rtt/librtt_nrf52840_xxAA.a(SEGGER_RTT.c.obj)
 .bss._ActiveTerminal
                0x00000000        0x1 external/rtt/librtt_nrf52840_xxAA.a(SEGGER_RTT.c.obj)
 .rodata._aTerminalId
                0x00000000       0x10 external/rtt/librtt_nrf52840_xxAA.a(SEGGER_RTT.c.obj)
 .text          0x00000000        0x0 external/rtt/librtt_nrf52840_xxAA.a(SEGGER_RTT_printf.c.obj)
 .data          0x00000000        0x0 external/rtt/librtt_nrf52840_xxAA.a(SEGGER_RTT_printf.c.obj)
 .bss           0x00000000        0x0 external/rtt/librtt_nrf52840_xxAA.a(SEGGER_RTT_printf.c.obj)
 .text          0x00000000        0x0 c:/mesh/arm_gcc/bin/../lib/gcc/arm-none-eabi/6.3.1/../../../../arm-none-eabi/lib/thumb/v7e-m/fpv4-sp/hard\libc_nano.a(lib_a-exit.o)
 .data          0x00000000        0x0 c:/mesh/arm_gcc/bin/../lib/gcc/arm-none-eabi/6.3.1/../../../../arm-none-eabi/lib/thumb/v7e-m/fpv4-sp/hard\libc_nano.a(lib_a-exit.o)
 .bss           0x00000000        0x0 c:/mesh/arm_gcc/bin/../lib/gcc/arm-none-eabi/6.3.1/../../../../arm-none-eabi/lib/thumb/v7e-m/fpv4-sp/hard\libc_nano.a(lib_a-exit.o)
 .text          0x00000000        0x0 c:/mesh/arm_gcc/bin/../lib/gcc/arm-none-eabi/6.3.1/../../../../arm-none-eabi/lib/thumb/v7e-m/fpv4-sp/hard\libc_nano.a(lib_a-impure.o)
 .data          0x00000000        0x0 c:/mesh/arm_gcc/bin/../lib/gcc/arm-none-eabi/6.3.1/../../../../arm-none-eabi/lib/thumb/v7e-m/fpv4-sp/hard\libc_nano.a(lib_a-impure.o)
 .bss           0x00000000        0x0 c:/mesh/arm_gcc/bin/../lib/gcc/arm-none-eabi/6.3.1/../../../../arm-none-eabi/lib/thumb/v7e-m/fpv4-sp/hard\libc_nano.a(lib_a-impure.o)
 .text          0x00000000        0x0 c:/mesh/arm_gcc/bin/../lib/gcc/arm-none-eabi/6.3.1/../../../../arm-none-eabi/lib/thumb/v7e-m/fpv4-sp/hard\libc_nano.a(lib_a-init.o)
 .data          0x00000000        0x0 c:/mesh/arm_gcc/bin/../lib/gcc/arm-none-eabi/6.3.1/../../../../arm-none-eabi/lib/thumb/v7e-m/fpv4-sp/hard\libc_nano.a(lib_a-init.o)
 .bss           0x00000000        0x0 c:/mesh/arm_gcc/bin/../lib/gcc/arm-none-eabi/6.3.1/../../../../arm-none-eabi/lib/thumb/v7e-m/fpv4-sp/hard\libc_nano.a(lib_a-init.o)
 .text          0x00000000        0x0 c:/mesh/arm_gcc/bin/../lib/gcc/arm-none-eabi/6.3.1/../../../../arm-none-eabi/lib/thumb/v7e-m/fpv4-sp/hard\libc_nano.a(lib_a-malloc.o)
 .data          0x00000000        0x0 c:/mesh/arm_gcc/bin/../lib/gcc/arm-none-eabi/6.3.1/../../../../arm-none-eabi/lib/thumb/v7e-m/fpv4-sp/hard\libc_nano.a(lib_a-malloc.o)
 .bss           0x00000000        0x0 c:/mesh/arm_gcc/bin/../lib/gcc/arm-none-eabi/6.3.1/../../../../arm-none-eabi/lib/thumb/v7e-m/fpv4-sp/hard\libc_nano.a(lib_a-malloc.o)
 .text          0x00000000        0x0 c:/mesh/arm_gcc/bin/../lib/gcc/arm-none-eabi/6.3.1/../../../../arm-none-eabi/lib/thumb/v7e-m/fpv4-sp/hard\libc_nano.a(lib_a-memcmp.o)
 .data          0x00000000        0x0 c:/mesh/arm_gcc/bin/../lib/gcc/arm-none-eabi/6.3.1/../../../../arm-none-eabi/lib/thumb/v7e-m/fpv4-sp/hard\libc_nano.a(lib_a-memcmp.o)
 .bss           0x00000000        0x0 c:/mesh/arm_gcc/bin/../lib/gcc/arm-none-eabi/6.3.1/../../../../arm-none-eabi/lib/thumb/v7e-m/fpv4-sp/hard\libc_nano.a(lib_a-memcmp.o)
 .text          0x00000000        0x0 c:/mesh/arm_gcc/bin/../lib/gcc/arm-none-eabi/6.3.1/../../../../arm-none-eabi/lib/thumb/v7e-m/fpv4-sp/hard\libc_nano.a(lib_a-memcpy-stub.o)
 .data          0x00000000        0x0 c:/mesh/arm_gcc/bin/../lib/gcc/arm-none-eabi/6.3.1/../../../../arm-none-eabi/lib/thumb/v7e-m/fpv4-sp/hard\libc_nano.a(lib_a-memcpy-stub.o)
 .bss           0x00000000        0x0 c:/mesh/arm_gcc/bin/../lib/gcc/arm-none-eabi/6.3.1/../../../../arm-none-eabi/lib/thumb/v7e-m/fpv4-sp/hard\libc_nano.a(lib_a-memcpy-stub.o)
 .text          0x00000000        0x0 c:/mesh/arm_gcc/bin/../lib/gcc/arm-none-eabi/6.3.1/../../../../arm-none-eabi/lib/thumb/v7e-m/fpv4-sp/hard\libc_nano.a(lib_a-memset.o)
 .data          0x00000000        0x0 c:/mesh/arm_gcc/bin/../lib/gcc/arm-none-eabi/6.3.1/../../../../arm-none-eabi/lib/thumb/v7e-m/fpv4-sp/hard\libc_nano.a(lib_a-memset.o)
 .bss           0x00000000        0x0 c:/mesh/arm_gcc/bin/../lib/gcc/arm-none-eabi/6.3.1/../../../../arm-none-eabi/lib/thumb/v7e-m/fpv4-sp/hard\libc_nano.a(lib_a-memset.o)
 .text          0x00000000        0x0 c:/mesh/arm_gcc/bin/../lib/gcc/arm-none-eabi/6.3.1/../../../../arm-none-eabi/lib/thumb/v7e-m/fpv4-sp/hard\libc_nano.a(lib_a-nano-freer.o)
 .data          0x00000000        0x0 c:/mesh/arm_gcc/bin/../lib/gcc/arm-none-eabi/6.3.1/../../../../arm-none-eabi/lib/thumb/v7e-m/fpv4-sp/hard\libc_nano.a(lib_a-nano-freer.o)
 .bss           0x00000000        0x0 c:/mesh/arm_gcc/bin/../lib/gcc/arm-none-eabi/6.3.1/../../../../arm-none-eabi/lib/thumb/v7e-m/fpv4-sp/hard\libc_nano.a(lib_a-nano-freer.o)
 .text          0x00000000        0x0 c:/mesh/arm_gcc/bin/../lib/gcc/arm-none-eabi/6.3.1/../../../../arm-none-eabi/lib/thumb/v7e-m/fpv4-sp/hard\libc_nano.a(lib_a-nano-mallocr.o)
 .data          0x00000000        0x0 c:/mesh/arm_gcc/bin/../lib/gcc/arm-none-eabi/6.3.1/../../../../arm-none-eabi/lib/thumb/v7e-m/fpv4-sp/hard\libc_nano.a(lib_a-nano-mallocr.o)
 .bss           0x00000000        0x0 c:/mesh/arm_gcc/bin/../lib/gcc/arm-none-eabi/6.3.1/../../../../arm-none-eabi/lib/thumb/v7e-m/fpv4-sp/hard\libc_nano.a(lib_a-nano-mallocr.o)
 .text          0x00000000        0x0 c:/mesh/arm_gcc/bin/../lib/gcc/arm-none-eabi/6.3.1/../../../../arm-none-eabi/lib/thumb/v7e-m/fpv4-sp/hard\libc_nano.a(lib_a-sbrkr.o)
 .data          0x00000000        0x0 c:/mesh/arm_gcc/bin/../lib/gcc/arm-none-eabi/6.3.1/../../../../arm-none-eabi/lib/thumb/v7e-m/fpv4-sp/hard\libc_nano.a(lib_a-sbrkr.o)
 .bss           0x00000000        0x0 c:/mesh/arm_gcc/bin/../lib/gcc/arm-none-eabi/6.3.1/../../../../arm-none-eabi/lib/thumb/v7e-m/fpv4-sp/hard\libc_nano.a(lib_a-sbrkr.o)
 .text          0x00000000        0x0 c:/mesh/arm_gcc/bin/../lib/gcc/arm-none-eabi/6.3.1/../../../../arm-none-eabi/lib/thumb/v7e-m/fpv4-sp/hard\libc_nano.a(lib_a-strcpy.o)
 .data          0x00000000        0x0 c:/mesh/arm_gcc/bin/../lib/gcc/arm-none-eabi/6.3.1/../../../../arm-none-eabi/lib/thumb/v7e-m/fpv4-sp/hard\libc_nano.a(lib_a-strcpy.o)
 .bss           0x00000000        0x0 c:/mesh/arm_gcc/bin/../lib/gcc/arm-none-eabi/6.3.1/../../../../arm-none-eabi/lib/thumb/v7e-m/fpv4-sp/hard\libc_nano.a(lib_a-strcpy.o)
 .data          0x00000000        0x0 c:/mesh/arm_gcc/bin/../lib/gcc/arm-none-eabi/6.3.1/../../../../arm-none-eabi/lib/thumb/v7e-m/fpv4-sp/hard\libc_nano.a(lib_a-strlen.o)
 .bss           0x00000000        0x0 c:/mesh/arm_gcc/bin/../lib/gcc/arm-none-eabi/6.3.1/../../../../arm-none-eabi/lib/thumb/v7e-m/fpv4-sp/hard\libc_nano.a(lib_a-strlen.o)
 .text          0x00000000        0x0 c:/mesh/arm_gcc/bin/../lib/gcc/arm-none-eabi/6.3.1/../../../../arm-none-eabi/lib/thumb/v7e-m/fpv4-sp/hard\libc_nano.a(lib_a-strrchr.o)
 .data          0x00000000        0x0 c:/mesh/arm_gcc/bin/../lib/gcc/arm-none-eabi/6.3.1/../../../../arm-none-eabi/lib/thumb/v7e-m/fpv4-sp/hard\libc_nano.a(lib_a-strrchr.o)
 .bss           0x00000000        0x0 c:/mesh/arm_gcc/bin/../lib/gcc/arm-none-eabi/6.3.1/../../../../arm-none-eabi/lib/thumb/v7e-m/fpv4-sp/hard\libc_nano.a(lib_a-strrchr.o)
 .text          0x00000000        0x0 c:/mesh/arm_gcc/bin/../lib/gcc/arm-none-eabi/6.3.1/../../../../arm-none-eabi/lib/thumb/v7e-m/fpv4-sp/hard\libc_nano.a(lib_a-mlock.o)
 .data          0x00000000        0x0 c:/mesh/arm_gcc/bin/../lib/gcc/arm-none-eabi/6.3.1/../../../../arm-none-eabi/lib/thumb/v7e-m/fpv4-sp/hard\libc_nano.a(lib_a-mlock.o)
 .bss           0x00000000        0x0 c:/mesh/arm_gcc/bin/../lib/gcc/arm-none-eabi/6.3.1/../../../../arm-none-eabi/lib/thumb/v7e-m/fpv4-sp/hard\libc_nano.a(lib_a-mlock.o)
 .text          0x00000000        0x0 c:/mesh/arm_gcc/bin/../lib/gcc/arm-none-eabi/6.3.1/../../../../arm-none-eabi/lib/thumb/v7e-m/fpv4-sp/hard\libc_nano.a(lib_a-reent.o)
 .data          0x00000000        0x0 c:/mesh/arm_gcc/bin/../lib/gcc/arm-none-eabi/6.3.1/../../../../arm-none-eabi/lib/thumb/v7e-m/fpv4-sp/hard\libc_nano.a(lib_a-reent.o)
 .bss           0x00000000        0x0 c:/mesh/arm_gcc/bin/../lib/gcc/arm-none-eabi/6.3.1/../../../../arm-none-eabi/lib/thumb/v7e-m/fpv4-sp/hard\libc_nano.a(lib_a-reent.o)
 .text.cleanup_glue
                0x00000000       0x1a c:/mesh/arm_gcc/bin/../lib/gcc/arm-none-eabi/6.3.1/../../../../arm-none-eabi/lib/thumb/v7e-m/fpv4-sp/hard\libc_nano.a(lib_a-reent.o)
 .text._reclaim_reent
                0x00000000       0xb8 c:/mesh/arm_gcc/bin/../lib/gcc/arm-none-eabi/6.3.1/../../../../arm-none-eabi/lib/thumb/v7e-m/fpv4-sp/hard\libc_nano.a(lib_a-reent.o)
 .text          0x00000000        0x0 c:/mesh/arm_gcc/bin/../lib/gcc/arm-none-eabi/6.3.1/../../../../arm-none-eabi/lib/thumb/v7e-m/fpv4-sp/hard\libc_nano.a(lib_a-strchr.o)
 .data          0x00000000        0x0 c:/mesh/arm_gcc/bin/../lib/gcc/arm-none-eabi/6.3.1/../../../../arm-none-eabi/lib/thumb/v7e-m/fpv4-sp/hard\libc_nano.a(lib_a-strchr.o)
 .bss           0x00000000        0x0 c:/mesh/arm_gcc/bin/../lib/gcc/arm-none-eabi/6.3.1/../../../../arm-none-eabi/lib/thumb/v7e-m/fpv4-sp/hard\libc_nano.a(lib_a-strchr.o)
 .text          0x00000000        0x0 c:/mesh/arm_gcc/bin/../lib/gcc/arm-none-eabi/6.3.1/thumb/v7e-m/fpv4-sp/hard/crtend.o
 .data          0x00000000        0x0 c:/mesh/arm_gcc/bin/../lib/gcc/arm-none-eabi/6.3.1/thumb/v7e-m/fpv4-sp/hard/crtend.o
 .bss           0x00000000        0x0 c:/mesh/arm_gcc/bin/../lib/gcc/arm-none-eabi/6.3.1/thumb/v7e-m/fpv4-sp/hard/crtend.o
 .text          0x00000000        0x0 c:/mesh/arm_gcc/bin/../lib/gcc/arm-none-eabi/6.3.1/thumb/v7e-m/fpv4-sp/hard/crtn.o
 .data          0x00000000        0x0 c:/mesh/arm_gcc/bin/../lib/gcc/arm-none-eabi/6.3.1/thumb/v7e-m/fpv4-sp/hard/crtn.o
 .bss           0x00000000        0x0 c:/mesh/arm_gcc/bin/../lib/gcc/arm-none-eabi/6.3.1/thumb/v7e-m/fpv4-sp/hard/crtn.o
 .text          0x00000000        0x0 c:/mesh/arm_gcc/bin/../lib/gcc/arm-none-eabi/6.3.1/../../../../arm-none-eabi/lib/thumb/v7e-m/fpv4-sp/hard\libnosys.a(sbrk.o)
 .data          0x00000000        0x0 c:/mesh/arm_gcc/bin/../lib/gcc/arm-none-eabi/6.3.1/../../../../arm-none-eabi/lib/thumb/v7e-m/fpv4-sp/hard\libnosys.a(sbrk.o)
 .bss           0x00000000        0x0 c:/mesh/arm_gcc/bin/../lib/gcc/arm-none-eabi/6.3.1/../../../../arm-none-eabi/lib/thumb/v7e-m/fpv4-sp/hard\libnosys.a(sbrk.o)
 .text          0x00000000        0x0 c:/mesh/arm_gcc/bin/../lib/gcc/arm-none-eabi/6.3.1/../../../../arm-none-eabi/lib/thumb/v7e-m/fpv4-sp/hard\libnosys.a(_exit.o)
 .data          0x00000000        0x0 c:/mesh/arm_gcc/bin/../lib/gcc/arm-none-eabi/6.3.1/../../../../arm-none-eabi/lib/thumb/v7e-m/fpv4-sp/hard\libnosys.a(_exit.o)
 .bss           0x00000000        0x0 c:/mesh/arm_gcc/bin/../lib/gcc/arm-none-eabi/6.3.1/../../../../arm-none-eabi/lib/thumb/v7e-m/fpv4-sp/hard\libnosys.a(_exit.o)

Memory Configuration

Name             Origin             Length             Attributes
FLASH            0x00026000         0x000d1000         xr
RAM              0x200032c8         0x0003ca38         xrw
*default*        0x00000000         0xffffffff

Linker script and memory map


.text           0x00026000    0x1c6ac
 *(.isr_vector)
 .isr_vector    0x00026000      0x200 examples/serial/CMakeFiles/serial_nrf52840_xxAA_s140_6.0.0.dir/C_/ver/mod/nRF5_SDK_15.0.0_a53641a/modules/nrfx/mdk/gcc_startup_nrf52840.S.obj
                0x00026000                __isr_vector
 *(.text*)
 .text          0x00026200       0x6c c:/mesh/arm_gcc/bin/../lib/gcc/arm-none-eabi/6.3.1/thumb/v7e-m/fpv4-sp/hard/crtbegin.o
 .text          0x0002626c       0x74 c:/mesh/arm_gcc/bin/../lib/gcc/arm-none-eabi/6.3.1/../../../../arm-none-eabi/lib/thumb/v7e-m/fpv4-sp/hard/crt0.o
                0x0002626c                _start
                0x0002626c                _mainCRTStartup
 .text.sd_app_evt_wait
                0x000262e0        0x4 examples/serial/CMakeFiles/serial_nrf52840_xxAA_s140_6.0.0.dir/src/main.c.obj
 .text.startup.main
                0x000262e4      0x330 examples/serial/CMakeFiles/serial_nrf52840_xxAA_s140_6.0.0.dir/src/main.c.obj
                0x000262e4                main
 .text.mesh_stack_init
                0x00026614       0x94 examples/serial/CMakeFiles/serial_nrf52840_xxAA_s140_6.0.0.dir/__/__/mesh/stack/src/mesh_stack.c.obj
                0x00026614                mesh_stack_init
 .text.mesh_stack_start
                0x000266a8        0x4 examples/serial/CMakeFiles/serial_nrf52840_xxAA_s140_6.0.0.dir/__/__/mesh/stack/src/mesh_stack.c.obj
                0x000266a8                mesh_stack_start
 .text.mesh_stack_provisioning_data_store
                0x000266ac       0x78 examples/serial/CMakeFiles/serial_nrf52840_xxAA_s140_6.0.0.dir/__/__/mesh/stack/src/mesh_stack.c.obj
                0x000266ac                mesh_stack_provisioning_data_store
 .text.mesh_stack_config_clear
                0x00026724       0x14 examples/serial/CMakeFiles/serial_nrf52840_xxAA_s140_6.0.0.dir/__/__/mesh/stack/src/mesh_stack.c.obj
                0x00026724                mesh_stack_config_clear
 .text.sd_evt_get
                0x00026738        0x4 examples/serial/CMakeFiles/serial_nrf52840_xxAA_s140_6.0.0.dir/__/common/src/mesh_softdevice_init.c.obj
 .text.sd_softdevice_enable
                0x0002673c        0x4 examples/serial/CMakeFiles/serial_nrf52840_xxAA_s140_6.0.0.dir/__/common/src/mesh_softdevice_init.c.obj
 .text.sd_ble_enable
                0x00026740        0x4 examples/serial/CMakeFiles/serial_nrf52840_xxAA_s140_6.0.0.dir/__/common/src/mesh_softdevice_init.c.obj
 .text.SWI2_EGU2_IRQHandler
                0x00026744       0x1c examples/serial/CMakeFiles/serial_nrf52840_xxAA_s140_6.0.0.dir/__/common/src/mesh_softdevice_init.c.obj
                0x00026744                SWI2_EGU2_IRQHandler
 .text.mesh_softdevice_init
                0x00026760      0x1f8 examples/serial/CMakeFiles/serial_nrf52840_xxAA_s140_6.0.0.dir/__/common/src/mesh_softdevice_init.c.obj
                0x00026760                mesh_softdevice_init
 .text.prov_evt_handler
                0x00026958       0x70 examples/serial/CMakeFiles/serial_nrf52840_xxAA_s140_6.0.0.dir/__/common/src/mesh_provisionee.c.obj
 .text.mesh_provisionee_prov_start
                0x000269c8       0x88 examples/serial/CMakeFiles/serial_nrf52840_xxAA_s140_6.0.0.dir/__/common/src/mesh_provisionee.c.obj
                0x000269c8                mesh_provisionee_prov_start
 .text.hal_led_mask_set
                0x00026a50       0x14 examples/serial/CMakeFiles/serial_nrf52840_xxAA_s140_6.0.0.dir/__/common/src/simple_hal.c.obj
                0x00026a50                hal_led_mask_set
 .text.hal_led_blink_ms
                0x00026a64       0x4c examples/serial/CMakeFiles/serial_nrf52840_xxAA_s140_6.0.0.dir/__/common/src/simple_hal.c.obj
                0x00026a64                hal_led_blink_ms
 .text.hal_leds_init
                0x00026ab0       0x3c examples/serial/CMakeFiles/serial_nrf52840_xxAA_s140_6.0.0.dir/__/common/src/simple_hal.c.obj
                0x00026ab0                hal_leds_init
 .text.GPIOTE_IRQHandler
                0x00026aec      0x114 examples/serial/CMakeFiles/serial_nrf52840_xxAA_s140_6.0.0.dir/__/common/src/simple_hal.c.obj
                0x00026aec                GPIOTE_IRQHandler
 .text.prov_provisioner_cb_link_closed
                0x00026c00       0x2c examples/serial/CMakeFiles/serial_nrf52840_xxAA_s140_6.0.0.dir/__/__/mesh/prov/src/prov_provisioner.c.obj
 .text.prov_provisioner_cb_link_established
                0x00026c2c       0x44 examples/serial/CMakeFiles/serial_nrf52840_xxAA_s140_6.0.0.dir/__/__/mesh/prov/src/prov_provisioner.c.obj
 .text.request_authentication
                0x00026c70       0xa8 examples/serial/CMakeFiles/serial_nrf52840_xxAA_s140_6.0.0.dir/__/__/mesh/prov/src/prov_provisioner.c.obj
 .text.prov_provisioner_cb_ack_received
                0x00026d18       0x90 examples/serial/CMakeFiles/serial_nrf52840_xxAA_s140_6.0.0.dir/__/__/mesh/prov/src/prov_provisioner.c.obj
 .text.prov_provisioner_pkt_in
                0x00026da8      0x294 examples/serial/CMakeFiles/serial_nrf52840_xxAA_s140_6.0.0.dir/__/__/mesh/prov/src/prov_provisioner.c.obj
 .text.prov_provisioner_provision
                0x0002703c       0x48 examples/serial/CMakeFiles/serial_nrf52840_xxAA_s140_6.0.0.dir/__/__/mesh/prov/src/prov_provisioner.c.obj
                0x0002703c                prov_provisioner_provision
 .text.prov_provisioner_oob_use
                0x00027084       0xbc examples/serial/CMakeFiles/serial_nrf52840_xxAA_s140_6.0.0.dir/__/__/mesh/prov/src/prov_provisioner.c.obj
                0x00027084                prov_provisioner_oob_use
 .text.prov_provisioner_auth_data
                0x00027140       0xec examples/serial/CMakeFiles/serial_nrf52840_xxAA_s140_6.0.0.dir/__/__/mesh/prov/src/prov_provisioner.c.obj
                0x00027140                prov_provisioner_auth_data
 .text.prov_provisioner_shared_secret
                0x0002722c       0xb8 examples/serial/CMakeFiles/serial_nrf52840_xxAA_s140_6.0.0.dir/__/__/mesh/prov/src/prov_provisioner.c.obj
                0x0002722c                prov_provisioner_shared_secret
 .text.prov_provisionee_cb_link_established
                0x000272e4       0x38 examples/serial/CMakeFiles/serial_nrf52840_xxAA_s140_6.0.0.dir/__/__/mesh/prov/src/prov_provisionee.c.obj
 .text.prov_provisionee_cb_link_closed
                0x0002731c       0x54 examples/serial/CMakeFiles/serial_nrf52840_xxAA_s140_6.0.0.dir/__/__/mesh/prov/src/prov_provisionee.c.obj
 .text.request_authentication
                0x00027370       0x90 examples/serial/CMakeFiles/serial_nrf52840_xxAA_s140_6.0.0.dir/__/__/mesh/prov/src/prov_provisionee.c.obj
 .text.prov_provisionee_cb_ack_received
                0x00027400      0x194 examples/serial/CMakeFiles/serial_nrf52840_xxAA_s140_6.0.0.dir/__/__/mesh/prov/src/prov_provisionee.c.obj
 .text.prov_provisionee_pkt_in
                0x00027594      0x420 examples/serial/CMakeFiles/serial_nrf52840_xxAA_s140_6.0.0.dir/__/__/mesh/prov/src/prov_provisionee.c.obj
 .text.prov_provisionee_listen
                0x000279b4       0x34 examples/serial/CMakeFiles/serial_nrf52840_xxAA_s140_6.0.0.dir/__/__/mesh/prov/src/prov_provisionee.c.obj
                0x000279b4                prov_provisionee_listen
 .text.prov_provisionee_auth_data
                0x000279e8      0x104 examples/serial/CMakeFiles/serial_nrf52840_xxAA_s140_6.0.0.dir/__/__/mesh/prov/src/prov_provisionee.c.obj
                0x000279e8                prov_provisionee_auth_data
 .text.prov_provisionee_shared_secret
                0x00027aec       0xa0 examples/serial/CMakeFiles/serial_nrf52840_xxAA_s140_6.0.0.dir/__/__/mesh/prov/src/prov_provisionee.c.obj
                0x00027aec                prov_provisionee_shared_secret
 .text.bearer_compare_callback
                0x00027b8c       0x10 examples/serial/CMakeFiles/serial_nrf52840_xxAA_s140_6.0.0.dir/__/__/mesh/prov/src/nrf_mesh_prov.c.obj
 .text.nrf_mesh_prov_init
                0x00027b9c       0x3c examples/serial/CMakeFiles/serial_nrf52840_xxAA_s140_6.0.0.dir/__/__/mesh/prov/src/nrf_mesh_prov.c.obj
                0x00027b9c                nrf_mesh_prov_init
 .text.nrf_mesh_prov_bearer_add
                0x00027bd8       0x2c examples/serial/CMakeFiles/serial_nrf52840_xxAA_s140_6.0.0.dir/__/__/mesh/prov/src/nrf_mesh_prov.c.obj
                0x00027bd8                nrf_mesh_prov_bearer_add
 .text.nrf_mesh_prov_generate_keys
                0x00027c04        0x4 examples/serial/CMakeFiles/serial_nrf52840_xxAA_s140_6.0.0.dir/__/__/mesh/prov/src/nrf_mesh_prov.c.obj
                0x00027c04                nrf_mesh_prov_generate_keys
 .text.nrf_mesh_prov_listen
                0x00027c08       0xf8 examples/serial/CMakeFiles/serial_nrf52840_xxAA_s140_6.0.0.dir/__/__/mesh/prov/src/nrf_mesh_prov.c.obj
                0x00027c08                nrf_mesh_prov_listen
 .text.nrf_mesh_prov_provision
                0x00027d00       0x58 examples/serial/CMakeFiles/serial_nrf52840_xxAA_s140_6.0.0.dir/__/__/mesh/prov/src/nrf_mesh_prov.c.obj
                0x00027d00                nrf_mesh_prov_provision
 .text.nrf_mesh_prov_oob_use
                0x00027d58       0x18 examples/serial/CMakeFiles/serial_nrf52840_xxAA_s140_6.0.0.dir/__/__/mesh/prov/src/nrf_mesh_prov.c.obj
                0x00027d58                nrf_mesh_prov_oob_use
 .text.nrf_mesh_prov_auth_data_provide
                0x00027d70       0x10 examples/serial/CMakeFiles/serial_nrf52840_xxAA_s140_6.0.0.dir/__/__/mesh/prov/src/nrf_mesh_prov.c.obj
                0x00027d70                nrf_mesh_prov_auth_data_provide
 .text.nrf_mesh_prov_shared_secret_provide
                0x00027d80       0x10 examples/serial/CMakeFiles/serial_nrf52840_xxAA_s140_6.0.0.dir/__/__/mesh/prov/src/nrf_mesh_prov.c.obj
                0x00027d80                nrf_mesh_prov_shared_secret_provide
 .text.nrf_mesh_prov_scan_start
                0x00027d90       0x10 examples/serial/CMakeFiles/serial_nrf52840_xxAA_s140_6.0.0.dir/__/__/mesh/prov/src/nrf_mesh_prov.c.obj
                0x00027d90                nrf_mesh_prov_scan_start
 .text.nrf_mesh_prov_scan_stop
                0x00027da0        0x4 examples/serial/CMakeFiles/serial_nrf52840_xxAA_s140_6.0.0.dir/__/__/mesh/prov/src/nrf_mesh_prov.c.obj
                0x00027da0                nrf_mesh_prov_scan_stop
 .text.prov_packet_length_valid
                0x00027da4       0x20 examples/serial/CMakeFiles/serial_nrf52840_xxAA_s140_6.0.0.dir/__/__/mesh/prov/src/provisioning.c.obj
                0x00027da4                prov_packet_length_valid
 .text.prov_tx_invite
                0x00027dc4       0x38 examples/serial/CMakeFiles/serial_nrf52840_xxAA_s140_6.0.0.dir/__/__/mesh/prov/src/provisioning.c.obj
                0x00027dc4                prov_tx_invite
 .text.prov_tx_capabilities
                0x00027dfc       0x38 examples/serial/CMakeFiles/serial_nrf52840_xxAA_s140_6.0.0.dir/__/__/mesh/prov/src/provisioning.c.obj
                0x00027dfc                prov_tx_capabilities
 .text.prov_tx_start
                0x00027e34       0x38 examples/serial/CMakeFiles/serial_nrf52840_xxAA_s140_6.0.0.dir/__/__/mesh/prov/src/provisioning.c.obj
                0x00027e34                prov_tx_start
 .text.prov_tx_public_key
                0x00027e6c       0x30 examples/serial/CMakeFiles/serial_nrf52840_xxAA_s140_6.0.0.dir/__/__/mesh/prov/src/provisioning.c.obj
                0x00027e6c                prov_tx_public_key
 .text.prov_tx_input_complete
                0x00027e9c       0x28 examples/serial/CMakeFiles/serial_nrf52840_xxAA_s140_6.0.0.dir/__/__/mesh/prov/src/provisioning.c.obj
                0x00027e9c                prov_tx_input_complete
 .text.prov_tx_confirmation
                0x00027ec4       0x30 examples/serial/CMakeFiles/serial_nrf52840_xxAA_s140_6.0.0.dir/__/__/mesh/prov/src/provisioning.c.obj
                0x00027ec4                prov_tx_confirmation
 .text.prov_tx_random
                0x00027ef4       0x30 examples/serial/CMakeFiles/serial_nrf52840_xxAA_s140_6.0.0.dir/__/__/mesh/prov/src/provisioning.c.obj
                0x00027ef4                prov_tx_random
 .text.prov_tx_complete
                0x00027f24       0x28 examples/serial/CMakeFiles/serial_nrf52840_xxAA_s140_6.0.0.dir/__/__/mesh/prov/src/provisioning.c.obj
                0x00027f24                prov_tx_complete
 .text.prov_tx_failed
                0x00027f4c       0x2c examples/serial/CMakeFiles/serial_nrf52840_xxAA_s140_6.0.0.dir/__/__/mesh/prov/src/provisioning.c.obj
                0x00027f4c                prov_tx_failed
 .text.prov_tx_data
                0x00027f78       0x34 examples/serial/CMakeFiles/serial_nrf52840_xxAA_s140_6.0.0.dir/__/__/mesh/prov/src/provisioning.c.obj
                0x00027f78                prov_tx_data
 .text.prov_beacon_unprov_build
                0x00027fac       0x54 examples/serial/CMakeFiles/serial_nrf52840_xxAA_s140_6.0.0.dir/__/__/mesh/prov/src/prov_beacon.c.obj
                0x00027fac                prov_beacon_unprov_build
 .text.prov_beacon_unprov_packet_in
                0x00028000       0xd4 examples/serial/CMakeFiles/serial_nrf52840_xxAA_s140_6.0.0.dir/__/__/mesh/prov/src/prov_beacon.c.obj
                0x00028000                prov_beacon_unprov_packet_in
 .text.prov_beacon_scan_start
                0x000280d4       0x1c examples/serial/CMakeFiles/serial_nrf52840_xxAA_s140_6.0.0.dir/__/__/mesh/prov/src/prov_beacon.c.obj
                0x000280d4                prov_beacon_scan_start
 .text.prov_beacon_scan_stop
                0x000280f0        0xc examples/serial/CMakeFiles/serial_nrf52840_xxAA_s140_6.0.0.dir/__/__/mesh/prov/src/prov_beacon.c.obj
                0x000280f0                prov_beacon_scan_stop
 .text.prov_utils_opt_set
                0x000280fc       0x24 examples/serial/CMakeFiles/serial_nrf52840_xxAA_s140_6.0.0.dir/__/__/mesh/prov/src/prov_utils.c.obj
                0x000280fc                prov_utils_opt_set
 .text.prov_utils_opt_get
                0x00028120       0x1c examples/serial/CMakeFiles/serial_nrf52840_xxAA_s140_6.0.0.dir/__/__/mesh/prov/src/prov_utils.c.obj
                0x00028120                prov_utils_opt_get
 .text.prov_utils_use_ecdh_offloading
                0x0002813c        0xc examples/serial/CMakeFiles/serial_nrf52840_xxAA_s140_6.0.0.dir/__/__/mesh/prov/src/prov_utils.c.obj
                0x0002813c                prov_utils_use_ecdh_offloading
 .text.prov_utils_authentication_values_derive
                0x00028148       0xa8 examples/serial/CMakeFiles/serial_nrf52840_xxAA_s140_6.0.0.dir/__/__/mesh/prov/src/prov_utils.c.obj
                0x00028148                prov_utils_authentication_values_derive
 .text.prov_utils_keys_generate
                0x000281f0       0x20 examples/serial/CMakeFiles/serial_nrf52840_xxAA_s140_6.0.0.dir/__/__/mesh/prov/src/prov_utils.c.obj
                0x000281f0                prov_utils_keys_generate
 .text.prov_utils_derive_keys
                0x00028210       0xb4 examples/serial/CMakeFiles/serial_nrf52840_xxAA_s140_6.0.0.dir/__/__/mesh/prov/src/prov_utils.c.obj
                0x00028210                prov_utils_derive_keys
 .text.prov_utils_calculate_shared_secret
                0x000282c4       0x38 examples/serial/CMakeFiles/serial_nrf52840_xxAA_s140_6.0.0.dir/__/__/mesh/prov/src/prov_utils.c.obj
                0x000282c4                prov_utils_calculate_shared_secret
 .text.prov_utils_generate_oob_data
                0x000282fc      0x1b8 examples/serial/CMakeFiles/serial_nrf52840_xxAA_s140_6.0.0.dir/__/__/mesh/prov/src/prov_utils.c.obj
                0x000282fc                prov_utils_generate_oob_data
 .text.prov_utils_confirmation_check
                0x000284b4       0x5c examples/serial/CMakeFiles/serial_nrf52840_xxAA_s140_6.0.0.dir/__/__/mesh/prov/src/prov_utils.c.obj
                0x000284b4                prov_utils_confirmation_check
 .text.link_timeout_cb
                0x00028510       0x10 examples/serial/CMakeFiles/serial_nrf52840_xxAA_s140_6.0.0.dir/__/__/mesh/prov/src/prov_bearer_adv.c.obj
 .text.prov_bearer_adv_listen_stop
                0x00028520       0x8c examples/serial/CMakeFiles/serial_nrf52840_xxAA_s140_6.0.0.dir/__/__/mesh/prov/src/prov_bearer_adv.c.obj
 .text.tx_complete_cb
                0x000285ac       0x20 examples/serial/CMakeFiles/serial_nrf52840_xxAA_s140_6.0.0.dir/__/__/mesh/prov/src/prov_bearer_adv.c.obj
 .text.prov_bearer_adv_listen
                0x000285cc      0x160 examples/serial/CMakeFiles/serial_nrf52840_xxAA_s140_6.0.0.dir/__/__/mesh/prov/src/prov_bearer_adv.c.obj
 .text.prov_buffer_tx
                0x0002872c      0x1d8 examples/serial/CMakeFiles/serial_nrf52840_xxAA_s140_6.0.0.dir/__/__/mesh/prov/src/prov_bearer_adv.c.obj
 .text.close_link
                0x00028904       0xc0 examples/serial/CMakeFiles/serial_nrf52840_xxAA_s140_6.0.0.dir/__/__/mesh/prov/src/prov_bearer_adv.c.obj
 .text.async_process
                0x000289c4       0x60 examples/serial/CMakeFiles/serial_nrf52840_xxAA_s140_6.0.0.dir/__/__/mesh/prov/src/prov_bearer_adv.c.obj
 .text.prov_bearer_adv_tx
                0x00028a24       0xe4 examples/serial/CMakeFiles/serial_nrf52840_xxAA_s140_6.0.0.dir/__/__/mesh/prov/src/prov_bearer_adv.c.obj
 .text.send_link_ack
                0x00028b08       0x80 examples/serial/CMakeFiles/serial_nrf52840_xxAA_s140_6.0.0.dir/__/__/mesh/prov/src/prov_bearer_adv.c.obj
 .text.tx_retry_cb
                0x00028b88      0x13c examples/serial/CMakeFiles/serial_nrf52840_xxAA_s140_6.0.0.dir/__/__/mesh/prov/src/prov_bearer_adv.c.obj
 .text.send_transaction_ack
                0x00028cc4       0x68 examples/serial/CMakeFiles/serial_nrf52840_xxAA_s140_6.0.0.dir/__/__/mesh/prov/src/prov_bearer_adv.c.obj
 .text.prov_buffer_rx
                0x00028d2c       0x9c examples/serial/CMakeFiles/serial_nrf52840_xxAA_s140_6.0.0.dir/__/__/mesh/prov/src/prov_bearer_adv.c.obj
 .text.prov_bearer_adv_link_open
                0x00028dc8      0x1c0 examples/serial/CMakeFiles/serial_nrf52840_xxAA_s140_6.0.0.dir/__/__/mesh/prov/src/prov_bearer_adv.c.obj
 .text.prov_bearer_adv_link_close
                0x00028f88       0xd8 examples/serial/CMakeFiles/serial_nrf52840_xxAA_s140_6.0.0.dir/__/__/mesh/prov/src/prov_bearer_adv.c.obj
 .text.nrf_mesh_prov_bearer_adv_interface_get
                0x00029060       0x40 examples/serial/CMakeFiles/serial_nrf52840_xxAA_s140_6.0.0.dir/__/__/mesh/prov/src/prov_bearer_adv.c.obj
                0x00029060                nrf_mesh_prov_bearer_adv_interface_get
 .text.prov_bearer_adv_packet_in
                0x000290a0      0x950 examples/serial/CMakeFiles/serial_nrf52840_xxAA_s140_6.0.0.dir/__/__/mesh/prov/src/prov_bearer_adv.c.obj
                0x000290a0                prov_bearer_adv_packet_in
 .text.schedule_publication_timer
                0x000299f0      0x2c4 examples/serial/CMakeFiles/serial_nrf52840_xxAA_s140_6.0.0.dir/__/__/mesh/access/src/access_publish.c.obj
 .text.publish_timer_tick
                0x00029cb4      0x134 examples/serial/CMakeFiles/serial_nrf52840_xxAA_s140_6.0.0.dir/__/__/mesh/access/src/access_publish.c.obj
 .text.access_publish_init
                0x00029de8       0x38 examples/serial/CMakeFiles/serial_nrf52840_xxAA_s140_6.0.0.dir/__/__/mesh/access/src/access_publish.c.obj
                0x00029de8                access_publish_init
 .text.access_publish_period_set
                0x00029e20      0x12c examples/serial/CMakeFiles/serial_nrf52840_xxAA_s140_6.0.0.dir/__/__/mesh/access/src/access_publish.c.obj
                0x00029e20                access_publish_period_set
 .text.access_publish_period_get
                0x00029f4c       0x2c examples/serial/CMakeFiles/serial_nrf52840_xxAA_s140_6.0.0.dir/__/__/mesh/access/src/access_publish.c.obj
                0x00029f4c                access_publish_period_get
 .text.handle_incoming
                0x00029f78      0x19c examples/serial/CMakeFiles/serial_nrf52840_xxAA_s140_6.0.0.dir/__/__/mesh/access/src/access.c.obj
 .text.mesh_evt_cb
                0x0002a114      0x164 examples/serial/CMakeFiles/serial_nrf52840_xxAA_s140_6.0.0.dir/__/__/mesh/access/src/access.c.obj
 .text.access_flash_config_load
                0x0002a278        0x4 examples/serial/CMakeFiles/serial_nrf52840_xxAA_s140_6.0.0.dir/__/__/mesh/access/src/access.c.obj
                0x0002a278                access_flash_config_load
 .text.access_flash_config_store
                0x0002a27c        0x4 examples/serial/CMakeFiles/serial_nrf52840_xxAA_s140_6.0.0.dir/__/__/mesh/access/src/access.c.obj
                0x0002a27c                access_flash_config_store
 .text.access_clear
                0x0002a280       0x48 examples/serial/CMakeFiles/serial_nrf52840_xxAA_s140_6.0.0.dir/__/__/mesh/access/src/access.c.obj
                0x0002a280                access_clear
 .text.access_init
                0x0002a2c8       0x60 examples/serial/CMakeFiles/serial_nrf52840_xxAA_s140_6.0.0.dir/__/__/mesh/access/src/access.c.obj
                0x0002a2c8                access_init
 .text.access_model_add
                0x0002a328      0x1f4 examples/serial/CMakeFiles/serial_nrf52840_xxAA_s140_6.0.0.dir/__/__/mesh/access/src/access.c.obj
                0x0002a328                access_model_add
 .text.access_model_publish
                0x0002a51c      0x3bc examples/serial/CMakeFiles/serial_nrf52840_xxAA_s140_6.0.0.dir/__/__/mesh/access/src/access.c.obj
                0x0002a51c                access_model_publish
 .text.access_model_reply
                0x0002a8d8      0x3dc examples/serial/CMakeFiles/serial_nrf52840_xxAA_s140_6.0.0.dir/__/__/mesh/access/src/access.c.obj
                0x0002a8d8                access_model_reply
 .text.access_model_publish_address_set
                0x0002acb4       0x3c examples/serial/CMakeFiles/serial_nrf52840_xxAA_s140_6.0.0.dir/__/__/mesh/access/src/access.c.obj
                0x0002acb4                access_model_publish_address_set
 .text.access_model_publish_address_get
                0x0002acf0       0x2c examples/serial/CMakeFiles/serial_nrf52840_xxAA_s140_6.0.0.dir/__/__/mesh/access/src/access.c.obj
                0x0002acf0                access_model_publish_address_get
 .text.access_model_publish_retransmit_set
                0x0002ad1c       0x54 examples/serial/CMakeFiles/serial_nrf52840_xxAA_s140_6.0.0.dir/__/__/mesh/access/src/access.c.obj
                0x0002ad1c                access_model_publish_retransmit_set
 .text.access_model_publish_retransmit_get
                0x0002ad70       0x2c examples/serial/CMakeFiles/serial_nrf52840_xxAA_s140_6.0.0.dir/__/__/mesh/access/src/access.c.obj
                0x0002ad70                access_model_publish_retransmit_get
 .text.access_model_publish_period_set
                0x0002ad9c       0x78 examples/serial/CMakeFiles/serial_nrf52840_xxAA_s140_6.0.0.dir/__/__/mesh/access/src/access.c.obj
                0x0002ad9c                access_model_publish_period_set
 .text.access_model_publish_period_get
                0x0002ae14       0x40 examples/serial/CMakeFiles/serial_nrf52840_xxAA_s140_6.0.0.dir/__/__/mesh/access/src/access.c.obj
                0x0002ae14                access_model_publish_period_get
 .text.access_model_subscription_add
                0x0002ae54       0x6c examples/serial/CMakeFiles/serial_nrf52840_xxAA_s140_6.0.0.dir/__/__/mesh/access/src/access.c.obj
                0x0002ae54                access_model_subscription_add
 .text.access_model_subscription_remove
                0x0002aec0       0x6c examples/serial/CMakeFiles/serial_nrf52840_xxAA_s140_6.0.0.dir/__/__/mesh/access/src/access.c.obj
                0x0002aec0                access_model_subscription_remove
 .text.access_model_subscriptions_get
                0x0002af2c       0x8c examples/serial/CMakeFiles/serial_nrf52840_xxAA_s140_6.0.0.dir/__/__/mesh/access/src/access.c.obj
                0x0002af2c                access_model_subscriptions_get
 .text.access_model_application_bind
                0x0002afb8       0x58 examples/serial/CMakeFiles/serial_nrf52840_xxAA_s140_6.0.0.dir/__/__/mesh/access/src/access.c.obj
                0x0002afb8                access_model_application_bind
 .text.access_model_application_unbind
                0x0002b010       0x58 examples/serial/CMakeFiles/serial_nrf52840_xxAA_s140_6.0.0.dir/__/__/mesh/access/src/access.c.obj
                0x0002b010                access_model_application_unbind
 .text.access_model_applications_get
                0x0002b068       0xfc examples/serial/CMakeFiles/serial_nrf52840_xxAA_s140_6.0.0.dir/__/__/mesh/access/src/access.c.obj
                0x0002b068                access_model_applications_get
 .text.access_model_publish_application_set
                0x0002b164       0x3c examples/serial/CMakeFiles/serial_nrf52840_xxAA_s140_6.0.0.dir/__/__/mesh/access/src/access.c.obj
                0x0002b164                access_model_publish_application_set
 .text.access_model_publish_application_get
                0x0002b1a0       0x2c examples/serial/CMakeFiles/serial_nrf52840_xxAA_s140_6.0.0.dir/__/__/mesh/access/src/access.c.obj
                0x0002b1a0                access_model_publish_application_get
 .text.access_default_ttl_set
                0x0002b1cc       0x1c examples/serial/CMakeFiles/serial_nrf52840_xxAA_s140_6.0.0.dir/__/__/mesh/access/src/access.c.obj
                0x0002b1cc                access_default_ttl_set
 .text.access_default_ttl_get
                0x0002b1e8        0xc examples/serial/CMakeFiles/serial_nrf52840_xxAA_s140_6.0.0.dir/__/__/mesh/access/src/access.c.obj
                0x0002b1e8                access_default_ttl_get
 .text.access_model_publish_ttl_set
                0x0002b1f4       0x40 examples/serial/CMakeFiles/serial_nrf52840_xxAA_s140_6.0.0.dir/__/__/mesh/access/src/access.c.obj
                0x0002b1f4                access_model_publish_ttl_set
 .text.access_model_publish_ttl_get
                0x0002b234       0x2c examples/serial/CMakeFiles/serial_nrf52840_xxAA_s140_6.0.0.dir/__/__/mesh/access/src/access.c.obj
                0x0002b234                access_model_publish_ttl_get
 .text.access_element_location_set
                0x0002b260       0x20 examples/serial/CMakeFiles/serial_nrf52840_xxAA_s140_6.0.0.dir/__/__/mesh/access/src/access.c.obj
                0x0002b260                access_element_location_set
 .text.access_element_location_get
                0x0002b280       0x18 examples/serial/CMakeFiles/serial_nrf52840_xxAA_s140_6.0.0.dir/__/__/mesh/access/src/access.c.obj
                0x0002b280                access_element_location_get
 .text.access_element_sig_model_count_get
                0x0002b298       0x18 examples/serial/CMakeFiles/serial_nrf52840_xxAA_s140_6.0.0.dir/__/__/mesh/access/src/access.c.obj
                0x0002b298                access_element_sig_model_count_get
 .text.access_element_vendor_model_count_get
                0x0002b2b0       0x18 examples/serial/CMakeFiles/serial_nrf52840_xxAA_s140_6.0.0.dir/__/__/mesh/access/src/access.c.obj
                0x0002b2b0                access_element_vendor_model_count_get
 .text.access_model_id_get
                0x0002b2c8       0x40 examples/serial/CMakeFiles/serial_nrf52840_xxAA_s140_6.0.0.dir/__/__/mesh/access/src/access.c.obj
                0x0002b2c8                access_model_id_get
 .text.access_handle_get
                0x0002b308       0x5c examples/serial/CMakeFiles/serial_nrf52840_xxAA_s140_6.0.0.dir/__/__/mesh/access/src/access.c.obj
                0x0002b308                access_handle_get
 .text.access_element_models_get
                0x0002b364       0x60 examples/serial/CMakeFiles/serial_nrf52840_xxAA_s140_6.0.0.dir/__/__/mesh/access/src/access.c.obj
                0x0002b364                access_element_models_get
 .text.access_model_p_args_get
                0x0002b3c4       0x2c examples/serial/CMakeFiles/serial_nrf52840_xxAA_s140_6.0.0.dir/__/__/mesh/access/src/access.c.obj
                0x0002b3c4                access_model_p_args_get
 .text.access_model_publication_stop
                0x0002b3f0       0x74 examples/serial/CMakeFiles/serial_nrf52840_xxAA_s140_6.0.0.dir/__/__/mesh/access/src/access.c.obj
                0x0002b3f0                access_model_publication_stop
 .text.access_model_publication_by_appkey_stop
                0x0002b464       0xe0 examples/serial/CMakeFiles/serial_nrf52840_xxAA_s140_6.0.0.dir/__/__/mesh/access/src/access.c.obj
                0x0002b464                access_model_publication_by_appkey_stop
 .text.remove_and_reschedule
                0x0002b544       0xc8 examples/serial/CMakeFiles/serial_nrf52840_xxAA_s140_6.0.0.dir/__/__/mesh/access/src/access_reliable.c.obj
 .text.reliable_timer_cb
                0x0002b60c      0x19c examples/serial/CMakeFiles/serial_nrf52840_xxAA_s140_6.0.0.dir/__/__/mesh/access/src/access_reliable.c.obj
 .text.access_reliable_message_rx_cb
                0x0002b7a8       0x70 examples/serial/CMakeFiles/serial_nrf52840_xxAA_s140_6.0.0.dir/__/__/mesh/access/src/access_reliable.c.obj
                0x0002b7a8                access_reliable_message_rx_cb
 .text.access_reliable_init
                0x0002b818       0x1c examples/serial/CMakeFiles/serial_nrf52840_xxAA_s140_6.0.0.dir/__/__/mesh/access/src/access_reliable.c.obj
                0x0002b818                access_reliable_init
 .text.access_reliable_cancel_all
                0x0002b834       0xa8 examples/serial/CMakeFiles/serial_nrf52840_xxAA_s140_6.0.0.dir/__/__/mesh/access/src/access_reliable.c.obj
                0x0002b834                access_reliable_cancel_all
 .text.access_model_reliable_cancel
                0x0002b8dc       0x74 examples/serial/CMakeFiles/serial_nrf52840_xxAA_s140_6.0.0.dir/__/__/mesh/access/src/access_reliable.c.obj
                0x0002b8dc                access_model_reliable_cancel
 .text.mesh_evt_handler
                0x0002b950      0x30c examples/serial/CMakeFiles/serial_nrf52840_xxAA_s140_6.0.0.dir/__/__/mesh/access/src/device_state_manager.c.obj
 .text.address_delete_if_unused
                0x0002bc5c       0x8c examples/serial/CMakeFiles/serial_nrf52840_xxAA_s140_6.0.0.dir/__/__/mesh/access/src/device_state_manager.c.obj
 .text.dsm_flash_config_load
                0x0002bce8        0x4 examples/serial/CMakeFiles/serial_nrf52840_xxAA_s140_6.0.0.dir/__/__/mesh/access/src/device_state_manager.c.obj
                0x0002bce8                dsm_flash_config_load
 .text.dsm_clear
                0x0002bcec       0xbc examples/serial/CMakeFiles/serial_nrf52840_xxAA_s140_6.0.0.dir/__/__/mesh/access/src/device_state_manager.c.obj
                0x0002bcec                dsm_clear
 .text.dsm_init
                0x0002bda8       0x14 examples/serial/CMakeFiles/serial_nrf52840_xxAA_s140_6.0.0.dir/__/__/mesh/access/src/device_state_manager.c.obj
                0x0002bda8                dsm_init
 .text.dsm_local_unicast_addresses_set
                0x0002bdbc       0x70 examples/serial/CMakeFiles/serial_nrf52840_xxAA_s140_6.0.0.dir/__/__/mesh/access/src/device_state_manager.c.obj
                0x0002bdbc                dsm_local_unicast_addresses_set
 .text.dsm_local_unicast_addresses_get
                0x0002be2c       0x20 examples/serial/CMakeFiles/serial_nrf52840_xxAA_s140_6.0.0.dir/__/__/mesh/access/src/device_state_manager.c.obj
                0x0002be2c                dsm_local_unicast_addresses_get
 .text.dsm_address_publish_add
                0x0002be4c      0x11c examples/serial/CMakeFiles/serial_nrf52840_xxAA_s140_6.0.0.dir/__/__/mesh/access/src/device_state_manager.c.obj
                0x0002be4c                dsm_address_publish_add
 .text.dsm_address_publish_virtual_add
                0x0002bf68      0x204 examples/serial/CMakeFiles/serial_nrf52840_xxAA_s140_6.0.0.dir/__/__/mesh/access/src/device_state_manager.c.obj
                0x0002bf68                dsm_address_publish_virtual_add
 .text.dsm_address_publish_remove
                0x0002c16c       0x80 examples/serial/CMakeFiles/serial_nrf52840_xxAA_s140_6.0.0.dir/__/__/mesh/access/src/device_state_manager.c.obj
                0x0002c16c                dsm_address_publish_remove
 .text.dsm_address_subscription_add
                0x0002c1ec      0x10c examples/serial/CMakeFiles/serial_nrf52840_xxAA_s140_6.0.0.dir/__/__/mesh/access/src/device_state_manager.c.obj
                0x0002c1ec                dsm_address_subscription_add
 .text.dsm_address_subscription_virtual_add
                0x0002c2f8      0x204 examples/serial/CMakeFiles/serial_nrf52840_xxAA_s140_6.0.0.dir/__/__/mesh/access/src/device_state_manager.c.obj
                0x0002c2f8                dsm_address_subscription_virtual_add
 .text.dsm_address_subscription_get
                0x0002c4fc       0x5c examples/serial/CMakeFiles/serial_nrf52840_xxAA_s140_6.0.0.dir/__/__/mesh/access/src/device_state_manager.c.obj
                0x0002c4fc                dsm_address_subscription_get
 .text.dsm_address_subscription_remove
                0x0002c558       0x94 examples/serial/CMakeFiles/serial_nrf52840_xxAA_s140_6.0.0.dir/__/__/mesh/access/src/device_state_manager.c.obj
                0x0002c558                dsm_address_subscription_remove
 .text.dsm_address_get
                0x0002c5ec       0x7c examples/serial/CMakeFiles/serial_nrf52840_xxAA_s140_6.0.0.dir/__/__/mesh/access/src/device_state_manager.c.obj
                0x0002c5ec                dsm_address_get
 .text.dsm_address_get_all
                0x0002c668       0xe8 examples/serial/CMakeFiles/serial_nrf52840_xxAA_s140_6.0.0.dir/__/__/mesh/access/src/device_state_manager.c.obj
                0x0002c668                dsm_address_get_all
 .text.dsm_address_handle_get
                0x0002c750      0x160 examples/serial/CMakeFiles/serial_nrf52840_xxAA_s140_6.0.0.dir/__/__/mesh/access/src/device_state_manager.c.obj
                0x0002c750                dsm_address_handle_get
 .text.dsm_net_key_index_to_subnet_handle
                0x0002c8b0       0xcc examples/serial/CMakeFiles/serial_nrf52840_xxAA_s140_6.0.0.dir/__/__/mesh/access/src/device_state_manager.c.obj
                0x0002c8b0                dsm_net_key_index_to_subnet_handle
 .text.dsm_subnet_handle_get
                0x0002c97c      0x138 examples/serial/CMakeFiles/serial_nrf52840_xxAA_s140_6.0.0.dir/__/__/mesh/access/src/device_state_manager.c.obj
                0x0002c97c                dsm_subnet_handle_get
 .text.dsm_appkey_index_to_appkey_handle
                0x0002cab4       0xcc examples/serial/CMakeFiles/serial_nrf52840_xxAA_s140_6.0.0.dir/__/__/mesh/access/src/device_state_manager.c.obj
                0x0002cab4                dsm_appkey_index_to_appkey_handle
 .text.dsm_appkey_handle_get
                0x0002cb80       0x54 examples/serial/CMakeFiles/serial_nrf52840_xxAA_s140_6.0.0.dir/__/__/mesh/access/src/device_state_manager.c.obj
                0x0002cb80                dsm_appkey_handle_get
 .text.dsm_appkey_handle_to_appkey_index
                0x0002cbd4       0x34 examples/serial/CMakeFiles/serial_nrf52840_xxAA_s140_6.0.0.dir/__/__/mesh/access/src/device_state_manager.c.obj
                0x0002cbd4                dsm_appkey_handle_to_appkey_index
 .text.dsm_appkey_handle_to_subnet_handle
                0x0002cc08       0xcc examples/serial/CMakeFiles/serial_nrf52840_xxAA_s140_6.0.0.dir/__/__/mesh/access/src/device_state_manager.c.obj
                0x0002cc08                dsm_appkey_handle_to_subnet_handle
 .text.dsm_subnet_add
                0x0002ccd4      0x238 examples/serial/CMakeFiles/serial_nrf52840_xxAA_s140_6.0.0.dir/__/__/mesh/access/src/device_state_manager.c.obj
                0x0002ccd4                dsm_subnet_add
 .text.dsm_subnet_kr_phase_get
                0x0002cf0c       0x30 examples/serial/CMakeFiles/serial_nrf52840_xxAA_s140_6.0.0.dir/__/__/mesh/access/src/device_state_manager.c.obj
                0x0002cf0c                dsm_subnet_kr_phase_get
 .text.dsm_subnet_update
                0x0002cf3c       0xcc examples/serial/CMakeFiles/serial_nrf52840_xxAA_s140_6.0.0.dir/__/__/mesh/access/src/device_state_manager.c.obj
                0x0002cf3c                dsm_subnet_update
 .text.dsm_subnet_update_swap_keys
                0x0002d008       0x5c examples/serial/CMakeFiles/serial_nrf52840_xxAA_s140_6.0.0.dir/__/__/mesh/access/src/device_state_manager.c.obj
                0x0002d008                dsm_subnet_update_swap_keys
 .text.dsm_subnet_update_commit
                0x0002d064      0x280 examples/serial/CMakeFiles/serial_nrf52840_xxAA_s140_6.0.0.dir/__/__/mesh/access/src/device_state_manager.c.obj
                0x0002d064                dsm_subnet_update_commit
 .text.dsm_subnet_delete
                0x0002d2e4      0x158 examples/serial/CMakeFiles/serial_nrf52840_xxAA_s140_6.0.0.dir/__/__/mesh/access/src/device_state_manager.c.obj
                0x0002d2e4                dsm_subnet_delete
 .text.dsm_subnet_get_all
                0x0002d43c      0x100 examples/serial/CMakeFiles/serial_nrf52840_xxAA_s140_6.0.0.dir/__/__/mesh/access/src/device_state_manager.c.obj
                0x0002d43c                dsm_subnet_get_all
 .text.dsm_devkey_add
                0x0002d53c      0x1e0 examples/serial/CMakeFiles/serial_nrf52840_xxAA_s140_6.0.0.dir/__/__/mesh/access/src/device_state_manager.c.obj
                0x0002d53c                dsm_devkey_add
 .text.dsm_devkey_delete
                0x0002d71c       0x38 examples/serial/CMakeFiles/serial_nrf52840_xxAA_s140_6.0.0.dir/__/__/mesh/access/src/device_state_manager.c.obj
                0x0002d71c                dsm_devkey_delete
 .text.dsm_appkey_add
                0x0002d754      0x220 examples/serial/CMakeFiles/serial_nrf52840_xxAA_s140_6.0.0.dir/__/__/mesh/access/src/device_state_manager.c.obj
                0x0002d754                dsm_appkey_add
 .text.dsm_appkey_update
                0x0002d974       0xb0 examples/serial/CMakeFiles/serial_nrf52840_xxAA_s140_6.0.0.dir/__/__/mesh/access/src/device_state_manager.c.obj
                0x0002d974                dsm_appkey_update
 .text.dsm_appkey_delete
                0x0002da24       0x24 examples/serial/CMakeFiles/serial_nrf52840_xxAA_s140_6.0.0.dir/__/__/mesh/access/src/device_state_manager.c.obj
                0x0002da24                dsm_appkey_delete
 .text.dsm_appkey_get_all
                0x0002da48      0x158 examples/serial/CMakeFiles/serial_nrf52840_xxAA_s140_6.0.0.dir/__/__/mesh/access/src/device_state_manager.c.obj
                0x0002da48                dsm_appkey_get_all
 .text.dsm_tx_secmat_get
                0x0002dba0       0xec examples/serial/CMakeFiles/serial_nrf52840_xxAA_s140_6.0.0.dir/__/__/mesh/access/src/device_state_manager.c.obj
                0x0002dba0                dsm_tx_secmat_get
 .text.dsm_net_secmat_from_keyindex_get
                0x0002dc8c       0xf8 examples/serial/CMakeFiles/serial_nrf52840_xxAA_s140_6.0.0.dir/__/__/mesh/access/src/device_state_manager.c.obj
                0x0002dc8c                dsm_net_secmat_from_keyindex_get
 .text.nrf_mesh_net_secmat_next_get
                0x0002dd84      0x1f8 examples/serial/CMakeFiles/serial_nrf52840_xxAA_s140_6.0.0.dir/__/__/mesh/access/src/device_state_manager.c.obj
                0x0002dd84                nrf_mesh_net_secmat_next_get
 .text.nrf_mesh_app_secmat_next_get
                0x0002df7c      0x32c examples/serial/CMakeFiles/serial_nrf52840_xxAA_s140_6.0.0.dir/__/__/mesh/access/src/device_state_manager.c.obj
                0x0002df7c                nrf_mesh_app_secmat_next_get
 .text.nrf_mesh_devkey_secmat_get
                0x0002e2a8       0xa4 examples/serial/CMakeFiles/serial_nrf52840_xxAA_s140_6.0.0.dir/__/__/mesh/access/src/device_state_manager.c.obj
                0x0002e2a8                nrf_mesh_devkey_secmat_get
 .text.nrf_mesh_beacon_info_next_get
                0x0002e34c      0x1b4 examples/serial/CMakeFiles/serial_nrf52840_xxAA_s140_6.0.0.dir/__/__/mesh/access/src/device_state_manager.c.obj
                0x0002e34c                nrf_mesh_beacon_info_next_get
 .text.nrf_mesh_rx_address_get
                0x0002e500      0x2d0 examples/serial/CMakeFiles/serial_nrf52840_xxAA_s140_6.0.0.dir/__/__/mesh/access/src/device_state_manager.c.obj
                0x0002e500                nrf_mesh_rx_address_get
 .text.nrf_mesh_unicast_address_get
                0x0002e7d0       0x24 examples/serial/CMakeFiles/serial_nrf52840_xxAA_s140_6.0.0.dir/__/__/mesh/access/src/device_state_manager.c.obj
                0x0002e7d0                nrf_mesh_unicast_address_get
 .text.config_composition_data_get
                0x0002e7f4      0x1d4 examples/serial/CMakeFiles/serial_nrf52840_xxAA_s140_6.0.0.dir/__/__/models/config/src/composition_data.c.obj
                0x0002e7f4                config_composition_data_get
 .text.config_server_heartbeat_publication_count_decrement
                0x0002e9c8       0x1c examples/serial/CMakeFiles/serial_nrf52840_xxAA_s140_6.0.0.dir/__/__/models/config/src/config_server.c.obj
 .text.config_server_heartbeat_publication_params_get
                0x0002e9e4       0x38 examples/serial/CMakeFiles/serial_nrf52840_xxAA_s140_6.0.0.dir/__/__/models/config/src/config_server.c.obj
 .text.handle_config_network_transmit_set
                0x0002ea1c      0x11c examples/serial/CMakeFiles/serial_nrf52840_xxAA_s140_6.0.0.dir/__/__/models/config/src/config_server.c.obj
 .text.handle_node_reset
                0x0002eb38       0x30 examples/serial/CMakeFiles/serial_nrf52840_xxAA_s140_6.0.0.dir/__/__/models/config/src/config_server.c.obj
 .text.handle_config_relay_set
                0x0002eb68      0x1b0 examples/serial/CMakeFiles/serial_nrf52840_xxAA_s140_6.0.0.dir/__/__/models/config/src/config_server.c.obj
 .text.handle_config_gatt_proxy_set
                0x0002ed18       0x38 examples/serial/CMakeFiles/serial_nrf52840_xxAA_s140_6.0.0.dir/__/__/models/config/src/config_server.c.obj
 .text.handle_netkey_get
                0x0002ed50       0x68 examples/serial/CMakeFiles/serial_nrf52840_xxAA_s140_6.0.0.dir/__/__/models/config/src/config_server.c.obj
 .text.handle_model_app_bind_unbind
                0x0002edb8      0x22c examples/serial/CMakeFiles/serial_nrf52840_xxAA_s140_6.0.0.dir/__/__/models/config/src/config_server.c.obj
 .text.status_error_sub_send
                0x0002efe4      0x184 examples/serial/CMakeFiles/serial_nrf52840_xxAA_s140_6.0.0.dir/__/__/models/config/src/config_server.c.obj
 .text.handle_config_model_subscription_overwrite
                0x0002f168      0x1ec examples/serial/CMakeFiles/serial_nrf52840_xxAA_s140_6.0.0.dir/__/__/models/config/src/config_server.c.obj
 .text.send_publication_status
                0x0002f354      0x1a4 examples/serial/CMakeFiles/serial_nrf52840_xxAA_s140_6.0.0.dir/__/__/models/config/src/config_server.c.obj
 .text.handle_config_key_refresh_phase_set
                0x0002f4f8       0xf0 examples/serial/CMakeFiles/serial_nrf52840_xxAA_s140_6.0.0.dir/__/__/models/config/src/config_server.c.obj
 .text.handle_config_default_ttl_set
                0x0002f5e8       0x70 examples/serial/CMakeFiles/serial_nrf52840_xxAA_s140_6.0.0.dir/__/__/models/config/src/config_server.c.obj
 .text.handle_heartbeat_publication_set
                0x0002f658      0x170 examples/serial/CMakeFiles/serial_nrf52840_xxAA_s140_6.0.0.dir/__/__/models/config/src/config_server.c.obj
 .text.mesh_event_cb
                0x0002f7c8       0x70 examples/serial/CMakeFiles/serial_nrf52840_xxAA_s140_6.0.0.dir/__/__/models/config/src/config_server.c.obj
 .text.handle_node_identity_set
                0x0002f838       0x48 examples/serial/CMakeFiles/serial_nrf52840_xxAA_s140_6.0.0.dir/__/__/models/config/src/config_server.c.obj
 .text.handle_node_identity_get
                0x0002f880       0x44 examples/serial/CMakeFiles/serial_nrf52840_xxAA_s140_6.0.0.dir/__/__/models/config/src/config_server.c.obj
 .text.handle_config_friend_set
                0x0002f8c4       0x38 examples/serial/CMakeFiles/serial_nrf52840_xxAA_s140_6.0.0.dir/__/__/models/config/src/config_server.c.obj
 .text.status_error_pub_send
                0x0002f8fc       0xc8 examples/serial/CMakeFiles/serial_nrf52840_xxAA_s140_6.0.0.dir/__/__/models/config/src/config_server.c.obj
 .text.handle_config_model_publication_get
                0x0002f9c4       0xa0 examples/serial/CMakeFiles/serial_nrf52840_xxAA_s140_6.0.0.dir/__/__/models/config/src/config_server.c.obj
 .text.handle_config_model_publication_set
                0x0002fa64      0x324 examples/serial/CMakeFiles/serial_nrf52840_xxAA_s140_6.0.0.dir/__/__/models/config/src/config_server.c.obj
 .text.handle_config_key_refresh_phase_get
                0x0002fd88       0x70 examples/serial/CMakeFiles/serial_nrf52840_xxAA_s140_6.0.0.dir/__/__/models/config/src/config_server.c.obj
 .text.handle_config_default_ttl_get
                0x0002fdf8       0x48 examples/serial/CMakeFiles/serial_nrf52840_xxAA_s140_6.0.0.dir/__/__/models/config/src/config_server.c.obj
 .text.handle_config_beacon_set
                0x0002fe40       0x80 examples/serial/CMakeFiles/serial_nrf52840_xxAA_s140_6.0.0.dir/__/__/models/config/src/config_server.c.obj
 .text.handle_composition_data_get
                0x0002fec0       0x64 examples/serial/CMakeFiles/serial_nrf52840_xxAA_s140_6.0.0.dir/__/__/models/config/src/config_server.c.obj
 .text.handle_appkey_delete
                0x0002ff24      0x124 examples/serial/CMakeFiles/serial_nrf52840_xxAA_s140_6.0.0.dir/__/__/models/config/src/config_server.c.obj
 .text.handle_model_app_get
                0x00030048      0x230 examples/serial/CMakeFiles/serial_nrf52840_xxAA_s140_6.0.0.dir/__/__/models/config/src/config_server.c.obj
 .text.handle_config_vendor_model_subscription_get
                0x00030278      0x18c examples/serial/CMakeFiles/serial_nrf52840_xxAA_s140_6.0.0.dir/__/__/models/config/src/config_server.c.obj
 .text.handle_appkey_get
                0x00030404      0x104 examples/serial/CMakeFiles/serial_nrf52840_xxAA_s140_6.0.0.dir/__/__/models/config/src/config_server.c.obj
 .text.handle_heartbeat_subscription_get
                0x00030508       0xd8 examples/serial/CMakeFiles/serial_nrf52840_xxAA_s140_6.0.0.dir/__/__/models/config/src/config_server.c.obj
 .text.handle_config_gatt_proxy_get
                0x000305e0       0x38 examples/serial/CMakeFiles/serial_nrf52840_xxAA_s140_6.0.0.dir/__/__/models/config/src/config_server.c.obj
 .text.handle_heartbeat_subscription_set
                0x00030618      0x110 examples/serial/CMakeFiles/serial_nrf52840_xxAA_s140_6.0.0.dir/__/__/models/config/src/config_server.c.obj
 .text.handle_config_friend_get
                0x00030728       0x38 examples/serial/CMakeFiles/serial_nrf52840_xxAA_s140_6.0.0.dir/__/__/models/config/src/config_server.c.obj
 .text.handle_heartbeat_publication_get
                0x00030760       0xcc examples/serial/CMakeFiles/serial_nrf52840_xxAA_s140_6.0.0.dir/__/__/models/config/src/config_server.c.obj
 .text.handle_config_beacon_get
                0x0003082c       0x40 examples/serial/CMakeFiles/serial_nrf52840_xxAA_s140_6.0.0.dir/__/__/models/config/src/config_server.c.obj
 .text.handle_config_sig_model_subscription_get
                0x0003086c      0x150 examples/serial/CMakeFiles/serial_nrf52840_xxAA_s140_6.0.0.dir/__/__/models/config/src/config_server.c.obj
 .text.handle_appkey_update
                0x000309bc      0x11c examples/serial/CMakeFiles/serial_nrf52840_xxAA_s140_6.0.0.dir/__/__/models/config/src/config_server.c.obj
 .text.handle_appkey_add
                0x00030ad8      0x12c examples/serial/CMakeFiles/serial_nrf52840_xxAA_s140_6.0.0.dir/__/__/models/config/src/config_server.c.obj
 .text.handle_netkey_add_update
                0x00030c04       0xe8 examples/serial/CMakeFiles/serial_nrf52840_xxAA_s140_6.0.0.dir/__/__/models/config/src/config_server.c.obj
 .text.handle_netkey_delete
                0x00030cec      0x148 examples/serial/CMakeFiles/serial_nrf52840_xxAA_s140_6.0.0.dir/__/__/models/config/src/config_server.c.obj
 .text.handle_config_network_transmit_get
                0x00030e34       0x9c examples/serial/CMakeFiles/serial_nrf52840_xxAA_s140_6.0.0.dir/__/__/models/config/src/config_server.c.obj
 .text.handle_config_relay_get
                0x00030ed0       0xd8 examples/serial/CMakeFiles/serial_nrf52840_xxAA_s140_6.0.0.dir/__/__/models/config/src/config_server.c.obj
 .text.handle_config_model_subscription_virtual_address_delete
                0x00030fa8      0x17c examples/serial/CMakeFiles/serial_nrf52840_xxAA_s140_6.0.0.dir/__/__/models/config/src/config_server.c.obj
 .text.handle_config_model_subscription_delete_all
                0x00031124      0x1a8 examples/serial/CMakeFiles/serial_nrf52840_xxAA_s140_6.0.0.dir/__/__/models/config/src/config_server.c.obj
 .text.handle_config_model_subscription_virtual_address_add
                0x000312cc      0x178 examples/serial/CMakeFiles/serial_nrf52840_xxAA_s140_6.0.0.dir/__/__/models/config/src/config_server.c.obj
 .text.handle_config_model_subscription_delete
                0x00031444      0x170 examples/serial/CMakeFiles/serial_nrf52840_xxAA_s140_6.0.0.dir/__/__/models/config/src/config_server.c.obj
 .text.handle_config_model_subscription_virtual_address_overwrite
                0x000315b4      0x210 examples/serial/CMakeFiles/serial_nrf52840_xxAA_s140_6.0.0.dir/__/__/models/config/src/config_server.c.obj
 .text.handle_config_model_subscription_add
                0x000317c4      0x168 examples/serial/CMakeFiles/serial_nrf52840_xxAA_s140_6.0.0.dir/__/__/models/config/src/config_server.c.obj
 .text.config_server_init
                0x0003192c       0x64 examples/serial/CMakeFiles/serial_nrf52840_xxAA_s140_6.0.0.dir/__/__/models/config/src/config_server.c.obj
                0x0003192c                config_server_init
 .text.config_server_bind
                0x00031990       0x10 examples/serial/CMakeFiles/serial_nrf52840_xxAA_s140_6.0.0.dir/__/__/models/config/src/config_server.c.obj
                0x00031990                config_server_bind
 .text.packed_index_list_create
                0x000319a0       0x38 examples/serial/CMakeFiles/serial_nrf52840_xxAA_s140_6.0.0.dir/__/__/models/config/src/packed_index_list.c.obj
                0x000319a0                packed_index_list_create
 .text.attention_timer_handler
                0x000319d8       0x6c examples/serial/CMakeFiles/serial_nrf52840_xxAA_s140_6.0.0.dir/__/__/models/health/src/health_server.c.obj
 .text.handle_attention_get
                0x00031a44       0x3c examples/serial/CMakeFiles/serial_nrf52840_xxAA_s140_6.0.0.dir/__/__/models/health/src/health_server.c.obj
 .text.handle_period_get
                0x00031a80       0x38 examples/serial/CMakeFiles/serial_nrf52840_xxAA_s140_6.0.0.dir/__/__/models/health/src/health_server.c.obj
 .text.handle_attention_set
                0x00031ab8       0xd8 examples/serial/CMakeFiles/serial_nrf52840_xxAA_s140_6.0.0.dir/__/__/models/health/src/health_server.c.obj
 .text.handle_period_set
                0x00031b90       0x50 examples/serial/CMakeFiles/serial_nrf52840_xxAA_s140_6.0.0.dir/__/__/models/health/src/health_server.c.obj
 .text.send_fault_status
                0x00031be0      0x37c examples/serial/CMakeFiles/serial_nrf52840_xxAA_s140_6.0.0.dir/__/__/models/health/src/health_server.c.obj
 .text.health_publish_timeout_handler
                0x00031f5c        0xc examples/serial/CMakeFiles/serial_nrf52840_xxAA_s140_6.0.0.dir/__/__/models/health/src/health_server.c.obj
 .text.handle_fault_test
                0x00031f68       0x7c examples/serial/CMakeFiles/serial_nrf52840_xxAA_s140_6.0.0.dir/__/__/models/health/src/health_server.c.obj
 .text.handle_fault_clear
                0x00031fe4       0x48 examples/serial/CMakeFiles/serial_nrf52840_xxAA_s140_6.0.0.dir/__/__/models/health/src/health_server.c.obj
 .text.handle_fault_get
                0x0003202c       0x34 examples/serial/CMakeFiles/serial_nrf52840_xxAA_s140_6.0.0.dir/__/__/models/health/src/health_server.c.obj
 .text.health_server_init
                0x00032060       0x74 examples/serial/CMakeFiles/serial_nrf52840_xxAA_s140_6.0.0.dir/__/__/models/health/src/health_server.c.obj
                0x00032060                health_server_init
 .text.UARTE0_UART0_IRQHandler
                0x000320d4       0x74 examples/serial/CMakeFiles/serial_nrf52840_xxAA_s140_6.0.0.dir/__/__/mesh/serial/src/serial_uart.c.obj
                0x000320d4                UARTE0_UART0_IRQHandler
 .text.serial_uart_init
                0x00032148       0xac examples/serial/CMakeFiles/serial_nrf52840_xxAA_s140_6.0.0.dir/__/__/mesh/serial/src/serial_uart.c.obj
                0x00032148                serial_uart_init
 .text.serial_uart_process
                0x000321f4       0x74 examples/serial/CMakeFiles/serial_nrf52840_xxAA_s140_6.0.0.dir/__/__/mesh/serial/src/serial_uart.c.obj
                0x000321f4                serial_uart_process
 .text.serial_uart_receive_set
                0x00032268        0xc examples/serial/CMakeFiles/serial_nrf52840_xxAA_s140_6.0.0.dir/__/__/mesh/serial/src/serial_uart.c.obj
                0x00032268                serial_uart_receive_set
 .text.do_transmit
                0x00032274       0x4c examples/serial/CMakeFiles/serial_nrf52840_xxAA_s140_6.0.0.dir/__/__/mesh/serial/src/serial_bearer.c.obj
 .text.char_tx  0x000322c0       0x8c examples/serial/CMakeFiles/serial_nrf52840_xxAA_s140_6.0.0.dir/__/__/mesh/serial/src/serial_bearer.c.obj
 .text.char_rx  0x0003234c      0x118 examples/serial/CMakeFiles/serial_nrf52840_xxAA_s140_6.0.0.dir/__/__/mesh/serial/src/serial_bearer.c.obj
 .text.serial_bearer_init
                0x00032464       0x74 examples/serial/CMakeFiles/serial_nrf52840_xxAA_s140_6.0.0.dir/__/__/mesh/serial/src/serial_bearer.c.obj
                0x00032464                serial_bearer_init
 .text.serial_bearer_blocking_buffer_get
                0x000324d8       0x90 examples/serial/CMakeFiles/serial_nrf52840_xxAA_s140_6.0.0.dir/__/__/mesh/serial/src/serial_bearer.c.obj
                0x000324d8                serial_bearer_blocking_buffer_get
 .text.serial_bearer_tx
                0x00032568       0x54 examples/serial/CMakeFiles/serial_nrf52840_xxAA_s140_6.0.0.dir/__/__/mesh/serial/src/serial_bearer.c.obj
                0x00032568                serial_bearer_tx
 .text.serial_bearer_rx_get
                0x000325bc       0x3c examples/serial/CMakeFiles/serial_nrf52840_xxAA_s140_6.0.0.dir/__/__/mesh/serial/src/serial_bearer.c.obj
                0x000325bc                serial_bearer_rx_get
 .text.serial_handler_common_cmd_rsp_nodata_on_error
                0x000325f8       0x38 examples/serial/CMakeFiles/serial_nrf52840_xxAA_s140_6.0.0.dir/__/__/mesh/serial/src/serial_handler_common.c.obj
                0x000325f8                serial_handler_common_cmd_rsp_nodata_on_error
 .text.serial_handler_common_rx
                0x00032630       0x60 examples/serial/CMakeFiles/serial_nrf52840_xxAA_s140_6.0.0.dir/__/__/mesh/serial/src/serial_handler_common.c.obj
                0x00032630                serial_handler_common_rx
 .text.access_flash_store
                0x00032690       0x18 examples/serial/CMakeFiles/serial_nrf52840_xxAA_s140_6.0.0.dir/__/__/mesh/serial/src/serial_handler_access.c.obj
 .text.elem_models_get
                0x000326a8       0x50 examples/serial/CMakeFiles/serial_nrf52840_xxAA_s140_6.0.0.dir/__/__/mesh/serial/src/serial_handler_access.c.obj
 .text.handle_get
                0x000326f8       0x20 examples/serial/CMakeFiles/serial_nrf52840_xxAA_s140_6.0.0.dir/__/__/mesh/serial/src/serial_handler_access.c.obj
 .text.model_id_get
                0x00032718       0x20 examples/serial/CMakeFiles/serial_nrf52840_xxAA_s140_6.0.0.dir/__/__/mesh/serial/src/serial_handler_access.c.obj
 .text.elem_vendor_model_cnt_get
                0x00032738       0x20 examples/serial/CMakeFiles/serial_nrf52840_xxAA_s140_6.0.0.dir/__/__/mesh/serial/src/serial_handler_access.c.obj
 .text.elem_sig_model_cnt_get
                0x00032758       0x20 examples/serial/CMakeFiles/serial_nrf52840_xxAA_s140_6.0.0.dir/__/__/mesh/serial/src/serial_handler_access.c.obj
 .text.elem_loc_get
                0x00032778       0x20 examples/serial/CMakeFiles/serial_nrf52840_xxAA_s140_6.0.0.dir/__/__/mesh/serial/src/serial_handler_access.c.obj
 .text.elem_loc_set
                0x00032798       0x24 examples/serial/CMakeFiles/serial_nrf52840_xxAA_s140_6.0.0.dir/__/__/mesh/serial/src/serial_handler_access.c.obj
 .text.model_pub_ttl_get
                0x000327bc       0x20 examples/serial/CMakeFiles/serial_nrf52840_xxAA_s140_6.0.0.dir/__/__/mesh/serial/src/serial_handler_access.c.obj
 .text.model_pub_ttl_set
                0x000327dc       0x24 examples/serial/CMakeFiles/serial_nrf52840_xxAA_s140_6.0.0.dir/__/__/mesh/serial/src/serial_handler_access.c.obj
 .text.model_pub_app_get
                0x00032800       0x20 examples/serial/CMakeFiles/serial_nrf52840_xxAA_s140_6.0.0.dir/__/__/mesh/serial/src/serial_handler_access.c.obj
 .text.model_pub_app_set
                0x00032820       0x24 examples/serial/CMakeFiles/serial_nrf52840_xxAA_s140_6.0.0.dir/__/__/mesh/serial/src/serial_handler_access.c.obj
 .text.model_app_get
                0x00032844       0x50 examples/serial/CMakeFiles/serial_nrf52840_xxAA_s140_6.0.0.dir/__/__/mesh/serial/src/serial_handler_access.c.obj
 .text.model_app_unbind
                0x00032894       0x24 examples/serial/CMakeFiles/serial_nrf52840_xxAA_s140_6.0.0.dir/__/__/mesh/serial/src/serial_handler_access.c.obj
 .text.model_app_bind
                0x000328b8       0x24 examples/serial/CMakeFiles/serial_nrf52840_xxAA_s140_6.0.0.dir/__/__/mesh/serial/src/serial_handler_access.c.obj
 .text.model_subs_get
                0x000328dc       0x50 examples/serial/CMakeFiles/serial_nrf52840_xxAA_s140_6.0.0.dir/__/__/mesh/serial/src/serial_handler_access.c.obj
 .text.model_subs_remove
                0x0003292c       0x24 examples/serial/CMakeFiles/serial_nrf52840_xxAA_s140_6.0.0.dir/__/__/mesh/serial/src/serial_handler_access.c.obj
 .text.model_subs_add
                0x00032950       0x24 examples/serial/CMakeFiles/serial_nrf52840_xxAA_s140_6.0.0.dir/__/__/mesh/serial/src/serial_handler_access.c.obj
 .text.model_pub_period_get
                0x00032974       0x24 examples/serial/CMakeFiles/serial_nrf52840_xxAA_s140_6.0.0.dir/__/__/mesh/serial/src/serial_handler_access.c.obj
 .text.model_pub_period_set
                0x00032998       0x24 examples/serial/CMakeFiles/serial_nrf52840_xxAA_s140_6.0.0.dir/__/__/mesh/serial/src/serial_handler_access.c.obj
 .text.model_pub_addr_get
                0x000329bc       0x20 examples/serial/CMakeFiles/serial_nrf52840_xxAA_s140_6.0.0.dir/__/__/mesh/serial/src/serial_handler_access.c.obj
 .text.model_pub_addr_set
                0x000329dc       0x24 examples/serial/CMakeFiles/serial_nrf52840_xxAA_s140_6.0.0.dir/__/__/mesh/serial/src/serial_handler_access.c.obj
 .text.serial_handler_access_rx
                0x00032a00       0x24 examples/serial/CMakeFiles/serial_nrf52840_xxAA_s140_6.0.0.dir/__/__/mesh/serial/src/serial_handler_access.c.obj
                0x00032a00                serial_handler_access_rx
 .text.serial_handler_config_rx
                0x00032a24       0xe8 examples/serial/CMakeFiles/serial_nrf52840_xxAA_s140_6.0.0.dir/__/__/mesh/serial/src/serial_handler_config.c.obj
                0x00032a24                serial_handler_config_rx
 .text.serial_handler_openmesh_rx
                0x00032b0c       0x38 examples/serial/CMakeFiles/serial_nrf52840_xxAA_s140_6.0.0.dir/__/__/mesh/serial/src/serial_handler_openmesh.c.obj
                0x00032b0c                serial_handler_openmesh_rx
 .text.serial_process_cmd
                0x00032b44      0x1f0 examples/serial/CMakeFiles/serial_nrf52840_xxAA_s140_6.0.0.dir/__/__/mesh/serial/src/serial.c.obj
 .text.serial_init
                0x00032d34       0x1c examples/serial/CMakeFiles/serial_nrf52840_xxAA_s140_6.0.0.dir/__/__/mesh/serial/src/serial.c.obj
                0x00032d34                serial_init
 .text.serial_start
                0x00032d50      0x128 examples/serial/CMakeFiles/serial_nrf52840_xxAA_s140_6.0.0.dir/__/__/mesh/serial/src/serial.c.obj
                0x00032d50                serial_start
 .text.serial_packet_buffer_get
                0x00032e78       0x14 examples/serial/CMakeFiles/serial_nrf52840_xxAA_s140_6.0.0.dir/__/__/mesh/serial/src/serial.c.obj
                0x00032e78                serial_packet_buffer_get
 .text.serial_tx
                0x00032e8c       0x20 examples/serial/CMakeFiles/serial_nrf52840_xxAA_s140_6.0.0.dir/__/__/mesh/serial/src/serial.c.obj
                0x00032e8c                serial_tx
 .text.serial_process
                0x00032eac       0x34 examples/serial/CMakeFiles/serial_nrf52840_xxAA_s140_6.0.0.dir/__/__/mesh/serial/src/serial.c.obj
                0x00032eac                serial_process
 .text.serial_translate_error
                0x00032ee0       0x70 examples/serial/CMakeFiles/serial_nrf52840_xxAA_s140_6.0.0.dir/__/__/mesh/serial/src/serial.c.obj
                0x00032ee0                serial_translate_error
 .text.serial_state_get
                0x00032f50        0xc examples/serial/CMakeFiles/serial_nrf52840_xxAA_s140_6.0.0.dir/__/__/mesh/serial/src/serial.c.obj
                0x00032f50                serial_state_get
 .text.serial_cmd_rsp_send
                0x00032f5c       0x78 examples/serial/CMakeFiles/serial_nrf52840_xxAA_s140_6.0.0.dir/__/__/mesh/serial/src/serial.c.obj
                0x00032f5c                serial_cmd_rsp_send
 .text.serial_handler_prov_evt_in
                0x00032fd4      0x350 examples/serial/CMakeFiles/serial_nrf52840_xxAA_s140_6.0.0.dir/__/__/mesh/serial/src/serial_handler_prov.c.obj
 .text.serial_handler_prov_init
                0x00033324       0xd4 examples/serial/CMakeFiles/serial_nrf52840_xxAA_s140_6.0.0.dir/__/__/mesh/serial/src/serial_handler_prov.c.obj
                0x00033324                serial_handler_prov_init
 .text.serial_handler_prov_pkt_in
                0x000333f8      0x27c examples/serial/CMakeFiles/serial_nrf52840_xxAA_s140_6.0.0.dir/__/__/mesh/serial/src/serial_handler_prov.c.obj
                0x000333f8                serial_handler_prov_pkt_in
 .text.serial_handler_mesh_evt_handle
                0x00033674      0x1bc examples/serial/CMakeFiles/serial_nrf52840_xxAA_s140_6.0.0.dir/__/__/mesh/serial/src/serial_handler_dfu.c.obj
 .text.serial_handler_dfu_init
                0x00033830       0x14 examples/serial/CMakeFiles/serial_nrf52840_xxAA_s140_6.0.0.dir/__/__/mesh/serial/src/serial_handler_dfu.c.obj
                0x00033830                serial_handler_dfu_init
 .text.serial_handler_dfu_rx
                0x00033844      0x16c examples/serial/CMakeFiles/serial_nrf52840_xxAA_s140_6.0.0.dir/__/__/mesh/serial/src/serial_handler_dfu.c.obj
                0x00033844                serial_handler_dfu_rx
 .text.serial_handler_mesh_evt_handle
                0x000339b0      0x118 examples/serial/CMakeFiles/serial_nrf52840_xxAA_s140_6.0.0.dir/__/__/mesh/serial/src/serial_handler_mesh.c.obj
 .text.handle_cmd_clear
                0x00033ac8       0x20 examples/serial/CMakeFiles/serial_nrf52840_xxAA_s140_6.0.0.dir/__/__/mesh/serial/src/serial_handler_mesh.c.obj
 .text.handle_cmd_packet_send
                0x00033ae8       0xa4 examples/serial/CMakeFiles/serial_nrf52840_xxAA_s140_6.0.0.dir/__/__/mesh/serial/src/serial_handler_mesh.c.obj
 .text.handle_cmd_addr_virtual_count_max_get
                0x00033b8c       0x1c examples/serial/CMakeFiles/serial_nrf52840_xxAA_s140_6.0.0.dir/__/__/mesh/serial/src/serial_handler_mesh.c.obj
 .text.handle_cmd_addr_nonvirtual_count_max_get
                0x00033ba8       0x1c examples/serial/CMakeFiles/serial_nrf52840_xxAA_s140_6.0.0.dir/__/__/mesh/serial/src/serial_handler_mesh.c.obj
 .text.handle_cmd_addr_local_unicast_get
                0x00033bc4       0x24 examples/serial/CMakeFiles/serial_nrf52840_xxAA_s140_6.0.0.dir/__/__/mesh/serial/src/serial_handler_mesh.c.obj
 .text.handle_cmd_devkey_count_max_get
                0x00033be8       0x1c examples/serial/CMakeFiles/serial_nrf52840_xxAA_s140_6.0.0.dir/__/__/mesh/serial/src/serial_handler_mesh.c.obj
 .text.handle_cmd_addr_get_all
                0x00033c04       0x38 examples/serial/CMakeFiles/serial_nrf52840_xxAA_s140_6.0.0.dir/__/__/mesh/serial/src/serial_handler_mesh.c.obj
 .text.handle_cmd_addr_get
                0x00033c3c       0x64 examples/serial/CMakeFiles/serial_nrf52840_xxAA_s140_6.0.0.dir/__/__/mesh/serial/src/serial_handler_mesh.c.obj
 .text.handle_cmd_addr_publication_remove
                0x00033ca0       0x28 examples/serial/CMakeFiles/serial_nrf52840_xxAA_s140_6.0.0.dir/__/__/mesh/serial/src/serial_handler_mesh.c.obj
 .text.handle_cmd_addr_publication_add_virtual
                0x00033cc8       0x28 examples/serial/CMakeFiles/serial_nrf52840_xxAA_s140_6.0.0.dir/__/__/mesh/serial/src/serial_handler_mesh.c.obj
 .text.handle_cmd_addr_publication_add
                0x00033cf0       0x28 examples/serial/CMakeFiles/serial_nrf52840_xxAA_s140_6.0.0.dir/__/__/mesh/serial/src/serial_handler_mesh.c.obj
 .text.handle_cmd_addr_subscription_remove
                0x00033d18       0x28 examples/serial/CMakeFiles/serial_nrf52840_xxAA_s140_6.0.0.dir/__/__/mesh/serial/src/serial_handler_mesh.c.obj
 .text.handle_cmd_addr_subscription_add_virtual
                0x00033d40       0x28 examples/serial/CMakeFiles/serial_nrf52840_xxAA_s140_6.0.0.dir/__/__/mesh/serial/src/serial_handler_mesh.c.obj
 .text.handle_cmd_addr_subscription_add
                0x00033d68       0x28 examples/serial/CMakeFiles/serial_nrf52840_xxAA_s140_6.0.0.dir/__/__/mesh/serial/src/serial_handler_mesh.c.obj
 .text.handle_cmd_addr_local_unicast_set
                0x00033d90       0x24 examples/serial/CMakeFiles/serial_nrf52840_xxAA_s140_6.0.0.dir/__/__/mesh/serial/src/serial_handler_mesh.c.obj
 .text.handle_cmd_devkey_delete
                0x00033db4       0x28 examples/serial/CMakeFiles/serial_nrf52840_xxAA_s140_6.0.0.dir/__/__/mesh/serial/src/serial_handler_mesh.c.obj
 .text.handle_cmd_devkey_add
                0x00033ddc       0x24 examples/serial/CMakeFiles/serial_nrf52840_xxAA_s140_6.0.0.dir/__/__/mesh/serial/src/serial_handler_mesh.c.obj
 .text.handle_cmd_appkey_get_all
                0x00033e00       0x40 examples/serial/CMakeFiles/serial_nrf52840_xxAA_s140_6.0.0.dir/__/__/mesh/serial/src/serial_handler_mesh.c.obj
 .text.handle_cmd_appkey_delete
                0x00033e40       0x28 examples/serial/CMakeFiles/serial_nrf52840_xxAA_s140_6.0.0.dir/__/__/mesh/serial/src/serial_handler_mesh.c.obj
 .text.handle_cmd_appkey_update
                0x00033e68       0x2c examples/serial/CMakeFiles/serial_nrf52840_xxAA_s140_6.0.0.dir/__/__/mesh/serial/src/serial_handler_mesh.c.obj
 .text.handle_cmd_appkey_add
                0x00033e94       0x2c examples/serial/CMakeFiles/serial_nrf52840_xxAA_s140_6.0.0.dir/__/__/mesh/serial/src/serial_handler_mesh.c.obj
 .text.handle_cmd_subnet_get_all
                0x00033ec0       0x38 examples/serial/CMakeFiles/serial_nrf52840_xxAA_s140_6.0.0.dir/__/__/mesh/serial/src/serial_handler_mesh.c.obj
 .text.handle_cmd_subnet_delete
                0x00033ef8       0x28 examples/serial/CMakeFiles/serial_nrf52840_xxAA_s140_6.0.0.dir/__/__/mesh/serial/src/serial_handler_mesh.c.obj
 .text.handle_cmd_subnet_update
                0x00033f20       0x2c examples/serial/CMakeFiles/serial_nrf52840_xxAA_s140_6.0.0.dir/__/__/mesh/serial/src/serial_handler_mesh.c.obj
 .text.handle_cmd_subnet_add
                0x00033f4c       0x2c examples/serial/CMakeFiles/serial_nrf52840_xxAA_s140_6.0.0.dir/__/__/mesh/serial/src/serial_handler_mesh.c.obj
 .text.handle_cmd_disable
                0x00033f78       0x18 examples/serial/CMakeFiles/serial_nrf52840_xxAA_s140_6.0.0.dir/__/__/mesh/serial/src/serial_handler_mesh.c.obj
 .text.handle_cmd_enable
                0x00033f90       0x18 examples/serial/CMakeFiles/serial_nrf52840_xxAA_s140_6.0.0.dir/__/__/mesh/serial/src/serial_handler_mesh.c.obj
 .text.handle_cmd_appkey_count_max_get
                0x00033fa8       0x1c examples/serial/CMakeFiles/serial_nrf52840_xxAA_s140_6.0.0.dir/__/__/mesh/serial/src/serial_handler_mesh.c.obj
 .text.handle_cmd_subnet_count_max_get
                0x00033fc4       0x1c examples/serial/CMakeFiles/serial_nrf52840_xxAA_s140_6.0.0.dir/__/__/mesh/serial/src/serial_handler_mesh.c.obj
 .text.serial_handler_mesh_init
                0x00033fe0       0x14 examples/serial/CMakeFiles/serial_nrf52840_xxAA_s140_6.0.0.dir/__/__/mesh/serial/src/serial_handler_mesh.c.obj
                0x00033fe0                serial_handler_mesh_init
 .text.serial_handler_mesh_rx
                0x00033ff4       0x78 examples/serial/CMakeFiles/serial_nrf52840_xxAA_s140_6.0.0.dir/__/__/mesh/serial/src/serial_handler_mesh.c.obj
                0x00033ff4                serial_handler_mesh_rx
 .text.model_command
                0x0003406c       0x8c examples/serial/CMakeFiles/serial_nrf52840_xxAA_s140_6.0.0.dir/__/__/mesh/serial/src/serial_handler_models.c.obj
 .text.models_get
                0x000340f8       0x74 examples/serial/CMakeFiles/serial_nrf52840_xxAA_s140_6.0.0.dir/__/__/mesh/serial/src/serial_handler_models.c.obj
 .text.model_init
                0x0003416c       0x64 examples/serial/CMakeFiles/serial_nrf52840_xxAA_s140_6.0.0.dir/__/__/mesh/serial/src/serial_handler_models.c.obj
 .text.serial_handler_models_rx
                0x000341d0       0x24 examples/serial/CMakeFiles/serial_nrf52840_xxAA_s140_6.0.0.dir/__/__/mesh/serial/src/serial_handler_models.c.obj
                0x000341d0                serial_handler_models_rx
 .text.handle_cmd_device_fw_info_get
                0x000341f4        0xc examples/serial/CMakeFiles/serial_nrf52840_xxAA_s140_6.0.0.dir/__/__/mesh/serial/src/serial_handler_device.c.obj
 .text.handle_cmd_device_serial_version_get
                0x00034200       0x1c examples/serial/CMakeFiles/serial_nrf52840_xxAA_s140_6.0.0.dir/__/__/mesh/serial/src/serial_handler_device.c.obj
 .text.handle_cmd_device_beacon_params_set
                0x0003421c       0x8c examples/serial/CMakeFiles/serial_nrf52840_xxAA_s140_6.0.0.dir/__/__/mesh/serial/src/serial_handler_device.c.obj
 .text.handle_cmd_device_beacon_stop
                0x000342a8       0x48 examples/serial/CMakeFiles/serial_nrf52840_xxAA_s140_6.0.0.dir/__/__/mesh/serial/src/serial_handler_device.c.obj
 .text.handle_cmd_device_beacon_start
                0x000342f0       0x70 examples/serial/CMakeFiles/serial_nrf52840_xxAA_s140_6.0.0.dir/__/__/mesh/serial/src/serial_handler_device.c.obj
 .text.handle_cmd_device_radio_reset
                0x00034360       0x1c examples/serial/CMakeFiles/serial_nrf52840_xxAA_s140_6.0.0.dir/__/__/mesh/serial/src/serial_handler_device.c.obj
 .text.handle_cmd_device_echo
                0x0003437c       0x34 examples/serial/CMakeFiles/serial_nrf52840_xxAA_s140_6.0.0.dir/__/__/mesh/serial/src/serial_handler_device.c.obj
 .text.handle_cmd_device_beacon_params_get
                0x000343b0       0xf4 examples/serial/CMakeFiles/serial_nrf52840_xxAA_s140_6.0.0.dir/__/__/mesh/serial/src/serial_handler_device.c.obj
 .text.handle_cmd_device_internal_events_report
                0x000344a4        0xc examples/serial/CMakeFiles/serial_nrf52840_xxAA_s140_6.0.0.dir/__/__/mesh/serial/src/serial_handler_device.c.obj
 .text.serial_handler_device_init
                0x000344b0       0x20 examples/serial/CMakeFiles/serial_nrf52840_xxAA_s140_6.0.0.dir/__/__/mesh/serial/src/serial_handler_device.c.obj
                0x000344b0                serial_handler_device_init
 .text.serial_handler_device_rx
                0x000344d0       0x24 examples/serial/CMakeFiles/serial_nrf52840_xxAA_s140_6.0.0.dir/__/__/mesh/serial/src/serial_handler_device.c.obj
                0x000344d0                serial_handler_device_rx
 .text.nrf_mesh_serial_init
                0x000344f4       0x3c examples/serial/CMakeFiles/serial_nrf52840_xxAA_s140_6.0.0.dir/__/__/mesh/serial/src/nrf_mesh_serial.c.obj
                0x000344f4                nrf_mesh_serial_init
 .text.nrf_mesh_serial_enable
                0x00034530        0x4 examples/serial/CMakeFiles/serial_nrf52840_xxAA_s140_6.0.0.dir/__/__/mesh/serial/src/nrf_mesh_serial.c.obj
                0x00034530                nrf_mesh_serial_enable
 .text.serial_handler_app_cb_set
                0x00034534        0xc examples/serial/CMakeFiles/serial_nrf52840_xxAA_s140_6.0.0.dir/__/__/mesh/serial/src/serial_handler_app.c.obj
                0x00034534                serial_handler_app_cb_set
 .text.serial_handler_app_rx
                0x00034540       0x30 examples/serial/CMakeFiles/serial_nrf52840_xxAA_s140_6.0.0.dir/__/__/mesh/serial/src/serial_handler_app.c.obj
                0x00034540                serial_handler_app_rx
 .text._weak_handler
                0x00034570        0x4 examples/serial/CMakeFiles/serial_nrf52840_xxAA_s140_6.0.0.dir/__/nrf_mesh_weak.c.obj
                0x00034570                nrf_mesh_dfu_init
                0x00034570                nrf_mesh_dfu_jump_to_bootloader
                0x00034570                nrf_mesh_dfu_rx
                0x00034570                nrf_mesh_dfu_bank_info_get
                0x00034570                nrf_mesh_dfu_request
                0x00034570                nrf_mesh_dfu_bank_flash
                0x00034570                _weak_handler
                0x00034570                nrf_mesh_dfu_relay
                0x00034570                nrf_mesh_dfu_abort
                0x00034570                mesh_flash_op_execute
                0x00034570                prov_provisionee_init
                0x00034570                nrf_mesh_dfu_state_get
 .text.app_error_fault_handler
                0x00034574      0x240 examples/serial/CMakeFiles/serial_nrf52840_xxAA_s140_6.0.0.dir/__/common/src/app_error_weak.c.obj
                0x00034574                app_error_fault_handler
 .text.mesh_assertion_handler
                0x000347b4       0x24 examples/serial/CMakeFiles/serial_nrf52840_xxAA_s140_6.0.0.dir/__/common/src/assertion_handler_weak.c.obj
                0x000347b4                mesh_assertion_handler
 .text.nrf_mesh_configure_device_uuid_set
                0x000347d8       0x10 examples/serial/CMakeFiles/serial_nrf52840_xxAA_s140_6.0.0.dir/__/__/mesh/core/src/nrf_mesh_configure.c.obj
                0x000347d8                nrf_mesh_configure_device_uuid_set
 .text.nrf_mesh_configure_device_uuid_reset
                0x000347e8       0x2c examples/serial/CMakeFiles/serial_nrf52840_xxAA_s140_6.0.0.dir/__/__/mesh/core/src/nrf_mesh_configure.c.obj
                0x000347e8                nrf_mesh_configure_device_uuid_reset
 .text.nrf_mesh_configure_device_uuid_get
                0x00034814        0x8 examples/serial/CMakeFiles/serial_nrf52840_xxAA_s140_6.0.0.dir/__/__/mesh/core/src/nrf_mesh_configure.c.obj
                0x00034814                nrf_mesh_configure_device_uuid_get
 .text.sd_ecb_block_encrypt
                0x0003481c        0x4 examples/serial/CMakeFiles/serial_nrf52840_xxAA_s140_6.0.0.dir/__/__/mesh/core/src/aes.c.obj
 .text.aes_encrypt
                0x00034820       0x34 examples/serial/CMakeFiles/serial_nrf52840_xxAA_s140_6.0.0.dir/__/__/mesh/core/src/aes.c.obj
                0x00034820                aes_encrypt
 .text.msg_cache_init
                0x00034854       0x24 examples/serial/CMakeFiles/serial_nrf52840_xxAA_s140_6.0.0.dir/__/__/mesh/core/src/msg_cache.c.obj
                0x00034854                msg_cache_init
 .text.msg_cache_entry_exists
                0x00034878       0x40 examples/serial/CMakeFiles/serial_nrf52840_xxAA_s140_6.0.0.dir/__/__/mesh/core/src/msg_cache.c.obj
                0x00034878                msg_cache_entry_exists
 .text.msg_cache_entry_add
                0x000348b8       0x30 examples/serial/CMakeFiles/serial_nrf52840_xxAA_s140_6.0.0.dir/__/__/mesh/core/src/msg_cache.c.obj
                0x000348b8                msg_cache_entry_add
 .text.tx_complete
                0x000348e8       0x30 examples/serial/CMakeFiles/serial_nrf52840_xxAA_s140_6.0.0.dir/__/__/mesh/core/src/transport.c.obj
 .text.upper_trs_packet_encrypt
                0x00034918       0xb4 examples/serial/CMakeFiles/serial_nrf52840_xxAA_s140_6.0.0.dir/__/__/mesh/core/src/transport.c.obj
 .text.trs_sar_packet_out
                0x000349cc      0x1a4 examples/serial/CMakeFiles/serial_nrf52840_xxAA_s140_6.0.0.dir/__/__/mesh/core/src/transport.c.obj
 .text.upper_transport_tx.part.25
                0x00034b70      0x34c examples/serial/CMakeFiles/serial_nrf52840_xxAA_s140_6.0.0.dir/__/__/mesh/core/src/transport.c.obj
 .text.sar_ack_send.part.29
                0x00034ebc       0xd4 examples/serial/CMakeFiles/serial_nrf52840_xxAA_s140_6.0.0.dir/__/__/mesh/core/src/transport.c.obj
 .text.ack_timeout
                0x00034f90       0x34 examples/serial/CMakeFiles/serial_nrf52840_xxAA_s140_6.0.0.dir/__/__/mesh/core/src/transport.c.obj
 .text.upper_transport_access_packet_in
                0x00034fc4      0x334 examples/serial/CMakeFiles/serial_nrf52840_xxAA_s140_6.0.0.dir/__/__/mesh/core/src/transport.c.obj
 .text.sar_ctx_cancel
                0x000352f8      0x148 examples/serial/CMakeFiles/serial_nrf52840_xxAA_s140_6.0.0.dir/__/__/mesh/core/src/transport.c.obj
 .text.retry_timeout
                0x00035440       0x98 examples/serial/CMakeFiles/serial_nrf52840_xxAA_s140_6.0.0.dir/__/__/mesh/core/src/transport.c.obj
 .text.transport_sar_process
                0x000354d8      0x288 examples/serial/CMakeFiles/serial_nrf52840_xxAA_s140_6.0.0.dir/__/__/mesh/core/src/transport.c.obj
 .text.upper_transport_packet_in
                0x00035760      0x2e4 examples/serial/CMakeFiles/serial_nrf52840_xxAA_s140_6.0.0.dir/__/__/mesh/core/src/transport.c.obj
 .text.abort_timeout
                0x00035a44      0x13c examples/serial/CMakeFiles/serial_nrf52840_xxAA_s140_6.0.0.dir/__/__/mesh/core/src/transport.c.obj
 .text.transport_init
                0x00035b80       0xac examples/serial/CMakeFiles/serial_nrf52840_xxAA_s140_6.0.0.dir/__/__/mesh/core/src/transport.c.obj
                0x00035b80                transport_init
 .text.transport_packet_in
                0x00035c2c      0x770 examples/serial/CMakeFiles/serial_nrf52840_xxAA_s140_6.0.0.dir/__/__/mesh/core/src/transport.c.obj
                0x00035c2c                transport_packet_in
 .text.transport_tx
                0x0003639c      0x100 examples/serial/CMakeFiles/serial_nrf52840_xxAA_s140_6.0.0.dir/__/__/mesh/core/src/transport.c.obj
                0x0003639c                transport_tx
 .text.transport_control_tx
                0x0003649c       0xc0 examples/serial/CMakeFiles/serial_nrf52840_xxAA_s140_6.0.0.dir/__/__/mesh/core/src/transport.c.obj
                0x0003649c                transport_control_tx
 .text.transport_opt_set
                0x0003655c       0xdc examples/serial/CMakeFiles/serial_nrf52840_xxAA_s140_6.0.0.dir/__/__/mesh/core/src/transport.c.obj
                0x0003655c                transport_opt_set
 .text.transport_opt_get
                0x00036638       0x84 examples/serial/CMakeFiles/serial_nrf52840_xxAA_s140_6.0.0.dir/__/__/mesh/core/src/transport.c.obj
                0x00036638                transport_opt_get
 .text.transport_control_packet_consumer_add
                0x000366bc       0x60 examples/serial/CMakeFiles/serial_nrf52840_xxAA_s140_6.0.0.dir/__/__/mesh/core/src/transport.c.obj
                0x000366bc                transport_control_packet_consumer_add
 .text.event_handle
                0x0003671c       0x28 examples/serial/CMakeFiles/serial_nrf52840_xxAA_s140_6.0.0.dir/__/__/mesh/core/src/event.c.obj
                0x0003671c                event_handle
 .text.event_handler_add
                0x00036744       0x28 examples/serial/CMakeFiles/serial_nrf52840_xxAA_s140_6.0.0.dir/__/__/mesh/core/src/event.c.obj
                0x00036744                event_handler_add
 .text.event_handler_remove
                0x0003676c       0x28 examples/serial/CMakeFiles/serial_nrf52840_xxAA_s140_6.0.0.dir/__/__/mesh/core/src/event.c.obj
                0x0003676c                event_handler_remove
 .text.packet_buffer_max_packet_len_get
                0x00036794       0x24 examples/serial/CMakeFiles/serial_nrf52840_xxAA_s140_6.0.0.dir/__/__/mesh/core/src/packet_buffer.c.obj
                0x00036794                packet_buffer_max_packet_len_get
 .text.packet_buffer_init
                0x000367b8       0xb4 examples/serial/CMakeFiles/serial_nrf52840_xxAA_s140_6.0.0.dir/__/__/mesh/core/src/packet_buffer.c.obj
                0x000367b8                packet_buffer_init
 .text.packet_buffer_flush
                0x0003686c       0x74 examples/serial/CMakeFiles/serial_nrf52840_xxAA_s140_6.0.0.dir/__/__/mesh/core/src/packet_buffer.c.obj
                0x0003686c                packet_buffer_flush
 .text.packet_buffer_reserve
                0x000368e0       0x9c examples/serial/CMakeFiles/serial_nrf52840_xxAA_s140_6.0.0.dir/__/__/mesh/core/src/packet_buffer.c.obj
                0x000368e0                packet_buffer_reserve
 .text.packet_buffer_commit
                0x0003697c       0x7c examples/serial/CMakeFiles/serial_nrf52840_xxAA_s140_6.0.0.dir/__/__/mesh/core/src/packet_buffer.c.obj
                0x0003697c                packet_buffer_commit
 .text.packet_buffer_pop
                0x000369f8       0x50 examples/serial/CMakeFiles/serial_nrf52840_xxAA_s140_6.0.0.dir/__/__/mesh/core/src/packet_buffer.c.obj
                0x000369f8                packet_buffer_pop
 .text.packet_buffer_can_pop
                0x00036a48       0x24 examples/serial/CMakeFiles/serial_nrf52840_xxAA_s140_6.0.0.dir/__/__/mesh/core/src/packet_buffer.c.obj
                0x00036a48                packet_buffer_can_pop
 .text.packet_buffer_packets_ready_to_pop
                0x00036a6c       0x48 examples/serial/CMakeFiles/serial_nrf52840_xxAA_s140_6.0.0.dir/__/__/mesh/core/src/packet_buffer.c.obj
                0x00036a6c                packet_buffer_packets_ready_to_pop
 .text.packet_buffer_free
                0x00036ab4       0x8c examples/serial/CMakeFiles/serial_nrf52840_xxAA_s140_6.0.0.dir/__/__/mesh/core/src/packet_buffer.c.obj
                0x00036ab4                packet_buffer_free
 .text.flash_manager_defrag_is_running
                0x00036b40       0x10 examples/serial/CMakeFiles/serial_nrf52840_xxAA_s140_6.0.0.dir/__/__/mesh/core/src/flash_manager_defrag.c.obj
                0x00036b40                flash_manager_defrag_is_running
 .text.fifo_init
                0x00036b50       0x38 examples/serial/CMakeFiles/serial_nrf52840_xxAA_s140_6.0.0.dir/__/__/mesh/core/src/fifo.c.obj
                0x00036b50                fifo_init
 .text.fifo_push
                0x00036b88       0x54 examples/serial/CMakeFiles/serial_nrf52840_xxAA_s140_6.0.0.dir/__/__/mesh/core/src/fifo.c.obj
                0x00036b88                fifo_push
 .text.fifo_pop
                0x00036bdc       0x58 examples/serial/CMakeFiles/serial_nrf52840_xxAA_s140_6.0.0.dir/__/__/mesh/core/src/fifo.c.obj
                0x00036bdc                fifo_pop
 .text.packet_mgr_init
                0x00036c34       0x4c examples/serial/CMakeFiles/serial_nrf52840_xxAA_s140_6.0.0.dir/__/__/mesh/core/src/packet_mgr.c.obj
                0x00036c34                packet_mgr_init
 .text.iv_update_trigger_if_pending
                0x00036c80       0xdc examples/serial/CMakeFiles/serial_nrf52840_xxAA_s140_6.0.0.dir/__/__/mesh/core/src/net_state.c.obj
 .text.mesh_evt_handler
                0x00036d5c       0x98 examples/serial/CMakeFiles/serial_nrf52840_xxAA_s140_6.0.0.dir/__/__/mesh/core/src/net_state.c.obj
 .text.iv_update_timer_handler
                0x00036df4       0x70 examples/serial/CMakeFiles/serial_nrf52840_xxAA_s140_6.0.0.dir/__/__/mesh/core/src/net_state.c.obj
 .text.net_state_recover_from_flash
                0x00036e64        0x4 examples/serial/CMakeFiles/serial_nrf52840_xxAA_s140_6.0.0.dir/__/__/mesh/core/src/net_state.c.obj
                0x00036e64                net_state_recover_from_flash
 .text.net_state_reset
                0x00036e68       0x1c examples/serial/CMakeFiles/serial_nrf52840_xxAA_s140_6.0.0.dir/__/__/mesh/core/src/net_state.c.obj
                0x00036e68                net_state_reset
 .text.net_state_init
                0x00036e84       0x60 examples/serial/CMakeFiles/serial_nrf52840_xxAA_s140_6.0.0.dir/__/__/mesh/core/src/net_state.c.obj
                0x00036e84                net_state_init
 .text.net_state_seqnum_alloc
                0x00036ee4       0x50 examples/serial/CMakeFiles/serial_nrf52840_xxAA_s140_6.0.0.dir/__/__/mesh/core/src/net_state.c.obj
                0x00036ee4                net_state_seqnum_alloc
 .text.net_state_iv_index_lock
                0x00036f34      0x100 examples/serial/CMakeFiles/serial_nrf52840_xxAA_s140_6.0.0.dir/__/__/mesh/core/src/net_state.c.obj
                0x00036f34                net_state_iv_index_lock
 .text.net_state_key_refresh_phase_changed
                0x00037034       0x20 examples/serial/CMakeFiles/serial_nrf52840_xxAA_s140_6.0.0.dir/__/__/mesh/core/src/net_state.c.obj
                0x00037034                net_state_key_refresh_phase_changed
 .text.net_state_beacon_iv_index_get
                0x00037054        0xc examples/serial/CMakeFiles/serial_nrf52840_xxAA_s140_6.0.0.dir/__/__/mesh/core/src/net_state.c.obj
                0x00037054                net_state_beacon_iv_index_get
 .text.net_state_tx_iv_index_get
                0x00037060       0x14 examples/serial/CMakeFiles/serial_nrf52840_xxAA_s140_6.0.0.dir/__/__/mesh/core/src/net_state.c.obj
                0x00037060                net_state_tx_iv_index_get
 .text.net_state_rx_iv_index_get
                0x00037074       0x18 examples/serial/CMakeFiles/serial_nrf52840_xxAA_s140_6.0.0.dir/__/__/mesh/core/src/net_state.c.obj
                0x00037074                net_state_rx_iv_index_get
 .text.net_state_iv_update_get
                0x0003708c        0xc examples/serial/CMakeFiles/serial_nrf52840_xxAA_s140_6.0.0.dir/__/__/mesh/core/src/net_state.c.obj
                0x0003708c                net_state_iv_update_get
 .text.net_state_iv_index_set
                0x00037098       0x2c examples/serial/CMakeFiles/serial_nrf52840_xxAA_s140_6.0.0.dir/__/__/mesh/core/src/net_state.c.obj
                0x00037098                net_state_iv_index_set
 .text.send_end_events
                0x000370c4       0x90 examples/serial/CMakeFiles/serial_nrf52840_xxAA_s140_6.0.0.dir/__/__/mesh/core/src/mesh_flash.c.obj
 .text.mesh_flash_init
                0x00037154       0x88 examples/serial/CMakeFiles/serial_nrf52840_xxAA_s140_6.0.0.dir/__/__/mesh/core/src/mesh_flash.c.obj
                0x00037154                mesh_flash_init
 .text.nrf_mesh_address_type_get
                0x000371dc       0x10 examples/serial/CMakeFiles/serial_nrf52840_xxAA_s140_6.0.0.dir/__/__/mesh/core/src/nrf_mesh_utils.c.obj
                0x000371dc                nrf_mesh_address_type_get
 .text.sd_softdevice_is_enabled
                0x000371ec        0x4 examples/serial/CMakeFiles/serial_nrf52840_xxAA_s140_6.0.0.dir/__/__/mesh/core/src/nrf_mesh.c.obj
 .text.nrf_mesh_listen
                0x000371f0      0x1c8 examples/serial/CMakeFiles/serial_nrf52840_xxAA_s140_6.0.0.dir/__/__/mesh/core/src/nrf_mesh.c.obj
 .text.scanner_packet_process_cb
                0x000373b8       0x88 examples/serial/CMakeFiles/serial_nrf52840_xxAA_s140_6.0.0.dir/__/__/mesh/core/src/nrf_mesh.c.obj
 .text.nrf_mesh_init
                0x00037440       0xd0 examples/serial/CMakeFiles/serial_nrf52840_xxAA_s140_6.0.0.dir/__/__/mesh/core/src/nrf_mesh.c.obj
                0x00037440                nrf_mesh_init
 .text.nrf_mesh_enable
                0x00037510       0x48 examples/serial/CMakeFiles/serial_nrf52840_xxAA_s140_6.0.0.dir/__/__/mesh/core/src/nrf_mesh.c.obj
                0x00037510                nrf_mesh_enable
 .text.nrf_mesh_disable
                0x00037558       0x2c examples/serial/CMakeFiles/serial_nrf52840_xxAA_s140_6.0.0.dir/__/__/mesh/core/src/nrf_mesh.c.obj
                0x00037558                nrf_mesh_disable
 .text.nrf_mesh_packet_send
                0x00037584       0x94 examples/serial/CMakeFiles/serial_nrf52840_xxAA_s140_6.0.0.dir/__/__/mesh/core/src/nrf_mesh.c.obj
                0x00037584                nrf_mesh_packet_send
 .text.nrf_mesh_evt_handler_add
                0x00037618        0x4 examples/serial/CMakeFiles/serial_nrf52840_xxAA_s140_6.0.0.dir/__/__/mesh/core/src/nrf_mesh.c.obj
                0x00037618                nrf_mesh_evt_handler_add
 .text.nrf_mesh_on_sd_evt
                0x0003761c        0xc examples/serial/CMakeFiles/serial_nrf52840_xxAA_s140_6.0.0.dir/__/__/mesh/core/src/nrf_mesh.c.obj
                0x0003761c                nrf_mesh_on_sd_evt
 .text.nrf_mesh_subnet_added
                0x00037628        0x4 examples/serial/CMakeFiles/serial_nrf52840_xxAA_s140_6.0.0.dir/__/__/mesh/core/src/nrf_mesh.c.obj
                0x00037628                nrf_mesh_subnet_added
 .text.queue_init
                0x0003762c       0x1c examples/serial/CMakeFiles/serial_nrf52840_xxAA_s140_6.0.0.dir/__/__/mesh/core/src/queue.c.obj
                0x0003762c                queue_init
 .text.queue_push
                0x00037648       0x44 examples/serial/CMakeFiles/serial_nrf52840_xxAA_s140_6.0.0.dir/__/__/mesh/core/src/queue.c.obj
                0x00037648                queue_push
 .text.queue_pop
                0x0003768c       0x2c examples/serial/CMakeFiles/serial_nrf52840_xxAA_s140_6.0.0.dir/__/__/mesh/core/src/queue.c.obj
                0x0003768c                queue_pop
 .text.queue_peek
                0x000376b8       0x14 examples/serial/CMakeFiles/serial_nrf52840_xxAA_s140_6.0.0.dir/__/__/mesh/core/src/queue.c.obj
                0x000376b8                queue_peek
 .text.sd_power_reset_reason_clr
                0x000376cc        0x4 examples/serial/CMakeFiles/serial_nrf52840_xxAA_s140_6.0.0.dir/__/__/mesh/core/src/hal.c.obj
 .text.hal_device_reset
                0x000376d0       0x2c examples/serial/CMakeFiles/serial_nrf52840_xxAA_s140_6.0.0.dir/__/__/mesh/core/src/hal.c.obj
                0x000376d0                hal_device_reset
 .text.hal_lfclk_ppm_get
                0x000376fc       0x14 examples/serial/CMakeFiles/serial_nrf52840_xxAA_s140_6.0.0.dir/__/__/mesh/core/src/hal.c.obj
                0x000376fc                hal_lfclk_ppm_get
 .text.aes_cmac_subkey_generate
                0x00037710      0x2b0 examples/serial/CMakeFiles/serial_nrf52840_xxAA_s140_6.0.0.dir/__/__/mesh/core/src/aes_cmac.c.obj
                0x00037710                aes_cmac_subkey_generate
 .text.aes_cmac
                0x000379c0      0x49c examples/serial/CMakeFiles/serial_nrf52840_xxAA_s140_6.0.0.dir/__/__/mesh/core/src/aes_cmac.c.obj
                0x000379c0                aes_cmac
 .text.timer_cb
                0x00037e5c        0xc examples/serial/CMakeFiles/serial_nrf52840_xxAA_s140_6.0.0.dir/__/__/mesh/core/src/timer_scheduler.c.obj
 .text.add_evt.constprop.1
                0x00037e68       0x60 examples/serial/CMakeFiles/serial_nrf52840_xxAA_s140_6.0.0.dir/__/__/mesh/core/src/timer_scheduler.c.obj
 .text.flag_event_cb
                0x00037ec8      0x328 examples/serial/CMakeFiles/serial_nrf52840_xxAA_s140_6.0.0.dir/__/__/mesh/core/src/timer_scheduler.c.obj
 .text.timer_sch_init
                0x000381f0       0x24 examples/serial/CMakeFiles/serial_nrf52840_xxAA_s140_6.0.0.dir/__/__/mesh/core/src/timer_scheduler.c.obj
                0x000381f0                timer_sch_init
 .text.timer_sch_schedule
                0x00038214       0x64 examples/serial/CMakeFiles/serial_nrf52840_xxAA_s140_6.0.0.dir/__/__/mesh/core/src/timer_scheduler.c.obj
                0x00038214                timer_sch_schedule
 .text.timer_sch_abort
                0x00038278       0x5c examples/serial/CMakeFiles/serial_nrf52840_xxAA_s140_6.0.0.dir/__/__/mesh/core/src/timer_scheduler.c.obj
                0x00038278                timer_sch_abort
 .text.timer_sch_reschedule
                0x000382d4       0x88 examples/serial/CMakeFiles/serial_nrf52840_xxAA_s140_6.0.0.dir/__/__/mesh/core/src/timer_scheduler.c.obj
                0x000382d4                timer_sch_reschedule
 .text.timer_event_handler
                0x0003835c       0xd0 examples/serial/CMakeFiles/serial_nrf52840_xxAA_s140_6.0.0.dir/__/__/mesh/core/src/timer.c.obj
                0x0003835c                timer_event_handler
 .text.timer_order_cb
                0x0003842c       0x98 examples/serial/CMakeFiles/serial_nrf52840_xxAA_s140_6.0.0.dir/__/__/mesh/core/src/timer.c.obj
                0x0003842c                timer_order_cb
 .text.timer_now
                0x000384c4       0x58 examples/serial/CMakeFiles/serial_nrf52840_xxAA_s140_6.0.0.dir/__/__/mesh/core/src/timer.c.obj
                0x000384c4                timer_now
 .text.timer_on_ts_begin
                0x0003851c      0x104 examples/serial/CMakeFiles/serial_nrf52840_xxAA_s140_6.0.0.dir/__/__/mesh/core/src/timer.c.obj
                0x0003851c                timer_on_ts_begin
 .text.timer_on_ts_end
                0x00038620       0x78 examples/serial/CMakeFiles/serial_nrf52840_xxAA_s140_6.0.0.dir/__/__/mesh/core/src/timer.c.obj
                0x00038620                timer_on_ts_end
 .text.timer_cb
                0x00038698       0x10 examples/serial/CMakeFiles/serial_nrf52840_xxAA_s140_6.0.0.dir/__/__/mesh/core/src/ticker.c.obj
 .text.ticker_init
                0x000386a8       0x3c examples/serial/CMakeFiles/serial_nrf52840_xxAA_s140_6.0.0.dir/__/__/mesh/core/src/ticker.c.obj
                0x000386a8                ticker_init
 .text.sd_rand_application_bytes_available_get
                0x000386e4        0x4 examples/serial/CMakeFiles/serial_nrf52840_xxAA_s140_6.0.0.dir/__/__/mesh/core/src/rand.c.obj
 .text.sd_rand_application_vector_get
                0x000386e8        0x4 examples/serial/CMakeFiles/serial_nrf52840_xxAA_s140_6.0.0.dir/__/__/mesh/core/src/rand.c.obj
 .text.rand_prng_seed
                0x000386ec       0x6c examples/serial/CMakeFiles/serial_nrf52840_xxAA_s140_6.0.0.dir/__/__/mesh/core/src/rand.c.obj
                0x000386ec                rand_prng_seed
 .text.rand_prng_get
                0x00038758       0x28 examples/serial/CMakeFiles/serial_nrf52840_xxAA_s140_6.0.0.dir/__/__/mesh/core/src/rand.c.obj
                0x00038758                rand_prng_get
 .text.rand_hw_rng_get
                0x00038780       0x4c examples/serial/CMakeFiles/serial_nrf52840_xxAA_s140_6.0.0.dir/__/__/mesh/core/src/rand.c.obj
                0x00038780                rand_hw_rng_get
 .text.nrf_mesh_opt_set
                0x000387cc       0x28 examples/serial/CMakeFiles/serial_nrf52840_xxAA_s140_6.0.0.dir/__/__/mesh/core/src/nrf_mesh_opt.c.obj
                0x000387cc                nrf_mesh_opt_set
 .text.nrf_mesh_opt_get
                0x000387f4       0x28 examples/serial/CMakeFiles/serial_nrf52840_xxAA_s140_6.0.0.dir/__/__/mesh/core/src/nrf_mesh_opt.c.obj
                0x000387f4                nrf_mesh_opt_get
 .text.sd_radio_session_open
                0x0003881c        0x4 examples/serial/CMakeFiles/serial_nrf52840_xxAA_s140_6.0.0.dir/__/__/mesh/core/src/timeslot.c.obj
 .text.sd_radio_session_close
                0x00038820        0x4 examples/serial/CMakeFiles/serial_nrf52840_xxAA_s140_6.0.0.dir/__/__/mesh/core/src/timeslot.c.obj
 .text.sd_radio_request
                0x00038824        0x4 examples/serial/CMakeFiles/serial_nrf52840_xxAA_s140_6.0.0.dir/__/__/mesh/core/src/timeslot.c.obj
 .text.end_timer_handler
                0x00038828       0x2c examples/serial/CMakeFiles/serial_nrf52840_xxAA_s140_6.0.0.dir/__/__/mesh/core/src/timeslot.c.obj
 .text.radio_signal_callback
                0x00038854      0x2e4 examples/serial/CMakeFiles/serial_nrf52840_xxAA_s140_6.0.0.dir/__/__/mesh/core/src/timeslot.c.obj
 .text.timeslot_sd_event_handler
                0x00038b38       0x44 examples/serial/CMakeFiles/serial_nrf52840_xxAA_s140_6.0.0.dir/__/__/mesh/core/src/timeslot.c.obj
                0x00038b38                timeslot_sd_event_handler
 .text.timeslot_init
                0x00038b7c       0x4c examples/serial/CMakeFiles/serial_nrf52840_xxAA_s140_6.0.0.dir/__/__/mesh/core/src/timeslot.c.obj
                0x00038b7c                timeslot_init
 .text.timeslot_start
                0x00038bc8       0x20 examples/serial/CMakeFiles/serial_nrf52840_xxAA_s140_6.0.0.dir/__/__/mesh/core/src/timeslot.c.obj
                0x00038bc8                timeslot_start
 .text.timeslot_stop
                0x00038be8       0x30 examples/serial/CMakeFiles/serial_nrf52840_xxAA_s140_6.0.0.dir/__/__/mesh/core/src/timeslot.c.obj
                0x00038be8                timeslot_stop
 .text.timeslot_state_lock
                0x00038c18       0x44 examples/serial/CMakeFiles/serial_nrf52840_xxAA_s140_6.0.0.dir/__/__/mesh/core/src/timeslot.c.obj
                0x00038c18                timeslot_state_lock
 .text.timeslot_end_is_pending
                0x00038c5c       0x24 examples/serial/CMakeFiles/serial_nrf52840_xxAA_s140_6.0.0.dir/__/__/mesh/core/src/timeslot.c.obj
                0x00038c5c                timeslot_end_is_pending
 .text.timeslot_start_time_get
                0x00038c80        0xc examples/serial/CMakeFiles/serial_nrf52840_xxAA_s140_6.0.0.dir/__/__/mesh/core/src/timeslot.c.obj
                0x00038c80                timeslot_start_time_get
 .text.timeslot_remaining_time_get
                0x00038c8c       0x40 examples/serial/CMakeFiles/serial_nrf52840_xxAA_s140_6.0.0.dir/__/__/mesh/core/src/timeslot.c.obj
                0x00038c8c                timeslot_remaining_time_get
 .text.timeslot_is_in_cb
                0x00038ccc        0xc examples/serial/CMakeFiles/serial_nrf52840_xxAA_s140_6.0.0.dir/__/__/mesh/core/src/timeslot.c.obj
                0x00038ccc                timeslot_is_in_cb
 .text.timeslot_trigger
                0x00038cd8       0x24 examples/serial/CMakeFiles/serial_nrf52840_xxAA_s140_6.0.0.dir/__/__/mesh/core/src/timeslot.c.obj
                0x00038cd8                timeslot_trigger
 .text.bearer_event_init
                0x00038cfc       0x4c examples/serial/CMakeFiles/serial_nrf52840_xxAA_s140_6.0.0.dir/__/__/mesh/core/src/bearer_event.c.obj
                0x00038cfc                bearer_event_init
 .text.bearer_event_generic_post
                0x00038d48       0x50 examples/serial/CMakeFiles/serial_nrf52840_xxAA_s140_6.0.0.dir/__/__/mesh/core/src/bearer_event.c.obj
                0x00038d48                bearer_event_generic_post
 .text.bearer_event_timer_post
                0x00038d98       0x50 examples/serial/CMakeFiles/serial_nrf52840_xxAA_s140_6.0.0.dir/__/__/mesh/core/src/bearer_event.c.obj
                0x00038d98                bearer_event_timer_post
 .text.bearer_event_critical_section_begin
                0x00038de8       0x44 examples/serial/CMakeFiles/serial_nrf52840_xxAA_s140_6.0.0.dir/__/__/mesh/core/src/bearer_event.c.obj
                0x00038de8                bearer_event_critical_section_begin
 .text.bearer_event_critical_section_end
                0x00038e2c       0x40 examples/serial/CMakeFiles/serial_nrf52840_xxAA_s140_6.0.0.dir/__/__/mesh/core/src/bearer_event.c.obj
                0x00038e2c                bearer_event_critical_section_end
 .text.bearer_event_flag_add
                0x00038e6c       0x40 examples/serial/CMakeFiles/serial_nrf52840_xxAA_s140_6.0.0.dir/__/__/mesh/core/src/bearer_event.c.obj
                0x00038e6c                bearer_event_flag_add
 .text.bearer_event_flag_set
                0x00038eac       0x5c examples/serial/CMakeFiles/serial_nrf52840_xxAA_s140_6.0.0.dir/__/__/mesh/core/src/bearer_event.c.obj
                0x00038eac                bearer_event_flag_set
 .text.bearer_event_sequential_add
                0x00038f08       0x44 examples/serial/CMakeFiles/serial_nrf52840_xxAA_s140_6.0.0.dir/__/__/mesh/core/src/bearer_event.c.obj
                0x00038f08                bearer_event_sequential_add
 .text.bearer_event_sequential_post
                0x00038f4c       0x64 examples/serial/CMakeFiles/serial_nrf52840_xxAA_s140_6.0.0.dir/__/__/mesh/core/src/bearer_event.c.obj
                0x00038f4c                bearer_event_sequential_post
 .text.bearer_event_sequential_pending
                0x00038fb0       0x14 examples/serial/CMakeFiles/serial_nrf52840_xxAA_s140_6.0.0.dir/__/__/mesh/core/src/bearer_event.c.obj
                0x00038fb0                bearer_event_sequential_pending
 .text.bearer_event_handler
                0x00038fc4      0x154 examples/serial/CMakeFiles/serial_nrf52840_xxAA_s140_6.0.0.dir/__/__/mesh/core/src/bearer_event.c.obj
                0x00038fc4                bearer_event_handler
 .text.QDEC_IRQHandler
                0x00039118        0x4 examples/serial/CMakeFiles/serial_nrf52840_xxAA_s140_6.0.0.dir/__/__/mesh/core/src/bearer_event.c.obj
                0x00039118                QDEC_IRQHandler
 .text.enc_aes_encrypt
                0x0003911c        0x4 examples/serial/CMakeFiles/serial_nrf52840_xxAA_s140_6.0.0.dir/__/__/mesh/core/src/enc.c.obj
                0x0003911c                enc_aes_encrypt
 .text.enc_aes_cmac
                0x00039120        0x4 examples/serial/CMakeFiles/serial_nrf52840_xxAA_s140_6.0.0.dir/__/__/mesh/core/src/enc.c.obj
                0x00039120                enc_aes_cmac
 .text.enc_aes_ccm_encrypt
                0x00039124        0x4 examples/serial/CMakeFiles/serial_nrf52840_xxAA_s140_6.0.0.dir/__/__/mesh/core/src/enc.c.obj
                0x00039124                enc_aes_ccm_encrypt
 .text.enc_aes_ccm_decrypt
                0x00039128        0x4 examples/serial/CMakeFiles/serial_nrf52840_xxAA_s140_6.0.0.dir/__/__/mesh/core/src/enc.c.obj
                0x00039128                enc_aes_ccm_decrypt
 .text.enc_nonce_generate
                0x0003912c       0xc8 examples/serial/CMakeFiles/serial_nrf52840_xxAA_s140_6.0.0.dir/__/__/mesh/core/src/enc.c.obj
                0x0003912c                enc_nonce_generate
 .text.enc_s1   0x000391f4       0x30 examples/serial/CMakeFiles/serial_nrf52840_xxAA_s140_6.0.0.dir/__/__/mesh/core/src/enc.c.obj
                0x000391f4                enc_s1
 .text.enc_k1   0x00039224       0x44 examples/serial/CMakeFiles/serial_nrf52840_xxAA_s140_6.0.0.dir/__/__/mesh/core/src/enc.c.obj
                0x00039224                enc_k1
 .text.enc_k2   0x00039268       0xe0 examples/serial/CMakeFiles/serial_nrf52840_xxAA_s140_6.0.0.dir/__/__/mesh/core/src/enc.c.obj
                0x00039268                enc_k2
 .text.enc_k3   0x00039348       0x68 examples/serial/CMakeFiles/serial_nrf52840_xxAA_s140_6.0.0.dir/__/__/mesh/core/src/enc.c.obj
                0x00039348                enc_k3
 .text.enc_k4   0x000393b0       0x60 examples/serial/CMakeFiles/serial_nrf52840_xxAA_s140_6.0.0.dir/__/__/mesh/core/src/enc.c.obj
                0x000393b0                enc_k4
 .text.network_init
                0x00039410       0x28 examples/serial/CMakeFiles/serial_nrf52840_xxAA_s140_6.0.0.dir/__/__/mesh/core/src/network.c.obj
                0x00039410                network_init
 .text.network_opt_set
                0x00039438       0x84 examples/serial/CMakeFiles/serial_nrf52840_xxAA_s140_6.0.0.dir/__/__/mesh/core/src/network.c.obj
                0x00039438                network_opt_set
 .text.network_opt_get
                0x000394bc       0x5c examples/serial/CMakeFiles/serial_nrf52840_xxAA_s140_6.0.0.dir/__/__/mesh/core/src/network.c.obj
                0x000394bc                network_opt_get
 .text.network_packet_alloc
                0x00039518       0x98 examples/serial/CMakeFiles/serial_nrf52840_xxAA_s140_6.0.0.dir/__/__/mesh/core/src/network.c.obj
                0x00039518                network_packet_alloc
 .text.network_packet_send
                0x000395b0       0x50 examples/serial/CMakeFiles/serial_nrf52840_xxAA_s140_6.0.0.dir/__/__/mesh/core/src/network.c.obj
                0x000395b0                network_packet_send
 .text.network_packet_in
                0x00039600      0x1c4 examples/serial/CMakeFiles/serial_nrf52840_xxAA_s140_6.0.0.dir/__/__/mesh/core/src/network.c.obj
                0x00039600                network_packet_in
 .text.net_packet_decrypt
                0x000397c4      0x2dc examples/serial/CMakeFiles/serial_nrf52840_xxAA_s140_6.0.0.dir/__/__/mesh/core/src/net_packet.c.obj
                0x000397c4                net_packet_decrypt
 .text.net_packet_encrypt
                0x00039aa0      0x100 examples/serial/CMakeFiles/serial_nrf52840_xxAA_s140_6.0.0.dir/__/__/mesh/core/src/net_packet.c.obj
                0x00039aa0                net_packet_encrypt
 .text.net_packet_header_set
                0x00039ba0       0xc0 examples/serial/CMakeFiles/serial_nrf52840_xxAA_s140_6.0.0.dir/__/__/mesh/core/src/net_packet.c.obj
                0x00039ba0                net_packet_header_set
 .text.net_packet_payload_len_get
                0x00039c60       0x14 examples/serial/CMakeFiles/serial_nrf52840_xxAA_s140_6.0.0.dir/__/__/mesh/core/src/net_packet.c.obj
                0x00039c60                net_packet_payload_len_get
 .text.net_packet_from_payload
                0x00039c74        0x4 examples/serial/CMakeFiles/serial_nrf52840_xxAA_s140_6.0.0.dir/__/__/mesh/core/src/net_packet.c.obj
                0x00039c74                net_packet_from_payload
 .text.net_packet_obfuscation_start_get
                0x00039c78        0x4 examples/serial/CMakeFiles/serial_nrf52840_xxAA_s140_6.0.0.dir/__/__/mesh/core/src/net_packet.c.obj
                0x00039c78                net_packet_obfuscation_start_get
 .text.msq_init
                0x00039c7c       0x64 examples/serial/CMakeFiles/serial_nrf52840_xxAA_s140_6.0.0.dir/__/__/mesh/core/src/msqueue.c.obj
                0x00039c7c                msq_init
 .text.msq_get  0x00039ce0       0x54 examples/serial/CMakeFiles/serial_nrf52840_xxAA_s140_6.0.0.dir/__/__/mesh/core/src/msqueue.c.obj
                0x00039ce0                msq_get
 .text.msq_move
                0x00039d34       0x4c examples/serial/CMakeFiles/serial_nrf52840_xxAA_s140_6.0.0.dir/__/__/mesh/core/src/msqueue.c.obj
                0x00039d34                msq_move
 .text.msq_available
                0x00039d80       0x44 examples/serial/CMakeFiles/serial_nrf52840_xxAA_s140_6.0.0.dir/__/__/mesh/core/src/msqueue.c.obj
                0x00039d80                msq_available
 .text.nrf_mesh_keygen_aid
                0x00039dc4       0x18 examples/serial/CMakeFiles/serial_nrf52840_xxAA_s140_6.0.0.dir/__/__/mesh/core/src/nrf_mesh_keygen.c.obj
                0x00039dc4                nrf_mesh_keygen_aid
 .text.nrf_mesh_keygen_network_secmat
                0x00039ddc       0x24 examples/serial/CMakeFiles/serial_nrf52840_xxAA_s140_6.0.0.dir/__/__/mesh/core/src/nrf_mesh_keygen.c.obj
                0x00039ddc                nrf_mesh_keygen_network_secmat
 .text.nrf_mesh_keygen_beacon_secmat
                0x00039e00       0x50 examples/serial/CMakeFiles/serial_nrf52840_xxAA_s140_6.0.0.dir/__/__/mesh/core/src/nrf_mesh_keygen.c.obj
                0x00039e00                nrf_mesh_keygen_beacon_secmat
 .text.nrf_mesh_keygen_virtual_address
                0x00039e50       0x50 examples/serial/CMakeFiles/serial_nrf52840_xxAA_s140_6.0.0.dir/__/__/mesh/core/src/nrf_mesh_keygen.c.obj
                0x00039e50                nrf_mesh_keygen_virtual_address
 .text.list_add
                0x00039ea0       0x5c examples/serial/CMakeFiles/serial_nrf52840_xxAA_s140_6.0.0.dir/__/__/mesh/core/src/list.c.obj
                0x00039ea0                list_add
 .text.list_remove
                0x00039efc       0x44 examples/serial/CMakeFiles/serial_nrf52840_xxAA_s140_6.0.0.dir/__/__/mesh/core/src/list.c.obj
                0x00039efc                list_remove
 .text.list_compare_add
                0x00039f40       0x78 examples/serial/CMakeFiles/serial_nrf52840_xxAA_s140_6.0.0.dir/__/__/mesh/core/src/list.c.obj
                0x00039f40                list_compare_add
 .text.log_callback_rtt
                0x00039fb8       0x2c examples/serial/CMakeFiles/serial_nrf52840_xxAA_s140_6.0.0.dir/__/__/mesh/core/src/log.c.obj
                0x00039fb8                log_callback_rtt
 .text.log_init
                0x00039fe4       0x20 examples/serial/CMakeFiles/serial_nrf52840_xxAA_s140_6.0.0.dir/__/__/mesh/core/src/log.c.obj
                0x00039fe4                log_init
 .text.log_printf
                0x0003a004       0x20 examples/serial/CMakeFiles/serial_nrf52840_xxAA_s140_6.0.0.dir/__/__/mesh/core/src/log.c.obj
                0x0003a004                log_printf
 .text.flash_manager_is_stable
                0x0003a024       0x20 examples/serial/CMakeFiles/serial_nrf52840_xxAA_s140_6.0.0.dir/__/__/mesh/core/src/flash_manager.c.obj
                0x0003a024                flash_manager_is_stable
 .text.ccm_soft_crypt.constprop.0
                0x0003a044      0x298 examples/serial/CMakeFiles/serial_nrf52840_xxAA_s140_6.0.0.dir/__/__/mesh/core/src/ccm_soft.c.obj
 .text.ccm_soft_authenticate
                0x0003a2dc      0x324 examples/serial/CMakeFiles/serial_nrf52840_xxAA_s140_6.0.0.dir/__/__/mesh/core/src/ccm_soft.c.obj
 .text.ccm_soft_encrypt
                0x0003a600       0x78 examples/serial/CMakeFiles/serial_nrf52840_xxAA_s140_6.0.0.dir/__/__/mesh/core/src/ccm_soft.c.obj
                0x0003a600                ccm_soft_encrypt
 .text.ccm_soft_decrypt
                0x0003a678      0x10c examples/serial/CMakeFiles/serial_nrf52840_xxAA_s140_6.0.0.dir/__/__/mesh/core/src/ccm_soft.c.obj
                0x0003a678                ccm_soft_decrypt
 .text.replay_cache_init
                0x0003a784       0x20 examples/serial/CMakeFiles/serial_nrf52840_xxAA_s140_6.0.0.dir/__/__/mesh/core/src/replay_cache.c.obj
                0x0003a784                replay_cache_init
 .text.replay_cache_add
                0x0003a7a4       0x5c examples/serial/CMakeFiles/serial_nrf52840_xxAA_s140_6.0.0.dir/__/__/mesh/core/src/replay_cache.c.obj
                0x0003a7a4                replay_cache_add
 .text.replay_cache_has_elem
                0x0003a800       0x40 examples/serial/CMakeFiles/serial_nrf52840_xxAA_s140_6.0.0.dir/__/__/mesh/core/src/replay_cache.c.obj
                0x0003a800                replay_cache_has_elem
 .text.beacon_create
                0x0003a840       0x50 examples/serial/CMakeFiles/serial_nrf52840_xxAA_s140_6.0.0.dir/__/__/mesh/core/src/beacon.c.obj
                0x0003a840                beacon_create
 .text.beacon_packet_in
                0x0003a890      0x174 examples/serial/CMakeFiles/serial_nrf52840_xxAA_s140_6.0.0.dir/__/__/mesh/core/src/beacon.c.obj
                0x0003a890                beacon_packet_in
 .text.core_tx_complete_cb_set
                0x0003aa04        0xc examples/serial/CMakeFiles/serial_nrf52840_xxAA_s140_6.0.0.dir/__/__/mesh/core/src/core_tx.c.obj
                0x0003aa04                core_tx_complete_cb_set
 .text.core_tx_packet_alloc
                0x0003aa10       0xb4 examples/serial/CMakeFiles/serial_nrf52840_xxAA_s140_6.0.0.dir/__/__/mesh/core/src/core_tx.c.obj
                0x0003aa10                core_tx_packet_alloc
 .text.core_tx_packet_send
                0x0003aac4       0x58 examples/serial/CMakeFiles/serial_nrf52840_xxAA_s140_6.0.0.dir/__/__/mesh/core/src/core_tx.c.obj
                0x0003aac4                core_tx_packet_send
 .text.core_tx_packet_discard
                0x0003ab1c       0x4c examples/serial/CMakeFiles/serial_nrf52840_xxAA_s140_6.0.0.dir/__/__/mesh/core/src/core_tx.c.obj
                0x0003ab1c                core_tx_packet_discard
 .text.core_tx_complete
                0x0003ab68       0x38 examples/serial/CMakeFiles/serial_nrf52840_xxAA_s140_6.0.0.dir/__/__/mesh/core/src/core_tx.c.obj
                0x0003ab68                core_tx_complete
 .text.core_tx_bearer_add
                0x0003aba0       0x84 examples/serial/CMakeFiles/serial_nrf52840_xxAA_s140_6.0.0.dir/__/__/mesh/core/src/core_tx.c.obj
                0x0003aba0                core_tx_bearer_add
 .text.heartbeat_subscription_timer_cb
                0x0003ac24       0x1c examples/serial/CMakeFiles/serial_nrf52840_xxAA_s140_6.0.0.dir/__/__/mesh/core/src/heartbeat.c.obj
 .text.heartbeat_opcode_handle
                0x0003ac40       0x8c examples/serial/CMakeFiles/serial_nrf52840_xxAA_s140_6.0.0.dir/__/__/mesh/core/src/heartbeat.c.obj
 .text.heartbeat_send
                0x0003accc       0xbc examples/serial/CMakeFiles/serial_nrf52840_xxAA_s140_6.0.0.dir/__/__/mesh/core/src/heartbeat.c.obj
 .text.heartbeat_core_evt_cb
                0x0003ad88       0x94 examples/serial/CMakeFiles/serial_nrf52840_xxAA_s140_6.0.0.dir/__/__/mesh/core/src/heartbeat.c.obj
 .text.heartbeat_publication_timer_cb
                0x0003ae1c       0xb0 examples/serial/CMakeFiles/serial_nrf52840_xxAA_s140_6.0.0.dir/__/__/mesh/core/src/heartbeat.c.obj
 .text.heartbeat_on_feature_change_trigger
                0x0003aecc       0x48 examples/serial/CMakeFiles/serial_nrf52840_xxAA_s140_6.0.0.dir/__/__/mesh/core/src/heartbeat.c.obj
                0x0003aecc                heartbeat_on_feature_change_trigger
 .text.heartbeat_init
                0x0003af14       0x7c examples/serial/CMakeFiles/serial_nrf52840_xxAA_s140_6.0.0.dir/__/__/mesh/core/src/heartbeat.c.obj
                0x0003af14                heartbeat_init
 .text.heartbeat_subscription_set
                0x0003af90       0xa4 examples/serial/CMakeFiles/serial_nrf52840_xxAA_s140_6.0.0.dir/__/__/mesh/core/src/heartbeat.c.obj
                0x0003af90                heartbeat_subscription_set
 .text.heartbeat_subscription_get
                0x0003b034        0x8 examples/serial/CMakeFiles/serial_nrf52840_xxAA_s140_6.0.0.dir/__/__/mesh/core/src/heartbeat.c.obj
                0x0003b034                heartbeat_subscription_get
 .text.heartbeat_config_server_cb_set
                0x0003b03c       0x38 examples/serial/CMakeFiles/serial_nrf52840_xxAA_s140_6.0.0.dir/__/__/mesh/core/src/heartbeat.c.obj
                0x0003b03c                heartbeat_config_server_cb_set
 .text.heartbeat_publication_state_updated
                0x0003b074       0x78 examples/serial/CMakeFiles/serial_nrf52840_xxAA_s140_6.0.0.dir/__/__/mesh/core/src/heartbeat.c.obj
                0x0003b074                heartbeat_publication_state_updated
 .text.beacon_tx
                0x0003b0ec      0x194 examples/serial/CMakeFiles/serial_nrf52840_xxAA_s140_6.0.0.dir/__/__/mesh/core/src/net_beacon.c.obj
 .text.tx_complete_cb
                0x0003b280       0x10 examples/serial/CMakeFiles/serial_nrf52840_xxAA_s140_6.0.0.dir/__/__/mesh/core/src/net_beacon.c.obj
 .text.beacon_tx_timeout
                0x0003b290        0x4 examples/serial/CMakeFiles/serial_nrf52840_xxAA_s140_6.0.0.dir/__/__/mesh/core/src/net_beacon.c.obj
 .text.net_beacon_init
                0x0003b294       0x94 examples/serial/CMakeFiles/serial_nrf52840_xxAA_s140_6.0.0.dir/__/__/mesh/core/src/net_beacon.c.obj
                0x0003b294                net_beacon_init
 .text.net_beacon_state_set
                0x0003b328       0x3c examples/serial/CMakeFiles/serial_nrf52840_xxAA_s140_6.0.0.dir/__/__/mesh/core/src/net_beacon.c.obj
                0x0003b328                net_beacon_state_set
 .text.net_beacon_state_get
                0x0003b364        0xc examples/serial/CMakeFiles/serial_nrf52840_xxAA_s140_6.0.0.dir/__/__/mesh/core/src/net_beacon.c.obj
                0x0003b364                net_beacon_state_get
 .text.net_beacon_packet_in
                0x0003b370      0x14c examples/serial/CMakeFiles/serial_nrf52840_xxAA_s140_6.0.0.dir/__/__/mesh/core/src/net_beacon.c.obj
                0x0003b370                net_beacon_packet_in
 .text.packet_discard
                0x0003b4bc       0x40 examples/serial/CMakeFiles/serial_nrf52840_xxAA_s140_6.0.0.dir/__/__/mesh/core/src/core_tx_adv.c.obj
 .text.packet_send
                0x0003b4fc       0x58 examples/serial/CMakeFiles/serial_nrf52840_xxAA_s140_6.0.0.dir/__/__/mesh/core/src/core_tx_adv.c.obj
 .text.packet_alloc
                0x0003b554       0x5c examples/serial/CMakeFiles/serial_nrf52840_xxAA_s140_6.0.0.dir/__/__/mesh/core/src/core_tx_adv.c.obj
 .text.adv_tx_complete_callback
                0x0003b5b0       0x28 examples/serial/CMakeFiles/serial_nrf52840_xxAA_s140_6.0.0.dir/__/__/mesh/core/src/core_tx_adv.c.obj
 .text.core_tx_adv_init
                0x0003b5d8       0x60 examples/serial/CMakeFiles/serial_nrf52840_xxAA_s140_6.0.0.dir/__/__/mesh/core/src/core_tx_adv.c.obj
                0x0003b5d8                core_tx_adv_init
 .text.core_tx_adv_count_set
                0x0003b638       0x28 examples/serial/CMakeFiles/serial_nrf52840_xxAA_s140_6.0.0.dir/__/__/mesh/core/src/core_tx_adv.c.obj
                0x0003b638                core_tx_adv_count_set
 .text.core_tx_adv_count_get
                0x0003b660       0x20 examples/serial/CMakeFiles/serial_nrf52840_xxAA_s140_6.0.0.dir/__/__/mesh/core/src/core_tx_adv.c.obj
                0x0003b660                core_tx_adv_count_get
 .text.core_tx_adv_interval_set
                0x0003b680       0x28 examples/serial/CMakeFiles/serial_nrf52840_xxAA_s140_6.0.0.dir/__/__/mesh/core/src/core_tx_adv.c.obj
                0x0003b680                core_tx_adv_interval_set
 .text.core_tx_adv_interval_get
                0x0003b6a8       0x2c examples/serial/CMakeFiles/serial_nrf52840_xxAA_s140_6.0.0.dir/__/__/mesh/core/src/core_tx_adv.c.obj
                0x0003b6a8                core_tx_adv_interval_get
 .text.ad_listener_subscribe
                0x0003b6d4       0x60 examples/serial/CMakeFiles/serial_nrf52840_xxAA_s140_6.0.0.dir/__/__/mesh/bearer/src/ad_listener.c.obj
                0x0003b6d4                ad_listener_subscribe
 .text.ad_listener_process
                0x0003b734       0x7c examples/serial/CMakeFiles/serial_nrf52840_xxAA_s140_6.0.0.dir/__/__/mesh/bearer/src/ad_listener.c.obj
                0x0003b734                ad_listener_process
 .text.adtype_filter_handle
                0x0003b7b0       0x98 examples/serial/CMakeFiles/serial_nrf52840_xxAA_s140_6.0.0.dir/__/__/mesh/bearer/src/ad_type_filter.c.obj
 .text.bearer_adtype_filtering_set
                0x0003b848       0x1c examples/serial/CMakeFiles/serial_nrf52840_xxAA_s140_6.0.0.dir/__/__/mesh/bearer/src/ad_type_filter.c.obj
                0x0003b848                bearer_adtype_filtering_set
 .text.bearer_adtype_add
                0x0003b864       0x24 examples/serial/CMakeFiles/serial_nrf52840_xxAA_s140_6.0.0.dir/__/__/mesh/bearer/src/ad_type_filter.c.obj
                0x0003b864                bearer_adtype_add
 .text.bearer_adtype_mode_set
                0x0003b888       0x18 examples/serial/CMakeFiles/serial_nrf52840_xxAA_s140_6.0.0.dir/__/__/mesh/bearer/src/ad_type_filter.c.obj
                0x0003b888                bearer_adtype_mode_set
 .text.tx_complete_event_callback
                0x0003b8a0       0x2c examples/serial/CMakeFiles/serial_nrf52840_xxAA_s140_6.0.0.dir/__/__/mesh/bearer/src/advertiser.c.obj
 .text.broadcast_complete_cb
                0x0003b8cc       0x48 examples/serial/CMakeFiles/serial_nrf52840_xxAA_s140_6.0.0.dir/__/__/mesh/bearer/src/advertiser.c.obj
 .text.timeout_event
                0x0003b914      0x120 examples/serial/CMakeFiles/serial_nrf52840_xxAA_s140_6.0.0.dir/__/__/mesh/bearer/src/advertiser.c.obj
 .text.advertiser_init
                0x0003ba34        0xc examples/serial/CMakeFiles/serial_nrf52840_xxAA_s140_6.0.0.dir/__/__/mesh/bearer/src/advertiser.c.obj
                0x0003ba34                advertiser_init
 .text.advertiser_instance_init
                0x0003ba40       0xfc examples/serial/CMakeFiles/serial_nrf52840_xxAA_s140_6.0.0.dir/__/__/mesh/bearer/src/advertiser.c.obj
                0x0003ba40                advertiser_instance_init
 .text.advertiser_enable
                0x0003bb3c       0x44 examples/serial/CMakeFiles/serial_nrf52840_xxAA_s140_6.0.0.dir/__/__/mesh/bearer/src/advertiser.c.obj
                0x0003bb3c                advertiser_enable
 .text.advertiser_packet_alloc
                0x0003bb80       0x80 examples/serial/CMakeFiles/serial_nrf52840_xxAA_s140_6.0.0.dir/__/__/mesh/bearer/src/advertiser.c.obj
                0x0003bb80                advertiser_packet_alloc
 .text.advertiser_packet_send
                0x0003bc00       0x80 examples/serial/CMakeFiles/serial_nrf52840_xxAA_s140_6.0.0.dir/__/__/mesh/bearer/src/advertiser.c.obj
                0x0003bc00                advertiser_packet_send
 .text.advertiser_packet_discard
                0x0003bc80       0x2c examples/serial/CMakeFiles/serial_nrf52840_xxAA_s140_6.0.0.dir/__/__/mesh/bearer/src/advertiser.c.obj
                0x0003bc80                advertiser_packet_discard
 .text.advertiser_channels_set
                0x0003bcac       0x94 examples/serial/CMakeFiles/serial_nrf52840_xxAA_s140_6.0.0.dir/__/__/mesh/bearer/src/advertiser.c.obj
                0x0003bcac                advertiser_channels_set
 .text.advertiser_interval_set
                0x0003bd40       0x70 examples/serial/CMakeFiles/serial_nrf52840_xxAA_s140_6.0.0.dir/__/__/mesh/bearer/src/advertiser.c.obj
                0x0003bd40                advertiser_interval_set
 .text.advertiser_flush
                0x0003bdb0       0x20 examples/serial/CMakeFiles/serial_nrf52840_xxAA_s140_6.0.0.dir/__/__/mesh/bearer/src/advertiser.c.obj
                0x0003bdb0                advertiser_flush
 .text.advertiser_address_default_get
                0x0003bdd0       0x5c examples/serial/CMakeFiles/serial_nrf52840_xxAA_s140_6.0.0.dir/__/__/mesh/bearer/src/advertiser.c.obj
                0x0003bdd0                advertiser_address_default_get
 .text.action_switch.part.2
                0x0003be2c       0xb4 examples/serial/CMakeFiles/serial_nrf52840_xxAA_s140_6.0.0.dir/__/__/mesh/bearer/src/bearer_handler.c.obj
 .text.bearer_handler_init
                0x0003bee0       0x2c examples/serial/CMakeFiles/serial_nrf52840_xxAA_s140_6.0.0.dir/__/__/mesh/bearer/src/bearer_handler.c.obj
                0x0003bee0                bearer_handler_init
 .text.bearer_handler_start
                0x0003bf0c       0x1c examples/serial/CMakeFiles/serial_nrf52840_xxAA_s140_6.0.0.dir/__/__/mesh/bearer/src/bearer_handler.c.obj
                0x0003bf0c                bearer_handler_start
 .text.bearer_handler_stop
                0x0003bf28       0x20 examples/serial/CMakeFiles/serial_nrf52840_xxAA_s140_6.0.0.dir/__/__/mesh/bearer/src/bearer_handler.c.obj
                0x0003bf28                bearer_handler_stop
 .text.bearer_handler_action_enqueue
                0x0003bf48       0x7c examples/serial/CMakeFiles/serial_nrf52840_xxAA_s140_6.0.0.dir/__/__/mesh/bearer/src/bearer_handler.c.obj
                0x0003bf48                bearer_handler_action_enqueue
 .text.bearer_handler_action_end
                0x0003bfc4       0x68 examples/serial/CMakeFiles/serial_nrf52840_xxAA_s140_6.0.0.dir/__/__/mesh/bearer/src/bearer_handler.c.obj
                0x0003bfc4                bearer_handler_action_end
 .text.bearer_handler_radio_irq_handler
                0x0003c02c       0x54 examples/serial/CMakeFiles/serial_nrf52840_xxAA_s140_6.0.0.dir/__/__/mesh/bearer/src/bearer_handler.c.obj
                0x0003c02c                bearer_handler_radio_irq_handler
 .text.bearer_handler_timer_irq_handler
                0x0003c080       0x34 examples/serial/CMakeFiles/serial_nrf52840_xxAA_s140_6.0.0.dir/__/__/mesh/bearer/src/bearer_handler.c.obj
                0x0003c080                bearer_handler_timer_irq_handler
 .text.bearer_handler_on_ts_begin
                0x0003c0b4       0x3c examples/serial/CMakeFiles/serial_nrf52840_xxAA_s140_6.0.0.dir/__/__/mesh/bearer/src/bearer_handler.c.obj
                0x0003c0b4                bearer_handler_on_ts_begin
 .text.bearer_handler_on_ts_end
                0x0003c0f0       0x34 examples/serial/CMakeFiles/serial_nrf52840_xxAA_s140_6.0.0.dir/__/__/mesh/bearer/src/bearer_handler.c.obj
                0x0003c0f0                bearer_handler_on_ts_end
 .text.radio_irq_handler
                0x0003c124       0x98 examples/serial/CMakeFiles/serial_nrf52840_xxAA_s140_6.0.0.dir/__/__/mesh/bearer/src/broadcast.c.obj
 .text.broadcast_start
                0x0003c1bc       0x8c examples/serial/CMakeFiles/serial_nrf52840_xxAA_s140_6.0.0.dir/__/__/mesh/bearer/src/broadcast.c.obj
 .text.broadcast_send
                0x0003c248       0x74 examples/serial/CMakeFiles/serial_nrf52840_xxAA_s140_6.0.0.dir/__/__/mesh/bearer/src/broadcast.c.obj
                0x0003c248                broadcast_send
 .text.fen_filter_start
                0x0003c2bc       0x38 examples/serial/CMakeFiles/serial_nrf52840_xxAA_s140_6.0.0.dir/__/__/mesh/bearer/src/filter_engine.c.obj
                0x0003c2bc                fen_filter_start
 .text.fen_filter_stop
                0x0003c2f4       0x2c examples/serial/CMakeFiles/serial_nrf52840_xxAA_s140_6.0.0.dir/__/__/mesh/bearer/src/filter_engine.c.obj
                0x0003c2f4                fen_filter_stop
 .text.fen_filters_apply
                0x0003c320       0x38 examples/serial/CMakeFiles/serial_nrf52840_xxAA_s140_6.0.0.dir/__/__/mesh/bearer/src/filter_engine.c.obj
                0x0003c320                fen_filters_apply
 .text.radio_config_reset
                0x0003c358       0x38 examples/serial/CMakeFiles/serial_nrf52840_xxAA_s140_6.0.0.dir/__/__/mesh/bearer/src/radio_config.c.obj
                0x0003c358                radio_config_reset
 .text.radio_config_channel_set
                0x0003c390       0x28 examples/serial/CMakeFiles/serial_nrf52840_xxAA_s140_6.0.0.dir/__/__/mesh/bearer/src/radio_config.c.obj
                0x0003c390                radio_config_channel_set
 .text.radio_config_config
                0x0003c3b8       0x90 examples/serial/CMakeFiles/serial_nrf52840_xxAA_s140_6.0.0.dir/__/__/mesh/bearer/src/radio_config.c.obj
                0x0003c3b8                radio_config_config
 .text.radio_config_access_addr_set
                0x0003c448       0x54 examples/serial/CMakeFiles/serial_nrf52840_xxAA_s140_6.0.0.dir/__/__/mesh/bearer/src/radio_config.c.obj
                0x0003c448                radio_config_access_addr_set
 .text.scan_window_end
                0x0003c49c       0x28 examples/serial/CMakeFiles/serial_nrf52840_xxAA_s140_6.0.0.dir/__/__/mesh/bearer/src/scanner.c.obj
 .text.scan_window_start
                0x0003c4c4       0x38 examples/serial/CMakeFiles/serial_nrf52840_xxAA_s140_6.0.0.dir/__/__/mesh/bearer/src/scanner.c.obj
 .text.radio_start
                0x0003c4fc      0x188 examples/serial/CMakeFiles/serial_nrf52840_xxAA_s140_6.0.0.dir/__/__/mesh/bearer/src/scanner.c.obj
 .text.scanner_radio_start
                0x0003c684      0x14c examples/serial/CMakeFiles/serial_nrf52840_xxAA_s140_6.0.0.dir/__/__/mesh/bearer/src/scanner.c.obj
                0x0003c684                scanner_radio_start
 .text.scanner_radio_stop
                0x0003c7d0       0x34 examples/serial/CMakeFiles/serial_nrf52840_xxAA_s140_6.0.0.dir/__/__/mesh/bearer/src/scanner.c.obj
                0x0003c7d0                scanner_radio_stop
 .text.scanner_radio_irq_handler
                0x0003c804      0x204 examples/serial/CMakeFiles/serial_nrf52840_xxAA_s140_6.0.0.dir/__/__/mesh/bearer/src/scanner.c.obj
                0x0003c804                scanner_radio_irq_handler
 .text.scanner_enable
                0x0003ca08       0x54 examples/serial/CMakeFiles/serial_nrf52840_xxAA_s140_6.0.0.dir/__/__/mesh/bearer/src/scanner.c.obj
                0x0003ca08                scanner_enable
 .text.scanner_disable
                0x0003ca5c       0x54 examples/serial/CMakeFiles/serial_nrf52840_xxAA_s140_6.0.0.dir/__/__/mesh/bearer/src/scanner.c.obj
                0x0003ca5c                scanner_disable
 .text.scanner_rx
                0x0003cab0       0x78 examples/serial/CMakeFiles/serial_nrf52840_xxAA_s140_6.0.0.dir/__/__/mesh/bearer/src/scanner.c.obj
                0x0003cab0                scanner_rx
 .text.scanner_packet_release
                0x0003cb28       0x40 examples/serial/CMakeFiles/serial_nrf52840_xxAA_s140_6.0.0.dir/__/__/mesh/bearer/src/scanner.c.obj
                0x0003cb28                scanner_packet_release
 .text.scanner_rx_pending
                0x0003cb68        0xc examples/serial/CMakeFiles/serial_nrf52840_xxAA_s140_6.0.0.dir/__/__/mesh/bearer/src/scanner.c.obj
                0x0003cb68                scanner_rx_pending
 .text.scanner_config_reset
                0x0003cb74       0xa8 examples/serial/CMakeFiles/serial_nrf52840_xxAA_s140_6.0.0.dir/__/__/mesh/bearer/src/scanner.c.obj
                0x0003cb74                scanner_config_reset
 .text.scanner_init
                0x0003cc1c       0x54 examples/serial/CMakeFiles/serial_nrf52840_xxAA_s140_6.0.0.dir/__/__/mesh/bearer/src/scanner.c.obj
                0x0003cc1c                scanner_init
 .text.SystemInit
                0x0003cc70      0x1c4 examples/serial/CMakeFiles/serial_nrf52840_xxAA_s140_6.0.0.dir/C_/ver/mod/nRF5_SDK_15.0.0_a53641a/modules/nrfx/mdk/system_nrf52840.c.obj
                0x0003cc70                SystemInit
 .text          0x0003ce34       0x3c examples/serial/CMakeFiles/serial_nrf52840_xxAA_s140_6.0.0.dir/C_/ver/mod/nRF5_SDK_15.0.0_a53641a/modules/nrfx/mdk/gcc_startup_nrf52840.S.obj
                0x0003ce34                Reset_Handler
                0x0003ce5c                NMI_Handler
                0x0003ce5e                HardFault_Handler
                0x0003ce60                MemoryManagement_Handler
                0x0003ce62                BusFault_Handler
                0x0003ce64                UsageFault_Handler
                0x0003ce66                SVC_Handler
                0x0003ce68                DebugMon_Handler
                0x0003ce6a                PendSV_Handler
                0x0003ce6c                SysTick_Handler
                0x0003ce6e                RADIO_IRQHandler
                0x0003ce6e                PDM_IRQHandler
                0x0003ce6e                TEMP_IRQHandler
                0x0003ce6e                TIMER3_IRQHandler
                0x0003ce6e                PWM3_IRQHandler
                0x0003ce6e                FPU_IRQHandler
                0x0003ce6e                RTC0_IRQHandler
                0x0003ce6e                SPIM0_SPIS0_TWIM0_TWIS0_SPI0_TWI0_IRQHandler
                0x0003ce6e                PWM1_IRQHandler
                0x0003ce6e                TIMER4_IRQHandler
                0x0003ce6e                POWER_CLOCK_IRQHandler
                0x0003ce6e                I2S_IRQHandler
                0x0003ce6e                SWI4_EGU4_IRQHandler
                0x0003ce6e                TIMER0_IRQHandler
                0x0003ce6e                USBD_IRQHandler
                0x0003ce6e                UARTE1_IRQHandler
                0x0003ce6e                TIMER1_IRQHandler
                0x0003ce6e                SPIM3_IRQHandler
                0x0003ce6e                PWM2_IRQHandler
                0x0003ce6e                ECB_IRQHandler
                0x0003ce6e                SPIM1_SPIS1_TWIM1_TWIS1_SPI1_TWI1_IRQHandler
                0x0003ce6e                Default_Handler
                0x0003ce6e                SAADC_IRQHandler
                0x0003ce6e                CCM_AAR_IRQHandler
                0x0003ce6e                WDT_IRQHandler
                0x0003ce6e                CRYPTOCELL_IRQHandler
                0x0003ce6e                SWI5_EGU5_IRQHandler
                0x0003ce6e                RNG_IRQHandler
                0x0003ce6e                RTC2_IRQHandler
                0x0003ce6e                PWM0_IRQHandler
                0x0003ce6e                SWI3_EGU3_IRQHandler
                0x0003ce6e                RTC1_IRQHandler
                0x0003ce6e                SWI1_EGU1_IRQHandler
                0x0003ce6e                SPIM2_SPIS2_SPI2_IRQHandler
                0x0003ce6e                NFCT_IRQHandler
                0x0003ce6e                SWI0_EGU0_IRQHandler
                0x0003ce6e                MWU_IRQHandler
                0x0003ce6e                TIMER2_IRQHandler
                0x0003ce6e                QSPI_IRQHandler
                0x0003ce6e                COMP_LPCOMP_IRQHandler
 .text.app_error_handler_bare
                0x0003ce70       0x20 examples/serial/CMakeFiles/serial_nrf52840_xxAA_s140_6.0.0.dir/C_/ver/mod/nRF5_SDK_15.0.0_a53641a/components/libraries/util/app_error.c.obj
                0x0003ce70                app_error_handler_bare
 .text.app_error_handler
                0x0003ce90       0x1c examples/serial/CMakeFiles/serial_nrf52840_xxAA_s140_6.0.0.dir/C_/ver/mod/nRF5_SDK_15.0.0_a53641a/components/libraries/util/app_error_handler_gcc.c.obj
                0x0003ce90                app_error_handler
 .text.default_RNG
                0x0003ceac        0xc external/micro-ecc/libuECC_nrf52840_xxAA.a(uECC.c.obj)
 .text.uECC_generate_random_int
                0x0003ceb8      0x170 external/micro-ecc/libuECC_nrf52840_xxAA.a(uECC.c.obj)
 .text.apply_z  0x0003d028      0x1a8 external/micro-ecc/libuECC_nrf52840_xxAA.a(uECC.c.obj)
 .text.uECC_vli_modAdd
                0x0003d1d0       0xc8 external/micro-ecc/libuECC_nrf52840_xxAA.a(uECC.c.obj)
 .text.x_side_default
                0x0003d298      0x254 external/micro-ecc/libuECC_nrf52840_xxAA.a(uECC.c.obj)
 .text.vli_mmod_fast_secp256r1
                0x0003d4ec      0x520 external/micro-ecc/libuECC_nrf52840_xxAA.a(uECC.c.obj)
 .text.XYcZ_add
                0x0003da0c      0x6dc external/micro-ecc/libuECC_nrf52840_xxAA.a(uECC.c.obj)
 .text.XYcZ_addC
                0x0003e0e8      0xa94 external/micro-ecc/libuECC_nrf52840_xxAA.a(uECC.c.obj)
 .text.uECC_vli_modInv.part.4
                0x0003eb7c      0x6e8 external/micro-ecc/libuECC_nrf52840_xxAA.a(uECC.c.obj)
 .text.EccPoint_mult.constprop.5
                0x0003f264      0x470 external/micro-ecc/libuECC_nrf52840_xxAA.a(uECC.c.obj)
 .text.double_jacobian_default
                0x0003f6d4      0x7ec external/micro-ecc/libuECC_nrf52840_xxAA.a(uECC.c.obj)
 .text.uECC_secp256r1
                0x0003fec0        0x8 external/micro-ecc/libuECC_nrf52840_xxAA.a(uECC.c.obj)
                0x0003fec0                uECC_secp256r1
 .text.uECC_make_key
                0x0003fec8      0x23c external/micro-ecc/libuECC_nrf52840_xxAA.a(uECC.c.obj)
                0x0003fec8                uECC_make_key
 .text.uECC_shared_secret
                0x00040104      0x788 external/micro-ecc/libuECC_nrf52840_xxAA.a(uECC.c.obj)
                0x00040104                uECC_shared_secret
 .text.uECC_valid_point
                0x0004088c      0x134 external/micro-ecc/libuECC_nrf52840_xxAA.a(uECC.c.obj)
                0x0004088c                uECC_valid_point
 .text.uECC_valid_public_key
                0x000409c0       0xe8 external/micro-ecc/libuECC_nrf52840_xxAA.a(uECC.c.obj)
                0x000409c0                uECC_valid_public_key
 .text.SEGGER_RTT_Write
                0x00040aa8      0x1e4 external/rtt/librtt_nrf52840_xxAA.a(SEGGER_RTT.c.obj)
                0x00040aa8                SEGGER_RTT_Write
 .text._PrintUnsigned
                0x00040c8c      0x194 external/rtt/librtt_nrf52840_xxAA.a(SEGGER_RTT_printf.c.obj)
 .text.SEGGER_RTT_vprintf
                0x00040e20      0x464 external/rtt/librtt_nrf52840_xxAA.a(SEGGER_RTT_printf.c.obj)
                0x00040e20                SEGGER_RTT_vprintf
 .text.SEGGER_RTT_printf
                0x00041284       0x20 external/rtt/librtt_nrf52840_xxAA.a(SEGGER_RTT_printf.c.obj)
                0x00041284                SEGGER_RTT_printf
 .text.exit     0x000412a4       0x28 c:/mesh/arm_gcc/bin/../lib/gcc/arm-none-eabi/6.3.1/../../../../arm-none-eabi/lib/thumb/v7e-m/fpv4-sp/hard\libc_nano.a(lib_a-exit.o)
                0x000412a4                exit
 .text.__libc_init_array
                0x000412cc       0x48 c:/mesh/arm_gcc/bin/../lib/gcc/arm-none-eabi/6.3.1/../../../../arm-none-eabi/lib/thumb/v7e-m/fpv4-sp/hard\libc_nano.a(lib_a-init.o)
                0x000412cc                __libc_init_array
 .text.malloc   0x00041314       0x10 c:/mesh/arm_gcc/bin/../lib/gcc/arm-none-eabi/6.3.1/../../../../arm-none-eabi/lib/thumb/v7e-m/fpv4-sp/hard\libc_nano.a(lib_a-malloc.o)
                0x00041314                malloc
 .text.free     0x00041324       0x10 c:/mesh/arm_gcc/bin/../lib/gcc/arm-none-eabi/6.3.1/../../../../arm-none-eabi/lib/thumb/v7e-m/fpv4-sp/hard\libc_nano.a(lib_a-malloc.o)
                0x00041324                free
 .text.memcmp   0x00041334       0x1e c:/mesh/arm_gcc/bin/../lib/gcc/arm-none-eabi/6.3.1/../../../../arm-none-eabi/lib/thumb/v7e-m/fpv4-sp/hard\libc_nano.a(lib_a-memcmp.o)
                0x00041334                memcmp
 .text.memcpy   0x00041352       0x16 c:/mesh/arm_gcc/bin/../lib/gcc/arm-none-eabi/6.3.1/../../../../arm-none-eabi/lib/thumb/v7e-m/fpv4-sp/hard\libc_nano.a(lib_a-memcpy-stub.o)
                0x00041352                memcpy
 .text.memset   0x00041368       0x10 c:/mesh/arm_gcc/bin/../lib/gcc/arm-none-eabi/6.3.1/../../../../arm-none-eabi/lib/thumb/v7e-m/fpv4-sp/hard\libc_nano.a(lib_a-memset.o)
                0x00041368                memset
 .text._free_r  0x00041378       0x9c c:/mesh/arm_gcc/bin/../lib/gcc/arm-none-eabi/6.3.1/../../../../arm-none-eabi/lib/thumb/v7e-m/fpv4-sp/hard\libc_nano.a(lib_a-nano-freer.o)
                0x00041378                _free_r
 .text._malloc_r
                0x00041414       0xbc c:/mesh/arm_gcc/bin/../lib/gcc/arm-none-eabi/6.3.1/../../../../arm-none-eabi/lib/thumb/v7e-m/fpv4-sp/hard\libc_nano.a(lib_a-nano-mallocr.o)
                0x00041414                _malloc_r
 .text._sbrk_r  0x000414d0       0x20 c:/mesh/arm_gcc/bin/../lib/gcc/arm-none-eabi/6.3.1/../../../../arm-none-eabi/lib/thumb/v7e-m/fpv4-sp/hard\libc_nano.a(lib_a-sbrkr.o)
                0x000414d0                _sbrk_r
 .text.strcpy   0x000414f0       0x10 c:/mesh/arm_gcc/bin/../lib/gcc/arm-none-eabi/6.3.1/../../../../arm-none-eabi/lib/thumb/v7e-m/fpv4-sp/hard\libc_nano.a(lib_a-strcpy.o)
                0x000414f0                strcpy
 .text          0x00041500       0x10 c:/mesh/arm_gcc/bin/../lib/gcc/arm-none-eabi/6.3.1/../../../../arm-none-eabi/lib/thumb/v7e-m/fpv4-sp/hard\libc_nano.a(lib_a-strlen.o)
                0x00041500                strlen
 .text.strrchr  0x00041510       0x26 c:/mesh/arm_gcc/bin/../lib/gcc/arm-none-eabi/6.3.1/../../../../arm-none-eabi/lib/thumb/v7e-m/fpv4-sp/hard\libc_nano.a(lib_a-strrchr.o)
                0x00041510                strrchr
 .text.__malloc_lock
                0x00041536        0x2 c:/mesh/arm_gcc/bin/../lib/gcc/arm-none-eabi/6.3.1/../../../../arm-none-eabi/lib/thumb/v7e-m/fpv4-sp/hard\libc_nano.a(lib_a-mlock.o)
                0x00041536                __malloc_lock
 .text.__malloc_unlock
                0x00041538        0x2 c:/mesh/arm_gcc/bin/../lib/gcc/arm-none-eabi/6.3.1/../../../../arm-none-eabi/lib/thumb/v7e-m/fpv4-sp/hard\libc_nano.a(lib_a-mlock.o)
                0x00041538                __malloc_unlock
 .text.strchr   0x0004153a       0x1c c:/mesh/arm_gcc/bin/../lib/gcc/arm-none-eabi/6.3.1/../../../../arm-none-eabi/lib/thumb/v7e-m/fpv4-sp/hard\libc_nano.a(lib_a-strchr.o)
                0x0004153a                strchr
 *fill*         0x00041556        0x2 
 .text._sbrk    0x00041558       0x1c c:/mesh/arm_gcc/bin/../lib/gcc/arm-none-eabi/6.3.1/../../../../arm-none-eabi/lib/thumb/v7e-m/fpv4-sp/hard\libnosys.a(sbrk.o)
                0x00041558                _sbrk
 .text._exit    0x00041574        0x4 c:/mesh/arm_gcc/bin/../lib/gcc/arm-none-eabi/6.3.1/../../../../arm-none-eabi/lib/thumb/v7e-m/fpv4-sp/hard\libnosys.a(_exit.o)
                0x00041574                _exit
 *(.init)
 .init          0x00041578        0x4 c:/mesh/arm_gcc/bin/../lib/gcc/arm-none-eabi/6.3.1/thumb/v7e-m/fpv4-sp/hard/crti.o
                0x00041578                _init
 .init          0x0004157c        0x8 c:/mesh/arm_gcc/bin/../lib/gcc/arm-none-eabi/6.3.1/thumb/v7e-m/fpv4-sp/hard/crtn.o
 *(.fini)
 .fini          0x00041584        0x4 c:/mesh/arm_gcc/bin/../lib/gcc/arm-none-eabi/6.3.1/thumb/v7e-m/fpv4-sp/hard/crti.o
                0x00041584                _fini
 .fini          0x00041588        0x8 c:/mesh/arm_gcc/bin/../lib/gcc/arm-none-eabi/6.3.1/thumb/v7e-m/fpv4-sp/hard/crtn.o
 *crtbegin.o(.ctors)
 *crtbegin?.o(.ctors)
 *(EXCLUDE_FILE(*crtend.o *crtend?.o) .ctors)
 *(SORT(.ctors.*))
 *(.ctors)
 *crtbegin.o(.dtors)
 *crtbegin?.o(.dtors)
 *(EXCLUDE_FILE(*crtend.o *crtend?.o) .dtors)
 *(SORT(.dtors.*))
 *(.dtors)
 *(.rodata*)
 .rodata        0x00041590        0x8 examples/serial/CMakeFiles/serial_nrf52840_xxAA_s140_6.0.0.dir/src/main.c.obj
 .rodata.main.str1.4
                0x00041598       0xf2 examples/serial/CMakeFiles/serial_nrf52840_xxAA_s140_6.0.0.dir/src/main.c.obj
 *fill*         0x0004168a        0x2 
 .rodata.static_auth_data.12116
                0x0004168c       0x10 examples/serial/CMakeFiles/serial_nrf52840_xxAA_s140_6.0.0.dir/src/main.c.obj
 .rodata.mesh_softdevice_init.str1.4
                0x0004169c       0xa9 examples/serial/CMakeFiles/serial_nrf52840_xxAA_s140_6.0.0.dir/__/common/src/mesh_softdevice_init.c.obj
 *fill*         0x00041745        0x3 
 .rodata        0x00041748        0xb examples/serial/CMakeFiles/serial_nrf52840_xxAA_s140_6.0.0.dir/__/common/src/mesh_provisionee.c.obj
 *fill*         0x00041753        0xd 
 .rodata.delay_bytecode.8707
                0x00041760        0x6 examples/serial/CMakeFiles/serial_nrf52840_xxAA_s140_6.0.0.dir/__/common/src/simple_hal.c.obj
 *fill*         0x00041766        0x2 
 .rodata.m_prov_callbacks
                0x00041768       0x10 examples/serial/CMakeFiles/serial_nrf52840_xxAA_s140_6.0.0.dir/__/__/mesh/prov/src/prov_provisioner.c.obj
 .rodata.m_prov_callbacks
                0x00041778       0x10 examples/serial/CMakeFiles/serial_nrf52840_xxAA_s140_6.0.0.dir/__/__/mesh/prov/src/prov_provisionee.c.obj
 .rodata.prov_provisionee_cb_ack_received.str1.4
                0x00041788       0x53 examples/serial/CMakeFiles/serial_nrf52840_xxAA_s140_6.0.0.dir/__/__/mesh/prov/src/prov_provisionee.c.obj
 *fill*         0x000417db        0x1 
 .rodata.multiply_de_bruijn_bit_position.9606
                0x000417dc       0x20 examples/serial/CMakeFiles/serial_nrf52840_xxAA_s140_6.0.0.dir/__/__/mesh/prov/src/nrf_mesh_prov.c.obj
 .rodata.pdu_sizes.11531
                0x000417fc        0xa examples/serial/CMakeFiles/serial_nrf52840_xxAA_s140_6.0.0.dir/__/__/mesh/prov/src/provisioning.c.obj
 *fill*         0x00041806        0x2 
 .rodata.alphanumeric.11636
                0x00041808       0x25 examples/serial/CMakeFiles/serial_nrf52840_xxAA_s140_6.0.0.dir/__/__/mesh/prov/src/prov_utils.c.obj
 *fill*         0x0004182d        0x3 
 .rodata.numeric_max.11630
                0x00041830       0x24 examples/serial/CMakeFiles/serial_nrf52840_xxAA_s140_6.0.0.dir/__/__/mesh/prov/src/prov_utils.c.obj
 .rodata.prov_utils_authentication_values_derive.str1.4
                0x00041854        0x5 examples/serial/CMakeFiles/serial_nrf52840_xxAA_s140_6.0.0.dir/__/__/mesh/prov/src/prov_utils.c.obj
 *fill*         0x00041859        0x3 
 .rodata.prov_utils_derive_keys.str1.4
                0x0004185c       0x15 examples/serial/CMakeFiles/serial_nrf52840_xxAA_s140_6.0.0.dir/__/__/mesh/prov/src/prov_utils.c.obj
 *fill*         0x00041871        0x3 
 .rodata.crctable.11265
                0x00041874      0x100 examples/serial/CMakeFiles/serial_nrf52840_xxAA_s140_6.0.0.dir/__/__/mesh/prov/src/prov_bearer_adv.c.obj
 .rodata.interface.11495
                0x00041974       0x14 examples/serial/CMakeFiles/serial_nrf52840_xxAA_s140_6.0.0.dir/__/__/mesh/prov/src/prov_bearer_adv.c.obj
 .rodata.prov_bearer_adv_listen.str1.4
                0x00041988       0x50 examples/serial/CMakeFiles/serial_nrf52840_xxAA_s140_6.0.0.dir/__/__/mesh/prov/src/prov_bearer_adv.c.obj
 .rodata.prov_bearer_adv_packet_in.str1.4
                0x000419d8      0x283 examples/serial/CMakeFiles/serial_nrf52840_xxAA_s140_6.0.0.dir/__/__/mesh/prov/src/prov_bearer_adv.c.obj
 *fill*         0x00041c5b        0x1 
 .rodata.tx_retry_cb.str1.4
                0x00041c5c       0x14 examples/serial/CMakeFiles/serial_nrf52840_xxAA_s140_6.0.0.dir/__/__/mesh/prov/src/prov_bearer_adv.c.obj
 .rodata.access_model_publish.str1.4
                0x00041c70       0x24 examples/serial/CMakeFiles/serial_nrf52840_xxAA_s140_6.0.0.dir/__/__/mesh/access/src/access.c.obj
 .rodata.mesh_evt_cb.str1.4
                0x00041c94       0x2f examples/serial/CMakeFiles/serial_nrf52840_xxAA_s140_6.0.0.dir/__/__/mesh/access/src/access.c.obj
 *fill*         0x00041cc3        0x1 
 .rodata.multiply_de_bruijn_bit_position.9659
                0x00041cc4       0x20 examples/serial/CMakeFiles/serial_nrf52840_xxAA_s140_6.0.0.dir/__/__/mesh/access/src/device_state_manager.c.obj
 .rodata        0x00041ce4        0x8 examples/serial/CMakeFiles/serial_nrf52840_xxAA_s140_6.0.0.dir/__/__/models/config/src/config_server.c.obj
 .rodata.CSWTCH.122
                0x00041cec       0x10 examples/serial/CMakeFiles/serial_nrf52840_xxAA_s140_6.0.0.dir/__/__/models/config/src/config_server.c.obj
 .rodata.opcode_handlers
                0x00041cfc      0x170 examples/serial/CMakeFiles/serial_nrf52840_xxAA_s140_6.0.0.dir/__/__/models/config/src/config_server.c.obj
 .rodata.m_opcode_handlers
                0x00041e6c       0x58 examples/serial/CMakeFiles/serial_nrf52840_xxAA_s140_6.0.0.dir/__/__/models/health/src/health_server.c.obj
 .rodata.multiply_de_bruijn_bit_position.9597
                0x00041ec4       0x20 examples/serial/CMakeFiles/serial_nrf52840_xxAA_s140_6.0.0.dir/__/__/models/health/src/health_server.c.obj
 .rodata.m_cmd_handlers
                0x00041ee4       0xb0 examples/serial/CMakeFiles/serial_nrf52840_xxAA_s140_6.0.0.dir/__/__/mesh/serial/src/serial_handler_access.c.obj
 .rodata.serial_process_cmd.str1.4
                0x00041f94       0x6a examples/serial/CMakeFiles/serial_nrf52840_xxAA_s140_6.0.0.dir/__/__/mesh/serial/src/serial.c.obj
 *fill*         0x00041ffe        0x2 
 .rodata.serial_start.str1.4
                0x00042000       0x11 examples/serial/CMakeFiles/serial_nrf52840_xxAA_s140_6.0.0.dir/__/__/mesh/serial/src/serial.c.obj
 *fill*         0x00042011        0x3 
 .rodata.serial_handler_prov_init.str1.4
                0x00042014       0x4e examples/serial/CMakeFiles/serial_nrf52840_xxAA_s140_6.0.0.dir/__/__/mesh/serial/src/serial_handler_prov.c.obj
 *fill*         0x00042062        0x2 
 .rodata.lengths.11607
                0x00042064        0x7 examples/serial/CMakeFiles/serial_nrf52840_xxAA_s140_6.0.0.dir/__/__/mesh/serial/src/serial_handler_dfu.c.obj
 *fill*         0x0004206b        0x1 
 .rodata.m_handlers
                0x0004206c       0xe8 examples/serial/CMakeFiles/serial_nrf52840_xxAA_s140_6.0.0.dir/__/__/mesh/serial/src/serial_handler_mesh.c.obj
 .rodata.m_cmd_handlers
                0x00042154       0x18 examples/serial/CMakeFiles/serial_nrf52840_xxAA_s140_6.0.0.dir/__/__/mesh/serial/src/serial_handler_models.c.obj
 .rodata.m_cmd_handlers
                0x0004216c       0x48 examples/serial/CMakeFiles/serial_nrf52840_xxAA_s140_6.0.0.dir/__/__/mesh/serial/src/serial_handler_device.c.obj
 .rodata.app_error_fault_handler.str1.4
                0x000421b4       0xc5 examples/serial/CMakeFiles/serial_nrf52840_xxAA_s140_6.0.0.dir/__/common/src/app_error_weak.c.obj
 .rodata.mesh_assertion_handler.str1.4
                0x00042279       0xc5 examples/serial/CMakeFiles/serial_nrf52840_xxAA_s140_6.0.0.dir/__/common/src/assertion_handler_weak.c.obj
                                  0x1 (size before relaxing)
 *fill*         0x00042279        0x3 
 .rodata.sar_ctx_cancel.str1.4
                0x0004227c       0x23 examples/serial/CMakeFiles/serial_nrf52840_xxAA_s140_6.0.0.dir/__/__/mesh/core/src/transport.c.obj
 *fill*         0x0004229f        0x1 
 .rodata.transport_packet_in.str1.4
                0x000422a0       0x24 examples/serial/CMakeFiles/serial_nrf52840_xxAA_s140_6.0.0.dir/__/__/mesh/core/src/transport.c.obj
 .rodata.upper_transport_access_packet_in.str1.4
                0x000422c4       0x3d examples/serial/CMakeFiles/serial_nrf52840_xxAA_s140_6.0.0.dir/__/__/mesh/core/src/transport.c.obj
 *fill*         0x00042301        0x3 
 .rodata.upper_transport_packet_in.str1.4
                0x00042304       0x2e examples/serial/CMakeFiles/serial_nrf52840_xxAA_s140_6.0.0.dir/__/__/mesh/core/src/transport.c.obj
 *fill*         0x00042332        0x2 
 .rodata.upper_transport_tx.part.25.str1.4
                0x00042334       0x2e examples/serial/CMakeFiles/serial_nrf52840_xxAA_s140_6.0.0.dir/__/__/mesh/core/src/transport.c.obj
                                 0x38 (size before relaxing)
 *fill*         0x00042362        0x2 
 .rodata.m_all_operations
                0x00042364       0x10 examples/serial/CMakeFiles/serial_nrf52840_xxAA_s140_6.0.0.dir/__/__/mesh/core/src/mesh_flash.c.obj
 .rodata.types_lookup.9352
                0x00042374        0x4 examples/serial/CMakeFiles/serial_nrf52840_xxAA_s140_6.0.0.dir/__/__/mesh/core/src/nrf_mesh_utils.c.obj
 .rodata.__func__.11820
                0x00042378       0x15 examples/serial/CMakeFiles/serial_nrf52840_xxAA_s140_6.0.0.dir/__/__/mesh/core/src/nrf_mesh.c.obj
 *fill*         0x0004238d        0x3 
 .rodata.nrf_mesh_listen.str1.4
                0x00042390       0x73 examples/serial/CMakeFiles/serial_nrf52840_xxAA_s140_6.0.0.dir/__/__/mesh/core/src/nrf_mesh.c.obj
 .rodata.nrf_mesh_packet_send.str1.4
                0x00042403       0x73 examples/serial/CMakeFiles/serial_nrf52840_xxAA_s140_6.0.0.dir/__/__/mesh/core/src/nrf_mesh.c.obj
                                  0x4 (size before relaxing)
 *fill*         0x00042403        0x1 
 .rodata.CSWTCH.7
                0x00042404       0x20 examples/serial/CMakeFiles/serial_nrf52840_xxAA_s140_6.0.0.dir/__/__/mesh/core/src/hal.c.obj
 .rodata        0x00042424       0x18 examples/serial/CMakeFiles/serial_nrf52840_xxAA_s140_6.0.0.dir/__/__/mesh/core/src/enc.c.obj
 .rodata.network_packet_in.str1.4
                0x0004243c       0x49 examples/serial/CMakeFiles/serial_nrf52840_xxAA_s140_6.0.0.dir/__/__/mesh/core/src/network.c.obj
 *fill*         0x00042485        0x3 
 .rodata.net_packet_decrypt.str1.4
                0x00042488       0x33 examples/serial/CMakeFiles/serial_nrf52840_xxAA_s140_6.0.0.dir/__/__/mesh/core/src/net_packet.c.obj
                                 0x3c (size before relaxing)
 *fill*         0x000424bb        0x1 
 .rodata        0x000424bc        0x7 examples/serial/CMakeFiles/serial_nrf52840_xxAA_s140_6.0.0.dir/__/__/mesh/core/src/nrf_mesh_keygen.c.obj
 *fill*         0x000424c3        0x1 
 .rodata.log_callback_rtt.str1.4
                0x000424c4       0x15 examples/serial/CMakeFiles/serial_nrf52840_xxAA_s140_6.0.0.dir/__/__/mesh/core/src/log.c.obj
 *fill*         0x000424d9        0x3 
 .rodata.str1.4
                0x000424dc       0x11 examples/serial/CMakeFiles/serial_nrf52840_xxAA_s140_6.0.0.dir/__/__/mesh/core/src/log.c.obj
 *fill*         0x000424ed        0x3 
 .rodata.beacon_packet_in.str1.4
                0x000424f0       0x55 examples/serial/CMakeFiles/serial_nrf52840_xxAA_s140_6.0.0.dir/__/__/mesh/core/src/beacon.c.obj
                                 0x60 (size before relaxing)
 *fill*         0x00042545        0x3 
 .rodata.cp_handler
                0x00042548        0x8 examples/serial/CMakeFiles/serial_nrf52840_xxAA_s140_6.0.0.dir/__/__/mesh/core/src/heartbeat.c.obj
 .rodata.beacon_tx.str1.4
                0x00042550       0x37 examples/serial/CMakeFiles/serial_nrf52840_xxAA_s140_6.0.0.dir/__/__/mesh/core/src/net_beacon.c.obj
 *fill*         0x00042587        0x1 
 .rodata.net_beacon_init.str1.4
                0x00042588        0x5 examples/serial/CMakeFiles/serial_nrf52840_xxAA_s140_6.0.0.dir/__/__/mesh/core/src/net_beacon.c.obj
 *fill*         0x0004258d        0x3 
 .rodata.m_interface
                0x00042590        0xc examples/serial/CMakeFiles/serial_nrf52840_xxAA_s140_6.0.0.dir/__/__/mesh/core/src/core_tx_adv.c.obj
 .rodata.radio_mode_to_us_per_byte.9745
                0x0004259c        0x6 examples/serial/CMakeFiles/serial_nrf52840_xxAA_s140_6.0.0.dir/__/__/mesh/bearer/src/broadcast.c.obj
 *fill*         0x000425a2        0x2 
 .rodata.channel_rf_offsets.8986
                0x000425a4       0x28 examples/serial/CMakeFiles/serial_nrf52840_xxAA_s140_6.0.0.dir/__/__/mesh/bearer/src/radio_config.c.obj
 .rodata.curve_secp256r1
                0x000425cc       0xb0 external/micro-ecc/libuECC_nrf52840_xxAA.a(uECC.c.obj)
 .rodata.SEGGER_RTT_ReadNoLock.str1.4
                0x0004267c       0x18 external/rtt/librtt_nrf52840_xxAA.a(SEGGER_RTT.c.obj)
                                 0x17 (size before relaxing)
 .rodata._aV2C.5497
                0x00042694       0x10 external/rtt/librtt_nrf52840_xxAA.a(SEGGER_RTT_printf.c.obj)
 .rodata._global_impure_ptr
                0x000426a4        0x4 c:/mesh/arm_gcc/bin/../lib/gcc/arm-none-eabi/6.3.1/../../../../arm-none-eabi/lib/thumb/v7e-m/fpv4-sp/hard\libc_nano.a(lib_a-impure.o)
                0x000426a4                _global_impure_ptr
 *(.eh_frame*)
 .eh_frame      0x000426a8        0x0 c:/mesh/arm_gcc/bin/../lib/gcc/arm-none-eabi/6.3.1/thumb/v7e-m/fpv4-sp/hard/crtbegin.o
 .eh_frame      0x000426a8        0x4 c:/mesh/arm_gcc/bin/../lib/gcc/arm-none-eabi/6.3.1/thumb/v7e-m/fpv4-sp/hard/crtend.o

.glue_7         0x000426ac        0x0
 .glue_7        0x000426ac        0x0 linker stubs

.glue_7t        0x000426ac        0x0
 .glue_7t       0x000426ac        0x0 linker stubs

.vfp11_veneer   0x000426ac        0x0
 .vfp11_veneer  0x000426ac        0x0 linker stubs

.v4_bx          0x000426ac        0x0
 .v4_bx         0x000426ac        0x0 linker stubs

.iplt           0x000426ac        0x0
 .iplt          0x000426ac        0x0 c:/mesh/arm_gcc/bin/../lib/gcc/arm-none-eabi/6.3.1/thumb/v7e-m/fpv4-sp/hard/crtbegin.o

.pwr_mgmt_data  0x000426ac        0x0
                [!provide]                PROVIDE (__start_pwr_mgmt_data, .)
 *(SORT(.pwr_mgmt_data*))
                [!provide]                PROVIDE (__stop_pwr_mgmt_data, .)

.log_const_data
                0x000426ac        0x0
                [!provide]                PROVIDE (__start_log_const_data, .)
 *(.log_const_data)
                [!provide]                PROVIDE (__stop_log_const_data, .)

.cli_command    0x000426ac        0x0
                [!provide]                PROVIDE (__start_cli_command, .)
 *(.cli_command)
                [!provide]                PROVIDE (__stop_cli_command, .)

.sdh_stack_observers
                0x000426ac        0x0
                [!provide]                PROVIDE (__start_sdh_stack_observers, .)
 *(SORT(.sdh_stack_observers*))
                [!provide]                PROVIDE (__stop_sdh_stack_observers, .)

.sdh_req_observers
                0x000426ac        0x0
                [!provide]                PROVIDE (__start_sdh_req_observers, .)
 *(SORT(.sdh_req_observers*))
                [!provide]                PROVIDE (__stop_sdh_req_observers, .)

.sdh_state_observers
                0x000426ac        0x0
                [!provide]                PROVIDE (__start_sdh_state_observers, .)
 *(SORT(.sdh_state_observers*))
                [!provide]                PROVIDE (__stop_sdh_state_observers, .)

.sdh_ant_observers
                0x000426ac        0x0
                [!provide]                PROVIDE (__start_sdh_ant_observers, .)
 *(SORT(.sdh_ant_observers*))
                [!provide]                PROVIDE (__stop_sdh_ant_observers, .)

.sdh_ble_observers
                0x000426ac        0x0
                [!provide]                PROVIDE (__start_sdh_ble_observers, .)
 *(SORT(.sdh_ble_observers*))
                [!provide]                PROVIDE (__stop_sdh_ble_observers, .)

.sdh_soc_observers
                0x000426ac        0x0
                [!provide]                PROVIDE (__start_sdh_soc_observers, .)
 *(SORT(.sdh_soc_observers*))
                [!provide]                PROVIDE (__stop_sdh_soc_observers, .)

.ARM.extab
 *(.ARM.extab* .gnu.linkonce.armextab.*)
                0x000426ac                __exidx_start = .

.ARM.exidx      0x000426ac        0x8
 *(.ARM.exidx* .gnu.linkonce.armexidx.*)
 .ARM.exidx     0x000426ac        0x8 c:/mesh/arm_gcc/bin/../lib/gcc/arm-none-eabi/6.3.1/../../../../arm-none-eabi/lib/thumb/v7e-m/fpv4-sp/hard/crt0.o
                0x000426b4                __exidx_end = .
                0x000426b4                __etext = .

.rel.dyn        0x000426b4        0x0
 .rel.iplt      0x000426b4        0x0 c:/mesh/arm_gcc/bin/../lib/gcc/arm-none-eabi/6.3.1/thumb/v7e-m/fpv4-sp/hard/crtbegin.o

.data           0x200032c8       0xa8 load address 0x000426b4
                0x200032c8                __data_start__ = .
 *(vtable)
 *(.data*)
 .data.m_async_process_flag
                0x200032c8        0x4 examples/serial/CMakeFiles/serial_nrf52840_xxAA_s140_6.0.0.dir/__/__/mesh/prov/src/prov_bearer_adv.c.obj
 .data.m_default_ttl
                0x200032cc        0x1 examples/serial/CMakeFiles/serial_nrf52840_xxAA_s140_6.0.0.dir/__/__/mesh/access/src/access.c.obj
 *fill*         0x200032cd        0x1 
 .data.m_config_server_handle
                0x200032ce        0x2 examples/serial/CMakeFiles/serial_nrf52840_xxAA_s140_6.0.0.dir/__/__/models/config/src/config_server.c.obj
 .data.m_mesh_evt_handler
                0x200032d0        0x8 examples/serial/CMakeFiles/serial_nrf52840_xxAA_s140_6.0.0.dir/__/__/models/config/src/config_server.c.obj
 .data.wait.9229
                0x200032d8        0x1 examples/serial/CMakeFiles/serial_nrf52840_xxAA_s140_6.0.0.dir/__/common/src/app_error_weak.c.obj
 *fill*         0x200032d9        0x3 
 .data.m_nrf_mesh_listener
                0x200032dc        0xc examples/serial/CMakeFiles/serial_nrf52840_xxAA_s140_6.0.0.dir/__/__/mesh/core/src/nrf_mesh.c.obj
 .data.g_log_dbg_lvl
                0x200032e8        0x4 examples/serial/CMakeFiles/serial_nrf52840_xxAA_s140_6.0.0.dir/__/__/mesh/core/src/log.c.obj
                0x200032e8                g_log_dbg_lvl
 .data.g_log_dbg_msk
                0x200032ec        0x4 examples/serial/CMakeFiles/serial_nrf52840_xxAA_s140_6.0.0.dir/__/__/mesh/core/src/log.c.obj
                0x200032ec                g_log_dbg_msk
 .data.g_log_hex_digits
                0x200032f0        0x4 examples/serial/CMakeFiles/serial_nrf52840_xxAA_s140_6.0.0.dir/__/__/mesh/core/src/log.c.obj
                0x200032f0                g_log_hex_digits
 .data.m_log_callback
                0x200032f4        0x4 examples/serial/CMakeFiles/serial_nrf52840_xxAA_s140_6.0.0.dir/__/__/mesh/core/src/log.c.obj
                0x200032f4                m_log_callback
 .data.SystemCoreClock
                0x200032f8        0x4 examples/serial/CMakeFiles/serial_nrf52840_xxAA_s140_6.0.0.dir/C_/ver/mod/nRF5_SDK_15.0.0_a53641a/modules/nrfx/mdk/system_nrf52840.c.obj
                0x200032f8                SystemCoreClock
 .data.g_rng_function
                0x200032fc        0x4 external/micro-ecc/libuECC_nrf52840_xxAA.a(uECC.c.obj)
 .data._impure_ptr
                0x20003300        0x4 c:/mesh/arm_gcc/bin/../lib/gcc/arm-none-eabi/6.3.1/../../../../arm-none-eabi/lib/thumb/v7e-m/fpv4-sp/hard\libc_nano.a(lib_a-impure.o)
                0x20003300                _impure_ptr
 .data.impure_data
                0x20003304       0x60 c:/mesh/arm_gcc/bin/../lib/gcc/arm-none-eabi/6.3.1/../../../../arm-none-eabi/lib/thumb/v7e-m/fpv4-sp/hard\libc_nano.a(lib_a-impure.o)
                0x20003364                . = ALIGN (0x4)
                0x20003364                PROVIDE (__preinit_array_start, .)
 *(.preinit_array)
                0x20003364                PROVIDE (__preinit_array_end, .)
                0x20003364                . = ALIGN (0x4)
                0x20003364                PROVIDE (__init_array_start, .)
 *(SORT(.init_array.*))
 *(.init_array)
 .init_array    0x20003364        0x4 c:/mesh/arm_gcc/bin/../lib/gcc/arm-none-eabi/6.3.1/thumb/v7e-m/fpv4-sp/hard/crtbegin.o
                0x20003368                PROVIDE (__init_array_end, .)
                0x20003368                . = ALIGN (0x4)
                [!provide]                PROVIDE (__fini_array_start, .)
 *(SORT(.fini_array.*))
 *(.fini_array)
 .fini_array    0x20003368        0x4 c:/mesh/arm_gcc/bin/../lib/gcc/arm-none-eabi/6.3.1/thumb/v7e-m/fpv4-sp/hard/crtbegin.o
                [!provide]                PROVIDE (__fini_array_end, .)
 *(.jcr*)
 .jcr           0x2000336c        0x0 c:/mesh/arm_gcc/bin/../lib/gcc/arm-none-eabi/6.3.1/thumb/v7e-m/fpv4-sp/hard/crtbegin.o
 .jcr           0x2000336c        0x4 c:/mesh/arm_gcc/bin/../lib/gcc/arm-none-eabi/6.3.1/thumb/v7e-m/fpv4-sp/hard/crtend.o
                0x20003370                . = ALIGN (0x4)
                0x20003370                __data_end__ = .
LOAD c:/mesh/arm_gcc/bin/../lib/gcc/arm-none-eabi/6.3.1/thumb/v7e-m/fpv4-sp/hard/crti.o
LOAD c:/mesh/arm_gcc/bin/../lib/gcc/arm-none-eabi/6.3.1/thumb/v7e-m/fpv4-sp/hard/crtbegin.o
LOAD c:/mesh/arm_gcc/bin/../lib/gcc/arm-none-eabi/6.3.1/../../../../arm-none-eabi/lib/thumb/v7e-m/fpv4-sp/hard/crt0.o
LOAD examples/serial/CMakeFiles/serial_nrf52840_xxAA_s140_6.0.0.dir/src/main.c.obj
LOAD examples/serial/CMakeFiles/serial_nrf52840_xxAA_s140_6.0.0.dir/__/__/mesh/stack/src/mesh_stack.c.obj
LOAD examples/serial/CMakeFiles/serial_nrf52840_xxAA_s140_6.0.0.dir/__/common/src/mesh_softdevice_init.c.obj
LOAD examples/serial/CMakeFiles/serial_nrf52840_xxAA_s140_6.0.0.dir/__/common/src/mesh_provisionee.c.obj
LOAD examples/serial/CMakeFiles/serial_nrf52840_xxAA_s140_6.0.0.dir/__/common/src/simple_hal.c.obj
LOAD examples/serial/CMakeFiles/serial_nrf52840_xxAA_s140_6.0.0.dir/__/__/mesh/prov/src/prov_provisioner.c.obj
LOAD examples/serial/CMakeFiles/serial_nrf52840_xxAA_s140_6.0.0.dir/__/__/mesh/prov/src/prov_provisionee.c.obj
LOAD examples/serial/CMakeFiles/serial_nrf52840_xxAA_s140_6.0.0.dir/__/__/mesh/prov/src/nrf_mesh_prov.c.obj
LOAD examples/serial/CMakeFiles/serial_nrf52840_xxAA_s140_6.0.0.dir/__/__/mesh/prov/src/provisioning.c.obj
LOAD examples/serial/CMakeFiles/serial_nrf52840_xxAA_s140_6.0.0.dir/__/__/mesh/prov/src/prov_beacon.c.obj
LOAD examples/serial/CMakeFiles/serial_nrf52840_xxAA_s140_6.0.0.dir/__/__/mesh/prov/src/prov_utils.c.obj
LOAD examples/serial/CMakeFiles/serial_nrf52840_xxAA_s140_6.0.0.dir/__/__/mesh/prov/src/prov_bearer_adv.c.obj
LOAD examples/serial/CMakeFiles/serial_nrf52840_xxAA_s140_6.0.0.dir/__/__/mesh/access/src/access_publish.c.obj
LOAD examples/serial/CMakeFiles/serial_nrf52840_xxAA_s140_6.0.0.dir/__/__/mesh/access/src/access.c.obj
LOAD examples/serial/CMakeFiles/serial_nrf52840_xxAA_s140_6.0.0.dir/__/__/mesh/access/src/access_reliable.c.obj
LOAD examples/serial/CMakeFiles/serial_nrf52840_xxAA_s140_6.0.0.dir/__/__/mesh/access/src/device_state_manager.c.obj
LOAD examples/serial/CMakeFiles/serial_nrf52840_xxAA_s140_6.0.0.dir/__/__/models/config/src/composition_data.c.obj
LOAD examples/serial/CMakeFiles/serial_nrf52840_xxAA_s140_6.0.0.dir/__/__/models/config/src/config_server.c.obj
LOAD examples/serial/CMakeFiles/serial_nrf52840_xxAA_s140_6.0.0.dir/__/__/models/config/src/packed_index_list.c.obj
LOAD examples/serial/CMakeFiles/serial_nrf52840_xxAA_s140_6.0.0.dir/__/__/models/health/src/health_server.c.obj
LOAD examples/serial/CMakeFiles/serial_nrf52840_xxAA_s140_6.0.0.dir/__/__/mesh/serial/src/serial_uart.c.obj
LOAD examples/serial/CMakeFiles/serial_nrf52840_xxAA_s140_6.0.0.dir/__/__/mesh/serial/src/serial_bearer.c.obj
LOAD examples/serial/CMakeFiles/serial_nrf52840_xxAA_s140_6.0.0.dir/__/__/mesh/serial/src/serial_handler_common.c.obj
LOAD examples/serial/CMakeFiles/serial_nrf52840_xxAA_s140_6.0.0.dir/__/__/mesh/serial/src/serial_handler_access.c.obj
LOAD examples/serial/CMakeFiles/serial_nrf52840_xxAA_s140_6.0.0.dir/__/__/mesh/serial/src/serial_handler_config.c.obj
LOAD examples/serial/CMakeFiles/serial_nrf52840_xxAA_s140_6.0.0.dir/__/__/mesh/serial/src/serial_handler_openmesh.c.obj
LOAD examples/serial/CMakeFiles/serial_nrf52840_xxAA_s140_6.0.0.dir/__/__/mesh/serial/src/serial.c.obj
LOAD examples/serial/CMakeFiles/serial_nrf52840_xxAA_s140_6.0.0.dir/__/__/mesh/serial/src/serial_handler_prov.c.obj
LOAD examples/serial/CMakeFiles/serial_nrf52840_xxAA_s140_6.0.0.dir/__/__/mesh/serial/src/serial_handler_dfu.c.obj
LOAD examples/serial/CMakeFiles/serial_nrf52840_xxAA_s140_6.0.0.dir/__/__/mesh/serial/src/serial_handler_mesh.c.obj
LOAD examples/serial/CMakeFiles/serial_nrf52840_xxAA_s140_6.0.0.dir/__/__/mesh/serial/src/serial_handler_models.c.obj
LOAD examples/serial/CMakeFiles/serial_nrf52840_xxAA_s140_6.0.0.dir/__/__/mesh/serial/src/serial_handler_device.c.obj
LOAD examples/serial/CMakeFiles/serial_nrf52840_xxAA_s140_6.0.0.dir/__/__/mesh/serial/src/nrf_mesh_serial.c.obj
LOAD examples/serial/CMakeFiles/serial_nrf52840_xxAA_s140_6.0.0.dir/__/__/mesh/serial/src/serial_handler_app.c.obj
LOAD examples/serial/CMakeFiles/serial_nrf52840_xxAA_s140_6.0.0.dir/__/nrf_mesh_weak.c.obj
LOAD examples/serial/CMakeFiles/serial_nrf52840_xxAA_s140_6.0.0.dir/__/common/src/app_error_weak.c.obj
LOAD examples/serial/CMakeFiles/serial_nrf52840_xxAA_s140_6.0.0.dir/__/common/src/assertion_handler_weak.c.obj
LOAD examples/serial/CMakeFiles/serial_nrf52840_xxAA_s140_6.0.0.dir/__/__/mesh/core/src/internal_event.c.obj
LOAD examples/serial/CMakeFiles/serial_nrf52840_xxAA_s140_6.0.0.dir/__/__/mesh/core/src/nrf_mesh_configure.c.obj
LOAD examples/serial/CMakeFiles/serial_nrf52840_xxAA_s140_6.0.0.dir/__/__/mesh/core/src/aes.c.obj
LOAD examples/serial/CMakeFiles/serial_nrf52840_xxAA_s140_6.0.0.dir/__/__/mesh/core/src/msg_cache.c.obj
LOAD examples/serial/CMakeFiles/serial_nrf52840_xxAA_s140_6.0.0.dir/__/__/mesh/core/src/transport.c.obj
LOAD examples/serial/CMakeFiles/serial_nrf52840_xxAA_s140_6.0.0.dir/__/__/mesh/core/src/event.c.obj
LOAD examples/serial/CMakeFiles/serial_nrf52840_xxAA_s140_6.0.0.dir/__/__/mesh/core/src/packet_buffer.c.obj
LOAD examples/serial/CMakeFiles/serial_nrf52840_xxAA_s140_6.0.0.dir/__/__/mesh/core/src/flash_manager_defrag.c.obj
LOAD examples/serial/CMakeFiles/serial_nrf52840_xxAA_s140_6.0.0.dir/__/__/mesh/core/src/fifo.c.obj
LOAD examples/serial/CMakeFiles/serial_nrf52840_xxAA_s140_6.0.0.dir/__/__/mesh/core/src/nrf_flash.c.obj
LOAD examples/serial/CMakeFiles/serial_nrf52840_xxAA_s140_6.0.0.dir/__/__/mesh/core/src/packet_mgr.c.obj
LOAD examples/serial/CMakeFiles/serial_nrf52840_xxAA_s140_6.0.0.dir/__/__/mesh/core/src/net_state.c.obj
LOAD examples/serial/CMakeFiles/serial_nrf52840_xxAA_s140_6.0.0.dir/__/__/mesh/core/src/mesh_flash.c.obj
LOAD examples/serial/CMakeFiles/serial_nrf52840_xxAA_s140_6.0.0.dir/__/__/mesh/core/src/nrf_mesh_utils.c.obj
LOAD examples/serial/CMakeFiles/serial_nrf52840_xxAA_s140_6.0.0.dir/__/__/mesh/core/src/nrf_mesh.c.obj
LOAD examples/serial/CMakeFiles/serial_nrf52840_xxAA_s140_6.0.0.dir/__/__/mesh/core/src/queue.c.obj
LOAD examples/serial/CMakeFiles/serial_nrf52840_xxAA_s140_6.0.0.dir/__/__/mesh/core/src/hal.c.obj
LOAD examples/serial/CMakeFiles/serial_nrf52840_xxAA_s140_6.0.0.dir/__/__/mesh/core/src/aes_cmac.c.obj
LOAD examples/serial/CMakeFiles/serial_nrf52840_xxAA_s140_6.0.0.dir/__/__/mesh/core/src/timer_scheduler.c.obj
LOAD examples/serial/CMakeFiles/serial_nrf52840_xxAA_s140_6.0.0.dir/__/__/mesh/core/src/timer.c.obj
LOAD examples/serial/CMakeFiles/serial_nrf52840_xxAA_s140_6.0.0.dir/__/__/mesh/core/src/ticker.c.obj
LOAD examples/serial/CMakeFiles/serial_nrf52840_xxAA_s140_6.0.0.dir/__/__/mesh/core/src/rand.c.obj
LOAD examples/serial/CMakeFiles/serial_nrf52840_xxAA_s140_6.0.0.dir/__/__/mesh/core/src/nrf_mesh_opt.c.obj
LOAD examples/serial/CMakeFiles/serial_nrf52840_xxAA_s140_6.0.0.dir/__/__/mesh/core/src/timeslot.c.obj
LOAD examples/serial/CMakeFiles/serial_nrf52840_xxAA_s140_6.0.0.dir/__/__/mesh/core/src/bearer_event.c.obj
LOAD examples/serial/CMakeFiles/serial_nrf52840_xxAA_s140_6.0.0.dir/__/__/mesh/core/src/enc.c.obj
LOAD examples/serial/CMakeFiles/serial_nrf52840_xxAA_s140_6.0.0.dir/__/__/mesh/core/src/network.c.obj
LOAD examples/serial/CMakeFiles/serial_nrf52840_xxAA_s140_6.0.0.dir/__/__/mesh/core/src/net_packet.c.obj
LOAD examples/serial/CMakeFiles/serial_nrf52840_xxAA_s140_6.0.0.dir/__/__/mesh/core/src/msqueue.c.obj
LOAD examples/serial/CMakeFiles/serial_nrf52840_xxAA_s140_6.0.0.dir/__/__/mesh/core/src/nrf_mesh_keygen.c.obj
LOAD examples/serial/CMakeFiles/serial_nrf52840_xxAA_s140_6.0.0.dir/__/__/mesh/core/src/cache.c.obj
LOAD examples/serial/CMakeFiles/serial_nrf52840_xxAA_s140_6.0.0.dir/__/__/mesh/core/src/uri.c.obj
LOAD examples/serial/CMakeFiles/serial_nrf52840_xxAA_s140_6.0.0.dir/__/__/mesh/core/src/list.c.obj
LOAD examples/serial/CMakeFiles/serial_nrf52840_xxAA_s140_6.0.0.dir/__/__/mesh/core/src/log.c.obj
LOAD examples/serial/CMakeFiles/serial_nrf52840_xxAA_s140_6.0.0.dir/__/__/mesh/core/src/flash_manager.c.obj
LOAD examples/serial/CMakeFiles/serial_nrf52840_xxAA_s140_6.0.0.dir/__/__/mesh/core/src/ccm_soft.c.obj
LOAD examples/serial/CMakeFiles/serial_nrf52840_xxAA_s140_6.0.0.dir/__/__/mesh/core/src/toolchain.c.obj
LOAD examples/serial/CMakeFiles/serial_nrf52840_xxAA_s140_6.0.0.dir/__/__/mesh/core/src/replay_cache.c.obj
LOAD examples/serial/CMakeFiles/serial_nrf52840_xxAA_s140_6.0.0.dir/__/__/mesh/core/src/beacon.c.obj
LOAD examples/serial/CMakeFiles/serial_nrf52840_xxAA_s140_6.0.0.dir/__/__/mesh/core/src/flash_manager_internal.c.obj
LOAD examples/serial/CMakeFiles/serial_nrf52840_xxAA_s140_6.0.0.dir/__/__/mesh/core/src/core_tx.c.obj
LOAD examples/serial/CMakeFiles/serial_nrf52840_xxAA_s140_6.0.0.dir/__/__/mesh/core/src/heartbeat.c.obj
LOAD examples/serial/CMakeFiles/serial_nrf52840_xxAA_s140_6.0.0.dir/__/__/mesh/core/src/net_beacon.c.obj
LOAD examples/serial/CMakeFiles/serial_nrf52840_xxAA_s140_6.0.0.dir/__/__/mesh/core/src/fsm.c.obj
LOAD examples/serial/CMakeFiles/serial_nrf52840_xxAA_s140_6.0.0.dir/__/__/mesh/core/src/core_tx_adv.c.obj
LOAD examples/serial/CMakeFiles/serial_nrf52840_xxAA_s140_6.0.0.dir/__/__/mesh/bearer/src/ad_listener.c.obj
LOAD examples/serial/CMakeFiles/serial_nrf52840_xxAA_s140_6.0.0.dir/__/__/mesh/bearer/src/ad_type_filter.c.obj
LOAD examples/serial/CMakeFiles/serial_nrf52840_xxAA_s140_6.0.0.dir/__/__/mesh/bearer/src/adv_packet_filter.c.obj
LOAD examples/serial/CMakeFiles/serial_nrf52840_xxAA_s140_6.0.0.dir/__/__/mesh/bearer/src/advertiser.c.obj
LOAD examples/serial/CMakeFiles/serial_nrf52840_xxAA_s140_6.0.0.dir/__/__/mesh/bearer/src/bearer_handler.c.obj
LOAD examples/serial/CMakeFiles/serial_nrf52840_xxAA_s140_6.0.0.dir/__/__/mesh/bearer/src/broadcast.c.obj
LOAD examples/serial/CMakeFiles/serial_nrf52840_xxAA_s140_6.0.0.dir/__/__/mesh/bearer/src/filter_engine.c.obj
LOAD examples/serial/CMakeFiles/serial_nrf52840_xxAA_s140_6.0.0.dir/__/__/mesh/bearer/src/gap_address_filter.c.obj
LOAD examples/serial/CMakeFiles/serial_nrf52840_xxAA_s140_6.0.0.dir/__/__/mesh/bearer/src/radio_config.c.obj
LOAD examples/serial/CMakeFiles/serial_nrf52840_xxAA_s140_6.0.0.dir/__/__/mesh/bearer/src/rssi_filter.c.obj
LOAD examples/serial/CMakeFiles/serial_nrf52840_xxAA_s140_6.0.0.dir/__/__/mesh/bearer/src/scanner.c.obj
LOAD examples/serial/CMakeFiles/serial_nrf52840_xxAA_s140_6.0.0.dir/C_/ver/mod/nRF5_SDK_15.0.0_a53641a/modules/nrfx/mdk/system_nrf52840.c.obj
LOAD examples/serial/CMakeFiles/serial_nrf52840_xxAA_s140_6.0.0.dir/C_/ver/mod/nRF5_SDK_15.0.0_a53641a/modules/nrfx/mdk/gcc_startup_nrf52840.S.obj
LOAD examples/serial/CMakeFiles/serial_nrf52840_xxAA_s140_6.0.0.dir/C_/ver/mod/nRF5_SDK_15.0.0_a53641a/components/libraries/util/app_error.c.obj
LOAD examples/serial/CMakeFiles/serial_nrf52840_xxAA_s140_6.0.0.dir/C_/ver/mod/nRF5_SDK_15.0.0_a53641a/components/libraries/util/app_error_handler_gcc.c.obj
LOAD external/micro-ecc/libuECC_nrf52840_xxAA.a
LOAD external/rtt/librtt_nrf52840_xxAA.a
START GROUP
LOAD c:/mesh/arm_gcc/bin/../lib/gcc/arm-none-eabi/6.3.1/thumb/v7e-m/fpv4-sp/hard\libgcc.a
LOAD c:/mesh/arm_gcc/bin/../lib/gcc/arm-none-eabi/6.3.1/../../../../arm-none-eabi/lib/thumb/v7e-m/fpv4-sp/hard\libc_nano.a
END GROUP
START GROUP
LOAD c:/mesh/arm_gcc/bin/../lib/gcc/arm-none-eabi/6.3.1/thumb/v7e-m/fpv4-sp/hard\libgcc.a
LOAD c:/mesh/arm_gcc/bin/../lib/gcc/arm-none-eabi/6.3.1/../../../../arm-none-eabi/lib/thumb/v7e-m/fpv4-sp/hard\libc_nano.a
END GROUP
LOAD c:/mesh/arm_gcc/bin/../lib/gcc/arm-none-eabi/6.3.1/thumb/v7e-m/fpv4-sp/hard/crtend.o
LOAD c:/mesh/arm_gcc/bin/../lib/gcc/arm-none-eabi/6.3.1/thumb/v7e-m/fpv4-sp/hard/crtn.o
START GROUP
LOAD c:/mesh/arm_gcc/bin/../lib/gcc/arm-none-eabi/6.3.1/thumb/v7e-m/fpv4-sp/hard\libgcc.a
LOAD c:/mesh/arm_gcc/bin/../lib/gcc/arm-none-eabi/6.3.1/../../../../arm-none-eabi/lib/thumb/v7e-m/fpv4-sp/hard\libc.a
LOAD c:/mesh/arm_gcc/bin/../lib/gcc/arm-none-eabi/6.3.1/../../../../arm-none-eabi/lib/thumb/v7e-m/fpv4-sp/hard\libnosys.a
END GROUP

.igot.plt       0x20003370        0x0 load address 0x0004275c
 .igot.plt      0x20003370        0x0 c:/mesh/arm_gcc/bin/../lib/gcc/arm-none-eabi/6.3.1/thumb/v7e-m/fpv4-sp/hard/crtbegin.o
                0x20003370                . = ALIGN (0x4)

.svc_data       0x20003370        0x0
                [!provide]                PROVIDE (__start_svc_data, .)
 *(.svc_data)
                [!provide]                PROVIDE (__stop_svc_data, .)

.fs_data        0x20003370        0x0
                [!provide]                PROVIDE (__start_fs_data, .)
 *(.fs_data)
                [!provide]                PROVIDE (__stop_fs_data, .)

.log_dynamic_data
                0x20003370        0x0
                [!provide]                PROVIDE (__start_log_dynamic_data, .)
 *(.log_dynamic_data)
                [!provide]                PROVIDE (__stop_log_dynamic_data, .)

.cli_sorted_cmd_ptrs
                0x20003370        0x0
                [!provide]                PROVIDE (__start_cli_sorted_cmd_ptrs, .)
 *(.cli_sorted_cmd_ptrs)
                [!provide]                PROVIDE (__stop_cli_sorted_cmd_ptrs, .)

.bss            0x20003370     0x3e60 load address 0x00042760
                0x20003370                . = ALIGN (0x4)
                0x20003370                __bss_start__ = .
 *(.bss*)
 .bss           0x20003370       0x1c c:/mesh/arm_gcc/bin/../lib/gcc/arm-none-eabi/6.3.1/thumb/v7e-m/fpv4-sp/hard/crtbegin.o
 .bss.m_device_provisioned
                0x2000338c        0x1 examples/serial/CMakeFiles/serial_nrf52840_xxAA_s140_6.0.0.dir/src/main.c.obj
 *fill*         0x2000338d        0x3 
 .bss.m_health_server
                0x20003390       0x5c examples/serial/CMakeFiles/serial_nrf52840_xxAA_s140_6.0.0.dir/__/__/mesh/stack/src/mesh_stack.c.obj
 .bss.m_init_params
                0x200033ec       0x24 examples/serial/CMakeFiles/serial_nrf52840_xxAA_s140_6.0.0.dir/__/__/mesh/stack/src/mesh_stack.c.obj
 .bss.m_device_provisioned
                0x20003410        0x1 examples/serial/CMakeFiles/serial_nrf52840_xxAA_s140_6.0.0.dir/__/common/src/mesh_provisionee.c.obj
 *fill*         0x20003411        0x3 
 .bss.m_params  0x20003414        0xc examples/serial/CMakeFiles/serial_nrf52840_xxAA_s140_6.0.0.dir/__/common/src/mesh_provisionee.c.obj
 .bss.m_private_key
                0x20003420       0x20 examples/serial/CMakeFiles/serial_nrf52840_xxAA_s140_6.0.0.dir/__/common/src/mesh_provisionee.c.obj
 .bss.m_prov_bearer_adv
                0x20003440      0x1c4 examples/serial/CMakeFiles/serial_nrf52840_xxAA_s140_6.0.0.dir/__/common/src/mesh_provisionee.c.obj
 .bss.m_prov_ctx
                0x20003604      0x134 examples/serial/CMakeFiles/serial_nrf52840_xxAA_s140_6.0.0.dir/__/common/src/mesh_provisionee.c.obj
 .bss.m_public_key
                0x20003738       0x40 examples/serial/CMakeFiles/serial_nrf52840_xxAA_s140_6.0.0.dir/__/common/src/mesh_provisionee.c.obj
 .bss.m_button_handler_cb
                0x20003778        0x4 examples/serial/CMakeFiles/serial_nrf52840_xxAA_s140_6.0.0.dir/__/common/src/simple_hal.c.obj
 .bss.m_last_button_press
                0x2000377c        0x4 examples/serial/CMakeFiles/serial_nrf52840_xxAA_s140_6.0.0.dir/__/common/src/simple_hal.c.obj
 .bss.m_event_handler
                0x20003780        0x4 examples/serial/CMakeFiles/serial_nrf52840_xxAA_s140_6.0.0.dir/__/__/mesh/prov/src/prov_beacon.c.obj
 .bss.m_offload_ecdh
                0x20003784        0x1 examples/serial/CMakeFiles/serial_nrf52840_xxAA_s140_6.0.0.dir/__/__/mesh/prov/src/prov_utils.c.obj
 *fill*         0x20003785        0x3 
 .bss.mp_bearer_head
                0x20003788        0x4 examples/serial/CMakeFiles/serial_nrf52840_xxAA_s140_6.0.0.dir/__/__/mesh/prov/src/prov_bearer_adv.c.obj
 .bss.m_publish_timer
                0x2000378c       0x18 examples/serial/CMakeFiles/serial_nrf52840_xxAA_s140_6.0.0.dir/__/__/mesh/access/src/access_publish.c.obj
 .bss.m_publish_timer_counter
                0x200037a4        0x4 examples/serial/CMakeFiles/serial_nrf52840_xxAA_s140_6.0.0.dir/__/__/mesh/access/src/access_publish.c.obj
 .bss.m_publish_timer_running
                0x200037a8        0x1 examples/serial/CMakeFiles/serial_nrf52840_xxAA_s140_6.0.0.dir/__/__/mesh/access/src/access_publish.c.obj
 .bss.m_timer_resolution
                0x200037a9        0x1 examples/serial/CMakeFiles/serial_nrf52840_xxAA_s140_6.0.0.dir/__/__/mesh/access/src/access_publish.c.obj
 *fill*         0x200037aa        0x2 
 .bss.mp_publication_list
                0x200037ac        0x4 examples/serial/CMakeFiles/serial_nrf52840_xxAA_s140_6.0.0.dir/__/__/mesh/access/src/access_publish.c.obj
 .bss.m_element_pool
                0x200037b0        0x6 examples/serial/CMakeFiles/serial_nrf52840_xxAA_s140_6.0.0.dir/__/__/mesh/access/src/access.c.obj
 *fill*         0x200037b6        0x2 
 .bss.m_evt_handler
                0x200037b8        0x8 examples/serial/CMakeFiles/serial_nrf52840_xxAA_s140_6.0.0.dir/__/__/mesh/access/src/access.c.obj
 .bss.m_model_pool
                0x200037c0       0x68 examples/serial/CMakeFiles/serial_nrf52840_xxAA_s140_6.0.0.dir/__/__/mesh/access/src/access.c.obj
 .bss.m_subscription_list_pool
                0x20003828       0x18 examples/serial/CMakeFiles/serial_nrf52840_xxAA_s140_6.0.0.dir/__/__/mesh/access/src/access.c.obj
 .bss.m_reliable
                0x20003840       0x74 examples/serial/CMakeFiles/serial_nrf52840_xxAA_s140_6.0.0.dir/__/__/mesh/access/src/access_reliable.c.obj
 .bss.m_addr_nonvirtual_allocated
                0x200038b4        0x4 examples/serial/CMakeFiles/serial_nrf52840_xxAA_s140_6.0.0.dir/__/__/mesh/access/src/device_state_manager.c.obj
 .bss.m_addr_nonvirtual_needs_flashing
                0x200038b8        0x4 examples/serial/CMakeFiles/serial_nrf52840_xxAA_s140_6.0.0.dir/__/__/mesh/access/src/device_state_manager.c.obj
 .bss.m_addr_unicast_allocated
                0x200038bc        0x4 examples/serial/CMakeFiles/serial_nrf52840_xxAA_s140_6.0.0.dir/__/__/mesh/access/src/device_state_manager.c.obj
 .bss.m_addr_unicast_needs_flashing
                0x200038c0        0x4 examples/serial/CMakeFiles/serial_nrf52840_xxAA_s140_6.0.0.dir/__/__/mesh/access/src/device_state_manager.c.obj
 .bss.m_addr_virtual_allocated
                0x200038c4        0x4 examples/serial/CMakeFiles/serial_nrf52840_xxAA_s140_6.0.0.dir/__/__/mesh/access/src/device_state_manager.c.obj
 .bss.m_addr_virtual_needs_flashing
                0x200038c8        0x4 examples/serial/CMakeFiles/serial_nrf52840_xxAA_s140_6.0.0.dir/__/__/mesh/access/src/device_state_manager.c.obj
 .bss.m_addresses
                0x200038cc       0x80 examples/serial/CMakeFiles/serial_nrf52840_xxAA_s140_6.0.0.dir/__/__/mesh/access/src/device_state_manager.c.obj
 .bss.m_appkey_allocated
                0x2000394c        0x4 examples/serial/CMakeFiles/serial_nrf52840_xxAA_s140_6.0.0.dir/__/__/mesh/access/src/device_state_manager.c.obj
 .bss.m_appkey_needs_flashing
                0x20003950        0x4 examples/serial/CMakeFiles/serial_nrf52840_xxAA_s140_6.0.0.dir/__/__/mesh/access/src/device_state_manager.c.obj
 .bss.m_appkeys
                0x20003954      0x150 examples/serial/CMakeFiles/serial_nrf52840_xxAA_s140_6.0.0.dir/__/__/mesh/access/src/device_state_manager.c.obj
 .bss.m_devkey_allocated
                0x20003aa4        0x4 examples/serial/CMakeFiles/serial_nrf52840_xxAA_s140_6.0.0.dir/__/__/mesh/access/src/device_state_manager.c.obj
 .bss.m_devkey_needs_flashing
                0x20003aa8        0x4 examples/serial/CMakeFiles/serial_nrf52840_xxAA_s140_6.0.0.dir/__/__/mesh/access/src/device_state_manager.c.obj
 .bss.m_devkeys
                0x20003aac       0xdc examples/serial/CMakeFiles/serial_nrf52840_xxAA_s140_6.0.0.dir/__/__/mesh/access/src/device_state_manager.c.obj
 .bss.m_has_primary_subnet
                0x20003b88        0x1 examples/serial/CMakeFiles/serial_nrf52840_xxAA_s140_6.0.0.dir/__/__/mesh/access/src/device_state_manager.c.obj
 *fill*         0x20003b89        0x3 
 .bss.m_local_unicast_addr
                0x20003b8c        0x4 examples/serial/CMakeFiles/serial_nrf52840_xxAA_s140_6.0.0.dir/__/__/mesh/access/src/device_state_manager.c.obj
 .bss.m_mesh_evt_handler
                0x20003b90        0x8 examples/serial/CMakeFiles/serial_nrf52840_xxAA_s140_6.0.0.dir/__/__/mesh/access/src/device_state_manager.c.obj
 .bss.m_subnet_allocated
                0x20003b98        0x4 examples/serial/CMakeFiles/serial_nrf52840_xxAA_s140_6.0.0.dir/__/__/mesh/access/src/device_state_manager.c.obj
 .bss.m_subnet_needs_flashing
                0x20003b9c        0x4 examples/serial/CMakeFiles/serial_nrf52840_xxAA_s140_6.0.0.dir/__/__/mesh/access/src/device_state_manager.c.obj
 .bss.m_subnets
                0x20003ba0      0x540 examples/serial/CMakeFiles/serial_nrf52840_xxAA_s140_6.0.0.dir/__/__/mesh/access/src/device_state_manager.c.obj
 .bss.m_virtual_addresses
                0x200040e0       0xa0 examples/serial/CMakeFiles/serial_nrf52840_xxAA_s140_6.0.0.dir/__/__/mesh/access/src/device_state_manager.c.obj
 .bss.m_evt_cb  0x20004180        0x4 examples/serial/CMakeFiles/serial_nrf52840_xxAA_s140_6.0.0.dir/__/__/models/config/src/config_server.c.obj
 .bss.m_heartbeat_publication
                0x20004184       0x14 examples/serial/CMakeFiles/serial_nrf52840_xxAA_s140_6.0.0.dir/__/__/models/config/src/config_server.c.obj
 .bss.m_node_reset_pending
                0x20004198        0x1 examples/serial/CMakeFiles/serial_nrf52840_xxAA_s140_6.0.0.dir/__/__/models/config/src/config_server.c.obj
 *fill*         0x20004199        0x3 
 .bss.m_attention_timer
                0x2000419c       0x18 examples/serial/CMakeFiles/serial_nrf52840_xxAA_s140_6.0.0.dir/__/__/models/health/src/health_server.c.obj
 .bss.mp_attention_list
                0x200041b4        0x4 examples/serial/CMakeFiles/serial_nrf52840_xxAA_s140_6.0.0.dir/__/__/models/health/src/health_server.c.obj
 .bss.m_can_receive
                0x200041b8        0x1 examples/serial/CMakeFiles/serial_nrf52840_xxAA_s140_6.0.0.dir/__/__/mesh/serial/src/serial_uart.c.obj
 *fill*         0x200041b9        0x3 
 .bss.m_char_rx_cb
                0x200041bc        0x4 examples/serial/CMakeFiles/serial_nrf52840_xxAA_s140_6.0.0.dir/__/__/mesh/serial/src/serial_uart.c.obj
 .bss.m_char_tx_cb
                0x200041c0        0x4 examples/serial/CMakeFiles/serial_nrf52840_xxAA_s140_6.0.0.dir/__/__/mesh/serial/src/serial_uart.c.obj
 .bss.m_cur_tx_packet_index
                0x200041c4        0x2 examples/serial/CMakeFiles/serial_nrf52840_xxAA_s140_6.0.0.dir/__/__/mesh/serial/src/serial_bearer.c.obj
 *fill*         0x200041c6        0x2 
 .bss.m_event_flag
                0x200041c8        0x4 examples/serial/CMakeFiles/serial_nrf52840_xxAA_s140_6.0.0.dir/__/__/mesh/serial/src/serial_bearer.c.obj
 .bss.m_ignore_rx_count
                0x200041cc        0x2 examples/serial/CMakeFiles/serial_nrf52840_xxAA_s140_6.0.0.dir/__/__/mesh/serial/src/serial_bearer.c.obj
 *fill*         0x200041ce        0x2 
 .bss.m_rx_buffer
                0x200041d0       0xd0 examples/serial/CMakeFiles/serial_nrf52840_xxAA_s140_6.0.0.dir/__/__/mesh/serial/src/serial_bearer.c.obj
 .bss.m_rx_packet_buf
                0x200042a0        0xc examples/serial/CMakeFiles/serial_nrf52840_xxAA_s140_6.0.0.dir/__/__/mesh/serial/src/serial_bearer.c.obj
 .bss.m_serial_state
                0x200042ac        0x1 examples/serial/CMakeFiles/serial_nrf52840_xxAA_s140_6.0.0.dir/__/__/mesh/serial/src/serial_bearer.c.obj
 *fill*         0x200042ad        0x1 
 .bss.m_stored_pac_len
                0x200042ae        0x2 examples/serial/CMakeFiles/serial_nrf52840_xxAA_s140_6.0.0.dir/__/__/mesh/serial/src/serial_bearer.c.obj
 .bss.m_tx_buffer
                0x200042b0       0xd0 examples/serial/CMakeFiles/serial_nrf52840_xxAA_s140_6.0.0.dir/__/__/mesh/serial/src/serial_bearer.c.obj
 .bss.m_tx_packet_buf
                0x20004380        0xc examples/serial/CMakeFiles/serial_nrf52840_xxAA_s140_6.0.0.dir/__/__/mesh/serial/src/serial_bearer.c.obj
 .bss.mp_current_rx_packet
                0x2000438c        0x4 examples/serial/CMakeFiles/serial_nrf52840_xxAA_s140_6.0.0.dir/__/__/mesh/serial/src/serial_bearer.c.obj
 .bss.mp_current_tx_packet
                0x20004390        0x4 examples/serial/CMakeFiles/serial_nrf52840_xxAA_s140_6.0.0.dir/__/__/mesh/serial/src/serial_bearer.c.obj
 .bss.rx_index.11620
                0x20004394        0x2 examples/serial/CMakeFiles/serial_nrf52840_xxAA_s140_6.0.0.dir/__/__/mesh/serial/src/serial_bearer.c.obj
 .bss.m_cmd_handler_scheduled
                0x20004396        0x1 examples/serial/CMakeFiles/serial_nrf52840_xxAA_s140_6.0.0.dir/__/__/mesh/serial/src/serial.c.obj
 .bss.m_state   0x20004397        0x1 examples/serial/CMakeFiles/serial_nrf52840_xxAA_s140_6.0.0.dir/__/__/mesh/serial/src/serial.c.obj
 .bss.m_pb_adv_contexts
                0x20004398      0x388 examples/serial/CMakeFiles/serial_nrf52840_xxAA_s140_6.0.0.dir/__/__/mesh/serial/src/serial_handler_prov.c.obj
 .bss.m_private_key
                0x20004720       0x20 examples/serial/CMakeFiles/serial_nrf52840_xxAA_s140_6.0.0.dir/__/__/mesh/serial/src/serial_handler_prov.c.obj
 .bss.m_prov_contexts
                0x20004740      0x268 examples/serial/CMakeFiles/serial_nrf52840_xxAA_s140_6.0.0.dir/__/__/mesh/serial/src/serial_handler_prov.c.obj
 .bss.m_provisioning_caps
                0x200049a8        0xb examples/serial/CMakeFiles/serial_nrf52840_xxAA_s140_6.0.0.dir/__/__/mesh/serial/src/serial_handler_prov.c.obj
 *fill*         0x200049b3        0x1 
 .bss.m_public_key
                0x200049b4       0x40 examples/serial/CMakeFiles/serial_nrf52840_xxAA_s140_6.0.0.dir/__/__/mesh/serial/src/serial_handler_prov.c.obj
 .bss.m_scanning_running
                0x200049f4        0x1 examples/serial/CMakeFiles/serial_nrf52840_xxAA_s140_6.0.0.dir/__/__/mesh/serial/src/serial_handler_prov.c.obj
 *fill*         0x200049f5        0x3 
 .bss.m_evt_handler
                0x200049f8        0x8 examples/serial/CMakeFiles/serial_nrf52840_xxAA_s140_6.0.0.dir/__/__/mesh/serial/src/serial_handler_dfu.c.obj
 .bss.m_evt_handler
                0x20004a00        0x8 examples/serial/CMakeFiles/serial_nrf52840_xxAA_s140_6.0.0.dir/__/__/mesh/serial/src/serial_handler_mesh.c.obj
 .bss.p_serial_evt.11806
                0x20004a08        0x4 examples/serial/CMakeFiles/serial_nrf52840_xxAA_s140_6.0.0.dir/__/__/mesh/serial/src/serial_handler_mesh.c.obj
 .bss.m_models_list
                0x20004a0c       0x18 examples/serial/CMakeFiles/serial_nrf52840_xxAA_s140_6.0.0.dir/__/__/mesh/serial/src/serial_handler_models.c.obj
 .bss.m_beacons
                0x20004a24      0x138 examples/serial/CMakeFiles/serial_nrf52840_xxAA_s140_6.0.0.dir/__/__/mesh/serial/src/serial_handler_device.c.obj
 .bss.m_app_rx_cb
                0x20004b5c        0x4 examples/serial/CMakeFiles/serial_nrf52840_xxAA_s140_6.0.0.dir/__/__/mesh/serial/src/serial_handler_app.c.obj
 .bss.m_uuid    0x20004b60       0x10 examples/serial/CMakeFiles/serial_nrf52840_xxAA_s140_6.0.0.dir/__/__/mesh/core/src/nrf_mesh_configure.c.obj
 .bss.m_msg_cache
                0x20004b70      0x100 examples/serial/CMakeFiles/serial_nrf52840_xxAA_s140_6.0.0.dir/__/__/mesh/core/src/msg_cache.c.obj
 .bss.m_msg_cache_head
                0x20004c70        0x4 examples/serial/CMakeFiles/serial_nrf52840_xxAA_s140_6.0.0.dir/__/__/mesh/core/src/msg_cache.c.obj
 .bss.m_control_packet_consumer_count
                0x20004c74        0x4 examples/serial/CMakeFiles/serial_nrf52840_xxAA_s140_6.0.0.dir/__/__/mesh/core/src/transport.c.obj
 .bss.m_control_packet_consumers
                0x20004c78        0x8 examples/serial/CMakeFiles/serial_nrf52840_xxAA_s140_6.0.0.dir/__/__/mesh/core/src/transport.c.obj
 .bss.m_sar_alloc
                0x20004c80        0x4 examples/serial/CMakeFiles/serial_nrf52840_xxAA_s140_6.0.0.dir/__/__/mesh/core/src/transport.c.obj
 .bss.m_sar_process_flag
                0x20004c84        0x4 examples/serial/CMakeFiles/serial_nrf52840_xxAA_s140_6.0.0.dir/__/__/mesh/core/src/transport.c.obj
 .bss.m_sar_release
                0x20004c88        0x4 examples/serial/CMakeFiles/serial_nrf52840_xxAA_s140_6.0.0.dir/__/__/mesh/core/src/transport.c.obj
 .bss.m_sar_session_cache
                0x20004c8c       0x40 examples/serial/CMakeFiles/serial_nrf52840_xxAA_s140_6.0.0.dir/__/__/mesh/core/src/transport.c.obj
 .bss.m_sar_session_cache_head
                0x20004ccc        0x4 examples/serial/CMakeFiles/serial_nrf52840_xxAA_s140_6.0.0.dir/__/__/mesh/core/src/transport.c.obj
 .bss.m_trs_config
                0x20004cd0       0x18 examples/serial/CMakeFiles/serial_nrf52840_xxAA_s140_6.0.0.dir/__/__/mesh/core/src/transport.c.obj
 .bss.m_trs_sar_sessions
                0x20004ce8      0x1b0 examples/serial/CMakeFiles/serial_nrf52840_xxAA_s140_6.0.0.dir/__/__/mesh/core/src/transport.c.obj
 .bss.mp_evt_handlers_head
                0x20004e98        0x4 examples/serial/CMakeFiles/serial_nrf52840_xxAA_s140_6.0.0.dir/__/__/mesh/core/src/event.c.obj
 .bss.m_defrag  0x20004e9c       0x1c examples/serial/CMakeFiles/serial_nrf52840_xxAA_s140_6.0.0.dir/__/__/mesh/core/src/flash_manager_defrag.c.obj
 .bss.m_pool    0x20004eb8     0x1000 examples/serial/CMakeFiles/serial_nrf52840_xxAA_s140_6.0.0.dir/__/__/mesh/core/src/packet_mgr.c.obj
 .bss.mp_free_head
                0x20005eb8        0x4 examples/serial/CMakeFiles/serial_nrf52840_xxAA_s140_6.0.0.dir/__/__/mesh/core/src/packet_mgr.c.obj
 .bss.iv_state_set.10145
                0x20005ebc        0x1 examples/serial/CMakeFiles/serial_nrf52840_xxAA_s140_6.0.0.dir/__/__/mesh/core/src/net_state.c.obj
 *fill*         0x20005ebd        0x3 
 .bss.lock_count.10121
                0x20005ec0        0x4 examples/serial/CMakeFiles/serial_nrf52840_xxAA_s140_6.0.0.dir/__/__/mesh/core/src/net_state.c.obj
 .bss.m_iv_update_timer
                0x20005ec4       0x18 examples/serial/CMakeFiles/serial_nrf52840_xxAA_s140_6.0.0.dir/__/__/mesh/core/src/net_state.c.obj
 .bss.m_mesh_evt_handler
                0x20005edc        0x8 examples/serial/CMakeFiles/serial_nrf52840_xxAA_s140_6.0.0.dir/__/__/mesh/core/src/net_state.c.obj
 .bss.m_net_state
                0x20005ee4       0x14 examples/serial/CMakeFiles/serial_nrf52840_xxAA_s140_6.0.0.dir/__/__/mesh/core/src/net_state.c.obj
 .bss.m_test_mode
                0x20005ef8        0x1 examples/serial/CMakeFiles/serial_nrf52840_xxAA_s140_6.0.0.dir/__/__/mesh/core/src/net_state.c.obj
 *fill*         0x20005ef9        0x3 
 .bss.m_event_flag
                0x20005efc        0x4 examples/serial/CMakeFiles/serial_nrf52840_xxAA_s140_6.0.0.dir/__/__/mesh/core/src/mesh_flash.c.obj
 .bss.m_users   0x20005f00      0x228 examples/serial/CMakeFiles/serial_nrf52840_xxAA_s140_6.0.0.dir/__/__/mesh/core/src/mesh_flash.c.obj
 .bss.m_is_enabled
                0x20006128        0x1 examples/serial/CMakeFiles/serial_nrf52840_xxAA_s140_6.0.0.dir/__/__/mesh/core/src/nrf_mesh.c.obj
 .bss.m_is_initialized
                0x20006129        0x1 examples/serial/CMakeFiles/serial_nrf52840_xxAA_s140_6.0.0.dir/__/__/mesh/core/src/nrf_mesh.c.obj
 *fill*         0x2000612a        0x2 
 .bss.m_rx_cb   0x2000612c        0x4 examples/serial/CMakeFiles/serial_nrf52840_xxAA_s140_6.0.0.dir/__/__/mesh/core/src/nrf_mesh.c.obj
 .bss.m_128buf  0x20006130       0x10 examples/serial/CMakeFiles/serial_nrf52840_xxAA_s140_6.0.0.dir/__/__/mesh/core/src/aes_cmac.c.obj
 .bss.m_subkey1
                0x20006140       0x10 examples/serial/CMakeFiles/serial_nrf52840_xxAA_s140_6.0.0.dir/__/__/mesh/core/src/aes_cmac.c.obj
 .bss.m_subkey2
                0x20006150       0x10 examples/serial/CMakeFiles/serial_nrf52840_xxAA_s140_6.0.0.dir/__/__/mesh/core/src/aes_cmac.c.obj
 .bss.m_event_flag
                0x20006160        0x4 examples/serial/CMakeFiles/serial_nrf52840_xxAA_s140_6.0.0.dir/__/__/mesh/core/src/timer_scheduler.c.obj
 .bss.m_scheduler
                0x20006164       0x10 examples/serial/CMakeFiles/serial_nrf52840_xxAA_s140_6.0.0.dir/__/__/mesh/core/src/timer_scheduler.c.obj
 .bss.m_attributes
                0x20006174        0x3 examples/serial/CMakeFiles/serial_nrf52840_xxAA_s140_6.0.0.dir/__/__/mesh/core/src/timer.c.obj
 *fill*         0x20006177        0x1 
 .bss.m_callbacks
                0x20006178        0xc examples/serial/CMakeFiles/serial_nrf52840_xxAA_s140_6.0.0.dir/__/__/mesh/core/src/timer.c.obj
 .bss.m_is_in_ts
                0x20006184        0x1 examples/serial/CMakeFiles/serial_nrf52840_xxAA_s140_6.0.0.dir/__/__/mesh/core/src/timer.c.obj
 *fill*         0x20006185        0x3 
 .bss.m_reference_time
                0x20006188        0x4 examples/serial/CMakeFiles/serial_nrf52840_xxAA_s140_6.0.0.dir/__/__/mesh/core/src/timer.c.obj
 .bss.m_timeouts
                0x2000618c        0xc examples/serial/CMakeFiles/serial_nrf52840_xxAA_s140_6.0.0.dir/__/__/mesh/core/src/timer.c.obj
 .bss.m_timer_mut
                0x20006198        0x4 examples/serial/CMakeFiles/serial_nrf52840_xxAA_s140_6.0.0.dir/__/__/mesh/core/src/timer.c.obj
 .bss.m_ts_end_time
                0x2000619c        0x4 examples/serial/CMakeFiles/serial_nrf52840_xxAA_s140_6.0.0.dir/__/__/mesh/core/src/timer.c.obj
 .bss.mp_ppi_tasks
                0x200061a0        0xc examples/serial/CMakeFiles/serial_nrf52840_xxAA_s140_6.0.0.dir/__/__/mesh/core/src/timer.c.obj
 .bss.m_current_time
                0x200061ac        0x4 examples/serial/CMakeFiles/serial_nrf52840_xxAA_s140_6.0.0.dir/__/__/mesh/core/src/ticker.c.obj
 .bss.m_timer   0x200061b0       0x18 examples/serial/CMakeFiles/serial_nrf52840_xxAA_s140_6.0.0.dir/__/__/mesh/core/src/ticker.c.obj
 .bss.m_current_timeslot
                0x200061c8       0x1c examples/serial/CMakeFiles/serial_nrf52840_xxAA_s140_6.0.0.dir/__/__/mesh/core/src/timeslot.c.obj
 .bss.m_lfclk_ppm
                0x200061e4        0x4 examples/serial/CMakeFiles/serial_nrf52840_xxAA_s140_6.0.0.dir/__/__/mesh/core/src/timeslot.c.obj
 .bss.m_radio_request_earliest
                0x200061e8       0x10 examples/serial/CMakeFiles/serial_nrf52840_xxAA_s140_6.0.0.dir/__/__/mesh/core/src/timeslot.c.obj
 .bss.m_state_lock
                0x200061f8        0x1 examples/serial/CMakeFiles/serial_nrf52840_xxAA_s140_6.0.0.dir/__/__/mesh/core/src/timeslot.c.obj
 .bss.m_timeslot_forced_command
                0x200061f9        0x1 examples/serial/CMakeFiles/serial_nrf52840_xxAA_s140_6.0.0.dir/__/__/mesh/core/src/timeslot.c.obj
 *fill*         0x200061fa        0x6 
 .bss.s_last_rtc_value.9592
                0x20006200        0x8 examples/serial/CMakeFiles/serial_nrf52840_xxAA_s140_6.0.0.dir/__/__/mesh/core/src/timeslot.c.obj
 .bss.m_bearer_event_fifo
                0x20006208       0x14 examples/serial/CMakeFiles/serial_nrf52840_xxAA_s140_6.0.0.dir/__/__/mesh/core/src/bearer_event.c.obj
 .bss.m_bearer_event_fifo_buffer
                0x2000621c      0x100 examples/serial/CMakeFiles/serial_nrf52840_xxAA_s140_6.0.0.dir/__/__/mesh/core/src/bearer_event.c.obj
 .bss.m_critical
                0x2000631c        0x4 examples/serial/CMakeFiles/serial_nrf52840_xxAA_s140_6.0.0.dir/__/__/mesh/core/src/bearer_event.c.obj
 .bss.m_flag_count
                0x20006320        0x4 examples/serial/CMakeFiles/serial_nrf52840_xxAA_s140_6.0.0.dir/__/__/mesh/core/src/bearer_event.c.obj
 .bss.m_flag_event_callbacks
                0x20006324       0x20 examples/serial/CMakeFiles/serial_nrf52840_xxAA_s140_6.0.0.dir/__/__/mesh/core/src/bearer_event.c.obj
 .bss.m_flags   0x20006344        0x4 examples/serial/CMakeFiles/serial_nrf52840_xxAA_s140_6.0.0.dir/__/__/mesh/core/src/bearer_event.c.obj
 .bss.m_irq_priority
                0x20006348        0x1 examples/serial/CMakeFiles/serial_nrf52840_xxAA_s140_6.0.0.dir/__/__/mesh/core/src/bearer_event.c.obj
 *fill*         0x20006349        0x3 
 .bss.m_sequential_event_queue
                0x2000634c        0x8 examples/serial/CMakeFiles/serial_nrf52840_xxAA_s140_6.0.0.dir/__/__/mesh/core/src/bearer_event.c.obj
 .bss.s_recursion_guard.9723
                0x20006354        0x1 examples/serial/CMakeFiles/serial_nrf52840_xxAA_s140_6.0.0.dir/__/__/mesh/core/src/bearer_event.c.obj
 *fill*         0x20006355        0x3 
 .bss.m_relay_check_cb
                0x20006358        0x4 examples/serial/CMakeFiles/serial_nrf52840_xxAA_s140_6.0.0.dir/__/__/mesh/core/src/network.c.obj
 .bss.m_relay_enable
                0x2000635c        0x1 examples/serial/CMakeFiles/serial_nrf52840_xxAA_s140_6.0.0.dir/__/__/mesh/core/src/network.c.obj
 *fill*         0x2000635d        0x3 
 .bss.m_action_queue
                0x20006360        0xc examples/serial/CMakeFiles/serial_nrf52840_xxAA_s140_6.0.0.dir/__/__/mesh/core/src/flash_manager.c.obj
 .bss.m_cache_index
                0x2000636c        0x1 examples/serial/CMakeFiles/serial_nrf52840_xxAA_s140_6.0.0.dir/__/__/mesh/core/src/replay_cache.c.obj
 *fill*         0x2000636d        0x3 
 .bss.m_replay_cache
                0x20006370      0x200 examples/serial/CMakeFiles/serial_nrf52840_xxAA_s140_6.0.0.dir/__/__/mesh/core/src/replay_cache.c.obj
 .bss.m_bearer_count
                0x20006570        0x1 examples/serial/CMakeFiles/serial_nrf52840_xxAA_s140_6.0.0.dir/__/__/mesh/core/src/core_tx.c.obj
 *fill*         0x20006571        0x3 
 .bss.m_tx_complete_callback
                0x20006574        0x4 examples/serial/CMakeFiles/serial_nrf52840_xxAA_s140_6.0.0.dir/__/__/mesh/core/src/core_tx.c.obj
 .bss.mp_bearers
                0x20006578        0x4 examples/serial/CMakeFiles/serial_nrf52840_xxAA_s140_6.0.0.dir/__/__/mesh/core/src/core_tx.c.obj
 .bss.m_hb_core_evt_handler
                0x2000657c        0x8 examples/serial/CMakeFiles/serial_nrf52840_xxAA_s140_6.0.0.dir/__/__/mesh/core/src/heartbeat.c.obj
 .bss.m_hb_pending_feat_msg
                0x20006584        0x1 examples/serial/CMakeFiles/serial_nrf52840_xxAA_s140_6.0.0.dir/__/__/mesh/core/src/heartbeat.c.obj
 .bss.m_hb_pending_pub_msg
                0x20006585        0x1 examples/serial/CMakeFiles/serial_nrf52840_xxAA_s140_6.0.0.dir/__/__/mesh/core/src/heartbeat.c.obj
 .bss.m_heartbeat_init_done
                0x20006586        0x1 examples/serial/CMakeFiles/serial_nrf52840_xxAA_s140_6.0.0.dir/__/__/mesh/core/src/heartbeat.c.obj
 *fill*         0x20006587        0x1 
 .bss.m_heartbeat_subscription
                0x20006588       0x10 examples/serial/CMakeFiles/serial_nrf52840_xxAA_s140_6.0.0.dir/__/__/mesh/core/src/heartbeat.c.obj
 .bss.m_publication_count_decrement_cb
                0x20006598        0x4 examples/serial/CMakeFiles/serial_nrf52840_xxAA_s140_6.0.0.dir/__/__/mesh/core/src/heartbeat.c.obj
 .bss.m_publication_get_cb
                0x2000659c        0x4 examples/serial/CMakeFiles/serial_nrf52840_xxAA_s140_6.0.0.dir/__/__/mesh/core/src/heartbeat.c.obj
 .bss.m_publication_timer
                0x200065a0       0x1c examples/serial/CMakeFiles/serial_nrf52840_xxAA_s140_6.0.0.dir/__/__/mesh/core/src/heartbeat.c.obj
 .bss.m_subscription_timer
                0x200065bc       0x18 examples/serial/CMakeFiles/serial_nrf52840_xxAA_s140_6.0.0.dir/__/__/mesh/core/src/heartbeat.c.obj
 .bss.m_adv     0x200065d4       0x98 examples/serial/CMakeFiles/serial_nrf52840_xxAA_s140_6.0.0.dir/__/__/mesh/core/src/net_beacon.c.obj
 .bss.m_adv_buf
                0x2000666c       0x34 examples/serial/CMakeFiles/serial_nrf52840_xxAA_s140_6.0.0.dir/__/__/mesh/core/src/net_beacon.c.obj
 .bss.m_beacon_salt
                0x200066a0       0x10 examples/serial/CMakeFiles/serial_nrf52840_xxAA_s140_6.0.0.dir/__/__/mesh/core/src/net_beacon.c.obj
 .bss.m_enabled
                0x200066b0        0x1 examples/serial/CMakeFiles/serial_nrf52840_xxAA_s140_6.0.0.dir/__/__/mesh/core/src/net_beacon.c.obj
 *fill*         0x200066b1        0x3 
 .bss.m_tx_timer
                0x200066b4       0x18 examples/serial/CMakeFiles/serial_nrf52840_xxAA_s140_6.0.0.dir/__/__/mesh/core/src/net_beacon.c.obj
 .bss.mp_beacon_info
                0x200066cc        0x4 examples/serial/CMakeFiles/serial_nrf52840_xxAA_s140_6.0.0.dir/__/__/mesh/core/src/net_beacon.c.obj
 .bss.m_bearer  0x200066d0        0xc examples/serial/CMakeFiles/serial_nrf52840_xxAA_s140_6.0.0.dir/__/__/mesh/core/src/core_tx_adv.c.obj
 .bss.m_bearer_roles
                0x200066dc      0x138 examples/serial/CMakeFiles/serial_nrf52840_xxAA_s140_6.0.0.dir/__/__/mesh/core/src/core_tx_adv.c.obj
 .bss.m_current_alloc
                0x20006814        0x8 examples/serial/CMakeFiles/serial_nrf52840_xxAA_s140_6.0.0.dir/__/__/mesh/core/src/core_tx_adv.c.obj
 .bss.m_originator_adv_packet_buffer
                0x2000681c      0x100 examples/serial/CMakeFiles/serial_nrf52840_xxAA_s140_6.0.0.dir/__/__/mesh/core/src/core_tx_adv.c.obj
 .bss.m_relay_adv_packet_buffer
                0x2000691c       0x80 examples/serial/CMakeFiles/serial_nrf52840_xxAA_s140_6.0.0.dir/__/__/mesh/core/src/core_tx_adv.c.obj
 .bss.m_subscribers
                0x2000699c        0x4 examples/serial/CMakeFiles/serial_nrf52840_xxAA_s140_6.0.0.dir/__/__/mesh/bearer/src/ad_listener.c.obj
 .bss.m_adtype_filter
                0x200069a0       0x38 examples/serial/CMakeFiles/serial_nrf52840_xxAA_s140_6.0.0.dir/__/__/mesh/bearer/src/ad_type_filter.c.obj
 .bss.m_adv_prng
                0x200069d8       0x10 examples/serial/CMakeFiles/serial_nrf52840_xxAA_s140_6.0.0.dir/__/__/mesh/bearer/src/advertiser.c.obj
 .bss.m_action_queue
                0x200069e8        0x8 examples/serial/CMakeFiles/serial_nrf52840_xxAA_s140_6.0.0.dir/__/__/mesh/bearer/src/bearer_handler.c.obj
 .bss.m_end_time
                0x200069f0        0x4 examples/serial/CMakeFiles/serial_nrf52840_xxAA_s140_6.0.0.dir/__/__/mesh/bearer/src/bearer_handler.c.obj
 .bss.m_scanner_is_active
                0x200069f4        0x1 examples/serial/CMakeFiles/serial_nrf52840_xxAA_s140_6.0.0.dir/__/__/mesh/bearer/src/bearer_handler.c.obj
 .bss.m_stopped
                0x200069f5        0x1 examples/serial/CMakeFiles/serial_nrf52840_xxAA_s140_6.0.0.dir/__/__/mesh/bearer/src/bearer_handler.c.obj
 *fill*         0x200069f6        0x2 
 .bss.mp_action
                0x200069f8        0x4 examples/serial/CMakeFiles/serial_nrf52840_xxAA_s140_6.0.0.dir/__/__/mesh/bearer/src/bearer_handler.c.obj
 .bss.m_next_channel_index
                0x200069fc        0x1 examples/serial/CMakeFiles/serial_nrf52840_xxAA_s140_6.0.0.dir/__/__/mesh/bearer/src/broadcast.c.obj
 *fill*         0x200069fd        0x3 
 .bss.m_accepted_amount
                0x20006a00        0x4 examples/serial/CMakeFiles/serial_nrf52840_xxAA_s140_6.0.0.dir/__/__/mesh/bearer/src/filter_engine.c.obj
 .bss.m_filter_list_head
                0x20006a04        0x4 examples/serial/CMakeFiles/serial_nrf52840_xxAA_s140_6.0.0.dir/__/__/mesh/bearer/src/filter_engine.c.obj
 .bss.m_scanner
                0x20006a08      0x290 examples/serial/CMakeFiles/serial_nrf52840_xxAA_s140_6.0.0.dir/__/__/mesh/bearer/src/scanner.c.obj
 .bss._acDownBuffer
                0x20006c98       0x80 external/rtt/librtt_nrf52840_xxAA.a(SEGGER_RTT.c.obj)
 .bss._acUpBuffer
                0x20006d18      0x400 external/rtt/librtt_nrf52840_xxAA.a(SEGGER_RTT.c.obj)
 .bss.__malloc_free_list
                0x20007118        0x4 c:/mesh/arm_gcc/bin/../lib/gcc/arm-none-eabi/6.3.1/../../../../arm-none-eabi/lib/thumb/v7e-m/fpv4-sp/hard\libc_nano.a(lib_a-nano-mallocr.o)
                0x20007118                __malloc_free_list
 .bss.__malloc_sbrk_start
                0x2000711c        0x4 c:/mesh/arm_gcc/bin/../lib/gcc/arm-none-eabi/6.3.1/../../../../arm-none-eabi/lib/thumb/v7e-m/fpv4-sp/hard\libc_nano.a(lib_a-nano-mallocr.o)
                0x2000711c                __malloc_sbrk_start
 .bss.heap_end.5239
                0x20007120        0x4 c:/mesh/arm_gcc/bin/../lib/gcc/arm-none-eabi/6.3.1/../../../../arm-none-eabi/lib/thumb/v7e-m/fpv4-sp/hard\libnosys.a(sbrk.o)
 *(COMMON)
 COMMON         0x20007124        0xc examples/serial/CMakeFiles/serial_nrf52840_xxAA_s140_6.0.0.dir/__/common/src/mesh_softdevice_init.c.obj
                0x20007124                nrf_nvic_state
 COMMON         0x20007130       0x24 examples/serial/CMakeFiles/serial_nrf52840_xxAA_s140_6.0.0.dir/__/__/mesh/core/src/core_tx.c.obj
                0x20007130                m_packet
 COMMON         0x20007154       0x78 external/rtt/librtt_nrf52840_xxAA.a(SEGGER_RTT.c.obj)
                0x20007154                _SEGGER_RTT
 COMMON         0x200071cc        0x4 c:/mesh/arm_gcc/bin/../lib/gcc/arm-none-eabi/6.3.1/../../../../arm-none-eabi/lib/thumb/v7e-m/fpv4-sp/hard\libc_nano.a(lib_a-reent.o)
                0x200071cc                errno
                0x200071d0                . = ALIGN (0x4)
                0x200071d0                __bss_end__ = .

.heap           0x200071d0     0x2000
                0x200071d0                __HeapBase = .
                0x200071d0                __end__ = .
                0x200071d0                PROVIDE (end, .)
 *(.heap*)
 .heap          0x200071d0     0x2000 examples/serial/CMakeFiles/serial_nrf52840_xxAA_s140_6.0.0.dir/C_/ver/mod/nRF5_SDK_15.0.0_a53641a/modules/nrfx/mdk/gcc_startup_nrf52840.S.obj
                0x200091d0                __HeapLimit = .

.stack_dummy    0x200071d0     0x2000
 *(.stack*)
 .stack         0x200071d0     0x2000 examples/serial/CMakeFiles/serial_nrf52840_xxAA_s140_6.0.0.dir/C_/ver/mod/nRF5_SDK_15.0.0_a53641a/modules/nrfx/mdk/gcc_startup_nrf52840.S.obj
                0x2003fd00                __StackTop = (ORIGIN (RAM) + LENGTH (RAM))
                0x2003dd00                __StackLimit = (__StackTop - SIZEOF (.stack_dummy))
                0x2003fd00                PROVIDE (__stack, __StackTop)
                0x00000001                ASSERT ((__StackLimit >= __HeapLimit), region RAM overflowed with stack)
                0x000000a8                DataInitFlashUsed = (__bss_start__ - __data_start__)
                0x0001c6b4                CodeFlashUsed = (__etext - ORIGIN (FLASH))
                0x0001c75c                TotalFlashUsed = (CodeFlashUsed + DataInitFlashUsed)
                0x00000001                ASSERT ((TotalFlashUsed <= LENGTH (FLASH)), region FLASH overflowed with .data and user data)
OUTPUT(examples\serial\serial_nrf52840_xxAA_s140_6.0.0.elf elf32-littlearm)

.ARM.attributes
                0x00000000       0x30
 .ARM.attributes
                0x00000000       0x22 c:/mesh/arm_gcc/bin/../lib/gcc/arm-none-eabi/6.3.1/thumb/v7e-m/fpv4-sp/hard/crti.o
 .ARM.attributes
                0x00000022       0x34 c:/mesh/arm_gcc/bin/../lib/gcc/arm-none-eabi/6.3.1/thumb/v7e-m/fpv4-sp/hard/crtbegin.o
 .ARM.attributes
                0x00000056       0x20 c:/mesh/arm_gcc/bin/../lib/gcc/arm-none-eabi/6.3.1/../../../../arm-none-eabi/lib/thumb/v7e-m/fpv4-sp/hard/crt0.o
 .ARM.attributes
                0x00000076       0x39 examples/serial/CMakeFiles/serial_nrf52840_xxAA_s140_6.0.0.dir/src/main.c.obj
 .ARM.attributes
                0x000000af       0x39 examples/serial/CMakeFiles/serial_nrf52840_xxAA_s140_6.0.0.dir/__/__/mesh/stack/src/mesh_stack.c.obj
 .ARM.attributes
                0x000000e8       0x39 examples/serial/CMakeFiles/serial_nrf52840_xxAA_s140_6.0.0.dir/__/common/src/mesh_softdevice_init.c.obj
 .ARM.attributes
                0x00000121       0x39 examples/serial/CMakeFiles/serial_nrf52840_xxAA_s140_6.0.0.dir/__/common/src/mesh_provisionee.c.obj
 .ARM.attributes
                0x0000015a       0x39 examples/serial/CMakeFiles/serial_nrf52840_xxAA_s140_6.0.0.dir/__/common/src/simple_hal.c.obj
 .ARM.attributes
                0x00000193       0x39 examples/serial/CMakeFiles/serial_nrf52840_xxAA_s140_6.0.0.dir/__/__/mesh/prov/src/prov_provisioner.c.obj
 .ARM.attributes
                0x000001cc       0x39 examples/serial/CMakeFiles/serial_nrf52840_xxAA_s140_6.0.0.dir/__/__/mesh/prov/src/prov_provisionee.c.obj
 .ARM.attributes
                0x00000205       0x39 examples/serial/CMakeFiles/serial_nrf52840_xxAA_s140_6.0.0.dir/__/__/mesh/prov/src/nrf_mesh_prov.c.obj
 .ARM.attributes
                0x0000023e       0x39 examples/serial/CMakeFiles/serial_nrf52840_xxAA_s140_6.0.0.dir/__/__/mesh/prov/src/provisioning.c.obj
 .ARM.attributes
                0x00000277       0x39 examples/serial/CMakeFiles/serial_nrf52840_xxAA_s140_6.0.0.dir/__/__/mesh/prov/src/prov_beacon.c.obj
 .ARM.attributes
                0x000002b0       0x39 examples/serial/CMakeFiles/serial_nrf52840_xxAA_s140_6.0.0.dir/__/__/mesh/prov/src/prov_utils.c.obj
 .ARM.attributes
                0x000002e9       0x39 examples/serial/CMakeFiles/serial_nrf52840_xxAA_s140_6.0.0.dir/__/__/mesh/prov/src/prov_bearer_adv.c.obj
 .ARM.attributes
                0x00000322       0x39 examples/serial/CMakeFiles/serial_nrf52840_xxAA_s140_6.0.0.dir/__/__/mesh/access/src/access_publish.c.obj
 .ARM.attributes
                0x0000035b       0x39 examples/serial/CMakeFiles/serial_nrf52840_xxAA_s140_6.0.0.dir/__/__/mesh/access/src/access.c.obj
 .ARM.attributes
                0x00000394       0x39 examples/serial/CMakeFiles/serial_nrf52840_xxAA_s140_6.0.0.dir/__/__/mesh/access/src/access_reliable.c.obj
 .ARM.attributes
                0x000003cd       0x39 examples/serial/CMakeFiles/serial_nrf52840_xxAA_s140_6.0.0.dir/__/__/mesh/access/src/device_state_manager.c.obj
 .ARM.attributes
                0x00000406       0x39 examples/serial/CMakeFiles/serial_nrf52840_xxAA_s140_6.0.0.dir/__/__/models/config/src/composition_data.c.obj
 .ARM.attributes
                0x0000043f       0x39 examples/serial/CMakeFiles/serial_nrf52840_xxAA_s140_6.0.0.dir/__/__/models/config/src/config_server.c.obj
 .ARM.attributes
                0x00000478       0x39 examples/serial/CMakeFiles/serial_nrf52840_xxAA_s140_6.0.0.dir/__/__/models/config/src/packed_index_list.c.obj
 .ARM.attributes
                0x000004b1       0x39 examples/serial/CMakeFiles/serial_nrf52840_xxAA_s140_6.0.0.dir/__/__/models/health/src/health_server.c.obj
 .ARM.attributes
                0x000004ea       0x39 examples/serial/CMakeFiles/serial_nrf52840_xxAA_s140_6.0.0.dir/__/__/mesh/serial/src/serial_uart.c.obj
 .ARM.attributes
                0x00000523       0x39 examples/serial/CMakeFiles/serial_nrf52840_xxAA_s140_6.0.0.dir/__/__/mesh/serial/src/serial_bearer.c.obj
 .ARM.attributes
                0x0000055c       0x39 examples/serial/CMakeFiles/serial_nrf52840_xxAA_s140_6.0.0.dir/__/__/mesh/serial/src/serial_handler_common.c.obj
 .ARM.attributes
                0x00000595       0x39 examples/serial/CMakeFiles/serial_nrf52840_xxAA_s140_6.0.0.dir/__/__/mesh/serial/src/serial_handler_access.c.obj
 .ARM.attributes
                0x000005ce       0x39 examples/serial/CMakeFiles/serial_nrf52840_xxAA_s140_6.0.0.dir/__/__/mesh/serial/src/serial_handler_config.c.obj
 .ARM.attributes
                0x00000607       0x39 examples/serial/CMakeFiles/serial_nrf52840_xxAA_s140_6.0.0.dir/__/__/mesh/serial/src/serial_handler_openmesh.c.obj
 .ARM.attributes
                0x00000640       0x39 examples/serial/CMakeFiles/serial_nrf52840_xxAA_s140_6.0.0.dir/__/__/mesh/serial/src/serial.c.obj
 .ARM.attributes
                0x00000679       0x39 examples/serial/CMakeFiles/serial_nrf52840_xxAA_s140_6.0.0.dir/__/__/mesh/serial/src/serial_handler_prov.c.obj
 .ARM.attributes
                0x000006b2       0x39 examples/serial/CMakeFiles/serial_nrf52840_xxAA_s140_6.0.0.dir/__/__/mesh/serial/src/serial_handler_dfu.c.obj
 .ARM.attributes
                0x000006eb       0x39 examples/serial/CMakeFiles/serial_nrf52840_xxAA_s140_6.0.0.dir/__/__/mesh/serial/src/serial_handler_mesh.c.obj
 .ARM.attributes
                0x00000724       0x39 examples/serial/CMakeFiles/serial_nrf52840_xxAA_s140_6.0.0.dir/__/__/mesh/serial/src/serial_handler_models.c.obj
 .ARM.attributes
                0x0000075d       0x39 examples/serial/CMakeFiles/serial_nrf52840_xxAA_s140_6.0.0.dir/__/__/mesh/serial/src/serial_handler_device.c.obj
 .ARM.attributes
                0x00000796       0x39 examples/serial/CMakeFiles/serial_nrf52840_xxAA_s140_6.0.0.dir/__/__/mesh/serial/src/nrf_mesh_serial.c.obj
 .ARM.attributes
                0x000007cf       0x39 examples/serial/CMakeFiles/serial_nrf52840_xxAA_s140_6.0.0.dir/__/__/mesh/serial/src/serial_handler_app.c.obj
 .ARM.attributes
                0x00000808       0x39 examples/serial/CMakeFiles/serial_nrf52840_xxAA_s140_6.0.0.dir/__/nrf_mesh_weak.c.obj
 .ARM.attributes
                0x00000841       0x39 examples/serial/CMakeFiles/serial_nrf52840_xxAA_s140_6.0.0.dir/__/common/src/app_error_weak.c.obj
 .ARM.attributes
                0x0000087a       0x39 examples/serial/CMakeFiles/serial_nrf52840_xxAA_s140_6.0.0.dir/__/common/src/assertion_handler_weak.c.obj
 .ARM.attributes
                0x000008b3       0x39 examples/serial/CMakeFiles/serial_nrf52840_xxAA_s140_6.0.0.dir/__/__/mesh/core/src/nrf_mesh_configure.c.obj
 .ARM.attributes
                0x000008ec       0x39 examples/serial/CMakeFiles/serial_nrf52840_xxAA_s140_6.0.0.dir/__/__/mesh/core/src/aes.c.obj
 .ARM.attributes
                0x00000925       0x39 examples/serial/CMakeFiles/serial_nrf52840_xxAA_s140_6.0.0.dir/__/__/mesh/core/src/msg_cache.c.obj
 .ARM.attributes
                0x0000095e       0x39 examples/serial/CMakeFiles/serial_nrf52840_xxAA_s140_6.0.0.dir/__/__/mesh/core/src/transport.c.obj
 .ARM.attributes
                0x00000997       0x39 examples/serial/CMakeFiles/serial_nrf52840_xxAA_s140_6.0.0.dir/__/__/mesh/core/src/event.c.obj
 .ARM.attributes
                0x000009d0       0x39 examples/serial/CMakeFiles/serial_nrf52840_xxAA_s140_6.0.0.dir/__/__/mesh/core/src/packet_buffer.c.obj
 .ARM.attributes
                0x00000a09       0x39 examples/serial/CMakeFiles/serial_nrf52840_xxAA_s140_6.0.0.dir/__/__/mesh/core/src/flash_manager_defrag.c.obj
 .ARM.attributes
                0x00000a42       0x39 examples/serial/CMakeFiles/serial_nrf52840_xxAA_s140_6.0.0.dir/__/__/mesh/core/src/fifo.c.obj
 .ARM.attributes
                0x00000a7b       0x39 examples/serial/CMakeFiles/serial_nrf52840_xxAA_s140_6.0.0.dir/__/__/mesh/core/src/packet_mgr.c.obj
 .ARM.attributes
                0x00000ab4       0x39 examples/serial/CMakeFiles/serial_nrf52840_xxAA_s140_6.0.0.dir/__/__/mesh/core/src/net_state.c.obj
 .ARM.attributes
                0x00000aed       0x39 examples/serial/CMakeFiles/serial_nrf52840_xxAA_s140_6.0.0.dir/__/__/mesh/core/src/mesh_flash.c.obj
 .ARM.attributes
                0x00000b26       0x39 examples/serial/CMakeFiles/serial_nrf52840_xxAA_s140_6.0.0.dir/__/__/mesh/core/src/nrf_mesh_utils.c.obj
 .ARM.attributes
                0x00000b5f       0x39 examples/serial/CMakeFiles/serial_nrf52840_xxAA_s140_6.0.0.dir/__/__/mesh/core/src/nrf_mesh.c.obj
 .ARM.attributes
                0x00000b98       0x39 examples/serial/CMakeFiles/serial_nrf52840_xxAA_s140_6.0.0.dir/__/__/mesh/core/src/queue.c.obj
 .ARM.attributes
                0x00000bd1       0x39 examples/serial/CMakeFiles/serial_nrf52840_xxAA_s140_6.0.0.dir/__/__/mesh/core/src/hal.c.obj
 .ARM.attributes
                0x00000c0a       0x39 examples/serial/CMakeFiles/serial_nrf52840_xxAA_s140_6.0.0.dir/__/__/mesh/core/src/aes_cmac.c.obj
 .ARM.attributes
                0x00000c43       0x39 examples/serial/CMakeFiles/serial_nrf52840_xxAA_s140_6.0.0.dir/__/__/mesh/core/src/timer_scheduler.c.obj
 .ARM.attributes
                0x00000c7c       0x39 examples/serial/CMakeFiles/serial_nrf52840_xxAA_s140_6.0.0.dir/__/__/mesh/core/src/timer.c.obj
 .ARM.attributes
                0x00000cb5       0x39 examples/serial/CMakeFiles/serial_nrf52840_xxAA_s140_6.0.0.dir/__/__/mesh/core/src/ticker.c.obj
 .ARM.attributes
                0x00000cee       0x39 examples/serial/CMakeFiles/serial_nrf52840_xxAA_s140_6.0.0.dir/__/__/mesh/core/src/rand.c.obj
 .ARM.attributes
                0x00000d27       0x39 examples/serial/CMakeFiles/serial_nrf52840_xxAA_s140_6.0.0.dir/__/__/mesh/core/src/nrf_mesh_opt.c.obj
 .ARM.attributes
                0x00000d60       0x39 examples/serial/CMakeFiles/serial_nrf52840_xxAA_s140_6.0.0.dir/__/__/mesh/core/src/timeslot.c.obj
 .ARM.attributes
                0x00000d99       0x39 examples/serial/CMakeFiles/serial_nrf52840_xxAA_s140_6.0.0.dir/__/__/mesh/core/src/bearer_event.c.obj
 .ARM.attributes
                0x00000dd2       0x39 examples/serial/CMakeFiles/serial_nrf52840_xxAA_s140_6.0.0.dir/__/__/mesh/core/src/enc.c.obj
 .ARM.attributes
                0x00000e0b       0x39 examples/serial/CMakeFiles/serial_nrf52840_xxAA_s140_6.0.0.dir/__/__/mesh/core/src/network.c.obj
 .ARM.attributes
                0x00000e44       0x39 examples/serial/CMakeFiles/serial_nrf52840_xxAA_s140_6.0.0.dir/__/__/mesh/core/src/net_packet.c.obj
 .ARM.attributes
                0x00000e7d       0x39 examples/serial/CMakeFiles/serial_nrf52840_xxAA_s140_6.0.0.dir/__/__/mesh/core/src/msqueue.c.obj
 .ARM.attributes
                0x00000eb6       0x39 examples/serial/CMakeFiles/serial_nrf52840_xxAA_s140_6.0.0.dir/__/__/mesh/core/src/nrf_mesh_keygen.c.obj
 .ARM.attributes
                0x00000eef       0x39 examples/serial/CMakeFiles/serial_nrf52840_xxAA_s140_6.0.0.dir/__/__/mesh/core/src/list.c.obj
 .ARM.attributes
                0x00000f28       0x39 examples/serial/CMakeFiles/serial_nrf52840_xxAA_s140_6.0.0.dir/__/__/mesh/core/src/log.c.obj
 .ARM.attributes
                0x00000f61       0x39 examples/serial/CMakeFiles/serial_nrf52840_xxAA_s140_6.0.0.dir/__/__/mesh/core/src/flash_manager.c.obj
 .ARM.attributes
                0x00000f9a       0x39 examples/serial/CMakeFiles/serial_nrf52840_xxAA_s140_6.0.0.dir/__/__/mesh/core/src/ccm_soft.c.obj
 .ARM.attributes
                0x00000fd3       0x39 examples/serial/CMakeFiles/serial_nrf52840_xxAA_s140_6.0.0.dir/__/__/mesh/core/src/replay_cache.c.obj
 .ARM.attributes
                0x0000100c       0x39 examples/serial/CMakeFiles/serial_nrf52840_xxAA_s140_6.0.0.dir/__/__/mesh/core/src/beacon.c.obj
 .ARM.attributes
                0x00001045       0x39 examples/serial/CMakeFiles/serial_nrf52840_xxAA_s140_6.0.0.dir/__/__/mesh/core/src/core_tx.c.obj
 .ARM.attributes
                0x0000107e       0x39 examples/serial/CMakeFiles/serial_nrf52840_xxAA_s140_6.0.0.dir/__/__/mesh/core/src/heartbeat.c.obj
 .ARM.attributes
                0x000010b7       0x39 examples/serial/CMakeFiles/serial_nrf52840_xxAA_s140_6.0.0.dir/__/__/mesh/core/src/net_beacon.c.obj
 .ARM.attributes
                0x000010f0       0x39 examples/serial/CMakeFiles/serial_nrf52840_xxAA_s140_6.0.0.dir/__/__/mesh/core/src/core_tx_adv.c.obj
 .ARM.attributes
                0x00001129       0x39 examples/serial/CMakeFiles/serial_nrf52840_xxAA_s140_6.0.0.dir/__/__/mesh/bearer/src/ad_listener.c.obj
 .ARM.attributes
                0x00001162       0x39 examples/serial/CMakeFiles/serial_nrf52840_xxAA_s140_6.0.0.dir/__/__/mesh/bearer/src/ad_type_filter.c.obj
 .ARM.attributes
                0x0000119b       0x39 examples/serial/CMakeFiles/serial_nrf52840_xxAA_s140_6.0.0.dir/__/__/mesh/bearer/src/advertiser.c.obj
 .ARM.attributes
                0x000011d4       0x39 examples/serial/CMakeFiles/serial_nrf52840_xxAA_s140_6.0.0.dir/__/__/mesh/bearer/src/bearer_handler.c.obj
 .ARM.attributes
                0x0000120d       0x39 examples/serial/CMakeFiles/serial_nrf52840_xxAA_s140_6.0.0.dir/__/__/mesh/bearer/src/broadcast.c.obj
 .ARM.attributes
                0x00001246       0x39 examples/serial/CMakeFiles/serial_nrf52840_xxAA_s140_6.0.0.dir/__/__/mesh/bearer/src/filter_engine.c.obj
 .ARM.attributes
                0x0000127f       0x39 examples/serial/CMakeFiles/serial_nrf52840_xxAA_s140_6.0.0.dir/__/__/mesh/bearer/src/radio_config.c.obj
 .ARM.attributes
                0x000012b8       0x39 examples/serial/CMakeFiles/serial_nrf52840_xxAA_s140_6.0.0.dir/__/__/mesh/bearer/src/scanner.c.obj
 .ARM.attributes
                0x000012f1       0x39 examples/serial/CMakeFiles/serial_nrf52840_xxAA_s140_6.0.0.dir/C_/ver/mod/nRF5_SDK_15.0.0_a53641a/modules/nrfx/mdk/system_nrf52840.c.obj
 .ARM.attributes
                0x0000132a       0x20 examples/serial/CMakeFiles/serial_nrf52840_xxAA_s140_6.0.0.dir/C_/ver/mod/nRF5_SDK_15.0.0_a53641a/modules/nrfx/mdk/gcc_startup_nrf52840.S.obj
 .ARM.attributes
                0x0000134a       0x39 examples/serial/CMakeFiles/serial_nrf52840_xxAA_s140_6.0.0.dir/C_/ver/mod/nRF5_SDK_15.0.0_a53641a/components/libraries/util/app_error.c.obj
 .ARM.attributes
                0x00001383       0x39 examples/serial/CMakeFiles/serial_nrf52840_xxAA_s140_6.0.0.dir/C_/ver/mod/nRF5_SDK_15.0.0_a53641a/components/libraries/util/app_error_handler_gcc.c.obj
 .ARM.attributes
                0x000013bc       0x39 external/micro-ecc/libuECC_nrf52840_xxAA.a(uECC.c.obj)
 .ARM.attributes
                0x000013f5       0x39 external/rtt/librtt_nrf52840_xxAA.a(SEGGER_RTT.c.obj)
 .ARM.attributes
                0x0000142e       0x39 external/rtt/librtt_nrf52840_xxAA.a(SEGGER_RTT_printf.c.obj)
 .ARM.attributes
                0x00001467       0x34 c:/mesh/arm_gcc/bin/../lib/gcc/arm-none-eabi/6.3.1/../../../../arm-none-eabi/lib/thumb/v7e-m/fpv4-sp/hard\libc_nano.a(lib_a-exit.o)
 .ARM.attributes
                0x0000149b       0x34 c:/mesh/arm_gcc/bin/../lib/gcc/arm-none-eabi/6.3.1/../../../../arm-none-eabi/lib/thumb/v7e-m/fpv4-sp/hard\libc_nano.a(lib_a-impure.o)
 .ARM.attributes
                0x000014cf       0x34 c:/mesh/arm_gcc/bin/../lib/gcc/arm-none-eabi/6.3.1/../../../../arm-none-eabi/lib/thumb/v7e-m/fpv4-sp/hard\libc_nano.a(lib_a-init.o)
 .ARM.attributes
                0x00001503       0x34 c:/mesh/arm_gcc/bin/../lib/gcc/arm-none-eabi/6.3.1/../../../../arm-none-eabi/lib/thumb/v7e-m/fpv4-sp/hard\libc_nano.a(lib_a-malloc.o)
 .ARM.attributes
                0x00001537       0x34 c:/mesh/arm_gcc/bin/../lib/gcc/arm-none-eabi/6.3.1/../../../../arm-none-eabi/lib/thumb/v7e-m/fpv4-sp/hard\libc_nano.a(lib_a-memcmp.o)
 .ARM.attributes
                0x0000156b       0x34 c:/mesh/arm_gcc/bin/../lib/gcc/arm-none-eabi/6.3.1/../../../../arm-none-eabi/lib/thumb/v7e-m/fpv4-sp/hard\libc_nano.a(lib_a-memcpy-stub.o)
 .ARM.attributes
                0x0000159f       0x34 c:/mesh/arm_gcc/bin/../lib/gcc/arm-none-eabi/6.3.1/../../../../arm-none-eabi/lib/thumb/v7e-m/fpv4-sp/hard\libc_nano.a(lib_a-memset.o)
 .ARM.attributes
                0x000015d3       0x34 c:/mesh/arm_gcc/bin/../lib/gcc/arm-none-eabi/6.3.1/../../../../arm-none-eabi/lib/thumb/v7e-m/fpv4-sp/hard\libc_nano.a(lib_a-nano-freer.o)
 .ARM.attributes
                0x00001607       0x34 c:/mesh/arm_gcc/bin/../lib/gcc/arm-none-eabi/6.3.1/../../../../arm-none-eabi/lib/thumb/v7e-m/fpv4-sp/hard\libc_nano.a(lib_a-nano-mallocr.o)
 .ARM.attributes
                0x0000163b       0x34 c:/mesh/arm_gcc/bin/../lib/gcc/arm-none-eabi/6.3.1/../../../../arm-none-eabi/lib/thumb/v7e-m/fpv4-sp/hard\libc_nano.a(lib_a-sbrkr.o)
 .ARM.attributes
                0x0000166f       0x34 c:/mesh/arm_gcc/bin/../lib/gcc/arm-none-eabi/6.3.1/../../../../arm-none-eabi/lib/thumb/v7e-m/fpv4-sp/hard\libc_nano.a(lib_a-strcpy.o)
 .ARM.attributes
                0x000016a3       0x1b c:/mesh/arm_gcc/bin/../lib/gcc/arm-none-eabi/6.3.1/../../../../arm-none-eabi/lib/thumb/v7e-m/fpv4-sp/hard\libc_nano.a(lib_a-strlen.o)
 .ARM.attributes
                0x000016be       0x34 c:/mesh/arm_gcc/bin/../lib/gcc/arm-none-eabi/6.3.1/../../../../arm-none-eabi/lib/thumb/v7e-m/fpv4-sp/hard\libc_nano.a(lib_a-strrchr.o)
 .ARM.attributes
                0x000016f2       0x34 c:/mesh/arm_gcc/bin/../lib/gcc/arm-none-eabi/6.3.1/../../../../arm-none-eabi/lib/thumb/v7e-m/fpv4-sp/hard\libc_nano.a(lib_a-mlock.o)
 .ARM.attributes
                0x00001726       0x34 c:/mesh/arm_gcc/bin/../lib/gcc/arm-none-eabi/6.3.1/../../../../arm-none-eabi/lib/thumb/v7e-m/fpv4-sp/hard\libc_nano.a(lib_a-reent.o)
 .ARM.attributes
                0x0000175a       0x34 c:/mesh/arm_gcc/bin/../lib/gcc/arm-none-eabi/6.3.1/../../../../arm-none-eabi/lib/thumb/v7e-m/fpv4-sp/hard\libc_nano.a(lib_a-strchr.o)
 .ARM.attributes
                0x0000178e       0x34 c:/mesh/arm_gcc/bin/../lib/gcc/arm-none-eabi/6.3.1/thumb/v7e-m/fpv4-sp/hard/crtend.o
 .ARM.attributes
                0x000017c2       0x22 c:/mesh/arm_gcc/bin/../lib/gcc/arm-none-eabi/6.3.1/thumb/v7e-m/fpv4-sp/hard/crtn.o
 .ARM.attributes
                0x000017e4       0x34 c:/mesh/arm_gcc/bin/../lib/gcc/arm-none-eabi/6.3.1/../../../../arm-none-eabi/lib/thumb/v7e-m/fpv4-sp/hard\libnosys.a(sbrk.o)
 .ARM.attributes
                0x00001818       0x34 c:/mesh/arm_gcc/bin/../lib/gcc/arm-none-eabi/6.3.1/../../../../arm-none-eabi/lib/thumb/v7e-m/fpv4-sp/hard\libnosys.a(_exit.o)

.comment        0x00000000       0x7f
 .comment       0x00000000       0x7f examples/serial/CMakeFiles/serial_nrf52840_xxAA_s140_6.0.0.dir/src/main.c.obj
                                 0x80 (size before relaxing)
 .comment       0x0000007f       0x80 examples/serial/CMakeFiles/serial_nrf52840_xxAA_s140_6.0.0.dir/__/__/mesh/stack/src/mesh_stack.c.obj
 .comment       0x0000007f       0x80 examples/serial/CMakeFiles/serial_nrf52840_xxAA_s140_6.0.0.dir/__/common/src/mesh_softdevice_init.c.obj
 .comment       0x0000007f       0x80 examples/serial/CMakeFiles/serial_nrf52840_xxAA_s140_6.0.0.dir/__/common/src/mesh_provisionee.c.obj
 .comment       0x0000007f       0x80 examples/serial/CMakeFiles/serial_nrf52840_xxAA_s140_6.0.0.dir/__/common/src/simple_hal.c.obj
 .comment       0x0000007f       0x80 examples/serial/CMakeFiles/serial_nrf52840_xxAA_s140_6.0.0.dir/__/__/mesh/prov/src/prov_provisioner.c.obj
 .comment       0x0000007f       0x80 examples/serial/CMakeFiles/serial_nrf52840_xxAA_s140_6.0.0.dir/__/__/mesh/prov/src/prov_provisionee.c.obj
 .comment       0x0000007f       0x80 examples/serial/CMakeFiles/serial_nrf52840_xxAA_s140_6.0.0.dir/__/__/mesh/prov/src/nrf_mesh_prov.c.obj
 .comment       0x0000007f       0x80 examples/serial/CMakeFiles/serial_nrf52840_xxAA_s140_6.0.0.dir/__/__/mesh/prov/src/provisioning.c.obj
 .comment       0x0000007f       0x80 examples/serial/CMakeFiles/serial_nrf52840_xxAA_s140_6.0.0.dir/__/__/mesh/prov/src/prov_beacon.c.obj
 .comment       0x0000007f       0x80 examples/serial/CMakeFiles/serial_nrf52840_xxAA_s140_6.0.0.dir/__/__/mesh/prov/src/prov_utils.c.obj
 .comment       0x0000007f       0x80 examples/serial/CMakeFiles/serial_nrf52840_xxAA_s140_6.0.0.dir/__/__/mesh/prov/src/prov_bearer_adv.c.obj
 .comment       0x0000007f       0x80 examples/serial/CMakeFiles/serial_nrf52840_xxAA_s140_6.0.0.dir/__/__/mesh/access/src/access_publish.c.obj
 .comment       0x0000007f       0x80 examples/serial/CMakeFiles/serial_nrf52840_xxAA_s140_6.0.0.dir/__/__/mesh/access/src/access.c.obj
 .comment       0x0000007f       0x80 examples/serial/CMakeFiles/serial_nrf52840_xxAA_s140_6.0.0.dir/__/__/mesh/access/src/access_reliable.c.obj
 .comment       0x0000007f       0x80 examples/serial/CMakeFiles/serial_nrf52840_xxAA_s140_6.0.0.dir/__/__/mesh/access/src/device_state_manager.c.obj
 .comment       0x0000007f       0x80 examples/serial/CMakeFiles/serial_nrf52840_xxAA_s140_6.0.0.dir/__/__/models/config/src/composition_data.c.obj
 .comment       0x0000007f       0x80 examples/serial/CMakeFiles/serial_nrf52840_xxAA_s140_6.0.0.dir/__/__/models/config/src/config_server.c.obj
 .comment       0x0000007f       0x80 examples/serial/CMakeFiles/serial_nrf52840_xxAA_s140_6.0.0.dir/__/__/models/config/src/packed_index_list.c.obj
 .comment       0x0000007f       0x80 examples/serial/CMakeFiles/serial_nrf52840_xxAA_s140_6.0.0.dir/__/__/models/health/src/health_server.c.obj
 .comment       0x0000007f       0x80 examples/serial/CMakeFiles/serial_nrf52840_xxAA_s140_6.0.0.dir/__/__/mesh/serial/src/serial_uart.c.obj
 .comment       0x0000007f       0x80 examples/serial/CMakeFiles/serial_nrf52840_xxAA_s140_6.0.0.dir/__/__/mesh/serial/src/serial_bearer.c.obj
 .comment       0x0000007f       0x80 examples/serial/CMakeFiles/serial_nrf52840_xxAA_s140_6.0.0.dir/__/__/mesh/serial/src/serial_handler_common.c.obj
 .comment       0x0000007f       0x80 examples/serial/CMakeFiles/serial_nrf52840_xxAA_s140_6.0.0.dir/__/__/mesh/serial/src/serial_handler_access.c.obj
 .comment       0x0000007f       0x80 examples/serial/CMakeFiles/serial_nrf52840_xxAA_s140_6.0.0.dir/__/__/mesh/serial/src/serial_handler_config.c.obj
 .comment       0x0000007f       0x80 examples/serial/CMakeFiles/serial_nrf52840_xxAA_s140_6.0.0.dir/__/__/mesh/serial/src/serial_handler_openmesh.c.obj
 .comment       0x0000007f       0x80 examples/serial/CMakeFiles/serial_nrf52840_xxAA_s140_6.0.0.dir/__/__/mesh/serial/src/serial.c.obj
 .comment       0x0000007f       0x80 examples/serial/CMakeFiles/serial_nrf52840_xxAA_s140_6.0.0.dir/__/__/mesh/serial/src/serial_handler_prov.c.obj
 .comment       0x0000007f       0x80 examples/serial/CMakeFiles/serial_nrf52840_xxAA_s140_6.0.0.dir/__/__/mesh/serial/src/serial_handler_dfu.c.obj
 .comment       0x0000007f       0x80 examples/serial/CMakeFiles/serial_nrf52840_xxAA_s140_6.0.0.dir/__/__/mesh/serial/src/serial_handler_mesh.c.obj
 .comment       0x0000007f       0x80 examples/serial/CMakeFiles/serial_nrf52840_xxAA_s140_6.0.0.dir/__/__/mesh/serial/src/serial_handler_models.c.obj
 .comment       0x0000007f       0x80 examples/serial/CMakeFiles/serial_nrf52840_xxAA_s140_6.0.0.dir/__/__/mesh/serial/src/serial_handler_device.c.obj
 .comment       0x0000007f       0x80 examples/serial/CMakeFiles/serial_nrf52840_xxAA_s140_6.0.0.dir/__/__/mesh/serial/src/nrf_mesh_serial.c.obj
 .comment       0x0000007f       0x80 examples/serial/CMakeFiles/serial_nrf52840_xxAA_s140_6.0.0.dir/__/__/mesh/serial/src/serial_handler_app.c.obj
 .comment       0x0000007f       0x80 examples/serial/CMakeFiles/serial_nrf52840_xxAA_s140_6.0.0.dir/__/nrf_mesh_weak.c.obj
 .comment       0x0000007f       0x80 examples/serial/CMakeFiles/serial_nrf52840_xxAA_s140_6.0.0.dir/__/common/src/app_error_weak.c.obj
 .comment       0x0000007f       0x80 examples/serial/CMakeFiles/serial_nrf52840_xxAA_s140_6.0.0.dir/__/common/src/assertion_handler_weak.c.obj
 .comment       0x0000007f       0x80 examples/serial/CMakeFiles/serial_nrf52840_xxAA_s140_6.0.0.dir/__/__/mesh/core/src/nrf_mesh_configure.c.obj
 .comment       0x0000007f       0x80 examples/serial/CMakeFiles/serial_nrf52840_xxAA_s140_6.0.0.dir/__/__/mesh/core/src/aes.c.obj
 .comment       0x0000007f       0x80 examples/serial/CMakeFiles/serial_nrf52840_xxAA_s140_6.0.0.dir/__/__/mesh/core/src/msg_cache.c.obj
 .comment       0x0000007f       0x80 examples/serial/CMakeFiles/serial_nrf52840_xxAA_s140_6.0.0.dir/__/__/mesh/core/src/transport.c.obj
 .comment       0x0000007f       0x80 examples/serial/CMakeFiles/serial_nrf52840_xxAA_s140_6.0.0.dir/__/__/mesh/core/src/event.c.obj
 .comment       0x0000007f       0x80 examples/serial/CMakeFiles/serial_nrf52840_xxAA_s140_6.0.0.dir/__/__/mesh/core/src/packet_buffer.c.obj
 .comment       0x0000007f       0x80 examples/serial/CMakeFiles/serial_nrf52840_xxAA_s140_6.0.0.dir/__/__/mesh/core/src/flash_manager_defrag.c.obj
 .comment       0x0000007f       0x80 examples/serial/CMakeFiles/serial_nrf52840_xxAA_s140_6.0.0.dir/__/__/mesh/core/src/fifo.c.obj
 .comment       0x0000007f       0x80 examples/serial/CMakeFiles/serial_nrf52840_xxAA_s140_6.0.0.dir/__/__/mesh/core/src/packet_mgr.c.obj
 .comment       0x0000007f       0x80 examples/serial/CMakeFiles/serial_nrf52840_xxAA_s140_6.0.0.dir/__/__/mesh/core/src/net_state.c.obj
 .comment       0x0000007f       0x80 examples/serial/CMakeFiles/serial_nrf52840_xxAA_s140_6.0.0.dir/__/__/mesh/core/src/mesh_flash.c.obj
 .comment       0x0000007f       0x80 examples/serial/CMakeFiles/serial_nrf52840_xxAA_s140_6.0.0.dir/__/__/mesh/core/src/nrf_mesh_utils.c.obj
 .comment       0x0000007f       0x80 examples/serial/CMakeFiles/serial_nrf52840_xxAA_s140_6.0.0.dir/__/__/mesh/core/src/nrf_mesh.c.obj
 .comment       0x0000007f       0x80 examples/serial/CMakeFiles/serial_nrf52840_xxAA_s140_6.0.0.dir/__/__/mesh/core/src/queue.c.obj
 .comment       0x0000007f       0x80 examples/serial/CMakeFiles/serial_nrf52840_xxAA_s140_6.0.0.dir/__/__/mesh/core/src/hal.c.obj
 .comment       0x0000007f       0x80 examples/serial/CMakeFiles/serial_nrf52840_xxAA_s140_6.0.0.dir/__/__/mesh/core/src/aes_cmac.c.obj
 .comment       0x0000007f       0x80 examples/serial/CMakeFiles/serial_nrf52840_xxAA_s140_6.0.0.dir/__/__/mesh/core/src/timer_scheduler.c.obj
 .comment       0x0000007f       0x80 examples/serial/CMakeFiles/serial_nrf52840_xxAA_s140_6.0.0.dir/__/__/mesh/core/src/timer.c.obj
 .comment       0x0000007f       0x80 examples/serial/CMakeFiles/serial_nrf52840_xxAA_s140_6.0.0.dir/__/__/mesh/core/src/ticker.c.obj
 .comment       0x0000007f       0x80 examples/serial/CMakeFiles/serial_nrf52840_xxAA_s140_6.0.0.dir/__/__/mesh/core/src/rand.c.obj
 .comment       0x0000007f       0x80 examples/serial/CMakeFiles/serial_nrf52840_xxAA_s140_6.0.0.dir/__/__/mesh/core/src/nrf_mesh_opt.c.obj
 .comment       0x0000007f       0x80 examples/serial/CMakeFiles/serial_nrf52840_xxAA_s140_6.0.0.dir/__/__/mesh/core/src/timeslot.c.obj
 .comment       0x0000007f       0x80 examples/serial/CMakeFiles/serial_nrf52840_xxAA_s140_6.0.0.dir/__/__/mesh/core/src/bearer_event.c.obj
 .comment       0x0000007f       0x80 examples/serial/CMakeFiles/serial_nrf52840_xxAA_s140_6.0.0.dir/__/__/mesh/core/src/enc.c.obj
 .comment       0x0000007f       0x80 examples/serial/CMakeFiles/serial_nrf52840_xxAA_s140_6.0.0.dir/__/__/mesh/core/src/network.c.obj
 .comment       0x0000007f       0x80 examples/serial/CMakeFiles/serial_nrf52840_xxAA_s140_6.0.0.dir/__/__/mesh/core/src/net_packet.c.obj
 .comment       0x0000007f       0x80 examples/serial/CMakeFiles/serial_nrf52840_xxAA_s140_6.0.0.dir/__/__/mesh/core/src/msqueue.c.obj
 .comment       0x0000007f       0x80 examples/serial/CMakeFiles/serial_nrf52840_xxAA_s140_6.0.0.dir/__/__/mesh/core/src/nrf_mesh_keygen.c.obj
 .comment       0x0000007f       0x80 examples/serial/CMakeFiles/serial_nrf52840_xxAA_s140_6.0.0.dir/__/__/mesh/core/src/list.c.obj
 .comment       0x0000007f       0x80 examples/serial/CMakeFiles/serial_nrf52840_xxAA_s140_6.0.0.dir/__/__/mesh/core/src/log.c.obj
 .comment       0x0000007f       0x80 examples/serial/CMakeFiles/serial_nrf52840_xxAA_s140_6.0.0.dir/__/__/mesh/core/src/flash_manager.c.obj
 .comment       0x0000007f       0x80 examples/serial/CMakeFiles/serial_nrf52840_xxAA_s140_6.0.0.dir/__/__/mesh/core/src/ccm_soft.c.obj
 .comment       0x0000007f       0x80 examples/serial/CMakeFiles/serial_nrf52840_xxAA_s140_6.0.0.dir/__/__/mesh/core/src/replay_cache.c.obj
 .comment       0x0000007f       0x80 examples/serial/CMakeFiles/serial_nrf52840_xxAA_s140_6.0.0.dir/__/__/mesh/core/src/beacon.c.obj
 .comment       0x0000007f       0x80 examples/serial/CMakeFiles/serial_nrf52840_xxAA_s140_6.0.0.dir/__/__/mesh/core/src/core_tx.c.obj
 .comment       0x0000007f       0x80 examples/serial/CMakeFiles/serial_nrf52840_xxAA_s140_6.0.0.dir/__/__/mesh/core/src/heartbeat.c.obj
 .comment       0x0000007f       0x80 examples/serial/CMakeFiles/serial_nrf52840_xxAA_s140_6.0.0.dir/__/__/mesh/core/src/net_beacon.c.obj
 .comment       0x0000007f       0x80 examples/serial/CMakeFiles/serial_nrf52840_xxAA_s140_6.0.0.dir/__/__/mesh/core/src/core_tx_adv.c.obj
 .comment       0x0000007f       0x80 examples/serial/CMakeFiles/serial_nrf52840_xxAA_s140_6.0.0.dir/__/__/mesh/bearer/src/ad_listener.c.obj
 .comment       0x0000007f       0x80 examples/serial/CMakeFiles/serial_nrf52840_xxAA_s140_6.0.0.dir/__/__/mesh/bearer/src/ad_type_filter.c.obj
 .comment       0x0000007f       0x80 examples/serial/CMakeFiles/serial_nrf52840_xxAA_s140_6.0.0.dir/__/__/mesh/bearer/src/advertiser.c.obj
 .comment       0x0000007f       0x80 examples/serial/CMakeFiles/serial_nrf52840_xxAA_s140_6.0.0.dir/__/__/mesh/bearer/src/bearer_handler.c.obj
 .comment       0x0000007f       0x80 examples/serial/CMakeFiles/serial_nrf52840_xxAA_s140_6.0.0.dir/__/__/mesh/bearer/src/broadcast.c.obj
 .comment       0x0000007f       0x80 examples/serial/CMakeFiles/serial_nrf52840_xxAA_s140_6.0.0.dir/__/__/mesh/bearer/src/filter_engine.c.obj
 .comment       0x0000007f       0x80 examples/serial/CMakeFiles/serial_nrf52840_xxAA_s140_6.0.0.dir/__/__/mesh/bearer/src/radio_config.c.obj
 .comment       0x0000007f       0x80 examples/serial/CMakeFiles/serial_nrf52840_xxAA_s140_6.0.0.dir/__/__/mesh/bearer/src/scanner.c.obj
 .comment       0x0000007f       0x80 examples/serial/CMakeFiles/serial_nrf52840_xxAA_s140_6.0.0.dir/C_/ver/mod/nRF5_SDK_15.0.0_a53641a/modules/nrfx/mdk/system_nrf52840.c.obj
 .comment       0x0000007f       0x80 examples/serial/CMakeFiles/serial_nrf52840_xxAA_s140_6.0.0.dir/C_/ver/mod/nRF5_SDK_15.0.0_a53641a/components/libraries/util/app_error.c.obj
 .comment       0x0000007f       0x80 examples/serial/CMakeFiles/serial_nrf52840_xxAA_s140_6.0.0.dir/C_/ver/mod/nRF5_SDK_15.0.0_a53641a/components/libraries/util/app_error_handler_gcc.c.obj
 .comment       0x0000007f       0x80 external/micro-ecc/libuECC_nrf52840_xxAA.a(uECC.c.obj)
 .comment       0x0000007f       0x80 external/rtt/librtt_nrf52840_xxAA.a(SEGGER_RTT.c.obj)
 .comment       0x0000007f       0x80 external/rtt/librtt_nrf52840_xxAA.a(SEGGER_RTT_printf.c.obj)

.debug_frame    0x00000000      0x2c4
 .debug_frame   0x00000000       0x28 c:/mesh/arm_gcc/bin/../lib/gcc/arm-none-eabi/6.3.1/../../../../arm-none-eabi/lib/thumb/v7e-m/fpv4-sp/hard\libc_nano.a(lib_a-exit.o)
 .debug_frame   0x00000028       0x2c c:/mesh/arm_gcc/bin/../lib/gcc/arm-none-eabi/6.3.1/../../../../arm-none-eabi/lib/thumb/v7e-m/fpv4-sp/hard\libc_nano.a(lib_a-init.o)
 .debug_frame   0x00000054       0x30 c:/mesh/arm_gcc/bin/../lib/gcc/arm-none-eabi/6.3.1/../../../../arm-none-eabi/lib/thumb/v7e-m/fpv4-sp/hard\libc_nano.a(lib_a-malloc.o)
 .debug_frame   0x00000084       0x28 c:/mesh/arm_gcc/bin/../lib/gcc/arm-none-eabi/6.3.1/../../../../arm-none-eabi/lib/thumb/v7e-m/fpv4-sp/hard\libc_nano.a(lib_a-memcmp.o)
 .debug_frame   0x000000ac       0x28 c:/mesh/arm_gcc/bin/../lib/gcc/arm-none-eabi/6.3.1/../../../../arm-none-eabi/lib/thumb/v7e-m/fpv4-sp/hard\libc_nano.a(lib_a-memcpy-stub.o)
 .debug_frame   0x000000d4       0x20 c:/mesh/arm_gcc/bin/../lib/gcc/arm-none-eabi/6.3.1/../../../../arm-none-eabi/lib/thumb/v7e-m/fpv4-sp/hard\libc_nano.a(lib_a-memset.o)
 .debug_frame   0x000000f4       0x38 c:/mesh/arm_gcc/bin/../lib/gcc/arm-none-eabi/6.3.1/../../../../arm-none-eabi/lib/thumb/v7e-m/fpv4-sp/hard\libc_nano.a(lib_a-nano-freer.o)
 .debug_frame   0x0000012c       0x2c c:/mesh/arm_gcc/bin/../lib/gcc/arm-none-eabi/6.3.1/../../../../arm-none-eabi/lib/thumb/v7e-m/fpv4-sp/hard\libc_nano.a(lib_a-nano-mallocr.o)
 .debug_frame   0x00000158       0x2c c:/mesh/arm_gcc/bin/../lib/gcc/arm-none-eabi/6.3.1/../../../../arm-none-eabi/lib/thumb/v7e-m/fpv4-sp/hard\libc_nano.a(lib_a-sbrkr.o)
 .debug_frame   0x00000184       0x20 c:/mesh/arm_gcc/bin/../lib/gcc/arm-none-eabi/6.3.1/../../../../arm-none-eabi/lib/thumb/v7e-m/fpv4-sp/hard\libc_nano.a(lib_a-strcpy.o)
 .debug_frame   0x000001a4       0x34 c:/mesh/arm_gcc/bin/../lib/gcc/arm-none-eabi/6.3.1/../../../../arm-none-eabi/lib/thumb/v7e-m/fpv4-sp/hard\libc_nano.a(lib_a-strrchr.o)
 .debug_frame   0x000001d8       0x30 c:/mesh/arm_gcc/bin/../lib/gcc/arm-none-eabi/6.3.1/../../../../arm-none-eabi/lib/thumb/v7e-m/fpv4-sp/hard\libc_nano.a(lib_a-mlock.o)
 .debug_frame   0x00000208       0x5c c:/mesh/arm_gcc/bin/../lib/gcc/arm-none-eabi/6.3.1/../../../../arm-none-eabi/lib/thumb/v7e-m/fpv4-sp/hard\libc_nano.a(lib_a-reent.o)
 .debug_frame   0x00000264       0x20 c:/mesh/arm_gcc/bin/../lib/gcc/arm-none-eabi/6.3.1/../../../../arm-none-eabi/lib/thumb/v7e-m/fpv4-sp/hard\libc_nano.a(lib_a-strchr.o)
 .debug_frame   0x00000284       0x20 c:/mesh/arm_gcc/bin/../lib/gcc/arm-none-eabi/6.3.1/../../../../arm-none-eabi/lib/thumb/v7e-m/fpv4-sp/hard\libnosys.a(sbrk.o)
 .debug_frame   0x000002a4       0x20 c:/mesh/arm_gcc/bin/../lib/gcc/arm-none-eabi/6.3.1/../../../../arm-none-eabi/lib/thumb/v7e-m/fpv4-sp/hard\libnosys.a(_exit.o)
